 OPOSRFIDScanner

 Timestamp is 5d429fa4 (Thu Aug  1 17:15:32 2019)

 Preferred load address is 0000000180000000

 Start         Length     Name                   Class
 0001:00000000 00001400H .text$di                CODE
 0001:00001400 000d2ee0H .text$mn                CODE
 0001:000d42e0 00000020H .text$mn$00             CODE
 0001:000d4300 00001360H .text$x                 CODE
 0001:000d5660 000001b4H .text$yd                CODE
 0002:00000000 000006d8H .idata$5                DATA
 0002:000006d8 00000010H .00cfg                  DATA
 0002:000006e8 00000008H .CRT$XCA                DATA
 0002:000006f0 00000008H .CRT$XCL                DATA
 0002:000006f8 000000d8H .CRT$XCU                DATA
 0002:000007d0 00000008H .CRT$XCZ                DATA
 0002:000007d8 00000008H .CRT$XIA                DATA
 0002:000007e0 00000020H .CRT$XIC                DATA
 0002:00000800 00000008H .CRT$XIZ                DATA
 0002:00000808 00000008H .CRT$XLA                DATA
 0002:00000810 00000008H .CRT$XLZ                DATA
 0002:00000818 00000008H .CRT$XPA                DATA
 0002:00000820 00000010H .CRT$XPX                DATA
 0002:00000830 00000008H .CRT$XPXA               DATA
 0002:00000838 00000008H .CRT$XPZ                DATA
 0002:00000840 00000008H .CRT$XTA                DATA
 0002:00000848 00000008H .CRT$XTZ                DATA
 0002:00000850 00000000H .gfids$y                DATA
 0002:00000850 0003b4d8H .rdata                  DATA
 0002:0003bd28 00000028H .rdata$T                DATA
 0002:0003bd50 0000056cH .rdata$r                DATA
 0002:0003c2bc 00000434H .rdata$zzzdbg           DATA
 0002:0003c6f0 00000008H .rtc$IAA                DATA
 0002:0003c6f8 00000030H .rtc$IMZ                DATA
 0002:0003c728 00000008H .rtc$IZZ                DATA
 0002:0003c730 00000008H .rtc$TAA                DATA
 0002:0003c738 00000030H .rtc$TMZ                DATA
 0002:0003c768 00000008H .rtc$TZZ                DATA
 0002:0003c770 00000004H .tls                    DATA
 0002:0003c774 00000004H .tls$                   DATA
 0002:0003c778 00000008H .tls$ZZZ                DATA
 0002:0003c780 00009738H .xdata                  DATA
 0002:00045eb8 00000150H .xdata$x                DATA
 0002:00046008 00000008H ATL$__a                 DATA
 0002:00046010 00000010H ATL$__z                 DATA
 0002:00046020 000000acH .edata                  DATA
 0002:000460cc 00000078H .idata$2                DATA
 0002:00046144 00000014H .idata$3                DATA
 0002:00046158 000006d8H .idata$4                DATA
 0002:00046830 00000db8H .idata$6                DATA
 0003:00000000 00000ee8H .data                   DATA
 0003:00000ee8 00000198H .data$r                 DATA
 0003:00001080 00003e9cH .bss                    DATA
 0004:00000000 0000c00cH .pdata                  DATA
 0005:00000000 00000094H _RDATA                  DATA
 0006:00000000 00000220H .rsrc$01                DATA
 0006:00000220 000045c8H .rsrc$02                DATA

  Address         Publics by Value              Rva+Base               Lib:Object

 0000:00000000       __guard_fids_table         0000000000000000     <absolute>
 0000:00000000       __volatile_metadata        0000000000000000     <absolute>
 0000:00000000       __AbsoluteZero             0000000000000000     <absolute>
 0000:00000000       __enclave_config           0000000000000000     <absolute>
 0000:00000000       __guard_iat_count          0000000000000000     <absolute>
 0000:00000000       __hybrid_code_map_count    0000000000000000     <absolute>
 0000:00000000       __dynamic_value_reloc_table 0000000000000000     <absolute>
 0000:00000000       ___safe_se_handler_table   0000000000000000     <absolute>
 0000:00000000       __hybrid_code_map          0000000000000000     <absolute>
 0000:00000000       __guard_fids_count         0000000000000000     <absolute>
 0000:00000000       __guard_iat_table          0000000000000000     <absolute>
 0000:00000000       __hybrid_auxiliary_iat     0000000000000000     <absolute>
 0000:00000000       __guard_longjmp_table      0000000000000000     <absolute>
 0000:00000000       ___safe_se_handler_count   0000000000000000     <absolute>
 0000:00000000       __guard_longjmp_count      0000000000000000     <absolute>
 0000:00000100       __guard_flags              0000000000000100     <absolute>
 0000:00000000       __ImageBase                0000000180000000     <linker-defined>
 0001:00001400       ?_assert@@YAXPEB_W0I@Z     0000000180002400 f   Assert.obj
 0001:00001500       __local_stdio_printf_options 0000000180002500 f i Assert.obj
 0001:00001510       __vswprintf_l              0000000180002510 f i Assert.obj
 0001:00001570       _swprintf                  0000000180002570 f i Assert.obj
 0001:000015f0       _vswprintf_c_l             00000001800025f0 f i Assert.obj
 0001:00001680       _vswprintf_l               0000000180002680 f i Assert.obj
 0001:000016e0       ?cw_memcpy@@YAHPEADPEB_WH@Z 00000001800026e0 f   CWString.obj
 0001:00001770       ?cw_memcpy@@YAHPEA_WPEBDH@Z 0000000180002770 f   CWString.obj
 0001:000017f0       ?cw_memcpy@@YAHPEADPEBDH@Z 00000001800027f0 f   CWString.obj
 0001:00001890       ?cw_memcpy@@YAHPEA_WPEB_WH@Z 0000000180002890 f   CWString.obj
 0001:00001900       ?cw_memset@@YAXPEADDH@Z    0000000180002900 f   CWString.obj
 0001:00001970       ?cw_memset@@YAXPEA_W_WH@Z  0000000180002970 f   CWString.obj
 0001:00001a10       ?cw_strlen@@YAHPEBD@Z      0000000180002a10 f   CWString.obj
 0001:00001a80       ?cw_strlen@@YAHPEB_W@Z     0000000180002a80 f   CWString.obj
 0001:00001af0       ?cw_strcpy@@YAHPEADPEB_W@Z 0000000180002af0 f   CWString.obj
 0001:00001b40       ?cw_strcpy@@YAHPEA_WPEBD@Z 0000000180002b40 f   CWString.obj
 0001:00001b90       ?cw_strcpy@@YAHPEADPEBD@Z  0000000180002b90 f   CWString.obj
 0001:00001be0       ?cw_strcpy@@YAHPEA_WPEB_W@Z 0000000180002be0 f   CWString.obj
 0001:00001c30       ?cw_strcat@@YAHPEADPEB_W@Z 0000000180002c30 f   CWString.obj
 0001:00001c90       ?cw_strcat@@YAHPEA_WPEBD@Z 0000000180002c90 f   CWString.obj
 0001:00001cf0       ?cw_strcat@@YAHPEADPEBD@Z  0000000180002cf0 f   CWString.obj
 0001:00001d50       ?cw_strcat@@YAHPEA_WPEB_W@Z 0000000180002d50 f   CWString.obj
 0001:00001db0       ?cw_dup@@YAXPEBDAEAHAEAPEA_W1@Z 0000000180002db0 f   CWString.obj
 0001:00001ec0       ?cw_dup@@YAXPEB_WAEAHAEAPEAD1@Z 0000000180002ec0 f   CWString.obj
 0001:00001fb0       ?DupChar@_CW@@AEAAXXZ      0000000180002fb0 f   CWString.obj
 0001:00002010       ?DupWide@_CW@@AEAAXXZ      0000000180003010 f   CWString.obj
 0001:00002080       ?GetCharsMbcs@_CW@@QEAAHXZ 0000000180003080 f   CWString.obj
 0001:000020f0       ?GetCharsWide@_CW@@QEAAHXZ 00000001800030f0 f   CWString.obj
 0001:00002160       ?SetVARIANT_BOOL@OposVariant@@QEAAXF@Z 0000000180003160 f   OposVariant.obj
 0001:000021d0       ?SetVARIANT_BOOL_Ptr@OposVariant@@QEAAXPEAFAEAJ@Z 00000001800031d0 f   OposVariant.obj
 0001:00002240       ?GetLONG@OposVariant@@QEAAJXZ 0000000180003240 f   OposVariant.obj
 0001:000022a0       ?ChangeLONG@OposVariant@@QEAAXPEAJAEAJ@Z 00000001800032a0 f   OposVariant.obj
 0001:00002350       ?SetLONG@OposVariant@@QEAAXJ@Z 0000000180003350 f   OposVariant.obj
 0001:000023b0       ?SetLONG_Ptr@OposVariant@@QEAAXPEAJAEAJ@Z 00000001800033b0 f   OposVariant.obj
 0001:00002420       ?ChangeCURRENCY@OposVariant@@QEAAXPEATtagCY@@AEAJ@Z 0000000180003420 f   OposVariant.obj
 0001:000024d0       ?SetCURRENCY@OposVariant@@QEAAXTtagCY@@@Z 00000001800034d0 f   OposVariant.obj
 0001:00002530       ?SetCURRENCY_Ptr@OposVariant@@QEAAXPEATtagCY@@AEAJ@Z 0000000180003530 f   OposVariant.obj
 0001:000025a0       ?ChangeBSTR@OposVariant@@QEAAXPEAPEA_WAEAJ@Z 00000001800035a0 f   OposVariant.obj
 0001:00002650       ?SetBSTR@OposVariant@@QEAAXPEA_WAEAJ@Z 0000000180003650 f   OposVariant.obj
 0001:000026d0       ?SetBSTR_Copy@OposVariant@@QEAAXPEA_WAEAJ@Z 00000001800036d0 f   OposVariant.obj
 0001:00002780       ?SetBSTR_OutPtr@OposVariant@@QEAA_NPEAPEA_WAEAJ@Z 0000000180003780 f   OposVariant.obj
 0001:000027f0       ?SetBSTR_InOutPtr@OposVariant@@QEAA_NPEAPEA_WAEAJ@Z 00000001800037f0 f   OposVariant.obj
 0001:00002870       ?SetVARIANT@OposVariant@@QEAAXAEAUtagVARIANT@@GAEAJ@Z 0000000180003870 f   OposVariant.obj
 0001:00002910       ?SetVARIANT_Ptr@OposVariant@@QEAAXAEAPEAUtagVARIANT@@GAEAJ@Z 0000000180003910 f   OposVariant.obj
 0001:000029c0       ?SetString@OposVariant@@QEAAXPEB_WAEAJ@Z 00000001800039c0 f   OposVariant.obj
 0001:00002a70       ?SetDispatch_Ptr@OposVariant@@QEAAXPEAUIDispatch@@AEAJ@Z 0000000180003a70 f   OposVariant.obj
 0001:00002b00       ??0OposDispParms@@QEAA@PEAVOposVariant@@H@Z 0000000180003b00 f   OposVariant.obj
 0001:00002c10       ??1OposDispParms@@QEAA@XZ  0000000180003c10 f   OposVariant.obj
 0001:00002c60       ??$AtlMultiply@_K@ATL@@YAJPEA_K_K1@Z 0000000180003c60 f i OposVariant.obj
 0001:00002ce0       ??0?$CHeapPtr@_WVCCRTAllocator@ATL@@@ATL@@QEAA@XZ 0000000180003ce0 f i OposVariant.obj
 0001:00002d20       ??0?$CHeapPtrBase@_WVCCRTAllocator@ATL@@@ATL@@IEAA@XZ 0000000180003d20 f i OposVariant.obj
 0001:00002d40       ??0?$CSimpleArray@GV?$CSimpleArrayEqualHelper@G@ATL@@@ATL@@QEAA@XZ 0000000180003d40 f i OposVariant.obj
 0001:00002d80       ??0?$CTraceCategoryEx@$00$0A@@ATL@@QEAA@PEB_W@Z 0000000180003d80 f i OposVariant.obj
 0001:00002dc0       ??0?$CTraceCategoryEx@$01$0A@@ATL@@QEAA@PEB_W@Z 0000000180003dc0 f i OposVariant.obj
 0001:00002e00       ??0?$CTraceCategoryEx@$03$0A@@ATL@@QEAA@PEB_W@Z 0000000180003e00 f i OposVariant.obj
 0001:00002e40       ??0?$CTraceCategoryEx@$07$0A@@ATL@@QEAA@PEB_W@Z 0000000180003e40 f i OposVariant.obj
 0001:00002e80       ??0?$CTraceCategoryEx@$0BA@$0A@@ATL@@QEAA@PEB_W@Z 0000000180003e80 f i OposVariant.obj
 0001:00002ec0       ??0?$CTraceCategoryEx@$0BAA@$0A@@ATL@@QEAA@PEB_W@Z 0000000180003ec0 f i OposVariant.obj
 0001:00002f00       ??0?$CTraceCategoryEx@$0BAAA@$0A@@ATL@@QEAA@PEB_W@Z 0000000180003f00 f i OposVariant.obj
 0001:00002f40       ??0?$CTraceCategoryEx@$0BAAAA@$0A@@ATL@@QEAA@PEB_W@Z 0000000180003f40 f i OposVariant.obj
 0001:00002f80       ??0?$CTraceCategoryEx@$0BAAAAA@$0A@@ATL@@QEAA@PEB_W@Z 0000000180003f80 f i OposVariant.obj
 0001:00002fc0       ??0?$CTraceCategoryEx@$0CA@$0A@@ATL@@QEAA@PEB_W@Z 0000000180003fc0 f i OposVariant.obj
 0001:00003000       ??0?$CTraceCategoryEx@$0CAA@$0A@@ATL@@QEAA@PEB_W@Z 0000000180004000 f i OposVariant.obj
 0001:00003040       ??0?$CTraceCategoryEx@$0CAAA@$0A@@ATL@@QEAA@PEB_W@Z 0000000180004040 f i OposVariant.obj
 0001:00003080       ??0?$CTraceCategoryEx@$0CAAAA@$0A@@ATL@@QEAA@PEB_W@Z 0000000180004080 f i OposVariant.obj
 0001:000030c0       ??0?$CTraceCategoryEx@$0CAAAAA@$0A@@ATL@@QEAA@PEB_W@Z 00000001800040c0 f i OposVariant.obj
 0001:00003100       ??0?$CTraceCategoryEx@$0EA@$0A@@ATL@@QEAA@PEB_W@Z 0000000180004100 f i OposVariant.obj
 0001:00003140       ??0?$CTraceCategoryEx@$0EAA@$0A@@ATL@@QEAA@PEB_W@Z 0000000180004140 f i OposVariant.obj
 0001:00003180       ??0?$CTraceCategoryEx@$0EAAA@$0A@@ATL@@QEAA@PEB_W@Z 0000000180004180 f i OposVariant.obj
 0001:000031c0       ??0?$CTraceCategoryEx@$0EAAAA@$0A@@ATL@@QEAA@PEB_W@Z 00000001800041c0 f i OposVariant.obj
 0001:00003200       ??0?$CTraceCategoryEx@$0EAAAAA@$0A@@ATL@@QEAA@PEB_W@Z 0000000180004200 f i OposVariant.obj
 0001:00003240       ??0?$CTraceCategoryEx@$0IA@$0A@@ATL@@QEAA@PEB_W@Z 0000000180004240 f i OposVariant.obj
 0001:00003280       ??0?$CTraceCategoryEx@$0IAA@$0A@@ATL@@QEAA@PEB_W@Z 0000000180004280 f i OposVariant.obj
 0001:000032c0       ??0?$CTraceCategoryEx@$0IAAA@$0A@@ATL@@QEAA@PEB_W@Z 00000001800042c0 f i OposVariant.obj
 0001:00003300       ??0?$CTraceCategoryEx@$0IAAAA@$0A@@ATL@@QEAA@PEB_W@Z 0000000180004300 f i OposVariant.obj
 0001:00003340       ??0CAtlComModule@ATL@@QEAA@XZ 0000000180004340 f i OposVariant.obj
 0001:00003460       ??0CAtlWinModule@ATL@@QEAA@XZ 0000000180004460 f i OposVariant.obj
 0001:00003510       ??0CComCriticalSection@ATL@@QEAA@XZ 0000000180004510 f i OposVariant.obj
 0001:00003550       ??0CPreserveLastError@ATL@@QEAA@XZ 0000000180004550 f i OposVariant.obj
 0001:00003590       ??0CTraceFileAndLineInfo@ATL@@QEAA@PEBDH@Z 0000000180004590 f i OposVariant.obj
 0001:000035c0       ??0_ATL_COM_MODULE70@ATL@@QEAA@XZ 00000001800045c0 f i OposVariant.obj
 0001:00003600       ??0_ATL_WIN_MODULE70@ATL@@QEAA@XZ 0000000180004600 f i OposVariant.obj
 0001:00003650       ??1?$CHeapPtr@_WVCCRTAllocator@ATL@@@ATL@@QEAA@XZ 0000000180004650 f i OposVariant.obj
 0001:00003680       ??1?$CHeapPtrBase@_WVCCRTAllocator@ATL@@@ATL@@QEAA@XZ 0000000180004680 f i OposVariant.obj
 0001:000036b0       ??1?$CSimpleArray@GV?$CSimpleArrayEqualHelper@G@ATL@@@ATL@@QEAA@XZ 00000001800046b0 f i OposVariant.obj
 0001:000036e0       ??1CAtlComModule@ATL@@QEAA@XZ 00000001800046e0 f i OposVariant.obj
 0001:00003720       ??1CAtlWinModule@ATL@@QEAA@XZ 0000000180004720 f i OposVariant.obj
 0001:00003760       ??1CComBSTR@ATL@@QEAA@XZ   0000000180004760 f i OposVariant.obj
 0001:000037a0       ??1CComCriticalSection@ATL@@QEAA@XZ 00000001800047a0 f i OposVariant.obj
 0001:000037b0       ??1CPreserveLastError@ATL@@QEAA@XZ 00000001800047b0 f i OposVariant.obj
 0001:000037f0       ??1_ATL_COM_MODULE70@ATL@@QEAA@XZ 00000001800047f0 f i OposVariant.obj
 0001:00003830       ??1_ATL_WIN_MODULE70@ATL@@QEAA@XZ 0000000180004830 f i OposVariant.obj
 0001:00003880       ??1stringdispid@CComTypeInfoHolder@ATL@@QEAA@XZ 0000000180004880 f i OposVariant.obj
 0001:000038c0       ??A?$CSimpleArray@GV?$CSimpleArrayEqualHelper@G@ATL@@@ATL@@QEAAAEAGH@Z 00000001800048c0 f i OposVariant.obj
 0001:00003970       ??B?$CHeapPtrBase@_WVCCRTAllocator@ATL@@@ATL@@QEBAPEA_WXZ 0000000180004970 f i OposVariant.obj
 0001:00003980       ??B?$CTraceCategoryEx@$01$0A@@ATL@@QEAAIXZ 0000000180004980 f i OposVariant.obj
 0001:00003990       ??B?$CTraceCategoryEx@$0CA@$0A@@ATL@@QEAAIXZ 0000000180004990 f i OposVariant.obj
 0001:000039a0       ??RCTraceFileAndLineInfo@ATL@@QEBAXHIPEB_WZZ 00000001800049a0 f i OposVariant.obj
 0001:00003a50       ??_Estringdispid@CComTypeInfoHolder@ATL@@QEAAPEAXI@Z 0000000180004a50 f i OposVariant.obj
 0001:00003b00       ??_H@YAXPEAX_K1P6APEAX0@Z@Z 0000000180004b00 f i OposVariant.obj
 0001:00003b90       ??_I@YAXPEAX_K1P6AX0@Z@Z   0000000180004b90 f i OposVariant.obj
 0001:00003c40       ?Allocate@?$CHeapPtr@_WVCCRTAllocator@ATL@@@ATL@@QEAA_N_K@Z 0000000180004c40 f i OposVariant.obj
 0001:00003cc0       ?Allocate@CCRTAllocator@ATL@@SAPEAX_K@Z 0000000180004cc0 f i OposVariant.obj
 0001:00003cf0       ?AllocateBytes@?$CHeapPtrBase@_WVCCRTAllocator@ATL@@@ATL@@QEAA_N_K@Z 0000000180004cf0 f i OposVariant.obj
 0001:00003d90       ?AtlWinModuleInit@ATL@@YAJPEAU_ATL_WIN_MODULE70@1@@Z 0000000180004d90 f i OposVariant.obj
 0001:00003e90       ?AtlWinModuleTerm@ATL@@YAJPEAU_ATL_WIN_MODULE70@1@PEAUHINSTANCE__@@@Z 0000000180004e90 f i OposVariant.obj
 0001:00003f80       ?Clear@OposVariant@@QEAAJXZ 0000000180004f80 f i OposVariant.obj
 0001:00003fc0       ?Free@?$CHeapPtrBase@_WVCCRTAllocator@ATL@@@ATL@@QEAAXXZ 0000000180004fc0 f i OposVariant.obj
 0001:00004000       ?Free@CCRTAllocator@ATL@@SAXPEAX@Z 0000000180005000 f i OposVariant.obj
 0001:00004030       ?GetCategoryName@CTrace@ATL@@CAPEA_WI@Z 0000000180005030 f i OposVariant.obj
 0001:000040b0       ?GetModuleInstance@CAtlBaseModule@ATL@@QEAAPEAUHINSTANCE__@@XZ 00000001800050b0 f i OposVariant.obj
 0001:000040d0       ?GetSize@?$CSimpleArray@GV?$CSimpleArrayEqualHelper@G@ATL@@@ATL@@QEBAHXZ 00000001800050d0 f i OposVariant.obj
 0001:000040e0       ?Init@CComCriticalSection@ATL@@QEAAJXZ 00000001800050e0 f i OposVariant.obj
 0001:00004140       ?RegisterCategory@CTrace@ATL@@SAXPEB_WI@Z 0000000180005140 f i OposVariant.obj
 0001:00004220       ?RemoveAll@?$CSimpleArray@GV?$CSimpleArrayEqualHelper@G@ATL@@@ATL@@QEAAXXZ 0000000180005220 f i OposVariant.obj
 0001:000042b0       ?Term@CAtlComModule@ATL@@QEAAXXZ 00000001800052b0 f i OposVariant.obj
 0001:00004390       ?Term@CAtlWinModule@ATL@@QEAAXXZ 0000000180005390 f i OposVariant.obj
 0001:000043d0       ?Term@CComCriticalSection@ATL@@QEAAJXZ 00000001800053d0 f i OposVariant.obj
 0001:00004410       ?TraceV@CTrace@ATL@@CAXPEBDHIIPEB_W@Z 0000000180005410 f i OposVariant.obj
 0001:000046c0       ?TraceV@CTrace@ATL@@SAXPEBDHIIPEB_WPEAD@Z 00000001800056c0 f i OposVariant.obj
 0001:00004870       ?_AtlInitializeCriticalSectionEx@ATL@@YAHPEAU_RTL_CRITICAL_SECTION@@KK@Z 0000000180005870 f i OposVariant.obj
 0001:000048c0       ?_AtlRaiseException@ATL@@YAXKK@Z 00000001800058c0 f i OposVariant.obj
 0001:00004900       HRESULT_FROM_WIN32         0000000180005900 f i OposVariant.obj
 0001:00004950       _vswprintf_s_l             0000000180005950 f i OposVariant.obj
 0001:000049e0       swprintf_s                 00000001800059e0 f i OposVariant.obj
 0001:00004a70       ?GetObjectDescription@?$CComCoClass@VCOPOSRFIDScanner@@$1?CLSID_OPOSRFIDScanner@@3U_GUID@@B@ATL@@SAPEB_WXZ 0000000180005a70 f i RFIDScanner.obj
 0001:00004a80       ?UpdateRegistry@COPOSRFIDScanner@@SAJH@Z 0000000180005a80 f i RFIDScanner.obj
 0001:00004ac0       ?CreateInstance@?$CComCreator@V?$CComObjectCached@VCComClassFactory@ATL@@@ATL@@@ATL@@SAJPEAXAEBU_GUID@@PEAPEAX@Z 0000000180005ac0 f i RFIDScanner.obj
 0001:00004cb0       ?CreateInstance@?$CComCreator2@V?$CComCreator@V?$CComObject@VCOPOSRFIDScanner@@@ATL@@@ATL@@V?$CComCreator@V?$CComAggObject@VCOPOSRFIDScanner@@@ATL@@@2@@ATL@@SAJPEAXAEBU_GUID@@PEAPEAX@Z 0000000180005cb0 f i RFIDScanner.obj
 0001:00004d60       ?ObjectMain@CComObjectRootBase@ATL@@SAX_N@Z 0000000180005d60 f i RFIDScanner.obj
 0001:00004d70       ?GetCategoryMap@CComObjectRootBase@ATL@@SAPEBU_ATL_CATMAP_ENTRY@2@XZ 0000000180005d70 f i RFIDScanner.obj
 0001:00004ee0       DllGetClassObject          0000000180005ee0 f   RFIDScanner.obj
 0001:00004f30       DllCanUnloadNow            0000000180005f30 f   RFIDScanner.obj
 0001:00004f80       DllRegisterServer          0000000180005f80 f   RFIDScanner.obj
 0001:00004fc0       DllUnregisterServer        0000000180005fc0 f   RFIDScanner.obj
 0001:000051c0       DllMain                    00000001800061c0 f   RFIDScanner.obj
 0001:00005240       ??$?2G@Wrapper@?$CSimpleArray@GV?$CSimpleArrayEqualHelper@G@ATL@@@ATL@@SAPEAX_KPEAG@Z 0000000180006240 f i RFIDScanner.obj
 0001:00005260       ??$?2PEA_W@?$Wrapper@PEA_W@?$CSimpleMap@PEA_WPEA_WVCExpansionVectorEqualHelper@ATL@@@ATL@@SAPEAX_KPEAPEA_W@Z 0000000180006260 f i RFIDScanner.obj
 0001:00005280       ??$?4UITypeInfo2@@@?$CComPtr@UITypeInfo@@@ATL@@QEAAPEAUITypeInfo@@AEBV?$CComPtr@UITypeInfo2@@@1@@Z 0000000180006280 f i RFIDScanner.obj
 0001:000052f0       ??$AtlAdd@_K@ATL@@YAJPEA_K_K1@Z 00000001800062f0 f i RFIDScanner.obj
 0001:00005360       ??$AtlAddThrow@_K@ATL@@YA_K_K0@Z 0000000180006360 f i RFIDScanner.obj
 0001:000053d0       ??$AtlModuleRegisterWndClassInfoT@VAtlModuleRegisterWndClassInfoParamW@ATL@@@ATL@@YAGPEAU_ATL_BASE_MODULE70@0@PEAU_ATL_WIN_MODULE70@0@PEAU_ATL_WNDCLASSINFOW@0@PEAP6A_JPEAUHWND__@@I_K_J@ZVAtlModuleRegisterWndClassInfoParamW@0@@Z 00000001800063d0 f i RFIDScanner.obj
 0001:000059a0       ??$AtlMultiply@H@ATL@@YAJPEAHHH@Z 00000001800069a0 f i RFIDScanner.obj
 0001:00005a10       ??$AtlMultiply@K@ATL@@YAJPEAKKK@Z 0000000180006a10 f i RFIDScanner.obj
 0001:00005a80       ??$AtlMultiplyThrow@_K@ATL@@YA_K_K0@Z 0000000180006a80 f i RFIDScanner.obj
 0001:00005af0       ??$QueryInterface@UIPersistStream@@@IUnknown@@QEAAJPEAPEAUIPersistStream@@@Z 0000000180006af0 f i RFIDScanner.obj
 0001:00005b40       ??$QueryInterface@UITypeInfo2@@@IUnknown@@QEAAJPEAPEAUITypeInfo2@@@Z 0000000180006b40 f i RFIDScanner.obj
 0001:00005b90       ??0?$CAtlModuleT@VCComModule@ATL@@@ATL@@QEAA@XZ 0000000180006b90 f i RFIDScanner.obj
 0001:00005bd0       ??0?$CAtlSafeAllocBufferManager@VCCRTAllocator@ATL@@@_ATL_SAFE_ALLOCA_IMPL@ATL@@QEAA@XZ 0000000180006bd0 f i RFIDScanner.obj
 0001:00005bf0       ??0?$CAutoVectorPtr@_W@ATL@@QEAA@XZ 0000000180006bf0 f i RFIDScanner.obj
 0001:00005c10       ??0?$CComAggObject@VCOPOSRFIDScanner@@@ATL@@QEAA@PEAX@Z 0000000180006c10 f i RFIDScanner.obj
 0001:00005ca0       ??0?$CComContainedObject@VCOPOSRFIDScanner@@@ATL@@QEAA@PEAX@Z 0000000180006ca0 f i RFIDScanner.obj
 0001:00005e40       ??0?$CComCritSecLock@VCComCriticalSection@ATL@@@ATL@@QEAA@AEAVCComCriticalSection@1@_N@Z 0000000180006e40 f i RFIDScanner.obj
 0001:00005eb0       ??0?$CComEnum@UIEnumConnectionPoints@@$1?_GUID_b196b285_bab4_101a_b69c_00aa00341d07@@3U__s_GUID@@BPEAUIConnectionPoint@@V?$_CopyInterface@UIConnectionPoint@@@ATL@@VCComSingleThreadModel@6@@ATL@@QEAA@XZ 0000000180006eb0 f i RFIDScanner.obj
 0001:00005f00       ??0?$CComEnum@UIEnumConnections@@$1?_GUID_b196b287_bab4_101a_b69c_00aa00341d07@@3U__s_GUID@@BUtagCONNECTDATA@@V?$_Copy@UtagCONNECTDATA@@@ATL@@VCComSingleThreadModel@6@@ATL@@QEAA@XZ 0000000180006f00 f i RFIDScanner.obj
 0001:00005f50       ??0?$CComEnumImpl@UIEnumConnectionPoints@@$1?_GUID_b196b285_bab4_101a_b69c_00aa00341d07@@3U__s_GUID@@BPEAUIConnectionPoint@@V?$_CopyInterface@UIConnectionPoint@@@ATL@@@ATL@@QEAA@XZ 0000000180006f50 f i RFIDScanner.obj
 0001:00005fd0       ??0?$CComEnumImpl@UIEnumConnections@@$1?_GUID_b196b287_bab4_101a_b69c_00aa00341d07@@3U__s_GUID@@BUtagCONNECTDATA@@V?$_Copy@UtagCONNECTDATA@@@ATL@@@ATL@@QEAA@XZ 0000000180006fd0 f i RFIDScanner.obj
 0001:00006050       ??0?$CComObject@V?$CComEnum@UIEnumConnectionPoints@@$1?_GUID_b196b285_bab4_101a_b69c_00aa00341d07@@3U__s_GUID@@BPEAUIConnectionPoint@@V?$_CopyInterface@UIConnectionPoint@@@ATL@@VCComSingleThreadModel@6@@ATL@@@ATL@@QEAA@PEAX@Z 0000000180007050 f i RFIDScanner.obj
 0001:000060b0       ??0?$CComObject@V?$CComEnum@UIEnumConnections@@$1?_GUID_b196b287_bab4_101a_b69c_00aa00341d07@@3U__s_GUID@@BUtagCONNECTDATA@@V?$_Copy@UtagCONNECTDATA@@@ATL@@VCComSingleThreadModel@6@@ATL@@@ATL@@QEAA@PEAX@Z 00000001800070b0 f i RFIDScanner.obj
 0001:00006110       ??0?$CComObject@VCOPOSRFIDScanner@@@ATL@@QEAA@PEAX@Z 0000000180007110 f i RFIDScanner.obj
 0001:000062b0       ??0?$CComObjectCached@VCComClassFactory@ATL@@@ATL@@QEAA@PEAX@Z 00000001800072b0 f i RFIDScanner.obj
 0001:00006300       ??0?$CComObjectRootEx@VCComMultiThreadModel@ATL@@@ATL@@QEAA@XZ 0000000180007300 f i RFIDScanner.obj
 0001:00006350       ??0?$CComObjectRootEx@VCComSingleThreadModel@ATL@@@ATL@@QEAA@XZ 0000000180007350 f i RFIDScanner.obj
 0001:00006390       ??0?$CComPtr@UIAdviseSink@@@ATL@@QEAA@PEAUIAdviseSink@@@Z 0000000180007390 f i RFIDScanner.obj
 0001:000063d0       ??0?$CComPtr@UICatRegister@@@ATL@@QEAA@XZ 00000001800073d0 f i RFIDScanner.obj
 0001:00006410       ??0?$CComPtr@UIConnectionPoint@@@ATL@@QEAA@XZ 0000000180007410 f i RFIDScanner.obj
 0001:00006450       ??0?$CComPtr@UIConnectionPointContainer@@@ATL@@QEAA@XZ 0000000180007450 f i RFIDScanner.obj
 0001:00006490       ??0?$CComPtr@UIDataObject@@@ATL@@QEAA@XZ 0000000180007490 f i RFIDScanner.obj
 0001:000064d0       ??0?$CComPtr@UIDispatch@@@ATL@@QEAA@XZ 00000001800074d0 f i RFIDScanner.obj
 0001:00006510       ??0?$CComPtr@UIOleClientSite@@@ATL@@QEAA@PEAUIOleClientSite@@@Z 0000000180007510 f i RFIDScanner.obj
 0001:00006550       ??0?$CComPtr@UIOleControlSite@@@ATL@@QEAA@XZ 0000000180007550 f i RFIDScanner.obj
 0001:00006590       ??0?$CComPtr@UIOleInPlaceActiveObject@@@ATL@@QEAA@XZ 0000000180007590 f i RFIDScanner.obj
 0001:000065d0       ??0?$CComPtr@UIOleInPlaceFrame@@@ATL@@QEAA@XZ 00000001800075d0 f i RFIDScanner.obj
 0001:00006610       ??0?$CComPtr@UIOleInPlaceObject@@@ATL@@QEAA@XZ 0000000180007610 f i RFIDScanner.obj
 0001:00006650       ??0?$CComPtr@UIOleInPlaceUIWindow@@@ATL@@QEAA@XZ 0000000180007650 f i RFIDScanner.obj
 0001:00006690       ??0?$CComPtr@UIOleObject@@@ATL@@QEAA@XZ 0000000180007690 f i RFIDScanner.obj
 0001:000066d0       ??0?$CComPtr@UIPersistStream@@@ATL@@QEAA@XZ 00000001800076d0 f i RFIDScanner.obj
 0001:00006710       ??0?$CComPtr@UIPersistStreamInit@@@ATL@@QEAA@XZ 0000000180007710 f i RFIDScanner.obj
 0001:00006750       ??0?$CComPtr@UIPointerInactive@@@ATL@@QEAA@XZ 0000000180007750 f i RFIDScanner.obj
 0001:00006790       ??0?$CComPtr@UIProvideClassInfo2@@@ATL@@QEAA@XZ 0000000180007790 f i RFIDScanner.obj
 0001:000067d0       ??0?$CComPtr@UISpecifyPropertyPages@@@ATL@@QEAA@XZ 00000001800077d0 f i RFIDScanner.obj
 0001:00006810       ??0?$CComPtr@UIStream@@@ATL@@QEAA@XZ 0000000180007810 f i RFIDScanner.obj
 0001:00006850       ??0?$CComPtr@UITypeInfo2@@@ATL@@QEAA@XZ 0000000180007850 f i RFIDScanner.obj
 0001:00006890       ??0?$CComPtr@UITypeInfo@@@ATL@@QEAA@AEBV01@@Z 0000000180007890 f i RFIDScanner.obj
 0001:000068d0       ??0?$CComPtr@UITypeInfo@@@ATL@@QEAA@XZ 00000001800078d0 f i RFIDScanner.obj
 0001:00006910       ??0?$CComPtr@UITypeLib@@@ATL@@QEAA@XZ 0000000180007910 f i RFIDScanner.obj
 0001:00006950       ??0?$CComPtr@UIUnknown@@@ATL@@QEAA@AEBV01@@Z 0000000180007950 f i RFIDScanner.obj
 0001:00006990       ??0?$CComPtr@UIUnknown@@@ATL@@QEAA@PEAUIUnknown@@@Z 0000000180007990 f i RFIDScanner.obj
 0001:000069d0       ??0?$CComPtr@UIUnknown@@@ATL@@QEAA@XZ 00000001800079d0 f i RFIDScanner.obj
 0001:00006a10       ??0?$CComPtr@UIViewObjectEx@@@ATL@@QEAA@XZ 0000000180007a10 f i RFIDScanner.obj
 0001:00006a50       ??0?$CComPtrBase@UIAdviseSink@@@ATL@@IEAA@PEAUIAdviseSink@@@Z 0000000180007a50 f i RFIDScanner.obj
 0001:00006ab0       ??0?$CComPtrBase@UICatRegister@@@ATL@@IEAA@XZ 0000000180007ab0 f i RFIDScanner.obj
 0001:00006ad0       ??0?$CComPtrBase@UIConnectionPoint@@@ATL@@IEAA@XZ 0000000180007ad0 f i RFIDScanner.obj
 0001:00006af0       ??0?$CComPtrBase@UIConnectionPointContainer@@@ATL@@IEAA@XZ 0000000180007af0 f i RFIDScanner.obj
 0001:00006b10       ??0?$CComPtrBase@UIDataObject@@@ATL@@IEAA@XZ 0000000180007b10 f i RFIDScanner.obj
 0001:00006b30       ??0?$CComPtrBase@UIDispatch@@@ATL@@IEAA@XZ 0000000180007b30 f i RFIDScanner.obj
 0001:00006b50       ??0?$CComPtrBase@UIOleClientSite@@@ATL@@IEAA@PEAUIOleClientSite@@@Z 0000000180007b50 f i RFIDScanner.obj
 0001:00006bb0       ??0?$CComPtrBase@UIOleControlSite@@@ATL@@IEAA@XZ 0000000180007bb0 f i RFIDScanner.obj
 0001:00006bd0       ??0?$CComPtrBase@UIOleInPlaceActiveObject@@@ATL@@IEAA@XZ 0000000180007bd0 f i RFIDScanner.obj
 0001:00006bf0       ??0?$CComPtrBase@UIOleInPlaceFrame@@@ATL@@IEAA@XZ 0000000180007bf0 f i RFIDScanner.obj
 0001:00006c10       ??0?$CComPtrBase@UIOleInPlaceObject@@@ATL@@IEAA@XZ 0000000180007c10 f i RFIDScanner.obj
 0001:00006c30       ??0?$CComPtrBase@UIOleInPlaceUIWindow@@@ATL@@IEAA@XZ 0000000180007c30 f i RFIDScanner.obj
 0001:00006c50       ??0?$CComPtrBase@UIOleObject@@@ATL@@IEAA@XZ 0000000180007c50 f i RFIDScanner.obj
 0001:00006c70       ??0?$CComPtrBase@UIPersistStream@@@ATL@@IEAA@XZ 0000000180007c70 f i RFIDScanner.obj
 0001:00006c90       ??0?$CComPtrBase@UIPersistStreamInit@@@ATL@@IEAA@XZ 0000000180007c90 f i RFIDScanner.obj
 0001:00006cb0       ??0?$CComPtrBase@UIPointerInactive@@@ATL@@IEAA@XZ 0000000180007cb0 f i RFIDScanner.obj
 0001:00006cd0       ??0?$CComPtrBase@UIProvideClassInfo2@@@ATL@@IEAA@XZ 0000000180007cd0 f i RFIDScanner.obj
 0001:00006cf0       ??0?$CComPtrBase@UISpecifyPropertyPages@@@ATL@@IEAA@XZ 0000000180007cf0 f i RFIDScanner.obj
 0001:00006d10       ??0?$CComPtrBase@UIStream@@@ATL@@IEAA@XZ 0000000180007d10 f i RFIDScanner.obj
 0001:00006d30       ??0?$CComPtrBase@UITypeInfo2@@@ATL@@IEAA@XZ 0000000180007d30 f i RFIDScanner.obj
 0001:00006d50       ??0?$CComPtrBase@UITypeInfo@@@ATL@@IEAA@PEAUITypeInfo@@@Z 0000000180007d50 f i RFIDScanner.obj
 0001:00006db0       ??0?$CComPtrBase@UITypeInfo@@@ATL@@IEAA@XZ 0000000180007db0 f i RFIDScanner.obj
 0001:00006dd0       ??0?$CComPtrBase@UITypeLib@@@ATL@@IEAA@XZ 0000000180007dd0 f i RFIDScanner.obj
 0001:00006df0       ??0?$CComPtrBase@UIUnknown@@@ATL@@IEAA@PEAUIUnknown@@@Z 0000000180007df0 f i RFIDScanner.obj
 0001:00006e50       ??0?$CComPtrBase@UIUnknown@@@ATL@@IEAA@XZ 0000000180007e50 f i RFIDScanner.obj
 0001:00006e70       ??0?$CComPtrBase@UIViewObjectEx@@@ATL@@IEAA@XZ 0000000180007e70 f i RFIDScanner.obj
 0001:00006e90       ??0?$CComQIPtr@UIOleControlSite@@$1?_GUID_b196b289_bab4_101a_b69c_00aa00341d07@@3U__s_GUID@@B@ATL@@QEAA@PEAUIUnknown@@@Z 0000000180007e90 f i RFIDScanner.obj
 0001:00006f00       ??0?$CComQIPtr@UIOleObject@@$1?_GUID_00000112_0000_0000_c000_000000000046@@3U__s_GUID@@B@ATL@@QEAA@XZ 0000000180007f00 f i RFIDScanner.obj
 0001:00006f40       ??0?$CComQIPtr@UISpecifyPropertyPages@@$1?_GUID_b196b28b_bab4_101a_b69c_00aa00341d07@@3U__s_GUID@@B@ATL@@QEAA@XZ 0000000180007f40 f i RFIDScanner.obj
 0001:00006f80       ??0?$CSimpleMap@PEA_WPEA_WVCExpansionVectorEqualHelper@ATL@@@ATL@@QEAA@XZ 0000000180007f80 f i RFIDScanner.obj
 0001:00006fc0       ??0?$CTempBuffer@E$0BAA@VCCRTAllocator@ATL@@@ATL@@QEAA@XZ 0000000180007fc0 f i RFIDScanner.obj
 0001:00006fe0       ??0?$CTempBuffer@_W$0BAA@VCCRTAllocator@ATL@@@ATL@@QEAA@XZ 0000000180007fe0 f i RFIDScanner.obj
 0001:00007000       ??0?$CTempBuffer@_W$0EAA@VCCRTAllocator@ATL@@@ATL@@QEAA@XZ 0000000180008000 f i RFIDScanner.obj
 0001:00007020       ??0?$Wrapper@PEA_W@?$CSimpleMap@PEA_WPEA_WVCExpansionVectorEqualHelper@ATL@@@ATL@@QEAA@AEBQEA_W@Z 0000000180008020 f i RFIDScanner.obj
 0001:00007050       ??0CAtlModule@ATL@@QEAA@XZ 0000000180008050 f i RFIDScanner.obj
 0001:000071c0       ??0CComAutoDeleteCriticalSection@ATL@@QEAA@XZ 00000001800081c0 f i RFIDScanner.obj
 0001:00007200       ??0CComBSTR@ATL@@QEAA@XZ   0000000180008200 f i RFIDScanner.obj
 0001:00007220       ??0CComClassFactory@ATL@@QEAA@XZ 0000000180008220 f i RFIDScanner.obj
 0001:00007280       ??0CComModule@ATL@@QEAA@XZ 0000000180008280 f i RFIDScanner.obj
 0001:00007320       ??0CComObjectRootBase@ATL@@QEAA@XZ 0000000180008320 f i RFIDScanner.obj
 0001:00007340       ??0CComSafeDeleteCriticalSection@ATL@@QEAA@XZ 0000000180008340 f i RFIDScanner.obj
 0001:00007380       ??0CComVariant@ATL@@QEAA@XZ 0000000180008380 f i RFIDScanner.obj
 0001:000073d0       ??0CExpansionVector@ATL@@QEAA@XZ 00000001800083d0 f i RFIDScanner.obj
 0001:00007410       ??0CParseBuffer@CRegParser@ATL@@QEAA@H@Z 0000000180008410 f i RFIDScanner.obj
 0001:000074a0       ??0CRegKey@ATL@@QEAA@PEAUHKEY__@@@Z 00000001800084a0 f i RFIDScanner.obj
 0001:000074e0       ??0CRegKey@ATL@@QEAA@PEAVCAtlTransactionManager@1@@Z 00000001800084e0 f i RFIDScanner.obj
 0001:00007520       ??0CRegObject@ATL@@QEAA@XZ 0000000180008520 f i RFIDScanner.obj
 0001:00007580       ??0CRegParser@ATL@@QEAA@PEAVCRegObject@1@@Z 0000000180008580 f i RFIDScanner.obj
 0001:000075b0       ??0IClassFactory@@QEAA@XZ  00000001800085b0 f i RFIDScanner.obj
 0001:000075f0       ??0IEnumConnectionPoints@@QEAA@XZ 00000001800085f0 f i RFIDScanner.obj
 0001:00007630       ??0IEnumConnections@@QEAA@XZ 0000000180008630 f i RFIDScanner.obj
 0001:00007670       ??0IRegistrarBase@@QEAA@XZ 0000000180008670 f i RFIDScanner.obj
 0001:000076b0       ??0IUnknown@@QEAA@XZ       00000001800086b0 f i RFIDScanner.obj
 0001:000076c0       ??0ModuleLockHelper@ATL@@QEAA@XZ 00000001800086c0 f i RFIDScanner.obj
 0001:00007700       ??0OposVariant@@QEAA@XZ    0000000180008700 f i RFIDScanner.obj
 0001:00007720       ??0Wrapper@?$CSimpleArray@GV?$CSimpleArrayEqualHelper@G@ATL@@@ATL@@QEAA@AEBG@Z 0000000180008720 f i RFIDScanner.obj
 0001:00007750       ??0_ATL_MODULE70@ATL@@QEAA@XZ 0000000180008750 f i RFIDScanner.obj
 0001:00007790       ??0_ATL_MSG@ATL@@QEAA@PEAUHWND__@@I_K_JH@Z 0000000180008790 f i RFIDScanner.obj
 0001:00007820       ??0_U_MENUorID@ATL@@QEAA@I@Z 0000000180008820 f i RFIDScanner.obj
 0001:00007840       ??0_U_RECT@ATL@@QEAA@AEAUtagRECT@@@Z 0000000180008840 f i RFIDScanner.obj
 0001:00007860       ??0stringdispid@CComTypeInfoHolder@ATL@@QEAA@XZ 0000000180008860 f i RFIDScanner.obj
 0001:000078b0       ??1?$CAtlModuleT@VCComModule@ATL@@@ATL@@UEAA@XZ 00000001800088b0 f i RFIDScanner.obj
 0001:000078e0       ??1?$CAtlSafeAllocBufferManager@VCCRTAllocator@ATL@@@_ATL_SAFE_ALLOCA_IMPL@ATL@@QEAA@XZ 00000001800088e0 f i RFIDScanner.obj
 0001:00007940       ??1?$CAutoVectorPtr@_W@ATL@@QEAA@XZ 0000000180008940 f i RFIDScanner.obj
 0001:00007970       ??1?$CComAggObject@VCOPOSRFIDScanner@@@ATL@@UEAA@XZ 0000000180008970 f i RFIDScanner.obj
 0001:000079f0       ??1?$CComContainedObject@VCOPOSRFIDScanner@@@ATL@@UEAA@XZ 00000001800089f0 f i RFIDScanner.obj
 0001:00007a20       ??1?$CComCritSecLock@VCComCriticalSection@ATL@@@ATL@@QEAA@XZ 0000000180008a20 f i RFIDScanner.obj
 0001:00007a60       ??1?$CComEnum@UIEnumConnectionPoints@@$1?_GUID_b196b285_bab4_101a_b69c_00aa00341d07@@3U__s_GUID@@BPEAUIConnectionPoint@@V?$_CopyInterface@UIConnectionPoint@@@ATL@@VCComSingleThreadModel@6@@ATL@@UEAA@XZ 0000000180008a60 f i RFIDScanner.obj
 0001:00007aa0       ??1?$CComEnum@UIEnumConnections@@$1?_GUID_b196b287_bab4_101a_b69c_00aa00341d07@@3U__s_GUID@@BUtagCONNECTDATA@@V?$_Copy@UtagCONNECTDATA@@@ATL@@VCComSingleThreadModel@6@@ATL@@UEAA@XZ 0000000180008aa0 f i RFIDScanner.obj
 0001:00007ae0       ??1?$CComEnumImpl@UIEnumConnectionPoints@@$1?_GUID_b196b285_bab4_101a_b69c_00aa00341d07@@3U__s_GUID@@BPEAUIConnectionPoint@@V?$_CopyInterface@UIConnectionPoint@@@ATL@@@ATL@@UEAA@XZ 0000000180008ae0 f i RFIDScanner.obj
 0001:00007b80       ??1?$CComEnumImpl@UIEnumConnections@@$1?_GUID_b196b287_bab4_101a_b69c_00aa00341d07@@3U__s_GUID@@BUtagCONNECTDATA@@V?$_Copy@UtagCONNECTDATA@@@ATL@@@ATL@@UEAA@XZ 0000000180008b80 f i RFIDScanner.obj
 0001:00007c20       ??1?$CComObject@V?$CComEnum@UIEnumConnectionPoints@@$1?_GUID_b196b285_bab4_101a_b69c_00aa00341d07@@3U__s_GUID@@BPEAUIConnectionPoint@@V?$_CopyInterface@UIConnectionPoint@@@ATL@@VCComSingleThreadModel@6@@ATL@@@ATL@@UEAA@XZ 0000000180008c20 f i RFIDScanner.obj
 0001:00007c90       ??1?$CComObject@V?$CComEnum@UIEnumConnections@@$1?_GUID_b196b287_bab4_101a_b69c_00aa00341d07@@3U__s_GUID@@BUtagCONNECTDATA@@V?$_Copy@UtagCONNECTDATA@@@ATL@@VCComSingleThreadModel@6@@ATL@@@ATL@@UEAA@XZ 0000000180008c90 f i RFIDScanner.obj
 0001:00007d00       ??1?$CComObject@VCOPOSRFIDScanner@@@ATL@@UEAA@XZ 0000000180008d00 f i RFIDScanner.obj
 0001:00007eb0       ??1?$CComObjectCached@VCComClassFactory@ATL@@@ATL@@UEAA@XZ 0000000180008eb0 f i RFIDScanner.obj
 0001:00007f10       ??1?$CComObjectRootEx@VCComMultiThreadModel@ATL@@@ATL@@QEAA@XZ 0000000180008f10 f i RFIDScanner.obj
 0001:00007f50       ??1?$CComObjectRootEx@VCComSingleThreadModel@ATL@@@ATL@@QEAA@XZ 0000000180008f50 f i RFIDScanner.obj
 0001:00007f80       ??1?$CComPtr@UIAdviseSink@@@ATL@@QEAA@XZ 0000000180008f80 f i RFIDScanner.obj
 0001:00007fb0       ??1?$CComPtr@UICatRegister@@@ATL@@QEAA@XZ 0000000180008fb0 f i RFIDScanner.obj
 0001:00007fe0       ??1?$CComPtr@UIConnectionPoint@@@ATL@@QEAA@XZ 0000000180008fe0 f i RFIDScanner.obj
 0001:00008010       ??1?$CComPtr@UIConnectionPointContainer@@@ATL@@QEAA@XZ 0000000180009010 f i RFIDScanner.obj
 0001:00008040       ??1?$CComPtr@UIDataObject@@@ATL@@QEAA@XZ 0000000180009040 f i RFIDScanner.obj
 0001:00008070       ??1?$CComPtr@UIDispatch@@@ATL@@QEAA@XZ 0000000180009070 f i RFIDScanner.obj
 0001:000080a0       ??1?$CComPtr@UIOleClientSite@@@ATL@@QEAA@XZ 00000001800090a0 f i RFIDScanner.obj
 0001:000080d0       ??1?$CComPtr@UIOleControlSite@@@ATL@@QEAA@XZ 00000001800090d0 f i RFIDScanner.obj
 0001:00008100       ??1?$CComPtr@UIOleInPlaceActiveObject@@@ATL@@QEAA@XZ 0000000180009100 f i RFIDScanner.obj
 0001:00008130       ??1?$CComPtr@UIOleInPlaceFrame@@@ATL@@QEAA@XZ 0000000180009130 f i RFIDScanner.obj
 0001:00008160       ??1?$CComPtr@UIOleInPlaceObject@@@ATL@@QEAA@XZ 0000000180009160 f i RFIDScanner.obj
 0001:00008190       ??1?$CComPtr@UIOleInPlaceUIWindow@@@ATL@@QEAA@XZ 0000000180009190 f i RFIDScanner.obj
 0001:000081c0       ??1?$CComPtr@UIOleObject@@@ATL@@QEAA@XZ 00000001800091c0 f i RFIDScanner.obj
 0001:000081f0       ??1?$CComPtr@UIPersistStream@@@ATL@@QEAA@XZ 00000001800091f0 f i RFIDScanner.obj
 0001:00008220       ??1?$CComPtr@UIPersistStreamInit@@@ATL@@QEAA@XZ 0000000180009220 f i RFIDScanner.obj
 0001:00008250       ??1?$CComPtr@UIPointerInactive@@@ATL@@QEAA@XZ 0000000180009250 f i RFIDScanner.obj
 0001:00008280       ??1?$CComPtr@UIProvideClassInfo2@@@ATL@@QEAA@XZ 0000000180009280 f i RFIDScanner.obj
 0001:000082b0       ??1?$CComPtr@UISpecifyPropertyPages@@@ATL@@QEAA@XZ 00000001800092b0 f i RFIDScanner.obj
 0001:000082e0       ??1?$CComPtr@UIStream@@@ATL@@QEAA@XZ 00000001800092e0 f i RFIDScanner.obj
 0001:00008310       ??1?$CComPtr@UITypeInfo2@@@ATL@@QEAA@XZ 0000000180009310 f i RFIDScanner.obj
 0001:00008340       ??1?$CComPtr@UITypeInfo@@@ATL@@QEAA@XZ 0000000180009340 f i RFIDScanner.obj
 0001:00008370       ??1?$CComPtr@UITypeLib@@@ATL@@QEAA@XZ 0000000180009370 f i RFIDScanner.obj
 0001:000083a0       ??1?$CComPtr@UIUnknown@@@ATL@@QEAA@XZ 00000001800093a0 f i RFIDScanner.obj
 0001:000083d0       ??1?$CComPtr@UIViewObjectEx@@@ATL@@QEAA@XZ 00000001800093d0 f i RFIDScanner.obj
 0001:00008400       ??1?$CComPtrBase@UIAdviseSink@@@ATL@@QEAA@XZ 0000000180009400 f i RFIDScanner.obj
 0001:00008450       ??1?$CComPtrBase@UICatRegister@@@ATL@@QEAA@XZ 0000000180009450 f i RFIDScanner.obj
 0001:000084a0       ??1?$CComPtrBase@UIConnectionPoint@@@ATL@@QEAA@XZ 00000001800094a0 f i RFIDScanner.obj
 0001:000084f0       ??1?$CComPtrBase@UIConnectionPointContainer@@@ATL@@QEAA@XZ 00000001800094f0 f i RFIDScanner.obj
 0001:00008540       ??1?$CComPtrBase@UIDataObject@@@ATL@@QEAA@XZ 0000000180009540 f i RFIDScanner.obj
 0001:00008590       ??1?$CComPtrBase@UIDispatch@@@ATL@@QEAA@XZ 0000000180009590 f i RFIDScanner.obj
 0001:000085e0       ??1?$CComPtrBase@UIOleClientSite@@@ATL@@QEAA@XZ 00000001800095e0 f i RFIDScanner.obj
 0001:00008630       ??1?$CComPtrBase@UIOleControlSite@@@ATL@@QEAA@XZ 0000000180009630 f i RFIDScanner.obj
 0001:00008680       ??1?$CComPtrBase@UIOleInPlaceActiveObject@@@ATL@@QEAA@XZ 0000000180009680 f i RFIDScanner.obj
 0001:000086d0       ??1?$CComPtrBase@UIOleInPlaceFrame@@@ATL@@QEAA@XZ 00000001800096d0 f i RFIDScanner.obj
 0001:00008720       ??1?$CComPtrBase@UIOleInPlaceObject@@@ATL@@QEAA@XZ 0000000180009720 f i RFIDScanner.obj
 0001:00008770       ??1?$CComPtrBase@UIOleInPlaceUIWindow@@@ATL@@QEAA@XZ 0000000180009770 f i RFIDScanner.obj
 0001:000087c0       ??1?$CComPtrBase@UIOleObject@@@ATL@@QEAA@XZ 00000001800097c0 f i RFIDScanner.obj
 0001:00008810       ??1?$CComPtrBase@UIPersistStream@@@ATL@@QEAA@XZ 0000000180009810 f i RFIDScanner.obj
 0001:00008860       ??1?$CComPtrBase@UIPersistStreamInit@@@ATL@@QEAA@XZ 0000000180009860 f i RFIDScanner.obj
 0001:000088b0       ??1?$CComPtrBase@UIPointerInactive@@@ATL@@QEAA@XZ 00000001800098b0 f i RFIDScanner.obj
 0001:00008900       ??1?$CComPtrBase@UIProvideClassInfo2@@@ATL@@QEAA@XZ 0000000180009900 f i RFIDScanner.obj
 0001:00008950       ??1?$CComPtrBase@UISpecifyPropertyPages@@@ATL@@QEAA@XZ 0000000180009950 f i RFIDScanner.obj
 0001:000089a0       ??1?$CComPtrBase@UIStream@@@ATL@@QEAA@XZ 00000001800099a0 f i RFIDScanner.obj
 0001:000089f0       ??1?$CComPtrBase@UITypeInfo2@@@ATL@@QEAA@XZ 00000001800099f0 f i RFIDScanner.obj
 0001:00008a40       ??1?$CComPtrBase@UITypeInfo@@@ATL@@QEAA@XZ 0000000180009a40 f i RFIDScanner.obj
 0001:00008a90       ??1?$CComPtrBase@UITypeLib@@@ATL@@QEAA@XZ 0000000180009a90 f i RFIDScanner.obj
 0001:00008ae0       ??1?$CComPtrBase@UIUnknown@@@ATL@@QEAA@XZ 0000000180009ae0 f i RFIDScanner.obj
 0001:00008b30       ??1?$CComPtrBase@UIViewObjectEx@@@ATL@@QEAA@XZ 0000000180009b30 f i RFIDScanner.obj
 0001:00008b80       ??1?$CComQIPtr@UIOleControlSite@@$1?_GUID_b196b289_bab4_101a_b69c_00aa00341d07@@3U__s_GUID@@B@ATL@@QEAA@XZ 0000000180009b80 f i RFIDScanner.obj
 0001:00008bb0       ??1?$CComQIPtr@UIOleObject@@$1?_GUID_00000112_0000_0000_c000_000000000046@@3U__s_GUID@@B@ATL@@QEAA@XZ 0000000180009bb0 f i RFIDScanner.obj
 0001:00008be0       ??1?$CComQIPtr@UISpecifyPropertyPages@@$1?_GUID_b196b28b_bab4_101a_b69c_00aa00341d07@@3U__s_GUID@@B@ATL@@QEAA@XZ 0000000180009be0 f i RFIDScanner.obj
 0001:00008c10       ??1?$CSimpleMap@PEA_WPEA_WVCExpansionVectorEqualHelper@ATL@@@ATL@@QEAA@XZ 0000000180009c10 f i RFIDScanner.obj
 0001:00008c40       ??1?$CTempBuffer@E$0BAA@VCCRTAllocator@ATL@@@ATL@@QEAA@XZ 0000000180009c40 f i RFIDScanner.obj
 0001:00008c90       ??1?$CTempBuffer@_W$0BAA@VCCRTAllocator@ATL@@@ATL@@QEAA@XZ 0000000180009c90 f i RFIDScanner.obj
 0001:00008ce0       ??1?$CTempBuffer@_W$0EAA@VCCRTAllocator@ATL@@@ATL@@QEAA@XZ 0000000180009ce0 f i RFIDScanner.obj
 0001:00008d30       ??1CAtlModule@ATL@@UEAA@XZ 0000000180009d30 f i RFIDScanner.obj
 0001:00008d70       ??1CComAutoDeleteCriticalSection@ATL@@QEAA@XZ 0000000180009d70 f i RFIDScanner.obj
 0001:00008da0       ??1CComClassFactory@ATL@@UEAA@XZ 0000000180009da0 f i RFIDScanner.obj
 0001:00008df0       ??1CComModule@ATL@@UEAA@XZ 0000000180009df0 f i RFIDScanner.obj
 0001:00008e30       ??1CComObjectRootBase@ATL@@QEAA@XZ 0000000180009e30 f i RFIDScanner.obj
 0001:00008e40       ??1CComSafeDeleteCriticalSection@ATL@@QEAA@XZ 0000000180009e40 f i RFIDScanner.obj
 0001:00008e90       ??1CComVariant@ATL@@QEAA@XZ 0000000180009e90 f i RFIDScanner.obj
 0001:00008f10       ??1CExpansionVector@ATL@@QEAA@XZ 0000000180009f10 f i RFIDScanner.obj
 0001:00008f50       ??1CParseBuffer@CRegParser@ATL@@QEAA@XZ 0000000180009f50 f i RFIDScanner.obj
 0001:00008f90       ??1CRegKey@ATL@@QEAA@XZ    0000000180009f90 f i RFIDScanner.obj
 0001:00008fc0       ??1CRegObject@ATL@@UEAA@XZ 0000000180009fc0 f i RFIDScanner.obj
 0001:00009010       ??1ModuleLockHelper@ATL@@QEAA@XZ 000000018000a010 f i RFIDScanner.obj
 0001:00009050       ??1OposVariant@@QEAA@XZ    000000018000a050 f i RFIDScanner.obj
 0001:00009090       ??1_ATL_MODULE70@ATL@@QEAA@XZ 000000018000a090 f i RFIDScanner.obj
 0001:000090d0       ??4?$CComPtr@UIAdviseSink@@@ATL@@QEAAPEAUIAdviseSink@@PEAU2@@Z 000000018000a0d0 f i RFIDScanner.obj
 0001:00009140       ??4?$CComPtr@UIOleClientSite@@@ATL@@QEAAPEAUIOleClientSite@@PEAU2@@Z 000000018000a140 f i RFIDScanner.obj
 0001:000091b0       ??4?$CComPtr@UIUnknown@@@ATL@@QEAAPEAUIUnknown@@PEAU2@@Z 000000018000a1b0 f i RFIDScanner.obj
 0001:00009220       ??4?$CComQIPtr@UIOleObject@@$1?_GUID_00000112_0000_0000_c000_000000000046@@3U__s_GUID@@B@ATL@@QEAAPEAUIOleObject@@PEAUIUnknown@@@Z 000000018000a220 f i RFIDScanner.obj
 0001:00009280       ??4?$CComQIPtr@UISpecifyPropertyPages@@$1?_GUID_b196b28b_bab4_101a_b69c_00aa00341d07@@3U__s_GUID@@B@ATL@@QEAAPEAUISpecifyPropertyPages@@PEAUIUnknown@@@Z 000000018000a280 f i RFIDScanner.obj
 0001:000092e0       ??7?$CComPtrBase@UIOleClientSite@@@ATL@@QEBA_NXZ 000000018000a2e0 f i RFIDScanner.obj
 0001:00009330       ??7?$CComPtrBase@UIOleInPlaceSiteWindowless@@@ATL@@QEBA_NXZ 000000018000a330 f i RFIDScanner.obj
 0001:00009380       ??7CComBSTR@ATL@@QEBA_NXZ  000000018000a380 f i RFIDScanner.obj
 0001:000093d0       ??8?$CComPtrBase@UIAdviseSink@@@ATL@@QEBA_NPEAUIAdviseSink@@@Z 000000018000a3d0 f i RFIDScanner.obj
 0001:00009420       ??8?$CComPtrBase@UIConnectionPointContainer@@@ATL@@QEBA_NPEAUIConnectionPointContainer@@@Z 000000018000a420 f i RFIDScanner.obj
 0001:00009470       ??8?$CComPtrBase@UIDataAdviseHolder@@@ATL@@QEBA_NPEAUIDataAdviseHolder@@@Z 000000018000a470 f i RFIDScanner.obj
 0001:000094c0       ??8?$CComPtrBase@UIOleAdviseHolder@@@ATL@@QEBA_NPEAUIOleAdviseHolder@@@Z 000000018000a4c0 f i RFIDScanner.obj
 0001:00009510       ??8?$CComPtrBase@UIOleClientSite@@@ATL@@QEBA_NPEAUIOleClientSite@@@Z 000000018000a510 f i RFIDScanner.obj
 0001:00009560       ??8?$CComPtrBase@UIOleControlSite@@@ATL@@QEBA_NPEAUIOleControlSite@@@Z 000000018000a560 f i RFIDScanner.obj
 0001:000095b0       ??8?$CComPtrBase@UIOleInPlaceObject@@@ATL@@QEBA_NPEAUIOleInPlaceObject@@@Z 000000018000a5b0 f i RFIDScanner.obj
 0001:00009600       ??8?$CComPtrBase@UIOleInPlaceSiteWindowless@@@ATL@@QEBA_NPEAUIOleInPlaceSiteWindowless@@@Z 000000018000a600 f i RFIDScanner.obj
 0001:00009650       ??8?$CComPtrBase@UIOleObject@@@ATL@@QEBA_NPEAUIOleObject@@@Z 000000018000a650 f i RFIDScanner.obj
 0001:000096a0       ??8?$CComPtrBase@UIPersistStream@@@ATL@@QEBA_NPEAUIPersistStream@@@Z 000000018000a6a0 f i RFIDScanner.obj
 0001:000096f0       ??8?$CComPtrBase@UIPersistStreamInit@@@ATL@@QEBA_NPEAUIPersistStreamInit@@@Z 000000018000a6f0 f i RFIDScanner.obj
 0001:00009740       ??8?$CComPtrBase@UIPointerInactive@@@ATL@@QEBA_NPEAUIPointerInactive@@@Z 000000018000a740 f i RFIDScanner.obj
 0001:00009790       ??8?$CComPtrBase@UIUnknown@@@ATL@@QEBA_NPEAUIUnknown@@@Z 000000018000a790 f i RFIDScanner.obj
 0001:000097e0       ??8?$CComPtrBase@UIViewObjectEx@@@ATL@@QEBA_NPEAUIViewObjectEx@@@Z 000000018000a7e0 f i RFIDScanner.obj
 0001:00009830       ??8CComBSTR@ATL@@QEBA_NH@Z 000000018000a830 f i RFIDScanner.obj
 0001:000098b0       ??9?$CComPtrBase@UIAdviseSink@@@ATL@@QEBA_NPEAUIAdviseSink@@@Z 000000018000a8b0 f i RFIDScanner.obj
 0001:00009910       ??9?$CComPtrBase@UIConnectionPointContainer@@@ATL@@QEBA_NPEAUIConnectionPointContainer@@@Z 000000018000a910 f i RFIDScanner.obj
 0001:00009970       ??9?$CComPtrBase@UIDataAdviseHolder@@@ATL@@QEBA_NPEAUIDataAdviseHolder@@@Z 000000018000a970 f i RFIDScanner.obj
 0001:000099d0       ??9?$CComPtrBase@UIOleAdviseHolder@@@ATL@@QEBA_NPEAUIOleAdviseHolder@@@Z 000000018000a9d0 f i RFIDScanner.obj
 0001:00009a30       ??9?$CComPtrBase@UIOleClientSite@@@ATL@@QEBA_NPEAUIOleClientSite@@@Z 000000018000aa30 f i RFIDScanner.obj
 0001:00009a90       ??9?$CComPtrBase@UIOleControlSite@@@ATL@@QEBA_NPEAUIOleControlSite@@@Z 000000018000aa90 f i RFIDScanner.obj
 0001:00009af0       ??9?$CComPtrBase@UIOleInPlaceObject@@@ATL@@QEBA_NPEAUIOleInPlaceObject@@@Z 000000018000aaf0 f i RFIDScanner.obj
 0001:00009b50       ??9?$CComPtrBase@UIOleInPlaceSiteWindowless@@@ATL@@QEBA_NPEAUIOleInPlaceSiteWindowless@@@Z 000000018000ab50 f i RFIDScanner.obj
 0001:00009bb0       ??9?$CComPtrBase@UIOleObject@@@ATL@@QEBA_NPEAUIOleObject@@@Z 000000018000abb0 f i RFIDScanner.obj
 0001:00009c10       ??9?$CComPtrBase@UIPersistStream@@@ATL@@QEBA_NPEAUIPersistStream@@@Z 000000018000ac10 f i RFIDScanner.obj
 0001:00009c70       ??9?$CComPtrBase@UIPersistStreamInit@@@ATL@@QEBA_NPEAUIPersistStreamInit@@@Z 000000018000ac70 f i RFIDScanner.obj
 0001:00009cd0       ??9?$CComPtrBase@UIPointerInactive@@@ATL@@QEBA_NPEAUIPointerInactive@@@Z 000000018000acd0 f i RFIDScanner.obj
 0001:00009d30       ??9?$CComPtrBase@UIUnknown@@@ATL@@QEBA_NPEAUIUnknown@@@Z 000000018000ad30 f i RFIDScanner.obj
 0001:00009d90       ??9?$CComPtrBase@UIViewObjectEx@@@ATL@@QEBA_NPEAUIViewObjectEx@@@Z 000000018000ad90 f i RFIDScanner.obj
 0001:00009df0       ??9CComBSTR@ATL@@QEBA_NH@Z 000000018000adf0 f i RFIDScanner.obj
 0001:00009e50       ??B?$CComPtrBase@UIAdviseSink@@@ATL@@QEBAPEAUIAdviseSink@@XZ 000000018000ae50 f i RFIDScanner.obj
 0001:00009e60       ??B?$CComPtrBase@UIDataAdviseHolder@@@ATL@@QEBAPEAUIDataAdviseHolder@@XZ 000000018000ae60 f i RFIDScanner.obj
 0001:00009e70       ??B?$CComPtrBase@UIDataObject@@@ATL@@QEBAPEAUIDataObject@@XZ 000000018000ae70 f i RFIDScanner.obj
 0001:00009e80       ??B?$CComPtrBase@UIOleAdviseHolder@@@ATL@@QEBAPEAUIOleAdviseHolder@@XZ 000000018000ae80 f i RFIDScanner.obj
 0001:00009e90       ??B?$CComPtrBase@UIOleClientSite@@@ATL@@QEBAPEAUIOleClientSite@@XZ 000000018000ae90 f i RFIDScanner.obj
 0001:00009ea0       ??B?$CComPtrBase@UIOleControlSite@@@ATL@@QEBAPEAUIOleControlSite@@XZ 000000018000aea0 f i RFIDScanner.obj
 0001:00009eb0       ??B?$CComPtrBase@UIOleInPlaceActiveObject@@@ATL@@QEBAPEAUIOleInPlaceActiveObject@@XZ 000000018000aeb0 f i RFIDScanner.obj
 0001:00009ec0       ??B?$CComPtrBase@UIOleInPlaceFrame@@@ATL@@QEBAPEAUIOleInPlaceFrame@@XZ 000000018000aec0 f i RFIDScanner.obj
 0001:00009ed0       ??B?$CComPtrBase@UIOleInPlaceSiteWindowless@@@ATL@@QEBAPEAUIOleInPlaceSiteWindowless@@XZ 000000018000aed0 f i RFIDScanner.obj
 0001:00009ee0       ??B?$CComPtrBase@UIOleInPlaceUIWindow@@@ATL@@QEBAPEAUIOleInPlaceUIWindow@@XZ 000000018000aee0 f i RFIDScanner.obj
 0001:00009ef0       ??B?$CComPtrBase@UIOleObject@@@ATL@@QEBAPEAUIOleObject@@XZ 000000018000aef0 f i RFIDScanner.obj
 0001:00009f00       ??B?$CComPtrBase@UIPersistStream@@@ATL@@QEBAPEAUIPersistStream@@XZ 000000018000af00 f i RFIDScanner.obj
 0001:00009f10       ??B?$CComPtrBase@UIProvideClassInfo2@@@ATL@@QEBAPEAUIProvideClassInfo2@@XZ 000000018000af10 f i RFIDScanner.obj
 0001:00009f20       ??B?$CComPtrBase@UISpecifyPropertyPages@@@ATL@@QEBAPEAUISpecifyPropertyPages@@XZ 000000018000af20 f i RFIDScanner.obj
 0001:00009f30       ??B?$CComPtrBase@UIStream@@@ATL@@QEBAPEAUIStream@@XZ 000000018000af30 f i RFIDScanner.obj
 0001:00009f40       ??B?$CComPtrBase@UITypeInfo2@@@ATL@@QEBAPEAUITypeInfo2@@XZ 000000018000af40 f i RFIDScanner.obj
 0001:00009f50       ??B?$CComPtrBase@UITypeInfo@@@ATL@@QEBAPEAUITypeInfo@@XZ 000000018000af50 f i RFIDScanner.obj
 0001:00009f60       ??B?$CComPtrBase@UITypeLib@@@ATL@@QEBAPEAUITypeLib@@XZ 000000018000af60 f i RFIDScanner.obj
 0001:00009f70       ??B?$CComPtrBase@UIUnknown@@@ATL@@QEBAPEAUIUnknown@@XZ 000000018000af70 f i RFIDScanner.obj
 0001:00009f80       ??B?$CTempBuffer@E$0BAA@VCCRTAllocator@ATL@@@ATL@@QEBAPEAEXZ 000000018000af80 f i RFIDScanner.obj
 0001:00009f90       ??B?$CTempBuffer@_W$0BAA@VCCRTAllocator@ATL@@@ATL@@QEBAPEA_WXZ 000000018000af90 f i RFIDScanner.obj
 0001:00009fa0       ??B?$CTempBuffer@_W$0EAA@VCCRTAllocator@ATL@@@ATL@@QEBAPEA_WXZ 000000018000afa0 f i RFIDScanner.obj
 0001:00009fb0       ??B?$CTraceCategoryEx@$00$0A@@ATL@@QEAAIXZ 000000018000afb0 f i RFIDScanner.obj
 0001:00009fc0       ??B?$CTraceCategoryEx@$07$0A@@ATL@@QEAAIXZ 000000018000afc0 f i RFIDScanner.obj
 0001:00009fd0       ??B?$CTraceCategoryEx@$0CAAA@$0A@@ATL@@QEAAIXZ 000000018000afd0 f i RFIDScanner.obj
 0001:00009fe0       ??B?$CTraceCategoryEx@$0EA@$0A@@ATL@@QEAAIXZ 000000018000afe0 f i RFIDScanner.obj
 0001:00009ff0       ??B?$CTraceCategoryEx@$0IAA@$0A@@ATL@@QEAAIXZ 000000018000aff0 f i RFIDScanner.obj
 0001:0000a000       ??BCComBSTR@ATL@@QEBAPEA_WXZ 000000018000b000 f i RFIDScanner.obj
 0001:0000a010       ??BCRegKey@ATL@@QEBAPEAUHKEY__@@XZ 000000018000b010 f i RFIDScanner.obj
 0001:0000a020       ??C?$CComPtrBase@UIAdviseSink@@@ATL@@QEBAPEAV?$_NoAddRefReleaseOnCComPtr@UIAdviseSink@@@1@XZ 000000018000b020 f i RFIDScanner.obj
 0001:0000a0a0       ??C?$CComPtrBase@UICatRegister@@@ATL@@QEBAPEAV?$_NoAddRefReleaseOnCComPtr@UICatRegister@@@1@XZ 000000018000b0a0 f i RFIDScanner.obj
 0001:0000a120       ??C?$CComPtrBase@UIConnectionPoint@@@ATL@@QEBAPEAV?$_NoAddRefReleaseOnCComPtr@UIConnectionPoint@@@1@XZ 000000018000b120 f i RFIDScanner.obj
 0001:0000a1a0       ??C?$CComPtrBase@UIConnectionPointContainer@@@ATL@@QEBAPEAV?$_NoAddRefReleaseOnCComPtr@UIConnectionPointContainer@@@1@XZ 000000018000b1a0 f i RFIDScanner.obj
 0001:0000a220       ??C?$CComPtrBase@UIDataAdviseHolder@@@ATL@@QEBAPEAV?$_NoAddRefReleaseOnCComPtr@UIDataAdviseHolder@@@1@XZ 000000018000b220 f i RFIDScanner.obj
 0001:0000a2a0       ??C?$CComPtrBase@UIOleAdviseHolder@@@ATL@@QEBAPEAV?$_NoAddRefReleaseOnCComPtr@UIOleAdviseHolder@@@1@XZ 000000018000b2a0 f i RFIDScanner.obj
 0001:0000a320       ??C?$CComPtrBase@UIOleClientSite@@@ATL@@QEBAPEAV?$_NoAddRefReleaseOnCComPtr@UIOleClientSite@@@1@XZ 000000018000b320 f i RFIDScanner.obj
 0001:0000a3a0       ??C?$CComPtrBase@UIOleControlSite@@@ATL@@QEBAPEAV?$_NoAddRefReleaseOnCComPtr@UIOleControlSite@@@1@XZ 000000018000b3a0 f i RFIDScanner.obj
 0001:0000a420       ??C?$CComPtrBase@UIOleInPlaceFrame@@@ATL@@QEBAPEAV?$_NoAddRefReleaseOnCComPtr@UIOleInPlaceFrame@@@1@XZ 000000018000b420 f i RFIDScanner.obj
 0001:0000a4a0       ??C?$CComPtrBase@UIOleInPlaceObject@@@ATL@@QEBAPEAV?$_NoAddRefReleaseOnCComPtr@UIOleInPlaceObject@@@1@XZ 000000018000b4a0 f i RFIDScanner.obj
 0001:0000a520       ??C?$CComPtrBase@UIOleInPlaceSiteWindowless@@@ATL@@QEBAPEAV?$_NoAddRefReleaseOnCComPtr@UIOleInPlaceSiteWindowless@@@1@XZ 000000018000b520 f i RFIDScanner.obj
 0001:0000a5a0       ??C?$CComPtrBase@UIOleInPlaceUIWindow@@@ATL@@QEBAPEAV?$_NoAddRefReleaseOnCComPtr@UIOleInPlaceUIWindow@@@1@XZ 000000018000b5a0 f i RFIDScanner.obj
 0001:0000a620       ??C?$CComPtrBase@UIOleObject@@@ATL@@QEBAPEAV?$_NoAddRefReleaseOnCComPtr@UIOleObject@@@1@XZ 000000018000b620 f i RFIDScanner.obj
 0001:0000a6a0       ??C?$CComPtrBase@UIPersistStream@@@ATL@@QEBAPEAV?$_NoAddRefReleaseOnCComPtr@UIPersistStream@@@1@XZ 000000018000b6a0 f i RFIDScanner.obj
 0001:0000a720       ??C?$CComPtrBase@UIPersistStreamInit@@@ATL@@QEBAPEAV?$_NoAddRefReleaseOnCComPtr@UIPersistStreamInit@@@1@XZ 000000018000b720 f i RFIDScanner.obj
 0001:0000a7a0       ??C?$CComPtrBase@UIPointerInactive@@@ATL@@QEBAPEAV?$_NoAddRefReleaseOnCComPtr@UIPointerInactive@@@1@XZ 000000018000b7a0 f i RFIDScanner.obj
 0001:0000a820       ??C?$CComPtrBase@UIProvideClassInfo2@@@ATL@@QEBAPEAV?$_NoAddRefReleaseOnCComPtr@UIProvideClassInfo2@@@1@XZ 000000018000b820 f i RFIDScanner.obj
 0001:0000a8a0       ??C?$CComPtrBase@UISpecifyPropertyPages@@@ATL@@QEBAPEAV?$_NoAddRefReleaseOnCComPtr@UISpecifyPropertyPages@@@1@XZ 000000018000b8a0 f i RFIDScanner.obj
 0001:0000a920       ??C?$CComPtrBase@UITypeInfo@@@ATL@@QEBAPEAV?$_NoAddRefReleaseOnCComPtr@UITypeInfo@@@1@XZ 000000018000b920 f i RFIDScanner.obj
 0001:0000a9a0       ??C?$CComPtrBase@UITypeLib@@@ATL@@QEBAPEAV?$_NoAddRefReleaseOnCComPtr@UITypeLib@@@1@XZ 000000018000b9a0 f i RFIDScanner.obj
 0001:0000aa20       ??C?$CComPtrBase@UIUnknown@@@ATL@@QEBAPEAV?$_NoAddRefReleaseOnCComPtr@UIUnknown@@@1@XZ 000000018000ba20 f i RFIDScanner.obj
 0001:0000aaa0       ??C?$CComPtrBase@UIViewObjectEx@@@ATL@@QEBAPEAV?$_NoAddRefReleaseOnCComPtr@UIViewObjectEx@@@1@XZ 000000018000baa0 f i RFIDScanner.obj
 0001:0000ab20       ??I?$CComPtrBase@UICatRegister@@@ATL@@QEAAPEAPEAUICatRegister@@XZ 000000018000bb20 f i RFIDScanner.obj
 0001:0000ab90       ??I?$CComPtrBase@UIConnectionPoint@@@ATL@@QEAAPEAPEAUIConnectionPoint@@XZ 000000018000bb90 f i RFIDScanner.obj
 0001:0000ac00       ??I?$CComPtrBase@UIConnectionPointContainer@@@ATL@@QEAAPEAPEAUIConnectionPointContainer@@XZ 000000018000bc00 f i RFIDScanner.obj
 0001:0000ac70       ??I?$CComPtrBase@UIDataAdviseHolder@@@ATL@@QEAAPEAPEAUIDataAdviseHolder@@XZ 000000018000bc70 f i RFIDScanner.obj
 0001:0000ace0       ??I?$CComPtrBase@UIDataObject@@@ATL@@QEAAPEAPEAUIDataObject@@XZ 000000018000bce0 f i RFIDScanner.obj
 0001:0000ad50       ??I?$CComPtrBase@UIDispatch@@@ATL@@QEAAPEAPEAUIDispatch@@XZ 000000018000bd50 f i RFIDScanner.obj
 0001:0000adc0       ??I?$CComPtrBase@UIOleAdviseHolder@@@ATL@@QEAAPEAPEAUIOleAdviseHolder@@XZ 000000018000bdc0 f i RFIDScanner.obj
 0001:0000ae30       ??I?$CComPtrBase@UIOleControlSite@@@ATL@@QEAAPEAPEAUIOleControlSite@@XZ 000000018000be30 f i RFIDScanner.obj
 0001:0000aea0       ??I?$CComPtrBase@UIOleInPlaceActiveObject@@@ATL@@QEAAPEAPEAUIOleInPlaceActiveObject@@XZ 000000018000bea0 f i RFIDScanner.obj
 0001:0000af10       ??I?$CComPtrBase@UIOleInPlaceFrame@@@ATL@@QEAAPEAPEAUIOleInPlaceFrame@@XZ 000000018000bf10 f i RFIDScanner.obj
 0001:0000af80       ??I?$CComPtrBase@UIOleInPlaceObject@@@ATL@@QEAAPEAPEAUIOleInPlaceObject@@XZ 000000018000bf80 f i RFIDScanner.obj
 0001:0000aff0       ??I?$CComPtrBase@UIOleInPlaceSiteWindowless@@@ATL@@QEAAPEAPEAUIOleInPlaceSiteWindowless@@XZ 000000018000bff0 f i RFIDScanner.obj
 0001:0000b060       ??I?$CComPtrBase@UIOleInPlaceUIWindow@@@ATL@@QEAAPEAPEAUIOleInPlaceUIWindow@@XZ 000000018000c060 f i RFIDScanner.obj
 0001:0000b0d0       ??I?$CComPtrBase@UIOleObject@@@ATL@@QEAAPEAPEAUIOleObject@@XZ 000000018000c0d0 f i RFIDScanner.obj
 0001:0000b140       ??I?$CComPtrBase@UIPersistStream@@@ATL@@QEAAPEAPEAUIPersistStream@@XZ 000000018000c140 f i RFIDScanner.obj
 0001:0000b1b0       ??I?$CComPtrBase@UIPointerInactive@@@ATL@@QEAAPEAPEAUIPointerInactive@@XZ 000000018000c1b0 f i RFIDScanner.obj
 0001:0000b220       ??I?$CComPtrBase@UIProvideClassInfo2@@@ATL@@QEAAPEAPEAUIProvideClassInfo2@@XZ 000000018000c220 f i RFIDScanner.obj
 0001:0000b290       ??I?$CComPtrBase@UIStream@@@ATL@@QEAAPEAPEAUIStream@@XZ 000000018000c290 f i RFIDScanner.obj
 0001:0000b300       ??I?$CComPtrBase@UITypeInfo2@@@ATL@@QEAAPEAPEAUITypeInfo2@@XZ 000000018000c300 f i RFIDScanner.obj
 0001:0000b370       ??I?$CComPtrBase@UITypeInfo@@@ATL@@QEAAPEAPEAUITypeInfo@@XZ 000000018000c370 f i RFIDScanner.obj
 0001:0000b3e0       ??I?$CComPtrBase@UITypeLib@@@ATL@@QEAAPEAPEAUITypeLib@@XZ 000000018000c3e0 f i RFIDScanner.obj
 0001:0000b450       ??I?$CComPtrBase@UIUnknown@@@ATL@@QEAAPEAPEAUIUnknown@@XZ 000000018000c450 f i RFIDScanner.obj
 0001:0000b4c0       ??I?$CComPtrBase@UIViewObjectEx@@@ATL@@QEAAPEAPEAUIViewObjectEx@@XZ 000000018000c4c0 f i RFIDScanner.obj
 0001:0000b530       ??ICComBSTR@ATL@@QEAAPEAPEA_WXZ 000000018000c530 f i RFIDScanner.obj
 0001:0000b540       ??_E?$CComContainedObject@VCOPOSRFIDScanner@@@ATL@@W7EAAPEAXI@Z 000000018000c540 f i RFIDScanner.obj
 0001:0000b54c       ??_E?$CComContainedObject@VCOPOSRFIDScanner@@@ATL@@WHA@EAAPEAXI@Z 000000018000c54c f i RFIDScanner.obj
 0001:0000b558       ??_E?$CComObject@VCOPOSRFIDScanner@@@ATL@@W7EAAPEAXI@Z 000000018000c558 f i RFIDScanner.obj
 0001:0000b564       ??_E?$CComObject@VCOPOSRFIDScanner@@@ATL@@WHA@EAAPEAXI@Z 000000018000c564 f i RFIDScanner.obj
 0001:0000b570       ??_G?$CComAggObject@VCOPOSRFIDScanner@@@ATL@@UEAAPEAXI@Z 000000018000c570 f i RFIDScanner.obj
 0001:0000b570       ??_E?$CComAggObject@VCOPOSRFIDScanner@@@ATL@@UEAAPEAXI@Z 000000018000c570 f i RFIDScanner.obj
 0001:0000b5d0       ??_E?$CComContainedObject@VCOPOSRFIDScanner@@@ATL@@UEAAPEAXI@Z 000000018000c5d0 f i RFIDScanner.obj
 0001:0000b5d0       ??_G?$CComContainedObject@VCOPOSRFIDScanner@@@ATL@@UEAAPEAXI@Z 000000018000c5d0 f i RFIDScanner.obj
 0001:0000b630       ??_G?$CComObject@V?$CComEnum@UIEnumConnectionPoints@@$1?_GUID_b196b285_bab4_101a_b69c_00aa00341d07@@3U__s_GUID@@BPEAUIConnectionPoint@@V?$_CopyInterface@UIConnectionPoint@@@ATL@@VCComSingleThreadModel@6@@ATL@@@ATL@@UEAAPEAXI@Z 000000018000c630 f i RFIDScanner.obj
 0001:0000b630       ??_E?$CComObject@V?$CComEnum@UIEnumConnectionPoints@@$1?_GUID_b196b285_bab4_101a_b69c_00aa00341d07@@3U__s_GUID@@BPEAUIConnectionPoint@@V?$_CopyInterface@UIConnectionPoint@@@ATL@@VCComSingleThreadModel@6@@ATL@@@ATL@@UEAAPEAXI@Z 000000018000c630 f i RFIDScanner.obj
 0001:0000b690       ??_E?$CComObject@V?$CComEnum@UIEnumConnections@@$1?_GUID_b196b287_bab4_101a_b69c_00aa00341d07@@3U__s_GUID@@BUtagCONNECTDATA@@V?$_Copy@UtagCONNECTDATA@@@ATL@@VCComSingleThreadModel@6@@ATL@@@ATL@@UEAAPEAXI@Z 000000018000c690 f i RFIDScanner.obj
 0001:0000b690       ??_G?$CComObject@V?$CComEnum@UIEnumConnections@@$1?_GUID_b196b287_bab4_101a_b69c_00aa00341d07@@3U__s_GUID@@BUtagCONNECTDATA@@V?$_Copy@UtagCONNECTDATA@@@ATL@@VCComSingleThreadModel@6@@ATL@@@ATL@@UEAAPEAXI@Z 000000018000c690 f i RFIDScanner.obj
 0001:0000b6f0       ??_E?$CComObject@VCOPOSRFIDScanner@@@ATL@@UEAAPEAXI@Z 000000018000c6f0 f i RFIDScanner.obj
 0001:0000b6f0       ??_G?$CComObject@VCOPOSRFIDScanner@@@ATL@@UEAAPEAXI@Z 000000018000c6f0 f i RFIDScanner.obj
 0001:0000b750       ??_E?$CComObjectCached@VCComClassFactory@ATL@@@ATL@@UEAAPEAXI@Z 000000018000c750 f i RFIDScanner.obj
 0001:0000b750       ??_G?$CComObjectCached@VCComClassFactory@ATL@@@ATL@@UEAAPEAXI@Z 000000018000c750 f i RFIDScanner.obj
 0001:0000b7b0       ??_ECComClassFactory@ATL@@UEAAPEAXI@Z 000000018000c7b0 f i RFIDScanner.obj
 0001:0000b7b0       ??_GCComClassFactory@ATL@@UEAAPEAXI@Z 000000018000c7b0 f i RFIDScanner.obj
 0001:0000b810       ??_GCComModule@ATL@@UEAAPEAXI@Z 000000018000c810 f i RFIDScanner.obj
 0001:0000b810       ??_ECComModule@ATL@@UEAAPEAXI@Z 000000018000c810 f i RFIDScanner.obj
 0001:0000b870       ??_GCRegObject@ATL@@UEAAPEAXI@Z 000000018000c870 f i RFIDScanner.obj
 0001:0000b870       ??_ECRegObject@ATL@@UEAAPEAXI@Z 000000018000c870 f i RFIDScanner.obj
 0001:0000b8d0       ?Add@?$CSimpleArray@GV?$CSimpleArrayEqualHelper@G@ATL@@@ATL@@QEAAHAEBG@Z 000000018000c8d0 f i RFIDScanner.obj
 0001:0000ba70       ?Add@?$CSimpleMap@PEA_WPEA_WVCExpansionVectorEqualHelper@ATL@@@ATL@@QEAAHAEBQEA_W0@Z 000000018000ca70 f i RFIDScanner.obj
 0001:0000bb60       ?Add@CComDynamicUnkArray@ATL@@QEAAKPEAUIUnknown@@@Z 000000018000cb60 f i RFIDScanner.obj
 0001:0000bd40       ?Add@CExpansionVector@ATL@@QEAAHPEB_W0@Z 000000018000cd40 f i RFIDScanner.obj
 0001:0000c070       ?AddChar@CParseBuffer@CRegParser@ATL@@QEAAHPEB_W@Z 000000018000d070 f i RFIDScanner.obj
 0001:0000c0c0       ?AddCommonRGSReplacements@?$CAtlModuleT@VCComModule@ATL@@@ATL@@UEAAJPEAUIRegistrarBase@@@Z 000000018000d0c0 f i RFIDScanner.obj
 0001:0000c120       ?AddCreateWndData@CAtlWinModule@ATL@@QEAAXPEAU_AtlCreateWndData@2@PEAX@Z 000000018000d120 f i RFIDScanner.obj
 0001:0000c170       ?AddRef@?$CComAggObject@VCOPOSRFIDScanner@@@ATL@@UEAAKXZ 000000018000d170 f i RFIDScanner.obj
 0001:0000c1b0       ?AddRef@?$CComContainedObject@VCOPOSRFIDScanner@@@ATL@@UEAAKXZ 000000018000d1b0 f i RFIDScanner.obj
 0001:0000c1e8       ?AddRef@?$CComContainedObject@VCOPOSRFIDScanner@@@ATL@@WBAA@EAAKXZ 000000018000d1e8 f i RFIDScanner.obj
 0001:0000c1f4       ?AddRef@?$CComContainedObject@VCOPOSRFIDScanner@@@ATL@@WBAI@EAAKXZ 000000018000d1f4 f i RFIDScanner.obj
 0001:0000c200       ?AddRef@?$CComContainedObject@VCOPOSRFIDScanner@@@ATL@@WBBA@EAAKXZ 000000018000d200 f i RFIDScanner.obj
 0001:0000c20c       ?AddRef@?$CComContainedObject@VCOPOSRFIDScanner@@@ATL@@WBBI@EAAKXZ 000000018000d20c f i RFIDScanner.obj
 0001:0000c218       ?AddRef@?$CComContainedObject@VCOPOSRFIDScanner@@@ATL@@WBCI@EAAKXZ 000000018000d218 f i RFIDScanner.obj
 0001:0000c224       ?AddRef@?$CComContainedObject@VCOPOSRFIDScanner@@@ATL@@WBEA@EAAKXZ 000000018000d224 f i RFIDScanner.obj
 0001:0000c230       ?AddRef@?$CComContainedObject@VCOPOSRFIDScanner@@@ATL@@WLI@EAAKXZ 000000018000d230 f i RFIDScanner.obj
 0001:0000c23c       ?AddRef@?$CComContainedObject@VCOPOSRFIDScanner@@@ATL@@WMA@EAAKXZ 000000018000d23c f i RFIDScanner.obj
 0001:0000c248       ?AddRef@?$CComContainedObject@VCOPOSRFIDScanner@@@ATL@@WMI@EAAKXZ 000000018000d248 f i RFIDScanner.obj
 0001:0000c254       ?AddRef@?$CComContainedObject@VCOPOSRFIDScanner@@@ATL@@WNA@EAAKXZ 000000018000d254 f i RFIDScanner.obj
 0001:0000c260       ?AddRef@?$CComContainedObject@VCOPOSRFIDScanner@@@ATL@@WNI@EAAKXZ 000000018000d260 f i RFIDScanner.obj
 0001:0000c26c       ?AddRef@?$CComContainedObject@VCOPOSRFIDScanner@@@ATL@@WOA@EAAKXZ 000000018000d26c f i RFIDScanner.obj
 0001:0000c278       ?AddRef@?$CComContainedObject@VCOPOSRFIDScanner@@@ATL@@WOI@EAAKXZ 000000018000d278 f i RFIDScanner.obj
 0001:0000c284       ?AddRef@?$CComContainedObject@VCOPOSRFIDScanner@@@ATL@@WPA@EAAKXZ 000000018000d284 f i RFIDScanner.obj
 0001:0000c290       ?AddRef@?$CComContainedObject@VCOPOSRFIDScanner@@@ATL@@WPI@EAAKXZ 000000018000d290 f i RFIDScanner.obj
 0001:0000c2a0       ?AddRef@?$CComObject@V?$CComEnum@UIEnumConnectionPoints@@$1?_GUID_b196b285_bab4_101a_b69c_00aa00341d07@@3U__s_GUID@@BPEAUIConnectionPoint@@V?$_CopyInterface@UIConnectionPoint@@@ATL@@VCComSingleThreadModel@6@@ATL@@@ATL@@UEAAKXZ 000000018000d2a0 f i RFIDScanner.obj
 0001:0000c2e0       ?AddRef@?$CComObject@V?$CComEnum@UIEnumConnections@@$1?_GUID_b196b287_bab4_101a_b69c_00aa00341d07@@3U__s_GUID@@BUtagCONNECTDATA@@V?$_Copy@UtagCONNECTDATA@@@ATL@@VCComSingleThreadModel@6@@ATL@@@ATL@@UEAAKXZ 000000018000d2e0 f i RFIDScanner.obj
 0001:0000c320       ?AddRef@?$CComObject@VCOPOSRFIDScanner@@@ATL@@UEAAKXZ 000000018000d320 f i RFIDScanner.obj
 0001:0000c358       ?AddRef@?$CComObject@VCOPOSRFIDScanner@@@ATL@@WBAA@EAAKXZ 000000018000d358 f i RFIDScanner.obj
 0001:0000c364       ?AddRef@?$CComObject@VCOPOSRFIDScanner@@@ATL@@WBAI@EAAKXZ 000000018000d364 f i RFIDScanner.obj
 0001:0000c370       ?AddRef@?$CComObject@VCOPOSRFIDScanner@@@ATL@@WBBA@EAAKXZ 000000018000d370 f i RFIDScanner.obj
 0001:0000c37c       ?AddRef@?$CComObject@VCOPOSRFIDScanner@@@ATL@@WBBI@EAAKXZ 000000018000d37c f i RFIDScanner.obj
 0001:0000c388       ?AddRef@?$CComObject@VCOPOSRFIDScanner@@@ATL@@WBCI@EAAKXZ 000000018000d388 f i RFIDScanner.obj
 0001:0000c394       ?AddRef@?$CComObject@VCOPOSRFIDScanner@@@ATL@@WBEA@EAAKXZ 000000018000d394 f i RFIDScanner.obj
 0001:0000c3a0       ?AddRef@?$CComObject@VCOPOSRFIDScanner@@@ATL@@WLI@EAAKXZ 000000018000d3a0 f i RFIDScanner.obj
 0001:0000c3ac       ?AddRef@?$CComObject@VCOPOSRFIDScanner@@@ATL@@WMA@EAAKXZ 000000018000d3ac f i RFIDScanner.obj
 0001:0000c3b8       ?AddRef@?$CComObject@VCOPOSRFIDScanner@@@ATL@@WMI@EAAKXZ 000000018000d3b8 f i RFIDScanner.obj
 0001:0000c3c4       ?AddRef@?$CComObject@VCOPOSRFIDScanner@@@ATL@@WNA@EAAKXZ 000000018000d3c4 f i RFIDScanner.obj
 0001:0000c3d0       ?AddRef@?$CComObject@VCOPOSRFIDScanner@@@ATL@@WNI@EAAKXZ 000000018000d3d0 f i RFIDScanner.obj
 0001:0000c3dc       ?AddRef@?$CComObject@VCOPOSRFIDScanner@@@ATL@@WOA@EAAKXZ 000000018000d3dc f i RFIDScanner.obj
 0001:0000c3e8       ?AddRef@?$CComObject@VCOPOSRFIDScanner@@@ATL@@WOI@EAAKXZ 000000018000d3e8 f i RFIDScanner.obj
 0001:0000c3f4       ?AddRef@?$CComObject@VCOPOSRFIDScanner@@@ATL@@WPA@EAAKXZ 000000018000d3f4 f i RFIDScanner.obj
 0001:0000c400       ?AddRef@?$CComObject@VCOPOSRFIDScanner@@@ATL@@WPI@EAAKXZ 000000018000d400 f i RFIDScanner.obj
 0001:0000c410       ?AddRef@?$CComObjectCached@VCComClassFactory@ATL@@@ATL@@UEAAKXZ 000000018000d410 f i RFIDScanner.obj
 0001:0000c470       ?AddRef@CRegObject@ATL@@UEAAKXZ 000000018000d470 f i RFIDScanner.obj
 0001:0000c4e0       ?AddReplacement@CRegObject@ATL@@UEAAJPEB_W0@Z 000000018000d4e0 f i RFIDScanner.obj
 0001:0000c610       ?AddString@CParseBuffer@CRegParser@ATL@@QEAAHPEB_W@Z 000000018000d610 f i RFIDScanner.obj
 0001:0000c700       ?AddTermFunc@CAtlModule@ATL@@QEAAJP6AX_K@Z0@Z 000000018000d700 f i RFIDScanner.obj
 0001:0000c770       ?AddValue@CRegParser@ATL@@IEAAJAEAVCRegKey@2@PEB_WPEA_W@Z 000000018000d770 f i RFIDScanner.obj
 0001:0000d040       ?Advise@?$CProxy_IOPOSEvents@VCOPOSRFIDScanner@@@@UEAAJPEAUIUnknown@@PEAK@Z 000000018000e040 f i RFIDScanner.obj
 0001:0000d0b0       ?Advise@?$IConnectionPointImpl@VCOPOSRFIDScanner@@$1?DIID__IOPOSRFIDScannerEvents@@3U_GUID@@BVCComDynamicUnkArray@ATL@@@ATL@@UEAAJPEAUIUnknown@@PEAK@Z 000000018000e0b0 f i RFIDScanner.obj
 0001:0000d2b0       ?Advise@?$IConnectionPointImpl@VCOPOSRFIDScanner@@$1?IID_IPropertyNotifySink@@3U_GUID@@BVCComDynamicUnkArray@ATL@@@ATL@@UEAAJPEAUIUnknown@@PEAK@Z 000000018000e2b0 f i RFIDScanner.obj
 0001:0000d4b0       ?Advise@?$IOleObjectImpl@VCOPOSRFIDScanner@@@ATL@@UEAAJPEAUIAdviseSink@@PEAK@Z 000000018000e4b0 f i RFIDScanner.obj
 0001:0000d570       ?Allocate@?$CAtlSafeAllocBufferManager@VCCRTAllocator@ATL@@@_ATL_SAFE_ALLOCA_IMPL@ATL@@QEAAPEAX_K@Z 000000018000e570 f i RFIDScanner.obj
 0001:0000d5f0       ?Allocate@?$CTempBuffer@E$0BAA@VCCRTAllocator@ATL@@@ATL@@QEAAPEAE_K@Z 000000018000e5f0 f i RFIDScanner.obj
 0001:0000d640       ?Allocate@?$CTempBuffer@_W$0BAA@VCCRTAllocator@ATL@@@ATL@@QEAAPEA_W_K@Z 000000018000e640 f i RFIDScanner.obj
 0001:0000d690       ?Allocate@?$CTempBuffer@_W$0EAA@VCCRTAllocator@ATL@@@ATL@@QEAAPEA_W_K@Z 000000018000e690 f i RFIDScanner.obj
 0001:0000d6e0       ?AllocateBytes@?$CTempBuffer@E$0BAA@VCCRTAllocator@ATL@@@ATL@@QEAAPEAE_K@Z 000000018000e6e0 f i RFIDScanner.obj
 0001:0000d790       ?AllocateBytes@?$CTempBuffer@_W$0BAA@VCCRTAllocator@ATL@@@ATL@@QEAAPEA_W_K@Z 000000018000e790 f i RFIDScanner.obj
 0001:0000d840       ?AllocateBytes@?$CTempBuffer@_W$0EAA@VCCRTAllocator@ATL@@@ATL@@QEAAPEA_W_K@Z 000000018000e840 f i RFIDScanner.obj
 0001:0000d8f0       ?AllocateHeap@?$CTempBuffer@E$0BAA@VCCRTAllocator@ATL@@@ATL@@AEAAX_K@Z 000000018000e8f0 f i RFIDScanner.obj
 0001:0000d950       ?AllocateHeap@?$CTempBuffer@_W$0BAA@VCCRTAllocator@ATL@@@ATL@@AEAAX_K@Z 000000018000e950 f i RFIDScanner.obj
 0001:0000d9b0       ?AllocateHeap@?$CTempBuffer@_W$0EAA@VCCRTAllocator@ATL@@@ATL@@AEAAX_K@Z 000000018000e9b0 f i RFIDScanner.obj
 0001:0000da10       ?Append@CParseBuffer@CRegParser@ATL@@QEAAHPEB_WH@Z 000000018000ea10 f i RFIDScanner.obj
 0001:0000dc40       ?AtlCallTermFunc@ATL@@YAXPEAU_ATL_MODULE70@1@@Z 000000018000ec40 f i RFIDScanner.obj
 0001:0000dcf0       ?AtlCoTaskMemCAlloc@ATL@@YAPEAXKK@Z 000000018000ecf0 f i RFIDScanner.obj
 0001:0000dd70       ?AtlCoTaskMemRecalloc@ATL@@YAPEAXPEAXKK@Z 000000018000ed70 f i RFIDScanner.obj
 0001:0000ddf0       ?AtlComModuleGetClassObject@ATL@@YAJPEAU_ATL_COM_MODULE70@1@AEBU_GUID@@1PEAPEAX@Z 000000018000edf0 f i RFIDScanner.obj
 0001:0000e120       ?AtlComModuleRegisterServer@ATL@@YAJPEAU_ATL_COM_MODULE70@1@HPEBU_GUID@@@Z 000000018000f120 f i RFIDScanner.obj
 0001:0000e320       ?AtlComModuleUnregisterServer@ATL@@YAJPEAU_ATL_COM_MODULE70@1@HPEBU_GUID@@@Z 000000018000f320 f i RFIDScanner.obj
 0001:0000e480       ?AtlComQIPtrAssign2@ATL@@YAXPEAPEAUIUnknown@@PEAU2@AEBU_GUID@@@Z 000000018000f480 f i RFIDScanner.obj
 0001:0000e510       ?AtlCreateTargetDC@ATL@@YAPEAUHDC__@@PEAU2@PEAUtagDVTARGETDEVICE@@@Z 000000018000f510 f i RFIDScanner.obj
 0001:0000e740       ?AtlCrtErrorCheck@ATL@@YAHH@Z 000000018000f740 f i RFIDScanner.obj
 0001:0000e7c0       ?AtlGetPerUserRegistration@ATL@@YAJPEA_N@Z 000000018000f7c0 f i RFIDScanner.obj
 0001:0000e7f0       ?AtlHiMetricToPixel@ATL@@YAXPEBUtagSIZE@@PEAU2@@Z 000000018000f7f0 f i RFIDScanner.obj
 0001:0000e9f0       ?AtlHresultFromLastError@ATL@@YAJXZ 000000018000f9f0 f i RFIDScanner.obj
 0001:0000ea20       ?AtlHresultFromWin32@ATL@@YAJK@Z 000000018000fa20 f i RFIDScanner.obj
 0001:0000ea50       ?AtlIPersistStreamInit_Load@ATL@@YAJPEAUIStream@@PEBUATL_PROPMAP_ENTRY@1@PEAXPEAUIUnknown@@@Z 000000018000fa50 f i RFIDScanner.obj
 0001:0000f0c0       ?AtlIPersistStreamInit_Save@ATL@@YAJPEAUIStream@@HPEBUATL_PROPMAP_ENTRY@1@PEAXPEAUIUnknown@@@Z 00000001800100c0 f i RFIDScanner.obj
 0001:0000f650       ?AtlInternalOleLoadFromStream@ATL@@YAJPEAUIStream@@AEBU_GUID@@PEAPEAXTClassesAllowedInStream@1@K@Z 0000000180010650 f i RFIDScanner.obj
 0001:0000f990       ?AtlInternalQueryInterface@ATL@@YAJPEAXPEBU_ATL_INTMAP_ENTRY@1@AEBU_GUID@@PEAPEAX@Z 0000000180010990 f i RFIDScanner.obj
 0001:0000fc50       ?AtlLoadTypeLib@ATL@@YAJPEAUHINSTANCE__@@PEB_WPEAPEA_WPEAPEAUITypeLib@@@Z 0000000180010c50 f i RFIDScanner.obj
 0001:00010120       ?AtlModuleAddTermFunc@ATL@@YAJPEAU_ATL_MODULE70@1@P6AX_K@Z1@Z 0000000180011120 f i RFIDScanner.obj
 0001:000102f0       ?AtlRegisterClassCategoriesHelper@ATL@@YAJAEBU_GUID@@PEBU_ATL_CATMAP_ENTRY@1@H@Z 00000001800112f0 f i RFIDScanner.obj
 0001:00010ac0       ?AtlRegisterTypeLib@ATL@@YAJPEAUHINSTANCE__@@PEB_W@Z 0000000180011ac0 f i RFIDScanner.obj
 0001:00010e20       ?AtlThrowImpl@ATL@@YAXJ@Z  0000000180011e20 f i RFIDScanner.obj
 0001:00010f00       ?AtlUnRegisterTypeLib@ATL@@YAJPEAUHINSTANCE__@@PEB_W@Z 0000000180011f00 f i RFIDScanner.obj
 0001:00011130       ?AtlWinModuleAddCreateWndData@ATL@@YAXPEAU_ATL_WIN_MODULE70@1@PEAU_AtlCreateWndData@1@PEAX@Z 0000000180012130 f i RFIDScanner.obj
 0001:00011320       ?AtlWinModuleExtractCreateWndData@ATL@@YAPEAXPEAU_ATL_WIN_MODULE70@1@@Z 0000000180012320 f i RFIDScanner.obj
 0001:00011520       ?AtlWinModuleRegisterClassExW@ATL@@YAGPEAU_ATL_WIN_MODULE70@1@PEBUtagWNDCLASSEXW@@@Z 0000000180012520 f i RFIDScanner.obj
 0001:000115f0       ?AtlWinModuleRegisterWndClassInfoW@ATL@@YAGPEAU_ATL_WIN_MODULE70@1@PEAU_ATL_BASE_MODULE70@1@PEAU_ATL_WNDCLASSINFOW@1@PEAP6A_JPEAUHWND__@@I_K_J@Z@Z 00000001800125f0 f i RFIDScanner.obj
 0001:00011660       ?Attach@?$CAutoVectorPtr@_W@ATL@@QEAAXPEA_W@Z 0000000180012660 f i RFIDScanner.obj
 0001:000116f0       ?Attach@CComBSTR@ATL@@QEAAXPEA_W@Z 00000001800126f0 f i RFIDScanner.obj
 0001:00011750       ?Attach@CRegKey@ATL@@QEAAXPEAUHKEY__@@@Z 0000000180012750 f i RFIDScanner.obj
 0001:000117f0       ?CanForceRemoveKey@CRegParser@ATL@@IEAAHPEB_W@Z 00000001800127f0 f i RFIDScanner.obj
 0001:00011860       ?ChToByte@CRegParser@ATL@@KAE_W@Z 0000000180012860 f i RFIDScanner.obj
 0001:000119c0       ?ChangeType@CComVariant@ATL@@QEAAJGPEBUtagVARIANT@@@Z 00000001800129c0 f i RFIDScanner.obj
 0001:00011a30       ?Cleanup@CComTypeInfoHolder@ATL@@SAX_K@Z 0000000180012a30 f i RFIDScanner.obj
 0001:00011b20       ?Clear@CComVariant@ATL@@QEAAJXZ 0000000180012b20 f i RFIDScanner.obj
 0001:00011b50       ?ClearReplacements@CExpansionVector@ATL@@QEAAJXZ 0000000180012b50 f i RFIDScanner.obj
 0001:00011bf0       ?ClearReplacements@CRegObject@ATL@@UEAAJXZ 0000000180012bf0 f i RFIDScanner.obj
 0001:00011c50       ?Clone@?$CComEnumImpl@UIEnumConnectionPoints@@$1?_GUID_b196b285_bab4_101a_b69c_00aa00341d07@@3U__s_GUID@@BPEAUIConnectionPoint@@V?$_CopyInterface@UIConnectionPoint@@@ATL@@@ATL@@UEAAJPEAPEAUIEnumConnectionPoints@@@Z 0000000180012c50 f i RFIDScanner.obj
 0001:00011e40       ?Clone@?$CComEnumImpl@UIEnumConnections@@$1?_GUID_b196b287_bab4_101a_b69c_00aa00341d07@@3U__s_GUID@@BUtagCONNECTDATA@@V?$_Copy@UtagCONNECTDATA@@@ATL@@@ATL@@UEAAJPEAPEAUIEnumConnections@@@Z 0000000180012e40 f i RFIDScanner.obj
 0001:00012030       ?Close@?$IOleObjectImpl@VCOPOSRFIDScanner@@@ATL@@UEAAJK@Z 0000000180013030 f i RFIDScanner.obj
 0001:000120e0       ?Close@CRegKey@ATL@@QEAAJXZ 00000001800130e0 f i RFIDScanner.obj
 0001:00012150       ?ContextSensitiveHelp@?$IOleInPlaceActiveObjectImpl@VCOPOSRFIDScanner@@@ATL@@UEAAJH@Z 0000000180013150 f i RFIDScanner.obj
 0001:000121d0       ?ContextSensitiveHelp@?$IOleInPlaceObjectWindowlessImpl@VCOPOSRFIDScanner@@@ATL@@UEAAJH@Z 00000001800131d0 f i RFIDScanner.obj
 0001:00012250       ?ControlQueryInterface@?$CComControl@VCOPOSRFIDScanner@@V?$CWindowImpl@VCOPOSRFIDScanner@@VCWindow@ATL@@V?$CWinTraits@$0FGAAAAAA@$0A@@3@@ATL@@@ATL@@UEAAJAEBU_GUID@@PEAPEAX@Z 0000000180013250 f i RFIDScanner.obj
 0001:000122e0       ?CreateControlWindow@?$CComControl@VCOPOSRFIDScanner@@V?$CWindowImpl@VCOPOSRFIDScanner@@VCWindow@ATL@@V?$CWinTraits@$0FGAAAAAA@$0A@@3@@ATL@@@ATL@@UEAAPEAUHWND__@@PEAU3@AEAUtagRECT@@@Z 00000001800132e0 f i RFIDScanner.obj
 0001:000123d0       ?CreateInstance@?$CComCreator@V?$CComAggObject@VCOPOSRFIDScanner@@@ATL@@@ATL@@SAJPEAXAEBU_GUID@@PEAPEAX@Z 00000001800133d0 f i RFIDScanner.obj
 0001:000125b0       ?CreateInstance@?$CComCreator@V?$CComObject@VCOPOSRFIDScanner@@@ATL@@@ATL@@SAJPEAXAEBU_GUID@@PEAPEAX@Z 00000001800135b0 f i RFIDScanner.obj
 0001:000127b0       ?CreateInstance@?$CComObject@V?$CComEnum@UIEnumConnectionPoints@@$1?_GUID_b196b285_bab4_101a_b69c_00aa00341d07@@3U__s_GUID@@BPEAUIConnectionPoint@@V?$_CopyInterface@UIConnectionPoint@@@ATL@@VCComSingleThreadModel@6@@ATL@@@ATL@@SAJPEAPEAV12@@Z 00000001800137b0 f i RFIDScanner.obj
 0001:00012970       ?CreateInstance@?$CComObject@V?$CComEnum@UIEnumConnections@@$1?_GUID_b196b287_bab4_101a_b69c_00aa00341d07@@3U__s_GUID@@BUtagCONNECTDATA@@V?$_Copy@UtagCONNECTDATA@@@ATL@@VCComSingleThreadModel@6@@ATL@@@ATL@@SAJPEAPEAV12@@Z 0000000180013970 f i RFIDScanner.obj
 0001:00012b30       ?CreateInstance@CComClassFactory@ATL@@UEAAJPEAUIUnknown@@AEBU_GUID@@PEAPEAX@Z 0000000180013b30 f i RFIDScanner.obj
 0001:00012c50       ?DAdvise@?$IDataObjectImpl@VCOPOSRFIDScanner@@@ATL@@UEAAJPEAUtagFORMATETC@@KPEAUIAdviseSink@@PEAK@Z 0000000180013c50 f i RFIDScanner.obj
 0001:00012db0       ?DEVMODEOLE2T_EX@@YAPEAU_devicemodeW@@PEAU1@@Z 0000000180013db0 f i RFIDScanner.obj
 0001:00012dc0       ?DUnadvise@?$IDataObjectImpl@VCOPOSRFIDScanner@@@ATL@@UEAAJK@Z 0000000180013dc0 f i RFIDScanner.obj
 0001:00012ec0       ?Decrement@CComMultiThreadModel@ATL@@SAKPEAJ@Z 0000000180013ec0 f i RFIDScanner.obj
 0001:00012ee0       ?Decrement@CComSingleThreadModel@ATL@@SAKPEAJ@Z 0000000180013ee0 f i RFIDScanner.obj
 0001:00012f00       ?DefWindowProcW@?$CWindowImplBaseT@VCWindow@ATL@@V?$CWinTraits@$0FGAAAAAA@$0A@@2@@ATL@@QEAA_JI_K_J@Z 0000000180013f00 f i RFIDScanner.obj
 0001:00012f60       ?DefaultReflectionHandler@?$CWindowImplRoot@VCWindow@ATL@@@ATL@@SAHPEAUHWND__@@I_K_JAEA_J@Z 0000000180013f60 f i RFIDScanner.obj
 0001:00013050       ?DeleteSubKey@CRegKey@ATL@@QEAAJPEB_W@Z 0000000180014050 f i RFIDScanner.obj
 0001:00013180       ?DeleteValue@CRegKey@ATL@@QEAAJPEB_W@Z 0000000180014180 f i RFIDScanner.obj
 0001:00013210       ?Detach@?$CAutoVectorPtr@_W@ATL@@QEAAPEA_WXZ 0000000180014210 f i RFIDScanner.obj
 0001:00013250       ?Detach@?$CComPtrBase@UIPersistStream@@@ATL@@QEAAPEAUIPersistStream@@XZ 0000000180014250 f i RFIDScanner.obj
 0001:00013290       ?Detach@?$CComPtrBase@UITypeInfo@@@ATL@@QEAAPEAUITypeInfo@@XZ 0000000180014290 f i RFIDScanner.obj
 0001:000132d0       ?Detach@?$CComPtrBase@UIUnknown@@@ATL@@QEAAPEAUIUnknown@@XZ 00000001800142d0 f i RFIDScanner.obj
 0001:00013310       ?Detach@CComBSTR@ATL@@QEAAPEA_WXZ 0000000180014310 f i RFIDScanner.obj
 0001:00013350       ?Detach@CParseBuffer@CRegParser@ATL@@QEAAPEA_WXZ 0000000180014350 f i RFIDScanner.obj
 0001:000133b0       ?Detach@CRegKey@ATL@@QEAAPEAUHKEY__@@XZ 00000001800143b0 f i RFIDScanner.obj
 0001:00013410       ?DoEvent@COPOSRFIDScanner@@IEAAXI_K_J@Z 0000000180014410 f i RFIDScanner.obj
 0001:00013550       ?DoVerb@?$IOleObjectImpl@VCOPOSRFIDScanner@@@ATL@@UEAAJJPEAUtagMSG@@PEAUIOleClientSite@@JPEAUHWND__@@PEBUtagRECT@@@Z 0000000180014550 f i RFIDScanner.obj
 0001:00013860       ?DoVerbDiscardUndo@?$IOleObjectImpl@VCOPOSRFIDScanner@@@ATL@@QEAAJPEBUtagRECT@@PEAUHWND__@@@Z 0000000180014860 f i RFIDScanner.obj
 0001:00013900       ?DoVerbHide@?$IOleObjectImpl@VCOPOSRFIDScanner@@@ATL@@QEAAJPEBUtagRECT@@PEAUHWND__@@@Z 0000000180014900 f i RFIDScanner.obj
 0001:000139e0       ?DoVerbInPlaceActivate@?$IOleObjectImpl@VCOPOSRFIDScanner@@@ATL@@QEAAJPEBUtagRECT@@PEAUHWND__@@@Z 00000001800149e0 f i RFIDScanner.obj
 0001:00013ac0       ?DoVerbOpen@?$IOleObjectImpl@VCOPOSRFIDScanner@@@ATL@@QEAAJPEBUtagRECT@@PEAUHWND__@@@Z 0000000180014ac0 f i RFIDScanner.obj
 0001:00013b60       ?DoVerbPrimary@?$IOleObjectImpl@VCOPOSRFIDScanner@@@ATL@@QEAAJPEBUtagRECT@@PEAUHWND__@@@Z 0000000180014b60 f i RFIDScanner.obj
 0001:00013ca0       ?DoVerbProperties@CComControlBase@ATL@@QEAAJPEBUtagRECT@@PEAUHWND__@@@Z 0000000180014ca0 f i RFIDScanner.obj
 0001:00014050       ?DoVerbShow@?$IOleObjectImpl@VCOPOSRFIDScanner@@@ATL@@QEAAJPEBUtagRECT@@PEAUHWND__@@@Z 0000000180015050 f i RFIDScanner.obj
 0001:00014110       ?DoVerbUIActivate@?$IOleObjectImpl@VCOPOSRFIDScanner@@@ATL@@QEAAJPEBUtagRECT@@PEAUHWND__@@@Z 0000000180015110 f i RFIDScanner.obj
 0001:000141f0       ?DoesVerbActivate@CComControlBase@ATL@@QEAAHJ@Z 00000001800151f0 f i RFIDScanner.obj
 0001:00014250       ?DoesVerbUIActivate@CComControlBase@ATL@@QEAAHJ@Z 0000000180015250 f i RFIDScanner.obj
 0001:000142d0       ?Draw@?$IViewObjectExImpl@VCOPOSRFIDScanner@@@ATL@@UEAAJKJPEAXPEAUtagDVTARGETDEVICE@@PEAUHDC__@@2PEBU_RECTL@@3P6AH_K@Z4@Z 00000001800152d0 f i RFIDScanner.obj
 0001:000143f0       ?Empty@CComBSTR@ATL@@QEAAXXZ 00000001800153f0 f i RFIDScanner.obj
 0001:00014430       ?EnableModeless@?$IOleInPlaceActiveObjectImpl@VCOPOSRFIDScanner@@@ATL@@UEAAJH@Z 0000000180015430 f i RFIDScanner.obj
 0001:000144a0       ?EndOfVar@CRegParser@ATL@@IEAAHXZ 00000001800154a0 f i RFIDScanner.obj
 0001:00014500       ?EnsureTI@CComTypeInfoHolder@ATL@@QEAAJK@Z 0000000180015500 f i RFIDScanner.obj
 0001:00014560       ?EnumAdvise@?$IOleObjectImpl@VCOPOSRFIDScanner@@@ATL@@UEAAJPEAPEAUIEnumSTATDATA@@@Z 0000000180015560 f i RFIDScanner.obj
 0001:000146c0       ?EnumConnectionPoints@?$IConnectionPointContainerImpl@VCOPOSRFIDScanner@@@ATL@@UEAAJPEAPEAUIEnumConnectionPoints@@@Z 00000001800156c0 f i RFIDScanner.obj
 0001:00014bb0       ?EnumConnections@?$IConnectionPointImpl@VCOPOSRFIDScanner@@$1?DIID__IOPOSRFIDScannerEvents@@3U_GUID@@BVCComDynamicUnkArray@ATL@@@ATL@@UEAAJPEAPEAUIEnumConnections@@@Z 0000000180015bb0 f i RFIDScanner.obj
 0001:00014f00       ?EnumConnections@?$IConnectionPointImpl@VCOPOSRFIDScanner@@$1?IID_IPropertyNotifySink@@3U_GUID@@BVCComDynamicUnkArray@ATL@@@ATL@@UEAAJPEAPEAUIEnumConnections@@@Z 0000000180015f00 f i RFIDScanner.obj
 0001:00015250       ?EnumDAdvise@?$IDataObjectImpl@VCOPOSRFIDScanner@@@ATL@@UEAAJPEAPEAUIEnumSTATDATA@@@Z 0000000180016250 f i RFIDScanner.obj
 0001:000153a0       ?EnumFormatEtc@?$IDataObjectImpl@VCOPOSRFIDScanner@@@ATL@@UEAAJKPEAPEAUIEnumFORMATETC@@@Z 00000001800163a0 f i RFIDScanner.obj
 0001:00015430       ?EnumVerbs@?$IOleObjectImpl@VCOPOSRFIDScanner@@@ATL@@UEAAJPEAPEAUIEnumOLEVERB@@@Z 0000000180016430 f i RFIDScanner.obj
 0001:00015500       ?EscapeSingleQuote@CAtlModule@ATL@@SAXPEA_W_KPEB_W@Z 0000000180016500 f i RFIDScanner.obj
 0001:00015600       ?ExtractCreateWndData@CAtlWinModule@ATL@@QEAAPEAXXZ 0000000180016600 f i RFIDScanner.obj
 0001:00015630       ?FAccessAllowed@?$IObjectSafetyImpl@VCOPOSRFIDScanner@@$02@ATL@@MEAAHXZ 0000000180016630 f i RFIDScanner.obj
 0001:00015640       ?FinalConstruct@?$CComAggObject@VCOPOSRFIDScanner@@@ATL@@QEAAJXZ 0000000180016640 f i RFIDScanner.obj
 0001:00015690       ?FinalConstruct@CComObjectRootBase@ATL@@QEAAJXZ 0000000180016690 f i RFIDScanner.obj
 0001:000156a0       ?FinalConstruct@CRegObject@ATL@@QEAAJXZ 00000001800166a0 f i RFIDScanner.obj
 0001:000156e0       ?FinalRelease@?$CComAggObject@VCOPOSRFIDScanner@@@ATL@@QEAAXXZ 00000001800166e0 f i RFIDScanner.obj
 0001:00015730       ?FinalRelease@CComObjectRootBase@ATL@@QEAAXXZ 0000000180016730 f i RFIDScanner.obj
 0001:00015740       ?FindConnectionPoint@?$IConnectionPointContainerImpl@VCOPOSRFIDScanner@@@ATL@@UEAAJAEBU_GUID@@PEAPEAUIConnectionPoint@@@Z 0000000180016740 f i RFIDScanner.obj
 0001:000158b0       ?FindKey@?$CSimpleMap@PEA_WPEA_WVCExpansionVectorEqualHelper@ATL@@@ATL@@QEBAHAEBQEA_W@Z 00000001800168b0 f i RFIDScanner.obj
 0001:00015930       ?FireTheEvent@?$CProxy_IOPOSEvents@VCOPOSRFIDScanner@@@@IEAAXPEAUIUnknown@@PEAVOposVariant@@IAEAJPEB_WJ@Z 0000000180016930 f i RFIDScanner.obj
 0001:00015b10       ?FireViewChange@CComControlBase@ATL@@QEAAJXZ 0000000180016b10 f i RFIDScanner.obj
 0001:00015bf0       ?Fire_DataEvent@?$CProxy_IOPOSEvents@VCOPOSRFIDScanner@@@@QEAAXJ@Z 0000000180016bf0 f i RFIDScanner.obj
 0001:00015de0       ?Fire_DirectIOEvent@?$CProxy_IOPOSEvents@VCOPOSRFIDScanner@@@@QEAAXJPEAJPEAPEA_W@Z 0000000180016de0 f i RFIDScanner.obj
 0001:00016070       ?Fire_ErrorEvent@?$CProxy_IOPOSEvents@VCOPOSRFIDScanner@@@@QEAAXJJJPEAJ@Z 0000000180017070 f i RFIDScanner.obj
 0001:00016320       ?Fire_OutputCompleteEvent@?$CProxy_IOPOSEvents@VCOPOSRFIDScanner@@@@QEAAXJ@Z 0000000180017320 f i RFIDScanner.obj
 0001:00016510       ?Fire_StatusUpdateEvent@?$CProxy_IOPOSEvents@VCOPOSRFIDScanner@@@@QEAAXJ@Z 0000000180017510 f i RFIDScanner.obj
 0001:00016700       ?FormatWindowClassName@AtlModuleRegisterWndClassInfoParamW@ATL@@SAXPEA_WKPEAX@Z 0000000180017700 f i RFIDScanner.obj
 0001:00016750       ?Free@?$CAutoVectorPtr@_W@ATL@@QEAAXXZ 0000000180017750 f i RFIDScanner.obj
 0001:000167a0       ?FreeHeap@?$CTempBuffer@E$0BAA@VCCRTAllocator@ATL@@@ATL@@AEAAXXZ 00000001800177a0 f i RFIDScanner.obj
 0001:000167e0       ?FreeHeap@?$CTempBuffer@_W$0BAA@VCCRTAllocator@ATL@@@ATL@@AEAAXXZ 00000001800177e0 f i RFIDScanner.obj
 0001:00016820       ?FreeHeap@?$CTempBuffer@_W$0EAA@VCCRTAllocator@ATL@@@ATL@@AEAAXXZ 0000000180017820 f i RFIDScanner.obj
 0001:00016860       ?Freeze@?$IViewObjectExImpl@VCOPOSRFIDScanner@@@ATL@@UEAAJKJPEAXPEAK@Z 0000000180017860 f i RFIDScanner.obj
 0001:000168f0       ?GenerateError@CRegParser@ATL@@IEAAJI@Z 00000001800178f0 f i RFIDScanner.obj
 0001:00016910       ?GetAdvise@?$IViewObjectExImpl@VCOPOSRFIDScanner@@@ATL@@UEAAJPEAK0PEAPEAUIAdviseSink@@@Z 0000000180017910 f i RFIDScanner.obj
 0001:00016a60       ?GetAmbientLocaleID@CComControlBase@ATL@@QEAAJAEAK@Z 0000000180017a60 f i RFIDScanner.obj
 0001:00016b40       ?GetAmbientProperty@CComControlBase@ATL@@QEAAJJAEAUtagVARIANT@@@Z 0000000180017b40 f i RFIDScanner.obj
 0001:00016bb0       ?GetAmbientUserMode@CComControlBase@ATL@@QEAAJAEAH@Z 0000000180017bb0 f i RFIDScanner.obj
 0001:00016cd0       ?GetAppId@?$CAtlModuleT@VCComModule@ATL@@@ATL@@SAPEB_WXZ 0000000180017cd0 f i RFIDScanner.obj
 0001:00016ce0       ?GetAt@CComDynamicUnkArray@ATL@@QEAAPEAUIUnknown@@H@Z 0000000180017ce0 f i RFIDScanner.obj
 0001:00016d90       ?GetCanonicalFormatEtc@?$IDataObjectImpl@VCOPOSRFIDScanner@@@ATL@@UEAAJPEAUtagFORMATETC@@0@Z 0000000180017d90 f i RFIDScanner.obj
 0001:00016e20       ?GetClassID@?$IPersistStorageImpl@VCOPOSRFIDScanner@@@ATL@@UEAAJPEAU_GUID@@@Z 0000000180017e20 f i RFIDScanner.obj
 0001:00016ec0       ?GetClassID@?$IPersistStreamInitImpl@VCOPOSRFIDScanner@@@ATL@@UEAAJPEAU_GUID@@@Z 0000000180017ec0 f i RFIDScanner.obj
 0001:00016f60       ?GetClassInfoExW@AtlModuleRegisterWndClassInfoParamW@ATL@@SAHPEAUHINSTANCE__@@PEB_WPEAUtagWNDCLASSEXW@@@Z 0000000180017f60 f i RFIDScanner.obj
 0001:00016fb0       ?GetClassInfoW@?$IProvideClassInfo2Impl@$1?CLSID_OPOSRFIDScanner@@3U_GUID@@B$1?DIID__IOPOSRFIDScannerEvents@@3U2@B$1?LIBID_OposRFIDScanner_CCO@@3U2@B$00$0A@VCComTypeInfoHolder@ATL@@@ATL@@UEAAJPEAPEAUITypeInfo@@@Z 0000000180017fb0 f i RFIDScanner.obj
 0001:00016ff0       ?GetClassObject@CComModule@ATL@@QEAAJAEBU_GUID@@0PEAPEAX@Z 0000000180017ff0 f i RFIDScanner.obj
 0001:00017260       ?GetClientSite@?$IOleObjectImpl@VCOPOSRFIDScanner@@@ATL@@UEAAJPEAPEAUIOleClientSite@@@Z 0000000180018260 f i RFIDScanner.obj
 0001:00017310       ?GetClipboardData@?$IOleObjectImpl@VCOPOSRFIDScanner@@@ATL@@UEAAJKPEAPEAUIDataObject@@@Z 0000000180018310 f i RFIDScanner.obj
 0001:000173a0       ?GetCodeAddress@CDynamicStdCallThunk2@ATL@@QEAAPEAXXZ 00000001800183a0 f i RFIDScanner.obj
 0001:000173e0       ?GetColorSet@?$IViewObjectExImpl@VCOPOSRFIDScanner@@@ATL@@UEAAJKJPEAXPEAUtagDVTARGETDEVICE@@PEAUHDC__@@PEAPEAUtagLOGPALETTE@@@Z 00000001800183e0 f i RFIDScanner.obj
 0001:00017470       ?GetConnMap@COPOSRFIDScanner@@SAPEBU_ATL_CONNMAP_ENTRY@ATL@@PEAH@Z 0000000180018470 f i RFIDScanner.obj
 0001:000175d0       ?GetConnectionInterface@?$IConnectionPointImpl@VCOPOSRFIDScanner@@$1?DIID__IOPOSRFIDScannerEvents@@3U_GUID@@BVCComDynamicUnkArray@ATL@@@ATL@@UEAAJPEAU_GUID@@@Z 00000001800185d0 f i RFIDScanner.obj
 0001:00017610       ?GetConnectionInterface@?$IConnectionPointImpl@VCOPOSRFIDScanner@@$1?IID_IPropertyNotifySink@@3U_GUID@@BVCComDynamicUnkArray@ATL@@@ATL@@UEAAJPEAU_GUID@@@Z 0000000180018610 f i RFIDScanner.obj
 0001:00017650       ?GetConnectionPointContainer@?$IConnectionPointImpl@VCOPOSRFIDScanner@@$1?DIID__IOPOSRFIDScannerEvents@@3U_GUID@@BVCComDynamicUnkArray@ATL@@@ATL@@UEAAJPEAPEAUIConnectionPointContainer@@@Z 0000000180018650 f i RFIDScanner.obj
 0001:000176d0       ?GetConnectionPointContainer@?$IConnectionPointImpl@VCOPOSRFIDScanner@@$1?IID_IPropertyNotifySink@@3U_GUID@@BVCComDynamicUnkArray@ATL@@@ATL@@UEAAJPEAPEAUIConnectionPointContainer@@@Z 00000001800186d0 f i RFIDScanner.obj
 0001:00017750       ?GetContentExtent@?$IQuickActivateImpl@VCOPOSRFIDScanner@@@ATL@@UEAAJPEAUtagSIZE@@@Z 0000000180018750 f i RFIDScanner.obj
 0001:00017810       ?GetControlInfo@?$IOleControlImpl@VCOPOSRFIDScanner@@@ATL@@UEAAJPEAUtagCONTROLINFO@@@Z 0000000180018810 f i RFIDScanner.obj
 0001:000178a0       ?GetCookie@CComDynamicUnkArray@ATL@@QEAAKPEAPEAUIUnknown@@@Z 00000001800188a0 f i RFIDScanner.obj
 0001:00017990       ?GetData@?$IDataObjectImpl@VCOPOSRFIDScanner@@@ATL@@UEAAJPEAUtagFORMATETC@@PEAUtagSTGMEDIUM@@@Z 0000000180018990 f i RFIDScanner.obj
 0001:00017a50       ?GetData@CAtlSafeAllocBufferNode@?$CAtlSafeAllocBufferManager@VCCRTAllocator@ATL@@@_ATL_SAFE_ALLOCA_IMPL@ATL@@QEAAPEAXXZ 0000000180018a50 f i RFIDScanner.obj
 0001:00017a70       ?GetDataHere@?$IDataObjectImpl@VCOPOSRFIDScanner@@@ATL@@UEAAJPEAUtagFORMATETC@@PEAUtagSTGMEDIUM@@@Z 0000000180018a70 f i RFIDScanner.obj
 0001:00017b00       ?GetDropTarget@?$IOleInPlaceObjectWindowlessImpl@VCOPOSRFIDScanner@@@ATL@@UEAAJPEAPEAUIDropTarget@@@Z 0000000180018b00 f i RFIDScanner.obj
 0001:00017b90       ?GetExtent@?$IOleObjectImpl@VCOPOSRFIDScanner@@@ATL@@UEAAJKPEAUtagSIZE@@@Z 0000000180018b90 f i RFIDScanner.obj
 0001:00017c60       ?GetExtent@?$IViewObjectExImpl@VCOPOSRFIDScanner@@@ATL@@UEAAJKJPEAUtagDVTARGETDEVICE@@PEAUtagSIZE@@@Z 0000000180018c60 f i RFIDScanner.obj
 0001:00017d70       ?GetGITPtr@CAtlModule@ATL@@UEAAJPEAPEAUIGlobalInterfaceTable@@@Z 0000000180018d70 f i RFIDScanner.obj
 0001:00017eb0       ?GetGUID@?$IProvideClassInfo2Impl@$1?CLSID_OPOSRFIDScanner@@3U_GUID@@B$1?DIID__IOPOSRFIDScannerEvents@@3U2@B$1?LIBID_OposRFIDScanner_CCO@@3U2@B$00$0A@VCComTypeInfoHolder@ATL@@@ATL@@UEAAJKPEAU_GUID@@@Z 0000000180018eb0 f i RFIDScanner.obj
 0001:00017f30       ?GetIDsOfNames@?$IDispatchImpl@UIOPOSRFIDScanner@@$1?IID_IOPOSRFIDScanner@@3U_GUID@@B$1?LIBID_OposRFIDScanner_CCO@@3U3@B$00$0A@VCComTypeInfoHolder@ATL@@@ATL@@UEAAJAEBU_GUID@@PEAPEA_WIKPEAJ@Z 0000000180018f30 f i RFIDScanner.obj
 0001:00017f90       ?GetIDsOfNames@CComTypeInfoHolder@ATL@@QEAAJAEBU_GUID@@PEAPEA_WIKPEAJ@Z 0000000180018f90 f i RFIDScanner.obj
 0001:000181b0       ?GetInterfaceSafetyOptions@?$IObjectSafetyImpl@VCOPOSRFIDScanner@@$02@ATL@@UEAAJAEBU_GUID@@PEAK1@Z 00000001800191b0 f i RFIDScanner.obj
 0001:00018350       ?GetKeyAt@?$CSimpleMap@PEA_WPEA_WVCExpansionVectorEqualHelper@ATL@@@ATL@@QEBAAEAPEA_WH@Z 0000000180019350 f i RFIDScanner.obj
 0001:00018400       ?GetLockCount@CAtlModule@ATL@@UEAAJXZ 0000000180019400 f i RFIDScanner.obj
 0001:00018410       ?GetMiscStatus@?$IOleObjectImpl@VCOPOSRFIDScanner@@@ATL@@UEAAJKPEAK@Z 0000000180019410 f i RFIDScanner.obj
 0001:000184a0       ?GetMoniker@?$IOleObjectImpl@VCOPOSRFIDScanner@@@ATL@@UEAAJKKPEAPEAUIMoniker@@@Z 00000001800194a0 f i RFIDScanner.obj
 0001:00018530       ?GetNaturalExtent@?$IViewObjectExImpl@VCOPOSRFIDScanner@@@ATL@@UEAAJKJPEAUtagDVTARGETDEVICE@@PEAUHDC__@@PEAUtagExtentInfo@@PEAUtagSIZE@@@Z 0000000180019530 f i RFIDScanner.obj
 0001:000186c0       ?GetObjectCLSID@?$CComCoClass@VCOPOSRFIDScanner@@$1?CLSID_OPOSRFIDScanner@@3U_GUID@@B@ATL@@SAAEBU_GUID@@XZ 00000001800196c0 f i RFIDScanner.obj
 0001:000186d0       ?GetPages@?$ISpecifyPropertyPagesImpl@VCOPOSRFIDScanner@@@ATL@@UEAAJPEAUtagCAUUID@@@Z 00000001800196d0 f i RFIDScanner.obj
 0001:00018760       ?GetPagesHelper@?$ISpecifyPropertyPagesImpl@VCOPOSRFIDScanner@@@ATL@@IEAAJPEAUtagCAUUID@@PEBUATL_PROPMAP_ENTRY@2@@Z 0000000180019760 f i RFIDScanner.obj
 0001:000189d0       ?GetProperty@?$CComPtr@UIDispatch@@@ATL@@QEAAJJPEAUtagVARIANT@@@Z 00000001800199d0 f i RFIDScanner.obj
 0001:00018a20       ?GetProperty@?$CComPtr@UIDispatch@@@ATL@@SAJPEAUIDispatch@@JPEAUtagVARIANT@@@Z 0000000180019a20 f i RFIDScanner.obj
 0001:00018bf0       ?GetPropertyMap@COPOSRFIDScanner@@SAPEBUATL_PROPMAP_ENTRY@ATL@@XZ 0000000180019bf0 f i RFIDScanner.obj
 0001:00018c00       ?GetRect@?$IViewObjectExImpl@VCOPOSRFIDScanner@@@ATL@@UEAAJKPEAU_RECTL@@@Z 0000000180019c00 f i RFIDScanner.obj
 0001:00018c90       ?GetSize@?$CSimpleMap@PEA_WPEA_WVCExpansionVectorEqualHelper@ATL@@@ATL@@QEBAHXZ 0000000180019c90 f i RFIDScanner.obj
 0001:00018ca0       ?GetSize@CComDynamicUnkArray@ATL@@QEBAHXZ 0000000180019ca0 f i RFIDScanner.obj
 0001:00018cb0       ?GetSizeMax@?$IPersistStreamInitImpl@VCOPOSRFIDScanner@@@ATL@@UEAAJPEAT_ULARGE_INTEGER@@@Z 0000000180019cb0 f i RFIDScanner.obj
 0001:00019440       ?GetSizeMax@CComVariant@ATL@@QEBAJPEAT_ULARGE_INTEGER@@@Z 000000018001a440 f i RFIDScanner.obj
 0001:00019870       ?GetStreamSize@CComBSTR@ATL@@SAKPEA_W@Z 000000018001a870 f i RFIDScanner.obj
 0001:000198d0       ?GetTI@CComTypeInfoHolder@ATL@@QEAAJK@Z 000000018001a8d0 f i RFIDScanner.obj
 0001:0001a1a0       ?GetTI@CComTypeInfoHolder@ATL@@QEAAJKPEAPEAUITypeInfo@@@Z 000000018001b1a0 f i RFIDScanner.obj
 0001:0001a290       ?GetTypeInfo@?$IDispatchImpl@UIOPOSRFIDScanner@@$1?IID_IOPOSRFIDScanner@@3U_GUID@@B$1?LIBID_OposRFIDScanner_CCO@@3U3@B$00$0A@VCComTypeInfoHolder@ATL@@@ATL@@UEAAJIKPEAPEAUITypeInfo@@@Z 000000018001b290 f i RFIDScanner.obj
 0001:0001a2e0       ?GetTypeInfo@CComTypeInfoHolder@ATL@@QEAAJIKPEAPEAUITypeInfo@@@Z 000000018001b2e0 f i RFIDScanner.obj
 0001:0001a340       ?GetTypeInfoCount@?$IDispatchImpl@UIOPOSRFIDScanner@@$1?IID_IOPOSRFIDScanner@@3U_GUID@@B$1?LIBID_OposRFIDScanner_CCO@@3U3@B$00$0A@VCComTypeInfoHolder@ATL@@@ATL@@UEAAJPEAI@Z 000000018001b340 f i RFIDScanner.obj
 0001:0001a370       ?GetUnknown@CComDynamicUnkArray@ATL@@QEAAPEAUIUnknown@@K@Z 000000018001b370 f i RFIDScanner.obj
 0001:0001a420       ?GetUnknown@COPOSRFIDScanner@@QEAAPEAUIUnknown@@XZ 000000018001b420 f i RFIDScanner.obj
 0001:0001a450       ?GetUserClassID@?$IOleObjectImpl@VCOPOSRFIDScanner@@@ATL@@UEAAJPEAU_GUID@@@Z 000000018001b450 f i RFIDScanner.obj
 0001:0001a530       ?GetUserType@?$IOleObjectImpl@VCOPOSRFIDScanner@@@ATL@@UEAAJKPEAPEA_W@Z 000000018001b530 f i RFIDScanner.obj
 0001:0001a5c0       ?GetValueAt@?$CSimpleMap@PEA_WPEA_WVCExpansionVectorEqualHelper@ATL@@@ATL@@QEBAAEAPEA_WH@Z 000000018001b5c0 f i RFIDScanner.obj
 0001:0001a670       ?GetViewStatus@?$IViewObjectExImpl@VCOPOSRFIDScanner@@@ATL@@UEAAJPEAK@Z 000000018001b670 f i RFIDScanner.obj
 0001:0001a770       ?GetWNDPROC@CWndProcThunk@ATL@@QEAAP6A_JPEAUHWND__@@I_K_J@ZXZ 000000018001b770 f i RFIDScanner.obj
 0001:0001a7b0       ?GetWindow@?$IOleInPlaceActiveObjectImpl@VCOPOSRFIDScanner@@@ATL@@UEAAJPEAPEAUHWND__@@@Z 000000018001b7b0 f i RFIDScanner.obj
 0001:0001a8b0       ?GetWindow@?$IOleInPlaceObjectWindowlessImpl@VCOPOSRFIDScanner@@@ATL@@UEAAJPEAPEAUHWND__@@@Z 000000018001b8b0 f i RFIDScanner.obj
 0001:0001a9b0       ?GetWindowProc@?$CWindowImplBaseT@VCWindow@ATL@@V?$CWinTraits@$0FGAAAAAA@$0A@@2@@ATL@@UEAAP6A_JPEAUHWND__@@I_K_J@ZXZ 000000018001b9b0 f i RFIDScanner.obj
 0001:0001a9c0       ?GetWndCaption@?$CWindowImpl@VCOPOSRFIDScanner@@VCWindow@ATL@@V?$CWinTraits@$0FGAAAAAA@$0A@@3@@ATL@@SAPEB_WXZ 000000018001b9c0 f i RFIDScanner.obj
 0001:0001a9d0       ?GetWndClassInfo@?$CWindowImpl@VCOPOSRFIDScanner@@VCWindow@ATL@@V?$CWinTraits@$0FGAAAAAA@$0A@@3@@ATL@@SAAEAU_ATL_WNDCLASSINFOW@2@XZ 000000018001b9d0 f i RFIDScanner.obj
 0001:0001a9e0       ?GetWndClassName@CWindow@ATL@@SAPEB_WXZ 000000018001b9e0 f i RFIDScanner.obj
 0001:0001a9f0       ?GetWndExStyle@?$CWinTraits@$0FGAAAAAA@$0A@@ATL@@SAKK@Z 000000018001b9f0 f i RFIDScanner.obj
 0001:0001aa30       ?GetWndExStyle@?$CWindowImplBaseT@VCWindow@ATL@@V?$CWinTraits@$0FGAAAAAA@$0A@@2@@ATL@@SAKK@Z 000000018001ba30 f i RFIDScanner.obj
 0001:0001aa60       ?GetWndStyle@?$CWinTraits@$0FGAAAAAA@$0A@@ATL@@SAKK@Z 000000018001ba60 f i RFIDScanner.obj
 0001:0001aaa0       ?GetWndStyle@?$CWindowImplBaseT@VCWindow@ATL@@V?$CWinTraits@$0FGAAAAAA@$0A@@2@@ATL@@SAKK@Z 000000018001baa0 f i RFIDScanner.obj
 0001:0001aad0       ?GetZoomInfo@CComControlBase@ATL@@QEAAXAEAUATL_DRAWINFO@@@Z 000000018001bad0 f i RFIDScanner.obj
 0001:0001ac80       ?HKeyFromString@CRegParser@ATL@@KAPEAUHKEY__@@PEA_W@Z 000000018001bc80 f i RFIDScanner.obj
 0001:0001ad10       ?HandsOffStorage@?$IPersistStorageImpl@VCOPOSRFIDScanner@@@ATL@@UEAAJXZ 000000018001bd10 f i RFIDScanner.obj
 0001:0001ad80       ?HasSubKeys@CRegParser@ATL@@IEAAHPEAUHKEY__@@@Z 000000018001bd80 f i RFIDScanner.obj
 0001:0001aef0       ?IDataObject_GetData@CComControlBase@ATL@@QEAAJPEAUtagFORMATETC@@PEAUtagSTGMEDIUM@@@Z 000000018001bef0 f i RFIDScanner.obj
 0001:0001b3a0       ?IOleInPlaceObject_InPlaceDeactivate@CComControlBase@ATL@@QEAAJXZ 000000018001c3a0 f i RFIDScanner.obj
 0001:0001b610       ?IOleInPlaceObject_SetObjectRects@CComControlBase@ATL@@QEAAJPEBUtagRECT@@0@Z 000000018001c610 f i RFIDScanner.obj
 0001:0001b7f0       ?IOleInPlaceObject_UIDeactivate@CComControlBase@ATL@@QEAAJXZ 000000018001c7f0 f i RFIDScanner.obj
 0001:0001ba60       ?IOleObject_Advise@CComControlBase@ATL@@QEAAJPEAUIAdviseSink@@PEAK@Z 000000018001ca60 f i RFIDScanner.obj
 0001:0001bb10       ?IOleObject_Close@CComControlBase@ATL@@QEAAJK@Z 000000018001cb10 f i RFIDScanner.obj
 0001:0001be80       ?IOleObject_GetClientSite@CComControlBase@ATL@@QEAAJPEAPEAUIOleClientSite@@@Z 000000018001ce80 f i RFIDScanner.obj
 0001:0001bf50       ?IOleObject_SetClientSite@CComControlBase@ATL@@QEAAJPEAUIOleClientSite@@@Z 000000018001cf50 f i RFIDScanner.obj
 0001:0001c060       ?IOleObject_SetExtent@CComControlBase@ATL@@QEAAJKPEAUtagSIZE@@@Z 000000018001d060 f i RFIDScanner.obj
 0001:0001c1d0       ?IPSI_GetIPersistStreamInit@?$IPersistStorageImpl@VCOPOSRFIDScanner@@@ATL@@AEAAPEAUIPersistStreamInit@@XZ 000000018001d1d0 f i RFIDScanner.obj
 0001:0001c290       ?IPersistStreamInit_Load@?$IPersistStreamInitImpl@VCOPOSRFIDScanner@@@ATL@@QEAAJPEAUIStream@@PEBUATL_PROPMAP_ENTRY@2@@Z 000000018001d290 f i RFIDScanner.obj
 0001:0001c330       ?IPersistStreamInit_Save@?$IPersistStreamInitImpl@VCOPOSRFIDScanner@@@ATL@@QEAAJPEAUIStream@@HPEBUATL_PROPMAP_ENTRY@2@@Z 000000018001d330 f i RFIDScanner.obj
 0001:0001c3f0       ?IQuickActivate_QuickActivate@CComControlBase@ATL@@QEAAJPEAUtagQACONTAINER@@PEAUtagQACONTROL@@@Z 000000018001d3f0 f i RFIDScanner.obj
 0001:0001cc30       ?IViewObject_Draw@CComControlBase@ATL@@QEAAJKJPEAXPEAUtagDVTARGETDEVICE@@PEAUHDC__@@2PEBU_RECTL@@3@Z 000000018001dc30 f i RFIDScanner.obj
 0001:0001d080       ?InPlaceActivate@CComControlBase@ATL@@QEAAJJPEBUtagRECT@@@Z 000000018001e080 f i RFIDScanner.obj
 0001:0001dc20       ?InPlaceDeactivate@?$IOleInPlaceObjectWindowlessImpl@VCOPOSRFIDScanner@@@ATL@@UEAAJXZ 000000018001ec20 f i RFIDScanner.obj
 0001:0001dcd0       ?Increment@CComMultiThreadModel@ATL@@SAKPEAJ@Z 000000018001ecd0 f i RFIDScanner.obj
 0001:0001dcf0       ?Increment@CComSingleThreadModel@ATL@@SAKPEAJ@Z 000000018001ecf0 f i RFIDScanner.obj
 0001:0001dd10       ?Init@?$CComEnumImpl@UIEnumConnectionPoints@@$1?_GUID_b196b285_bab4_101a_b69c_00aa00341d07@@3U__s_GUID@@BPEAUIConnectionPoint@@V?$_CopyInterface@UIConnectionPoint@@@ATL@@@ATL@@QEAAJPEAPEAUIConnectionPoint@@0PEAUIUnknown@@W4CComEnumFlags@2@@Z 000000018001ed10 f i RFIDScanner.obj
 0001:0001e000       ?Init@?$CComEnumImpl@UIEnumConnections@@$1?_GUID_b196b287_bab4_101a_b69c_00aa00341d07@@3U__s_GUID@@BUtagCONNECTDATA@@V?$_Copy@UtagCONNECTDATA@@@ATL@@@ATL@@QEAAJPEAUtagCONNECTDATA@@0PEAUIUnknown@@W4CComEnumFlags@2@@Z 000000018001f000 f i RFIDScanner.obj
 0001:0001e2f0       ?Init@CComFakeCriticalSection@ATL@@QEAAJXZ 000000018001f2f0 f i RFIDScanner.obj
 0001:0001e300       ?Init@CComModule@ATL@@QEAAJPEAU_ATL_OBJMAP_ENTRY30@2@PEAUHINSTANCE__@@PEBU_GUID@@@Z 000000018001f300 f i RFIDScanner.obj
 0001:0001e3f0       ?Init@CComSafeDeleteCriticalSection@ATL@@QEAAJXZ 000000018001f3f0 f i RFIDScanner.obj
 0001:0001e480       ?Init@CDynamicStdCallThunk2@ATL@@QEAAH_KPEAX@Z 000000018001f480 f i RFIDScanner.obj
 0001:0001e500       ?Init@CWndProcThunk@ATL@@QEAAHP6A_JPEAUHWND__@@I_K_J@ZPEAX@Z 000000018001f500 f i RFIDScanner.obj
 0001:0001e550       ?InitFromData@?$IOleObjectImpl@VCOPOSRFIDScanner@@@ATL@@UEAAJPEAUIDataObject@@HK@Z 000000018001f550 f i RFIDScanner.obj
 0001:0001e5e0       ?InitLibId@?$CAtlModuleT@VCComModule@ATL@@@ATL@@SAXXZ 000000018001f5e0 f i RFIDScanner.obj
 0001:0001e5f0       ?InitNew@?$IPersistStorageImpl@VCOPOSRFIDScanner@@@ATL@@UEAAJPEAUIStorage@@@Z 000000018001f5f0 f i RFIDScanner.obj
 0001:0001e6e0       ?InitNew@?$IPersistStreamInitImpl@VCOPOSRFIDScanner@@@ATL@@UEAAJXZ 000000018001f6e0 f i RFIDScanner.obj
 0001:0001e790       ?InlineIsEqualUnknown@ATL@@YAHAEBU_GUID@@@Z 000000018001f790 f i RFIDScanner.obj
 0001:0001e820       ?InternalAddRef@?$CComObjectRootEx@VCComMultiThreadModel@ATL@@@ATL@@QEAAKXZ 000000018001f820 f i RFIDScanner.obj
 0001:0001e8a0       ?InternalAddRef@?$CComObjectRootEx@VCComSingleThreadModel@ATL@@@ATL@@QEAAKXZ 000000018001f8a0 f i RFIDScanner.obj
 0001:0001e920       ?InternalFinalConstructAddRef@CComObjectRootBase@ATL@@QEAAXXZ 000000018001f920 f i RFIDScanner.obj
 0001:0001e930       ?InternalFinalConstructAddRef@COPOSRFIDScanner@@QEAAXXZ 000000018001f930 f i RFIDScanner.obj
 0001:0001e970       ?InternalFinalConstructRelease@CComObjectRootBase@ATL@@QEAAXXZ 000000018001f970 f i RFIDScanner.obj
 0001:0001e9e0       ?InternalFinalConstructRelease@COPOSRFIDScanner@@QEAAXXZ 000000018001f9e0 f i RFIDScanner.obj
 0001:0001ea20       ?InternalGetSite@CComControlBase@ATL@@QEAAJAEBU_GUID@@PEAPEAX@Z 000000018001fa20 f i RFIDScanner.obj
 0001:0001eb00       ?InternalQueryInterface@CComObjectRootBase@ATL@@SAJPEAXPEBU_ATL_INTMAP_ENTRY@2@AEBU_GUID@@PEAPEAX@Z 000000018001fb00 f i RFIDScanner.obj
 0001:0001ec20       ?InternalRelease@?$CComObjectRootEx@VCComMultiThreadModel@ATL@@@ATL@@QEAAKXZ 000000018001fc20 f i RFIDScanner.obj
 0001:0001eca0       ?InternalRelease@?$CComObjectRootEx@VCComSingleThreadModel@ATL@@@ATL@@QEAAKXZ 000000018001fca0 f i RFIDScanner.obj
 0001:0001ed20       ?InternalSetAtIndex@?$CSimpleArray@GV?$CSimpleArrayEqualHelper@G@ATL@@@ATL@@QEAAXHAEBG@Z 000000018001fd20 f i RFIDScanner.obj
 0001:0001eda0       ?InternalSetAtIndex@?$CSimpleMap@PEA_WPEA_WVCExpansionVectorEqualHelper@ATL@@@ATL@@QEAAXHAEBQEA_W0@Z 000000018001fda0 f i RFIDScanner.obj
 0001:0001ee70       ?Invoke@?$IDispatchImpl@UIOPOSRFIDScanner@@$1?IID_IOPOSRFIDScanner@@3U_GUID@@B$1?LIBID_OposRFIDScanner_CCO@@3U3@B$00$0A@VCComTypeInfoHolder@ATL@@@ATL@@UEAAJJAEBU_GUID@@KGPEAUtagDISPPARAMS@@PEAUtagVARIANT@@PEAUtagEXCEPINFO@@PEAI@Z 000000018001fe70 f i RFIDScanner.obj
 0001:0001ef10       ?Invoke@CComTypeInfoHolder@ATL@@QEAAJPEAUIDispatch@@JAEBU_GUID@@KGPEAUtagDISPPARAMS@@PEAUtagVARIANT@@PEAUtagEXCEPINFO@@PEAI@Z 000000018001ff10 f i RFIDScanner.obj
 0001:0001efd0       ?IsDirty@?$IPersistStorageImpl@VCOPOSRFIDScanner@@@ATL@@UEAAJXZ 000000018001ffd0 f i RFIDScanner.obj
 0001:0001f0c0       ?IsDirty@?$IPersistStreamInitImpl@VCOPOSRFIDScanner@@@ATL@@UEAAJXZ 00000001800200c0 f i RFIDScanner.obj
 0001:0001f180       ?IsEqualKey@CExpansionVectorEqualHelper@ATL@@SA_NQEA_W0@Z 0000000180020180 f i RFIDScanner.obj
 0001:0001f1d0       ?IsEqualObject@?$CComPtrBase@UIOleClientSite@@@ATL@@QEAA_NPEAUIUnknown@@@Z 00000001800201d0 f i RFIDScanner.obj
 0001:0001f320       ?IsEqualObject@?$CComPtrBase@UITypeInfo@@@ATL@@QEAA_NPEAUIUnknown@@@Z 0000000180020320 f i RFIDScanner.obj
 0001:0001f470       ?IsSpace@CRegParser@ATL@@IEAAH_W@Z 0000000180020470 f i RFIDScanner.obj
 0001:0001f4d0       ?IsUpToDate@?$IOleObjectImpl@VCOPOSRFIDScanner@@@ATL@@UEAAJXZ 00000001800204d0 f i RFIDScanner.obj
 0001:0001f540       ?Length@CComBSTR@ATL@@QEBAIXZ 0000000180020540 f i RFIDScanner.obj
 0001:0001f580       ?Load@?$IPersistStorageImpl@VCOPOSRFIDScanner@@@ATL@@UEAAJPEAUIStorage@@@Z 0000000180020580 f i RFIDScanner.obj
 0001:0001f730       ?Load@?$IPersistStreamInitImpl@VCOPOSRFIDScanner@@@ATL@@UEAAJPEAUIStream@@@Z 0000000180020730 f i RFIDScanner.obj
 0001:0001f7f0       ?LoadCursorW@AtlModuleRegisterWndClassInfoParamW@ATL@@SAPEAUHICON__@@PEAUHINSTANCE__@@PEB_W@Z 00000001800207f0 f i RFIDScanner.obj
 0001:0001f830       ?LoadNameCache@CComTypeInfoHolder@ATL@@QEAAJPEAUITypeInfo@@@Z 0000000180020830 f i RFIDScanner.obj
 0001:0001fb70       ?Lock@?$CComCritSecLock@VCComCriticalSection@ATL@@@ATL@@QEAAJXZ 0000000180020b70 f i RFIDScanner.obj
 0001:0001fc60       ?Lock@?$CComObjectRootEx@VCComSingleThreadModel@ATL@@@ATL@@QEAAXXZ 0000000180020c60 f i RFIDScanner.obj
 0001:0001fc70       ?Lock@CAtlModule@ATL@@UEAAJXZ 0000000180020c70 f i RFIDScanner.obj
 0001:0001fcb0       ?Lock@CComCriticalSection@ATL@@QEAAJXZ 0000000180020cb0 f i RFIDScanner.obj
 0001:0001fcf0       ?Lock@CComFakeCriticalSection@ATL@@QEAAJXZ 0000000180020cf0 f i RFIDScanner.obj
 0001:0001fd00       ?LockServer@CComClassFactory@ATL@@UEAAJH@Z 0000000180020d00 f i RFIDScanner.obj
 0001:0001fd60       ?Lookup@?$CSimpleMap@PEA_WPEA_WVCExpansionVectorEqualHelper@ATL@@@ATL@@QEBAPEA_WAEBQEA_W@Z 0000000180020d60 f i RFIDScanner.obj
 0001:0001fdc0       ?Next@?$CComEnumImpl@UIEnumConnectionPoints@@$1?_GUID_b196b285_bab4_101a_b69c_00aa00341d07@@3U__s_GUID@@BPEAUIConnectionPoint@@V?$_CopyInterface@UIConnectionPoint@@@ATL@@@ATL@@UEAAJKPEAPEAUIConnectionPoint@@PEAK@Z 0000000180020dc0 f i RFIDScanner.obj
 0001:0001ff80       ?Next@?$CComEnumImpl@UIEnumConnections@@$1?_GUID_b196b287_bab4_101a_b69c_00aa00341d07@@3U__s_GUID@@BUtagCONNECTDATA@@V?$_Copy@UtagCONNECTDATA@@@ATL@@@ATL@@UEAAJKPEAUtagCONNECTDATA@@PEAK@Z 0000000180020f80 f i RFIDScanner.obj
 0001:00020140       ?NextToken@CRegParser@ATL@@IEAAJPEA_W@Z 0000000180021140 f i RFIDScanner.obj
 0001:000204d0       ?OLE2CT_EX@@YAPEB_WPEB_WI@Z 00000001800214d0 f i RFIDScanner.obj
 0001:000204f0       ?OLE2CT_EX_DEF@@YAPEB_WPEB_W@Z 00000001800214f0 f i RFIDScanner.obj
 0001:00020500       ?OLE2T_EX@@YAPEA_WPEA_WI@Z 0000000180021500 f i RFIDScanner.obj
 0001:00020520       ?OnAmbientPropertyChange@?$IOleControlImpl@VCOPOSRFIDScanner@@@ATL@@UEAAJJ@Z 0000000180021520 f i RFIDScanner.obj
 0001:000205e0       ?OnDocWindowActivate@?$IOleInPlaceActiveObjectImpl@VCOPOSRFIDScanner@@@ATL@@UEAAJH@Z 00000001800215e0 f i RFIDScanner.obj
 0001:000206a0       ?OnDrawAdvanced@CComControlBase@ATL@@UEAAJAEAUATL_DRAWINFO@@@Z 00000001800216a0 f i RFIDScanner.obj
 0001:000208f0       ?OnFinalMessage@?$CWindowImplBaseT@VCWindow@ATL@@V?$CWinTraits@$0FGAAAAAA@$0A@@2@@ATL@@UEAAXPEAUHWND__@@@Z 00000001800218f0 f i RFIDScanner.obj
 0001:00020900       ?OnFrameWindowActivate@?$IOleInPlaceActiveObjectImpl@VCOPOSRFIDScanner@@@ATL@@UEAAJH@Z 0000000180021900 f i RFIDScanner.obj
 0001:00020970       ?OnKillFocus@CComControlBase@ATL@@QEAA_JI_K_JAEAH@Z 0000000180021970 f i RFIDScanner.obj
 0001:00020a60       ?OnMnemonic@?$IOleControlImpl@VCOPOSRFIDScanner@@@ATL@@UEAAJPEAUtagMSG@@@Z 0000000180021a60 f i RFIDScanner.obj
 0001:00020af0       ?OnMouseActivate@CComControlBase@ATL@@QEAA_JI_K_JAEAH@Z 0000000180021af0 f i RFIDScanner.obj
 0001:00020c90       ?OnPaint@CComControlBase@ATL@@QEAA_JI_K_JAEAH@Z 0000000180021c90 f i RFIDScanner.obj
 0001:00020e20       ?OnPostVerbDiscardUndo@?$IOleObjectImpl@VCOPOSRFIDScanner@@@ATL@@QEAAJXZ 0000000180021e20 f i RFIDScanner.obj
 0001:00020e30       ?OnPostVerbHide@?$IOleObjectImpl@VCOPOSRFIDScanner@@@ATL@@QEAAJXZ 0000000180021e30 f i RFIDScanner.obj
 0001:00020e40       ?OnPostVerbInPlaceActivate@?$IOleObjectImpl@VCOPOSRFIDScanner@@@ATL@@QEAAJXZ 0000000180021e40 f i RFIDScanner.obj
 0001:00020e50       ?OnPostVerbOpen@?$IOleObjectImpl@VCOPOSRFIDScanner@@@ATL@@QEAAJXZ 0000000180021e50 f i RFIDScanner.obj
 0001:00020e60       ?OnPostVerbShow@?$IOleObjectImpl@VCOPOSRFIDScanner@@@ATL@@QEAAJXZ 0000000180021e60 f i RFIDScanner.obj
 0001:00020e70       ?OnPostVerbUIActivate@?$IOleObjectImpl@VCOPOSRFIDScanner@@@ATL@@QEAAJXZ 0000000180021e70 f i RFIDScanner.obj
 0001:00020e80       ?OnPreVerbDiscardUndo@?$IOleObjectImpl@VCOPOSRFIDScanner@@@ATL@@QEAAJXZ 0000000180021e80 f i RFIDScanner.obj
 0001:00020e90       ?OnPreVerbHide@?$IOleObjectImpl@VCOPOSRFIDScanner@@@ATL@@QEAAJXZ 0000000180021e90 f i RFIDScanner.obj
 0001:00020ea0       ?OnPreVerbInPlaceActivate@?$IOleObjectImpl@VCOPOSRFIDScanner@@@ATL@@QEAAJXZ 0000000180021ea0 f i RFIDScanner.obj
 0001:00020eb0       ?OnPreVerbOpen@?$IOleObjectImpl@VCOPOSRFIDScanner@@@ATL@@QEAAJXZ 0000000180021eb0 f i RFIDScanner.obj
 0001:00020ec0       ?OnPreVerbShow@?$IOleObjectImpl@VCOPOSRFIDScanner@@@ATL@@QEAAJXZ 0000000180021ec0 f i RFIDScanner.obj
 0001:00020ed0       ?OnPreVerbUIActivate@?$IOleObjectImpl@VCOPOSRFIDScanner@@@ATL@@QEAAJXZ 0000000180021ed0 f i RFIDScanner.obj
 0001:00020ee0       ?OnSetFocus@CComControlBase@ATL@@QEAA_JI_K_JAEAH@Z 0000000180021ee0 f i RFIDScanner.obj
 0001:000210e0       ?OnWindowMessage@?$IOleInPlaceObjectWindowlessImpl@VCOPOSRFIDScanner@@@ATL@@UEAAJI_K_JPEA_J@Z 00000001800220e0 f i RFIDScanner.obj
 0001:00021300       ?Open@CRegKey@ATL@@QEAAJPEAUHKEY__@@PEB_WK@Z 0000000180022300 f i RFIDScanner.obj
 0001:00021480       ?OuterAddRef@CComObjectRootBase@ATL@@QEAAKXZ 0000000180022480 f i RFIDScanner.obj
 0001:000214c0       ?OuterQueryInterface@CComObjectRootBase@ATL@@QEAAJAEBU_GUID@@PEAPEAX@Z 00000001800224c0 f i RFIDScanner.obj
 0001:00021510       ?OuterRelease@CComObjectRootBase@ATL@@QEAAKXZ 0000000180022510 f i RFIDScanner.obj
 0001:00021550       ?PreProcessBuffer@CRegParser@ATL@@QEAAJPEA_WPEAPEA_W@Z 0000000180022550 f i RFIDScanner.obj
 0001:00021c30       ?PreTranslateAccelerator@CComControlBase@ATL@@QEAAHPEAUtagMSG@@AEAJ@Z 0000000180022c30 f i RFIDScanner.obj
 0001:00021c50       ?ProcessWindowMessage@?$CComControl@VCOPOSRFIDScanner@@V?$CWindowImpl@VCOPOSRFIDScanner@@VCWindow@ATL@@V?$CWinTraits@$0FGAAAAAA@$0A@@3@@ATL@@@ATL@@UEAAHPEAUHWND__@@I_K_JAEA_JK@Z 0000000180022c50 f i RFIDScanner.obj
 0001:00021ed0       ?ProcessWindowMessage@COPOSRFIDScanner@@UEAAHPEAUHWND__@@I_K_JAEA_JK@Z 0000000180022ed0 f i RFIDScanner.obj
 0001:00022050       ?PutProperty@?$CComPtr@UIDispatch@@@ATL@@QEAAJJPEAUtagVARIANT@@@Z 0000000180023050 f i RFIDScanner.obj
 0001:000220a0       ?PutProperty@?$CComPtr@UIDispatch@@@ATL@@SAJPEAUIDispatch@@JPEAUtagVARIANT@@@Z 00000001800230a0 f i RFIDScanner.obj
 0001:00022340       ?QueryGetData@?$IDataObjectImpl@VCOPOSRFIDScanner@@@ATL@@UEAAJPEAUtagFORMATETC@@@Z 0000000180023340 f i RFIDScanner.obj
 0001:000223d0       ?QueryHitPoint@?$IViewObjectExImpl@VCOPOSRFIDScanner@@@ATL@@UEAAJKPEBUtagRECT@@UtagPOINT@@JPEAK@Z 00000001800233d0 f i RFIDScanner.obj
 0001:00022540       ?QueryHitRect@?$IViewObjectExImpl@VCOPOSRFIDScanner@@@ATL@@UEAAJKPEBUtagRECT@@0JPEAK@Z 0000000180023540 f i RFIDScanner.obj
 0001:00022710       ?QueryInterface@?$CComAggObject@VCOPOSRFIDScanner@@@ATL@@UEAAJAEBU_GUID@@PEAPEAX@Z 0000000180023710 f i RFIDScanner.obj
 0001:00022800       ?QueryInterface@?$CComContainedObject@VCOPOSRFIDScanner@@@ATL@@UEAAJAEBU_GUID@@PEAPEAX@Z 0000000180023800 f i RFIDScanner.obj
 0001:0002284c       ?QueryInterface@?$CComContainedObject@VCOPOSRFIDScanner@@@ATL@@WBAA@EAAJAEBU_GUID@@PEAPEAX@Z 000000018002384c f i RFIDScanner.obj
 0001:00022858       ?QueryInterface@?$CComContainedObject@VCOPOSRFIDScanner@@@ATL@@WBAI@EAAJAEBU_GUID@@PEAPEAX@Z 0000000180023858 f i RFIDScanner.obj
 0001:00022864       ?QueryInterface@?$CComContainedObject@VCOPOSRFIDScanner@@@ATL@@WBBA@EAAJAEBU_GUID@@PEAPEAX@Z 0000000180023864 f i RFIDScanner.obj
 0001:00022870       ?QueryInterface@?$CComContainedObject@VCOPOSRFIDScanner@@@ATL@@WBBI@EAAJAEBU_GUID@@PEAPEAX@Z 0000000180023870 f i RFIDScanner.obj
 0001:0002287c       ?QueryInterface@?$CComContainedObject@VCOPOSRFIDScanner@@@ATL@@WLI@EAAJAEBU_GUID@@PEAPEAX@Z 000000018002387c f i RFIDScanner.obj
 0001:00022888       ?QueryInterface@?$CComContainedObject@VCOPOSRFIDScanner@@@ATL@@WMA@EAAJAEBU_GUID@@PEAPEAX@Z 0000000180023888 f i RFIDScanner.obj
 0001:00022894       ?QueryInterface@?$CComContainedObject@VCOPOSRFIDScanner@@@ATL@@WMI@EAAJAEBU_GUID@@PEAPEAX@Z 0000000180023894 f i RFIDScanner.obj
 0001:000228a0       ?QueryInterface@?$CComContainedObject@VCOPOSRFIDScanner@@@ATL@@WNA@EAAJAEBU_GUID@@PEAPEAX@Z 00000001800238a0 f i RFIDScanner.obj
 0001:000228ac       ?QueryInterface@?$CComContainedObject@VCOPOSRFIDScanner@@@ATL@@WNI@EAAJAEBU_GUID@@PEAPEAX@Z 00000001800238ac f i RFIDScanner.obj
 0001:000228b8       ?QueryInterface@?$CComContainedObject@VCOPOSRFIDScanner@@@ATL@@WOA@EAAJAEBU_GUID@@PEAPEAX@Z 00000001800238b8 f i RFIDScanner.obj
 0001:000228c4       ?QueryInterface@?$CComContainedObject@VCOPOSRFIDScanner@@@ATL@@WOI@EAAJAEBU_GUID@@PEAPEAX@Z 00000001800238c4 f i RFIDScanner.obj
 0001:000228d0       ?QueryInterface@?$CComContainedObject@VCOPOSRFIDScanner@@@ATL@@WPA@EAAJAEBU_GUID@@PEAPEAX@Z 00000001800238d0 f i RFIDScanner.obj
 0001:000228dc       ?QueryInterface@?$CComContainedObject@VCOPOSRFIDScanner@@@ATL@@WPI@EAAJAEBU_GUID@@PEAPEAX@Z 00000001800238dc f i RFIDScanner.obj
 0001:000228f0       ?QueryInterface@?$CComObject@V?$CComEnum@UIEnumConnectionPoints@@$1?_GUID_b196b285_bab4_101a_b69c_00aa00341d07@@3U__s_GUID@@BPEAUIConnectionPoint@@V?$_CopyInterface@UIConnectionPoint@@@ATL@@VCComSingleThreadModel@6@@ATL@@@ATL@@UEAAJAEBU_GUID@@PEAPEAX@Z 00000001800238f0 f i RFIDScanner.obj
 0001:00022940       ?QueryInterface@?$CComObject@V?$CComEnum@UIEnumConnections@@$1?_GUID_b196b287_bab4_101a_b69c_00aa00341d07@@3U__s_GUID@@BUtagCONNECTDATA@@V?$_Copy@UtagCONNECTDATA@@@ATL@@VCComSingleThreadModel@6@@ATL@@@ATL@@UEAAJAEBU_GUID@@PEAPEAX@Z 0000000180023940 f i RFIDScanner.obj
 0001:00022990       ?QueryInterface@?$CComObject@VCOPOSRFIDScanner@@@ATL@@UEAAJAEBU_GUID@@PEAPEAX@Z 0000000180023990 f i RFIDScanner.obj
 0001:000229d4       ?QueryInterface@?$CComObject@VCOPOSRFIDScanner@@@ATL@@WBAA@EAAJAEBU_GUID@@PEAPEAX@Z 00000001800239d4 f i RFIDScanner.obj
 0001:000229e0       ?QueryInterface@?$CComObject@VCOPOSRFIDScanner@@@ATL@@WBAI@EAAJAEBU_GUID@@PEAPEAX@Z 00000001800239e0 f i RFIDScanner.obj
 0001:000229ec       ?QueryInterface@?$CComObject@VCOPOSRFIDScanner@@@ATL@@WBBA@EAAJAEBU_GUID@@PEAPEAX@Z 00000001800239ec f i RFIDScanner.obj
 0001:000229f8       ?QueryInterface@?$CComObject@VCOPOSRFIDScanner@@@ATL@@WBBI@EAAJAEBU_GUID@@PEAPEAX@Z 00000001800239f8 f i RFIDScanner.obj
 0001:00022a04       ?QueryInterface@?$CComObject@VCOPOSRFIDScanner@@@ATL@@WLI@EAAJAEBU_GUID@@PEAPEAX@Z 0000000180023a04 f i RFIDScanner.obj
 0001:00022a10       ?QueryInterface@?$CComObject@VCOPOSRFIDScanner@@@ATL@@WMA@EAAJAEBU_GUID@@PEAPEAX@Z 0000000180023a10 f i RFIDScanner.obj
 0001:00022a1c       ?QueryInterface@?$CComObject@VCOPOSRFIDScanner@@@ATL@@WMI@EAAJAEBU_GUID@@PEAPEAX@Z 0000000180023a1c f i RFIDScanner.obj
 0001:00022a28       ?QueryInterface@?$CComObject@VCOPOSRFIDScanner@@@ATL@@WNA@EAAJAEBU_GUID@@PEAPEAX@Z 0000000180023a28 f i RFIDScanner.obj
 0001:00022a34       ?QueryInterface@?$CComObject@VCOPOSRFIDScanner@@@ATL@@WNI@EAAJAEBU_GUID@@PEAPEAX@Z 0000000180023a34 f i RFIDScanner.obj
 0001:00022a40       ?QueryInterface@?$CComObject@VCOPOSRFIDScanner@@@ATL@@WOA@EAAJAEBU_GUID@@PEAPEAX@Z 0000000180023a40 f i RFIDScanner.obj
 0001:00022a4c       ?QueryInterface@?$CComObject@VCOPOSRFIDScanner@@@ATL@@WOI@EAAJAEBU_GUID@@PEAPEAX@Z 0000000180023a4c f i RFIDScanner.obj
 0001:00022a58       ?QueryInterface@?$CComObject@VCOPOSRFIDScanner@@@ATL@@WPA@EAAJAEBU_GUID@@PEAPEAX@Z 0000000180023a58 f i RFIDScanner.obj
 0001:00022a64       ?QueryInterface@?$CComObject@VCOPOSRFIDScanner@@@ATL@@WPI@EAAJAEBU_GUID@@PEAPEAX@Z 0000000180023a64 f i RFIDScanner.obj
 0001:00022a70       ?QueryInterface@?$CComObjectCached@VCComClassFactory@ATL@@@ATL@@UEAAJAEBU_GUID@@PEAPEAX@Z 0000000180023a70 f i RFIDScanner.obj
 0001:00022ac0       ?QueryInterface@CRegObject@ATL@@UEAAJAEBU_GUID@@PEAPEAX@Z 0000000180023ac0 f i RFIDScanner.obj
 0001:00022b40       ?QuickActivate@?$IQuickActivateImpl@VCOPOSRFIDScanner@@@ATL@@UEAAJPEAUtagQACONTAINER@@PEAUtagQACONTROL@@@Z 0000000180023b40 f i RFIDScanner.obj
 0001:00022c00       ?ReactivateAndUndo@?$IOleInPlaceObjectWindowlessImpl@VCOPOSRFIDScanner@@@ATL@@UEAAJXZ 0000000180023c00 f i RFIDScanner.obj
 0001:00022c80       ?ReadFromStream@CComBSTR@ATL@@QEAAJPEAUIStream@@@Z 0000000180023c80 f i RFIDScanner.obj
 0001:00023160       ?ReadFromStream@CComVariant@ATL@@QEAAJPEAUIStream@@GTClassesAllowedInStream@2@K@Z 0000000180024160 f i RFIDScanner.obj
 0001:00023590       ?RecurseDeleteKey@CRegKey@ATL@@QEAAJPEB_W@Z 0000000180024590 f i RFIDScanner.obj
 0001:000237b0       ?RegCreateKeyExW@CAtlTransactionManager@ATL@@QEAAJPEAUHKEY__@@PEB_WKPEA_WKKQEAU_SECURITY_ATTRIBUTES@@PEAPEAU3@PEAK@Z 00000001800247b0 f i RFIDScanner.obj
 0001:00023980       ?RegDeleteKeyW@CAtlTransactionManager@ATL@@QEAAJPEAUHKEY__@@PEB_W@Z 0000000180024980 f i RFIDScanner.obj
 0001:00023a90       ?RegOpenKeyExW@CAtlTransactionManager@ATL@@QEAAJPEAUHKEY__@@PEB_WKKPEAPEAU3@@Z 0000000180024a90 f i RFIDScanner.obj
 0001:00023be0       ?Register@_ATL_WNDCLASSINFOW@ATL@@QEAAGPEAP6A_JPEAUHWND__@@I_K_J@Z@Z 0000000180024be0 f i RFIDScanner.obj
 0001:00023c30       ?RegisterBuffer@CRegParser@ATL@@QEAAJPEA_WH@Z 0000000180024c30 f i RFIDScanner.obj
 0001:00024020       ?RegisterClassExW@AtlModuleRegisterWndClassInfoParamW@ATL@@SAGPEAU_ATL_WIN_MODULE70@2@PEBUtagWNDCLASSEXW@@@Z 0000000180025020 f i RFIDScanner.obj
 0001:00024060       ?RegisterFromResource@CRegObject@ATL@@IEAAJPEB_W00H@Z 0000000180025060 f i RFIDScanner.obj
 0001:000244c0       ?RegisterServer@?$CAtlModuleT@VCComModule@ATL@@@ATL@@QEAAJHPEBU_GUID@@@Z 00000001800254c0 f i RFIDScanner.obj
 0001:00024540       ?RegisterServer@CAtlComModule@ATL@@QEAAJHPEBU_GUID@@@Z 0000000180025540 f i RFIDScanner.obj
 0001:00024580       ?RegisterServer@CComModule@ATL@@QEAAJHPEBU_GUID@@@Z 0000000180025580 f i RFIDScanner.obj
 0001:00024680       ?RegisterSubkeys@CRegParser@ATL@@IEAAJPEA_WPEAUHKEY__@@HH@Z 0000000180025680 f i RFIDScanner.obj
 0001:00025460       ?Release@?$CComAggObject@VCOPOSRFIDScanner@@@ATL@@UEAAKXZ 0000000180026460 f i RFIDScanner.obj
 0001:00025510       ?Release@?$CComContainedObject@VCOPOSRFIDScanner@@@ATL@@UEAAKXZ 0000000180026510 f i RFIDScanner.obj
 0001:00025548       ?Release@?$CComContainedObject@VCOPOSRFIDScanner@@@ATL@@WBAA@EAAKXZ 0000000180026548 f i RFIDScanner.obj
 0001:00025554       ?Release@?$CComContainedObject@VCOPOSRFIDScanner@@@ATL@@WBAI@EAAKXZ 0000000180026554 f i RFIDScanner.obj
 0001:00025560       ?Release@?$CComContainedObject@VCOPOSRFIDScanner@@@ATL@@WBBA@EAAKXZ 0000000180026560 f i RFIDScanner.obj
 0001:0002556c       ?Release@?$CComContainedObject@VCOPOSRFIDScanner@@@ATL@@WBBI@EAAKXZ 000000018002656c f i RFIDScanner.obj
 0001:00025578       ?Release@?$CComContainedObject@VCOPOSRFIDScanner@@@ATL@@WBCI@EAAKXZ 0000000180026578 f i RFIDScanner.obj
 0001:00025584       ?Release@?$CComContainedObject@VCOPOSRFIDScanner@@@ATL@@WBEA@EAAKXZ 0000000180026584 f i RFIDScanner.obj
 0001:00025590       ?Release@?$CComContainedObject@VCOPOSRFIDScanner@@@ATL@@WLI@EAAKXZ 0000000180026590 f i RFIDScanner.obj
 0001:0002559c       ?Release@?$CComContainedObject@VCOPOSRFIDScanner@@@ATL@@WMA@EAAKXZ 000000018002659c f i RFIDScanner.obj
 0001:000255a8       ?Release@?$CComContainedObject@VCOPOSRFIDScanner@@@ATL@@WMI@EAAKXZ 00000001800265a8 f i RFIDScanner.obj
 0001:000255b4       ?Release@?$CComContainedObject@VCOPOSRFIDScanner@@@ATL@@WNA@EAAKXZ 00000001800265b4 f i RFIDScanner.obj
 0001:000255c0       ?Release@?$CComContainedObject@VCOPOSRFIDScanner@@@ATL@@WNI@EAAKXZ 00000001800265c0 f i RFIDScanner.obj
 0001:000255cc       ?Release@?$CComContainedObject@VCOPOSRFIDScanner@@@ATL@@WOA@EAAKXZ 00000001800265cc f i RFIDScanner.obj
 0001:000255d8       ?Release@?$CComContainedObject@VCOPOSRFIDScanner@@@ATL@@WOI@EAAKXZ 00000001800265d8 f i RFIDScanner.obj
 0001:000255e4       ?Release@?$CComContainedObject@VCOPOSRFIDScanner@@@ATL@@WPA@EAAKXZ 00000001800265e4 f i RFIDScanner.obj
 0001:000255f0       ?Release@?$CComContainedObject@VCOPOSRFIDScanner@@@ATL@@WPI@EAAKXZ 00000001800265f0 f i RFIDScanner.obj
 0001:00025600       ?Release@?$CComObject@V?$CComEnum@UIEnumConnectionPoints@@$1?_GUID_b196b285_bab4_101a_b69c_00aa00341d07@@3U__s_GUID@@BPEAUIConnectionPoint@@V?$_CopyInterface@UIConnectionPoint@@@ATL@@VCComSingleThreadModel@6@@ATL@@@ATL@@UEAAKXZ 0000000180026600 f i RFIDScanner.obj
 0001:000256b0       ?Release@?$CComObject@V?$CComEnum@UIEnumConnections@@$1?_GUID_b196b287_bab4_101a_b69c_00aa00341d07@@3U__s_GUID@@BUtagCONNECTDATA@@V?$_Copy@UtagCONNECTDATA@@@ATL@@VCComSingleThreadModel@6@@ATL@@@ATL@@UEAAKXZ 00000001800266b0 f i RFIDScanner.obj
 0001:00025760       ?Release@?$CComObject@VCOPOSRFIDScanner@@@ATL@@UEAAKXZ 0000000180026760 f i RFIDScanner.obj
 0001:00025818       ?Release@?$CComObject@VCOPOSRFIDScanner@@@ATL@@WBAA@EAAKXZ 0000000180026818 f i RFIDScanner.obj
 0001:00025824       ?Release@?$CComObject@VCOPOSRFIDScanner@@@ATL@@WBAI@EAAKXZ 0000000180026824 f i RFIDScanner.obj
 0001:00025830       ?Release@?$CComObject@VCOPOSRFIDScanner@@@ATL@@WBBA@EAAKXZ 0000000180026830 f i RFIDScanner.obj
 0001:0002583c       ?Release@?$CComObject@VCOPOSRFIDScanner@@@ATL@@WBBI@EAAKXZ 000000018002683c f i RFIDScanner.obj
 0001:00025848       ?Release@?$CComObject@VCOPOSRFIDScanner@@@ATL@@WBCI@EAAKXZ 0000000180026848 f i RFIDScanner.obj
 0001:00025854       ?Release@?$CComObject@VCOPOSRFIDScanner@@@ATL@@WBEA@EAAKXZ 0000000180026854 f i RFIDScanner.obj
 0001:00025860       ?Release@?$CComObject@VCOPOSRFIDScanner@@@ATL@@WLI@EAAKXZ 0000000180026860 f i RFIDScanner.obj
 0001:0002586c       ?Release@?$CComObject@VCOPOSRFIDScanner@@@ATL@@WMA@EAAKXZ 000000018002686c f i RFIDScanner.obj
 0001:00025878       ?Release@?$CComObject@VCOPOSRFIDScanner@@@ATL@@WMI@EAAKXZ 0000000180026878 f i RFIDScanner.obj
 0001:00025884       ?Release@?$CComObject@VCOPOSRFIDScanner@@@ATL@@WNA@EAAKXZ 0000000180026884 f i RFIDScanner.obj
 0001:00025890       ?Release@?$CComObject@VCOPOSRFIDScanner@@@ATL@@WNI@EAAKXZ 0000000180026890 f i RFIDScanner.obj
 0001:0002589c       ?Release@?$CComObject@VCOPOSRFIDScanner@@@ATL@@WOA@EAAKXZ 000000018002689c f i RFIDScanner.obj
 0001:000258a8       ?Release@?$CComObject@VCOPOSRFIDScanner@@@ATL@@WOI@EAAKXZ 00000001800268a8 f i RFIDScanner.obj
 0001:000258b4       ?Release@?$CComObject@VCOPOSRFIDScanner@@@ATL@@WPA@EAAKXZ 00000001800268b4 f i RFIDScanner.obj
 0001:000258c0       ?Release@?$CComObject@VCOPOSRFIDScanner@@@ATL@@WPI@EAAKXZ 00000001800268c0 f i RFIDScanner.obj
 0001:000258d0       ?Release@?$CComObjectCached@VCComClassFactory@ATL@@@ATL@@UEAAKXZ 00000001800268d0 f i RFIDScanner.obj
 0001:00025970       ?Release@?$CComPtrBase@UIAdviseSink@@@ATL@@QEAAXXZ 0000000180026970 f i RFIDScanner.obj
 0001:000259d0       ?Release@?$CComPtrBase@UIDispatch@@@ATL@@QEAAXXZ 00000001800269d0 f i RFIDScanner.obj
 0001:00025a30       ?Release@?$CComPtrBase@UIOleInPlaceSiteWindowless@@@ATL@@QEAAXXZ 0000000180026a30 f i RFIDScanner.obj
 0001:00025a90       ?Release@CRegObject@ATL@@UEAAKXZ 0000000180026a90 f i RFIDScanner.obj
 0001:00025b00       ?Remove@CComDynamicUnkArray@ATL@@QEAAHK@Z 0000000180026b00 f i RFIDScanner.obj
 0001:00025be0       ?RemoveAll@?$CSimpleMap@PEA_WPEA_WVCExpansionVectorEqualHelper@ATL@@@ATL@@QEAAXXZ 0000000180026be0 f i RFIDScanner.obj
 0001:00025c80       ?Reset@?$CComEnumImpl@UIEnumConnectionPoints@@$1?_GUID_b196b285_bab4_101a_b69c_00aa00341d07@@3U__s_GUID@@BPEAUIConnectionPoint@@V?$_CopyInterface@UIConnectionPoint@@@ATL@@@ATL@@UEAAJXZ 0000000180026c80 f i RFIDScanner.obj
 0001:00025ca0       ?Reset@?$CComEnumImpl@UIEnumConnections@@$1?_GUID_b196b287_bab4_101a_b69c_00aa00341d07@@3U__s_GUID@@BUtagCONNECTDATA@@V?$_Copy@UtagCONNECTDATA@@@ATL@@@ATL@@UEAAJXZ 0000000180026ca0 f i RFIDScanner.obj
 0001:00025cc0       ?ResizeBorder@?$IOleInPlaceActiveObjectImpl@VCOPOSRFIDScanner@@@ATL@@UEAAJPEBUtagRECT@@PEAUIOleInPlaceUIWindow@@H@Z 0000000180026cc0 f i RFIDScanner.obj
 0001:00025d40       ?ResourceRegister@CRegObject@ATL@@QEAAJPEB_WI0@Z 0000000180026d40 f i RFIDScanner.obj
 0001:00025e20       ?ResourceRegisterSz@CRegObject@ATL@@QEAAJPEB_W00@Z 0000000180026e20 f i RFIDScanner.obj
 0001:00025f40       ?ResourceUnregister@CRegObject@ATL@@QEAAJPEB_WI0@Z 0000000180026f40 f i RFIDScanner.obj
 0001:00026020       ?ResourceUnregisterSz@CRegObject@ATL@@QEAAJPEB_W00@Z 0000000180027020 f i RFIDScanner.obj
 0001:00026140       ?SOData@COPOSRFIDScanner@@MEAAJJ@Z 0000000180027140 f i RFIDScanner.obj
 0001:000261e0       ?SODirectIO@COPOSRFIDScanner@@MEAAJJPEAJPEAPEA_W@Z 00000001800271e0 f i RFIDScanner.obj
 0001:00026420       ?SOError@COPOSRFIDScanner@@MEAAJJJJPEAJ@Z 0000000180027420 f i RFIDScanner.obj
 0001:00026530       ?SOOutputComplete@COPOSRFIDScanner@@MEAAJJ@Z 0000000180027530 f i RFIDScanner.obj
 0001:000265d0       ?SOStatusUpdate@COPOSRFIDScanner@@MEAAJJ@Z 00000001800275d0 f i RFIDScanner.obj
 0001:00026670       ?Save@?$IPersistStorageImpl@VCOPOSRFIDScanner@@@ATL@@UEAAJPEAUIStorage@@H@Z 0000000180027670 f i RFIDScanner.obj
 0001:00026830       ?Save@?$IPersistStreamInitImpl@VCOPOSRFIDScanner@@@ATL@@UEAAJPEAUIStream@@H@Z 0000000180027830 f i RFIDScanner.obj
 0001:000268f0       ?SaveCompleted@?$IPersistStorageImpl@VCOPOSRFIDScanner@@@ATL@@UEAAJPEAUIStorage@@@Z 00000001800278f0 f i RFIDScanner.obj
 0001:00026960       ?SendOnDataChange@CComControlBase@ATL@@QEAAJK@Z 0000000180027960 f i RFIDScanner.obj
 0001:00026a50       ?SendOnSave@CComControlBase@ATL@@QEAAJXZ 0000000180027a50 f i RFIDScanner.obj
 0001:00026ac0       ?SendOnViewChange@CComControlBase@ATL@@QEAAJKJ@Z 0000000180027ac0 f i RFIDScanner.obj
 0001:00026b40       ?SetAdvise@?$IViewObjectExImpl@VCOPOSRFIDScanner@@@ATL@@UEAAJKKPEAUIAdviseSink@@@Z 0000000180027b40 f i RFIDScanner.obj
 0001:00026c00       ?SetClientSite@?$IOleObjectImpl@VCOPOSRFIDScanner@@@ATL@@UEAAJPEAUIOleClientSite@@@Z 0000000180027c00 f i RFIDScanner.obj
 0001:00026cb0       ?SetColorScheme@?$IOleObjectImpl@VCOPOSRFIDScanner@@@ATL@@UEAAJPEAUtagLOGPALETTE@@@Z 0000000180027cb0 f i RFIDScanner.obj
 0001:00026d40       ?SetContentExtent@?$IQuickActivateImpl@VCOPOSRFIDScanner@@@ATL@@UEAAJPEAUtagSIZE@@@Z 0000000180027d40 f i RFIDScanner.obj
 0001:00026e00       ?SetControlFocus@CComControlBase@ATL@@QEAAHH@Z 0000000180027e00 f i RFIDScanner.obj
 0001:00026f90       ?SetDWORDValue@CRegKey@ATL@@QEAAJPEB_WK@Z 0000000180027f90 f i RFIDScanner.obj
 0001:00027040       ?SetData@?$IDataObjectImpl@VCOPOSRFIDScanner@@@ATL@@UEAAJPEAUtagFORMATETC@@PEAUtagSTGMEDIUM@@H@Z 0000000180028040 f i RFIDScanner.obj
 0001:000270d0       ?SetExtent@?$IOleObjectImpl@VCOPOSRFIDScanner@@@ATL@@UEAAJKPEAUtagSIZE@@@Z 00000001800280d0 f i RFIDScanner.obj
 0001:00027190       ?SetHostNames@?$IOleObjectImpl@VCOPOSRFIDScanner@@@ATL@@UEAAJPEB_W0@Z 0000000180028190 f i RFIDScanner.obj
 0001:00027210       ?SetInterfaceSafetyOptions@?$IObjectSafetyImpl@VCOPOSRFIDScanner@@$02@ATL@@UEAAJAEBU_GUID@@KK@Z 0000000180028210 f i RFIDScanner.obj
 0001:000273b0       ?SetMoniker@?$IOleObjectImpl@VCOPOSRFIDScanner@@@ATL@@UEAAJKPEAUIMoniker@@@Z 00000001800283b0 f i RFIDScanner.obj
 0001:00027440       ?SetMultiStringValue@CRegKey@ATL@@QEAAJPEB_W0@Z 0000000180028440 f i RFIDScanner.obj
 0001:000275b0       ?SetObjectRects@?$IOleInPlaceObjectWindowlessImpl@VCOPOSRFIDScanner@@@ATL@@UEAAJPEBUtagRECT@@0@Z 00000001800285b0 f i RFIDScanner.obj
 0001:00027670       ?SetStringValue@CRegKey@ATL@@QEAAJPEB_W0K@Z 0000000180028670 f i RFIDScanner.obj
 0001:000277f0       ?SetVoid@CComClassFactory@ATL@@QEAAXPEAX@Z 00000001800287f0 f i RFIDScanner.obj
 0001:00027810       ?SetVoid@CComObjectRootBase@ATL@@QEAAXPEAX@Z 0000000180028810 f i RFIDScanner.obj
 0001:00027820       ?ShowWindow@CWindow@ATL@@QEAAHH@Z 0000000180028820 f i RFIDScanner.obj
 0001:000278b0       ?Skip@?$CComEnumImpl@UIEnumConnectionPoints@@$1?_GUID_b196b285_bab4_101a_b69c_00aa00341d07@@3U__s_GUID@@BPEAUIConnectionPoint@@V?$_CopyInterface@UIConnectionPoint@@@ATL@@@ATL@@UEAAJK@Z 00000001800288b0 f i RFIDScanner.obj
 0001:00027950       ?Skip@?$CComEnumImpl@UIEnumConnections@@$1?_GUID_b196b287_bab4_101a_b69c_00aa00341d07@@3U__s_GUID@@BUtagCONNECTDATA@@V?$_Copy@UtagCONNECTDATA@@@ATL@@@ATL@@UEAAJK@Z 0000000180028950 f i RFIDScanner.obj
 0001:000279f0       ?SkipAssignment@CRegParser@ATL@@IEAAJPEA_W@Z 00000001800289f0 f i RFIDScanner.obj
 0001:00027af0       ?SkipWhiteSpace@CRegParser@ATL@@IEAAXXZ 0000000180028af0 f i RFIDScanner.obj
 0001:00027b50       ?StartWindowProc@?$CWindowImplBaseT@VCWindow@ATL@@V?$CWinTraits@$0FGAAAAAA@$0A@@2@@ATL@@SA_JPEAUHWND__@@I_K_J@Z 0000000180028b50 f i RFIDScanner.obj
 0001:00027cc0       ?StrChrW@CRegParser@ATL@@KAPEA_WPEA_W_W@Z 0000000180028cc0 f i RFIDScanner.obj
 0001:00027d40       ?StrFromMap@CRegObject@ATL@@QEAAPEB_WPEA_W@Z 0000000180028d40 f i RFIDScanner.obj
 0001:00027e00       ?Swap@?$CComPtrBase@UIAdviseSink@@@ATL@@IEAAXAEAV12@@Z 0000000180028e00 f i RFIDScanner.obj
 0001:00027e60       ?Swap@?$CComPtrBase@UIOleClientSite@@@ATL@@IEAAXAEAV12@@Z 0000000180028e60 f i RFIDScanner.obj
 0001:00027ec0       ?Swap@?$CComPtrBase@UIUnknown@@@ATL@@IEAAXAEAV12@@Z 0000000180028ec0 f i RFIDScanner.obj
 0001:00027f20       ?T2COLE_EX@@YAPEB_WPEB_WI@Z 0000000180028f20 f i RFIDScanner.obj
 0001:00027f40       ?T2OLE_EX@@YAPEA_WPEA_WI@Z 0000000180028f40 f i RFIDScanner.obj
 0001:00027f60       ?Term@CAtlModule@ATL@@QEAAXXZ 0000000180028f60 f i RFIDScanner.obj
 0001:00028020       ?Term@CComModule@ATL@@QEAAXXZ 0000000180029020 f i RFIDScanner.obj
 0001:00028110       ?TranslateAcceleratorW@?$IOleInPlaceActiveObjectImpl@VCOPOSRFIDScanner@@@ATL@@UEAAJPEAUtagMSG@@@Z 0000000180029110 f i RFIDScanner.obj
 0001:00028380       ?UIDeactivate@?$IOleInPlaceObjectWindowlessImpl@VCOPOSRFIDScanner@@@ATL@@UEAAJXZ 0000000180029380 f i RFIDScanner.obj
 0001:00028430       ?Unadvise@?$CProxy_IOPOSEvents@VCOPOSRFIDScanner@@@@UEAAJK@Z 0000000180029430 f i RFIDScanner.obj
 0001:00028480       ?Unadvise@?$IConnectionPointImpl@VCOPOSRFIDScanner@@$1?DIID__IOPOSRFIDScannerEvents@@3U_GUID@@BVCComDynamicUnkArray@ATL@@@ATL@@UEAAJK@Z 0000000180029480 f i RFIDScanner.obj
 0001:00028570       ?Unadvise@?$IConnectionPointImpl@VCOPOSRFIDScanner@@$1?IID_IPropertyNotifySink@@3U_GUID@@BVCComDynamicUnkArray@ATL@@@ATL@@UEAAJK@Z 0000000180029570 f i RFIDScanner.obj
 0001:00028660       ?Unadvise@?$IOleObjectImpl@VCOPOSRFIDScanner@@@ATL@@UEAAJK@Z 0000000180029660 f i RFIDScanner.obj
 0001:00028750       ?Unfreeze@?$IViewObjectExImpl@VCOPOSRFIDScanner@@@ATL@@UEAAJK@Z 0000000180029750 f i RFIDScanner.obj
 0001:000287d0       ?Unlock@?$CComCritSecLock@VCComCriticalSection@ATL@@@ATL@@QEAAXXZ 00000001800297d0 f i RFIDScanner.obj
 0001:00028860       ?Unlock@?$CComObjectRootEx@VCComSingleThreadModel@ATL@@@ATL@@QEAAXXZ 0000000180029860 f i RFIDScanner.obj
 0001:00028870       ?Unlock@CAtlModule@ATL@@UEAAJXZ 0000000180029870 f i RFIDScanner.obj
 0001:000288b0       ?Unlock@CComCriticalSection@ATL@@QEAAJXZ 00000001800298b0 f i RFIDScanner.obj
 0001:000288f0       ?Unlock@CComFakeCriticalSection@ATL@@QEAAJXZ 00000001800298f0 f i RFIDScanner.obj
 0001:00028900       ?UnregisterServer@?$CAtlModuleT@VCComModule@ATL@@@ATL@@QEAAJHPEBU_GUID@@@Z 0000000180029900 f i RFIDScanner.obj
 0001:00028970       ?UnregisterServer@CAtlComModule@ATL@@QEAAJHPEBU_GUID@@@Z 0000000180029970 f i RFIDScanner.obj
 0001:000289b0       ?UnregisterServer@CComModule@ATL@@QEAAJHPEBU_GUID@@@Z 00000001800299b0 f i RFIDScanner.obj
 0001:00028aa0       ?Update@?$IOleObjectImpl@VCOPOSRFIDScanner@@@ATL@@UEAAJXZ 0000000180029aa0 f i RFIDScanner.obj
 0001:00028b10       ?UpdateRegistryFromResource@CAtlModule@ATL@@QEAAJIHPEAU_ATL_REGMAP_ENTRY@2@@Z 0000000180029b10 f i RFIDScanner.obj
 0001:00029040       ?UpdateRegistryFromResource@CAtlModule@ATL@@QEAAJPEB_WHPEAU_ATL_REGMAP_ENTRY@2@@Z 000000018002a040 f i RFIDScanner.obj
 0001:00029590       ?UpdateRegistryFromResource@CComModule@ATL@@UEAAJIHPEAU_ATL_REGMAP_ENTRY@2@@Z 000000018002a590 f i RFIDScanner.obj
 0001:000295e0       ?UpdateRegistryFromResource@CComModule@ATL@@UEAAJPEB_WHPEAU_ATL_REGMAP_ENTRY@2@@Z 000000018002a5e0 f i RFIDScanner.obj
 0001:00029630       ?UpdateRegistryFromResourceD@CComModule@ATL@@UEAAJIHPEAU_ATL_REGMAP_ENTRY@2@@Z 000000018002a630 f i RFIDScanner.obj
 0001:00029650       ?UpdateRegistryFromResourceD@CComModule@ATL@@UEAAJPEB_WHPEAU_ATL_REGMAP_ENTRY@2@@Z 000000018002a650 f i RFIDScanner.obj
 0001:00029670       ?VTFromRegType@CRegParser@ATL@@KAHPEB_WAEAG@Z 000000018002a670 f i RFIDScanner.obj
 0001:00029750       ?WindowProc@?$CWindowImplBaseT@VCWindow@ATL@@V?$CWinTraits@$0FGAAAAAA@$0A@@2@@ATL@@SA_JPEAUHWND__@@I_K_J@Z 000000018002a750 f i RFIDScanner.obj
 0001:00029a30       ?WriteToStream@CComBSTR@ATL@@QEAAJPEAUIStream@@@Z 000000018002aa30 f i RFIDScanner.obj
 0001:00029ba0       ?WriteToStream@CComVariant@ATL@@QEAAJPEAUIStream@@@Z 000000018002aba0 f i RFIDScanner.obj
 0001:00029fb0       ?WriteToStream@CComVariant@ATL@@QEAAJPEAUIStream@@G@Z 000000018002afb0 f i RFIDScanner.obj
 0001:0002a090       ?_AtlFinalConstruct@CComObjectRootBase@ATL@@QEAAJXZ 000000018002b090 f i RFIDScanner.obj
 0001:0002a0a0       ?_AtlGetConversionACP@ATL@@YAIXZ 000000018002b0a0 f i RFIDScanner.obj
 0001:0002a0b0       ?_AtlInitialConstruct@?$CComAggObject@VCOPOSRFIDScanner@@@ATL@@QEAAJXZ 000000018002b0b0 f i RFIDScanner.obj
 0001:0002a110       ?_AtlInitialConstruct@?$CComObjectRootEx@VCComMultiThreadModel@ATL@@@ATL@@QEAAJXZ 000000018002b110 f i RFIDScanner.obj
 0001:0002a150       ?_AtlInitialConstruct@?$CComObjectRootEx@VCComSingleThreadModel@ATL@@@ATL@@QEAAJXZ 000000018002b150 f i RFIDScanner.obj
 0001:0002a160       ?_AtlVerifyStackAvailable@_ATL_SAFE_ALLOCA_IMPL@ATL@@YA_N_K@Z 000000018002b160 f i RFIDScanner.obj
 0001:0002a2c0       ?_GetEntries@?$CComEnum@UIEnumConnectionPoints@@$1?_GUID_b196b285_bab4_101a_b69c_00aa00341d07@@3U__s_GUID@@BPEAUIConnectionPoint@@V?$_CopyInterface@UIConnectionPoint@@@ATL@@VCComSingleThreadModel@6@@ATL@@SAPEBU_ATL_INTMAP_ENTRY@2@XZ 000000018002b2c0 f i RFIDScanner.obj
 0001:0002a2e0       ?_GetEntries@?$CComEnum@UIEnumConnections@@$1?_GUID_b196b287_bab4_101a_b69c_00aa00341d07@@3U__s_GUID@@BUtagCONNECTDATA@@V?$_Copy@UtagCONNECTDATA@@@ATL@@VCComSingleThreadModel@6@@ATL@@SAPEBU_ATL_INTMAP_ENTRY@2@XZ 000000018002b2e0 f i RFIDScanner.obj
 0001:0002a300       ?_GetEntries@CComClassFactory@ATL@@SAPEBU_ATL_INTMAP_ENTRY@2@XZ 000000018002b300 f i RFIDScanner.obj
 0001:0002a320       ?_GetEntries@COPOSRFIDScanner@@SAPEBU_ATL_INTMAP_ENTRY@ATL@@XZ 000000018002b320 f i RFIDScanner.obj
 0001:0002a340       ?_GetRawUnknown@COPOSRFIDScanner@@QEAAPEAUIUnknown@@XZ 000000018002b340 f i RFIDScanner.obj
 0001:0002a3d0       ?_GetViewStatus@COPOSRFIDScanner@@QEAAKXZ 000000018002b3d0 f i RFIDScanner.obj
 0001:0002a3e0       ?_InternalQueryInterface@?$CComEnum@UIEnumConnectionPoints@@$1?_GUID_b196b285_bab4_101a_b69c_00aa00341d07@@3U__s_GUID@@BPEAUIConnectionPoint@@V?$_CopyInterface@UIConnectionPoint@@@ATL@@VCComSingleThreadModel@6@@ATL@@QEAAJAEBU_GUID@@PEAPEAX@Z 000000018002b3e0 f i RFIDScanner.obj
 0001:0002a430       ?_InternalQueryInterface@?$CComEnum@UIEnumConnections@@$1?_GUID_b196b287_bab4_101a_b69c_00aa00341d07@@3U__s_GUID@@BUtagCONNECTDATA@@V?$_Copy@UtagCONNECTDATA@@@ATL@@VCComSingleThreadModel@6@@ATL@@QEAAJAEBU_GUID@@PEAPEAX@Z 000000018002b430 f i RFIDScanner.obj
 0001:0002a480       ?_InternalQueryInterface@CComClassFactory@ATL@@QEAAJAEBU_GUID@@PEAPEAX@Z 000000018002b480 f i RFIDScanner.obj
 0001:0002a4d0       ?_InternalQueryInterface@COPOSRFIDScanner@@QEAAJAEBU_GUID@@PEAPEAX@Z 000000018002b4d0 f i RFIDScanner.obj
 0001:0002a520       ?_LocCPQueryInterface@?$IConnectionPointImpl@VCOPOSRFIDScanner@@$1?DIID__IOPOSRFIDScannerEvents@@3U_GUID@@BVCComDynamicUnkArray@ATL@@@ATL@@UEAAJAEBU_GUID@@PEAPEAX@Z 000000018002b520 f i RFIDScanner.obj
 0001:0002a600       ?_LocCPQueryInterface@?$IConnectionPointImpl@VCOPOSRFIDScanner@@$1?IID_IPropertyNotifySink@@3U_GUID@@BVCComDynamicUnkArray@ATL@@@ATL@@UEAAJAEBU_GUID@@PEAPEAX@Z 000000018002b600 f i RFIDScanner.obj
 0001:0002a6e0       ?atlCreate@?$CWindowImpl@VCOPOSRFIDScanner@@VCWindow@ATL@@V?$CWinTraits@$0FGAAAAAA@$0A@@3@@ATL@@QEAAPEAUHWND__@@PEAU3@V_U_RECT@2@PEB_WKKV_U_MENUorID@2@PEAX@Z 000000018002b6e0 f i RFIDScanner.obj
 0001:0002a810       ?atlCreate@?$CWindowImplBaseT@VCWindow@ATL@@V?$CWinTraits@$0FGAAAAAA@$0A@@2@@ATL@@QEAAPEAUHWND__@@PEAU3@V_U_RECT@2@PEB_WKKV_U_MENUorID@2@GPEAX@Z 000000018002b810 f i RFIDScanner.obj
 0001:0002aa70       ?atlCreate@CRegKey@ATL@@QEAAJPEAUHKEY__@@PEB_WPEA_WKKPEAU_SECURITY_ATTRIBUTES@@PEAK@Z 000000018002ba70 f i RFIDScanner.obj
 0001:0002ac60       ?begin@CComDynamicUnkArray@ATL@@QEAAPEAPEAUIUnknown@@XZ 000000018002bc60 f i RFIDScanner.obj
 0001:0002ac70       ?copy@?$_Copy@UtagCONNECTDATA@@@ATL@@SAJPEAUtagCONNECTDATA@@PEBU3@@Z 000000018002bc70 f i RFIDScanner.obj
 0001:0002ad60       ?copy@?$_CopyInterface@UIConnectionPoint@@@ATL@@SAJPEAPEAUIConnectionPoint@@PEBQEAU3@@Z 000000018002bd60 f i RFIDScanner.obj
 0001:0002ae50       ?destroy@?$_Copy@UtagCONNECTDATA@@@ATL@@SAXPEAUtagCONNECTDATA@@@Z 000000018002be50 f i RFIDScanner.obj
 0001:0002aea0       ?destroy@?$_CopyInterface@UIConnectionPoint@@@ATL@@SAXPEAPEAUIConnectionPoint@@@Z 000000018002bea0 f i RFIDScanner.obj
 0001:0002aef0       ?end@CComDynamicUnkArray@ATL@@QEAAPEAPEAUIUnknown@@XZ 000000018002bef0 f i RFIDScanner.obj
 0001:0002af10       ?init@?$_Copy@UtagCONNECTDATA@@@ATL@@SAXPEAUtagCONNECTDATA@@@Z 000000018002bf10 f i RFIDScanner.obj
 0001:0002af20       ?init@?$_CopyInterface@UIConnectionPoint@@@ATL@@SAXPEAPEAUIConnectionPoint@@@Z 000000018002bf20 f i RFIDScanner.obj
 0001:0002af30       ?memcpy_s@Checked@ATL@@YAXPEAX_KPEBX1@Z 000000018002bf30 f i RFIDScanner.obj
 0001:0002af90       ?ocscpy_s@@YA_NPEA_W_KPEB_W@Z 000000018002bf90 f i RFIDScanner.obj
 0001:0002b010       ?ocslen@@YAHPEB_W@Z        000000018002c010 f i RFIDScanner.obj
 0001:0002b050       ?tcsncpy_s@Checked@ATL@@YAHPEA_W_KPEB_W1@Z 000000018002c050 f i RFIDScanner.obj
 0001:0002b0b0       ?wcscat_s@Checked@ATL@@YAXPEA_W_KPEB_W@Z 000000018002c0b0 f i RFIDScanner.obj
 0001:0002b100       ?wcscpy_s@Checked@ATL@@YAXPEA_W_KPEB_W@Z 000000018002c100 f i RFIDScanner.obj
 0001:0002b150       ?wcsncpy_s@Checked@ATL@@YAHPEA_W_KPEB_W1@Z 000000018002c150 f i RFIDScanner.obj
 0001:0002b1b0       ?wcsstr@@YAPEA_WPEA_WPEB_W@Z 000000018002c1b0 f i RFIDScanner.obj
 0001:0002b1f0       InlineIsEqualGUID          000000018002c1f0 f i RFIDScanner.obj
 0001:0002b2c0       IsEqualGUID                000000018002c2c0 f i RFIDScanner.obj
 0001:0002b320       ??0COPOSRFIDScanner@@QEAA@XZ 000000018002c320 f   RFIDScannerImpl.obj
 0001:0002b4a0       ?FinalConstruct@COPOSRFIDScanner@@QEAAJXZ 000000018002c4a0 f   RFIDScannerImpl.obj
 0001:0002b590       ??1COPOSRFIDScanner@@UEAA@XZ 000000018002c590 f   RFIDScannerImpl.obj
 0001:0002b670       ?WriteTrace@COPOSRFIDScanner@@QEAAXPEB_WZZ 000000018002c670 f   RFIDScannerImpl.obj
 0001:0002b730       ?WriteTraceString@COPOSRFIDScanner@@QEAAXPEB_WPEA_W@Z 000000018002c730 f   RFIDScannerImpl.obj
 0001:0002bb70       ?WriteTraceString@COPOSRFIDScanner@@QEAAXPEAXHHHPEB_WZZ 000000018002cb70 f   RFIDScannerImpl.obj
 0001:0002be00       ?WriteTraceError@COPOSRFIDScanner@@QEAAXPEB_WK@Z 000000018002ce00 f   RFIDScannerImpl.obj
 0001:0002bf00       ?WriteTraceMethods@COPOSRFIDScanner@@QEAAXPEAJH@Z 000000018002cf00 f   RFIDScannerImpl.obj
 0001:0002bf90       ?GetOposProp@COPOSRFIDScanner@@IEAAJPEBDJPEAJJ@Z 000000018002cf90 f   RFIDScannerImpl.obj
 0001:0002c2b0       ?SetOposProp@COPOSRFIDScanner@@IEAAJPEBDJJJ@Z 000000018002d2b0 f   RFIDScannerImpl.obj
 0001:0002c610       ?GetOposProp@COPOSRFIDScanner@@IEAAJPEBDJPEAFJ@Z 000000018002d610 f   RFIDScannerImpl.obj
 0001:0002c6b0       ?SetOposProp@COPOSRFIDScanner@@IEAAJPEBDJFJ@Z 000000018002d6b0 f   RFIDScannerImpl.obj
 0001:0002c730       ?GetOposProp@COPOSRFIDScanner@@IEAAJPEBDJPEAPEA_WJ@Z 000000018002d730 f   RFIDScannerImpl.obj
 0001:0002ca50       ?SetOposProp@COPOSRFIDScanner@@IEAAJPEBDJPEA_WJ@Z 000000018002da50 f   RFIDScannerImpl.obj
 0001:0002ce30       ?DoInvoke@COPOSRFIDScanner@@IEAAJPEBDJPEAVOposVariant@@IHPEAJ_N@Z 000000018002de30 f   RFIDScannerImpl.obj
 0001:0002d980       ?SetCOFreezeEvents@COPOSRFIDScanner@@IEAAXF@Z 000000018002e980 f   RFIDScannerImpl.obj
 0001:0002db10       ?FreezeEvents@COPOSRFIDScanner@@MEAAJH@Z 000000018002eb10 f   RFIDScannerImpl.obj
 0001:0002dc40       ?OnDraw@COPOSRFIDScanner@@MEAAJAEAUATL_DRAWINFO@@@Z 000000018002ec40 f   RFIDScannerImpl.obj
 0001:0002de10       ?SOProcessID@COPOSRFIDScanner@@UEAAJPEAJ@Z 000000018002ee10 f   RFIDScannerImpl.obj
 0001:0002de70       ?get_OpenResult@COPOSRFIDScanner@@UEAAJPEAJ@Z 000000018002ee70 f   RFIDScannerImpl.obj
 0001:0002ded0       ?get_AutoDisable@COPOSRFIDScanner@@UEAAJPEAF@Z 000000018002eed0 f   RFIDScannerImpl.obj
 0001:0002df30       ?put_AutoDisable@COPOSRFIDScanner@@UEAAJF@Z 000000018002ef30 f   RFIDScannerImpl.obj
 0001:0002df90       ?get_BinaryConversion@COPOSRFIDScanner@@UEAAJPEAJ@Z 000000018002ef90 f   RFIDScannerImpl.obj
 0001:0002dff0       ?put_BinaryConversion@COPOSRFIDScanner@@UEAAJJ@Z 000000018002eff0 f   RFIDScannerImpl.obj
 0001:0002e060       ?get_CapPowerReporting@COPOSRFIDScanner@@UEAAJPEAJ@Z 000000018002f060 f   RFIDScannerImpl.obj
 0001:0002e0c0       ?get_CheckHealthText@COPOSRFIDScanner@@UEAAJPEAPEA_W@Z 000000018002f0c0 f   RFIDScannerImpl.obj
 0001:0002e120       ?get_Claimed@COPOSRFIDScanner@@UEAAJPEAF@Z 000000018002f120 f   RFIDScannerImpl.obj
 0001:0002e180       ?get_DataCount@COPOSRFIDScanner@@UEAAJPEAJ@Z 000000018002f180 f   RFIDScannerImpl.obj
 0001:0002e1e0       ?get_DataEventEnabled@COPOSRFIDScanner@@UEAAJPEAF@Z 000000018002f1e0 f   RFIDScannerImpl.obj
 0001:0002e240       ?put_DataEventEnabled@COPOSRFIDScanner@@UEAAJF@Z 000000018002f240 f   RFIDScannerImpl.obj
 0001:0002e2a0       ?get_DeviceEnabled@COPOSRFIDScanner@@UEAAJPEAF@Z 000000018002f2a0 f   RFIDScannerImpl.obj
 0001:0002e300       ?put_DeviceEnabled@COPOSRFIDScanner@@UEAAJF@Z 000000018002f300 f   RFIDScannerImpl.obj
 0001:0002e360       ?get_FreezeEvents@COPOSRFIDScanner@@UEAAJPEAF@Z 000000018002f360 f   RFIDScannerImpl.obj
 0001:0002e3c0       ?put_FreezeEvents@COPOSRFIDScanner@@UEAAJF@Z 000000018002f3c0 f   RFIDScannerImpl.obj
 0001:0002e4a0       ?get_OutputID@COPOSRFIDScanner@@UEAAJPEAJ@Z 000000018002f4a0 f   RFIDScannerImpl.obj
 0001:0002e500       ?get_PowerNotify@COPOSRFIDScanner@@UEAAJPEAJ@Z 000000018002f500 f   RFIDScannerImpl.obj
 0001:0002e560       ?put_PowerNotify@COPOSRFIDScanner@@UEAAJJ@Z 000000018002f560 f   RFIDScannerImpl.obj
 0001:0002e5c0       ?get_PowerState@COPOSRFIDScanner@@UEAAJPEAJ@Z 000000018002f5c0 f   RFIDScannerImpl.obj
 0001:0002e620       ?get_ResultCode@COPOSRFIDScanner@@UEAAJPEAJ@Z 000000018002f620 f   RFIDScannerImpl.obj
 0001:0002e6f0       ?get_ResultCodeExtended@COPOSRFIDScanner@@UEAAJPEAJ@Z 000000018002f6f0 f   RFIDScannerImpl.obj
 0001:0002e750       ?get_State@COPOSRFIDScanner@@UEAAJPEAJ@Z 000000018002f750 f   RFIDScannerImpl.obj
 0001:0002e7e0       ?get_ControlObjectDescription@COPOSRFIDScanner@@UEAAJPEAPEA_W@Z 000000018002f7e0 f   RFIDScannerImpl.obj
 0001:0002e860       ?get_ControlObjectVersion@COPOSRFIDScanner@@UEAAJPEAJ@Z 000000018002f860 f   RFIDScannerImpl.obj
 0001:0002e8c0       ?get_ServiceObjectDescription@COPOSRFIDScanner@@UEAAJPEAPEA_W@Z 000000018002f8c0 f   RFIDScannerImpl.obj
 0001:0002e920       ?get_ServiceObjectVersion@COPOSRFIDScanner@@UEAAJPEAJ@Z 000000018002f920 f   RFIDScannerImpl.obj
 0001:0002e980       ?get_DeviceDescription@COPOSRFIDScanner@@UEAAJPEAPEA_W@Z 000000018002f980 f   RFIDScannerImpl.obj
 0001:0002e9e0       ?get_DeviceName@COPOSRFIDScanner@@UEAAJPEAPEA_W@Z 000000018002f9e0 f   RFIDScannerImpl.obj
 0001:0002ea40       ?get_CapStatisticsReporting@COPOSRFIDScanner@@UEAAJPEAF@Z 000000018002fa40 f   RFIDScannerImpl.obj
 0001:0002eaa0       ?get_CapUpdateStatistics@COPOSRFIDScanner@@UEAAJPEAF@Z 000000018002faa0 f   RFIDScannerImpl.obj
 0001:0002eb00       ?get_CapCompareFirmwareVersion@COPOSRFIDScanner@@UEAAJPEAF@Z 000000018002fb00 f   RFIDScannerImpl.obj
 0001:0002eb60       ?get_CapUpdateFirmware@COPOSRFIDScanner@@UEAAJPEAF@Z 000000018002fb60 f   RFIDScannerImpl.obj
 0001:0002ebc0       ?CheckHealth@COPOSRFIDScanner@@UEAAJJPEAJ@Z 000000018002fbc0 f   RFIDScannerImpl.obj
 0001:0002ec80       ?ClaimDevice@COPOSRFIDScanner@@UEAAJJPEAJ@Z 000000018002fc80 f   RFIDScannerImpl.obj
 0001:0002eda0       ?ClearInput@COPOSRFIDScanner@@UEAAJPEAJ@Z 000000018002fda0 f   RFIDScannerImpl.obj
 0001:0002ee10       ?ClearOutput@COPOSRFIDScanner@@UEAAJPEAJ@Z 000000018002fe10 f   RFIDScannerImpl.obj
 0001:0002ee80       ?Close@COPOSRFIDScanner@@UEAAJPEAJ@Z 000000018002fe80 f   RFIDScannerImpl.obj
 0001:0002ef90       ?DirectIO@COPOSRFIDScanner@@UEAAJJPEAJPEAPEA_W0@Z 000000018002ff90 f   RFIDScannerImpl.obj
 0001:0002f110       ?Open@COPOSRFIDScanner@@UEAAJPEA_WPEAJ@Z 0000000180030110 f   RFIDScannerImpl.obj
 0001:000305f0       ?ReleaseDevice@COPOSRFIDScanner@@UEAAJPEAJ@Z 00000001800315f0 f   RFIDScannerImpl.obj
 0001:000306a0       ?ResetStatistics@COPOSRFIDScanner@@UEAAJPEA_WPEAJ@Z 00000001800316a0 f   RFIDScannerImpl.obj
 0001:00030780       ?RetrieveStatistics@COPOSRFIDScanner@@UEAAJPEAPEA_WPEAJ@Z 0000000180031780 f   RFIDScannerImpl.obj
 0001:00030860       ?UpdateStatistics@COPOSRFIDScanner@@UEAAJPEA_WPEAJ@Z 0000000180031860 f   RFIDScannerImpl.obj
 0001:00030940       ?CompareFirmwareVersion@COPOSRFIDScanner@@UEAAJPEA_WPEAJ1@Z 0000000180031940 f   RFIDScannerImpl.obj
 0001:00030a80       ?UpdateFirmware@COPOSRFIDScanner@@UEAAJPEA_WPEAJ@Z 0000000180031a80 f   RFIDScannerImpl.obj
 0001:00030b60       ?ClearInputProperties@COPOSRFIDScanner@@UEAAJPEAJ@Z 0000000180031b60 f   RFIDScannerImpl.obj
 0001:00030bd0       ?get_CapContinuousRead@COPOSRFIDScanner@@UEAAJPEAF@Z 0000000180031bd0 f   RFIDScannerImpl.obj
 0001:00030c30       ?get_CapDisableTag@COPOSRFIDScanner@@UEAAJPEAF@Z 0000000180031c30 f   RFIDScannerImpl.obj
 0001:00030c90       ?get_CapLockTag@COPOSRFIDScanner@@UEAAJPEAF@Z 0000000180031c90 f   RFIDScannerImpl.obj
 0001:00030cf0       ?get_CapMultipleProtocols@COPOSRFIDScanner@@UEAAJPEAJ@Z 0000000180031cf0 f   RFIDScannerImpl.obj
 0001:00030d50       ?get_CapReadTimer@COPOSRFIDScanner@@UEAAJPEAF@Z 0000000180031d50 f   RFIDScannerImpl.obj
 0001:00030db0       ?get_CapWriteTag@COPOSRFIDScanner@@UEAAJPEAJ@Z 0000000180031db0 f   RFIDScannerImpl.obj
 0001:00030e10       ?get_ContinuousReadMode@COPOSRFIDScanner@@UEAAJPEAF@Z 0000000180031e10 f   RFIDScannerImpl.obj
 0001:00030e70       ?get_CurrentTagID@COPOSRFIDScanner@@UEAAJPEAPEA_W@Z 0000000180031e70 f   RFIDScannerImpl.obj
 0001:00030ed0       ?get_CurrentTagProtocol@COPOSRFIDScanner@@UEAAJPEAJ@Z 0000000180031ed0 f   RFIDScannerImpl.obj
 0001:00030f30       ?get_CurrentTagUserData@COPOSRFIDScanner@@UEAAJPEAPEA_W@Z 0000000180031f30 f   RFIDScannerImpl.obj
 0001:00030f90       ?get_ProtocolMask@COPOSRFIDScanner@@UEAAJPEAJ@Z 0000000180031f90 f   RFIDScannerImpl.obj
 0001:00030ff0       ?put_ProtocolMask@COPOSRFIDScanner@@UEAAJJ@Z 0000000180031ff0 f   RFIDScannerImpl.obj
 0001:00031050       ?get_ReadTimerInterval@COPOSRFIDScanner@@UEAAJPEAJ@Z 0000000180032050 f   RFIDScannerImpl.obj
 0001:000310b0       ?put_ReadTimerInterval@COPOSRFIDScanner@@UEAAJJ@Z 00000001800320b0 f   RFIDScannerImpl.obj
 0001:00031110       ?get_TagCount@COPOSRFIDScanner@@UEAAJPEAJ@Z 0000000180032110 f   RFIDScannerImpl.obj
 0001:00031170       ?DisableTag@COPOSRFIDScanner@@UEAAJPEA_WJ0PEAJ@Z 0000000180032170 f   RFIDScannerImpl.obj
 0001:000312f0       ?FirstTag@COPOSRFIDScanner@@UEAAJPEAJ@Z 00000001800322f0 f   RFIDScannerImpl.obj
 0001:00031360       ?LockTag@COPOSRFIDScanner@@UEAAJPEA_WJ0PEAJ@Z 0000000180032360 f   RFIDScannerImpl.obj
 0001:000314e0       ?NextTag@COPOSRFIDScanner@@UEAAJPEAJ@Z 00000001800324e0 f   RFIDScannerImpl.obj
 0001:00031550       ?PreviousTag@COPOSRFIDScanner@@UEAAJPEAJ@Z 0000000180032550 f   RFIDScannerImpl.obj
 0001:000315c0       ?ReadTags@COPOSRFIDScanner@@UEAAJJPEA_W0JJJ0PEAJ@Z 00000001800325c0 f   RFIDScannerImpl.obj
 0001:000317b0       ?StartReadTags@COPOSRFIDScanner@@UEAAJJPEA_W0JJ0PEAJ@Z 00000001800327b0 f   RFIDScannerImpl.obj
 0001:00031990       ?StopReadTags@COPOSRFIDScanner@@UEAAJPEA_WPEAJ@Z 0000000180032990 f   RFIDScannerImpl.obj
 0001:00031a70       ?WriteTagData@COPOSRFIDScanner@@UEAAJPEA_W0JJ0PEAJ@Z 0000000180032a70 f   RFIDScannerImpl.obj
 0001:00031c30       ?WriteTagID@COPOSRFIDScanner@@UEAAJPEA_W0J0PEAJ@Z 0000000180032c30 f   RFIDScannerImpl.obj
 0001:00031dd0       ??0?$CComControl@VCOPOSRFIDScanner@@V?$CWindowImpl@VCOPOSRFIDScanner@@VCWindow@ATL@@V?$CWinTraits@$0FGAAAAAA@$0A@@3@@ATL@@@ATL@@QEAA@XZ 0000000180032dd0 f i RFIDScannerImpl.obj
 0001:00031e20       ??0?$CComPtr@UIAdviseSink@@@ATL@@QEAA@XZ 0000000180032e20 f i RFIDScannerImpl.obj
 0001:00031e60       ??0?$CComPtr@UIDataAdviseHolder@@@ATL@@QEAA@XZ 0000000180032e60 f i RFIDScannerImpl.obj
 0001:00031ea0       ??0?$CComPtr@UIOleAdviseHolder@@@ATL@@QEAA@XZ 0000000180032ea0 f i RFIDScannerImpl.obj
 0001:00031ee0       ??0?$CComPtr@UIOleClientSite@@@ATL@@QEAA@XZ 0000000180032ee0 f i RFIDScannerImpl.obj
 0001:00031f20       ??0?$CComPtr@UIOleInPlaceSiteWindowless@@@ATL@@QEAA@XZ 0000000180032f20 f i RFIDScannerImpl.obj
 0001:00031f60       ??0?$CComPtrBase@UIAdviseSink@@@ATL@@IEAA@XZ 0000000180032f60 f i RFIDScannerImpl.obj
 0001:00031f80       ??0?$CComPtrBase@UIDataAdviseHolder@@@ATL@@IEAA@XZ 0000000180032f80 f i RFIDScannerImpl.obj
 0001:00031fa0       ??0?$CComPtrBase@UIOleAdviseHolder@@@ATL@@IEAA@XZ 0000000180032fa0 f i RFIDScannerImpl.obj
 0001:00031fc0       ??0?$CComPtrBase@UIOleClientSite@@@ATL@@IEAA@XZ 0000000180032fc0 f i RFIDScannerImpl.obj
 0001:00031fe0       ??0?$CComPtrBase@UIOleInPlaceSiteWindowless@@@ATL@@IEAA@XZ 0000000180032fe0 f i RFIDScannerImpl.obj
 0001:00032000       ??0?$CComQIPtr@UIDispatch@@$1?_GUID_00020400_0000_0000_c000_000000000046@@3U__s_GUID@@B@ATL@@QEAA@XZ 0000000180033000 f i RFIDScannerImpl.obj
 0001:00032040       ??0?$CProxy_IOPOSEvents@VCOPOSRFIDScanner@@@@QEAA@PEAVCOPOSRFIDScanner@@@Z 0000000180033040 f i RFIDScannerImpl.obj
 0001:000320e0       ??0?$CWindowImpl@VCOPOSRFIDScanner@@VCWindow@ATL@@V?$CWinTraits@$0FGAAAAAA@$0A@@3@@ATL@@QEAA@XZ 00000001800330e0 f i RFIDScannerImpl.obj
 0001:00032120       ??0?$CWindowImplBaseT@VCWindow@ATL@@V?$CWinTraits@$0FGAAAAAA@$0A@@2@@ATL@@QEAA@XZ 0000000180033120 f i RFIDScannerImpl.obj
 0001:00032170       ??0?$CWindowImplRoot@VCWindow@ATL@@@ATL@@QEAA@XZ 0000000180033170 f i RFIDScannerImpl.obj
 0001:000321e0       ??0?$IConnectionPointContainerImpl@VCOPOSRFIDScanner@@@ATL@@QEAA@XZ 00000001800331e0 f i RFIDScannerImpl.obj
 0001:00032220       ??0?$IConnectionPointImpl@VCOPOSRFIDScanner@@$1?DIID__IOPOSRFIDScannerEvents@@3U_GUID@@BVCComDynamicUnkArray@ATL@@@ATL@@QEAA@XZ 0000000180033220 f i RFIDScannerImpl.obj
 0001:00032270       ??0?$IConnectionPointImpl@VCOPOSRFIDScanner@@$1?IID_IPropertyNotifySink@@3U_GUID@@BVCComDynamicUnkArray@ATL@@@ATL@@QEAA@XZ 0000000180033270 f i RFIDScannerImpl.obj
 0001:000322c0       ??0?$IDataObjectImpl@VCOPOSRFIDScanner@@@ATL@@QEAA@XZ 00000001800332c0 f i RFIDScannerImpl.obj
 0001:00032300       ??0?$IDispatchImpl@UIOPOSRFIDScanner@@$1?IID_IOPOSRFIDScanner@@3U_GUID@@B$1?LIBID_OposRFIDScanner_CCO@@3U3@B$00$0A@VCComTypeInfoHolder@ATL@@@ATL@@QEAA@XZ 0000000180033300 f i RFIDScannerImpl.obj
 0001:00032340       ??0?$IObjectSafetyImpl@VCOPOSRFIDScanner@@$02@ATL@@QEAA@XZ 0000000180033340 f i RFIDScannerImpl.obj
 0001:00032380       ??0?$IOleControlImpl@VCOPOSRFIDScanner@@@ATL@@QEAA@XZ 0000000180033380 f i RFIDScannerImpl.obj
 0001:000323c0       ??0?$IOleInPlaceActiveObjectImpl@VCOPOSRFIDScanner@@@ATL@@QEAA@XZ 00000001800333c0 f i RFIDScannerImpl.obj
 0001:00032400       ??0?$IOleInPlaceObjectWindowlessImpl@VCOPOSRFIDScanner@@@ATL@@QEAA@XZ 0000000180033400 f i RFIDScannerImpl.obj
 0001:00032440       ??0?$IOleObjectImpl@VCOPOSRFIDScanner@@@ATL@@QEAA@XZ 0000000180033440 f i RFIDScannerImpl.obj
 0001:00032480       ??0?$IPersistStorageImpl@VCOPOSRFIDScanner@@@ATL@@QEAA@XZ 0000000180033480 f i RFIDScannerImpl.obj
 0001:000324c0       ??0?$IPersistStreamInitImpl@VCOPOSRFIDScanner@@@ATL@@QEAA@XZ 00000001800334c0 f i RFIDScannerImpl.obj
 0001:00032500       ??0?$IPropertyNotifySinkCP@VCOPOSRFIDScanner@@VCComDynamicUnkArray@ATL@@@ATL@@QEAA@XZ 0000000180033500 f i RFIDScannerImpl.obj
 0001:00032540       ??0?$IProvideClassInfo2Impl@$1?CLSID_OPOSRFIDScanner@@3U_GUID@@B$1?DIID__IOPOSRFIDScannerEvents@@3U2@B$1?LIBID_OposRFIDScanner_CCO@@3U2@B$00$0A@VCComTypeInfoHolder@ATL@@@ATL@@QEAA@XZ 0000000180033540 f i RFIDScannerImpl.obj
 0001:00032580       ??0?$IQuickActivateImpl@VCOPOSRFIDScanner@@@ATL@@QEAA@XZ 0000000180033580 f i RFIDScannerImpl.obj
 0001:000325c0       ??0?$ISpecifyPropertyPagesImpl@VCOPOSRFIDScanner@@@ATL@@QEAA@XZ 00000001800335c0 f i RFIDScannerImpl.obj
 0001:00032600       ??0?$IViewObjectExImpl@VCOPOSRFIDScanner@@@ATL@@QEAA@XZ 0000000180033600 f i RFIDScannerImpl.obj
 0001:00032640       ??0?$_ICPLocator@$1?DIID__IOPOSRFIDScannerEvents@@3U_GUID@@B@ATL@@QEAA@XZ 0000000180033640 f i RFIDScannerImpl.obj
 0001:00032650       ??0?$_ICPLocator@$1?IID_IPropertyNotifySink@@3U_GUID@@B@ATL@@QEAA@XZ 0000000180033650 f i RFIDScannerImpl.obj
 0001:00032660       ??0CComControlBase@ATL@@QEAA@AEAPEAUHWND__@@@Z 0000000180033660 f i RFIDScannerImpl.obj
 0001:00032880       ??0CComDynamicUnkArray@ATL@@QEAA@XZ 0000000180033880 f i RFIDScannerImpl.obj
 0001:000328b0       ??0CDynamicStdCallThunk2@ATL@@QEAA@XZ 00000001800338b0 f i RFIDScannerImpl.obj
 0001:000328d0       ??0CMessageMap@ATL@@QEAA@XZ 00000001800338d0 f i RFIDScannerImpl.obj
 0001:000328e0       ??0CWindow@ATL@@QEAA@PEAUHWND__@@@Z 00000001800338e0 f i RFIDScannerImpl.obj
 0001:00032900       ??0CWndProcThunk@ATL@@QEAA@XZ 0000000180033900 f i RFIDScannerImpl.obj
 0001:00032940       ??0IConnectionPointContainer@@QEAA@XZ 0000000180033940 f i RFIDScannerImpl.obj
 0001:00032980       ??0IDataObject@@QEAA@XZ    0000000180033980 f i RFIDScannerImpl.obj
 0001:000329c0       ??0IDispatch@@QEAA@XZ      00000001800339c0 f i RFIDScannerImpl.obj
 0001:00032a00       ??0IOPOSRFIDScanner@@QEAA@XZ 0000000180033a00 f i RFIDScannerImpl.obj
 0001:00032a40       ??0IOPOSRFIDScanner_1_12@@QEAA@XZ 0000000180033a40 f i RFIDScannerImpl.obj
 0001:00032a80       ??0IObjectSafety@@QEAA@XZ  0000000180033a80 f i RFIDScannerImpl.obj
 0001:00032ac0       ??0IOleControl@@QEAA@XZ    0000000180033ac0 f i RFIDScannerImpl.obj
 0001:00032b00       ??0IOleInPlaceActiveObject@@QEAA@XZ 0000000180033b00 f i RFIDScannerImpl.obj
 0001:00032b40       ??0IOleInPlaceObject@@QEAA@XZ 0000000180033b40 f i RFIDScannerImpl.obj
 0001:00032b80       ??0IOleInPlaceObjectWindowless@@QEAA@XZ 0000000180033b80 f i RFIDScannerImpl.obj
 0001:00032bc0       ??0IOleObject@@QEAA@XZ     0000000180033bc0 f i RFIDScannerImpl.obj
 0001:00032c00       ??0IOleWindow@@QEAA@XZ     0000000180033c00 f i RFIDScannerImpl.obj
 0001:00032c40       ??0IPersist@@QEAA@XZ       0000000180033c40 f i RFIDScannerImpl.obj
 0001:00032c80       ??0IPersistStorage@@QEAA@XZ 0000000180033c80 f i RFIDScannerImpl.obj
 0001:00032cc0       ??0IPersistStreamInit@@QEAA@XZ 0000000180033cc0 f i RFIDScannerImpl.obj
 0001:00032d00       ??0IProvideClassInfo2@@QEAA@XZ 0000000180033d00 f i RFIDScannerImpl.obj
 0001:00032d40       ??0IProvideClassInfo@@QEAA@XZ 0000000180033d40 f i RFIDScannerImpl.obj
 0001:00032d80       ??0IQuickActivate@@QEAA@XZ 0000000180033d80 f i RFIDScannerImpl.obj
 0001:00032dc0       ??0ISpecifyPropertyPages@@QEAA@XZ 0000000180033dc0 f i RFIDScannerImpl.obj
 0001:00032e00       ??0IViewObject2@@QEAA@XZ   0000000180033e00 f i RFIDScannerImpl.obj
 0001:00032e40       ??0IViewObject@@QEAA@XZ    0000000180033e40 f i RFIDScannerImpl.obj
 0001:00032e80       ??0IViewObjectEx@@QEAA@XZ  0000000180033e80 f i RFIDScannerImpl.obj
 0001:00032ec0       ??0OposVariantResult@@QEAA@XZ 0000000180033ec0 f i RFIDScannerImpl.obj
 0001:00032f00       ??0_CW@@QEAA@PEBD@Z        0000000180033f00 f i RFIDScannerImpl.obj
 0001:00032f50       ??0_CW@@QEAA@PEB_W@Z       0000000180033f50 f i RFIDScannerImpl.obj
 0001:00032fa0       ??0_CWNCC@@QEAA@PEBD@Z     0000000180033fa0 f i RFIDScannerImpl.obj
 0001:00032fe0       ??1?$CComControl@VCOPOSRFIDScanner@@V?$CWindowImpl@VCOPOSRFIDScanner@@VCWindow@ATL@@V?$CWinTraits@$0FGAAAAAA@$0A@@3@@ATL@@@ATL@@UEAA@XZ 0000000180033fe0 f i RFIDScannerImpl.obj
 0001:00033020       ??1?$CComPtr@UIDataAdviseHolder@@@ATL@@QEAA@XZ 0000000180034020 f i RFIDScannerImpl.obj
 0001:00033050       ??1?$CComPtr@UIOleAdviseHolder@@@ATL@@QEAA@XZ 0000000180034050 f i RFIDScannerImpl.obj
 0001:00033080       ??1?$CComPtr@UIOleInPlaceSiteWindowless@@@ATL@@QEAA@XZ 0000000180034080 f i RFIDScannerImpl.obj
 0001:000330b0       ??1?$CComPtrBase@UIDataAdviseHolder@@@ATL@@QEAA@XZ 00000001800340b0 f i RFIDScannerImpl.obj
 0001:00033100       ??1?$CComPtrBase@UIOleAdviseHolder@@@ATL@@QEAA@XZ 0000000180034100 f i RFIDScannerImpl.obj
 0001:00033150       ??1?$CComPtrBase@UIOleInPlaceSiteWindowless@@@ATL@@QEAA@XZ 0000000180034150 f i RFIDScannerImpl.obj
 0001:000331a0       ??1?$CComQIPtr@UIDispatch@@$1?_GUID_00020400_0000_0000_c000_000000000046@@3U__s_GUID@@B@ATL@@QEAA@XZ 00000001800341a0 f i RFIDScannerImpl.obj
 0001:000331d0       ??1?$CProxy_IOPOSEvents@VCOPOSRFIDScanner@@@@QEAA@XZ 00000001800341d0 f i RFIDScannerImpl.obj
 0001:00033200       ??1?$CWindowImpl@VCOPOSRFIDScanner@@VCWindow@ATL@@V?$CWinTraits@$0FGAAAAAA@$0A@@3@@ATL@@UEAA@XZ 0000000180034200 f i RFIDScannerImpl.obj
 0001:00033230       ??1?$CWindowImplBaseT@VCWindow@ATL@@V?$CWinTraits@$0FGAAAAAA@$0A@@2@@ATL@@UEAA@XZ 0000000180034230 f i RFIDScannerImpl.obj
 0001:00033260       ??1?$CWindowImplRoot@VCWindow@ATL@@@ATL@@UEAA@XZ 0000000180034260 f i RFIDScannerImpl.obj
 0001:00033320       ??1?$IConnectionPointImpl@VCOPOSRFIDScanner@@$1?DIID__IOPOSRFIDScannerEvents@@3U_GUID@@BVCComDynamicUnkArray@ATL@@@ATL@@QEAA@XZ 0000000180034320 f i RFIDScannerImpl.obj
 0001:000333c0       ??1?$IConnectionPointImpl@VCOPOSRFIDScanner@@$1?IID_IPropertyNotifySink@@3U_GUID@@BVCComDynamicUnkArray@ATL@@@ATL@@QEAA@XZ 00000001800343c0 f i RFIDScannerImpl.obj
 0001:00033460       ??1?$IPropertyNotifySinkCP@VCOPOSRFIDScanner@@VCComDynamicUnkArray@ATL@@@ATL@@QEAA@XZ 0000000180034460 f i RFIDScannerImpl.obj
 0001:00033490       ??1CComControlBase@ATL@@UEAA@XZ 0000000180034490 f i RFIDScannerImpl.obj
 0001:00033580       ??1CComDynamicUnkArray@ATL@@QEAA@XZ 0000000180034580 f i RFIDScannerImpl.obj
 0001:000335c0       ??1CDynamicStdCallThunk2@ATL@@QEAA@XZ 00000001800345c0 f i RFIDScannerImpl.obj
 0001:00033600       ??1CWndProcThunk@ATL@@QEAA@XZ 0000000180034600 f i RFIDScannerImpl.obj
 0001:00033640       ??1OposVariantResult@@QEAA@XZ 0000000180034640 f i RFIDScannerImpl.obj
 0001:00033680       ??1_CW@@QEAA@XZ            0000000180034680 f i RFIDScannerImpl.obj
 0001:00033700       ??1_CWNCC@@QEAA@XZ         0000000180034700 f i RFIDScannerImpl.obj
 0001:00033730       ??B_CW@@QEAAPEB_WXZ        0000000180034730 f i RFIDScannerImpl.obj
 0001:00033780       ??B_CWNCC@@QEAAPEA_WXZ     0000000180034780 f i RFIDScannerImpl.obj
 0001:000337b0       ??_EOposVariant@@QEAAPEAXI@Z 00000001800347b0 f i RFIDScannerImpl.obj
 0001:00033860       ?EventClaim@COPOSRFIDScanner@@IEAAXXZ 0000000180034860 f i RFIDScannerImpl.obj
 0001:000338b0       ?EventClose@COPOSRFIDScanner@@IEAAXXZ 00000001800348b0 f i RFIDScannerImpl.obj
 0001:00033950       ?EventInit@COPOSRFIDScanner@@IEAAJXZ 0000000180034950 f i RFIDScannerImpl.obj
 0001:00033c00       ?EventOpen@COPOSRFIDScanner@@IEAAXXZ 0000000180034c00 f i RFIDScannerImpl.obj
 0001:00033c40       ?EventPreCloseRelease@COPOSRFIDScanner@@IEAAXXZ 0000000180034c40 f i RFIDScannerImpl.obj
 0001:00033cc0       ?EventUninit@COPOSRFIDScanner@@IEAAXXZ 0000000180034cc0 f i RFIDScannerImpl.obj
 0001:00033df0       ?EventWindowProc@COPOSRFIDScanner@@IEAA_JI_K_J@Z 0000000180034df0 f i RFIDScannerImpl.obj
 0001:00034020       ?FireEventCleanup@COPOSRFIDScanner@@IEAAXXZ 0000000180035020 f i RFIDScannerImpl.obj
 0001:00034070       ?FireEventSetup@COPOSRFIDScanner@@IEAA_NXZ 0000000180035070 f i RFIDScannerImpl.obj
 0001:000340f0       ?GetModuleInstance@CComModule@ATL@@QEAAPEAUHINSTANCE__@@XZ 00000001800350f0 f i RFIDScannerImpl.obj
 0001:00034100       ?SetRC@COPOSRFIDScanner@@IEAAJJ@Z 0000000180035100 f i RFIDScannerImpl.obj
 0001:00034120       ?s_EventWindowProc@COPOSRFIDScanner@@KA_JPEAUHWND__@@I_K_J@Z 0000000180035120 f i RFIDScannerImpl.obj
 0001:000341d0       _snwprintf                 00000001800351d0 f i RFIDScannerImpl.obj
 0001:00034260       _vfwprintf_l               0000000180035260 f i RFIDScannerImpl.obj
 0001:000342c0       _vsnwprintf                00000001800352c0 f i RFIDScannerImpl.obj
 0001:00034320       _vsnwprintf_l              0000000180035320 f i RFIDScannerImpl.obj
 0001:000343b0       vfwprintf                  00000001800353b0 f i RFIDScannerImpl.obj
 0001:000343f5       DebugBreak                 00000001800353f5 f   kernel32:KERNEL32.dll
 0001:000343fb       Sleep                      00000001800353fb f   kernel32:KERNEL32.dll
 0001:00034401       GetCurrentProcess          0000000180035401 f   kernel32:KERNEL32.dll
 0001:00034407       TerminateProcess           0000000180035407 f   kernel32:KERNEL32.dll
 0001:0003440d       MultiByteToWideChar        000000018003540d f   kernel32:KERNEL32.dll
 0001:00034413       WideCharToMultiByte        0000000180035413 f   kernel32:KERNEL32.dll
 0001:00034419       DecodePointer              0000000180035419 f   kernel32:KERNEL32.dll
 0001:0003441f       RaiseException             000000018003541f f   kernel32:KERNEL32.dll
 0001:00034425       GetLastError               0000000180035425 f   kernel32:KERNEL32.dll
 0001:0003442b       SetLastError               000000018003542b f   kernel32:KERNEL32.dll
 0001:00034431       InitializeCriticalSectionEx 0000000180035431 f   kernel32:KERNEL32.dll
 0001:00034437       DeleteCriticalSection      0000000180035437 f   kernel32:KERNEL32.dll
 0001:0003443d       EncodePointer              000000018003543d f   kernel32:KERNEL32.dll
 0001:00034443       EnterCriticalSection       0000000180035443 f   kernel32:KERNEL32.dll
 0001:00034449       LeaveCriticalSection       0000000180035449 f   kernel32:KERNEL32.dll
 0001:0003444f       ResetEvent                 000000018003544f f   kernel32:KERNEL32.dll
 0001:00034455       ReleaseMutex               0000000180035455 f   kernel32:KERNEL32.dll
 0001:0003445b       WaitForSingleObject        000000018003545b f   kernel32:KERNEL32.dll
 0001:00034461       GetCurrentThreadId         0000000180035461 f   kernel32:KERNEL32.dll
 0001:00034467       DisableThreadLibraryCalls  0000000180035467 f   kernel32:KERNEL32.dll
 0001:0003446d       FreeLibrary                000000018003546d f   kernel32:KERNEL32.dll
 0001:00034473       GetModuleFileNameW         0000000180035473 f   kernel32:KERNEL32.dll
 0001:00034479       GetModuleHandleW           0000000180035479 f   kernel32:KERNEL32.dll
 0001:0003447f       GetProcAddress             000000018003547f f   kernel32:KERNEL32.dll
 0001:00034485       LoadLibraryExW             0000000180035485 f   kernel32:KERNEL32.dll
 0001:0003448b       LoadResource               000000018003548b f   kernel32:KERNEL32.dll
 0001:00034491       SizeofResource             0000000180035491 f   kernel32:KERNEL32.dll
 0001:00034497       FindResourceW              0000000180035497 f   kernel32:KERNEL32.dll
 0001:0003449d       GlobalAlloc                000000018003549d f   kernel32:KERNEL32.dll
 0001:000344a3       GlobalUnlock               00000001800354a3 f   kernel32:KERNEL32.dll
 0001:000344a9       GlobalLock                 00000001800354a9 f   kernel32:KERNEL32.dll
 0001:000344af       MulDiv                     00000001800354af f   kernel32:KERNEL32.dll
 0001:000344b5       lstrcmpiW                  00000001800354b5 f   kernel32:KERNEL32.dll
 0001:000344bb       DeleteFileW                00000001800354bb f   kernel32:KERNEL32.dll
 0001:000344c1       CloseHandle                00000001800354c1 f   kernel32:KERNEL32.dll
 0001:000344c7       SetEvent                   00000001800354c7 f   kernel32:KERNEL32.dll
 0001:000344cd       CreateMutexW               00000001800354cd f   kernel32:KERNEL32.dll
 0001:000344d3       CreateEventW               00000001800354d3 f   kernel32:KERNEL32.dll
 0001:000344d9       GetCurrentProcessId        00000001800354d9 f   kernel32:KERNEL32.dll
 0001:000344df       LocalFree                  00000001800354df f   kernel32:KERNEL32.dll
 0001:000344e5       FormatMessageW             00000001800354e5 f   kernel32:KERNEL32.dll
 0001:000344eb       GetActiveWindow            00000001800354eb f   user32:USER32.dll
 0001:000344f1       MessageBoxW                00000001800354f1 f   user32:USER32.dll
 0001:000344f7       UnregisterClassW           00000001800354f7 f   user32:USER32.dll
 0001:000344fd       PostMessageW               00000001800354fd f   user32:USER32.dll
 0001:00034503       DefWindowProcW             0000000180035503 f   user32:USER32.dll
 0001:00034509       CallWindowProcW            0000000180035509 f   user32:USER32.dll
 0001:0003450f       RegisterClassExW           000000018003550f f   user32:USER32.dll
 0001:00034515       GetClassInfoExW            0000000180035515 f   user32:USER32.dll
 0001:0003451b       CreateWindowExW            000000018003551b f   user32:USER32.dll
 0001:00034521       IsWindow                   0000000180035521 f   user32:USER32.dll
 0001:00034527       IsChild                    0000000180035527 f   user32:USER32.dll
 0001:0003452d       DestroyWindow              000000018003552d f   user32:USER32.dll
 0001:00034533       ShowWindow                 0000000180035533 f   user32:USER32.dll
 0001:00034539       SetWindowPos               0000000180035539 f   user32:USER32.dll
 0001:0003453f       CharNextW                  000000018003553f f   user32:USER32.dll
 0001:00034545       SetFocus                   0000000180035545 f   user32:USER32.dll
 0001:0003454b       GetFocus                   000000018003554b f   user32:USER32.dll
 0001:00034551       GetKeyState                0000000180035551 f   user32:USER32.dll
 0001:00034557       GetDC                      0000000180035557 f   user32:USER32.dll
 0001:0003455d       ReleaseDC                  000000018003555d f   user32:USER32.dll
 0001:00034563       BeginPaint                 0000000180035563 f   user32:USER32.dll
 0001:00034569       EndPaint                   0000000180035569 f   user32:USER32.dll
 0001:0003456f       SetWindowRgn               000000018003556f f   user32:USER32.dll
 0001:00034575       InvalidateRect             0000000180035575 f   user32:USER32.dll
 0001:0003457b       GetClientRect              000000018003557b f   user32:USER32.dll
 0001:00034581       IntersectRect              0000000180035581 f   user32:USER32.dll
 0001:00034587       UnionRect                  0000000180035587 f   user32:USER32.dll
 0001:0003458d       OffsetRect                 000000018003558d f   user32:USER32.dll
 0001:00034593       EqualRect                  0000000180035593 f   user32:USER32.dll
 0001:00034599       PtInRect                   0000000180035599 f   user32:USER32.dll
 0001:0003459f       GetWindowLongPtrW          000000018003559f f   user32:USER32.dll
 0001:000345a5       SetWindowLongPtrW          00000001800355a5 f   user32:USER32.dll
 0001:000345ab       GetParent                  00000001800355ab f   user32:USER32.dll
 0001:000345b1       LoadCursorW                00000001800355b1 f   user32:USER32.dll
 0001:000345b7       PeekMessageW               00000001800355b7 f   user32:USER32.dll
 0001:000345bd       RegisterClassW             00000001800355bd f   user32:USER32.dll
 0001:000345c3       LoadBitmapW                00000001800355c3 f   user32:USER32.dll
 0001:000345c9       CloseMetaFile              00000001800355c9 f   gdi32:GDI32.dll
 0001:000345cf       CreateDCW                  00000001800355cf f   gdi32:GDI32.dll
 0001:000345d5       CreateMetaFileW            00000001800355d5 f   gdi32:GDI32.dll
 0001:000345db       CreateRectRgnIndirect      00000001800355db f   gdi32:GDI32.dll
 0001:000345e1       DeleteDC                   00000001800355e1 f   gdi32:GDI32.dll
 0001:000345e7       DeleteMetaFile             00000001800355e7 f   gdi32:GDI32.dll
 0001:000345ed       GetDeviceCaps              00000001800355ed f   gdi32:GDI32.dll
 0001:000345f3       RestoreDC                  00000001800355f3 f   gdi32:GDI32.dll
 0001:000345f9       SaveDC                     00000001800355f9 f   gdi32:GDI32.dll
 0001:000345ff       SetMapMode                 00000001800355ff f   gdi32:GDI32.dll
 0001:00034605       LPtoDP                     0000000180035605 f   gdi32:GDI32.dll
 0001:0003460b       SetViewportOrgEx           000000018003560b f   gdi32:GDI32.dll
 0001:00034611       SetWindowExtEx             0000000180035611 f   gdi32:GDI32.dll
 0001:00034617       SetWindowOrgEx             0000000180035617 f   gdi32:GDI32.dll
 0001:0003461d       BitBlt                     000000018003561d f   gdi32:GDI32.dll
 0001:00034623       CreateCompatibleDC         0000000180035623 f   gdi32:GDI32.dll
 0001:00034629       DeleteObject               0000000180035629 f   gdi32:GDI32.dll
 0001:0003462f       SelectObject               000000018003562f f   gdi32:GDI32.dll
 0001:00034635       GetObjectW                 0000000180035635 f   gdi32:GDI32.dll
 0001:0003463b       RegCloseKey                000000018003563b f   advapi32:ADVAPI32.dll
 0001:00034641       RegCreateKeyExW            0000000180035641 f   advapi32:ADVAPI32.dll
 0001:00034647       RegDeleteKeyW              0000000180035647 f   advapi32:ADVAPI32.dll
 0001:0003464d       RegDeleteValueW            000000018003564d f   advapi32:ADVAPI32.dll
 0001:00034653       RegEnumKeyExW              0000000180035653 f   advapi32:ADVAPI32.dll
 0001:00034659       RegOpenKeyExW              0000000180035659 f   advapi32:ADVAPI32.dll
 0001:0003465f       RegQueryInfoKeyW           000000018003565f f   advapi32:ADVAPI32.dll
 0001:00034665       RegSetValueExW             0000000180035665 f   advapi32:ADVAPI32.dll
 0001:0003466b       RegQueryValueExW           000000018003566b f   advapi32:ADVAPI32.dll
 0001:00034671       CoCreateInstance           0000000180035671 f   ole32:ole32.dll
 0001:00034677       StringFromGUID2            0000000180035677 f   ole32:ole32.dll
 0001:0003467d       CoTaskMemAlloc             000000018003567d f   ole32:ole32.dll
 0001:00034683       CoTaskMemRealloc           0000000180035683 f   ole32:ole32.dll
 0001:00034689       CoTaskMemFree              0000000180035689 f   ole32:ole32.dll
 0001:0003468f       ReadClassStm               000000018003568f f   ole32:ole32.dll
 0001:00034695       WriteClassStm              0000000180035695 f   ole32:ole32.dll
 0001:0003469b       CreateDataAdviseHolder     000000018003569b f   ole32:ole32.dll
 0001:000346a1       OleSaveToStream            00000001800356a1 f   ole32:ole32.dll
 0001:000346a7       CreateOleAdviseHolder      00000001800356a7 f   ole32:ole32.dll
 0001:000346ad       OleRegGetUserType          00000001800356ad f   ole32:ole32.dll
 0001:000346b3       OleRegGetMiscStatus        00000001800356b3 f   ole32:ole32.dll
 0001:000346b9       OleRegEnumVerbs            00000001800356b9 f   ole32:ole32.dll
 0001:000346bf       CLSIDFromProgID            00000001800356bf f   ole32:ole32.dll
 0001:000346c5       SysAllocString             00000001800356c5 f   oleaut32:OLEAUT32.dll
 0001:000346cb       SysAllocStringLen          00000001800356cb f   oleaut32:OLEAUT32.dll
 0001:000346d1       SysFreeString              00000001800356d1 f   oleaut32:OLEAUT32.dll
 0001:000346d7       SysStringLen               00000001800356d7 f   oleaut32:OLEAUT32.dll
 0001:000346dd       VariantClear               00000001800356dd f   oleaut32:OLEAUT32.dll
 0001:000346e3       VariantCopyInd             00000001800356e3 f   oleaut32:OLEAUT32.dll
 0001:000346e9       VariantChangeType          00000001800356e9 f   oleaut32:OLEAUT32.dll
 0001:000346ef       SysStringByteLen           00000001800356ef f   oleaut32:OLEAUT32.dll
 0001:000346f5       SysAllocStringByteLen      00000001800356f5 f   oleaut32:OLEAUT32.dll
 0001:000346fb       VariantInit                00000001800356fb f   oleaut32:OLEAUT32.dll
 0001:00034701       VarUI4FromStr              0000000180035701 f   oleaut32:OLEAUT32.dll
 0001:00034707       LoadTypeLib                0000000180035707 f   oleaut32:OLEAUT32.dll
 0001:0003470d       LoadRegTypeLib             000000018003570d f   oleaut32:OLEAUT32.dll
 0001:00034713       RegisterTypeLib            0000000180035713 f   oleaut32:OLEAUT32.dll
 0001:00034719       UnRegisterTypeLib          0000000180035719 f   oleaut32:OLEAUT32.dll
 0001:0003471f       OleCreatePropertyFrame     000000018003571f f   oleaut32:OLEAUT32.dll
 0001:00034730       _RTC_AllocaHelper          0000000180035730 f   LIBCMTD:stack.obj
 0001:00034770       _RTC_CheckStackVars        0000000180035770 f   LIBCMTD:stack.obj
 0001:00034800       _RTC_CheckStackVars2       0000000180035800 f   LIBCMTD:stack.obj
 0001:00034910       _CRT_RTC_INIT              0000000180035910 f   LIBCMTD:init.obj
 0001:00034920       _CRT_RTC_INITW             0000000180035920 f   LIBCMTD:init.obj
 0001:00034930       _RTC_InitBase              0000000180035930 f   LIBCMTD:init.obj
 0001:00034970       _RTC_Shutdown              0000000180035970 f   LIBCMTD:init.obj
 0001:000349a0       __GSHandlerCheck           00000001800359a0 f   LIBCMTD:gshandler.obj
 0001:000349e0       __GSHandlerCheckCommon     00000001800359e0 f   LIBCMTD:gshandler.obj
 0001:00034af0       __security_check_cookie    0000000180035af0 f   LIBCMTD:amdsecgs.obj
 0001:00034b20       ??_U@YAPEAX_K@Z            0000000180035b20 f   LIBCMTD:new_array.obj
 0001:00034b40       ??3@YAXPEAX_K@Z            0000000180035b40 f   LIBCMTD:delete_scalar_size.obj
 0001:00034b60       ??_V@YAXPEAX@Z             0000000180035b60 f   LIBCMTD:delete_array.obj
 0001:00034b80       ??_V@YAXPEAX_K@Z           0000000180035b80 f   LIBCMTD:delete_array_size.obj
 0001:00034ba0       ?configure_argv@__scrt_narrow_argv_policy@@SAHXZ 0000000180035ba0 f i LIBCMTD:utility.obj
 0001:00034c90       ?initialize_environment@__scrt_narrow_environment_policy@@SAHXZ 0000000180035c90 f i LIBCMTD:utility.obj
 0001:00034d30       NtCurrentTeb               0000000180035d30 f i LIBCMTD:utility.obj
 0001:00034d40       __scrt_acquire_startup_lock 0000000180035d40 f   LIBCMTD:utility.obj
 0001:00034db0       __scrt_dllmain_after_initialize_c 0000000180035db0 f   LIBCMTD:utility.obj
 0001:00034de0       __scrt_dllmain_before_initialize_c 0000000180035de0 f   LIBCMTD:utility.obj
 0001:00034e00       __scrt_dllmain_crt_thread_attach 0000000180035e00 f   LIBCMTD:utility.obj
 0001:00034e30       __scrt_dllmain_crt_thread_detach 0000000180035e30 f   LIBCMTD:utility.obj
 0001:00034e50       __scrt_dllmain_exception_filter 0000000180035e50 f   LIBCMTD:utility.obj
 0001:00034ec0       __scrt_dllmain_uninitialize_c 0000000180035ec0 f   LIBCMTD:utility.obj
 0001:00034ef0       __scrt_dllmain_uninitialize_critical 0000000180035ef0 f   LIBCMTD:utility.obj
 0001:00034f10       __scrt_initialize_crt      0000000180035f10 f   LIBCMTD:utility.obj
 0001:00034f60       __scrt_initialize_onexit_tables 0000000180035f60 f   LIBCMTD:utility.obj
 0001:00035070       __scrt_is_nonwritable_in_current_image 0000000180036070 f   LIBCMTD:utility.obj
 0001:00035100       __scrt_release_startup_lock 0000000180036100 f   LIBCMTD:utility.obj
 0001:00035130       __scrt_uninitialize_crt    0000000180036130 f   LIBCMTD:utility.obj
 0001:00035170       _onexit                    0000000180036170 f   LIBCMTD:utility.obj
 0001:000351f0       at_quick_exit              00000001800361f0 f   LIBCMTD:utility.obj
 0001:00035240       atexit                     0000000180036240 f   LIBCMTD:utility.obj
 0001:00035280       ??3@YAXPEAX@Z              0000000180036280 f   LIBCMTD:delete_scalar.obj
 0001:000352a0       __raise_securityfailure    00000001800362a0 f   LIBCMTD:gs_report.obj
 0001:000352e0       __report_gsfailure         00000001800362e0 f   LIBCMTD:gs_report.obj
 0001:000353c0       __report_rangecheckfailure 00000001800363c0 f   LIBCMTD:gs_report.obj
 0001:000353e0       __report_securityfailure   00000001800363e0 f   LIBCMTD:gs_report.obj
 0001:00035480       __report_securityfailureEx 0000000180036480 f   LIBCMTD:gs_report.obj
 0001:00035840       _Init_thread_abort         0000000180036840 f   LIBCMTD:thread_safe_statics.obj
 0001:00035870       _Init_thread_footer        0000000180036870 f   LIBCMTD:thread_safe_statics.obj
 0001:000358d0       _Init_thread_header        00000001800368d0 f   LIBCMTD:thread_safe_statics.obj
 0001:00035960       _Init_thread_lock          0000000180036960 f   LIBCMTD:thread_safe_statics.obj
 0001:00035980       _Init_thread_notify        0000000180036980 f   LIBCMTD:thread_safe_statics.obj
 0001:000359e0       _Init_thread_unlock        00000001800369e0 f   LIBCMTD:thread_safe_statics.obj
 0001:00035a00       _Init_thread_wait          0000000180036a00 f   LIBCMTD:thread_safe_statics.obj
 0001:00035ab0       ??2@YAPEAX_KAEBUnothrow_t@std@@@Z 0000000180036ab0 f   LIBCMTD:new_scalar_nothrow.obj
 0001:00035af0       ??_U@YAPEAX_KAEBUnothrow_t@std@@@Z 0000000180036af0 f   LIBCMTD:new_array_nothrow.obj
 0001:00035b20       __GSHandlerCheck_SEH       0000000180036b20 f   LIBCMTD:gshandlerseh.obj
 0001:00035bf0       _alloca_probe              0000000180036bf0 f   LIBCMTD:chkstk.obj
 0001:00035bf0       __chkstk                   0000000180036bf0 f   LIBCMTD:chkstk.obj
 0001:00036050       _CRT_INIT                  0000000180037050 f   LIBCMTD:dll_dllmain.obj
 0001:00036080       _DllMainCRTStartup         0000000180037080 f   LIBCMTD:dll_dllmain.obj
 0001:00036150       ?_RTC_AllocaFailure@@YAXPEAXPEAU_RTC_ALLOCA_NODE@@H@Z 0000000180037150 f   LIBCMTD:error.obj
 0001:000362b0       ?_RTC_Failure@@YAXPEAXH@Z  00000001800372b0 f   LIBCMTD:error.obj
 0001:00036300       ?_RTC_StackFailure@@YAXPEAXPEBD@Z 0000000180037300 f   LIBCMTD:error.obj
 0001:00036730       _RTC_UninitUse             0000000180037730 f   LIBCMTD:error.obj
 0001:00036800       _vsprintf_s_l              0000000180037800 f i LIBCMTD:error.obj
 0001:00036870       sprintf_s                  0000000180037870 f i LIBCMTD:error.obj
 0001:000368a0       ?_RTC_GetErrorFunc@@YAP6AHHPEBDH00ZZPEBX@Z 00000001800378a0 f   LIBCMTD:userapi.obj
 0001:000368b0       ?_RTC_GetErrorFuncW@@YAP6AHHPEB_WH00ZZPEBX@Z 00000001800378b0 f   LIBCMTD:userapi.obj
 0001:000368c0       _RTC_GetErrDesc            00000001800378c0 f   LIBCMTD:userapi.obj
 0001:000368e0       _RTC_NumErrors             00000001800378e0 f   LIBCMTD:userapi.obj
 0001:000368f0       _RTC_SetErrorFunc          00000001800378f0 f   LIBCMTD:userapi.obj
 0001:00036910       _RTC_SetErrorFuncW         0000000180037910 f   LIBCMTD:userapi.obj
 0001:00036930       _RTC_SetErrorType          0000000180037930 f   LIBCMTD:userapi.obj
 0001:00036950       ??2@YAPEAX_K@Z             0000000180037950 f   LIBCMTD:new_scalar.obj
 0001:000369a0       __isa_available_init       00000001800379a0 f   LIBCMTD:cpu_disp.obj
 0001:00036cf0       _get_startup_argv_mode     0000000180037cf0 f   LIBCMTD:argv_mode.obj
 0001:00036d00       __scrt_is_ucrt_dll_in_use  0000000180037d00 f   LIBCMTD:ucrt_detection.obj
 0001:00036d30       __crt_debugger_hook        0000000180037d30 f   LIBCMTD:utility_desktop.obj
 0001:00036d40       __scrt_fastfail            0000000180037d40 f   LIBCMTD:utility_desktop.obj
 0001:00036ee0       __scrt_get_show_window_mode 0000000180037ee0 f   LIBCMTD:utility_desktop.obj
 0001:00036f40       __scrt_initialize_mta      0000000180037f40 f   LIBCMTD:utility_desktop.obj
 0001:00036f50       __scrt_initialize_winrt    0000000180037f50 f   LIBCMTD:utility_desktop.obj
 0001:00036f60       __scrt_is_managed_app      0000000180037f60 f   LIBCMTD:utility_desktop.obj
 0001:00037010       __scrt_set_unhandled_exception_filter 0000000180038010 f   LIBCMTD:utility_desktop.obj
 0001:00037030       __scrt_exe_initialize_mta  0000000180038030 f   LIBCMTD:utility_desktop.obj
 0001:00037030       __scrt_stub_for_initialize_mta 0000000180038030 f   LIBCMTD:utility_desktop.obj
 0001:00037040       __scrt_unhandled_exception_filter 0000000180038040 f   LIBCMTD:utility_desktop.obj
 0001:000370c0       _guard_check_icall_nop     00000001800380c0 f i LIBCMTD:guard_support.obj
 0001:000370d0       ReadNoFence64              00000001800380d0 f i LIBCMTD:guard_support.obj
 0001:000370f0       ReadPointerNoFence         00000001800380f0 f i LIBCMTD:guard_support.obj
 0001:00037110       _guard_icall_checks_enforced 0000000180038110 f i LIBCMTD:guard_support.obj
 0001:00037150       _guard_rf_checks_enforced  0000000180038150 f i LIBCMTD:guard_support.obj
 0001:00037220       __security_init_cookie     0000000180038220 f   LIBCMTD:gs_support.obj
 0001:000372a0       ?__scrt_initialize_type_info@@YAXXZ 00000001800382a0 f   LIBCMTD:tncleanup.obj
 0001:000372c0       ?__scrt_uninitialize_type_info@@YAXXZ 00000001800382c0 f   LIBCMTD:tncleanup.obj
 0001:000372e0       __local_stdio_scanf_options 00000001800382e0 f i LIBCMTD:default_local_stdio_options.obj
 0001:000372f0       __scrt_initialize_default_local_stdio_options 00000001800382f0 f   LIBCMTD:default_local_stdio_options.obj
 0001:00037340       __scrt_get_dyn_tls_init_callback 0000000180038340 f   LIBCMTD:dyn_tls_init.obj
 0001:00037350       _RTC_Initialize            0000000180038350 f   LIBCMTD:initsect.obj
 0001:000373a0       _RTC_Terminate             00000001800383a0 f   LIBCMTD:initsect.obj
 0001:00037900       ?_RTC_GetSrcLine@@YAHPEAEPEA_WKPEAH1K@Z 0000000180038900 f   LIBCMTD:pdblkup.obj
 0001:00037cd0       ??0bad_alloc@std@@AEAA@QEBD@Z 0000000180038cd0 f i LIBCMTD:throw_bad_alloc.obj
 0001:00037d10       ??0bad_alloc@std@@QEAA@AEBV01@@Z 0000000180038d10 f i LIBCMTD:throw_bad_alloc.obj
 0001:00037d50       ??0bad_alloc@std@@QEAA@XZ  0000000180038d50 f i LIBCMTD:throw_bad_alloc.obj
 0001:00037d90       ??0bad_array_new_length@std@@QEAA@AEBV01@@Z 0000000180038d90 f i LIBCMTD:throw_bad_alloc.obj
 0001:00037dd0       ??0bad_array_new_length@std@@QEAA@XZ 0000000180038dd0 f i LIBCMTD:throw_bad_alloc.obj
 0001:00037e10       ??0exception@std@@QEAA@AEBV01@@Z 0000000180038e10 f i LIBCMTD:throw_bad_alloc.obj
 0001:00037e70       ??0exception@std@@QEAA@QEBDH@Z 0000000180038e70 f i LIBCMTD:throw_bad_alloc.obj
 0001:00037ec0       ??1bad_alloc@std@@UEAA@XZ  0000000180038ec0 f i LIBCMTD:throw_bad_alloc.obj
 0001:00037ee0       ??1bad_array_new_length@std@@UEAA@XZ 0000000180038ee0 f i LIBCMTD:throw_bad_alloc.obj
 0001:00037f00       ??1exception@std@@UEAA@XZ  0000000180038f00 f i LIBCMTD:throw_bad_alloc.obj
 0001:00037f30       ??_Gbad_alloc@std@@UEAAPEAXI@Z 0000000180038f30 f i LIBCMTD:throw_bad_alloc.obj
 0001:00037f30       ??_Ebad_alloc@std@@UEAAPEAXI@Z 0000000180038f30 f i LIBCMTD:throw_bad_alloc.obj
 0001:00037f70       ??_Gbad_array_new_length@std@@UEAAPEAXI@Z 0000000180038f70 f i LIBCMTD:throw_bad_alloc.obj
 0001:00037f70       ??_Ebad_array_new_length@std@@UEAAPEAXI@Z 0000000180038f70 f i LIBCMTD:throw_bad_alloc.obj
 0001:00037fb0       ??_Gexception@std@@UEAAPEAXI@Z 0000000180038fb0 f i LIBCMTD:throw_bad_alloc.obj
 0001:00037fb0       ??_Eexception@std@@UEAAPEAXI@Z 0000000180038fb0 f i LIBCMTD:throw_bad_alloc.obj
 0001:00037ff0       ?__scrt_throw_std_bad_alloc@@YAXXZ 0000000180038ff0 f   LIBCMTD:throw_bad_alloc.obj
 0001:00038020       ?__scrt_throw_std_bad_array_new_length@@YAXXZ 0000000180039020 f   LIBCMTD:throw_bad_alloc.obj
 0001:00038050       ?what@exception@std@@UEBAPEBDXZ 0000000180039050 f i LIBCMTD:throw_bad_alloc.obj
 0001:00038090       ??1type_info@@UEAA@XZ      0000000180039090 f   LIBCMTD:std_type_info_static.obj
 0001:000380b0       ??_Etype_info@@UEAAPEAXI@Z 00000001800390b0 f i LIBCMTD:std_type_info_static.obj
 0001:000380b0       ??_Gtype_info@@UEAAPEAXI@Z 00000001800390b0 f i LIBCMTD:std_type_info_static.obj
 0001:000380ec       ??$?2PEAUHINSTANCE__@@@Wrapper@?$CSimpleArray@PEAUHINSTANCE__@@V?$CSimpleArrayEqualHelper@PEAUHINSTANCE__@@@ATL@@@ATL@@SAPEAX_KPEAPEAUHINSTANCE__@@@Z 00000001800390ec f i atls:atlbase.obj
 0001:000380f0       ??0?$CSimpleArray@PEAUHINSTANCE__@@V?$CSimpleArrayEqualHelper@PEAUHINSTANCE__@@@ATL@@@ATL@@QEAA@XZ 00000001800390f0 f i atls:atlbase.obj
 0001:00038100       ??0CAtlBaseModule@ATL@@QEAA@XZ 0000000180039100 f   atls:atlbase.obj
 0001:000381a8       ??0Wrapper@?$CSimpleArray@PEAUHINSTANCE__@@V?$CSimpleArrayEqualHelper@PEAUHINSTANCE__@@@ATL@@@ATL@@QEAA@AEBQEAUHINSTANCE__@@@Z 00000001800391a8 f i atls:atlbase.obj
 0001:000381b4       ??0_ATL_BASE_MODULE70@ATL@@QEAA@XZ 00000001800391b4 f i atls:atlbase.obj
 0001:000381e0       ??1?$CSimpleArray@PEAUHINSTANCE__@@V?$CSimpleArrayEqualHelper@PEAUHINSTANCE__@@@ATL@@@ATL@@QEAA@XZ 00000001800391e0 f i atls:atlbase.obj
 0001:00038208       ??1CAtlBaseModule@ATL@@QEAA@XZ 0000000180039208 f   atls:atlbase.obj
 0001:0003823c       ??1_ATL_BASE_MODULE70@ATL@@QEAA@XZ 000000018003923c f i atls:atlbase.obj
 0001:00038268       ??A?$CSimpleArray@PEAUHINSTANCE__@@V?$CSimpleArrayEqualHelper@PEAUHINSTANCE__@@@ATL@@@ATL@@QEAAAEAPEAUHINSTANCE__@@H@Z 0000000180039268 f i atls:atlbase.obj
 0001:00038294       ?Add@?$CSimpleArray@PEAUHINSTANCE__@@V?$CSimpleArrayEqualHelper@PEAUHINSTANCE__@@@ATL@@@ATL@@QEAAHAEBQEAUHINSTANCE__@@@Z 0000000180039294 f i atls:atlbase.obj
 0001:00038348       ?AddResourceInstance@CAtlBaseModule@ATL@@QEAA_NPEAUHINSTANCE__@@@Z 0000000180039348 f   atls:atlbase.obj
 0001:00038390       ?GetHInstanceAt@CAtlBaseModule@ATL@@QEAAPEAUHINSTANCE__@@H@Z 0000000180039390 f   atls:atlbase.obj
 0001:00038408       ?GetSize@?$CSimpleArray@PEAUHINSTANCE__@@V?$CSimpleArrayEqualHelper@PEAUHINSTANCE__@@@ATL@@@ATL@@QEBAHXZ 0000000180039408 f i atls:atlbase.obj
 0001:0003840c       ?InternalSetAtIndex@?$CSimpleArray@PEAUHINSTANCE__@@V?$CSimpleArrayEqualHelper@PEAUHINSTANCE__@@@ATL@@@ATL@@QEAAXHAEBQEAUHINSTANCE__@@@Z 000000018003940c f i atls:atlbase.obj
 0001:00038424       ?RemoveAll@?$CSimpleArray@PEAUHINSTANCE__@@V?$CSimpleArrayEqualHelper@PEAUHINSTANCE__@@@ATL@@@ATL@@QEAAXXZ 0000000180039424 f i atls:atlbase.obj
 0001:0003844c       ?RemoveAt@?$CSimpleArray@PEAUHINSTANCE__@@V?$CSimpleArrayEqualHelper@PEAUHINSTANCE__@@@ATL@@@ATL@@QEAAHH@Z 000000018003944c f i atls:atlbase.obj
 0001:000384f0       ?RemoveResourceInstance@CAtlBaseModule@ATL@@QEAA_NPEAUHINSTANCE__@@@Z 00000001800394f0 f   atls:atlbase.obj
 0001:00038570       ?memmove_s@Checked@ATL@@YAXPEAX_KPEBX1@Z 0000000180039570 f i atls:atlbase.obj
 0001:00038a18       ?GetCodeAddress@_stdcallthunk@ATL@@QEAAPEAXXZ 0000000180039a18 f i atls:atlthunk.obj
 0001:00038a44       ?Init@_stdcallthunk@ATL@@QEAAH_KPEAX@Z 0000000180039a44 f i atls:atlthunk.obj
 0001:00038a94       ?__AllocStdCallThunk@@YAPEAXXZ 0000000180039a94 f   atls:atlthunk.obj
 0001:00038a9c       ?__AllocStdCallThunk@ATL@@YAPEAXXZ 0000000180039a9c f   atls:atlthunk.obj
 0001:00038aa4       ?__AllocStdCallThunk_cmn@@YAPEAXXZ 0000000180039aa4 f   atls:atlthunk.obj
 0001:00038b7c       ?__FreeStdCallThunk@@YAXPEAX@Z 0000000180039b7c f   atls:atlthunk.obj
 0001:00038b9c       ?__FreeStdCallThunk@ATL@@YAXPEAX@Z 0000000180039b9c f   atls:atlthunk.obj
 0001:00038bbc       ?__FreeStdCallThunk_cmn@@YAXPEAX@Z 0000000180039bbc f   atls:atlthunk.obj
 0001:00038c5c       AtlThunk_AllocateData      0000000180039c5c f   atls:atlthunk.obj
 0001:00038cd8       AtlThunk_DataToCode        0000000180039cd8 f   atls:atlthunk.obj
 0001:00038d2c       AtlThunk_FreeData          0000000180039d2c f   atls:atlthunk.obj
 0001:00038d8c       AtlThunk_InitData          0000000180039d8c f   atls:atlthunk.obj
 0001:00038e50       memset_repmovs             0000000180039e50 f   libvcruntimed:memset.obj
 0001:00038e70       memset                     0000000180039e70 f   libvcruntimed:memset.obj
 0001:00039000       ??$__crt_interlocked_exchange_pointer@$$A6AXXZP6AXXZ@@YAP6AXXZPEDS6AXXZQ6AXXZ@Z 000000018003a000 f i libvcruntimed:purevirt.obj
 0001:00039020       ??$__crt_interlocked_read_pointer@$$A6AXXZ@@YAP6AXXZPEDS6AXXZ@Z 000000018003a020 f i libvcruntimed:purevirt.obj
 0001:00039040       ?__crt_interlocked_read_64@@YA_JPED_J@Z 000000018003a040 f i libvcruntimed:purevirt.obj
 0001:00039060       _get_purecall_handler      000000018003a060 f   libvcruntimed:purevirt.obj
 0001:00039080       _purecall                  000000018003a080 f   libvcruntimed:purevirt.obj
 0001:000390c0       _set_purecall_handler      000000018003a0c0 f   libvcruntimed:purevirt.obj
 0001:000390f0       memcmp                     000000018003a0f0 f   libvcruntimed:memcmp.obj
 0001:000391d0       memcpy_repmovs             000000018003a1d0 f   libvcruntimed:memcpy.obj
 0001:000391f0       memcpy                     000000018003a1f0 f   libvcruntimed:memcpy.obj
 0001:000391f0       memmove                    000000018003a1f0 f   libvcruntimed:memcpy.obj
 0001:000395d0       wcsstr                     000000018003a5d0 f   libvcruntimed:wcsstr.obj
 0001:00039c30       __vcrt_initialize          000000018003ac30 f   libvcruntimed:initialization.obj
 0001:00039c70       __vcrt_thread_attach       000000018003ac70 f   libvcruntimed:initialization.obj
 0001:00039c90       __vcrt_thread_detach       000000018003ac90 f   libvcruntimed:initialization.obj
 0001:00039cb0       __vcrt_uninitialize        000000018003acb0 f   libvcruntimed:initialization.obj
 0001:00039cd0       __vcrt_uninitialize_critical 000000018003acd0 f   libvcruntimed:initialization.obj
 0001:00039cf0       __C_specific_handler       000000018003acf0 f   libvcruntimed:riscchandler.obj
 0001:0003a160       ??$?0AEAViterator@TryBlockMap4@FH4@@AEAV012@$0A@@?$pair@Viterator@TryBlockMap4@FH4@@V123@@std@@QEAA@AEAViterator@TryBlockMap4@FH4@@0@Z 000000018003b160 f i libvcruntimed:risctrnsctrl.obj
 0001:0003a1c0       ??$?0AEAViterator@TryBlockMap@__FrameHandler3@@AEAV012@$0A@@?$pair@Viterator@TryBlockMap@__FrameHandler3@@V123@@std@@QEAA@AEAViterator@TryBlockMap@__FrameHandler3@@0@Z 000000018003b1c0 f i libvcruntimed:risctrnsctrl.obj
 0001:0003a380       ??$_CallSETranslator@V__FrameHandler3@@@@YAHPEAUEHExceptionRecord@@PEA_KPEAU_CONTEXT@@PEAU_xDISPATCHER_CONTEXT@@PEBU_s_FuncInfo@@K1@Z 000000018003b380 f i libvcruntimed:risctrnsctrl.obj
 0001:0003a410       ??$_CallSETranslator@V__FrameHandler4@@@@YAHPEAUEHExceptionRecord@@PEA_KPEAU_CONTEXT@@PEAU_xDISPATCHER_CONTEXT@@PEAUFuncInfo4@FH4@@K1@Z 000000018003b410 f i libvcruntimed:risctrnsctrl.obj
 0001:0003a4a0       ??$forward@AEAViterator@TryBlockMap4@FH4@@@std@@YAAEAViterator@TryBlockMap4@FH4@@AEAV123@@Z 000000018003b4a0 f i libvcruntimed:risctrnsctrl.obj
 0001:0003a4b0       ??$forward@AEAViterator@TryBlockMap@__FrameHandler3@@@std@@YAAEAViterator@TryBlockMap@__FrameHandler3@@AEAV123@@Z 000000018003b4b0 f i libvcruntimed:risctrnsctrl.obj
 0001:0003a4c0       ??0FuncInfo4@FH4@@QEAA@XZ  000000018003b4c0 f i libvcruntimed:risctrnsctrl.obj
 0001:0003a530       ??0FuncInfoHeader@FH4@@QEAA@XZ 000000018003b530 f i libvcruntimed:risctrnsctrl.obj
 0001:0003a550       ??0iterator@TryBlockMap4@FH4@@QEAA@AEAV12@I@Z 000000018003b550 f i libvcruntimed:risctrnsctrl.obj
 0001:0003a580       ??0iterator@TryBlockMap@__FrameHandler3@@QEAA@AEAV12@I@Z 000000018003b580 f i libvcruntimed:risctrnsctrl.obj
 0001:0003a5b0       ??4iterator@TryBlockMap4@FH4@@QEAAAEAV012@AEBV012@@Z 000000018003b5b0 f i libvcruntimed:risctrnsctrl.obj
 0001:0003a5d0       ??9iterator@TryBlockMap4@FH4@@QEBA_NAEBV012@@Z 000000018003b5d0 f i libvcruntimed:risctrnsctrl.obj
 0001:0003a610       ??Diterator@TryBlockMap4@FH4@@QEAA?AUTryBlockMapEntry4@2@XZ 000000018003b610 f i libvcruntimed:risctrnsctrl.obj
 0001:0003a640       ??Eiterator@TryBlockMap4@FH4@@QEAAAEAV012@XZ 000000018003b640 f i libvcruntimed:risctrnsctrl.obj
 0001:0003a680       ?CatchTryBlock@__FrameHandler3@@SAPEBU_s_TryBlockMapEntry@@PEBU_s_FuncInfo@@H@Z 000000018003b680 f   libvcruntimed:risctrnsctrl.obj
 0001:0003a710       ?DecompFuncInfo@FH4@@YA_JPEAEAEAUFuncInfo4@1@_KH@Z 000000018003b710 f i libvcruntimed:risctrnsctrl.obj
 0001:0003a750       ?DecompFuncInfo@FH4@@YA_JPEAEAEAUFuncInfo4@1@_KH_N@Z 000000018003b750 f i libvcruntimed:risctrnsctrl.obj
 0001:0003a920       ?DecompTryBlock@TryBlockMap4@FH4@@AEAAXXZ 000000018003b920 f i libvcruntimed:risctrnsctrl.obj
 0001:0003a9a0       ?ExecutionInCatch@__FrameHandler3@@SA_NPEAU_xDISPATCHER_CONTEXT@@PEBU_s_FuncInfo@@@Z 000000018003b9a0 f   libvcruntimed:risctrnsctrl.obj
 0001:0003a9f0       ?ExecutionInCatch@__FrameHandler4@@SA_NPEAU_xDISPATCHER_CONTEXT@@PEAUFuncInfo4@FH4@@@Z 000000018003b9f0 f   libvcruntimed:risctrnsctrl.obj
 0001:0003aa10       ?FrameUnwindToEmptyState@__FrameHandler3@@SAXPEA_KPEAU_xDISPATCHER_CONTEXT@@PEBU_s_FuncInfo@@@Z 000000018003ba10 f   libvcruntimed:risctrnsctrl.obj
 0001:0003aab0       ?FrameUnwindToEmptyState@__FrameHandler4@@SAXPEA_KPEAU_xDISPATCHER_CONTEXT@@PEAUFuncInfo4@FH4@@@Z 000000018003bab0 f   libvcruntimed:risctrnsctrl.obj
 0001:0003ab00       ?GetEstablisherFrame@__FrameHandler3@@SAPEA_KPEA_KPEAU_xDISPATCHER_CONTEXT@@PEBU_s_FuncInfo@@0@Z 000000018003bb00 f   libvcruntimed:risctrnsctrl.obj
 0001:0003ac70       ?GetEstablisherFrame@__FrameHandler4@@SAPEA_KPEA_KPEAU_xDISPATCHER_CONTEXT@@PEAUFuncInfo4@FH4@@0@Z 000000018003bc70 f   libvcruntimed:risctrnsctrl.obj
 0001:0003ace0       ?GetRangeOfTrysToCheck@__FrameHandler3@@SA?AU?$pair@Viterator@TryBlockMap@__FrameHandler3@@V123@@std@@AEAVTryBlockMap@1@HPEAU_xDISPATCHER_CONTEXT@@PEBU_s_FuncInfo@@H@Z 000000018003bce0 f   libvcruntimed:risctrnsctrl.obj
 0001:0003af20       ?GetRangeOfTrysToCheck@__FrameHandler4@@SA?AU?$pair@Viterator@TryBlockMap4@FH4@@V123@@std@@AEAVTryBlockMap4@FH4@@HPEAU_xDISPATCHER_CONTEXT@@PEAUFuncInfo4@5@H@Z 000000018003bf20 f   libvcruntimed:risctrnsctrl.obj
 0001:0003b0d0       ?ReadInt@FH4@@YAHPEAPEAE@Z 000000018003c0d0 f i libvcruntimed:risctrnsctrl.obj
 0001:0003b110       ?ReadUnsigned@FH4@@YAIPEAPEAE@Z 000000018003c110 f i libvcruntimed:risctrnsctrl.obj
 0001:0003b1a0       ?UnwindNestedFrames@__FrameHandler3@@SAXPEA_KPEAUEHExceptionRecord@@PEAU_CONTEXT@@0PEAXPEBU_s_FuncInfo@@HHPEBU_s_HandlerType@@PEAU_xDISPATCHER_CONTEXT@@E@Z 000000018003c1a0 f   libvcruntimed:risctrnsctrl.obj
 0001:0003b310       ?UnwindNestedFrames@__FrameHandler4@@SAXPEA_KPEAUEHExceptionRecord@@PEAU_CONTEXT@@0PEAXPEAUFuncInfo4@FH4@@HHPEAUHandlerType4@5@PEAU_xDISPATCHER_CONTEXT@@E@Z 000000018003c310 f   libvcruntimed:risctrnsctrl.obj
 0001:0003b4e0       ?begin@TryBlockMap4@FH4@@QEAA?AViterator@12@XZ 000000018003c4e0 f i libvcruntimed:risctrnsctrl.obj
 0001:0003b510       ?end@TryBlockMap4@FH4@@QEAA?AViterator@12@XZ 000000018003c510 f i libvcruntimed:risctrnsctrl.obj
 0001:0003b540       ?imageRelToByteBuffer@FH4@@YAPEAE_KH@Z 000000018003c540 f i libvcruntimed:risctrnsctrl.obj
 0001:0003b560       ?incrementToSentinel@iterator@TryBlockMap4@FH4@@QEAAXXZ 000000018003c560 f i libvcruntimed:risctrnsctrl.obj
 0001:0003b580       ?setBuffer@TryBlockMap4@FH4@@QEAAXViterator@12@@Z 000000018003c580 f i libvcruntimed:risctrnsctrl.obj
 0001:0003b5f0       _CreateFrameInfo           000000018003c5f0 f   libvcruntimed:risctrnsctrl.obj
 0001:0003b660       _FindAndUnlinkFrame        000000018003c660 f   libvcruntimed:risctrnsctrl.obj
 0001:0003b6f0       _GetImageBase              000000018003c6f0 f   libvcruntimed:risctrnsctrl.obj
 0001:0003b710       _GetThrowImageBase         000000018003c710 f   libvcruntimed:risctrnsctrl.obj
 0001:0003b730       _SetImageBase              000000018003c730 f   libvcruntimed:risctrnsctrl.obj
 0001:0003b750       _SetThrowImageBase         000000018003c750 f   libvcruntimed:risctrnsctrl.obj
 0001:0003b770       __CxxFrameHandler          000000018003c770 f   libvcruntimed:risctrnsctrl.obj
 0001:0003b7b0       __CxxFrameHandler2         000000018003c7b0 f   libvcruntimed:risctrnsctrl.obj
 0001:0003b7f0       __CxxFrameHandler3         000000018003c7f0 f   libvcruntimed:risctrnsctrl.obj
 0001:0003b8d0       __CxxFrameHandler4         000000018003c8d0 f   libvcruntimed:risctrnsctrl.obj
 0001:0003b9e0       __C_specific_handler_noexcept 000000018003c9e0 f   libvcruntimed:chandler_noexcept.obj
 0001:0003ba50       ?<lambda_invoker_cdecl>@_Closure_wrapper_b75ec0ea_1@@CAPEAX_K@Z 000000018003ca50 f i libvcruntimed:std_type_info.obj
 0001:0003ba70       ?<lambda_invoker_cdecl>@_Closure_wrapper_b75ec0ea_2@@CAXQEAX@Z 000000018003ca70 f i libvcruntimed:std_type_info.obj
 0001:0003ba90       ??$?RD@__crt_internal_free_policy@@QEBAXQEBD@Z 000000018003ca90 f i libvcruntimed:std_type_info.obj
 0001:0003bac0       ??$?RX@__crt_internal_free_policy@@QEBAXQEBX@Z 000000018003cac0 f i libvcruntimed:std_type_info.obj
 0001:0003baf0       ??$__crt_interlocked_compare_exchange_pointer@$$CBDPEAD$$T@@YAPEBDPEDSEBDQEAD$$T@Z 000000018003caf0 f i libvcruntimed:std_type_info.obj
 0001:0003bb30       ??$__crt_interlocked_read_pointer@$$CBD@@YAPEBDPEDSEBD@Z 000000018003cb30 f i libvcruntimed:std_type_info.obj
 0001:0003bb50       ??0?$__crt_unique_heap_ptr@DU__crt_internal_free_policy@@@@QEAA@QEAD@Z 000000018003cb50 f i libvcruntimed:std_type_info.obj
 0001:0003bb70       ??0?$__crt_unique_heap_ptr@XU__crt_internal_free_policy@@@@QEAA@QEAX@Z 000000018003cb70 f i libvcruntimed:std_type_info.obj
 0001:0003bb90       ??1?$__crt_unique_heap_ptr@DU__crt_internal_free_policy@@@@QEAA@XZ 000000018003cb90 f i libvcruntimed:std_type_info.obj
 0001:0003bbb0       ??1?$__crt_unique_heap_ptr@XU__crt_internal_free_policy@@@@QEAA@XZ 000000018003cbb0 f i libvcruntimed:std_type_info.obj
 0001:0003bbd0       ??B?$__crt_unique_heap_ptr@DU__crt_internal_free_policy@@@@QEBA_NXZ 000000018003cbd0 f i libvcruntimed:std_type_info.obj
 0001:0003bbf0       ??B?$__crt_unique_heap_ptr@XU__crt_internal_free_policy@@@@QEBA_NXZ 000000018003cbf0 f i libvcruntimed:std_type_info.obj
 0001:0003bc10       ??B_Closure_wrapper_b75ec0ea_1@@QEBAP6APEAX_K@ZXZ 000000018003cc10 f i libvcruntimed:std_type_info.obj
 0001:0003bc20       ??B_Closure_wrapper_b75ec0ea_2@@QEBAP6AXQEAX@ZXZ 000000018003cc20 f i libvcruntimed:std_type_info.obj
 0001:0003bc90       ?detach@?$__crt_unique_heap_ptr@XU__crt_internal_free_policy@@@@QEAAPEAXXZ 000000018003cc90 f i libvcruntimed:std_type_info.obj
 0001:0003bcc0       ?get@?$__crt_unique_heap_ptr@DU__crt_internal_free_policy@@@@QEBAPEADXZ 000000018003ccc0 f i libvcruntimed:std_type_info.obj
 0001:0003bcd0       ?get@?$__crt_unique_heap_ptr@XU__crt_internal_free_policy@@@@QEBAPEAXXZ 000000018003ccd0 f i libvcruntimed:std_type_info.obj
 0001:0003bce0       ?is_valid@?$__crt_unique_heap_ptr@DU__crt_internal_free_policy@@@@QEBA_NXZ 000000018003cce0 f i libvcruntimed:std_type_info.obj
 0001:0003bd10       ?is_valid@?$__crt_unique_heap_ptr@XU__crt_internal_free_policy@@@@QEBA_NXZ 000000018003cd10 f i libvcruntimed:std_type_info.obj
 0001:0003bd40       ?release@?$__crt_unique_heap_ptr@DU__crt_internal_free_policy@@@@QEAAXXZ 000000018003cd40 f i libvcruntimed:std_type_info.obj
 0001:0003bd70       ?release@?$__crt_unique_heap_ptr@XU__crt_internal_free_policy@@@@QEAAXXZ 000000018003cd70 f i libvcruntimed:std_type_info.obj
 0001:0003bda0       __std_type_info_compare    000000018003cda0 f   libvcruntimed:std_type_info.obj
 0001:0003bde0       __std_type_info_destroy_list 000000018003cde0 f   libvcruntimed:std_type_info.obj
 0001:0003be40       __std_type_info_hash       000000018003ce40 f   libvcruntimed:std_type_info.obj
 0001:0003bef0       __std_type_info_name       000000018003cef0 f   libvcruntimed:std_type_info.obj
 0001:0003c1a0       __vcrt_GetModuleFileNameW  000000018003d1a0 f   libvcruntimed:winapi_thunks.obj
 0001:0003c1d0       __vcrt_GetModuleHandleW    000000018003d1d0 f   libvcruntimed:winapi_thunks.obj
 0001:0003c1f0       __vcrt_LoadLibraryExW      000000018003d1f0 f   libvcruntimed:winapi_thunks.obj
 0001:0003c220       ??$?RD@__crt_public_free_policy@@QEBAXQEBD@Z 000000018003d220 f i libvcruntimed:std_exception.obj
 0001:0003c240       ??0?$__crt_unique_heap_ptr@DU__crt_public_free_policy@@@@QEAA@QEAD@Z 000000018003d240 f i libvcruntimed:std_exception.obj
 0001:0003c260       ??1?$__crt_unique_heap_ptr@DU__crt_public_free_policy@@@@QEAA@XZ 000000018003d260 f i libvcruntimed:std_exception.obj
 0001:0003c280       ??B?$__crt_unique_heap_ptr@DU__crt_public_free_policy@@@@QEBA_NXZ 000000018003d280 f i libvcruntimed:std_exception.obj
 0001:0003c2a0       ?detach@?$__crt_unique_heap_ptr@DU__crt_public_free_policy@@@@QEAAPEADXZ 000000018003d2a0 f i libvcruntimed:std_exception.obj
 0001:0003c2d0       ?get@?$__crt_unique_heap_ptr@DU__crt_public_free_policy@@@@QEBAPEADXZ 000000018003d2d0 f i libvcruntimed:std_exception.obj
 0001:0003c2e0       ?is_valid@?$__crt_unique_heap_ptr@DU__crt_public_free_policy@@@@QEBA_NXZ 000000018003d2e0 f i libvcruntimed:std_exception.obj
 0001:0003c310       ?release@?$__crt_unique_heap_ptr@DU__crt_public_free_policy@@@@QEAAXXZ 000000018003d310 f i libvcruntimed:std_exception.obj
 0001:0003c340       __std_exception_copy       000000018003d340 f   libvcruntimed:std_exception.obj
 0001:0003c480       __std_exception_destroy    000000018003d480 f   libvcruntimed:std_exception.obj
 0001:0003c4c0       _CxxThrowException         000000018003d4c0 f   libvcruntimed:throw.obj
 0001:0003c610       ??$?RU__vcrt_ptd@@@__crt_internal_free_policy@@QEBAXQEBU__vcrt_ptd@@@Z 000000018003d610 f i libvcruntimed:per_thread_data.obj
 0001:0003c640       ??0?$__crt_unique_heap_ptr@U__vcrt_ptd@@U__crt_internal_free_policy@@@@QEAA@QEAU__vcrt_ptd@@@Z 000000018003d640 f i libvcruntimed:per_thread_data.obj
 0001:0003c680       ??1?$__crt_unique_heap_ptr@U__vcrt_ptd@@U__crt_internal_free_policy@@@@QEAA@XZ 000000018003d680 f i libvcruntimed:per_thread_data.obj
 0001:0003c6c0       ??B?$__crt_unique_heap_ptr@U__vcrt_ptd@@U__crt_internal_free_policy@@@@QEBA_NXZ 000000018003d6c0 f i libvcruntimed:per_thread_data.obj
 0001:0003c6e0       ?detach@?$__crt_unique_heap_ptr@U__vcrt_ptd@@U__crt_internal_free_policy@@@@QEAAPEAU__vcrt_ptd@@XZ 000000018003d6e0 f i libvcruntimed:per_thread_data.obj
 0001:0003c710       ?get@?$__crt_unique_heap_ptr@U__vcrt_ptd@@U__crt_internal_free_policy@@@@QEBAPEAU__vcrt_ptd@@XZ 000000018003d710 f i libvcruntimed:per_thread_data.obj
 0001:0003c720       ?is_valid@?$__crt_unique_heap_ptr@U__vcrt_ptd@@U__crt_internal_free_policy@@@@QEBA_NXZ 000000018003d720 f i libvcruntimed:per_thread_data.obj
 0001:0003c750       ?release@?$__crt_unique_heap_ptr@U__vcrt_ptd@@U__crt_internal_free_policy@@@@QEAAXXZ 000000018003d750 f i libvcruntimed:per_thread_data.obj
 0001:0003c7c0       __vcrt_freefls             000000018003d7c0 f   libvcruntimed:per_thread_data.obj
 0001:0003c800       __vcrt_freeptd             000000018003d800 f   libvcruntimed:per_thread_data.obj
 0001:0003c860       __vcrt_getptd              000000018003d860 f   libvcruntimed:per_thread_data.obj
 0001:0003c890       __vcrt_getptd_noexit       000000018003d890 f   libvcruntimed:per_thread_data.obj
 0001:0003ca30       __vcrt_getptd_noinit       000000018003da30 f   libvcruntimed:per_thread_data.obj
 0001:0003ca90       __vcrt_initialize_ptd      000000018003da90 f   libvcruntimed:per_thread_data.obj
 0001:0003cae0       __vcrt_uninitialize_ptd    000000018003dae0 f   libvcruntimed:per_thread_data.obj
 0001:0003cb10       __vcrt_initialize_locks    000000018003db10 f   libvcruntimed:locks.obj
 0001:0003cb80       __vcrt_lock                000000018003db80 f   libvcruntimed:locks.obj
 0001:0003cbb0       __vcrt_uninitialize_locks  000000018003dbb0 f   libvcruntimed:locks.obj
 0001:0003cc10       __vcrt_unlock              000000018003dc10 f   libvcruntimed:locks.obj
 0001:0003cc50       _NLG_Notify                000000018003dc50 f   libvcruntimed:notify.obj
 0001:0003cc70       __NLG_Dispatch2            000000018003dc70 f   libvcruntimed:notify.obj
 0001:0003cc80       __NLG_Return2              000000018003dc80 f   libvcruntimed:notify.obj
 0001:0003cca0       __except_validate_context_record 000000018003dca0 f   libvcruntimed:jbcxrval.obj
 0001:0003cd00       __except_validate_jump_buffer 000000018003dd00 f   libvcruntimed:jbcxrval.obj
 0001:0003cd20       __except_validate_jump_buffer_common 000000018003dd20 f i libvcruntimed:jbcxrval.obj
 0001:0003cda0       __DestructExceptionObject  000000018003dda0 f   libvcruntimed:ehhelpers.obj
 0001:0003cea0       ?_CallMemberFunction0@@YAXQEAX0@Z 000000018003dea0 f i libvcruntimed:ehhelpers.obj
 0001:0003ced0       ?raw_name@type_info@@QEBAPEBDXZ 000000018003ded0 f i libvcruntimed:ehhelpers.obj
 0001:0003cee0       _IsExceptionObjectToBeDestroyed 000000018003dee0 f   libvcruntimed:ehhelpers.obj
 0001:0003cf30       _SetWinRTOutOfMemoryExceptionCallback 000000018003df30 f   libvcruntimed:ehhelpers.obj
 0001:0003cf50       __AdjustPointer            000000018003df50 f   libvcruntimed:ehhelpers.obj
 0001:0003cfd0       __FrameUnwindFilter        000000018003dfd0 f   libvcruntimed:ehhelpers.obj
 0001:0003d060       __GetPlatformExceptionInfo 000000018003e060 f   libvcruntimed:ehhelpers.obj
 0001:0003d110       __current_exception        000000018003e110 f   libvcruntimed:ehhelpers.obj
 0001:0003d130       __current_exception_context 000000018003e130 f   libvcruntimed:ehhelpers.obj
 0001:0003d150       __processing_throw         000000018003e150 f   libvcruntimed:ehhelpers.obj
 0001:0003d170       __std_terminate            000000018003e170 f   libvcruntimed:ehhelpers.obj
 0001:0003d180       _is_exception_typeof       000000018003e180 f   libvcruntimed:ehhelpers.obj
 0001:0003d2d0       ?GetCurrentState@__FrameHandler3@@SAHPEA_KPEAU_xDISPATCHER_CONTEXT@@PEBU_s_FuncInfo@@@Z 000000018003e2d0 f   libvcruntimed:ehstate.obj
 0001:0003d330       ?GetUnwindTryBlock@__FrameHandler3@@SAHPEA_KPEAU_xDISPATCHER_CONTEXT@@PEBU_s_FuncInfo@@@Z 000000018003e330 f   libvcruntimed:ehstate.obj
 0001:0003d380       ?SetState@__FrameHandler3@@SAXPEA_KPEBU_s_FuncInfo@@H@Z 000000018003e380 f   libvcruntimed:ehstate.obj
 0001:0003d3b0       ?SetUnwindTryBlock@__FrameHandler3@@SAXPEA_KPEAU_xDISPATCHER_CONTEXT@@PEBU_s_FuncInfo@@H@Z 000000018003e3b0 f   libvcruntimed:ehstate.obj
 0001:0003d420       ?StateFromControlPc@__FrameHandler3@@SAHPEBU_s_FuncInfo@@PEAU_xDISPATCHER_CONTEXT@@@Z 000000018003e420 f   libvcruntimed:ehstate.obj
 0001:0003d460       ?StateFromControlPc@__FrameHandler4@@SAHPEAUFuncInfo4@FH4@@PEAU_xDISPATCHER_CONTEXT@@@Z 000000018003e460 f   libvcruntimed:ehstate.obj
 0001:0003d4a0       ?StateFromIp@__FrameHandler3@@SAHPEBU_s_FuncInfo@@PEAU_xDISPATCHER_CONTEXT@@_K@Z 000000018003e4a0 f   libvcruntimed:ehstate.obj
 0001:0003d590       ?StateFromIp@__FrameHandler4@@SAHPEAUFuncInfo4@FH4@@PEAU_xDISPATCHER_CONTEXT@@_K@Z 000000018003e590 f   libvcruntimed:ehstate.obj
 0001:0003d680       ?__FuncRelToRealOffset@@YA_KPEAU_xDISPATCHER_CONTEXT@@I@Z 000000018003e680 f i libvcruntimed:ehstate.obj
 0001:0003d6b0       ?__RVAtoRealOffset@@YA_KPEAU_xDISPATCHER_CONTEXT@@H@Z 000000018003e6b0 f i libvcruntimed:ehstate.obj
 0001:0003fa40       ??$TypeMatchHelper@V__FrameHandler3@@@@YAHPEBU_s_HandlerType@@PEBU_s_CatchableType@@PEBU_s_ThrowInfo@@@Z 0000000180040a40 f i libvcruntimed:frame.obj
 0001:0003fc40       ??$TypeMatchHelper@V__FrameHandler4@@@@YAHPEAUHandlerType4@FH4@@PEBU_s_CatchableType@@PEBU_s_ThrowInfo@@@Z 0000000180040c40 f i libvcruntimed:frame.obj
 0001:0003fe50       ??$__InternalCxxFrameHandler@V__FrameHandler3@@@@YA?AW4_EXCEPTION_DISPOSITION@@PEAUEHExceptionRecord@@PEA_KPEAU_CONTEXT@@PEAU_xDISPATCHER_CONTEXT@@PEBU_s_FuncInfo@@H1E@Z 0000000180040e50 f i libvcruntimed:frame.obj
 0001:000402f0       ??$__InternalCxxFrameHandler@V__FrameHandler4@@@@YA?AW4_EXCEPTION_DISPOSITION@@PEAUEHExceptionRecord@@PEA_KPEAU_CONTEXT@@PEAU_xDISPATCHER_CONTEXT@@PEAUFuncInfo4@FH4@@H1E@Z 00000001800412f0 f i libvcruntimed:frame.obj
 0001:000407b0       ??0HandlerMap4@FH4@@QEAA@PEBUTryBlockMapEntry4@1@_KH@Z 00000001800417b0 f i libvcruntimed:frame.obj
 0001:00040870       ??0HandlerMap@__FrameHandler3@@QEAA@PEBU_s_TryBlockMapEntry@@_KI@Z 0000000180041870 f i libvcruntimed:frame.obj
 0001:000408c0       ??0HandlerType4@FH4@@QEAA@XZ 00000001800418c0 f i libvcruntimed:frame.obj
 0001:000408e0       ??0TryBlockMap4@FH4@@QEAA@PEBUFuncInfo4@1@_K@Z 00000001800418e0 f i libvcruntimed:frame.obj
 0001:00040970       ??0TryBlockMap@__FrameHandler3@@QEAA@PEBU_s_FuncInfo@@_K@Z 0000000180041970 f i libvcruntimed:frame.obj
 0001:000409a0       ??0UWMap4@FH4@@QEAA@PEBUFuncInfo4@1@_K@Z 00000001800419a0 f i libvcruntimed:frame.obj
 0001:00040a10       ??0bad_exception@std@@QEAA@AEBV01@@Z 0000000180041a10 f i libvcruntimed:frame.obj
 0001:00040a50       ??0bad_exception@std@@QEAA@XZ 0000000180041a50 f i libvcruntimed:frame.obj
 0001:00040a90       ??0iterator@HandlerMap4@FH4@@QEAA@AEAV12@I@Z 0000000180041a90 f i libvcruntimed:frame.obj
 0001:00040ac0       ??0iterator@HandlerMap@__FrameHandler3@@QEAA@AEAV12@I@Z 0000000180041ac0 f i libvcruntimed:frame.obj
 0001:00040af0       ??0iterator@UWMap4@FH4@@QEAA@AEAV12@PEAE@Z 0000000180041af0 f i libvcruntimed:frame.obj
 0001:00040b20       ??1bad_exception@std@@UEAA@XZ 0000000180041b20 f i libvcruntimed:frame.obj
 0001:00040b40       ??4iterator@UWMap4@FH4@@QEAAAEAV012@AEBV012@@Z 0000000180041b40 f i libvcruntimed:frame.obj
 0001:00040b90       ??8iterator@HandlerMap4@FH4@@QEBA_NAEBV012@@Z 0000000180041b90 f i libvcruntimed:frame.obj
 0001:00040bd0       ??8iterator@HandlerMap@__FrameHandler3@@QEBA_NAEBV012@@Z 0000000180041bd0 f i libvcruntimed:frame.obj
 0001:00040c10       ??8type_info@@QEBA_NAEBV0@@Z 0000000180041c10 f i libvcruntimed:frame.obj
 0001:00040c60       ??9iterator@HandlerMap4@FH4@@QEBA_NAEBV012@@Z 0000000180041c60 f i libvcruntimed:frame.obj
 0001:00040ca0       ??9iterator@HandlerMap@__FrameHandler3@@QEBA_NAEBV012@@Z 0000000180041ca0 f i libvcruntimed:frame.obj
 0001:00040ce0       ??Diterator@HandlerMap4@FH4@@QEAA?AUHandlerType4@2@XZ 0000000180041ce0 f i libvcruntimed:frame.obj
 0001:00040d10       ??Diterator@HandlerMap@__FrameHandler3@@QEAA?BU_s_HandlerType@@XZ 0000000180041d10 f i libvcruntimed:frame.obj
 0001:00040d50       ??Diterator@TryBlockMap@__FrameHandler3@@QEAA?BU_s_TryBlockMapEntry@@XZ 0000000180041d50 f i libvcruntimed:frame.obj
 0001:00040da0       ??Diterator@UWMap4@FH4@@QEAA?AUUnwindMapEntry4@2@XZ 0000000180041da0 f i libvcruntimed:frame.obj
 0001:00040e20       ??Eiterator@HandlerMap4@FH4@@QEAAAEAV012@XZ 0000000180041e20 f i libvcruntimed:frame.obj
 0001:00040e60       ??Eiterator@HandlerMap@__FrameHandler3@@QEAAAEAV012@XZ 0000000180041e60 f i libvcruntimed:frame.obj
 0001:00040e80       ??Eiterator@TryBlockMap@__FrameHandler3@@QEAAAEAV012@XZ 0000000180041e80 f i libvcruntimed:frame.obj
 0001:00040ea0       ??Eiterator@UWMap4@FH4@@QEAAAEAV012@XZ 0000000180041ea0 f i libvcruntimed:frame.obj
 0001:00040ee0       ??Giterator@UWMap4@FH4@@QEBA_JAEBV012@@Z 0000000180041ee0 f i libvcruntimed:frame.obj
 0001:00040f00       ??Miterator@TryBlockMap4@FH4@@QEBA_NAEBV012@@Z 0000000180041f00 f i libvcruntimed:frame.obj
 0001:00040f40       ??Miterator@TryBlockMap@__FrameHandler3@@QEBA_NAEBV012@@Z 0000000180041f40 f i libvcruntimed:frame.obj
 0001:00040f80       ??Oiterator@UWMap4@FH4@@QEBA_NAEBV012@@Z 0000000180041f80 f i libvcruntimed:frame.obj
 0001:00040fc0       ??Piterator@UWMap4@FH4@@QEBA_NAEBV012@@Z 0000000180041fc0 f i libvcruntimed:frame.obj
 0001:00041000       ??_Ebad_exception@std@@UEAAPEAXI@Z 0000000180042000 f i libvcruntimed:frame.obj
 0001:00041000       ??_Gbad_exception@std@@UEAAPEAXI@Z 0000000180042000 f i libvcruntimed:frame.obj
 0001:00041040       ?BuildCatchObject@__FrameHandler3@@SAXPEAUEHExceptionRecord@@PEAXPEBU_s_HandlerType@@PEBU_s_CatchableType@@@Z 0000000180042040 f   libvcruntimed:frame.obj
 0001:00041080       ?BuildCatchObject@__FrameHandler4@@SAXPEAUEHExceptionRecord@@PEAXPEAUHandlerType4@FH4@@PEBU_s_CatchableType@@@Z 0000000180042080 f   libvcruntimed:frame.obj
 0001:000410c0       ?BuildCatchObjectHelper@__FrameHandler3@@SAHPEAUEHExceptionRecord@@PEAXPEBU_s_HandlerType@@PEBU_s_CatchableType@@@Z 00000001800420c0 f   libvcruntimed:frame.obj
 0001:00041100       ?BuildCatchObjectHelper@__FrameHandler4@@SAHPEAUEHExceptionRecord@@PEAXPEAUHandlerType4@FH4@@PEBU_s_CatchableType@@@Z 0000000180042100 f   libvcruntimed:frame.obj
 0001:00041140       ?CxxCallCatchBlock@__FrameHandler3@@SAPEAXPEAU_EXCEPTION_RECORD@@@Z 0000000180042140 f   libvcruntimed:frame.obj
 0001:000413a0       ?CxxCallCatchBlock@__FrameHandler4@@SAPEAXPEAU_EXCEPTION_RECORD@@@Z 00000001800423a0 f   libvcruntimed:frame.obj
 0001:000416d0       ?DecompHandler@HandlerMap4@FH4@@AEAAXXZ 00000001800426d0 f i libvcruntimed:frame.obj
 0001:00041aa0       ?FrameUnwindToState@__FrameHandler3@@SAXPEA_KPEAU_xDISPATCHER_CONTEXT@@PEBU_s_FuncInfo@@H@Z 0000000180042aa0 f   libvcruntimed:frame.obj
 0001:00041cf0       ?FrameUnwindToState@__FrameHandler4@@SAXPEA_KPEAU_xDISPATCHER_CONTEXT@@PEAUFuncInfo4@FH4@@H@Z 0000000180042cf0 f   libvcruntimed:frame.obj
 0001:00042040       ?GetHandlerSearchState@__FrameHandler3@@SAHPEA_KPEAU_xDISPATCHER_CONTEXT@@PEBU_s_FuncInfo@@@Z 0000000180043040 f i libvcruntimed:frame.obj
 0001:000420f0       ?GetHandlerSearchState@__FrameHandler4@@SAHPEA_KPEAU_xDISPATCHER_CONTEXT@@PEAUFuncInfo4@FH4@@@Z 00000001800430f0 f i libvcruntimed:frame.obj
 0001:00042170       ?GetMaxState@__FrameHandler3@@SAHPEAU_xDISPATCHER_CONTEXT@@PEBU_s_FuncInfo@@@Z 0000000180043170 f i libvcruntimed:frame.obj
 0001:00042190       ?GetMaxState@__FrameHandler4@@SAHPEAU_xDISPATCHER_CONTEXT@@PEAUFuncInfo4@FH4@@@Z 0000000180043190 f i libvcruntimed:frame.obj
 0001:000423d0       ?ReadEntry@UWMap4@FH4@@AEAAXPEAPEAE@Z 00000001800433d0 f i libvcruntimed:frame.obj
 0001:00042480       ?TypeMatch@__FrameHandler3@@SAHPEBU_s_HandlerType@@PEBU_s_CatchableType@@PEBU_s_ThrowInfo@@@Z 0000000180043480 f   libvcruntimed:frame.obj
 0001:000424b0       ?TypeMatch@__FrameHandler4@@SAHPEAUHandlerType4@FH4@@PEBU_s_CatchableType@@PEBU_s_ThrowInfo@@@Z 00000001800434b0 f   libvcruntimed:frame.obj
 0001:000424e0       ?WalkBack@UWMap4@FH4@@AEAAXPEAPEAE@Z 00000001800434e0 f i libvcruntimed:frame.obj
 0001:00042530       ?WalkBack@iterator@UWMap4@FH4@@QEAAXXZ 0000000180043530 f i libvcruntimed:frame.obj
 0001:00042570       ?WalkForward@UWMap4@FH4@@AEAAXPEAPEAE@Z 0000000180043570 f i libvcruntimed:frame.obj
 0001:000425a0       ?_CallMemberFunction1@@YAXQEAX00@Z 00000001800435a0 f i libvcruntimed:frame.obj
 0001:000425e0       ?_CallMemberFunction2@@YAXQEAX00H@Z 00000001800435e0 f i libvcruntimed:frame.obj
 0001:00042630       ?_ValidateExecute@@YA_NP6A_JXZ@Z 0000000180043630 f i libvcruntimed:frame.obj
 0001:00042650       ?_ValidateRead@@YA_NPEBXI@Z 0000000180043650 f i libvcruntimed:frame.obj
 0001:00042670       ?_ValidateWrite@@YA_NPEAXI@Z 0000000180043670 f i libvcruntimed:frame.obj
 0001:000426d0       ?begin@HandlerMap4@FH4@@QEAA?AViterator@12@XZ 00000001800436d0 f i libvcruntimed:frame.obj
 0001:00042700       ?begin@HandlerMap@__FrameHandler3@@QEAA?AViterator@12@XZ 0000000180043700 f i libvcruntimed:frame.obj
 0001:00042730       ?begin@UWMap4@FH4@@QEAA?AViterator@12@XZ 0000000180043730 f i libvcruntimed:frame.obj
 0001:00042760       ?end@HandlerMap4@FH4@@QEAA?AViterator@12@XZ 0000000180043760 f i libvcruntimed:frame.obj
 0001:00042790       ?end@HandlerMap@__FrameHandler3@@QEAA?AViterator@12@XZ 0000000180043790 f i libvcruntimed:frame.obj
 0001:000427c0       ?getESTypes@__FrameHandler3@@SAPEBU_s_ESTypeList@@PEBU_s_FuncInfo@@@Z 00000001800437c0 f i libvcruntimed:frame.obj
 0001:00042800       ?getESTypes@__FrameHandler4@@SAPEBU_s_ESTypeList@@PEAUFuncInfo4@FH4@@@Z 0000000180043800 f i libvcruntimed:frame.obj
 0001:00042810       ?getLastEntry@HandlerMap4@FH4@@QEAAPEAUHandlerType4@2@XZ 0000000180043810 f i libvcruntimed:frame.obj
 0001:00042850       ?getLastEntry@HandlerMap@__FrameHandler3@@QEAAPEBU_s_HandlerType@@XZ 0000000180043850 f i libvcruntimed:frame.obj
 0001:00042870       ?getMagicNum@__FrameHandler3@@SAIPEBU_s_FuncInfo@@@Z 0000000180043870 f i libvcruntimed:frame.obj
 0001:00042890       ?getMagicNum@__FrameHandler4@@SAIPEAUFuncInfo4@FH4@@@Z 0000000180043890 f i libvcruntimed:frame.obj
 0001:000428a0       ?getNumTryBlocks@TryBlockMap4@FH4@@QEAAIXZ 00000001800438a0 f i libvcruntimed:frame.obj
 0001:000428b0       ?getNumTryBlocks@TryBlockMap@__FrameHandler3@@QEAAIXZ 00000001800438b0 f i libvcruntimed:frame.obj
 0001:000428d0       ?getStartStop@UWMap4@FH4@@QEAAXHHAEAViterator@12@0@Z 00000001800438d0 f i libvcruntimed:frame.obj
 0001:000429f0       ?getStateFromIterators@UWMap4@FH4@@SAHAEBViterator@12@H0H0@Z 00000001800439f0 f i libvcruntimed:frame.obj
 0001:00042b30       ?isEHs@__FrameHandler3@@SA_NPEBU_s_FuncInfo@@@Z 0000000180043b30 f i libvcruntimed:frame.obj
 0001:00042b70       ?isEHs@__FrameHandler4@@SA_NPEAUFuncInfo4@FH4@@@Z 0000000180043b70 f i libvcruntimed:frame.obj
 0001:00042b90       ?isNoExcept@__FrameHandler3@@SA_NPEBU_s_FuncInfo@@@Z 0000000180043b90 f i libvcruntimed:frame.obj
 0001:00042bd0       ?isNoExcept@__FrameHandler4@@SA_NPEAUFuncInfo4@FH4@@@Z 0000000180043bd0 f i libvcruntimed:frame.obj
 0001:00042bf0       ?reset@HandlerType4@FH4@@QEAAXXZ 0000000180043bf0 f i libvcruntimed:frame.obj
 0001:00042c50       ?resetBuffer@HandlerMap4@FH4@@QEAAXXZ 0000000180043c50 f i libvcruntimed:frame.obj
 0001:00042c70       ?setBuffer@HandlerMap4@FH4@@QEAAXI@Z 0000000180043c70 f i libvcruntimed:frame.obj
 0001:00042cd0       __BuildCatchObject         0000000180043cd0 f   libvcruntimed:frame.obj
 0001:00042d10       __BuildCatchObjectHelper   0000000180043d10 f   libvcruntimed:frame.obj
 0001:00042d50       __TypeMatch                0000000180043d50 f   libvcruntimed:frame.obj
 0001:00042d80       __vcrt_EncodePointer       0000000180043d80 f i libvcruntimed:frame.obj
 0001:00042da0       ??0Block@_HeapManager@@QEAA@XZ 0000000180043da0 f i libvcruntimed:undname.obj
 0001:00042dc0       ??0DName@@QEAA@AEAPEBDD@Z  0000000180043dc0 f   libvcruntimed:undname.obj
 0001:00043070       ??0DName@@QEAA@AEBV0@@Z    0000000180044070 f i libvcruntimed:undname.obj
 0001:000430a0       ??0DName@@QEAA@D@Z         00000001800440a0 f   libvcruntimed:undname.obj
 0001:000430f0       ??0DName@@QEAA@PEAV0@@Z    00000001800440f0 f   libvcruntimed:undname.obj
 0001:000431d0       ??0DName@@QEAA@PEBD@Z      00000001800441d0 f   libvcruntimed:undname.obj
 0001:00043240       ??0DName@@QEAA@W4DNameStatus@@@Z 0000000180044240 f   libvcruntimed:undname.obj
 0001:000432f0       ??0DName@@QEAA@XZ          00000001800442f0 f i libvcruntimed:undname.obj
 0001:00043320       ??0DName@@QEAA@_J@Z        0000000180044320 f   libvcruntimed:undname.obj
 0001:00043430       ??0DName@@QEAA@_K@Z        0000000180044430 f   libvcruntimed:undname.obj
 0001:00043500       ??0DNameNode@@IEAA@XZ      0000000180044500 f i libvcruntimed:undname.obj
 0001:00043520       ??0Replicator@@QEAA@XZ     0000000180044520 f i libvcruntimed:undname.obj
 0001:00043560       ??0UnDecorator@@QEAA@PEBDP6APEADJ@ZK@Z 0000000180044560 f i libvcruntimed:undname.obj
 0001:00043610       ??0charNode@@QEAA@D@Z      0000000180044610 f i libvcruntimed:undname.obj
 0001:00043650       ??0pDNameNode@@QEAA@PEAVDName@@@Z 0000000180044650 f   libvcruntimed:undname.obj
 0001:000436d0       ??0pairNode@@QEAA@PEBVDNameNode@@0@Z 00000001800446d0 f i libvcruntimed:undname.obj
 0001:00043730       ??0pcharNode@@QEAA@PEBDH@Z 0000000180044730 f   libvcruntimed:undname.obj
 0001:00043820       ??2@YAPEAX_KAEAV_HeapManager@@H@Z 0000000180044820 f i libvcruntimed:undname.obj
 0001:00043850       ??4DName@@QEAAAEAV0@AEBV0@@Z 0000000180044850 f   libvcruntimed:undname.obj
 0001:00043880       ??4DName@@QEAAAEAV0@D@Z    0000000180044880 f i libvcruntimed:undname.obj
 0001:000438d0       ??4DName@@QEAAAEAV0@PEAV0@@Z 00000001800448d0 f   libvcruntimed:undname.obj
 0001:000439a0       ??4DName@@QEAAAEAV0@PEBD@Z 00000001800449a0 f   libvcruntimed:undname.obj
 0001:000439f0       ??4DName@@QEAAAEAV0@W4DNameStatus@@@Z 00000001800449f0 f   libvcruntimed:undname.obj
 0001:00043a80       ??AReplicator@@QEBA?AVDName@@H@Z 0000000180044a80 f   libvcruntimed:undname.obj
 0001:00043b10       ??H@YA?AVDName@@DAEBV0@@Z  0000000180044b10 f i libvcruntimed:undname.obj
 0001:00043b60       ??H@YA?AVDName@@PEBDAEBV0@@Z 0000000180044b60 f i libvcruntimed:undname.obj
 0001:00043bb0       ??H@YA?AVDName@@W4DNameStatus@@AEBV0@@Z 0000000180044bb0 f i libvcruntimed:undname.obj
 0001:00043c00       ??HDName@@QEBA?AV0@AEBV0@@Z 0000000180044c00 f   libvcruntimed:undname.obj
 0001:00043c50       ??HDName@@QEBA?AV0@D@Z     0000000180044c50 f   libvcruntimed:undname.obj
 0001:00043ca0       ??HDName@@QEBA?AV0@PEAV0@@Z 0000000180044ca0 f   libvcruntimed:undname.obj
 0001:00043cf0       ??HDName@@QEBA?AV0@PEBD@Z  0000000180044cf0 f   libvcruntimed:undname.obj
 0001:00043d40       ??HDName@@QEBA?AV0@W4DNameStatus@@@Z 0000000180044d40 f   libvcruntimed:undname.obj
 0001:00043d90       ??YDName@@QEAAAEAV0@AEBV0@@Z 0000000180044d90 f   libvcruntimed:undname.obj
 0001:00043e10       ??YDName@@QEAAAEAV0@D@Z    0000000180044e10 f   libvcruntimed:undname.obj
 0001:00043eb0       ??YDName@@QEAAAEAV0@PEAV0@@Z 0000000180044eb0 f   libvcruntimed:undname.obj
 0001:00043f90       ??YDName@@QEAAAEAV0@PEBD@Z 0000000180044f90 f   libvcruntimed:undname.obj
 0001:00044060       ??YDName@@QEAAAEAV0@W4DNameStatus@@@Z 0000000180045060 f   libvcruntimed:undname.obj
 0001:000440d0       ??YReplicator@@QEAAAEAV0@AEBVDName@@@Z 00000001800450d0 f   libvcruntimed:undname.obj
 0001:00044190       ??_5DName@@QEAAAEAV0@AEBV0@@Z 0000000180045190 f   libvcruntimed:undname.obj
 0001:00044200       ?Constructor@_HeapManager@@QEAAXP6APEAX_K@ZP6AXPEAX@Z@Z 0000000180045200 f i libvcruntimed:undname.obj
 0001:00044260       ?Destructor@_HeapManager@@QEAAXXZ 0000000180045260 f i libvcruntimed:undname.obj
 0001:000442e0       ?UScore@UnDecorator@@SAPEBDW4Tokens@@@Z 00000001800452e0 f   libvcruntimed:undname.obj
 0001:00044320       ?append@DName@@AEAAXPEBVDNameNode@@@Z 0000000180045320 f   libvcruntimed:undname.obj
 0001:000443d0       ?composeDeclaration@UnDecorator@@CA?AVDName@@AEBV2@@Z 00000001800453d0 f i libvcruntimed:undname.obj
 0001:000465a0       ?dbGetString@DName@@QEBAPEADXZ 00000001800475a0 f   libvcruntimed:undname.obj
 0001:000465d0       ?doAccessSpecifiers@UnDecorator@@SAHXZ 00000001800475d0 f i libvcruntimed:undname.obj
 0001:00046600       ?doAllocationLanguage@UnDecorator@@SAHXZ 0000000180047600 f i libvcruntimed:undname.obj
 0001:00046630       ?doAllocationModel@UnDecorator@@SAHXZ 0000000180047630 f i libvcruntimed:undname.obj
 0001:00046660       ?doEcsu@UnDecorator@@SAHXZ 0000000180047660 f i libvcruntimed:undname.obj
 0001:00046690       ?doEllipsis@UnDecorator@@SAHXZ 0000000180047690 f i libvcruntimed:undname.obj
 0001:000466c0       ?doFunctionReturns@UnDecorator@@SAHXZ 00000001800476c0 f i libvcruntimed:undname.obj
 0001:000466f0       ?doMSKeywords@UnDecorator@@SAHXZ 00000001800476f0 f i libvcruntimed:undname.obj
 0001:00046720       ?doMemberTypes@UnDecorator@@SAHXZ 0000000180047720 f i libvcruntimed:undname.obj
 0001:00046750       ?doNameOnly@UnDecorator@@SAHXZ 0000000180047750 f i libvcruntimed:undname.obj
 0001:00046760       ?doNoIdentCharCheck@UnDecorator@@SAHXZ 0000000180047760 f i libvcruntimed:undname.obj
 0001:00046770       ?doPchar@DName@@AEAAXPEBDH@Z 0000000180047770 f   libvcruntimed:undname.obj
 0001:00046900       ?doPtr64@UnDecorator@@SAHXZ 0000000180047900 f i libvcruntimed:undname.obj
 0001:00046930       ?doRestrictionSpec@UnDecorator@@SAHXZ 0000000180047930 f i libvcruntimed:undname.obj
 0001:00046960       ?doThisTypes@UnDecorator@@SAHXZ 0000000180047960 f i libvcruntimed:undname.obj
 0001:00046990       ?doThrowTypes@UnDecorator@@SAHXZ 0000000180047990 f i libvcruntimed:undname.obj
 0001:000469c0       ?doTypeOnly@UnDecorator@@SAHXZ 00000001800479c0 f i libvcruntimed:undname.obj
 0001:000469d0       ?doUnderScore@UnDecorator@@SAHXZ 00000001800479d0 f i libvcruntimed:undname.obj
 0001:00046a00       ?getArgumentList@UnDecorator@@CA?AVDName@@XZ 0000000180047a00 f   libvcruntimed:undname.obj
 0001:00046ba0       ?getArgumentTypes@UnDecorator@@CA?AVDName@@XZ 0000000180047ba0 f   libvcruntimed:undname.obj
 0001:00046d50       ?getArrayType@UnDecorator@@CA?AVDName@@AEBV2@@Z 0000000180047d50 f i libvcruntimed:undname.obj
 0001:000470b0       ?getBasedType@UnDecorator@@CA?AVDName@@XZ 00000001800480b0 f   libvcruntimed:undname.obj
 0001:000471a0       ?getBasicDataType@UnDecorator@@CA?AVDName@@AEBV2@@Z 00000001800481a0 f   libvcruntimed:undname.obj
 0001:00047910       ?getCHPEName@UnDecorator@@QEAAPEADPEADH@Z 0000000180048910 f i libvcruntimed:undname.obj
 0001:00047ae0       ?getCallIndex@UnDecorator@@CA?AVDName@@XZ 0000000180048ae0 f i libvcruntimed:undname.obj
 0001:00047b00       ?getCallingConvention@UnDecorator@@CA?AVDName@@XZ 0000000180048b00 f   libvcruntimed:undname.obj
 0001:00047d40       ?getDataIndirectType@UnDecorator@@CA?AVDName@@AEBV2@PEBD0H@Z 0000000180048d40 f   libvcruntimed:undname.obj
 0001:00048810       ?getDataIndirectType@UnDecorator@@CA?AVDName@@XZ 0000000180049810 f i libvcruntimed:undname.obj
 0001:00048880       ?getDataType@UnDecorator@@CA?AVDName@@PEAV2@@Z 0000000180049880 f   libvcruntimed:undname.obj
 0001:00048a10       ?getDecoratedName@UnDecorator@@CA?AVDName@@XZ 0000000180049a10 f   libvcruntimed:undname.obj
 0001:00048eb0       ?getDimension@UnDecorator@@CA?AVDName@@_N@Z 0000000180049eb0 f   libvcruntimed:undname.obj
 0001:00049210       ?getDispatchTarget@UnDecorator@@CA?AVDName@@XZ 000000018004a210 f   libvcruntimed:undname.obj
 0001:000492e0       ?getDisplacement@UnDecorator@@CA?AVDName@@XZ 000000018004a2e0 f i libvcruntimed:undname.obj
 0001:00049300       ?getECSUDataType@UnDecorator@@CA?AVDName@@XZ 000000018004a300 f   libvcruntimed:undname.obj
 0001:00049540       ?getECSUName@UnDecorator@@CA?AVDName@@XZ 000000018004a540 f i libvcruntimed:undname.obj
 0001:00049560       ?getEnumType@UnDecorator@@CA?AVDName@@XZ 000000018004a560 f i libvcruntimed:undname.obj
 0001:000496e0       ?getExtendedDataIndirectType@UnDecorator@@CA?AVDName@@AEAPEBDAEA_NH@Z 000000018004a6e0 f   libvcruntimed:undname.obj
 0001:00049a00       ?getExternalDataType@UnDecorator@@CA?AVDName@@AEBV2@@Z 000000018004aa00 f i libvcruntimed:undname.obj
 0001:00049ae0       ?getFunctionIndirectType@UnDecorator@@CA?AVDName@@AEBV2@@Z 000000018004aae0 f   libvcruntimed:undname.obj
 0001:0004a0e0       ?getGuardNumber@UnDecorator@@CA?AVDName@@XZ 000000018004b0e0 f i libvcruntimed:undname.obj
 0001:0004a100       ?getLastChar@DName@@QEBADXZ 000000018004b100 f i libvcruntimed:undname.obj
 0001:0004a150       ?getLastChar@DNameStatusNode@@UEBADXZ 000000018004b150 f i libvcruntimed:undname.obj
 0001:0004a190       ?getLastChar@charNode@@UEBADXZ 000000018004b190 f i libvcruntimed:undname.obj
 0001:0004a1a0       ?getLastChar@pDNameNode@@UEBADXZ 000000018004b1a0 f i libvcruntimed:undname.obj
 0001:0004a1e0       ?getLastChar@pairNode@@UEBADXZ 000000018004b1e0 f i libvcruntimed:undname.obj
 0001:0004a260       ?getLastChar@pcharNode@@UEBADXZ 000000018004b260 f i libvcruntimed:undname.obj
 0001:0004a2a0       ?getLexicalFrame@UnDecorator@@CA?AVDName@@XZ 000000018004b2a0 f i libvcruntimed:undname.obj
 0001:0004a2f0       ?getMemory@_HeapManager@@QEAAPEAX_KH@Z 000000018004b2f0 f   libvcruntimed:undname.obj
 0001:0004a470       ?getNoexcept@UnDecorator@@CA?AVDName@@XZ 000000018004b470 f   libvcruntimed:undname.obj
 0001:0004a500       ?getNumberOfDimensions@UnDecorator@@CAHXZ 000000018004b500 f   libvcruntimed:undname.obj
 0001:0004a620       ?getOperatorName@UnDecorator@@CA?AVDName@@_NPEA_N@Z 000000018004b620 f i libvcruntimed:undname.obj
 0001:0004b400       ?getPointerType@UnDecorator@@CA?AVDName@@AEBV2@0@Z 000000018004c400 f i libvcruntimed:undname.obj
 0001:0004b450       ?getPointerTypeArray@UnDecorator@@CA?AVDName@@AEBV2@0@Z 000000018004c450 f i libvcruntimed:undname.obj
 0001:0004b4a0       ?getPrimaryDataType@UnDecorator@@CA?AVDName@@AEBV2@@Z 000000018004c4a0 f   libvcruntimed:undname.obj
 0001:0004b990       ?getPtrRefDataType@UnDecorator@@CA?AVDName@@AEBV2@H@Z 000000018004c990 f   libvcruntimed:undname.obj
 0001:0004bc20       ?getPtrRefType@UnDecorator@@CA?AVDName@@AEBV2@0PEBD@Z 000000018004cc20 f   libvcruntimed:undname.obj
 0001:0004be30       ?getReferenceType@UnDecorator@@CA?AVDName@@AEBV2@0PEBD@Z 000000018004ce30 f i libvcruntimed:undname.obj
 0001:0004be70       ?getRestrictionSpec@UnDecorator@@CA?AVDName@@XZ 000000018004ce70 f   libvcruntimed:undname.obj
 0001:0004c040       ?getReturnType@UnDecorator@@CA?AVDName@@PEAV2@@Z 000000018004d040 f   libvcruntimed:undname.obj
 0001:0004c0a0       ?getScope@UnDecorator@@CA?AVDName@@XZ 000000018004d0a0 f   libvcruntimed:undname.obj
 0001:0004c720       ?getScopedName@UnDecorator@@CA?AVDName@@XZ 000000018004d720 f   libvcruntimed:undname.obj
 0001:0004c8b0       ?getSignedDimension@UnDecorator@@CA?AVDName@@XZ 000000018004d8b0 f   libvcruntimed:undname.obj
 0001:0004c940       ?getStorageConvention@UnDecorator@@CA?AVDName@@XZ 000000018004d940 f i libvcruntimed:undname.obj
 0001:0004c960       ?getString@DName@@QEBAPEADPEAD0@Z 000000018004d960 f i libvcruntimed:undname.obj
 0001:0004c9e0       ?getString@DName@@QEBAPEADPEADH@Z 000000018004d9e0 f i libvcruntimed:undname.obj
 0001:0004caa0       ?getString@DNameStatusNode@@UEBAPEADPEAD0@Z 000000018004daa0 f i libvcruntimed:undname.obj
 0001:0004caf0       ?getString@charNode@@UEBAPEADPEAD0@Z 000000018004daf0 f i libvcruntimed:undname.obj
 0001:0004cb30       ?getString@pDNameNode@@UEBAPEADPEAD0@Z 000000018004db30 f i libvcruntimed:undname.obj
 0001:0004cb90       ?getString@pairNode@@UEBAPEADPEAD0@Z 000000018004db90 f i libvcruntimed:undname.obj
 0001:0004cc60       ?getString@pcharNode@@UEBAPEADPEAD0@Z 000000018004dc60 f i libvcruntimed:undname.obj
 0001:0004cca0       ?getStringEncoding@UnDecorator@@CA?AVDName@@PEBDH@Z 000000018004dca0 f   libvcruntimed:undname.obj
 0001:0004cde0       ?getStringHelper@@YAPEADPEADPEBD1H@Z 000000018004dde0 f i libvcruntimed:undname.obj
 0001:0004ce50       ?getSymbolName@UnDecorator@@CA?AVDName@@XZ 000000018004de50 f i libvcruntimed:undname.obj
 0001:0004cef0       ?getTemplateArgumentList@UnDecorator@@CA?AVDName@@XZ 000000018004def0 f   libvcruntimed:undname.obj
 0001:0004d1d0       ?getTemplateName@UnDecorator@@CA?AVDName@@_N@Z 000000018004e1d0 f   libvcruntimed:undname.obj
 0001:0004d410       ?getTemplateNonTypeArgument@UnDecorator@@CA?AVDName@@XZ 000000018004e410 f   libvcruntimed:undname.obj
 0001:0004db40       ?getTemplateTypeArgument@UnDecorator@@CA?AVDName@@XZ 000000018004eb40 f   libvcruntimed:undname.obj
 0001:0004dd10       ?getThisType@UnDecorator@@CA?AVDName@@XZ 000000018004ed10 f i libvcruntimed:undname.obj
 0001:0004dd80       ?getThrowTypes@UnDecorator@@CA?AVDName@@XZ 000000018004ed80 f   libvcruntimed:undname.obj
 0001:0004ddd0       ?getTypeEncoding@UnDecorator@@CAHXZ 000000018004edd0 f i libvcruntimed:undname.obj
 0001:0004e9d0       ?getUndecoratedName@UnDecorator@@QEAAPEADPEADH@Z 000000018004f9d0 f i libvcruntimed:undname.obj
 0001:0004eb90       ?getVCallThunkType@UnDecorator@@CA?AVDName@@XZ 000000018004fb90 f i libvcruntimed:undname.obj
 0001:0004ec10       ?getVbTableType@UnDecorator@@CA?AVDName@@AEBV2@@Z 000000018004fc10 f i libvcruntimed:undname.obj
 0001:0004ec40       ?getVdispMapType@UnDecorator@@CA?AVDName@@AEBV2@@Z 000000018004fc40 f i libvcruntimed:undname.obj
 0001:0004ecd0       ?getVfTableType@UnDecorator@@CA?AVDName@@AEBV2@@Z 000000018004fcd0 f i libvcruntimed:undname.obj
 0001:0004ef10       ?getZName@UnDecorator@@CA?AVDName@@_N0@Z 000000018004ff10 f   libvcruntimed:undname.obj
 0001:0004f2d0       ?haveTemplateParameters@UnDecorator@@SAHXZ 00000001800502d0 f i libvcruntimed:undname.obj
 0001:0004f2e0       ?isArray@DName@@QEBAHXZ    00000001800502e0 f i libvcruntimed:undname.obj
 0001:0004f300       ?isComArray@DName@@QEBAHXZ 0000000180050300 f i libvcruntimed:undname.obj
 0001:0004f320       ?isEmpty@DName@@QEBAHXZ    0000000180050320 f i libvcruntimed:undname.obj
 0001:0004f350       ?isFull@Replicator@@QEBAHXZ 0000000180050350 f i libvcruntimed:undname.obj
 0001:0004f380       ?isNoTE@DName@@QEBAHXZ     0000000180050380 f i libvcruntimed:undname.obj
 0001:0004f3a0       ?isPinPtr@DName@@QEBAHXZ   00000001800503a0 f i libvcruntimed:undname.obj
 0001:0004f3c0       ?isPtrRef@DName@@QEBAHXZ   00000001800503c0 f i libvcruntimed:undname.obj
 0001:0004f3e0       ?isUDC@DName@@QEBAHXZ      00000001800503e0 f i libvcruntimed:undname.obj
 0001:0004f430       ?isUDTThunk@DName@@QEBAHXZ 0000000180050430 f i libvcruntimed:undname.obj
 0001:0004f480       ?isVCallThunk@DName@@QEBAHXZ 0000000180050480 f i libvcruntimed:undname.obj
 0001:0004f4a0       ?isValid@DName@@QEBAHXZ    00000001800504a0 f i libvcruntimed:undname.obj
 0001:0004f4e0       ?length@DName@@QEBAHXZ     00000001800504e0 f i libvcruntimed:undname.obj
 0001:0004f530       ?length@DNameStatusNode@@UEBAHXZ 0000000180050530 f i libvcruntimed:undname.obj
 0001:0004f540       ?length@charNode@@UEBAHXZ  0000000180050540 f i libvcruntimed:undname.obj
 0001:0004f550       ?length@pDNameNode@@UEBAHXZ 0000000180050550 f i libvcruntimed:undname.obj
 0001:0004f590       ?length@pairNode@@UEBAHXZ  0000000180050590 f i libvcruntimed:undname.obj
 0001:0004f620       ?length@pcharNode@@UEBAHXZ 0000000180050620 f i libvcruntimed:undname.obj
 0001:0004f630       ?make@DNameStatusNode@@SAPEBV1@W4DNameStatus@@@Z 0000000180050630 f i libvcruntimed:undname.obj
 0001:0004f680       ?parseDecoratedName@UnDecorator@@CA?AVDName@@XZ 0000000180050680 f   libvcruntimed:undname.obj
 0001:0004f840       ?setIsArray@DName@@QEAAXXZ 0000000180050840 f i libvcruntimed:undname.obj
 0001:0004f860       ?setIsComArray@DName@@QEAAXXZ 0000000180050860 f i libvcruntimed:undname.obj
 0001:0004f880       ?setIsNoTE@DName@@QEAAXXZ  0000000180050880 f i libvcruntimed:undname.obj
 0001:0004f8a0       ?setIsPinPtr@DName@@QEAAXXZ 00000001800508a0 f i libvcruntimed:undname.obj
 0001:0004f8c0       ?setIsUDC@DName@@QEAAXXZ   00000001800508c0 f i libvcruntimed:undname.obj
 0001:0004f8f0       ?setIsVCallThunk@DName@@QEAAXXZ 00000001800508f0 f i libvcruntimed:undname.obj
 0001:0004f910       ?setPtrRef@DName@@QEAAAEAV1@XZ 0000000180050910 f i libvcruntimed:undname.obj
 0001:0004f930       ?status@DName@@QEBA?AW4DNameStatus@@XZ 0000000180050930 f i libvcruntimed:undname.obj
 0001:0004fa60       __unDName                  0000000180050a60 f   libvcruntimed:undname.obj
 0001:0004fac0       __unDNameEx                0000000180050ac0 f   libvcruntimed:undname.obj
 0001:0004fb80       unDNameGenerateCHPE        0000000180050b80 f   libvcruntimed:undname.obj
 0001:0004fc30       ??$__crt_interlocked_exchange_pointer@UHINSTANCE__@@PEAU1@@@YAPEAUHINSTANCE__@@PEDSEAU0@QEAU0@@Z 0000000180050c30 f i libvcruntimed:winapi_downlevel.obj
 0001:0004fc50       ??$__crt_interlocked_exchange_pointer@UHINSTANCE__@@PEAX@@YAPEAUHINSTANCE__@@PEDSEAU0@QEAX@Z 0000000180050c50 f i libvcruntimed:winapi_downlevel.obj
 0001:0004fc70       ??$__crt_interlocked_exchange_pointer@XPEAX@@YAPEAXPEDSEAXQEAX@Z 0000000180050c70 f i libvcruntimed:winapi_downlevel.obj
 0001:0004fc90       ??$__crt_interlocked_read_pointer@UHINSTANCE__@@@@YAPEAUHINSTANCE__@@PEDSEAU0@@Z 0000000180050c90 f i libvcruntimed:winapi_downlevel.obj
 0001:0004fcb0       ??$__crt_interlocked_read_pointer@X@@YAPEAXPEDSEAX@Z 0000000180050cb0 f i libvcruntimed:winapi_downlevel.obj
 0001:000501c0       __vcrt_FlsAlloc            00000001800511c0 f   libvcruntimed:winapi_downlevel.obj
 0001:00050210       __vcrt_FlsFree             0000000180051210 f   libvcruntimed:winapi_downlevel.obj
 0001:00050260       __vcrt_FlsGetValue         0000000180051260 f   libvcruntimed:winapi_downlevel.obj
 0001:000502b0       __vcrt_FlsSetValue         00000001800512b0 f   libvcruntimed:winapi_downlevel.obj
 0001:00050310       __vcrt_InitializeCriticalSectionEx 0000000180051310 f   libvcruntimed:winapi_downlevel.obj
 0001:00050390       _CallSettingFrame          0000000180051390 f   libvcruntimed:handlers.obj
 0001:000503e0       _CallSettingFrame_LookupContinuationIndex 00000001800513e0 f   libvcruntimed:handlers.obj
 0001:00050410       _CallSettingFrame_NotifyContinuationAddr 0000000180051410 f   libvcruntimed:handlers.obj
 0001:00050440       _CallSettingFrameEncoded   0000000180051440 f   libvcruntimed:handlers.obj
 0001:00050490       ??$?0AEBV?$stream_output_adapter@D@__crt_stdio_output@@AEB_KAEBQEBDAEBQEAU__crt_locale_pointers@@AEBQEAD@?$format_validation_base@DV?$stream_output_adapter@D@__crt_stdio_output@@@__crt_stdio_output@@IEAA@AEBV?$stream_output_adapter@D@1@AEB_KAEBQEBDAEBQEAU__crt_locale_pointers@@AEBQEAD@Z 0000000180051490 f i libucrtd:output.obj
 0001:000504e0       ??$?0AEBV?$stream_output_adapter@D@__crt_stdio_output@@AEB_KAEBQEBDAEBQEAU__crt_locale_pointers@@AEBQEAD@?$positional_parameter_base@DV?$stream_output_adapter@D@__crt_stdio_output@@@__crt_stdio_output@@IEAA@AEBV?$stream_output_adapter@D@1@AEB_KAEBQEBDAEBQEAU__crt_locale_pointers@@AEBQEAD@Z 00000001800514e0 f i libucrtd:output.obj
 0001:00050580       ??$?0AEBV?$stream_output_adapter@D@__crt_stdio_output@@AEB_KAEBQEBDAEBQEAU__crt_locale_pointers@@AEBQEAD@?$standard_base@DV?$stream_output_adapter@D@__crt_stdio_output@@@__crt_stdio_output@@IEAA@AEBV?$stream_output_adapter@D@1@AEB_KAEBQEBDAEBQEAU__crt_locale_pointers@@AEBQEAD@Z 0000000180051580 f i libucrtd:output.obj
 0001:000505f0       ??$?0AEBV?$stream_output_adapter@_W@__crt_stdio_output@@AEB_KAEBQEB_WAEBQEAU__crt_locale_pointers@@AEBQEAD@?$format_validation_base@_WV?$stream_output_adapter@_W@__crt_stdio_output@@@__crt_stdio_output@@IEAA@AEBV?$stream_output_adapter@_W@1@AEB_KAEBQEB_WAEBQEAU__crt_locale_pointers@@AEBQEAD@Z 00000001800515f0 f i libucrtd:output.obj
 0001:00050640       ??$?0AEBV?$stream_output_adapter@_W@__crt_stdio_output@@AEB_KAEBQEB_WAEBQEAU__crt_locale_pointers@@AEBQEAD@?$positional_parameter_base@_WV?$stream_output_adapter@_W@__crt_stdio_output@@@__crt_stdio_output@@IEAA@AEBV?$stream_output_adapter@_W@1@AEB_KAEBQEB_WAEBQEAU__crt_locale_pointers@@AEBQEAD@Z 0000000180051640 f i libucrtd:output.obj
 0001:000506e0       ??$?0AEBV?$stream_output_adapter@_W@__crt_stdio_output@@AEB_KAEBQEB_WAEBQEAU__crt_locale_pointers@@AEBQEAD@?$standard_base@_WV?$stream_output_adapter@_W@__crt_stdio_output@@@__crt_stdio_output@@IEAA@AEBV?$stream_output_adapter@_W@1@AEB_KAEBQEB_WAEBQEAU__crt_locale_pointers@@AEBQEAD@Z 00000001800516e0 f i libucrtd:output.obj
 0001:00050750       ??$?0AEBV?$string_output_adapter@D@__crt_stdio_output@@AEB_KAEBQEBDAEBQEAU__crt_locale_pointers@@AEBQEAD@?$format_validation_base@DV?$string_output_adapter@D@__crt_stdio_output@@@__crt_stdio_output@@IEAA@AEBV?$string_output_adapter@D@1@AEB_KAEBQEBDAEBQEAU__crt_locale_pointers@@AEBQEAD@Z 0000000180051750 f i libucrtd:output.obj
 0001:000507a0       ??$?0AEBV?$string_output_adapter@D@__crt_stdio_output@@AEB_KAEBQEBDAEBQEAU__crt_locale_pointers@@AEBQEAD@?$positional_parameter_base@DV?$string_output_adapter@D@__crt_stdio_output@@@__crt_stdio_output@@IEAA@AEBV?$string_output_adapter@D@1@AEB_KAEBQEBDAEBQEAU__crt_locale_pointers@@AEBQEAD@Z 00000001800517a0 f i libucrtd:output.obj
 0001:00050840       ??$?0AEBV?$string_output_adapter@D@__crt_stdio_output@@AEB_KAEBQEBDAEBQEAU__crt_locale_pointers@@AEBQEAD@?$standard_base@DV?$string_output_adapter@D@__crt_stdio_output@@@__crt_stdio_output@@IEAA@AEBV?$string_output_adapter@D@1@AEB_KAEBQEBDAEBQEAU__crt_locale_pointers@@AEBQEAD@Z 0000000180051840 f i libucrtd:output.obj
 0001:000508b0       ??$?0AEBV?$string_output_adapter@_W@__crt_stdio_output@@AEB_KAEBQEB_WAEBQEAU__crt_locale_pointers@@AEBQEAD@?$format_validation_base@_WV?$string_output_adapter@_W@__crt_stdio_output@@@__crt_stdio_output@@IEAA@AEBV?$string_output_adapter@_W@1@AEB_KAEBQEB_WAEBQEAU__crt_locale_pointers@@AEBQEAD@Z 00000001800518b0 f i libucrtd:output.obj
 0001:00050900       ??$?0AEBV?$string_output_adapter@_W@__crt_stdio_output@@AEB_KAEBQEB_WAEBQEAU__crt_locale_pointers@@AEBQEAD@?$positional_parameter_base@_WV?$string_output_adapter@_W@__crt_stdio_output@@@__crt_stdio_output@@IEAA@AEBV?$string_output_adapter@_W@1@AEB_KAEBQEB_WAEBQEAU__crt_locale_pointers@@AEBQEAD@Z 0000000180051900 f i libucrtd:output.obj
 0001:000509a0       ??$?0AEBV?$string_output_adapter@_W@__crt_stdio_output@@AEB_KAEBQEB_WAEBQEAU__crt_locale_pointers@@AEBQEAD@?$standard_base@_WV?$string_output_adapter@_W@__crt_stdio_output@@@__crt_stdio_output@@IEAA@AEBV?$string_output_adapter@_W@1@AEB_KAEBQEB_WAEBQEAU__crt_locale_pointers@@AEBQEAD@Z 00000001800519a0 f i libucrtd:output.obj
 0001:00050dd0       ??$__crt_interlocked_read@J@@YAJPEDJ@Z 0000000180051dd0 f i libucrtd:output.obj
 0001:000548b0       ??$count@D@formatting_buffer@__crt_stdio_output@@QEBA_KXZ 00000001800558b0 f i libucrtd:output.obj
 0001:00054900       ??$count@_W@formatting_buffer@__crt_stdio_output@@QEBA_KXZ 0000000180055900 f i libucrtd:output.obj
 0001:00054950       ??$data@D@formatting_buffer@__crt_stdio_output@@QEAAPEADXZ 0000000180055950 f i libucrtd:output.obj
 0001:000549a0       ??$data@_W@formatting_buffer@__crt_stdio_output@@QEAAPEA_WXZ 00000001800559a0 f i libucrtd:output.obj
 0001:000549f0       ??$ensure_buffer_is_big_enough@D@formatting_buffer@__crt_stdio_output@@QEAA_N_K@Z 00000001800559f0 f i libucrtd:output.obj
 0001:00054b20       ??$ensure_buffer_is_big_enough@_W@formatting_buffer@__crt_stdio_output@@QEAA_N_K@Z 0000000180055b20 f i libucrtd:output.obj
 0001:00054c50       ??$extract_argument_from_va_list@C_J@?$positional_parameter_base@DV?$stream_output_adapter@D@__crt_stdio_output@@@__crt_stdio_output@@IEAA_NAEA_J@Z 0000000180055c50 f i libucrtd:output.obj
 0001:00054dd0       ??$extract_argument_from_va_list@C_J@?$positional_parameter_base@DV?$string_output_adapter@D@__crt_stdio_output@@@__crt_stdio_output@@IEAA_NAEA_J@Z 0000000180055dd0 f i libucrtd:output.obj
 0001:00054f50       ??$extract_argument_from_va_list@C_J@?$positional_parameter_base@_WV?$stream_output_adapter@_W@__crt_stdio_output@@@__crt_stdio_output@@IEAA_NAEA_J@Z 0000000180055f50 f i libucrtd:output.obj
 0001:000550d0       ??$extract_argument_from_va_list@C_J@?$positional_parameter_base@_WV?$string_output_adapter@_W@__crt_stdio_output@@@__crt_stdio_output@@IEAA_NAEA_J@Z 00000001800560d0 f i libucrtd:output.obj
 0001:00055250       ??$extract_argument_from_va_list@C_J@?$standard_base@DV?$stream_output_adapter@D@__crt_stdio_output@@@__crt_stdio_output@@IEAA_NAEA_J@Z 0000000180056250 f i libucrtd:output.obj
 0001:00055290       ??$extract_argument_from_va_list@C_J@?$standard_base@DV?$string_output_adapter@D@__crt_stdio_output@@@__crt_stdio_output@@IEAA_NAEA_J@Z 0000000180056290 f i libucrtd:output.obj
 0001:000552d0       ??$extract_argument_from_va_list@C_J@?$standard_base@_WV?$stream_output_adapter@_W@__crt_stdio_output@@@__crt_stdio_output@@IEAA_NAEA_J@Z 00000001800562d0 f i libucrtd:output.obj
 0001:00055310       ??$extract_argument_from_va_list@C_J@?$standard_base@_WV?$string_output_adapter@_W@__crt_stdio_output@@@__crt_stdio_output@@IEAA_NAEA_J@Z 0000000180056310 f i libucrtd:output.obj
 0001:00055350       ??$extract_argument_from_va_list@E_J@?$positional_parameter_base@DV?$stream_output_adapter@D@__crt_stdio_output@@@__crt_stdio_output@@IEAA_NAEA_J@Z 0000000180056350 f i libucrtd:output.obj
 0001:000554d0       ??$extract_argument_from_va_list@E_J@?$positional_parameter_base@DV?$string_output_adapter@D@__crt_stdio_output@@@__crt_stdio_output@@IEAA_NAEA_J@Z 00000001800564d0 f i libucrtd:output.obj
 0001:00055650       ??$extract_argument_from_va_list@E_J@?$positional_parameter_base@_WV?$stream_output_adapter@_W@__crt_stdio_output@@@__crt_stdio_output@@IEAA_NAEA_J@Z 0000000180056650 f i libucrtd:output.obj
 0001:000557d0       ??$extract_argument_from_va_list@E_J@?$positional_parameter_base@_WV?$string_output_adapter@_W@__crt_stdio_output@@@__crt_stdio_output@@IEAA_NAEA_J@Z 00000001800567d0 f i libucrtd:output.obj
 0001:00055950       ??$extract_argument_from_va_list@E_J@?$standard_base@DV?$stream_output_adapter@D@__crt_stdio_output@@@__crt_stdio_output@@IEAA_NAEA_J@Z 0000000180056950 f i libucrtd:output.obj
 0001:00055990       ??$extract_argument_from_va_list@E_J@?$standard_base@DV?$string_output_adapter@D@__crt_stdio_output@@@__crt_stdio_output@@IEAA_NAEA_J@Z 0000000180056990 f i libucrtd:output.obj
 0001:000559d0       ??$extract_argument_from_va_list@E_J@?$standard_base@_WV?$stream_output_adapter@_W@__crt_stdio_output@@@__crt_stdio_output@@IEAA_NAEA_J@Z 00000001800569d0 f i libucrtd:output.obj
 0001:00055a10       ??$extract_argument_from_va_list@E_J@?$standard_base@_WV?$string_output_adapter@_W@__crt_stdio_output@@@__crt_stdio_output@@IEAA_NAEA_J@Z 0000000180056a10 f i libucrtd:output.obj
 0001:00055a50       ??$extract_argument_from_va_list@F_J@?$positional_parameter_base@DV?$stream_output_adapter@D@__crt_stdio_output@@@__crt_stdio_output@@IEAA_NAEA_J@Z 0000000180056a50 f i libucrtd:output.obj
 0001:00055bd0       ??$extract_argument_from_va_list@F_J@?$positional_parameter_base@DV?$string_output_adapter@D@__crt_stdio_output@@@__crt_stdio_output@@IEAA_NAEA_J@Z 0000000180056bd0 f i libucrtd:output.obj
 0001:00055d50       ??$extract_argument_from_va_list@F_J@?$positional_parameter_base@_WV?$stream_output_adapter@_W@__crt_stdio_output@@@__crt_stdio_output@@IEAA_NAEA_J@Z 0000000180056d50 f i libucrtd:output.obj
 0001:00055ed0       ??$extract_argument_from_va_list@F_J@?$positional_parameter_base@_WV?$string_output_adapter@_W@__crt_stdio_output@@@__crt_stdio_output@@IEAA_NAEA_J@Z 0000000180056ed0 f i libucrtd:output.obj
 0001:00056050       ??$extract_argument_from_va_list@F_J@?$standard_base@DV?$stream_output_adapter@D@__crt_stdio_output@@@__crt_stdio_output@@IEAA_NAEA_J@Z 0000000180057050 f i libucrtd:output.obj
 0001:00056090       ??$extract_argument_from_va_list@F_J@?$standard_base@DV?$string_output_adapter@D@__crt_stdio_output@@@__crt_stdio_output@@IEAA_NAEA_J@Z 0000000180057090 f i libucrtd:output.obj
 0001:000560d0       ??$extract_argument_from_va_list@F_J@?$standard_base@_WV?$stream_output_adapter@_W@__crt_stdio_output@@@__crt_stdio_output@@IEAA_NAEA_J@Z 00000001800570d0 f i libucrtd:output.obj
 0001:00056110       ??$extract_argument_from_va_list@F_J@?$standard_base@_WV?$string_output_adapter@_W@__crt_stdio_output@@@__crt_stdio_output@@IEAA_NAEA_J@Z 0000000180057110 f i libucrtd:output.obj
 0001:00056150       ??$extract_argument_from_va_list@GD@?$positional_parameter_base@DV?$stream_output_adapter@D@__crt_stdio_output@@@__crt_stdio_output@@IEAA_NAEAD@Z 0000000180057150 f i libucrtd:output.obj
 0001:000562d0       ??$extract_argument_from_va_list@GD@?$positional_parameter_base@DV?$string_output_adapter@D@__crt_stdio_output@@@__crt_stdio_output@@IEAA_NAEAD@Z 00000001800572d0 f i libucrtd:output.obj
 0001:00056450       ??$extract_argument_from_va_list@GD@?$standard_base@DV?$stream_output_adapter@D@__crt_stdio_output@@@__crt_stdio_output@@IEAA_NAEAD@Z 0000000180057450 f i libucrtd:output.obj
 0001:00056480       ??$extract_argument_from_va_list@GD@?$standard_base@DV?$string_output_adapter@D@__crt_stdio_output@@@__crt_stdio_output@@IEAA_NAEAD@Z 0000000180057480 f i libucrtd:output.obj
 0001:000564b0       ??$extract_argument_from_va_list@G_J@?$positional_parameter_base@DV?$stream_output_adapter@D@__crt_stdio_output@@@__crt_stdio_output@@IEAA_NAEA_J@Z 00000001800574b0 f i libucrtd:output.obj
 0001:00056630       ??$extract_argument_from_va_list@G_J@?$positional_parameter_base@DV?$string_output_adapter@D@__crt_stdio_output@@@__crt_stdio_output@@IEAA_NAEA_J@Z 0000000180057630 f i libucrtd:output.obj
 0001:000567b0       ??$extract_argument_from_va_list@G_J@?$positional_parameter_base@_WV?$stream_output_adapter@_W@__crt_stdio_output@@@__crt_stdio_output@@IEAA_NAEA_J@Z 00000001800577b0 f i libucrtd:output.obj
 0001:00056930       ??$extract_argument_from_va_list@G_J@?$positional_parameter_base@_WV?$string_output_adapter@_W@__crt_stdio_output@@@__crt_stdio_output@@IEAA_NAEA_J@Z 0000000180057930 f i libucrtd:output.obj
 0001:00056ab0       ??$extract_argument_from_va_list@G_J@?$standard_base@DV?$stream_output_adapter@D@__crt_stdio_output@@@__crt_stdio_output@@IEAA_NAEA_J@Z 0000000180057ab0 f i libucrtd:output.obj
 0001:00056af0       ??$extract_argument_from_va_list@G_J@?$standard_base@DV?$string_output_adapter@D@__crt_stdio_output@@@__crt_stdio_output@@IEAA_NAEA_J@Z 0000000180057af0 f i libucrtd:output.obj
 0001:00056b30       ??$extract_argument_from_va_list@G_J@?$standard_base@_WV?$stream_output_adapter@_W@__crt_stdio_output@@@__crt_stdio_output@@IEAA_NAEA_J@Z 0000000180057b30 f i libucrtd:output.obj
 0001:00056b70       ??$extract_argument_from_va_list@G_J@?$standard_base@_WV?$string_output_adapter@_W@__crt_stdio_output@@@__crt_stdio_output@@IEAA_NAEA_J@Z 0000000180057b70 f i libucrtd:output.obj
 0001:00056bb0       ??$extract_argument_from_va_list@H_J@?$positional_parameter_base@DV?$stream_output_adapter@D@__crt_stdio_output@@@__crt_stdio_output@@IEAA_NAEA_J@Z 0000000180057bb0 f i libucrtd:output.obj
 0001:00056d30       ??$extract_argument_from_va_list@H_J@?$positional_parameter_base@DV?$string_output_adapter@D@__crt_stdio_output@@@__crt_stdio_output@@IEAA_NAEA_J@Z 0000000180057d30 f i libucrtd:output.obj
 0001:00056eb0       ??$extract_argument_from_va_list@H_J@?$positional_parameter_base@_WV?$stream_output_adapter@_W@__crt_stdio_output@@@__crt_stdio_output@@IEAA_NAEA_J@Z 0000000180057eb0 f i libucrtd:output.obj
 0001:00057030       ??$extract_argument_from_va_list@H_J@?$positional_parameter_base@_WV?$string_output_adapter@_W@__crt_stdio_output@@@__crt_stdio_output@@IEAA_NAEA_J@Z 0000000180058030 f i libucrtd:output.obj
 0001:000571b0       ??$extract_argument_from_va_list@H_J@?$standard_base@DV?$stream_output_adapter@D@__crt_stdio_output@@@__crt_stdio_output@@IEAA_NAEA_J@Z 00000001800581b0 f i libucrtd:output.obj
 0001:000571e0       ??$extract_argument_from_va_list@H_J@?$standard_base@DV?$string_output_adapter@D@__crt_stdio_output@@@__crt_stdio_output@@IEAA_NAEA_J@Z 00000001800581e0 f i libucrtd:output.obj
 0001:00057210       ??$extract_argument_from_va_list@H_J@?$standard_base@_WV?$stream_output_adapter@_W@__crt_stdio_output@@@__crt_stdio_output@@IEAA_NAEA_J@Z 0000000180058210 f i libucrtd:output.obj
 0001:00057240       ??$extract_argument_from_va_list@H_J@?$standard_base@_WV?$string_output_adapter@_W@__crt_stdio_output@@@__crt_stdio_output@@IEAA_NAEA_J@Z 0000000180058240 f i libucrtd:output.obj
 0001:00057270       ??$extract_argument_from_va_list@I_J@?$positional_parameter_base@DV?$stream_output_adapter@D@__crt_stdio_output@@@__crt_stdio_output@@IEAA_NAEA_J@Z 0000000180058270 f i libucrtd:output.obj
 0001:000573f0       ??$extract_argument_from_va_list@I_J@?$positional_parameter_base@DV?$string_output_adapter@D@__crt_stdio_output@@@__crt_stdio_output@@IEAA_NAEA_J@Z 00000001800583f0 f i libucrtd:output.obj
 0001:00057570       ??$extract_argument_from_va_list@I_J@?$positional_parameter_base@_WV?$stream_output_adapter@_W@__crt_stdio_output@@@__crt_stdio_output@@IEAA_NAEA_J@Z 0000000180058570 f i libucrtd:output.obj
 0001:000576f0       ??$extract_argument_from_va_list@I_J@?$positional_parameter_base@_WV?$string_output_adapter@_W@__crt_stdio_output@@@__crt_stdio_output@@IEAA_NAEA_J@Z 00000001800586f0 f i libucrtd:output.obj
 0001:00057870       ??$extract_argument_from_va_list@I_J@?$standard_base@DV?$stream_output_adapter@D@__crt_stdio_output@@@__crt_stdio_output@@IEAA_NAEA_J@Z 0000000180058870 f i libucrtd:output.obj
 0001:000578a0       ??$extract_argument_from_va_list@I_J@?$standard_base@DV?$string_output_adapter@D@__crt_stdio_output@@@__crt_stdio_output@@IEAA_NAEA_J@Z 00000001800588a0 f i libucrtd:output.obj
 0001:000578d0       ??$extract_argument_from_va_list@I_J@?$standard_base@_WV?$stream_output_adapter@_W@__crt_stdio_output@@@__crt_stdio_output@@IEAA_NAEA_J@Z 00000001800588d0 f i libucrtd:output.obj
 0001:00057900       ??$extract_argument_from_va_list@I_J@?$standard_base@_WV?$string_output_adapter@_W@__crt_stdio_output@@@__crt_stdio_output@@IEAA_NAEA_J@Z 0000000180058900 f i libucrtd:output.obj
 0001:00057930       ??$extract_argument_from_va_list@PEADPEAD@?$positional_parameter_base@DV?$stream_output_adapter@D@__crt_stdio_output@@@__crt_stdio_output@@IEAA_NAEAPEAD@Z 0000000180058930 f i libucrtd:output.obj
 0001:00057ab0       ??$extract_argument_from_va_list@PEADPEAD@?$positional_parameter_base@DV?$string_output_adapter@D@__crt_stdio_output@@@__crt_stdio_output@@IEAA_NAEAPEAD@Z 0000000180058ab0 f i libucrtd:output.obj
 0001:00057c30       ??$extract_argument_from_va_list@PEADPEAD@?$positional_parameter_base@_WV?$stream_output_adapter@_W@__crt_stdio_output@@@__crt_stdio_output@@IEAA_NAEAPEAD@Z 0000000180058c30 f i libucrtd:output.obj
 0001:00057db0       ??$extract_argument_from_va_list@PEADPEAD@?$positional_parameter_base@_WV?$string_output_adapter@_W@__crt_stdio_output@@@__crt_stdio_output@@IEAA_NAEAPEAD@Z 0000000180058db0 f i libucrtd:output.obj
 0001:00057f30       ??$extract_argument_from_va_list@PEADPEAD@?$standard_base@DV?$stream_output_adapter@D@__crt_stdio_output@@@__crt_stdio_output@@IEAA_NAEAPEAD@Z 0000000180058f30 f i libucrtd:output.obj
 0001:00057f60       ??$extract_argument_from_va_list@PEADPEAD@?$standard_base@DV?$string_output_adapter@D@__crt_stdio_output@@@__crt_stdio_output@@IEAA_NAEAPEAD@Z 0000000180058f60 f i libucrtd:output.obj
 0001:00057f90       ??$extract_argument_from_va_list@PEADPEAD@?$standard_base@_WV?$stream_output_adapter@_W@__crt_stdio_output@@@__crt_stdio_output@@IEAA_NAEAPEAD@Z 0000000180058f90 f i libucrtd:output.obj
 0001:00057fc0       ??$extract_argument_from_va_list@PEADPEAD@?$standard_base@_WV?$string_output_adapter@_W@__crt_stdio_output@@@__crt_stdio_output@@IEAA_NAEAPEAD@Z 0000000180058fc0 f i libucrtd:output.obj
 0001:00058830       ??$extract_argument_from_va_list@PEAXPEAX@?$positional_parameter_base@DV?$stream_output_adapter@D@__crt_stdio_output@@@__crt_stdio_output@@IEAA_NAEAPEAX@Z 0000000180059830 f i libucrtd:output.obj
 0001:000589b0       ??$extract_argument_from_va_list@PEAXPEAX@?$positional_parameter_base@DV?$string_output_adapter@D@__crt_stdio_output@@@__crt_stdio_output@@IEAA_NAEAPEAX@Z 00000001800599b0 f i libucrtd:output.obj
 0001:00058b30       ??$extract_argument_from_va_list@PEAXPEAX@?$positional_parameter_base@_WV?$stream_output_adapter@_W@__crt_stdio_output@@@__crt_stdio_output@@IEAA_NAEAPEAX@Z 0000000180059b30 f i libucrtd:output.obj
 0001:00058cb0       ??$extract_argument_from_va_list@PEAXPEAX@?$positional_parameter_base@_WV?$string_output_adapter@_W@__crt_stdio_output@@@__crt_stdio_output@@IEAA_NAEAPEAX@Z 0000000180059cb0 f i libucrtd:output.obj
 0001:00058e30       ??$extract_argument_from_va_list@PEAXPEAX@?$standard_base@DV?$stream_output_adapter@D@__crt_stdio_output@@@__crt_stdio_output@@IEAA_NAEAPEAX@Z 0000000180059e30 f i libucrtd:output.obj
 0001:00058e60       ??$extract_argument_from_va_list@PEAXPEAX@?$standard_base@DV?$string_output_adapter@D@__crt_stdio_output@@@__crt_stdio_output@@IEAA_NAEAPEAX@Z 0000000180059e60 f i libucrtd:output.obj
 0001:00058e90       ??$extract_argument_from_va_list@PEAXPEAX@?$standard_base@_WV?$stream_output_adapter@_W@__crt_stdio_output@@@__crt_stdio_output@@IEAA_NAEAPEAX@Z 0000000180059e90 f i libucrtd:output.obj
 0001:00058ec0       ??$extract_argument_from_va_list@PEAXPEAX@?$standard_base@_WV?$string_output_adapter@_W@__crt_stdio_output@@@__crt_stdio_output@@IEAA_NAEAPEAX@Z 0000000180059ec0 f i libucrtd:output.obj
 0001:00058ef0       ??$extract_argument_from_va_list@U_CRT_DOUBLE@@U1@@?$positional_parameter_base@DV?$stream_output_adapter@D@__crt_stdio_output@@@__crt_stdio_output@@IEAA_NAEAU_CRT_DOUBLE@@@Z 0000000180059ef0 f i libucrtd:output.obj
 0001:00059090       ??$extract_argument_from_va_list@U_CRT_DOUBLE@@U1@@?$positional_parameter_base@DV?$string_output_adapter@D@__crt_stdio_output@@@__crt_stdio_output@@IEAA_NAEAU_CRT_DOUBLE@@@Z 000000018005a090 f i libucrtd:output.obj
 0001:00059230       ??$extract_argument_from_va_list@U_CRT_DOUBLE@@U1@@?$positional_parameter_base@_WV?$stream_output_adapter@_W@__crt_stdio_output@@@__crt_stdio_output@@IEAA_NAEAU_CRT_DOUBLE@@@Z 000000018005a230 f i libucrtd:output.obj
 0001:000593d0       ??$extract_argument_from_va_list@U_CRT_DOUBLE@@U1@@?$positional_parameter_base@_WV?$string_output_adapter@_W@__crt_stdio_output@@@__crt_stdio_output@@IEAA_NAEAU_CRT_DOUBLE@@@Z 000000018005a3d0 f i libucrtd:output.obj
 0001:00059570       ??$extract_argument_from_va_list@U_CRT_DOUBLE@@U1@@?$standard_base@DV?$stream_output_adapter@D@__crt_stdio_output@@@__crt_stdio_output@@IEAA_NAEAU_CRT_DOUBLE@@@Z 000000018005a570 f i libucrtd:output.obj
 0001:000595c0       ??$extract_argument_from_va_list@U_CRT_DOUBLE@@U1@@?$standard_base@DV?$string_output_adapter@D@__crt_stdio_output@@@__crt_stdio_output@@IEAA_NAEAU_CRT_DOUBLE@@@Z 000000018005a5c0 f i libucrtd:output.obj
 0001:00059610       ??$extract_argument_from_va_list@U_CRT_DOUBLE@@U1@@?$standard_base@_WV?$stream_output_adapter@_W@__crt_stdio_output@@@__crt_stdio_output@@IEAA_NAEAU_CRT_DOUBLE@@@Z 000000018005a610 f i libucrtd:output.obj
 0001:00059660       ??$extract_argument_from_va_list@U_CRT_DOUBLE@@U1@@?$standard_base@_WV?$string_output_adapter@_W@__crt_stdio_output@@@__crt_stdio_output@@IEAA_NAEAU_CRT_DOUBLE@@@Z 000000018005a660 f i libucrtd:output.obj
 0001:000596b0       ??$extract_argument_from_va_list@_J_J@?$positional_parameter_base@DV?$stream_output_adapter@D@__crt_stdio_output@@@__crt_stdio_output@@IEAA_NAEA_J@Z 000000018005a6b0 f i libucrtd:output.obj
 0001:00059830       ??$extract_argument_from_va_list@_J_J@?$positional_parameter_base@DV?$string_output_adapter@D@__crt_stdio_output@@@__crt_stdio_output@@IEAA_NAEA_J@Z 000000018005a830 f i libucrtd:output.obj
 0001:000599b0       ??$extract_argument_from_va_list@_J_J@?$positional_parameter_base@_WV?$stream_output_adapter@_W@__crt_stdio_output@@@__crt_stdio_output@@IEAA_NAEA_J@Z 000000018005a9b0 f i libucrtd:output.obj
 0001:00059b30       ??$extract_argument_from_va_list@_J_J@?$positional_parameter_base@_WV?$string_output_adapter@_W@__crt_stdio_output@@@__crt_stdio_output@@IEAA_NAEA_J@Z 000000018005ab30 f i libucrtd:output.obj
 0001:00059cb0       ??$extract_argument_from_va_list@_J_J@?$standard_base@DV?$stream_output_adapter@D@__crt_stdio_output@@@__crt_stdio_output@@IEAA_NAEA_J@Z 000000018005acb0 f i libucrtd:output.obj
 0001:00059ce0       ??$extract_argument_from_va_list@_J_J@?$standard_base@DV?$string_output_adapter@D@__crt_stdio_output@@@__crt_stdio_output@@IEAA_NAEA_J@Z 000000018005ace0 f i libucrtd:output.obj
 0001:00059d10       ??$extract_argument_from_va_list@_J_J@?$standard_base@_WV?$stream_output_adapter@_W@__crt_stdio_output@@@__crt_stdio_output@@IEAA_NAEA_J@Z 000000018005ad10 f i libucrtd:output.obj
 0001:00059d40       ??$extract_argument_from_va_list@_J_J@?$standard_base@_WV?$string_output_adapter@_W@__crt_stdio_output@@@__crt_stdio_output@@IEAA_NAEA_J@Z 000000018005ad40 f i libucrtd:output.obj
 0001:00059d70       ??$extract_argument_from_va_list@_K_J@?$positional_parameter_base@DV?$stream_output_adapter@D@__crt_stdio_output@@@__crt_stdio_output@@IEAA_NAEA_J@Z 000000018005ad70 f i libucrtd:output.obj
 0001:00059ef0       ??$extract_argument_from_va_list@_K_J@?$positional_parameter_base@DV?$string_output_adapter@D@__crt_stdio_output@@@__crt_stdio_output@@IEAA_NAEA_J@Z 000000018005aef0 f i libucrtd:output.obj
 0001:0005a070       ??$extract_argument_from_va_list@_K_J@?$positional_parameter_base@_WV?$stream_output_adapter@_W@__crt_stdio_output@@@__crt_stdio_output@@IEAA_NAEA_J@Z 000000018005b070 f i libucrtd:output.obj
 0001:0005a1f0       ??$extract_argument_from_va_list@_K_J@?$positional_parameter_base@_WV?$string_output_adapter@_W@__crt_stdio_output@@@__crt_stdio_output@@IEAA_NAEA_J@Z 000000018005b1f0 f i libucrtd:output.obj
 0001:0005a370       ??$extract_argument_from_va_list@_K_J@?$standard_base@DV?$stream_output_adapter@D@__crt_stdio_output@@@__crt_stdio_output@@IEAA_NAEA_J@Z 000000018005b370 f i libucrtd:output.obj
 0001:0005a3a0       ??$extract_argument_from_va_list@_K_J@?$standard_base@DV?$string_output_adapter@D@__crt_stdio_output@@@__crt_stdio_output@@IEAA_NAEA_J@Z 000000018005b3a0 f i libucrtd:output.obj
 0001:0005a3d0       ??$extract_argument_from_va_list@_K_J@?$standard_base@_WV?$stream_output_adapter@_W@__crt_stdio_output@@@__crt_stdio_output@@IEAA_NAEA_J@Z 000000018005b3d0 f i libucrtd:output.obj
 0001:0005a400       ??$extract_argument_from_va_list@_K_J@?$standard_base@_WV?$string_output_adapter@_W@__crt_stdio_output@@@__crt_stdio_output@@IEAA_NAEA_J@Z 000000018005b400 f i libucrtd:output.obj
 0001:0005a430       ??$extract_argument_from_va_list@_W_W@?$positional_parameter_base@DV?$stream_output_adapter@D@__crt_stdio_output@@@__crt_stdio_output@@IEAA_NAEA_W@Z 000000018005b430 f i libucrtd:output.obj
 0001:0005a5b0       ??$extract_argument_from_va_list@_W_W@?$positional_parameter_base@DV?$string_output_adapter@D@__crt_stdio_output@@@__crt_stdio_output@@IEAA_NAEA_W@Z 000000018005b5b0 f i libucrtd:output.obj
 0001:0005a730       ??$extract_argument_from_va_list@_W_W@?$positional_parameter_base@_WV?$stream_output_adapter@_W@__crt_stdio_output@@@__crt_stdio_output@@IEAA_NAEA_W@Z 000000018005b730 f i libucrtd:output.obj
 0001:0005a8b0       ??$extract_argument_from_va_list@_W_W@?$positional_parameter_base@_WV?$string_output_adapter@_W@__crt_stdio_output@@@__crt_stdio_output@@IEAA_NAEA_W@Z 000000018005b8b0 f i libucrtd:output.obj
 0001:0005aa30       ??$extract_argument_from_va_list@_W_W@?$standard_base@DV?$stream_output_adapter@D@__crt_stdio_output@@@__crt_stdio_output@@IEAA_NAEA_W@Z 000000018005ba30 f i libucrtd:output.obj
 0001:0005aa60       ??$extract_argument_from_va_list@_W_W@?$standard_base@DV?$string_output_adapter@D@__crt_stdio_output@@@__crt_stdio_output@@IEAA_NAEA_W@Z 000000018005ba60 f i libucrtd:output.obj
 0001:0005aa90       ??$extract_argument_from_va_list@_W_W@?$standard_base@_WV?$stream_output_adapter@_W@__crt_stdio_output@@@__crt_stdio_output@@IEAA_NAEA_W@Z 000000018005ba90 f i libucrtd:output.obj
 0001:0005aac0       ??$extract_argument_from_va_list@_W_W@?$standard_base@_WV?$string_output_adapter@_W@__crt_stdio_output@@@__crt_stdio_output@@IEAA_NAEA_W@Z 000000018005bac0 f i libucrtd:output.obj
 0001:0005aaf0       ??$get_parameter_type@D@?$positional_parameter_base@DV?$stream_output_adapter@D@__crt_stdio_output@@@__crt_stdio_output@@CA?AW4parameter_type@01@PEAD@Z 000000018005baf0 f i libucrtd:output.obj
 0001:0005ab00       ??$get_parameter_type@D@?$positional_parameter_base@DV?$string_output_adapter@D@__crt_stdio_output@@@__crt_stdio_output@@CA?AW4parameter_type@01@PEAD@Z 000000018005bb00 f i libucrtd:output.obj
 0001:0005ab10       ??$get_parameter_type@D@?$positional_parameter_base@_WV?$stream_output_adapter@_W@__crt_stdio_output@@@__crt_stdio_output@@CA?AW4parameter_type@01@PEAD@Z 000000018005bb10 f i libucrtd:output.obj
 0001:0005ab20       ??$get_parameter_type@D@?$positional_parameter_base@_WV?$string_output_adapter@_W@__crt_stdio_output@@@__crt_stdio_output@@CA?AW4parameter_type@01@PEAD@Z 000000018005bb20 f i libucrtd:output.obj
 0001:0005ab70       ??$get_parameter_type@X@?$positional_parameter_base@DV?$stream_output_adapter@D@__crt_stdio_output@@@__crt_stdio_output@@CA?AW4parameter_type@01@PEAX@Z 000000018005bb70 f i libucrtd:output.obj
 0001:0005ab80       ??$get_parameter_type@X@?$positional_parameter_base@DV?$string_output_adapter@D@__crt_stdio_output@@@__crt_stdio_output@@CA?AW4parameter_type@01@PEAX@Z 000000018005bb80 f i libucrtd:output.obj
 0001:0005ab90       ??$get_parameter_type@X@?$positional_parameter_base@_WV?$stream_output_adapter@_W@__crt_stdio_output@@@__crt_stdio_output@@CA?AW4parameter_type@01@PEAX@Z 000000018005bb90 f i libucrtd:output.obj
 0001:0005aba0       ??$get_parameter_type@X@?$positional_parameter_base@_WV?$string_output_adapter@_W@__crt_stdio_output@@@__crt_stdio_output@@CA?AW4parameter_type@01@PEAX@Z 000000018005bba0 f i libucrtd:output.obj
 0001:0005abb0       ??$is_character_specifier@D@?$positional_parameter_base@DV?$stream_output_adapter@D@__crt_stdio_output@@@__crt_stdio_output@@CA_ND@Z 000000018005bbb0 f i libucrtd:output.obj
 0001:0005abf0       ??$is_character_specifier@D@?$positional_parameter_base@DV?$string_output_adapter@D@__crt_stdio_output@@@__crt_stdio_output@@CA_ND@Z 000000018005bbf0 f i libucrtd:output.obj
 0001:0005ac30       ??$is_character_specifier@_W@?$positional_parameter_base@_WV?$stream_output_adapter@_W@__crt_stdio_output@@@__crt_stdio_output@@CA_N_W@Z 000000018005bc30 f i libucrtd:output.obj
 0001:0005ac70       ??$is_character_specifier@_W@?$positional_parameter_base@_WV?$string_output_adapter@_W@__crt_stdio_output@@@__crt_stdio_output@@CA_N_W@Z 000000018005bc70 f i libucrtd:output.obj
 0001:0005acb0       ??$is_integral_specifier@D@?$positional_parameter_base@DV?$stream_output_adapter@D@__crt_stdio_output@@@__crt_stdio_output@@CA_ND@Z 000000018005bcb0 f i libucrtd:output.obj
 0001:0005ad20       ??$is_integral_specifier@D@?$positional_parameter_base@DV?$string_output_adapter@D@__crt_stdio_output@@@__crt_stdio_output@@CA_ND@Z 000000018005bd20 f i libucrtd:output.obj
 0001:0005ad90       ??$is_integral_specifier@_W@?$positional_parameter_base@_WV?$stream_output_adapter@_W@__crt_stdio_output@@@__crt_stdio_output@@CA_N_W@Z 000000018005bd90 f i libucrtd:output.obj
 0001:0005ae00       ??$is_integral_specifier@_W@?$positional_parameter_base@_WV?$string_output_adapter@_W@__crt_stdio_output@@@__crt_stdio_output@@CA_N_W@Z 000000018005be00 f i libucrtd:output.obj
 0001:0005ae70       ??$is_pointer_specifier@D@?$positional_parameter_base@DV?$stream_output_adapter@D@__crt_stdio_output@@@__crt_stdio_output@@CA_ND@Z 000000018005be70 f i libucrtd:output.obj
 0001:0005aea0       ??$is_pointer_specifier@D@?$positional_parameter_base@DV?$string_output_adapter@D@__crt_stdio_output@@@__crt_stdio_output@@CA_ND@Z 000000018005bea0 f i libucrtd:output.obj
 0001:0005aed0       ??$is_pointer_specifier@_W@?$positional_parameter_base@_WV?$stream_output_adapter@_W@__crt_stdio_output@@@__crt_stdio_output@@CA_N_W@Z 000000018005bed0 f i libucrtd:output.obj
 0001:0005af00       ??$is_pointer_specifier@_W@?$positional_parameter_base@_WV?$string_output_adapter@_W@__crt_stdio_output@@@__crt_stdio_output@@CA_N_W@Z 000000018005bf00 f i libucrtd:output.obj
 0001:0005af30       ??$is_string_specifier@D@?$positional_parameter_base@DV?$stream_output_adapter@D@__crt_stdio_output@@@__crt_stdio_output@@CA_ND@Z 000000018005bf30 f i libucrtd:output.obj
 0001:0005af70       ??$is_string_specifier@D@?$positional_parameter_base@DV?$string_output_adapter@D@__crt_stdio_output@@@__crt_stdio_output@@CA_ND@Z 000000018005bf70 f i libucrtd:output.obj
 0001:0005afb0       ??$is_string_specifier@_W@?$positional_parameter_base@_WV?$stream_output_adapter@_W@__crt_stdio_output@@@__crt_stdio_output@@CA_N_W@Z 000000018005bfb0 f i libucrtd:output.obj
 0001:0005aff0       ??$is_string_specifier@_W@?$positional_parameter_base@_WV?$string_output_adapter@_W@__crt_stdio_output@@@__crt_stdio_output@@CA_N_W@Z 000000018005bff0 f i libucrtd:output.obj
 0001:0005b030       ??$is_wide_character_specifier@D@__crt_stdio_output@@YA_N_KDW4length_modifier@0@@Z 000000018005c030 f i libucrtd:output.obj
 0001:0005b0d0       ??$is_wide_character_specifier@_W@__crt_stdio_output@@YA_N_K_WW4length_modifier@0@@Z 000000018005c0d0 f i libucrtd:output.obj
 0001:0005b1a0       ??$peek_va_arg@C@__crt_stdio_output@@YACPEAD@Z 000000018005c1a0 f i libucrtd:output.obj
 0001:0005b200       ??$peek_va_arg@E@__crt_stdio_output@@YAEPEAD@Z 000000018005c200 f i libucrtd:output.obj
 0001:0005b260       ??$peek_va_arg@F@__crt_stdio_output@@YAFPEAD@Z 000000018005c260 f i libucrtd:output.obj
 0001:0005b2c0       ??$peek_va_arg@G@__crt_stdio_output@@YAGPEAD@Z 000000018005c2c0 f i libucrtd:output.obj
 0001:0005b320       ??$peek_va_arg@H@__crt_stdio_output@@YAHPEAD@Z 000000018005c320 f i libucrtd:output.obj
 0001:0005b370       ??$peek_va_arg@I@__crt_stdio_output@@YAIPEAD@Z 000000018005c370 f i libucrtd:output.obj
 0001:0005b3c0       ??$peek_va_arg@PEAD@__crt_stdio_output@@YAPEADPEAD@Z 000000018005c3c0 f i libucrtd:output.obj
 0001:0005b5a0       ??$peek_va_arg@PEAX@__crt_stdio_output@@YAPEAXPEAD@Z 000000018005c5a0 f i libucrtd:output.obj
 0001:0005b600       ??$peek_va_arg@U_CRT_DOUBLE@@@__crt_stdio_output@@YA?AU_CRT_DOUBLE@@PEAD@Z 000000018005c600 f i libucrtd:output.obj
 0001:0005b660       ??$peek_va_arg@_J@__crt_stdio_output@@YA_JPEAD@Z 000000018005c660 f i libucrtd:output.obj
 0001:0005b6c0       ??$peek_va_arg@_K@__crt_stdio_output@@YA_KPEAD@Z 000000018005c6c0 f i libucrtd:output.obj
 0001:0005b720       ??$peek_va_arg@_W@__crt_stdio_output@@YA_WPEAD@Z 000000018005c720 f i libucrtd:output.obj
 0001:0005b780       ??$puttc_nolock@AEBDPEAU_iobuf@@@?$__crt_char_traits@D@@SAHAEBD$$QEAPEAU_iobuf@@@Z 000000018005c780 f i libucrtd:output.obj
 0001:0005b7b0       ??$puttc_nolock@AEB_WPEAU_iobuf@@@?$__crt_char_traits@_W@@SAGAEB_W$$QEAPEAU_iobuf@@@Z 000000018005c7b0 f i libucrtd:output.obj
 0001:0005b7e0       ??$read_va_arg@C@__crt_stdio_output@@YACAEAPEAD@Z 000000018005c7e0 f i libucrtd:output.obj
 0001:0005b850       ??$read_va_arg@E@__crt_stdio_output@@YAEAEAPEAD@Z 000000018005c850 f i libucrtd:output.obj
 0001:0005b8c0       ??$read_va_arg@F@__crt_stdio_output@@YAFAEAPEAD@Z 000000018005c8c0 f i libucrtd:output.obj
 0001:0005b930       ??$read_va_arg@G@__crt_stdio_output@@YAGAEAPEAD@Z 000000018005c930 f i libucrtd:output.obj
 0001:0005b9a0       ??$read_va_arg@H@__crt_stdio_output@@YAHAEAPEAD@Z 000000018005c9a0 f i libucrtd:output.obj
 0001:0005ba00       ??$read_va_arg@I@__crt_stdio_output@@YAIAEAPEAD@Z 000000018005ca00 f i libucrtd:output.obj
 0001:0005ba60       ??$read_va_arg@PEAD@__crt_stdio_output@@YAPEADAEAPEAD@Z 000000018005ca60 f i libucrtd:output.obj
 0001:0005c010       ??$read_va_arg@PEAX@__crt_stdio_output@@YAPEAXAEAPEAD@Z 000000018005d010 f i libucrtd:output.obj
 0001:0005c080       ??$read_va_arg@U_CRT_DOUBLE@@@__crt_stdio_output@@YA?AU_CRT_DOUBLE@@AEAPEAD@Z 000000018005d080 f i libucrtd:output.obj
 0001:0005c0f0       ??$read_va_arg@_J@__crt_stdio_output@@YA_JAEAPEAD@Z 000000018005d0f0 f i libucrtd:output.obj
 0001:0005c160       ??$read_va_arg@_K@__crt_stdio_output@@YA_KAEAPEAD@Z 000000018005d160 f i libucrtd:output.obj
 0001:0005c1d0       ??$read_va_arg@_W@__crt_stdio_output@@YA_WAEAPEAD@Z 000000018005d1d0 f i libucrtd:output.obj
 0001:0005c240       ??$scratch_count@D@formatting_buffer@__crt_stdio_output@@QEBA_KXZ 000000018005d240 f i libucrtd:output.obj
 0001:0005c260       ??$scratch_data@D@formatting_buffer@__crt_stdio_output@@QEAAPEADXZ 000000018005d260 f i libucrtd:output.obj
 0001:0005c2d0       ??$tcstol@AEAPEBDPEAPEADH@?$__crt_char_traits@D@@SAJAEAPEBD$$QEAPEAPEAD$$QEAH@Z 000000018005d2d0 f i libucrtd:output.obj
 0001:0005c310       ??$tcstol@AEAPEB_WPEAPEA_WH@?$__crt_char_traits@_W@@SAJAEAPEB_W$$QEAPEAPEA_W$$QEAH@Z 000000018005d310 f i libucrtd:output.obj
 0001:0005c350       ??$tcstol@PEBDPEAPEADH@?$__crt_char_traits@D@@SAJ$$QEAPEBD$$QEAPEAPEAD$$QEAH@Z 000000018005d350 f i libucrtd:output.obj
 0001:0005c390       ??$tcstol@PEB_WPEAPEA_WH@?$__crt_char_traits@_W@@SAJ$$QEAPEB_W$$QEAPEAPEA_W$$QEAH@Z 000000018005d390 f i libucrtd:output.obj
 0001:0005c3d0       ??$type_case_integer_parse_into_buffer@I@?$output_processor@DV?$stream_output_adapter@D@__crt_stdio_output@@V?$format_validation_base@DV?$stream_output_adapter@D@__crt_stdio_output@@@2@@__crt_stdio_output@@AEAAXII_N@Z 000000018005d3d0 f i libucrtd:output.obj
 0001:0005c500       ??$type_case_integer_parse_into_buffer@I@?$output_processor@DV?$stream_output_adapter@D@__crt_stdio_output@@V?$positional_parameter_base@DV?$stream_output_adapter@D@__crt_stdio_output@@@2@@__crt_stdio_output@@AEAAXII_N@Z 000000018005d500 f i libucrtd:output.obj
 0001:0005c630       ??$type_case_integer_parse_into_buffer@I@?$output_processor@DV?$stream_output_adapter@D@__crt_stdio_output@@V?$standard_base@DV?$stream_output_adapter@D@__crt_stdio_output@@@2@@__crt_stdio_output@@AEAAXII_N@Z 000000018005d630 f i libucrtd:output.obj
 0001:0005c760       ??$type_case_integer_parse_into_buffer@I@?$output_processor@DV?$string_output_adapter@D@__crt_stdio_output@@V?$format_validation_base@DV?$string_output_adapter@D@__crt_stdio_output@@@2@@__crt_stdio_output@@AEAAXII_N@Z 000000018005d760 f i libucrtd:output.obj
 0001:0005c890       ??$type_case_integer_parse_into_buffer@I@?$output_processor@DV?$string_output_adapter@D@__crt_stdio_output@@V?$positional_parameter_base@DV?$string_output_adapter@D@__crt_stdio_output@@@2@@__crt_stdio_output@@AEAAXII_N@Z 000000018005d890 f i libucrtd:output.obj
 0001:0005c9c0       ??$type_case_integer_parse_into_buffer@I@?$output_processor@DV?$string_output_adapter@D@__crt_stdio_output@@V?$standard_base@DV?$string_output_adapter@D@__crt_stdio_output@@@2@@__crt_stdio_output@@AEAAXII_N@Z 000000018005d9c0 f i libucrtd:output.obj
 0001:0005caf0       ??$type_case_integer_parse_into_buffer@I@?$output_processor@_WV?$stream_output_adapter@_W@__crt_stdio_output@@V?$format_validation_base@_WV?$stream_output_adapter@_W@__crt_stdio_output@@@2@@__crt_stdio_output@@AEAAXII_N@Z 000000018005daf0 f i libucrtd:output.obj
 0001:0005cc30       ??$type_case_integer_parse_into_buffer@I@?$output_processor@_WV?$stream_output_adapter@_W@__crt_stdio_output@@V?$positional_parameter_base@_WV?$stream_output_adapter@_W@__crt_stdio_output@@@2@@__crt_stdio_output@@AEAAXII_N@Z 000000018005dc30 f i libucrtd:output.obj
 0001:0005cd70       ??$type_case_integer_parse_into_buffer@I@?$output_processor@_WV?$stream_output_adapter@_W@__crt_stdio_output@@V?$standard_base@_WV?$stream_output_adapter@_W@__crt_stdio_output@@@2@@__crt_stdio_output@@AEAAXII_N@Z 000000018005dd70 f i libucrtd:output.obj
 0001:0005ceb0       ??$type_case_integer_parse_into_buffer@I@?$output_processor@_WV?$string_output_adapter@_W@__crt_stdio_output@@V?$format_validation_base@_WV?$string_output_adapter@_W@__crt_stdio_output@@@2@@__crt_stdio_output@@AEAAXII_N@Z 000000018005deb0 f i libucrtd:output.obj
 0001:0005cff0       ??$type_case_integer_parse_into_buffer@I@?$output_processor@_WV?$string_output_adapter@_W@__crt_stdio_output@@V?$positional_parameter_base@_WV?$string_output_adapter@_W@__crt_stdio_output@@@2@@__crt_stdio_output@@AEAAXII_N@Z 000000018005dff0 f i libucrtd:output.obj
 0001:0005d130       ??$type_case_integer_parse_into_buffer@I@?$output_processor@_WV?$string_output_adapter@_W@__crt_stdio_output@@V?$standard_base@_WV?$string_output_adapter@_W@__crt_stdio_output@@@2@@__crt_stdio_output@@AEAAXII_N@Z 000000018005e130 f i libucrtd:output.obj
 0001:0005d270       ??$type_case_integer_parse_into_buffer@_K@?$output_processor@DV?$stream_output_adapter@D@__crt_stdio_output@@V?$format_validation_base@DV?$stream_output_adapter@D@__crt_stdio_output@@@2@@__crt_stdio_output@@AEAAX_KI_N@Z 000000018005e270 f i libucrtd:output.obj
 0001:0005d3c0       ??$type_case_integer_parse_into_buffer@_K@?$output_processor@DV?$stream_output_adapter@D@__crt_stdio_output@@V?$positional_parameter_base@DV?$stream_output_adapter@D@__crt_stdio_output@@@2@@__crt_stdio_output@@AEAAX_KI_N@Z 000000018005e3c0 f i libucrtd:output.obj
 0001:0005d510       ??$type_case_integer_parse_into_buffer@_K@?$output_processor@DV?$stream_output_adapter@D@__crt_stdio_output@@V?$standard_base@DV?$stream_output_adapter@D@__crt_stdio_output@@@2@@__crt_stdio_output@@AEAAX_KI_N@Z 000000018005e510 f i libucrtd:output.obj
 0001:0005d660       ??$type_case_integer_parse_into_buffer@_K@?$output_processor@DV?$string_output_adapter@D@__crt_stdio_output@@V?$format_validation_base@DV?$string_output_adapter@D@__crt_stdio_output@@@2@@__crt_stdio_output@@AEAAX_KI_N@Z 000000018005e660 f i libucrtd:output.obj
 0001:0005d7b0       ??$type_case_integer_parse_into_buffer@_K@?$output_processor@DV?$string_output_adapter@D@__crt_stdio_output@@V?$positional_parameter_base@DV?$string_output_adapter@D@__crt_stdio_output@@@2@@__crt_stdio_output@@AEAAX_KI_N@Z 000000018005e7b0 f i libucrtd:output.obj
 0001:0005d900       ??$type_case_integer_parse_into_buffer@_K@?$output_processor@DV?$string_output_adapter@D@__crt_stdio_output@@V?$standard_base@DV?$string_output_adapter@D@__crt_stdio_output@@@2@@__crt_stdio_output@@AEAAX_KI_N@Z 000000018005e900 f i libucrtd:output.obj
 0001:0005da50       ??$type_case_integer_parse_into_buffer@_K@?$output_processor@_WV?$stream_output_adapter@_W@__crt_stdio_output@@V?$format_validation_base@_WV?$stream_output_adapter@_W@__crt_stdio_output@@@2@@__crt_stdio_output@@AEAAX_KI_N@Z 000000018005ea50 f i libucrtd:output.obj
 0001:0005dbb0       ??$type_case_integer_parse_into_buffer@_K@?$output_processor@_WV?$stream_output_adapter@_W@__crt_stdio_output@@V?$positional_parameter_base@_WV?$stream_output_adapter@_W@__crt_stdio_output@@@2@@__crt_stdio_output@@AEAAX_KI_N@Z 000000018005ebb0 f i libucrtd:output.obj
 0001:0005dd10       ??$type_case_integer_parse_into_buffer@_K@?$output_processor@_WV?$stream_output_adapter@_W@__crt_stdio_output@@V?$standard_base@_WV?$stream_output_adapter@_W@__crt_stdio_output@@@2@@__crt_stdio_output@@AEAAX_KI_N@Z 000000018005ed10 f i libucrtd:output.obj
 0001:0005de70       ??$type_case_integer_parse_into_buffer@_K@?$output_processor@_WV?$string_output_adapter@_W@__crt_stdio_output@@V?$format_validation_base@_WV?$string_output_adapter@_W@__crt_stdio_output@@@2@@__crt_stdio_output@@AEAAX_KI_N@Z 000000018005ee70 f i libucrtd:output.obj
 0001:0005dfd0       ??$type_case_integer_parse_into_buffer@_K@?$output_processor@_WV?$string_output_adapter@_W@__crt_stdio_output@@V?$positional_parameter_base@_WV?$string_output_adapter@_W@__crt_stdio_output@@@2@@__crt_stdio_output@@AEAAX_KI_N@Z 000000018005efd0 f i libucrtd:output.obj
 0001:0005e130       ??$type_case_integer_parse_into_buffer@_K@?$output_processor@_WV?$string_output_adapter@_W@__crt_stdio_output@@V?$standard_base@_WV?$string_output_adapter@_W@__crt_stdio_output@@@2@@__crt_stdio_output@@AEAAX_KI_N@Z 000000018005f130 f i libucrtd:output.obj
 0001:0005e290       ??$write_multiple_characters@V?$stream_output_adapter@D@__crt_stdio_output@@D@__crt_stdio_output@@YAXAEBV?$stream_output_adapter@D@0@DHQEAH@Z 000000018005f290 f i libucrtd:output.obj
 0001:0005e2f0       ??$write_multiple_characters@V?$stream_output_adapter@_W@__crt_stdio_output@@D@__crt_stdio_output@@YAXAEBV?$stream_output_adapter@_W@0@DHQEAH@Z 000000018005f2f0 f i libucrtd:output.obj
 0001:0005e350       ??$write_multiple_characters@V?$string_output_adapter@D@__crt_stdio_output@@D@__crt_stdio_output@@YAXAEBV?$string_output_adapter@D@0@DHQEAH@Z 000000018005f350 f i libucrtd:output.obj
 0001:0005e3b0       ??$write_multiple_characters@V?$string_output_adapter@_W@__crt_stdio_output@@D@__crt_stdio_output@@YAXAEBV?$string_output_adapter@_W@0@DHQEAH@Z 000000018005f3b0 f i libucrtd:output.obj
 0001:0005e7d0       ??0?$common_data@D@__crt_stdio_output@@IEAA@XZ 000000018005f7d0 f i libucrtd:output.obj
 0001:0005e8a0       ??0?$common_data@_W@__crt_stdio_output@@IEAA@XZ 000000018005f8a0 f i libucrtd:output.obj
 0001:0005e970       ??0?$output_adapter_data@DV?$stream_output_adapter@D@__crt_stdio_output@@@__crt_stdio_output@@IEAA@AEBV?$stream_output_adapter@D@1@_KQEBDQEAU__crt_locale_pointers@@QEAD@Z 000000018005f970 f i libucrtd:output.obj
 0001:0005e9f0       ??0?$output_adapter_data@DV?$string_output_adapter@D@__crt_stdio_output@@@__crt_stdio_output@@IEAA@AEBV?$string_output_adapter@D@1@_KQEBDQEAU__crt_locale_pointers@@QEAD@Z 000000018005f9f0 f i libucrtd:output.obj
 0001:0005ea70       ??0?$output_adapter_data@_WV?$stream_output_adapter@_W@__crt_stdio_output@@@__crt_stdio_output@@IEAA@AEBV?$stream_output_adapter@_W@1@_KQEB_WQEAU__crt_locale_pointers@@QEAD@Z 000000018005fa70 f i libucrtd:output.obj
 0001:0005eaf0       ??0?$output_adapter_data@_WV?$string_output_adapter@_W@__crt_stdio_output@@@__crt_stdio_output@@IEAA@AEBV?$string_output_adapter@_W@1@_KQEB_WQEAU__crt_locale_pointers@@QEAD@Z 000000018005faf0 f i libucrtd:output.obj
 0001:0005eb70       ??0?$output_processor@DV?$stream_output_adapter@D@__crt_stdio_output@@V?$format_validation_base@DV?$stream_output_adapter@D@__crt_stdio_output@@@2@@__crt_stdio_output@@QEAA@AEBV?$stream_output_adapter@D@1@_KQEBDQEAU__crt_locale_pointers@@QEAD@Z 000000018005fb70 f i libucrtd:output.obj
 0001:0005ebc0       ??0?$output_processor@DV?$stream_output_adapter@D@__crt_stdio_output@@V?$positional_parameter_base@DV?$stream_output_adapter@D@__crt_stdio_output@@@2@@__crt_stdio_output@@QEAA@AEBV?$stream_output_adapter@D@1@_KQEBDQEAU__crt_locale_pointers@@QEAD@Z 000000018005fbc0 f i libucrtd:output.obj
 0001:0005ec10       ??0?$output_processor@DV?$stream_output_adapter@D@__crt_stdio_output@@V?$standard_base@DV?$stream_output_adapter@D@__crt_stdio_output@@@2@@__crt_stdio_output@@QEAA@AEBV?$stream_output_adapter@D@1@_KQEBDQEAU__crt_locale_pointers@@QEAD@Z 000000018005fc10 f i libucrtd:output.obj
 0001:0005ec60       ??0?$output_processor@DV?$string_output_adapter@D@__crt_stdio_output@@V?$format_validation_base@DV?$string_output_adapter@D@__crt_stdio_output@@@2@@__crt_stdio_output@@QEAA@AEBV?$string_output_adapter@D@1@_KQEBDQEAU__crt_locale_pointers@@QEAD@Z 000000018005fc60 f i libucrtd:output.obj
 0001:0005ecb0       ??0?$output_processor@DV?$string_output_adapter@D@__crt_stdio_output@@V?$positional_parameter_base@DV?$string_output_adapter@D@__crt_stdio_output@@@2@@__crt_stdio_output@@QEAA@AEBV?$string_output_adapter@D@1@_KQEBDQEAU__crt_locale_pointers@@QEAD@Z 000000018005fcb0 f i libucrtd:output.obj
 0001:0005ed00       ??0?$output_processor@DV?$string_output_adapter@D@__crt_stdio_output@@V?$standard_base@DV?$string_output_adapter@D@__crt_stdio_output@@@2@@__crt_stdio_output@@QEAA@AEBV?$string_output_adapter@D@1@_KQEBDQEAU__crt_locale_pointers@@QEAD@Z 000000018005fd00 f i libucrtd:output.obj
 0001:0005ed50       ??0?$output_processor@_WV?$stream_output_adapter@_W@__crt_stdio_output@@V?$format_validation_base@_WV?$stream_output_adapter@_W@__crt_stdio_output@@@2@@__crt_stdio_output@@QEAA@AEBV?$stream_output_adapter@_W@1@_KQEB_WQEAU__crt_locale_pointers@@QEAD@Z 000000018005fd50 f i libucrtd:output.obj
 0001:0005eda0       ??0?$output_processor@_WV?$stream_output_adapter@_W@__crt_stdio_output@@V?$positional_parameter_base@_WV?$stream_output_adapter@_W@__crt_stdio_output@@@2@@__crt_stdio_output@@QEAA@AEBV?$stream_output_adapter@_W@1@_KQEB_WQEAU__crt_locale_pointers@@QEAD@Z 000000018005fda0 f i libucrtd:output.obj
 0001:0005edf0       ??0?$output_processor@_WV?$stream_output_adapter@_W@__crt_stdio_output@@V?$standard_base@_WV?$stream_output_adapter@_W@__crt_stdio_output@@@2@@__crt_stdio_output@@QEAA@AEBV?$stream_output_adapter@_W@1@_KQEB_WQEAU__crt_locale_pointers@@QEAD@Z 000000018005fdf0 f i libucrtd:output.obj
 0001:0005ee40       ??0?$output_processor@_WV?$string_output_adapter@_W@__crt_stdio_output@@V?$format_validation_base@_WV?$string_output_adapter@_W@__crt_stdio_output@@@2@@__crt_stdio_output@@QEAA@AEBV?$string_output_adapter@_W@1@_KQEB_WQEAU__crt_locale_pointers@@QEAD@Z 000000018005fe40 f i libucrtd:output.obj
 0001:0005ee90       ??0?$output_processor@_WV?$string_output_adapter@_W@__crt_stdio_output@@V?$positional_parameter_base@_WV?$string_output_adapter@_W@__crt_stdio_output@@@2@@__crt_stdio_output@@QEAA@AEBV?$string_output_adapter@_W@1@_KQEB_WQEAU__crt_locale_pointers@@QEAD@Z 000000018005fe90 f i libucrtd:output.obj
 0001:0005eee0       ??0?$output_processor@_WV?$string_output_adapter@_W@__crt_stdio_output@@V?$standard_base@_WV?$string_output_adapter@_W@__crt_stdio_output@@@2@@__crt_stdio_output@@QEAA@AEBV?$string_output_adapter@_W@1@_KQEB_WQEAU__crt_locale_pointers@@QEAD@Z 000000018005fee0 f i libucrtd:output.obj
 0001:0005ef30       ??0?$stream_output_adapter@D@__crt_stdio_output@@QEAA@QEAU_iobuf@@@Z 000000018005ff30 f i libucrtd:output.obj
 0001:0005ef60       ??0?$stream_output_adapter@_W@__crt_stdio_output@@QEAA@QEAU_iobuf@@@Z 000000018005ff60 f i libucrtd:output.obj
 0001:0005ef90       ??0?$string_output_adapter@D@__crt_stdio_output@@QEAA@QEAU?$string_output_adapter_context@D@1@@Z 000000018005ff90 f i libucrtd:output.obj
 0001:0005efb0       ??0?$string_output_adapter@_W@__crt_stdio_output@@QEAA@QEAU?$string_output_adapter_context@_W@1@@Z 000000018005ffb0 f i libucrtd:output.obj
 0001:0005efd0       ??0_LocaleUpdate@@QEAA@QEAU__crt_locale_pointers@@@Z 000000018005ffd0 f i libucrtd:output.obj
 0001:0005f0f0       ??0__acrt_stdio_temporary_buffering_guard@@QEAA@QEAU_iobuf@@@Z 00000001800600f0 f i libucrtd:output.obj
 0001:0005f130       ??0__crt_deferred_errno_cache@@QEAA@XZ 0000000180060130 f i libucrtd:output.obj
 0001:0005f150       ??0__crt_errno_guard@@QEAA@QEAH@Z 0000000180060150 f i libucrtd:output.obj
 0001:0005f190       ??0__crt_stdio_stream@@QEAA@QEAU_iobuf@@@Z 0000000180060190 f i libucrtd:output.obj
 0001:0005f1b0       ??0formatting_buffer@__crt_stdio_output@@QEAA@XZ 00000001800601b0 f i libucrtd:output.obj
 0001:0005f1f0       ??1?$common_data@D@__crt_stdio_output@@QEAA@XZ 00000001800601f0 f i libucrtd:output.obj
 0001:0005f210       ??1?$common_data@_W@__crt_stdio_output@@QEAA@XZ 0000000180060210 f i libucrtd:output.obj
 0001:0005f230       ??1?$format_validation_base@DV?$stream_output_adapter@D@__crt_stdio_output@@@__crt_stdio_output@@QEAA@XZ 0000000180060230 f i libucrtd:output.obj
 0001:0005f250       ??1?$format_validation_base@DV?$string_output_adapter@D@__crt_stdio_output@@@__crt_stdio_output@@QEAA@XZ 0000000180060250 f i libucrtd:output.obj
 0001:0005f270       ??1?$format_validation_base@_WV?$stream_output_adapter@_W@__crt_stdio_output@@@__crt_stdio_output@@QEAA@XZ 0000000180060270 f i libucrtd:output.obj
 0001:0005f290       ??1?$format_validation_base@_WV?$string_output_adapter@_W@__crt_stdio_output@@@__crt_stdio_output@@QEAA@XZ 0000000180060290 f i libucrtd:output.obj
 0001:0005f2b0       ??1?$output_adapter_data@DV?$stream_output_adapter@D@__crt_stdio_output@@@__crt_stdio_output@@QEAA@XZ 00000001800602b0 f i libucrtd:output.obj
 0001:0005f2d0       ??1?$output_adapter_data@DV?$string_output_adapter@D@__crt_stdio_output@@@__crt_stdio_output@@QEAA@XZ 00000001800602d0 f i libucrtd:output.obj
 0001:0005f2f0       ??1?$output_adapter_data@_WV?$stream_output_adapter@_W@__crt_stdio_output@@@__crt_stdio_output@@QEAA@XZ 00000001800602f0 f i libucrtd:output.obj
 0001:0005f310       ??1?$output_adapter_data@_WV?$string_output_adapter@_W@__crt_stdio_output@@@__crt_stdio_output@@QEAA@XZ 0000000180060310 f i libucrtd:output.obj
 0001:0005f330       ??1?$output_processor@DV?$stream_output_adapter@D@__crt_stdio_output@@V?$format_validation_base@DV?$stream_output_adapter@D@__crt_stdio_output@@@2@@__crt_stdio_output@@QEAA@XZ 0000000180060330 f i libucrtd:output.obj
 0001:0005f350       ??1?$output_processor@DV?$stream_output_adapter@D@__crt_stdio_output@@V?$positional_parameter_base@DV?$stream_output_adapter@D@__crt_stdio_output@@@2@@__crt_stdio_output@@QEAA@XZ 0000000180060350 f i libucrtd:output.obj
 0001:0005f370       ??1?$output_processor@DV?$stream_output_adapter@D@__crt_stdio_output@@V?$standard_base@DV?$stream_output_adapter@D@__crt_stdio_output@@@2@@__crt_stdio_output@@QEAA@XZ 0000000180060370 f i libucrtd:output.obj
 0001:0005f390       ??1?$output_processor@DV?$string_output_adapter@D@__crt_stdio_output@@V?$format_validation_base@DV?$string_output_adapter@D@__crt_stdio_output@@@2@@__crt_stdio_output@@QEAA@XZ 0000000180060390 f i libucrtd:output.obj
 0001:0005f3b0       ??1?$output_processor@DV?$string_output_adapter@D@__crt_stdio_output@@V?$positional_parameter_base@DV?$string_output_adapter@D@__crt_stdio_output@@@2@@__crt_stdio_output@@QEAA@XZ 00000001800603b0 f i libucrtd:output.obj
 0001:0005f3d0       ??1?$output_processor@DV?$string_output_adapter@D@__crt_stdio_output@@V?$standard_base@DV?$string_output_adapter@D@__crt_stdio_output@@@2@@__crt_stdio_output@@QEAA@XZ 00000001800603d0 f i libucrtd:output.obj
 0001:0005f3f0       ??1?$output_processor@_WV?$stream_output_adapter@_W@__crt_stdio_output@@V?$format_validation_base@_WV?$stream_output_adapter@_W@__crt_stdio_output@@@2@@__crt_stdio_output@@QEAA@XZ 00000001800603f0 f i libucrtd:output.obj
 0001:0005f410       ??1?$output_processor@_WV?$stream_output_adapter@_W@__crt_stdio_output@@V?$positional_parameter_base@_WV?$stream_output_adapter@_W@__crt_stdio_output@@@2@@__crt_stdio_output@@QEAA@XZ 0000000180060410 f i libucrtd:output.obj
 0001:0005f430       ??1?$output_processor@_WV?$stream_output_adapter@_W@__crt_stdio_output@@V?$standard_base@_WV?$stream_output_adapter@_W@__crt_stdio_output@@@2@@__crt_stdio_output@@QEAA@XZ 0000000180060430 f i libucrtd:output.obj
 0001:0005f450       ??1?$output_processor@_WV?$string_output_adapter@_W@__crt_stdio_output@@V?$format_validation_base@_WV?$string_output_adapter@_W@__crt_stdio_output@@@2@@__crt_stdio_output@@QEAA@XZ 0000000180060450 f i libucrtd:output.obj
 0001:0005f470       ??1?$output_processor@_WV?$string_output_adapter@_W@__crt_stdio_output@@V?$positional_parameter_base@_WV?$string_output_adapter@_W@__crt_stdio_output@@@2@@__crt_stdio_output@@QEAA@XZ 0000000180060470 f i libucrtd:output.obj
 0001:0005f490       ??1?$output_processor@_WV?$string_output_adapter@_W@__crt_stdio_output@@V?$standard_base@_WV?$string_output_adapter@_W@__crt_stdio_output@@@2@@__crt_stdio_output@@QEAA@XZ 0000000180060490 f i libucrtd:output.obj
 0001:0005f4b0       ??1?$positional_parameter_base@DV?$stream_output_adapter@D@__crt_stdio_output@@@__crt_stdio_output@@QEAA@XZ 00000001800604b0 f i libucrtd:output.obj
 0001:0005f4d0       ??1?$positional_parameter_base@DV?$string_output_adapter@D@__crt_stdio_output@@@__crt_stdio_output@@QEAA@XZ 00000001800604d0 f i libucrtd:output.obj
 0001:0005f4f0       ??1?$positional_parameter_base@_WV?$stream_output_adapter@_W@__crt_stdio_output@@@__crt_stdio_output@@QEAA@XZ 00000001800604f0 f i libucrtd:output.obj
 0001:0005f510       ??1?$positional_parameter_base@_WV?$string_output_adapter@_W@__crt_stdio_output@@@__crt_stdio_output@@QEAA@XZ 0000000180060510 f i libucrtd:output.obj
 0001:0005f530       ??1?$standard_base@DV?$stream_output_adapter@D@__crt_stdio_output@@@__crt_stdio_output@@QEAA@XZ 0000000180060530 f i libucrtd:output.obj
 0001:0005f550       ??1?$standard_base@DV?$string_output_adapter@D@__crt_stdio_output@@@__crt_stdio_output@@QEAA@XZ 0000000180060550 f i libucrtd:output.obj
 0001:0005f570       ??1?$standard_base@_WV?$stream_output_adapter@_W@__crt_stdio_output@@@__crt_stdio_output@@QEAA@XZ 0000000180060570 f i libucrtd:output.obj
 0001:0005f590       ??1?$standard_base@_WV?$string_output_adapter@_W@__crt_stdio_output@@@__crt_stdio_output@@QEAA@XZ 0000000180060590 f i libucrtd:output.obj
 0001:0005f5b0       ??1_LocaleUpdate@@QEAA@XZ  00000001800605b0 f i libucrtd:output.obj
 0001:0005f5f0       ??1__acrt_stdio_temporary_buffering_guard@@QEAA@XZ 00000001800605f0 f i libucrtd:output.obj
 0001:0005f620       ??1__crt_errno_guard@@QEAA@XZ 0000000180060620 f i libucrtd:output.obj
 0001:0005f650       ??1formatting_buffer@__crt_stdio_output@@QEAA@XZ 0000000180060650 f i libucrtd:output.obj
 0001:0005f680       ??4?$__crt_unique_heap_ptr@DU__crt_internal_free_policy@@@@QEAAAEAV0@$$QEAV0@@Z 0000000180060680 f i libucrtd:output.obj
 0001:0005f6c0       ??C__crt_stdio_stream@@QEBAPEAU__crt_stdio_stream_data@@XZ 00000001800606c0 f i libucrtd:output.obj
 0001:0005ff70       ?GetLocaleT@_LocaleUpdate@@QEAAPEAU__crt_locale_pointers@@XZ 0000000180060f70 f i libucrtd:output.obj
 0001:0005ff80       ?__crt_interlocked_read_32@@YAHPEDH@Z 0000000180060f80 f i libucrtd:output.obj
 0001:0005ffa0       ?adjust_hexit@?$output_processor@DV?$stream_output_adapter@D@__crt_stdio_output@@V?$format_validation_base@DV?$stream_output_adapter@D@__crt_stdio_output@@@2@@__crt_stdio_output@@CADH_N@Z 0000000180060fa0 f i libucrtd:output.obj
 0001:0005fff0       ?adjust_hexit@?$output_processor@DV?$stream_output_adapter@D@__crt_stdio_output@@V?$positional_parameter_base@DV?$stream_output_adapter@D@__crt_stdio_output@@@2@@__crt_stdio_output@@CADH_N@Z 0000000180060ff0 f i libucrtd:output.obj
 0001:00060040       ?adjust_hexit@?$output_processor@DV?$stream_output_adapter@D@__crt_stdio_output@@V?$standard_base@DV?$stream_output_adapter@D@__crt_stdio_output@@@2@@__crt_stdio_output@@CADH_N@Z 0000000180061040 f i libucrtd:output.obj
 0001:00060090       ?adjust_hexit@?$output_processor@DV?$string_output_adapter@D@__crt_stdio_output@@V?$format_validation_base@DV?$string_output_adapter@D@__crt_stdio_output@@@2@@__crt_stdio_output@@CADH_N@Z 0000000180061090 f i libucrtd:output.obj
 0001:000600e0       ?adjust_hexit@?$output_processor@DV?$string_output_adapter@D@__crt_stdio_output@@V?$positional_parameter_base@DV?$string_output_adapter@D@__crt_stdio_output@@@2@@__crt_stdio_output@@CADH_N@Z 00000001800610e0 f i libucrtd:output.obj
 0001:00060130       ?adjust_hexit@?$output_processor@DV?$string_output_adapter@D@__crt_stdio_output@@V?$standard_base@DV?$string_output_adapter@D@__crt_stdio_output@@@2@@__crt_stdio_output@@CADH_N@Z 0000000180061130 f i libucrtd:output.obj
 0001:00060180       ?adjust_hexit@?$output_processor@_WV?$stream_output_adapter@_W@__crt_stdio_output@@V?$format_validation_base@_WV?$stream_output_adapter@_W@__crt_stdio_output@@@2@@__crt_stdio_output@@CADH_N@Z 0000000180061180 f i libucrtd:output.obj
 0001:000601d0       ?adjust_hexit@?$output_processor@_WV?$stream_output_adapter@_W@__crt_stdio_output@@V?$positional_parameter_base@_WV?$stream_output_adapter@_W@__crt_stdio_output@@@2@@__crt_stdio_output@@CADH_N@Z 00000001800611d0 f i libucrtd:output.obj
 0001:00060220       ?adjust_hexit@?$output_processor@_WV?$stream_output_adapter@_W@__crt_stdio_output@@V?$standard_base@_WV?$stream_output_adapter@_W@__crt_stdio_output@@@2@@__crt_stdio_output@@CADH_N@Z 0000000180061220 f i libucrtd:output.obj
 0001:00060270       ?adjust_hexit@?$output_processor@_WV?$string_output_adapter@_W@__crt_stdio_output@@V?$format_validation_base@_WV?$string_output_adapter@_W@__crt_stdio_output@@@2@@__crt_stdio_output@@CADH_N@Z 0000000180061270 f i libucrtd:output.obj
 0001:000602c0       ?adjust_hexit@?$output_processor@_WV?$string_output_adapter@_W@__crt_stdio_output@@V?$positional_parameter_base@_WV?$string_output_adapter@_W@__crt_stdio_output@@@2@@__crt_stdio_output@@CADH_N@Z 00000001800612c0 f i libucrtd:output.obj
 0001:00060310       ?adjust_hexit@?$output_processor@_WV?$string_output_adapter@_W@__crt_stdio_output@@V?$standard_base@_WV?$string_output_adapter@_W@__crt_stdio_output@@@2@@__crt_stdio_output@@CADH_N@Z 0000000180061310 f i libucrtd:output.obj
 0001:00060360       ?advance_to_next_pass@?$positional_parameter_base@DV?$stream_output_adapter@D@__crt_stdio_output@@@__crt_stdio_output@@IEAA_NXZ 0000000180061360 f i libucrtd:output.obj
 0001:00060410       ?advance_to_next_pass@?$positional_parameter_base@DV?$string_output_adapter@D@__crt_stdio_output@@@__crt_stdio_output@@IEAA_NXZ 0000000180061410 f i libucrtd:output.obj
 0001:000604c0       ?advance_to_next_pass@?$positional_parameter_base@_WV?$stream_output_adapter@_W@__crt_stdio_output@@@__crt_stdio_output@@IEAA_NXZ 00000001800614c0 f i libucrtd:output.obj
 0001:00060570       ?advance_to_next_pass@?$positional_parameter_base@_WV?$string_output_adapter@_W@__crt_stdio_output@@@__crt_stdio_output@@IEAA_NXZ 0000000180061570 f i libucrtd:output.obj
 0001:00060620       ?advance_to_next_pass@?$standard_base@DV?$stream_output_adapter@D@__crt_stdio_output@@@__crt_stdio_output@@IEAA_NXZ 0000000180061620 f i libucrtd:output.obj
 0001:00060670       ?advance_to_next_pass@?$standard_base@DV?$string_output_adapter@D@__crt_stdio_output@@@__crt_stdio_output@@IEAA_NXZ 0000000180061670 f i libucrtd:output.obj
 0001:000606c0       ?advance_to_next_pass@?$standard_base@_WV?$stream_output_adapter@_W@__crt_stdio_output@@@__crt_stdio_output@@IEAA_NXZ 00000001800616c0 f i libucrtd:output.obj
 0001:00060710       ?advance_to_next_pass@?$standard_base@_WV?$string_output_adapter@_W@__crt_stdio_output@@@__crt_stdio_output@@IEAA_NXZ 0000000180061710 f i libucrtd:output.obj
 0001:00060760       ?crop_zeroes@__crt_stdio_output@@YAXPEADQEAU__crt_locale_pointers@@@Z 0000000180061760 f i libucrtd:output.obj
 0001:000608a0       ?find_next_state@?$output_processor@DV?$stream_output_adapter@D@__crt_stdio_output@@V?$format_validation_base@DV?$stream_output_adapter@D@__crt_stdio_output@@@2@@__crt_stdio_output@@AEBA?AW4state@2@DW432@@Z 00000001800618a0 f i libucrtd:output.obj
 0001:00060940       ?find_next_state@?$output_processor@DV?$stream_output_adapter@D@__crt_stdio_output@@V?$positional_parameter_base@DV?$stream_output_adapter@D@__crt_stdio_output@@@2@@__crt_stdio_output@@AEBA?AW4state@2@DW432@@Z 0000000180061940 f i libucrtd:output.obj
 0001:000609e0       ?find_next_state@?$output_processor@DV?$stream_output_adapter@D@__crt_stdio_output@@V?$standard_base@DV?$stream_output_adapter@D@__crt_stdio_output@@@2@@__crt_stdio_output@@AEBA?AW4state@2@DW432@@Z 00000001800619e0 f i libucrtd:output.obj
 0001:00060a80       ?find_next_state@?$output_processor@DV?$string_output_adapter@D@__crt_stdio_output@@V?$format_validation_base@DV?$string_output_adapter@D@__crt_stdio_output@@@2@@__crt_stdio_output@@AEBA?AW4state@2@DW432@@Z 0000000180061a80 f i libucrtd:output.obj
 0001:00060b20       ?find_next_state@?$output_processor@DV?$string_output_adapter@D@__crt_stdio_output@@V?$positional_parameter_base@DV?$string_output_adapter@D@__crt_stdio_output@@@2@@__crt_stdio_output@@AEBA?AW4state@2@DW432@@Z 0000000180061b20 f i libucrtd:output.obj
 0001:00060bc0       ?find_next_state@?$output_processor@DV?$string_output_adapter@D@__crt_stdio_output@@V?$standard_base@DV?$string_output_adapter@D@__crt_stdio_output@@@2@@__crt_stdio_output@@AEBA?AW4state@2@DW432@@Z 0000000180061bc0 f i libucrtd:output.obj
 0001:00060c60       ?find_next_state@?$output_processor@_WV?$stream_output_adapter@_W@__crt_stdio_output@@V?$format_validation_base@_WV?$stream_output_adapter@_W@__crt_stdio_output@@@2@@__crt_stdio_output@@AEBA?AW4state@2@_WW432@@Z 0000000180061c60 f i libucrtd:output.obj
 0001:00060d00       ?find_next_state@?$output_processor@_WV?$stream_output_adapter@_W@__crt_stdio_output@@V?$positional_parameter_base@_WV?$stream_output_adapter@_W@__crt_stdio_output@@@2@@__crt_stdio_output@@AEBA?AW4state@2@_WW432@@Z 0000000180061d00 f i libucrtd:output.obj
 0001:00060da0       ?find_next_state@?$output_processor@_WV?$stream_output_adapter@_W@__crt_stdio_output@@V?$standard_base@_WV?$stream_output_adapter@_W@__crt_stdio_output@@@2@@__crt_stdio_output@@AEBA?AW4state@2@_WW432@@Z 0000000180061da0 f i libucrtd:output.obj
 0001:00060e40       ?find_next_state@?$output_processor@_WV?$string_output_adapter@_W@__crt_stdio_output@@V?$format_validation_base@_WV?$string_output_adapter@_W@__crt_stdio_output@@@2@@__crt_stdio_output@@AEBA?AW4state@2@_WW432@@Z 0000000180061e40 f i libucrtd:output.obj
 0001:00060ee0       ?find_next_state@?$output_processor@_WV?$string_output_adapter@_W@__crt_stdio_output@@V?$positional_parameter_base@_WV?$string_output_adapter@_W@__crt_stdio_output@@@2@@__crt_stdio_output@@AEBA?AW4state@2@_WW432@@Z 0000000180061ee0 f i libucrtd:output.obj
 0001:00060f80       ?find_next_state@?$output_processor@_WV?$string_output_adapter@_W@__crt_stdio_output@@V?$standard_base@_WV?$string_output_adapter@_W@__crt_stdio_output@@@2@@__crt_stdio_output@@AEBA?AW4state@2@_WW432@@Z 0000000180061f80 f i libucrtd:output.obj
 0001:00061020       ?force_decimal_point@__crt_stdio_output@@YAXPEADQEAU__crt_locale_pointers@@@Z 0000000180062020 f i libucrtd:output.obj
 0001:00061120       ?get@__crt_deferred_errno_cache@@QEAAAEAHXZ 0000000180062120 f i libucrtd:output.obj
 0001:00061150       ?get_flags@__crt_stdio_stream@@QEBAJXZ 0000000180062150 f i libucrtd:output.obj
 0001:00061180       ?get_parameter_type@?$positional_parameter_base@DV?$stream_output_adapter@D@__crt_stdio_output@@@__crt_stdio_output@@CA?AW4parameter_type@12@F@Z 0000000180062180 f i libucrtd:output.obj
 0001:00061190       ?get_parameter_type@?$positional_parameter_base@DV?$stream_output_adapter@D@__crt_stdio_output@@@__crt_stdio_output@@CA?AW4parameter_type@12@G@Z 0000000180062190 f i libucrtd:output.obj
 0001:000611a0       ?get_parameter_type@?$positional_parameter_base@DV?$stream_output_adapter@D@__crt_stdio_output@@@__crt_stdio_output@@CA?AW4parameter_type@12@H@Z 00000001800621a0 f i libucrtd:output.obj
 0001:000611b0       ?get_parameter_type@?$positional_parameter_base@DV?$stream_output_adapter@D@__crt_stdio_output@@@__crt_stdio_output@@CA?AW4parameter_type@12@I@Z 00000001800621b0 f i libucrtd:output.obj
 0001:000611c0       ?get_parameter_type@?$positional_parameter_base@DV?$stream_output_adapter@D@__crt_stdio_output@@@__crt_stdio_output@@CA?AW4parameter_type@12@U_CRT_DOUBLE@@@Z 00000001800621c0 f i libucrtd:output.obj
 0001:000611d0       ?get_parameter_type@?$positional_parameter_base@DV?$stream_output_adapter@D@__crt_stdio_output@@@__crt_stdio_output@@CA?AW4parameter_type@12@_J@Z 00000001800621d0 f i libucrtd:output.obj
 0001:000611e0       ?get_parameter_type@?$positional_parameter_base@DV?$stream_output_adapter@D@__crt_stdio_output@@@__crt_stdio_output@@CA?AW4parameter_type@12@_K@Z 00000001800621e0 f i libucrtd:output.obj
 0001:000611f0       ?get_parameter_type@?$positional_parameter_base@DV?$stream_output_adapter@D@__crt_stdio_output@@@__crt_stdio_output@@CA?AW4parameter_type@12@_W@Z 00000001800621f0 f i libucrtd:output.obj
 0001:00061200       ?get_parameter_type@?$positional_parameter_base@DV?$string_output_adapter@D@__crt_stdio_output@@@__crt_stdio_output@@CA?AW4parameter_type@12@F@Z 0000000180062200 f i libucrtd:output.obj
 0001:00061210       ?get_parameter_type@?$positional_parameter_base@DV?$string_output_adapter@D@__crt_stdio_output@@@__crt_stdio_output@@CA?AW4parameter_type@12@G@Z 0000000180062210 f i libucrtd:output.obj
 0001:00061220       ?get_parameter_type@?$positional_parameter_base@DV?$string_output_adapter@D@__crt_stdio_output@@@__crt_stdio_output@@CA?AW4parameter_type@12@H@Z 0000000180062220 f i libucrtd:output.obj
 0001:00061230       ?get_parameter_type@?$positional_parameter_base@DV?$string_output_adapter@D@__crt_stdio_output@@@__crt_stdio_output@@CA?AW4parameter_type@12@I@Z 0000000180062230 f i libucrtd:output.obj
 0001:00061240       ?get_parameter_type@?$positional_parameter_base@DV?$string_output_adapter@D@__crt_stdio_output@@@__crt_stdio_output@@CA?AW4parameter_type@12@U_CRT_DOUBLE@@@Z 0000000180062240 f i libucrtd:output.obj
 0001:00061250       ?get_parameter_type@?$positional_parameter_base@DV?$string_output_adapter@D@__crt_stdio_output@@@__crt_stdio_output@@CA?AW4parameter_type@12@_J@Z 0000000180062250 f i libucrtd:output.obj
 0001:00061260       ?get_parameter_type@?$positional_parameter_base@DV?$string_output_adapter@D@__crt_stdio_output@@@__crt_stdio_output@@CA?AW4parameter_type@12@_K@Z 0000000180062260 f i libucrtd:output.obj
 0001:00061270       ?get_parameter_type@?$positional_parameter_base@DV?$string_output_adapter@D@__crt_stdio_output@@@__crt_stdio_output@@CA?AW4parameter_type@12@_W@Z 0000000180062270 f i libucrtd:output.obj
 0001:00061280       ?get_parameter_type@?$positional_parameter_base@_WV?$stream_output_adapter@_W@__crt_stdio_output@@@__crt_stdio_output@@CA?AW4parameter_type@12@F@Z 0000000180062280 f i libucrtd:output.obj
 0001:00061290       ?get_parameter_type@?$positional_parameter_base@_WV?$stream_output_adapter@_W@__crt_stdio_output@@@__crt_stdio_output@@CA?AW4parameter_type@12@G@Z 0000000180062290 f i libucrtd:output.obj
 0001:000612a0       ?get_parameter_type@?$positional_parameter_base@_WV?$stream_output_adapter@_W@__crt_stdio_output@@@__crt_stdio_output@@CA?AW4parameter_type@12@H@Z 00000001800622a0 f i libucrtd:output.obj
 0001:000612b0       ?get_parameter_type@?$positional_parameter_base@_WV?$stream_output_adapter@_W@__crt_stdio_output@@@__crt_stdio_output@@CA?AW4parameter_type@12@I@Z 00000001800622b0 f i libucrtd:output.obj
 0001:000612c0       ?get_parameter_type@?$positional_parameter_base@_WV?$stream_output_adapter@_W@__crt_stdio_output@@@__crt_stdio_output@@CA?AW4parameter_type@12@U_CRT_DOUBLE@@@Z 00000001800622c0 f i libucrtd:output.obj
 0001:000612d0       ?get_parameter_type@?$positional_parameter_base@_WV?$stream_output_adapter@_W@__crt_stdio_output@@@__crt_stdio_output@@CA?AW4parameter_type@12@_J@Z 00000001800622d0 f i libucrtd:output.obj
 0001:000612e0       ?get_parameter_type@?$positional_parameter_base@_WV?$stream_output_adapter@_W@__crt_stdio_output@@@__crt_stdio_output@@CA?AW4parameter_type@12@_K@Z 00000001800622e0 f i libucrtd:output.obj
 0001:000612f0       ?get_parameter_type@?$positional_parameter_base@_WV?$stream_output_adapter@_W@__crt_stdio_output@@@__crt_stdio_output@@CA?AW4parameter_type@12@_W@Z 00000001800622f0 f i libucrtd:output.obj
 0001:00061300       ?get_parameter_type@?$positional_parameter_base@_WV?$string_output_adapter@_W@__crt_stdio_output@@@__crt_stdio_output@@CA?AW4parameter_type@12@F@Z 0000000180062300 f i libucrtd:output.obj
 0001:00061310       ?get_parameter_type@?$positional_parameter_base@_WV?$string_output_adapter@_W@__crt_stdio_output@@@__crt_stdio_output@@CA?AW4parameter_type@12@G@Z 0000000180062310 f i libucrtd:output.obj
 0001:00061320       ?get_parameter_type@?$positional_parameter_base@_WV?$string_output_adapter@_W@__crt_stdio_output@@@__crt_stdio_output@@CA?AW4parameter_type@12@H@Z 0000000180062320 f i libucrtd:output.obj
 0001:00061330       ?get_parameter_type@?$positional_parameter_base@_WV?$string_output_adapter@_W@__crt_stdio_output@@@__crt_stdio_output@@CA?AW4parameter_type@12@I@Z 0000000180062330 f i libucrtd:output.obj
 0001:00061340       ?get_parameter_type@?$positional_parameter_base@_WV?$string_output_adapter@_W@__crt_stdio_output@@@__crt_stdio_output@@CA?AW4parameter_type@12@U_CRT_DOUBLE@@@Z 0000000180062340 f i libucrtd:output.obj
 0001:00061350       ?get_parameter_type@?$positional_parameter_base@_WV?$string_output_adapter@_W@__crt_stdio_output@@@__crt_stdio_output@@CA?AW4parameter_type@12@_J@Z 0000000180062350 f i libucrtd:output.obj
 0001:00061360       ?get_parameter_type@?$positional_parameter_base@_WV?$string_output_adapter@_W@__crt_stdio_output@@@__crt_stdio_output@@CA?AW4parameter_type@12@_K@Z 0000000180062360 f i libucrtd:output.obj
 0001:00061370       ?get_parameter_type@?$positional_parameter_base@_WV?$string_output_adapter@_W@__crt_stdio_output@@@__crt_stdio_output@@CA?AW4parameter_type@12@_W@Z 0000000180062370 f i libucrtd:output.obj
 0001:00061380       ?has_flag@?$output_processor@DV?$stream_output_adapter@D@__crt_stdio_output@@V?$format_validation_base@DV?$stream_output_adapter@D@__crt_stdio_output@@@2@@__crt_stdio_output@@AEBA_NI@Z 0000000180062380 f i libucrtd:output.obj
 0001:000613c0       ?has_flag@?$output_processor@DV?$stream_output_adapter@D@__crt_stdio_output@@V?$positional_parameter_base@DV?$stream_output_adapter@D@__crt_stdio_output@@@2@@__crt_stdio_output@@AEBA_NI@Z 00000001800623c0 f i libucrtd:output.obj
 0001:00061400       ?has_flag@?$output_processor@DV?$stream_output_adapter@D@__crt_stdio_output@@V?$standard_base@DV?$stream_output_adapter@D@__crt_stdio_output@@@2@@__crt_stdio_output@@AEBA_NI@Z 0000000180062400 f i libucrtd:output.obj
 0001:00061440       ?has_flag@?$output_processor@DV?$string_output_adapter@D@__crt_stdio_output@@V?$format_validation_base@DV?$string_output_adapter@D@__crt_stdio_output@@@2@@__crt_stdio_output@@AEBA_NI@Z 0000000180062440 f i libucrtd:output.obj
 0001:00061480       ?has_flag@?$output_processor@DV?$string_output_adapter@D@__crt_stdio_output@@V?$positional_parameter_base@DV?$string_output_adapter@D@__crt_stdio_output@@@2@@__crt_stdio_output@@AEBA_NI@Z 0000000180062480 f i libucrtd:output.obj
 0001:000614c0       ?has_flag@?$output_processor@DV?$string_output_adapter@D@__crt_stdio_output@@V?$standard_base@DV?$string_output_adapter@D@__crt_stdio_output@@@2@@__crt_stdio_output@@AEBA_NI@Z 00000001800624c0 f i libucrtd:output.obj
 0001:00061500       ?has_flag@?$output_processor@_WV?$stream_output_adapter@_W@__crt_stdio_output@@V?$format_validation_base@_WV?$stream_output_adapter@_W@__crt_stdio_output@@@2@@__crt_stdio_output@@AEBA_NI@Z 0000000180062500 f i libucrtd:output.obj
 0001:00061540       ?has_flag@?$output_processor@_WV?$stream_output_adapter@_W@__crt_stdio_output@@V?$positional_parameter_base@_WV?$stream_output_adapter@_W@__crt_stdio_output@@@2@@__crt_stdio_output@@AEBA_NI@Z 0000000180062540 f i libucrtd:output.obj
 0001:00061580       ?has_flag@?$output_processor@_WV?$stream_output_adapter@_W@__crt_stdio_output@@V?$standard_base@_WV?$stream_output_adapter@_W@__crt_stdio_output@@@2@@__crt_stdio_output@@AEBA_NI@Z 0000000180062580 f i libucrtd:output.obj
 0001:000615c0       ?has_flag@?$output_processor@_WV?$string_output_adapter@_W@__crt_stdio_output@@V?$format_validation_base@_WV?$string_output_adapter@_W@__crt_stdio_output@@@2@@__crt_stdio_output@@AEBA_NI@Z 00000001800625c0 f i libucrtd:output.obj
 0001:00061600       ?has_flag@?$output_processor@_WV?$string_output_adapter@_W@__crt_stdio_output@@V?$positional_parameter_base@_WV?$string_output_adapter@_W@__crt_stdio_output@@@2@@__crt_stdio_output@@AEBA_NI@Z 0000000180062600 f i libucrtd:output.obj
 0001:00061640       ?has_flag@?$output_processor@_WV?$string_output_adapter@_W@__crt_stdio_output@@V?$standard_base@_WV?$string_output_adapter@_W@__crt_stdio_output@@@2@@__crt_stdio_output@@AEBA_NI@Z 0000000180062640 f i libucrtd:output.obj
 0001:00061680       ?is_positional_parameter_reappearance_consistent@?$positional_parameter_base@DV?$stream_output_adapter@D@__crt_stdio_output@@@__crt_stdio_output@@AEAA_NAEBUparameter_data@12@W4parameter_type@12@DW4length_modifier@2@@Z 0000000180062680 f i libucrtd:output.obj
 0001:000618e0       ?is_positional_parameter_reappearance_consistent@?$positional_parameter_base@DV?$string_output_adapter@D@__crt_stdio_output@@@__crt_stdio_output@@AEAA_NAEBUparameter_data@12@W4parameter_type@12@DW4length_modifier@2@@Z 00000001800628e0 f i libucrtd:output.obj
 0001:00061b40       ?is_positional_parameter_reappearance_consistent@?$positional_parameter_base@_WV?$stream_output_adapter@_W@__crt_stdio_output@@@__crt_stdio_output@@AEAA_NAEBUparameter_data@12@W4parameter_type@12@_WW4length_modifier@2@@Z 0000000180062b40 f i libucrtd:output.obj
 0001:00061da0       ?is_positional_parameter_reappearance_consistent@?$positional_parameter_base@_WV?$string_output_adapter@_W@__crt_stdio_output@@@__crt_stdio_output@@AEAA_NAEBUparameter_data@12@W4parameter_type@12@_WW4length_modifier@2@@Z 0000000180062da0 f i libucrtd:output.obj
 0001:00062000       ?is_string_backed@__crt_stdio_stream@@QEBA_NXZ 0000000180063000 f i libucrtd:output.obj
 0001:00062040       ?narrow_null_string@?$output_processor@DV?$stream_output_adapter@D@__crt_stdio_output@@V?$format_validation_base@DV?$stream_output_adapter@D@__crt_stdio_output@@@2@@__crt_stdio_output@@CAPEADXZ 0000000180063040 f i libucrtd:output.obj
 0001:00062050       ?narrow_null_string@?$output_processor@DV?$stream_output_adapter@D@__crt_stdio_output@@V?$positional_parameter_base@DV?$stream_output_adapter@D@__crt_stdio_output@@@2@@__crt_stdio_output@@CAPEADXZ 0000000180063050 f i libucrtd:output.obj
 0001:00062060       ?narrow_null_string@?$output_processor@DV?$stream_output_adapter@D@__crt_stdio_output@@V?$standard_base@DV?$stream_output_adapter@D@__crt_stdio_output@@@2@@__crt_stdio_output@@CAPEADXZ 0000000180063060 f i libucrtd:output.obj
 0001:00062070       ?narrow_null_string@?$output_processor@DV?$string_output_adapter@D@__crt_stdio_output@@V?$format_validation_base@DV?$string_output_adapter@D@__crt_stdio_output@@@2@@__crt_stdio_output@@CAPEADXZ 0000000180063070 f i libucrtd:output.obj
 0001:00062080       ?narrow_null_string@?$output_processor@DV?$string_output_adapter@D@__crt_stdio_output@@V?$positional_parameter_base@DV?$string_output_adapter@D@__crt_stdio_output@@@2@@__crt_stdio_output@@CAPEADXZ 0000000180063080 f i libucrtd:output.obj
 0001:00062090       ?narrow_null_string@?$output_processor@DV?$string_output_adapter@D@__crt_stdio_output@@V?$standard_base@DV?$string_output_adapter@D@__crt_stdio_output@@@2@@__crt_stdio_output@@CAPEADXZ 0000000180063090 f i libucrtd:output.obj
 0001:000620a0       ?narrow_null_string@?$output_processor@_WV?$stream_output_adapter@_W@__crt_stdio_output@@V?$format_validation_base@_WV?$stream_output_adapter@_W@__crt_stdio_output@@@2@@__crt_stdio_output@@CAPEADXZ 00000001800630a0 f i libucrtd:output.obj
 0001:000620b0       ?narrow_null_string@?$output_processor@_WV?$stream_output_adapter@_W@__crt_stdio_output@@V?$positional_parameter_base@_WV?$stream_output_adapter@_W@__crt_stdio_output@@@2@@__crt_stdio_output@@CAPEADXZ 00000001800630b0 f i libucrtd:output.obj
 0001:000620c0       ?narrow_null_string@?$output_processor@_WV?$stream_output_adapter@_W@__crt_stdio_output@@V?$standard_base@_WV?$stream_output_adapter@_W@__crt_stdio_output@@@2@@__crt_stdio_output@@CAPEADXZ 00000001800630c0 f i libucrtd:output.obj
 0001:000620d0       ?narrow_null_string@?$output_processor@_WV?$string_output_adapter@_W@__crt_stdio_output@@V?$format_validation_base@_WV?$string_output_adapter@_W@__crt_stdio_output@@@2@@__crt_stdio_output@@CAPEADXZ 00000001800630d0 f i libucrtd:output.obj
 0001:000620e0       ?narrow_null_string@?$output_processor@_WV?$string_output_adapter@_W@__crt_stdio_output@@V?$positional_parameter_base@_WV?$string_output_adapter@_W@__crt_stdio_output@@@2@@__crt_stdio_output@@CAPEADXZ 00000001800630e0 f i libucrtd:output.obj
 0001:000620f0       ?narrow_null_string@?$output_processor@_WV?$string_output_adapter@_W@__crt_stdio_output@@V?$standard_base@_WV?$string_output_adapter@_W@__crt_stdio_output@@@2@@__crt_stdio_output@@CAPEADXZ 00000001800630f0 f i libucrtd:output.obj
 0001:00062100       ?parse_int_from_format_string@?$output_processor@DV?$stream_output_adapter@D@__crt_stdio_output@@V?$format_validation_base@DV?$stream_output_adapter@D@__crt_stdio_output@@@2@@__crt_stdio_output@@AEAA_NQEAH@Z 0000000180063100 f i libucrtd:output.obj
 0001:000621f0       ?parse_int_from_format_string@?$output_processor@DV?$stream_output_adapter@D@__crt_stdio_output@@V?$positional_parameter_base@DV?$stream_output_adapter@D@__crt_stdio_output@@@2@@__crt_stdio_output@@AEAA_NQEAH@Z 00000001800631f0 f i libucrtd:output.obj
 0001:000622e0       ?parse_int_from_format_string@?$output_processor@DV?$stream_output_adapter@D@__crt_stdio_output@@V?$standard_base@DV?$stream_output_adapter@D@__crt_stdio_output@@@2@@__crt_stdio_output@@AEAA_NQEAH@Z 00000001800632e0 f i libucrtd:output.obj
 0001:000623d0       ?parse_int_from_format_string@?$output_processor@DV?$string_output_adapter@D@__crt_stdio_output@@V?$format_validation_base@DV?$string_output_adapter@D@__crt_stdio_output@@@2@@__crt_stdio_output@@AEAA_NQEAH@Z 00000001800633d0 f i libucrtd:output.obj
 0001:000624c0       ?parse_int_from_format_string@?$output_processor@DV?$string_output_adapter@D@__crt_stdio_output@@V?$positional_parameter_base@DV?$string_output_adapter@D@__crt_stdio_output@@@2@@__crt_stdio_output@@AEAA_NQEAH@Z 00000001800634c0 f i libucrtd:output.obj
 0001:000625b0       ?parse_int_from_format_string@?$output_processor@DV?$string_output_adapter@D@__crt_stdio_output@@V?$standard_base@DV?$string_output_adapter@D@__crt_stdio_output@@@2@@__crt_stdio_output@@AEAA_NQEAH@Z 00000001800635b0 f i libucrtd:output.obj
 0001:000626a0       ?parse_int_from_format_string@?$output_processor@_WV?$stream_output_adapter@_W@__crt_stdio_output@@V?$format_validation_base@_WV?$stream_output_adapter@_W@__crt_stdio_output@@@2@@__crt_stdio_output@@AEAA_NQEAH@Z 00000001800636a0 f i libucrtd:output.obj
 0001:00062790       ?parse_int_from_format_string@?$output_processor@_WV?$stream_output_adapter@_W@__crt_stdio_output@@V?$positional_parameter_base@_WV?$stream_output_adapter@_W@__crt_stdio_output@@@2@@__crt_stdio_output@@AEAA_NQEAH@Z 0000000180063790 f i libucrtd:output.obj
 0001:00062880       ?parse_int_from_format_string@?$output_processor@_WV?$stream_output_adapter@_W@__crt_stdio_output@@V?$standard_base@_WV?$stream_output_adapter@_W@__crt_stdio_output@@@2@@__crt_stdio_output@@AEAA_NQEAH@Z 0000000180063880 f i libucrtd:output.obj
 0001:00062970       ?parse_int_from_format_string@?$output_processor@_WV?$string_output_adapter@_W@__crt_stdio_output@@V?$format_validation_base@_WV?$string_output_adapter@_W@__crt_stdio_output@@@2@@__crt_stdio_output@@AEAA_NQEAH@Z 0000000180063970 f i libucrtd:output.obj
 0001:00062a60       ?parse_int_from_format_string@?$output_processor@_WV?$string_output_adapter@_W@__crt_stdio_output@@V?$positional_parameter_base@_WV?$string_output_adapter@_W@__crt_stdio_output@@@2@@__crt_stdio_output@@AEAA_NQEAH@Z 0000000180063a60 f i libucrtd:output.obj
 0001:00062b50       ?parse_int_from_format_string@?$output_processor@_WV?$string_output_adapter@_W@__crt_stdio_output@@V?$standard_base@_WV?$string_output_adapter@_W@__crt_stdio_output@@@2@@__crt_stdio_output@@AEAA_NQEAH@Z 0000000180063b50 f i libucrtd:output.obj
 0001:00062c40       ?process@?$output_processor@DV?$stream_output_adapter@D@__crt_stdio_output@@V?$format_validation_base@DV?$stream_output_adapter@D@__crt_stdio_output@@@2@@__crt_stdio_output@@QEAAHXZ 0000000180063c40 f i libucrtd:output.obj
 0001:00062fa0       ?process@?$output_processor@DV?$stream_output_adapter@D@__crt_stdio_output@@V?$positional_parameter_base@DV?$stream_output_adapter@D@__crt_stdio_output@@@2@@__crt_stdio_output@@QEAAHXZ 0000000180063fa0 f i libucrtd:output.obj
 0001:00063300       ?process@?$output_processor@DV?$stream_output_adapter@D@__crt_stdio_output@@V?$standard_base@DV?$stream_output_adapter@D@__crt_stdio_output@@@2@@__crt_stdio_output@@QEAAHXZ 0000000180064300 f i libucrtd:output.obj
 0001:00063660       ?process@?$output_processor@DV?$string_output_adapter@D@__crt_stdio_output@@V?$format_validation_base@DV?$string_output_adapter@D@__crt_stdio_output@@@2@@__crt_stdio_output@@QEAAHXZ 0000000180064660 f i libucrtd:output.obj
 0001:000639c0       ?process@?$output_processor@DV?$string_output_adapter@D@__crt_stdio_output@@V?$positional_parameter_base@DV?$string_output_adapter@D@__crt_stdio_output@@@2@@__crt_stdio_output@@QEAAHXZ 00000001800649c0 f i libucrtd:output.obj
 0001:00063d20       ?process@?$output_processor@DV?$string_output_adapter@D@__crt_stdio_output@@V?$standard_base@DV?$string_output_adapter@D@__crt_stdio_output@@@2@@__crt_stdio_output@@QEAAHXZ 0000000180064d20 f i libucrtd:output.obj
 0001:00064080       ?process@?$output_processor@_WV?$stream_output_adapter@_W@__crt_stdio_output@@V?$format_validation_base@_WV?$stream_output_adapter@_W@__crt_stdio_output@@@2@@__crt_stdio_output@@QEAAHXZ 0000000180065080 f i libucrtd:output.obj
 0001:000643e0       ?process@?$output_processor@_WV?$stream_output_adapter@_W@__crt_stdio_output@@V?$positional_parameter_base@_WV?$stream_output_adapter@_W@__crt_stdio_output@@@2@@__crt_stdio_output@@QEAAHXZ 00000001800653e0 f i libucrtd:output.obj
 0001:00064740       ?process@?$output_processor@_WV?$stream_output_adapter@_W@__crt_stdio_output@@V?$standard_base@_WV?$stream_output_adapter@_W@__crt_stdio_output@@@2@@__crt_stdio_output@@QEAAHXZ 0000000180065740 f i libucrtd:output.obj
 0001:00064aa0       ?process@?$output_processor@_WV?$string_output_adapter@_W@__crt_stdio_output@@V?$format_validation_base@_WV?$string_output_adapter@_W@__crt_stdio_output@@@2@@__crt_stdio_output@@QEAAHXZ 0000000180065aa0 f i libucrtd:output.obj
 0001:00064e00       ?process@?$output_processor@_WV?$string_output_adapter@_W@__crt_stdio_output@@V?$positional_parameter_base@_WV?$string_output_adapter@_W@__crt_stdio_output@@@2@@__crt_stdio_output@@QEAAHXZ 0000000180065e00 f i libucrtd:output.obj
 0001:00065160       ?process@?$output_processor@_WV?$string_output_adapter@_W@__crt_stdio_output@@V?$standard_base@_WV?$string_output_adapter@_W@__crt_stdio_output@@@2@@__crt_stdio_output@@QEAAHXZ 0000000180066160 f i libucrtd:output.obj
 0001:000654c0       ?public_stream@__crt_stdio_stream@@QEBAPEAU_iobuf@@XZ 00000001800664c0 f i libucrtd:output.obj
 0001:000654d0       ?set_flag@?$output_processor@DV?$stream_output_adapter@D@__crt_stdio_output@@V?$format_validation_base@DV?$stream_output_adapter@D@__crt_stdio_output@@@2@@__crt_stdio_output@@AEAAXI@Z 00000001800664d0 f i libucrtd:output.obj
 0001:000654f0       ?set_flag@?$output_processor@DV?$stream_output_adapter@D@__crt_stdio_output@@V?$positional_parameter_base@DV?$stream_output_adapter@D@__crt_stdio_output@@@2@@__crt_stdio_output@@AEAAXI@Z 00000001800664f0 f i libucrtd:output.obj
 0001:00065510       ?set_flag@?$output_processor@DV?$stream_output_adapter@D@__crt_stdio_output@@V?$standard_base@DV?$stream_output_adapter@D@__crt_stdio_output@@@2@@__crt_stdio_output@@AEAAXI@Z 0000000180066510 f i libucrtd:output.obj
 0001:00065530       ?set_flag@?$output_processor@DV?$string_output_adapter@D@__crt_stdio_output@@V?$format_validation_base@DV?$string_output_adapter@D@__crt_stdio_output@@@2@@__crt_stdio_output@@AEAAXI@Z 0000000180066530 f i libucrtd:output.obj
 0001:00065550       ?set_flag@?$output_processor@DV?$string_output_adapter@D@__crt_stdio_output@@V?$positional_parameter_base@DV?$string_output_adapter@D@__crt_stdio_output@@@2@@__crt_stdio_output@@AEAAXI@Z 0000000180066550 f i libucrtd:output.obj
 0001:00065570       ?set_flag@?$output_processor@DV?$string_output_adapter@D@__crt_stdio_output@@V?$standard_base@DV?$string_output_adapter@D@__crt_stdio_output@@@2@@__crt_stdio_output@@AEAAXI@Z 0000000180066570 f i libucrtd:output.obj
 0001:00065590       ?set_flag@?$output_processor@_WV?$stream_output_adapter@_W@__crt_stdio_output@@V?$format_validation_base@_WV?$stream_output_adapter@_W@__crt_stdio_output@@@2@@__crt_stdio_output@@AEAAXI@Z 0000000180066590 f i libucrtd:output.obj
 0001:000655b0       ?set_flag@?$output_processor@_WV?$stream_output_adapter@_W@__crt_stdio_output@@V?$positional_parameter_base@_WV?$stream_output_adapter@_W@__crt_stdio_output@@@2@@__crt_stdio_output@@AEAAXI@Z 00000001800665b0 f i libucrtd:output.obj
 0001:000655d0       ?set_flag@?$output_processor@_WV?$stream_output_adapter@_W@__crt_stdio_output@@V?$standard_base@_WV?$stream_output_adapter@_W@__crt_stdio_output@@@2@@__crt_stdio_output@@AEAAXI@Z 00000001800665d0 f i libucrtd:output.obj
 0001:000655f0       ?set_flag@?$output_processor@_WV?$string_output_adapter@_W@__crt_stdio_output@@V?$format_validation_base@_WV?$string_output_adapter@_W@__crt_stdio_output@@@2@@__crt_stdio_output@@AEAAXI@Z 00000001800665f0 f i libucrtd:output.obj
 0001:00065610       ?set_flag@?$output_processor@_WV?$string_output_adapter@_W@__crt_stdio_output@@V?$positional_parameter_base@_WV?$string_output_adapter@_W@__crt_stdio_output@@@2@@__crt_stdio_output@@AEAAXI@Z 0000000180066610 f i libucrtd:output.obj
 0001:00065630       ?set_flag@?$output_processor@_WV?$string_output_adapter@_W@__crt_stdio_output@@V?$standard_base@_WV?$string_output_adapter@_W@__crt_stdio_output@@@2@@__crt_stdio_output@@AEAAXI@Z 0000000180066630 f i libucrtd:output.obj
 0001:00065650       ?should_format@?$positional_parameter_base@DV?$stream_output_adapter@D@__crt_stdio_output@@@__crt_stdio_output@@IEAA_NXZ 0000000180066650 f i libucrtd:output.obj
 0001:00065690       ?should_format@?$positional_parameter_base@DV?$string_output_adapter@D@__crt_stdio_output@@@__crt_stdio_output@@IEAA_NXZ 0000000180066690 f i libucrtd:output.obj
 0001:000656d0       ?should_format@?$positional_parameter_base@_WV?$stream_output_adapter@_W@__crt_stdio_output@@@__crt_stdio_output@@IEAA_NXZ 00000001800666d0 f i libucrtd:output.obj
 0001:00065710       ?should_format@?$positional_parameter_base@_WV?$string_output_adapter@_W@__crt_stdio_output@@@__crt_stdio_output@@IEAA_NXZ 0000000180066710 f i libucrtd:output.obj
 0001:00065750       ?should_format@?$standard_base@DV?$stream_output_adapter@D@__crt_stdio_output@@@__crt_stdio_output@@IEAA_NXZ 0000000180066750 f i libucrtd:output.obj
 0001:00065760       ?should_format@?$standard_base@DV?$string_output_adapter@D@__crt_stdio_output@@@__crt_stdio_output@@IEAA_NXZ 0000000180066760 f i libucrtd:output.obj
 0001:00065770       ?should_format@?$standard_base@_WV?$stream_output_adapter@_W@__crt_stdio_output@@@__crt_stdio_output@@IEAA_NXZ 0000000180066770 f i libucrtd:output.obj
 0001:00065780       ?should_format@?$standard_base@_WV?$string_output_adapter@_W@__crt_stdio_output@@@__crt_stdio_output@@IEAA_NXZ 0000000180066780 f i libucrtd:output.obj
 0001:00065790       ?should_skip_normal_state_processing@?$positional_parameter_base@DV?$stream_output_adapter@D@__crt_stdio_output@@@__crt_stdio_output@@IEAA_NXZ 0000000180066790 f i libucrtd:output.obj
 0001:000657e0       ?should_skip_normal_state_processing@?$positional_parameter_base@DV?$string_output_adapter@D@__crt_stdio_output@@@__crt_stdio_output@@IEAA_NXZ 00000001800667e0 f i libucrtd:output.obj
 0001:00065830       ?should_skip_normal_state_processing@?$positional_parameter_base@_WV?$stream_output_adapter@_W@__crt_stdio_output@@@__crt_stdio_output@@IEAA_NXZ 0000000180066830 f i libucrtd:output.obj
 0001:00065880       ?should_skip_normal_state_processing@?$positional_parameter_base@_WV?$string_output_adapter@_W@__crt_stdio_output@@@__crt_stdio_output@@IEAA_NXZ 0000000180066880 f i libucrtd:output.obj
 0001:000658d0       ?should_skip_normal_state_processing@?$standard_base@DV?$stream_output_adapter@D@__crt_stdio_output@@@__crt_stdio_output@@IEAA_NXZ 00000001800668d0 f i libucrtd:output.obj
 0001:000658e0       ?should_skip_normal_state_processing@?$standard_base@DV?$string_output_adapter@D@__crt_stdio_output@@@__crt_stdio_output@@IEAA_NXZ 00000001800668e0 f i libucrtd:output.obj
 0001:000658f0       ?should_skip_normal_state_processing@?$standard_base@_WV?$stream_output_adapter@_W@__crt_stdio_output@@@__crt_stdio_output@@IEAA_NXZ 00000001800668f0 f i libucrtd:output.obj
 0001:00065900       ?should_skip_normal_state_processing@?$standard_base@_WV?$string_output_adapter@_W@__crt_stdio_output@@@__crt_stdio_output@@IEAA_NXZ 0000000180066900 f i libucrtd:output.obj
 0001:00065910       ?should_skip_type_state_output@?$positional_parameter_base@DV?$stream_output_adapter@D@__crt_stdio_output@@@__crt_stdio_output@@IEBA_NXZ 0000000180066910 f i libucrtd:output.obj
 0001:00065950       ?should_skip_type_state_output@?$positional_parameter_base@DV?$string_output_adapter@D@__crt_stdio_output@@@__crt_stdio_output@@IEBA_NXZ 0000000180066950 f i libucrtd:output.obj
 0001:00065990       ?should_skip_type_state_output@?$positional_parameter_base@_WV?$stream_output_adapter@_W@__crt_stdio_output@@@__crt_stdio_output@@IEBA_NXZ 0000000180066990 f i libucrtd:output.obj
 0001:000659d0       ?should_skip_type_state_output@?$positional_parameter_base@_WV?$string_output_adapter@_W@__crt_stdio_output@@@__crt_stdio_output@@IEBA_NXZ 00000001800669d0 f i libucrtd:output.obj
 0001:00065a10       ?should_skip_type_state_output@?$standard_base@DV?$stream_output_adapter@D@__crt_stdio_output@@@__crt_stdio_output@@IEBA_NXZ 0000000180066a10 f i libucrtd:output.obj
 0001:00065a20       ?should_skip_type_state_output@?$standard_base@DV?$string_output_adapter@D@__crt_stdio_output@@@__crt_stdio_output@@IEBA_NXZ 0000000180066a20 f i libucrtd:output.obj
 0001:00065a30       ?should_skip_type_state_output@?$standard_base@_WV?$stream_output_adapter@_W@__crt_stdio_output@@@__crt_stdio_output@@IEBA_NXZ 0000000180066a30 f i libucrtd:output.obj
 0001:00065a40       ?should_skip_type_state_output@?$standard_base@_WV?$string_output_adapter@_W@__crt_stdio_output@@@__crt_stdio_output@@IEBA_NXZ 0000000180066a40 f i libucrtd:output.obj
 0001:00065a50       ?state_case_dot@?$output_processor@DV?$stream_output_adapter@D@__crt_stdio_output@@V?$format_validation_base@DV?$stream_output_adapter@D@__crt_stdio_output@@@2@@__crt_stdio_output@@AEAA_NXZ 0000000180066a50 f i libucrtd:output.obj
 0001:00065a70       ?state_case_dot@?$output_processor@DV?$stream_output_adapter@D@__crt_stdio_output@@V?$positional_parameter_base@DV?$stream_output_adapter@D@__crt_stdio_output@@@2@@__crt_stdio_output@@AEAA_NXZ 0000000180066a70 f i libucrtd:output.obj
 0001:00065a90       ?state_case_dot@?$output_processor@DV?$stream_output_adapter@D@__crt_stdio_output@@V?$standard_base@DV?$stream_output_adapter@D@__crt_stdio_output@@@2@@__crt_stdio_output@@AEAA_NXZ 0000000180066a90 f i libucrtd:output.obj
 0001:00065ab0       ?state_case_dot@?$output_processor@DV?$string_output_adapter@D@__crt_stdio_output@@V?$format_validation_base@DV?$string_output_adapter@D@__crt_stdio_output@@@2@@__crt_stdio_output@@AEAA_NXZ 0000000180066ab0 f i libucrtd:output.obj
 0001:00065ad0       ?state_case_dot@?$output_processor@DV?$string_output_adapter@D@__crt_stdio_output@@V?$positional_parameter_base@DV?$string_output_adapter@D@__crt_stdio_output@@@2@@__crt_stdio_output@@AEAA_NXZ 0000000180066ad0 f i libucrtd:output.obj
 0001:00065af0       ?state_case_dot@?$output_processor@DV?$string_output_adapter@D@__crt_stdio_output@@V?$standard_base@DV?$string_output_adapter@D@__crt_stdio_output@@@2@@__crt_stdio_output@@AEAA_NXZ 0000000180066af0 f i libucrtd:output.obj
 0001:00065b10       ?state_case_dot@?$output_processor@_WV?$stream_output_adapter@_W@__crt_stdio_output@@V?$format_validation_base@_WV?$stream_output_adapter@_W@__crt_stdio_output@@@2@@__crt_stdio_output@@AEAA_NXZ 0000000180066b10 f i libucrtd:output.obj
 0001:00065b30       ?state_case_dot@?$output_processor@_WV?$stream_output_adapter@_W@__crt_stdio_output@@V?$positional_parameter_base@_WV?$stream_output_adapter@_W@__crt_stdio_output@@@2@@__crt_stdio_output@@AEAA_NXZ 0000000180066b30 f i libucrtd:output.obj
 0001:00065b50       ?state_case_dot@?$output_processor@_WV?$stream_output_adapter@_W@__crt_stdio_output@@V?$standard_base@_WV?$stream_output_adapter@_W@__crt_stdio_output@@@2@@__crt_stdio_output@@AEAA_NXZ 0000000180066b50 f i libucrtd:output.obj
 0001:00065b70       ?state_case_dot@?$output_processor@_WV?$string_output_adapter@_W@__crt_stdio_output@@V?$format_validation_base@_WV?$string_output_adapter@_W@__crt_stdio_output@@@2@@__crt_stdio_output@@AEAA_NXZ 0000000180066b70 f i libucrtd:output.obj
 0001:00065b90       ?state_case_dot@?$output_processor@_WV?$string_output_adapter@_W@__crt_stdio_output@@V?$positional_parameter_base@_WV?$string_output_adapter@_W@__crt_stdio_output@@@2@@__crt_stdio_output@@AEAA_NXZ 0000000180066b90 f i libucrtd:output.obj
 0001:00065bb0       ?state_case_dot@?$output_processor@_WV?$string_output_adapter@_W@__crt_stdio_output@@V?$standard_base@_WV?$string_output_adapter@_W@__crt_stdio_output@@@2@@__crt_stdio_output@@AEAA_NXZ 0000000180066bb0 f i libucrtd:output.obj
 0001:00065bd0       ?state_case_flag@?$output_processor@DV?$stream_output_adapter@D@__crt_stdio_output@@V?$format_validation_base@DV?$stream_output_adapter@D@__crt_stdio_output@@@2@@__crt_stdio_output@@AEAA_NXZ 0000000180066bd0 f i libucrtd:output.obj
 0001:00065c70       ?state_case_flag@?$output_processor@DV?$stream_output_adapter@D@__crt_stdio_output@@V?$positional_parameter_base@DV?$stream_output_adapter@D@__crt_stdio_output@@@2@@__crt_stdio_output@@AEAA_NXZ 0000000180066c70 f i libucrtd:output.obj
 0001:00065d10       ?state_case_flag@?$output_processor@DV?$stream_output_adapter@D@__crt_stdio_output@@V?$standard_base@DV?$stream_output_adapter@D@__crt_stdio_output@@@2@@__crt_stdio_output@@AEAA_NXZ 0000000180066d10 f i libucrtd:output.obj
 0001:00065db0       ?state_case_flag@?$output_processor@DV?$string_output_adapter@D@__crt_stdio_output@@V?$format_validation_base@DV?$string_output_adapter@D@__crt_stdio_output@@@2@@__crt_stdio_output@@AEAA_NXZ 0000000180066db0 f i libucrtd:output.obj
 0001:00065e50       ?state_case_flag@?$output_processor@DV?$string_output_adapter@D@__crt_stdio_output@@V?$positional_parameter_base@DV?$string_output_adapter@D@__crt_stdio_output@@@2@@__crt_stdio_output@@AEAA_NXZ 0000000180066e50 f i libucrtd:output.obj
 0001:00065ef0       ?state_case_flag@?$output_processor@DV?$string_output_adapter@D@__crt_stdio_output@@V?$standard_base@DV?$string_output_adapter@D@__crt_stdio_output@@@2@@__crt_stdio_output@@AEAA_NXZ 0000000180066ef0 f i libucrtd:output.obj
 0001:00065f90       ?state_case_flag@?$output_processor@_WV?$stream_output_adapter@_W@__crt_stdio_output@@V?$format_validation_base@_WV?$stream_output_adapter@_W@__crt_stdio_output@@@2@@__crt_stdio_output@@AEAA_NXZ 0000000180066f90 f i libucrtd:output.obj
 0001:00066030       ?state_case_flag@?$output_processor@_WV?$stream_output_adapter@_W@__crt_stdio_output@@V?$positional_parameter_base@_WV?$stream_output_adapter@_W@__crt_stdio_output@@@2@@__crt_stdio_output@@AEAA_NXZ 0000000180067030 f i libucrtd:output.obj
 0001:000660d0       ?state_case_flag@?$output_processor@_WV?$stream_output_adapter@_W@__crt_stdio_output@@V?$standard_base@_WV?$stream_output_adapter@_W@__crt_stdio_output@@@2@@__crt_stdio_output@@AEAA_NXZ 00000001800670d0 f i libucrtd:output.obj
 0001:00066170       ?state_case_flag@?$output_processor@_WV?$string_output_adapter@_W@__crt_stdio_output@@V?$format_validation_base@_WV?$string_output_adapter@_W@__crt_stdio_output@@@2@@__crt_stdio_output@@AEAA_NXZ 0000000180067170 f i libucrtd:output.obj
 0001:00066210       ?state_case_flag@?$output_processor@_WV?$string_output_adapter@_W@__crt_stdio_output@@V?$positional_parameter_base@_WV?$string_output_adapter@_W@__crt_stdio_output@@@2@@__crt_stdio_output@@AEAA_NXZ 0000000180067210 f i libucrtd:output.obj
 0001:000662b0       ?state_case_flag@?$output_processor@_WV?$string_output_adapter@_W@__crt_stdio_output@@V?$standard_base@_WV?$string_output_adapter@_W@__crt_stdio_output@@@2@@__crt_stdio_output@@AEAA_NXZ 00000001800672b0 f i libucrtd:output.obj
 0001:00066350       ?state_case_normal@?$output_processor@DV?$stream_output_adapter@D@__crt_stdio_output@@V?$format_validation_base@DV?$stream_output_adapter@D@__crt_stdio_output@@@2@@__crt_stdio_output@@AEAA_NXZ 0000000180067350 f i libucrtd:output.obj
 0001:00066430       ?state_case_normal@?$output_processor@DV?$stream_output_adapter@D@__crt_stdio_output@@V?$positional_parameter_base@DV?$stream_output_adapter@D@__crt_stdio_output@@@2@@__crt_stdio_output@@AEAA_NXZ 0000000180067430 f i libucrtd:output.obj
 0001:00066510       ?state_case_normal@?$output_processor@DV?$stream_output_adapter@D@__crt_stdio_output@@V?$standard_base@DV?$stream_output_adapter@D@__crt_stdio_output@@@2@@__crt_stdio_output@@AEAA_NXZ 0000000180067510 f i libucrtd:output.obj
 0001:000665f0       ?state_case_normal@?$output_processor@DV?$string_output_adapter@D@__crt_stdio_output@@V?$format_validation_base@DV?$string_output_adapter@D@__crt_stdio_output@@@2@@__crt_stdio_output@@AEAA_NXZ 00000001800675f0 f i libucrtd:output.obj
 0001:000666d0       ?state_case_normal@?$output_processor@DV?$string_output_adapter@D@__crt_stdio_output@@V?$positional_parameter_base@DV?$string_output_adapter@D@__crt_stdio_output@@@2@@__crt_stdio_output@@AEAA_NXZ 00000001800676d0 f i libucrtd:output.obj
 0001:000667b0       ?state_case_normal@?$output_processor@DV?$string_output_adapter@D@__crt_stdio_output@@V?$standard_base@DV?$string_output_adapter@D@__crt_stdio_output@@@2@@__crt_stdio_output@@AEAA_NXZ 00000001800677b0 f i libucrtd:output.obj
 0001:00066890       ?state_case_normal@?$output_processor@_WV?$stream_output_adapter@_W@__crt_stdio_output@@V?$format_validation_base@_WV?$stream_output_adapter@_W@__crt_stdio_output@@@2@@__crt_stdio_output@@AEAA_NXZ 0000000180067890 f i libucrtd:output.obj
 0001:00066970       ?state_case_normal@?$output_processor@_WV?$stream_output_adapter@_W@__crt_stdio_output@@V?$positional_parameter_base@_WV?$stream_output_adapter@_W@__crt_stdio_output@@@2@@__crt_stdio_output@@AEAA_NXZ 0000000180067970 f i libucrtd:output.obj
 0001:00066a50       ?state_case_normal@?$output_processor@_WV?$stream_output_adapter@_W@__crt_stdio_output@@V?$standard_base@_WV?$stream_output_adapter@_W@__crt_stdio_output@@@2@@__crt_stdio_output@@AEAA_NXZ 0000000180067a50 f i libucrtd:output.obj
 0001:00066b30       ?state_case_normal@?$output_processor@_WV?$string_output_adapter@_W@__crt_stdio_output@@V?$format_validation_base@_WV?$string_output_adapter@_W@__crt_stdio_output@@@2@@__crt_stdio_output@@AEAA_NXZ 0000000180067b30 f i libucrtd:output.obj
 0001:00066c10       ?state_case_normal@?$output_processor@_WV?$string_output_adapter@_W@__crt_stdio_output@@V?$positional_parameter_base@_WV?$string_output_adapter@_W@__crt_stdio_output@@@2@@__crt_stdio_output@@AEAA_NXZ 0000000180067c10 f i libucrtd:output.obj
 0001:00066cf0       ?state_case_normal@?$output_processor@_WV?$string_output_adapter@_W@__crt_stdio_output@@V?$standard_base@_WV?$string_output_adapter@_W@__crt_stdio_output@@@2@@__crt_stdio_output@@AEAA_NXZ 0000000180067cf0 f i libucrtd:output.obj
 0001:00066dd0       ?state_case_normal_common@?$output_processor@DV?$stream_output_adapter@D@__crt_stdio_output@@V?$format_validation_base@DV?$stream_output_adapter@D@__crt_stdio_output@@@2@@__crt_stdio_output@@AEAA_NXZ 0000000180067dd0 f i libucrtd:output.obj
 0001:00066e20       ?state_case_normal_common@?$output_processor@DV?$stream_output_adapter@D@__crt_stdio_output@@V?$positional_parameter_base@DV?$stream_output_adapter@D@__crt_stdio_output@@@2@@__crt_stdio_output@@AEAA_NXZ 0000000180067e20 f i libucrtd:output.obj
 0001:00066e70       ?state_case_normal_common@?$output_processor@DV?$stream_output_adapter@D@__crt_stdio_output@@V?$standard_base@DV?$stream_output_adapter@D@__crt_stdio_output@@@2@@__crt_stdio_output@@AEAA_NXZ 0000000180067e70 f i libucrtd:output.obj
 0001:00066ec0       ?state_case_normal_common@?$output_processor@DV?$string_output_adapter@D@__crt_stdio_output@@V?$format_validation_base@DV?$string_output_adapter@D@__crt_stdio_output@@@2@@__crt_stdio_output@@AEAA_NXZ 0000000180067ec0 f i libucrtd:output.obj
 0001:00066f10       ?state_case_normal_common@?$output_processor@DV?$string_output_adapter@D@__crt_stdio_output@@V?$positional_parameter_base@DV?$string_output_adapter@D@__crt_stdio_output@@@2@@__crt_stdio_output@@AEAA_NXZ 0000000180067f10 f i libucrtd:output.obj
 0001:00066f60       ?state_case_normal_common@?$output_processor@DV?$string_output_adapter@D@__crt_stdio_output@@V?$standard_base@DV?$string_output_adapter@D@__crt_stdio_output@@@2@@__crt_stdio_output@@AEAA_NXZ 0000000180067f60 f i libucrtd:output.obj
 0001:00066fb0       ?state_case_normal_common@?$output_processor@_WV?$stream_output_adapter@_W@__crt_stdio_output@@V?$format_validation_base@_WV?$stream_output_adapter@_W@__crt_stdio_output@@@2@@__crt_stdio_output@@AEAA_NXZ 0000000180067fb0 f i libucrtd:output.obj
 0001:00067000       ?state_case_normal_common@?$output_processor@_WV?$stream_output_adapter@_W@__crt_stdio_output@@V?$positional_parameter_base@_WV?$stream_output_adapter@_W@__crt_stdio_output@@@2@@__crt_stdio_output@@AEAA_NXZ 0000000180068000 f i libucrtd:output.obj
 0001:00067050       ?state_case_normal_common@?$output_processor@_WV?$stream_output_adapter@_W@__crt_stdio_output@@V?$standard_base@_WV?$stream_output_adapter@_W@__crt_stdio_output@@@2@@__crt_stdio_output@@AEAA_NXZ 0000000180068050 f i libucrtd:output.obj
 0001:000670a0       ?state_case_normal_common@?$output_processor@_WV?$string_output_adapter@_W@__crt_stdio_output@@V?$format_validation_base@_WV?$string_output_adapter@_W@__crt_stdio_output@@@2@@__crt_stdio_output@@AEAA_NXZ 00000001800680a0 f i libucrtd:output.obj
 0001:000670f0       ?state_case_normal_common@?$output_processor@_WV?$string_output_adapter@_W@__crt_stdio_output@@V?$positional_parameter_base@_WV?$string_output_adapter@_W@__crt_stdio_output@@@2@@__crt_stdio_output@@AEAA_NXZ 00000001800680f0 f i libucrtd:output.obj
 0001:00067140       ?state_case_normal_common@?$output_processor@_WV?$string_output_adapter@_W@__crt_stdio_output@@V?$standard_base@_WV?$string_output_adapter@_W@__crt_stdio_output@@@2@@__crt_stdio_output@@AEAA_NXZ 0000000180068140 f i libucrtd:output.obj
 0001:00067190       ?state_case_normal_tchar@?$output_processor@DV?$stream_output_adapter@D@__crt_stdio_output@@V?$format_validation_base@DV?$stream_output_adapter@D@__crt_stdio_output@@@2@@__crt_stdio_output@@AEAA_ND@Z 0000000180068190 f i libucrtd:output.obj
 0001:000672d0       ?state_case_normal_tchar@?$output_processor@DV?$stream_output_adapter@D@__crt_stdio_output@@V?$positional_parameter_base@DV?$stream_output_adapter@D@__crt_stdio_output@@@2@@__crt_stdio_output@@AEAA_ND@Z 00000001800682d0 f i libucrtd:output.obj
 0001:00067410       ?state_case_normal_tchar@?$output_processor@DV?$stream_output_adapter@D@__crt_stdio_output@@V?$standard_base@DV?$stream_output_adapter@D@__crt_stdio_output@@@2@@__crt_stdio_output@@AEAA_ND@Z 0000000180068410 f i libucrtd:output.obj
 0001:00067550       ?state_case_normal_tchar@?$output_processor@DV?$string_output_adapter@D@__crt_stdio_output@@V?$format_validation_base@DV?$string_output_adapter@D@__crt_stdio_output@@@2@@__crt_stdio_output@@AEAA_ND@Z 0000000180068550 f i libucrtd:output.obj
 0001:00067690       ?state_case_normal_tchar@?$output_processor@DV?$string_output_adapter@D@__crt_stdio_output@@V?$positional_parameter_base@DV?$string_output_adapter@D@__crt_stdio_output@@@2@@__crt_stdio_output@@AEAA_ND@Z 0000000180068690 f i libucrtd:output.obj
 0001:000677d0       ?state_case_normal_tchar@?$output_processor@DV?$string_output_adapter@D@__crt_stdio_output@@V?$standard_base@DV?$string_output_adapter@D@__crt_stdio_output@@@2@@__crt_stdio_output@@AEAA_ND@Z 00000001800687d0 f i libucrtd:output.obj
 0001:00067910       ?state_case_normal_tchar@?$output_processor@_WV?$stream_output_adapter@_W@__crt_stdio_output@@V?$format_validation_base@_WV?$stream_output_adapter@_W@__crt_stdio_output@@@2@@__crt_stdio_output@@AEAA_N_W@Z 0000000180068910 f i libucrtd:output.obj
 0001:00067930       ?state_case_normal_tchar@?$output_processor@_WV?$stream_output_adapter@_W@__crt_stdio_output@@V?$positional_parameter_base@_WV?$stream_output_adapter@_W@__crt_stdio_output@@@2@@__crt_stdio_output@@AEAA_N_W@Z 0000000180068930 f i libucrtd:output.obj
 0001:00067950       ?state_case_normal_tchar@?$output_processor@_WV?$stream_output_adapter@_W@__crt_stdio_output@@V?$standard_base@_WV?$stream_output_adapter@_W@__crt_stdio_output@@@2@@__crt_stdio_output@@AEAA_N_W@Z 0000000180068950 f i libucrtd:output.obj
 0001:00067970       ?state_case_normal_tchar@?$output_processor@_WV?$string_output_adapter@_W@__crt_stdio_output@@V?$format_validation_base@_WV?$string_output_adapter@_W@__crt_stdio_output@@@2@@__crt_stdio_output@@AEAA_N_W@Z 0000000180068970 f i libucrtd:output.obj
 0001:00067990       ?state_case_normal_tchar@?$output_processor@_WV?$string_output_adapter@_W@__crt_stdio_output@@V?$positional_parameter_base@_WV?$string_output_adapter@_W@__crt_stdio_output@@@2@@__crt_stdio_output@@AEAA_N_W@Z 0000000180068990 f i libucrtd:output.obj
 0001:000679b0       ?state_case_normal_tchar@?$output_processor@_WV?$string_output_adapter@_W@__crt_stdio_output@@V?$standard_base@_WV?$string_output_adapter@_W@__crt_stdio_output@@@2@@__crt_stdio_output@@AEAA_N_W@Z 00000001800689b0 f i libucrtd:output.obj
 0001:000679d0       ?state_case_percent@?$output_processor@DV?$stream_output_adapter@D@__crt_stdio_output@@V?$format_validation_base@DV?$stream_output_adapter@D@__crt_stdio_output@@@2@@__crt_stdio_output@@AEAA_NXZ 00000001800689d0 f i libucrtd:output.obj
 0001:00067a20       ?state_case_percent@?$output_processor@DV?$stream_output_adapter@D@__crt_stdio_output@@V?$positional_parameter_base@DV?$stream_output_adapter@D@__crt_stdio_output@@@2@@__crt_stdio_output@@AEAA_NXZ 0000000180068a20 f i libucrtd:output.obj
 0001:00067a70       ?state_case_percent@?$output_processor@DV?$stream_output_adapter@D@__crt_stdio_output@@V?$standard_base@DV?$stream_output_adapter@D@__crt_stdio_output@@@2@@__crt_stdio_output@@AEAA_NXZ 0000000180068a70 f i libucrtd:output.obj
 0001:00067ac0       ?state_case_percent@?$output_processor@DV?$string_output_adapter@D@__crt_stdio_output@@V?$format_validation_base@DV?$string_output_adapter@D@__crt_stdio_output@@@2@@__crt_stdio_output@@AEAA_NXZ 0000000180068ac0 f i libucrtd:output.obj
 0001:00067b10       ?state_case_percent@?$output_processor@DV?$string_output_adapter@D@__crt_stdio_output@@V?$positional_parameter_base@DV?$string_output_adapter@D@__crt_stdio_output@@@2@@__crt_stdio_output@@AEAA_NXZ 0000000180068b10 f i libucrtd:output.obj
 0001:00067b60       ?state_case_percent@?$output_processor@DV?$string_output_adapter@D@__crt_stdio_output@@V?$standard_base@DV?$string_output_adapter@D@__crt_stdio_output@@@2@@__crt_stdio_output@@AEAA_NXZ 0000000180068b60 f i libucrtd:output.obj
 0001:00067bb0       ?state_case_percent@?$output_processor@_WV?$stream_output_adapter@_W@__crt_stdio_output@@V?$format_validation_base@_WV?$stream_output_adapter@_W@__crt_stdio_output@@@2@@__crt_stdio_output@@AEAA_NXZ 0000000180068bb0 f i libucrtd:output.obj
 0001:00067c00       ?state_case_percent@?$output_processor@_WV?$stream_output_adapter@_W@__crt_stdio_output@@V?$positional_parameter_base@_WV?$stream_output_adapter@_W@__crt_stdio_output@@@2@@__crt_stdio_output@@AEAA_NXZ 0000000180068c00 f i libucrtd:output.obj
 0001:00067c50       ?state_case_percent@?$output_processor@_WV?$stream_output_adapter@_W@__crt_stdio_output@@V?$standard_base@_WV?$stream_output_adapter@_W@__crt_stdio_output@@@2@@__crt_stdio_output@@AEAA_NXZ 0000000180068c50 f i libucrtd:output.obj
 0001:00067ca0       ?state_case_percent@?$output_processor@_WV?$string_output_adapter@_W@__crt_stdio_output@@V?$format_validation_base@_WV?$string_output_adapter@_W@__crt_stdio_output@@@2@@__crt_stdio_output@@AEAA_NXZ 0000000180068ca0 f i libucrtd:output.obj
 0001:00067cf0       ?state_case_percent@?$output_processor@_WV?$string_output_adapter@_W@__crt_stdio_output@@V?$positional_parameter_base@_WV?$string_output_adapter@_W@__crt_stdio_output@@@2@@__crt_stdio_output@@AEAA_NXZ 0000000180068cf0 f i libucrtd:output.obj
 0001:00067d40       ?state_case_percent@?$output_processor@_WV?$string_output_adapter@_W@__crt_stdio_output@@V?$standard_base@_WV?$string_output_adapter@_W@__crt_stdio_output@@@2@@__crt_stdio_output@@AEAA_NXZ 0000000180068d40 f i libucrtd:output.obj
 0001:00067d90       ?state_case_precision@?$output_processor@DV?$stream_output_adapter@D@__crt_stdio_output@@V?$format_validation_base@DV?$stream_output_adapter@D@__crt_stdio_output@@@2@@__crt_stdio_output@@AEAA_NXZ 0000000180068d90 f i libucrtd:output.obj
 0001:00067e10       ?state_case_precision@?$output_processor@DV?$stream_output_adapter@D@__crt_stdio_output@@V?$positional_parameter_base@DV?$stream_output_adapter@D@__crt_stdio_output@@@2@@__crt_stdio_output@@AEAA_NXZ 0000000180068e10 f i libucrtd:output.obj
 0001:00067e90       ?state_case_precision@?$output_processor@DV?$stream_output_adapter@D@__crt_stdio_output@@V?$standard_base@DV?$stream_output_adapter@D@__crt_stdio_output@@@2@@__crt_stdio_output@@AEAA_NXZ 0000000180068e90 f i libucrtd:output.obj
 0001:00067f10       ?state_case_precision@?$output_processor@DV?$string_output_adapter@D@__crt_stdio_output@@V?$format_validation_base@DV?$string_output_adapter@D@__crt_stdio_output@@@2@@__crt_stdio_output@@AEAA_NXZ 0000000180068f10 f i libucrtd:output.obj
 0001:00067f90       ?state_case_precision@?$output_processor@DV?$string_output_adapter@D@__crt_stdio_output@@V?$positional_parameter_base@DV?$string_output_adapter@D@__crt_stdio_output@@@2@@__crt_stdio_output@@AEAA_NXZ 0000000180068f90 f i libucrtd:output.obj
 0001:00068010       ?state_case_precision@?$output_processor@DV?$string_output_adapter@D@__crt_stdio_output@@V?$standard_base@DV?$string_output_adapter@D@__crt_stdio_output@@@2@@__crt_stdio_output@@AEAA_NXZ 0000000180069010 f i libucrtd:output.obj
 0001:00068090       ?state_case_precision@?$output_processor@_WV?$stream_output_adapter@_W@__crt_stdio_output@@V?$format_validation_base@_WV?$stream_output_adapter@_W@__crt_stdio_output@@@2@@__crt_stdio_output@@AEAA_NXZ 0000000180069090 f i libucrtd:output.obj
 0001:00068110       ?state_case_precision@?$output_processor@_WV?$stream_output_adapter@_W@__crt_stdio_output@@V?$positional_parameter_base@_WV?$stream_output_adapter@_W@__crt_stdio_output@@@2@@__crt_stdio_output@@AEAA_NXZ 0000000180069110 f i libucrtd:output.obj
 0001:00068190       ?state_case_precision@?$output_processor@_WV?$stream_output_adapter@_W@__crt_stdio_output@@V?$standard_base@_WV?$stream_output_adapter@_W@__crt_stdio_output@@@2@@__crt_stdio_output@@AEAA_NXZ 0000000180069190 f i libucrtd:output.obj
 0001:00068210       ?state_case_precision@?$output_processor@_WV?$string_output_adapter@_W@__crt_stdio_output@@V?$format_validation_base@_WV?$string_output_adapter@_W@__crt_stdio_output@@@2@@__crt_stdio_output@@AEAA_NXZ 0000000180069210 f i libucrtd:output.obj
 0001:00068290       ?state_case_precision@?$output_processor@_WV?$string_output_adapter@_W@__crt_stdio_output@@V?$positional_parameter_base@_WV?$string_output_adapter@_W@__crt_stdio_output@@@2@@__crt_stdio_output@@AEAA_NXZ 0000000180069290 f i libucrtd:output.obj
 0001:00068310       ?state_case_precision@?$output_processor@_WV?$string_output_adapter@_W@__crt_stdio_output@@V?$standard_base@_WV?$string_output_adapter@_W@__crt_stdio_output@@@2@@__crt_stdio_output@@AEAA_NXZ 0000000180069310 f i libucrtd:output.obj
 0001:00068390       ?state_case_size@?$output_processor@DV?$stream_output_adapter@D@__crt_stdio_output@@V?$format_validation_base@DV?$stream_output_adapter@D@__crt_stdio_output@@@2@@__crt_stdio_output@@AEAA_NXZ 0000000180069390 f i libucrtd:output.obj
 0001:00068810       ?state_case_size@?$output_processor@DV?$stream_output_adapter@D@__crt_stdio_output@@V?$positional_parameter_base@DV?$stream_output_adapter@D@__crt_stdio_output@@@2@@__crt_stdio_output@@AEAA_NXZ 0000000180069810 f i libucrtd:output.obj
 0001:00068c90       ?state_case_size@?$output_processor@DV?$stream_output_adapter@D@__crt_stdio_output@@V?$standard_base@DV?$stream_output_adapter@D@__crt_stdio_output@@@2@@__crt_stdio_output@@AEAA_NXZ 0000000180069c90 f i libucrtd:output.obj
 0001:00069110       ?state_case_size@?$output_processor@DV?$string_output_adapter@D@__crt_stdio_output@@V?$format_validation_base@DV?$string_output_adapter@D@__crt_stdio_output@@@2@@__crt_stdio_output@@AEAA_NXZ 000000018006a110 f i libucrtd:output.obj
 0001:00069590       ?state_case_size@?$output_processor@DV?$string_output_adapter@D@__crt_stdio_output@@V?$positional_parameter_base@DV?$string_output_adapter@D@__crt_stdio_output@@@2@@__crt_stdio_output@@AEAA_NXZ 000000018006a590 f i libucrtd:output.obj
 0001:00069a10       ?state_case_size@?$output_processor@DV?$string_output_adapter@D@__crt_stdio_output@@V?$standard_base@DV?$string_output_adapter@D@__crt_stdio_output@@@2@@__crt_stdio_output@@AEAA_NXZ 000000018006aa10 f i libucrtd:output.obj
 0001:00069e90       ?state_case_size@?$output_processor@_WV?$stream_output_adapter@_W@__crt_stdio_output@@V?$format_validation_base@_WV?$stream_output_adapter@_W@__crt_stdio_output@@@2@@__crt_stdio_output@@AEAA_NXZ 000000018006ae90 f i libucrtd:output.obj
 0001:0006a310       ?state_case_size@?$output_processor@_WV?$stream_output_adapter@_W@__crt_stdio_output@@V?$positional_parameter_base@_WV?$stream_output_adapter@_W@__crt_stdio_output@@@2@@__crt_stdio_output@@AEAA_NXZ 000000018006b310 f i libucrtd:output.obj
 0001:0006a790       ?state_case_size@?$output_processor@_WV?$stream_output_adapter@_W@__crt_stdio_output@@V?$standard_base@_WV?$stream_output_adapter@_W@__crt_stdio_output@@@2@@__crt_stdio_output@@AEAA_NXZ 000000018006b790 f i libucrtd:output.obj
 0001:0006ac10       ?state_case_size@?$output_processor@_WV?$string_output_adapter@_W@__crt_stdio_output@@V?$format_validation_base@_WV?$string_output_adapter@_W@__crt_stdio_output@@@2@@__crt_stdio_output@@AEAA_NXZ 000000018006bc10 f i libucrtd:output.obj
 0001:0006b090       ?state_case_size@?$output_processor@_WV?$string_output_adapter@_W@__crt_stdio_output@@V?$positional_parameter_base@_WV?$string_output_adapter@_W@__crt_stdio_output@@@2@@__crt_stdio_output@@AEAA_NXZ 000000018006c090 f i libucrtd:output.obj
 0001:0006b510       ?state_case_size@?$output_processor@_WV?$string_output_adapter@_W@__crt_stdio_output@@V?$standard_base@_WV?$string_output_adapter@_W@__crt_stdio_output@@@2@@__crt_stdio_output@@AEAA_NXZ 000000018006c510 f i libucrtd:output.obj
 0001:0006b990       ?state_case_type@?$output_processor@DV?$stream_output_adapter@D@__crt_stdio_output@@V?$format_validation_base@DV?$stream_output_adapter@D@__crt_stdio_output@@@2@@__crt_stdio_output@@AEAA_NXZ 000000018006c990 f i libucrtd:output.obj
 0001:0006be30       ?state_case_type@?$output_processor@DV?$stream_output_adapter@D@__crt_stdio_output@@V?$positional_parameter_base@DV?$stream_output_adapter@D@__crt_stdio_output@@@2@@__crt_stdio_output@@AEAA_NXZ 000000018006ce30 f i libucrtd:output.obj
 0001:0006c2d0       ?state_case_type@?$output_processor@DV?$stream_output_adapter@D@__crt_stdio_output@@V?$standard_base@DV?$stream_output_adapter@D@__crt_stdio_output@@@2@@__crt_stdio_output@@AEAA_NXZ 000000018006d2d0 f i libucrtd:output.obj
 0001:0006c770       ?state_case_type@?$output_processor@DV?$string_output_adapter@D@__crt_stdio_output@@V?$format_validation_base@DV?$string_output_adapter@D@__crt_stdio_output@@@2@@__crt_stdio_output@@AEAA_NXZ 000000018006d770 f i libucrtd:output.obj
 0001:0006cc10       ?state_case_type@?$output_processor@DV?$string_output_adapter@D@__crt_stdio_output@@V?$positional_parameter_base@DV?$string_output_adapter@D@__crt_stdio_output@@@2@@__crt_stdio_output@@AEAA_NXZ 000000018006dc10 f i libucrtd:output.obj
 0001:0006d0b0       ?state_case_type@?$output_processor@DV?$string_output_adapter@D@__crt_stdio_output@@V?$standard_base@DV?$string_output_adapter@D@__crt_stdio_output@@@2@@__crt_stdio_output@@AEAA_NXZ 000000018006e0b0 f i libucrtd:output.obj
 0001:0006d550       ?state_case_type@?$output_processor@_WV?$stream_output_adapter@_W@__crt_stdio_output@@V?$format_validation_base@_WV?$stream_output_adapter@_W@__crt_stdio_output@@@2@@__crt_stdio_output@@AEAA_NXZ 000000018006e550 f i libucrtd:output.obj
 0001:0006dab0       ?state_case_type@?$output_processor@_WV?$stream_output_adapter@_W@__crt_stdio_output@@V?$positional_parameter_base@_WV?$stream_output_adapter@_W@__crt_stdio_output@@@2@@__crt_stdio_output@@AEAA_NXZ 000000018006eab0 f i libucrtd:output.obj
 0001:0006e010       ?state_case_type@?$output_processor@_WV?$stream_output_adapter@_W@__crt_stdio_output@@V?$standard_base@_WV?$stream_output_adapter@_W@__crt_stdio_output@@@2@@__crt_stdio_output@@AEAA_NXZ 000000018006f010 f i libucrtd:output.obj
 0001:0006e570       ?state_case_type@?$output_processor@_WV?$string_output_adapter@_W@__crt_stdio_output@@V?$format_validation_base@_WV?$string_output_adapter@_W@__crt_stdio_output@@@2@@__crt_stdio_output@@AEAA_NXZ 000000018006f570 f i libucrtd:output.obj
 0001:0006ead0       ?state_case_type@?$output_processor@_WV?$string_output_adapter@_W@__crt_stdio_output@@V?$positional_parameter_base@_WV?$string_output_adapter@_W@__crt_stdio_output@@@2@@__crt_stdio_output@@AEAA_NXZ 000000018006fad0 f i libucrtd:output.obj
 0001:0006f030       ?state_case_type@?$output_processor@_WV?$string_output_adapter@_W@__crt_stdio_output@@V?$standard_base@_WV?$string_output_adapter@_W@__crt_stdio_output@@@2@@__crt_stdio_output@@AEAA_NXZ 0000000180070030 f i libucrtd:output.obj
 0001:0006f590       ?state_case_width@?$output_processor@DV?$stream_output_adapter@D@__crt_stdio_output@@V?$format_validation_base@DV?$stream_output_adapter@D@__crt_stdio_output@@@2@@__crt_stdio_output@@AEAA_NXZ 0000000180070590 f i libucrtd:output.obj
 0001:0006f620       ?state_case_width@?$output_processor@DV?$stream_output_adapter@D@__crt_stdio_output@@V?$positional_parameter_base@DV?$stream_output_adapter@D@__crt_stdio_output@@@2@@__crt_stdio_output@@AEAA_NXZ 0000000180070620 f i libucrtd:output.obj
 0001:0006f6b0       ?state_case_width@?$output_processor@DV?$stream_output_adapter@D@__crt_stdio_output@@V?$standard_base@DV?$stream_output_adapter@D@__crt_stdio_output@@@2@@__crt_stdio_output@@AEAA_NXZ 00000001800706b0 f i libucrtd:output.obj
 0001:0006f740       ?state_case_width@?$output_processor@DV?$string_output_adapter@D@__crt_stdio_output@@V?$format_validation_base@DV?$string_output_adapter@D@__crt_stdio_output@@@2@@__crt_stdio_output@@AEAA_NXZ 0000000180070740 f i libucrtd:output.obj
 0001:0006f7d0       ?state_case_width@?$output_processor@DV?$string_output_adapter@D@__crt_stdio_output@@V?$positional_parameter_base@DV?$string_output_adapter@D@__crt_stdio_output@@@2@@__crt_stdio_output@@AEAA_NXZ 00000001800707d0 f i libucrtd:output.obj
 0001:0006f860       ?state_case_width@?$output_processor@DV?$string_output_adapter@D@__crt_stdio_output@@V?$standard_base@DV?$string_output_adapter@D@__crt_stdio_output@@@2@@__crt_stdio_output@@AEAA_NXZ 0000000180070860 f i libucrtd:output.obj
 0001:0006f8f0       ?state_case_width@?$output_processor@_WV?$stream_output_adapter@_W@__crt_stdio_output@@V?$format_validation_base@_WV?$stream_output_adapter@_W@__crt_stdio_output@@@2@@__crt_stdio_output@@AEAA_NXZ 00000001800708f0 f i libucrtd:output.obj
 0001:0006f980       ?state_case_width@?$output_processor@_WV?$stream_output_adapter@_W@__crt_stdio_output@@V?$positional_parameter_base@_WV?$stream_output_adapter@_W@__crt_stdio_output@@@2@@__crt_stdio_output@@AEAA_NXZ 0000000180070980 f i libucrtd:output.obj
 0001:0006fa10       ?state_case_width@?$output_processor@_WV?$stream_output_adapter@_W@__crt_stdio_output@@V?$standard_base@_WV?$stream_output_adapter@_W@__crt_stdio_output@@@2@@__crt_stdio_output@@AEAA_NXZ 0000000180070a10 f i libucrtd:output.obj
 0001:0006faa0       ?state_case_width@?$output_processor@_WV?$string_output_adapter@_W@__crt_stdio_output@@V?$format_validation_base@_WV?$string_output_adapter@_W@__crt_stdio_output@@@2@@__crt_stdio_output@@AEAA_NXZ 0000000180070aa0 f i libucrtd:output.obj
 0001:0006fb30       ?state_case_width@?$output_processor@_WV?$string_output_adapter@_W@__crt_stdio_output@@V?$positional_parameter_base@_WV?$string_output_adapter@_W@__crt_stdio_output@@@2@@__crt_stdio_output@@AEAA_NXZ 0000000180070b30 f i libucrtd:output.obj
 0001:0006fbc0       ?state_case_width@?$output_processor@_WV?$string_output_adapter@_W@__crt_stdio_output@@V?$standard_base@_WV?$string_output_adapter@_W@__crt_stdio_output@@@2@@__crt_stdio_output@@AEAA_NXZ 0000000180070bc0 f i libucrtd:output.obj
 0001:0006fc50       ?state_count@?$format_validation_base@DV?$stream_output_adapter@D@__crt_stdio_output@@@__crt_stdio_output@@KAIXZ 0000000180070c50 f i libucrtd:output.obj
 0001:0006fc60       ?state_count@?$format_validation_base@DV?$string_output_adapter@D@__crt_stdio_output@@@__crt_stdio_output@@KAIXZ 0000000180070c60 f i libucrtd:output.obj
 0001:0006fc70       ?state_count@?$format_validation_base@_WV?$stream_output_adapter@_W@__crt_stdio_output@@@__crt_stdio_output@@KAIXZ 0000000180070c70 f i libucrtd:output.obj
 0001:0006fc80       ?state_count@?$format_validation_base@_WV?$string_output_adapter@_W@__crt_stdio_output@@@__crt_stdio_output@@KAIXZ 0000000180070c80 f i libucrtd:output.obj
 0001:0006fc90       ?state_count@?$standard_base@DV?$stream_output_adapter@D@__crt_stdio_output@@@__crt_stdio_output@@KAIXZ 0000000180070c90 f i libucrtd:output.obj
 0001:0006fca0       ?state_count@?$standard_base@DV?$string_output_adapter@D@__crt_stdio_output@@@__crt_stdio_output@@KAIXZ 0000000180070ca0 f i libucrtd:output.obj
 0001:0006fcb0       ?state_count@?$standard_base@_WV?$stream_output_adapter@_W@__crt_stdio_output@@@__crt_stdio_output@@KAIXZ 0000000180070cb0 f i libucrtd:output.obj
 0001:0006fcc0       ?state_count@?$standard_base@_WV?$string_output_adapter@_W@__crt_stdio_output@@@__crt_stdio_output@@KAIXZ 0000000180070cc0 f i libucrtd:output.obj
 0001:0006fcd0       ?state_transition_table@?$format_validation_base@DV?$stream_output_adapter@D@__crt_stdio_output@@@__crt_stdio_output@@KAPEBEXZ 0000000180070cd0 f i libucrtd:output.obj
 0001:0006fce0       ?state_transition_table@?$format_validation_base@DV?$string_output_adapter@D@__crt_stdio_output@@@__crt_stdio_output@@KAPEBEXZ 0000000180070ce0 f i libucrtd:output.obj
 0001:0006fcf0       ?state_transition_table@?$format_validation_base@_WV?$stream_output_adapter@_W@__crt_stdio_output@@@__crt_stdio_output@@KAPEBEXZ 0000000180070cf0 f i libucrtd:output.obj
 0001:0006fd00       ?state_transition_table@?$format_validation_base@_WV?$string_output_adapter@_W@__crt_stdio_output@@@__crt_stdio_output@@KAPEBEXZ 0000000180070d00 f i libucrtd:output.obj
 0001:0006fd10       ?state_transition_table@?$standard_base@DV?$stream_output_adapter@D@__crt_stdio_output@@@__crt_stdio_output@@KAPEBEXZ 0000000180070d10 f i libucrtd:output.obj
 0001:0006fd20       ?state_transition_table@?$standard_base@DV?$string_output_adapter@D@__crt_stdio_output@@@__crt_stdio_output@@KAPEBEXZ 0000000180070d20 f i libucrtd:output.obj
 0001:0006fd30       ?state_transition_table@?$standard_base@_WV?$stream_output_adapter@_W@__crt_stdio_output@@@__crt_stdio_output@@KAPEBEXZ 0000000180070d30 f i libucrtd:output.obj
 0001:0006fd40       ?state_transition_table@?$standard_base@_WV?$string_output_adapter@_W@__crt_stdio_output@@@__crt_stdio_output@@KAPEBEXZ 0000000180070d40 f i libucrtd:output.obj
 0001:0006fd50       ?tchar_string@?$common_data@D@__crt_stdio_output@@IEAAAEAPEADD@Z 0000000180070d50 f i libucrtd:output.obj
 0001:0006fd70       ?tchar_string@?$common_data@D@__crt_stdio_output@@IEAAAEAPEADXZ 0000000180070d70 f i libucrtd:output.obj
 0001:0006fd90       ?tchar_string@?$common_data@_W@__crt_stdio_output@@IEAAAEAPEA_WXZ 0000000180070d90 f i libucrtd:output.obj
 0001:0006fdb0       ?tchar_string@?$common_data@_W@__crt_stdio_output@@IEAAAEAPEA_W_W@Z 0000000180070db0 f i libucrtd:output.obj
 0001:0006fdd0       ?to_integer_size@__crt_stdio_output@@YA_KW4length_modifier@1@@Z 0000000180070dd0 f i libucrtd:output.obj
 0001:0006fe80       ?type_case_X@?$output_processor@DV?$stream_output_adapter@D@__crt_stdio_output@@V?$format_validation_base@DV?$stream_output_adapter@D@__crt_stdio_output@@@2@@__crt_stdio_output@@AEAA_NXZ 0000000180070e80 f i libucrtd:output.obj
 0001:0006fea0       ?type_case_X@?$output_processor@DV?$stream_output_adapter@D@__crt_stdio_output@@V?$positional_parameter_base@DV?$stream_output_adapter@D@__crt_stdio_output@@@2@@__crt_stdio_output@@AEAA_NXZ 0000000180070ea0 f i libucrtd:output.obj
 0001:0006fec0       ?type_case_X@?$output_processor@DV?$stream_output_adapter@D@__crt_stdio_output@@V?$standard_base@DV?$stream_output_adapter@D@__crt_stdio_output@@@2@@__crt_stdio_output@@AEAA_NXZ 0000000180070ec0 f i libucrtd:output.obj
 0001:0006fee0       ?type_case_X@?$output_processor@DV?$string_output_adapter@D@__crt_stdio_output@@V?$format_validation_base@DV?$string_output_adapter@D@__crt_stdio_output@@@2@@__crt_stdio_output@@AEAA_NXZ 0000000180070ee0 f i libucrtd:output.obj
 0001:0006ff00       ?type_case_X@?$output_processor@DV?$string_output_adapter@D@__crt_stdio_output@@V?$positional_parameter_base@DV?$string_output_adapter@D@__crt_stdio_output@@@2@@__crt_stdio_output@@AEAA_NXZ 0000000180070f00 f i libucrtd:output.obj
 0001:0006ff20       ?type_case_X@?$output_processor@DV?$string_output_adapter@D@__crt_stdio_output@@V?$standard_base@DV?$string_output_adapter@D@__crt_stdio_output@@@2@@__crt_stdio_output@@AEAA_NXZ 0000000180070f20 f i libucrtd:output.obj
 0001:0006ff40       ?type_case_X@?$output_processor@_WV?$stream_output_adapter@_W@__crt_stdio_output@@V?$format_validation_base@_WV?$stream_output_adapter@_W@__crt_stdio_output@@@2@@__crt_stdio_output@@AEAA_NXZ 0000000180070f40 f i libucrtd:output.obj
 0001:0006ff60       ?type_case_X@?$output_processor@_WV?$stream_output_adapter@_W@__crt_stdio_output@@V?$positional_parameter_base@_WV?$stream_output_adapter@_W@__crt_stdio_output@@@2@@__crt_stdio_output@@AEAA_NXZ 0000000180070f60 f i libucrtd:output.obj
 0001:0006ff80       ?type_case_X@?$output_processor@_WV?$stream_output_adapter@_W@__crt_stdio_output@@V?$standard_base@_WV?$stream_output_adapter@_W@__crt_stdio_output@@@2@@__crt_stdio_output@@AEAA_NXZ 0000000180070f80 f i libucrtd:output.obj
 0001:0006ffa0       ?type_case_X@?$output_processor@_WV?$string_output_adapter@_W@__crt_stdio_output@@V?$format_validation_base@_WV?$string_output_adapter@_W@__crt_stdio_output@@@2@@__crt_stdio_output@@AEAA_NXZ 0000000180070fa0 f i libucrtd:output.obj
 0001:0006ffc0       ?type_case_X@?$output_processor@_WV?$string_output_adapter@_W@__crt_stdio_output@@V?$positional_parameter_base@_WV?$string_output_adapter@_W@__crt_stdio_output@@@2@@__crt_stdio_output@@AEAA_NXZ 0000000180070fc0 f i libucrtd:output.obj
 0001:0006ffe0       ?type_case_X@?$output_processor@_WV?$string_output_adapter@_W@__crt_stdio_output@@V?$standard_base@_WV?$string_output_adapter@_W@__crt_stdio_output@@@2@@__crt_stdio_output@@AEAA_NXZ 0000000180070fe0 f i libucrtd:output.obj
 0001:00070000       ?type_case_Z@?$output_processor@DV?$stream_output_adapter@D@__crt_stdio_output@@V?$format_validation_base@DV?$stream_output_adapter@D@__crt_stdio_output@@@2@@__crt_stdio_output@@AEAA_NXZ 0000000180071000 f i libucrtd:output.obj
 0001:00070120       ?type_case_Z@?$output_processor@DV?$stream_output_adapter@D@__crt_stdio_output@@V?$positional_parameter_base@DV?$stream_output_adapter@D@__crt_stdio_output@@@2@@__crt_stdio_output@@AEAA_NXZ 0000000180071120 f i libucrtd:output.obj
 0001:00070240       ?type_case_Z@?$output_processor@DV?$stream_output_adapter@D@__crt_stdio_output@@V?$standard_base@DV?$stream_output_adapter@D@__crt_stdio_output@@@2@@__crt_stdio_output@@AEAA_NXZ 0000000180071240 f i libucrtd:output.obj
 0001:00070360       ?type_case_Z@?$output_processor@DV?$string_output_adapter@D@__crt_stdio_output@@V?$format_validation_base@DV?$string_output_adapter@D@__crt_stdio_output@@@2@@__crt_stdio_output@@AEAA_NXZ 0000000180071360 f i libucrtd:output.obj
 0001:00070480       ?type_case_Z@?$output_processor@DV?$string_output_adapter@D@__crt_stdio_output@@V?$positional_parameter_base@DV?$string_output_adapter@D@__crt_stdio_output@@@2@@__crt_stdio_output@@AEAA_NXZ 0000000180071480 f i libucrtd:output.obj
 0001:000705a0       ?type_case_Z@?$output_processor@DV?$string_output_adapter@D@__crt_stdio_output@@V?$standard_base@DV?$string_output_adapter@D@__crt_stdio_output@@@2@@__crt_stdio_output@@AEAA_NXZ 00000001800715a0 f i libucrtd:output.obj
 0001:000706c0       ?type_case_Z@?$output_processor@_WV?$stream_output_adapter@_W@__crt_stdio_output@@V?$format_validation_base@_WV?$stream_output_adapter@_W@__crt_stdio_output@@@2@@__crt_stdio_output@@AEAA_NXZ 00000001800716c0 f i libucrtd:output.obj
 0001:000707e0       ?type_case_Z@?$output_processor@_WV?$stream_output_adapter@_W@__crt_stdio_output@@V?$positional_parameter_base@_WV?$stream_output_adapter@_W@__crt_stdio_output@@@2@@__crt_stdio_output@@AEAA_NXZ 00000001800717e0 f i libucrtd:output.obj
 0001:00070900       ?type_case_Z@?$output_processor@_WV?$stream_output_adapter@_W@__crt_stdio_output@@V?$standard_base@_WV?$stream_output_adapter@_W@__crt_stdio_output@@@2@@__crt_stdio_output@@AEAA_NXZ 0000000180071900 f i libucrtd:output.obj
 0001:00070a20       ?type_case_Z@?$output_processor@_WV?$string_output_adapter@_W@__crt_stdio_output@@V?$format_validation_base@_WV?$string_output_adapter@_W@__crt_stdio_output@@@2@@__crt_stdio_output@@AEAA_NXZ 0000000180071a20 f i libucrtd:output.obj
 0001:00070b40       ?type_case_Z@?$output_processor@_WV?$string_output_adapter@_W@__crt_stdio_output@@V?$positional_parameter_base@_WV?$string_output_adapter@_W@__crt_stdio_output@@@2@@__crt_stdio_output@@AEAA_NXZ 0000000180071b40 f i libucrtd:output.obj
 0001:00070c60       ?type_case_Z@?$output_processor@_WV?$string_output_adapter@_W@__crt_stdio_output@@V?$standard_base@_WV?$string_output_adapter@_W@__crt_stdio_output@@@2@@__crt_stdio_output@@AEAA_NXZ 0000000180071c60 f i libucrtd:output.obj
 0001:00070d80       ?type_case_a@?$output_processor@DV?$stream_output_adapter@D@__crt_stdio_output@@V?$format_validation_base@DV?$stream_output_adapter@D@__crt_stdio_output@@@2@@__crt_stdio_output@@AEAA_NXZ 0000000180071d80 f i libucrtd:output.obj
 0001:00071140       ?type_case_a@?$output_processor@DV?$stream_output_adapter@D@__crt_stdio_output@@V?$positional_parameter_base@DV?$stream_output_adapter@D@__crt_stdio_output@@@2@@__crt_stdio_output@@AEAA_NXZ 0000000180072140 f i libucrtd:output.obj
 0001:00071500       ?type_case_a@?$output_processor@DV?$stream_output_adapter@D@__crt_stdio_output@@V?$standard_base@DV?$stream_output_adapter@D@__crt_stdio_output@@@2@@__crt_stdio_output@@AEAA_NXZ 0000000180072500 f i libucrtd:output.obj
 0001:000718c0       ?type_case_a@?$output_processor@DV?$string_output_adapter@D@__crt_stdio_output@@V?$format_validation_base@DV?$string_output_adapter@D@__crt_stdio_output@@@2@@__crt_stdio_output@@AEAA_NXZ 00000001800728c0 f i libucrtd:output.obj
 0001:00071c80       ?type_case_a@?$output_processor@DV?$string_output_adapter@D@__crt_stdio_output@@V?$positional_parameter_base@DV?$string_output_adapter@D@__crt_stdio_output@@@2@@__crt_stdio_output@@AEAA_NXZ 0000000180072c80 f i libucrtd:output.obj
 0001:00072040       ?type_case_a@?$output_processor@DV?$string_output_adapter@D@__crt_stdio_output@@V?$standard_base@DV?$string_output_adapter@D@__crt_stdio_output@@@2@@__crt_stdio_output@@AEAA_NXZ 0000000180073040 f i libucrtd:output.obj
 0001:00072400       ?type_case_a@?$output_processor@_WV?$stream_output_adapter@_W@__crt_stdio_output@@V?$format_validation_base@_WV?$stream_output_adapter@_W@__crt_stdio_output@@@2@@__crt_stdio_output@@AEAA_NXZ 0000000180073400 f i libucrtd:output.obj
 0001:000727d0       ?type_case_a@?$output_processor@_WV?$stream_output_adapter@_W@__crt_stdio_output@@V?$positional_parameter_base@_WV?$stream_output_adapter@_W@__crt_stdio_output@@@2@@__crt_stdio_output@@AEAA_NXZ 00000001800737d0 f i libucrtd:output.obj
 0001:00072ba0       ?type_case_a@?$output_processor@_WV?$stream_output_adapter@_W@__crt_stdio_output@@V?$standard_base@_WV?$stream_output_adapter@_W@__crt_stdio_output@@@2@@__crt_stdio_output@@AEAA_NXZ 0000000180073ba0 f i libucrtd:output.obj
 0001:00072f70       ?type_case_a@?$output_processor@_WV?$string_output_adapter@_W@__crt_stdio_output@@V?$format_validation_base@_WV?$string_output_adapter@_W@__crt_stdio_output@@@2@@__crt_stdio_output@@AEAA_NXZ 0000000180073f70 f i libucrtd:output.obj
 0001:00073340       ?type_case_a@?$output_processor@_WV?$string_output_adapter@_W@__crt_stdio_output@@V?$positional_parameter_base@_WV?$string_output_adapter@_W@__crt_stdio_output@@@2@@__crt_stdio_output@@AEAA_NXZ 0000000180074340 f i libucrtd:output.obj
 0001:00073710       ?type_case_a@?$output_processor@_WV?$string_output_adapter@_W@__crt_stdio_output@@V?$standard_base@_WV?$string_output_adapter@_W@__crt_stdio_output@@@2@@__crt_stdio_output@@AEAA_NXZ 0000000180074710 f i libucrtd:output.obj
 0001:00073ae0       ?type_case_c@?$output_processor@DV?$stream_output_adapter@D@__crt_stdio_output@@V?$format_validation_base@DV?$stream_output_adapter@D@__crt_stdio_output@@@2@@__crt_stdio_output@@AEAA_NXZ 0000000180074ae0 f i libucrtd:output.obj
 0001:00073b00       ?type_case_c@?$output_processor@DV?$stream_output_adapter@D@__crt_stdio_output@@V?$positional_parameter_base@DV?$stream_output_adapter@D@__crt_stdio_output@@@2@@__crt_stdio_output@@AEAA_NXZ 0000000180074b00 f i libucrtd:output.obj
 0001:00073b20       ?type_case_c@?$output_processor@DV?$stream_output_adapter@D@__crt_stdio_output@@V?$standard_base@DV?$stream_output_adapter@D@__crt_stdio_output@@@2@@__crt_stdio_output@@AEAA_NXZ 0000000180074b20 f i libucrtd:output.obj
 0001:00073b40       ?type_case_c@?$output_processor@DV?$string_output_adapter@D@__crt_stdio_output@@V?$format_validation_base@DV?$string_output_adapter@D@__crt_stdio_output@@@2@@__crt_stdio_output@@AEAA_NXZ 0000000180074b40 f i libucrtd:output.obj
 0001:00073b60       ?type_case_c@?$output_processor@DV?$string_output_adapter@D@__crt_stdio_output@@V?$positional_parameter_base@DV?$string_output_adapter@D@__crt_stdio_output@@@2@@__crt_stdio_output@@AEAA_NXZ 0000000180074b60 f i libucrtd:output.obj
 0001:00073b80       ?type_case_c@?$output_processor@DV?$string_output_adapter@D@__crt_stdio_output@@V?$standard_base@DV?$string_output_adapter@D@__crt_stdio_output@@@2@@__crt_stdio_output@@AEAA_NXZ 0000000180074b80 f i libucrtd:output.obj
 0001:00073ba0       ?type_case_c@?$output_processor@_WV?$stream_output_adapter@_W@__crt_stdio_output@@V?$format_validation_base@_WV?$stream_output_adapter@_W@__crt_stdio_output@@@2@@__crt_stdio_output@@AEAA_NXZ 0000000180074ba0 f i libucrtd:output.obj
 0001:00073bc0       ?type_case_c@?$output_processor@_WV?$stream_output_adapter@_W@__crt_stdio_output@@V?$positional_parameter_base@_WV?$stream_output_adapter@_W@__crt_stdio_output@@@2@@__crt_stdio_output@@AEAA_NXZ 0000000180074bc0 f i libucrtd:output.obj
 0001:00073be0       ?type_case_c@?$output_processor@_WV?$stream_output_adapter@_W@__crt_stdio_output@@V?$standard_base@_WV?$stream_output_adapter@_W@__crt_stdio_output@@@2@@__crt_stdio_output@@AEAA_NXZ 0000000180074be0 f i libucrtd:output.obj
 0001:00073c00       ?type_case_c@?$output_processor@_WV?$string_output_adapter@_W@__crt_stdio_output@@V?$format_validation_base@_WV?$string_output_adapter@_W@__crt_stdio_output@@@2@@__crt_stdio_output@@AEAA_NXZ 0000000180074c00 f i libucrtd:output.obj
 0001:00073c20       ?type_case_c@?$output_processor@_WV?$string_output_adapter@_W@__crt_stdio_output@@V?$positional_parameter_base@_WV?$string_output_adapter@_W@__crt_stdio_output@@@2@@__crt_stdio_output@@AEAA_NXZ 0000000180074c20 f i libucrtd:output.obj
 0001:00073c40       ?type_case_c@?$output_processor@_WV?$string_output_adapter@_W@__crt_stdio_output@@V?$standard_base@_WV?$string_output_adapter@_W@__crt_stdio_output@@@2@@__crt_stdio_output@@AEAA_NXZ 0000000180074c40 f i libucrtd:output.obj
 0001:00073c60       ?type_case_c_tchar@?$output_processor@DV?$stream_output_adapter@D@__crt_stdio_output@@V?$format_validation_base@DV?$stream_output_adapter@D@__crt_stdio_output@@@2@@__crt_stdio_output@@AEAA_ND@Z 0000000180074c60 f i libucrtd:output.obj
 0001:00073db0       ?type_case_c_tchar@?$output_processor@DV?$stream_output_adapter@D@__crt_stdio_output@@V?$positional_parameter_base@DV?$stream_output_adapter@D@__crt_stdio_output@@@2@@__crt_stdio_output@@AEAA_ND@Z 0000000180074db0 f i libucrtd:output.obj
 0001:00073f00       ?type_case_c_tchar@?$output_processor@DV?$stream_output_adapter@D@__crt_stdio_output@@V?$standard_base@DV?$stream_output_adapter@D@__crt_stdio_output@@@2@@__crt_stdio_output@@AEAA_ND@Z 0000000180074f00 f i libucrtd:output.obj
 0001:00074050       ?type_case_c_tchar@?$output_processor@DV?$string_output_adapter@D@__crt_stdio_output@@V?$format_validation_base@DV?$string_output_adapter@D@__crt_stdio_output@@@2@@__crt_stdio_output@@AEAA_ND@Z 0000000180075050 f i libucrtd:output.obj
 0001:000741a0       ?type_case_c_tchar@?$output_processor@DV?$string_output_adapter@D@__crt_stdio_output@@V?$positional_parameter_base@DV?$string_output_adapter@D@__crt_stdio_output@@@2@@__crt_stdio_output@@AEAA_ND@Z 00000001800751a0 f i libucrtd:output.obj
 0001:000742f0       ?type_case_c_tchar@?$output_processor@DV?$string_output_adapter@D@__crt_stdio_output@@V?$standard_base@DV?$string_output_adapter@D@__crt_stdio_output@@@2@@__crt_stdio_output@@AEAA_ND@Z 00000001800752f0 f i libucrtd:output.obj
 0001:00074440       ?type_case_c_tchar@?$output_processor@_WV?$stream_output_adapter@_W@__crt_stdio_output@@V?$format_validation_base@_WV?$stream_output_adapter@_W@__crt_stdio_output@@@2@@__crt_stdio_output@@AEAA_N_W@Z 0000000180075440 f i libucrtd:output.obj
 0001:00074570       ?type_case_c_tchar@?$output_processor@_WV?$stream_output_adapter@_W@__crt_stdio_output@@V?$positional_parameter_base@_WV?$stream_output_adapter@_W@__crt_stdio_output@@@2@@__crt_stdio_output@@AEAA_N_W@Z 0000000180075570 f i libucrtd:output.obj
 0001:000746a0       ?type_case_c_tchar@?$output_processor@_WV?$stream_output_adapter@_W@__crt_stdio_output@@V?$standard_base@_WV?$stream_output_adapter@_W@__crt_stdio_output@@@2@@__crt_stdio_output@@AEAA_N_W@Z 00000001800756a0 f i libucrtd:output.obj
 0001:000747d0       ?type_case_c_tchar@?$output_processor@_WV?$string_output_adapter@_W@__crt_stdio_output@@V?$format_validation_base@_WV?$string_output_adapter@_W@__crt_stdio_output@@@2@@__crt_stdio_output@@AEAA_N_W@Z 00000001800757d0 f i libucrtd:output.obj
 0001:00074900       ?type_case_c_tchar@?$output_processor@_WV?$string_output_adapter@_W@__crt_stdio_output@@V?$positional_parameter_base@_WV?$string_output_adapter@_W@__crt_stdio_output@@@2@@__crt_stdio_output@@AEAA_N_W@Z 0000000180075900 f i libucrtd:output.obj
 0001:00074a30       ?type_case_c_tchar@?$output_processor@_WV?$string_output_adapter@_W@__crt_stdio_output@@V?$standard_base@_WV?$string_output_adapter@_W@__crt_stdio_output@@@2@@__crt_stdio_output@@AEAA_N_W@Z 0000000180075a30 f i libucrtd:output.obj
 0001:00074b60       ?type_case_d@?$output_processor@DV?$stream_output_adapter@D@__crt_stdio_output@@V?$format_validation_base@DV?$stream_output_adapter@D@__crt_stdio_output@@@2@@__crt_stdio_output@@AEAA_NXZ 0000000180075b60 f i libucrtd:output.obj
 0001:00074b90       ?type_case_d@?$output_processor@DV?$stream_output_adapter@D@__crt_stdio_output@@V?$positional_parameter_base@DV?$stream_output_adapter@D@__crt_stdio_output@@@2@@__crt_stdio_output@@AEAA_NXZ 0000000180075b90 f i libucrtd:output.obj
 0001:00074bc0       ?type_case_d@?$output_processor@DV?$stream_output_adapter@D@__crt_stdio_output@@V?$standard_base@DV?$stream_output_adapter@D@__crt_stdio_output@@@2@@__crt_stdio_output@@AEAA_NXZ 0000000180075bc0 f i libucrtd:output.obj
 0001:00074bf0       ?type_case_d@?$output_processor@DV?$string_output_adapter@D@__crt_stdio_output@@V?$format_validation_base@DV?$string_output_adapter@D@__crt_stdio_output@@@2@@__crt_stdio_output@@AEAA_NXZ 0000000180075bf0 f i libucrtd:output.obj
 0001:00074c20       ?type_case_d@?$output_processor@DV?$string_output_adapter@D@__crt_stdio_output@@V?$positional_parameter_base@DV?$string_output_adapter@D@__crt_stdio_output@@@2@@__crt_stdio_output@@AEAA_NXZ 0000000180075c20 f i libucrtd:output.obj
 0001:00074c50       ?type_case_d@?$output_processor@DV?$string_output_adapter@D@__crt_stdio_output@@V?$standard_base@DV?$string_output_adapter@D@__crt_stdio_output@@@2@@__crt_stdio_output@@AEAA_NXZ 0000000180075c50 f i libucrtd:output.obj
 0001:00074c80       ?type_case_d@?$output_processor@_WV?$stream_output_adapter@_W@__crt_stdio_output@@V?$format_validation_base@_WV?$stream_output_adapter@_W@__crt_stdio_output@@@2@@__crt_stdio_output@@AEAA_NXZ 0000000180075c80 f i libucrtd:output.obj
 0001:00074cb0       ?type_case_d@?$output_processor@_WV?$stream_output_adapter@_W@__crt_stdio_output@@V?$positional_parameter_base@_WV?$stream_output_adapter@_W@__crt_stdio_output@@@2@@__crt_stdio_output@@AEAA_NXZ 0000000180075cb0 f i libucrtd:output.obj
 0001:00074ce0       ?type_case_d@?$output_processor@_WV?$stream_output_adapter@_W@__crt_stdio_output@@V?$standard_base@_WV?$stream_output_adapter@_W@__crt_stdio_output@@@2@@__crt_stdio_output@@AEAA_NXZ 0000000180075ce0 f i libucrtd:output.obj
 0001:00074d10       ?type_case_d@?$output_processor@_WV?$string_output_adapter@_W@__crt_stdio_output@@V?$format_validation_base@_WV?$string_output_adapter@_W@__crt_stdio_output@@@2@@__crt_stdio_output@@AEAA_NXZ 0000000180075d10 f i libucrtd:output.obj
 0001:00074d40       ?type_case_d@?$output_processor@_WV?$string_output_adapter@_W@__crt_stdio_output@@V?$positional_parameter_base@_WV?$string_output_adapter@_W@__crt_stdio_output@@@2@@__crt_stdio_output@@AEAA_NXZ 0000000180075d40 f i libucrtd:output.obj
 0001:00074d70       ?type_case_d@?$output_processor@_WV?$string_output_adapter@_W@__crt_stdio_output@@V?$standard_base@_WV?$string_output_adapter@_W@__crt_stdio_output@@@2@@__crt_stdio_output@@AEAA_NXZ 0000000180075d70 f i libucrtd:output.obj
 0001:00074da0       ?type_case_integer@?$output_processor@DV?$stream_output_adapter@D@__crt_stdio_output@@V?$format_validation_base@DV?$stream_output_adapter@D@__crt_stdio_output@@@2@@__crt_stdio_output@@AEAA_NI_N@Z 0000000180075da0 f i libucrtd:output.obj
 0001:000751f0       ?type_case_integer@?$output_processor@DV?$stream_output_adapter@D@__crt_stdio_output@@V?$positional_parameter_base@DV?$stream_output_adapter@D@__crt_stdio_output@@@2@@__crt_stdio_output@@AEAA_NI_N@Z 00000001800761f0 f i libucrtd:output.obj
 0001:00075640       ?type_case_integer@?$output_processor@DV?$stream_output_adapter@D@__crt_stdio_output@@V?$standard_base@DV?$stream_output_adapter@D@__crt_stdio_output@@@2@@__crt_stdio_output@@AEAA_NI_N@Z 0000000180076640 f i libucrtd:output.obj
 0001:00075a90       ?type_case_integer@?$output_processor@DV?$string_output_adapter@D@__crt_stdio_output@@V?$format_validation_base@DV?$string_output_adapter@D@__crt_stdio_output@@@2@@__crt_stdio_output@@AEAA_NI_N@Z 0000000180076a90 f i libucrtd:output.obj
 0001:00075ee0       ?type_case_integer@?$output_processor@DV?$string_output_adapter@D@__crt_stdio_output@@V?$positional_parameter_base@DV?$string_output_adapter@D@__crt_stdio_output@@@2@@__crt_stdio_output@@AEAA_NI_N@Z 0000000180076ee0 f i libucrtd:output.obj
 0001:00076330       ?type_case_integer@?$output_processor@DV?$string_output_adapter@D@__crt_stdio_output@@V?$standard_base@DV?$string_output_adapter@D@__crt_stdio_output@@@2@@__crt_stdio_output@@AEAA_NI_N@Z 0000000180077330 f i libucrtd:output.obj
 0001:00076780       ?type_case_integer@?$output_processor@_WV?$stream_output_adapter@_W@__crt_stdio_output@@V?$format_validation_base@_WV?$stream_output_adapter@_W@__crt_stdio_output@@@2@@__crt_stdio_output@@AEAA_NI_N@Z 0000000180077780 f i libucrtd:output.obj
 0001:00076bd0       ?type_case_integer@?$output_processor@_WV?$stream_output_adapter@_W@__crt_stdio_output@@V?$positional_parameter_base@_WV?$stream_output_adapter@_W@__crt_stdio_output@@@2@@__crt_stdio_output@@AEAA_NI_N@Z 0000000180077bd0 f i libucrtd:output.obj
 0001:00077020       ?type_case_integer@?$output_processor@_WV?$stream_output_adapter@_W@__crt_stdio_output@@V?$standard_base@_WV?$stream_output_adapter@_W@__crt_stdio_output@@@2@@__crt_stdio_output@@AEAA_NI_N@Z 0000000180078020 f i libucrtd:output.obj
 0001:00077470       ?type_case_integer@?$output_processor@_WV?$string_output_adapter@_W@__crt_stdio_output@@V?$format_validation_base@_WV?$string_output_adapter@_W@__crt_stdio_output@@@2@@__crt_stdio_output@@AEAA_NI_N@Z 0000000180078470 f i libucrtd:output.obj
 0001:000778c0       ?type_case_integer@?$output_processor@_WV?$string_output_adapter@_W@__crt_stdio_output@@V?$positional_parameter_base@_WV?$string_output_adapter@_W@__crt_stdio_output@@@2@@__crt_stdio_output@@AEAA_NI_N@Z 00000001800788c0 f i libucrtd:output.obj
 0001:00077d10       ?type_case_integer@?$output_processor@_WV?$string_output_adapter@_W@__crt_stdio_output@@V?$standard_base@_WV?$string_output_adapter@_W@__crt_stdio_output@@@2@@__crt_stdio_output@@AEAA_NI_N@Z 0000000180078d10 f i libucrtd:output.obj
 0001:00078160       ?type_case_n@?$output_processor@DV?$stream_output_adapter@D@__crt_stdio_output@@V?$format_validation_base@DV?$stream_output_adapter@D@__crt_stdio_output@@@2@@__crt_stdio_output@@AEAA_NXZ 0000000180079160 f i libucrtd:output.obj
 0001:000783a0       ?type_case_n@?$output_processor@DV?$stream_output_adapter@D@__crt_stdio_output@@V?$positional_parameter_base@DV?$stream_output_adapter@D@__crt_stdio_output@@@2@@__crt_stdio_output@@AEAA_NXZ 00000001800793a0 f i libucrtd:output.obj
 0001:000785e0       ?type_case_n@?$output_processor@DV?$stream_output_adapter@D@__crt_stdio_output@@V?$standard_base@DV?$stream_output_adapter@D@__crt_stdio_output@@@2@@__crt_stdio_output@@AEAA_NXZ 00000001800795e0 f i libucrtd:output.obj
 0001:00078820       ?type_case_n@?$output_processor@DV?$string_output_adapter@D@__crt_stdio_output@@V?$format_validation_base@DV?$string_output_adapter@D@__crt_stdio_output@@@2@@__crt_stdio_output@@AEAA_NXZ 0000000180079820 f i libucrtd:output.obj
 0001:00078a60       ?type_case_n@?$output_processor@DV?$string_output_adapter@D@__crt_stdio_output@@V?$positional_parameter_base@DV?$string_output_adapter@D@__crt_stdio_output@@@2@@__crt_stdio_output@@AEAA_NXZ 0000000180079a60 f i libucrtd:output.obj
 0001:00078ca0       ?type_case_n@?$output_processor@DV?$string_output_adapter@D@__crt_stdio_output@@V?$standard_base@DV?$string_output_adapter@D@__crt_stdio_output@@@2@@__crt_stdio_output@@AEAA_NXZ 0000000180079ca0 f i libucrtd:output.obj
 0001:00078ee0       ?type_case_n@?$output_processor@_WV?$stream_output_adapter@_W@__crt_stdio_output@@V?$format_validation_base@_WV?$stream_output_adapter@_W@__crt_stdio_output@@@2@@__crt_stdio_output@@AEAA_NXZ 0000000180079ee0 f i libucrtd:output.obj
 0001:00079120       ?type_case_n@?$output_processor@_WV?$stream_output_adapter@_W@__crt_stdio_output@@V?$positional_parameter_base@_WV?$stream_output_adapter@_W@__crt_stdio_output@@@2@@__crt_stdio_output@@AEAA_NXZ 000000018007a120 f i libucrtd:output.obj
 0001:00079360       ?type_case_n@?$output_processor@_WV?$stream_output_adapter@_W@__crt_stdio_output@@V?$standard_base@_WV?$stream_output_adapter@_W@__crt_stdio_output@@@2@@__crt_stdio_output@@AEAA_NXZ 000000018007a360 f i libucrtd:output.obj
 0001:000795a0       ?type_case_n@?$output_processor@_WV?$string_output_adapter@_W@__crt_stdio_output@@V?$format_validation_base@_WV?$string_output_adapter@_W@__crt_stdio_output@@@2@@__crt_stdio_output@@AEAA_NXZ 000000018007a5a0 f i libucrtd:output.obj
 0001:000797e0       ?type_case_n@?$output_processor@_WV?$string_output_adapter@_W@__crt_stdio_output@@V?$positional_parameter_base@_WV?$string_output_adapter@_W@__crt_stdio_output@@@2@@__crt_stdio_output@@AEAA_NXZ 000000018007a7e0 f i libucrtd:output.obj
 0001:00079a20       ?type_case_n@?$output_processor@_WV?$string_output_adapter@_W@__crt_stdio_output@@V?$standard_base@_WV?$string_output_adapter@_W@__crt_stdio_output@@@2@@__crt_stdio_output@@AEAA_NXZ 000000018007aa20 f i libucrtd:output.obj
 0001:00079c60       ?type_case_o@?$output_processor@DV?$stream_output_adapter@D@__crt_stdio_output@@V?$format_validation_base@DV?$stream_output_adapter@D@__crt_stdio_output@@@2@@__crt_stdio_output@@AEAA_NXZ 000000018007ac60 f i libucrtd:output.obj
 0001:00079cb0       ?type_case_o@?$output_processor@DV?$stream_output_adapter@D@__crt_stdio_output@@V?$positional_parameter_base@DV?$stream_output_adapter@D@__crt_stdio_output@@@2@@__crt_stdio_output@@AEAA_NXZ 000000018007acb0 f i libucrtd:output.obj
 0001:00079d00       ?type_case_o@?$output_processor@DV?$stream_output_adapter@D@__crt_stdio_output@@V?$standard_base@DV?$stream_output_adapter@D@__crt_stdio_output@@@2@@__crt_stdio_output@@AEAA_NXZ 000000018007ad00 f i libucrtd:output.obj
 0001:00079d50       ?type_case_o@?$output_processor@DV?$string_output_adapter@D@__crt_stdio_output@@V?$format_validation_base@DV?$string_output_adapter@D@__crt_stdio_output@@@2@@__crt_stdio_output@@AEAA_NXZ 000000018007ad50 f i libucrtd:output.obj
 0001:00079da0       ?type_case_o@?$output_processor@DV?$string_output_adapter@D@__crt_stdio_output@@V?$positional_parameter_base@DV?$string_output_adapter@D@__crt_stdio_output@@@2@@__crt_stdio_output@@AEAA_NXZ 000000018007ada0 f i libucrtd:output.obj
 0001:00079df0       ?type_case_o@?$output_processor@DV?$string_output_adapter@D@__crt_stdio_output@@V?$standard_base@DV?$string_output_adapter@D@__crt_stdio_output@@@2@@__crt_stdio_output@@AEAA_NXZ 000000018007adf0 f i libucrtd:output.obj
 0001:00079e40       ?type_case_o@?$output_processor@_WV?$stream_output_adapter@_W@__crt_stdio_output@@V?$format_validation_base@_WV?$stream_output_adapter@_W@__crt_stdio_output@@@2@@__crt_stdio_output@@AEAA_NXZ 000000018007ae40 f i libucrtd:output.obj
 0001:00079e90       ?type_case_o@?$output_processor@_WV?$stream_output_adapter@_W@__crt_stdio_output@@V?$positional_parameter_base@_WV?$stream_output_adapter@_W@__crt_stdio_output@@@2@@__crt_stdio_output@@AEAA_NXZ 000000018007ae90 f i libucrtd:output.obj
 0001:00079ee0       ?type_case_o@?$output_processor@_WV?$stream_output_adapter@_W@__crt_stdio_output@@V?$standard_base@_WV?$stream_output_adapter@_W@__crt_stdio_output@@@2@@__crt_stdio_output@@AEAA_NXZ 000000018007aee0 f i libucrtd:output.obj
 0001:00079f30       ?type_case_o@?$output_processor@_WV?$string_output_adapter@_W@__crt_stdio_output@@V?$format_validation_base@_WV?$string_output_adapter@_W@__crt_stdio_output@@@2@@__crt_stdio_output@@AEAA_NXZ 000000018007af30 f i libucrtd:output.obj
 0001:00079f80       ?type_case_o@?$output_processor@_WV?$string_output_adapter@_W@__crt_stdio_output@@V?$positional_parameter_base@_WV?$string_output_adapter@_W@__crt_stdio_output@@@2@@__crt_stdio_output@@AEAA_NXZ 000000018007af80 f i libucrtd:output.obj
 0001:00079fd0       ?type_case_o@?$output_processor@_WV?$string_output_adapter@_W@__crt_stdio_output@@V?$standard_base@_WV?$string_output_adapter@_W@__crt_stdio_output@@@2@@__crt_stdio_output@@AEAA_NXZ 000000018007afd0 f i libucrtd:output.obj
 0001:0007a020       ?type_case_p@?$output_processor@DV?$stream_output_adapter@D@__crt_stdio_output@@V?$format_validation_base@DV?$stream_output_adapter@D@__crt_stdio_output@@@2@@__crt_stdio_output@@AEAA_NXZ 000000018007b020 f i libucrtd:output.obj
 0001:0007a060       ?type_case_p@?$output_processor@DV?$stream_output_adapter@D@__crt_stdio_output@@V?$positional_parameter_base@DV?$stream_output_adapter@D@__crt_stdio_output@@@2@@__crt_stdio_output@@AEAA_NXZ 000000018007b060 f i libucrtd:output.obj
 0001:0007a0a0       ?type_case_p@?$output_processor@DV?$stream_output_adapter@D@__crt_stdio_output@@V?$standard_base@DV?$stream_output_adapter@D@__crt_stdio_output@@@2@@__crt_stdio_output@@AEAA_NXZ 000000018007b0a0 f i libucrtd:output.obj
 0001:0007a0e0       ?type_case_p@?$output_processor@DV?$string_output_adapter@D@__crt_stdio_output@@V?$format_validation_base@DV?$string_output_adapter@D@__crt_stdio_output@@@2@@__crt_stdio_output@@AEAA_NXZ 000000018007b0e0 f i libucrtd:output.obj
 0001:0007a120       ?type_case_p@?$output_processor@DV?$string_output_adapter@D@__crt_stdio_output@@V?$positional_parameter_base@DV?$string_output_adapter@D@__crt_stdio_output@@@2@@__crt_stdio_output@@AEAA_NXZ 000000018007b120 f i libucrtd:output.obj
 0001:0007a160       ?type_case_p@?$output_processor@DV?$string_output_adapter@D@__crt_stdio_output@@V?$standard_base@DV?$string_output_adapter@D@__crt_stdio_output@@@2@@__crt_stdio_output@@AEAA_NXZ 000000018007b160 f i libucrtd:output.obj
 0001:0007a1a0       ?type_case_p@?$output_processor@_WV?$stream_output_adapter@_W@__crt_stdio_output@@V?$format_validation_base@_WV?$stream_output_adapter@_W@__crt_stdio_output@@@2@@__crt_stdio_output@@AEAA_NXZ 000000018007b1a0 f i libucrtd:output.obj
 0001:0007a1e0       ?type_case_p@?$output_processor@_WV?$stream_output_adapter@_W@__crt_stdio_output@@V?$positional_parameter_base@_WV?$stream_output_adapter@_W@__crt_stdio_output@@@2@@__crt_stdio_output@@AEAA_NXZ 000000018007b1e0 f i libucrtd:output.obj
 0001:0007a220       ?type_case_p@?$output_processor@_WV?$stream_output_adapter@_W@__crt_stdio_output@@V?$standard_base@_WV?$stream_output_adapter@_W@__crt_stdio_output@@@2@@__crt_stdio_output@@AEAA_NXZ 000000018007b220 f i libucrtd:output.obj
 0001:0007a260       ?type_case_p@?$output_processor@_WV?$string_output_adapter@_W@__crt_stdio_output@@V?$format_validation_base@_WV?$string_output_adapter@_W@__crt_stdio_output@@@2@@__crt_stdio_output@@AEAA_NXZ 000000018007b260 f i libucrtd:output.obj
 0001:0007a2a0       ?type_case_p@?$output_processor@_WV?$string_output_adapter@_W@__crt_stdio_output@@V?$positional_parameter_base@_WV?$string_output_adapter@_W@__crt_stdio_output@@@2@@__crt_stdio_output@@AEAA_NXZ 000000018007b2a0 f i libucrtd:output.obj
 0001:0007a2e0       ?type_case_p@?$output_processor@_WV?$string_output_adapter@_W@__crt_stdio_output@@V?$standard_base@_WV?$string_output_adapter@_W@__crt_stdio_output@@@2@@__crt_stdio_output@@AEAA_NXZ 000000018007b2e0 f i libucrtd:output.obj
 0001:0007a320       ?type_case_s@?$output_processor@DV?$stream_output_adapter@D@__crt_stdio_output@@V?$format_validation_base@DV?$stream_output_adapter@D@__crt_stdio_output@@@2@@__crt_stdio_output@@AEAA_NXZ 000000018007b320 f i libucrtd:output.obj
 0001:0007a440       ?type_case_s@?$output_processor@DV?$stream_output_adapter@D@__crt_stdio_output@@V?$positional_parameter_base@DV?$stream_output_adapter@D@__crt_stdio_output@@@2@@__crt_stdio_output@@AEAA_NXZ 000000018007b440 f i libucrtd:output.obj
 0001:0007a560       ?type_case_s@?$output_processor@DV?$stream_output_adapter@D@__crt_stdio_output@@V?$standard_base@DV?$stream_output_adapter@D@__crt_stdio_output@@@2@@__crt_stdio_output@@AEAA_NXZ 000000018007b560 f i libucrtd:output.obj
 0001:0007a680       ?type_case_s@?$output_processor@DV?$string_output_adapter@D@__crt_stdio_output@@V?$format_validation_base@DV?$string_output_adapter@D@__crt_stdio_output@@@2@@__crt_stdio_output@@AEAA_NXZ 000000018007b680 f i libucrtd:output.obj
 0001:0007a7a0       ?type_case_s@?$output_processor@DV?$string_output_adapter@D@__crt_stdio_output@@V?$positional_parameter_base@DV?$string_output_adapter@D@__crt_stdio_output@@@2@@__crt_stdio_output@@AEAA_NXZ 000000018007b7a0 f i libucrtd:output.obj
 0001:0007a8c0       ?type_case_s@?$output_processor@DV?$string_output_adapter@D@__crt_stdio_output@@V?$standard_base@DV?$string_output_adapter@D@__crt_stdio_output@@@2@@__crt_stdio_output@@AEAA_NXZ 000000018007b8c0 f i libucrtd:output.obj
 0001:0007a9e0       ?type_case_s@?$output_processor@_WV?$stream_output_adapter@_W@__crt_stdio_output@@V?$format_validation_base@_WV?$stream_output_adapter@_W@__crt_stdio_output@@@2@@__crt_stdio_output@@AEAA_NXZ 000000018007b9e0 f i libucrtd:output.obj
 0001:0007ab00       ?type_case_s@?$output_processor@_WV?$stream_output_adapter@_W@__crt_stdio_output@@V?$positional_parameter_base@_WV?$stream_output_adapter@_W@__crt_stdio_output@@@2@@__crt_stdio_output@@AEAA_NXZ 000000018007bb00 f i libucrtd:output.obj
 0001:0007ac20       ?type_case_s@?$output_processor@_WV?$stream_output_adapter@_W@__crt_stdio_output@@V?$standard_base@_WV?$stream_output_adapter@_W@__crt_stdio_output@@@2@@__crt_stdio_output@@AEAA_NXZ 000000018007bc20 f i libucrtd:output.obj
 0001:0007ad40       ?type_case_s@?$output_processor@_WV?$string_output_adapter@_W@__crt_stdio_output@@V?$format_validation_base@_WV?$string_output_adapter@_W@__crt_stdio_output@@@2@@__crt_stdio_output@@AEAA_NXZ 000000018007bd40 f i libucrtd:output.obj
 0001:0007ae60       ?type_case_s@?$output_processor@_WV?$string_output_adapter@_W@__crt_stdio_output@@V?$positional_parameter_base@_WV?$string_output_adapter@_W@__crt_stdio_output@@@2@@__crt_stdio_output@@AEAA_NXZ 000000018007be60 f i libucrtd:output.obj
 0001:0007af80       ?type_case_s@?$output_processor@_WV?$string_output_adapter@_W@__crt_stdio_output@@V?$standard_base@_WV?$string_output_adapter@_W@__crt_stdio_output@@@2@@__crt_stdio_output@@AEAA_NXZ 000000018007bf80 f i libucrtd:output.obj
 0001:0007b0a0       ?type_case_s_compute_narrow_string_length@?$output_processor@DV?$stream_output_adapter@D@__crt_stdio_output@@V?$format_validation_base@DV?$stream_output_adapter@D@__crt_stdio_output@@@2@@__crt_stdio_output@@AEBAHHD@Z 000000018007c0a0 f i libucrtd:output.obj
 0001:0007b0d0       ?type_case_s_compute_narrow_string_length@?$output_processor@DV?$stream_output_adapter@D@__crt_stdio_output@@V?$positional_parameter_base@DV?$stream_output_adapter@D@__crt_stdio_output@@@2@@__crt_stdio_output@@AEBAHHD@Z 000000018007c0d0 f i libucrtd:output.obj
 0001:0007b100       ?type_case_s_compute_narrow_string_length@?$output_processor@DV?$stream_output_adapter@D@__crt_stdio_output@@V?$standard_base@DV?$stream_output_adapter@D@__crt_stdio_output@@@2@@__crt_stdio_output@@AEBAHHD@Z 000000018007c100 f i libucrtd:output.obj
 0001:0007b130       ?type_case_s_compute_narrow_string_length@?$output_processor@DV?$string_output_adapter@D@__crt_stdio_output@@V?$format_validation_base@DV?$string_output_adapter@D@__crt_stdio_output@@@2@@__crt_stdio_output@@AEBAHHD@Z 000000018007c130 f i libucrtd:output.obj
 0001:0007b160       ?type_case_s_compute_narrow_string_length@?$output_processor@DV?$string_output_adapter@D@__crt_stdio_output@@V?$positional_parameter_base@DV?$string_output_adapter@D@__crt_stdio_output@@@2@@__crt_stdio_output@@AEBAHHD@Z 000000018007c160 f i libucrtd:output.obj
 0001:0007b190       ?type_case_s_compute_narrow_string_length@?$output_processor@DV?$string_output_adapter@D@__crt_stdio_output@@V?$standard_base@DV?$string_output_adapter@D@__crt_stdio_output@@@2@@__crt_stdio_output@@AEBAHHD@Z 000000018007c190 f i libucrtd:output.obj
 0001:0007b1c0       ?type_case_s_compute_narrow_string_length@?$output_processor@_WV?$stream_output_adapter@_W@__crt_stdio_output@@V?$format_validation_base@_WV?$stream_output_adapter@_W@__crt_stdio_output@@@2@@__crt_stdio_output@@AEBAHH_W@Z 000000018007c1c0 f i libucrtd:output.obj
 0001:0007b250       ?type_case_s_compute_narrow_string_length@?$output_processor@_WV?$stream_output_adapter@_W@__crt_stdio_output@@V?$positional_parameter_base@_WV?$stream_output_adapter@_W@__crt_stdio_output@@@2@@__crt_stdio_output@@AEBAHH_W@Z 000000018007c250 f i libucrtd:output.obj
 0001:0007b2e0       ?type_case_s_compute_narrow_string_length@?$output_processor@_WV?$stream_output_adapter@_W@__crt_stdio_output@@V?$standard_base@_WV?$stream_output_adapter@_W@__crt_stdio_output@@@2@@__crt_stdio_output@@AEBAHH_W@Z 000000018007c2e0 f i libucrtd:output.obj
 0001:0007b370       ?type_case_s_compute_narrow_string_length@?$output_processor@_WV?$string_output_adapter@_W@__crt_stdio_output@@V?$format_validation_base@_WV?$string_output_adapter@_W@__crt_stdio_output@@@2@@__crt_stdio_output@@AEBAHH_W@Z 000000018007c370 f i libucrtd:output.obj
 0001:0007b400       ?type_case_s_compute_narrow_string_length@?$output_processor@_WV?$string_output_adapter@_W@__crt_stdio_output@@V?$positional_parameter_base@_WV?$string_output_adapter@_W@__crt_stdio_output@@@2@@__crt_stdio_output@@AEBAHH_W@Z 000000018007c400 f i libucrtd:output.obj
 0001:0007b490       ?type_case_s_compute_narrow_string_length@?$output_processor@_WV?$string_output_adapter@_W@__crt_stdio_output@@V?$standard_base@_WV?$string_output_adapter@_W@__crt_stdio_output@@@2@@__crt_stdio_output@@AEBAHH_W@Z 000000018007c490 f i libucrtd:output.obj
 0001:0007b520       ?type_case_u@?$output_processor@DV?$stream_output_adapter@D@__crt_stdio_output@@V?$format_validation_base@DV?$stream_output_adapter@D@__crt_stdio_output@@@2@@__crt_stdio_output@@AEAA_NXZ 000000018007c520 f i libucrtd:output.obj
 0001:0007b540       ?type_case_u@?$output_processor@DV?$stream_output_adapter@D@__crt_stdio_output@@V?$positional_parameter_base@DV?$stream_output_adapter@D@__crt_stdio_output@@@2@@__crt_stdio_output@@AEAA_NXZ 000000018007c540 f i libucrtd:output.obj
 0001:0007b560       ?type_case_u@?$output_processor@DV?$stream_output_adapter@D@__crt_stdio_output@@V?$standard_base@DV?$stream_output_adapter@D@__crt_stdio_output@@@2@@__crt_stdio_output@@AEAA_NXZ 000000018007c560 f i libucrtd:output.obj
 0001:0007b580       ?type_case_u@?$output_processor@DV?$string_output_adapter@D@__crt_stdio_output@@V?$format_validation_base@DV?$string_output_adapter@D@__crt_stdio_output@@@2@@__crt_stdio_output@@AEAA_NXZ 000000018007c580 f i libucrtd:output.obj
 0001:0007b5a0       ?type_case_u@?$output_processor@DV?$string_output_adapter@D@__crt_stdio_output@@V?$positional_parameter_base@DV?$string_output_adapter@D@__crt_stdio_output@@@2@@__crt_stdio_output@@AEAA_NXZ 000000018007c5a0 f i libucrtd:output.obj
 0001:0007b5c0       ?type_case_u@?$output_processor@DV?$string_output_adapter@D@__crt_stdio_output@@V?$standard_base@DV?$string_output_adapter@D@__crt_stdio_output@@@2@@__crt_stdio_output@@AEAA_NXZ 000000018007c5c0 f i libucrtd:output.obj
 0001:0007b5e0       ?type_case_u@?$output_processor@_WV?$stream_output_adapter@_W@__crt_stdio_output@@V?$format_validation_base@_WV?$stream_output_adapter@_W@__crt_stdio_output@@@2@@__crt_stdio_output@@AEAA_NXZ 000000018007c5e0 f i libucrtd:output.obj
 0001:0007b600       ?type_case_u@?$output_processor@_WV?$stream_output_adapter@_W@__crt_stdio_output@@V?$positional_parameter_base@_WV?$stream_output_adapter@_W@__crt_stdio_output@@@2@@__crt_stdio_output@@AEAA_NXZ 000000018007c600 f i libucrtd:output.obj
 0001:0007b620       ?type_case_u@?$output_processor@_WV?$stream_output_adapter@_W@__crt_stdio_output@@V?$standard_base@_WV?$stream_output_adapter@_W@__crt_stdio_output@@@2@@__crt_stdio_output@@AEAA_NXZ 000000018007c620 f i libucrtd:output.obj
 0001:0007b640       ?type_case_u@?$output_processor@_WV?$string_output_adapter@_W@__crt_stdio_output@@V?$format_validation_base@_WV?$string_output_adapter@_W@__crt_stdio_output@@@2@@__crt_stdio_output@@AEAA_NXZ 000000018007c640 f i libucrtd:output.obj
 0001:0007b660       ?type_case_u@?$output_processor@_WV?$string_output_adapter@_W@__crt_stdio_output@@V?$positional_parameter_base@_WV?$string_output_adapter@_W@__crt_stdio_output@@@2@@__crt_stdio_output@@AEAA_NXZ 000000018007c660 f i libucrtd:output.obj
 0001:0007b680       ?type_case_u@?$output_processor@_WV?$string_output_adapter@_W@__crt_stdio_output@@V?$standard_base@_WV?$string_output_adapter@_W@__crt_stdio_output@@@2@@__crt_stdio_output@@AEAA_NXZ 000000018007c680 f i libucrtd:output.obj
 0001:0007b6a0       ?type_case_x@?$output_processor@DV?$stream_output_adapter@D@__crt_stdio_output@@V?$format_validation_base@DV?$stream_output_adapter@D@__crt_stdio_output@@@2@@__crt_stdio_output@@AEAA_NXZ 000000018007c6a0 f i libucrtd:output.obj
 0001:0007b6c0       ?type_case_x@?$output_processor@DV?$stream_output_adapter@D@__crt_stdio_output@@V?$positional_parameter_base@DV?$stream_output_adapter@D@__crt_stdio_output@@@2@@__crt_stdio_output@@AEAA_NXZ 000000018007c6c0 f i libucrtd:output.obj
 0001:0007b6e0       ?type_case_x@?$output_processor@DV?$stream_output_adapter@D@__crt_stdio_output@@V?$standard_base@DV?$stream_output_adapter@D@__crt_stdio_output@@@2@@__crt_stdio_output@@AEAA_NXZ 000000018007c6e0 f i libucrtd:output.obj
 0001:0007b700       ?type_case_x@?$output_processor@DV?$string_output_adapter@D@__crt_stdio_output@@V?$format_validation_base@DV?$string_output_adapter@D@__crt_stdio_output@@@2@@__crt_stdio_output@@AEAA_NXZ 000000018007c700 f i libucrtd:output.obj
 0001:0007b720       ?type_case_x@?$output_processor@DV?$string_output_adapter@D@__crt_stdio_output@@V?$positional_parameter_base@DV?$string_output_adapter@D@__crt_stdio_output@@@2@@__crt_stdio_output@@AEAA_NXZ 000000018007c720 f i libucrtd:output.obj
 0001:0007b740       ?type_case_x@?$output_processor@DV?$string_output_adapter@D@__crt_stdio_output@@V?$standard_base@DV?$string_output_adapter@D@__crt_stdio_output@@@2@@__crt_stdio_output@@AEAA_NXZ 000000018007c740 f i libucrtd:output.obj
 0001:0007b760       ?type_case_x@?$output_processor@_WV?$stream_output_adapter@_W@__crt_stdio_output@@V?$format_validation_base@_WV?$stream_output_adapter@_W@__crt_stdio_output@@@2@@__crt_stdio_output@@AEAA_NXZ 000000018007c760 f i libucrtd:output.obj
 0001:0007b780       ?type_case_x@?$output_processor@_WV?$stream_output_adapter@_W@__crt_stdio_output@@V?$positional_parameter_base@_WV?$stream_output_adapter@_W@__crt_stdio_output@@@2@@__crt_stdio_output@@AEAA_NXZ 000000018007c780 f i libucrtd:output.obj
 0001:0007b7a0       ?type_case_x@?$output_processor@_WV?$stream_output_adapter@_W@__crt_stdio_output@@V?$standard_base@_WV?$stream_output_adapter@_W@__crt_stdio_output@@@2@@__crt_stdio_output@@AEAA_NXZ 000000018007c7a0 f i libucrtd:output.obj
 0001:0007b7c0       ?type_case_x@?$output_processor@_WV?$string_output_adapter@_W@__crt_stdio_output@@V?$format_validation_base@_WV?$string_output_adapter@_W@__crt_stdio_output@@@2@@__crt_stdio_output@@AEAA_NXZ 000000018007c7c0 f i libucrtd:output.obj
 0001:0007b7e0       ?type_case_x@?$output_processor@_WV?$string_output_adapter@_W@__crt_stdio_output@@V?$positional_parameter_base@_WV?$string_output_adapter@_W@__crt_stdio_output@@@2@@__crt_stdio_output@@AEAA_NXZ 000000018007c7e0 f i libucrtd:output.obj
 0001:0007b800       ?type_case_x@?$output_processor@_WV?$string_output_adapter@_W@__crt_stdio_output@@V?$standard_base@_WV?$string_output_adapter@_W@__crt_stdio_output@@@2@@__crt_stdio_output@@AEAA_NXZ 000000018007c800 f i libucrtd:output.obj
 0001:0007b820       ?unset_flag@?$output_processor@DV?$stream_output_adapter@D@__crt_stdio_output@@V?$format_validation_base@DV?$stream_output_adapter@D@__crt_stdio_output@@@2@@__crt_stdio_output@@AEAAXI@Z 000000018007c820 f i libucrtd:output.obj
 0001:0007b850       ?unset_flag@?$output_processor@DV?$stream_output_adapter@D@__crt_stdio_output@@V?$positional_parameter_base@DV?$stream_output_adapter@D@__crt_stdio_output@@@2@@__crt_stdio_output@@AEAAXI@Z 000000018007c850 f i libucrtd:output.obj
 0001:0007b880       ?unset_flag@?$output_processor@DV?$stream_output_adapter@D@__crt_stdio_output@@V?$standard_base@DV?$stream_output_adapter@D@__crt_stdio_output@@@2@@__crt_stdio_output@@AEAAXI@Z 000000018007c880 f i libucrtd:output.obj
 0001:0007b8b0       ?unset_flag@?$output_processor@DV?$string_output_adapter@D@__crt_stdio_output@@V?$format_validation_base@DV?$string_output_adapter@D@__crt_stdio_output@@@2@@__crt_stdio_output@@AEAAXI@Z 000000018007c8b0 f i libucrtd:output.obj
 0001:0007b8e0       ?unset_flag@?$output_processor@DV?$string_output_adapter@D@__crt_stdio_output@@V?$positional_parameter_base@DV?$string_output_adapter@D@__crt_stdio_output@@@2@@__crt_stdio_output@@AEAAXI@Z 000000018007c8e0 f i libucrtd:output.obj
 0001:0007b910       ?unset_flag@?$output_processor@DV?$string_output_adapter@D@__crt_stdio_output@@V?$standard_base@DV?$string_output_adapter@D@__crt_stdio_output@@@2@@__crt_stdio_output@@AEAAXI@Z 000000018007c910 f i libucrtd:output.obj
 0001:0007b940       ?unset_flag@?$output_processor@_WV?$stream_output_adapter@_W@__crt_stdio_output@@V?$format_validation_base@_WV?$stream_output_adapter@_W@__crt_stdio_output@@@2@@__crt_stdio_output@@AEAAXI@Z 000000018007c940 f i libucrtd:output.obj
 0001:0007b970       ?unset_flag@?$output_processor@_WV?$stream_output_adapter@_W@__crt_stdio_output@@V?$positional_parameter_base@_WV?$stream_output_adapter@_W@__crt_stdio_output@@@2@@__crt_stdio_output@@AEAAXI@Z 000000018007c970 f i libucrtd:output.obj
 0001:0007b9a0       ?unset_flag@?$output_processor@_WV?$stream_output_adapter@_W@__crt_stdio_output@@V?$standard_base@_WV?$stream_output_adapter@_W@__crt_stdio_output@@@2@@__crt_stdio_output@@AEAAXI@Z 000000018007c9a0 f i libucrtd:output.obj
 0001:0007b9d0       ?unset_flag@?$output_processor@_WV?$string_output_adapter@_W@__crt_stdio_output@@V?$format_validation_base@_WV?$string_output_adapter@_W@__crt_stdio_output@@@2@@__crt_stdio_output@@AEAAXI@Z 000000018007c9d0 f i libucrtd:output.obj
 0001:0007ba00       ?unset_flag@?$output_processor@_WV?$string_output_adapter@_W@__crt_stdio_output@@V?$positional_parameter_base@_WV?$string_output_adapter@_W@__crt_stdio_output@@@2@@__crt_stdio_output@@AEAAXI@Z 000000018007ca00 f i libucrtd:output.obj
 0001:0007ba30       ?unset_flag@?$output_processor@_WV?$string_output_adapter@_W@__crt_stdio_output@@V?$standard_base@_WV?$string_output_adapter@_W@__crt_stdio_output@@@2@@__crt_stdio_output@@AEAAXI@Z 000000018007ca30 f i libucrtd:output.obj
 0001:0007ba60       ?update_field_width@?$positional_parameter_base@DV?$stream_output_adapter@D@__crt_stdio_output@@@__crt_stdio_output@@IEAA_NXZ 000000018007ca60 f i libucrtd:output.obj
 0001:0007bc50       ?update_field_width@?$positional_parameter_base@DV?$string_output_adapter@D@__crt_stdio_output@@@__crt_stdio_output@@IEAA_NXZ 000000018007cc50 f i libucrtd:output.obj
 0001:0007be40       ?update_field_width@?$positional_parameter_base@_WV?$stream_output_adapter@_W@__crt_stdio_output@@@__crt_stdio_output@@IEAA_NXZ 000000018007ce40 f i libucrtd:output.obj
 0001:0007c030       ?update_field_width@?$positional_parameter_base@_WV?$string_output_adapter@_W@__crt_stdio_output@@@__crt_stdio_output@@IEAA_NXZ 000000018007d030 f i libucrtd:output.obj
 0001:0007c220       ?update_field_width@?$standard_base@DV?$stream_output_adapter@D@__crt_stdio_output@@@__crt_stdio_output@@IEAA_NXZ 000000018007d220 f i libucrtd:output.obj
 0001:0007c250       ?update_field_width@?$standard_base@DV?$string_output_adapter@D@__crt_stdio_output@@@__crt_stdio_output@@IEAA_NXZ 000000018007d250 f i libucrtd:output.obj
 0001:0007c280       ?update_field_width@?$standard_base@_WV?$stream_output_adapter@_W@__crt_stdio_output@@@__crt_stdio_output@@IEAA_NXZ 000000018007d280 f i libucrtd:output.obj
 0001:0007c2b0       ?update_field_width@?$standard_base@_WV?$string_output_adapter@_W@__crt_stdio_output@@@__crt_stdio_output@@IEAA_NXZ 000000018007d2b0 f i libucrtd:output.obj
 0001:0007c2e0       ?update_precision@?$positional_parameter_base@DV?$stream_output_adapter@D@__crt_stdio_output@@@__crt_stdio_output@@IEAA_NXZ 000000018007d2e0 f i libucrtd:output.obj
 0001:0007c4d0       ?update_precision@?$positional_parameter_base@DV?$string_output_adapter@D@__crt_stdio_output@@@__crt_stdio_output@@IEAA_NXZ 000000018007d4d0 f i libucrtd:output.obj
 0001:0007c6c0       ?update_precision@?$positional_parameter_base@_WV?$stream_output_adapter@_W@__crt_stdio_output@@@__crt_stdio_output@@IEAA_NXZ 000000018007d6c0 f i libucrtd:output.obj
 0001:0007c8b0       ?update_precision@?$positional_parameter_base@_WV?$string_output_adapter@_W@__crt_stdio_output@@@__crt_stdio_output@@IEAA_NXZ 000000018007d8b0 f i libucrtd:output.obj
 0001:0007caa0       ?update_precision@?$standard_base@DV?$stream_output_adapter@D@__crt_stdio_output@@@__crt_stdio_output@@IEAA_NXZ 000000018007daa0 f i libucrtd:output.obj
 0001:0007cad0       ?update_precision@?$standard_base@DV?$string_output_adapter@D@__crt_stdio_output@@@__crt_stdio_output@@IEAA_NXZ 000000018007dad0 f i libucrtd:output.obj
 0001:0007cb00       ?update_precision@?$standard_base@_WV?$stream_output_adapter@_W@__crt_stdio_output@@@__crt_stdio_output@@IEAA_NXZ 000000018007db00 f i libucrtd:output.obj
 0001:0007cb30       ?update_precision@?$standard_base@_WV?$string_output_adapter@_W@__crt_stdio_output@@@__crt_stdio_output@@IEAA_NXZ 000000018007db30 f i libucrtd:output.obj
 0001:0007cb60       ?valid@__crt_stdio_stream@@QEBA_NXZ 000000018007db60 f i libucrtd:output.obj
 0001:0007cb90       ?validate@?$stream_output_adapter@D@__crt_stdio_output@@QEBA_NXZ 000000018007db90 f i libucrtd:output.obj
 0001:0007cc70       ?validate@?$stream_output_adapter@_W@__crt_stdio_output@@QEBA_NXZ 000000018007dc70 f i libucrtd:output.obj
 0001:0007cd50       ?validate@?$string_output_adapter@D@__crt_stdio_output@@QEBA_NXZ 000000018007dd50 f i libucrtd:output.obj
 0001:0007ce10       ?validate@?$string_output_adapter@_W@__crt_stdio_output@@QEBA_NXZ 000000018007de10 f i libucrtd:output.obj
 0001:0007ced0       ?validate_and_store_parameter_data@?$positional_parameter_base@DV?$stream_output_adapter@D@__crt_stdio_output@@@__crt_stdio_output@@AEAA_NAEAUparameter_data@12@W4parameter_type@12@DW4length_modifier@2@@Z 000000018007ded0 f i libucrtd:output.obj
 0001:0007cff0       ?validate_and_store_parameter_data@?$positional_parameter_base@DV?$string_output_adapter@D@__crt_stdio_output@@@__crt_stdio_output@@AEAA_NAEAUparameter_data@12@W4parameter_type@12@DW4length_modifier@2@@Z 000000018007dff0 f i libucrtd:output.obj
 0001:0007d110       ?validate_and_store_parameter_data@?$positional_parameter_base@_WV?$stream_output_adapter@_W@__crt_stdio_output@@@__crt_stdio_output@@AEAA_NAEAUparameter_data@12@W4parameter_type@12@_WW4length_modifier@2@@Z 000000018007e110 f i libucrtd:output.obj
 0001:0007d230       ?validate_and_store_parameter_data@?$positional_parameter_base@_WV?$string_output_adapter@_W@__crt_stdio_output@@@__crt_stdio_output@@AEAA_NAEAUparameter_data@12@W4parameter_type@12@_WW4length_modifier@2@@Z 000000018007e230 f i libucrtd:output.obj
 0001:0007d350       ?validate_and_update_state_at_beginning_of_format_character@?$positional_parameter_base@DV?$stream_output_adapter@D@__crt_stdio_output@@@__crt_stdio_output@@IEAA_NXZ 000000018007e350 f i libucrtd:output.obj
 0001:0007d630       ?validate_and_update_state_at_beginning_of_format_character@?$positional_parameter_base@DV?$string_output_adapter@D@__crt_stdio_output@@@__crt_stdio_output@@IEAA_NXZ 000000018007e630 f i libucrtd:output.obj
 0001:0007d910       ?validate_and_update_state_at_beginning_of_format_character@?$positional_parameter_base@_WV?$stream_output_adapter@_W@__crt_stdio_output@@@__crt_stdio_output@@IEAA_NXZ 000000018007e910 f i libucrtd:output.obj
 0001:0007dbf0       ?validate_and_update_state_at_beginning_of_format_character@?$positional_parameter_base@_WV?$string_output_adapter@_W@__crt_stdio_output@@@__crt_stdio_output@@IEAA_NXZ 000000018007ebf0 f i libucrtd:output.obj
 0001:0007ded0       ?validate_and_update_state_at_beginning_of_format_character@?$standard_base@DV?$stream_output_adapter@D@__crt_stdio_output@@@__crt_stdio_output@@IEAA_NXZ 000000018007eed0 f i libucrtd:output.obj
 0001:0007dee0       ?validate_and_update_state_at_beginning_of_format_character@?$standard_base@DV?$string_output_adapter@D@__crt_stdio_output@@@__crt_stdio_output@@IEAA_NXZ 000000018007eee0 f i libucrtd:output.obj
 0001:0007def0       ?validate_and_update_state_at_beginning_of_format_character@?$standard_base@_WV?$stream_output_adapter@_W@__crt_stdio_output@@@__crt_stdio_output@@IEAA_NXZ 000000018007eef0 f i libucrtd:output.obj
 0001:0007df00       ?validate_and_update_state_at_beginning_of_format_character@?$standard_base@_WV?$string_output_adapter@_W@__crt_stdio_output@@@__crt_stdio_output@@IEAA_NXZ 000000018007ef00 f i libucrtd:output.obj
 0001:0007df10       ?validate_and_update_state_at_end_of_format_string@?$format_validation_base@DV?$stream_output_adapter@D@__crt_stdio_output@@@__crt_stdio_output@@IEBA_NXZ 000000018007ef10 f i libucrtd:output.obj
 0001:0007dfd0       ?validate_and_update_state_at_end_of_format_string@?$format_validation_base@DV?$string_output_adapter@D@__crt_stdio_output@@@__crt_stdio_output@@IEBA_NXZ 000000018007efd0 f i libucrtd:output.obj
 0001:0007e090       ?validate_and_update_state_at_end_of_format_string@?$format_validation_base@_WV?$stream_output_adapter@_W@__crt_stdio_output@@@__crt_stdio_output@@IEBA_NXZ 000000018007f090 f i libucrtd:output.obj
 0001:0007e150       ?validate_and_update_state_at_end_of_format_string@?$format_validation_base@_WV?$string_output_adapter@_W@__crt_stdio_output@@@__crt_stdio_output@@IEBA_NXZ 000000018007f150 f i libucrtd:output.obj
 0001:0007e210       ?validate_and_update_state_at_end_of_format_string@?$positional_parameter_base@DV?$stream_output_adapter@D@__crt_stdio_output@@@__crt_stdio_output@@IEAA_NXZ 000000018007f210 f i libucrtd:output.obj
 0001:0007e400       ?validate_and_update_state_at_end_of_format_string@?$positional_parameter_base@DV?$string_output_adapter@D@__crt_stdio_output@@@__crt_stdio_output@@IEAA_NXZ 000000018007f400 f i libucrtd:output.obj
 0001:0007e5f0       ?validate_and_update_state_at_end_of_format_string@?$positional_parameter_base@_WV?$stream_output_adapter@_W@__crt_stdio_output@@@__crt_stdio_output@@IEAA_NXZ 000000018007f5f0 f i libucrtd:output.obj
 0001:0007e7e0       ?validate_and_update_state_at_end_of_format_string@?$positional_parameter_base@_WV?$string_output_adapter@_W@__crt_stdio_output@@@__crt_stdio_output@@IEAA_NXZ 000000018007f7e0 f i libucrtd:output.obj
 0001:0007e9d0       ?validate_and_update_state_at_end_of_format_string@?$standard_base@DV?$stream_output_adapter@D@__crt_stdio_output@@@__crt_stdio_output@@IEBA_NXZ 000000018007f9d0 f i libucrtd:output.obj
 0001:0007e9e0       ?validate_and_update_state_at_end_of_format_string@?$standard_base@DV?$string_output_adapter@D@__crt_stdio_output@@@__crt_stdio_output@@IEBA_NXZ 000000018007f9e0 f i libucrtd:output.obj
 0001:0007e9f0       ?validate_and_update_state_at_end_of_format_string@?$standard_base@_WV?$stream_output_adapter@_W@__crt_stdio_output@@@__crt_stdio_output@@IEBA_NXZ 000000018007f9f0 f i libucrtd:output.obj
 0001:0007ea00       ?validate_and_update_state_at_end_of_format_string@?$standard_base@_WV?$string_output_adapter@_W@__crt_stdio_output@@@__crt_stdio_output@@IEBA_NXZ 000000018007fa00 f i libucrtd:output.obj
 0001:0007ea10       ?validate_state_for_type_case_a@?$positional_parameter_base@DV?$stream_output_adapter@D@__crt_stdio_output@@@__crt_stdio_output@@IEAA_NXZ 000000018007fa10 f i libucrtd:output.obj
 0001:0007eb50       ?validate_state_for_type_case_a@?$positional_parameter_base@DV?$string_output_adapter@D@__crt_stdio_output@@@__crt_stdio_output@@IEAA_NXZ 000000018007fb50 f i libucrtd:output.obj
 0001:0007ec90       ?validate_state_for_type_case_a@?$positional_parameter_base@_WV?$stream_output_adapter@_W@__crt_stdio_output@@@__crt_stdio_output@@IEAA_NXZ 000000018007fc90 f i libucrtd:output.obj
 0001:0007edd0       ?validate_state_for_type_case_a@?$positional_parameter_base@_WV?$string_output_adapter@_W@__crt_stdio_output@@@__crt_stdio_output@@IEAA_NXZ 000000018007fdd0 f i libucrtd:output.obj
 0001:0007ef10       ?validate_state_for_type_case_a@?$standard_base@DV?$stream_output_adapter@D@__crt_stdio_output@@@__crt_stdio_output@@IEBA_NXZ 000000018007ff10 f i libucrtd:output.obj
 0001:0007ef20       ?validate_state_for_type_case_a@?$standard_base@DV?$string_output_adapter@D@__crt_stdio_output@@@__crt_stdio_output@@IEBA_NXZ 000000018007ff20 f i libucrtd:output.obj
 0001:0007ef30       ?validate_state_for_type_case_a@?$standard_base@_WV?$stream_output_adapter@_W@__crt_stdio_output@@@__crt_stdio_output@@IEBA_NXZ 000000018007ff30 f i libucrtd:output.obj
 0001:0007ef40       ?validate_state_for_type_case_a@?$standard_base@_WV?$string_output_adapter@_W@__crt_stdio_output@@@__crt_stdio_output@@IEBA_NXZ 000000018007ff40 f i libucrtd:output.obj
 0001:0007ef50       ?validate_stream_is_ansi_if_required@?$__acrt_stdio_char_traits@D@@SA_NQEAU_iobuf@@@Z 000000018007ff50 f i libucrtd:output.obj
 0001:0007f0e0       ?validate_stream_is_ansi_if_required@?$__acrt_stdio_char_traits@_W@@SA_NQEAU_iobuf@@@Z 00000001800800e0 f i libucrtd:output.obj
 0001:0007f0f0       ?wide_null_string@?$output_processor@DV?$stream_output_adapter@D@__crt_stdio_output@@V?$format_validation_base@DV?$stream_output_adapter@D@__crt_stdio_output@@@2@@__crt_stdio_output@@CAPEA_WXZ 00000001800800f0 f i libucrtd:output.obj
 0001:0007f100       ?wide_null_string@?$output_processor@DV?$stream_output_adapter@D@__crt_stdio_output@@V?$positional_parameter_base@DV?$stream_output_adapter@D@__crt_stdio_output@@@2@@__crt_stdio_output@@CAPEA_WXZ 0000000180080100 f i libucrtd:output.obj
 0001:0007f110       ?wide_null_string@?$output_processor@DV?$stream_output_adapter@D@__crt_stdio_output@@V?$standard_base@DV?$stream_output_adapter@D@__crt_stdio_output@@@2@@__crt_stdio_output@@CAPEA_WXZ 0000000180080110 f i libucrtd:output.obj
 0001:0007f120       ?wide_null_string@?$output_processor@DV?$string_output_adapter@D@__crt_stdio_output@@V?$format_validation_base@DV?$string_output_adapter@D@__crt_stdio_output@@@2@@__crt_stdio_output@@CAPEA_WXZ 0000000180080120 f i libucrtd:output.obj
 0001:0007f130       ?wide_null_string@?$output_processor@DV?$string_output_adapter@D@__crt_stdio_output@@V?$positional_parameter_base@DV?$string_output_adapter@D@__crt_stdio_output@@@2@@__crt_stdio_output@@CAPEA_WXZ 0000000180080130 f i libucrtd:output.obj
 0001:0007f140       ?wide_null_string@?$output_processor@DV?$string_output_adapter@D@__crt_stdio_output@@V?$standard_base@DV?$string_output_adapter@D@__crt_stdio_output@@@2@@__crt_stdio_output@@CAPEA_WXZ 0000000180080140 f i libucrtd:output.obj
 0001:0007f150       ?wide_null_string@?$output_processor@_WV?$stream_output_adapter@_W@__crt_stdio_output@@V?$format_validation_base@_WV?$stream_output_adapter@_W@__crt_stdio_output@@@2@@__crt_stdio_output@@CAPEA_WXZ 0000000180080150 f i libucrtd:output.obj
 0001:0007f160       ?wide_null_string@?$output_processor@_WV?$stream_output_adapter@_W@__crt_stdio_output@@V?$positional_parameter_base@_WV?$stream_output_adapter@_W@__crt_stdio_output@@@2@@__crt_stdio_output@@CAPEA_WXZ 0000000180080160 f i libucrtd:output.obj
 0001:0007f170       ?wide_null_string@?$output_processor@_WV?$stream_output_adapter@_W@__crt_stdio_output@@V?$standard_base@_WV?$stream_output_adapter@_W@__crt_stdio_output@@@2@@__crt_stdio_output@@CAPEA_WXZ 0000000180080170 f i libucrtd:output.obj
 0001:0007f180       ?wide_null_string@?$output_processor@_WV?$string_output_adapter@_W@__crt_stdio_output@@V?$format_validation_base@_WV?$string_output_adapter@_W@__crt_stdio_output@@@2@@__crt_stdio_output@@CAPEA_WXZ 0000000180080180 f i libucrtd:output.obj
 0001:0007f190       ?wide_null_string@?$output_processor@_WV?$string_output_adapter@_W@__crt_stdio_output@@V?$positional_parameter_base@_WV?$string_output_adapter@_W@__crt_stdio_output@@@2@@__crt_stdio_output@@CAPEA_WXZ 0000000180080190 f i libucrtd:output.obj
 0001:0007f1a0       ?wide_null_string@?$output_processor@_WV?$string_output_adapter@_W@__crt_stdio_output@@V?$standard_base@_WV?$string_output_adapter@_W@__crt_stdio_output@@@2@@__crt_stdio_output@@CAPEA_WXZ 00000001800801a0 f i libucrtd:output.obj
 0001:0007f1b0       ?write_character@?$output_adapter_common@DV?$stream_output_adapter@D@__crt_stdio_output@@@__crt_stdio_output@@QEBAXDQEAH@Z 00000001800801b0 f i libucrtd:output.obj
 0001:0007f200       ?write_character@?$output_adapter_common@_WV?$stream_output_adapter@_W@__crt_stdio_output@@@__crt_stdio_output@@QEBAX_WQEAH@Z 0000000180080200 f i libucrtd:output.obj
 0001:0007f250       ?write_character@?$string_output_adapter@D@__crt_stdio_output@@QEBA_NDQEAH@Z 0000000180080250 f i libucrtd:output.obj
 0001:0007f310       ?write_character@?$string_output_adapter@_W@__crt_stdio_output@@QEBA_N_WQEAH@Z 0000000180080310 f i libucrtd:output.obj
 0001:0007f3d0       ?write_character_without_count_update@?$stream_output_adapter@D@__crt_stdio_output@@QEBA_ND@Z 00000001800803d0 f i libucrtd:output.obj
 0001:0007f450       ?write_character_without_count_update@?$stream_output_adapter@_W@__crt_stdio_output@@QEBA_N_W@Z 0000000180080450 f i libucrtd:output.obj
 0001:0007f4e0       ?write_stored_string_tchar@?$output_processor@DV?$stream_output_adapter@D@__crt_stdio_output@@V?$format_validation_base@DV?$stream_output_adapter@D@__crt_stdio_output@@@2@@__crt_stdio_output@@AEAA_ND@Z 00000001800804e0 f i libucrtd:output.obj
 0001:0007f690       ?write_stored_string_tchar@?$output_processor@DV?$stream_output_adapter@D@__crt_stdio_output@@V?$positional_parameter_base@DV?$stream_output_adapter@D@__crt_stdio_output@@@2@@__crt_stdio_output@@AEAA_ND@Z 0000000180080690 f i libucrtd:output.obj
 0001:0007f840       ?write_stored_string_tchar@?$output_processor@DV?$stream_output_adapter@D@__crt_stdio_output@@V?$standard_base@DV?$stream_output_adapter@D@__crt_stdio_output@@@2@@__crt_stdio_output@@AEAA_ND@Z 0000000180080840 f i libucrtd:output.obj
 0001:0007f9f0       ?write_stored_string_tchar@?$output_processor@DV?$string_output_adapter@D@__crt_stdio_output@@V?$format_validation_base@DV?$string_output_adapter@D@__crt_stdio_output@@@2@@__crt_stdio_output@@AEAA_ND@Z 00000001800809f0 f i libucrtd:output.obj
 0001:0007fba0       ?write_stored_string_tchar@?$output_processor@DV?$string_output_adapter@D@__crt_stdio_output@@V?$positional_parameter_base@DV?$string_output_adapter@D@__crt_stdio_output@@@2@@__crt_stdio_output@@AEAA_ND@Z 0000000180080ba0 f i libucrtd:output.obj
 0001:0007fd50       ?write_stored_string_tchar@?$output_processor@DV?$string_output_adapter@D@__crt_stdio_output@@V?$standard_base@DV?$string_output_adapter@D@__crt_stdio_output@@@2@@__crt_stdio_output@@AEAA_ND@Z 0000000180080d50 f i libucrtd:output.obj
 0001:0007ff00       ?write_stored_string_tchar@?$output_processor@_WV?$stream_output_adapter@_W@__crt_stdio_output@@V?$format_validation_base@_WV?$stream_output_adapter@_W@__crt_stdio_output@@@2@@__crt_stdio_output@@AEAA_N_W@Z 0000000180080f00 f i libucrtd:output.obj
 0001:00080050       ?write_stored_string_tchar@?$output_processor@_WV?$stream_output_adapter@_W@__crt_stdio_output@@V?$positional_parameter_base@_WV?$stream_output_adapter@_W@__crt_stdio_output@@@2@@__crt_stdio_output@@AEAA_N_W@Z 0000000180081050 f i libucrtd:output.obj
 0001:000801a0       ?write_stored_string_tchar@?$output_processor@_WV?$stream_output_adapter@_W@__crt_stdio_output@@V?$standard_base@_WV?$stream_output_adapter@_W@__crt_stdio_output@@@2@@__crt_stdio_output@@AEAA_N_W@Z 00000001800811a0 f i libucrtd:output.obj
 0001:000802f0       ?write_stored_string_tchar@?$output_processor@_WV?$string_output_adapter@_W@__crt_stdio_output@@V?$format_validation_base@_WV?$string_output_adapter@_W@__crt_stdio_output@@@2@@__crt_stdio_output@@AEAA_N_W@Z 00000001800812f0 f i libucrtd:output.obj
 0001:00080440       ?write_stored_string_tchar@?$output_processor@_WV?$string_output_adapter@_W@__crt_stdio_output@@V?$positional_parameter_base@_WV?$string_output_adapter@_W@__crt_stdio_output@@@2@@__crt_stdio_output@@AEAA_N_W@Z 0000000180081440 f i libucrtd:output.obj
 0001:00080590       ?write_stored_string_tchar@?$output_processor@_WV?$string_output_adapter@_W@__crt_stdio_output@@V?$standard_base@_WV?$string_output_adapter@_W@__crt_stdio_output@@@2@@__crt_stdio_output@@AEAA_N_W@Z 0000000180081590 f i libucrtd:output.obj
 0001:000806e0       ?write_string@?$stream_output_adapter@D@__crt_stdio_output@@QEBAXQEBDHQEAHAEAV__crt_deferred_errno_cache@@@Z 00000001800816e0 f i libucrtd:output.obj
 0001:00080760       ?write_string@?$stream_output_adapter@_W@__crt_stdio_output@@QEBAXQEB_WHQEAHAEAV__crt_deferred_errno_cache@@@Z 0000000180081760 f i libucrtd:output.obj
 0001:000807e0       ?write_string@?$string_output_adapter@D@__crt_stdio_output@@QEBAXQEBDHQEAHAEAV__crt_deferred_errno_cache@@@Z 00000001800817e0 f i libucrtd:output.obj
 0001:00080950       ?write_string@?$string_output_adapter@_W@__crt_stdio_output@@QEBAXQEB_WHQEAHAEAV__crt_deferred_errno_cache@@@Z 0000000180081950 f i libucrtd:output.obj
 0001:00080ac0       ?write_string_impl@?$output_adapter_common@DV?$stream_output_adapter@D@__crt_stdio_output@@@__crt_stdio_output@@IEBAXQEBDHQEAHAEAV__crt_deferred_errno_cache@@@Z 0000000180081ac0 f i libucrtd:output.obj
 0001:00080ba0       ?write_string_impl@?$output_adapter_common@_WV?$stream_output_adapter@_W@__crt_stdio_output@@@__crt_stdio_output@@IEBAXQEB_WHQEAHAEAV__crt_deferred_errno_cache@@@Z 0000000180081ba0 f i libucrtd:output.obj
 0001:00080c80       __acrt_isleadbyte_l_noupdate 0000000180081c80 f i libucrtd:output.obj
 0001:00080cb0       __acrt_locale_changed      0000000180081cb0 f i libucrtd:output.obj
 0001:00080ce0       __acrt_locale_get_ctype_array_value 0000000180081ce0 f i libucrtd:output.obj
 0001:00080d20       __stdio_common_vfprintf    0000000180081d20 f   libucrtd:output.obj
 0001:00080d60       __stdio_common_vfprintf_p  0000000180081d60 f   libucrtd:output.obj
 0001:00080da0       __stdio_common_vfprintf_s  0000000180081da0 f   libucrtd:output.obj
 0001:00080de0       __stdio_common_vfwprintf   0000000180081de0 f   libucrtd:output.obj
 0001:00080e20       __stdio_common_vfwprintf_p 0000000180081e20 f   libucrtd:output.obj
 0001:00080e60       __stdio_common_vfwprintf_s 0000000180081e60 f   libucrtd:output.obj
 0001:00080ea0       __stdio_common_vsnprintf_s 0000000180081ea0 f   libucrtd:output.obj
 0001:00080f00       __stdio_common_vsnwprintf_s 0000000180081f00 f   libucrtd:output.obj
 0001:00080f60       __stdio_common_vsprintf    0000000180081f60 f   libucrtd:output.obj
 0001:00080fb0       __stdio_common_vsprintf_p  0000000180081fb0 f   libucrtd:output.obj
 0001:00081000       __stdio_common_vsprintf_s  0000000180082000 f   libucrtd:output.obj
 0001:00081050       __stdio_common_vswprintf   0000000180082050 f   libucrtd:output.obj
 0001:000810a0       __stdio_common_vswprintf_p 00000001800820a0 f   libucrtd:output.obj
 0001:000810f0       __stdio_common_vswprintf_s 00000001800820f0 f   libucrtd:output.obj
 0001:00081140       _ctype_fast_check_internal 0000000180082140 f i libucrtd:output.obj
 0001:00081170       _isdigit_fast_internal     0000000180082170 f i libucrtd:output.obj
 0001:000811a0       _tolower_fast_internal     00000001800821a0 f i libucrtd:output.obj
 0001:000811d0       free                       00000001800821d0 f   libucrtd:free.obj
 0001:00081200       malloc                     0000000180082200 f   libucrtd:malloc.obj
 0001:00081230       ??$?RU?$__crt_report_hook_node@D@@@__crt_internal_free_policy@@QEBAXQEBU?$__crt_report_hook_node@D@@@Z 0000000180082230 f i libucrtd:dbgrpt.obj
 0001:00081260       ??$?RU?$__crt_report_hook_node@_W@@@__crt_internal_free_policy@@QEBAXQEBU?$__crt_report_hook_node@_W@@@Z 0000000180082260 f i libucrtd:dbgrpt.obj
 0001:000824a0       ??$get_module_file_name@AEAPEAUHINSTANCE__@@AEAY0BAF@DK@?$__crt_char_traits@D@@SAKAEAPEAUHINSTANCE__@@AEAY0BAF@D$$QEAK@Z 00000001800834a0 f i libucrtd:dbgrpt.obj
 0001:000824e0       ??$get_module_file_name@AEAPEAUHINSTANCE__@@AEAY0BAF@_WK@?$__crt_char_traits@_W@@SAKAEAPEAUHINSTANCE__@@AEAY0BAF@_W$$QEAK@Z 00000001800834e0 f i libucrtd:dbgrpt.obj
 0001:00082520       ??$tcscpy_s@AEAY0BAF@D_KPEBD@?$__crt_char_traits@D@@SAHAEAY0BAF@D$$QEA_K$$QEAPEBD@Z 0000000180083520 f i libucrtd:dbgrpt.obj
 0001:00082560       ??$tcscpy_s@AEAY0BAF@_W_KPEB_W@?$__crt_char_traits@_W@@SAHAEAY0BAF@_W$$QEA_K$$QEAPEB_W@Z 0000000180083560 f i libucrtd:dbgrpt.obj
 0001:000825a0       ??$tcslen@AEAY0BAF@D@?$__crt_char_traits@D@@SA_KAEAY0BAF@D@Z 00000001800835a0 f i libucrtd:dbgrpt.obj
 0001:000825c0       ??$tcslen@AEAY0BAF@_W@?$__crt_char_traits@_W@@SA_KAEAY0BAF@_W@Z 00000001800835c0 f i libucrtd:dbgrpt.obj
 0001:000825e0       ??$tcslen@AEBQEBD@?$__crt_char_traits@D@@SA_KAEBQEBD@Z 00000001800835e0 f i libucrtd:dbgrpt.obj
 0001:00082600       ??$tcslen@AEBQEB_W@?$__crt_char_traits@_W@@SA_KAEBQEB_W@Z 0000000180083600 f i libucrtd:dbgrpt.obj
 0001:00082700       ??0?$__crt_unique_heap_ptr@U?$__crt_report_hook_node@D@@U__crt_internal_free_policy@@@@QEAA@QEAU?$__crt_report_hook_node@D@@@Z 0000000180083700 f i libucrtd:dbgrpt.obj
 0001:00082720       ??0?$__crt_unique_heap_ptr@U?$__crt_report_hook_node@_W@@U__crt_internal_free_policy@@@@QEAA@QEAU?$__crt_report_hook_node@_W@@@Z 0000000180083720 f i libucrtd:dbgrpt.obj
 0001:00082740       ??1?$__crt_unique_heap_ptr@U?$__crt_report_hook_node@D@@U__crt_internal_free_policy@@@@QEAA@XZ 0000000180083740 f i libucrtd:dbgrpt.obj
 0001:00082760       ??1?$__crt_unique_heap_ptr@U?$__crt_report_hook_node@_W@@U__crt_internal_free_policy@@@@QEAA@XZ 0000000180083760 f i libucrtd:dbgrpt.obj
 0001:00082780       ??B?$__crt_unique_heap_ptr@U?$__crt_report_hook_node@D@@U__crt_internal_free_policy@@@@QEBA_NXZ 0000000180083780 f i libucrtd:dbgrpt.obj
 0001:000827a0       ??B?$__crt_unique_heap_ptr@U?$__crt_report_hook_node@_W@@U__crt_internal_free_policy@@@@QEBA_NXZ 00000001800837a0 f i libucrtd:dbgrpt.obj
 0001:00082e80       ?detach@?$__crt_unique_heap_ptr@U?$__crt_report_hook_node@D@@U__crt_internal_free_policy@@@@QEAAPEAU?$__crt_report_hook_node@D@@XZ 0000000180083e80 f i libucrtd:dbgrpt.obj
 0001:00082eb0       ?detach@?$__crt_unique_heap_ptr@U?$__crt_report_hook_node@_W@@U__crt_internal_free_policy@@@@QEAAPEAU?$__crt_report_hook_node@_W@@XZ 0000000180083eb0 f i libucrtd:dbgrpt.obj
 0001:00082ee0       ?get@?$__crt_unique_heap_ptr@U?$__crt_report_hook_node@D@@U__crt_internal_free_policy@@@@QEBAPEAU?$__crt_report_hook_node@D@@XZ 0000000180083ee0 f i libucrtd:dbgrpt.obj
 0001:00082ef0       ?get@?$__crt_unique_heap_ptr@U?$__crt_report_hook_node@_W@@U__crt_internal_free_policy@@@@QEBAPEAU?$__crt_report_hook_node@_W@@XZ 0000000180083ef0 f i libucrtd:dbgrpt.obj
 0001:00082f60       ?is_valid@?$__crt_unique_heap_ptr@U?$__crt_report_hook_node@D@@U__crt_internal_free_policy@@@@QEBA_NXZ 0000000180083f60 f i libucrtd:dbgrpt.obj
 0001:00082f90       ?is_valid@?$__crt_unique_heap_ptr@U?$__crt_report_hook_node@_W@@U__crt_internal_free_policy@@@@QEBA_NXZ 0000000180083f90 f i libucrtd:dbgrpt.obj
 0001:00082fc0       ?release@?$__crt_unique_heap_ptr@U?$__crt_report_hook_node@D@@U__crt_internal_free_policy@@@@QEAAXXZ 0000000180083fc0 f i libucrtd:dbgrpt.obj
 0001:00082ff0       ?release@?$__crt_unique_heap_ptr@U?$__crt_report_hook_node@_W@@U__crt_internal_free_policy@@@@QEAAXXZ 0000000180083ff0 f i libucrtd:dbgrpt.obj
 0001:00083020       _CrtDbgReport              0000000180084020 f   libucrtd:dbgrpt.obj
 0001:000830a0       _CrtDbgReportW             00000001800840a0 f   libucrtd:dbgrpt.obj
 0001:00083120       _CrtSetReportHook2         0000000180084120 f   libucrtd:dbgrpt.obj
 0001:00083140       _CrtSetReportHookW2        0000000180084140 f   libucrtd:dbgrpt.obj
 0001:00083160       __acrt_MessageWindowA      0000000180084160 f   libucrtd:dbgrpt.obj
 0001:000831b0       __acrt_MessageWindowW      00000001800841b0 f   libucrtd:dbgrpt.obj
 0001:00083200       _invoke_watson_if_error    0000000180084200 f i libucrtd:dbgrpt.obj
 0001:00083250       _invoke_watson_if_oneof    0000000180084250 f i libucrtd:dbgrpt.obj
 0001:000832b0       _snwprintf_s               00000001800842b0 f i libucrtd:dbgrpt.obj
 0001:00083320       _vsnwprintf_s_l            0000000180084320 f i libucrtd:dbgrpt.obj
 0001:00083880       wcscpy_s                   0000000180084880 f   libucrtd:wcscpy_s.obj
 0001:00084c10       ??1?$__crt_simd_cleanup_guard@$00@@QEAA@XZ 0000000180085c10 f i libucrtd:strnlen.obj
 0001:00084c20       ??1?$__crt_simd_cleanup_guard@$0A@@@QEAA@XZ 0000000180085c20 f i libucrtd:strnlen.obj
 0001:00084c30       ?compare_equals@?$__crt_simd_traits@$00E@@SA?AT__m256i@@T2@0@Z 0000000180085c30 f i libucrtd:strnlen.obj
 0001:00084c70       ?compare_equals@?$__crt_simd_traits@$00G@@SA?AT__m256i@@T2@0@Z 0000000180085c70 f i libucrtd:strnlen.obj
 0001:00084cb0       ?compare_equals@?$__crt_simd_traits@$0A@E@@SA?AT__m128i@@T2@0@Z 0000000180085cb0 f i libucrtd:strnlen.obj
 0001:00084ce0       ?compare_equals@?$__crt_simd_traits@$0A@G@@SA?AT__m128i@@T2@0@Z 0000000180085ce0 f i libucrtd:strnlen.obj
 0001:00084d10       ?compute_byte_mask@?$__crt_simd_pack_traits@$00@@SAHT__m256i@@@Z 0000000180085d10 f i libucrtd:strnlen.obj
 0001:00084d30       ?compute_byte_mask@?$__crt_simd_pack_traits@$0A@@@SAHT__m128i@@@Z 0000000180085d30 f i libucrtd:strnlen.obj
 0001:00084d50       ?get_zero_pack@?$__crt_simd_pack_traits@$00@@SA?AT__m256i@@XZ 0000000180085d50 f i libucrtd:strnlen.obj
 0001:00084d80       ?get_zero_pack@?$__crt_simd_pack_traits@$0A@@@SA?AT__m128i@@XZ 0000000180085d80 f i libucrtd:strnlen.obj
 0001:00084da0       strnlen                    0000000180085da0 f   libucrtd:strnlen.obj
 0001:00084dd0       wcslen                     0000000180085dd0 f   libucrtd:strnlen.obj
 0001:00084df0       wcsnlen                    0000000180085df0 f   libucrtd:strnlen.obj
 0001:00084e20       ??$__crt_fast_decode_pointer@P6AXPEB_W00I_K@Z@@YAP6AXPEB_W00I_K@ZQ6AX000I1@Z@Z 0000000180085e20 f i libucrtd:invalid_parameter.obj
 0001:00084e60       ??$__crt_fast_encode_pointer@P6AXPEB_W00I_K@Z@@YAP6AXPEB_W00I_K@ZQ6AX000I1@Z@Z 0000000180085e60 f i libucrtd:invalid_parameter.obj
 0001:00084ea0       ??$initialize_from_array@$$BY00Q6AXPEB_W00I_K@Z@?$dual_state_global@P6AXPEB_W00I_K@Z@__crt_state_management@@QEAAXAEAY00Q6AXPEB_W00I_K@Z@Z 0000000180085ea0 f i libucrtd:invalid_parameter.obj
 0001:00084f00       ?__crt_rotate_pointer_value@@YA_K_KH@Z 0000000180085f00 f i libucrtd:invalid_parameter.obj
 0001:00084fc0       ?dangerous_get_state_array@?$dual_state_global@P6AXPEB_W00I_K@Z@__crt_state_management@@QEAAPEAP6AXPEB_W00I_K@ZXZ 0000000180085fc0 f i libucrtd:invalid_parameter.obj
 0001:00084fd0       ?get_current_state_index@__crt_state_management@@YA_KXZ 0000000180085fd0 f i libucrtd:invalid_parameter.obj
 0001:00084fe0       ?value@?$dual_state_global@P6AXPEB_W00I_K@Z@__crt_state_management@@QEAAAEAP6AXPEB_W00I_K@ZXZ 0000000180085fe0 f i libucrtd:invalid_parameter.obj
 0001:00085000       __acrt_call_reportfault    0000000180086000 f   libucrtd:invalid_parameter.obj
 0001:00085130       __acrt_initialize_invalid_parameter_handler 0000000180086130 f   libucrtd:invalid_parameter.obj
 0001:00085160       _get_invalid_parameter_handler 0000000180086160 f   libucrtd:invalid_parameter.obj
 0001:00085180       _get_thread_local_invalid_parameter_handler 0000000180086180 f   libucrtd:invalid_parameter.obj
 0001:000851b0       _invalid_parameter         00000001800861b0 f   libucrtd:invalid_parameter.obj
 0001:000852b0       _invalid_parameter_noinfo  00000001800862b0 f   libucrtd:invalid_parameter.obj
 0001:000852e0       _invalid_parameter_noinfo_noreturn 00000001800862e0 f   libucrtd:invalid_parameter.obj
 0001:00085320       _invoke_watson             0000000180086320 f   libucrtd:invalid_parameter.obj
 0001:00085380       _set_invalid_parameter_handler 0000000180086380 f   libucrtd:invalid_parameter.obj
 0001:000853d0       _set_thread_local_invalid_parameter_handler 00000001800863d0 f   libucrtd:invalid_parameter.obj
 0001:00085410       __acrt_errno_from_os_error 0000000180086410 f   libucrtd:errno.obj
 0001:000854a0       __acrt_errno_map_os_error  00000001800864a0 f   libucrtd:errno.obj
 0001:000854d0       __doserrno                 00000001800864d0 f   libucrtd:errno.obj
 0001:00085500       _errno                     0000000180086500 f   libucrtd:errno.obj
 0001:00085530       _get_doserrno              0000000180086530 f   libucrtd:errno.obj
 0001:000855f0       _get_errno                 00000001800865f0 f   libucrtd:errno.obj
 0001:000856b0       _set_doserrno              00000001800866b0 f   libucrtd:errno.obj
 0001:000856f0       _set_errno                 00000001800866f0 f   libucrtd:errno.obj
 0001:00085730       calloc                     0000000180086730 f   libucrtd:calloc.obj
 0001:00085770       _recalloc                  0000000180086770 f   libucrtd:recalloc.obj
 0001:000857c0       _recalloc_base             00000001800867c0 f   libucrtd:recalloc.obj
 0001:0008589c       _resetstkoflw              000000018008689c f   libucrtd:resetstk.obj
 0001:00086050       wcscat_s                   0000000180087050 f   libucrtd:wcscat_s.obj
 0001:00086720       wcsncpy_s                  0000000180087720 f   libucrtd:wcsncpy_s.obj
 0001:00086780       __acrt_get_locale_data_prefix 0000000180087780 f i libucrtd:_ctype.obj
 0001:000867a0       __isascii                  00000001800877a0 f i libucrtd:_ctype.obj
 0001:000867d0       __iscsym                   00000001800877d0 f i libucrtd:_ctype.obj
 0001:00086810       __iscsymf                  0000000180087810 f i libucrtd:_ctype.obj
 0001:00086850       __toascii                  0000000180087850 f i libucrtd:_ctype.obj
 0001:00086860       _chvalidchk_l              0000000180087860 f i libucrtd:_ctype.obj
 0001:00086890       _isalnum_l                 0000000180087890 f i libucrtd:_ctype.obj
 0001:000868e0       _isalpha_l                 00000001800878e0 f i libucrtd:_ctype.obj
 0001:00086930       _isblank_l                 0000000180087930 f i libucrtd:_ctype.obj
 0001:000869a0       _ischartype_l              00000001800879a0 f i libucrtd:_ctype.obj
 0001:00086a30       _iscntrl_l                 0000000180087a30 f i libucrtd:_ctype.obj
 0001:00086a80       _iscsym_l                  0000000180087a80 f i libucrtd:_ctype.obj
 0001:00086ad0       _iscsymf_l                 0000000180087ad0 f i libucrtd:_ctype.obj
 0001:00086b20       _isdigit_l                 0000000180087b20 f i libucrtd:_ctype.obj
 0001:00086b70       _isgraph_l                 0000000180087b70 f i libucrtd:_ctype.obj
 0001:00086bc0       _islower_l                 0000000180087bc0 f i libucrtd:_ctype.obj
 0001:00086c10       _isprint_l                 0000000180087c10 f i libucrtd:_ctype.obj
 0001:00086c60       _ispunct_l                 0000000180087c60 f i libucrtd:_ctype.obj
 0001:00086cb0       _isspace_l                 0000000180087cb0 f i libucrtd:_ctype.obj
 0001:00086d00       _isupper_l                 0000000180087d00 f i libucrtd:_ctype.obj
 0001:00086d50       _isxdigit_l                0000000180087d50 f i libucrtd:_ctype.obj
 0001:00086da0       isalnum                    0000000180087da0 f i libucrtd:_ctype.obj
 0001:00086de0       isalpha                    0000000180087de0 f i libucrtd:_ctype.obj
 0001:00086e20       isblank                    0000000180087e20 f i libucrtd:_ctype.obj
 0001:00086e80       iscntrl                    0000000180087e80 f i libucrtd:_ctype.obj
 0001:00086ec0       isdigit                    0000000180087ec0 f i libucrtd:_ctype.obj
 0001:00086f00       isgraph                    0000000180087f00 f i libucrtd:_ctype.obj
 0001:00086f40       islower                    0000000180087f40 f i libucrtd:_ctype.obj
 0001:00086f80       isprint                    0000000180087f80 f i libucrtd:_ctype.obj
 0001:00086fc0       ispunct                    0000000180087fc0 f i libucrtd:_ctype.obj
 0001:00087000       isspace                    0000000180088000 f i libucrtd:_ctype.obj
 0001:00087040       isupper                    0000000180088040 f i libucrtd:_ctype.obj
 0001:00087080       isxdigit                   0000000180088080 f i libucrtd:_ctype.obj
 0001:000870c0       wcscat                     00000001800880c0 f   libucrtd:wcscat.obj
 0001:00087140       wcscpy                     0000000180088140 f   libucrtd:wcscpy.obj
 0001:000878f0       ??$open_file@AEBQEBDAEBQEBDAEBHPEAU_iobuf@@@?$__crt_char_traits@D@@SAPEAU_iobuf@@AEBQEBD0AEBH$$QEAPEAU1@@Z 00000001800888f0 f i libucrtd:fopen.obj
 0001:00087940       ??$open_file@AEBQEB_WAEBQEB_WAEBHPEAU_iobuf@@@?$__crt_char_traits@_W@@SAPEAU_iobuf@@AEBQEB_W0AEBH$$QEAPEAU1@@Z 0000000180088940 f i libucrtd:fopen.obj
 0001:00087990       ?unlock@__crt_stdio_stream@@QEBAXXZ 0000000180088990 f i libucrtd:fopen.obj
 0001:000879b0       _fsopen                    00000001800889b0 f   libucrtd:fopen.obj
 0001:000879e0       _wfopen                    00000001800889e0 f   libucrtd:fopen.obj
 0001:00087a10       _wfopen_s                  0000000180088a10 f   libucrtd:fopen.obj
 0001:00087a40       _wfsopen                   0000000180088a40 f   libucrtd:fopen.obj
 0001:00087a70       fopen                      0000000180088a70 f   libucrtd:fopen.obj
 0001:00087aa0       fopen_s                    0000000180088aa0 f   libucrtd:fopen.obj
 0001:00087ad0       ?is_in_use@__crt_stdio_stream@@QEBA_NXZ 0000000180088ad0 f i libucrtd:fclose.obj
 0001:00087b10       _fclose_nolock             0000000180088b10 f   libucrtd:fclose.obj
 0001:00087ca0       fclose                     0000000180088ca0 f   libucrtd:fclose.obj
 0001:00087de0       _fputc_nolock              0000000180088de0 f   libucrtd:fputc.obj
 0001:00087e90       _fputchar                  0000000180088e90 f   libucrtd:fputc.obj
 0001:00087ec0       _putc_nolock               0000000180088ec0 f   libucrtd:fputc.obj
 0001:00087ee0       fputc                      0000000180088ee0 f   libucrtd:fputc.obj
 0001:00088180       putc                       0000000180089180 f   libucrtd:fputc.obj
 0001:000881a0       putchar                    00000001800891a0 f   libucrtd:fputc.obj
 0001:00088230       _seh_filter_dll            0000000180089230 f   libucrtd:exception_filter.obj
 0001:00088260       _seh_filter_exe            0000000180089260 f   libucrtd:exception_filter.obj
 0001:00088500       ??$?B$$A6AXPEAXK0@Z@__crt_fast_encoded_nullptr_t@@QEBAP6AXPEAXK0@ZXZ 0000000180089500 f i libucrtd:exit.obj
 0001:000885b0       ??$__crt_fast_decode_pointer@P6AXPEAXK0@Z@@YAP6AXPEAXK0@ZQ6AX0K0@Z@Z 00000001800895b0 f i libucrtd:exit.obj
 0001:000885f0       ??$__crt_fast_encode_pointer@P6AXPEAXK0@Z@@YAP6AXPEAXK0@ZQ6AX0K0@Z@Z 00000001800895f0 f i libucrtd:exit.obj
 0001:00088630       ??$__crt_get_proc_address@P6AXI@Z@@YAP6AXI@ZQEAUHINSTANCE__@@QEBD@Z 0000000180089630 f i libucrtd:exit.obj
 0001:000886f0       ??0?$__crt_unique_handle_t@U__crt_hmodule_traits@@@@QEAA@QEAUHINSTANCE__@@@Z 00000001800896f0 f i libucrtd:exit.obj
 0001:00088710       ??1?$__crt_unique_handle_t@U__crt_hmodule_traits@@@@QEAA@XZ 0000000180089710 f i libucrtd:exit.obj
 0001:00088870       ?__acrt_select_exit_lock@@YA?AW4__acrt_lock_id@@XZ 0000000180089870 f i libucrtd:exit.obj
 0001:00088880       ?__crt_fast_encode_pointer@@YA?AU__crt_fast_encoded_nullptr_t@@$$T@Z 0000000180089880 f i libucrtd:exit.obj
 0001:000888c0       ?close@?$__crt_unique_handle_t@U__crt_hmodule_traits@@@@QEAAXXZ 00000001800898c0 f i libucrtd:exit.obj
 0001:00088900       ?close@__crt_hmodule_traits@@SA_NPEAUHINSTANCE__@@@Z 0000000180089900 f i libucrtd:exit.obj
 0001:00088a10       ?get@?$__crt_unique_handle_t@U__crt_hmodule_traits@@@@QEBAPEAUHINSTANCE__@@XZ 0000000180089a10 f i libucrtd:exit.obj
 0001:00088a20       ?get_address_of@?$__crt_unique_handle_t@U__crt_hmodule_traits@@@@QEAAPEAPEAUHINSTANCE__@@XZ 0000000180089a20 f i libucrtd:exit.obj
 0001:00088a30       ?get_invalid_value@__crt_hmodule_traits@@SAPEAUHINSTANCE__@@XZ 0000000180089a30 f i libucrtd:exit.obj
 0001:00088bf0       _Exit                      0000000180089bf0 f   libucrtd:exit.obj
 0001:00088c10       __acrt_initialize_thread_local_exit_callback 0000000180089c10 f   libucrtd:exit.obj
 0001:00088c30       _c_exit                    0000000180089c30 f   libucrtd:exit.obj
 0001:00088c50       _cexit                     0000000180089c50 f   libucrtd:exit.obj
 0001:00088c70       _exit                      0000000180089c70 f   libucrtd:exit.obj
 0001:00088c90       _is_c_termination_complete 0000000180089c90 f   libucrtd:exit.obj
 0001:00088cb0       _register_thread_local_exe_atexit_callback 0000000180089cb0 f   libucrtd:exit.obj
 0001:00088d00       exit                       0000000180089d00 f   libucrtd:exit.obj
 0001:00088d20       quick_exit                 0000000180089d20 f   libucrtd:exit.obj
 0001:00088d40       ??$?RE@__crt_internal_free_policy@@QEBAXQEBE@Z 0000000180089d40 f i libucrtd:argv_parsing.obj
 0001:00088d70       ??$?RPEAD@__crt_internal_free_policy@@QEBAXQEBQEAD@Z 0000000180089d70 f i libucrtd:argv_parsing.obj
 0001:00088da0       ??$?RPEA_W@__crt_internal_free_policy@@QEBAXQEBQEA_W@Z 0000000180089da0 f i libucrtd:argv_parsing.obj
 0001:000894f0       ??$get_module_file_name@$$TAEAY0BAF@DH@?$__crt_char_traits@D@@SAK$$QEA$$TAEAY0BAF@D$$QEAH@Z 000000018008a4f0 f i libucrtd:argv_parsing.obj
 0001:00089530       ??$get_module_file_name@$$TAEAY0BAF@_WH@?$__crt_char_traits@_W@@SAK$$QEA$$TAEAY0BAF@_W$$QEAH@Z 000000018008a530 f i libucrtd:argv_parsing.obj
 0001:00089ee0       ??$set_program_name@PEAD@?$__crt_char_traits@D@@SAX$$QEAPEAD@Z 000000018008aee0 f i libucrtd:argv_parsing.obj
 0001:00089f00       ??$set_program_name@PEA_W@?$__crt_char_traits@_W@@SAX$$QEAPEA_W@Z 000000018008af00 f i libucrtd:argv_parsing.obj
 0001:00089f60       ??0?$__crt_unique_heap_ptr@EU__crt_internal_free_policy@@@@QEAA@QEAE@Z 000000018008af60 f i libucrtd:argv_parsing.obj
 0001:00089f80       ??0?$__crt_unique_heap_ptr@PEADU__crt_internal_free_policy@@@@QEAA@QEAPEAD@Z 000000018008af80 f i libucrtd:argv_parsing.obj
 0001:00089fa0       ??0?$__crt_unique_heap_ptr@PEA_WU__crt_internal_free_policy@@@@QEAA@QEAPEA_W@Z 000000018008afa0 f i libucrtd:argv_parsing.obj
 0001:00089fc0       ??1?$__crt_unique_heap_ptr@EU__crt_internal_free_policy@@@@QEAA@XZ 000000018008afc0 f i libucrtd:argv_parsing.obj
 0001:00089fe0       ??1?$__crt_unique_heap_ptr@PEADU__crt_internal_free_policy@@@@QEAA@XZ 000000018008afe0 f i libucrtd:argv_parsing.obj
 0001:0008a000       ??1?$__crt_unique_heap_ptr@PEA_WU__crt_internal_free_policy@@@@QEAA@XZ 000000018008b000 f i libucrtd:argv_parsing.obj
 0001:0008a020       ??B?$__crt_unique_heap_ptr@EU__crt_internal_free_policy@@@@QEBA_NXZ 000000018008b020 f i libucrtd:argv_parsing.obj
 0001:0008a100       ?detach@?$__crt_unique_heap_ptr@EU__crt_internal_free_policy@@@@QEAAPEAEXZ 000000018008b100 f i libucrtd:argv_parsing.obj
 0001:0008a130       ?detach@?$__crt_unique_heap_ptr@PEADU__crt_internal_free_policy@@@@QEAAPEAPEADXZ 000000018008b130 f i libucrtd:argv_parsing.obj
 0001:0008a160       ?detach@?$__crt_unique_heap_ptr@PEA_WU__crt_internal_free_policy@@@@QEAAPEAPEA_WXZ 000000018008b160 f i libucrtd:argv_parsing.obj
 0001:0008a220       ?get@?$__crt_unique_heap_ptr@EU__crt_internal_free_policy@@@@QEBAPEAEXZ 000000018008b220 f i libucrtd:argv_parsing.obj
 0001:0008a230       ?get@?$__crt_unique_heap_ptr@PEADU__crt_internal_free_policy@@@@QEBAPEAPEADXZ 000000018008b230 f i libucrtd:argv_parsing.obj
 0001:0008a240       ?get@?$__crt_unique_heap_ptr@PEA_WU__crt_internal_free_policy@@@@QEBAPEAPEA_WXZ 000000018008b240 f i libucrtd:argv_parsing.obj
 0001:0008a250       ?get_address_of@?$__crt_unique_heap_ptr@PEADU__crt_internal_free_policy@@@@QEAAPEAPEAPEADXZ 000000018008b250 f i libucrtd:argv_parsing.obj
 0001:0008a260       ?get_address_of@?$__crt_unique_heap_ptr@PEA_WU__crt_internal_free_policy@@@@QEAAPEAPEAPEA_WXZ 000000018008b260 f i libucrtd:argv_parsing.obj
 0001:0008a2b0       ?is_valid@?$__crt_unique_heap_ptr@EU__crt_internal_free_policy@@@@QEBA_NXZ 000000018008b2b0 f i libucrtd:argv_parsing.obj
 0001:0008a2e0       ?release@?$__crt_unique_heap_ptr@EU__crt_internal_free_policy@@@@QEAAXXZ 000000018008b2e0 f i libucrtd:argv_parsing.obj
 0001:0008a310       ?release@?$__crt_unique_heap_ptr@PEADU__crt_internal_free_policy@@@@QEAAXXZ 000000018008b310 f i libucrtd:argv_parsing.obj
 0001:0008a340       ?release@?$__crt_unique_heap_ptr@PEA_WU__crt_internal_free_policy@@@@QEAAXXZ 000000018008b340 f i libucrtd:argv_parsing.obj
 0001:0008a3c0       __acrt_allocate_buffer_for_argv 000000018008b3c0 f   libucrtd:argv_parsing.obj
 0001:0008a4e0       _configure_narrow_argv     000000018008b4e0 f   libucrtd:argv_parsing.obj
 0001:0008a500       _configure_wide_argv       000000018008b500 f   libucrtd:argv_parsing.obj
 0001:0008a520       _set_pgmptr                000000018008b520 f i libucrtd:argv_parsing.obj
 0001:0008a540       _set_wpgmptr               000000018008b540 f i libucrtd:argv_parsing.obj
 0001:0008a554       ??$?R_W@__crt_internal_free_policy@@QEBAXQEB_W@Z 000000018008b554 f i libucrtd:environment_initialization.obj
 0001:0008ab2c       ??$get_environment_from_os@$$V@?$__crt_char_traits@D@@SAPEADXZ 000000018008bb2c f i libucrtd:environment_initialization.obj
 0001:0008ab34       ??$get_environment_from_os@$$V@?$__crt_char_traits@_W@@SAPEA_WXZ 000000018008bb34 f i libucrtd:environment_initialization.obj
 0001:0008ad04       ??$set_variable_in_environment_nolock@PEADH@?$__crt_char_traits@D@@SAH$$QEAPEAD$$QEAH@Z 000000018008bd04 f i libucrtd:environment_initialization.obj
 0001:0008ad10       ??$set_variable_in_environment_nolock@PEA_WH@?$__crt_char_traits@_W@@SAH$$QEAPEA_W$$QEAH@Z 000000018008bd10 f i libucrtd:environment_initialization.obj
 0001:0008ad1c       ??$tcscpy_s@PEADAEB_KAEAPEAD@?$__crt_char_traits@D@@SAH$$QEAPEADAEB_KAEAPEAD@Z 000000018008bd1c f i libucrtd:environment_initialization.obj
 0001:0008ad2c       ??$tcscpy_s@PEA_WAEB_KAEAPEA_W@?$__crt_char_traits@_W@@SAH$$QEAPEA_WAEB_KAEAPEA_W@Z 000000018008bd2c f i libucrtd:environment_initialization.obj
 0001:0008ad3c       ??$tcslen@AEAPEAD@?$__crt_char_traits@D@@SA_KAEAPEAD@Z 000000018008bd3c f i libucrtd:environment_initialization.obj
 0001:0008ad50       ??$tcslen@AEAPEA_W@?$__crt_char_traits@_W@@SA_KAEAPEA_W@Z 000000018008bd50 f i libucrtd:environment_initialization.obj
 0001:0008ad64       ??$uninitialize@A6AXAEAPEAPEAD@Z@?$dual_state_global@PEAPEAD@__crt_state_management@@QEAAXA6AXAEAPEAPEAD@Z@Z 000000018008bd64 f i libucrtd:environment_initialization.obj
 0001:0008ada8       ??$uninitialize@A6AXAEAPEAPEA_W@Z@?$dual_state_global@PEAPEA_W@__crt_state_management@@QEAAXA6AXAEAPEAPEA_W@Z@Z 000000018008bda8 f i libucrtd:environment_initialization.obj
 0001:0008ae24       ??0?$__crt_unique_heap_ptr@_WU__crt_internal_free_policy@@@@QEAA@QEA_W@Z 000000018008be24 f i libucrtd:environment_initialization.obj
 0001:0008ae2c       ??1?$__crt_unique_heap_ptr@_WU__crt_internal_free_policy@@@@QEAA@XZ 000000018008be2c f i libucrtd:environment_initialization.obj
 0001:0008ae4c       ??B?$__crt_unique_heap_ptr@PEADU__crt_internal_free_policy@@@@QEBA_NXZ 000000018008be4c f i libucrtd:environment_initialization.obj
 0001:0008ae54       ??B?$__crt_unique_heap_ptr@PEA_WU__crt_internal_free_policy@@@@QEBA_NXZ 000000018008be54 f i libucrtd:environment_initialization.obj
 0001:0008ae5c       ??B?$__crt_unique_heap_ptr@_WU__crt_internal_free_policy@@@@QEBA_NXZ 000000018008be5c f i libucrtd:environment_initialization.obj
 0001:0008ae64       ?__crt_compute_required_transform_buffer_count@@YA_KIQEBD@Z 000000018008be64 f i libucrtd:environment_initialization.obj
 0001:0008ae88       ?__crt_compute_required_transform_buffer_count@@YA_KIQEB_W@Z 000000018008be88 f i libucrtd:environment_initialization.obj
 0001:0008aeb8       ?__crt_transform_string@@YA_KIQEBDQEA_W_K@Z 000000018008beb8 f i libucrtd:environment_initialization.obj
 0001:0008aedc       ?__crt_transform_string@@YA_KIQEB_WQEAD_K@Z 000000018008bedc f i libucrtd:environment_initialization.obj
 0001:0008af0c       ?detach@?$__crt_unique_heap_ptr@DU__crt_internal_free_policy@@@@QEAAPEADXZ 000000018008bf0c f i libucrtd:environment_initialization.obj
 0001:0008af14       ?detach@?$__crt_unique_heap_ptr@_WU__crt_internal_free_policy@@@@QEAAPEA_WXZ 000000018008bf14 f i libucrtd:environment_initialization.obj
 0001:0008af1c       ?get@?$__crt_unique_heap_ptr@_WU__crt_internal_free_policy@@@@QEBAPEA_WXZ 000000018008bf1c f i libucrtd:environment_initialization.obj
 0001:0008af50       ?initialize@?$dual_state_global@PEAPEAD@__crt_state_management@@QEAAXQEAPEAD@Z 000000018008bf50 f i libucrtd:environment_initialization.obj
 0001:0008af78       ?initialize@?$dual_state_global@PEAPEA_W@__crt_state_management@@QEAAXQEAPEA_W@Z 000000018008bf78 f i libucrtd:environment_initialization.obj
 0001:0008afa0       ?is_valid@?$__crt_unique_heap_ptr@PEADU__crt_internal_free_policy@@@@QEBA_NXZ 000000018008bfa0 f i libucrtd:environment_initialization.obj
 0001:0008afa8       ?is_valid@?$__crt_unique_heap_ptr@PEA_WU__crt_internal_free_policy@@@@QEBA_NXZ 000000018008bfa8 f i libucrtd:environment_initialization.obj
 0001:0008afb0       ?is_valid@?$__crt_unique_heap_ptr@_WU__crt_internal_free_policy@@@@QEBA_NXZ 000000018008bfb0 f i libucrtd:environment_initialization.obj
 0001:0008afc4       ?release@?$__crt_unique_heap_ptr@_WU__crt_internal_free_policy@@@@QEAAXXZ 000000018008bfc4 f i libucrtd:environment_initialization.obj
 0001:0008afe4       ?value@?$dual_state_global@PEAPEAD@__crt_state_management@@QEAAAEAPEAPEADXZ 000000018008bfe4 f i libucrtd:environment_initialization.obj
 0001:0008afe8       ?value@?$dual_state_global@PEAPEA_W@__crt_state_management@@QEAAAEAPEAPEA_WXZ 000000018008bfe8 f i libucrtd:environment_initialization.obj
 0001:0008afec       __dcrt_get_or_create_narrow_environment_nolock 000000018008bfec f   libucrtd:environment_initialization.obj
 0001:0008b028       __dcrt_get_or_create_wide_environment_nolock 000000018008c028 f   libucrtd:environment_initialization.obj
 0001:0008b064       __dcrt_uninitialize_environments_nolock 000000018008c064 f   libucrtd:environment_initialization.obj
 0001:0008b09c       __p__environ               000000018008c09c f   libucrtd:environment_initialization.obj
 0001:0008b0a4       __p__wenviron              000000018008c0a4 f   libucrtd:environment_initialization.obj
 0001:0008b0ac       _get_initial_narrow_environment 000000018008c0ac f   libucrtd:environment_initialization.obj
 0001:0008b0fc       _get_initial_wide_environment 000000018008c0fc f   libucrtd:environment_initialization.obj
 0001:0008b14c       _initialize_narrow_environment 000000018008c14c f   libucrtd:environment_initialization.obj
 0001:0008b154       _initialize_wide_environment 000000018008c154 f   libucrtd:environment_initialization.obj
 0001:0008b160       ??$?B$$A6AXXZ@__crt_fast_encoded_nullptr_t@@QEBAP6AXXZXZ 000000018008c160 f i libucrtd:onexit.obj
 0001:0008b180       ??$?BP6AXXZ@__crt_fast_encoded_nullptr_t@@QEBAPEAP6AXXZXZ 000000018008c180 f i libucrtd:onexit.obj
 0001:0008b1a0       ??$?RP6AXXZ@__crt_internal_free_policy@@QEBAXQEBQ6AXXZ@Z 000000018008c1a0 f i libucrtd:onexit.obj
 0001:0008b310       ??$__crt_fast_decode_pointer@P6AXXZ@@YAP6AXXZQ6AXXZ@Z 000000018008c310 f i libucrtd:onexit.obj
 0001:0008b350       ??$__crt_fast_decode_pointer@PEAP6AXXZ@@YAPEAP6AXXZQEAP6AXXZ@Z 000000018008c350 f i libucrtd:onexit.obj
 0001:0008b390       ??$__crt_fast_encode_pointer@P6AHXZ@@YAP6AHXZQ6AHXZ@Z 000000018008c390 f i libucrtd:onexit.obj
 0001:0008b3d0       ??$__crt_fast_encode_pointer@P6AXXZ@@YAP6AXXZQ6AXXZ@Z 000000018008c3d0 f i libucrtd:onexit.obj
 0001:0008b410       ??$__crt_fast_encode_pointer@PEAP6AXXZ@@YAPEAP6AXXZQEAP6AXXZ@Z 000000018008c410 f i libucrtd:onexit.obj
 0001:0008b520       ??0?$__crt_unique_heap_ptr@P6AXXZU__crt_internal_free_policy@@@@QEAA@QEAP6AXXZ@Z 000000018008c520 f i libucrtd:onexit.obj
 0001:0008b540       ??1?$__crt_unique_heap_ptr@P6AXXZU__crt_internal_free_policy@@@@QEAA@XZ 000000018008c540 f i libucrtd:onexit.obj
 0001:0008b560       ??1scoped_global_state_reset@__crt_state_management@@QEAA@XZ 000000018008c560 f i libucrtd:onexit.obj
 0001:0008bb30       ?detach@?$__crt_unique_heap_ptr@P6AXXZU__crt_internal_free_policy@@@@QEAAPEAP6AXXZXZ 000000018008cb30 f i libucrtd:onexit.obj
 0001:0008bb60       ?release@?$__crt_unique_heap_ptr@P6AXXZU__crt_internal_free_policy@@@@QEAAXXZ 000000018008cb60 f i libucrtd:onexit.obj
 0001:0008bb90       _crt_at_quick_exit         000000018008cb90 f   libucrtd:onexit.obj
 0001:0008bbb0       _crt_atexit                000000018008cbb0 f   libucrtd:onexit.obj
 0001:0008bbd0       _execute_onexit_table      000000018008cbd0 f   libucrtd:onexit.obj
 0001:0008bc10       _initialize_onexit_table   000000018008cc10 f   libucrtd:onexit.obj
 0001:0008bc90       _register_onexit_function  000000018008cc90 f   libucrtd:onexit.obj
 0001:0008bf00       ??$?BX@__crt_fast_encoded_nullptr_t@@QEBAPEAXXZ 000000018008cf00 f i libucrtd:initialization.obj
 0001:0008bf20       ??$__crt_fast_encode_pointer@PEAX@@YAPEAXQEAX@Z 000000018008cf20 f i libucrtd:initialization.obj
 0001:0008c010       ?initialize@?$dual_state_global@PEAU__crt_locale_data@@@__crt_state_management@@QEAAXQEAU__crt_locale_data@@@Z 000000018008d010 f i libucrtd:initialization.obj
 0001:0008c060       __acrt_initialize          000000018008d060 f   libucrtd:initialization.obj
 0001:0008c090       __acrt_thread_attach       000000018008d090 f   libucrtd:initialization.obj
 0001:0008c0b0       __acrt_thread_detach       000000018008d0b0 f   libucrtd:initialization.obj
 0001:0008c0c0       __acrt_uninitialize        000000018008d0c0 f   libucrtd:initialization.obj
 0001:0008c0f0       __acrt_uninitialize_critical 000000018008d0f0 f   libucrtd:initialization.obj
 0001:0008e0e0       _CrtCheckMemory            000000018008f0e0 f   libucrtd:debug_heap.obj
 0001:0008e270       _CrtDoForAllClientObjects  000000018008f270 f   libucrtd:debug_heap.obj
 0001:0008e3a0       _CrtDumpMemoryLeaks        000000018008f3a0 f   libucrtd:debug_heap.obj
 0001:0008e460       _CrtGetAllocHook           000000018008f460 f   libucrtd:debug_heap.obj
 0001:0008e470       _CrtGetDumpClient          000000018008f470 f   libucrtd:debug_heap.obj
 0001:0008e480       _CrtIsMemoryBlock          000000018008f480 f   libucrtd:debug_heap.obj
 0001:0008e5c0       _CrtIsValidHeapPointer     000000018008f5c0 f   libucrtd:debug_heap.obj
 0001:0008e600       _CrtIsValidPointer         000000018008f600 f   libucrtd:debug_heap.obj
 0001:0008e640       _CrtMemCheckpoint          000000018008f640 f   libucrtd:debug_heap.obj
 0001:0008e8c0       _CrtMemDifference          000000018008f8c0 f   libucrtd:debug_heap.obj
 0001:0008ec20       _CrtMemDumpAllObjectsSince 000000018008fc20 f   libucrtd:debug_heap.obj
 0001:0008ec80       _CrtMemDumpStatistics      000000018008fc80 f   libucrtd:debug_heap.obj
 0001:0008ee20       _CrtReportBlockType        000000018008fe20 f   libucrtd:debug_heap.obj
 0001:0008ee50       _CrtSetAllocHook           000000018008fe50 f   libucrtd:debug_heap.obj
 0001:0008ee80       _CrtSetBreakAlloc          000000018008fe80 f   libucrtd:debug_heap.obj
 0001:0008eeb0       _CrtSetDbgBlockType        000000018008feb0 f   libucrtd:debug_heap.obj
 0001:0008ef50       _CrtSetDbgFlag             000000018008ff50 f   libucrtd:debug_heap.obj
 0001:0008f0b0       _CrtSetDumpClient          00000001800900b0 f   libucrtd:debug_heap.obj
 0001:0008f0e0       __p__crtBreakAlloc         00000001800900e0 f   libucrtd:debug_heap.obj
 0001:0008f0f0       __p__crtDbgFlag            00000001800900f0 f   libucrtd:debug_heap.obj
 0001:0008f100       _aligned_free_dbg          0000000180090100 f   libucrtd:debug_heap.obj
 0001:0008f1f0       _aligned_malloc_dbg        00000001800901f0 f   libucrtd:debug_heap.obj
 0001:0008f230       _aligned_msize_dbg         0000000180090230 f   libucrtd:debug_heap.obj
 0001:0008f400       _aligned_offset_malloc_dbg 0000000180090400 f   libucrtd:debug_heap.obj
 0001:0008f6f0       _aligned_offset_realloc_dbg 00000001800906f0 f   libucrtd:debug_heap.obj
 0001:0008fba0       _aligned_offset_recalloc_dbg 0000000180090ba0 f   libucrtd:debug_heap.obj
 0001:0008fcc0       _aligned_realloc_dbg       0000000180090cc0 f   libucrtd:debug_heap.obj
 0001:0008fd10       _aligned_recalloc_dbg      0000000180090d10 f   libucrtd:debug_heap.obj
 0001:0008fd70       _calloc_dbg                0000000180090d70 f   libucrtd:debug_heap.obj
 0001:0008fe10       _expand_dbg                0000000180090e10 f   libucrtd:debug_heap.obj
 0001:0008ff40       _free_dbg                  0000000180090f40 f   libucrtd:debug_heap.obj
 0001:0008ffb0       _malloc_dbg                0000000180090fb0 f   libucrtd:debug_heap.obj
 0001:0008fff0       _msize_dbg                 0000000180090ff0 f   libucrtd:debug_heap.obj
 0001:00090190       _realloc_dbg               0000000180091190 f   libucrtd:debug_heap.obj
 0001:00090200       _recalloc_dbg              0000000180091200 f   libucrtd:debug_heap.obj
 0001:00090300       _initterm                  0000000180091300 f   libucrtd:initterm.obj
 0001:00090360       _initterm_e                0000000180091360 f   libucrtd:initterm.obj
 0001:000908b0       strcpy_s                   00000001800918b0 f   libucrtd:strcpy_s.obj
 0001:00090f50       strcat_s                   0000000180091f50 f   libucrtd:strcat_s.obj
 0001:00090f80       ??$?B$$A6AH_K@Z@__crt_fast_encoded_nullptr_t@@QEBAP6AH_K@ZXZ 0000000180091f80 f i libucrtd:new_handler.obj
 0001:00090fa0       ??$__crt_fast_decode_pointer@P6AH_K@Z@@YAP6AH_K@ZQ6AH0@Z@Z 0000000180091fa0 f i libucrtd:new_handler.obj
 0001:00090fe0       ??$__crt_fast_encode_pointer@P6AH_K@Z@@YAP6AH_K@ZQ6AH0@Z@Z 0000000180091fe0 f i libucrtd:new_handler.obj
 0001:00091020       ?_set_new_handler@@YAP6AH_K@ZH@Z 0000000180092020 f   libucrtd:new_handler.obj
 0001:00091090       ?initialize@?$dual_state_global@P6AH_K@Z@__crt_state_management@@QEAAXQ6AH_K@Z@Z 0000000180092090 f i libucrtd:new_handler.obj
 0001:000910e0       ?value@?$dual_state_global@P6AH_K@Z@__crt_state_management@@QEAAAEAP6AH_K@ZXZ 00000001800920e0 f i libucrtd:new_handler.obj
 0001:00091100       __acrt_initialize_new_handler 0000000180092100 f   libucrtd:new_handler.obj
 0001:00091120       _callnewh                  0000000180092120 f   libucrtd:new_handler.obj
 0001:00091170       _query_new_handler         0000000180092170 f   libucrtd:new_handler.obj
 0001:000911b0       _set_new_handler           00000001800921b0 f   libucrtd:new_handler.obj
 0001:00091260       _get_terminate             0000000180092260 f   libucrtd:terminate.obj
 0001:00091280       set_terminate              0000000180092280 f   libucrtd:terminate.obj
 0001:000912c0       terminate                  00000001800922c0 f   libucrtd:terminate.obj
 0001:000920c0       _makepath                  00000001800930c0 f   libucrtd:makepath.obj
 0001:00092110       _makepath_s                0000000180093110 f   libucrtd:makepath.obj
 0001:00092160       _wmakepath                 0000000180093160 f   libucrtd:makepath.obj
 0001:000921b0       _wmakepath_s               00000001800931b0 f   libucrtd:makepath.obj
 0001:000947e0       ??$tcsncpy_s@AEAPEAD_KAEAPEBDAEB_K@?$__crt_char_traits@D@@SAHAEAPEAD$$QEA_KAEAPEBDAEB_K@Z 00000001800957e0 f i libucrtd:splitpath.obj
 0001:00094830       ??$tcsncpy_s@AEAPEAD_KAEAPEBDH@?$__crt_char_traits@D@@SAHAEAPEAD$$QEA_KAEAPEBD$$QEAH@Z 0000000180095830 f i libucrtd:splitpath.obj
 0001:00094880       ??$tcsncpy_s@AEAPEA_W_KAEAPEB_WAEB_K@?$__crt_char_traits@_W@@SAHAEAPEA_W$$QEA_KAEAPEB_WAEB_K@Z 0000000180095880 f i libucrtd:splitpath.obj
 0001:000948d0       ??$tcsncpy_s@AEAPEA_W_KAEAPEB_WH@?$__crt_char_traits@_W@@SAHAEAPEA_W$$QEA_KAEAPEB_W$$QEAH@Z 00000001800958d0 f i libucrtd:splitpath.obj
 0001:00094b80       _splitpath                 0000000180095b80 f   libucrtd:splitpath.obj
 0001:00094bc0       _splitpath_s               0000000180095bc0 f   libucrtd:splitpath.obj
 0001:00094c60       _wsplitpath                0000000180095c60 f   libucrtd:splitpath.obj
 0001:00094ca0       _wsplitpath_s              0000000180095ca0 f   libucrtd:splitpath.obj
 0001:00094d40       _set_abort_behavior        0000000180095d40 f   libucrtd:abort.obj
 0001:00094d80       abort                      0000000180095d80 f   libucrtd:abort.obj
 0001:00094e10       strcmp                     0000000180095e10 f   libucrtd:strcmp.obj
 0001:00094e90       strlen                     0000000180095e90 f   libucrtd:strlen.obj
 0001:00094f40       ??$is_overflow_condition@K@__crt_strtox@@YA_NIK@Z 0000000180095f40 f i libucrtd:atox.obj
 0001:00094fb0       ??$is_overflow_condition@_K@__crt_strtox@@YA_NI_K@Z 0000000180095fb0 f i libucrtd:atox.obj
 0001:00095020       ??$make_c_string_character_source@D$$T@__crt_strtox@@YA?AV?$c_string_character_source@D@0@QEBD$$T@Z 0000000180096020 f i libucrtd:atox.obj
 0001:00095060       ??$make_c_string_character_source@_W$$T@__crt_strtox@@YA?AV?$c_string_character_source@_W@0@QEB_W$$T@Z 0000000180096060 f i libucrtd:atox.obj
 0001:000950a0       ??$parse_integer@KV?$c_string_character_source@D@__crt_strtox@@@__crt_strtox@@YAKQEAU__crt_locale_pointers@@V?$c_string_character_source@D@0@H_N@Z 00000001800960a0 f i libucrtd:atox.obj
 0001:00095530       ??$parse_integer@KV?$c_string_character_source@_W@__crt_strtox@@@__crt_strtox@@YAKQEAU__crt_locale_pointers@@V?$c_string_character_source@_W@0@H_N@Z 0000000180096530 f i libucrtd:atox.obj
 0001:000959e0       ??$parse_integer@_KV?$c_string_character_source@D@__crt_strtox@@@__crt_strtox@@YA_KQEAU__crt_locale_pointers@@V?$c_string_character_source@D@0@H_N@Z 00000001800969e0 f i libucrtd:atox.obj
 0001:00095f00       ??$parse_integer@_KV?$c_string_character_source@_W@__crt_strtox@@@__crt_strtox@@YA_KQEAU__crt_locale_pointers@@V?$c_string_character_source@_W@0@H_N@Z 0000000180096f00 f i libucrtd:atox.obj
 0001:00096420       ??$parse_integer_from_string@JD$$T@__crt_strtox@@YAJQEBD$$THQEAU__crt_locale_pointers@@@Z 0000000180097420 f i libucrtd:atox.obj
 0001:00096470       ??$parse_integer_from_string@J_W$$T@__crt_strtox@@YAJQEB_W$$THQEAU__crt_locale_pointers@@@Z 0000000180097470 f i libucrtd:atox.obj
 0001:000964c0       ??$parse_integer_from_string@_JD$$T@__crt_strtox@@YA_JQEBD$$THQEAU__crt_locale_pointers@@@Z 00000001800974c0 f i libucrtd:atox.obj
 0001:00096510       ??$parse_integer_from_string@_J_W$$T@__crt_strtox@@YA_JQEB_W$$THQEAU__crt_locale_pointers@@@Z 0000000180097510 f i libucrtd:atox.obj
 0001:00096560       ??0?$c_string_character_source@D@__crt_strtox@@QEAA@QEBDQEAPEBD@Z 0000000180097560 f i libucrtd:atox.obj
 0001:000965b0       ??0?$c_string_character_source@_W@__crt_strtox@@QEAA@QEB_WQEAPEB_W@Z 00000001800975b0 f i libucrtd:atox.obj
 0001:00096600       ??1?$c_string_character_source@D@__crt_strtox@@QEAA@XZ 0000000180097600 f i libucrtd:atox.obj
 0001:00096630       ??1?$c_string_character_source@_W@__crt_strtox@@QEAA@XZ 0000000180097630 f i libucrtd:atox.obj
 0001:00096660       ?get@?$c_string_character_source@D@__crt_strtox@@QEAADXZ 0000000180097660 f i libucrtd:atox.obj
 0001:000966a0       ?get@?$c_string_character_source@_W@__crt_strtox@@QEAA_WXZ 00000001800976a0 f i libucrtd:atox.obj
 0001:000966e0       ?is_space@__crt_strtox@@YA_NDQEAU__crt_locale_pointers@@@Z 00000001800976e0 f i libucrtd:atox.obj
 0001:00096730       ?is_space@__crt_strtox@@YA_N_WPEAU__crt_locale_pointers@@@Z 0000000180097730 f i libucrtd:atox.obj
 0001:00096770       ?maximum_signed_value@__crt_strtox@@YAJK@Z 0000000180097770 f i libucrtd:atox.obj
 0001:00096780       ?maximum_signed_value@__crt_strtox@@YA_J_K@Z 0000000180097780 f i libucrtd:atox.obj
 0001:00096790       ?minimum_signed_value@__crt_strtox@@YAJK@Z 0000000180097790 f i libucrtd:atox.obj
 0001:000967a0       ?minimum_signed_value@__crt_strtox@@YA_J_K@Z 00000001800977a0 f i libucrtd:atox.obj
 0001:000967b0       ?parse_digit@__crt_strtox@@YAID@Z 00000001800977b0 f i libucrtd:atox.obj
 0001:00096820       ?parse_digit@__crt_strtox@@YAI_W@Z 0000000180097820 f i libucrtd:atox.obj
 0001:00096870       ?restore_state@?$c_string_character_source@D@__crt_strtox@@QEAA_NQEBD@Z 0000000180097870 f i libucrtd:atox.obj
 0001:00096890       ?restore_state@?$c_string_character_source@_W@__crt_strtox@@QEAA_NQEB_W@Z 0000000180097890 f i libucrtd:atox.obj
 0001:000968b0       ?save_state@?$c_string_character_source@D@__crt_strtox@@QEBAPEBDXZ 00000001800978b0 f i libucrtd:atox.obj
 0001:000968c0       ?save_state@?$c_string_character_source@_W@__crt_strtox@@QEBAPEB_WXZ 00000001800978c0 f i libucrtd:atox.obj
 0001:000968d0       ?unget@?$c_string_character_source@D@__crt_strtox@@QEAAXD@Z 00000001800978d0 f i libucrtd:atox.obj
 0001:000969b0       ?unget@?$c_string_character_source@_W@__crt_strtox@@QEAAX_W@Z 00000001800979b0 f i libucrtd:atox.obj
 0001:00096a90       ?validate@?$c_string_character_source@D@__crt_strtox@@QEBA_NXZ 0000000180097a90 f i libucrtd:atox.obj
 0001:00096b50       ?validate@?$c_string_character_source@_W@__crt_strtox@@QEBA_NXZ 0000000180097b50 f i libucrtd:atox.obj
 0001:00096c10       ?wide_character_to_digit@__crt_strtox@@YAH_W@Z 0000000180097c10 f i libucrtd:atox.obj
 0001:00096f80       __ascii_iswalpha           0000000180097f80 f i libucrtd:atox.obj
 0001:00096fc0       __ascii_toupper            0000000180097fc0 f i libucrtd:atox.obj
 0001:00096fe0       __ascii_towupper           0000000180097fe0 f i libucrtd:atox.obj
 0001:00097000       _atoi64                    0000000180098000 f   libucrtd:atox.obj
 0001:00097030       _atoi64_l                  0000000180098030 f   libucrtd:atox.obj
 0001:00097060       _atoi_l                    0000000180098060 f   libucrtd:atox.obj
 0001:00097090       _atol_l                    0000000180098090 f   libucrtd:atox.obj
 0001:000970c0       _atoll_l                   00000001800980c0 f   libucrtd:atox.obj
 0001:000970f0       _wtoi                      00000001800980f0 f   libucrtd:atox.obj
 0001:00097120       _wtoi64                    0000000180098120 f   libucrtd:atox.obj
 0001:00097150       _wtoi64_l                  0000000180098150 f   libucrtd:atox.obj
 0001:00097180       _wtoi_l                    0000000180098180 f   libucrtd:atox.obj
 0001:000971b0       _wtol                      00000001800981b0 f   libucrtd:atox.obj
 0001:000971e0       _wtol_l                    00000001800981e0 f   libucrtd:atox.obj
 0001:00097210       _wtoll                     0000000180098210 f   libucrtd:atox.obj
 0001:00097240       _wtoll_l                   0000000180098240 f   libucrtd:atox.obj
 0001:00097270       atoi                       0000000180098270 f   libucrtd:atox.obj
 0001:000972a0       atol                       00000001800982a0 f   libucrtd:atox.obj
 0001:000972d0       atoll                      00000001800982d0 f   libucrtd:atox.obj
 0001:00097310       strncmp                    0000000180098310 f   libucrtd:strncmp.obj
 0001:00097390       wcsncmp                    0000000180098390 f   libucrtd:wcsncmp.obj
 0001:00097420       _CrtGetDebugFillThreshold  0000000180098420 f   libucrtd:debug_fill_threshold.obj
 0001:00097430       _CrtSetDebugFillThreshold  0000000180098430 f   libucrtd:debug_fill_threshold.obj
 0001:00097460       ??$make_c_string_character_source@DPEAPEAD@__crt_strtox@@YA?AV?$c_string_character_source@D@0@QEBDQEAPEAD@Z 0000000180098460 f i libucrtd:strtox.obj
 0001:000974a0       ??$make_c_string_character_source@_WPEAPEA_W@__crt_strtox@@YA?AV?$c_string_character_source@_W@0@QEB_WQEAPEA_W@Z 00000001800984a0 f i libucrtd:strtox.obj
 0001:000974e0       ??$parse_integer_from_string@JDPEAPEAD@__crt_strtox@@YAJQEBDQEAPEADHQEAU__crt_locale_pointers@@@Z 00000001800984e0 f i libucrtd:strtox.obj
 0001:00097530       ??$parse_integer_from_string@J_WPEAPEA_W@__crt_strtox@@YAJQEB_WQEAPEA_WHQEAU__crt_locale_pointers@@@Z 0000000180098530 f i libucrtd:strtox.obj
 0001:00097580       ??$parse_integer_from_string@KDPEAPEAD@__crt_strtox@@YAKQEBDQEAPEADHQEAU__crt_locale_pointers@@@Z 0000000180098580 f i libucrtd:strtox.obj
 0001:000975d0       ??$parse_integer_from_string@K_WPEAPEA_W@__crt_strtox@@YAKQEB_WQEAPEA_WHQEAU__crt_locale_pointers@@@Z 00000001800985d0 f i libucrtd:strtox.obj
 0001:00097620       ??$parse_integer_from_string@_JDPEAPEAD@__crt_strtox@@YA_JQEBDQEAPEADHQEAU__crt_locale_pointers@@@Z 0000000180098620 f i libucrtd:strtox.obj
 0001:00097670       ??$parse_integer_from_string@_J_WPEAPEA_W@__crt_strtox@@YA_JQEB_WQEAPEA_WHQEAU__crt_locale_pointers@@@Z 0000000180098670 f i libucrtd:strtox.obj
 0001:000976c0       ??$parse_integer_from_string@_KDPEAPEAD@__crt_strtox@@YA_KQEBDQEAPEADHQEAU__crt_locale_pointers@@@Z 00000001800986c0 f i libucrtd:strtox.obj
 0001:00097710       ??$parse_integer_from_string@_K_WPEAPEA_W@__crt_strtox@@YA_KQEB_WQEAPEA_WHQEAU__crt_locale_pointers@@@Z 0000000180098710 f i libucrtd:strtox.obj
 0001:00097760       _strtoi64                  0000000180098760 f   libucrtd:strtox.obj
 0001:00097790       _strtoi64_l                0000000180098790 f   libucrtd:strtox.obj
 0001:000977d0       _strtoimax_l               00000001800987d0 f   libucrtd:strtox.obj
 0001:00097810       _strtol_l                  0000000180098810 f   libucrtd:strtox.obj
 0001:00097850       _strtoll_l                 0000000180098850 f   libucrtd:strtox.obj
 0001:00097890       _strtoui64                 0000000180098890 f   libucrtd:strtox.obj
 0001:000978c0       _strtoui64_l               00000001800988c0 f   libucrtd:strtox.obj
 0001:00097900       _strtoul_l                 0000000180098900 f   libucrtd:strtox.obj
 0001:00097940       _strtoull_l                0000000180098940 f   libucrtd:strtox.obj
 0001:00097980       _strtoumax_l               0000000180098980 f   libucrtd:strtox.obj
 0001:000979c0       _wcstoi64                  00000001800989c0 f   libucrtd:strtox.obj
 0001:000979f0       _wcstoi64_l                00000001800989f0 f   libucrtd:strtox.obj
 0001:00097a30       _wcstoimax_l               0000000180098a30 f   libucrtd:strtox.obj
 0001:00097a70       _wcstol_l                  0000000180098a70 f   libucrtd:strtox.obj
 0001:00097ab0       _wcstoll_l                 0000000180098ab0 f   libucrtd:strtox.obj
 0001:00097af0       _wcstoui64                 0000000180098af0 f   libucrtd:strtox.obj
 0001:00097b20       _wcstoui64_l               0000000180098b20 f   libucrtd:strtox.obj
 0001:00097b60       _wcstoul_l                 0000000180098b60 f   libucrtd:strtox.obj
 0001:00097ba0       _wcstoull_l                0000000180098ba0 f   libucrtd:strtox.obj
 0001:00097be0       _wcstoumax_l               0000000180098be0 f   libucrtd:strtox.obj
 0001:00097c20       strtoimax                  0000000180098c20 f   libucrtd:strtox.obj
 0001:00097c50       strtol                     0000000180098c50 f   libucrtd:strtox.obj
 0001:00097c80       strtoll                    0000000180098c80 f   libucrtd:strtox.obj
 0001:00097cb0       strtoul                    0000000180098cb0 f   libucrtd:strtox.obj
 0001:00097ce0       strtoull                   0000000180098ce0 f   libucrtd:strtox.obj
 0001:00097d10       strtoumax                  0000000180098d10 f   libucrtd:strtox.obj
 0001:00097d40       wcstoimax                  0000000180098d40 f   libucrtd:strtox.obj
 0001:00097d70       wcstol                     0000000180098d70 f   libucrtd:strtox.obj
 0001:00097da0       wcstoll                    0000000180098da0 f   libucrtd:strtox.obj
 0001:00097dd0       wcstoul                    0000000180098dd0 f   libucrtd:strtox.obj
 0001:00097e00       wcstoull                   0000000180098e00 f   libucrtd:strtox.obj
 0001:00097e30       wcstoumax                  0000000180098e30 f   libucrtd:strtox.obj
 0001:00097e60       _mbtowc_l                  0000000180098e60 f   libucrtd:mbtowc.obj
 0001:000982c0       mbtowc                     00000001800992c0 f   libucrtd:mbtowc.obj
 0001:000982f0       _wctomb_l                  00000001800992f0 f   libucrtd:wctomb.obj
 0001:000983b0       _wctomb_s_l                00000001800993b0 f   libucrtd:wctomb.obj
 0001:00098930       wctomb                     0000000180099930 f   libucrtd:wctomb.obj
 0001:00098990       wctomb_s                   0000000180099990 f   libucrtd:wctomb.obj
 0001:000989e0       ??$?RU__acrt_ptd@@@__crt_internal_free_policy@@QEBAXQEBU__acrt_ptd@@@Z 00000001800999e0 f i libucrtd:per_thread_data.obj
 0001:00098de0       ??0?$__crt_unique_heap_ptr@U__acrt_ptd@@U__crt_internal_free_policy@@@@QEAA@QEAU__acrt_ptd@@@Z 0000000180099de0 f i libucrtd:per_thread_data.obj
 0001:00098e00       ??0__crt_scoped_get_last_error_reset@@QEAA@XZ 0000000180099e00 f i libucrtd:per_thread_data.obj
 0001:00098e20       ??1?$__crt_unique_heap_ptr@U__acrt_ptd@@U__crt_internal_free_policy@@@@QEAA@XZ 0000000180099e20 f i libucrtd:per_thread_data.obj
 0001:00098e40       ??1__crt_scoped_get_last_error_reset@@QEAA@XZ 0000000180099e40 f i libucrtd:per_thread_data.obj
 0001:00098e60       ??B?$__crt_unique_heap_ptr@U__acrt_ptd@@U__crt_internal_free_policy@@@@QEBA_NXZ 0000000180099e60 f i libucrtd:per_thread_data.obj
 0001:000991b0       ?dangerous_get_state_array@?$dual_state_global@PEAU__crt_locale_data@@@__crt_state_management@@QEAAPEAPEAU__crt_locale_data@@XZ 000000018009a1b0 f i libucrtd:per_thread_data.obj
 0001:00099370       ?detach@?$__crt_unique_heap_ptr@U__acrt_ptd@@U__crt_internal_free_policy@@@@QEAAPEAU__acrt_ptd@@XZ 000000018009a370 f i libucrtd:per_thread_data.obj
 0001:000993a0       ?get@?$__crt_unique_heap_ptr@U__acrt_ptd@@U__crt_internal_free_policy@@@@QEBAPEAU__acrt_ptd@@XZ 000000018009a3a0 f i libucrtd:per_thread_data.obj
 0001:000993b0       ?get_current_state_index@__crt_state_management@@YA_KAEBV__crt_scoped_get_last_error_reset@@@Z 000000018009a3b0 f i libucrtd:per_thread_data.obj
 0001:00099560       ?is_valid@?$__crt_unique_heap_ptr@U__acrt_ptd@@U__crt_internal_free_policy@@@@QEBA_NXZ 000000018009a560 f i libucrtd:per_thread_data.obj
 0001:00099590       ?release@?$__crt_unique_heap_ptr@U__acrt_ptd@@U__crt_internal_free_policy@@@@QEAAXXZ 000000018009a590 f i libucrtd:per_thread_data.obj
 0001:000996c0       ?value@?$dual_state_global@PEAU__crt_locale_data@@@__crt_state_management@@QEAAAEAPEAU__crt_locale_data@@XZ 000000018009a6c0 f i libucrtd:per_thread_data.obj
 0001:000996e0       __acrt_freeptd             000000018009a6e0 f   libucrtd:per_thread_data.obj
 0001:00099720       __acrt_getptd              000000018009a720 f   libucrtd:per_thread_data.obj
 0001:00099750       __acrt_getptd_head         000000018009a750 f   libucrtd:per_thread_data.obj
 0001:00099780       __acrt_getptd_noexit       000000018009a780 f   libucrtd:per_thread_data.obj
 0001:00099790       __acrt_initialize_ptd      000000018009a790 f   libucrtd:per_thread_data.obj
 0001:000997d0       __acrt_uninitialize_ptd    000000018009a7d0 f   libucrtd:per_thread_data.obj
 0001:00099800       __threadhandle             000000018009a800 f   libucrtd:per_thread_data.obj
 0001:00099810       __threadid                 000000018009a810 f   libucrtd:per_thread_data.obj
 0001:00099820       ?value@?$dual_state_global@PEAU__crt_multibyte_data@@@__crt_state_management@@QEAAAEAPEAU__crt_multibyte_data@@XZ 000000018009a820 f i libucrtd:locale_update.obj
 0001:00099840       __acrt_update_locale_info  000000018009a840 f   libucrtd:locale_update.obj
 0001:00099890       __acrt_update_multibyte_info 000000018009a890 f   libucrtd:locale_update.obj
 0001:000998e0       ?__acrt_fp_classify@@YA?AW4__acrt_fp_class@@AEBN@Z 000000018009a8e0 f i libucrtd:cvt.obj
 0001:000999e0       ?__acrt_fp_is_negative@@YA_NAEBN@Z 000000018009a9e0 f i libucrtd:cvt.obj
 0001:0009b090       ?strrchr@@YAPEADQEADH@Z    000000018009c090 f i libucrtd:cvt.obj
 0001:0009b0b0       __acrt_fp_format           000000018009c0b0 f   libucrtd:cvt.obj
 0001:0009b720       _fputwc_nolock             000000018009c720 f   libucrtd:fputwc.obj
 0001:0009b990       _fputwchar                 000000018009c990 f   libucrtd:fputwc.obj
 0001:0009b9c0       _putwc_nolock              000000018009c9c0 f   libucrtd:fputwc.obj
 0001:0009b9f0       fputwc                     000000018009c9f0 f   libucrtd:fputwc.obj
 0001:0009bae0       putwc                      000000018009cae0 f   libucrtd:fputwc.obj
 0001:0009bb10       putwchar                   000000018009cb10 f   libucrtd:fputwc.obj
 0001:0009bb30       ?lowio_handle@__crt_stdio_stream@@QEBAHXZ 000000018009cb30 f i libucrtd:fileno.obj
 0001:0009bb60       _fileno                    000000018009cb60 f   libucrtd:fileno.obj
 0001:0009bc40       ??$?RPEAU__crt_stdio_stream_data@@@__crt_internal_free_policy@@QEBAXQEBQEAU__crt_stdio_stream_data@@@Z 000000018009cc40 f i libucrtd:_file.obj
 0001:0009bc70       ??0?$__crt_unique_heap_ptr@PEAU__crt_stdio_stream_data@@U__crt_internal_free_policy@@@@QEAA@QEAPEAU__crt_stdio_stream_data@@@Z 000000018009cc70 f i libucrtd:_file.obj
 0001:0009bc90       ??1?$__crt_unique_heap_ptr@PEAU__crt_stdio_stream_data@@U__crt_internal_free_policy@@@@QEAA@XZ 000000018009cc90 f i libucrtd:_file.obj
 0001:0009bcb0       ?detach@?$__crt_unique_heap_ptr@PEAU__crt_stdio_stream_data@@U__crt_internal_free_policy@@@@QEAAPEAPEAU__crt_stdio_stream_data@@XZ 000000018009ccb0 f i libucrtd:_file.obj
 0001:0009bce0       ?release@?$__crt_unique_heap_ptr@PEAU__crt_stdio_stream_data@@U__crt_internal_free_policy@@@@QEAAXXZ 000000018009cce0 f i libucrtd:_file.obj
 0001:0009bd10       __acrt_initialize_stdio    000000018009cd10 f   libucrtd:_file.obj
 0001:0009bf00       __acrt_iob_func            000000018009cf00 f   libucrtd:_file.obj
 0001:0009bf20       __acrt_uninitialize_stdio  000000018009cf20 f   libucrtd:_file.obj
 0001:0009bfb0       _get_stream_buffer_pointers 000000018009cfb0 f   libucrtd:_file.obj
 0001:0009c0e0       _lock_file                 000000018009d0e0 f   libucrtd:_file.obj
 0001:0009c120       _unlock_file               000000018009d120 f   libucrtd:_file.obj
 0001:0009c160       _get_printf_count_output   000000018009d160 f   libucrtd:printf_count_output.obj
 0001:0009c190       _set_printf_count_output   000000018009d190 f   libucrtd:printf_count_output.obj
 0001:0009c200       ?has_any_buffer@__crt_stdio_stream@@QEBA_NXZ 000000018009d200 f i libucrtd:_sftbuf.obj
 0001:0009c220       ?has_any_of@__crt_stdio_stream@@QEBA_NJ@Z 000000018009d220 f i libucrtd:_sftbuf.obj
 0001:0009c260       ?has_temporary_buffer@__crt_stdio_stream@@QEBA_NXZ 000000018009d260 f i libucrtd:_sftbuf.obj
 0001:0009c280       ?set_flags@__crt_stdio_stream@@QEBA_NJ@Z 000000018009d280 f i libucrtd:_sftbuf.obj
 0001:0009c2f0       ?unset_flags@__crt_stdio_stream@@QEBA_NJ@Z 000000018009d2f0 f i libucrtd:_sftbuf.obj
 0001:0009c350       __acrt_stdio_begin_temporary_buffering_nolock 000000018009d350 f   libucrtd:_sftbuf.obj
 0001:0009c590       __acrt_stdio_end_temporary_buffering_nolock 000000018009d590 f   libucrtd:_sftbuf.obj
 0001:0009c640       ??$?RU__crt_locale_data@@@__crt_internal_free_policy@@QEBAXQEBU__crt_locale_data@@@Z 000000018009d640 f i libucrtd:wsetlocale.obj
 0001:0009c670       ??$?RU__crt_locale_pointers@@@__crt_internal_free_policy@@QEBAXQEBU__crt_locale_pointers@@@Z 000000018009d670 f i libucrtd:wsetlocale.obj
 0001:0009c6a0       ??$?RU__crt_multibyte_data@@@__crt_internal_free_policy@@QEBAXQEBU__crt_multibyte_data@@@Z 000000018009d6a0 f i libucrtd:wsetlocale.obj
 0001:0009cc00       ??0?$__crt_unique_heap_ptr@U__crt_locale_data@@U__crt_internal_free_policy@@@@QEAA@QEAU__crt_locale_data@@@Z 000000018009dc00 f i libucrtd:wsetlocale.obj
 0001:0009cc20       ??0?$__crt_unique_heap_ptr@U__crt_locale_pointers@@U__crt_internal_free_policy@@@@QEAA@QEAU__crt_locale_pointers@@@Z 000000018009dc20 f i libucrtd:wsetlocale.obj
 0001:0009cc40       ??0?$__crt_unique_heap_ptr@U__crt_multibyte_data@@U__crt_internal_free_policy@@@@QEAA@QEAU__crt_multibyte_data@@@Z 000000018009dc40 f i libucrtd:wsetlocale.obj
 0001:0009cc60       ??0_expandlocale_locale_name_cache@@QEAA@QEA_W_KQEAU__crt_qualified_locale_data@@@Z 000000018009dc60 f i libucrtd:wsetlocale.obj
 0001:0009cd10       ??1?$__crt_unique_heap_ptr@U__crt_locale_data@@U__crt_internal_free_policy@@@@QEAA@XZ 000000018009dd10 f i libucrtd:wsetlocale.obj
 0001:0009cd30       ??1?$__crt_unique_heap_ptr@U__crt_locale_pointers@@U__crt_internal_free_policy@@@@QEAA@XZ 000000018009dd30 f i libucrtd:wsetlocale.obj
 0001:0009cd50       ??1?$__crt_unique_heap_ptr@U__crt_multibyte_data@@U__crt_internal_free_policy@@@@QEAA@XZ 000000018009dd50 f i libucrtd:wsetlocale.obj
 0001:0009cd70       ??1_expandlocale_locale_name_cache@@QEAA@XZ 000000018009dd70 f i libucrtd:wsetlocale.obj
 0001:0009cdf0       ??B?$__crt_unique_heap_ptr@U__crt_locale_data@@U__crt_internal_free_policy@@@@QEBA_NXZ 000000018009ddf0 f i libucrtd:wsetlocale.obj
 0001:0009ce10       ??B?$__crt_unique_heap_ptr@U__crt_locale_pointers@@U__crt_internal_free_policy@@@@QEBA_NXZ 000000018009de10 f i libucrtd:wsetlocale.obj
 0001:0009ce30       ??B?$__crt_unique_heap_ptr@U__crt_multibyte_data@@U__crt_internal_free_policy@@@@QEBA_NXZ 000000018009de30 f i libucrtd:wsetlocale.obj
 0001:0009d2e0       ?commit_locale_name@_expandlocale_locale_name_cache@@QEAAXQEB_W_K@Z 000000018009e2e0 f i libucrtd:wsetlocale.obj
 0001:0009d360       ?commit_locale_name_cache_already_updated@_expandlocale_locale_name_cache@@QEAAXQEB_W_K@Z 000000018009e360 f i libucrtd:wsetlocale.obj
 0001:0009d3d0       ?detach@?$__crt_unique_heap_ptr@U__crt_locale_data@@U__crt_internal_free_policy@@@@QEAAPEAU__crt_locale_data@@XZ 000000018009e3d0 f i libucrtd:wsetlocale.obj
 0001:0009d400       ?detach@?$__crt_unique_heap_ptr@U__crt_locale_pointers@@U__crt_internal_free_policy@@@@QEAAPEAU__crt_locale_pointers@@XZ 000000018009e400 f i libucrtd:wsetlocale.obj
 0001:0009d430       ?detach@?$__crt_unique_heap_ptr@U__crt_multibyte_data@@U__crt_internal_free_policy@@@@QEAAPEAU__crt_multibyte_data@@XZ 000000018009e430 f i libucrtd:wsetlocale.obj
 0001:0009d460       ?get@?$__crt_unique_heap_ptr@U__crt_locale_data@@U__crt_internal_free_policy@@@@QEBAPEAU__crt_locale_data@@XZ 000000018009e460 f i libucrtd:wsetlocale.obj
 0001:0009d470       ?get@?$__crt_unique_heap_ptr@U__crt_locale_pointers@@U__crt_internal_free_policy@@@@QEBAPEAU__crt_locale_pointers@@XZ 000000018009e470 f i libucrtd:wsetlocale.obj
 0001:0009d480       ?get@?$__crt_unique_heap_ptr@U__crt_multibyte_data@@U__crt_internal_free_policy@@@@QEBAPEAU__crt_multibyte_data@@XZ 000000018009e480 f i libucrtd:wsetlocale.obj
 0001:0009d490       ?is_valid@?$__crt_unique_heap_ptr@U__crt_locale_data@@U__crt_internal_free_policy@@@@QEBA_NXZ 000000018009e490 f i libucrtd:wsetlocale.obj
 0001:0009d4c0       ?is_valid@?$__crt_unique_heap_ptr@U__crt_locale_pointers@@U__crt_internal_free_policy@@@@QEBA_NXZ 000000018009e4c0 f i libucrtd:wsetlocale.obj
 0001:0009d4f0       ?is_valid@?$__crt_unique_heap_ptr@U__crt_multibyte_data@@U__crt_internal_free_policy@@@@QEBA_NXZ 000000018009e4f0 f i libucrtd:wsetlocale.obj
 0001:0009d520       ?release@?$__crt_unique_heap_ptr@U__crt_locale_data@@U__crt_internal_free_policy@@@@QEAAXXZ 000000018009e520 f i libucrtd:wsetlocale.obj
 0001:0009d550       ?release@?$__crt_unique_heap_ptr@U__crt_locale_pointers@@U__crt_internal_free_policy@@@@QEAAXXZ 000000018009e550 f i libucrtd:wsetlocale.obj
 0001:0009d580       ?release@?$__crt_unique_heap_ptr@U__crt_multibyte_data@@U__crt_internal_free_policy@@@@QEAAXXZ 000000018009e580 f i libucrtd:wsetlocale.obj
 0001:0009d5b0       __acrt_copy_locale_name    000000018009e5b0 f   libucrtd:wsetlocale.obj
 0001:0009d680       __acrt_set_locale_changed  000000018009e680 f   libucrtd:wsetlocale.obj
 0001:0009d690       __acrt_uninitialize_locale 000000018009e690 f   libucrtd:wsetlocale.obj
 0001:0009d6c0       __ascii_tolower            000000018009e6c0 f i libucrtd:wsetlocale.obj
 0001:0009d6e0       __ascii_towlower           000000018009e6e0 f i libucrtd:wsetlocale.obj
 0001:0009d700       __lc_lctowcs               000000018009e700 f   libucrtd:wsetlocale.obj
 0001:0009d7f0       __lc_wcstolc               000000018009e7f0 f   libucrtd:wsetlocale.obj
 0001:0009dab0       _configthreadlocale        000000018009eab0 f   libucrtd:wsetlocale.obj
 0001:0009dc70       _create_locale             000000018009ec70 f   libucrtd:wsetlocale.obj
 0001:0009e370       _free_locale               000000018009f370 f   libucrtd:wsetlocale.obj
 0001:0009e460       _get_current_locale        000000018009f460 f   libucrtd:wsetlocale.obj
 0001:0009e570       _wcreate_locale            000000018009f570 f   libucrtd:wsetlocale.obj
 0001:0009e860       _wcscats                   000000018009f860 f   libucrtd:wsetlocale.obj
 0001:0009e940       _wsetlocale                000000018009f940 f   libucrtd:wsetlocale.obj
 0001:000a0560       __p___mb_cur_max           00000001800a1560 f   libucrtd:nlsdata.obj
 0001:000a0940       __acrt_initialize_lowio    00000001800a1940 f   libucrtd:ioinit.obj
 0001:000a0990       __acrt_uninitialize_lowio  00000001800a1990 f   libucrtd:ioinit.obj
 0001:000a0a10       _CrtGetReportHook          00000001800a1a10 f   libucrtd:dbgrptt.obj
 0001:000a0a20       _CrtSetReportFile          00000001800a1a20 f   libucrtd:dbgrptt.obj
 0001:000a0b80       _CrtSetReportHook          00000001800a1b80 f   libucrtd:dbgrptt.obj
 0001:000a0bb0       _CrtSetReportMode          00000001800a1bb0 f   libucrtd:dbgrptt.obj
 0001:000a0d60       _VCrtDbgReportA            00000001800a1d60 f   libucrtd:dbgrptt.obj
 0001:000a1740       _VCrtDbgReportW            00000001800a2740 f   libucrtd:dbgrptt.obj
 0001:000a22c0       _snprintf_s                00000001800a32c0 f i libucrtd:dbgrptt.obj
 0001:000a2330       _vsnprintf_s               00000001800a3330 f i libucrtd:dbgrptt.obj
 0001:000a2380       _vsnprintf_s_l             00000001800a3380 f i libucrtd:dbgrptt.obj
 0001:000a25a0       ??$__acrt_wcs_to_mbs_cp@U__crt_win32_buffer_no_resizing@@@@YAHQEB_WAEAV?$__crt_win32_buffer@DU__crt_win32_buffer_no_resizing@@@@I@Z 00000001800a35a0 f i libucrtd:getmodulefilenamea.obj
 0001:000a25f0       ??0?$__crt_win32_buffer@DU__crt_win32_buffer_no_resizing@@@@QEAA@QEAD_K@Z 00000001800a35f0 f i libucrtd:getmodulefilenamea.obj
 0001:000a2660       ??1?$__crt_win32_buffer@DU__crt_win32_buffer_no_resizing@@@@QEAA@XZ 00000001800a3660 f i libucrtd:getmodulefilenamea.obj
 0001:000a26f0       ?__acrt_get_utf8_acp_compatibility_codepage@@YAIXZ 00000001800a36f0 f i libucrtd:getmodulefilenamea.obj
 0001:000a2790       ?_deallocate@?$__crt_win32_buffer@DU__crt_win32_buffer_no_resizing@@@@AEAAXXZ 00000001800a3790 f i libucrtd:getmodulefilenamea.obj
 0001:000a27d0       ?allocate@?$__crt_win32_buffer@DU__crt_win32_buffer_no_resizing@@@@QEAAH_K@Z 00000001800a37d0 f i libucrtd:getmodulefilenamea.obj
 0001:000a2850       ?allocate@__crt_win32_buffer_no_resizing@@SAHQEAPEAX_KAEBV__crt_win32_buffer_empty_debug_info@@@Z 00000001800a3850 f i libucrtd:getmodulefilenamea.obj
 0001:000a2880       ?capacity@?$__crt_win32_buffer@DU__crt_win32_buffer_no_resizing@@@@QEBA_KXZ 00000001800a3880 f i libucrtd:getmodulefilenamea.obj
 0001:000a2890       ?data@?$__crt_win32_buffer@DU__crt_win32_buffer_no_resizing@@@@QEAAPEADXZ 00000001800a3890 f i libucrtd:getmodulefilenamea.obj
 0001:000a28a0       ?deallocate@__crt_win32_buffer_no_resizing@@SAXQEAXAEBV__crt_win32_buffer_empty_debug_info@@@Z 00000001800a38a0 f i libucrtd:getmodulefilenamea.obj
 0001:000a28b0       ?debug_info@?$__crt_win32_buffer@DU__crt_win32_buffer_no_resizing@@@@QEBAAEBV__crt_win32_buffer_empty_debug_info@@XZ 00000001800a38b0 f i libucrtd:getmodulefilenamea.obj
 0001:000a28c0       ?set_to_nullptr@?$__crt_win32_buffer@DU__crt_win32_buffer_no_resizing@@@@QEAAXXZ 00000001800a38c0 f i libucrtd:getmodulefilenamea.obj
 0001:000a2900       ?size@?$__crt_win32_buffer@DU__crt_win32_buffer_no_resizing@@@@QEAAX_K@Z 00000001800a3900 f i libucrtd:getmodulefilenamea.obj
 0001:000a2920       ?size@?$__crt_win32_buffer@DU__crt_win32_buffer_no_resizing@@@@QEBA_KXZ 00000001800a3920 f i libucrtd:getmodulefilenamea.obj
 0001:000a2930       __acrt_GetModuleFileNameA  00000001800a3930 f   libucrtd:getmodulefilenamea.obj
 0001:000a2c90       ??$message_box@$$TAEBQEBDAEBQEBDK@?$__crt_char_traits@D@@SAH$$QEA$$TAEBQEBD1$$QEAK@Z 00000001800a3c90 f i libucrtd:crtmbox.obj
 0001:000a2ce0       ??$message_box@$$TAEBQEB_WAEBQEB_WK@?$__crt_char_traits@_W@@SAH$$QEA$$TAEBQEB_W1$$QEAK@Z 00000001800a3ce0 f i libucrtd:crtmbox.obj
 0001:000a2d30       ??$message_box@PEAUHWND__@@AEBQEBDAEBQEBDAEBI@?$__crt_char_traits@D@@SAH$$QEAPEAUHWND__@@AEBQEBD1AEBI@Z 00000001800a3d30 f i libucrtd:crtmbox.obj
 0001:000a2d80       ??$message_box@PEAUHWND__@@AEBQEB_WAEBQEB_WAEBI@?$__crt_char_traits@_W@@SAH$$QEAPEAUHWND__@@AEBQEB_W1AEBI@Z 00000001800a3d80 f i libucrtd:crtmbox.obj
 0001:000a2dd0       ??$output_debug_string@AEBQEBD@?$__crt_char_traits@D@@SAXAEBQEBD@Z 00000001800a3dd0 f i libucrtd:crtmbox.obj
 0001:000a2df0       ??$output_debug_string@AEBQEB_W@?$__crt_char_traits@_W@@SAXAEBQEB_W@Z 00000001800a3df0 f i libucrtd:crtmbox.obj
 0001:000a2e10       __acrt_show_narrow_message_box 00000001800a3e10 f   libucrtd:crtmbox.obj
 0001:000a2e40       __acrt_show_wide_message_box 00000001800a3e40 f   libucrtd:crtmbox.obj
 0001:000a2e70       __acrt_initialize_locks    00000001800a3e70 f   libucrtd:locks.obj
 0001:000a2ee0       __acrt_lock                00000001800a3ee0 f   libucrtd:locks.obj
 0001:000a2f10       __acrt_uninitialize_locks  00000001800a3f10 f   libucrtd:locks.obj
 0001:000a2f70       __acrt_unlock              00000001800a3f70 f   libucrtd:locks.obj
 0001:000a2fa0       _lock_locales              00000001800a3fa0 f   libucrtd:locks.obj
 0001:000a2fc0       _unlock_locales            00000001800a3fc0 f   libucrtd:locks.obj
 0001:000a2fe0       ??$?B$$A6AXH@Z@__crt_fast_encoded_nullptr_t@@QEBAP6AXH@ZXZ 00000001800a3fe0 f i libucrtd:signal.obj
 0001:000a30a0       ??$__crt_fast_decode_pointer@P6AXH@Z@@YAP6AXH@ZQ6AXH@Z@Z 00000001800a40a0 f i libucrtd:signal.obj
 0001:000a30e0       ??$__crt_fast_encode_pointer@P6AXH@Z@@YAP6AXH@ZQ6AXH@Z@Z 00000001800a40e0 f i libucrtd:signal.obj
 0001:000a3360       ?initialize@?$dual_state_global@P6AXH@Z@__crt_state_management@@QEAAXQ6AXH@Z@Z 00000001800a4360 f i libucrtd:signal.obj
 0001:000a34e0       ?value@?$dual_state_global@P6AXH@Z@__crt_state_management@@QEAAAEAP6AXH@ZXZ 00000001800a44e0 f i libucrtd:signal.obj
 0001:000a3500       __acrt_get_sigabrt_handler 00000001800a4500 f   libucrtd:signal.obj
 0001:000a3530       __acrt_initialize_signal_handlers 00000001800a4530 f   libucrtd:signal.obj
 0001:000a3590       __fpecode                  00000001800a4590 f   libucrtd:signal.obj
 0001:000a35b0       __pxcptinfoptrs            00000001800a45b0 f   libucrtd:signal.obj
 0001:000a35d0       raise                      00000001800a45d0 f   libucrtd:signal.obj
 0001:000a3a90       signal                     00000001800a4a90 f   libucrtd:signal.obj
 0001:000a3d60       _msize                     00000001800a4d60 f   libucrtd:msize.obj
 0001:000a3d80       _msize_base                00000001800a4d80 f   libucrtd:msize.obj
 0001:000a3e50       _realloc_base              00000001800a4e50 f   libucrtd:realloc_base.obj
 0001:000a3f20       ??$?B$$A6AHPEA_WK_J@Z@__crt_fast_encoded_nullptr_t@@QEBAP6AHPEA_WK_J@ZXZ 00000001800a4f20 f i libucrtd:winapi_thunks.obj
 0001:000a3fe0       ??$__crt_fast_decode_pointer@P6AHPEA_WK_J@Z@@YAP6AHPEA_WK_J@ZQ6AH0K1@Z@Z 00000001800a4fe0 f i libucrtd:winapi_thunks.obj
 0001:000a4020       ??$__crt_fast_decode_pointer@PEAX@@YAPEAXQEAX@Z 00000001800a5020 f i libucrtd:winapi_thunks.obj
 0001:000a4060       ??$__crt_fast_encode_pointer@P6AHPEA_WK_J@Z@@YAP6AHPEA_WK_J@ZQ6AH0K1@Z@Z 00000001800a5060 f i libucrtd:winapi_thunks.obj
 0001:000a4cd0       GetCurrentThreadEffectiveToken 00000001800a5cd0 f i libucrtd:winapi_thunks.obj
 0001:000a4ce0       __acrt_AppPolicyGetProcessTerminationMethodInternal 00000001800a5ce0 f   libucrtd:winapi_thunks.obj
 0001:000a4d30       __acrt_AppPolicyGetShowDeveloperDiagnosticInternal 00000001800a5d30 f   libucrtd:winapi_thunks.obj
 0001:000a4d80       __acrt_AppPolicyGetThreadInitializationTypeInternal 00000001800a5d80 f   libucrtd:winapi_thunks.obj
 0001:000a4dd0       __acrt_AppPolicyGetWindowingModelInternal 00000001800a5dd0 f   libucrtd:winapi_thunks.obj
 0001:000a4e20       __acrt_AreFileApisANSI     00000001800a5e20 f   libucrtd:winapi_thunks.obj
 0001:000a4e60       __acrt_CompareStringEx     00000001800a5e60 f   libucrtd:winapi_thunks.obj
 0001:000a4f40       __acrt_EnumSystemLocalesEx 00000001800a5f40 f   libucrtd:winapi_thunks.obj
 0001:000a4fc0       __acrt_FlsAlloc            00000001800a5fc0 f   libucrtd:winapi_thunks.obj
 0001:000a5010       __acrt_FlsFree             00000001800a6010 f   libucrtd:winapi_thunks.obj
 0001:000a5060       __acrt_FlsGetValue         00000001800a6060 f   libucrtd:winapi_thunks.obj
 0001:000a50b0       __acrt_FlsSetValue         00000001800a60b0 f   libucrtd:winapi_thunks.obj
 0001:000a5110       __acrt_GetDateFormatEx     00000001800a6110 f   libucrtd:winapi_thunks.obj
 0001:000a51d0       __acrt_GetEnabledXStateFeatures 00000001800a61d0 f   libucrtd:winapi_thunks.obj
 0001:000a5210       __acrt_GetLocaleInfoEx     00000001800a6210 f   libucrtd:winapi_thunks.obj
 0001:000a5290       __acrt_GetSystemTimePreciseAsFileTime 00000001800a6290 f   libucrtd:winapi_thunks.obj
 0001:000a52e0       __acrt_GetTimeFormatEx     00000001800a62e0 f   libucrtd:winapi_thunks.obj
 0001:000a5390       __acrt_GetUserDefaultLocaleName 00000001800a6390 f   libucrtd:winapi_thunks.obj
 0001:000a53f0       __acrt_GetXStateFeaturesMask 00000001800a63f0 f   libucrtd:winapi_thunks.obj
 0001:000a5440       __acrt_InitializeCriticalSectionEx 00000001800a6440 f   libucrtd:winapi_thunks.obj
 0001:000a54a0       __acrt_IsValidLocaleName   00000001800a64a0 f   libucrtd:winapi_thunks.obj
 0001:000a5500       __acrt_LCIDToLocaleName    00000001800a6500 f   libucrtd:winapi_thunks.obj
 0001:000a5570       __acrt_LCMapStringEx       00000001800a6570 f   libucrtd:winapi_thunks.obj
 0001:000a5650       __acrt_LocaleNameToLCID    00000001800a6650 f   libucrtd:winapi_thunks.obj
 0001:000a56a0       __acrt_LocateXStateFeature 00000001800a66a0 f   libucrtd:winapi_thunks.obj
 0001:000a5700       __acrt_MessageBoxA         00000001800a6700 f   libucrtd:winapi_thunks.obj
 0001:000a5760       __acrt_MessageBoxW         00000001800a6760 f   libucrtd:winapi_thunks.obj
 0001:000a57c0       __acrt_RoInitialize        00000001800a67c0 f   libucrtd:winapi_thunks.obj
 0001:000a5800       __acrt_RoUninitialize      00000001800a6800 f   libucrtd:winapi_thunks.obj
 0001:000a5830       __acrt_RtlGenRandom        00000001800a6830 f   libucrtd:winapi_thunks.obj
 0001:000a5880       __acrt_SetThreadStackGuarantee 00000001800a6880 f   libucrtd:winapi_thunks.obj
 0001:000a58c0       __acrt_can_show_message_box 00000001800a68c0 f   libucrtd:winapi_thunks.obj
 0001:000a5900       __acrt_can_use_vista_locale_apis 00000001800a6900 f   libucrtd:winapi_thunks.obj
 0001:000a5930       __acrt_can_use_xstate_apis 00000001800a6930 f   libucrtd:winapi_thunks.obj
 0001:000a5960       __acrt_eagerly_load_locale_apis 00000001800a6960 f   libucrtd:winapi_thunks.obj
 0001:000a59a0       __acrt_get_parent_window   00000001800a69a0 f   libucrtd:winapi_thunks.obj
 0001:000a5a20       __acrt_initialize_winapi_thunks 00000001800a6a20 f   libucrtd:winapi_thunks.obj
 0001:000a5aa0       __acrt_is_interactive      00000001800a6aa0 f   libucrtd:winapi_thunks.obj
 0001:000a5b80       __acrt_uninitialize_winapi_thunks 00000001800a6b80 f   libucrtd:winapi_thunks.obj
 0001:000a5c20       _chvalidator               00000001800a6c20 f   libucrtd:isctype.obj
 0001:000a5c90       _chvalidator_l             00000001800a6c90 f   libucrtd:isctype.obj
 0001:000a5d40       _isctype                   00000001800a6d40 f   libucrtd:isctype.obj
 0001:000a5d90       _isctype_l                 00000001800a6d90 f   libucrtd:isctype.obj
 0001:000a5fc0       _isleadbyte_fast_internal  00000001800a6fc0 f i libucrtd:isctype.obj
 0001:000a5ff0       ??$?RU__crt_stdio_stream_data@@@__crt_internal_free_policy@@QEBAXQEBU__crt_stdio_stream_data@@@Z 00000001800a6ff0 f i libucrtd:stream.obj
 0001:000a6020       ??0?$__crt_unique_heap_ptr@U__crt_stdio_stream_data@@U__crt_internal_free_policy@@@@QEAA@QEAU__crt_stdio_stream_data@@@Z 00000001800a7020 f i libucrtd:stream.obj
 0001:000a6040       ??0__crt_stdio_stream@@QEAA@QEAU__crt_stdio_stream_data@@@Z 00000001800a7040 f i libucrtd:stream.obj
 0001:000a6060       ??0__crt_stdio_stream@@QEAA@XZ 00000001800a7060 f i libucrtd:stream.obj
 0001:000a6080       ??1?$__crt_unique_heap_ptr@U__crt_stdio_stream_data@@U__crt_internal_free_policy@@@@QEAA@XZ 00000001800a7080 f i libucrtd:stream.obj
 0001:000a60a0       ?__acrt_stdio_allocate_stream@@YA?AV__crt_stdio_stream@@XZ 00000001800a70a0 f   libucrtd:stream.obj
 0001:000a6160       ?__acrt_stdio_free_stream@@YAXV__crt_stdio_stream@@@Z 00000001800a7160 f   libucrtd:stream.obj
