 OPOSBillDispenser

 Timestamp is 5c43fcd0 (Sun Jan 20 13:45:04 2019)

 Preferred load address is 0000000180000000

 Start         Length     Name                   Class
 0001:00000000 00001400H .text$di                CODE
 0001:00001400 000c9850H .text$mn                CODE
 0001:000cac50 00000020H .text$mn$00             CODE
 0001:000cac70 00001340H .text$x                 CODE
 0001:000cbfb0 000001b4H .text$yd                CODE
 0002:00000000 00000700H .idata$5                DATA
 0002:00000700 00000010H .00cfg                  DATA
 0002:00000710 00000008H .CRT$XCA                DATA
 0002:00000718 00000008H .CRT$XCL                DATA
 0002:00000720 000000d8H .CRT$XCU                DATA
 0002:000007f8 00000008H .CRT$XCZ                DATA
 0002:00000800 00000008H .CRT$XIA                DATA
 0002:00000808 00000020H .CRT$XIC                DATA
 0002:00000828 00000008H .CRT$XIZ                DATA
 0002:00000830 00000008H .CRT$XLA                DATA
 0002:00000838 00000008H .CRT$XLZ                DATA
 0002:00000840 00000008H .CRT$XPA                DATA
 0002:00000848 00000010H .CRT$XPX                DATA
 0002:00000858 00000008H .CRT$XPXA               DATA
 0002:00000860 00000008H .CRT$XPZ                DATA
 0002:00000868 00000008H .CRT$XTA                DATA
 0002:00000870 00000010H .CRT$XTZ                DATA
 0002:00000878 00000000H .gfids$x                DATA
 0002:00000878 00000000H .gfids$y                DATA
 0002:00000880 00039570H .rdata                  DATA
 0002:00039df0 00000028H .rdata$T                DATA
 0002:00039e18 0000056cH .rdata$r                DATA
 0002:0003a384 00000424H .rdata$zzzdbg           DATA
 0002:0003a7a8 00000008H .rtc$IAA                DATA
 0002:0003a7b0 00000030H .rtc$IMZ                DATA
 0002:0003a7e0 00000008H .rtc$IZZ                DATA
 0002:0003a7e8 00000008H .rtc$TAA                DATA
 0002:0003a7f0 00000030H .rtc$TMZ                DATA
 0002:0003a820 00000008H .rtc$TZZ                DATA
 0002:0003a828 00000004H .tls                    DATA
 0002:0003a82c 00000004H .tls$                   DATA
 0002:0003a830 00000010H .tls$ZZZ                DATA
 0002:0003a840 00008f40H .xdata                  DATA
 0002:00043780 00000150H .xdata$x                DATA
 0002:000438d0 00000008H ATL$__a                 DATA
 0002:000438d8 00000008H ATL$__z                 DATA
 0002:000438e0 000000b0H .edata                  DATA
 0002:00043990 00000078H .idata$2                DATA
 0002:00043a08 00000018H .idata$3                DATA
 0002:00043a20 00000700H .idata$4                DATA
 0002:00044120 00000e22H .idata$6                DATA
 0003:00000000 00000e98H .data                   DATA
 0003:00000e98 00000198H .data$r                 DATA
 0003:00001030 00003e24H .bss                    DATA
 0004:00000000 0000b6a0H .pdata                  DATA
 0005:00000000 00000220H .rsrc$01                DATA
 0005:00000220 00003d88H .rsrc$02                DATA

  Address         Publics by Value              Rva+Base               Lib:Object

 0000:00000000       __guard_longjmp_table      0000000000000000     <absolute>
 0000:00000000       __guard_iat_table          0000000000000000     <absolute>
 0000:00000000       __hybrid_code_map          0000000000000000     <absolute>
 0000:00000000       __guard_longjmp_count      0000000000000000     <absolute>
 0000:00000000       ___safe_se_handler_count   0000000000000000     <absolute>
 0000:00000000       __guard_iat_count          0000000000000000     <absolute>
 0000:00000000       __dynamic_value_reloc_table 0000000000000000     <absolute>
 0000:00000000       __guard_fids_count         0000000000000000     <absolute>
 0000:00000000       ___safe_se_handler_table   0000000000000000     <absolute>
 0000:00000000       __guard_fids_table         0000000000000000     <absolute>
 0000:00000000       __hybrid_code_map_count    0000000000000000     <absolute>
 0000:00000000       __hybrid_auxiliary_iat     0000000000000000     <absolute>
 0000:00000000       __enclave_config           0000000000000000     <absolute>
 0000:00000000       __volatile_metadata        0000000000000000     <absolute>
 0000:00000100       __guard_flags              0000000000000100     <absolute>
 0000:00000000       __ImageBase                0000000180000000     <linker-defined>
 0001:00001400       ?_assert@@YAXPEB_W0I@Z     0000000180002400 f   Assert.obj
 0001:00001500       __local_stdio_printf_options 0000000180002500 f i Assert.obj
 0001:00001510       __vswprintf_l              0000000180002510 f i Assert.obj
 0001:00001570       _swprintf                  0000000180002570 f i Assert.obj
 0001:000015f0       _vswprintf_c_l             00000001800025f0 f i Assert.obj
 0001:00001680       _vswprintf_l               0000000180002680 f i Assert.obj
 0001:000016e0       ?cw_memcpy@@YAHPEADPEB_WH@Z 00000001800026e0 f   CWString.obj
 0001:00001770       ?cw_memcpy@@YAHPEA_WPEBDH@Z 0000000180002770 f   CWString.obj
 0001:000017f0       ?cw_memcpy@@YAHPEADPEBDH@Z 00000001800027f0 f   CWString.obj
 0001:00001890       ?cw_memcpy@@YAHPEA_WPEB_WH@Z 0000000180002890 f   CWString.obj
 0001:00001900       ?cw_memset@@YAXPEADDH@Z    0000000180002900 f   CWString.obj
 0001:00001970       ?cw_memset@@YAXPEA_W_WH@Z  0000000180002970 f   CWString.obj
 0001:00001a10       ?cw_strlen@@YAHPEBD@Z      0000000180002a10 f   CWString.obj
 0001:00001a80       ?cw_strlen@@YAHPEB_W@Z     0000000180002a80 f   CWString.obj
 0001:00001af0       ?cw_strcpy@@YAHPEADPEB_W@Z 0000000180002af0 f   CWString.obj
 0001:00001b40       ?cw_strcpy@@YAHPEA_WPEBD@Z 0000000180002b40 f   CWString.obj
 0001:00001b90       ?cw_strcpy@@YAHPEADPEBD@Z  0000000180002b90 f   CWString.obj
 0001:00001be0       ?cw_strcpy@@YAHPEA_WPEB_W@Z 0000000180002be0 f   CWString.obj
 0001:00001c30       ?cw_strcat@@YAHPEADPEB_W@Z 0000000180002c30 f   CWString.obj
 0001:00001c90       ?cw_strcat@@YAHPEA_WPEBD@Z 0000000180002c90 f   CWString.obj
 0001:00001cf0       ?cw_strcat@@YAHPEADPEBD@Z  0000000180002cf0 f   CWString.obj
 0001:00001d50       ?cw_strcat@@YAHPEA_WPEB_W@Z 0000000180002d50 f   CWString.obj
 0001:00001db0       ?cw_dup@@YAXPEBDAEAHAEAPEA_W1@Z 0000000180002db0 f   CWString.obj
 0001:00001ec0       ?cw_dup@@YAXPEB_WAEAHAEAPEAD1@Z 0000000180002ec0 f   CWString.obj
 0001:00001fb0       ?DupChar@_CW@@AEAAXXZ      0000000180002fb0 f   CWString.obj
 0001:00002010       ?DupWide@_CW@@AEAAXXZ      0000000180003010 f   CWString.obj
 0001:00002080       ?GetCharsMbcs@_CW@@QEAAHXZ 0000000180003080 f   CWString.obj
 0001:000020f0       ?GetCharsWide@_CW@@QEAAHXZ 00000001800030f0 f   CWString.obj
 0001:00002160       ?SetVARIANT_BOOL@OposVariant@@QEAAXF@Z 0000000180003160 f   OposVariant.obj
 0001:000021d0       ?SetVARIANT_BOOL_Ptr@OposVariant@@QEAAXPEAFAEAJ@Z 00000001800031d0 f   OposVariant.obj
 0001:00002240       ?GetLONG@OposVariant@@QEAAJXZ 0000000180003240 f   OposVariant.obj
 0001:000022a0       ?ChangeLONG@OposVariant@@QEAAXPEAJAEAJ@Z 00000001800032a0 f   OposVariant.obj
 0001:00002350       ?SetLONG@OposVariant@@QEAAXJ@Z 0000000180003350 f   OposVariant.obj
 0001:000023b0       ?SetLONG_Ptr@OposVariant@@QEAAXPEAJAEAJ@Z 00000001800033b0 f   OposVariant.obj
 0001:00002420       ?ChangeCURRENCY@OposVariant@@QEAAXPEATtagCY@@AEAJ@Z 0000000180003420 f   OposVariant.obj
 0001:000024d0       ?SetCURRENCY@OposVariant@@QEAAXTtagCY@@@Z 00000001800034d0 f   OposVariant.obj
 0001:00002530       ?SetCURRENCY_Ptr@OposVariant@@QEAAXPEATtagCY@@AEAJ@Z 0000000180003530 f   OposVariant.obj
 0001:000025a0       ?ChangeBSTR@OposVariant@@QEAAXPEAPEA_WAEAJ@Z 00000001800035a0 f   OposVariant.obj
 0001:00002650       ?SetBSTR@OposVariant@@QEAAXPEA_WAEAJ@Z 0000000180003650 f   OposVariant.obj
 0001:000026d0       ?SetBSTR_Copy@OposVariant@@QEAAXPEA_WAEAJ@Z 00000001800036d0 f   OposVariant.obj
 0001:00002780       ?SetBSTR_OutPtr@OposVariant@@QEAA_NPEAPEA_WAEAJ@Z 0000000180003780 f   OposVariant.obj
 0001:000027f0       ?SetBSTR_InOutPtr@OposVariant@@QEAA_NPEAPEA_WAEAJ@Z 00000001800037f0 f   OposVariant.obj
 0001:00002870       ?SetVARIANT@OposVariant@@QEAAXAEAUtagVARIANT@@GAEAJ@Z 0000000180003870 f   OposVariant.obj
 0001:00002910       ?SetVARIANT_Ptr@OposVariant@@QEAAXAEAPEAUtagVARIANT@@GAEAJ@Z 0000000180003910 f   OposVariant.obj
 0001:000029c0       ?SetString@OposVariant@@QEAAXPEB_WAEAJ@Z 00000001800039c0 f   OposVariant.obj
 0001:00002a70       ?SetDispatch_Ptr@OposVariant@@QEAAXPEAUIDispatch@@AEAJ@Z 0000000180003a70 f   OposVariant.obj
 0001:00002b00       ??0OposDispParms@@QEAA@PEAVOposVariant@@H@Z 0000000180003b00 f   OposVariant.obj
 0001:00002c10       ??1OposDispParms@@QEAA@XZ  0000000180003c10 f   OposVariant.obj
 0001:00002c60       ??$AtlMultiply@_K@ATL@@YAJPEA_K_K1@Z 0000000180003c60 f i OposVariant.obj
 0001:00002ce0       ??0?$CHeapPtr@_WVCCRTAllocator@ATL@@@ATL@@QEAA@XZ 0000000180003ce0 f i OposVariant.obj
 0001:00002d20       ??0?$CHeapPtrBase@_WVCCRTAllocator@ATL@@@ATL@@IEAA@XZ 0000000180003d20 f i OposVariant.obj
 0001:00002d40       ??0?$CSimpleArray@GV?$CSimpleArrayEqualHelper@G@ATL@@@ATL@@QEAA@XZ 0000000180003d40 f i OposVariant.obj
 0001:00002d80       ??0?$CTraceCategoryEx@$00$0A@@ATL@@QEAA@PEB_W@Z 0000000180003d80 f i OposVariant.obj
 0001:00002dc0       ??0?$CTraceCategoryEx@$01$0A@@ATL@@QEAA@PEB_W@Z 0000000180003dc0 f i OposVariant.obj
 0001:00002e00       ??0?$CTraceCategoryEx@$03$0A@@ATL@@QEAA@PEB_W@Z 0000000180003e00 f i OposVariant.obj
 0001:00002e40       ??0?$CTraceCategoryEx@$07$0A@@ATL@@QEAA@PEB_W@Z 0000000180003e40 f i OposVariant.obj
 0001:00002e80       ??0?$CTraceCategoryEx@$0BA@$0A@@ATL@@QEAA@PEB_W@Z 0000000180003e80 f i OposVariant.obj
 0001:00002ec0       ??0?$CTraceCategoryEx@$0BAA@$0A@@ATL@@QEAA@PEB_W@Z 0000000180003ec0 f i OposVariant.obj
 0001:00002f00       ??0?$CTraceCategoryEx@$0BAAA@$0A@@ATL@@QEAA@PEB_W@Z 0000000180003f00 f i OposVariant.obj
 0001:00002f40       ??0?$CTraceCategoryEx@$0BAAAA@$0A@@ATL@@QEAA@PEB_W@Z 0000000180003f40 f i OposVariant.obj
 0001:00002f80       ??0?$CTraceCategoryEx@$0BAAAAA@$0A@@ATL@@QEAA@PEB_W@Z 0000000180003f80 f i OposVariant.obj
 0001:00002fc0       ??0?$CTraceCategoryEx@$0CA@$0A@@ATL@@QEAA@PEB_W@Z 0000000180003fc0 f i OposVariant.obj
 0001:00003000       ??0?$CTraceCategoryEx@$0CAA@$0A@@ATL@@QEAA@PEB_W@Z 0000000180004000 f i OposVariant.obj
 0001:00003040       ??0?$CTraceCategoryEx@$0CAAA@$0A@@ATL@@QEAA@PEB_W@Z 0000000180004040 f i OposVariant.obj
 0001:00003080       ??0?$CTraceCategoryEx@$0CAAAA@$0A@@ATL@@QEAA@PEB_W@Z 0000000180004080 f i OposVariant.obj
 0001:000030c0       ??0?$CTraceCategoryEx@$0CAAAAA@$0A@@ATL@@QEAA@PEB_W@Z 00000001800040c0 f i OposVariant.obj
 0001:00003100       ??0?$CTraceCategoryEx@$0EA@$0A@@ATL@@QEAA@PEB_W@Z 0000000180004100 f i OposVariant.obj
 0001:00003140       ??0?$CTraceCategoryEx@$0EAA@$0A@@ATL@@QEAA@PEB_W@Z 0000000180004140 f i OposVariant.obj
 0001:00003180       ??0?$CTraceCategoryEx@$0EAAA@$0A@@ATL@@QEAA@PEB_W@Z 0000000180004180 f i OposVariant.obj
 0001:000031c0       ??0?$CTraceCategoryEx@$0EAAAA@$0A@@ATL@@QEAA@PEB_W@Z 00000001800041c0 f i OposVariant.obj
 0001:00003200       ??0?$CTraceCategoryEx@$0EAAAAA@$0A@@ATL@@QEAA@PEB_W@Z 0000000180004200 f i OposVariant.obj
 0001:00003240       ??0?$CTraceCategoryEx@$0IA@$0A@@ATL@@QEAA@PEB_W@Z 0000000180004240 f i OposVariant.obj
 0001:00003280       ??0?$CTraceCategoryEx@$0IAA@$0A@@ATL@@QEAA@PEB_W@Z 0000000180004280 f i OposVariant.obj
 0001:000032c0       ??0?$CTraceCategoryEx@$0IAAA@$0A@@ATL@@QEAA@PEB_W@Z 00000001800042c0 f i OposVariant.obj
 0001:00003300       ??0?$CTraceCategoryEx@$0IAAAA@$0A@@ATL@@QEAA@PEB_W@Z 0000000180004300 f i OposVariant.obj
 0001:00003340       ??0CAtlComModule@ATL@@QEAA@XZ 0000000180004340 f i OposVariant.obj
 0001:00003460       ??0CAtlWinModule@ATL@@QEAA@XZ 0000000180004460 f i OposVariant.obj
 0001:00003510       ??0CComCriticalSection@ATL@@QEAA@XZ 0000000180004510 f i OposVariant.obj
 0001:00003550       ??0CPreserveLastError@ATL@@QEAA@XZ 0000000180004550 f i OposVariant.obj
 0001:00003590       ??0CTraceFileAndLineInfo@ATL@@QEAA@PEBDH@Z 0000000180004590 f i OposVariant.obj
 0001:000035c0       ??0_ATL_COM_MODULE70@ATL@@QEAA@XZ 00000001800045c0 f i OposVariant.obj
 0001:00003600       ??0_ATL_WIN_MODULE70@ATL@@QEAA@XZ 0000000180004600 f i OposVariant.obj
 0001:00003650       ??1?$CHeapPtr@_WVCCRTAllocator@ATL@@@ATL@@QEAA@XZ 0000000180004650 f i OposVariant.obj
 0001:00003680       ??1?$CHeapPtrBase@_WVCCRTAllocator@ATL@@@ATL@@QEAA@XZ 0000000180004680 f i OposVariant.obj
 0001:000036b0       ??1?$CSimpleArray@GV?$CSimpleArrayEqualHelper@G@ATL@@@ATL@@QEAA@XZ 00000001800046b0 f i OposVariant.obj
 0001:000036e0       ??1CAtlComModule@ATL@@QEAA@XZ 00000001800046e0 f i OposVariant.obj
 0001:00003720       ??1CAtlWinModule@ATL@@QEAA@XZ 0000000180004720 f i OposVariant.obj
 0001:00003760       ??1CComBSTR@ATL@@QEAA@XZ   0000000180004760 f i OposVariant.obj
 0001:000037a0       ??1CComCriticalSection@ATL@@QEAA@XZ 00000001800047a0 f i OposVariant.obj
 0001:000037b0       ??1CPreserveLastError@ATL@@QEAA@XZ 00000001800047b0 f i OposVariant.obj
 0001:000037f0       ??1_ATL_COM_MODULE70@ATL@@QEAA@XZ 00000001800047f0 f i OposVariant.obj
 0001:00003830       ??1_ATL_WIN_MODULE70@ATL@@QEAA@XZ 0000000180004830 f i OposVariant.obj
 0001:00003880       ??1stringdispid@CComTypeInfoHolder@ATL@@QEAA@XZ 0000000180004880 f i OposVariant.obj
 0001:000038c0       ??A?$CSimpleArray@GV?$CSimpleArrayEqualHelper@G@ATL@@@ATL@@QEAAAEAGH@Z 00000001800048c0 f i OposVariant.obj
 0001:00003970       ??B?$CHeapPtrBase@_WVCCRTAllocator@ATL@@@ATL@@QEBAPEA_WXZ 0000000180004970 f i OposVariant.obj
 0001:00003980       ??B?$CTraceCategoryEx@$01$0A@@ATL@@QEAAIXZ 0000000180004980 f i OposVariant.obj
 0001:00003990       ??B?$CTraceCategoryEx@$0CA@$0A@@ATL@@QEAAIXZ 0000000180004990 f i OposVariant.obj
 0001:000039a0       ??RCTraceFileAndLineInfo@ATL@@QEBAXHIPEB_WZZ 00000001800049a0 f i OposVariant.obj
 0001:00003a50       ??_Estringdispid@CComTypeInfoHolder@ATL@@QEAAPEAXI@Z 0000000180004a50 f i OposVariant.obj
 0001:00003b00       ??_H@YAXPEAX_K1P6APEAX0@Z@Z 0000000180004b00 f i OposVariant.obj
 0001:00003b90       ??_I@YAXPEAX_K1P6AX0@Z@Z   0000000180004b90 f i OposVariant.obj
 0001:00003c40       ?Allocate@?$CHeapPtr@_WVCCRTAllocator@ATL@@@ATL@@QEAA_N_K@Z 0000000180004c40 f i OposVariant.obj
 0001:00003cc0       ?Allocate@CCRTAllocator@ATL@@SAPEAX_K@Z 0000000180004cc0 f i OposVariant.obj
 0001:00003cf0       ?AllocateBytes@?$CHeapPtrBase@_WVCCRTAllocator@ATL@@@ATL@@QEAA_N_K@Z 0000000180004cf0 f i OposVariant.obj
 0001:00003d90       ?AtlWinModuleInit@ATL@@YAJPEAU_ATL_WIN_MODULE70@1@@Z 0000000180004d90 f i OposVariant.obj
 0001:00003e90       ?AtlWinModuleTerm@ATL@@YAJPEAU_ATL_WIN_MODULE70@1@PEAUHINSTANCE__@@@Z 0000000180004e90 f i OposVariant.obj
 0001:00003f80       ?Clear@OposVariant@@QEAAJXZ 0000000180004f80 f i OposVariant.obj
 0001:00003fc0       ?Free@?$CHeapPtrBase@_WVCCRTAllocator@ATL@@@ATL@@QEAAXXZ 0000000180004fc0 f i OposVariant.obj
 0001:00004000       ?Free@CCRTAllocator@ATL@@SAXPEAX@Z 0000000180005000 f i OposVariant.obj
 0001:00004030       ?GetCategoryName@CTrace@ATL@@CAPEA_WI@Z 0000000180005030 f i OposVariant.obj
 0001:000040b0       ?GetModuleInstance@CAtlBaseModule@ATL@@QEAAPEAUHINSTANCE__@@XZ 00000001800050b0 f i OposVariant.obj
 0001:000040d0       ?GetSize@?$CSimpleArray@GV?$CSimpleArrayEqualHelper@G@ATL@@@ATL@@QEBAHXZ 00000001800050d0 f i OposVariant.obj
 0001:000040e0       ?Init@CComCriticalSection@ATL@@QEAAJXZ 00000001800050e0 f i OposVariant.obj
 0001:00004140       ?RegisterCategory@CTrace@ATL@@SAXPEB_WI@Z 0000000180005140 f i OposVariant.obj
 0001:00004220       ?RemoveAll@?$CSimpleArray@GV?$CSimpleArrayEqualHelper@G@ATL@@@ATL@@QEAAXXZ 0000000180005220 f i OposVariant.obj
 0001:000042b0       ?Term@CAtlComModule@ATL@@QEAAXXZ 00000001800052b0 f i OposVariant.obj
 0001:00004390       ?Term@CAtlWinModule@ATL@@QEAAXXZ 0000000180005390 f i OposVariant.obj
 0001:000043d0       ?Term@CComCriticalSection@ATL@@QEAAJXZ 00000001800053d0 f i OposVariant.obj
 0001:00004410       ?TraceV@CTrace@ATL@@CAXPEBDHIIPEB_W@Z 0000000180005410 f i OposVariant.obj
 0001:000046c0       ?TraceV@CTrace@ATL@@SAXPEBDHIIPEB_WPEAD@Z 00000001800056c0 f i OposVariant.obj
 0001:00004870       ?_AtlInitializeCriticalSectionEx@ATL@@YAHPEAU_RTL_CRITICAL_SECTION@@KK@Z 0000000180005870 f i OposVariant.obj
 0001:000048c0       ?_AtlRaiseException@ATL@@YAXKK@Z 00000001800058c0 f i OposVariant.obj
 0001:00004900       HRESULT_FROM_WIN32         0000000180005900 f i OposVariant.obj
 0001:00004950       _vswprintf_s_l             0000000180005950 f i OposVariant.obj
 0001:000049e0       swprintf_s                 00000001800059e0 f i OposVariant.obj
 0001:00004a70       ?ObjectMain@CComObjectRootBase@ATL@@SAX_N@Z 0000000180005a70 f i BillDispenser.obj
 0001:00004a80       ?GetCategoryMap@CComObjectRootBase@ATL@@SAPEBU_ATL_CATMAP_ENTRY@2@XZ 0000000180005a80 f i BillDispenser.obj
 0001:00004a90       ?GetObjectDescription@?$CComCoClass@VCOPOSBillDispenser@@$1?CLSID_OPOSBillDispenser@@3U_GUID@@B@ATL@@SAPEB_WXZ 0000000180005a90 f i BillDispenser.obj
 0001:00004aa0       ?UpdateRegistry@COPOSBillDispenser@@SAJH@Z 0000000180005aa0 f i BillDispenser.obj
 0001:00004ae0       ?CreateInstance@?$CComCreator@V?$CComObjectCached@VCComClassFactory@ATL@@@ATL@@@ATL@@SAJPEAXAEBU_GUID@@PEAPEAX@Z 0000000180005ae0 f i BillDispenser.obj
 0001:00004ce0       ?CreateInstance@?$CComCreator2@V?$CComCreator@V?$CComObject@VCOPOSBillDispenser@@@ATL@@@ATL@@V?$CComCreator@V?$CComAggObject@VCOPOSBillDispenser@@@ATL@@@2@@ATL@@SAJPEAXAEBU_GUID@@PEAPEAX@Z 0000000180005ce0 f i BillDispenser.obj
 0001:00004ef0       DllGetClassObject          0000000180005ef0 f   BillDispenser.obj
 0001:00004f40       DllCanUnloadNow            0000000180005f40 f   BillDispenser.obj
 0001:00004f90       DllRegisterServer          0000000180005f90 f   BillDispenser.obj
 0001:00004fd0       DllUnregisterServer        0000000180005fd0 f   BillDispenser.obj
 0001:000051d0       DllMain                    00000001800061d0 f   BillDispenser.obj
 0001:00005250       ??$?2G@Wrapper@?$CSimpleArray@GV?$CSimpleArrayEqualHelper@G@ATL@@@ATL@@SAPEAX_KPEAG@Z 0000000180006250 f i BillDispenser.obj
 0001:00005270       ??$?2PEA_W@?$Wrapper@PEA_W@?$CSimpleMap@PEA_WPEA_WVCExpansionVectorEqualHelper@ATL@@@ATL@@SAPEAX_KPEAPEA_W@Z 0000000180006270 f i BillDispenser.obj
 0001:00005290       ??$?4UITypeInfo2@@@?$CComPtr@UITypeInfo@@@ATL@@QEAAPEAUITypeInfo@@AEBV?$CComPtr@UITypeInfo2@@@1@@Z 0000000180006290 f i BillDispenser.obj
 0001:00005300       ??$AtlAdd@_K@ATL@@YAJPEA_K_K1@Z 0000000180006300 f i BillDispenser.obj
 0001:00005370       ??$AtlAddThrow@_K@ATL@@YA_K_K0@Z 0000000180006370 f i BillDispenser.obj
 0001:000053e0       ??$AtlModuleRegisterWndClassInfoT@VAtlModuleRegisterWndClassInfoParamW@ATL@@@ATL@@YAGPEAU_ATL_BASE_MODULE70@0@PEAU_ATL_WIN_MODULE70@0@PEAU_ATL_WNDCLASSINFOW@0@PEAP6A_JPEAUHWND__@@I_K_J@ZVAtlModuleRegisterWndClassInfoParamW@0@@Z 00000001800063e0 f i BillDispenser.obj
 0001:000059b0       ??$AtlMultiply@H@ATL@@YAJPEAHHH@Z 00000001800069b0 f i BillDispenser.obj
 0001:00005a20       ??$AtlMultiply@K@ATL@@YAJPEAKKK@Z 0000000180006a20 f i BillDispenser.obj
 0001:00005a90       ??$AtlMultiplyThrow@_K@ATL@@YA_K_K0@Z 0000000180006a90 f i BillDispenser.obj
 0001:00005b00       ??$QueryInterface@UIPersistStream@@@IUnknown@@QEAAJPEAPEAUIPersistStream@@@Z 0000000180006b00 f i BillDispenser.obj
 0001:00005b50       ??$QueryInterface@UITypeInfo2@@@IUnknown@@QEAAJPEAPEAUITypeInfo2@@@Z 0000000180006b50 f i BillDispenser.obj
 0001:00005ba0       ??0?$CAtlModuleT@VCComModule@ATL@@@ATL@@QEAA@XZ 0000000180006ba0 f i BillDispenser.obj
 0001:00005be0       ??0?$CAtlSafeAllocBufferManager@VCCRTAllocator@ATL@@@_ATL_SAFE_ALLOCA_IMPL@ATL@@QEAA@XZ 0000000180006be0 f i BillDispenser.obj
 0001:00005c00       ??0?$CAutoVectorPtr@_W@ATL@@QEAA@XZ 0000000180006c00 f i BillDispenser.obj
 0001:00005c20       ??0?$CComAggObject@VCOPOSBillDispenser@@@ATL@@QEAA@PEAX@Z 0000000180006c20 f i BillDispenser.obj
 0001:00005cb0       ??0?$CComContainedObject@VCOPOSBillDispenser@@@ATL@@QEAA@PEAX@Z 0000000180006cb0 f i BillDispenser.obj
 0001:00005e50       ??0?$CComCritSecLock@VCComCriticalSection@ATL@@@ATL@@QEAA@AEAVCComCriticalSection@1@_N@Z 0000000180006e50 f i BillDispenser.obj
 0001:00005ec0       ??0?$CComEnum@UIEnumConnectionPoints@@$1?_GUID_b196b285_bab4_101a_b69c_00aa00341d07@@3U__s_GUID@@BPEAUIConnectionPoint@@V?$_CopyInterface@UIConnectionPoint@@@ATL@@VCComSingleThreadModel@6@@ATL@@QEAA@XZ 0000000180006ec0 f i BillDispenser.obj
 0001:00005f10       ??0?$CComEnum@UIEnumConnections@@$1?_GUID_b196b287_bab4_101a_b69c_00aa00341d07@@3U__s_GUID@@BUtagCONNECTDATA@@V?$_Copy@UtagCONNECTDATA@@@ATL@@VCComSingleThreadModel@6@@ATL@@QEAA@XZ 0000000180006f10 f i BillDispenser.obj
 0001:00005f60       ??0?$CComEnumImpl@UIEnumConnectionPoints@@$1?_GUID_b196b285_bab4_101a_b69c_00aa00341d07@@3U__s_GUID@@BPEAUIConnectionPoint@@V?$_CopyInterface@UIConnectionPoint@@@ATL@@@ATL@@QEAA@XZ 0000000180006f60 f i BillDispenser.obj
 0001:00005fe0       ??0?$CComEnumImpl@UIEnumConnections@@$1?_GUID_b196b287_bab4_101a_b69c_00aa00341d07@@3U__s_GUID@@BUtagCONNECTDATA@@V?$_Copy@UtagCONNECTDATA@@@ATL@@@ATL@@QEAA@XZ 0000000180006fe0 f i BillDispenser.obj
 0001:00006060       ??0?$CComObject@V?$CComEnum@UIEnumConnectionPoints@@$1?_GUID_b196b285_bab4_101a_b69c_00aa00341d07@@3U__s_GUID@@BPEAUIConnectionPoint@@V?$_CopyInterface@UIConnectionPoint@@@ATL@@VCComSingleThreadModel@6@@ATL@@@ATL@@QEAA@PEAX@Z 0000000180007060 f i BillDispenser.obj
 0001:000060c0       ??0?$CComObject@V?$CComEnum@UIEnumConnections@@$1?_GUID_b196b287_bab4_101a_b69c_00aa00341d07@@3U__s_GUID@@BUtagCONNECTDATA@@V?$_Copy@UtagCONNECTDATA@@@ATL@@VCComSingleThreadModel@6@@ATL@@@ATL@@QEAA@PEAX@Z 00000001800070c0 f i BillDispenser.obj
 0001:00006120       ??0?$CComObject@VCOPOSBillDispenser@@@ATL@@QEAA@PEAX@Z 0000000180007120 f i BillDispenser.obj
 0001:000062c0       ??0?$CComObjectCached@VCComClassFactory@ATL@@@ATL@@QEAA@PEAX@Z 00000001800072c0 f i BillDispenser.obj
 0001:00006310       ??0?$CComObjectRootEx@VCComMultiThreadModel@ATL@@@ATL@@QEAA@XZ 0000000180007310 f i BillDispenser.obj
 0001:00006360       ??0?$CComObjectRootEx@VCComSingleThreadModel@ATL@@@ATL@@QEAA@XZ 0000000180007360 f i BillDispenser.obj
 0001:000063a0       ??0?$CComPtr@UIAdviseSink@@@ATL@@QEAA@PEAUIAdviseSink@@@Z 00000001800073a0 f i BillDispenser.obj
 0001:000063e0       ??0?$CComPtr@UICatRegister@@@ATL@@QEAA@XZ 00000001800073e0 f i BillDispenser.obj
 0001:00006420       ??0?$CComPtr@UIConnectionPoint@@@ATL@@QEAA@XZ 0000000180007420 f i BillDispenser.obj
 0001:00006460       ??0?$CComPtr@UIConnectionPointContainer@@@ATL@@QEAA@XZ 0000000180007460 f i BillDispenser.obj
 0001:000064a0       ??0?$CComPtr@UIDataObject@@@ATL@@QEAA@XZ 00000001800074a0 f i BillDispenser.obj
 0001:000064e0       ??0?$CComPtr@UIDispatch@@@ATL@@QEAA@XZ 00000001800074e0 f i BillDispenser.obj
 0001:00006520       ??0?$CComPtr@UIOleClientSite@@@ATL@@QEAA@PEAUIOleClientSite@@@Z 0000000180007520 f i BillDispenser.obj
 0001:00006560       ??0?$CComPtr@UIOleControlSite@@@ATL@@QEAA@XZ 0000000180007560 f i BillDispenser.obj
 0001:000065a0       ??0?$CComPtr@UIOleInPlaceActiveObject@@@ATL@@QEAA@XZ 00000001800075a0 f i BillDispenser.obj
 0001:000065e0       ??0?$CComPtr@UIOleInPlaceFrame@@@ATL@@QEAA@XZ 00000001800075e0 f i BillDispenser.obj
 0001:00006620       ??0?$CComPtr@UIOleInPlaceObject@@@ATL@@QEAA@XZ 0000000180007620 f i BillDispenser.obj
 0001:00006660       ??0?$CComPtr@UIOleInPlaceUIWindow@@@ATL@@QEAA@XZ 0000000180007660 f i BillDispenser.obj
 0001:000066a0       ??0?$CComPtr@UIOleObject@@@ATL@@QEAA@XZ 00000001800076a0 f i BillDispenser.obj
 0001:000066e0       ??0?$CComPtr@UIPersistStream@@@ATL@@QEAA@XZ 00000001800076e0 f i BillDispenser.obj
 0001:00006720       ??0?$CComPtr@UIPersistStreamInit@@@ATL@@QEAA@XZ 0000000180007720 f i BillDispenser.obj
 0001:00006760       ??0?$CComPtr@UIPointerInactive@@@ATL@@QEAA@XZ 0000000180007760 f i BillDispenser.obj
 0001:000067a0       ??0?$CComPtr@UIProvideClassInfo2@@@ATL@@QEAA@XZ 00000001800077a0 f i BillDispenser.obj
 0001:000067e0       ??0?$CComPtr@UISpecifyPropertyPages@@@ATL@@QEAA@XZ 00000001800077e0 f i BillDispenser.obj
 0001:00006820       ??0?$CComPtr@UIStream@@@ATL@@QEAA@XZ 0000000180007820 f i BillDispenser.obj
 0001:00006860       ??0?$CComPtr@UITypeInfo2@@@ATL@@QEAA@XZ 0000000180007860 f i BillDispenser.obj
 0001:000068a0       ??0?$CComPtr@UITypeInfo@@@ATL@@QEAA@AEBV01@@Z 00000001800078a0 f i BillDispenser.obj
 0001:000068e0       ??0?$CComPtr@UITypeInfo@@@ATL@@QEAA@XZ 00000001800078e0 f i BillDispenser.obj
 0001:00006920       ??0?$CComPtr@UITypeLib@@@ATL@@QEAA@XZ 0000000180007920 f i BillDispenser.obj
 0001:00006960       ??0?$CComPtr@UIUnknown@@@ATL@@QEAA@AEBV01@@Z 0000000180007960 f i BillDispenser.obj
 0001:000069a0       ??0?$CComPtr@UIUnknown@@@ATL@@QEAA@PEAUIUnknown@@@Z 00000001800079a0 f i BillDispenser.obj
 0001:000069e0       ??0?$CComPtr@UIUnknown@@@ATL@@QEAA@XZ 00000001800079e0 f i BillDispenser.obj
 0001:00006a20       ??0?$CComPtr@UIViewObjectEx@@@ATL@@QEAA@XZ 0000000180007a20 f i BillDispenser.obj
 0001:00006a60       ??0?$CComPtrBase@UIAdviseSink@@@ATL@@IEAA@PEAUIAdviseSink@@@Z 0000000180007a60 f i BillDispenser.obj
 0001:00006ac0       ??0?$CComPtrBase@UICatRegister@@@ATL@@IEAA@XZ 0000000180007ac0 f i BillDispenser.obj
 0001:00006ae0       ??0?$CComPtrBase@UIConnectionPoint@@@ATL@@IEAA@XZ 0000000180007ae0 f i BillDispenser.obj
 0001:00006b00       ??0?$CComPtrBase@UIConnectionPointContainer@@@ATL@@IEAA@XZ 0000000180007b00 f i BillDispenser.obj
 0001:00006b20       ??0?$CComPtrBase@UIDataObject@@@ATL@@IEAA@XZ 0000000180007b20 f i BillDispenser.obj
 0001:00006b40       ??0?$CComPtrBase@UIDispatch@@@ATL@@IEAA@XZ 0000000180007b40 f i BillDispenser.obj
 0001:00006b60       ??0?$CComPtrBase@UIOleClientSite@@@ATL@@IEAA@PEAUIOleClientSite@@@Z 0000000180007b60 f i BillDispenser.obj
 0001:00006bc0       ??0?$CComPtrBase@UIOleControlSite@@@ATL@@IEAA@XZ 0000000180007bc0 f i BillDispenser.obj
 0001:00006be0       ??0?$CComPtrBase@UIOleInPlaceActiveObject@@@ATL@@IEAA@XZ 0000000180007be0 f i BillDispenser.obj
 0001:00006c00       ??0?$CComPtrBase@UIOleInPlaceFrame@@@ATL@@IEAA@XZ 0000000180007c00 f i BillDispenser.obj
 0001:00006c20       ??0?$CComPtrBase@UIOleInPlaceObject@@@ATL@@IEAA@XZ 0000000180007c20 f i BillDispenser.obj
 0001:00006c40       ??0?$CComPtrBase@UIOleInPlaceUIWindow@@@ATL@@IEAA@XZ 0000000180007c40 f i BillDispenser.obj
 0001:00006c60       ??0?$CComPtrBase@UIOleObject@@@ATL@@IEAA@XZ 0000000180007c60 f i BillDispenser.obj
 0001:00006c80       ??0?$CComPtrBase@UIPersistStream@@@ATL@@IEAA@XZ 0000000180007c80 f i BillDispenser.obj
 0001:00006ca0       ??0?$CComPtrBase@UIPersistStreamInit@@@ATL@@IEAA@XZ 0000000180007ca0 f i BillDispenser.obj
 0001:00006cc0       ??0?$CComPtrBase@UIPointerInactive@@@ATL@@IEAA@XZ 0000000180007cc0 f i BillDispenser.obj
 0001:00006ce0       ??0?$CComPtrBase@UIProvideClassInfo2@@@ATL@@IEAA@XZ 0000000180007ce0 f i BillDispenser.obj
 0001:00006d00       ??0?$CComPtrBase@UISpecifyPropertyPages@@@ATL@@IEAA@XZ 0000000180007d00 f i BillDispenser.obj
 0001:00006d20       ??0?$CComPtrBase@UIStream@@@ATL@@IEAA@XZ 0000000180007d20 f i BillDispenser.obj
 0001:00006d40       ??0?$CComPtrBase@UITypeInfo2@@@ATL@@IEAA@XZ 0000000180007d40 f i BillDispenser.obj
 0001:00006d60       ??0?$CComPtrBase@UITypeInfo@@@ATL@@IEAA@PEAUITypeInfo@@@Z 0000000180007d60 f i BillDispenser.obj
 0001:00006dc0       ??0?$CComPtrBase@UITypeInfo@@@ATL@@IEAA@XZ 0000000180007dc0 f i BillDispenser.obj
 0001:00006de0       ??0?$CComPtrBase@UITypeLib@@@ATL@@IEAA@XZ 0000000180007de0 f i BillDispenser.obj
 0001:00006e00       ??0?$CComPtrBase@UIUnknown@@@ATL@@IEAA@PEAUIUnknown@@@Z 0000000180007e00 f i BillDispenser.obj
 0001:00006e60       ??0?$CComPtrBase@UIUnknown@@@ATL@@IEAA@XZ 0000000180007e60 f i BillDispenser.obj
 0001:00006e80       ??0?$CComPtrBase@UIViewObjectEx@@@ATL@@IEAA@XZ 0000000180007e80 f i BillDispenser.obj
 0001:00006ea0       ??0?$CComQIPtr@UIOleControlSite@@$1?_GUID_b196b289_bab4_101a_b69c_00aa00341d07@@3U__s_GUID@@B@ATL@@QEAA@PEAUIUnknown@@@Z 0000000180007ea0 f i BillDispenser.obj
 0001:00006f10       ??0?$CComQIPtr@UIOleObject@@$1?_GUID_00000112_0000_0000_c000_000000000046@@3U__s_GUID@@B@ATL@@QEAA@XZ 0000000180007f10 f i BillDispenser.obj
 0001:00006f50       ??0?$CComQIPtr@UISpecifyPropertyPages@@$1?_GUID_b196b28b_bab4_101a_b69c_00aa00341d07@@3U__s_GUID@@B@ATL@@QEAA@XZ 0000000180007f50 f i BillDispenser.obj
 0001:00006f90       ??0?$CSimpleMap@PEA_WPEA_WVCExpansionVectorEqualHelper@ATL@@@ATL@@QEAA@XZ 0000000180007f90 f i BillDispenser.obj
 0001:00006fd0       ??0?$CTempBuffer@E$0BAA@VCCRTAllocator@ATL@@@ATL@@QEAA@XZ 0000000180007fd0 f i BillDispenser.obj
 0001:00006ff0       ??0?$CTempBuffer@_W$0BAA@VCCRTAllocator@ATL@@@ATL@@QEAA@XZ 0000000180007ff0 f i BillDispenser.obj
 0001:00007010       ??0?$CTempBuffer@_W$0EAA@VCCRTAllocator@ATL@@@ATL@@QEAA@XZ 0000000180008010 f i BillDispenser.obj
 0001:00007030       ??0?$Wrapper@PEA_W@?$CSimpleMap@PEA_WPEA_WVCExpansionVectorEqualHelper@ATL@@@ATL@@QEAA@AEBQEA_W@Z 0000000180008030 f i BillDispenser.obj
 0001:00007060       ??0CAtlModule@ATL@@QEAA@XZ 0000000180008060 f i BillDispenser.obj
 0001:000071d0       ??0CComAutoDeleteCriticalSection@ATL@@QEAA@XZ 00000001800081d0 f i BillDispenser.obj
 0001:00007210       ??0CComBSTR@ATL@@QEAA@XZ   0000000180008210 f i BillDispenser.obj
 0001:00007230       ??0CComClassFactory@ATL@@QEAA@XZ 0000000180008230 f i BillDispenser.obj
 0001:00007290       ??0CComModule@ATL@@QEAA@XZ 0000000180008290 f i BillDispenser.obj
 0001:00007330       ??0CComObjectRootBase@ATL@@QEAA@XZ 0000000180008330 f i BillDispenser.obj
 0001:00007350       ??0CComSafeDeleteCriticalSection@ATL@@QEAA@XZ 0000000180008350 f i BillDispenser.obj
 0001:00007390       ??0CComVariant@ATL@@QEAA@XZ 0000000180008390 f i BillDispenser.obj
 0001:000073e0       ??0CExpansionVector@ATL@@QEAA@XZ 00000001800083e0 f i BillDispenser.obj
 0001:00007420       ??0CParseBuffer@CRegParser@ATL@@QEAA@H@Z 0000000180008420 f i BillDispenser.obj
 0001:000074b0       ??0CRegKey@ATL@@QEAA@PEAUHKEY__@@@Z 00000001800084b0 f i BillDispenser.obj
 0001:000074f0       ??0CRegKey@ATL@@QEAA@PEAVCAtlTransactionManager@1@@Z 00000001800084f0 f i BillDispenser.obj
 0001:00007530       ??0CRegObject@ATL@@QEAA@XZ 0000000180008530 f i BillDispenser.obj
 0001:00007590       ??0CRegParser@ATL@@QEAA@PEAVCRegObject@1@@Z 0000000180008590 f i BillDispenser.obj
 0001:000075c0       ??0IClassFactory@@QEAA@XZ  00000001800085c0 f i BillDispenser.obj
 0001:00007600       ??0IEnumConnectionPoints@@QEAA@XZ 0000000180008600 f i BillDispenser.obj
 0001:00007640       ??0IEnumConnections@@QEAA@XZ 0000000180008640 f i BillDispenser.obj
 0001:00007680       ??0IRegistrarBase@@QEAA@XZ 0000000180008680 f i BillDispenser.obj
 0001:000076c0       ??0IUnknown@@QEAA@XZ       00000001800086c0 f i BillDispenser.obj
 0001:000076d0       ??0ModuleLockHelper@ATL@@QEAA@XZ 00000001800086d0 f i BillDispenser.obj
 0001:00007710       ??0OposVariant@@QEAA@XZ    0000000180008710 f i BillDispenser.obj
 0001:00007730       ??0Wrapper@?$CSimpleArray@GV?$CSimpleArrayEqualHelper@G@ATL@@@ATL@@QEAA@AEBG@Z 0000000180008730 f i BillDispenser.obj
 0001:00007760       ??0_ATL_MODULE70@ATL@@QEAA@XZ 0000000180008760 f i BillDispenser.obj
 0001:000077a0       ??0_ATL_MSG@ATL@@QEAA@PEAUHWND__@@I_K_JH@Z 00000001800087a0 f i BillDispenser.obj
 0001:00007830       ??0_U_MENUorID@ATL@@QEAA@I@Z 0000000180008830 f i BillDispenser.obj
 0001:00007850       ??0_U_RECT@ATL@@QEAA@AEAUtagRECT@@@Z 0000000180008850 f i BillDispenser.obj
 0001:00007870       ??0stringdispid@CComTypeInfoHolder@ATL@@QEAA@XZ 0000000180008870 f i BillDispenser.obj
 0001:000078c0       ??1?$CAtlModuleT@VCComModule@ATL@@@ATL@@UEAA@XZ 00000001800088c0 f i BillDispenser.obj
 0001:000078f0       ??1?$CAtlSafeAllocBufferManager@VCCRTAllocator@ATL@@@_ATL_SAFE_ALLOCA_IMPL@ATL@@QEAA@XZ 00000001800088f0 f i BillDispenser.obj
 0001:00007950       ??1?$CAutoVectorPtr@_W@ATL@@QEAA@XZ 0000000180008950 f i BillDispenser.obj
 0001:00007980       ??1?$CComAggObject@VCOPOSBillDispenser@@@ATL@@UEAA@XZ 0000000180008980 f i BillDispenser.obj
 0001:00007a00       ??1?$CComContainedObject@VCOPOSBillDispenser@@@ATL@@UEAA@XZ 0000000180008a00 f i BillDispenser.obj
 0001:00007a30       ??1?$CComCritSecLock@VCComCriticalSection@ATL@@@ATL@@QEAA@XZ 0000000180008a30 f i BillDispenser.obj
 0001:00007a70       ??1?$CComEnum@UIEnumConnectionPoints@@$1?_GUID_b196b285_bab4_101a_b69c_00aa00341d07@@3U__s_GUID@@BPEAUIConnectionPoint@@V?$_CopyInterface@UIConnectionPoint@@@ATL@@VCComSingleThreadModel@6@@ATL@@UEAA@XZ 0000000180008a70 f i BillDispenser.obj
 0001:00007ab0       ??1?$CComEnum@UIEnumConnections@@$1?_GUID_b196b287_bab4_101a_b69c_00aa00341d07@@3U__s_GUID@@BUtagCONNECTDATA@@V?$_Copy@UtagCONNECTDATA@@@ATL@@VCComSingleThreadModel@6@@ATL@@UEAA@XZ 0000000180008ab0 f i BillDispenser.obj
 0001:00007af0       ??1?$CComEnumImpl@UIEnumConnectionPoints@@$1?_GUID_b196b285_bab4_101a_b69c_00aa00341d07@@3U__s_GUID@@BPEAUIConnectionPoint@@V?$_CopyInterface@UIConnectionPoint@@@ATL@@@ATL@@UEAA@XZ 0000000180008af0 f i BillDispenser.obj
 0001:00007b90       ??1?$CComEnumImpl@UIEnumConnections@@$1?_GUID_b196b287_bab4_101a_b69c_00aa00341d07@@3U__s_GUID@@BUtagCONNECTDATA@@V?$_Copy@UtagCONNECTDATA@@@ATL@@@ATL@@UEAA@XZ 0000000180008b90 f i BillDispenser.obj
 0001:00007c30       ??1?$CComObject@V?$CComEnum@UIEnumConnectionPoints@@$1?_GUID_b196b285_bab4_101a_b69c_00aa00341d07@@3U__s_GUID@@BPEAUIConnectionPoint@@V?$_CopyInterface@UIConnectionPoint@@@ATL@@VCComSingleThreadModel@6@@ATL@@@ATL@@UEAA@XZ 0000000180008c30 f i BillDispenser.obj
 0001:00007ca0       ??1?$CComObject@V?$CComEnum@UIEnumConnections@@$1?_GUID_b196b287_bab4_101a_b69c_00aa00341d07@@3U__s_GUID@@BUtagCONNECTDATA@@V?$_Copy@UtagCONNECTDATA@@@ATL@@VCComSingleThreadModel@6@@ATL@@@ATL@@UEAA@XZ 0000000180008ca0 f i BillDispenser.obj
 0001:00007d10       ??1?$CComObject@VCOPOSBillDispenser@@@ATL@@UEAA@XZ 0000000180008d10 f i BillDispenser.obj
 0001:00007ec0       ??1?$CComObjectCached@VCComClassFactory@ATL@@@ATL@@UEAA@XZ 0000000180008ec0 f i BillDispenser.obj
 0001:00007f20       ??1?$CComObjectRootEx@VCComMultiThreadModel@ATL@@@ATL@@QEAA@XZ 0000000180008f20 f i BillDispenser.obj
 0001:00007f60       ??1?$CComObjectRootEx@VCComSingleThreadModel@ATL@@@ATL@@QEAA@XZ 0000000180008f60 f i BillDispenser.obj
 0001:00007f90       ??1?$CComPtr@UIAdviseSink@@@ATL@@QEAA@XZ 0000000180008f90 f i BillDispenser.obj
 0001:00007fc0       ??1?$CComPtr@UICatRegister@@@ATL@@QEAA@XZ 0000000180008fc0 f i BillDispenser.obj
 0001:00007ff0       ??1?$CComPtr@UIConnectionPoint@@@ATL@@QEAA@XZ 0000000180008ff0 f i BillDispenser.obj
 0001:00008020       ??1?$CComPtr@UIConnectionPointContainer@@@ATL@@QEAA@XZ 0000000180009020 f i BillDispenser.obj
 0001:00008050       ??1?$CComPtr@UIDataObject@@@ATL@@QEAA@XZ 0000000180009050 f i BillDispenser.obj
 0001:00008080       ??1?$CComPtr@UIDispatch@@@ATL@@QEAA@XZ 0000000180009080 f i BillDispenser.obj
 0001:000080b0       ??1?$CComPtr@UIOleClientSite@@@ATL@@QEAA@XZ 00000001800090b0 f i BillDispenser.obj
 0001:000080e0       ??1?$CComPtr@UIOleControlSite@@@ATL@@QEAA@XZ 00000001800090e0 f i BillDispenser.obj
 0001:00008110       ??1?$CComPtr@UIOleInPlaceActiveObject@@@ATL@@QEAA@XZ 0000000180009110 f i BillDispenser.obj
 0001:00008140       ??1?$CComPtr@UIOleInPlaceFrame@@@ATL@@QEAA@XZ 0000000180009140 f i BillDispenser.obj
 0001:00008170       ??1?$CComPtr@UIOleInPlaceObject@@@ATL@@QEAA@XZ 0000000180009170 f i BillDispenser.obj
 0001:000081a0       ??1?$CComPtr@UIOleInPlaceUIWindow@@@ATL@@QEAA@XZ 00000001800091a0 f i BillDispenser.obj
 0001:000081d0       ??1?$CComPtr@UIOleObject@@@ATL@@QEAA@XZ 00000001800091d0 f i BillDispenser.obj
 0001:00008200       ??1?$CComPtr@UIPersistStream@@@ATL@@QEAA@XZ 0000000180009200 f i BillDispenser.obj
 0001:00008230       ??1?$CComPtr@UIPersistStreamInit@@@ATL@@QEAA@XZ 0000000180009230 f i BillDispenser.obj
 0001:00008260       ??1?$CComPtr@UIPointerInactive@@@ATL@@QEAA@XZ 0000000180009260 f i BillDispenser.obj
 0001:00008290       ??1?$CComPtr@UIProvideClassInfo2@@@ATL@@QEAA@XZ 0000000180009290 f i BillDispenser.obj
 0001:000082c0       ??1?$CComPtr@UISpecifyPropertyPages@@@ATL@@QEAA@XZ 00000001800092c0 f i BillDispenser.obj
 0001:000082f0       ??1?$CComPtr@UIStream@@@ATL@@QEAA@XZ 00000001800092f0 f i BillDispenser.obj
 0001:00008320       ??1?$CComPtr@UITypeInfo2@@@ATL@@QEAA@XZ 0000000180009320 f i BillDispenser.obj
 0001:00008350       ??1?$CComPtr@UITypeInfo@@@ATL@@QEAA@XZ 0000000180009350 f i BillDispenser.obj
 0001:00008380       ??1?$CComPtr@UITypeLib@@@ATL@@QEAA@XZ 0000000180009380 f i BillDispenser.obj
 0001:000083b0       ??1?$CComPtr@UIUnknown@@@ATL@@QEAA@XZ 00000001800093b0 f i BillDispenser.obj
 0001:000083e0       ??1?$CComPtr@UIViewObjectEx@@@ATL@@QEAA@XZ 00000001800093e0 f i BillDispenser.obj
 0001:00008410       ??1?$CComPtrBase@UIAdviseSink@@@ATL@@QEAA@XZ 0000000180009410 f i BillDispenser.obj
 0001:00008460       ??1?$CComPtrBase@UICatRegister@@@ATL@@QEAA@XZ 0000000180009460 f i BillDispenser.obj
 0001:000084b0       ??1?$CComPtrBase@UIConnectionPoint@@@ATL@@QEAA@XZ 00000001800094b0 f i BillDispenser.obj
 0001:00008500       ??1?$CComPtrBase@UIConnectionPointContainer@@@ATL@@QEAA@XZ 0000000180009500 f i BillDispenser.obj
 0001:00008550       ??1?$CComPtrBase@UIDataObject@@@ATL@@QEAA@XZ 0000000180009550 f i BillDispenser.obj
 0001:000085a0       ??1?$CComPtrBase@UIDispatch@@@ATL@@QEAA@XZ 00000001800095a0 f i BillDispenser.obj
 0001:000085f0       ??1?$CComPtrBase@UIOleClientSite@@@ATL@@QEAA@XZ 00000001800095f0 f i BillDispenser.obj
 0001:00008640       ??1?$CComPtrBase@UIOleControlSite@@@ATL@@QEAA@XZ 0000000180009640 f i BillDispenser.obj
 0001:00008690       ??1?$CComPtrBase@UIOleInPlaceActiveObject@@@ATL@@QEAA@XZ 0000000180009690 f i BillDispenser.obj
 0001:000086e0       ??1?$CComPtrBase@UIOleInPlaceFrame@@@ATL@@QEAA@XZ 00000001800096e0 f i BillDispenser.obj
 0001:00008730       ??1?$CComPtrBase@UIOleInPlaceObject@@@ATL@@QEAA@XZ 0000000180009730 f i BillDispenser.obj
 0001:00008780       ??1?$CComPtrBase@UIOleInPlaceUIWindow@@@ATL@@QEAA@XZ 0000000180009780 f i BillDispenser.obj
 0001:000087d0       ??1?$CComPtrBase@UIOleObject@@@ATL@@QEAA@XZ 00000001800097d0 f i BillDispenser.obj
 0001:00008820       ??1?$CComPtrBase@UIPersistStream@@@ATL@@QEAA@XZ 0000000180009820 f i BillDispenser.obj
 0001:00008870       ??1?$CComPtrBase@UIPersistStreamInit@@@ATL@@QEAA@XZ 0000000180009870 f i BillDispenser.obj
 0001:000088c0       ??1?$CComPtrBase@UIPointerInactive@@@ATL@@QEAA@XZ 00000001800098c0 f i BillDispenser.obj
 0001:00008910       ??1?$CComPtrBase@UIProvideClassInfo2@@@ATL@@QEAA@XZ 0000000180009910 f i BillDispenser.obj
 0001:00008960       ??1?$CComPtrBase@UISpecifyPropertyPages@@@ATL@@QEAA@XZ 0000000180009960 f i BillDispenser.obj
 0001:000089b0       ??1?$CComPtrBase@UIStream@@@ATL@@QEAA@XZ 00000001800099b0 f i BillDispenser.obj
 0001:00008a00       ??1?$CComPtrBase@UITypeInfo2@@@ATL@@QEAA@XZ 0000000180009a00 f i BillDispenser.obj
 0001:00008a50       ??1?$CComPtrBase@UITypeInfo@@@ATL@@QEAA@XZ 0000000180009a50 f i BillDispenser.obj
 0001:00008aa0       ??1?$CComPtrBase@UITypeLib@@@ATL@@QEAA@XZ 0000000180009aa0 f i BillDispenser.obj
 0001:00008af0       ??1?$CComPtrBase@UIUnknown@@@ATL@@QEAA@XZ 0000000180009af0 f i BillDispenser.obj
 0001:00008b40       ??1?$CComPtrBase@UIViewObjectEx@@@ATL@@QEAA@XZ 0000000180009b40 f i BillDispenser.obj
 0001:00008b90       ??1?$CComQIPtr@UIOleControlSite@@$1?_GUID_b196b289_bab4_101a_b69c_00aa00341d07@@3U__s_GUID@@B@ATL@@QEAA@XZ 0000000180009b90 f i BillDispenser.obj
 0001:00008bc0       ??1?$CComQIPtr@UIOleObject@@$1?_GUID_00000112_0000_0000_c000_000000000046@@3U__s_GUID@@B@ATL@@QEAA@XZ 0000000180009bc0 f i BillDispenser.obj
 0001:00008bf0       ??1?$CComQIPtr@UISpecifyPropertyPages@@$1?_GUID_b196b28b_bab4_101a_b69c_00aa00341d07@@3U__s_GUID@@B@ATL@@QEAA@XZ 0000000180009bf0 f i BillDispenser.obj
 0001:00008c20       ??1?$CSimpleMap@PEA_WPEA_WVCExpansionVectorEqualHelper@ATL@@@ATL@@QEAA@XZ 0000000180009c20 f i BillDispenser.obj
 0001:00008c50       ??1?$CTempBuffer@E$0BAA@VCCRTAllocator@ATL@@@ATL@@QEAA@XZ 0000000180009c50 f i BillDispenser.obj
 0001:00008ca0       ??1?$CTempBuffer@_W$0BAA@VCCRTAllocator@ATL@@@ATL@@QEAA@XZ 0000000180009ca0 f i BillDispenser.obj
 0001:00008cf0       ??1?$CTempBuffer@_W$0EAA@VCCRTAllocator@ATL@@@ATL@@QEAA@XZ 0000000180009cf0 f i BillDispenser.obj
 0001:00008d40       ??1CAtlModule@ATL@@UEAA@XZ 0000000180009d40 f i BillDispenser.obj
 0001:00008d80       ??1CComAutoDeleteCriticalSection@ATL@@QEAA@XZ 0000000180009d80 f i BillDispenser.obj
 0001:00008db0       ??1CComClassFactory@ATL@@UEAA@XZ 0000000180009db0 f i BillDispenser.obj
 0001:00008e00       ??1CComModule@ATL@@UEAA@XZ 0000000180009e00 f i BillDispenser.obj
 0001:00008e40       ??1CComObjectRootBase@ATL@@QEAA@XZ 0000000180009e40 f i BillDispenser.obj
 0001:00008e50       ??1CComSafeDeleteCriticalSection@ATL@@QEAA@XZ 0000000180009e50 f i BillDispenser.obj
 0001:00008ea0       ??1CComVariant@ATL@@QEAA@XZ 0000000180009ea0 f i BillDispenser.obj
 0001:00008f20       ??1CExpansionVector@ATL@@QEAA@XZ 0000000180009f20 f i BillDispenser.obj
 0001:00008f60       ??1CParseBuffer@CRegParser@ATL@@QEAA@XZ 0000000180009f60 f i BillDispenser.obj
 0001:00008fa0       ??1CRegKey@ATL@@QEAA@XZ    0000000180009fa0 f i BillDispenser.obj
 0001:00008fd0       ??1CRegObject@ATL@@UEAA@XZ 0000000180009fd0 f i BillDispenser.obj
 0001:00009020       ??1ModuleLockHelper@ATL@@QEAA@XZ 000000018000a020 f i BillDispenser.obj
 0001:00009060       ??1OposVariant@@QEAA@XZ    000000018000a060 f i BillDispenser.obj
 0001:000090a0       ??1_ATL_MODULE70@ATL@@QEAA@XZ 000000018000a0a0 f i BillDispenser.obj
 0001:000090e0       ??4?$CComPtr@UIAdviseSink@@@ATL@@QEAAPEAUIAdviseSink@@PEAU2@@Z 000000018000a0e0 f i BillDispenser.obj
 0001:00009150       ??4?$CComPtr@UIOleClientSite@@@ATL@@QEAAPEAUIOleClientSite@@PEAU2@@Z 000000018000a150 f i BillDispenser.obj
 0001:000091c0       ??4?$CComPtr@UIUnknown@@@ATL@@QEAAPEAUIUnknown@@PEAU2@@Z 000000018000a1c0 f i BillDispenser.obj
 0001:00009230       ??4?$CComQIPtr@UIOleObject@@$1?_GUID_00000112_0000_0000_c000_000000000046@@3U__s_GUID@@B@ATL@@QEAAPEAUIOleObject@@PEAUIUnknown@@@Z 000000018000a230 f i BillDispenser.obj
 0001:00009290       ??4?$CComQIPtr@UISpecifyPropertyPages@@$1?_GUID_b196b28b_bab4_101a_b69c_00aa00341d07@@3U__s_GUID@@B@ATL@@QEAAPEAUISpecifyPropertyPages@@PEAUIUnknown@@@Z 000000018000a290 f i BillDispenser.obj
 0001:000092f0       ??7?$CComPtrBase@UIOleClientSite@@@ATL@@QEBA_NXZ 000000018000a2f0 f i BillDispenser.obj
 0001:00009340       ??7?$CComPtrBase@UIOleInPlaceSiteWindowless@@@ATL@@QEBA_NXZ 000000018000a340 f i BillDispenser.obj
 0001:00009390       ??7CComBSTR@ATL@@QEBA_NXZ  000000018000a390 f i BillDispenser.obj
 0001:000093e0       ??8?$CComPtrBase@UIAdviseSink@@@ATL@@QEBA_NPEAUIAdviseSink@@@Z 000000018000a3e0 f i BillDispenser.obj
 0001:00009430       ??8?$CComPtrBase@UIConnectionPointContainer@@@ATL@@QEBA_NPEAUIConnectionPointContainer@@@Z 000000018000a430 f i BillDispenser.obj
 0001:00009480       ??8?$CComPtrBase@UIDataAdviseHolder@@@ATL@@QEBA_NPEAUIDataAdviseHolder@@@Z 000000018000a480 f i BillDispenser.obj
 0001:000094d0       ??8?$CComPtrBase@UIOleAdviseHolder@@@ATL@@QEBA_NPEAUIOleAdviseHolder@@@Z 000000018000a4d0 f i BillDispenser.obj
 0001:00009520       ??8?$CComPtrBase@UIOleClientSite@@@ATL@@QEBA_NPEAUIOleClientSite@@@Z 000000018000a520 f i BillDispenser.obj
 0001:00009570       ??8?$CComPtrBase@UIOleControlSite@@@ATL@@QEBA_NPEAUIOleControlSite@@@Z 000000018000a570 f i BillDispenser.obj
 0001:000095c0       ??8?$CComPtrBase@UIOleInPlaceObject@@@ATL@@QEBA_NPEAUIOleInPlaceObject@@@Z 000000018000a5c0 f i BillDispenser.obj
 0001:00009610       ??8?$CComPtrBase@UIOleInPlaceSiteWindowless@@@ATL@@QEBA_NPEAUIOleInPlaceSiteWindowless@@@Z 000000018000a610 f i BillDispenser.obj
 0001:00009660       ??8?$CComPtrBase@UIOleObject@@@ATL@@QEBA_NPEAUIOleObject@@@Z 000000018000a660 f i BillDispenser.obj
 0001:000096b0       ??8?$CComPtrBase@UIPersistStream@@@ATL@@QEBA_NPEAUIPersistStream@@@Z 000000018000a6b0 f i BillDispenser.obj
 0001:00009700       ??8?$CComPtrBase@UIPersistStreamInit@@@ATL@@QEBA_NPEAUIPersistStreamInit@@@Z 000000018000a700 f i BillDispenser.obj
 0001:00009750       ??8?$CComPtrBase@UIPointerInactive@@@ATL@@QEBA_NPEAUIPointerInactive@@@Z 000000018000a750 f i BillDispenser.obj
 0001:000097a0       ??8?$CComPtrBase@UIUnknown@@@ATL@@QEBA_NPEAUIUnknown@@@Z 000000018000a7a0 f i BillDispenser.obj
 0001:000097f0       ??8?$CComPtrBase@UIViewObjectEx@@@ATL@@QEBA_NPEAUIViewObjectEx@@@Z 000000018000a7f0 f i BillDispenser.obj
 0001:00009840       ??8CComBSTR@ATL@@QEBA_NH@Z 000000018000a840 f i BillDispenser.obj
 0001:000098c0       ??9?$CComPtrBase@UIAdviseSink@@@ATL@@QEBA_NPEAUIAdviseSink@@@Z 000000018000a8c0 f i BillDispenser.obj
 0001:00009920       ??9?$CComPtrBase@UIConnectionPointContainer@@@ATL@@QEBA_NPEAUIConnectionPointContainer@@@Z 000000018000a920 f i BillDispenser.obj
 0001:00009980       ??9?$CComPtrBase@UIDataAdviseHolder@@@ATL@@QEBA_NPEAUIDataAdviseHolder@@@Z 000000018000a980 f i BillDispenser.obj
 0001:000099e0       ??9?$CComPtrBase@UIOleAdviseHolder@@@ATL@@QEBA_NPEAUIOleAdviseHolder@@@Z 000000018000a9e0 f i BillDispenser.obj
 0001:00009a40       ??9?$CComPtrBase@UIOleClientSite@@@ATL@@QEBA_NPEAUIOleClientSite@@@Z 000000018000aa40 f i BillDispenser.obj
 0001:00009aa0       ??9?$CComPtrBase@UIOleControlSite@@@ATL@@QEBA_NPEAUIOleControlSite@@@Z 000000018000aaa0 f i BillDispenser.obj
 0001:00009b00       ??9?$CComPtrBase@UIOleInPlaceObject@@@ATL@@QEBA_NPEAUIOleInPlaceObject@@@Z 000000018000ab00 f i BillDispenser.obj
 0001:00009b60       ??9?$CComPtrBase@UIOleInPlaceSiteWindowless@@@ATL@@QEBA_NPEAUIOleInPlaceSiteWindowless@@@Z 000000018000ab60 f i BillDispenser.obj
 0001:00009bc0       ??9?$CComPtrBase@UIOleObject@@@ATL@@QEBA_NPEAUIOleObject@@@Z 000000018000abc0 f i BillDispenser.obj
 0001:00009c20       ??9?$CComPtrBase@UIPersistStream@@@ATL@@QEBA_NPEAUIPersistStream@@@Z 000000018000ac20 f i BillDispenser.obj
 0001:00009c80       ??9?$CComPtrBase@UIPersistStreamInit@@@ATL@@QEBA_NPEAUIPersistStreamInit@@@Z 000000018000ac80 f i BillDispenser.obj
 0001:00009ce0       ??9?$CComPtrBase@UIPointerInactive@@@ATL@@QEBA_NPEAUIPointerInactive@@@Z 000000018000ace0 f i BillDispenser.obj
 0001:00009d40       ??9?$CComPtrBase@UIUnknown@@@ATL@@QEBA_NPEAUIUnknown@@@Z 000000018000ad40 f i BillDispenser.obj
 0001:00009da0       ??9?$CComPtrBase@UIViewObjectEx@@@ATL@@QEBA_NPEAUIViewObjectEx@@@Z 000000018000ada0 f i BillDispenser.obj
 0001:00009e00       ??9CComBSTR@ATL@@QEBA_NH@Z 000000018000ae00 f i BillDispenser.obj
 0001:00009e60       ??B?$CComPtrBase@UIAdviseSink@@@ATL@@QEBAPEAUIAdviseSink@@XZ 000000018000ae60 f i BillDispenser.obj
 0001:00009e70       ??B?$CComPtrBase@UIDataAdviseHolder@@@ATL@@QEBAPEAUIDataAdviseHolder@@XZ 000000018000ae70 f i BillDispenser.obj
 0001:00009e80       ??B?$CComPtrBase@UIDataObject@@@ATL@@QEBAPEAUIDataObject@@XZ 000000018000ae80 f i BillDispenser.obj
 0001:00009e90       ??B?$CComPtrBase@UIOleAdviseHolder@@@ATL@@QEBAPEAUIOleAdviseHolder@@XZ 000000018000ae90 f i BillDispenser.obj
 0001:00009ea0       ??B?$CComPtrBase@UIOleClientSite@@@ATL@@QEBAPEAUIOleClientSite@@XZ 000000018000aea0 f i BillDispenser.obj
 0001:00009eb0       ??B?$CComPtrBase@UIOleControlSite@@@ATL@@QEBAPEAUIOleControlSite@@XZ 000000018000aeb0 f i BillDispenser.obj
 0001:00009ec0       ??B?$CComPtrBase@UIOleInPlaceActiveObject@@@ATL@@QEBAPEAUIOleInPlaceActiveObject@@XZ 000000018000aec0 f i BillDispenser.obj
 0001:00009ed0       ??B?$CComPtrBase@UIOleInPlaceFrame@@@ATL@@QEBAPEAUIOleInPlaceFrame@@XZ 000000018000aed0 f i BillDispenser.obj
 0001:00009ee0       ??B?$CComPtrBase@UIOleInPlaceSiteWindowless@@@ATL@@QEBAPEAUIOleInPlaceSiteWindowless@@XZ 000000018000aee0 f i BillDispenser.obj
 0001:00009ef0       ??B?$CComPtrBase@UIOleInPlaceUIWindow@@@ATL@@QEBAPEAUIOleInPlaceUIWindow@@XZ 000000018000aef0 f i BillDispenser.obj
 0001:00009f00       ??B?$CComPtrBase@UIOleObject@@@ATL@@QEBAPEAUIOleObject@@XZ 000000018000af00 f i BillDispenser.obj
 0001:00009f10       ??B?$CComPtrBase@UIPersistStream@@@ATL@@QEBAPEAUIPersistStream@@XZ 000000018000af10 f i BillDispenser.obj
 0001:00009f20       ??B?$CComPtrBase@UIProvideClassInfo2@@@ATL@@QEBAPEAUIProvideClassInfo2@@XZ 000000018000af20 f i BillDispenser.obj
 0001:00009f30       ??B?$CComPtrBase@UISpecifyPropertyPages@@@ATL@@QEBAPEAUISpecifyPropertyPages@@XZ 000000018000af30 f i BillDispenser.obj
 0001:00009f40       ??B?$CComPtrBase@UIStream@@@ATL@@QEBAPEAUIStream@@XZ 000000018000af40 f i BillDispenser.obj
 0001:00009f50       ??B?$CComPtrBase@UITypeInfo2@@@ATL@@QEBAPEAUITypeInfo2@@XZ 000000018000af50 f i BillDispenser.obj
 0001:00009f60       ??B?$CComPtrBase@UITypeInfo@@@ATL@@QEBAPEAUITypeInfo@@XZ 000000018000af60 f i BillDispenser.obj
 0001:00009f70       ??B?$CComPtrBase@UITypeLib@@@ATL@@QEBAPEAUITypeLib@@XZ 000000018000af70 f i BillDispenser.obj
 0001:00009f80       ??B?$CComPtrBase@UIUnknown@@@ATL@@QEBAPEAUIUnknown@@XZ 000000018000af80 f i BillDispenser.obj
 0001:00009f90       ??B?$CTempBuffer@E$0BAA@VCCRTAllocator@ATL@@@ATL@@QEBAPEAEXZ 000000018000af90 f i BillDispenser.obj
 0001:00009fa0       ??B?$CTempBuffer@_W$0BAA@VCCRTAllocator@ATL@@@ATL@@QEBAPEA_WXZ 000000018000afa0 f i BillDispenser.obj
 0001:00009fb0       ??B?$CTempBuffer@_W$0EAA@VCCRTAllocator@ATL@@@ATL@@QEBAPEA_WXZ 000000018000afb0 f i BillDispenser.obj
 0001:00009fc0       ??B?$CTraceCategoryEx@$00$0A@@ATL@@QEAAIXZ 000000018000afc0 f i BillDispenser.obj
 0001:00009fd0       ??B?$CTraceCategoryEx@$07$0A@@ATL@@QEAAIXZ 000000018000afd0 f i BillDispenser.obj
 0001:00009fe0       ??B?$CTraceCategoryEx@$0CAAA@$0A@@ATL@@QEAAIXZ 000000018000afe0 f i BillDispenser.obj
 0001:00009ff0       ??B?$CTraceCategoryEx@$0EA@$0A@@ATL@@QEAAIXZ 000000018000aff0 f i BillDispenser.obj
 0001:0000a000       ??B?$CTraceCategoryEx@$0IAA@$0A@@ATL@@QEAAIXZ 000000018000b000 f i BillDispenser.obj
 0001:0000a010       ??BCComBSTR@ATL@@QEBAPEA_WXZ 000000018000b010 f i BillDispenser.obj
 0001:0000a020       ??BCRegKey@ATL@@QEBAPEAUHKEY__@@XZ 000000018000b020 f i BillDispenser.obj
 0001:0000a030       ??C?$CComPtrBase@UIAdviseSink@@@ATL@@QEBAPEAV?$_NoAddRefReleaseOnCComPtr@UIAdviseSink@@@1@XZ 000000018000b030 f i BillDispenser.obj
 0001:0000a0b0       ??C?$CComPtrBase@UICatRegister@@@ATL@@QEBAPEAV?$_NoAddRefReleaseOnCComPtr@UICatRegister@@@1@XZ 000000018000b0b0 f i BillDispenser.obj
 0001:0000a130       ??C?$CComPtrBase@UIConnectionPoint@@@ATL@@QEBAPEAV?$_NoAddRefReleaseOnCComPtr@UIConnectionPoint@@@1@XZ 000000018000b130 f i BillDispenser.obj
 0001:0000a1b0       ??C?$CComPtrBase@UIConnectionPointContainer@@@ATL@@QEBAPEAV?$_NoAddRefReleaseOnCComPtr@UIConnectionPointContainer@@@1@XZ 000000018000b1b0 f i BillDispenser.obj
 0001:0000a230       ??C?$CComPtrBase@UIDataAdviseHolder@@@ATL@@QEBAPEAV?$_NoAddRefReleaseOnCComPtr@UIDataAdviseHolder@@@1@XZ 000000018000b230 f i BillDispenser.obj
 0001:0000a2b0       ??C?$CComPtrBase@UIOleAdviseHolder@@@ATL@@QEBAPEAV?$_NoAddRefReleaseOnCComPtr@UIOleAdviseHolder@@@1@XZ 000000018000b2b0 f i BillDispenser.obj
 0001:0000a330       ??C?$CComPtrBase@UIOleClientSite@@@ATL@@QEBAPEAV?$_NoAddRefReleaseOnCComPtr@UIOleClientSite@@@1@XZ 000000018000b330 f i BillDispenser.obj
 0001:0000a3b0       ??C?$CComPtrBase@UIOleControlSite@@@ATL@@QEBAPEAV?$_NoAddRefReleaseOnCComPtr@UIOleControlSite@@@1@XZ 000000018000b3b0 f i BillDispenser.obj
 0001:0000a430       ??C?$CComPtrBase@UIOleInPlaceFrame@@@ATL@@QEBAPEAV?$_NoAddRefReleaseOnCComPtr@UIOleInPlaceFrame@@@1@XZ 000000018000b430 f i BillDispenser.obj
 0001:0000a4b0       ??C?$CComPtrBase@UIOleInPlaceObject@@@ATL@@QEBAPEAV?$_NoAddRefReleaseOnCComPtr@UIOleInPlaceObject@@@1@XZ 000000018000b4b0 f i BillDispenser.obj
 0001:0000a530       ??C?$CComPtrBase@UIOleInPlaceSiteWindowless@@@ATL@@QEBAPEAV?$_NoAddRefReleaseOnCComPtr@UIOleInPlaceSiteWindowless@@@1@XZ 000000018000b530 f i BillDispenser.obj
 0001:0000a5b0       ??C?$CComPtrBase@UIOleInPlaceUIWindow@@@ATL@@QEBAPEAV?$_NoAddRefReleaseOnCComPtr@UIOleInPlaceUIWindow@@@1@XZ 000000018000b5b0 f i BillDispenser.obj
 0001:0000a630       ??C?$CComPtrBase@UIOleObject@@@ATL@@QEBAPEAV?$_NoAddRefReleaseOnCComPtr@UIOleObject@@@1@XZ 000000018000b630 f i BillDispenser.obj
 0001:0000a6b0       ??C?$CComPtrBase@UIPersistStream@@@ATL@@QEBAPEAV?$_NoAddRefReleaseOnCComPtr@UIPersistStream@@@1@XZ 000000018000b6b0 f i BillDispenser.obj
 0001:0000a730       ??C?$CComPtrBase@UIPersistStreamInit@@@ATL@@QEBAPEAV?$_NoAddRefReleaseOnCComPtr@UIPersistStreamInit@@@1@XZ 000000018000b730 f i BillDispenser.obj
 0001:0000a7b0       ??C?$CComPtrBase@UIPointerInactive@@@ATL@@QEBAPEAV?$_NoAddRefReleaseOnCComPtr@UIPointerInactive@@@1@XZ 000000018000b7b0 f i BillDispenser.obj
 0001:0000a830       ??C?$CComPtrBase@UIProvideClassInfo2@@@ATL@@QEBAPEAV?$_NoAddRefReleaseOnCComPtr@UIProvideClassInfo2@@@1@XZ 000000018000b830 f i BillDispenser.obj
 0001:0000a8b0       ??C?$CComPtrBase@UISpecifyPropertyPages@@@ATL@@QEBAPEAV?$_NoAddRefReleaseOnCComPtr@UISpecifyPropertyPages@@@1@XZ 000000018000b8b0 f i BillDispenser.obj
 0001:0000a930       ??C?$CComPtrBase@UITypeInfo@@@ATL@@QEBAPEAV?$_NoAddRefReleaseOnCComPtr@UITypeInfo@@@1@XZ 000000018000b930 f i BillDispenser.obj
 0001:0000a9b0       ??C?$CComPtrBase@UITypeLib@@@ATL@@QEBAPEAV?$_NoAddRefReleaseOnCComPtr@UITypeLib@@@1@XZ 000000018000b9b0 f i BillDispenser.obj
 0001:0000aa30       ??C?$CComPtrBase@UIUnknown@@@ATL@@QEBAPEAV?$_NoAddRefReleaseOnCComPtr@UIUnknown@@@1@XZ 000000018000ba30 f i BillDispenser.obj
 0001:0000aab0       ??C?$CComPtrBase@UIViewObjectEx@@@ATL@@QEBAPEAV?$_NoAddRefReleaseOnCComPtr@UIViewObjectEx@@@1@XZ 000000018000bab0 f i BillDispenser.obj
 0001:0000ab30       ??I?$CComPtrBase@UICatRegister@@@ATL@@QEAAPEAPEAUICatRegister@@XZ 000000018000bb30 f i BillDispenser.obj
 0001:0000aba0       ??I?$CComPtrBase@UIConnectionPoint@@@ATL@@QEAAPEAPEAUIConnectionPoint@@XZ 000000018000bba0 f i BillDispenser.obj
 0001:0000ac10       ??I?$CComPtrBase@UIConnectionPointContainer@@@ATL@@QEAAPEAPEAUIConnectionPointContainer@@XZ 000000018000bc10 f i BillDispenser.obj
 0001:0000ac80       ??I?$CComPtrBase@UIDataAdviseHolder@@@ATL@@QEAAPEAPEAUIDataAdviseHolder@@XZ 000000018000bc80 f i BillDispenser.obj
 0001:0000acf0       ??I?$CComPtrBase@UIDataObject@@@ATL@@QEAAPEAPEAUIDataObject@@XZ 000000018000bcf0 f i BillDispenser.obj
 0001:0000ad60       ??I?$CComPtrBase@UIDispatch@@@ATL@@QEAAPEAPEAUIDispatch@@XZ 000000018000bd60 f i BillDispenser.obj
 0001:0000add0       ??I?$CComPtrBase@UIOleAdviseHolder@@@ATL@@QEAAPEAPEAUIOleAdviseHolder@@XZ 000000018000bdd0 f i BillDispenser.obj
 0001:0000ae40       ??I?$CComPtrBase@UIOleControlSite@@@ATL@@QEAAPEAPEAUIOleControlSite@@XZ 000000018000be40 f i BillDispenser.obj
 0001:0000aeb0       ??I?$CComPtrBase@UIOleInPlaceActiveObject@@@ATL@@QEAAPEAPEAUIOleInPlaceActiveObject@@XZ 000000018000beb0 f i BillDispenser.obj
 0001:0000af20       ??I?$CComPtrBase@UIOleInPlaceFrame@@@ATL@@QEAAPEAPEAUIOleInPlaceFrame@@XZ 000000018000bf20 f i BillDispenser.obj
 0001:0000af90       ??I?$CComPtrBase@UIOleInPlaceObject@@@ATL@@QEAAPEAPEAUIOleInPlaceObject@@XZ 000000018000bf90 f i BillDispenser.obj
 0001:0000b000       ??I?$CComPtrBase@UIOleInPlaceSiteWindowless@@@ATL@@QEAAPEAPEAUIOleInPlaceSiteWindowless@@XZ 000000018000c000 f i BillDispenser.obj
 0001:0000b070       ??I?$CComPtrBase@UIOleInPlaceUIWindow@@@ATL@@QEAAPEAPEAUIOleInPlaceUIWindow@@XZ 000000018000c070 f i BillDispenser.obj
 0001:0000b0e0       ??I?$CComPtrBase@UIOleObject@@@ATL@@QEAAPEAPEAUIOleObject@@XZ 000000018000c0e0 f i BillDispenser.obj
 0001:0000b150       ??I?$CComPtrBase@UIPersistStream@@@ATL@@QEAAPEAPEAUIPersistStream@@XZ 000000018000c150 f i BillDispenser.obj
 0001:0000b1c0       ??I?$CComPtrBase@UIPointerInactive@@@ATL@@QEAAPEAPEAUIPointerInactive@@XZ 000000018000c1c0 f i BillDispenser.obj
 0001:0000b230       ??I?$CComPtrBase@UIProvideClassInfo2@@@ATL@@QEAAPEAPEAUIProvideClassInfo2@@XZ 000000018000c230 f i BillDispenser.obj
 0001:0000b2a0       ??I?$CComPtrBase@UIStream@@@ATL@@QEAAPEAPEAUIStream@@XZ 000000018000c2a0 f i BillDispenser.obj
 0001:0000b310       ??I?$CComPtrBase@UITypeInfo2@@@ATL@@QEAAPEAPEAUITypeInfo2@@XZ 000000018000c310 f i BillDispenser.obj
 0001:0000b380       ??I?$CComPtrBase@UITypeInfo@@@ATL@@QEAAPEAPEAUITypeInfo@@XZ 000000018000c380 f i BillDispenser.obj
 0001:0000b3f0       ??I?$CComPtrBase@UITypeLib@@@ATL@@QEAAPEAPEAUITypeLib@@XZ 000000018000c3f0 f i BillDispenser.obj
 0001:0000b460       ??I?$CComPtrBase@UIUnknown@@@ATL@@QEAAPEAPEAUIUnknown@@XZ 000000018000c460 f i BillDispenser.obj
 0001:0000b4d0       ??I?$CComPtrBase@UIViewObjectEx@@@ATL@@QEAAPEAPEAUIViewObjectEx@@XZ 000000018000c4d0 f i BillDispenser.obj
 0001:0000b540       ??ICComBSTR@ATL@@QEAAPEAPEA_WXZ 000000018000c540 f i BillDispenser.obj
 0001:0000b550       ??_E?$CComContainedObject@VCOPOSBillDispenser@@@ATL@@W7EAAPEAXI@Z 000000018000c550 f i BillDispenser.obj
 0001:0000b55c       ??_E?$CComContainedObject@VCOPOSBillDispenser@@@ATL@@WHA@EAAPEAXI@Z 000000018000c55c f i BillDispenser.obj
 0001:0000b568       ??_E?$CComObject@VCOPOSBillDispenser@@@ATL@@W7EAAPEAXI@Z 000000018000c568 f i BillDispenser.obj
 0001:0000b574       ??_E?$CComObject@VCOPOSBillDispenser@@@ATL@@WHA@EAAPEAXI@Z 000000018000c574 f i BillDispenser.obj
 0001:0000b580       ??_G?$CComAggObject@VCOPOSBillDispenser@@@ATL@@UEAAPEAXI@Z 000000018000c580 f i BillDispenser.obj
 0001:0000b580       ??_E?$CComAggObject@VCOPOSBillDispenser@@@ATL@@UEAAPEAXI@Z 000000018000c580 f i BillDispenser.obj
 0001:0000b5e0       ??_G?$CComContainedObject@VCOPOSBillDispenser@@@ATL@@UEAAPEAXI@Z 000000018000c5e0 f i BillDispenser.obj
 0001:0000b5e0       ??_E?$CComContainedObject@VCOPOSBillDispenser@@@ATL@@UEAAPEAXI@Z 000000018000c5e0 f i BillDispenser.obj
 0001:0000b640       ??_G?$CComObject@V?$CComEnum@UIEnumConnectionPoints@@$1?_GUID_b196b285_bab4_101a_b69c_00aa00341d07@@3U__s_GUID@@BPEAUIConnectionPoint@@V?$_CopyInterface@UIConnectionPoint@@@ATL@@VCComSingleThreadModel@6@@ATL@@@ATL@@UEAAPEAXI@Z 000000018000c640 f i BillDispenser.obj
 0001:0000b640       ??_E?$CComObject@V?$CComEnum@UIEnumConnectionPoints@@$1?_GUID_b196b285_bab4_101a_b69c_00aa00341d07@@3U__s_GUID@@BPEAUIConnectionPoint@@V?$_CopyInterface@UIConnectionPoint@@@ATL@@VCComSingleThreadModel@6@@ATL@@@ATL@@UEAAPEAXI@Z 000000018000c640 f i BillDispenser.obj
 0001:0000b6a0       ??_E?$CComObject@V?$CComEnum@UIEnumConnections@@$1?_GUID_b196b287_bab4_101a_b69c_00aa00341d07@@3U__s_GUID@@BUtagCONNECTDATA@@V?$_Copy@UtagCONNECTDATA@@@ATL@@VCComSingleThreadModel@6@@ATL@@@ATL@@UEAAPEAXI@Z 000000018000c6a0 f i BillDispenser.obj
 0001:0000b6a0       ??_G?$CComObject@V?$CComEnum@UIEnumConnections@@$1?_GUID_b196b287_bab4_101a_b69c_00aa00341d07@@3U__s_GUID@@BUtagCONNECTDATA@@V?$_Copy@UtagCONNECTDATA@@@ATL@@VCComSingleThreadModel@6@@ATL@@@ATL@@UEAAPEAXI@Z 000000018000c6a0 f i BillDispenser.obj
 0001:0000b700       ??_E?$CComObject@VCOPOSBillDispenser@@@ATL@@UEAAPEAXI@Z 000000018000c700 f i BillDispenser.obj
 0001:0000b700       ??_G?$CComObject@VCOPOSBillDispenser@@@ATL@@UEAAPEAXI@Z 000000018000c700 f i BillDispenser.obj
 0001:0000b760       ??_E?$CComObjectCached@VCComClassFactory@ATL@@@ATL@@UEAAPEAXI@Z 000000018000c760 f i BillDispenser.obj
 0001:0000b760       ??_G?$CComObjectCached@VCComClassFactory@ATL@@@ATL@@UEAAPEAXI@Z 000000018000c760 f i BillDispenser.obj
 0001:0000b7c0       ??_ECComClassFactory@ATL@@UEAAPEAXI@Z 000000018000c7c0 f i BillDispenser.obj
 0001:0000b7c0       ??_GCComClassFactory@ATL@@UEAAPEAXI@Z 000000018000c7c0 f i BillDispenser.obj
 0001:0000b820       ??_ECComModule@ATL@@UEAAPEAXI@Z 000000018000c820 f i BillDispenser.obj
 0001:0000b820       ??_GCComModule@ATL@@UEAAPEAXI@Z 000000018000c820 f i BillDispenser.obj
 0001:0000b880       ??_ECRegObject@ATL@@UEAAPEAXI@Z 000000018000c880 f i BillDispenser.obj
 0001:0000b880       ??_GCRegObject@ATL@@UEAAPEAXI@Z 000000018000c880 f i BillDispenser.obj
 0001:0000b8e0       ?Add@?$CSimpleArray@GV?$CSimpleArrayEqualHelper@G@ATL@@@ATL@@QEAAHAEBG@Z 000000018000c8e0 f i BillDispenser.obj
 0001:0000ba80       ?Add@?$CSimpleMap@PEA_WPEA_WVCExpansionVectorEqualHelper@ATL@@@ATL@@QEAAHAEBQEA_W0@Z 000000018000ca80 f i BillDispenser.obj
 0001:0000bb70       ?Add@CComDynamicUnkArray@ATL@@QEAAKPEAUIUnknown@@@Z 000000018000cb70 f i BillDispenser.obj
 0001:0000bd50       ?Add@CExpansionVector@ATL@@QEAAHPEB_W0@Z 000000018000cd50 f i BillDispenser.obj
 0001:0000c080       ?AddChar@CParseBuffer@CRegParser@ATL@@QEAAHPEB_W@Z 000000018000d080 f i BillDispenser.obj
 0001:0000c0d0       ?AddCommonRGSReplacements@?$CAtlModuleT@VCComModule@ATL@@@ATL@@UEAAJPEAUIRegistrarBase@@@Z 000000018000d0d0 f i BillDispenser.obj
 0001:0000c130       ?AddCreateWndData@CAtlWinModule@ATL@@QEAAXPEAU_AtlCreateWndData@2@PEAX@Z 000000018000d130 f i BillDispenser.obj
 0001:0000c180       ?AddRef@?$CComAggObject@VCOPOSBillDispenser@@@ATL@@UEAAKXZ 000000018000d180 f i BillDispenser.obj
 0001:0000c1c0       ?AddRef@?$CComContainedObject@VCOPOSBillDispenser@@@ATL@@UEAAKXZ 000000018000d1c0 f i BillDispenser.obj
 0001:0000c1f8       ?AddRef@?$CComContainedObject@VCOPOSBillDispenser@@@ATL@@WBAA@EAAKXZ 000000018000d1f8 f i BillDispenser.obj
 0001:0000c204       ?AddRef@?$CComContainedObject@VCOPOSBillDispenser@@@ATL@@WBAI@EAAKXZ 000000018000d204 f i BillDispenser.obj
 0001:0000c210       ?AddRef@?$CComContainedObject@VCOPOSBillDispenser@@@ATL@@WBBA@EAAKXZ 000000018000d210 f i BillDispenser.obj
 0001:0000c21c       ?AddRef@?$CComContainedObject@VCOPOSBillDispenser@@@ATL@@WBBI@EAAKXZ 000000018000d21c f i BillDispenser.obj
 0001:0000c228       ?AddRef@?$CComContainedObject@VCOPOSBillDispenser@@@ATL@@WBCI@EAAKXZ 000000018000d228 f i BillDispenser.obj
 0001:0000c234       ?AddRef@?$CComContainedObject@VCOPOSBillDispenser@@@ATL@@WBEA@EAAKXZ 000000018000d234 f i BillDispenser.obj
 0001:0000c240       ?AddRef@?$CComContainedObject@VCOPOSBillDispenser@@@ATL@@WLI@EAAKXZ 000000018000d240 f i BillDispenser.obj
 0001:0000c24c       ?AddRef@?$CComContainedObject@VCOPOSBillDispenser@@@ATL@@WMA@EAAKXZ 000000018000d24c f i BillDispenser.obj
 0001:0000c258       ?AddRef@?$CComContainedObject@VCOPOSBillDispenser@@@ATL@@WMI@EAAKXZ 000000018000d258 f i BillDispenser.obj
 0001:0000c264       ?AddRef@?$CComContainedObject@VCOPOSBillDispenser@@@ATL@@WNA@EAAKXZ 000000018000d264 f i BillDispenser.obj
 0001:0000c270       ?AddRef@?$CComContainedObject@VCOPOSBillDispenser@@@ATL@@WNI@EAAKXZ 000000018000d270 f i BillDispenser.obj
 0001:0000c27c       ?AddRef@?$CComContainedObject@VCOPOSBillDispenser@@@ATL@@WOA@EAAKXZ 000000018000d27c f i BillDispenser.obj
 0001:0000c288       ?AddRef@?$CComContainedObject@VCOPOSBillDispenser@@@ATL@@WOI@EAAKXZ 000000018000d288 f i BillDispenser.obj
 0001:0000c294       ?AddRef@?$CComContainedObject@VCOPOSBillDispenser@@@ATL@@WPA@EAAKXZ 000000018000d294 f i BillDispenser.obj
 0001:0000c2a0       ?AddRef@?$CComContainedObject@VCOPOSBillDispenser@@@ATL@@WPI@EAAKXZ 000000018000d2a0 f i BillDispenser.obj
 0001:0000c2b0       ?AddRef@?$CComObject@V?$CComEnum@UIEnumConnectionPoints@@$1?_GUID_b196b285_bab4_101a_b69c_00aa00341d07@@3U__s_GUID@@BPEAUIConnectionPoint@@V?$_CopyInterface@UIConnectionPoint@@@ATL@@VCComSingleThreadModel@6@@ATL@@@ATL@@UEAAKXZ 000000018000d2b0 f i BillDispenser.obj
 0001:0000c2f0       ?AddRef@?$CComObject@V?$CComEnum@UIEnumConnections@@$1?_GUID_b196b287_bab4_101a_b69c_00aa00341d07@@3U__s_GUID@@BUtagCONNECTDATA@@V?$_Copy@UtagCONNECTDATA@@@ATL@@VCComSingleThreadModel@6@@ATL@@@ATL@@UEAAKXZ 000000018000d2f0 f i BillDispenser.obj
 0001:0000c330       ?AddRef@?$CComObject@VCOPOSBillDispenser@@@ATL@@UEAAKXZ 000000018000d330 f i BillDispenser.obj
 0001:0000c368       ?AddRef@?$CComObject@VCOPOSBillDispenser@@@ATL@@WBAA@EAAKXZ 000000018000d368 f i BillDispenser.obj
 0001:0000c374       ?AddRef@?$CComObject@VCOPOSBillDispenser@@@ATL@@WBAI@EAAKXZ 000000018000d374 f i BillDispenser.obj
 0001:0000c380       ?AddRef@?$CComObject@VCOPOSBillDispenser@@@ATL@@WBBA@EAAKXZ 000000018000d380 f i BillDispenser.obj
 0001:0000c38c       ?AddRef@?$CComObject@VCOPOSBillDispenser@@@ATL@@WBBI@EAAKXZ 000000018000d38c f i BillDispenser.obj
 0001:0000c398       ?AddRef@?$CComObject@VCOPOSBillDispenser@@@ATL@@WBCI@EAAKXZ 000000018000d398 f i BillDispenser.obj
 0001:0000c3a4       ?AddRef@?$CComObject@VCOPOSBillDispenser@@@ATL@@WBEA@EAAKXZ 000000018000d3a4 f i BillDispenser.obj
 0001:0000c3b0       ?AddRef@?$CComObject@VCOPOSBillDispenser@@@ATL@@WLI@EAAKXZ 000000018000d3b0 f i BillDispenser.obj
 0001:0000c3bc       ?AddRef@?$CComObject@VCOPOSBillDispenser@@@ATL@@WMA@EAAKXZ 000000018000d3bc f i BillDispenser.obj
 0001:0000c3c8       ?AddRef@?$CComObject@VCOPOSBillDispenser@@@ATL@@WMI@EAAKXZ 000000018000d3c8 f i BillDispenser.obj
 0001:0000c3d4       ?AddRef@?$CComObject@VCOPOSBillDispenser@@@ATL@@WNA@EAAKXZ 000000018000d3d4 f i BillDispenser.obj
 0001:0000c3e0       ?AddRef@?$CComObject@VCOPOSBillDispenser@@@ATL@@WNI@EAAKXZ 000000018000d3e0 f i BillDispenser.obj
 0001:0000c3ec       ?AddRef@?$CComObject@VCOPOSBillDispenser@@@ATL@@WOA@EAAKXZ 000000018000d3ec f i BillDispenser.obj
 0001:0000c3f8       ?AddRef@?$CComObject@VCOPOSBillDispenser@@@ATL@@WOI@EAAKXZ 000000018000d3f8 f i BillDispenser.obj
 0001:0000c404       ?AddRef@?$CComObject@VCOPOSBillDispenser@@@ATL@@WPA@EAAKXZ 000000018000d404 f i BillDispenser.obj
 0001:0000c410       ?AddRef@?$CComObject@VCOPOSBillDispenser@@@ATL@@WPI@EAAKXZ 000000018000d410 f i BillDispenser.obj
 0001:0000c420       ?AddRef@?$CComObjectCached@VCComClassFactory@ATL@@@ATL@@UEAAKXZ 000000018000d420 f i BillDispenser.obj
 0001:0000c480       ?AddRef@CRegObject@ATL@@UEAAKXZ 000000018000d480 f i BillDispenser.obj
 0001:0000c4f0       ?AddReplacement@CRegObject@ATL@@UEAAJPEB_W0@Z 000000018000d4f0 f i BillDispenser.obj
 0001:0000c620       ?AddString@CParseBuffer@CRegParser@ATL@@QEAAHPEB_W@Z 000000018000d620 f i BillDispenser.obj
 0001:0000c710       ?AddTermFunc@CAtlModule@ATL@@QEAAJP6AX_K@Z0@Z 000000018000d710 f i BillDispenser.obj
 0001:0000c780       ?AddValue@CRegParser@ATL@@IEAAJAEAVCRegKey@2@PEB_WPEA_W@Z 000000018000d780 f i BillDispenser.obj
 0001:0000d050       ?Advise@?$CProxy_IOPOSEvents@VCOPOSBillDispenser@@@@UEAAJPEAUIUnknown@@PEAK@Z 000000018000e050 f i BillDispenser.obj
 0001:0000d0c0       ?Advise@?$IConnectionPointImpl@VCOPOSBillDispenser@@$1?DIID__IOPOSBillDispenserEvents@@3U_GUID@@BVCComDynamicUnkArray@ATL@@@ATL@@UEAAJPEAUIUnknown@@PEAK@Z 000000018000e0c0 f i BillDispenser.obj
 0001:0000d2c0       ?Advise@?$IConnectionPointImpl@VCOPOSBillDispenser@@$1?IID_IPropertyNotifySink@@3U_GUID@@BVCComDynamicUnkArray@ATL@@@ATL@@UEAAJPEAUIUnknown@@PEAK@Z 000000018000e2c0 f i BillDispenser.obj
 0001:0000d4c0       ?Advise@?$IOleObjectImpl@VCOPOSBillDispenser@@@ATL@@UEAAJPEAUIAdviseSink@@PEAK@Z 000000018000e4c0 f i BillDispenser.obj
 0001:0000d580       ?Allocate@?$CAtlSafeAllocBufferManager@VCCRTAllocator@ATL@@@_ATL_SAFE_ALLOCA_IMPL@ATL@@QEAAPEAX_K@Z 000000018000e580 f i BillDispenser.obj
 0001:0000d600       ?Allocate@?$CTempBuffer@E$0BAA@VCCRTAllocator@ATL@@@ATL@@QEAAPEAE_K@Z 000000018000e600 f i BillDispenser.obj
 0001:0000d650       ?Allocate@?$CTempBuffer@_W$0BAA@VCCRTAllocator@ATL@@@ATL@@QEAAPEA_W_K@Z 000000018000e650 f i BillDispenser.obj
 0001:0000d6a0       ?Allocate@?$CTempBuffer@_W$0EAA@VCCRTAllocator@ATL@@@ATL@@QEAAPEA_W_K@Z 000000018000e6a0 f i BillDispenser.obj
 0001:0000d6f0       ?AllocateBytes@?$CTempBuffer@E$0BAA@VCCRTAllocator@ATL@@@ATL@@QEAAPEAE_K@Z 000000018000e6f0 f i BillDispenser.obj
 0001:0000d7a0       ?AllocateBytes@?$CTempBuffer@_W$0BAA@VCCRTAllocator@ATL@@@ATL@@QEAAPEA_W_K@Z 000000018000e7a0 f i BillDispenser.obj
 0001:0000d850       ?AllocateBytes@?$CTempBuffer@_W$0EAA@VCCRTAllocator@ATL@@@ATL@@QEAAPEA_W_K@Z 000000018000e850 f i BillDispenser.obj
 0001:0000d900       ?AllocateHeap@?$CTempBuffer@E$0BAA@VCCRTAllocator@ATL@@@ATL@@AEAAX_K@Z 000000018000e900 f i BillDispenser.obj
 0001:0000d960       ?AllocateHeap@?$CTempBuffer@_W$0BAA@VCCRTAllocator@ATL@@@ATL@@AEAAX_K@Z 000000018000e960 f i BillDispenser.obj
 0001:0000d9c0       ?AllocateHeap@?$CTempBuffer@_W$0EAA@VCCRTAllocator@ATL@@@ATL@@AEAAX_K@Z 000000018000e9c0 f i BillDispenser.obj
 0001:0000da20       ?Append@CParseBuffer@CRegParser@ATL@@QEAAHPEB_WH@Z 000000018000ea20 f i BillDispenser.obj
 0001:0000dc50       ?AtlCallTermFunc@ATL@@YAXPEAU_ATL_MODULE70@1@@Z 000000018000ec50 f i BillDispenser.obj
 0001:0000dd00       ?AtlCoTaskMemCAlloc@ATL@@YAPEAXKK@Z 000000018000ed00 f i BillDispenser.obj
 0001:0000dd80       ?AtlCoTaskMemRecalloc@ATL@@YAPEAXPEAXKK@Z 000000018000ed80 f i BillDispenser.obj
 0001:0000de00       ?AtlComModuleGetClassObject@ATL@@YAJPEAU_ATL_COM_MODULE70@1@AEBU_GUID@@1PEAPEAX@Z 000000018000ee00 f i BillDispenser.obj
 0001:0000e130       ?AtlComModuleRegisterServer@ATL@@YAJPEAU_ATL_COM_MODULE70@1@HPEBU_GUID@@@Z 000000018000f130 f i BillDispenser.obj
 0001:0000e330       ?AtlComModuleUnregisterServer@ATL@@YAJPEAU_ATL_COM_MODULE70@1@HPEBU_GUID@@@Z 000000018000f330 f i BillDispenser.obj
 0001:0000e490       ?AtlComQIPtrAssign2@ATL@@YAXPEAPEAUIUnknown@@PEAU2@AEBU_GUID@@@Z 000000018000f490 f i BillDispenser.obj
 0001:0000e520       ?AtlCreateTargetDC@ATL@@YAPEAUHDC__@@PEAU2@PEAUtagDVTARGETDEVICE@@@Z 000000018000f520 f i BillDispenser.obj
 0001:0000e750       ?AtlCrtErrorCheck@ATL@@YAHH@Z 000000018000f750 f i BillDispenser.obj
 0001:0000e7d0       ?AtlGetPerUserRegistration@ATL@@YAJPEA_N@Z 000000018000f7d0 f i BillDispenser.obj
 0001:0000e800       ?AtlHiMetricToPixel@ATL@@YAXPEBUtagSIZE@@PEAU2@@Z 000000018000f800 f i BillDispenser.obj
 0001:0000ea00       ?AtlHresultFromLastError@ATL@@YAJXZ 000000018000fa00 f i BillDispenser.obj
 0001:0000ea30       ?AtlHresultFromWin32@ATL@@YAJK@Z 000000018000fa30 f i BillDispenser.obj
 0001:0000ea60       ?AtlIPersistStreamInit_Load@ATL@@YAJPEAUIStream@@PEBUATL_PROPMAP_ENTRY@1@PEAXPEAUIUnknown@@@Z 000000018000fa60 f i BillDispenser.obj
 0001:0000f0d0       ?AtlIPersistStreamInit_Save@ATL@@YAJPEAUIStream@@HPEBUATL_PROPMAP_ENTRY@1@PEAXPEAUIUnknown@@@Z 00000001800100d0 f i BillDispenser.obj
 0001:0000f660       ?AtlInternalOleLoadFromStream@ATL@@YAJPEAUIStream@@AEBU_GUID@@PEAPEAXTClassesAllowedInStream@1@K@Z 0000000180010660 f i BillDispenser.obj
 0001:0000f9a0       ?AtlInternalQueryInterface@ATL@@YAJPEAXPEBU_ATL_INTMAP_ENTRY@1@AEBU_GUID@@PEAPEAX@Z 00000001800109a0 f i BillDispenser.obj
 0001:0000fc60       ?AtlLoadTypeLib@ATL@@YAJPEAUHINSTANCE__@@PEB_WPEAPEA_WPEAPEAUITypeLib@@@Z 0000000180010c60 f i BillDispenser.obj
 0001:00010130       ?AtlModuleAddTermFunc@ATL@@YAJPEAU_ATL_MODULE70@1@P6AX_K@Z1@Z 0000000180011130 f i BillDispenser.obj
 0001:00010300       ?AtlRegisterClassCategoriesHelper@ATL@@YAJAEBU_GUID@@PEBU_ATL_CATMAP_ENTRY@1@H@Z 0000000180011300 f i BillDispenser.obj
 0001:00010ad0       ?AtlRegisterTypeLib@ATL@@YAJPEAUHINSTANCE__@@PEB_W@Z 0000000180011ad0 f i BillDispenser.obj
 0001:00010e30       ?AtlThrowImpl@ATL@@YAXJ@Z  0000000180011e30 f i BillDispenser.obj
 0001:00010f10       ?AtlUnRegisterTypeLib@ATL@@YAJPEAUHINSTANCE__@@PEB_W@Z 0000000180011f10 f i BillDispenser.obj
 0001:00011140       ?AtlWinModuleAddCreateWndData@ATL@@YAXPEAU_ATL_WIN_MODULE70@1@PEAU_AtlCreateWndData@1@PEAX@Z 0000000180012140 f i BillDispenser.obj
 0001:00011330       ?AtlWinModuleExtractCreateWndData@ATL@@YAPEAXPEAU_ATL_WIN_MODULE70@1@@Z 0000000180012330 f i BillDispenser.obj
 0001:00011530       ?AtlWinModuleRegisterClassExW@ATL@@YAGPEAU_ATL_WIN_MODULE70@1@PEBUtagWNDCLASSEXW@@@Z 0000000180012530 f i BillDispenser.obj
 0001:00011600       ?AtlWinModuleRegisterWndClassInfoW@ATL@@YAGPEAU_ATL_WIN_MODULE70@1@PEAU_ATL_BASE_MODULE70@1@PEAU_ATL_WNDCLASSINFOW@1@PEAP6A_JPEAUHWND__@@I_K_J@Z@Z 0000000180012600 f i BillDispenser.obj
 0001:00011670       ?Attach@?$CAutoVectorPtr@_W@ATL@@QEAAXPEA_W@Z 0000000180012670 f i BillDispenser.obj
 0001:00011700       ?Attach@CComBSTR@ATL@@QEAAXPEA_W@Z 0000000180012700 f i BillDispenser.obj
 0001:00011760       ?Attach@CRegKey@ATL@@QEAAXPEAUHKEY__@@@Z 0000000180012760 f i BillDispenser.obj
 0001:00011800       ?CanForceRemoveKey@CRegParser@ATL@@IEAAHPEB_W@Z 0000000180012800 f i BillDispenser.obj
 0001:00011870       ?ChToByte@CRegParser@ATL@@KAE_W@Z 0000000180012870 f i BillDispenser.obj
 0001:000119d0       ?ChangeType@CComVariant@ATL@@QEAAJGPEBUtagVARIANT@@@Z 00000001800129d0 f i BillDispenser.obj
 0001:00011a40       ?Cleanup@CComTypeInfoHolder@ATL@@SAX_K@Z 0000000180012a40 f i BillDispenser.obj
 0001:00011b40       ?Clear@CComVariant@ATL@@QEAAJXZ 0000000180012b40 f i BillDispenser.obj
 0001:00011b70       ?ClearReplacements@CExpansionVector@ATL@@QEAAJXZ 0000000180012b70 f i BillDispenser.obj
 0001:00011c10       ?ClearReplacements@CRegObject@ATL@@UEAAJXZ 0000000180012c10 f i BillDispenser.obj
 0001:00011c70       ?Clone@?$CComEnumImpl@UIEnumConnectionPoints@@$1?_GUID_b196b285_bab4_101a_b69c_00aa00341d07@@3U__s_GUID@@BPEAUIConnectionPoint@@V?$_CopyInterface@UIConnectionPoint@@@ATL@@@ATL@@UEAAJPEAPEAUIEnumConnectionPoints@@@Z 0000000180012c70 f i BillDispenser.obj
 0001:00011e80       ?Clone@?$CComEnumImpl@UIEnumConnections@@$1?_GUID_b196b287_bab4_101a_b69c_00aa00341d07@@3U__s_GUID@@BUtagCONNECTDATA@@V?$_Copy@UtagCONNECTDATA@@@ATL@@@ATL@@UEAAJPEAPEAUIEnumConnections@@@Z 0000000180012e80 f i BillDispenser.obj
 0001:00012090       ?Close@?$IOleObjectImpl@VCOPOSBillDispenser@@@ATL@@UEAAJK@Z 0000000180013090 f i BillDispenser.obj
 0001:00012140       ?Close@CRegKey@ATL@@QEAAJXZ 0000000180013140 f i BillDispenser.obj
 0001:000121b0       ?ContextSensitiveHelp@?$IOleInPlaceActiveObjectImpl@VCOPOSBillDispenser@@@ATL@@UEAAJH@Z 00000001800131b0 f i BillDispenser.obj
 0001:00012230       ?ContextSensitiveHelp@?$IOleInPlaceObjectWindowlessImpl@VCOPOSBillDispenser@@@ATL@@UEAAJH@Z 0000000180013230 f i BillDispenser.obj
 0001:000122b0       ?ControlQueryInterface@?$CComControl@VCOPOSBillDispenser@@V?$CWindowImpl@VCOPOSBillDispenser@@VCWindow@ATL@@V?$CWinTraits@$0FGAAAAAA@$0A@@3@@ATL@@@ATL@@UEAAJAEBU_GUID@@PEAPEAX@Z 00000001800132b0 f i BillDispenser.obj
 0001:00012340       ?CreateControlWindow@?$CComControl@VCOPOSBillDispenser@@V?$CWindowImpl@VCOPOSBillDispenser@@VCWindow@ATL@@V?$CWinTraits@$0FGAAAAAA@$0A@@3@@ATL@@@ATL@@UEAAPEAUHWND__@@PEAU3@AEAUtagRECT@@@Z 0000000180013340 f i BillDispenser.obj
 0001:00012430       ?CreateInstance@?$CComCreator@V?$CComAggObject@VCOPOSBillDispenser@@@ATL@@@ATL@@SAJPEAXAEBU_GUID@@PEAPEAX@Z 0000000180013430 f i BillDispenser.obj
 0001:00012630       ?CreateInstance@?$CComCreator@V?$CComObject@VCOPOSBillDispenser@@@ATL@@@ATL@@SAJPEAXAEBU_GUID@@PEAPEAX@Z 0000000180013630 f i BillDispenser.obj
 0001:00012840       ?CreateInstance@?$CComObject@V?$CComEnum@UIEnumConnectionPoints@@$1?_GUID_b196b285_bab4_101a_b69c_00aa00341d07@@3U__s_GUID@@BPEAUIConnectionPoint@@V?$_CopyInterface@UIConnectionPoint@@@ATL@@VCComSingleThreadModel@6@@ATL@@@ATL@@SAJPEAPEAV12@@Z 0000000180013840 f i BillDispenser.obj
 0001:00012a20       ?CreateInstance@?$CComObject@V?$CComEnum@UIEnumConnections@@$1?_GUID_b196b287_bab4_101a_b69c_00aa00341d07@@3U__s_GUID@@BUtagCONNECTDATA@@V?$_Copy@UtagCONNECTDATA@@@ATL@@VCComSingleThreadModel@6@@ATL@@@ATL@@SAJPEAPEAV12@@Z 0000000180013a20 f i BillDispenser.obj
 0001:00012c00       ?CreateInstance@CComClassFactory@ATL@@UEAAJPEAUIUnknown@@AEBU_GUID@@PEAPEAX@Z 0000000180013c00 f i BillDispenser.obj
 0001:00012d20       ?DAdvise@?$IDataObjectImpl@VCOPOSBillDispenser@@@ATL@@UEAAJPEAUtagFORMATETC@@KPEAUIAdviseSink@@PEAK@Z 0000000180013d20 f i BillDispenser.obj
 0001:00012e80       ?DEVMODEOLE2T_EX@@YAPEAU_devicemodeW@@PEAU1@@Z 0000000180013e80 f i BillDispenser.obj
 0001:00012e90       ?DUnadvise@?$IDataObjectImpl@VCOPOSBillDispenser@@@ATL@@UEAAJK@Z 0000000180013e90 f i BillDispenser.obj
 0001:00012f90       ?Decrement@CComMultiThreadModel@ATL@@SAKPEAJ@Z 0000000180013f90 f i BillDispenser.obj
 0001:00012fb0       ?Decrement@CComSingleThreadModel@ATL@@SAKPEAJ@Z 0000000180013fb0 f i BillDispenser.obj
 0001:00012fd0       ?DefWindowProcW@?$CWindowImplBaseT@VCWindow@ATL@@V?$CWinTraits@$0FGAAAAAA@$0A@@2@@ATL@@QEAA_JI_K_J@Z 0000000180013fd0 f i BillDispenser.obj
 0001:00013030       ?DefaultReflectionHandler@?$CWindowImplRoot@VCWindow@ATL@@@ATL@@SAHPEAUHWND__@@I_K_JAEA_J@Z 0000000180014030 f i BillDispenser.obj
 0001:00013120       ?DeleteSubKey@CRegKey@ATL@@QEAAJPEB_W@Z 0000000180014120 f i BillDispenser.obj
 0001:00013250       ?DeleteValue@CRegKey@ATL@@QEAAJPEB_W@Z 0000000180014250 f i BillDispenser.obj
 0001:000132e0       ?Detach@?$CAutoVectorPtr@_W@ATL@@QEAAPEA_WXZ 00000001800142e0 f i BillDispenser.obj
 0001:00013320       ?Detach@?$CComPtrBase@UIPersistStream@@@ATL@@QEAAPEAUIPersistStream@@XZ 0000000180014320 f i BillDispenser.obj
 0001:00013360       ?Detach@?$CComPtrBase@UITypeInfo@@@ATL@@QEAAPEAUITypeInfo@@XZ 0000000180014360 f i BillDispenser.obj
 0001:000133a0       ?Detach@?$CComPtrBase@UIUnknown@@@ATL@@QEAAPEAUIUnknown@@XZ 00000001800143a0 f i BillDispenser.obj
 0001:000133e0       ?Detach@CComBSTR@ATL@@QEAAPEA_WXZ 00000001800143e0 f i BillDispenser.obj
 0001:00013420       ?Detach@CParseBuffer@CRegParser@ATL@@QEAAPEA_WXZ 0000000180014420 f i BillDispenser.obj
 0001:00013480       ?Detach@CRegKey@ATL@@QEAAPEAUHKEY__@@XZ 0000000180014480 f i BillDispenser.obj
 0001:000134e0       ?DoEvent@COPOSBillDispenser@@IEAAXI_K_J@Z 00000001800144e0 f i BillDispenser.obj
 0001:00013620       ?DoVerb@?$IOleObjectImpl@VCOPOSBillDispenser@@@ATL@@UEAAJJPEAUtagMSG@@PEAUIOleClientSite@@JPEAUHWND__@@PEBUtagRECT@@@Z 0000000180014620 f i BillDispenser.obj
 0001:00013930       ?DoVerbDiscardUndo@?$IOleObjectImpl@VCOPOSBillDispenser@@@ATL@@QEAAJPEBUtagRECT@@PEAUHWND__@@@Z 0000000180014930 f i BillDispenser.obj
 0001:000139d0       ?DoVerbHide@?$IOleObjectImpl@VCOPOSBillDispenser@@@ATL@@QEAAJPEBUtagRECT@@PEAUHWND__@@@Z 00000001800149d0 f i BillDispenser.obj
 0001:00013ab0       ?DoVerbInPlaceActivate@?$IOleObjectImpl@VCOPOSBillDispenser@@@ATL@@QEAAJPEBUtagRECT@@PEAUHWND__@@@Z 0000000180014ab0 f i BillDispenser.obj
 0001:00013b90       ?DoVerbOpen@?$IOleObjectImpl@VCOPOSBillDispenser@@@ATL@@QEAAJPEBUtagRECT@@PEAUHWND__@@@Z 0000000180014b90 f i BillDispenser.obj
 0001:00013c30       ?DoVerbPrimary@?$IOleObjectImpl@VCOPOSBillDispenser@@@ATL@@QEAAJPEBUtagRECT@@PEAUHWND__@@@Z 0000000180014c30 f i BillDispenser.obj
 0001:00013d70       ?DoVerbProperties@CComControlBase@ATL@@QEAAJPEBUtagRECT@@PEAUHWND__@@@Z 0000000180014d70 f i BillDispenser.obj
 0001:00014120       ?DoVerbShow@?$IOleObjectImpl@VCOPOSBillDispenser@@@ATL@@QEAAJPEBUtagRECT@@PEAUHWND__@@@Z 0000000180015120 f i BillDispenser.obj
 0001:000141e0       ?DoVerbUIActivate@?$IOleObjectImpl@VCOPOSBillDispenser@@@ATL@@QEAAJPEBUtagRECT@@PEAUHWND__@@@Z 00000001800151e0 f i BillDispenser.obj
 0001:000142c0       ?DoesVerbActivate@CComControlBase@ATL@@QEAAHJ@Z 00000001800152c0 f i BillDispenser.obj
 0001:00014320       ?DoesVerbUIActivate@CComControlBase@ATL@@QEAAHJ@Z 0000000180015320 f i BillDispenser.obj
 0001:000143a0       ?Draw@?$IViewObjectExImpl@VCOPOSBillDispenser@@@ATL@@UEAAJKJPEAXPEAUtagDVTARGETDEVICE@@PEAUHDC__@@2PEBU_RECTL@@3P6AH_K@Z4@Z 00000001800153a0 f i BillDispenser.obj
 0001:000144c0       ?Empty@CComBSTR@ATL@@QEAAXXZ 00000001800154c0 f i BillDispenser.obj
 0001:00014500       ?EnableModeless@?$IOleInPlaceActiveObjectImpl@VCOPOSBillDispenser@@@ATL@@UEAAJH@Z 0000000180015500 f i BillDispenser.obj
 0001:00014570       ?EndOfVar@CRegParser@ATL@@IEAAHXZ 0000000180015570 f i BillDispenser.obj
 0001:000145d0       ?EnsureTI@CComTypeInfoHolder@ATL@@QEAAJK@Z 00000001800155d0 f i BillDispenser.obj
 0001:00014630       ?EnumAdvise@?$IOleObjectImpl@VCOPOSBillDispenser@@@ATL@@UEAAJPEAPEAUIEnumSTATDATA@@@Z 0000000180015630 f i BillDispenser.obj
 0001:00014790       ?EnumConnectionPoints@?$IConnectionPointContainerImpl@VCOPOSBillDispenser@@@ATL@@UEAAJPEAPEAUIEnumConnectionPoints@@@Z 0000000180015790 f i BillDispenser.obj
 0001:00014cc0       ?EnumConnections@?$IConnectionPointImpl@VCOPOSBillDispenser@@$1?DIID__IOPOSBillDispenserEvents@@3U_GUID@@BVCComDynamicUnkArray@ATL@@@ATL@@UEAAJPEAPEAUIEnumConnections@@@Z 0000000180015cc0 f i BillDispenser.obj
 0001:00015030       ?EnumConnections@?$IConnectionPointImpl@VCOPOSBillDispenser@@$1?IID_IPropertyNotifySink@@3U_GUID@@BVCComDynamicUnkArray@ATL@@@ATL@@UEAAJPEAPEAUIEnumConnections@@@Z 0000000180016030 f i BillDispenser.obj
 0001:000153a0       ?EnumDAdvise@?$IDataObjectImpl@VCOPOSBillDispenser@@@ATL@@UEAAJPEAPEAUIEnumSTATDATA@@@Z 00000001800163a0 f i BillDispenser.obj
 0001:000154f0       ?EnumFormatEtc@?$IDataObjectImpl@VCOPOSBillDispenser@@@ATL@@UEAAJKPEAPEAUIEnumFORMATETC@@@Z 00000001800164f0 f i BillDispenser.obj
 0001:00015580       ?EnumVerbs@?$IOleObjectImpl@VCOPOSBillDispenser@@@ATL@@UEAAJPEAPEAUIEnumOLEVERB@@@Z 0000000180016580 f i BillDispenser.obj
 0001:00015650       ?EscapeSingleQuote@CAtlModule@ATL@@SAXPEA_W_KPEB_W@Z 0000000180016650 f i BillDispenser.obj
 0001:00015750       ?ExtractCreateWndData@CAtlWinModule@ATL@@QEAAPEAXXZ 0000000180016750 f i BillDispenser.obj
 0001:00015780       ?FAccessAllowed@?$IObjectSafetyImpl@VCOPOSBillDispenser@@$02@ATL@@MEAAHXZ 0000000180016780 f i BillDispenser.obj
 0001:00015790       ?FinalConstruct@?$CComAggObject@VCOPOSBillDispenser@@@ATL@@QEAAJXZ 0000000180016790 f i BillDispenser.obj
 0001:000157e0       ?FinalConstruct@CComObjectRootBase@ATL@@QEAAJXZ 00000001800167e0 f i BillDispenser.obj
 0001:000157f0       ?FinalConstruct@CRegObject@ATL@@QEAAJXZ 00000001800167f0 f i BillDispenser.obj
 0001:00015830       ?FinalRelease@?$CComAggObject@VCOPOSBillDispenser@@@ATL@@QEAAXXZ 0000000180016830 f i BillDispenser.obj
 0001:00015880       ?FinalRelease@CComObjectRootBase@ATL@@QEAAXXZ 0000000180016880 f i BillDispenser.obj
 0001:00015890       ?FindConnectionPoint@?$IConnectionPointContainerImpl@VCOPOSBillDispenser@@@ATL@@UEAAJAEBU_GUID@@PEAPEAUIConnectionPoint@@@Z 0000000180016890 f i BillDispenser.obj
 0001:00015a00       ?FindKey@?$CSimpleMap@PEA_WPEA_WVCExpansionVectorEqualHelper@ATL@@@ATL@@QEBAHAEBQEA_W@Z 0000000180016a00 f i BillDispenser.obj
 0001:00015a80       ?FireTheEvent@?$CProxy_IOPOSEvents@VCOPOSBillDispenser@@@@IEAAXPEAUIUnknown@@PEAVOposVariant@@IAEAJPEB_WJ@Z 0000000180016a80 f i BillDispenser.obj
 0001:00015c60       ?FireViewChange@CComControlBase@ATL@@QEAAJXZ 0000000180016c60 f i BillDispenser.obj
 0001:00015d40       ?Fire_DirectIOEvent@?$CProxy_IOPOSEvents@VCOPOSBillDispenser@@@@QEAAXJPEAJPEAPEA_W@Z 0000000180016d40 f i BillDispenser.obj
 0001:00015fd0       ?Fire_StatusUpdateEvent@?$CProxy_IOPOSEvents@VCOPOSBillDispenser@@@@QEAAXJ@Z 0000000180016fd0 f i BillDispenser.obj
 0001:000161c0       ?FormatWindowClassName@AtlModuleRegisterWndClassInfoParamW@ATL@@SAXPEA_WKPEAX@Z 00000001800171c0 f i BillDispenser.obj
 0001:00016210       ?Free@?$CAutoVectorPtr@_W@ATL@@QEAAXXZ 0000000180017210 f i BillDispenser.obj
 0001:00016260       ?FreeHeap@?$CTempBuffer@E$0BAA@VCCRTAllocator@ATL@@@ATL@@AEAAXXZ 0000000180017260 f i BillDispenser.obj
 0001:000162a0       ?FreeHeap@?$CTempBuffer@_W$0BAA@VCCRTAllocator@ATL@@@ATL@@AEAAXXZ 00000001800172a0 f i BillDispenser.obj
 0001:000162e0       ?FreeHeap@?$CTempBuffer@_W$0EAA@VCCRTAllocator@ATL@@@ATL@@AEAAXXZ 00000001800172e0 f i BillDispenser.obj
 0001:00016320       ?Freeze@?$IViewObjectExImpl@VCOPOSBillDispenser@@@ATL@@UEAAJKJPEAXPEAK@Z 0000000180017320 f i BillDispenser.obj
 0001:000163b0       ?GenerateError@CRegParser@ATL@@IEAAJI@Z 00000001800173b0 f i BillDispenser.obj
 0001:000163d0       ?GetAdvise@?$IViewObjectExImpl@VCOPOSBillDispenser@@@ATL@@UEAAJPEAK0PEAPEAUIAdviseSink@@@Z 00000001800173d0 f i BillDispenser.obj
 0001:00016520       ?GetAmbientLocaleID@CComControlBase@ATL@@QEAAJAEAK@Z 0000000180017520 f i BillDispenser.obj
 0001:00016600       ?GetAmbientProperty@CComControlBase@ATL@@QEAAJJAEAUtagVARIANT@@@Z 0000000180017600 f i BillDispenser.obj
 0001:00016670       ?GetAmbientUserMode@CComControlBase@ATL@@QEAAJAEAH@Z 0000000180017670 f i BillDispenser.obj
 0001:00016790       ?GetAppId@?$CAtlModuleT@VCComModule@ATL@@@ATL@@SAPEB_WXZ 0000000180017790 f i BillDispenser.obj
 0001:000167a0       ?GetAt@CComDynamicUnkArray@ATL@@QEAAPEAUIUnknown@@H@Z 00000001800177a0 f i BillDispenser.obj
 0001:00016850       ?GetCanonicalFormatEtc@?$IDataObjectImpl@VCOPOSBillDispenser@@@ATL@@UEAAJPEAUtagFORMATETC@@0@Z 0000000180017850 f i BillDispenser.obj
 0001:000168e0       ?GetClassID@?$IPersistStorageImpl@VCOPOSBillDispenser@@@ATL@@UEAAJPEAU_GUID@@@Z 00000001800178e0 f i BillDispenser.obj
 0001:00016980       ?GetClassID@?$IPersistStreamInitImpl@VCOPOSBillDispenser@@@ATL@@UEAAJPEAU_GUID@@@Z 0000000180017980 f i BillDispenser.obj
 0001:00016a20       ?GetClassInfoExW@AtlModuleRegisterWndClassInfoParamW@ATL@@SAHPEAUHINSTANCE__@@PEB_WPEAUtagWNDCLASSEXW@@@Z 0000000180017a20 f i BillDispenser.obj
 0001:00016a70       ?GetClassInfoW@?$IProvideClassInfo2Impl@$1?CLSID_OPOSBillDispenser@@3U_GUID@@B$1?DIID__IOPOSBillDispenserEvents@@3U2@B$1?LIBID_OposBillDispenser_CCO@@3U2@B$00$0A@VCComTypeInfoHolder@ATL@@@ATL@@UEAAJPEAPEAUITypeInfo@@@Z 0000000180017a70 f i BillDispenser.obj
 0001:00016ab0       ?GetClassObject@CComModule@ATL@@QEAAJAEBU_GUID@@0PEAPEAX@Z 0000000180017ab0 f i BillDispenser.obj
 0001:00016d20       ?GetClientSite@?$IOleObjectImpl@VCOPOSBillDispenser@@@ATL@@UEAAJPEAPEAUIOleClientSite@@@Z 0000000180017d20 f i BillDispenser.obj
 0001:00016dd0       ?GetClipboardData@?$IOleObjectImpl@VCOPOSBillDispenser@@@ATL@@UEAAJKPEAPEAUIDataObject@@@Z 0000000180017dd0 f i BillDispenser.obj
 0001:00016e60       ?GetCodeAddress@CDynamicStdCallThunk2@ATL@@QEAAPEAXXZ 0000000180017e60 f i BillDispenser.obj
 0001:00016ea0       ?GetColorSet@?$IViewObjectExImpl@VCOPOSBillDispenser@@@ATL@@UEAAJKJPEAXPEAUtagDVTARGETDEVICE@@PEAUHDC__@@PEAPEAUtagLOGPALETTE@@@Z 0000000180017ea0 f i BillDispenser.obj
 0001:00016f30       ?GetConnMap@COPOSBillDispenser@@SAPEBU_ATL_CONNMAP_ENTRY@ATL@@PEAH@Z 0000000180017f30 f i BillDispenser.obj
 0001:00017090       ?GetConnectionInterface@?$IConnectionPointImpl@VCOPOSBillDispenser@@$1?DIID__IOPOSBillDispenserEvents@@3U_GUID@@BVCComDynamicUnkArray@ATL@@@ATL@@UEAAJPEAU_GUID@@@Z 0000000180018090 f i BillDispenser.obj
 0001:000170d0       ?GetConnectionInterface@?$IConnectionPointImpl@VCOPOSBillDispenser@@$1?IID_IPropertyNotifySink@@3U_GUID@@BVCComDynamicUnkArray@ATL@@@ATL@@UEAAJPEAU_GUID@@@Z 00000001800180d0 f i BillDispenser.obj
 0001:00017110       ?GetConnectionPointContainer@?$IConnectionPointImpl@VCOPOSBillDispenser@@$1?DIID__IOPOSBillDispenserEvents@@3U_GUID@@BVCComDynamicUnkArray@ATL@@@ATL@@UEAAJPEAPEAUIConnectionPointContainer@@@Z 0000000180018110 f i BillDispenser.obj
 0001:00017190       ?GetConnectionPointContainer@?$IConnectionPointImpl@VCOPOSBillDispenser@@$1?IID_IPropertyNotifySink@@3U_GUID@@BVCComDynamicUnkArray@ATL@@@ATL@@UEAAJPEAPEAUIConnectionPointContainer@@@Z 0000000180018190 f i BillDispenser.obj
 0001:00017210       ?GetContentExtent@?$IQuickActivateImpl@VCOPOSBillDispenser@@@ATL@@UEAAJPEAUtagSIZE@@@Z 0000000180018210 f i BillDispenser.obj
 0001:000172d0       ?GetControlInfo@?$IOleControlImpl@VCOPOSBillDispenser@@@ATL@@UEAAJPEAUtagCONTROLINFO@@@Z 00000001800182d0 f i BillDispenser.obj
 0001:00017360       ?GetCookie@CComDynamicUnkArray@ATL@@QEAAKPEAPEAUIUnknown@@@Z 0000000180018360 f i BillDispenser.obj
 0001:00017450       ?GetData@?$IDataObjectImpl@VCOPOSBillDispenser@@@ATL@@UEAAJPEAUtagFORMATETC@@PEAUtagSTGMEDIUM@@@Z 0000000180018450 f i BillDispenser.obj
 0001:00017510       ?GetData@CAtlSafeAllocBufferNode@?$CAtlSafeAllocBufferManager@VCCRTAllocator@ATL@@@_ATL_SAFE_ALLOCA_IMPL@ATL@@QEAAPEAXXZ 0000000180018510 f i BillDispenser.obj
 0001:00017530       ?GetDataHere@?$IDataObjectImpl@VCOPOSBillDispenser@@@ATL@@UEAAJPEAUtagFORMATETC@@PEAUtagSTGMEDIUM@@@Z 0000000180018530 f i BillDispenser.obj
 0001:000175c0       ?GetDropTarget@?$IOleInPlaceObjectWindowlessImpl@VCOPOSBillDispenser@@@ATL@@UEAAJPEAPEAUIDropTarget@@@Z 00000001800185c0 f i BillDispenser.obj
 0001:00017650       ?GetExtent@?$IOleObjectImpl@VCOPOSBillDispenser@@@ATL@@UEAAJKPEAUtagSIZE@@@Z 0000000180018650 f i BillDispenser.obj
 0001:00017720       ?GetExtent@?$IViewObjectExImpl@VCOPOSBillDispenser@@@ATL@@UEAAJKJPEAUtagDVTARGETDEVICE@@PEAUtagSIZE@@@Z 0000000180018720 f i BillDispenser.obj
 0001:00017830       ?GetGITPtr@CAtlModule@ATL@@UEAAJPEAPEAUIGlobalInterfaceTable@@@Z 0000000180018830 f i BillDispenser.obj
 0001:00017970       ?GetGUID@?$IProvideClassInfo2Impl@$1?CLSID_OPOSBillDispenser@@3U_GUID@@B$1?DIID__IOPOSBillDispenserEvents@@3U2@B$1?LIBID_OposBillDispenser_CCO@@3U2@B$00$0A@VCComTypeInfoHolder@ATL@@@ATL@@UEAAJKPEAU_GUID@@@Z 0000000180018970 f i BillDispenser.obj
 0001:000179f0       ?GetIDsOfNames@?$IDispatchImpl@UIOPOSBillDispenser@@$1?IID_IOPOSBillDispenser@@3U_GUID@@B$1?LIBID_OposBillDispenser_CCO@@3U3@B$00$0A@VCComTypeInfoHolder@ATL@@@ATL@@UEAAJAEBU_GUID@@PEAPEA_WIKPEAJ@Z 00000001800189f0 f i BillDispenser.obj
 0001:00017a50       ?GetIDsOfNames@CComTypeInfoHolder@ATL@@QEAAJAEBU_GUID@@PEAPEA_WIKPEAJ@Z 0000000180018a50 f i BillDispenser.obj
 0001:00017c70       ?GetInterfaceSafetyOptions@?$IObjectSafetyImpl@VCOPOSBillDispenser@@$02@ATL@@UEAAJAEBU_GUID@@PEAK1@Z 0000000180018c70 f i BillDispenser.obj
 0001:00017e10       ?GetKeyAt@?$CSimpleMap@PEA_WPEA_WVCExpansionVectorEqualHelper@ATL@@@ATL@@QEBAAEAPEA_WH@Z 0000000180018e10 f i BillDispenser.obj
 0001:00017ec0       ?GetLockCount@CAtlModule@ATL@@UEAAJXZ 0000000180018ec0 f i BillDispenser.obj
 0001:00017ed0       ?GetMiscStatus@?$IOleObjectImpl@VCOPOSBillDispenser@@@ATL@@UEAAJKPEAK@Z 0000000180018ed0 f i BillDispenser.obj
 0001:00017f60       ?GetMoniker@?$IOleObjectImpl@VCOPOSBillDispenser@@@ATL@@UEAAJKKPEAPEAUIMoniker@@@Z 0000000180018f60 f i BillDispenser.obj
 0001:00017ff0       ?GetNaturalExtent@?$IViewObjectExImpl@VCOPOSBillDispenser@@@ATL@@UEAAJKJPEAUtagDVTARGETDEVICE@@PEAUHDC__@@PEAUtagExtentInfo@@PEAUtagSIZE@@@Z 0000000180018ff0 f i BillDispenser.obj
 0001:00018180       ?GetObjectCLSID@?$CComCoClass@VCOPOSBillDispenser@@$1?CLSID_OPOSBillDispenser@@3U_GUID@@B@ATL@@SAAEBU_GUID@@XZ 0000000180019180 f i BillDispenser.obj
 0001:00018190       ?GetPages@?$ISpecifyPropertyPagesImpl@VCOPOSBillDispenser@@@ATL@@UEAAJPEAUtagCAUUID@@@Z 0000000180019190 f i BillDispenser.obj
 0001:00018220       ?GetPagesHelper@?$ISpecifyPropertyPagesImpl@VCOPOSBillDispenser@@@ATL@@IEAAJPEAUtagCAUUID@@PEBUATL_PROPMAP_ENTRY@2@@Z 0000000180019220 f i BillDispenser.obj
 0001:00018490       ?GetProperty@?$CComPtr@UIDispatch@@@ATL@@QEAAJJPEAUtagVARIANT@@@Z 0000000180019490 f i BillDispenser.obj
 0001:000184e0       ?GetProperty@?$CComPtr@UIDispatch@@@ATL@@SAJPEAUIDispatch@@JPEAUtagVARIANT@@@Z 00000001800194e0 f i BillDispenser.obj
 0001:000186b0       ?GetPropertyMap@COPOSBillDispenser@@SAPEBUATL_PROPMAP_ENTRY@ATL@@XZ 00000001800196b0 f i BillDispenser.obj
 0001:000186c0       ?GetRect@?$IViewObjectExImpl@VCOPOSBillDispenser@@@ATL@@UEAAJKPEAU_RECTL@@@Z 00000001800196c0 f i BillDispenser.obj
 0001:00018750       ?GetSize@?$CSimpleMap@PEA_WPEA_WVCExpansionVectorEqualHelper@ATL@@@ATL@@QEBAHXZ 0000000180019750 f i BillDispenser.obj
 0001:00018760       ?GetSize@CComDynamicUnkArray@ATL@@QEBAHXZ 0000000180019760 f i BillDispenser.obj
 0001:00018770       ?GetSizeMax@?$IPersistStreamInitImpl@VCOPOSBillDispenser@@@ATL@@UEAAJPEAT_ULARGE_INTEGER@@@Z 0000000180019770 f i BillDispenser.obj
 0001:00018f00       ?GetSizeMax@CComVariant@ATL@@QEBAJPEAT_ULARGE_INTEGER@@@Z 0000000180019f00 f i BillDispenser.obj
 0001:00019330       ?GetStreamSize@CComBSTR@ATL@@SAKPEA_W@Z 000000018001a330 f i BillDispenser.obj
 0001:00019390       ?GetTI@CComTypeInfoHolder@ATL@@QEAAJK@Z 000000018001a390 f i BillDispenser.obj
 0001:00019c60       ?GetTI@CComTypeInfoHolder@ATL@@QEAAJKPEAPEAUITypeInfo@@@Z 000000018001ac60 f i BillDispenser.obj
 0001:00019d50       ?GetTypeInfo@?$IDispatchImpl@UIOPOSBillDispenser@@$1?IID_IOPOSBillDispenser@@3U_GUID@@B$1?LIBID_OposBillDispenser_CCO@@3U3@B$00$0A@VCComTypeInfoHolder@ATL@@@ATL@@UEAAJIKPEAPEAUITypeInfo@@@Z 000000018001ad50 f i BillDispenser.obj
 0001:00019da0       ?GetTypeInfo@CComTypeInfoHolder@ATL@@QEAAJIKPEAPEAUITypeInfo@@@Z 000000018001ada0 f i BillDispenser.obj
 0001:00019e00       ?GetTypeInfoCount@?$IDispatchImpl@UIOPOSBillDispenser@@$1?IID_IOPOSBillDispenser@@3U_GUID@@B$1?LIBID_OposBillDispenser_CCO@@3U3@B$00$0A@VCComTypeInfoHolder@ATL@@@ATL@@UEAAJPEAI@Z 000000018001ae00 f i BillDispenser.obj
 0001:00019e30       ?GetUnknown@CComDynamicUnkArray@ATL@@QEAAPEAUIUnknown@@K@Z 000000018001ae30 f i BillDispenser.obj
 0001:00019ee0       ?GetUnknown@COPOSBillDispenser@@QEAAPEAUIUnknown@@XZ 000000018001aee0 f i BillDispenser.obj
 0001:00019f10       ?GetUserClassID@?$IOleObjectImpl@VCOPOSBillDispenser@@@ATL@@UEAAJPEAU_GUID@@@Z 000000018001af10 f i BillDispenser.obj
 0001:00019ff0       ?GetUserType@?$IOleObjectImpl@VCOPOSBillDispenser@@@ATL@@UEAAJKPEAPEA_W@Z 000000018001aff0 f i BillDispenser.obj
 0001:0001a080       ?GetValueAt@?$CSimpleMap@PEA_WPEA_WVCExpansionVectorEqualHelper@ATL@@@ATL@@QEBAAEAPEA_WH@Z 000000018001b080 f i BillDispenser.obj
 0001:0001a130       ?GetViewStatus@?$IViewObjectExImpl@VCOPOSBillDispenser@@@ATL@@UEAAJPEAK@Z 000000018001b130 f i BillDispenser.obj
 0001:0001a230       ?GetWNDPROC@CWndProcThunk@ATL@@QEAAP6A_JPEAUHWND__@@I_K_J@ZXZ 000000018001b230 f i BillDispenser.obj
 0001:0001a270       ?GetWindow@?$IOleInPlaceActiveObjectImpl@VCOPOSBillDispenser@@@ATL@@UEAAJPEAPEAUHWND__@@@Z 000000018001b270 f i BillDispenser.obj
 0001:0001a370       ?GetWindow@?$IOleInPlaceObjectWindowlessImpl@VCOPOSBillDispenser@@@ATL@@UEAAJPEAPEAUHWND__@@@Z 000000018001b370 f i BillDispenser.obj
 0001:0001a470       ?GetWindowProc@?$CWindowImplBaseT@VCWindow@ATL@@V?$CWinTraits@$0FGAAAAAA@$0A@@2@@ATL@@UEAAP6A_JPEAUHWND__@@I_K_J@ZXZ 000000018001b470 f i BillDispenser.obj
 0001:0001a480       ?GetWndCaption@?$CWindowImpl@VCOPOSBillDispenser@@VCWindow@ATL@@V?$CWinTraits@$0FGAAAAAA@$0A@@3@@ATL@@SAPEB_WXZ 000000018001b480 f i BillDispenser.obj
 0001:0001a490       ?GetWndClassInfo@?$CWindowImpl@VCOPOSBillDispenser@@VCWindow@ATL@@V?$CWinTraits@$0FGAAAAAA@$0A@@3@@ATL@@SAAEAU_ATL_WNDCLASSINFOW@2@XZ 000000018001b490 f i BillDispenser.obj
 0001:0001a4a0       ?GetWndClassName@CWindow@ATL@@SAPEB_WXZ 000000018001b4a0 f i BillDispenser.obj
 0001:0001a4b0       ?GetWndExStyle@?$CWinTraits@$0FGAAAAAA@$0A@@ATL@@SAKK@Z 000000018001b4b0 f i BillDispenser.obj
 0001:0001a4f0       ?GetWndExStyle@?$CWindowImplBaseT@VCWindow@ATL@@V?$CWinTraits@$0FGAAAAAA@$0A@@2@@ATL@@SAKK@Z 000000018001b4f0 f i BillDispenser.obj
 0001:0001a520       ?GetWndStyle@?$CWinTraits@$0FGAAAAAA@$0A@@ATL@@SAKK@Z 000000018001b520 f i BillDispenser.obj
 0001:0001a560       ?GetWndStyle@?$CWindowImplBaseT@VCWindow@ATL@@V?$CWinTraits@$0FGAAAAAA@$0A@@2@@ATL@@SAKK@Z 000000018001b560 f i BillDispenser.obj
 0001:0001a590       ?GetZoomInfo@CComControlBase@ATL@@QEAAXAEAUATL_DRAWINFO@@@Z 000000018001b590 f i BillDispenser.obj
 0001:0001a740       ?HKeyFromString@CRegParser@ATL@@KAPEAUHKEY__@@PEA_W@Z 000000018001b740 f i BillDispenser.obj
 0001:0001a7d0       ?HandsOffStorage@?$IPersistStorageImpl@VCOPOSBillDispenser@@@ATL@@UEAAJXZ 000000018001b7d0 f i BillDispenser.obj
 0001:0001a840       ?HasSubKeys@CRegParser@ATL@@IEAAHPEAUHKEY__@@@Z 000000018001b840 f i BillDispenser.obj
 0001:0001a9b0       ?IDataObject_GetData@CComControlBase@ATL@@QEAAJPEAUtagFORMATETC@@PEAUtagSTGMEDIUM@@@Z 000000018001b9b0 f i BillDispenser.obj
 0001:0001ae60       ?IOleInPlaceObject_InPlaceDeactivate@CComControlBase@ATL@@QEAAJXZ 000000018001be60 f i BillDispenser.obj
 0001:0001b0d0       ?IOleInPlaceObject_SetObjectRects@CComControlBase@ATL@@QEAAJPEBUtagRECT@@0@Z 000000018001c0d0 f i BillDispenser.obj
 0001:0001b2b0       ?IOleInPlaceObject_UIDeactivate@CComControlBase@ATL@@QEAAJXZ 000000018001c2b0 f i BillDispenser.obj
 0001:0001b520       ?IOleObject_Advise@CComControlBase@ATL@@QEAAJPEAUIAdviseSink@@PEAK@Z 000000018001c520 f i BillDispenser.obj
 0001:0001b5d0       ?IOleObject_Close@CComControlBase@ATL@@QEAAJK@Z 000000018001c5d0 f i BillDispenser.obj
 0001:0001b940       ?IOleObject_GetClientSite@CComControlBase@ATL@@QEAAJPEAPEAUIOleClientSite@@@Z 000000018001c940 f i BillDispenser.obj
 0001:0001ba10       ?IOleObject_SetClientSite@CComControlBase@ATL@@QEAAJPEAUIOleClientSite@@@Z 000000018001ca10 f i BillDispenser.obj
 0001:0001bb20       ?IOleObject_SetExtent@CComControlBase@ATL@@QEAAJKPEAUtagSIZE@@@Z 000000018001cb20 f i BillDispenser.obj
 0001:0001bc90       ?IPSI_GetIPersistStreamInit@?$IPersistStorageImpl@VCOPOSBillDispenser@@@ATL@@AEAAPEAUIPersistStreamInit@@XZ 000000018001cc90 f i BillDispenser.obj
 0001:0001bd50       ?IPersistStreamInit_Load@?$IPersistStreamInitImpl@VCOPOSBillDispenser@@@ATL@@QEAAJPEAUIStream@@PEBUATL_PROPMAP_ENTRY@2@@Z 000000018001cd50 f i BillDispenser.obj
 0001:0001bdf0       ?IPersistStreamInit_Save@?$IPersistStreamInitImpl@VCOPOSBillDispenser@@@ATL@@QEAAJPEAUIStream@@HPEBUATL_PROPMAP_ENTRY@2@@Z 000000018001cdf0 f i BillDispenser.obj
 0001:0001beb0       ?IQuickActivate_QuickActivate@CComControlBase@ATL@@QEAAJPEAUtagQACONTAINER@@PEAUtagQACONTROL@@@Z 000000018001ceb0 f i BillDispenser.obj
 0001:0001c6f0       ?IViewObject_Draw@CComControlBase@ATL@@QEAAJKJPEAXPEAUtagDVTARGETDEVICE@@PEAUHDC__@@2PEBU_RECTL@@3@Z 000000018001d6f0 f i BillDispenser.obj
 0001:0001cb40       ?InPlaceActivate@CComControlBase@ATL@@QEAAJJPEBUtagRECT@@@Z 000000018001db40 f i BillDispenser.obj
 0001:0001d6e0       ?InPlaceDeactivate@?$IOleInPlaceObjectWindowlessImpl@VCOPOSBillDispenser@@@ATL@@UEAAJXZ 000000018001e6e0 f i BillDispenser.obj
 0001:0001d790       ?Increment@CComMultiThreadModel@ATL@@SAKPEAJ@Z 000000018001e790 f i BillDispenser.obj
 0001:0001d7b0       ?Increment@CComSingleThreadModel@ATL@@SAKPEAJ@Z 000000018001e7b0 f i BillDispenser.obj
 0001:0001d7d0       ?Init@?$CComEnumImpl@UIEnumConnectionPoints@@$1?_GUID_b196b285_bab4_101a_b69c_00aa00341d07@@3U__s_GUID@@BPEAUIConnectionPoint@@V?$_CopyInterface@UIConnectionPoint@@@ATL@@@ATL@@QEAAJPEAPEAUIConnectionPoint@@0PEAUIUnknown@@W4CComEnumFlags@2@@Z 000000018001e7d0 f i BillDispenser.obj
 0001:0001dac0       ?Init@?$CComEnumImpl@UIEnumConnections@@$1?_GUID_b196b287_bab4_101a_b69c_00aa00341d07@@3U__s_GUID@@BUtagCONNECTDATA@@V?$_Copy@UtagCONNECTDATA@@@ATL@@@ATL@@QEAAJPEAUtagCONNECTDATA@@0PEAUIUnknown@@W4CComEnumFlags@2@@Z 000000018001eac0 f i BillDispenser.obj
 0001:0001ddb0       ?Init@CComFakeCriticalSection@ATL@@QEAAJXZ 000000018001edb0 f i BillDispenser.obj
 0001:0001ddc0       ?Init@CComModule@ATL@@QEAAJPEAU_ATL_OBJMAP_ENTRY30@2@PEAUHINSTANCE__@@PEBU_GUID@@@Z 000000018001edc0 f i BillDispenser.obj
 0001:0001deb0       ?Init@CComSafeDeleteCriticalSection@ATL@@QEAAJXZ 000000018001eeb0 f i BillDispenser.obj
 0001:0001df40       ?Init@CDynamicStdCallThunk2@ATL@@QEAAH_KPEAX@Z 000000018001ef40 f i BillDispenser.obj
 0001:0001dfc0       ?Init@CWndProcThunk@ATL@@QEAAHP6A_JPEAUHWND__@@I_K_J@ZPEAX@Z 000000018001efc0 f i BillDispenser.obj
 0001:0001e010       ?InitFromData@?$IOleObjectImpl@VCOPOSBillDispenser@@@ATL@@UEAAJPEAUIDataObject@@HK@Z 000000018001f010 f i BillDispenser.obj
 0001:0001e0a0       ?InitLibId@?$CAtlModuleT@VCComModule@ATL@@@ATL@@SAXXZ 000000018001f0a0 f i BillDispenser.obj
 0001:0001e0b0       ?InitNew@?$IPersistStorageImpl@VCOPOSBillDispenser@@@ATL@@UEAAJPEAUIStorage@@@Z 000000018001f0b0 f i BillDispenser.obj
 0001:0001e1a0       ?InitNew@?$IPersistStreamInitImpl@VCOPOSBillDispenser@@@ATL@@UEAAJXZ 000000018001f1a0 f i BillDispenser.obj
 0001:0001e250       ?InlineIsEqualUnknown@ATL@@YAHAEBU_GUID@@@Z 000000018001f250 f i BillDispenser.obj
 0001:0001e2e0       ?InternalAddRef@?$CComObjectRootEx@VCComMultiThreadModel@ATL@@@ATL@@QEAAKXZ 000000018001f2e0 f i BillDispenser.obj
 0001:0001e360       ?InternalAddRef@?$CComObjectRootEx@VCComSingleThreadModel@ATL@@@ATL@@QEAAKXZ 000000018001f360 f i BillDispenser.obj
 0001:0001e3e0       ?InternalFinalConstructAddRef@CComObjectRootBase@ATL@@QEAAXXZ 000000018001f3e0 f i BillDispenser.obj
 0001:0001e3f0       ?InternalFinalConstructAddRef@COPOSBillDispenser@@QEAAXXZ 000000018001f3f0 f i BillDispenser.obj
 0001:0001e430       ?InternalFinalConstructRelease@CComObjectRootBase@ATL@@QEAAXXZ 000000018001f430 f i BillDispenser.obj
 0001:0001e4a0       ?InternalFinalConstructRelease@COPOSBillDispenser@@QEAAXXZ 000000018001f4a0 f i BillDispenser.obj
 0001:0001e4e0       ?InternalGetSite@CComControlBase@ATL@@QEAAJAEBU_GUID@@PEAPEAX@Z 000000018001f4e0 f i BillDispenser.obj
 0001:0001e5c0       ?InternalQueryInterface@CComObjectRootBase@ATL@@SAJPEAXPEBU_ATL_INTMAP_ENTRY@2@AEBU_GUID@@PEAPEAX@Z 000000018001f5c0 f i BillDispenser.obj
 0001:0001e6e0       ?InternalRelease@?$CComObjectRootEx@VCComMultiThreadModel@ATL@@@ATL@@QEAAKXZ 000000018001f6e0 f i BillDispenser.obj
 0001:0001e760       ?InternalRelease@?$CComObjectRootEx@VCComSingleThreadModel@ATL@@@ATL@@QEAAKXZ 000000018001f760 f i BillDispenser.obj
 0001:0001e7e0       ?InternalSetAtIndex@?$CSimpleArray@GV?$CSimpleArrayEqualHelper@G@ATL@@@ATL@@QEAAXHAEBG@Z 000000018001f7e0 f i BillDispenser.obj
 0001:0001e860       ?InternalSetAtIndex@?$CSimpleMap@PEA_WPEA_WVCExpansionVectorEqualHelper@ATL@@@ATL@@QEAAXHAEBQEA_W0@Z 000000018001f860 f i BillDispenser.obj
 0001:0001e930       ?Invoke@?$IDispatchImpl@UIOPOSBillDispenser@@$1?IID_IOPOSBillDispenser@@3U_GUID@@B$1?LIBID_OposBillDispenser_CCO@@3U3@B$00$0A@VCComTypeInfoHolder@ATL@@@ATL@@UEAAJJAEBU_GUID@@KGPEAUtagDISPPARAMS@@PEAUtagVARIANT@@PEAUtagEXCEPINFO@@PEAI@Z 000000018001f930 f i BillDispenser.obj
 0001:0001e9d0       ?Invoke@CComTypeInfoHolder@ATL@@QEAAJPEAUIDispatch@@JAEBU_GUID@@KGPEAUtagDISPPARAMS@@PEAUtagVARIANT@@PEAUtagEXCEPINFO@@PEAI@Z 000000018001f9d0 f i BillDispenser.obj
 0001:0001ea90       ?IsDirty@?$IPersistStorageImpl@VCOPOSBillDispenser@@@ATL@@UEAAJXZ 000000018001fa90 f i BillDispenser.obj
 0001:0001eb80       ?IsDirty@?$IPersistStreamInitImpl@VCOPOSBillDispenser@@@ATL@@UEAAJXZ 000000018001fb80 f i BillDispenser.obj
 0001:0001ec40       ?IsEqualKey@CExpansionVectorEqualHelper@ATL@@SA_NQEA_W0@Z 000000018001fc40 f i BillDispenser.obj
 0001:0001ec90       ?IsEqualObject@?$CComPtrBase@UIOleClientSite@@@ATL@@QEAA_NPEAUIUnknown@@@Z 000000018001fc90 f i BillDispenser.obj
 0001:0001ede0       ?IsEqualObject@?$CComPtrBase@UITypeInfo@@@ATL@@QEAA_NPEAUIUnknown@@@Z 000000018001fde0 f i BillDispenser.obj
 0001:0001ef30       ?IsSpace@CRegParser@ATL@@IEAAH_W@Z 000000018001ff30 f i BillDispenser.obj
 0001:0001ef90       ?IsUpToDate@?$IOleObjectImpl@VCOPOSBillDispenser@@@ATL@@UEAAJXZ 000000018001ff90 f i BillDispenser.obj
 0001:0001f000       ?Length@CComBSTR@ATL@@QEBAIXZ 0000000180020000 f i BillDispenser.obj
 0001:0001f040       ?Load@?$IPersistStorageImpl@VCOPOSBillDispenser@@@ATL@@UEAAJPEAUIStorage@@@Z 0000000180020040 f i BillDispenser.obj
 0001:0001f1f0       ?Load@?$IPersistStreamInitImpl@VCOPOSBillDispenser@@@ATL@@UEAAJPEAUIStream@@@Z 00000001800201f0 f i BillDispenser.obj
 0001:0001f2b0       ?LoadCursorW@AtlModuleRegisterWndClassInfoParamW@ATL@@SAPEAUHICON__@@PEAUHINSTANCE__@@PEB_W@Z 00000001800202b0 f i BillDispenser.obj
 0001:0001f2f0       ?LoadNameCache@CComTypeInfoHolder@ATL@@QEAAJPEAUITypeInfo@@@Z 00000001800202f0 f i BillDispenser.obj
 0001:0001f630       ?Lock@?$CComCritSecLock@VCComCriticalSection@ATL@@@ATL@@QEAAJXZ 0000000180020630 f i BillDispenser.obj
 0001:0001f720       ?Lock@?$CComObjectRootEx@VCComSingleThreadModel@ATL@@@ATL@@QEAAXXZ 0000000180020720 f i BillDispenser.obj
 0001:0001f730       ?Lock@CAtlModule@ATL@@UEAAJXZ 0000000180020730 f i BillDispenser.obj
 0001:0001f770       ?Lock@CComCriticalSection@ATL@@QEAAJXZ 0000000180020770 f i BillDispenser.obj
 0001:0001f7b0       ?Lock@CComFakeCriticalSection@ATL@@QEAAJXZ 00000001800207b0 f i BillDispenser.obj
 0001:0001f7c0       ?LockServer@CComClassFactory@ATL@@UEAAJH@Z 00000001800207c0 f i BillDispenser.obj
 0001:0001f820       ?Lookup@?$CSimpleMap@PEA_WPEA_WVCExpansionVectorEqualHelper@ATL@@@ATL@@QEBAPEA_WAEBQEA_W@Z 0000000180020820 f i BillDispenser.obj
 0001:0001f880       ?Next@?$CComEnumImpl@UIEnumConnectionPoints@@$1?_GUID_b196b285_bab4_101a_b69c_00aa00341d07@@3U__s_GUID@@BPEAUIConnectionPoint@@V?$_CopyInterface@UIConnectionPoint@@@ATL@@@ATL@@UEAAJKPEAPEAUIConnectionPoint@@PEAK@Z 0000000180020880 f i BillDispenser.obj
 0001:0001fa40       ?Next@?$CComEnumImpl@UIEnumConnections@@$1?_GUID_b196b287_bab4_101a_b69c_00aa00341d07@@3U__s_GUID@@BUtagCONNECTDATA@@V?$_Copy@UtagCONNECTDATA@@@ATL@@@ATL@@UEAAJKPEAUtagCONNECTDATA@@PEAK@Z 0000000180020a40 f i BillDispenser.obj
 0001:0001fc00       ?NextToken@CRegParser@ATL@@IEAAJPEA_W@Z 0000000180020c00 f i BillDispenser.obj
 0001:0001ff90       ?OLE2CT_EX@@YAPEB_WPEB_WI@Z 0000000180020f90 f i BillDispenser.obj
 0001:0001ffb0       ?OLE2CT_EX_DEF@@YAPEB_WPEB_W@Z 0000000180020fb0 f i BillDispenser.obj
 0001:0001ffc0       ?OLE2T_EX@@YAPEA_WPEA_WI@Z 0000000180020fc0 f i BillDispenser.obj
 0001:0001ffe0       ?OnAmbientPropertyChange@?$IOleControlImpl@VCOPOSBillDispenser@@@ATL@@UEAAJJ@Z 0000000180020fe0 f i BillDispenser.obj
 0001:000200a0       ?OnDocWindowActivate@?$IOleInPlaceActiveObjectImpl@VCOPOSBillDispenser@@@ATL@@UEAAJH@Z 00000001800210a0 f i BillDispenser.obj
 0001:00020160       ?OnDrawAdvanced@CComControlBase@ATL@@UEAAJAEAUATL_DRAWINFO@@@Z 0000000180021160 f i BillDispenser.obj
 0001:000203b0       ?OnFinalMessage@?$CWindowImplBaseT@VCWindow@ATL@@V?$CWinTraits@$0FGAAAAAA@$0A@@2@@ATL@@UEAAXPEAUHWND__@@@Z 00000001800213b0 f i BillDispenser.obj
 0001:000203c0       ?OnFrameWindowActivate@?$IOleInPlaceActiveObjectImpl@VCOPOSBillDispenser@@@ATL@@UEAAJH@Z 00000001800213c0 f i BillDispenser.obj
 0001:00020430       ?OnKillFocus@CComControlBase@ATL@@QEAA_JI_K_JAEAH@Z 0000000180021430 f i BillDispenser.obj
 0001:00020520       ?OnMnemonic@?$IOleControlImpl@VCOPOSBillDispenser@@@ATL@@UEAAJPEAUtagMSG@@@Z 0000000180021520 f i BillDispenser.obj
 0001:000205b0       ?OnMouseActivate@CComControlBase@ATL@@QEAA_JI_K_JAEAH@Z 00000001800215b0 f i BillDispenser.obj
 0001:00020750       ?OnPaint@CComControlBase@ATL@@QEAA_JI_K_JAEAH@Z 0000000180021750 f i BillDispenser.obj
 0001:000208e0       ?OnPostVerbDiscardUndo@?$IOleObjectImpl@VCOPOSBillDispenser@@@ATL@@QEAAJXZ 00000001800218e0 f i BillDispenser.obj
 0001:000208f0       ?OnPostVerbHide@?$IOleObjectImpl@VCOPOSBillDispenser@@@ATL@@QEAAJXZ 00000001800218f0 f i BillDispenser.obj
 0001:00020900       ?OnPostVerbInPlaceActivate@?$IOleObjectImpl@VCOPOSBillDispenser@@@ATL@@QEAAJXZ 0000000180021900 f i BillDispenser.obj
 0001:00020910       ?OnPostVerbOpen@?$IOleObjectImpl@VCOPOSBillDispenser@@@ATL@@QEAAJXZ 0000000180021910 f i BillDispenser.obj
 0001:00020920       ?OnPostVerbShow@?$IOleObjectImpl@VCOPOSBillDispenser@@@ATL@@QEAAJXZ 0000000180021920 f i BillDispenser.obj
 0001:00020930       ?OnPostVerbUIActivate@?$IOleObjectImpl@VCOPOSBillDispenser@@@ATL@@QEAAJXZ 0000000180021930 f i BillDispenser.obj
 0001:00020940       ?OnPreVerbDiscardUndo@?$IOleObjectImpl@VCOPOSBillDispenser@@@ATL@@QEAAJXZ 0000000180021940 f i BillDispenser.obj
 0001:00020950       ?OnPreVerbHide@?$IOleObjectImpl@VCOPOSBillDispenser@@@ATL@@QEAAJXZ 0000000180021950 f i BillDispenser.obj
 0001:00020960       ?OnPreVerbInPlaceActivate@?$IOleObjectImpl@VCOPOSBillDispenser@@@ATL@@QEAAJXZ 0000000180021960 f i BillDispenser.obj
 0001:00020970       ?OnPreVerbOpen@?$IOleObjectImpl@VCOPOSBillDispenser@@@ATL@@QEAAJXZ 0000000180021970 f i BillDispenser.obj
 0001:00020980       ?OnPreVerbShow@?$IOleObjectImpl@VCOPOSBillDispenser@@@ATL@@QEAAJXZ 0000000180021980 f i BillDispenser.obj
 0001:00020990       ?OnPreVerbUIActivate@?$IOleObjectImpl@VCOPOSBillDispenser@@@ATL@@QEAAJXZ 0000000180021990 f i BillDispenser.obj
 0001:000209a0       ?OnSetFocus@CComControlBase@ATL@@QEAA_JI_K_JAEAH@Z 00000001800219a0 f i BillDispenser.obj
 0001:00020ba0       ?OnWindowMessage@?$IOleInPlaceObjectWindowlessImpl@VCOPOSBillDispenser@@@ATL@@UEAAJI_K_JPEA_J@Z 0000000180021ba0 f i BillDispenser.obj
 0001:00020dc0       ?Open@CRegKey@ATL@@QEAAJPEAUHKEY__@@PEB_WK@Z 0000000180021dc0 f i BillDispenser.obj
 0001:00020f40       ?OuterAddRef@CComObjectRootBase@ATL@@QEAAKXZ 0000000180021f40 f i BillDispenser.obj
 0001:00020f80       ?OuterQueryInterface@CComObjectRootBase@ATL@@QEAAJAEBU_GUID@@PEAPEAX@Z 0000000180021f80 f i BillDispenser.obj
 0001:00020fd0       ?OuterRelease@CComObjectRootBase@ATL@@QEAAKXZ 0000000180021fd0 f i BillDispenser.obj
 0001:00021010       ?PreProcessBuffer@CRegParser@ATL@@QEAAJPEA_WPEAPEA_W@Z 0000000180022010 f i BillDispenser.obj
 0001:000216f0       ?PreTranslateAccelerator@CComControlBase@ATL@@QEAAHPEAUtagMSG@@AEAJ@Z 00000001800226f0 f i BillDispenser.obj
 0001:00021710       ?ProcessWindowMessage@?$CComControl@VCOPOSBillDispenser@@V?$CWindowImpl@VCOPOSBillDispenser@@VCWindow@ATL@@V?$CWinTraits@$0FGAAAAAA@$0A@@3@@ATL@@@ATL@@UEAAHPEAUHWND__@@I_K_JAEA_JK@Z 0000000180022710 f i BillDispenser.obj
 0001:00021990       ?ProcessWindowMessage@COPOSBillDispenser@@UEAAHPEAUHWND__@@I_K_JAEA_JK@Z 0000000180022990 f i BillDispenser.obj
 0001:00021b10       ?PutProperty@?$CComPtr@UIDispatch@@@ATL@@QEAAJJPEAUtagVARIANT@@@Z 0000000180022b10 f i BillDispenser.obj
 0001:00021b60       ?PutProperty@?$CComPtr@UIDispatch@@@ATL@@SAJPEAUIDispatch@@JPEAUtagVARIANT@@@Z 0000000180022b60 f i BillDispenser.obj
 0001:00021e00       ?QueryGetData@?$IDataObjectImpl@VCOPOSBillDispenser@@@ATL@@UEAAJPEAUtagFORMATETC@@@Z 0000000180022e00 f i BillDispenser.obj
 0001:00021e90       ?QueryHitPoint@?$IViewObjectExImpl@VCOPOSBillDispenser@@@ATL@@UEAAJKPEBUtagRECT@@UtagPOINT@@JPEAK@Z 0000000180022e90 f i BillDispenser.obj
 0001:00022000       ?QueryHitRect@?$IViewObjectExImpl@VCOPOSBillDispenser@@@ATL@@UEAAJKPEBUtagRECT@@0JPEAK@Z 0000000180023000 f i BillDispenser.obj
 0001:000221d0       ?QueryInterface@?$CComAggObject@VCOPOSBillDispenser@@@ATL@@UEAAJAEBU_GUID@@PEAPEAX@Z 00000001800231d0 f i BillDispenser.obj
 0001:000222c0       ?QueryInterface@?$CComContainedObject@VCOPOSBillDispenser@@@ATL@@UEAAJAEBU_GUID@@PEAPEAX@Z 00000001800232c0 f i BillDispenser.obj
 0001:0002230c       ?QueryInterface@?$CComContainedObject@VCOPOSBillDispenser@@@ATL@@WBAA@EAAJAEBU_GUID@@PEAPEAX@Z 000000018002330c f i BillDispenser.obj
 0001:00022318       ?QueryInterface@?$CComContainedObject@VCOPOSBillDispenser@@@ATL@@WBAI@EAAJAEBU_GUID@@PEAPEAX@Z 0000000180023318 f i BillDispenser.obj
 0001:00022324       ?QueryInterface@?$CComContainedObject@VCOPOSBillDispenser@@@ATL@@WBBA@EAAJAEBU_GUID@@PEAPEAX@Z 0000000180023324 f i BillDispenser.obj
 0001:00022330       ?QueryInterface@?$CComContainedObject@VCOPOSBillDispenser@@@ATL@@WBBI@EAAJAEBU_GUID@@PEAPEAX@Z 0000000180023330 f i BillDispenser.obj
 0001:0002233c       ?QueryInterface@?$CComContainedObject@VCOPOSBillDispenser@@@ATL@@WLI@EAAJAEBU_GUID@@PEAPEAX@Z 000000018002333c f i BillDispenser.obj
 0001:00022348       ?QueryInterface@?$CComContainedObject@VCOPOSBillDispenser@@@ATL@@WMA@EAAJAEBU_GUID@@PEAPEAX@Z 0000000180023348 f i BillDispenser.obj
 0001:00022354       ?QueryInterface@?$CComContainedObject@VCOPOSBillDispenser@@@ATL@@WMI@EAAJAEBU_GUID@@PEAPEAX@Z 0000000180023354 f i BillDispenser.obj
 0001:00022360       ?QueryInterface@?$CComContainedObject@VCOPOSBillDispenser@@@ATL@@WNA@EAAJAEBU_GUID@@PEAPEAX@Z 0000000180023360 f i BillDispenser.obj
 0001:0002236c       ?QueryInterface@?$CComContainedObject@VCOPOSBillDispenser@@@ATL@@WNI@EAAJAEBU_GUID@@PEAPEAX@Z 000000018002336c f i BillDispenser.obj
 0001:00022378       ?QueryInterface@?$CComContainedObject@VCOPOSBillDispenser@@@ATL@@WOA@EAAJAEBU_GUID@@PEAPEAX@Z 0000000180023378 f i BillDispenser.obj
 0001:00022384       ?QueryInterface@?$CComContainedObject@VCOPOSBillDispenser@@@ATL@@WOI@EAAJAEBU_GUID@@PEAPEAX@Z 0000000180023384 f i BillDispenser.obj
 0001:00022390       ?QueryInterface@?$CComContainedObject@VCOPOSBillDispenser@@@ATL@@WPA@EAAJAEBU_GUID@@PEAPEAX@Z 0000000180023390 f i BillDispenser.obj
 0001:0002239c       ?QueryInterface@?$CComContainedObject@VCOPOSBillDispenser@@@ATL@@WPI@EAAJAEBU_GUID@@PEAPEAX@Z 000000018002339c f i BillDispenser.obj
 0001:000223b0       ?QueryInterface@?$CComObject@V?$CComEnum@UIEnumConnectionPoints@@$1?_GUID_b196b285_bab4_101a_b69c_00aa00341d07@@3U__s_GUID@@BPEAUIConnectionPoint@@V?$_CopyInterface@UIConnectionPoint@@@ATL@@VCComSingleThreadModel@6@@ATL@@@ATL@@UEAAJAEBU_GUID@@PEAPEAX@Z 00000001800233b0 f i BillDispenser.obj
 0001:00022400       ?QueryInterface@?$CComObject@V?$CComEnum@UIEnumConnections@@$1?_GUID_b196b287_bab4_101a_b69c_00aa00341d07@@3U__s_GUID@@BUtagCONNECTDATA@@V?$_Copy@UtagCONNECTDATA@@@ATL@@VCComSingleThreadModel@6@@ATL@@@ATL@@UEAAJAEBU_GUID@@PEAPEAX@Z 0000000180023400 f i BillDispenser.obj
 0001:00022450       ?QueryInterface@?$CComObject@VCOPOSBillDispenser@@@ATL@@UEAAJAEBU_GUID@@PEAPEAX@Z 0000000180023450 f i BillDispenser.obj
 0001:00022494       ?QueryInterface@?$CComObject@VCOPOSBillDispenser@@@ATL@@WBAA@EAAJAEBU_GUID@@PEAPEAX@Z 0000000180023494 f i BillDispenser.obj
 0001:000224a0       ?QueryInterface@?$CComObject@VCOPOSBillDispenser@@@ATL@@WBAI@EAAJAEBU_GUID@@PEAPEAX@Z 00000001800234a0 f i BillDispenser.obj
 0001:000224ac       ?QueryInterface@?$CComObject@VCOPOSBillDispenser@@@ATL@@WBBA@EAAJAEBU_GUID@@PEAPEAX@Z 00000001800234ac f i BillDispenser.obj
 0001:000224b8       ?QueryInterface@?$CComObject@VCOPOSBillDispenser@@@ATL@@WBBI@EAAJAEBU_GUID@@PEAPEAX@Z 00000001800234b8 f i BillDispenser.obj
 0001:000224c4       ?QueryInterface@?$CComObject@VCOPOSBillDispenser@@@ATL@@WLI@EAAJAEBU_GUID@@PEAPEAX@Z 00000001800234c4 f i BillDispenser.obj
 0001:000224d0       ?QueryInterface@?$CComObject@VCOPOSBillDispenser@@@ATL@@WMA@EAAJAEBU_GUID@@PEAPEAX@Z 00000001800234d0 f i BillDispenser.obj
 0001:000224dc       ?QueryInterface@?$CComObject@VCOPOSBillDispenser@@@ATL@@WMI@EAAJAEBU_GUID@@PEAPEAX@Z 00000001800234dc f i BillDispenser.obj
 0001:000224e8       ?QueryInterface@?$CComObject@VCOPOSBillDispenser@@@ATL@@WNA@EAAJAEBU_GUID@@PEAPEAX@Z 00000001800234e8 f i BillDispenser.obj
 0001:000224f4       ?QueryInterface@?$CComObject@VCOPOSBillDispenser@@@ATL@@WNI@EAAJAEBU_GUID@@PEAPEAX@Z 00000001800234f4 f i BillDispenser.obj
 0001:00022500       ?QueryInterface@?$CComObject@VCOPOSBillDispenser@@@ATL@@WOA@EAAJAEBU_GUID@@PEAPEAX@Z 0000000180023500 f i BillDispenser.obj
 0001:0002250c       ?QueryInterface@?$CComObject@VCOPOSBillDispenser@@@ATL@@WOI@EAAJAEBU_GUID@@PEAPEAX@Z 000000018002350c f i BillDispenser.obj
 0001:00022518       ?QueryInterface@?$CComObject@VCOPOSBillDispenser@@@ATL@@WPA@EAAJAEBU_GUID@@PEAPEAX@Z 0000000180023518 f i BillDispenser.obj
 0001:00022524       ?QueryInterface@?$CComObject@VCOPOSBillDispenser@@@ATL@@WPI@EAAJAEBU_GUID@@PEAPEAX@Z 0000000180023524 f i BillDispenser.obj
 0001:00022530       ?QueryInterface@?$CComObjectCached@VCComClassFactory@ATL@@@ATL@@UEAAJAEBU_GUID@@PEAPEAX@Z 0000000180023530 f i BillDispenser.obj
 0001:00022580       ?QueryInterface@CRegObject@ATL@@UEAAJAEBU_GUID@@PEAPEAX@Z 0000000180023580 f i BillDispenser.obj
 0001:00022600       ?QuickActivate@?$IQuickActivateImpl@VCOPOSBillDispenser@@@ATL@@UEAAJPEAUtagQACONTAINER@@PEAUtagQACONTROL@@@Z 0000000180023600 f i BillDispenser.obj
 0001:000226c0       ?ReactivateAndUndo@?$IOleInPlaceObjectWindowlessImpl@VCOPOSBillDispenser@@@ATL@@UEAAJXZ 00000001800236c0 f i BillDispenser.obj
 0001:00022740       ?ReadFromStream@CComBSTR@ATL@@QEAAJPEAUIStream@@@Z 0000000180023740 f i BillDispenser.obj
 0001:00022c20       ?ReadFromStream@CComVariant@ATL@@QEAAJPEAUIStream@@GTClassesAllowedInStream@2@K@Z 0000000180023c20 f i BillDispenser.obj
 0001:00023050       ?RecurseDeleteKey@CRegKey@ATL@@QEAAJPEB_W@Z 0000000180024050 f i BillDispenser.obj
 0001:00023270       ?RegCreateKeyExW@CAtlTransactionManager@ATL@@QEAAJPEAUHKEY__@@PEB_WKPEA_WKKQEAU_SECURITY_ATTRIBUTES@@PEAPEAU3@PEAK@Z 0000000180024270 f i BillDispenser.obj
 0001:00023440       ?RegDeleteKeyW@CAtlTransactionManager@ATL@@QEAAJPEAUHKEY__@@PEB_W@Z 0000000180024440 f i BillDispenser.obj
 0001:00023550       ?RegOpenKeyExW@CAtlTransactionManager@ATL@@QEAAJPEAUHKEY__@@PEB_WKKPEAPEAU3@@Z 0000000180024550 f i BillDispenser.obj
 0001:000236a0       ?Register@_ATL_WNDCLASSINFOW@ATL@@QEAAGPEAP6A_JPEAUHWND__@@I_K_J@Z@Z 00000001800246a0 f i BillDispenser.obj
 0001:000236f0       ?RegisterBuffer@CRegParser@ATL@@QEAAJPEA_WH@Z 00000001800246f0 f i BillDispenser.obj
 0001:00023ae0       ?RegisterClassExW@AtlModuleRegisterWndClassInfoParamW@ATL@@SAGPEAU_ATL_WIN_MODULE70@2@PEBUtagWNDCLASSEXW@@@Z 0000000180024ae0 f i BillDispenser.obj
 0001:00023b20       ?RegisterFromResource@CRegObject@ATL@@IEAAJPEB_W00H@Z 0000000180024b20 f i BillDispenser.obj
 0001:00023f80       ?RegisterServer@?$CAtlModuleT@VCComModule@ATL@@@ATL@@QEAAJHPEBU_GUID@@@Z 0000000180024f80 f i BillDispenser.obj
 0001:00024000       ?RegisterServer@CAtlComModule@ATL@@QEAAJHPEBU_GUID@@@Z 0000000180025000 f i BillDispenser.obj
 0001:00024040       ?RegisterServer@CComModule@ATL@@QEAAJHPEBU_GUID@@@Z 0000000180025040 f i BillDispenser.obj
 0001:00024140       ?RegisterSubkeys@CRegParser@ATL@@IEAAJPEA_WPEAUHKEY__@@HH@Z 0000000180025140 f i BillDispenser.obj
 0001:00024f20       ?Release@?$CComAggObject@VCOPOSBillDispenser@@@ATL@@UEAAKXZ 0000000180025f20 f i BillDispenser.obj
 0001:00024fd0       ?Release@?$CComContainedObject@VCOPOSBillDispenser@@@ATL@@UEAAKXZ 0000000180025fd0 f i BillDispenser.obj
 0001:00025008       ?Release@?$CComContainedObject@VCOPOSBillDispenser@@@ATL@@WBAA@EAAKXZ 0000000180026008 f i BillDispenser.obj
 0001:00025014       ?Release@?$CComContainedObject@VCOPOSBillDispenser@@@ATL@@WBAI@EAAKXZ 0000000180026014 f i BillDispenser.obj
 0001:00025020       ?Release@?$CComContainedObject@VCOPOSBillDispenser@@@ATL@@WBBA@EAAKXZ 0000000180026020 f i BillDispenser.obj
 0001:0002502c       ?Release@?$CComContainedObject@VCOPOSBillDispenser@@@ATL@@WBBI@EAAKXZ 000000018002602c f i BillDispenser.obj
 0001:00025038       ?Release@?$CComContainedObject@VCOPOSBillDispenser@@@ATL@@WBCI@EAAKXZ 0000000180026038 f i BillDispenser.obj
 0001:00025044       ?Release@?$CComContainedObject@VCOPOSBillDispenser@@@ATL@@WBEA@EAAKXZ 0000000180026044 f i BillDispenser.obj
 0001:00025050       ?Release@?$CComContainedObject@VCOPOSBillDispenser@@@ATL@@WLI@EAAKXZ 0000000180026050 f i BillDispenser.obj
 0001:0002505c       ?Release@?$CComContainedObject@VCOPOSBillDispenser@@@ATL@@WMA@EAAKXZ 000000018002605c f i BillDispenser.obj
 0001:00025068       ?Release@?$CComContainedObject@VCOPOSBillDispenser@@@ATL@@WMI@EAAKXZ 0000000180026068 f i BillDispenser.obj
 0001:00025074       ?Release@?$CComContainedObject@VCOPOSBillDispenser@@@ATL@@WNA@EAAKXZ 0000000180026074 f i BillDispenser.obj
 0001:00025080       ?Release@?$CComContainedObject@VCOPOSBillDispenser@@@ATL@@WNI@EAAKXZ 0000000180026080 f i BillDispenser.obj
 0001:0002508c       ?Release@?$CComContainedObject@VCOPOSBillDispenser@@@ATL@@WOA@EAAKXZ 000000018002608c f i BillDispenser.obj
 0001:00025098       ?Release@?$CComContainedObject@VCOPOSBillDispenser@@@ATL@@WOI@EAAKXZ 0000000180026098 f i BillDispenser.obj
 0001:000250a4       ?Release@?$CComContainedObject@VCOPOSBillDispenser@@@ATL@@WPA@EAAKXZ 00000001800260a4 f i BillDispenser.obj
 0001:000250b0       ?Release@?$CComContainedObject@VCOPOSBillDispenser@@@ATL@@WPI@EAAKXZ 00000001800260b0 f i BillDispenser.obj
 0001:000250c0       ?Release@?$CComObject@V?$CComEnum@UIEnumConnectionPoints@@$1?_GUID_b196b285_bab4_101a_b69c_00aa00341d07@@3U__s_GUID@@BPEAUIConnectionPoint@@V?$_CopyInterface@UIConnectionPoint@@@ATL@@VCComSingleThreadModel@6@@ATL@@@ATL@@UEAAKXZ 00000001800260c0 f i BillDispenser.obj
 0001:00025170       ?Release@?$CComObject@V?$CComEnum@UIEnumConnections@@$1?_GUID_b196b287_bab4_101a_b69c_00aa00341d07@@3U__s_GUID@@BUtagCONNECTDATA@@V?$_Copy@UtagCONNECTDATA@@@ATL@@VCComSingleThreadModel@6@@ATL@@@ATL@@UEAAKXZ 0000000180026170 f i BillDispenser.obj
 0001:00025220       ?Release@?$CComObject@VCOPOSBillDispenser@@@ATL@@UEAAKXZ 0000000180026220 f i BillDispenser.obj
 0001:000252e8       ?Release@?$CComObject@VCOPOSBillDispenser@@@ATL@@WBAA@EAAKXZ 00000001800262e8 f i BillDispenser.obj
 0001:000252f4       ?Release@?$CComObject@VCOPOSBillDispenser@@@ATL@@WBAI@EAAKXZ 00000001800262f4 f i BillDispenser.obj
 0001:00025300       ?Release@?$CComObject@VCOPOSBillDispenser@@@ATL@@WBBA@EAAKXZ 0000000180026300 f i BillDispenser.obj
 0001:0002530c       ?Release@?$CComObject@VCOPOSBillDispenser@@@ATL@@WBBI@EAAKXZ 000000018002630c f i BillDispenser.obj
 0001:00025318       ?Release@?$CComObject@VCOPOSBillDispenser@@@ATL@@WBCI@EAAKXZ 0000000180026318 f i BillDispenser.obj
 0001:00025324       ?Release@?$CComObject@VCOPOSBillDispenser@@@ATL@@WBEA@EAAKXZ 0000000180026324 f i BillDispenser.obj
 0001:00025330       ?Release@?$CComObject@VCOPOSBillDispenser@@@ATL@@WLI@EAAKXZ 0000000180026330 f i BillDispenser.obj
 0001:0002533c       ?Release@?$CComObject@VCOPOSBillDispenser@@@ATL@@WMA@EAAKXZ 000000018002633c f i BillDispenser.obj
 0001:00025348       ?Release@?$CComObject@VCOPOSBillDispenser@@@ATL@@WMI@EAAKXZ 0000000180026348 f i BillDispenser.obj
 0001:00025354       ?Release@?$CComObject@VCOPOSBillDispenser@@@ATL@@WNA@EAAKXZ 0000000180026354 f i BillDispenser.obj
 0001:00025360       ?Release@?$CComObject@VCOPOSBillDispenser@@@ATL@@WNI@EAAKXZ 0000000180026360 f i BillDispenser.obj
 0001:0002536c       ?Release@?$CComObject@VCOPOSBillDispenser@@@ATL@@WOA@EAAKXZ 000000018002636c f i BillDispenser.obj
 0001:00025378       ?Release@?$CComObject@VCOPOSBillDispenser@@@ATL@@WOI@EAAKXZ 0000000180026378 f i BillDispenser.obj
 0001:00025384       ?Release@?$CComObject@VCOPOSBillDispenser@@@ATL@@WPA@EAAKXZ 0000000180026384 f i BillDispenser.obj
 0001:00025390       ?Release@?$CComObject@VCOPOSBillDispenser@@@ATL@@WPI@EAAKXZ 0000000180026390 f i BillDispenser.obj
 0001:000253a0       ?Release@?$CComObjectCached@VCComClassFactory@ATL@@@ATL@@UEAAKXZ 00000001800263a0 f i BillDispenser.obj
 0001:00025450       ?Release@?$CComPtrBase@UIAdviseSink@@@ATL@@QEAAXXZ 0000000180026450 f i BillDispenser.obj
 0001:000254b0       ?Release@?$CComPtrBase@UIDispatch@@@ATL@@QEAAXXZ 00000001800264b0 f i BillDispenser.obj
 0001:00025510       ?Release@?$CComPtrBase@UIOleInPlaceSiteWindowless@@@ATL@@QEAAXXZ 0000000180026510 f i BillDispenser.obj
 0001:00025570       ?Release@CRegObject@ATL@@UEAAKXZ 0000000180026570 f i BillDispenser.obj
 0001:000255e0       ?Remove@CComDynamicUnkArray@ATL@@QEAAHK@Z 00000001800265e0 f i BillDispenser.obj
 0001:000256c0       ?RemoveAll@?$CSimpleMap@PEA_WPEA_WVCExpansionVectorEqualHelper@ATL@@@ATL@@QEAAXXZ 00000001800266c0 f i BillDispenser.obj
 0001:00025760       ?Reset@?$CComEnumImpl@UIEnumConnectionPoints@@$1?_GUID_b196b285_bab4_101a_b69c_00aa00341d07@@3U__s_GUID@@BPEAUIConnectionPoint@@V?$_CopyInterface@UIConnectionPoint@@@ATL@@@ATL@@UEAAJXZ 0000000180026760 f i BillDispenser.obj
 0001:00025780       ?Reset@?$CComEnumImpl@UIEnumConnections@@$1?_GUID_b196b287_bab4_101a_b69c_00aa00341d07@@3U__s_GUID@@BUtagCONNECTDATA@@V?$_Copy@UtagCONNECTDATA@@@ATL@@@ATL@@UEAAJXZ 0000000180026780 f i BillDispenser.obj
 0001:000257a0       ?ResizeBorder@?$IOleInPlaceActiveObjectImpl@VCOPOSBillDispenser@@@ATL@@UEAAJPEBUtagRECT@@PEAUIOleInPlaceUIWindow@@H@Z 00000001800267a0 f i BillDispenser.obj
 0001:00025820       ?ResourceRegister@CRegObject@ATL@@QEAAJPEB_WI0@Z 0000000180026820 f i BillDispenser.obj
 0001:00025900       ?ResourceRegisterSz@CRegObject@ATL@@QEAAJPEB_W00@Z 0000000180026900 f i BillDispenser.obj
 0001:00025a20       ?ResourceUnregister@CRegObject@ATL@@QEAAJPEB_WI0@Z 0000000180026a20 f i BillDispenser.obj
 0001:00025b00       ?ResourceUnregisterSz@CRegObject@ATL@@QEAAJPEB_W00@Z 0000000180026b00 f i BillDispenser.obj
 0001:00025c20       ?SODataDummy@COPOSBillDispenser@@MEAAJJ@Z 0000000180026c20 f i BillDispenser.obj
 0001:00025c40       ?SODirectIO@COPOSBillDispenser@@MEAAJJPEAJPEAPEA_W@Z 0000000180026c40 f i BillDispenser.obj
 0001:00025e80       ?SOErrorDummy@COPOSBillDispenser@@MEAAJJJJPEAJ@Z 0000000180026e80 f i BillDispenser.obj
 0001:00025ea0       ?SOOutputCompleteDummy@COPOSBillDispenser@@MEAAJJ@Z 0000000180026ea0 f i BillDispenser.obj
 0001:00025ec0       ?SOStatusUpdate@COPOSBillDispenser@@MEAAJJ@Z 0000000180026ec0 f i BillDispenser.obj
 0001:00025f60       ?Save@?$IPersistStorageImpl@VCOPOSBillDispenser@@@ATL@@UEAAJPEAUIStorage@@H@Z 0000000180026f60 f i BillDispenser.obj
 0001:00026120       ?Save@?$IPersistStreamInitImpl@VCOPOSBillDispenser@@@ATL@@UEAAJPEAUIStream@@H@Z 0000000180027120 f i BillDispenser.obj
 0001:000261e0       ?SaveCompleted@?$IPersistStorageImpl@VCOPOSBillDispenser@@@ATL@@UEAAJPEAUIStorage@@@Z 00000001800271e0 f i BillDispenser.obj
 0001:00026250       ?SendOnDataChange@CComControlBase@ATL@@QEAAJK@Z 0000000180027250 f i BillDispenser.obj
 0001:00026340       ?SendOnSave@CComControlBase@ATL@@QEAAJXZ 0000000180027340 f i BillDispenser.obj
 0001:000263b0       ?SendOnViewChange@CComControlBase@ATL@@QEAAJKJ@Z 00000001800273b0 f i BillDispenser.obj
 0001:00026430       ?SetAdvise@?$IViewObjectExImpl@VCOPOSBillDispenser@@@ATL@@UEAAJKKPEAUIAdviseSink@@@Z 0000000180027430 f i BillDispenser.obj
 0001:000264f0       ?SetClientSite@?$IOleObjectImpl@VCOPOSBillDispenser@@@ATL@@UEAAJPEAUIOleClientSite@@@Z 00000001800274f0 f i BillDispenser.obj
 0001:000265a0       ?SetColorScheme@?$IOleObjectImpl@VCOPOSBillDispenser@@@ATL@@UEAAJPEAUtagLOGPALETTE@@@Z 00000001800275a0 f i BillDispenser.obj
 0001:00026630       ?SetContentExtent@?$IQuickActivateImpl@VCOPOSBillDispenser@@@ATL@@UEAAJPEAUtagSIZE@@@Z 0000000180027630 f i BillDispenser.obj
 0001:000266f0       ?SetControlFocus@CComControlBase@ATL@@QEAAHH@Z 00000001800276f0 f i BillDispenser.obj
 0001:00026880       ?SetDWORDValue@CRegKey@ATL@@QEAAJPEB_WK@Z 0000000180027880 f i BillDispenser.obj
 0001:00026930       ?SetData@?$IDataObjectImpl@VCOPOSBillDispenser@@@ATL@@UEAAJPEAUtagFORMATETC@@PEAUtagSTGMEDIUM@@H@Z 0000000180027930 f i BillDispenser.obj
 0001:000269c0       ?SetExtent@?$IOleObjectImpl@VCOPOSBillDispenser@@@ATL@@UEAAJKPEAUtagSIZE@@@Z 00000001800279c0 f i BillDispenser.obj
 0001:00026a80       ?SetHostNames@?$IOleObjectImpl@VCOPOSBillDispenser@@@ATL@@UEAAJPEB_W0@Z 0000000180027a80 f i BillDispenser.obj
 0001:00026b00       ?SetInterfaceSafetyOptions@?$IObjectSafetyImpl@VCOPOSBillDispenser@@$02@ATL@@UEAAJAEBU_GUID@@KK@Z 0000000180027b00 f i BillDispenser.obj
 0001:00026ca0       ?SetMoniker@?$IOleObjectImpl@VCOPOSBillDispenser@@@ATL@@UEAAJKPEAUIMoniker@@@Z 0000000180027ca0 f i BillDispenser.obj
 0001:00026d30       ?SetMultiStringValue@CRegKey@ATL@@QEAAJPEB_W0@Z 0000000180027d30 f i BillDispenser.obj
 0001:00026ea0       ?SetObjectRects@?$IOleInPlaceObjectWindowlessImpl@VCOPOSBillDispenser@@@ATL@@UEAAJPEBUtagRECT@@0@Z 0000000180027ea0 f i BillDispenser.obj
 0001:00026f60       ?SetStringValue@CRegKey@ATL@@QEAAJPEB_W0K@Z 0000000180027f60 f i BillDispenser.obj
 0001:000270e0       ?SetVoid@CComClassFactory@ATL@@QEAAXPEAX@Z 00000001800280e0 f i BillDispenser.obj
 0001:00027100       ?SetVoid@CComObjectRootBase@ATL@@QEAAXPEAX@Z 0000000180028100 f i BillDispenser.obj
 0001:00027110       ?ShowWindow@CWindow@ATL@@QEAAHH@Z 0000000180028110 f i BillDispenser.obj
 0001:000271a0       ?Skip@?$CComEnumImpl@UIEnumConnectionPoints@@$1?_GUID_b196b285_bab4_101a_b69c_00aa00341d07@@3U__s_GUID@@BPEAUIConnectionPoint@@V?$_CopyInterface@UIConnectionPoint@@@ATL@@@ATL@@UEAAJK@Z 00000001800281a0 f i BillDispenser.obj
 0001:00027240       ?Skip@?$CComEnumImpl@UIEnumConnections@@$1?_GUID_b196b287_bab4_101a_b69c_00aa00341d07@@3U__s_GUID@@BUtagCONNECTDATA@@V?$_Copy@UtagCONNECTDATA@@@ATL@@@ATL@@UEAAJK@Z 0000000180028240 f i BillDispenser.obj
 0001:000272e0       ?SkipAssignment@CRegParser@ATL@@IEAAJPEA_W@Z 00000001800282e0 f i BillDispenser.obj
 0001:000273e0       ?SkipWhiteSpace@CRegParser@ATL@@IEAAXXZ 00000001800283e0 f i BillDispenser.obj
 0001:00027440       ?StartWindowProc@?$CWindowImplBaseT@VCWindow@ATL@@V?$CWinTraits@$0FGAAAAAA@$0A@@2@@ATL@@SA_JPEAUHWND__@@I_K_J@Z 0000000180028440 f i BillDispenser.obj
 0001:000275b0       ?StrChrW@CRegParser@ATL@@KAPEA_WPEA_W_W@Z 00000001800285b0 f i BillDispenser.obj
 0001:00027630       ?StrFromMap@CRegObject@ATL@@QEAAPEB_WPEA_W@Z 0000000180028630 f i BillDispenser.obj
 0001:000276f0       ?Swap@?$CComPtrBase@UIAdviseSink@@@ATL@@IEAAXAEAV12@@Z 00000001800286f0 f i BillDispenser.obj
 0001:00027750       ?Swap@?$CComPtrBase@UIOleClientSite@@@ATL@@IEAAXAEAV12@@Z 0000000180028750 f i BillDispenser.obj
 0001:000277b0       ?Swap@?$CComPtrBase@UIUnknown@@@ATL@@IEAAXAEAV12@@Z 00000001800287b0 f i BillDispenser.obj
 0001:00027810       ?T2COLE_EX@@YAPEB_WPEB_WI@Z 0000000180028810 f i BillDispenser.obj
 0001:00027830       ?T2OLE_EX@@YAPEA_WPEA_WI@Z 0000000180028830 f i BillDispenser.obj
 0001:00027850       ?Term@CAtlModule@ATL@@QEAAXXZ 0000000180028850 f i BillDispenser.obj
 0001:00027910       ?Term@CComModule@ATL@@QEAAXXZ 0000000180028910 f i BillDispenser.obj
 0001:00027a00       ?TranslateAcceleratorW@?$IOleInPlaceActiveObjectImpl@VCOPOSBillDispenser@@@ATL@@UEAAJPEAUtagMSG@@@Z 0000000180028a00 f i BillDispenser.obj
 0001:00027c70       ?UIDeactivate@?$IOleInPlaceObjectWindowlessImpl@VCOPOSBillDispenser@@@ATL@@UEAAJXZ 0000000180028c70 f i BillDispenser.obj
 0001:00027d20       ?Unadvise@?$CProxy_IOPOSEvents@VCOPOSBillDispenser@@@@UEAAJK@Z 0000000180028d20 f i BillDispenser.obj
 0001:00027d70       ?Unadvise@?$IConnectionPointImpl@VCOPOSBillDispenser@@$1?DIID__IOPOSBillDispenserEvents@@3U_GUID@@BVCComDynamicUnkArray@ATL@@@ATL@@UEAAJK@Z 0000000180028d70 f i BillDispenser.obj
 0001:00027e60       ?Unadvise@?$IConnectionPointImpl@VCOPOSBillDispenser@@$1?IID_IPropertyNotifySink@@3U_GUID@@BVCComDynamicUnkArray@ATL@@@ATL@@UEAAJK@Z 0000000180028e60 f i BillDispenser.obj
 0001:00027f50       ?Unadvise@?$IOleObjectImpl@VCOPOSBillDispenser@@@ATL@@UEAAJK@Z 0000000180028f50 f i BillDispenser.obj
 0001:00028040       ?Unfreeze@?$IViewObjectExImpl@VCOPOSBillDispenser@@@ATL@@UEAAJK@Z 0000000180029040 f i BillDispenser.obj
 0001:000280c0       ?Unlock@?$CComCritSecLock@VCComCriticalSection@ATL@@@ATL@@QEAAXXZ 00000001800290c0 f i BillDispenser.obj
 0001:00028150       ?Unlock@?$CComObjectRootEx@VCComSingleThreadModel@ATL@@@ATL@@QEAAXXZ 0000000180029150 f i BillDispenser.obj
 0001:00028160       ?Unlock@CAtlModule@ATL@@UEAAJXZ 0000000180029160 f i BillDispenser.obj
 0001:000281a0       ?Unlock@CComCriticalSection@ATL@@QEAAJXZ 00000001800291a0 f i BillDispenser.obj
 0001:000281e0       ?Unlock@CComFakeCriticalSection@ATL@@QEAAJXZ 00000001800291e0 f i BillDispenser.obj
 0001:000281f0       ?UnregisterServer@?$CAtlModuleT@VCComModule@ATL@@@ATL@@QEAAJHPEBU_GUID@@@Z 00000001800291f0 f i BillDispenser.obj
 0001:00028260       ?UnregisterServer@CAtlComModule@ATL@@QEAAJHPEBU_GUID@@@Z 0000000180029260 f i BillDispenser.obj
 0001:000282a0       ?UnregisterServer@CComModule@ATL@@QEAAJHPEBU_GUID@@@Z 00000001800292a0 f i BillDispenser.obj
 0001:00028390       ?Update@?$IOleObjectImpl@VCOPOSBillDispenser@@@ATL@@UEAAJXZ 0000000180029390 f i BillDispenser.obj
 0001:00028400       ?UpdateRegistryFromResource@CAtlModule@ATL@@QEAAJIHPEAU_ATL_REGMAP_ENTRY@2@@Z 0000000180029400 f i BillDispenser.obj
 0001:00028930       ?UpdateRegistryFromResource@CAtlModule@ATL@@QEAAJPEB_WHPEAU_ATL_REGMAP_ENTRY@2@@Z 0000000180029930 f i BillDispenser.obj
 0001:00028e80       ?UpdateRegistryFromResource@CComModule@ATL@@UEAAJIHPEAU_ATL_REGMAP_ENTRY@2@@Z 0000000180029e80 f i BillDispenser.obj
 0001:00028ed0       ?UpdateRegistryFromResource@CComModule@ATL@@UEAAJPEB_WHPEAU_ATL_REGMAP_ENTRY@2@@Z 0000000180029ed0 f i BillDispenser.obj
 0001:00028f20       ?UpdateRegistryFromResourceD@CComModule@ATL@@UEAAJIHPEAU_ATL_REGMAP_ENTRY@2@@Z 0000000180029f20 f i BillDispenser.obj
 0001:00028f40       ?UpdateRegistryFromResourceD@CComModule@ATL@@UEAAJPEB_WHPEAU_ATL_REGMAP_ENTRY@2@@Z 0000000180029f40 f i BillDispenser.obj
 0001:00028f60       ?VTFromRegType@CRegParser@ATL@@KAHPEB_WAEAG@Z 0000000180029f60 f i BillDispenser.obj
 0001:00029040       ?WindowProc@?$CWindowImplBaseT@VCWindow@ATL@@V?$CWinTraits@$0FGAAAAAA@$0A@@2@@ATL@@SA_JPEAUHWND__@@I_K_J@Z 000000018002a040 f i BillDispenser.obj
 0001:00029320       ?WriteToStream@CComBSTR@ATL@@QEAAJPEAUIStream@@@Z 000000018002a320 f i BillDispenser.obj
 0001:00029490       ?WriteToStream@CComVariant@ATL@@QEAAJPEAUIStream@@@Z 000000018002a490 f i BillDispenser.obj
 0001:000298a0       ?WriteToStream@CComVariant@ATL@@QEAAJPEAUIStream@@G@Z 000000018002a8a0 f i BillDispenser.obj
 0001:00029980       ?_AtlFinalConstruct@CComObjectRootBase@ATL@@QEAAJXZ 000000018002a980 f i BillDispenser.obj
 0001:00029990       ?_AtlGetConversionACP@ATL@@YAIXZ 000000018002a990 f i BillDispenser.obj
 0001:000299a0       ?_AtlInitialConstruct@?$CComAggObject@VCOPOSBillDispenser@@@ATL@@QEAAJXZ 000000018002a9a0 f i BillDispenser.obj
 0001:00029a00       ?_AtlInitialConstruct@?$CComObjectRootEx@VCComMultiThreadModel@ATL@@@ATL@@QEAAJXZ 000000018002aa00 f i BillDispenser.obj
 0001:00029a40       ?_AtlInitialConstruct@?$CComObjectRootEx@VCComSingleThreadModel@ATL@@@ATL@@QEAAJXZ 000000018002aa40 f i BillDispenser.obj
 0001:00029a50       ?_AtlVerifyStackAvailable@_ATL_SAFE_ALLOCA_IMPL@ATL@@YA_N_K@Z 000000018002aa50 f i BillDispenser.obj
 0001:00029bb0       ?_GetEntries@?$CComEnum@UIEnumConnectionPoints@@$1?_GUID_b196b285_bab4_101a_b69c_00aa00341d07@@3U__s_GUID@@BPEAUIConnectionPoint@@V?$_CopyInterface@UIConnectionPoint@@@ATL@@VCComSingleThreadModel@6@@ATL@@SAPEBU_ATL_INTMAP_ENTRY@2@XZ 000000018002abb0 f i BillDispenser.obj
 0001:00029bd0       ?_GetEntries@?$CComEnum@UIEnumConnections@@$1?_GUID_b196b287_bab4_101a_b69c_00aa00341d07@@3U__s_GUID@@BUtagCONNECTDATA@@V?$_Copy@UtagCONNECTDATA@@@ATL@@VCComSingleThreadModel@6@@ATL@@SAPEBU_ATL_INTMAP_ENTRY@2@XZ 000000018002abd0 f i BillDispenser.obj
 0001:00029bf0       ?_GetEntries@CComClassFactory@ATL@@SAPEBU_ATL_INTMAP_ENTRY@2@XZ 000000018002abf0 f i BillDispenser.obj
 0001:00029c10       ?_GetEntries@COPOSBillDispenser@@SAPEBU_ATL_INTMAP_ENTRY@ATL@@XZ 000000018002ac10 f i BillDispenser.obj
 0001:00029c30       ?_GetRawUnknown@COPOSBillDispenser@@QEAAPEAUIUnknown@@XZ 000000018002ac30 f i BillDispenser.obj
 0001:00029cc0       ?_GetViewStatus@COPOSBillDispenser@@QEAAKXZ 000000018002acc0 f i BillDispenser.obj
 0001:00029cd0       ?_InternalQueryInterface@?$CComEnum@UIEnumConnectionPoints@@$1?_GUID_b196b285_bab4_101a_b69c_00aa00341d07@@3U__s_GUID@@BPEAUIConnectionPoint@@V?$_CopyInterface@UIConnectionPoint@@@ATL@@VCComSingleThreadModel@6@@ATL@@QEAAJAEBU_GUID@@PEAPEAX@Z 000000018002acd0 f i BillDispenser.obj
 0001:00029d20       ?_InternalQueryInterface@?$CComEnum@UIEnumConnections@@$1?_GUID_b196b287_bab4_101a_b69c_00aa00341d07@@3U__s_GUID@@BUtagCONNECTDATA@@V?$_Copy@UtagCONNECTDATA@@@ATL@@VCComSingleThreadModel@6@@ATL@@QEAAJAEBU_GUID@@PEAPEAX@Z 000000018002ad20 f i BillDispenser.obj
 0001:00029d70       ?_InternalQueryInterface@CComClassFactory@ATL@@QEAAJAEBU_GUID@@PEAPEAX@Z 000000018002ad70 f i BillDispenser.obj
 0001:00029dc0       ?_InternalQueryInterface@COPOSBillDispenser@@QEAAJAEBU_GUID@@PEAPEAX@Z 000000018002adc0 f i BillDispenser.obj
 0001:00029e10       ?_LocCPQueryInterface@?$IConnectionPointImpl@VCOPOSBillDispenser@@$1?DIID__IOPOSBillDispenserEvents@@3U_GUID@@BVCComDynamicUnkArray@ATL@@@ATL@@UEAAJAEBU_GUID@@PEAPEAX@Z 000000018002ae10 f i BillDispenser.obj
 0001:00029ef0       ?_LocCPQueryInterface@?$IConnectionPointImpl@VCOPOSBillDispenser@@$1?IID_IPropertyNotifySink@@3U_GUID@@BVCComDynamicUnkArray@ATL@@@ATL@@UEAAJAEBU_GUID@@PEAPEAX@Z 000000018002aef0 f i BillDispenser.obj
 0001:00029fd0       ?atlCreate@?$CWindowImpl@VCOPOSBillDispenser@@VCWindow@ATL@@V?$CWinTraits@$0FGAAAAAA@$0A@@3@@ATL@@QEAAPEAUHWND__@@PEAU3@V_U_RECT@2@PEB_WKKV_U_MENUorID@2@PEAX@Z 000000018002afd0 f i BillDispenser.obj
 0001:0002a100       ?atlCreate@?$CWindowImplBaseT@VCWindow@ATL@@V?$CWinTraits@$0FGAAAAAA@$0A@@2@@ATL@@QEAAPEAUHWND__@@PEAU3@V_U_RECT@2@PEB_WKKV_U_MENUorID@2@GPEAX@Z 000000018002b100 f i BillDispenser.obj
 0001:0002a360       ?atlCreate@CRegKey@ATL@@QEAAJPEAUHKEY__@@PEB_WPEA_WKKPEAU_SECURITY_ATTRIBUTES@@PEAK@Z 000000018002b360 f i BillDispenser.obj
 0001:0002a550       ?begin@CComDynamicUnkArray@ATL@@QEAAPEAPEAUIUnknown@@XZ 000000018002b550 f i BillDispenser.obj
 0001:0002a560       ?copy@?$_Copy@UtagCONNECTDATA@@@ATL@@SAJPEAUtagCONNECTDATA@@PEBU3@@Z 000000018002b560 f i BillDispenser.obj
 0001:0002a650       ?copy@?$_CopyInterface@UIConnectionPoint@@@ATL@@SAJPEAPEAUIConnectionPoint@@PEBQEAU3@@Z 000000018002b650 f i BillDispenser.obj
 0001:0002a740       ?destroy@?$_Copy@UtagCONNECTDATA@@@ATL@@SAXPEAUtagCONNECTDATA@@@Z 000000018002b740 f i BillDispenser.obj
 0001:0002a790       ?destroy@?$_CopyInterface@UIConnectionPoint@@@ATL@@SAXPEAPEAUIConnectionPoint@@@Z 000000018002b790 f i BillDispenser.obj
 0001:0002a7e0       ?end@CComDynamicUnkArray@ATL@@QEAAPEAPEAUIUnknown@@XZ 000000018002b7e0 f i BillDispenser.obj
 0001:0002a800       ?init@?$_Copy@UtagCONNECTDATA@@@ATL@@SAXPEAUtagCONNECTDATA@@@Z 000000018002b800 f i BillDispenser.obj
 0001:0002a810       ?init@?$_CopyInterface@UIConnectionPoint@@@ATL@@SAXPEAPEAUIConnectionPoint@@@Z 000000018002b810 f i BillDispenser.obj
 0001:0002a820       ?memcpy_s@Checked@ATL@@YAXPEAX_KPEBX1@Z 000000018002b820 f i BillDispenser.obj
 0001:0002a880       ?ocscpy_s@@YA_NPEA_W_KPEB_W@Z 000000018002b880 f i BillDispenser.obj
 0001:0002a900       ?ocslen@@YAHPEB_W@Z        000000018002b900 f i BillDispenser.obj
 0001:0002a940       ?tcsncpy_s@Checked@ATL@@YAHPEA_W_KPEB_W1@Z 000000018002b940 f i BillDispenser.obj
 0001:0002a9a0       ?wcscat_s@Checked@ATL@@YAXPEA_W_KPEB_W@Z 000000018002b9a0 f i BillDispenser.obj
 0001:0002a9f0       ?wcscpy_s@Checked@ATL@@YAXPEA_W_KPEB_W@Z 000000018002b9f0 f i BillDispenser.obj
 0001:0002aa40       ?wcsncpy_s@Checked@ATL@@YAHPEA_W_KPEB_W1@Z 000000018002ba40 f i BillDispenser.obj
 0001:0002aaa0       ?wcsstr@@YAPEA_WPEA_WPEB_W@Z 000000018002baa0 f i BillDispenser.obj
 0001:0002aae0       InlineIsEqualGUID          000000018002bae0 f i BillDispenser.obj
 0001:0002abb0       IsEqualGUID                000000018002bbb0 f i BillDispenser.obj
 0001:0002ac10       ??0COPOSBillDispenser@@QEAA@XZ 000000018002bc10 f   BillDispenserImpl.obj
 0001:0002ad90       ?FinalConstruct@COPOSBillDispenser@@QEAAJXZ 000000018002bd90 f   BillDispenserImpl.obj
 0001:0002ae80       ??1COPOSBillDispenser@@UEAA@XZ 000000018002be80 f   BillDispenserImpl.obj
 0001:0002af60       ?WriteTrace@COPOSBillDispenser@@QEAAXPEB_WZZ 000000018002bf60 f   BillDispenserImpl.obj
 0001:0002b020       ?WriteTraceString@COPOSBillDispenser@@QEAAXPEB_WPEA_W@Z 000000018002c020 f   BillDispenserImpl.obj
 0001:0002b460       ?WriteTraceString@COPOSBillDispenser@@QEAAXPEAXHHHPEB_WZZ 000000018002c460 f   BillDispenserImpl.obj
 0001:0002b6f0       ?WriteTraceError@COPOSBillDispenser@@QEAAXPEB_WK@Z 000000018002c6f0 f   BillDispenserImpl.obj
 0001:0002b7f0       ?WriteTraceMethods@COPOSBillDispenser@@QEAAXPEAJH@Z 000000018002c7f0 f   BillDispenserImpl.obj
 0001:0002b880       ?GetOposProp@COPOSBillDispenser@@IEAAJPEBDJPEAJJ@Z 000000018002c880 f   BillDispenserImpl.obj
 0001:0002bba0       ?SetOposProp@COPOSBillDispenser@@IEAAJPEBDJJJ@Z 000000018002cba0 f   BillDispenserImpl.obj
 0001:0002bf00       ?GetOposProp@COPOSBillDispenser@@IEAAJPEBDJPEAFJ@Z 000000018002cf00 f   BillDispenserImpl.obj
 0001:0002bfa0       ?SetOposProp@COPOSBillDispenser@@IEAAJPEBDJFJ@Z 000000018002cfa0 f   BillDispenserImpl.obj
 0001:0002c020       ?GetOposProp@COPOSBillDispenser@@IEAAJPEBDJPEAPEA_WJ@Z 000000018002d020 f   BillDispenserImpl.obj
 0001:0002c340       ?SetOposProp@COPOSBillDispenser@@IEAAJPEBDJPEA_WJ@Z 000000018002d340 f   BillDispenserImpl.obj
 0001:0002c720       ?DoInvoke@COPOSBillDispenser@@IEAAJPEBDJPEAVOposVariant@@IHPEAJ_N@Z 000000018002d720 f   BillDispenserImpl.obj
 0001:0002d290       ?SetCOFreezeEvents@COPOSBillDispenser@@IEAAXF@Z 000000018002e290 f   BillDispenserImpl.obj
 0001:0002d420       ?FreezeEvents@COPOSBillDispenser@@MEAAJH@Z 000000018002e420 f   BillDispenserImpl.obj
 0001:0002d550       ?OnDraw@COPOSBillDispenser@@MEAAJAEAUATL_DRAWINFO@@@Z 000000018002e550 f   BillDispenserImpl.obj
 0001:0002d720       ?SOProcessID@COPOSBillDispenser@@UEAAJPEAJ@Z 000000018002e720 f   BillDispenserImpl.obj
 0001:0002d780       ?get_OpenResult@COPOSBillDispenser@@UEAAJPEAJ@Z 000000018002e780 f   BillDispenserImpl.obj
 0001:0002d7e0       ?get_BinaryConversion@COPOSBillDispenser@@UEAAJPEAJ@Z 000000018002e7e0 f   BillDispenserImpl.obj
 0001:0002d840       ?put_BinaryConversion@COPOSBillDispenser@@UEAAJJ@Z 000000018002e840 f   BillDispenserImpl.obj
 0001:0002d8b0       ?get_CapPowerReporting@COPOSBillDispenser@@UEAAJPEAJ@Z 000000018002e8b0 f   BillDispenserImpl.obj
 0001:0002d910       ?get_CheckHealthText@COPOSBillDispenser@@UEAAJPEAPEA_W@Z 000000018002e910 f   BillDispenserImpl.obj
 0001:0002d970       ?get_Claimed@COPOSBillDispenser@@UEAAJPEAF@Z 000000018002e970 f   BillDispenserImpl.obj
 0001:0002d9d0       ?get_DeviceEnabled@COPOSBillDispenser@@UEAAJPEAF@Z 000000018002e9d0 f   BillDispenserImpl.obj
 0001:0002da30       ?put_DeviceEnabled@COPOSBillDispenser@@UEAAJF@Z 000000018002ea30 f   BillDispenserImpl.obj
 0001:0002da90       ?get_FreezeEvents@COPOSBillDispenser@@UEAAJPEAF@Z 000000018002ea90 f   BillDispenserImpl.obj
 0001:0002daf0       ?put_FreezeEvents@COPOSBillDispenser@@UEAAJF@Z 000000018002eaf0 f   BillDispenserImpl.obj
 0001:0002dbd0       ?get_PowerNotify@COPOSBillDispenser@@UEAAJPEAJ@Z 000000018002ebd0 f   BillDispenserImpl.obj
 0001:0002dc30       ?put_PowerNotify@COPOSBillDispenser@@UEAAJJ@Z 000000018002ec30 f   BillDispenserImpl.obj
 0001:0002dc90       ?get_PowerState@COPOSBillDispenser@@UEAAJPEAJ@Z 000000018002ec90 f   BillDispenserImpl.obj
 0001:0002dcf0       ?get_ResultCode@COPOSBillDispenser@@UEAAJPEAJ@Z 000000018002ecf0 f   BillDispenserImpl.obj
 0001:0002ddc0       ?get_ResultCodeExtended@COPOSBillDispenser@@UEAAJPEAJ@Z 000000018002edc0 f   BillDispenserImpl.obj
 0001:0002de20       ?get_State@COPOSBillDispenser@@UEAAJPEAJ@Z 000000018002ee20 f   BillDispenserImpl.obj
 0001:0002deb0       ?get_ControlObjectDescription@COPOSBillDispenser@@UEAAJPEAPEA_W@Z 000000018002eeb0 f   BillDispenserImpl.obj
 0001:0002df30       ?get_ControlObjectVersion@COPOSBillDispenser@@UEAAJPEAJ@Z 000000018002ef30 f   BillDispenserImpl.obj
 0001:0002df90       ?get_ServiceObjectDescription@COPOSBillDispenser@@UEAAJPEAPEA_W@Z 000000018002ef90 f   BillDispenserImpl.obj
 0001:0002dff0       ?get_ServiceObjectVersion@COPOSBillDispenser@@UEAAJPEAJ@Z 000000018002eff0 f   BillDispenserImpl.obj
 0001:0002e050       ?get_DeviceDescription@COPOSBillDispenser@@UEAAJPEAPEA_W@Z 000000018002f050 f   BillDispenserImpl.obj
 0001:0002e0b0       ?get_DeviceName@COPOSBillDispenser@@UEAAJPEAPEA_W@Z 000000018002f0b0 f   BillDispenserImpl.obj
 0001:0002e110       ?get_CapStatisticsReporting@COPOSBillDispenser@@UEAAJPEAF@Z 000000018002f110 f   BillDispenserImpl.obj
 0001:0002e170       ?get_CapUpdateStatistics@COPOSBillDispenser@@UEAAJPEAF@Z 000000018002f170 f   BillDispenserImpl.obj
 0001:0002e1d0       ?get_CapCompareFirmwareVersion@COPOSBillDispenser@@UEAAJPEAF@Z 000000018002f1d0 f   BillDispenserImpl.obj
 0001:0002e230       ?get_CapUpdateFirmware@COPOSBillDispenser@@UEAAJPEAF@Z 000000018002f230 f   BillDispenserImpl.obj
 0001:0002e290       ?CheckHealth@COPOSBillDispenser@@UEAAJJPEAJ@Z 000000018002f290 f   BillDispenserImpl.obj
 0001:0002e350       ?ClaimDevice@COPOSBillDispenser@@UEAAJJPEAJ@Z 000000018002f350 f   BillDispenserImpl.obj
 0001:0002e470       ?Close@COPOSBillDispenser@@UEAAJPEAJ@Z 000000018002f470 f   BillDispenserImpl.obj
 0001:0002e580       ?DirectIO@COPOSBillDispenser@@UEAAJJPEAJPEAPEA_W0@Z 000000018002f580 f   BillDispenserImpl.obj
 0001:0002e700       ?Open@COPOSBillDispenser@@UEAAJPEA_WPEAJ@Z 000000018002f700 f   BillDispenserImpl.obj
 0001:0002fbe0       ?ReleaseDevice@COPOSBillDispenser@@UEAAJPEAJ@Z 0000000180030be0 f   BillDispenserImpl.obj
 0001:0002fc90       ?ResetStatistics@COPOSBillDispenser@@UEAAJPEA_WPEAJ@Z 0000000180030c90 f   BillDispenserImpl.obj
 0001:0002fd70       ?RetrieveStatistics@COPOSBillDispenser@@UEAAJPEAPEA_WPEAJ@Z 0000000180030d70 f   BillDispenserImpl.obj
 0001:0002fe50       ?UpdateStatistics@COPOSBillDispenser@@UEAAJPEA_WPEAJ@Z 0000000180030e50 f   BillDispenserImpl.obj
 0001:0002ff30       ?CompareFirmwareVersion@COPOSBillDispenser@@UEAAJPEA_WPEAJ1@Z 0000000180030f30 f   BillDispenserImpl.obj
 0001:00030070       ?UpdateFirmware@COPOSBillDispenser@@UEAAJPEA_WPEAJ@Z 0000000180031070 f   BillDispenserImpl.obj
 0001:00030150       ?get_CapDiscrepancy@COPOSBillDispenser@@UEAAJPEAF@Z 0000000180031150 f   BillDispenserImpl.obj
 0001:000301b0       ?get_CapEmptySensor@COPOSBillDispenser@@UEAAJPEAF@Z 00000001800311b0 f   BillDispenserImpl.obj
 0001:00030210       ?get_CapJamSensor@COPOSBillDispenser@@UEAAJPEAF@Z 0000000180031210 f   BillDispenserImpl.obj
 0001:00030270       ?get_CapNearEmptySensor@COPOSBillDispenser@@UEAAJPEAF@Z 0000000180031270 f   BillDispenserImpl.obj
 0001:000302d0       ?get_AsyncMode@COPOSBillDispenser@@UEAAJPEAF@Z 00000001800312d0 f   BillDispenserImpl.obj
 0001:00030330       ?put_AsyncMode@COPOSBillDispenser@@UEAAJF@Z 0000000180031330 f   BillDispenserImpl.obj
 0001:00030390       ?get_AsyncResultCode@COPOSBillDispenser@@UEAAJPEAJ@Z 0000000180031390 f   BillDispenserImpl.obj
 0001:000303f0       ?get_AsyncResultCodeExtended@COPOSBillDispenser@@UEAAJPEAJ@Z 00000001800313f0 f   BillDispenserImpl.obj
 0001:00030450       ?get_CurrencyCashList@COPOSBillDispenser@@UEAAJPEAPEA_W@Z 0000000180031450 f   BillDispenserImpl.obj
 0001:000304b0       ?get_CurrencyCode@COPOSBillDispenser@@UEAAJPEAPEA_W@Z 00000001800314b0 f   BillDispenserImpl.obj
 0001:00030510       ?put_CurrencyCode@COPOSBillDispenser@@UEAAJPEA_W@Z 0000000180031510 f   BillDispenserImpl.obj
 0001:00030570       ?get_CurrencyCodeList@COPOSBillDispenser@@UEAAJPEAPEA_W@Z 0000000180031570 f   BillDispenserImpl.obj
 0001:000305d0       ?get_CurrentExit@COPOSBillDispenser@@UEAAJPEAJ@Z 00000001800315d0 f   BillDispenserImpl.obj
 0001:00030630       ?put_CurrentExit@COPOSBillDispenser@@UEAAJJ@Z 0000000180031630 f   BillDispenserImpl.obj
 0001:00030690       ?get_DeviceExits@COPOSBillDispenser@@UEAAJPEAJ@Z 0000000180031690 f   BillDispenserImpl.obj
 0001:000306f0       ?get_DeviceStatus@COPOSBillDispenser@@UEAAJPEAJ@Z 00000001800316f0 f   BillDispenserImpl.obj
 0001:00030750       ?get_ExitCashList@COPOSBillDispenser@@UEAAJPEAPEA_W@Z 0000000180031750 f   BillDispenserImpl.obj
 0001:000307b0       ?AdjustCashCounts@COPOSBillDispenser@@UEAAJPEA_WPEAJ@Z 00000001800317b0 f   BillDispenserImpl.obj
 0001:00030890       ?DispenseCash@COPOSBillDispenser@@UEAAJPEA_WPEAJ@Z 0000000180031890 f   BillDispenserImpl.obj
 0001:00030970       ?ReadCashCounts@COPOSBillDispenser@@UEAAJPEAPEA_WPEAFPEAJ@Z 0000000180031970 f   BillDispenserImpl.obj
 0001:00030aa0       ??0?$CComControl@VCOPOSBillDispenser@@V?$CWindowImpl@VCOPOSBillDispenser@@VCWindow@ATL@@V?$CWinTraits@$0FGAAAAAA@$0A@@3@@ATL@@@ATL@@QEAA@XZ 0000000180031aa0 f i BillDispenserImpl.obj
 0001:00030af0       ??0?$CComPtr@UIAdviseSink@@@ATL@@QEAA@XZ 0000000180031af0 f i BillDispenserImpl.obj
 0001:00030b30       ??0?$CComPtr@UIDataAdviseHolder@@@ATL@@QEAA@XZ 0000000180031b30 f i BillDispenserImpl.obj
 0001:00030b70       ??0?$CComPtr@UIOleAdviseHolder@@@ATL@@QEAA@XZ 0000000180031b70 f i BillDispenserImpl.obj
 0001:00030bb0       ??0?$CComPtr@UIOleClientSite@@@ATL@@QEAA@XZ 0000000180031bb0 f i BillDispenserImpl.obj
 0001:00030bf0       ??0?$CComPtr@UIOleInPlaceSiteWindowless@@@ATL@@QEAA@XZ 0000000180031bf0 f i BillDispenserImpl.obj
 0001:00030c30       ??0?$CComPtrBase@UIAdviseSink@@@ATL@@IEAA@XZ 0000000180031c30 f i BillDispenserImpl.obj
 0001:00030c50       ??0?$CComPtrBase@UIDataAdviseHolder@@@ATL@@IEAA@XZ 0000000180031c50 f i BillDispenserImpl.obj
 0001:00030c70       ??0?$CComPtrBase@UIOleAdviseHolder@@@ATL@@IEAA@XZ 0000000180031c70 f i BillDispenserImpl.obj
 0001:00030c90       ??0?$CComPtrBase@UIOleClientSite@@@ATL@@IEAA@XZ 0000000180031c90 f i BillDispenserImpl.obj
 0001:00030cb0       ??0?$CComPtrBase@UIOleInPlaceSiteWindowless@@@ATL@@IEAA@XZ 0000000180031cb0 f i BillDispenserImpl.obj
 0001:00030cd0       ??0?$CComQIPtr@UIDispatch@@$1?_GUID_00020400_0000_0000_c000_000000000046@@3U__s_GUID@@B@ATL@@QEAA@XZ 0000000180031cd0 f i BillDispenserImpl.obj
 0001:00030d10       ??0?$CProxy_IOPOSEvents@VCOPOSBillDispenser@@@@QEAA@PEAVCOPOSBillDispenser@@@Z 0000000180031d10 f i BillDispenserImpl.obj
 0001:00030d80       ??0?$CWindowImpl@VCOPOSBillDispenser@@VCWindow@ATL@@V?$CWinTraits@$0FGAAAAAA@$0A@@3@@ATL@@QEAA@XZ 0000000180031d80 f i BillDispenserImpl.obj
 0001:00030dc0       ??0?$CWindowImplBaseT@VCWindow@ATL@@V?$CWinTraits@$0FGAAAAAA@$0A@@2@@ATL@@QEAA@XZ 0000000180031dc0 f i BillDispenserImpl.obj
 0001:00030e10       ??0?$CWindowImplRoot@VCWindow@ATL@@@ATL@@QEAA@XZ 0000000180031e10 f i BillDispenserImpl.obj
 0001:00030e80       ??0?$IConnectionPointContainerImpl@VCOPOSBillDispenser@@@ATL@@QEAA@XZ 0000000180031e80 f i BillDispenserImpl.obj
 0001:00030ec0       ??0?$IConnectionPointImpl@VCOPOSBillDispenser@@$1?DIID__IOPOSBillDispenserEvents@@3U_GUID@@BVCComDynamicUnkArray@ATL@@@ATL@@QEAA@XZ 0000000180031ec0 f i BillDispenserImpl.obj
 0001:00030f10       ??0?$IConnectionPointImpl@VCOPOSBillDispenser@@$1?IID_IPropertyNotifySink@@3U_GUID@@BVCComDynamicUnkArray@ATL@@@ATL@@QEAA@XZ 0000000180031f10 f i BillDispenserImpl.obj
 0001:00030f60       ??0?$IDataObjectImpl@VCOPOSBillDispenser@@@ATL@@QEAA@XZ 0000000180031f60 f i BillDispenserImpl.obj
 0001:00030fa0       ??0?$IDispatchImpl@UIOPOSBillDispenser@@$1?IID_IOPOSBillDispenser@@3U_GUID@@B$1?LIBID_OposBillDispenser_CCO@@3U3@B$00$0A@VCComTypeInfoHolder@ATL@@@ATL@@QEAA@XZ 0000000180031fa0 f i BillDispenserImpl.obj
 0001:00030fe0       ??0?$IObjectSafetyImpl@VCOPOSBillDispenser@@$02@ATL@@QEAA@XZ 0000000180031fe0 f i BillDispenserImpl.obj
 0001:00031020       ??0?$IOleControlImpl@VCOPOSBillDispenser@@@ATL@@QEAA@XZ 0000000180032020 f i BillDispenserImpl.obj
 0001:00031060       ??0?$IOleInPlaceActiveObjectImpl@VCOPOSBillDispenser@@@ATL@@QEAA@XZ 0000000180032060 f i BillDispenserImpl.obj
 0001:000310a0       ??0?$IOleInPlaceObjectWindowlessImpl@VCOPOSBillDispenser@@@ATL@@QEAA@XZ 00000001800320a0 f i BillDispenserImpl.obj
 0001:000310e0       ??0?$IOleObjectImpl@VCOPOSBillDispenser@@@ATL@@QEAA@XZ 00000001800320e0 f i BillDispenserImpl.obj
 0001:00031120       ??0?$IPersistStorageImpl@VCOPOSBillDispenser@@@ATL@@QEAA@XZ 0000000180032120 f i BillDispenserImpl.obj
 0001:00031160       ??0?$IPersistStreamInitImpl@VCOPOSBillDispenser@@@ATL@@QEAA@XZ 0000000180032160 f i BillDispenserImpl.obj
 0001:000311a0       ??0?$IPropertyNotifySinkCP@VCOPOSBillDispenser@@VCComDynamicUnkArray@ATL@@@ATL@@QEAA@XZ 00000001800321a0 f i BillDispenserImpl.obj
 0001:000311e0       ??0?$IProvideClassInfo2Impl@$1?CLSID_OPOSBillDispenser@@3U_GUID@@B$1?DIID__IOPOSBillDispenserEvents@@3U2@B$1?LIBID_OposBillDispenser_CCO@@3U2@B$00$0A@VCComTypeInfoHolder@ATL@@@ATL@@QEAA@XZ 00000001800321e0 f i BillDispenserImpl.obj
 0001:00031220       ??0?$IQuickActivateImpl@VCOPOSBillDispenser@@@ATL@@QEAA@XZ 0000000180032220 f i BillDispenserImpl.obj
 0001:00031260       ??0?$ISpecifyPropertyPagesImpl@VCOPOSBillDispenser@@@ATL@@QEAA@XZ 0000000180032260 f i BillDispenserImpl.obj
 0001:000312a0       ??0?$IViewObjectExImpl@VCOPOSBillDispenser@@@ATL@@QEAA@XZ 00000001800322a0 f i BillDispenserImpl.obj
 0001:000312e0       ??0?$_ICPLocator@$1?DIID__IOPOSBillDispenserEvents@@3U_GUID@@B@ATL@@QEAA@XZ 00000001800322e0 f i BillDispenserImpl.obj
 0001:000312f0       ??0?$_ICPLocator@$1?IID_IPropertyNotifySink@@3U_GUID@@B@ATL@@QEAA@XZ 00000001800322f0 f i BillDispenserImpl.obj
 0001:00031300       ??0CComControlBase@ATL@@QEAA@AEAPEAUHWND__@@@Z 0000000180032300 f i BillDispenserImpl.obj
 0001:00031520       ??0CComDynamicUnkArray@ATL@@QEAA@XZ 0000000180032520 f i BillDispenserImpl.obj
 0001:00031550       ??0CDynamicStdCallThunk2@ATL@@QEAA@XZ 0000000180032550 f i BillDispenserImpl.obj
 0001:00031570       ??0CMessageMap@ATL@@QEAA@XZ 0000000180032570 f i BillDispenserImpl.obj
 0001:00031580       ??0CWindow@ATL@@QEAA@PEAUHWND__@@@Z 0000000180032580 f i BillDispenserImpl.obj
 0001:000315a0       ??0CWndProcThunk@ATL@@QEAA@XZ 00000001800325a0 f i BillDispenserImpl.obj
 0001:000315e0       ??0IConnectionPointContainer@@QEAA@XZ 00000001800325e0 f i BillDispenserImpl.obj
 0001:00031620       ??0IDataObject@@QEAA@XZ    0000000180032620 f i BillDispenserImpl.obj
 0001:00031660       ??0IDispatch@@QEAA@XZ      0000000180032660 f i BillDispenserImpl.obj
 0001:000316a0       ??0IOPOSBillDispenser@@QEAA@XZ 00000001800326a0 f i BillDispenserImpl.obj
 0001:000316e0       ??0IOPOSBillDispenser_1_11@@QEAA@XZ 00000001800326e0 f i BillDispenserImpl.obj
 0001:00031720       ??0IObjectSafety@@QEAA@XZ  0000000180032720 f i BillDispenserImpl.obj
 0001:00031760       ??0IOleControl@@QEAA@XZ    0000000180032760 f i BillDispenserImpl.obj
 0001:000317a0       ??0IOleInPlaceActiveObject@@QEAA@XZ 00000001800327a0 f i BillDispenserImpl.obj
 0001:000317e0       ??0IOleInPlaceObject@@QEAA@XZ 00000001800327e0 f i BillDispenserImpl.obj
 0001:00031820       ??0IOleInPlaceObjectWindowless@@QEAA@XZ 0000000180032820 f i BillDispenserImpl.obj
 0001:00031860       ??0IOleObject@@QEAA@XZ     0000000180032860 f i BillDispenserImpl.obj
 0001:000318a0       ??0IOleWindow@@QEAA@XZ     00000001800328a0 f i BillDispenserImpl.obj
 0001:000318e0       ??0IPersist@@QEAA@XZ       00000001800328e0 f i BillDispenserImpl.obj
 0001:00031920       ??0IPersistStorage@@QEAA@XZ 0000000180032920 f i BillDispenserImpl.obj
 0001:00031960       ??0IPersistStreamInit@@QEAA@XZ 0000000180032960 f i BillDispenserImpl.obj
 0001:000319a0       ??0IProvideClassInfo2@@QEAA@XZ 00000001800329a0 f i BillDispenserImpl.obj
 0001:000319e0       ??0IProvideClassInfo@@QEAA@XZ 00000001800329e0 f i BillDispenserImpl.obj
 0001:00031a20       ??0IQuickActivate@@QEAA@XZ 0000000180032a20 f i BillDispenserImpl.obj
 0001:00031a60       ??0ISpecifyPropertyPages@@QEAA@XZ 0000000180032a60 f i BillDispenserImpl.obj
 0001:00031aa0       ??0IViewObject2@@QEAA@XZ   0000000180032aa0 f i BillDispenserImpl.obj
 0001:00031ae0       ??0IViewObject@@QEAA@XZ    0000000180032ae0 f i BillDispenserImpl.obj
 0001:00031b20       ??0IViewObjectEx@@QEAA@XZ  0000000180032b20 f i BillDispenserImpl.obj
 0001:00031b60       ??0OposVariantResult@@QEAA@XZ 0000000180032b60 f i BillDispenserImpl.obj
 0001:00031ba0       ??0_CW@@QEAA@PEBD@Z        0000000180032ba0 f i BillDispenserImpl.obj
 0001:00031bf0       ??0_CW@@QEAA@PEB_W@Z       0000000180032bf0 f i BillDispenserImpl.obj
 0001:00031c40       ??0_CWNCC@@QEAA@PEBD@Z     0000000180032c40 f i BillDispenserImpl.obj
 0001:00031c80       ??1?$CComControl@VCOPOSBillDispenser@@V?$CWindowImpl@VCOPOSBillDispenser@@VCWindow@ATL@@V?$CWinTraits@$0FGAAAAAA@$0A@@3@@ATL@@@ATL@@UEAA@XZ 0000000180032c80 f i BillDispenserImpl.obj
 0001:00031cc0       ??1?$CComPtr@UIDataAdviseHolder@@@ATL@@QEAA@XZ 0000000180032cc0 f i BillDispenserImpl.obj
 0001:00031cf0       ??1?$CComPtr@UIOleAdviseHolder@@@ATL@@QEAA@XZ 0000000180032cf0 f i BillDispenserImpl.obj
 0001:00031d20       ??1?$CComPtr@UIOleInPlaceSiteWindowless@@@ATL@@QEAA@XZ 0000000180032d20 f i BillDispenserImpl.obj
 0001:00031d50       ??1?$CComPtrBase@UIDataAdviseHolder@@@ATL@@QEAA@XZ 0000000180032d50 f i BillDispenserImpl.obj
 0001:00031da0       ??1?$CComPtrBase@UIOleAdviseHolder@@@ATL@@QEAA@XZ 0000000180032da0 f i BillDispenserImpl.obj
 0001:00031df0       ??1?$CComPtrBase@UIOleInPlaceSiteWindowless@@@ATL@@QEAA@XZ 0000000180032df0 f i BillDispenserImpl.obj
 0001:00031e40       ??1?$CComQIPtr@UIDispatch@@$1?_GUID_00020400_0000_0000_c000_000000000046@@3U__s_GUID@@B@ATL@@QEAA@XZ 0000000180032e40 f i BillDispenserImpl.obj
 0001:00031e70       ??1?$CProxy_IOPOSEvents@VCOPOSBillDispenser@@@@QEAA@XZ 0000000180032e70 f i BillDispenserImpl.obj
 0001:00031ea0       ??1?$CWindowImpl@VCOPOSBillDispenser@@VCWindow@ATL@@V?$CWinTraits@$0FGAAAAAA@$0A@@3@@ATL@@UEAA@XZ 0000000180032ea0 f i BillDispenserImpl.obj
 0001:00031ed0       ??1?$CWindowImplBaseT@VCWindow@ATL@@V?$CWinTraits@$0FGAAAAAA@$0A@@2@@ATL@@UEAA@XZ 0000000180032ed0 f i BillDispenserImpl.obj
 0001:00031f00       ??1?$CWindowImplRoot@VCWindow@ATL@@@ATL@@UEAA@XZ 0000000180032f00 f i BillDispenserImpl.obj
 0001:00031fc0       ??1?$IConnectionPointImpl@VCOPOSBillDispenser@@$1?DIID__IOPOSBillDispenserEvents@@3U_GUID@@BVCComDynamicUnkArray@ATL@@@ATL@@QEAA@XZ 0000000180032fc0 f i BillDispenserImpl.obj
 0001:00032060       ??1?$IConnectionPointImpl@VCOPOSBillDispenser@@$1?IID_IPropertyNotifySink@@3U_GUID@@BVCComDynamicUnkArray@ATL@@@ATL@@QEAA@XZ 0000000180033060 f i BillDispenserImpl.obj
 0001:00032100       ??1?$IPropertyNotifySinkCP@VCOPOSBillDispenser@@VCComDynamicUnkArray@ATL@@@ATL@@QEAA@XZ 0000000180033100 f i BillDispenserImpl.obj
 0001:00032130       ??1CComControlBase@ATL@@UEAA@XZ 0000000180033130 f i BillDispenserImpl.obj
 0001:00032220       ??1CComDynamicUnkArray@ATL@@QEAA@XZ 0000000180033220 f i BillDispenserImpl.obj
 0001:00032260       ??1CDynamicStdCallThunk2@ATL@@QEAA@XZ 0000000180033260 f i BillDispenserImpl.obj
 0001:000322a0       ??1CWndProcThunk@ATL@@QEAA@XZ 00000001800332a0 f i BillDispenserImpl.obj
 0001:000322e0       ??1OposVariantResult@@QEAA@XZ 00000001800332e0 f i BillDispenserImpl.obj
 0001:00032320       ??1_CW@@QEAA@XZ            0000000180033320 f i BillDispenserImpl.obj
 0001:000323a0       ??1_CWNCC@@QEAA@XZ         00000001800333a0 f i BillDispenserImpl.obj
 0001:000323d0       ??B_CW@@QEAAPEB_WXZ        00000001800333d0 f i BillDispenserImpl.obj
 0001:00032420       ??B_CWNCC@@QEAAPEA_WXZ     0000000180033420 f i BillDispenserImpl.obj
 0001:00032450       ??_EOposVariant@@QEAAPEAXI@Z 0000000180033450 f i BillDispenserImpl.obj
 0001:00032500       ?EventClaim@COPOSBillDispenser@@IEAAXXZ 0000000180033500 f i BillDispenserImpl.obj
 0001:00032550       ?EventClose@COPOSBillDispenser@@IEAAXXZ 0000000180033550 f i BillDispenserImpl.obj
 0001:000325f0       ?EventInit@COPOSBillDispenser@@IEAAJXZ 00000001800335f0 f i BillDispenserImpl.obj
 0001:000328a0       ?EventOpen@COPOSBillDispenser@@IEAAXXZ 00000001800338a0 f i BillDispenserImpl.obj
 0001:000328e0       ?EventPreCloseRelease@COPOSBillDispenser@@IEAAXXZ 00000001800338e0 f i BillDispenserImpl.obj
 0001:00032960       ?EventUninit@COPOSBillDispenser@@IEAAXXZ 0000000180033960 f i BillDispenserImpl.obj
 0001:00032a90       ?EventWindowProc@COPOSBillDispenser@@IEAA_JI_K_J@Z 0000000180033a90 f i BillDispenserImpl.obj
 0001:00032b90       ?FireEventCleanup@COPOSBillDispenser@@IEAAXXZ 0000000180033b90 f i BillDispenserImpl.obj
 0001:00032be0       ?FireEventSetup@COPOSBillDispenser@@IEAA_NXZ 0000000180033be0 f i BillDispenserImpl.obj
 0001:00032c60       ?GetModuleInstance@CComModule@ATL@@QEAAPEAUHINSTANCE__@@XZ 0000000180033c60 f i BillDispenserImpl.obj
 0001:00032c70       ?SetRC@COPOSBillDispenser@@IEAAJJ@Z 0000000180033c70 f i BillDispenserImpl.obj
 0001:00032c90       ?s_EventWindowProc@COPOSBillDispenser@@KA_JPEAUHWND__@@I_K_J@Z 0000000180033c90 f i BillDispenserImpl.obj
 0001:00032d40       _snwprintf                 0000000180033d40 f i BillDispenserImpl.obj
 0001:00032dd0       _vfwprintf_l               0000000180033dd0 f i BillDispenserImpl.obj
 0001:00032e30       _vsnwprintf                0000000180033e30 f i BillDispenserImpl.obj
 0001:00032e90       _vsnwprintf_l              0000000180033e90 f i BillDispenserImpl.obj
 0001:00032f20       vfwprintf                  0000000180033f20 f i BillDispenserImpl.obj
 0001:00032f65       DebugBreak                 0000000180033f65 f   kernel32:KERNEL32.dll
 0001:00032f6b       Sleep                      0000000180033f6b f   kernel32:KERNEL32.dll
 0001:00032f71       GetCurrentProcess          0000000180033f71 f   kernel32:KERNEL32.dll
 0001:00032f77       TerminateProcess           0000000180033f77 f   kernel32:KERNEL32.dll
 0001:00032f7d       MultiByteToWideChar        0000000180033f7d f   kernel32:KERNEL32.dll
 0001:00032f83       WideCharToMultiByte        0000000180033f83 f   kernel32:KERNEL32.dll
 0001:00032f89       DecodePointer              0000000180033f89 f   kernel32:KERNEL32.dll
 0001:00032f8f       RaiseException             0000000180033f8f f   kernel32:KERNEL32.dll
 0001:00032f95       GetLastError               0000000180033f95 f   kernel32:KERNEL32.dll
 0001:00032f9b       SetLastError               0000000180033f9b f   kernel32:KERNEL32.dll
 0001:00032fa1       InitializeCriticalSectionEx 0000000180033fa1 f   kernel32:KERNEL32.dll
 0001:00032fa7       DeleteCriticalSection      0000000180033fa7 f   kernel32:KERNEL32.dll
 0001:00032fad       EncodePointer              0000000180033fad f   kernel32:KERNEL32.dll
 0001:00032fb3       EnterCriticalSection       0000000180033fb3 f   kernel32:KERNEL32.dll
 0001:00032fb9       LeaveCriticalSection       0000000180033fb9 f   kernel32:KERNEL32.dll
 0001:00032fbf       ResetEvent                 0000000180033fbf f   kernel32:KERNEL32.dll
 0001:00032fc5       ReleaseMutex               0000000180033fc5 f   kernel32:KERNEL32.dll
 0001:00032fcb       WaitForSingleObject        0000000180033fcb f   kernel32:KERNEL32.dll
 0001:00032fd1       GetCurrentThreadId         0000000180033fd1 f   kernel32:KERNEL32.dll
 0001:00032fd7       DisableThreadLibraryCalls  0000000180033fd7 f   kernel32:KERNEL32.dll
 0001:00032fdd       FreeLibrary                0000000180033fdd f   kernel32:KERNEL32.dll
 0001:00032fe3       GetModuleFileNameW         0000000180033fe3 f   kernel32:KERNEL32.dll
 0001:00032fe9       GetModuleHandleW           0000000180033fe9 f   kernel32:KERNEL32.dll
 0001:00032fef       GetProcAddress             0000000180033fef f   kernel32:KERNEL32.dll
 0001:00032ff5       LoadLibraryExW             0000000180033ff5 f   kernel32:KERNEL32.dll
 0001:00032ffb       LoadResource               0000000180033ffb f   kernel32:KERNEL32.dll
 0001:00033001       SizeofResource             0000000180034001 f   kernel32:KERNEL32.dll
 0001:00033007       GlobalAlloc                0000000180034007 f   kernel32:KERNEL32.dll
 0001:0003300d       GlobalLock                 000000018003400d f   kernel32:KERNEL32.dll
 0001:00033013       GlobalUnlock               0000000180034013 f   kernel32:KERNEL32.dll
 0001:00033019       MulDiv                     0000000180034019 f   kernel32:KERNEL32.dll
 0001:0003301f       lstrcmpiW                  000000018003401f f   kernel32:KERNEL32.dll
 0001:00033025       FindResourceW              0000000180034025 f   kernel32:KERNEL32.dll
 0001:0003302b       DeleteFileW                000000018003402b f   kernel32:KERNEL32.dll
 0001:00033031       CloseHandle                0000000180034031 f   kernel32:KERNEL32.dll
 0001:00033037       SetEvent                   0000000180034037 f   kernel32:KERNEL32.dll
 0001:0003303d       CreateMutexW               000000018003403d f   kernel32:KERNEL32.dll
 0001:00033043       CreateEventW               0000000180034043 f   kernel32:KERNEL32.dll
 0001:00033049       GetCurrentProcessId        0000000180034049 f   kernel32:KERNEL32.dll
 0001:0003304f       LocalFree                  000000018003404f f   kernel32:KERNEL32.dll
 0001:00033055       FormatMessageW             0000000180034055 f   kernel32:KERNEL32.dll
 0001:0003305b       GetActiveWindow            000000018003405b f   user32:USER32.dll
 0001:00033061       MessageBoxW                0000000180034061 f   user32:USER32.dll
 0001:00033067       UnregisterClassW           0000000180034067 f   user32:USER32.dll
 0001:0003306d       PostMessageW               000000018003406d f   user32:USER32.dll
 0001:00033073       DefWindowProcW             0000000180034073 f   user32:USER32.dll
 0001:00033079       CallWindowProcW            0000000180034079 f   user32:USER32.dll
 0001:0003307f       RegisterClassExW           000000018003407f f   user32:USER32.dll
 0001:00033085       GetClassInfoExW            0000000180034085 f   user32:USER32.dll
 0001:0003308b       CreateWindowExW            000000018003408b f   user32:USER32.dll
 0001:00033091       IsWindow                   0000000180034091 f   user32:USER32.dll
 0001:00033097       IsChild                    0000000180034097 f   user32:USER32.dll
 0001:0003309d       DestroyWindow              000000018003409d f   user32:USER32.dll
 0001:000330a3       ShowWindow                 00000001800340a3 f   user32:USER32.dll
 0001:000330a9       SetWindowPos               00000001800340a9 f   user32:USER32.dll
 0001:000330af       CharNextW                  00000001800340af f   user32:USER32.dll
 0001:000330b5       SetFocus                   00000001800340b5 f   user32:USER32.dll
 0001:000330bb       GetFocus                   00000001800340bb f   user32:USER32.dll
 0001:000330c1       GetKeyState                00000001800340c1 f   user32:USER32.dll
 0001:000330c7       GetDC                      00000001800340c7 f   user32:USER32.dll
 0001:000330cd       ReleaseDC                  00000001800340cd f   user32:USER32.dll
 0001:000330d3       BeginPaint                 00000001800340d3 f   user32:USER32.dll
 0001:000330d9       EndPaint                   00000001800340d9 f   user32:USER32.dll
 0001:000330df       SetWindowRgn               00000001800340df f   user32:USER32.dll
 0001:000330e5       InvalidateRect             00000001800340e5 f   user32:USER32.dll
 0001:000330eb       GetClientRect              00000001800340eb f   user32:USER32.dll
 0001:000330f1       IntersectRect              00000001800340f1 f   user32:USER32.dll
 0001:000330f7       UnionRect                  00000001800340f7 f   user32:USER32.dll
 0001:000330fd       OffsetRect                 00000001800340fd f   user32:USER32.dll
 0001:00033103       EqualRect                  0000000180034103 f   user32:USER32.dll
 0001:00033109       PtInRect                   0000000180034109 f   user32:USER32.dll
 0001:0003310f       GetWindowLongPtrW          000000018003410f f   user32:USER32.dll
 0001:00033115       SetWindowLongPtrW          0000000180034115 f   user32:USER32.dll
 0001:0003311b       GetParent                  000000018003411b f   user32:USER32.dll
 0001:00033121       LoadCursorW                0000000180034121 f   user32:USER32.dll
 0001:00033127       PeekMessageW               0000000180034127 f   user32:USER32.dll
 0001:0003312d       RegisterClassW             000000018003412d f   user32:USER32.dll
 0001:00033133       LoadBitmapW                0000000180034133 f   user32:USER32.dll
 0001:00033139       CloseMetaFile              0000000180034139 f   gdi32:GDI32.dll
 0001:0003313f       CreateDCW                  000000018003413f f   gdi32:GDI32.dll
 0001:00033145       CreateMetaFileW            0000000180034145 f   gdi32:GDI32.dll
 0001:0003314b       CreateRectRgnIndirect      000000018003414b f   gdi32:GDI32.dll
 0001:00033151       DeleteDC                   0000000180034151 f   gdi32:GDI32.dll
 0001:00033157       DeleteMetaFile             0000000180034157 f   gdi32:GDI32.dll
 0001:0003315d       GetDeviceCaps              000000018003415d f   gdi32:GDI32.dll
 0001:00033163       RestoreDC                  0000000180034163 f   gdi32:GDI32.dll
 0001:00033169       SaveDC                     0000000180034169 f   gdi32:GDI32.dll
 0001:0003316f       SetMapMode                 000000018003416f f   gdi32:GDI32.dll
 0001:00033175       LPtoDP                     0000000180034175 f   gdi32:GDI32.dll
 0001:0003317b       SetViewportOrgEx           000000018003417b f   gdi32:GDI32.dll
 0001:00033181       SetWindowExtEx             0000000180034181 f   gdi32:GDI32.dll
 0001:00033187       SetWindowOrgEx             0000000180034187 f   gdi32:GDI32.dll
 0001:0003318d       BitBlt                     000000018003418d f   gdi32:GDI32.dll
 0001:00033193       CreateCompatibleDC         0000000180034193 f   gdi32:GDI32.dll
 0001:00033199       DeleteObject               0000000180034199 f   gdi32:GDI32.dll
 0001:0003319f       SelectObject               000000018003419f f   gdi32:GDI32.dll
 0001:000331a5       GetObjectW                 00000001800341a5 f   gdi32:GDI32.dll
 0001:000331ab       RegCloseKey                00000001800341ab f   advapi32:ADVAPI32.dll
 0001:000331b1       RegCreateKeyExW            00000001800341b1 f   advapi32:ADVAPI32.dll
 0001:000331b7       RegDeleteKeyW              00000001800341b7 f   advapi32:ADVAPI32.dll
 0001:000331bd       RegDeleteValueW            00000001800341bd f   advapi32:ADVAPI32.dll
 0001:000331c3       RegEnumKeyExW              00000001800341c3 f   advapi32:ADVAPI32.dll
 0001:000331c9       RegOpenKeyExW              00000001800341c9 f   advapi32:ADVAPI32.dll
 0001:000331cf       RegQueryInfoKeyW           00000001800341cf f   advapi32:ADVAPI32.dll
 0001:000331d5       RegSetValueExW             00000001800341d5 f   advapi32:ADVAPI32.dll
 0001:000331db       RegQueryValueExW           00000001800341db f   advapi32:ADVAPI32.dll
 0001:000331e1       CoCreateInstance           00000001800341e1 f   ole32:ole32.dll
 0001:000331e7       StringFromGUID2            00000001800341e7 f   ole32:ole32.dll
 0001:000331ed       CoTaskMemAlloc             00000001800341ed f   ole32:ole32.dll
 0001:000331f3       CoTaskMemRealloc           00000001800341f3 f   ole32:ole32.dll
 0001:000331f9       CoTaskMemFree              00000001800341f9 f   ole32:ole32.dll
 0001:000331ff       CreateDataAdviseHolder     00000001800341ff f   ole32:ole32.dll
 0001:00033205       ReadClassStm               0000000180034205 f   ole32:ole32.dll
 0001:0003320b       WriteClassStm              000000018003420b f   ole32:ole32.dll
 0001:00033211       OleSaveToStream            0000000180034211 f   ole32:ole32.dll
 0001:00033217       CreateOleAdviseHolder      0000000180034217 f   ole32:ole32.dll
 0001:0003321d       OleRegGetUserType          000000018003421d f   ole32:ole32.dll
 0001:00033223       OleRegGetMiscStatus        0000000180034223 f   ole32:ole32.dll
 0001:00033229       OleRegEnumVerbs            0000000180034229 f   ole32:ole32.dll
 0001:0003322f       CLSIDFromProgID            000000018003422f f   ole32:ole32.dll
 0001:00033235       SysAllocString             0000000180034235 f   oleaut32:OLEAUT32.dll
 0001:0003323b       SysAllocStringLen          000000018003423b f   oleaut32:OLEAUT32.dll
 0001:00033241       SysFreeString              0000000180034241 f   oleaut32:OLEAUT32.dll
 0001:00033247       SysStringLen               0000000180034247 f   oleaut32:OLEAUT32.dll
 0001:0003324d       VariantClear               000000018003424d f   oleaut32:OLEAUT32.dll
 0001:00033253       VariantCopyInd             0000000180034253 f   oleaut32:OLEAUT32.dll
 0001:00033259       VariantChangeType          0000000180034259 f   oleaut32:OLEAUT32.dll
 0001:0003325f       SysStringByteLen           000000018003425f f   oleaut32:OLEAUT32.dll
 0001:00033265       SysAllocStringByteLen      0000000180034265 f   oleaut32:OLEAUT32.dll
 0001:0003326b       VariantInit                000000018003426b f   oleaut32:OLEAUT32.dll
 0001:00033271       VarUI4FromStr              0000000180034271 f   oleaut32:OLEAUT32.dll
 0001:00033277       LoadTypeLib                0000000180034277 f   oleaut32:OLEAUT32.dll
 0001:0003327d       LoadRegTypeLib             000000018003427d f   oleaut32:OLEAUT32.dll
 0001:00033283       RegisterTypeLib            0000000180034283 f   oleaut32:OLEAUT32.dll
 0001:00033289       UnRegisterTypeLib          0000000180034289 f   oleaut32:OLEAUT32.dll
 0001:0003328f       OleCreatePropertyFrame     000000018003428f f   oleaut32:OLEAUT32.dll
 0001:000332a0       _RTC_AllocaHelper          00000001800342a0 f   LIBCMTD:stack.obj
 0001:000332e0       _RTC_CheckStackVars        00000001800342e0 f   LIBCMTD:stack.obj
 0001:00033370       _RTC_CheckStackVars2       0000000180034370 f   LIBCMTD:stack.obj
 0001:00033480       _CRT_RTC_INIT              0000000180034480 f   LIBCMTD:init.obj
 0001:00033490       _CRT_RTC_INITW             0000000180034490 f   LIBCMTD:init.obj
 0001:000334a0       _RTC_InitBase              00000001800344a0 f   LIBCMTD:init.obj
 0001:000334e0       _RTC_Shutdown              00000001800344e0 f   LIBCMTD:init.obj
 0001:00033510       __GSHandlerCheck           0000000180034510 f   LIBCMTD:gshandler.obj
 0001:00033550       __GSHandlerCheckCommon     0000000180034550 f   LIBCMTD:gshandler.obj
 0001:00033660       __security_check_cookie    0000000180034660 f   LIBCMTD:amdsecgs.obj
 0001:00033690       ??_U@YAPEAX_K@Z            0000000180034690 f   LIBCMTD:new_array.obj
 0001:000336b0       ??3@YAXPEAX_K@Z            00000001800346b0 f   LIBCMTD:delete_scalar_size.obj
 0001:000336d0       ??_V@YAXPEAX@Z             00000001800346d0 f   LIBCMTD:delete_array.obj
 0001:000336f0       ??_V@YAXPEAX_K@Z           00000001800346f0 f   LIBCMTD:delete_array_size.obj
 0001:00033710       ??$__crt_fast_decode_pointer@PEAP6AXXZ@@YAPEAP6AXXZQEAP6AXXZ@Z 0000000180034710 f i LIBCMTD:utility.obj
 0001:00033750       ??$__crt_fast_encode_pointer@PEAP6AXXZ@@YAPEAP6AXXZQEAP6AXXZ@Z 0000000180034750 f i LIBCMTD:utility.obj
 0001:00033790       ?__crt_rotate_pointer_value@@YA_K_KH@Z 0000000180034790 f i LIBCMTD:utility.obj
 0001:000337b0       ?configure_argv@__scrt_narrow_argv_policy@@SAHXZ 00000001800347b0 f i LIBCMTD:utility.obj
 0001:000338a0       ?initialize_environment@__scrt_narrow_environment_policy@@SAHXZ 00000001800348a0 f i LIBCMTD:utility.obj
 0001:00033940       NtCurrentTeb               0000000180034940 f i LIBCMTD:utility.obj
 0001:00033950       __scrt_acquire_startup_lock 0000000180034950 f   LIBCMTD:utility.obj
 0001:000339c0       __scrt_dllmain_after_initialize_c 00000001800349c0 f   LIBCMTD:utility.obj
 0001:000339f0       __scrt_dllmain_before_initialize_c 00000001800349f0 f   LIBCMTD:utility.obj
 0001:00033a10       __scrt_dllmain_crt_thread_attach 0000000180034a10 f   LIBCMTD:utility.obj
 0001:00033a40       __scrt_dllmain_crt_thread_detach 0000000180034a40 f   LIBCMTD:utility.obj
 0001:00033a60       __scrt_dllmain_exception_filter 0000000180034a60 f   LIBCMTD:utility.obj
 0001:00033ac0       __scrt_dllmain_uninitialize_c 0000000180034ac0 f   LIBCMTD:utility.obj
 0001:00033af0       __scrt_dllmain_uninitialize_critical 0000000180034af0 f   LIBCMTD:utility.obj
 0001:00033b10       __scrt_initialize_crt      0000000180034b10 f   LIBCMTD:utility.obj
 0001:00033b60       __scrt_initialize_onexit_tables 0000000180034b60 f   LIBCMTD:utility.obj
 0001:00033c70       __scrt_is_nonwritable_in_current_image 0000000180034c70 f   LIBCMTD:utility.obj
 0001:00033d00       __scrt_release_startup_lock 0000000180034d00 f   LIBCMTD:utility.obj
 0001:00033d30       __scrt_uninitialize_crt    0000000180034d30 f   LIBCMTD:utility.obj
 0001:00033d70       _onexit                    0000000180034d70 f   LIBCMTD:utility.obj
 0001:00033e00       at_quick_exit              0000000180034e00 f   LIBCMTD:utility.obj
 0001:00033e50       atexit                     0000000180034e50 f   LIBCMTD:utility.obj
 0001:00033e90       ??3@YAXPEAX@Z              0000000180034e90 f   LIBCMTD:delete_scalar.obj
 0001:00033eb0       __raise_securityfailure    0000000180034eb0 f   LIBCMTD:gs_report.obj
 0001:00033ef0       __report_gsfailure         0000000180034ef0 f   LIBCMTD:gs_report.obj
 0001:00033fd0       __report_rangecheckfailure 0000000180034fd0 f   LIBCMTD:gs_report.obj
 0001:00033ff0       __report_securityfailure   0000000180034ff0 f   LIBCMTD:gs_report.obj
 0001:00034090       __report_securityfailureEx 0000000180035090 f   LIBCMTD:gs_report.obj
 0001:00034340       ??$__crt_fast_decode_pointer@P6AHPEAU_RTL_CONDITION_VARIABLE@@PEAU_RTL_CRITICAL_SECTION@@K@Z@@YAP6AHPEAU_RTL_CONDITION_VARIABLE@@PEAU_RTL_CRITICAL_SECTION@@K@ZQ6AH01K@Z@Z 0000000180035340 f i LIBCMTD:thread_safe_statics.obj
 0001:00034380       ??$__crt_fast_decode_pointer@P6AXPEAU_RTL_CONDITION_VARIABLE@@@Z@@YAP6AXPEAU_RTL_CONDITION_VARIABLE@@@ZQ6AX0@Z@Z 0000000180035380 f i LIBCMTD:thread_safe_statics.obj
 0001:000343c0       ??$__crt_fast_encode_pointer@P6AHPEAU_RTL_CONDITION_VARIABLE@@PEAU_RTL_CRITICAL_SECTION@@K@Z@@YAP6AHPEAU_RTL_CONDITION_VARIABLE@@PEAU_RTL_CRITICAL_SECTION@@K@ZQ6AH01K@Z@Z 00000001800353c0 f i LIBCMTD:thread_safe_statics.obj
 0001:00034400       ??$__crt_fast_encode_pointer@P6AXPEAU_RTL_CONDITION_VARIABLE@@@Z@@YAP6AXPEAU_RTL_CONDITION_VARIABLE@@@ZQ6AX0@Z@Z 0000000180035400 f i LIBCMTD:thread_safe_statics.obj
 0001:00034590       ?__scrt_is_event_api_used@@YA_NQEAX@Z 0000000180035590 f i LIBCMTD:thread_safe_statics.obj
 0001:00034610       _Init_thread_abort         0000000180035610 f   LIBCMTD:thread_safe_statics.obj
 0001:00034640       _Init_thread_footer        0000000180035640 f   LIBCMTD:thread_safe_statics.obj
 0001:000346a0       _Init_thread_header        00000001800356a0 f   LIBCMTD:thread_safe_statics.obj
 0001:00034730       _Init_thread_lock          0000000180035730 f   LIBCMTD:thread_safe_statics.obj
 0001:00034750       _Init_thread_notify        0000000180035750 f   LIBCMTD:thread_safe_statics.obj
 0001:000347c0       _Init_thread_unlock        00000001800357c0 f   LIBCMTD:thread_safe_statics.obj
 0001:000347e0       _Init_thread_wait          00000001800357e0 f   LIBCMTD:thread_safe_statics.obj
 0001:000348a0       ??2@YAPEAX_KAEBUnothrow_t@std@@@Z 00000001800358a0 f   LIBCMTD:new_scalar_nothrow.obj
 0001:000348e0       ??_U@YAPEAX_KAEBUnothrow_t@std@@@Z 00000001800358e0 f   LIBCMTD:new_array_nothrow.obj
 0001:00034910       __GSHandlerCheck_SEH       0000000180035910 f   LIBCMTD:gshandlerseh.obj
 0001:000349e0       __chkstk                   00000001800359e0 f   LIBCMTD:chkstk.obj
 0001:000349e0       _alloca_probe              00000001800359e0 f   LIBCMTD:chkstk.obj
 0001:00034e30       _CRT_INIT                  0000000180035e30 f   LIBCMTD:dll_dllmain.obj
 0001:00034e60       _DllMainCRTStartup         0000000180035e60 f   LIBCMTD:dll_dllmain.obj
 0001:00034f30       ?_RTC_AllocaFailure@@YAXPEAXPEAU_RTC_ALLOCA_NODE@@H@Z 0000000180035f30 f   LIBCMTD:error.obj
 0001:00035090       ?_RTC_Failure@@YAXPEAXH@Z  0000000180036090 f   LIBCMTD:error.obj
 0001:000350e0       ?_RTC_StackFailure@@YAXPEAXPEBD@Z 00000001800360e0 f   LIBCMTD:error.obj
 0001:00035510       _RTC_UninitUse             0000000180036510 f   LIBCMTD:error.obj
 0001:000355e0       _vsprintf_s_l              00000001800365e0 f i LIBCMTD:error.obj
 0001:00035650       sprintf_s                  0000000180036650 f i LIBCMTD:error.obj
 0001:00035680       ?_RTC_GetErrorFunc@@YAP6AHHPEBDH00ZZPEBX@Z 0000000180036680 f   LIBCMTD:userapi.obj
 0001:00035690       ?_RTC_GetErrorFuncW@@YAP6AHHPEB_WH00ZZPEBX@Z 0000000180036690 f   LIBCMTD:userapi.obj
 0001:000356a0       _RTC_GetErrDesc            00000001800366a0 f   LIBCMTD:userapi.obj
 0001:000356c0       _RTC_NumErrors             00000001800366c0 f   LIBCMTD:userapi.obj
 0001:000356d0       _RTC_SetErrorFunc          00000001800366d0 f   LIBCMTD:userapi.obj
 0001:000356f0       _RTC_SetErrorFuncW         00000001800366f0 f   LIBCMTD:userapi.obj
 0001:00035710       _RTC_SetErrorType          0000000180036710 f   LIBCMTD:userapi.obj
 0001:00035730       ??2@YAPEAX_K@Z             0000000180036730 f   LIBCMTD:new_scalar.obj
 0001:00035780       __isa_available_init       0000000180036780 f   LIBCMTD:cpu_disp.obj
 0001:00035af0       _get_startup_argv_mode     0000000180036af0 f   LIBCMTD:argv_mode.obj
 0001:00035b00       __scrt_is_ucrt_dll_in_use  0000000180036b00 f   LIBCMTD:ucrt_detection.obj
 0001:00035b30       __crt_debugger_hook        0000000180036b30 f   LIBCMTD:utility_desktop.obj
 0001:00035b40       __scrt_fastfail            0000000180036b40 f   LIBCMTD:utility_desktop.obj
 0001:00035ce0       __scrt_get_show_window_mode 0000000180036ce0 f   LIBCMTD:utility_desktop.obj
 0001:00035d40       __scrt_initialize_mta      0000000180036d40 f   LIBCMTD:utility_desktop.obj
 0001:00035d50       __scrt_initialize_winrt    0000000180036d50 f   LIBCMTD:utility_desktop.obj
 0001:00035d60       __scrt_is_managed_app      0000000180036d60 f   LIBCMTD:utility_desktop.obj
 0001:00035e10       __scrt_set_unhandled_exception_filter 0000000180036e10 f   LIBCMTD:utility_desktop.obj
 0001:00035e30       __scrt_exe_initialize_mta  0000000180036e30 f   LIBCMTD:utility_desktop.obj
 0001:00035e30       __scrt_stub_for_initialize_mta 0000000180036e30 f   LIBCMTD:utility_desktop.obj
 0001:00035e40       __scrt_unhandled_exception_filter 0000000180036e40 f   LIBCMTD:utility_desktop.obj
 0001:00035ec0       _guard_check_icall_nop     0000000180036ec0 f i LIBCMTD:guard_support.obj
 0001:00035ed0       ReadNoFence64              0000000180036ed0 f i LIBCMTD:guard_support.obj
 0001:00035ef0       ReadPointerNoFence         0000000180036ef0 f i LIBCMTD:guard_support.obj
 0001:00035f10       _guard_icall_checks_enforced 0000000180036f10 f i LIBCMTD:guard_support.obj
 0001:00035f50       _guard_rf_checks_enforced  0000000180036f50 f i LIBCMTD:guard_support.obj
 0001:00036020       __security_init_cookie     0000000180037020 f   LIBCMTD:gs_support.obj
 0001:000360a0       ?__scrt_initialize_type_info@@YAXXZ 00000001800370a0 f   LIBCMTD:tncleanup.obj
 0001:000360c0       ?__scrt_uninitialize_type_info@@YAXXZ 00000001800370c0 f   LIBCMTD:tncleanup.obj
 0001:000360e0       __local_stdio_scanf_options 00000001800370e0 f i LIBCMTD:default_local_stdio_options.obj
 0001:000360f0       __scrt_initialize_default_local_stdio_options 00000001800370f0 f   LIBCMTD:default_local_stdio_options.obj
 0001:00036140       __scrt_get_dyn_tls_init_callback 0000000180037140 f   LIBCMTD:dyn_tls_init.obj
 0001:00036150       _RTC_Initialize            0000000180037150 f   LIBCMTD:initsect.obj
 0001:000361a0       _RTC_Terminate             00000001800371a0 f   LIBCMTD:initsect.obj
 0001:00036700       ?_RTC_GetSrcLine@@YAHPEAEPEA_WKPEAH1K@Z 0000000180037700 f   LIBCMTD:pdblkup.obj
 0001:00036ad0       ??0bad_alloc@std@@AEAA@QEBD@Z 0000000180037ad0 f i LIBCMTD:throw_bad_alloc.obj
 0001:00036b10       ??0bad_alloc@std@@QEAA@AEBV01@@Z 0000000180037b10 f i LIBCMTD:throw_bad_alloc.obj
 0001:00036b50       ??0bad_alloc@std@@QEAA@XZ  0000000180037b50 f i LIBCMTD:throw_bad_alloc.obj
 0001:00036b90       ??0bad_array_new_length@std@@QEAA@AEBV01@@Z 0000000180037b90 f i LIBCMTD:throw_bad_alloc.obj
 0001:00036bd0       ??0bad_array_new_length@std@@QEAA@XZ 0000000180037bd0 f i LIBCMTD:throw_bad_alloc.obj
 0001:00036c10       ??0exception@std@@QEAA@AEBV01@@Z 0000000180037c10 f i LIBCMTD:throw_bad_alloc.obj
 0001:00036c70       ??0exception@std@@QEAA@QEBDH@Z 0000000180037c70 f i LIBCMTD:throw_bad_alloc.obj
 0001:00036cc0       ??1bad_alloc@std@@UEAA@XZ  0000000180037cc0 f i LIBCMTD:throw_bad_alloc.obj
 0001:00036ce0       ??1bad_array_new_length@std@@UEAA@XZ 0000000180037ce0 f i LIBCMTD:throw_bad_alloc.obj
 0001:00036d00       ??1exception@std@@UEAA@XZ  0000000180037d00 f i LIBCMTD:throw_bad_alloc.obj
 0001:00036d30       ??_Ebad_alloc@std@@UEAAPEAXI@Z 0000000180037d30 f i LIBCMTD:throw_bad_alloc.obj
 0001:00036d30       ??_Gbad_alloc@std@@UEAAPEAXI@Z 0000000180037d30 f i LIBCMTD:throw_bad_alloc.obj
 0001:00036d70       ??_Gbad_array_new_length@std@@UEAAPEAXI@Z 0000000180037d70 f i LIBCMTD:throw_bad_alloc.obj
 0001:00036d70       ??_Ebad_array_new_length@std@@UEAAPEAXI@Z 0000000180037d70 f i LIBCMTD:throw_bad_alloc.obj
 0001:00036db0       ??_Gexception@std@@UEAAPEAXI@Z 0000000180037db0 f i LIBCMTD:throw_bad_alloc.obj
 0001:00036db0       ??_Eexception@std@@UEAAPEAXI@Z 0000000180037db0 f i LIBCMTD:throw_bad_alloc.obj
 0001:00036df0       ?__scrt_throw_std_bad_alloc@@YAXXZ 0000000180037df0 f   LIBCMTD:throw_bad_alloc.obj
 0001:00036e20       ?__scrt_throw_std_bad_array_new_length@@YAXXZ 0000000180037e20 f   LIBCMTD:throw_bad_alloc.obj
 0001:00036e50       ?what@exception@std@@UEBAPEBDXZ 0000000180037e50 f i LIBCMTD:throw_bad_alloc.obj
 0001:00036e90       ??1type_info@@UEAA@XZ      0000000180037e90 f   LIBCMTD:std_type_info_static.obj
 0001:00036eb0       ??_Gtype_info@@UEAAPEAXI@Z 0000000180037eb0 f i LIBCMTD:std_type_info_static.obj
 0001:00036eb0       ??_Etype_info@@UEAAPEAXI@Z 0000000180037eb0 f i LIBCMTD:std_type_info_static.obj
 0001:00036eec       ??$?2PEAUHINSTANCE__@@@Wrapper@?$CSimpleArray@PEAUHINSTANCE__@@V?$CSimpleArrayEqualHelper@PEAUHINSTANCE__@@@ATL@@@ATL@@SAPEAX_KPEAPEAUHINSTANCE__@@@Z 0000000180037eec f i atls:atlbase.obj
 0001:00036ef0       ??0?$CSimpleArray@PEAUHINSTANCE__@@V?$CSimpleArrayEqualHelper@PEAUHINSTANCE__@@@ATL@@@ATL@@QEAA@XZ 0000000180037ef0 f i atls:atlbase.obj
 0001:00036f00       ??0CAtlBaseModule@ATL@@QEAA@XZ 0000000180037f00 f   atls:atlbase.obj
 0001:00036fa8       ??0Wrapper@?$CSimpleArray@PEAUHINSTANCE__@@V?$CSimpleArrayEqualHelper@PEAUHINSTANCE__@@@ATL@@@ATL@@QEAA@AEBQEAUHINSTANCE__@@@Z 0000000180037fa8 f i atls:atlbase.obj
 0001:00036fb4       ??0_ATL_BASE_MODULE70@ATL@@QEAA@XZ 0000000180037fb4 f i atls:atlbase.obj
 0001:00036fe0       ??1?$CSimpleArray@PEAUHINSTANCE__@@V?$CSimpleArrayEqualHelper@PEAUHINSTANCE__@@@ATL@@@ATL@@QEAA@XZ 0000000180037fe0 f i atls:atlbase.obj
 0001:00037008       ??1CAtlBaseModule@ATL@@QEAA@XZ 0000000180038008 f   atls:atlbase.obj
 0001:0003703c       ??1_ATL_BASE_MODULE70@ATL@@QEAA@XZ 000000018003803c f i atls:atlbase.obj
 0001:00037068       ??A?$CSimpleArray@PEAUHINSTANCE__@@V?$CSimpleArrayEqualHelper@PEAUHINSTANCE__@@@ATL@@@ATL@@QEAAAEAPEAUHINSTANCE__@@H@Z 0000000180038068 f i atls:atlbase.obj
 0001:00037094       ?Add@?$CSimpleArray@PEAUHINSTANCE__@@V?$CSimpleArrayEqualHelper@PEAUHINSTANCE__@@@ATL@@@ATL@@QEAAHAEBQEAUHINSTANCE__@@@Z 0000000180038094 f i atls:atlbase.obj
 0001:00037148       ?AddResourceInstance@CAtlBaseModule@ATL@@QEAA_NPEAUHINSTANCE__@@@Z 0000000180038148 f   atls:atlbase.obj
 0001:00037190       ?GetHInstanceAt@CAtlBaseModule@ATL@@QEAAPEAUHINSTANCE__@@H@Z 0000000180038190 f   atls:atlbase.obj
 0001:00037208       ?GetSize@?$CSimpleArray@PEAUHINSTANCE__@@V?$CSimpleArrayEqualHelper@PEAUHINSTANCE__@@@ATL@@@ATL@@QEBAHXZ 0000000180038208 f i atls:atlbase.obj
 0001:0003720c       ?InternalSetAtIndex@?$CSimpleArray@PEAUHINSTANCE__@@V?$CSimpleArrayEqualHelper@PEAUHINSTANCE__@@@ATL@@@ATL@@QEAAXHAEBQEAUHINSTANCE__@@@Z 000000018003820c f i atls:atlbase.obj
 0001:00037224       ?RemoveAll@?$CSimpleArray@PEAUHINSTANCE__@@V?$CSimpleArrayEqualHelper@PEAUHINSTANCE__@@@ATL@@@ATL@@QEAAXXZ 0000000180038224 f i atls:atlbase.obj
 0001:0003724c       ?RemoveAt@?$CSimpleArray@PEAUHINSTANCE__@@V?$CSimpleArrayEqualHelper@PEAUHINSTANCE__@@@ATL@@@ATL@@QEAAHH@Z 000000018003824c f i atls:atlbase.obj
 0001:000372f0       ?RemoveResourceInstance@CAtlBaseModule@ATL@@QEAA_NPEAUHINSTANCE__@@@Z 00000001800382f0 f   atls:atlbase.obj
 0001:00037378       ?memmove_s@Checked@ATL@@YAXPEAX_KPEBX1@Z 0000000180038378 f i atls:atlbase.obj
 0001:00037820       ?GetCodeAddress@_stdcallthunk@ATL@@QEAAPEAXXZ 0000000180038820 f i atls:atlthunk.obj
 0001:0003784c       ?Init@_stdcallthunk@ATL@@QEAAH_KPEAX@Z 000000018003884c f i atls:atlthunk.obj
 0001:0003789c       ?__AllocStdCallThunk@@YAPEAXXZ 000000018003889c f   atls:atlthunk.obj
 0001:000378a4       ?__AllocStdCallThunk@ATL@@YAPEAXXZ 00000001800388a4 f   atls:atlthunk.obj
 0001:000378ac       ?__AllocStdCallThunk_cmn@@YAPEAXXZ 00000001800388ac f   atls:atlthunk.obj
 0001:00037984       ?__FreeStdCallThunk@@YAXPEAX@Z 0000000180038984 f   atls:atlthunk.obj
 0001:000379a4       ?__FreeStdCallThunk@ATL@@YAXPEAX@Z 00000001800389a4 f   atls:atlthunk.obj
 0001:000379c4       ?__FreeStdCallThunk_cmn@@YAXPEAX@Z 00000001800389c4 f   atls:atlthunk.obj
 0001:00037a64       AtlThunk_AllocateData      0000000180038a64 f   atls:atlthunk.obj
 0001:00037ae0       AtlThunk_DataToCode        0000000180038ae0 f   atls:atlthunk.obj
 0001:00037b34       AtlThunk_FreeData          0000000180038b34 f   atls:atlthunk.obj
 0001:00037b94       AtlThunk_InitData          0000000180038b94 f   atls:atlthunk.obj
 0001:00037c50       memset_repmovs             0000000180038c50 f   libvcruntimed:memset.obj
 0001:00037c70       memset                     0000000180038c70 f   libvcruntimed:memset.obj
 0001:00037e00       ??$__crt_fast_decode_pointer@P6AXXZ@@YAP6AXXZQ6AXXZ@Z 0000000180038e00 f i libvcruntimed:purevirt.obj
 0001:00037e40       ??$__crt_fast_encode_pointer@P6AXXZ@@YAP6AXXZQ6AXXZ@Z 0000000180038e40 f i libvcruntimed:purevirt.obj
 0001:00037e80       ??$__crt_interlocked_exchange_pointer@$$A6AXXZP6AXXZ@@YAP6AXXZPEDS6AXXZQ6AXXZ@Z 0000000180038e80 f i libvcruntimed:purevirt.obj
 0001:00037ea0       ??$__crt_interlocked_read_pointer@$$A6AXXZ@@YAP6AXXZPEDS6AXXZ@Z 0000000180038ea0 f i libvcruntimed:purevirt.obj
 0001:00037ec0       ?__crt_interlocked_read_64@@YA_JPED_J@Z 0000000180038ec0 f i libvcruntimed:purevirt.obj
 0001:00037ee0       _get_purecall_handler      0000000180038ee0 f   libvcruntimed:purevirt.obj
 0001:00037f00       _purecall                  0000000180038f00 f   libvcruntimed:purevirt.obj
 0001:00037f40       _set_purecall_handler      0000000180038f40 f   libvcruntimed:purevirt.obj
 0001:00037f80       memcmp                     0000000180038f80 f   libvcruntimed:memcmp.obj
 0001:00038060       memcpy_repmovs             0000000180039060 f   libvcruntimed:memcpy.obj
 0001:00038080       memmove                    0000000180039080 f   libvcruntimed:memcpy.obj
 0001:00038080       memcpy                     0000000180039080 f   libvcruntimed:memcpy.obj
 0001:000384c0       wcsstr                     00000001800394c0 f   libvcruntimed:wcsstr.obj
 0001:00038b20       __vcrt_initialize          0000000180039b20 f   libvcruntimed:initialization.obj
 0001:00038b60       __vcrt_thread_attach       0000000180039b60 f   libvcruntimed:initialization.obj
 0001:00038b80       __vcrt_thread_detach       0000000180039b80 f   libvcruntimed:initialization.obj
 0001:00038ba0       __vcrt_uninitialize        0000000180039ba0 f   libvcruntimed:initialization.obj
 0001:00038bd0       __vcrt_uninitialize_critical 0000000180039bd0 f   libvcruntimed:initialization.obj
 0001:00038bf0       __C_specific_handler       0000000180039bf0 f   libvcruntimed:riscchandler.obj
 0001:00039030       ??$?0AEAViterator@TryBlockMap@__FrameHandler3@@AEAV012@$0A@@?$pair@Viterator@TryBlockMap@__FrameHandler3@@V123@@std@@QEAA@AEAViterator@TryBlockMap@__FrameHandler3@@0@Z 000000018003a030 f i libvcruntimed:risctrnsctrl.obj
 0001:00039090       ??$?0AEAViterator@TryBlockMap@__FrameHandler4@@AEAV012@$0A@@?$pair@Viterator@TryBlockMap@__FrameHandler4@@V123@@std@@QEAA@AEAViterator@TryBlockMap@__FrameHandler4@@0@Z 000000018003a090 f i libvcruntimed:risctrnsctrl.obj
 0001:00039250       ??$_CallSETranslator@V__FrameHandler3@@@@YAHPEAUEHExceptionRecord@@PEA_KPEAU_CONTEXT@@PEAU_xDISPATCHER_CONTEXT@@PEBU_s_FuncInfo@@K1@Z 000000018003a250 f i libvcruntimed:risctrnsctrl.obj
 0001:000392d0       ??$_CallSETranslator@V__FrameHandler4@@@@YAHPEAUEHExceptionRecord@@PEA_KPEAU_CONTEXT@@PEAU_xDISPATCHER_CONTEXT@@PEAUFuncInfo4@@K1@Z 000000018003a2d0 f i libvcruntimed:risctrnsctrl.obj
 0001:00039350       ??$forward@AEAViterator@TryBlockMap@__FrameHandler3@@@std@@YAAEAViterator@TryBlockMap@__FrameHandler3@@AEAV123@@Z 000000018003a350 f i libvcruntimed:risctrnsctrl.obj
 0001:00039360       ??$forward@AEAViterator@TryBlockMap@__FrameHandler4@@@std@@YAAEAViterator@TryBlockMap@__FrameHandler4@@AEAV123@@Z 000000018003a360 f i libvcruntimed:risctrnsctrl.obj
 0001:00039370       ??0FuncInfo4@@QEAA@XZ      000000018003a370 f i libvcruntimed:risctrnsctrl.obj
 0001:000393c0       ??0iterator@TryBlockMap@__FrameHandler3@@QEAA@AEAV12@I@Z 000000018003a3c0 f i libvcruntimed:risctrnsctrl.obj
 0001:000393f0       ??0iterator@TryBlockMap@__FrameHandler4@@QEAA@AEAV12@I@Z 000000018003a3f0 f i libvcruntimed:risctrnsctrl.obj
 0001:00039420       ??4iterator@TryBlockMap@__FrameHandler4@@QEAAAEAV012@AEBV012@@Z 000000018003a420 f i libvcruntimed:risctrnsctrl.obj
 0001:00039440       ??9iterator@TryBlockMap@__FrameHandler4@@QEBA_NAEBV012@@Z 000000018003a440 f i libvcruntimed:risctrnsctrl.obj
 0001:00039480       ??Diterator@TryBlockMap@__FrameHandler4@@QEAAPEAUTryBlockMapEntry4@@XZ 000000018003a480 f i libvcruntimed:risctrnsctrl.obj
 0001:000394a0       ??Eiterator@TryBlockMap@__FrameHandler4@@QEAAAEAV012@XZ 000000018003a4a0 f i libvcruntimed:risctrnsctrl.obj
 0001:000394e0       ?CatchTryBlock@__FrameHandler3@@SAPEBU_s_TryBlockMapEntry@@PEBU_s_FuncInfo@@H@Z 000000018003a4e0 f   libvcruntimed:risctrnsctrl.obj
 0001:00039580       ?DecompFuncInfo@@YAXPEAEAEAUFuncInfo4@@@Z 000000018003a580 f i libvcruntimed:risctrnsctrl.obj
 0001:00039670       ?DecompTryBlock@TryBlockMap@__FrameHandler4@@AEAAXXZ 000000018003a670 f i libvcruntimed:risctrnsctrl.obj
 0001:000396f0       ?ExecutionInCatch@__FrameHandler3@@SA_NPEAU_xDISPATCHER_CONTEXT@@PEBU_s_FuncInfo@@@Z 000000018003a6f0 f   libvcruntimed:risctrnsctrl.obj
 0001:00039740       ?ExecutionInCatch@__FrameHandler4@@SA_NPEAU_xDISPATCHER_CONTEXT@@PEAUFuncInfo4@@@Z 000000018003a740 f   libvcruntimed:risctrnsctrl.obj
 0001:00039780       ?FrameUnwindToEmptyState@__FrameHandler3@@SAXPEA_KPEAU_xDISPATCHER_CONTEXT@@PEBU_s_FuncInfo@@@Z 000000018003a780 f   libvcruntimed:risctrnsctrl.obj
 0001:00039820       ?FrameUnwindToEmptyState@__FrameHandler4@@SAXPEA_KPEAU_xDISPATCHER_CONTEXT@@PEAUFuncInfo4@@@Z 000000018003a820 f   libvcruntimed:risctrnsctrl.obj
 0001:00039870       ?GetEstablisherFrame@__FrameHandler3@@SAPEA_KPEA_KPEAU_xDISPATCHER_CONTEXT@@PEBU_s_FuncInfo@@0@Z 000000018003a870 f   libvcruntimed:risctrnsctrl.obj
 0001:000399e0       ?GetEstablisherFrame@__FrameHandler4@@SAPEA_KPEA_KPEAU_xDISPATCHER_CONTEXT@@PEAUFuncInfo4@@0@Z 000000018003a9e0 f   libvcruntimed:risctrnsctrl.obj
 0001:00039a50       ?GetRangeOfTrysToCheck@__FrameHandler3@@SA?AU?$pair@Viterator@TryBlockMap@__FrameHandler3@@V123@@std@@AEAVTryBlockMap@1@HH@Z 000000018003aa50 f   libvcruntimed:risctrnsctrl.obj
 0001:00039ca0       ?GetRangeOfTrysToCheck@__FrameHandler4@@SA?AU?$pair@Viterator@TryBlockMap@__FrameHandler4@@V123@@std@@AEAVTryBlockMap@1@HH@Z 000000018003aca0 f   libvcruntimed:risctrnsctrl.obj
 0001:00039e30       ?ReadInt@@YAHPEAPEAE@Z     000000018003ae30 f i libvcruntimed:risctrnsctrl.obj
 0001:00039e70       ?ReadUnsigned@@YAIPEAPEAE@Z 000000018003ae70 f i libvcruntimed:risctrnsctrl.obj
 0001:00039f00       ?UnwindNestedFrames@__FrameHandler3@@SAXPEA_KPEAUEHExceptionRecord@@PEAU_CONTEXT@@0PEAXPEBU_s_FuncInfo@@HHPEBU_s_HandlerType@@PEAU_xDISPATCHER_CONTEXT@@E@Z 000000018003af00 f   libvcruntimed:risctrnsctrl.obj
 0001:0003a070       ?UnwindNestedFrames@__FrameHandler4@@SAXPEA_KPEAUEHExceptionRecord@@PEAU_CONTEXT@@0PEAXPEAUFuncInfo4@@HHPEAUHandlerType4@@PEAU_xDISPATCHER_CONTEXT@@E@Z 000000018003b070 f   libvcruntimed:risctrnsctrl.obj
 0001:0003a2a0       ?__FuncToImageRelOffset@@YA_KPEAU_xDISPATCHER_CONTEXT@@I@Z 000000018003b2a0 f   libvcruntimed:risctrnsctrl.obj
 0001:0003a2d0       ?begin@TryBlockMap@__FrameHandler4@@QEAA?AViterator@12@XZ 000000018003b2d0 f i libvcruntimed:risctrnsctrl.obj
 0001:0003a300       ?end@TryBlockMap@__FrameHandler4@@QEAA?AViterator@12@XZ 000000018003b300 f i libvcruntimed:risctrnsctrl.obj
 0001:0003a330       ?getFuncInfo@TryBlockMap@__FrameHandler3@@QEAAPEBU_s_FuncInfo@@XZ 000000018003b330 f i libvcruntimed:risctrnsctrl.obj
 0001:0003a340       ?getpDC@TryBlockMap@__FrameHandler3@@QEAAPEAU_xDISPATCHER_CONTEXT@@XZ 000000018003b340 f i libvcruntimed:risctrnsctrl.obj
 0001:0003a350       ?incrementToSentinel@iterator@TryBlockMap@__FrameHandler4@@QEAAXXZ 000000018003b350 f i libvcruntimed:risctrnsctrl.obj
 0001:0003a370       ?setBuffer@TryBlockMap@__FrameHandler4@@QEAAXViterator@12@@Z 000000018003b370 f i libvcruntimed:risctrnsctrl.obj
 0001:0003a3e0       _CreateFrameInfo           000000018003b3e0 f   libvcruntimed:risctrnsctrl.obj
 0001:0003a450       _FindAndUnlinkFrame        000000018003b450 f   libvcruntimed:risctrnsctrl.obj
 0001:0003a4d0       _GetImageBase              000000018003b4d0 f   libvcruntimed:risctrnsctrl.obj
 0001:0003a4f0       _GetThrowImageBase         000000018003b4f0 f   libvcruntimed:risctrnsctrl.obj
 0001:0003a510       _SetImageBase              000000018003b510 f   libvcruntimed:risctrnsctrl.obj
 0001:0003a530       _SetThrowImageBase         000000018003b530 f   libvcruntimed:risctrnsctrl.obj
 0001:0003a550       __CxxFrameHandler          000000018003b550 f   libvcruntimed:risctrnsctrl.obj
 0001:0003a590       __CxxFrameHandler2         000000018003b590 f   libvcruntimed:risctrnsctrl.obj
 0001:0003a5d0       __CxxFrameHandler3         000000018003b5d0 f   libvcruntimed:risctrnsctrl.obj
 0001:0003a690       __CxxFrameHandler4         000000018003b690 f   libvcruntimed:risctrnsctrl.obj
 0001:0003a770       __C_specific_handler_noexcept 000000018003b770 f   libvcruntimed:chandler_noexcept.obj
 0001:0003a820       ??$?RD@__crt_internal_free_policy@@QEBAXQEBD@Z 000000018003b820 f i libvcruntimed:std_type_info.obj
 0001:0003a850       ??$?RX@__crt_internal_free_policy@@QEBAXQEBX@Z 000000018003b850 f i libvcruntimed:std_type_info.obj
 0001:0003a880       ??$__crt_interlocked_compare_exchange_pointer@$$CBDPEAD$$T@@YAPEBDPEDSEBDQEAD$$T@Z 000000018003b880 f i libvcruntimed:std_type_info.obj
 0001:0003a8c0       ??$__crt_interlocked_read_pointer@$$CBD@@YAPEBDPEDSEBD@Z 000000018003b8c0 f i libvcruntimed:std_type_info.obj
 0001:0003a8e0       ??0?$__crt_unique_heap_ptr@DU__crt_internal_free_policy@@@@QEAA@QEAD@Z 000000018003b8e0 f i libvcruntimed:std_type_info.obj
 0001:0003a900       ??0?$__crt_unique_heap_ptr@XU__crt_internal_free_policy@@@@QEAA@QEAX@Z 000000018003b900 f i libvcruntimed:std_type_info.obj
 0001:0003a920       ??1?$__crt_unique_heap_ptr@DU__crt_internal_free_policy@@@@QEAA@XZ 000000018003b920 f i libvcruntimed:std_type_info.obj
 0001:0003a940       ??1?$__crt_unique_heap_ptr@XU__crt_internal_free_policy@@@@QEAA@XZ 000000018003b940 f i libvcruntimed:std_type_info.obj
 0001:0003a980       ??B?$__crt_unique_heap_ptr@DU__crt_internal_free_policy@@@@QEBA_NXZ 000000018003b980 f i libvcruntimed:std_type_info.obj
 0001:0003a9a0       ??B?$__crt_unique_heap_ptr@XU__crt_internal_free_policy@@@@QEBA_NXZ 000000018003b9a0 f i libvcruntimed:std_type_info.obj
 0001:0003aa20       ?detach@?$__crt_unique_heap_ptr@XU__crt_internal_free_policy@@@@QEAAPEAXXZ 000000018003ba20 f i libvcruntimed:std_type_info.obj
 0001:0003aa50       ?get@?$__crt_unique_heap_ptr@DU__crt_internal_free_policy@@@@QEBAPEADXZ 000000018003ba50 f i libvcruntimed:std_type_info.obj
 0001:0003aa60       ?get@?$__crt_unique_heap_ptr@XU__crt_internal_free_policy@@@@QEBAPEAXXZ 000000018003ba60 f i libvcruntimed:std_type_info.obj
 0001:0003aa70       ?is_valid@?$__crt_unique_heap_ptr@DU__crt_internal_free_policy@@@@QEBA_NXZ 000000018003ba70 f i libvcruntimed:std_type_info.obj
 0001:0003aaa0       ?is_valid@?$__crt_unique_heap_ptr@XU__crt_internal_free_policy@@@@QEBA_NXZ 000000018003baa0 f i libvcruntimed:std_type_info.obj
 0001:0003aad0       ?release@?$__crt_unique_heap_ptr@DU__crt_internal_free_policy@@@@QEAAXXZ 000000018003bad0 f i libvcruntimed:std_type_info.obj
 0001:0003ab00       ?release@?$__crt_unique_heap_ptr@XU__crt_internal_free_policy@@@@QEAAXXZ 000000018003bb00 f i libvcruntimed:std_type_info.obj
 0001:0003ab30       __std_type_info_compare    000000018003bb30 f   libvcruntimed:std_type_info.obj
 0001:0003ab70       __std_type_info_destroy_list 000000018003bb70 f   libvcruntimed:std_type_info.obj
 0001:0003abd0       __std_type_info_hash       000000018003bbd0 f   libvcruntimed:std_type_info.obj
 0001:0003ac80       __std_type_info_name       000000018003bc80 f   libvcruntimed:std_type_info.obj
 0001:0003af70       __vcrt_GetModuleFileNameW  000000018003bf70 f   libvcruntimed:winapi_thunks.obj
 0001:0003afa0       __vcrt_GetModuleHandleW    000000018003bfa0 f   libvcruntimed:winapi_thunks.obj
 0001:0003afc0       __vcrt_LoadLibraryExW      000000018003bfc0 f   libvcruntimed:winapi_thunks.obj
 0001:0003aff0       ??$?RD@__crt_public_free_policy@@QEBAXQEBD@Z 000000018003bff0 f i libvcruntimed:std_exception.obj
 0001:0003b010       ??0?$__crt_unique_heap_ptr@DU__crt_public_free_policy@@@@QEAA@QEAD@Z 000000018003c010 f i libvcruntimed:std_exception.obj
 0001:0003b030       ??1?$__crt_unique_heap_ptr@DU__crt_public_free_policy@@@@QEAA@XZ 000000018003c030 f i libvcruntimed:std_exception.obj
 0001:0003b050       ??B?$__crt_unique_heap_ptr@DU__crt_public_free_policy@@@@QEBA_NXZ 000000018003c050 f i libvcruntimed:std_exception.obj
 0001:0003b070       ?detach@?$__crt_unique_heap_ptr@DU__crt_public_free_policy@@@@QEAAPEADXZ 000000018003c070 f i libvcruntimed:std_exception.obj
 0001:0003b0a0       ?get@?$__crt_unique_heap_ptr@DU__crt_public_free_policy@@@@QEBAPEADXZ 000000018003c0a0 f i libvcruntimed:std_exception.obj
 0001:0003b0b0       ?is_valid@?$__crt_unique_heap_ptr@DU__crt_public_free_policy@@@@QEBA_NXZ 000000018003c0b0 f i libvcruntimed:std_exception.obj
 0001:0003b0e0       ?release@?$__crt_unique_heap_ptr@DU__crt_public_free_policy@@@@QEAAXXZ 000000018003c0e0 f i libvcruntimed:std_exception.obj
 0001:0003b110       __std_exception_copy       000000018003c110 f   libvcruntimed:std_exception.obj
 0001:0003b240       __std_exception_destroy    000000018003c240 f   libvcruntimed:std_exception.obj
 0001:0003b280       _CxxThrowException         000000018003c280 f   libvcruntimed:throw.obj
 0001:0003b3d0       ??$?B$$A6AXXZ@__crt_fast_encoded_nullptr_t@@QEBAP6AXXZXZ 000000018003c3d0 f i libvcruntimed:purevirt_data.obj
 0001:0003b3f0       ?__crt_fast_encode_pointer@@YA?AU__crt_fast_encoded_nullptr_t@@$$T@Z 000000018003c3f0 f i libvcruntimed:purevirt_data.obj
 0001:0003b410       __vcrt_initialize_pure_virtual_call_handler 000000018003c410 f   libvcruntimed:purevirt_data.obj
 0001:0003b440       ??$?RU__vcrt_ptd@@@__crt_internal_free_policy@@QEBAXQEBU__vcrt_ptd@@@Z 000000018003c440 f i libvcruntimed:per_thread_data.obj
 0001:0003b470       ??0?$__crt_unique_heap_ptr@U__vcrt_ptd@@U__crt_internal_free_policy@@@@QEAA@QEAU__vcrt_ptd@@@Z 000000018003c470 f i libvcruntimed:per_thread_data.obj
 0001:0003b4b0       ??1?$__crt_unique_heap_ptr@U__vcrt_ptd@@U__crt_internal_free_policy@@@@QEAA@XZ 000000018003c4b0 f i libvcruntimed:per_thread_data.obj
 0001:0003b4f0       ??B?$__crt_unique_heap_ptr@U__vcrt_ptd@@U__crt_internal_free_policy@@@@QEBA_NXZ 000000018003c4f0 f i libvcruntimed:per_thread_data.obj
 0001:0003b510       ?detach@?$__crt_unique_heap_ptr@U__vcrt_ptd@@U__crt_internal_free_policy@@@@QEAAPEAU__vcrt_ptd@@XZ 000000018003c510 f i libvcruntimed:per_thread_data.obj
 0001:0003b540       ?get@?$__crt_unique_heap_ptr@U__vcrt_ptd@@U__crt_internal_free_policy@@@@QEBAPEAU__vcrt_ptd@@XZ 000000018003c540 f i libvcruntimed:per_thread_data.obj
 0001:0003b550       ?is_valid@?$__crt_unique_heap_ptr@U__vcrt_ptd@@U__crt_internal_free_policy@@@@QEBA_NXZ 000000018003c550 f i libvcruntimed:per_thread_data.obj
 0001:0003b580       ?release@?$__crt_unique_heap_ptr@U__vcrt_ptd@@U__crt_internal_free_policy@@@@QEAAXXZ 000000018003c580 f i libvcruntimed:per_thread_data.obj
 0001:0003b600       __vcrt_freefls             000000018003c600 f   libvcruntimed:per_thread_data.obj
 0001:0003b640       __vcrt_freeptd             000000018003c640 f   libvcruntimed:per_thread_data.obj
 0001:0003b6a0       __vcrt_getptd              000000018003c6a0 f   libvcruntimed:per_thread_data.obj
 0001:0003b6d0       __vcrt_getptd_noexit       000000018003c6d0 f   libvcruntimed:per_thread_data.obj
 0001:0003b870       __vcrt_getptd_noinit       000000018003c870 f   libvcruntimed:per_thread_data.obj
 0001:0003b8d0       __vcrt_initialize_ptd      000000018003c8d0 f   libvcruntimed:per_thread_data.obj
 0001:0003b920       __vcrt_uninitialize_ptd    000000018003c920 f   libvcruntimed:per_thread_data.obj
 0001:0003b950       __vcrt_initialize_locks    000000018003c950 f   libvcruntimed:locks.obj
 0001:0003b9c0       __vcrt_lock                000000018003c9c0 f   libvcruntimed:locks.obj
 0001:0003b9f0       __vcrt_uninitialize_locks  000000018003c9f0 f   libvcruntimed:locks.obj
 0001:0003ba50       __vcrt_unlock              000000018003ca50 f   libvcruntimed:locks.obj
 0001:0003ba80       ??$?BX@__crt_fast_encoded_nullptr_t@@QEBAPEAXXZ 000000018003ca80 f i libvcruntimed:winapi_downlevel.obj
 0001:0003baa0       ??$__crt_fast_decode_pointer@PEAX@@YAPEAXQEAX@Z 000000018003caa0 f i libvcruntimed:winapi_downlevel.obj
 0001:0003bae0       ??$__crt_fast_encode_pointer@PEAX@@YAPEAXQEAX@Z 000000018003cae0 f i libvcruntimed:winapi_downlevel.obj
 0001:0003bb20       ??$__crt_interlocked_exchange_pointer@UHINSTANCE__@@PEAU1@@@YAPEAUHINSTANCE__@@PEDSEAU0@QEAU0@@Z 000000018003cb20 f i libvcruntimed:winapi_downlevel.obj
 0001:0003bb40       ??$__crt_interlocked_exchange_pointer@UHINSTANCE__@@PEAX@@YAPEAUHINSTANCE__@@PEDSEAU0@QEAX@Z 000000018003cb40 f i libvcruntimed:winapi_downlevel.obj
 0001:0003bb60       ??$__crt_interlocked_exchange_pointer@XPEAX@@YAPEAXPEDSEAXQEAX@Z 000000018003cb60 f i libvcruntimed:winapi_downlevel.obj
 0001:0003bb80       ??$__crt_interlocked_read_pointer@UHINSTANCE__@@@@YAPEAUHINSTANCE__@@PEDSEAU0@@Z 000000018003cb80 f i libvcruntimed:winapi_downlevel.obj
 0001:0003bba0       ??$__crt_interlocked_read_pointer@X@@YAPEAXPEDSEAX@Z 000000018003cba0 f i libvcruntimed:winapi_downlevel.obj
 0001:0003c100       __vcrt_FlsAlloc            000000018003d100 f   libvcruntimed:winapi_downlevel.obj
 0001:0003c150       __vcrt_FlsFree             000000018003d150 f   libvcruntimed:winapi_downlevel.obj
 0001:0003c1a0       __vcrt_FlsGetValue         000000018003d1a0 f   libvcruntimed:winapi_downlevel.obj
 0001:0003c1f0       __vcrt_FlsSetValue         000000018003d1f0 f   libvcruntimed:winapi_downlevel.obj
 0001:0003c250       __vcrt_InitializeCriticalSectionEx 000000018003d250 f   libvcruntimed:winapi_downlevel.obj
 0001:0003c2b0       __vcrt_initialize_winapi_thunks 000000018003d2b0 f   libvcruntimed:winapi_downlevel.obj
 0001:0003c330       __vcrt_uninitialize_winapi_thunks 000000018003d330 f   libvcruntimed:winapi_downlevel.obj
 0001:0003c3e0       _NLG_Notify                000000018003d3e0 f   libvcruntimed:notify.obj
 0001:0003c400       __NLG_Dispatch2            000000018003d400 f   libvcruntimed:notify.obj
 0001:0003c410       __NLG_Return2              000000018003d410 f   libvcruntimed:notify.obj
 0001:0003c430       __except_validate_context_record 000000018003d430 f   libvcruntimed:jbcxrval.obj
 0001:0003c490       __except_validate_jump_buffer 000000018003d490 f   libvcruntimed:jbcxrval.obj
 0001:0003c4b0       __except_validate_jump_buffer_common 000000018003d4b0 f i libvcruntimed:jbcxrval.obj
 0001:0003c530       __DestructExceptionObject  000000018003d530 f   libvcruntimed:ehhelpers.obj
 0001:0003c630       ?_CallMemberFunction0@@YAXQEAX0@Z 000000018003d630 f i libvcruntimed:ehhelpers.obj
 0001:0003c660       ?raw_name@type_info@@QEBAPEBDXZ 000000018003d660 f i libvcruntimed:ehhelpers.obj
 0001:0003c670       _IsExceptionObjectToBeDestroyed 000000018003d670 f   libvcruntimed:ehhelpers.obj
 0001:0003c6c0       _SetWinRTOutOfMemoryExceptionCallback 000000018003d6c0 f   libvcruntimed:ehhelpers.obj
 0001:0003c6e0       __AdjustPointer            000000018003d6e0 f   libvcruntimed:ehhelpers.obj
 0001:0003c760       __FrameUnwindFilter        000000018003d760 f   libvcruntimed:ehhelpers.obj
 0001:0003c7f0       __GetPlatformExceptionInfo 000000018003d7f0 f   libvcruntimed:ehhelpers.obj
 0001:0003c8a0       __current_exception        000000018003d8a0 f   libvcruntimed:ehhelpers.obj
 0001:0003c8c0       __current_exception_context 000000018003d8c0 f   libvcruntimed:ehhelpers.obj
 0001:0003c8e0       __processing_throw         000000018003d8e0 f   libvcruntimed:ehhelpers.obj
 0001:0003c900       __std_terminate            000000018003d900 f   libvcruntimed:ehhelpers.obj
 0001:0003c910       _is_exception_typeof       000000018003d910 f   libvcruntimed:ehhelpers.obj
 0001:0003ca60       ?GetCurrentState@__FrameHandler3@@SAHPEA_KPEAU_xDISPATCHER_CONTEXT@@PEBU_s_FuncInfo@@@Z 000000018003da60 f   libvcruntimed:ehstate.obj
 0001:0003cac0       ?GetUnwindTryBlock@__FrameHandler3@@SAHPEA_KPEAU_xDISPATCHER_CONTEXT@@PEBU_s_FuncInfo@@@Z 000000018003dac0 f   libvcruntimed:ehstate.obj
 0001:0003cb10       ?SetState@__FrameHandler3@@SAXPEA_KPEBU_s_FuncInfo@@H@Z 000000018003db10 f   libvcruntimed:ehstate.obj
 0001:0003cb40       ?SetUnwindTryBlock@__FrameHandler3@@SAXPEA_KPEAU_xDISPATCHER_CONTEXT@@PEBU_s_FuncInfo@@H@Z 000000018003db40 f   libvcruntimed:ehstate.obj
 0001:0003cbb0       ?StateFromControlPc@__FrameHandler3@@SAHPEBU_s_FuncInfo@@PEAU_xDISPATCHER_CONTEXT@@@Z 000000018003dbb0 f   libvcruntimed:ehstate.obj
 0001:0003cbf0       ?StateFromControlPc@__FrameHandler4@@SAHPEAUFuncInfo4@@PEAU_xDISPATCHER_CONTEXT@@@Z 000000018003dbf0 f   libvcruntimed:ehstate.obj
 0001:0003cc30       ?StateFromIp@__FrameHandler3@@SAHPEBU_s_FuncInfo@@PEAU_xDISPATCHER_CONTEXT@@_K@Z 000000018003dc30 f   libvcruntimed:ehstate.obj
 0001:0003cd20       ?StateFromIp@__FrameHandler4@@SAHPEAUFuncInfo4@@PEAU_xDISPATCHER_CONTEXT@@_K@Z 000000018003dd20 f   libvcruntimed:ehstate.obj
 0001:0003eff0       ??$TypeMatchHelper@V__FrameHandler3@@@@YAHPEBU_s_HandlerType@@PEBU_s_CatchableType@@PEBU_s_ThrowInfo@@@Z 000000018003fff0 f i libvcruntimed:frame.obj
 0001:0003f1e0       ??$TypeMatchHelper@V__FrameHandler4@@@@YAHPEAUHandlerType4@@PEBU_s_CatchableType@@PEBU_s_ThrowInfo@@@Z 00000001800401e0 f i libvcruntimed:frame.obj
 0001:0003f3d0       ??$__InternalCxxFrameHandler@V__FrameHandler3@@@@YA?AW4_EXCEPTION_DISPOSITION@@PEAUEHExceptionRecord@@PEA_KPEAU_CONTEXT@@PEAU_xDISPATCHER_CONTEXT@@PEBU_s_FuncInfo@@H1E@Z 00000001800403d0 f i libvcruntimed:frame.obj
 0001:0003f850       ??$__InternalCxxFrameHandler@V__FrameHandler4@@@@YA?AW4_EXCEPTION_DISPOSITION@@PEAUEHExceptionRecord@@PEA_KPEAU_CONTEXT@@PEAU_xDISPATCHER_CONTEXT@@PEAUFuncInfo4@@H1E@Z 0000000180040850 f i libvcruntimed:frame.obj
 0001:0003fcf0       ??0HandlerMap@__FrameHandler3@@QEAA@PEBU_s_TryBlockMapEntry@@PEAU_xDISPATCHER_CONTEXT@@@Z 0000000180040cf0 f i libvcruntimed:frame.obj
 0001:0003fd30       ??0HandlerMap@__FrameHandler4@@QEAA@PEAUTryBlockMapEntry4@@PEAU_xDISPATCHER_CONTEXT@@@Z 0000000180040d30 f i libvcruntimed:frame.obj
 0001:0003fdb0       ??0HandlerType4@@QEAA@XZ   0000000180040db0 f i libvcruntimed:frame.obj
 0001:0003fdd0       ??0TryBlockMap@__FrameHandler3@@QEAA@PEBU_s_FuncInfo@@PEAU_xDISPATCHER_CONTEXT@@@Z 0000000180040dd0 f i libvcruntimed:frame.obj
 0001:0003fe00       ??0TryBlockMap@__FrameHandler4@@QEAA@PEAUFuncInfo4@@PEAU_xDISPATCHER_CONTEXT@@@Z 0000000180040e00 f i libvcruntimed:frame.obj
 0001:0003fe90       ??0UWMap@@QEAA@PEAE@Z      0000000180040e90 f i libvcruntimed:frame.obj
 0001:0003fee0       ??0bad_exception@std@@QEAA@AEBV01@@Z 0000000180040ee0 f i libvcruntimed:frame.obj
 0001:0003ff20       ??0bad_exception@std@@QEAA@XZ 0000000180040f20 f i libvcruntimed:frame.obj
 0001:0003ff60       ??0iterator@HandlerMap@__FrameHandler3@@QEAA@AEAV12@I@Z 0000000180040f60 f i libvcruntimed:frame.obj
 0001:0003ff90       ??0iterator@HandlerMap@__FrameHandler4@@QEAA@AEAV12@I@Z 0000000180040f90 f i libvcruntimed:frame.obj
 0001:0003ffc0       ??0iterator@UWMap@@QEAA@AEAV1@PEAE@Z 0000000180040fc0 f i libvcruntimed:frame.obj
 0001:0003fff0       ??1bad_exception@std@@UEAA@XZ 0000000180040ff0 f i libvcruntimed:frame.obj
 0001:00040010       ??4iterator@UWMap@@QEAAAEAV01@AEBV01@@Z 0000000180041010 f i libvcruntimed:frame.obj
 0001:00040040       ??8iterator@HandlerMap@__FrameHandler3@@QEBA_NAEBV012@@Z 0000000180041040 f i libvcruntimed:frame.obj
 0001:00040080       ??8iterator@HandlerMap@__FrameHandler4@@QEBA_NAEBV012@@Z 0000000180041080 f i libvcruntimed:frame.obj
 0001:000400c0       ??8type_info@@QEBA_NAEBV0@@Z 00000001800410c0 f i libvcruntimed:frame.obj
 0001:00040110       ??9iterator@HandlerMap@__FrameHandler3@@QEBA_NAEBV012@@Z 0000000180041110 f i libvcruntimed:frame.obj
 0001:00040150       ??9iterator@HandlerMap@__FrameHandler4@@QEBA_NAEBV012@@Z 0000000180041150 f i libvcruntimed:frame.obj
 0001:00040190       ??Diterator@HandlerMap@__FrameHandler3@@QEAAPEBU_s_HandlerType@@XZ 0000000180041190 f i libvcruntimed:frame.obj
 0001:000401c0       ??Diterator@HandlerMap@__FrameHandler4@@QEAAPEAUHandlerType4@@XZ 00000001800411c0 f i libvcruntimed:frame.obj
 0001:000401e0       ??Diterator@TryBlockMap@__FrameHandler3@@QEAAPEBU_s_TryBlockMapEntry@@XZ 00000001800411e0 f i libvcruntimed:frame.obj
 0001:00040220       ??Diterator@UWMap@@QEAA?AUUnwindMapEntry4@@XZ 0000000180041220 f i libvcruntimed:frame.obj
 0001:00040280       ??Eiterator@HandlerMap@__FrameHandler3@@QEAAAEAV012@XZ 0000000180041280 f i libvcruntimed:frame.obj
 0001:000402a0       ??Eiterator@HandlerMap@__FrameHandler4@@QEAAAEAV012@XZ 00000001800412a0 f i libvcruntimed:frame.obj
 0001:000402e0       ??Eiterator@TryBlockMap@__FrameHandler3@@QEAAAEAV012@XZ 00000001800412e0 f i libvcruntimed:frame.obj
 0001:00040300       ??Eiterator@UWMap@@QEAAAEAV01@XZ 0000000180041300 f i libvcruntimed:frame.obj
 0001:00040340       ??Giterator@UWMap@@QEBA_JAEBV01@@Z 0000000180041340 f i libvcruntimed:frame.obj
 0001:00040360       ??Miterator@TryBlockMap@__FrameHandler3@@QEBA_NAEBV012@@Z 0000000180041360 f i libvcruntimed:frame.obj
 0001:000403a0       ??Miterator@TryBlockMap@__FrameHandler4@@QEBA_NAEBV012@@Z 00000001800413a0 f i libvcruntimed:frame.obj
 0001:000403e0       ??Oiterator@UWMap@@QEBA_NAEBV01@@Z 00000001800413e0 f i libvcruntimed:frame.obj
 0001:00040420       ??Piterator@UWMap@@QEBA_NAEBV01@@Z 0000000180041420 f i libvcruntimed:frame.obj
 0001:00040460       ??_Gbad_exception@std@@UEAAPEAXI@Z 0000000180041460 f i libvcruntimed:frame.obj
 0001:00040460       ??_Ebad_exception@std@@UEAAPEAXI@Z 0000000180041460 f i libvcruntimed:frame.obj
 0001:000404a0       ?BuildCatchObject@__FrameHandler3@@SAXPEAUEHExceptionRecord@@PEAXPEBU_s_HandlerType@@PEBU_s_CatchableType@@@Z 00000001800414a0 f   libvcruntimed:frame.obj
 0001:000404e0       ?BuildCatchObject@__FrameHandler4@@SAXPEAUEHExceptionRecord@@PEAXPEAUHandlerType4@@PEBU_s_CatchableType@@@Z 00000001800414e0 f   libvcruntimed:frame.obj
 0001:00040520       ?BuildCatchObjectHelper@__FrameHandler3@@SAHPEAUEHExceptionRecord@@PEAXPEBU_s_HandlerType@@PEBU_s_CatchableType@@@Z 0000000180041520 f   libvcruntimed:frame.obj
 0001:00040560       ?BuildCatchObjectHelper@__FrameHandler4@@SAHPEAUEHExceptionRecord@@PEAXPEAUHandlerType4@@PEBU_s_CatchableType@@@Z 0000000180041560 f   libvcruntimed:frame.obj
 0001:000405a0       ?CxxCallCatchBlock@__FrameHandler3@@SAPEAXPEAU_EXCEPTION_RECORD@@@Z 00000001800415a0 f   libvcruntimed:frame.obj
 0001:00040800       ?CxxCallCatchBlock@__FrameHandler4@@SAPEAXPEAU_EXCEPTION_RECORD@@@Z 0000000180041800 f   libvcruntimed:frame.obj
 0001:00040b40       ?DecompHandler@HandlerMap@__FrameHandler4@@AEAAXXZ 0000000180041b40 f i libvcruntimed:frame.obj
 0001:00040dd0       ?FrameUnwindToState@__FrameHandler3@@SAXPEA_KPEAU_xDISPATCHER_CONTEXT@@PEBU_s_FuncInfo@@H@Z 0000000180041dd0 f   libvcruntimed:frame.obj
 0001:00041060       ?FrameUnwindToState@__FrameHandler4@@SAXPEA_KPEAU_xDISPATCHER_CONTEXT@@PEAUFuncInfo4@@H@Z 0000000180042060 f   libvcruntimed:frame.obj
 0001:00041410       ?GetHandlerSearchState@__FrameHandler3@@SAHPEA_KPEAU_xDISPATCHER_CONTEXT@@PEBU_s_FuncInfo@@@Z 0000000180042410 f i libvcruntimed:frame.obj
 0001:000414c0       ?GetHandlerSearchState@__FrameHandler4@@SAHPEA_KPEAU_xDISPATCHER_CONTEXT@@PEAUFuncInfo4@@@Z 00000001800424c0 f i libvcruntimed:frame.obj
 0001:00041520       ?GetMaxState@__FrameHandler3@@SAHPEAU_xDISPATCHER_CONTEXT@@PEBU_s_FuncInfo@@@Z 0000000180042520 f i libvcruntimed:frame.obj
 0001:00041540       ?GetMaxState@__FrameHandler4@@SAHPEAU_xDISPATCHER_CONTEXT@@PEAUFuncInfo4@@@Z 0000000180042540 f i libvcruntimed:frame.obj
 0001:000417a0       ?ReadEntry@UWMap@@AEAAXXZ  00000001800427a0 f i libvcruntimed:frame.obj
 0001:00041860       ?TypeMatch@__FrameHandler3@@SAHPEBU_s_HandlerType@@PEBU_s_CatchableType@@PEBU_s_ThrowInfo@@@Z 0000000180042860 f   libvcruntimed:frame.obj
 0001:00041890       ?TypeMatch@__FrameHandler4@@SAHPEAUHandlerType4@@PEBU_s_CatchableType@@PEBU_s_ThrowInfo@@@Z 0000000180042890 f   libvcruntimed:frame.obj
 0001:000418c0       ?WalkBack@UWMap@@AEAAPEAEXZ 00000001800428c0 f i libvcruntimed:frame.obj
 0001:00041910       ?_CallMemberFunction1@@YAXQEAX00@Z 0000000180042910 f i libvcruntimed:frame.obj
 0001:00041940       ?_CallMemberFunction2@@YAXQEAX00H@Z 0000000180042940 f i libvcruntimed:frame.obj
 0001:00041980       ?_ValidateExecute@@YA_NP6A_JXZ@Z 0000000180042980 f i libvcruntimed:frame.obj
 0001:000419a0       ?_ValidateRead@@YA_NPEBXI@Z 00000001800429a0 f i libvcruntimed:frame.obj
 0001:000419c0       ?_ValidateWrite@@YA_NPEAXI@Z 00000001800429c0 f i libvcruntimed:frame.obj
 0001:00041a20       ?begin@HandlerMap@__FrameHandler3@@QEAA?AViterator@12@XZ 0000000180042a20 f i libvcruntimed:frame.obj
 0001:00041a50       ?begin@HandlerMap@__FrameHandler4@@QEAA?AViterator@12@XZ 0000000180042a50 f i libvcruntimed:frame.obj
 0001:00041a80       ?begin@UWMap@@QEAA?AViterator@1@XZ 0000000180042a80 f i libvcruntimed:frame.obj
 0001:00041ab0       ?end@HandlerMap@__FrameHandler3@@QEAA?AViterator@12@XZ 0000000180042ab0 f i libvcruntimed:frame.obj
 0001:00041ae0       ?end@HandlerMap@__FrameHandler4@@QEAA?AViterator@12@XZ 0000000180042ae0 f i libvcruntimed:frame.obj
 0001:00041b10       ?getESTypes@__FrameHandler3@@SAPEBU_s_ESTypeList@@PEBU_s_FuncInfo@@@Z 0000000180042b10 f i libvcruntimed:frame.obj
 0001:00041b50       ?getESTypes@__FrameHandler4@@SAPEBU_s_ESTypeList@@PEAUFuncInfo4@@@Z 0000000180042b50 f i libvcruntimed:frame.obj
 0001:00041b60       ?getLastEntry@HandlerMap@__FrameHandler3@@QEAAPEBU_s_HandlerType@@XZ 0000000180042b60 f i libvcruntimed:frame.obj
 0001:00041b80       ?getLastEntry@HandlerMap@__FrameHandler4@@QEAAPEAUHandlerType4@@XZ 0000000180042b80 f i libvcruntimed:frame.obj
 0001:00041bc0       ?getMagicNum@__FrameHandler3@@SAIPEBU_s_FuncInfo@@@Z 0000000180042bc0 f i libvcruntimed:frame.obj
 0001:00041be0       ?getMagicNum@__FrameHandler4@@SAIPEAUFuncInfo4@@@Z 0000000180042be0 f i libvcruntimed:frame.obj
 0001:00041bf0       ?getNumTryBlocks@TryBlockMap@__FrameHandler3@@QEAAIXZ 0000000180042bf0 f i libvcruntimed:frame.obj
 0001:00041c10       ?getNumTryBlocks@TryBlockMap@__FrameHandler4@@QEAAIXZ 0000000180042c10 f i libvcruntimed:frame.obj
 0001:00041c20       ?getOffsetIter@UWMap@@QEAA?AViterator@1@_J@Z 0000000180042c20 f i libvcruntimed:frame.obj
 0001:00041c60       ?getStartStop@UWMap@@QEAAXHHAEAViterator@1@0@Z 0000000180042c60 f i libvcruntimed:frame.obj
 0001:00041dc0       ?getStateIter@UWMap@@QEAA?AViterator@1@H@Z 0000000180042dc0 f i libvcruntimed:frame.obj
 0001:00041e80       ?isEHs@__FrameHandler3@@SA_NPEBU_s_FuncInfo@@@Z 0000000180042e80 f i libvcruntimed:frame.obj
 0001:00041ec0       ?isEHs@__FrameHandler4@@SA_NPEAUFuncInfo4@@@Z 0000000180042ec0 f i libvcruntimed:frame.obj
 0001:00041ee0       ?isNoExcept@__FrameHandler3@@SA_NPEBU_s_FuncInfo@@@Z 0000000180042ee0 f i libvcruntimed:frame.obj
 0001:00041f20       ?isNoExcept@__FrameHandler4@@SA_NPEAUFuncInfo4@@@Z 0000000180042f20 f i libvcruntimed:frame.obj
 0001:00041f40       ?reset@HandlerType4@@QEAAXXZ 0000000180042f40 f i libvcruntimed:frame.obj
 0001:00041fa0       ?resetBuffer@HandlerMap@__FrameHandler4@@QEAAXXZ 0000000180042fa0 f i libvcruntimed:frame.obj
 0001:00041fc0       ?setBuffer@HandlerMap@__FrameHandler4@@QEAAXI@Z 0000000180042fc0 f i libvcruntimed:frame.obj
 0001:00042020       __BuildCatchObject         0000000180043020 f   libvcruntimed:frame.obj
 0001:00042060       __BuildCatchObjectHelper   0000000180043060 f   libvcruntimed:frame.obj
 0001:000420a0       __TypeMatch                00000001800430a0 f   libvcruntimed:frame.obj
 0001:000420d0       __vcrt_EncodePointer       00000001800430d0 f i libvcruntimed:frame.obj
 0001:000420f0       ??0Block@_HeapManager@@QEAA@XZ 00000001800430f0 f i libvcruntimed:undname.obj
 0001:00042110       ??0DName@@QEAA@AEAPEBDD@Z  0000000180043110 f   libvcruntimed:undname.obj
 0001:000423c0       ??0DName@@QEAA@AEBV0@@Z    00000001800433c0 f i libvcruntimed:undname.obj
 0001:000423f0       ??0DName@@QEAA@D@Z         00000001800433f0 f   libvcruntimed:undname.obj
 0001:00042440       ??0DName@@QEAA@PEAV0@@Z    0000000180043440 f   libvcruntimed:undname.obj
 0001:00042520       ??0DName@@QEAA@PEBD@Z      0000000180043520 f   libvcruntimed:undname.obj
 0001:00042590       ??0DName@@QEAA@W4DNameStatus@@@Z 0000000180043590 f   libvcruntimed:undname.obj
 0001:00042640       ??0DName@@QEAA@XZ          0000000180043640 f i libvcruntimed:undname.obj
 0001:00042670       ??0DName@@QEAA@_J@Z        0000000180043670 f   libvcruntimed:undname.obj
 0001:00042780       ??0DName@@QEAA@_K@Z        0000000180043780 f   libvcruntimed:undname.obj
 0001:00042850       ??0DNameNode@@IEAA@XZ      0000000180043850 f i libvcruntimed:undname.obj
 0001:00042870       ??0Replicator@@QEAA@XZ     0000000180043870 f i libvcruntimed:undname.obj
 0001:000428b0       ??0UnDecorator@@QEAA@PEBDP6APEADJ@ZK@Z 00000001800438b0 f i libvcruntimed:undname.obj
 0001:00042960       ??0charNode@@QEAA@D@Z      0000000180043960 f i libvcruntimed:undname.obj
 0001:000429a0       ??0pDNameNode@@QEAA@PEAVDName@@@Z 00000001800439a0 f   libvcruntimed:undname.obj
 0001:00042a20       ??0pairNode@@QEAA@PEBVDNameNode@@0@Z 0000000180043a20 f i libvcruntimed:undname.obj
 0001:00042a80       ??0pcharNode@@QEAA@PEBDH@Z 0000000180043a80 f   libvcruntimed:undname.obj
 0001:00042b70       ??2@YAPEAX_KAEAV_HeapManager@@H@Z 0000000180043b70 f i libvcruntimed:undname.obj
 0001:00042ba0       ??4DName@@QEAAAEAV0@AEBV0@@Z 0000000180043ba0 f   libvcruntimed:undname.obj
 0001:00042bd0       ??4DName@@QEAAAEAV0@D@Z    0000000180043bd0 f i libvcruntimed:undname.obj
 0001:00042c20       ??4DName@@QEAAAEAV0@PEAV0@@Z 0000000180043c20 f   libvcruntimed:undname.obj
 0001:00042cf0       ??4DName@@QEAAAEAV0@PEBD@Z 0000000180043cf0 f   libvcruntimed:undname.obj
 0001:00042d40       ??4DName@@QEAAAEAV0@W4DNameStatus@@@Z 0000000180043d40 f   libvcruntimed:undname.obj
 0001:00042dd0       ??AReplicator@@QEBA?AVDName@@H@Z 0000000180043dd0 f   libvcruntimed:undname.obj
 0001:00042e60       ??H@YA?AVDName@@DAEBV0@@Z  0000000180043e60 f i libvcruntimed:undname.obj
 0001:00042eb0       ??H@YA?AVDName@@PEBDAEBV0@@Z 0000000180043eb0 f i libvcruntimed:undname.obj
 0001:00042f00       ??H@YA?AVDName@@W4DNameStatus@@AEBV0@@Z 0000000180043f00 f i libvcruntimed:undname.obj
 0001:00042f50       ??HDName@@QEBA?AV0@AEBV0@@Z 0000000180043f50 f   libvcruntimed:undname.obj
 0001:00042fa0       ??HDName@@QEBA?AV0@D@Z     0000000180043fa0 f   libvcruntimed:undname.obj
 0001:00042ff0       ??HDName@@QEBA?AV0@PEAV0@@Z 0000000180043ff0 f   libvcruntimed:undname.obj
 0001:00043040       ??HDName@@QEBA?AV0@PEBD@Z  0000000180044040 f   libvcruntimed:undname.obj
 0001:00043090       ??HDName@@QEBA?AV0@W4DNameStatus@@@Z 0000000180044090 f   libvcruntimed:undname.obj
 0001:000430e0       ??YDName@@QEAAAEAV0@AEBV0@@Z 00000001800440e0 f   libvcruntimed:undname.obj
 0001:00043170       ??YDName@@QEAAAEAV0@D@Z    0000000180044170 f   libvcruntimed:undname.obj
 0001:00043210       ??YDName@@QEAAAEAV0@PEAV0@@Z 0000000180044210 f   libvcruntimed:undname.obj
 0001:00043300       ??YDName@@QEAAAEAV0@PEBD@Z 0000000180044300 f   libvcruntimed:undname.obj
 0001:000433c0       ??YDName@@QEAAAEAV0@W4DNameStatus@@@Z 00000001800443c0 f   libvcruntimed:undname.obj
 0001:00043430       ??YReplicator@@QEAAAEAV0@AEBVDName@@@Z 0000000180044430 f   libvcruntimed:undname.obj
 0001:000434f0       ??_5DName@@QEAAAEAV0@AEBV0@@Z 00000001800444f0 f   libvcruntimed:undname.obj
 0001:00043560       ?Constructor@_HeapManager@@QEAAXP6APEAX_K@ZP6AXPEAX@Z@Z 0000000180044560 f i libvcruntimed:undname.obj
 0001:000435c0       ?Destructor@_HeapManager@@QEAAXXZ 00000001800445c0 f i libvcruntimed:undname.obj
 0001:00043640       ?UScore@UnDecorator@@SAPEBDW4Tokens@@@Z 0000000180044640 f   libvcruntimed:undname.obj
 0001:00043680       ?append@DName@@AEAAXPEBVDNameNode@@@Z 0000000180044680 f   libvcruntimed:undname.obj
 0001:00043730       ?composeDeclaration@UnDecorator@@CA?AVDName@@AEBV2@@Z 0000000180044730 f i libvcruntimed:undname.obj
 0001:00045ad0       ?dbGetString@DName@@QEBAPEADXZ 0000000180046ad0 f   libvcruntimed:undname.obj
 0001:00045b00       ?doAccessSpecifiers@UnDecorator@@SAHXZ 0000000180046b00 f i libvcruntimed:undname.obj
 0001:00045b30       ?doAllocationLanguage@UnDecorator@@SAHXZ 0000000180046b30 f i libvcruntimed:undname.obj
 0001:00045b60       ?doAllocationModel@UnDecorator@@SAHXZ 0000000180046b60 f i libvcruntimed:undname.obj
 0001:00045b90       ?doEcsu@UnDecorator@@SAHXZ 0000000180046b90 f i libvcruntimed:undname.obj
 0001:00045bc0       ?doEllipsis@UnDecorator@@SAHXZ 0000000180046bc0 f i libvcruntimed:undname.obj
 0001:00045bf0       ?doFunctionReturns@UnDecorator@@SAHXZ 0000000180046bf0 f i libvcruntimed:undname.obj
 0001:00045c20       ?doMSKeywords@UnDecorator@@SAHXZ 0000000180046c20 f i libvcruntimed:undname.obj
 0001:00045c50       ?doMemberTypes@UnDecorator@@SAHXZ 0000000180046c50 f i libvcruntimed:undname.obj
 0001:00045c80       ?doNameOnly@UnDecorator@@SAHXZ 0000000180046c80 f i libvcruntimed:undname.obj
 0001:00045c90       ?doNoIdentCharCheck@UnDecorator@@SAHXZ 0000000180046c90 f i libvcruntimed:undname.obj
 0001:00045ca0       ?doPchar@DName@@AEAAXPEBDH@Z 0000000180046ca0 f   libvcruntimed:undname.obj
 0001:00045e30       ?doPtr64@UnDecorator@@SAHXZ 0000000180046e30 f i libvcruntimed:undname.obj
 0001:00045e60       ?doRestrictionSpec@UnDecorator@@SAHXZ 0000000180046e60 f i libvcruntimed:undname.obj
 0001:00045e90       ?doThisTypes@UnDecorator@@SAHXZ 0000000180046e90 f i libvcruntimed:undname.obj
 0001:00045ec0       ?doThrowTypes@UnDecorator@@SAHXZ 0000000180046ec0 f i libvcruntimed:undname.obj
 0001:00045ef0       ?doTypeOnly@UnDecorator@@SAHXZ 0000000180046ef0 f i libvcruntimed:undname.obj
 0001:00045f00       ?doUnderScore@UnDecorator@@SAHXZ 0000000180046f00 f i libvcruntimed:undname.obj
 0001:00045f30       ?getArgumentList@UnDecorator@@CA?AVDName@@XZ 0000000180046f30 f   libvcruntimed:undname.obj
 0001:000460e0       ?getArgumentTypes@UnDecorator@@CA?AVDName@@XZ 00000001800470e0 f   libvcruntimed:undname.obj
 0001:00046290       ?getArrayType@UnDecorator@@CA?AVDName@@AEBV2@@Z 0000000180047290 f i libvcruntimed:undname.obj
 0001:00046610       ?getBasedType@UnDecorator@@CA?AVDName@@XZ 0000000180047610 f   libvcruntimed:undname.obj
 0001:00046710       ?getBasicDataType@UnDecorator@@CA?AVDName@@AEBV2@@Z 0000000180047710 f   libvcruntimed:undname.obj
 0001:00046eb0       ?getCHPEName@UnDecorator@@QEAAPEADPEADH@Z 0000000180047eb0 f i libvcruntimed:undname.obj
 0001:00047080       ?getCallIndex@UnDecorator@@CA?AVDName@@XZ 0000000180048080 f i libvcruntimed:undname.obj
 0001:000470a0       ?getCallingConvention@UnDecorator@@CA?AVDName@@XZ 00000001800480a0 f   libvcruntimed:undname.obj
 0001:00047350       ?getDataIndirectType@UnDecorator@@CA?AVDName@@AEBV2@PEBD0H@Z 0000000180048350 f   libvcruntimed:undname.obj
 0001:00047f30       ?getDataIndirectType@UnDecorator@@CA?AVDName@@XZ 0000000180048f30 f i libvcruntimed:undname.obj
 0001:00047f90       ?getDataType@UnDecorator@@CA?AVDName@@PEAV2@@Z 0000000180048f90 f   libvcruntimed:undname.obj
 0001:00048120       ?getDecoratedName@UnDecorator@@CA?AVDName@@XZ 0000000180049120 f   libvcruntimed:undname.obj
 0001:000485e0       ?getDimension@UnDecorator@@CA?AVDName@@_N@Z 00000001800495e0 f   libvcruntimed:undname.obj
 0001:00048940       ?getDispatchTarget@UnDecorator@@CA?AVDName@@XZ 0000000180049940 f   libvcruntimed:undname.obj
 0001:00048a10       ?getDisplacement@UnDecorator@@CA?AVDName@@XZ 0000000180049a10 f i libvcruntimed:undname.obj
 0001:00048a30       ?getECSUDataType@UnDecorator@@CA?AVDName@@XZ 0000000180049a30 f   libvcruntimed:undname.obj
 0001:00048c80       ?getECSUName@UnDecorator@@CA?AVDName@@XZ 0000000180049c80 f i libvcruntimed:undname.obj
 0001:00048ca0       ?getEnumType@UnDecorator@@CA?AVDName@@XZ 0000000180049ca0 f i libvcruntimed:undname.obj
 0001:00048e30       ?getExtendedDataIndirectType@UnDecorator@@CA?AVDName@@AEAPEBDAEA_NH@Z 0000000180049e30 f   libvcruntimed:undname.obj
 0001:00049170       ?getExternalDataType@UnDecorator@@CA?AVDName@@AEBV2@@Z 000000018004a170 f i libvcruntimed:undname.obj
 0001:00049250       ?getFunctionIndirectType@UnDecorator@@CA?AVDName@@AEBV2@@Z 000000018004a250 f   libvcruntimed:undname.obj
 0001:00049920       ?getGuardNumber@UnDecorator@@CA?AVDName@@XZ 000000018004a920 f i libvcruntimed:undname.obj
 0001:00049940       ?getLastChar@DName@@QEBADXZ 000000018004a940 f i libvcruntimed:undname.obj
 0001:00049990       ?getLastChar@DNameStatusNode@@UEBADXZ 000000018004a990 f i libvcruntimed:undname.obj
 0001:000499d0       ?getLastChar@charNode@@UEBADXZ 000000018004a9d0 f i libvcruntimed:undname.obj
 0001:000499e0       ?getLastChar@pDNameNode@@UEBADXZ 000000018004a9e0 f i libvcruntimed:undname.obj
 0001:00049a20       ?getLastChar@pairNode@@UEBADXZ 000000018004aa20 f i libvcruntimed:undname.obj
 0001:00049aa0       ?getLastChar@pcharNode@@UEBADXZ 000000018004aaa0 f i libvcruntimed:undname.obj
 0001:00049ae0       ?getLexicalFrame@UnDecorator@@CA?AVDName@@XZ 000000018004aae0 f i libvcruntimed:undname.obj
 0001:00049b30       ?getMemory@_HeapManager@@QEAAPEAX_KH@Z 000000018004ab30 f   libvcruntimed:undname.obj
 0001:00049cb0       ?getNoexcept@UnDecorator@@CA?AVDName@@XZ 000000018004acb0 f   libvcruntimed:undname.obj
 0001:00049d40       ?getNumberOfDimensions@UnDecorator@@CAHXZ 000000018004ad40 f   libvcruntimed:undname.obj
 0001:00049e60       ?getOperatorName@UnDecorator@@CA?AVDName@@_NPEA_N@Z 000000018004ae60 f i libvcruntimed:undname.obj
 0001:0004acc0       ?getPointerType@UnDecorator@@CA?AVDName@@AEBV2@0@Z 000000018004bcc0 f i libvcruntimed:undname.obj
 0001:0004ad10       ?getPointerTypeArray@UnDecorator@@CA?AVDName@@AEBV2@0@Z 000000018004bd10 f i libvcruntimed:undname.obj
 0001:0004ad60       ?getPrimaryDataType@UnDecorator@@CA?AVDName@@AEBV2@@Z 000000018004bd60 f   libvcruntimed:undname.obj
 0001:0004b250       ?getPtrRefDataType@UnDecorator@@CA?AVDName@@AEBV2@H@Z 000000018004c250 f   libvcruntimed:undname.obj
 0001:0004b4f0       ?getPtrRefType@UnDecorator@@CA?AVDName@@AEBV2@0PEBD@Z 000000018004c4f0 f   libvcruntimed:undname.obj
 0001:0004b700       ?getReferenceType@UnDecorator@@CA?AVDName@@AEBV2@0PEBD@Z 000000018004c700 f i libvcruntimed:undname.obj
 0001:0004b740       ?getRestrictionSpec@UnDecorator@@CA?AVDName@@XZ 000000018004c740 f   libvcruntimed:undname.obj
 0001:0004b910       ?getReturnType@UnDecorator@@CA?AVDName@@PEAV2@@Z 000000018004c910 f   libvcruntimed:undname.obj
 0001:0004b970       ?getScope@UnDecorator@@CA?AVDName@@XZ 000000018004c970 f   libvcruntimed:undname.obj
 0001:0004c090       ?getScopedName@UnDecorator@@CA?AVDName@@XZ 000000018004d090 f   libvcruntimed:undname.obj
 0001:0004c240       ?getSignedDimension@UnDecorator@@CA?AVDName@@XZ 000000018004d240 f   libvcruntimed:undname.obj
 0001:0004c2d0       ?getStorageConvention@UnDecorator@@CA?AVDName@@XZ 000000018004d2d0 f i libvcruntimed:undname.obj
 0001:0004c2f0       ?getString@DName@@QEBAPEADPEAD0@Z 000000018004d2f0 f i libvcruntimed:undname.obj
 0001:0004c370       ?getString@DName@@QEBAPEADPEADH@Z 000000018004d370 f i libvcruntimed:undname.obj
 0001:0004c430       ?getString@DNameStatusNode@@UEBAPEADPEAD0@Z 000000018004d430 f i libvcruntimed:undname.obj
 0001:0004c480       ?getString@charNode@@UEBAPEADPEAD0@Z 000000018004d480 f i libvcruntimed:undname.obj
 0001:0004c4c0       ?getString@pDNameNode@@UEBAPEADPEAD0@Z 000000018004d4c0 f i libvcruntimed:undname.obj
 0001:0004c520       ?getString@pairNode@@UEBAPEADPEAD0@Z 000000018004d520 f i libvcruntimed:undname.obj
 0001:0004c5f0       ?getString@pcharNode@@UEBAPEADPEAD0@Z 000000018004d5f0 f i libvcruntimed:undname.obj
 0001:0004c630       ?getStringEncoding@UnDecorator@@CA?AVDName@@PEBDH@Z 000000018004d630 f   libvcruntimed:undname.obj
 0001:0004c770       ?getStringHelper@@YAPEADPEADPEBD1H@Z 000000018004d770 f i libvcruntimed:undname.obj
 0001:0004c7e0       ?getSymbolName@UnDecorator@@CA?AVDName@@XZ 000000018004d7e0 f i libvcruntimed:undname.obj
 0001:0004c880       ?getTemplateArgumentList@UnDecorator@@CA?AVDName@@XZ 000000018004d880 f   libvcruntimed:undname.obj
 0001:0004cd40       ?getTemplateConstant@UnDecorator@@CA?AVDName@@XZ 000000018004dd40 f   libvcruntimed:undname.obj
 0001:0004d460       ?getTemplateName@UnDecorator@@CA?AVDName@@_N@Z 000000018004e460 f   libvcruntimed:undname.obj
 0001:0004d6c0       ?getThisType@UnDecorator@@CA?AVDName@@XZ 000000018004e6c0 f i libvcruntimed:undname.obj
 0001:0004d720       ?getThrowTypes@UnDecorator@@CA?AVDName@@XZ 000000018004e720 f   libvcruntimed:undname.obj
 0001:0004d770       ?getTypeEncoding@UnDecorator@@CAHXZ 000000018004e770 f i libvcruntimed:undname.obj
 0001:0004e370       ?getUndecoratedName@UnDecorator@@QEAAPEADPEADH@Z 000000018004f370 f i libvcruntimed:undname.obj
 0001:0004e530       ?getVCallThunkType@UnDecorator@@CA?AVDName@@XZ 000000018004f530 f i libvcruntimed:undname.obj
 0001:0004e5b0       ?getVbTableType@UnDecorator@@CA?AVDName@@AEBV2@@Z 000000018004f5b0 f i libvcruntimed:undname.obj
 0001:0004e5e0       ?getVdispMapType@UnDecorator@@CA?AVDName@@AEBV2@@Z 000000018004f5e0 f i libvcruntimed:undname.obj
 0001:0004e680       ?getVfTableType@UnDecorator@@CA?AVDName@@AEBV2@@Z 000000018004f680 f i libvcruntimed:undname.obj
 0001:0004e8e0       ?getZName@UnDecorator@@CA?AVDName@@_N0@Z 000000018004f8e0 f   libvcruntimed:undname.obj
 0001:0004ecd0       ?haveTemplateParameters@UnDecorator@@SAHXZ 000000018004fcd0 f i libvcruntimed:undname.obj
 0001:0004ece0       ?isArray@DName@@QEBAHXZ    000000018004fce0 f i libvcruntimed:undname.obj
 0001:0004ed00       ?isComArray@DName@@QEBAHXZ 000000018004fd00 f i libvcruntimed:undname.obj
 0001:0004ed20       ?isEmpty@DName@@QEBAHXZ    000000018004fd20 f i libvcruntimed:undname.obj
 0001:0004ed50       ?isFull@Replicator@@QEBAHXZ 000000018004fd50 f i libvcruntimed:undname.obj
 0001:0004ed80       ?isNoTE@DName@@QEBAHXZ     000000018004fd80 f i libvcruntimed:undname.obj
 0001:0004eda0       ?isPinPtr@DName@@QEBAHXZ   000000018004fda0 f i libvcruntimed:undname.obj
 0001:0004edc0       ?isPtrRef@DName@@QEBAHXZ   000000018004fdc0 f i libvcruntimed:undname.obj
 0001:0004ede0       ?isUDC@DName@@QEBAHXZ      000000018004fde0 f i libvcruntimed:undname.obj
 0001:0004ee30       ?isUDTThunk@DName@@QEBAHXZ 000000018004fe30 f i libvcruntimed:undname.obj
 0001:0004ee80       ?isVCallThunk@DName@@QEBAHXZ 000000018004fe80 f i libvcruntimed:undname.obj
 0001:0004eea0       ?isValid@DName@@QEBAHXZ    000000018004fea0 f i libvcruntimed:undname.obj
 0001:0004eee0       ?length@DName@@QEBAHXZ     000000018004fee0 f i libvcruntimed:undname.obj
 0001:0004ef30       ?length@DNameStatusNode@@UEBAHXZ 000000018004ff30 f i libvcruntimed:undname.obj
 0001:0004ef40       ?length@charNode@@UEBAHXZ  000000018004ff40 f i libvcruntimed:undname.obj
 0001:0004ef50       ?length@pDNameNode@@UEBAHXZ 000000018004ff50 f i libvcruntimed:undname.obj
 0001:0004ef90       ?length@pairNode@@UEBAHXZ  000000018004ff90 f i libvcruntimed:undname.obj
 0001:0004f020       ?length@pcharNode@@UEBAHXZ 0000000180050020 f i libvcruntimed:undname.obj
 0001:0004f030       ?make@DNameStatusNode@@SAPEBV1@W4DNameStatus@@@Z 0000000180050030 f i libvcruntimed:undname.obj
 0001:0004f080       ?parseDecoratedName@UnDecorator@@CA?AVDName@@XZ 0000000180050080 f   libvcruntimed:undname.obj
 0001:0004f260       ?setIsArray@DName@@QEAAXXZ 0000000180050260 f i libvcruntimed:undname.obj
 0001:0004f280       ?setIsComArray@DName@@QEAAXXZ 0000000180050280 f i libvcruntimed:undname.obj
 0001:0004f2a0       ?setIsNoTE@DName@@QEAAXXZ  00000001800502a0 f i libvcruntimed:undname.obj
 0001:0004f2c0       ?setIsPinPtr@DName@@QEAAXXZ 00000001800502c0 f i libvcruntimed:undname.obj
 0001:0004f2e0       ?setIsUDC@DName@@QEAAXXZ   00000001800502e0 f i libvcruntimed:undname.obj
 0001:0004f310       ?setIsVCallThunk@DName@@QEAAXXZ 0000000180050310 f i libvcruntimed:undname.obj
 0001:0004f330       ?setPtrRef@DName@@QEAAAEAV1@XZ 0000000180050330 f i libvcruntimed:undname.obj
 0001:0004f350       ?status@DName@@QEBA?AW4DNameStatus@@XZ 0000000180050350 f i libvcruntimed:undname.obj
 0001:0004f480       __unDName                  0000000180050480 f   libvcruntimed:undname.obj
 0001:0004f4e0       __unDNameEx                00000001800504e0 f   libvcruntimed:undname.obj
 0001:0004f5a0       unDNameGenerateCHPE        00000001800505a0 f   libvcruntimed:undname.obj
 0001:0004f660       _CallSettingFrame          0000000180050660 f   libvcruntimed:handlers.obj
 0001:0004f6b0       _CallSettingFrameEncoded   00000001800506b0 f   libvcruntimed:handlers.obj
 0001:0004f700       ??$?0AEBV?$stream_output_adapter@D@__crt_stdio_output@@AEB_KAEBQEBDAEBQEAU__crt_locale_pointers@@AEBQEAD@?$format_validation_base@DV?$stream_output_adapter@D@__crt_stdio_output@@@__crt_stdio_output@@IEAA@AEBV?$stream_output_adapter@D@1@AEB_KAEBQEBDAEBQEAU__crt_locale_pointers@@AEBQEAD@Z 0000000180050700 f i libucrtd:output.obj
 0001:0004f750       ??$?0AEBV?$stream_output_adapter@D@__crt_stdio_output@@AEB_KAEBQEBDAEBQEAU__crt_locale_pointers@@AEBQEAD@?$positional_parameter_base@DV?$stream_output_adapter@D@__crt_stdio_output@@@__crt_stdio_output@@IEAA@AEBV?$stream_output_adapter@D@1@AEB_KAEBQEBDAEBQEAU__crt_locale_pointers@@AEBQEAD@Z 0000000180050750 f i libucrtd:output.obj
 0001:0004f7f0       ??$?0AEBV?$stream_output_adapter@D@__crt_stdio_output@@AEB_KAEBQEBDAEBQEAU__crt_locale_pointers@@AEBQEAD@?$standard_base@DV?$stream_output_adapter@D@__crt_stdio_output@@@__crt_stdio_output@@IEAA@AEBV?$stream_output_adapter@D@1@AEB_KAEBQEBDAEBQEAU__crt_locale_pointers@@AEBQEAD@Z 00000001800507f0 f i libucrtd:output.obj
 0001:0004f860       ??$?0AEBV?$stream_output_adapter@_W@__crt_stdio_output@@AEB_KAEBQEB_WAEBQEAU__crt_locale_pointers@@AEBQEAD@?$format_validation_base@_WV?$stream_output_adapter@_W@__crt_stdio_output@@@__crt_stdio_output@@IEAA@AEBV?$stream_output_adapter@_W@1@AEB_KAEBQEB_WAEBQEAU__crt_locale_pointers@@AEBQEAD@Z 0000000180050860 f i libucrtd:output.obj
 0001:0004f8b0       ??$?0AEBV?$stream_output_adapter@_W@__crt_stdio_output@@AEB_KAEBQEB_WAEBQEAU__crt_locale_pointers@@AEBQEAD@?$positional_parameter_base@_WV?$stream_output_adapter@_W@__crt_stdio_output@@@__crt_stdio_output@@IEAA@AEBV?$stream_output_adapter@_W@1@AEB_KAEBQEB_WAEBQEAU__crt_locale_pointers@@AEBQEAD@Z 00000001800508b0 f i libucrtd:output.obj
 0001:0004f950       ??$?0AEBV?$stream_output_adapter@_W@__crt_stdio_output@@AEB_KAEBQEB_WAEBQEAU__crt_locale_pointers@@AEBQEAD@?$standard_base@_WV?$stream_output_adapter@_W@__crt_stdio_output@@@__crt_stdio_output@@IEAA@AEBV?$stream_output_adapter@_W@1@AEB_KAEBQEB_WAEBQEAU__crt_locale_pointers@@AEBQEAD@Z 0000000180050950 f i libucrtd:output.obj
 0001:0004f9c0       ??$?0AEBV?$string_output_adapter@D@__crt_stdio_output@@AEB_KAEBQEBDAEBQEAU__crt_locale_pointers@@AEBQEAD@?$format_validation_base@DV?$string_output_adapter@D@__crt_stdio_output@@@__crt_stdio_output@@IEAA@AEBV?$string_output_adapter@D@1@AEB_KAEBQEBDAEBQEAU__crt_locale_pointers@@AEBQEAD@Z 00000001800509c0 f i libucrtd:output.obj
 0001:0004fa10       ??$?0AEBV?$string_output_adapter@D@__crt_stdio_output@@AEB_KAEBQEBDAEBQEAU__crt_locale_pointers@@AEBQEAD@?$positional_parameter_base@DV?$string_output_adapter@D@__crt_stdio_output@@@__crt_stdio_output@@IEAA@AEBV?$string_output_adapter@D@1@AEB_KAEBQEBDAEBQEAU__crt_locale_pointers@@AEBQEAD@Z 0000000180050a10 f i libucrtd:output.obj
 0001:0004fab0       ??$?0AEBV?$string_output_adapter@D@__crt_stdio_output@@AEB_KAEBQEBDAEBQEAU__crt_locale_pointers@@AEBQEAD@?$standard_base@DV?$string_output_adapter@D@__crt_stdio_output@@@__crt_stdio_output@@IEAA@AEBV?$string_output_adapter@D@1@AEB_KAEBQEBDAEBQEAU__crt_locale_pointers@@AEBQEAD@Z 0000000180050ab0 f i libucrtd:output.obj
 0001:0004fb20       ??$?0AEBV?$string_output_adapter@_W@__crt_stdio_output@@AEB_KAEBQEB_WAEBQEAU__crt_locale_pointers@@AEBQEAD@?$format_validation_base@_WV?$string_output_adapter@_W@__crt_stdio_output@@@__crt_stdio_output@@IEAA@AEBV?$string_output_adapter@_W@1@AEB_KAEBQEB_WAEBQEAU__crt_locale_pointers@@AEBQEAD@Z 0000000180050b20 f i libucrtd:output.obj
 0001:0004fb70       ??$?0AEBV?$string_output_adapter@_W@__crt_stdio_output@@AEB_KAEBQEB_WAEBQEAU__crt_locale_pointers@@AEBQEAD@?$positional_parameter_base@_WV?$string_output_adapter@_W@__crt_stdio_output@@@__crt_stdio_output@@IEAA@AEBV?$string_output_adapter@_W@1@AEB_KAEBQEB_WAEBQEAU__crt_locale_pointers@@AEBQEAD@Z 0000000180050b70 f i libucrtd:output.obj
 0001:0004fc10       ??$?0AEBV?$string_output_adapter@_W@__crt_stdio_output@@AEB_KAEBQEB_WAEBQEAU__crt_locale_pointers@@AEBQEAD@?$standard_base@_WV?$string_output_adapter@_W@__crt_stdio_output@@@__crt_stdio_output@@IEAA@AEBV?$string_output_adapter@_W@1@AEB_KAEBQEB_WAEBQEAU__crt_locale_pointers@@AEBQEAD@Z 0000000180050c10 f i libucrtd:output.obj
 0001:0004fc80       ??$?RV<lambda_2647abb55a408a205467c4169a724277>@@AEAV<lambda_576477a770bb5ab586b2d9569451c7f7>@@V<lambda_c2b006f504a10a4cf14b9a1fbce2a01e>@@@?$__crt_seh_guarded_call@H@@QEAAH$$QEAV<lambda_2647abb55a408a205467c4169a724277>@@AEAV<lambda_576477a770bb5ab586b2d9569451c7f7>@@$$QEAV<lambda_c2b006f504a10a4cf14b9a1fbce2a01e>@@@Z 0000000180050c80 f i libucrtd:output.obj
 0001:0004fcd0       ??$?RV<lambda_2b8ba55cb2a29189d70f882b678c7350>@@AEAV<lambda_ab9668973a2a61b07c64846465621f55>@@V<lambda_748afda9c1ab82b4e15f74dcdf75db74>@@@?$__crt_seh_guarded_call@H@@QEAAH$$QEAV<lambda_2b8ba55cb2a29189d70f882b678c7350>@@AEAV<lambda_ab9668973a2a61b07c64846465621f55>@@$$QEAV<lambda_748afda9c1ab82b4e15f74dcdf75db74>@@@Z 0000000180050cd0 f i libucrtd:output.obj
 0001:0004fd20       ??$?RV<lambda_4942f9dcb8a83a0b649775421cdab7f2>@@AEAV<lambda_9fdeb54d99e6c7e515b8c19e0613d470>@@V<lambda_f61bc4569557b8ad96931f67d51af400>@@@?$__crt_seh_guarded_call@H@@QEAAH$$QEAV<lambda_4942f9dcb8a83a0b649775421cdab7f2>@@AEAV<lambda_9fdeb54d99e6c7e515b8c19e0613d470>@@$$QEAV<lambda_f61bc4569557b8ad96931f67d51af400>@@@Z 0000000180050d20 f i libucrtd:output.obj
 0001:0004fd70       ??$?RV<lambda_7b91131dde12e1c3dfc74ff76b3f2eac>@@AEAV<lambda_dd75445284c072d0bd3768540cc698fa>@@V<lambda_16bc4ecb55b4718497c16bceaea2ceaf>@@@?$__crt_seh_guarded_call@H@@QEAAH$$QEAV<lambda_7b91131dde12e1c3dfc74ff76b3f2eac>@@AEAV<lambda_dd75445284c072d0bd3768540cc698fa>@@$$QEAV<lambda_16bc4ecb55b4718497c16bceaea2ceaf>@@@Z 0000000180050d70 f i libucrtd:output.obj
 0001:0004fdc0       ??$?RV<lambda_aa279a7bcb127014629d5b1d62c7325d>@@AEAV<lambda_0a64b6a4deda75c01876f29c44fc5eb3>@@V<lambda_3323e69fbefe9d1a11713e670d47cdfa>@@@?$__crt_seh_guarded_call@H@@QEAAH$$QEAV<lambda_aa279a7bcb127014629d5b1d62c7325d>@@AEAV<lambda_0a64b6a4deda75c01876f29c44fc5eb3>@@$$QEAV<lambda_3323e69fbefe9d1a11713e670d47cdfa>@@@Z 0000000180050dc0 f i libucrtd:output.obj
 0001:0004fe10       ??$?RV<lambda_c232a0c49490a30f399a8430f51b50ba>@@AEAV<lambda_7b6c652cce95ef5b7c2ff34f92bf0578>@@V<lambda_c415c6f6d9d103d7e93818ef66b8cc8a>@@@?$__crt_seh_guarded_call@H@@QEAAH$$QEAV<lambda_c232a0c49490a30f399a8430f51b50ba>@@AEAV<lambda_7b6c652cce95ef5b7c2ff34f92bf0578>@@$$QEAV<lambda_c415c6f6d9d103d7e93818ef66b8cc8a>@@@Z 0000000180050e10 f i libucrtd:output.obj
 0001:0004fe60       ??$__acrt_lock_stream_and_call@V<lambda_0a64b6a4deda75c01876f29c44fc5eb3>@@@@YAHQEAU_iobuf@@$$QEAV<lambda_0a64b6a4deda75c01876f29c44fc5eb3>@@@Z 0000000180050e60 f i libucrtd:output.obj
 0001:0004fed0       ??$__acrt_lock_stream_and_call@V<lambda_576477a770bb5ab586b2d9569451c7f7>@@@@YAHQEAU_iobuf@@$$QEAV<lambda_576477a770bb5ab586b2d9569451c7f7>@@@Z 0000000180050ed0 f i libucrtd:output.obj
 0001:0004ff40       ??$__acrt_lock_stream_and_call@V<lambda_7b6c652cce95ef5b7c2ff34f92bf0578>@@@@YAHQEAU_iobuf@@$$QEAV<lambda_7b6c652cce95ef5b7c2ff34f92bf0578>@@@Z 0000000180050f40 f i libucrtd:output.obj
 0001:0004ffb0       ??$__acrt_lock_stream_and_call@V<lambda_9fdeb54d99e6c7e515b8c19e0613d470>@@@@YAHQEAU_iobuf@@$$QEAV<lambda_9fdeb54d99e6c7e515b8c19e0613d470>@@@Z 0000000180050fb0 f i libucrtd:output.obj
 0001:00050020       ??$__acrt_lock_stream_and_call@V<lambda_ab9668973a2a61b07c64846465621f55>@@@@YAHQEAU_iobuf@@$$QEAV<lambda_ab9668973a2a61b07c64846465621f55>@@@Z 0000000180051020 f i libucrtd:output.obj
 0001:00050090       ??$__acrt_lock_stream_and_call@V<lambda_dd75445284c072d0bd3768540cc698fa>@@@@YAHQEAU_iobuf@@$$QEAV<lambda_dd75445284c072d0bd3768540cc698fa>@@@Z 0000000180051090 f i libucrtd:output.obj
 0001:00050100       ??$__crt_interlocked_read@J@@YAJPEDJ@Z 0000000180051100 f i libucrtd:output.obj
 0001:00053be0       ??$count@D@formatting_buffer@__crt_stdio_output@@QEBA_KXZ 0000000180054be0 f i libucrtd:output.obj
 0001:00053c30       ??$data@D@formatting_buffer@__crt_stdio_output@@QEAAPEADXZ 0000000180054c30 f i libucrtd:output.obj
 0001:00053c80       ??$data@_W@formatting_buffer@__crt_stdio_output@@QEAAPEA_WXZ 0000000180054c80 f i libucrtd:output.obj
 0001:00053cd0       ??$ensure_buffer_is_big_enough@D@formatting_buffer@__crt_stdio_output@@QEAA_N_K@Z 0000000180054cd0 f i libucrtd:output.obj
 0001:00053e00       ??$extract_argument_from_va_list@C_J@?$positional_parameter_base@DV?$stream_output_adapter@D@__crt_stdio_output@@@__crt_stdio_output@@IEAA_NAEA_J@Z 0000000180054e00 f i libucrtd:output.obj
 0001:00053f80       ??$extract_argument_from_va_list@C_J@?$positional_parameter_base@DV?$string_output_adapter@D@__crt_stdio_output@@@__crt_stdio_output@@IEAA_NAEA_J@Z 0000000180054f80 f i libucrtd:output.obj
 0001:00054100       ??$extract_argument_from_va_list@C_J@?$positional_parameter_base@_WV?$stream_output_adapter@_W@__crt_stdio_output@@@__crt_stdio_output@@IEAA_NAEA_J@Z 0000000180055100 f i libucrtd:output.obj
 0001:00054280       ??$extract_argument_from_va_list@C_J@?$positional_parameter_base@_WV?$string_output_adapter@_W@__crt_stdio_output@@@__crt_stdio_output@@IEAA_NAEA_J@Z 0000000180055280 f i libucrtd:output.obj
 0001:00054400       ??$extract_argument_from_va_list@C_J@?$standard_base@DV?$stream_output_adapter@D@__crt_stdio_output@@@__crt_stdio_output@@IEAA_NAEA_J@Z 0000000180055400 f i libucrtd:output.obj
 0001:00054440       ??$extract_argument_from_va_list@C_J@?$standard_base@DV?$string_output_adapter@D@__crt_stdio_output@@@__crt_stdio_output@@IEAA_NAEA_J@Z 0000000180055440 f i libucrtd:output.obj
 0001:00054480       ??$extract_argument_from_va_list@C_J@?$standard_base@_WV?$stream_output_adapter@_W@__crt_stdio_output@@@__crt_stdio_output@@IEAA_NAEA_J@Z 0000000180055480 f i libucrtd:output.obj
 0001:000544c0       ??$extract_argument_from_va_list@C_J@?$standard_base@_WV?$string_output_adapter@_W@__crt_stdio_output@@@__crt_stdio_output@@IEAA_NAEA_J@Z 00000001800554c0 f i libucrtd:output.obj
 0001:00054500       ??$extract_argument_from_va_list@E_J@?$positional_parameter_base@DV?$stream_output_adapter@D@__crt_stdio_output@@@__crt_stdio_output@@IEAA_NAEA_J@Z 0000000180055500 f i libucrtd:output.obj
 0001:00054680       ??$extract_argument_from_va_list@E_J@?$positional_parameter_base@DV?$string_output_adapter@D@__crt_stdio_output@@@__crt_stdio_output@@IEAA_NAEA_J@Z 0000000180055680 f i libucrtd:output.obj
 0001:00054800       ??$extract_argument_from_va_list@E_J@?$positional_parameter_base@_WV?$stream_output_adapter@_W@__crt_stdio_output@@@__crt_stdio_output@@IEAA_NAEA_J@Z 0000000180055800 f i libucrtd:output.obj
 0001:00054980       ??$extract_argument_from_va_list@E_J@?$positional_parameter_base@_WV?$string_output_adapter@_W@__crt_stdio_output@@@__crt_stdio_output@@IEAA_NAEA_J@Z 0000000180055980 f i libucrtd:output.obj
 0001:00054b00       ??$extract_argument_from_va_list@E_J@?$standard_base@DV?$stream_output_adapter@D@__crt_stdio_output@@@__crt_stdio_output@@IEAA_NAEA_J@Z 0000000180055b00 f i libucrtd:output.obj
 0001:00054b40       ??$extract_argument_from_va_list@E_J@?$standard_base@DV?$string_output_adapter@D@__crt_stdio_output@@@__crt_stdio_output@@IEAA_NAEA_J@Z 0000000180055b40 f i libucrtd:output.obj
 0001:00054b80       ??$extract_argument_from_va_list@E_J@?$standard_base@_WV?$stream_output_adapter@_W@__crt_stdio_output@@@__crt_stdio_output@@IEAA_NAEA_J@Z 0000000180055b80 f i libucrtd:output.obj
 0001:00054bc0       ??$extract_argument_from_va_list@E_J@?$standard_base@_WV?$string_output_adapter@_W@__crt_stdio_output@@@__crt_stdio_output@@IEAA_NAEA_J@Z 0000000180055bc0 f i libucrtd:output.obj
 0001:00054c00       ??$extract_argument_from_va_list@F_J@?$positional_parameter_base@DV?$stream_output_adapter@D@__crt_stdio_output@@@__crt_stdio_output@@IEAA_NAEA_J@Z 0000000180055c00 f i libucrtd:output.obj
 0001:00054d80       ??$extract_argument_from_va_list@F_J@?$positional_parameter_base@DV?$string_output_adapter@D@__crt_stdio_output@@@__crt_stdio_output@@IEAA_NAEA_J@Z 0000000180055d80 f i libucrtd:output.obj
 0001:00054f00       ??$extract_argument_from_va_list@F_J@?$positional_parameter_base@_WV?$stream_output_adapter@_W@__crt_stdio_output@@@__crt_stdio_output@@IEAA_NAEA_J@Z 0000000180055f00 f i libucrtd:output.obj
 0001:00055080       ??$extract_argument_from_va_list@F_J@?$positional_parameter_base@_WV?$string_output_adapter@_W@__crt_stdio_output@@@__crt_stdio_output@@IEAA_NAEA_J@Z 0000000180056080 f i libucrtd:output.obj
 0001:00055200       ??$extract_argument_from_va_list@F_J@?$standard_base@DV?$stream_output_adapter@D@__crt_stdio_output@@@__crt_stdio_output@@IEAA_NAEA_J@Z 0000000180056200 f i libucrtd:output.obj
 0001:00055240       ??$extract_argument_from_va_list@F_J@?$standard_base@DV?$string_output_adapter@D@__crt_stdio_output@@@__crt_stdio_output@@IEAA_NAEA_J@Z 0000000180056240 f i libucrtd:output.obj
 0001:00055280       ??$extract_argument_from_va_list@F_J@?$standard_base@_WV?$stream_output_adapter@_W@__crt_stdio_output@@@__crt_stdio_output@@IEAA_NAEA_J@Z 0000000180056280 f i libucrtd:output.obj
 0001:000552c0       ??$extract_argument_from_va_list@F_J@?$standard_base@_WV?$string_output_adapter@_W@__crt_stdio_output@@@__crt_stdio_output@@IEAA_NAEA_J@Z 00000001800562c0 f i libucrtd:output.obj
 0001:00055300       ??$extract_argument_from_va_list@GD@?$positional_parameter_base@DV?$stream_output_adapter@D@__crt_stdio_output@@@__crt_stdio_output@@IEAA_NAEAD@Z 0000000180056300 f i libucrtd:output.obj
 0001:00055480       ??$extract_argument_from_va_list@GD@?$positional_parameter_base@DV?$string_output_adapter@D@__crt_stdio_output@@@__crt_stdio_output@@IEAA_NAEAD@Z 0000000180056480 f i libucrtd:output.obj
 0001:00055600       ??$extract_argument_from_va_list@GD@?$standard_base@DV?$stream_output_adapter@D@__crt_stdio_output@@@__crt_stdio_output@@IEAA_NAEAD@Z 0000000180056600 f i libucrtd:output.obj
 0001:00055630       ??$extract_argument_from_va_list@GD@?$standard_base@DV?$string_output_adapter@D@__crt_stdio_output@@@__crt_stdio_output@@IEAA_NAEAD@Z 0000000180056630 f i libucrtd:output.obj
 0001:00055660       ??$extract_argument_from_va_list@G_J@?$positional_parameter_base@DV?$stream_output_adapter@D@__crt_stdio_output@@@__crt_stdio_output@@IEAA_NAEA_J@Z 0000000180056660 f i libucrtd:output.obj
 0001:000557e0       ??$extract_argument_from_va_list@G_J@?$positional_parameter_base@DV?$string_output_adapter@D@__crt_stdio_output@@@__crt_stdio_output@@IEAA_NAEA_J@Z 00000001800567e0 f i libucrtd:output.obj
 0001:00055960       ??$extract_argument_from_va_list@G_J@?$positional_parameter_base@_WV?$stream_output_adapter@_W@__crt_stdio_output@@@__crt_stdio_output@@IEAA_NAEA_J@Z 0000000180056960 f i libucrtd:output.obj
 0001:00055ae0       ??$extract_argument_from_va_list@G_J@?$positional_parameter_base@_WV?$string_output_adapter@_W@__crt_stdio_output@@@__crt_stdio_output@@IEAA_NAEA_J@Z 0000000180056ae0 f i libucrtd:output.obj
 0001:00055c60       ??$extract_argument_from_va_list@G_J@?$standard_base@DV?$stream_output_adapter@D@__crt_stdio_output@@@__crt_stdio_output@@IEAA_NAEA_J@Z 0000000180056c60 f i libucrtd:output.obj
 0001:00055ca0       ??$extract_argument_from_va_list@G_J@?$standard_base@DV?$string_output_adapter@D@__crt_stdio_output@@@__crt_stdio_output@@IEAA_NAEA_J@Z 0000000180056ca0 f i libucrtd:output.obj
 0001:00055ce0       ??$extract_argument_from_va_list@G_J@?$standard_base@_WV?$stream_output_adapter@_W@__crt_stdio_output@@@__crt_stdio_output@@IEAA_NAEA_J@Z 0000000180056ce0 f i libucrtd:output.obj
 0001:00055d20       ??$extract_argument_from_va_list@G_J@?$standard_base@_WV?$string_output_adapter@_W@__crt_stdio_output@@@__crt_stdio_output@@IEAA_NAEA_J@Z 0000000180056d20 f i libucrtd:output.obj
 0001:00055d60       ??$extract_argument_from_va_list@H_J@?$positional_parameter_base@DV?$stream_output_adapter@D@__crt_stdio_output@@@__crt_stdio_output@@IEAA_NAEA_J@Z 0000000180056d60 f i libucrtd:output.obj
 0001:00055ee0       ??$extract_argument_from_va_list@H_J@?$positional_parameter_base@DV?$string_output_adapter@D@__crt_stdio_output@@@__crt_stdio_output@@IEAA_NAEA_J@Z 0000000180056ee0 f i libucrtd:output.obj
 0001:00056060       ??$extract_argument_from_va_list@H_J@?$positional_parameter_base@_WV?$stream_output_adapter@_W@__crt_stdio_output@@@__crt_stdio_output@@IEAA_NAEA_J@Z 0000000180057060 f i libucrtd:output.obj
 0001:000561e0       ??$extract_argument_from_va_list@H_J@?$positional_parameter_base@_WV?$string_output_adapter@_W@__crt_stdio_output@@@__crt_stdio_output@@IEAA_NAEA_J@Z 00000001800571e0 f i libucrtd:output.obj
 0001:00056360       ??$extract_argument_from_va_list@H_J@?$standard_base@DV?$stream_output_adapter@D@__crt_stdio_output@@@__crt_stdio_output@@IEAA_NAEA_J@Z 0000000180057360 f i libucrtd:output.obj
 0001:00056390       ??$extract_argument_from_va_list@H_J@?$standard_base@DV?$string_output_adapter@D@__crt_stdio_output@@@__crt_stdio_output@@IEAA_NAEA_J@Z 0000000180057390 f i libucrtd:output.obj
 0001:000563c0       ??$extract_argument_from_va_list@H_J@?$standard_base@_WV?$stream_output_adapter@_W@__crt_stdio_output@@@__crt_stdio_output@@IEAA_NAEA_J@Z 00000001800573c0 f i libucrtd:output.obj
 0001:000563f0       ??$extract_argument_from_va_list@H_J@?$standard_base@_WV?$string_output_adapter@_W@__crt_stdio_output@@@__crt_stdio_output@@IEAA_NAEA_J@Z 00000001800573f0 f i libucrtd:output.obj
 0001:00056420       ??$extract_argument_from_va_list@I_J@?$positional_parameter_base@DV?$stream_output_adapter@D@__crt_stdio_output@@@__crt_stdio_output@@IEAA_NAEA_J@Z 0000000180057420 f i libucrtd:output.obj
 0001:000565a0       ??$extract_argument_from_va_list@I_J@?$positional_parameter_base@DV?$string_output_adapter@D@__crt_stdio_output@@@__crt_stdio_output@@IEAA_NAEA_J@Z 00000001800575a0 f i libucrtd:output.obj
 0001:00056720       ??$extract_argument_from_va_list@I_J@?$positional_parameter_base@_WV?$stream_output_adapter@_W@__crt_stdio_output@@@__crt_stdio_output@@IEAA_NAEA_J@Z 0000000180057720 f i libucrtd:output.obj
 0001:000568a0       ??$extract_argument_from_va_list@I_J@?$positional_parameter_base@_WV?$string_output_adapter@_W@__crt_stdio_output@@@__crt_stdio_output@@IEAA_NAEA_J@Z 00000001800578a0 f i libucrtd:output.obj
 0001:00056a20       ??$extract_argument_from_va_list@I_J@?$standard_base@DV?$stream_output_adapter@D@__crt_stdio_output@@@__crt_stdio_output@@IEAA_NAEA_J@Z 0000000180057a20 f i libucrtd:output.obj
 0001:00056a50       ??$extract_argument_from_va_list@I_J@?$standard_base@DV?$string_output_adapter@D@__crt_stdio_output@@@__crt_stdio_output@@IEAA_NAEA_J@Z 0000000180057a50 f i libucrtd:output.obj
 0001:00056a80       ??$extract_argument_from_va_list@I_J@?$standard_base@_WV?$stream_output_adapter@_W@__crt_stdio_output@@@__crt_stdio_output@@IEAA_NAEA_J@Z 0000000180057a80 f i libucrtd:output.obj
 0001:00056ab0       ??$extract_argument_from_va_list@I_J@?$standard_base@_WV?$string_output_adapter@_W@__crt_stdio_output@@@__crt_stdio_output@@IEAA_NAEA_J@Z 0000000180057ab0 f i libucrtd:output.obj
 0001:00056ae0       ??$extract_argument_from_va_list@PEADPEAD@?$positional_parameter_base@DV?$stream_output_adapter@D@__crt_stdio_output@@@__crt_stdio_output@@IEAA_NAEAPEAD@Z 0000000180057ae0 f i libucrtd:output.obj
 0001:00056c60       ??$extract_argument_from_va_list@PEADPEAD@?$positional_parameter_base@DV?$string_output_adapter@D@__crt_stdio_output@@@__crt_stdio_output@@IEAA_NAEAPEAD@Z 0000000180057c60 f i libucrtd:output.obj
 0001:00056de0       ??$extract_argument_from_va_list@PEADPEAD@?$positional_parameter_base@_WV?$stream_output_adapter@_W@__crt_stdio_output@@@__crt_stdio_output@@IEAA_NAEAPEAD@Z 0000000180057de0 f i libucrtd:output.obj
 0001:00056f60       ??$extract_argument_from_va_list@PEADPEAD@?$positional_parameter_base@_WV?$string_output_adapter@_W@__crt_stdio_output@@@__crt_stdio_output@@IEAA_NAEAPEAD@Z 0000000180057f60 f i libucrtd:output.obj
 0001:000570e0       ??$extract_argument_from_va_list@PEADPEAD@?$standard_base@DV?$stream_output_adapter@D@__crt_stdio_output@@@__crt_stdio_output@@IEAA_NAEAPEAD@Z 00000001800580e0 f i libucrtd:output.obj
 0001:00057110       ??$extract_argument_from_va_list@PEADPEAD@?$standard_base@DV?$string_output_adapter@D@__crt_stdio_output@@@__crt_stdio_output@@IEAA_NAEAPEAD@Z 0000000180058110 f i libucrtd:output.obj
 0001:00057140       ??$extract_argument_from_va_list@PEADPEAD@?$standard_base@_WV?$stream_output_adapter@_W@__crt_stdio_output@@@__crt_stdio_output@@IEAA_NAEAPEAD@Z 0000000180058140 f i libucrtd:output.obj
 0001:00057170       ??$extract_argument_from_va_list@PEADPEAD@?$standard_base@_WV?$string_output_adapter@_W@__crt_stdio_output@@@__crt_stdio_output@@IEAA_NAEAPEAD@Z 0000000180058170 f i libucrtd:output.obj
 0001:000571a0       ??$extract_argument_from_va_list@PEAUansi_string@?1??type_case_Z@?$output_processor@DV?$stream_output_adapter@D@__crt_stdio_output@@V?$format_validation_base@DV?$stream_output_adapter@D@__crt_stdio_output@@@2@@__crt_stdio_output@@AEAA_NXZ@PEAU1?1??234@AEAA_NXZ@@?$standard_base@DV?$stream_output_adapter@D@__crt_stdio_output@@@__crt_stdio_output@@IEAA_NAEAPEAUansi_string@?1??type_case_Z@?$output_processor@DV?$stream_output_adapter@D@__crt_stdio_output@@V?$format_validation_base@DV?$stream_output_adapter@D@__crt_stdio_output@@@2@@1@AEAA_NXZ@@Z 00000001800581a0 f i libucrtd:output.obj
 0001:000571d0       ??$extract_argument_from_va_list@PEAUansi_string@?1??type_case_Z@?$output_processor@DV?$stream_output_adapter@D@__crt_stdio_output@@V?$positional_parameter_base@DV?$stream_output_adapter@D@__crt_stdio_output@@@2@@__crt_stdio_output@@AEAA_NXZ@PEAU1?1??234@AEAA_NXZ@@?$positional_parameter_base@DV?$stream_output_adapter@D@__crt_stdio_output@@@__crt_stdio_output@@IEAA_NAEAPEAUansi_string@?1??type_case_Z@?$output_processor@DV?$stream_output_adapter@D@__crt_stdio_output@@V?$positional_parameter_base@DV?$stream_output_adapter@D@__crt_stdio_output@@@2@@1@AEAA_NXZ@@Z 00000001800581d0 f i libucrtd:output.obj
 0001:00057350       ??$extract_argument_from_va_list@PEAUansi_string@?1??type_case_Z@?$output_processor@DV?$stream_output_adapter@D@__crt_stdio_output@@V?$positional_parameter_base@DV?$stream_output_adapter@D@__crt_stdio_output@@@2@@__crt_stdio_output@@AEAA_NXZ@PEAU1?1??234@AEAA_NXZ@@?$standard_base@DV?$stream_output_adapter@D@__crt_stdio_output@@@__crt_stdio_output@@IEAA_NAEAPEAUansi_string@?1??type_case_Z@?$output_processor@DV?$stream_output_adapter@D@__crt_stdio_output@@V?$positional_parameter_base@DV?$stream_output_adapter@D@__crt_stdio_output@@@2@@1@AEAA_NXZ@@Z 0000000180058350 f i libucrtd:output.obj
 0001:00057380       ??$extract_argument_from_va_list@PEAUansi_string@?1??type_case_Z@?$output_processor@DV?$stream_output_adapter@D@__crt_stdio_output@@V?$standard_base@DV?$stream_output_adapter@D@__crt_stdio_output@@@2@@__crt_stdio_output@@AEAA_NXZ@PEAU1?1??234@AEAA_NXZ@@?$standard_base@DV?$stream_output_adapter@D@__crt_stdio_output@@@__crt_stdio_output@@IEAA_NAEAPEAUansi_string@?1??type_case_Z@?$output_processor@DV?$stream_output_adapter@D@__crt_stdio_output@@V?$standard_base@DV?$stream_output_adapter@D@__crt_stdio_output@@@2@@1@AEAA_NXZ@@Z 0000000180058380 f i libucrtd:output.obj
 0001:000573b0       ??$extract_argument_from_va_list@PEAUansi_string@?1??type_case_Z@?$output_processor@DV?$string_output_adapter@D@__crt_stdio_output@@V?$format_validation_base@DV?$string_output_adapter@D@__crt_stdio_output@@@2@@__crt_stdio_output@@AEAA_NXZ@PEAU1?1??234@AEAA_NXZ@@?$standard_base@DV?$string_output_adapter@D@__crt_stdio_output@@@__crt_stdio_output@@IEAA_NAEAPEAUansi_string@?1??type_case_Z@?$output_processor@DV?$string_output_adapter@D@__crt_stdio_output@@V?$format_validation_base@DV?$string_output_adapter@D@__crt_stdio_output@@@2@@1@AEAA_NXZ@@Z 00000001800583b0 f i libucrtd:output.obj
 0001:000573e0       ??$extract_argument_from_va_list@PEAUansi_string@?1??type_case_Z@?$output_processor@DV?$string_output_adapter@D@__crt_stdio_output@@V?$positional_parameter_base@DV?$string_output_adapter@D@__crt_stdio_output@@@2@@__crt_stdio_output@@AEAA_NXZ@PEAU1?1??234@AEAA_NXZ@@?$positional_parameter_base@DV?$string_output_adapter@D@__crt_stdio_output@@@__crt_stdio_output@@IEAA_NAEAPEAUansi_string@?1??type_case_Z@?$output_processor@DV?$string_output_adapter@D@__crt_stdio_output@@V?$positional_parameter_base@DV?$string_output_adapter@D@__crt_stdio_output@@@2@@1@AEAA_NXZ@@Z 00000001800583e0 f i libucrtd:output.obj
 0001:00057560       ??$extract_argument_from_va_list@PEAUansi_string@?1??type_case_Z@?$output_processor@DV?$string_output_adapter@D@__crt_stdio_output@@V?$positional_parameter_base@DV?$string_output_adapter@D@__crt_stdio_output@@@2@@__crt_stdio_output@@AEAA_NXZ@PEAU1?1??234@AEAA_NXZ@@?$standard_base@DV?$string_output_adapter@D@__crt_stdio_output@@@__crt_stdio_output@@IEAA_NAEAPEAUansi_string@?1??type_case_Z@?$output_processor@DV?$string_output_adapter@D@__crt_stdio_output@@V?$positional_parameter_base@DV?$string_output_adapter@D@__crt_stdio_output@@@2@@1@AEAA_NXZ@@Z 0000000180058560 f i libucrtd:output.obj
 0001:00057590       ??$extract_argument_from_va_list@PEAUansi_string@?1??type_case_Z@?$output_processor@DV?$string_output_adapter@D@__crt_stdio_output@@V?$standard_base@DV?$string_output_adapter@D@__crt_stdio_output@@@2@@__crt_stdio_output@@AEAA_NXZ@PEAU1?1??234@AEAA_NXZ@@?$standard_base@DV?$string_output_adapter@D@__crt_stdio_output@@@__crt_stdio_output@@IEAA_NAEAPEAUansi_string@?1??type_case_Z@?$output_processor@DV?$string_output_adapter@D@__crt_stdio_output@@V?$standard_base@DV?$string_output_adapter@D@__crt_stdio_output@@@2@@1@AEAA_NXZ@@Z 0000000180058590 f i libucrtd:output.obj
 0001:000575c0       ??$extract_argument_from_va_list@PEAUansi_string@?1??type_case_Z@?$output_processor@_WV?$stream_output_adapter@_W@__crt_stdio_output@@V?$format_validation_base@_WV?$stream_output_adapter@_W@__crt_stdio_output@@@2@@__crt_stdio_output@@AEAA_NXZ@PEAU1?1??234@AEAA_NXZ@@?$standard_base@_WV?$stream_output_adapter@_W@__crt_stdio_output@@@__crt_stdio_output@@IEAA_NAEAPEAUansi_string@?1??type_case_Z@?$output_processor@_WV?$stream_output_adapter@_W@__crt_stdio_output@@V?$format_validation_base@_WV?$stream_output_adapter@_W@__crt_stdio_output@@@2@@1@AEAA_NXZ@@Z 00000001800585c0 f i libucrtd:output.obj
 0001:000575f0       ??$extract_argument_from_va_list@PEAUansi_string@?1??type_case_Z@?$output_processor@_WV?$stream_output_adapter@_W@__crt_stdio_output@@V?$positional_parameter_base@_WV?$stream_output_adapter@_W@__crt_stdio_output@@@2@@__crt_stdio_output@@AEAA_NXZ@PEAU1?1??234@AEAA_NXZ@@?$positional_parameter_base@_WV?$stream_output_adapter@_W@__crt_stdio_output@@@__crt_stdio_output@@IEAA_NAEAPEAUansi_string@?1??type_case_Z@?$output_processor@_WV?$stream_output_adapter@_W@__crt_stdio_output@@V?$positional_parameter_base@_WV?$stream_output_adapter@_W@__crt_stdio_output@@@2@@1@AEAA_NXZ@@Z 00000001800585f0 f i libucrtd:output.obj
 0001:00057770       ??$extract_argument_from_va_list@PEAUansi_string@?1??type_case_Z@?$output_processor@_WV?$stream_output_adapter@_W@__crt_stdio_output@@V?$positional_parameter_base@_WV?$stream_output_adapter@_W@__crt_stdio_output@@@2@@__crt_stdio_output@@AEAA_NXZ@PEAU1?1??234@AEAA_NXZ@@?$standard_base@_WV?$stream_output_adapter@_W@__crt_stdio_output@@@__crt_stdio_output@@IEAA_NAEAPEAUansi_string@?1??type_case_Z@?$output_processor@_WV?$stream_output_adapter@_W@__crt_stdio_output@@V?$positional_parameter_base@_WV?$stream_output_adapter@_W@__crt_stdio_output@@@2@@1@AEAA_NXZ@@Z 0000000180058770 f i libucrtd:output.obj
 0001:000577a0       ??$extract_argument_from_va_list@PEAUansi_string@?1??type_case_Z@?$output_processor@_WV?$stream_output_adapter@_W@__crt_stdio_output@@V?$standard_base@_WV?$stream_output_adapter@_W@__crt_stdio_output@@@2@@__crt_stdio_output@@AEAA_NXZ@PEAU1?1??234@AEAA_NXZ@@?$standard_base@_WV?$stream_output_adapter@_W@__crt_stdio_output@@@__crt_stdio_output@@IEAA_NAEAPEAUansi_string@?1??type_case_Z@?$output_processor@_WV?$stream_output_adapter@_W@__crt_stdio_output@@V?$standard_base@_WV?$stream_output_adapter@_W@__crt_stdio_output@@@2@@1@AEAA_NXZ@@Z 00000001800587a0 f i libucrtd:output.obj
 0001:000577d0       ??$extract_argument_from_va_list@PEAUansi_string@?1??type_case_Z@?$output_processor@_WV?$string_output_adapter@_W@__crt_stdio_output@@V?$format_validation_base@_WV?$string_output_adapter@_W@__crt_stdio_output@@@2@@__crt_stdio_output@@AEAA_NXZ@PEAU1?1??234@AEAA_NXZ@@?$standard_base@_WV?$string_output_adapter@_W@__crt_stdio_output@@@__crt_stdio_output@@IEAA_NAEAPEAUansi_string@?1??type_case_Z@?$output_processor@_WV?$string_output_adapter@_W@__crt_stdio_output@@V?$format_validation_base@_WV?$string_output_adapter@_W@__crt_stdio_output@@@2@@1@AEAA_NXZ@@Z 00000001800587d0 f i libucrtd:output.obj
 0001:00057800       ??$extract_argument_from_va_list@PEAUansi_string@?1??type_case_Z@?$output_processor@_WV?$string_output_adapter@_W@__crt_stdio_output@@V?$positional_parameter_base@_WV?$string_output_adapter@_W@__crt_stdio_output@@@2@@__crt_stdio_output@@AEAA_NXZ@PEAU1?1??234@AEAA_NXZ@@?$positional_parameter_base@_WV?$string_output_adapter@_W@__crt_stdio_output@@@__crt_stdio_output@@IEAA_NAEAPEAUansi_string@?1??type_case_Z@?$output_processor@_WV?$string_output_adapter@_W@__crt_stdio_output@@V?$positional_parameter_base@_WV?$string_output_adapter@_W@__crt_stdio_output@@@2@@1@AEAA_NXZ@@Z 0000000180058800 f i libucrtd:output.obj
 0001:00057980       ??$extract_argument_from_va_list@PEAUansi_string@?1??type_case_Z@?$output_processor@_WV?$string_output_adapter@_W@__crt_stdio_output@@V?$positional_parameter_base@_WV?$string_output_adapter@_W@__crt_stdio_output@@@2@@__crt_stdio_output@@AEAA_NXZ@PEAU1?1??234@AEAA_NXZ@@?$standard_base@_WV?$string_output_adapter@_W@__crt_stdio_output@@@__crt_stdio_output@@IEAA_NAEAPEAUansi_string@?1??type_case_Z@?$output_processor@_WV?$string_output_adapter@_W@__crt_stdio_output@@V?$positional_parameter_base@_WV?$string_output_adapter@_W@__crt_stdio_output@@@2@@1@AEAA_NXZ@@Z 0000000180058980 f i libucrtd:output.obj
 0001:000579b0       ??$extract_argument_from_va_list@PEAUansi_string@?1??type_case_Z@?$output_processor@_WV?$string_output_adapter@_W@__crt_stdio_output@@V?$standard_base@_WV?$string_output_adapter@_W@__crt_stdio_output@@@2@@__crt_stdio_output@@AEAA_NXZ@PEAU1?1??234@AEAA_NXZ@@?$standard_base@_WV?$string_output_adapter@_W@__crt_stdio_output@@@__crt_stdio_output@@IEAA_NAEAPEAUansi_string@?1??type_case_Z@?$output_processor@_WV?$string_output_adapter@_W@__crt_stdio_output@@V?$standard_base@_WV?$string_output_adapter@_W@__crt_stdio_output@@@2@@1@AEAA_NXZ@@Z 00000001800589b0 f i libucrtd:output.obj
 0001:000579e0       ??$extract_argument_from_va_list@PEAXPEAX@?$positional_parameter_base@DV?$stream_output_adapter@D@__crt_stdio_output@@@__crt_stdio_output@@IEAA_NAEAPEAX@Z 00000001800589e0 f i libucrtd:output.obj
 0001:00057b60       ??$extract_argument_from_va_list@PEAXPEAX@?$positional_parameter_base@DV?$string_output_adapter@D@__crt_stdio_output@@@__crt_stdio_output@@IEAA_NAEAPEAX@Z 0000000180058b60 f i libucrtd:output.obj
 0001:00057ce0       ??$extract_argument_from_va_list@PEAXPEAX@?$positional_parameter_base@_WV?$stream_output_adapter@_W@__crt_stdio_output@@@__crt_stdio_output@@IEAA_NAEAPEAX@Z 0000000180058ce0 f i libucrtd:output.obj
 0001:00057e60       ??$extract_argument_from_va_list@PEAXPEAX@?$positional_parameter_base@_WV?$string_output_adapter@_W@__crt_stdio_output@@@__crt_stdio_output@@IEAA_NAEAPEAX@Z 0000000180058e60 f i libucrtd:output.obj
 0001:00057fe0       ??$extract_argument_from_va_list@PEAXPEAX@?$standard_base@DV?$stream_output_adapter@D@__crt_stdio_output@@@__crt_stdio_output@@IEAA_NAEAPEAX@Z 0000000180058fe0 f i libucrtd:output.obj
 0001:00058010       ??$extract_argument_from_va_list@PEAXPEAX@?$standard_base@DV?$string_output_adapter@D@__crt_stdio_output@@@__crt_stdio_output@@IEAA_NAEAPEAX@Z 0000000180059010 f i libucrtd:output.obj
 0001:00058040       ??$extract_argument_from_va_list@PEAXPEAX@?$standard_base@_WV?$stream_output_adapter@_W@__crt_stdio_output@@@__crt_stdio_output@@IEAA_NAEAPEAX@Z 0000000180059040 f i libucrtd:output.obj
 0001:00058070       ??$extract_argument_from_va_list@PEAXPEAX@?$standard_base@_WV?$string_output_adapter@_W@__crt_stdio_output@@@__crt_stdio_output@@IEAA_NAEAPEAX@Z 0000000180059070 f i libucrtd:output.obj
 0001:000580a0       ??$extract_argument_from_va_list@U_CRT_DOUBLE@@U1@@?$positional_parameter_base@DV?$stream_output_adapter@D@__crt_stdio_output@@@__crt_stdio_output@@IEAA_NAEAU_CRT_DOUBLE@@@Z 00000001800590a0 f i libucrtd:output.obj
 0001:00058240       ??$extract_argument_from_va_list@U_CRT_DOUBLE@@U1@@?$positional_parameter_base@DV?$string_output_adapter@D@__crt_stdio_output@@@__crt_stdio_output@@IEAA_NAEAU_CRT_DOUBLE@@@Z 0000000180059240 f i libucrtd:output.obj
 0001:000583e0       ??$extract_argument_from_va_list@U_CRT_DOUBLE@@U1@@?$positional_parameter_base@_WV?$stream_output_adapter@_W@__crt_stdio_output@@@__crt_stdio_output@@IEAA_NAEAU_CRT_DOUBLE@@@Z 00000001800593e0 f i libucrtd:output.obj
 0001:00058580       ??$extract_argument_from_va_list@U_CRT_DOUBLE@@U1@@?$positional_parameter_base@_WV?$string_output_adapter@_W@__crt_stdio_output@@@__crt_stdio_output@@IEAA_NAEAU_CRT_DOUBLE@@@Z 0000000180059580 f i libucrtd:output.obj
 0001:00058720       ??$extract_argument_from_va_list@U_CRT_DOUBLE@@U1@@?$standard_base@DV?$stream_output_adapter@D@__crt_stdio_output@@@__crt_stdio_output@@IEAA_NAEAU_CRT_DOUBLE@@@Z 0000000180059720 f i libucrtd:output.obj
 0001:00058770       ??$extract_argument_from_va_list@U_CRT_DOUBLE@@U1@@?$standard_base@DV?$string_output_adapter@D@__crt_stdio_output@@@__crt_stdio_output@@IEAA_NAEAU_CRT_DOUBLE@@@Z 0000000180059770 f i libucrtd:output.obj
 0001:000587c0       ??$extract_argument_from_va_list@U_CRT_DOUBLE@@U1@@?$standard_base@_WV?$stream_output_adapter@_W@__crt_stdio_output@@@__crt_stdio_output@@IEAA_NAEAU_CRT_DOUBLE@@@Z 00000001800597c0 f i libucrtd:output.obj
 0001:00058810       ??$extract_argument_from_va_list@U_CRT_DOUBLE@@U1@@?$standard_base@_WV?$string_output_adapter@_W@__crt_stdio_output@@@__crt_stdio_output@@IEAA_NAEAU_CRT_DOUBLE@@@Z 0000000180059810 f i libucrtd:output.obj
 0001:00058860       ??$extract_argument_from_va_list@_J_J@?$positional_parameter_base@DV?$stream_output_adapter@D@__crt_stdio_output@@@__crt_stdio_output@@IEAA_NAEA_J@Z 0000000180059860 f i libucrtd:output.obj
 0001:000589e0       ??$extract_argument_from_va_list@_J_J@?$positional_parameter_base@DV?$string_output_adapter@D@__crt_stdio_output@@@__crt_stdio_output@@IEAA_NAEA_J@Z 00000001800599e0 f i libucrtd:output.obj
 0001:00058b60       ??$extract_argument_from_va_list@_J_J@?$positional_parameter_base@_WV?$stream_output_adapter@_W@__crt_stdio_output@@@__crt_stdio_output@@IEAA_NAEA_J@Z 0000000180059b60 f i libucrtd:output.obj
 0001:00058ce0       ??$extract_argument_from_va_list@_J_J@?$positional_parameter_base@_WV?$string_output_adapter@_W@__crt_stdio_output@@@__crt_stdio_output@@IEAA_NAEA_J@Z 0000000180059ce0 f i libucrtd:output.obj
 0001:00058e60       ??$extract_argument_from_va_list@_J_J@?$standard_base@DV?$stream_output_adapter@D@__crt_stdio_output@@@__crt_stdio_output@@IEAA_NAEA_J@Z 0000000180059e60 f i libucrtd:output.obj
 0001:00058e90       ??$extract_argument_from_va_list@_J_J@?$standard_base@DV?$string_output_adapter@D@__crt_stdio_output@@@__crt_stdio_output@@IEAA_NAEA_J@Z 0000000180059e90 f i libucrtd:output.obj
 0001:00058ec0       ??$extract_argument_from_va_list@_J_J@?$standard_base@_WV?$stream_output_adapter@_W@__crt_stdio_output@@@__crt_stdio_output@@IEAA_NAEA_J@Z 0000000180059ec0 f i libucrtd:output.obj
 0001:00058ef0       ??$extract_argument_from_va_list@_J_J@?$standard_base@_WV?$string_output_adapter@_W@__crt_stdio_output@@@__crt_stdio_output@@IEAA_NAEA_J@Z 0000000180059ef0 f i libucrtd:output.obj
 0001:00058f20       ??$extract_argument_from_va_list@_K_J@?$positional_parameter_base@DV?$stream_output_adapter@D@__crt_stdio_output@@@__crt_stdio_output@@IEAA_NAEA_J@Z 0000000180059f20 f i libucrtd:output.obj
 0001:000590a0       ??$extract_argument_from_va_list@_K_J@?$positional_parameter_base@DV?$string_output_adapter@D@__crt_stdio_output@@@__crt_stdio_output@@IEAA_NAEA_J@Z 000000018005a0a0 f i libucrtd:output.obj
 0001:00059220       ??$extract_argument_from_va_list@_K_J@?$positional_parameter_base@_WV?$stream_output_adapter@_W@__crt_stdio_output@@@__crt_stdio_output@@IEAA_NAEA_J@Z 000000018005a220 f i libucrtd:output.obj
 0001:000593a0       ??$extract_argument_from_va_list@_K_J@?$positional_parameter_base@_WV?$string_output_adapter@_W@__crt_stdio_output@@@__crt_stdio_output@@IEAA_NAEA_J@Z 000000018005a3a0 f i libucrtd:output.obj
 0001:00059520       ??$extract_argument_from_va_list@_K_J@?$standard_base@DV?$stream_output_adapter@D@__crt_stdio_output@@@__crt_stdio_output@@IEAA_NAEA_J@Z 000000018005a520 f i libucrtd:output.obj
 0001:00059550       ??$extract_argument_from_va_list@_K_J@?$standard_base@DV?$string_output_adapter@D@__crt_stdio_output@@@__crt_stdio_output@@IEAA_NAEA_J@Z 000000018005a550 f i libucrtd:output.obj
 0001:00059580       ??$extract_argument_from_va_list@_K_J@?$standard_base@_WV?$stream_output_adapter@_W@__crt_stdio_output@@@__crt_stdio_output@@IEAA_NAEA_J@Z 000000018005a580 f i libucrtd:output.obj
 0001:000595b0       ??$extract_argument_from_va_list@_K_J@?$standard_base@_WV?$string_output_adapter@_W@__crt_stdio_output@@@__crt_stdio_output@@IEAA_NAEA_J@Z 000000018005a5b0 f i libucrtd:output.obj
 0001:000595e0       ??$extract_argument_from_va_list@_W_W@?$positional_parameter_base@DV?$stream_output_adapter@D@__crt_stdio_output@@@__crt_stdio_output@@IEAA_NAEA_W@Z 000000018005a5e0 f i libucrtd:output.obj
 0001:00059760       ??$extract_argument_from_va_list@_W_W@?$positional_parameter_base@DV?$string_output_adapter@D@__crt_stdio_output@@@__crt_stdio_output@@IEAA_NAEA_W@Z 000000018005a760 f i libucrtd:output.obj
 0001:000598e0       ??$extract_argument_from_va_list@_W_W@?$positional_parameter_base@_WV?$stream_output_adapter@_W@__crt_stdio_output@@@__crt_stdio_output@@IEAA_NAEA_W@Z 000000018005a8e0 f i libucrtd:output.obj
 0001:00059a60       ??$extract_argument_from_va_list@_W_W@?$positional_parameter_base@_WV?$string_output_adapter@_W@__crt_stdio_output@@@__crt_stdio_output@@IEAA_NAEA_W@Z 000000018005aa60 f i libucrtd:output.obj
 0001:00059be0       ??$extract_argument_from_va_list@_W_W@?$standard_base@DV?$stream_output_adapter@D@__crt_stdio_output@@@__crt_stdio_output@@IEAA_NAEA_W@Z 000000018005abe0 f i libucrtd:output.obj
 0001:00059c10       ??$extract_argument_from_va_list@_W_W@?$standard_base@DV?$string_output_adapter@D@__crt_stdio_output@@@__crt_stdio_output@@IEAA_NAEA_W@Z 000000018005ac10 f i libucrtd:output.obj
 0001:00059c40       ??$extract_argument_from_va_list@_W_W@?$standard_base@_WV?$stream_output_adapter@_W@__crt_stdio_output@@@__crt_stdio_output@@IEAA_NAEA_W@Z 000000018005ac40 f i libucrtd:output.obj
 0001:00059c70       ??$extract_argument_from_va_list@_W_W@?$standard_base@_WV?$string_output_adapter@_W@__crt_stdio_output@@@__crt_stdio_output@@IEAA_NAEA_W@Z 000000018005ac70 f i libucrtd:output.obj
 0001:00059ca0       ??$get_parameter_type@D@?$positional_parameter_base@DV?$stream_output_adapter@D@__crt_stdio_output@@@__crt_stdio_output@@CA?AW4parameter_type@01@PEAD@Z 000000018005aca0 f i libucrtd:output.obj
 0001:00059cb0       ??$get_parameter_type@D@?$positional_parameter_base@DV?$string_output_adapter@D@__crt_stdio_output@@@__crt_stdio_output@@CA?AW4parameter_type@01@PEAD@Z 000000018005acb0 f i libucrtd:output.obj
 0001:00059cc0       ??$get_parameter_type@D@?$positional_parameter_base@_WV?$stream_output_adapter@_W@__crt_stdio_output@@@__crt_stdio_output@@CA?AW4parameter_type@01@PEAD@Z 000000018005acc0 f i libucrtd:output.obj
 0001:00059cd0       ??$get_parameter_type@D@?$positional_parameter_base@_WV?$string_output_adapter@_W@__crt_stdio_output@@@__crt_stdio_output@@CA?AW4parameter_type@01@PEAD@Z 000000018005acd0 f i libucrtd:output.obj
 0001:00059ce0       ??$get_parameter_type@Uansi_string@?1??type_case_Z@?$output_processor@DV?$stream_output_adapter@D@__crt_stdio_output@@V?$positional_parameter_base@DV?$stream_output_adapter@D@__crt_stdio_output@@@2@@__crt_stdio_output@@AEAA_NXZ@@?$positional_parameter_base@DV?$stream_output_adapter@D@__crt_stdio_output@@@__crt_stdio_output@@CA?AW4parameter_type@01@PEAUansi_string@?1??type_case_Z@?$output_processor@DV?$stream_output_adapter@D@__crt_stdio_output@@V?$positional_parameter_base@DV?$stream_output_adapter@D@__crt_stdio_output@@@2@@1@AEAA_NXZ@@Z 000000018005ace0 f i libucrtd:output.obj
 0001:00059cf0       ??$get_parameter_type@Uansi_string@?1??type_case_Z@?$output_processor@DV?$string_output_adapter@D@__crt_stdio_output@@V?$positional_parameter_base@DV?$string_output_adapter@D@__crt_stdio_output@@@2@@__crt_stdio_output@@AEAA_NXZ@@?$positional_parameter_base@DV?$string_output_adapter@D@__crt_stdio_output@@@__crt_stdio_output@@CA?AW4parameter_type@01@PEAUansi_string@?1??type_case_Z@?$output_processor@DV?$string_output_adapter@D@__crt_stdio_output@@V?$positional_parameter_base@DV?$string_output_adapter@D@__crt_stdio_output@@@2@@1@AEAA_NXZ@@Z 000000018005acf0 f i libucrtd:output.obj
 0001:00059d00       ??$get_parameter_type@Uansi_string@?1??type_case_Z@?$output_processor@_WV?$stream_output_adapter@_W@__crt_stdio_output@@V?$positional_parameter_base@_WV?$stream_output_adapter@_W@__crt_stdio_output@@@2@@__crt_stdio_output@@AEAA_NXZ@@?$positional_parameter_base@_WV?$stream_output_adapter@_W@__crt_stdio_output@@@__crt_stdio_output@@CA?AW4parameter_type@01@PEAUansi_string@?1??type_case_Z@?$output_processor@_WV?$stream_output_adapter@_W@__crt_stdio_output@@V?$positional_parameter_base@_WV?$stream_output_adapter@_W@__crt_stdio_output@@@2@@1@AEAA_NXZ@@Z 000000018005ad00 f i libucrtd:output.obj
 0001:00059d10       ??$get_parameter_type@Uansi_string@?1??type_case_Z@?$output_processor@_WV?$string_output_adapter@_W@__crt_stdio_output@@V?$positional_parameter_base@_WV?$string_output_adapter@_W@__crt_stdio_output@@@2@@__crt_stdio_output@@AEAA_NXZ@@?$positional_parameter_base@_WV?$string_output_adapter@_W@__crt_stdio_output@@@__crt_stdio_output@@CA?AW4parameter_type@01@PEAUansi_string@?1??type_case_Z@?$output_processor@_WV?$string_output_adapter@_W@__crt_stdio_output@@V?$positional_parameter_base@_WV?$string_output_adapter@_W@__crt_stdio_output@@@2@@1@AEAA_NXZ@@Z 000000018005ad10 f i libucrtd:output.obj
 0001:00059d20       ??$get_parameter_type@X@?$positional_parameter_base@DV?$stream_output_adapter@D@__crt_stdio_output@@@__crt_stdio_output@@CA?AW4parameter_type@01@PEAX@Z 000000018005ad20 f i libucrtd:output.obj
 0001:00059d30       ??$get_parameter_type@X@?$positional_parameter_base@DV?$string_output_adapter@D@__crt_stdio_output@@@__crt_stdio_output@@CA?AW4parameter_type@01@PEAX@Z 000000018005ad30 f i libucrtd:output.obj
 0001:00059d40       ??$get_parameter_type@X@?$positional_parameter_base@_WV?$stream_output_adapter@_W@__crt_stdio_output@@@__crt_stdio_output@@CA?AW4parameter_type@01@PEAX@Z 000000018005ad40 f i libucrtd:output.obj
 0001:00059d50       ??$get_parameter_type@X@?$positional_parameter_base@_WV?$string_output_adapter@_W@__crt_stdio_output@@@__crt_stdio_output@@CA?AW4parameter_type@01@PEAX@Z 000000018005ad50 f i libucrtd:output.obj
 0001:00059d60       ??$is_character_specifier@D@?$positional_parameter_base@DV?$stream_output_adapter@D@__crt_stdio_output@@@__crt_stdio_output@@CA_ND@Z 000000018005ad60 f i libucrtd:output.obj
 0001:00059da0       ??$is_character_specifier@D@?$positional_parameter_base@DV?$string_output_adapter@D@__crt_stdio_output@@@__crt_stdio_output@@CA_ND@Z 000000018005ada0 f i libucrtd:output.obj
 0001:00059de0       ??$is_character_specifier@_W@?$positional_parameter_base@_WV?$stream_output_adapter@_W@__crt_stdio_output@@@__crt_stdio_output@@CA_N_W@Z 000000018005ade0 f i libucrtd:output.obj
 0001:00059e20       ??$is_character_specifier@_W@?$positional_parameter_base@_WV?$string_output_adapter@_W@__crt_stdio_output@@@__crt_stdio_output@@CA_N_W@Z 000000018005ae20 f i libucrtd:output.obj
 0001:00059e60       ??$is_integral_specifier@D@?$positional_parameter_base@DV?$stream_output_adapter@D@__crt_stdio_output@@@__crt_stdio_output@@CA_ND@Z 000000018005ae60 f i libucrtd:output.obj
 0001:00059ed0       ??$is_integral_specifier@D@?$positional_parameter_base@DV?$string_output_adapter@D@__crt_stdio_output@@@__crt_stdio_output@@CA_ND@Z 000000018005aed0 f i libucrtd:output.obj
 0001:00059f40       ??$is_integral_specifier@_W@?$positional_parameter_base@_WV?$stream_output_adapter@_W@__crt_stdio_output@@@__crt_stdio_output@@CA_N_W@Z 000000018005af40 f i libucrtd:output.obj
 0001:00059fb0       ??$is_integral_specifier@_W@?$positional_parameter_base@_WV?$string_output_adapter@_W@__crt_stdio_output@@@__crt_stdio_output@@CA_N_W@Z 000000018005afb0 f i libucrtd:output.obj
 0001:0005a020       ??$is_pointer_specifier@D@?$positional_parameter_base@DV?$stream_output_adapter@D@__crt_stdio_output@@@__crt_stdio_output@@CA_ND@Z 000000018005b020 f i libucrtd:output.obj
 0001:0005a050       ??$is_pointer_specifier@D@?$positional_parameter_base@DV?$string_output_adapter@D@__crt_stdio_output@@@__crt_stdio_output@@CA_ND@Z 000000018005b050 f i libucrtd:output.obj
 0001:0005a080       ??$is_pointer_specifier@_W@?$positional_parameter_base@_WV?$stream_output_adapter@_W@__crt_stdio_output@@@__crt_stdio_output@@CA_N_W@Z 000000018005b080 f i libucrtd:output.obj
 0001:0005a0b0       ??$is_pointer_specifier@_W@?$positional_parameter_base@_WV?$string_output_adapter@_W@__crt_stdio_output@@@__crt_stdio_output@@CA_N_W@Z 000000018005b0b0 f i libucrtd:output.obj
 0001:0005a0e0       ??$is_string_specifier@D@?$positional_parameter_base@DV?$stream_output_adapter@D@__crt_stdio_output@@@__crt_stdio_output@@CA_ND@Z 000000018005b0e0 f i libucrtd:output.obj
 0001:0005a120       ??$is_string_specifier@D@?$positional_parameter_base@DV?$string_output_adapter@D@__crt_stdio_output@@@__crt_stdio_output@@CA_ND@Z 000000018005b120 f i libucrtd:output.obj
 0001:0005a160       ??$is_string_specifier@_W@?$positional_parameter_base@_WV?$stream_output_adapter@_W@__crt_stdio_output@@@__crt_stdio_output@@CA_N_W@Z 000000018005b160 f i libucrtd:output.obj
 0001:0005a1a0       ??$is_string_specifier@_W@?$positional_parameter_base@_WV?$string_output_adapter@_W@__crt_stdio_output@@@__crt_stdio_output@@CA_N_W@Z 000000018005b1a0 f i libucrtd:output.obj
 0001:0005a1e0       ??$is_wide_character_specifier@D@__crt_stdio_output@@YA_N_KDW4length_modifier@0@@Z 000000018005b1e0 f i libucrtd:output.obj
 0001:0005a280       ??$is_wide_character_specifier@_W@__crt_stdio_output@@YA_N_K_WW4length_modifier@0@@Z 000000018005b280 f i libucrtd:output.obj
 0001:0005a350       ??$peek_va_arg@C@__crt_stdio_output@@YACPEAD@Z 000000018005b350 f i libucrtd:output.obj
 0001:0005a3b0       ??$peek_va_arg@E@__crt_stdio_output@@YAEPEAD@Z 000000018005b3b0 f i libucrtd:output.obj
 0001:0005a410       ??$peek_va_arg@F@__crt_stdio_output@@YAFPEAD@Z 000000018005b410 f i libucrtd:output.obj
 0001:0005a470       ??$peek_va_arg@G@__crt_stdio_output@@YAGPEAD@Z 000000018005b470 f i libucrtd:output.obj
 0001:0005a4d0       ??$peek_va_arg@H@__crt_stdio_output@@YAHPEAD@Z 000000018005b4d0 f i libucrtd:output.obj
 0001:0005a520       ??$peek_va_arg@I@__crt_stdio_output@@YAIPEAD@Z 000000018005b520 f i libucrtd:output.obj
 0001:0005a570       ??$peek_va_arg@PEAD@__crt_stdio_output@@YAPEADPEAD@Z 000000018005b570 f i libucrtd:output.obj
 0001:0005a5d0       ??$peek_va_arg@PEAUansi_string@?1??type_case_Z@?$output_processor@DV?$stream_output_adapter@D@__crt_stdio_output@@V?$positional_parameter_base@DV?$stream_output_adapter@D@__crt_stdio_output@@@2@@__crt_stdio_output@@AEAA_NXZ@@__crt_stdio_output@@YAPEAUansi_string@?1??type_case_Z@?$output_processor@DV?$stream_output_adapter@D@__crt_stdio_output@@V?$positional_parameter_base@DV?$stream_output_adapter@D@__crt_stdio_output@@@2@@0@AEAA_NXZ@PEAD@Z 000000018005b5d0 f i libucrtd:output.obj
 0001:0005a630       ??$peek_va_arg@PEAUansi_string@?1??type_case_Z@?$output_processor@DV?$string_output_adapter@D@__crt_stdio_output@@V?$positional_parameter_base@DV?$string_output_adapter@D@__crt_stdio_output@@@2@@__crt_stdio_output@@AEAA_NXZ@@__crt_stdio_output@@YAPEAUansi_string@?1??type_case_Z@?$output_processor@DV?$string_output_adapter@D@__crt_stdio_output@@V?$positional_parameter_base@DV?$string_output_adapter@D@__crt_stdio_output@@@2@@0@AEAA_NXZ@PEAD@Z 000000018005b630 f i libucrtd:output.obj
 0001:0005a690       ??$peek_va_arg@PEAUansi_string@?1??type_case_Z@?$output_processor@_WV?$stream_output_adapter@_W@__crt_stdio_output@@V?$positional_parameter_base@_WV?$stream_output_adapter@_W@__crt_stdio_output@@@2@@__crt_stdio_output@@AEAA_NXZ@@__crt_stdio_output@@YAPEAUansi_string@?1??type_case_Z@?$output_processor@_WV?$stream_output_adapter@_W@__crt_stdio_output@@V?$positional_parameter_base@_WV?$stream_output_adapter@_W@__crt_stdio_output@@@2@@0@AEAA_NXZ@PEAD@Z 000000018005b690 f i libucrtd:output.obj
 0001:0005a6f0       ??$peek_va_arg@PEAUansi_string@?1??type_case_Z@?$output_processor@_WV?$string_output_adapter@_W@__crt_stdio_output@@V?$positional_parameter_base@_WV?$string_output_adapter@_W@__crt_stdio_output@@@2@@__crt_stdio_output@@AEAA_NXZ@@__crt_stdio_output@@YAPEAUansi_string@?1??type_case_Z@?$output_processor@_WV?$string_output_adapter@_W@__crt_stdio_output@@V?$positional_parameter_base@_WV?$string_output_adapter@_W@__crt_stdio_output@@@2@@0@AEAA_NXZ@PEAD@Z 000000018005b6f0 f i libucrtd:output.obj
 0001:0005a750       ??$peek_va_arg@PEAX@__crt_stdio_output@@YAPEAXPEAD@Z 000000018005b750 f i libucrtd:output.obj
 0001:0005a7b0       ??$peek_va_arg@U_CRT_DOUBLE@@@__crt_stdio_output@@YA?AU_CRT_DOUBLE@@PEAD@Z 000000018005b7b0 f i libucrtd:output.obj
 0001:0005a810       ??$peek_va_arg@_J@__crt_stdio_output@@YA_JPEAD@Z 000000018005b810 f i libucrtd:output.obj
 0001:0005a870       ??$peek_va_arg@_K@__crt_stdio_output@@YA_KPEAD@Z 000000018005b870 f i libucrtd:output.obj
 0001:0005a8d0       ??$peek_va_arg@_W@__crt_stdio_output@@YA_WPEAD@Z 000000018005b8d0 f i libucrtd:output.obj
 0001:0005a930       ??$puttc_nolock@AEBDPEAU_iobuf@@@?$__crt_char_traits@D@@SAHAEBD$$QEAPEAU_iobuf@@@Z 000000018005b930 f i libucrtd:output.obj
 0001:0005a960       ??$puttc_nolock@AEB_WPEAU_iobuf@@@?$__crt_char_traits@_W@@SAGAEB_W$$QEAPEAU_iobuf@@@Z 000000018005b960 f i libucrtd:output.obj
 0001:0005a990       ??$read_va_arg@C@__crt_stdio_output@@YACAEAPEAD@Z 000000018005b990 f i libucrtd:output.obj
 0001:0005aa00       ??$read_va_arg@E@__crt_stdio_output@@YAEAEAPEAD@Z 000000018005ba00 f i libucrtd:output.obj
 0001:0005aa70       ??$read_va_arg@F@__crt_stdio_output@@YAFAEAPEAD@Z 000000018005ba70 f i libucrtd:output.obj
 0001:0005aae0       ??$read_va_arg@G@__crt_stdio_output@@YAGAEAPEAD@Z 000000018005bae0 f i libucrtd:output.obj
 0001:0005ab50       ??$read_va_arg@H@__crt_stdio_output@@YAHAEAPEAD@Z 000000018005bb50 f i libucrtd:output.obj
 0001:0005abb0       ??$read_va_arg@I@__crt_stdio_output@@YAIAEAPEAD@Z 000000018005bbb0 f i libucrtd:output.obj
 0001:0005ac10       ??$read_va_arg@PEAD@__crt_stdio_output@@YAPEADAEAPEAD@Z 000000018005bc10 f i libucrtd:output.obj
 0001:0005ac80       ??$read_va_arg@PEAUansi_string@?1??type_case_Z@?$output_processor@DV?$stream_output_adapter@D@__crt_stdio_output@@V?$format_validation_base@DV?$stream_output_adapter@D@__crt_stdio_output@@@2@@__crt_stdio_output@@AEAA_NXZ@@__crt_stdio_output@@YAPEAUansi_string@?1??type_case_Z@?$output_processor@DV?$stream_output_adapter@D@__crt_stdio_output@@V?$format_validation_base@DV?$stream_output_adapter@D@__crt_stdio_output@@@2@@0@AEAA_NXZ@AEAPEAD@Z 000000018005bc80 f i libucrtd:output.obj
 0001:0005acf0       ??$read_va_arg@PEAUansi_string@?1??type_case_Z@?$output_processor@DV?$stream_output_adapter@D@__crt_stdio_output@@V?$positional_parameter_base@DV?$stream_output_adapter@D@__crt_stdio_output@@@2@@__crt_stdio_output@@AEAA_NXZ@@__crt_stdio_output@@YAPEAUansi_string@?1??type_case_Z@?$output_processor@DV?$stream_output_adapter@D@__crt_stdio_output@@V?$positional_parameter_base@DV?$stream_output_adapter@D@__crt_stdio_output@@@2@@0@AEAA_NXZ@AEAPEAD@Z 000000018005bcf0 f i libucrtd:output.obj
 0001:0005ad60       ??$read_va_arg@PEAUansi_string@?1??type_case_Z@?$output_processor@DV?$stream_output_adapter@D@__crt_stdio_output@@V?$standard_base@DV?$stream_output_adapter@D@__crt_stdio_output@@@2@@__crt_stdio_output@@AEAA_NXZ@@__crt_stdio_output@@YAPEAUansi_string@?1??type_case_Z@?$output_processor@DV?$stream_output_adapter@D@__crt_stdio_output@@V?$standard_base@DV?$stream_output_adapter@D@__crt_stdio_output@@@2@@0@AEAA_NXZ@AEAPEAD@Z 000000018005bd60 f i libucrtd:output.obj
 0001:0005add0       ??$read_va_arg@PEAUansi_string@?1??type_case_Z@?$output_processor@DV?$string_output_adapter@D@__crt_stdio_output@@V?$format_validation_base@DV?$string_output_adapter@D@__crt_stdio_output@@@2@@__crt_stdio_output@@AEAA_NXZ@@__crt_stdio_output@@YAPEAUansi_string@?1??type_case_Z@?$output_processor@DV?$string_output_adapter@D@__crt_stdio_output@@V?$format_validation_base@DV?$string_output_adapter@D@__crt_stdio_output@@@2@@0@AEAA_NXZ@AEAPEAD@Z 000000018005bdd0 f i libucrtd:output.obj
 0001:0005ae40       ??$read_va_arg@PEAUansi_string@?1??type_case_Z@?$output_processor@DV?$string_output_adapter@D@__crt_stdio_output@@V?$positional_parameter_base@DV?$string_output_adapter@D@__crt_stdio_output@@@2@@__crt_stdio_output@@AEAA_NXZ@@__crt_stdio_output@@YAPEAUansi_string@?1??type_case_Z@?$output_processor@DV?$string_output_adapter@D@__crt_stdio_output@@V?$positional_parameter_base@DV?$string_output_adapter@D@__crt_stdio_output@@@2@@0@AEAA_NXZ@AEAPEAD@Z 000000018005be40 f i libucrtd:output.obj
 0001:0005aeb0       ??$read_va_arg@PEAUansi_string@?1??type_case_Z@?$output_processor@DV?$string_output_adapter@D@__crt_stdio_output@@V?$standard_base@DV?$string_output_adapter@D@__crt_stdio_output@@@2@@__crt_stdio_output@@AEAA_NXZ@@__crt_stdio_output@@YAPEAUansi_string@?1??type_case_Z@?$output_processor@DV?$string_output_adapter@D@__crt_stdio_output@@V?$standard_base@DV?$string_output_adapter@D@__crt_stdio_output@@@2@@0@AEAA_NXZ@AEAPEAD@Z 000000018005beb0 f i libucrtd:output.obj
 0001:0005af20       ??$read_va_arg@PEAUansi_string@?1??type_case_Z@?$output_processor@_WV?$stream_output_adapter@_W@__crt_stdio_output@@V?$format_validation_base@_WV?$stream_output_adapter@_W@__crt_stdio_output@@@2@@__crt_stdio_output@@AEAA_NXZ@@__crt_stdio_output@@YAPEAUansi_string@?1??type_case_Z@?$output_processor@_WV?$stream_output_adapter@_W@__crt_stdio_output@@V?$format_validation_base@_WV?$stream_output_adapter@_W@__crt_stdio_output@@@2@@0@AEAA_NXZ@AEAPEAD@Z 000000018005bf20 f i libucrtd:output.obj
 0001:0005af90       ??$read_va_arg@PEAUansi_string@?1??type_case_Z@?$output_processor@_WV?$stream_output_adapter@_W@__crt_stdio_output@@V?$positional_parameter_base@_WV?$stream_output_adapter@_W@__crt_stdio_output@@@2@@__crt_stdio_output@@AEAA_NXZ@@__crt_stdio_output@@YAPEAUansi_string@?1??type_case_Z@?$output_processor@_WV?$stream_output_adapter@_W@__crt_stdio_output@@V?$positional_parameter_base@_WV?$stream_output_adapter@_W@__crt_stdio_output@@@2@@0@AEAA_NXZ@AEAPEAD@Z 000000018005bf90 f i libucrtd:output.obj
 0001:0005b000       ??$read_va_arg@PEAUansi_string@?1??type_case_Z@?$output_processor@_WV?$stream_output_adapter@_W@__crt_stdio_output@@V?$standard_base@_WV?$stream_output_adapter@_W@__crt_stdio_output@@@2@@__crt_stdio_output@@AEAA_NXZ@@__crt_stdio_output@@YAPEAUansi_string@?1??type_case_Z@?$output_processor@_WV?$stream_output_adapter@_W@__crt_stdio_output@@V?$standard_base@_WV?$stream_output_adapter@_W@__crt_stdio_output@@@2@@0@AEAA_NXZ@AEAPEAD@Z 000000018005c000 f i libucrtd:output.obj
 0001:0005b070       ??$read_va_arg@PEAUansi_string@?1??type_case_Z@?$output_processor@_WV?$string_output_adapter@_W@__crt_stdio_output@@V?$format_validation_base@_WV?$string_output_adapter@_W@__crt_stdio_output@@@2@@__crt_stdio_output@@AEAA_NXZ@@__crt_stdio_output@@YAPEAUansi_string@?1??type_case_Z@?$output_processor@_WV?$string_output_adapter@_W@__crt_stdio_output@@V?$format_validation_base@_WV?$string_output_adapter@_W@__crt_stdio_output@@@2@@0@AEAA_NXZ@AEAPEAD@Z 000000018005c070 f i libucrtd:output.obj
 0001:0005b0e0       ??$read_va_arg@PEAUansi_string@?1??type_case_Z@?$output_processor@_WV?$string_output_adapter@_W@__crt_stdio_output@@V?$positional_parameter_base@_WV?$string_output_adapter@_W@__crt_stdio_output@@@2@@__crt_stdio_output@@AEAA_NXZ@@__crt_stdio_output@@YAPEAUansi_string@?1??type_case_Z@?$output_processor@_WV?$string_output_adapter@_W@__crt_stdio_output@@V?$positional_parameter_base@_WV?$string_output_adapter@_W@__crt_stdio_output@@@2@@0@AEAA_NXZ@AEAPEAD@Z 000000018005c0e0 f i libucrtd:output.obj
 0001:0005b150       ??$read_va_arg@PEAUansi_string@?1??type_case_Z@?$output_processor@_WV?$string_output_adapter@_W@__crt_stdio_output@@V?$standard_base@_WV?$string_output_adapter@_W@__crt_stdio_output@@@2@@__crt_stdio_output@@AEAA_NXZ@@__crt_stdio_output@@YAPEAUansi_string@?1??type_case_Z@?$output_processor@_WV?$string_output_adapter@_W@__crt_stdio_output@@V?$standard_base@_WV?$string_output_adapter@_W@__crt_stdio_output@@@2@@0@AEAA_NXZ@AEAPEAD@Z 000000018005c150 f i libucrtd:output.obj
 0001:0005b1c0       ??$read_va_arg@PEAX@__crt_stdio_output@@YAPEAXAEAPEAD@Z 000000018005c1c0 f i libucrtd:output.obj
 0001:0005b230       ??$read_va_arg@U_CRT_DOUBLE@@@__crt_stdio_output@@YA?AU_CRT_DOUBLE@@AEAPEAD@Z 000000018005c230 f i libucrtd:output.obj
 0001:0005b2a0       ??$read_va_arg@_J@__crt_stdio_output@@YA_JAEAPEAD@Z 000000018005c2a0 f i libucrtd:output.obj
 0001:0005b310       ??$read_va_arg@_K@__crt_stdio_output@@YA_KAEAPEAD@Z 000000018005c310 f i libucrtd:output.obj
 0001:0005b380       ??$read_va_arg@_W@__crt_stdio_output@@YA_WAEAPEAD@Z 000000018005c380 f i libucrtd:output.obj
 0001:0005b3f0       ??$scratch_count@D@formatting_buffer@__crt_stdio_output@@QEBA_KXZ 000000018005c3f0 f i libucrtd:output.obj
 0001:0005b410       ??$scratch_data@D@formatting_buffer@__crt_stdio_output@@QEAAPEADXZ 000000018005c410 f i libucrtd:output.obj
 0001:0005b480       ??$tcstol@AEAPEBDPEAPEADH@?$__crt_char_traits@D@@SAJAEAPEBD$$QEAPEAPEAD$$QEAH@Z 000000018005c480 f i libucrtd:output.obj
 0001:0005b4c0       ??$tcstol@AEAPEB_WPEAPEA_WH@?$__crt_char_traits@_W@@SAJAEAPEB_W$$QEAPEAPEA_W$$QEAH@Z 000000018005c4c0 f i libucrtd:output.obj
 0001:0005b500       ??$tcstol@PEBDPEAPEADH@?$__crt_char_traits@D@@SAJ$$QEAPEBD$$QEAPEAPEAD$$QEAH@Z 000000018005c500 f i libucrtd:output.obj
 0001:0005b540       ??$tcstol@PEB_WPEAPEA_WH@?$__crt_char_traits@_W@@SAJ$$QEAPEB_W$$QEAPEAPEA_W$$QEAH@Z 000000018005c540 f i libucrtd:output.obj
 0001:0005b580       ??$type_case_integer_parse_into_buffer@I@?$output_processor@DV?$stream_output_adapter@D@__crt_stdio_output@@V?$format_validation_base@DV?$stream_output_adapter@D@__crt_stdio_output@@@2@@__crt_stdio_output@@AEAAXII_N@Z 000000018005c580 f i libucrtd:output.obj
 0001:0005b6a0       ??$type_case_integer_parse_into_buffer@I@?$output_processor@DV?$stream_output_adapter@D@__crt_stdio_output@@V?$positional_parameter_base@DV?$stream_output_adapter@D@__crt_stdio_output@@@2@@__crt_stdio_output@@AEAAXII_N@Z 000000018005c6a0 f i libucrtd:output.obj
 0001:0005b7c0       ??$type_case_integer_parse_into_buffer@I@?$output_processor@DV?$stream_output_adapter@D@__crt_stdio_output@@V?$standard_base@DV?$stream_output_adapter@D@__crt_stdio_output@@@2@@__crt_stdio_output@@AEAAXII_N@Z 000000018005c7c0 f i libucrtd:output.obj
 0001:0005b8e0       ??$type_case_integer_parse_into_buffer@I@?$output_processor@DV?$string_output_adapter@D@__crt_stdio_output@@V?$format_validation_base@DV?$string_output_adapter@D@__crt_stdio_output@@@2@@__crt_stdio_output@@AEAAXII_N@Z 000000018005c8e0 f i libucrtd:output.obj
 0001:0005ba00       ??$type_case_integer_parse_into_buffer@I@?$output_processor@DV?$string_output_adapter@D@__crt_stdio_output@@V?$positional_parameter_base@DV?$string_output_adapter@D@__crt_stdio_output@@@2@@__crt_stdio_output@@AEAAXII_N@Z 000000018005ca00 f i libucrtd:output.obj
 0001:0005bb20       ??$type_case_integer_parse_into_buffer@I@?$output_processor@DV?$string_output_adapter@D@__crt_stdio_output@@V?$standard_base@DV?$string_output_adapter@D@__crt_stdio_output@@@2@@__crt_stdio_output@@AEAAXII_N@Z 000000018005cb20 f i libucrtd:output.obj
 0001:0005bc40       ??$type_case_integer_parse_into_buffer@I@?$output_processor@_WV?$stream_output_adapter@_W@__crt_stdio_output@@V?$format_validation_base@_WV?$stream_output_adapter@_W@__crt_stdio_output@@@2@@__crt_stdio_output@@AEAAXII_N@Z 000000018005cc40 f i libucrtd:output.obj
 0001:0005bd70       ??$type_case_integer_parse_into_buffer@I@?$output_processor@_WV?$stream_output_adapter@_W@__crt_stdio_output@@V?$positional_parameter_base@_WV?$stream_output_adapter@_W@__crt_stdio_output@@@2@@__crt_stdio_output@@AEAAXII_N@Z 000000018005cd70 f i libucrtd:output.obj
 0001:0005bea0       ??$type_case_integer_parse_into_buffer@I@?$output_processor@_WV?$stream_output_adapter@_W@__crt_stdio_output@@V?$standard_base@_WV?$stream_output_adapter@_W@__crt_stdio_output@@@2@@__crt_stdio_output@@AEAAXII_N@Z 000000018005cea0 f i libucrtd:output.obj
 0001:0005bfd0       ??$type_case_integer_parse_into_buffer@I@?$output_processor@_WV?$string_output_adapter@_W@__crt_stdio_output@@V?$format_validation_base@_WV?$string_output_adapter@_W@__crt_stdio_output@@@2@@__crt_stdio_output@@AEAAXII_N@Z 000000018005cfd0 f i libucrtd:output.obj
 0001:0005c100       ??$type_case_integer_parse_into_buffer@I@?$output_processor@_WV?$string_output_adapter@_W@__crt_stdio_output@@V?$positional_parameter_base@_WV?$string_output_adapter@_W@__crt_stdio_output@@@2@@__crt_stdio_output@@AEAAXII_N@Z 000000018005d100 f i libucrtd:output.obj
 0001:0005c230       ??$type_case_integer_parse_into_buffer@I@?$output_processor@_WV?$string_output_adapter@_W@__crt_stdio_output@@V?$standard_base@_WV?$string_output_adapter@_W@__crt_stdio_output@@@2@@__crt_stdio_output@@AEAAXII_N@Z 000000018005d230 f i libucrtd:output.obj
 0001:0005c360       ??$type_case_integer_parse_into_buffer@_K@?$output_processor@DV?$stream_output_adapter@D@__crt_stdio_output@@V?$format_validation_base@DV?$stream_output_adapter@D@__crt_stdio_output@@@2@@__crt_stdio_output@@AEAAX_KI_N@Z 000000018005d360 f i libucrtd:output.obj
 0001:0005c4b0       ??$type_case_integer_parse_into_buffer@_K@?$output_processor@DV?$stream_output_adapter@D@__crt_stdio_output@@V?$positional_parameter_base@DV?$stream_output_adapter@D@__crt_stdio_output@@@2@@__crt_stdio_output@@AEAAX_KI_N@Z 000000018005d4b0 f i libucrtd:output.obj
 0001:0005c600       ??$type_case_integer_parse_into_buffer@_K@?$output_processor@DV?$stream_output_adapter@D@__crt_stdio_output@@V?$standard_base@DV?$stream_output_adapter@D@__crt_stdio_output@@@2@@__crt_stdio_output@@AEAAX_KI_N@Z 000000018005d600 f i libucrtd:output.obj
 0001:0005c750       ??$type_case_integer_parse_into_buffer@_K@?$output_processor@DV?$string_output_adapter@D@__crt_stdio_output@@V?$format_validation_base@DV?$string_output_adapter@D@__crt_stdio_output@@@2@@__crt_stdio_output@@AEAAX_KI_N@Z 000000018005d750 f i libucrtd:output.obj
 0001:0005c8a0       ??$type_case_integer_parse_into_buffer@_K@?$output_processor@DV?$string_output_adapter@D@__crt_stdio_output@@V?$positional_parameter_base@DV?$string_output_adapter@D@__crt_stdio_output@@@2@@__crt_stdio_output@@AEAAX_KI_N@Z 000000018005d8a0 f i libucrtd:output.obj
 0001:0005c9f0       ??$type_case_integer_parse_into_buffer@_K@?$output_processor@DV?$string_output_adapter@D@__crt_stdio_output@@V?$standard_base@DV?$string_output_adapter@D@__crt_stdio_output@@@2@@__crt_stdio_output@@AEAAX_KI_N@Z 000000018005d9f0 f i libucrtd:output.obj
 0001:0005cb40       ??$type_case_integer_parse_into_buffer@_K@?$output_processor@_WV?$stream_output_adapter@_W@__crt_stdio_output@@V?$format_validation_base@_WV?$stream_output_adapter@_W@__crt_stdio_output@@@2@@__crt_stdio_output@@AEAAX_KI_N@Z 000000018005db40 f i libucrtd:output.obj
 0001:0005cc90       ??$type_case_integer_parse_into_buffer@_K@?$output_processor@_WV?$stream_output_adapter@_W@__crt_stdio_output@@V?$positional_parameter_base@_WV?$stream_output_adapter@_W@__crt_stdio_output@@@2@@__crt_stdio_output@@AEAAX_KI_N@Z 000000018005dc90 f i libucrtd:output.obj
 0001:0005cde0       ??$type_case_integer_parse_into_buffer@_K@?$output_processor@_WV?$stream_output_adapter@_W@__crt_stdio_output@@V?$standard_base@_WV?$stream_output_adapter@_W@__crt_stdio_output@@@2@@__crt_stdio_output@@AEAAX_KI_N@Z 000000018005dde0 f i libucrtd:output.obj
 0001:0005cf30       ??$type_case_integer_parse_into_buffer@_K@?$output_processor@_WV?$string_output_adapter@_W@__crt_stdio_output@@V?$format_validation_base@_WV?$string_output_adapter@_W@__crt_stdio_output@@@2@@__crt_stdio_output@@AEAAX_KI_N@Z 000000018005df30 f i libucrtd:output.obj
 0001:0005d080       ??$type_case_integer_parse_into_buffer@_K@?$output_processor@_WV?$string_output_adapter@_W@__crt_stdio_output@@V?$positional_parameter_base@_WV?$string_output_adapter@_W@__crt_stdio_output@@@2@@__crt_stdio_output@@AEAAX_KI_N@Z 000000018005e080 f i libucrtd:output.obj
 0001:0005d1d0       ??$type_case_integer_parse_into_buffer@_K@?$output_processor@_WV?$string_output_adapter@_W@__crt_stdio_output@@V?$standard_base@_WV?$string_output_adapter@_W@__crt_stdio_output@@@2@@__crt_stdio_output@@AEAAX_KI_N@Z 000000018005e1d0 f i libucrtd:output.obj
 0001:0005d320       ??$write_multiple_characters@V?$stream_output_adapter@D@__crt_stdio_output@@D@__crt_stdio_output@@YAXAEBV?$stream_output_adapter@D@0@DHQEAH@Z 000000018005e320 f i libucrtd:output.obj
 0001:0005d380       ??$write_multiple_characters@V?$stream_output_adapter@_W@__crt_stdio_output@@D@__crt_stdio_output@@YAXAEBV?$stream_output_adapter@_W@0@DHQEAH@Z 000000018005e380 f i libucrtd:output.obj
 0001:0005d3e0       ??$write_multiple_characters@V?$string_output_adapter@D@__crt_stdio_output@@D@__crt_stdio_output@@YAXAEBV?$string_output_adapter@D@0@DHQEAH@Z 000000018005e3e0 f i libucrtd:output.obj
 0001:0005d440       ??$write_multiple_characters@V?$string_output_adapter@_W@__crt_stdio_output@@D@__crt_stdio_output@@YAXAEBV?$string_output_adapter@_W@0@DHQEAH@Z 000000018005e440 f i libucrtd:output.obj
 0001:0005d860       ??0?$common_data@D@__crt_stdio_output@@IEAA@XZ 000000018005e860 f i libucrtd:output.obj
 0001:0005d930       ??0?$common_data@_W@__crt_stdio_output@@IEAA@XZ 000000018005e930 f i libucrtd:output.obj
 0001:0005da00       ??0?$output_adapter_data@DV?$stream_output_adapter@D@__crt_stdio_output@@@__crt_stdio_output@@IEAA@AEBV?$stream_output_adapter@D@1@_KQEBDQEAU__crt_locale_pointers@@QEAD@Z 000000018005ea00 f i libucrtd:output.obj
 0001:0005da80       ??0?$output_adapter_data@DV?$string_output_adapter@D@__crt_stdio_output@@@__crt_stdio_output@@IEAA@AEBV?$string_output_adapter@D@1@_KQEBDQEAU__crt_locale_pointers@@QEAD@Z 000000018005ea80 f i libucrtd:output.obj
 0001:0005db00       ??0?$output_adapter_data@_WV?$stream_output_adapter@_W@__crt_stdio_output@@@__crt_stdio_output@@IEAA@AEBV?$stream_output_adapter@_W@1@_KQEB_WQEAU__crt_locale_pointers@@QEAD@Z 000000018005eb00 f i libucrtd:output.obj
 0001:0005db80       ??0?$output_adapter_data@_WV?$string_output_adapter@_W@__crt_stdio_output@@@__crt_stdio_output@@IEAA@AEBV?$string_output_adapter@_W@1@_KQEB_WQEAU__crt_locale_pointers@@QEAD@Z 000000018005eb80 f i libucrtd:output.obj
 0001:0005dc00       ??0?$output_processor@DV?$stream_output_adapter@D@__crt_stdio_output@@V?$format_validation_base@DV?$stream_output_adapter@D@__crt_stdio_output@@@2@@__crt_stdio_output@@QEAA@AEBV?$stream_output_adapter@D@1@_KQEBDQEAU__crt_locale_pointers@@QEAD@Z 000000018005ec00 f i libucrtd:output.obj
 0001:0005dc60       ??0?$output_processor@DV?$stream_output_adapter@D@__crt_stdio_output@@V?$positional_parameter_base@DV?$stream_output_adapter@D@__crt_stdio_output@@@2@@__crt_stdio_output@@QEAA@AEBV?$stream_output_adapter@D@1@_KQEBDQEAU__crt_locale_pointers@@QEAD@Z 000000018005ec60 f i libucrtd:output.obj
 0001:0005dcc0       ??0?$output_processor@DV?$stream_output_adapter@D@__crt_stdio_output@@V?$standard_base@DV?$stream_output_adapter@D@__crt_stdio_output@@@2@@__crt_stdio_output@@QEAA@AEBV?$stream_output_adapter@D@1@_KQEBDQEAU__crt_locale_pointers@@QEAD@Z 000000018005ecc0 f i libucrtd:output.obj
 0001:0005dd20       ??0?$output_processor@DV?$string_output_adapter@D@__crt_stdio_output@@V?$format_validation_base@DV?$string_output_adapter@D@__crt_stdio_output@@@2@@__crt_stdio_output@@QEAA@AEBV?$string_output_adapter@D@1@_KQEBDQEAU__crt_locale_pointers@@QEAD@Z 000000018005ed20 f i libucrtd:output.obj
 0001:0005dd80       ??0?$output_processor@DV?$string_output_adapter@D@__crt_stdio_output@@V?$positional_parameter_base@DV?$string_output_adapter@D@__crt_stdio_output@@@2@@__crt_stdio_output@@QEAA@AEBV?$string_output_adapter@D@1@_KQEBDQEAU__crt_locale_pointers@@QEAD@Z 000000018005ed80 f i libucrtd:output.obj
 0001:0005dde0       ??0?$output_processor@DV?$string_output_adapter@D@__crt_stdio_output@@V?$standard_base@DV?$string_output_adapter@D@__crt_stdio_output@@@2@@__crt_stdio_output@@QEAA@AEBV?$string_output_adapter@D@1@_KQEBDQEAU__crt_locale_pointers@@QEAD@Z 000000018005ede0 f i libucrtd:output.obj
 0001:0005de40       ??0?$output_processor@_WV?$stream_output_adapter@_W@__crt_stdio_output@@V?$format_validation_base@_WV?$stream_output_adapter@_W@__crt_stdio_output@@@2@@__crt_stdio_output@@QEAA@AEBV?$stream_output_adapter@_W@1@_KQEB_WQEAU__crt_locale_pointers@@QEAD@Z 000000018005ee40 f i libucrtd:output.obj
 0001:0005dea0       ??0?$output_processor@_WV?$stream_output_adapter@_W@__crt_stdio_output@@V?$positional_parameter_base@_WV?$stream_output_adapter@_W@__crt_stdio_output@@@2@@__crt_stdio_output@@QEAA@AEBV?$stream_output_adapter@_W@1@_KQEB_WQEAU__crt_locale_pointers@@QEAD@Z 000000018005eea0 f i libucrtd:output.obj
 0001:0005df00       ??0?$output_processor@_WV?$stream_output_adapter@_W@__crt_stdio_output@@V?$standard_base@_WV?$stream_output_adapter@_W@__crt_stdio_output@@@2@@__crt_stdio_output@@QEAA@AEBV?$stream_output_adapter@_W@1@_KQEB_WQEAU__crt_locale_pointers@@QEAD@Z 000000018005ef00 f i libucrtd:output.obj
 0001:0005df60       ??0?$output_processor@_WV?$string_output_adapter@_W@__crt_stdio_output@@V?$format_validation_base@_WV?$string_output_adapter@_W@__crt_stdio_output@@@2@@__crt_stdio_output@@QEAA@AEBV?$string_output_adapter@_W@1@_KQEB_WQEAU__crt_locale_pointers@@QEAD@Z 000000018005ef60 f i libucrtd:output.obj
 0001:0005dfc0       ??0?$output_processor@_WV?$string_output_adapter@_W@__crt_stdio_output@@V?$positional_parameter_base@_WV?$string_output_adapter@_W@__crt_stdio_output@@@2@@__crt_stdio_output@@QEAA@AEBV?$string_output_adapter@_W@1@_KQEB_WQEAU__crt_locale_pointers@@QEAD@Z 000000018005efc0 f i libucrtd:output.obj
 0001:0005e020       ??0?$output_processor@_WV?$string_output_adapter@_W@__crt_stdio_output@@V?$standard_base@_WV?$string_output_adapter@_W@__crt_stdio_output@@@2@@__crt_stdio_output@@QEAA@AEBV?$string_output_adapter@_W@1@_KQEB_WQEAU__crt_locale_pointers@@QEAD@Z 000000018005f020 f i libucrtd:output.obj
 0001:0005e080       ??0?$stream_output_adapter@D@__crt_stdio_output@@QEAA@QEAU_iobuf@@@Z 000000018005f080 f i libucrtd:output.obj
 0001:0005e0b0       ??0?$stream_output_adapter@_W@__crt_stdio_output@@QEAA@QEAU_iobuf@@@Z 000000018005f0b0 f i libucrtd:output.obj
 0001:0005e0e0       ??0?$string_output_adapter@D@__crt_stdio_output@@QEAA@QEAU?$string_output_adapter_context@D@1@@Z 000000018005f0e0 f i libucrtd:output.obj
 0001:0005e100       ??0?$string_output_adapter@_W@__crt_stdio_output@@QEAA@QEAU?$string_output_adapter_context@_W@1@@Z 000000018005f100 f i libucrtd:output.obj
 0001:0005e120       ??0_LocaleUpdate@@QEAA@QEAU__crt_locale_pointers@@@Z 000000018005f120 f i libucrtd:output.obj
 0001:0005e240       ??0__acrt_stdio_temporary_buffering_guard@@QEAA@QEAU_iobuf@@@Z 000000018005f240 f i libucrtd:output.obj
 0001:0005e280       ??0__crt_errno_guard@@QEAA@QEAH@Z 000000018005f280 f i libucrtd:output.obj
 0001:0005e2c0       ??0__crt_stdio_stream@@QEAA@QEAU_iobuf@@@Z 000000018005f2c0 f i libucrtd:output.obj
 0001:0005e2e0       ??0formatting_buffer@__crt_stdio_output@@QEAA@XZ 000000018005f2e0 f i libucrtd:output.obj
 0001:0005e320       ??1?$common_data@D@__crt_stdio_output@@QEAA@XZ 000000018005f320 f i libucrtd:output.obj
 0001:0005e340       ??1?$common_data@_W@__crt_stdio_output@@QEAA@XZ 000000018005f340 f i libucrtd:output.obj
 0001:0005e360       ??1?$format_validation_base@DV?$stream_output_adapter@D@__crt_stdio_output@@@__crt_stdio_output@@QEAA@XZ 000000018005f360 f i libucrtd:output.obj
 0001:0005e380       ??1?$format_validation_base@DV?$string_output_adapter@D@__crt_stdio_output@@@__crt_stdio_output@@QEAA@XZ 000000018005f380 f i libucrtd:output.obj
 0001:0005e3a0       ??1?$format_validation_base@_WV?$stream_output_adapter@_W@__crt_stdio_output@@@__crt_stdio_output@@QEAA@XZ 000000018005f3a0 f i libucrtd:output.obj
 0001:0005e3c0       ??1?$format_validation_base@_WV?$string_output_adapter@_W@__crt_stdio_output@@@__crt_stdio_output@@QEAA@XZ 000000018005f3c0 f i libucrtd:output.obj
 0001:0005e3e0       ??1?$output_adapter_data@DV?$stream_output_adapter@D@__crt_stdio_output@@@__crt_stdio_output@@QEAA@XZ 000000018005f3e0 f i libucrtd:output.obj
 0001:0005e400       ??1?$output_adapter_data@DV?$string_output_adapter@D@__crt_stdio_output@@@__crt_stdio_output@@QEAA@XZ 000000018005f400 f i libucrtd:output.obj
 0001:0005e420       ??1?$output_adapter_data@_WV?$stream_output_adapter@_W@__crt_stdio_output@@@__crt_stdio_output@@QEAA@XZ 000000018005f420 f i libucrtd:output.obj
 0001:0005e440       ??1?$output_adapter_data@_WV?$string_output_adapter@_W@__crt_stdio_output@@@__crt_stdio_output@@QEAA@XZ 000000018005f440 f i libucrtd:output.obj
 0001:0005e460       ??1?$output_processor@DV?$stream_output_adapter@D@__crt_stdio_output@@V?$format_validation_base@DV?$stream_output_adapter@D@__crt_stdio_output@@@2@@__crt_stdio_output@@QEAA@XZ 000000018005f460 f i libucrtd:output.obj
 0001:0005e480       ??1?$output_processor@DV?$stream_output_adapter@D@__crt_stdio_output@@V?$positional_parameter_base@DV?$stream_output_adapter@D@__crt_stdio_output@@@2@@__crt_stdio_output@@QEAA@XZ 000000018005f480 f i libucrtd:output.obj
 0001:0005e4a0       ??1?$output_processor@DV?$stream_output_adapter@D@__crt_stdio_output@@V?$standard_base@DV?$stream_output_adapter@D@__crt_stdio_output@@@2@@__crt_stdio_output@@QEAA@XZ 000000018005f4a0 f i libucrtd:output.obj
 0001:0005e4c0       ??1?$output_processor@DV?$string_output_adapter@D@__crt_stdio_output@@V?$format_validation_base@DV?$string_output_adapter@D@__crt_stdio_output@@@2@@__crt_stdio_output@@QEAA@XZ 000000018005f4c0 f i libucrtd:output.obj
 0001:0005e4e0       ??1?$output_processor@DV?$string_output_adapter@D@__crt_stdio_output@@V?$positional_parameter_base@DV?$string_output_adapter@D@__crt_stdio_output@@@2@@__crt_stdio_output@@QEAA@XZ 000000018005f4e0 f i libucrtd:output.obj
 0001:0005e500       ??1?$output_processor@DV?$string_output_adapter@D@__crt_stdio_output@@V?$standard_base@DV?$string_output_adapter@D@__crt_stdio_output@@@2@@__crt_stdio_output@@QEAA@XZ 000000018005f500 f i libucrtd:output.obj
 0001:0005e520       ??1?$output_processor@_WV?$stream_output_adapter@_W@__crt_stdio_output@@V?$format_validation_base@_WV?$stream_output_adapter@_W@__crt_stdio_output@@@2@@__crt_stdio_output@@QEAA@XZ 000000018005f520 f i libucrtd:output.obj
 0001:0005e540       ??1?$output_processor@_WV?$stream_output_adapter@_W@__crt_stdio_output@@V?$positional_parameter_base@_WV?$stream_output_adapter@_W@__crt_stdio_output@@@2@@__crt_stdio_output@@QEAA@XZ 000000018005f540 f i libucrtd:output.obj
 0001:0005e560       ??1?$output_processor@_WV?$stream_output_adapter@_W@__crt_stdio_output@@V?$standard_base@_WV?$stream_output_adapter@_W@__crt_stdio_output@@@2@@__crt_stdio_output@@QEAA@XZ 000000018005f560 f i libucrtd:output.obj
 0001:0005e580       ??1?$output_processor@_WV?$string_output_adapter@_W@__crt_stdio_output@@V?$format_validation_base@_WV?$string_output_adapter@_W@__crt_stdio_output@@@2@@__crt_stdio_output@@QEAA@XZ 000000018005f580 f i libucrtd:output.obj
 0001:0005e5a0       ??1?$output_processor@_WV?$string_output_adapter@_W@__crt_stdio_output@@V?$positional_parameter_base@_WV?$string_output_adapter@_W@__crt_stdio_output@@@2@@__crt_stdio_output@@QEAA@XZ 000000018005f5a0 f i libucrtd:output.obj
 0001:0005e5c0       ??1?$output_processor@_WV?$string_output_adapter@_W@__crt_stdio_output@@V?$standard_base@_WV?$string_output_adapter@_W@__crt_stdio_output@@@2@@__crt_stdio_output@@QEAA@XZ 000000018005f5c0 f i libucrtd:output.obj
 0001:0005e5e0       ??1?$positional_parameter_base@DV?$stream_output_adapter@D@__crt_stdio_output@@@__crt_stdio_output@@QEAA@XZ 000000018005f5e0 f i libucrtd:output.obj
 0001:0005e600       ??1?$positional_parameter_base@DV?$string_output_adapter@D@__crt_stdio_output@@@__crt_stdio_output@@QEAA@XZ 000000018005f600 f i libucrtd:output.obj
 0001:0005e620       ??1?$positional_parameter_base@_WV?$stream_output_adapter@_W@__crt_stdio_output@@@__crt_stdio_output@@QEAA@XZ 000000018005f620 f i libucrtd:output.obj
 0001:0005e640       ??1?$positional_parameter_base@_WV?$string_output_adapter@_W@__crt_stdio_output@@@__crt_stdio_output@@QEAA@XZ 000000018005f640 f i libucrtd:output.obj
 0001:0005e660       ??1?$standard_base@DV?$stream_output_adapter@D@__crt_stdio_output@@@__crt_stdio_output@@QEAA@XZ 000000018005f660 f i libucrtd:output.obj
 0001:0005e680       ??1?$standard_base@DV?$string_output_adapter@D@__crt_stdio_output@@@__crt_stdio_output@@QEAA@XZ 000000018005f680 f i libucrtd:output.obj
 0001:0005e6a0       ??1?$standard_base@_WV?$stream_output_adapter@_W@__crt_stdio_output@@@__crt_stdio_output@@QEAA@XZ 000000018005f6a0 f i libucrtd:output.obj
 0001:0005e6c0       ??1?$standard_base@_WV?$string_output_adapter@_W@__crt_stdio_output@@@__crt_stdio_output@@QEAA@XZ 000000018005f6c0 f i libucrtd:output.obj
 0001:0005e6e0       ??1_LocaleUpdate@@QEAA@XZ  000000018005f6e0 f i libucrtd:output.obj
 0001:0005e720       ??1__acrt_stdio_temporary_buffering_guard@@QEAA@XZ 000000018005f720 f i libucrtd:output.obj
 0001:0005e750       ??1__crt_errno_guard@@QEAA@XZ 000000018005f750 f i libucrtd:output.obj
 0001:0005e780       ??1formatting_buffer@__crt_stdio_output@@QEAA@XZ 000000018005f780 f i libucrtd:output.obj
 0001:0005e7b0       ??4?$__crt_unique_heap_ptr@DU__crt_internal_free_policy@@@@QEAAAEAV0@$$QEAV0@@Z 000000018005f7b0 f i libucrtd:output.obj
 0001:0005e7f0       ??C__crt_stdio_stream@@QEBAPEAU__crt_stdio_stream_data@@XZ 000000018005f7f0 f i libucrtd:output.obj
 0001:0005f0a0       ?GetLocaleT@_LocaleUpdate@@QEAAPEAU__crt_locale_pointers@@XZ 00000001800600a0 f i libucrtd:output.obj
 0001:0005f0b0       ?__crt_interlocked_read_32@@YAHPEDH@Z 00000001800600b0 f i libucrtd:output.obj
 0001:0005f0d0       ?adjust_hexit@?$output_processor@DV?$stream_output_adapter@D@__crt_stdio_output@@V?$format_validation_base@DV?$stream_output_adapter@D@__crt_stdio_output@@@2@@__crt_stdio_output@@CADH_N@Z 00000001800600d0 f i libucrtd:output.obj
 0001:0005f120       ?adjust_hexit@?$output_processor@DV?$stream_output_adapter@D@__crt_stdio_output@@V?$positional_parameter_base@DV?$stream_output_adapter@D@__crt_stdio_output@@@2@@__crt_stdio_output@@CADH_N@Z 0000000180060120 f i libucrtd:output.obj
 0001:0005f170       ?adjust_hexit@?$output_processor@DV?$stream_output_adapter@D@__crt_stdio_output@@V?$standard_base@DV?$stream_output_adapter@D@__crt_stdio_output@@@2@@__crt_stdio_output@@CADH_N@Z 0000000180060170 f i libucrtd:output.obj
 0001:0005f1c0       ?adjust_hexit@?$output_processor@DV?$string_output_adapter@D@__crt_stdio_output@@V?$format_validation_base@DV?$string_output_adapter@D@__crt_stdio_output@@@2@@__crt_stdio_output@@CADH_N@Z 00000001800601c0 f i libucrtd:output.obj
 0001:0005f210       ?adjust_hexit@?$output_processor@DV?$string_output_adapter@D@__crt_stdio_output@@V?$positional_parameter_base@DV?$string_output_adapter@D@__crt_stdio_output@@@2@@__crt_stdio_output@@CADH_N@Z 0000000180060210 f i libucrtd:output.obj
 0001:0005f260       ?adjust_hexit@?$output_processor@DV?$string_output_adapter@D@__crt_stdio_output@@V?$standard_base@DV?$string_output_adapter@D@__crt_stdio_output@@@2@@__crt_stdio_output@@CADH_N@Z 0000000180060260 f i libucrtd:output.obj
 0001:0005f2b0       ?adjust_hexit@?$output_processor@_WV?$stream_output_adapter@_W@__crt_stdio_output@@V?$format_validation_base@_WV?$stream_output_adapter@_W@__crt_stdio_output@@@2@@__crt_stdio_output@@CADH_N@Z 00000001800602b0 f i libucrtd:output.obj
 0001:0005f300       ?adjust_hexit@?$output_processor@_WV?$stream_output_adapter@_W@__crt_stdio_output@@V?$positional_parameter_base@_WV?$stream_output_adapter@_W@__crt_stdio_output@@@2@@__crt_stdio_output@@CADH_N@Z 0000000180060300 f i libucrtd:output.obj
 0001:0005f350       ?adjust_hexit@?$output_processor@_WV?$stream_output_adapter@_W@__crt_stdio_output@@V?$standard_base@_WV?$stream_output_adapter@_W@__crt_stdio_output@@@2@@__crt_stdio_output@@CADH_N@Z 0000000180060350 f i libucrtd:output.obj
 0001:0005f3a0       ?adjust_hexit@?$output_processor@_WV?$string_output_adapter@_W@__crt_stdio_output@@V?$format_validation_base@_WV?$string_output_adapter@_W@__crt_stdio_output@@@2@@__crt_stdio_output@@CADH_N@Z 00000001800603a0 f i libucrtd:output.obj
 0001:0005f3f0       ?adjust_hexit@?$output_processor@_WV?$string_output_adapter@_W@__crt_stdio_output@@V?$positional_parameter_base@_WV?$string_output_adapter@_W@__crt_stdio_output@@@2@@__crt_stdio_output@@CADH_N@Z 00000001800603f0 f i libucrtd:output.obj
 0001:0005f440       ?adjust_hexit@?$output_processor@_WV?$string_output_adapter@_W@__crt_stdio_output@@V?$standard_base@_WV?$string_output_adapter@_W@__crt_stdio_output@@@2@@__crt_stdio_output@@CADH_N@Z 0000000180060440 f i libucrtd:output.obj
 0001:0005f490       ?advance_to_next_pass@?$positional_parameter_base@DV?$stream_output_adapter@D@__crt_stdio_output@@@__crt_stdio_output@@IEAA_NXZ 0000000180060490 f i libucrtd:output.obj
 0001:0005f540       ?advance_to_next_pass@?$positional_parameter_base@DV?$string_output_adapter@D@__crt_stdio_output@@@__crt_stdio_output@@IEAA_NXZ 0000000180060540 f i libucrtd:output.obj
 0001:0005f5f0       ?advance_to_next_pass@?$positional_parameter_base@_WV?$stream_output_adapter@_W@__crt_stdio_output@@@__crt_stdio_output@@IEAA_NXZ 00000001800605f0 f i libucrtd:output.obj
 0001:0005f6a0       ?advance_to_next_pass@?$positional_parameter_base@_WV?$string_output_adapter@_W@__crt_stdio_output@@@__crt_stdio_output@@IEAA_NXZ 00000001800606a0 f i libucrtd:output.obj
 0001:0005f750       ?advance_to_next_pass@?$standard_base@DV?$stream_output_adapter@D@__crt_stdio_output@@@__crt_stdio_output@@IEAA_NXZ 0000000180060750 f i libucrtd:output.obj
 0001:0005f7a0       ?advance_to_next_pass@?$standard_base@DV?$string_output_adapter@D@__crt_stdio_output@@@__crt_stdio_output@@IEAA_NXZ 00000001800607a0 f i libucrtd:output.obj
 0001:0005f7f0       ?advance_to_next_pass@?$standard_base@_WV?$stream_output_adapter@_W@__crt_stdio_output@@@__crt_stdio_output@@IEAA_NXZ 00000001800607f0 f i libucrtd:output.obj
 0001:0005f840       ?advance_to_next_pass@?$standard_base@_WV?$string_output_adapter@_W@__crt_stdio_output@@@__crt_stdio_output@@IEAA_NXZ 0000000180060840 f i libucrtd:output.obj
 0001:0005f890       ?crop_zeroes@__crt_stdio_output@@YAXPEADQEAU__crt_locale_pointers@@@Z 0000000180060890 f i libucrtd:output.obj
 0001:0005f9d0       ?find_next_state@?$output_processor@DV?$stream_output_adapter@D@__crt_stdio_output@@V?$format_validation_base@DV?$stream_output_adapter@D@__crt_stdio_output@@@2@@__crt_stdio_output@@AEBA?AW4state@2@DW432@@Z 00000001800609d0 f i libucrtd:output.obj
 0001:0005fa70       ?find_next_state@?$output_processor@DV?$stream_output_adapter@D@__crt_stdio_output@@V?$positional_parameter_base@DV?$stream_output_adapter@D@__crt_stdio_output@@@2@@__crt_stdio_output@@AEBA?AW4state@2@DW432@@Z 0000000180060a70 f i libucrtd:output.obj
 0001:0005fb10       ?find_next_state@?$output_processor@DV?$stream_output_adapter@D@__crt_stdio_output@@V?$standard_base@DV?$stream_output_adapter@D@__crt_stdio_output@@@2@@__crt_stdio_output@@AEBA?AW4state@2@DW432@@Z 0000000180060b10 f i libucrtd:output.obj
 0001:0005fbb0       ?find_next_state@?$output_processor@DV?$string_output_adapter@D@__crt_stdio_output@@V?$format_validation_base@DV?$string_output_adapter@D@__crt_stdio_output@@@2@@__crt_stdio_output@@AEBA?AW4state@2@DW432@@Z 0000000180060bb0 f i libucrtd:output.obj
 0001:0005fc50       ?find_next_state@?$output_processor@DV?$string_output_adapter@D@__crt_stdio_output@@V?$positional_parameter_base@DV?$string_output_adapter@D@__crt_stdio_output@@@2@@__crt_stdio_output@@AEBA?AW4state@2@DW432@@Z 0000000180060c50 f i libucrtd:output.obj
 0001:0005fcf0       ?find_next_state@?$output_processor@DV?$string_output_adapter@D@__crt_stdio_output@@V?$standard_base@DV?$string_output_adapter@D@__crt_stdio_output@@@2@@__crt_stdio_output@@AEBA?AW4state@2@DW432@@Z 0000000180060cf0 f i libucrtd:output.obj
 0001:0005fd90       ?find_next_state@?$output_processor@_WV?$stream_output_adapter@_W@__crt_stdio_output@@V?$format_validation_base@_WV?$stream_output_adapter@_W@__crt_stdio_output@@@2@@__crt_stdio_output@@AEBA?AW4state@2@_WW432@@Z 0000000180060d90 f i libucrtd:output.obj
 0001:0005fe30       ?find_next_state@?$output_processor@_WV?$stream_output_adapter@_W@__crt_stdio_output@@V?$positional_parameter_base@_WV?$stream_output_adapter@_W@__crt_stdio_output@@@2@@__crt_stdio_output@@AEBA?AW4state@2@_WW432@@Z 0000000180060e30 f i libucrtd:output.obj
 0001:0005fed0       ?find_next_state@?$output_processor@_WV?$stream_output_adapter@_W@__crt_stdio_output@@V?$standard_base@_WV?$stream_output_adapter@_W@__crt_stdio_output@@@2@@__crt_stdio_output@@AEBA?AW4state@2@_WW432@@Z 0000000180060ed0 f i libucrtd:output.obj
 0001:0005ff70       ?find_next_state@?$output_processor@_WV?$string_output_adapter@_W@__crt_stdio_output@@V?$format_validation_base@_WV?$string_output_adapter@_W@__crt_stdio_output@@@2@@__crt_stdio_output@@AEBA?AW4state@2@_WW432@@Z 0000000180060f70 f i libucrtd:output.obj
 0001:00060010       ?find_next_state@?$output_processor@_WV?$string_output_adapter@_W@__crt_stdio_output@@V?$positional_parameter_base@_WV?$string_output_adapter@_W@__crt_stdio_output@@@2@@__crt_stdio_output@@AEBA?AW4state@2@_WW432@@Z 0000000180061010 f i libucrtd:output.obj
 0001:000600b0       ?find_next_state@?$output_processor@_WV?$string_output_adapter@_W@__crt_stdio_output@@V?$standard_base@_WV?$string_output_adapter@_W@__crt_stdio_output@@@2@@__crt_stdio_output@@AEBA?AW4state@2@_WW432@@Z 00000001800610b0 f i libucrtd:output.obj
 0001:00060150       ?force_decimal_point@__crt_stdio_output@@YAXPEADQEAU__crt_locale_pointers@@@Z 0000000180061150 f i libucrtd:output.obj
 0001:00060230       ?get_flags@__crt_stdio_stream@@QEBAJXZ 0000000180061230 f i libucrtd:output.obj
 0001:00060260       ?get_parameter_type@?$positional_parameter_base@DV?$stream_output_adapter@D@__crt_stdio_output@@@__crt_stdio_output@@CA?AW4parameter_type@12@F@Z 0000000180061260 f i libucrtd:output.obj
 0001:00060270       ?get_parameter_type@?$positional_parameter_base@DV?$stream_output_adapter@D@__crt_stdio_output@@@__crt_stdio_output@@CA?AW4parameter_type@12@G@Z 0000000180061270 f i libucrtd:output.obj
 0001:00060280       ?get_parameter_type@?$positional_parameter_base@DV?$stream_output_adapter@D@__crt_stdio_output@@@__crt_stdio_output@@CA?AW4parameter_type@12@H@Z 0000000180061280 f i libucrtd:output.obj
 0001:00060290       ?get_parameter_type@?$positional_parameter_base@DV?$stream_output_adapter@D@__crt_stdio_output@@@__crt_stdio_output@@CA?AW4parameter_type@12@I@Z 0000000180061290 f i libucrtd:output.obj
 0001:000602a0       ?get_parameter_type@?$positional_parameter_base@DV?$stream_output_adapter@D@__crt_stdio_output@@@__crt_stdio_output@@CA?AW4parameter_type@12@U_CRT_DOUBLE@@@Z 00000001800612a0 f i libucrtd:output.obj
 0001:000602b0       ?get_parameter_type@?$positional_parameter_base@DV?$stream_output_adapter@D@__crt_stdio_output@@@__crt_stdio_output@@CA?AW4parameter_type@12@_J@Z 00000001800612b0 f i libucrtd:output.obj
 0001:000602c0       ?get_parameter_type@?$positional_parameter_base@DV?$stream_output_adapter@D@__crt_stdio_output@@@__crt_stdio_output@@CA?AW4parameter_type@12@_K@Z 00000001800612c0 f i libucrtd:output.obj
 0001:000602d0       ?get_parameter_type@?$positional_parameter_base@DV?$stream_output_adapter@D@__crt_stdio_output@@@__crt_stdio_output@@CA?AW4parameter_type@12@_W@Z 00000001800612d0 f i libucrtd:output.obj
 0001:000602e0       ?get_parameter_type@?$positional_parameter_base@DV?$string_output_adapter@D@__crt_stdio_output@@@__crt_stdio_output@@CA?AW4parameter_type@12@F@Z 00000001800612e0 f i libucrtd:output.obj
 0001:000602f0       ?get_parameter_type@?$positional_parameter_base@DV?$string_output_adapter@D@__crt_stdio_output@@@__crt_stdio_output@@CA?AW4parameter_type@12@G@Z 00000001800612f0 f i libucrtd:output.obj
 0001:00060300       ?get_parameter_type@?$positional_parameter_base@DV?$string_output_adapter@D@__crt_stdio_output@@@__crt_stdio_output@@CA?AW4parameter_type@12@H@Z 0000000180061300 f i libucrtd:output.obj
 0001:00060310       ?get_parameter_type@?$positional_parameter_base@DV?$string_output_adapter@D@__crt_stdio_output@@@__crt_stdio_output@@CA?AW4parameter_type@12@I@Z 0000000180061310 f i libucrtd:output.obj
 0001:00060320       ?get_parameter_type@?$positional_parameter_base@DV?$string_output_adapter@D@__crt_stdio_output@@@__crt_stdio_output@@CA?AW4parameter_type@12@U_CRT_DOUBLE@@@Z 0000000180061320 f i libucrtd:output.obj
 0001:00060330       ?get_parameter_type@?$positional_parameter_base@DV?$string_output_adapter@D@__crt_stdio_output@@@__crt_stdio_output@@CA?AW4parameter_type@12@_J@Z 0000000180061330 f i libucrtd:output.obj
 0001:00060340       ?get_parameter_type@?$positional_parameter_base@DV?$string_output_adapter@D@__crt_stdio_output@@@__crt_stdio_output@@CA?AW4parameter_type@12@_K@Z 0000000180061340 f i libucrtd:output.obj
 0001:00060350       ?get_parameter_type@?$positional_parameter_base@DV?$string_output_adapter@D@__crt_stdio_output@@@__crt_stdio_output@@CA?AW4parameter_type@12@_W@Z 0000000180061350 f i libucrtd:output.obj
 0001:00060360       ?get_parameter_type@?$positional_parameter_base@_WV?$stream_output_adapter@_W@__crt_stdio_output@@@__crt_stdio_output@@CA?AW4parameter_type@12@F@Z 0000000180061360 f i libucrtd:output.obj
 0001:00060370       ?get_parameter_type@?$positional_parameter_base@_WV?$stream_output_adapter@_W@__crt_stdio_output@@@__crt_stdio_output@@CA?AW4parameter_type@12@G@Z 0000000180061370 f i libucrtd:output.obj
 0001:00060380       ?get_parameter_type@?$positional_parameter_base@_WV?$stream_output_adapter@_W@__crt_stdio_output@@@__crt_stdio_output@@CA?AW4parameter_type@12@H@Z 0000000180061380 f i libucrtd:output.obj
 0001:00060390       ?get_parameter_type@?$positional_parameter_base@_WV?$stream_output_adapter@_W@__crt_stdio_output@@@__crt_stdio_output@@CA?AW4parameter_type@12@I@Z 0000000180061390 f i libucrtd:output.obj
 0001:000603a0       ?get_parameter_type@?$positional_parameter_base@_WV?$stream_output_adapter@_W@__crt_stdio_output@@@__crt_stdio_output@@CA?AW4parameter_type@12@U_CRT_DOUBLE@@@Z 00000001800613a0 f i libucrtd:output.obj
 0001:000603b0       ?get_parameter_type@?$positional_parameter_base@_WV?$stream_output_adapter@_W@__crt_stdio_output@@@__crt_stdio_output@@CA?AW4parameter_type@12@_J@Z 00000001800613b0 f i libucrtd:output.obj
 0001:000603c0       ?get_parameter_type@?$positional_parameter_base@_WV?$stream_output_adapter@_W@__crt_stdio_output@@@__crt_stdio_output@@CA?AW4parameter_type@12@_K@Z 00000001800613c0 f i libucrtd:output.obj
 0001:000603d0       ?get_parameter_type@?$positional_parameter_base@_WV?$stream_output_adapter@_W@__crt_stdio_output@@@__crt_stdio_output@@CA?AW4parameter_type@12@_W@Z 00000001800613d0 f i libucrtd:output.obj
 0001:000603e0       ?get_parameter_type@?$positional_parameter_base@_WV?$string_output_adapter@_W@__crt_stdio_output@@@__crt_stdio_output@@CA?AW4parameter_type@12@F@Z 00000001800613e0 f i libucrtd:output.obj
 0001:000603f0       ?get_parameter_type@?$positional_parameter_base@_WV?$string_output_adapter@_W@__crt_stdio_output@@@__crt_stdio_output@@CA?AW4parameter_type@12@G@Z 00000001800613f0 f i libucrtd:output.obj
 0001:00060400       ?get_parameter_type@?$positional_parameter_base@_WV?$string_output_adapter@_W@__crt_stdio_output@@@__crt_stdio_output@@CA?AW4parameter_type@12@H@Z 0000000180061400 f i libucrtd:output.obj
 0001:00060410       ?get_parameter_type@?$positional_parameter_base@_WV?$string_output_adapter@_W@__crt_stdio_output@@@__crt_stdio_output@@CA?AW4parameter_type@12@I@Z 0000000180061410 f i libucrtd:output.obj
 0001:00060420       ?get_parameter_type@?$positional_parameter_base@_WV?$string_output_adapter@_W@__crt_stdio_output@@@__crt_stdio_output@@CA?AW4parameter_type@12@U_CRT_DOUBLE@@@Z 0000000180061420 f i libucrtd:output.obj
 0001:00060430       ?get_parameter_type@?$positional_parameter_base@_WV?$string_output_adapter@_W@__crt_stdio_output@@@__crt_stdio_output@@CA?AW4parameter_type@12@_J@Z 0000000180061430 f i libucrtd:output.obj
 0001:00060440       ?get_parameter_type@?$positional_parameter_base@_WV?$string_output_adapter@_W@__crt_stdio_output@@@__crt_stdio_output@@CA?AW4parameter_type@12@_K@Z 0000000180061440 f i libucrtd:output.obj
 0001:00060450       ?get_parameter_type@?$positional_parameter_base@_WV?$string_output_adapter@_W@__crt_stdio_output@@@__crt_stdio_output@@CA?AW4parameter_type@12@_W@Z 0000000180061450 f i libucrtd:output.obj
 0001:00060460       ?has_flag@?$output_processor@DV?$stream_output_adapter@D@__crt_stdio_output@@V?$format_validation_base@DV?$stream_output_adapter@D@__crt_stdio_output@@@2@@__crt_stdio_output@@AEBA_NI@Z 0000000180061460 f i libucrtd:output.obj
 0001:000604a0       ?has_flag@?$output_processor@DV?$stream_output_adapter@D@__crt_stdio_output@@V?$positional_parameter_base@DV?$stream_output_adapter@D@__crt_stdio_output@@@2@@__crt_stdio_output@@AEBA_NI@Z 00000001800614a0 f i libucrtd:output.obj
 0001:000604e0       ?has_flag@?$output_processor@DV?$stream_output_adapter@D@__crt_stdio_output@@V?$standard_base@DV?$stream_output_adapter@D@__crt_stdio_output@@@2@@__crt_stdio_output@@AEBA_NI@Z 00000001800614e0 f i libucrtd:output.obj
 0001:00060520       ?has_flag@?$output_processor@DV?$string_output_adapter@D@__crt_stdio_output@@V?$format_validation_base@DV?$string_output_adapter@D@__crt_stdio_output@@@2@@__crt_stdio_output@@AEBA_NI@Z 0000000180061520 f i libucrtd:output.obj
 0001:00060560       ?has_flag@?$output_processor@DV?$string_output_adapter@D@__crt_stdio_output@@V?$positional_parameter_base@DV?$string_output_adapter@D@__crt_stdio_output@@@2@@__crt_stdio_output@@AEBA_NI@Z 0000000180061560 f i libucrtd:output.obj
 0001:000605a0       ?has_flag@?$output_processor@DV?$string_output_adapter@D@__crt_stdio_output@@V?$standard_base@DV?$string_output_adapter@D@__crt_stdio_output@@@2@@__crt_stdio_output@@AEBA_NI@Z 00000001800615a0 f i libucrtd:output.obj
 0001:000605e0       ?has_flag@?$output_processor@_WV?$stream_output_adapter@_W@__crt_stdio_output@@V?$format_validation_base@_WV?$stream_output_adapter@_W@__crt_stdio_output@@@2@@__crt_stdio_output@@AEBA_NI@Z 00000001800615e0 f i libucrtd:output.obj
 0001:00060620       ?has_flag@?$output_processor@_WV?$stream_output_adapter@_W@__crt_stdio_output@@V?$positional_parameter_base@_WV?$stream_output_adapter@_W@__crt_stdio_output@@@2@@__crt_stdio_output@@AEBA_NI@Z 0000000180061620 f i libucrtd:output.obj
 0001:00060660       ?has_flag@?$output_processor@_WV?$stream_output_adapter@_W@__crt_stdio_output@@V?$standard_base@_WV?$stream_output_adapter@_W@__crt_stdio_output@@@2@@__crt_stdio_output@@AEBA_NI@Z 0000000180061660 f i libucrtd:output.obj
 0001:000606a0       ?has_flag@?$output_processor@_WV?$string_output_adapter@_W@__crt_stdio_output@@V?$format_validation_base@_WV?$string_output_adapter@_W@__crt_stdio_output@@@2@@__crt_stdio_output@@AEBA_NI@Z 00000001800616a0 f i libucrtd:output.obj
 0001:000606e0       ?has_flag@?$output_processor@_WV?$string_output_adapter@_W@__crt_stdio_output@@V?$positional_parameter_base@_WV?$string_output_adapter@_W@__crt_stdio_output@@@2@@__crt_stdio_output@@AEBA_NI@Z 00000001800616e0 f i libucrtd:output.obj
 0001:00060720       ?has_flag@?$output_processor@_WV?$string_output_adapter@_W@__crt_stdio_output@@V?$standard_base@_WV?$string_output_adapter@_W@__crt_stdio_output@@@2@@__crt_stdio_output@@AEBA_NI@Z 0000000180061720 f i libucrtd:output.obj
 0001:00060760       ?is_positional_parameter_reappearance_consistent@?$positional_parameter_base@DV?$stream_output_adapter@D@__crt_stdio_output@@@__crt_stdio_output@@AEAA_NAEBUparameter_data@12@W4parameter_type@12@DW4length_modifier@2@@Z 0000000180061760 f i libucrtd:output.obj
 0001:000609c0       ?is_positional_parameter_reappearance_consistent@?$positional_parameter_base@DV?$string_output_adapter@D@__crt_stdio_output@@@__crt_stdio_output@@AEAA_NAEBUparameter_data@12@W4parameter_type@12@DW4length_modifier@2@@Z 00000001800619c0 f i libucrtd:output.obj
 0001:00060c20       ?is_positional_parameter_reappearance_consistent@?$positional_parameter_base@_WV?$stream_output_adapter@_W@__crt_stdio_output@@@__crt_stdio_output@@AEAA_NAEBUparameter_data@12@W4parameter_type@12@_WW4length_modifier@2@@Z 0000000180061c20 f i libucrtd:output.obj
 0001:00060e80       ?is_positional_parameter_reappearance_consistent@?$positional_parameter_base@_WV?$string_output_adapter@_W@__crt_stdio_output@@@__crt_stdio_output@@AEAA_NAEBUparameter_data@12@W4parameter_type@12@_WW4length_modifier@2@@Z 0000000180061e80 f i libucrtd:output.obj
 0001:000610e0       ?is_string_backed@__crt_stdio_stream@@QEBA_NXZ 00000001800620e0 f i libucrtd:output.obj
 0001:00061120       ?narrow_null_string@?$output_processor@DV?$stream_output_adapter@D@__crt_stdio_output@@V?$format_validation_base@DV?$stream_output_adapter@D@__crt_stdio_output@@@2@@__crt_stdio_output@@CAPEADXZ 0000000180062120 f i libucrtd:output.obj
 0001:00061130       ?narrow_null_string@?$output_processor@DV?$stream_output_adapter@D@__crt_stdio_output@@V?$positional_parameter_base@DV?$stream_output_adapter@D@__crt_stdio_output@@@2@@__crt_stdio_output@@CAPEADXZ 0000000180062130 f i libucrtd:output.obj
 0001:00061140       ?narrow_null_string@?$output_processor@DV?$stream_output_adapter@D@__crt_stdio_output@@V?$standard_base@DV?$stream_output_adapter@D@__crt_stdio_output@@@2@@__crt_stdio_output@@CAPEADXZ 0000000180062140 f i libucrtd:output.obj
 0001:00061150       ?narrow_null_string@?$output_processor@DV?$string_output_adapter@D@__crt_stdio_output@@V?$format_validation_base@DV?$string_output_adapter@D@__crt_stdio_output@@@2@@__crt_stdio_output@@CAPEADXZ 0000000180062150 f i libucrtd:output.obj
 0001:00061160       ?narrow_null_string@?$output_processor@DV?$string_output_adapter@D@__crt_stdio_output@@V?$positional_parameter_base@DV?$string_output_adapter@D@__crt_stdio_output@@@2@@__crt_stdio_output@@CAPEADXZ 0000000180062160 f i libucrtd:output.obj
 0001:00061170       ?narrow_null_string@?$output_processor@DV?$string_output_adapter@D@__crt_stdio_output@@V?$standard_base@DV?$string_output_adapter@D@__crt_stdio_output@@@2@@__crt_stdio_output@@CAPEADXZ 0000000180062170 f i libucrtd:output.obj
 0001:00061180       ?narrow_null_string@?$output_processor@_WV?$stream_output_adapter@_W@__crt_stdio_output@@V?$format_validation_base@_WV?$stream_output_adapter@_W@__crt_stdio_output@@@2@@__crt_stdio_output@@CAPEADXZ 0000000180062180 f i libucrtd:output.obj
 0001:00061190       ?narrow_null_string@?$output_processor@_WV?$stream_output_adapter@_W@__crt_stdio_output@@V?$positional_parameter_base@_WV?$stream_output_adapter@_W@__crt_stdio_output@@@2@@__crt_stdio_output@@CAPEADXZ 0000000180062190 f i libucrtd:output.obj
 0001:000611a0       ?narrow_null_string@?$output_processor@_WV?$stream_output_adapter@_W@__crt_stdio_output@@V?$standard_base@_WV?$stream_output_adapter@_W@__crt_stdio_output@@@2@@__crt_stdio_output@@CAPEADXZ 00000001800621a0 f i libucrtd:output.obj
 0001:000611b0       ?narrow_null_string@?$output_processor@_WV?$string_output_adapter@_W@__crt_stdio_output@@V?$format_validation_base@_WV?$string_output_adapter@_W@__crt_stdio_output@@@2@@__crt_stdio_output@@CAPEADXZ 00000001800621b0 f i libucrtd:output.obj
 0001:000611c0       ?narrow_null_string@?$output_processor@_WV?$string_output_adapter@_W@__crt_stdio_output@@V?$positional_parameter_base@_WV?$string_output_adapter@_W@__crt_stdio_output@@@2@@__crt_stdio_output@@CAPEADXZ 00000001800621c0 f i libucrtd:output.obj
 0001:000611d0       ?narrow_null_string@?$output_processor@_WV?$string_output_adapter@_W@__crt_stdio_output@@V?$standard_base@_WV?$string_output_adapter@_W@__crt_stdio_output@@@2@@__crt_stdio_output@@CAPEADXZ 00000001800621d0 f i libucrtd:output.obj
 0001:000611e0       ?parse_int_from_format_string@?$output_processor@DV?$stream_output_adapter@D@__crt_stdio_output@@V?$format_validation_base@DV?$stream_output_adapter@D@__crt_stdio_output@@@2@@__crt_stdio_output@@AEAA_NQEAH@Z 00000001800621e0 f i libucrtd:output.obj
 0001:000612c0       ?parse_int_from_format_string@?$output_processor@DV?$stream_output_adapter@D@__crt_stdio_output@@V?$positional_parameter_base@DV?$stream_output_adapter@D@__crt_stdio_output@@@2@@__crt_stdio_output@@AEAA_NQEAH@Z 00000001800622c0 f i libucrtd:output.obj
 0001:000613a0       ?parse_int_from_format_string@?$output_processor@DV?$stream_output_adapter@D@__crt_stdio_output@@V?$standard_base@DV?$stream_output_adapter@D@__crt_stdio_output@@@2@@__crt_stdio_output@@AEAA_NQEAH@Z 00000001800623a0 f i libucrtd:output.obj
 0001:00061480       ?parse_int_from_format_string@?$output_processor@DV?$string_output_adapter@D@__crt_stdio_output@@V?$format_validation_base@DV?$string_output_adapter@D@__crt_stdio_output@@@2@@__crt_stdio_output@@AEAA_NQEAH@Z 0000000180062480 f i libucrtd:output.obj
 0001:00061560       ?parse_int_from_format_string@?$output_processor@DV?$string_output_adapter@D@__crt_stdio_output@@V?$positional_parameter_base@DV?$string_output_adapter@D@__crt_stdio_output@@@2@@__crt_stdio_output@@AEAA_NQEAH@Z 0000000180062560 f i libucrtd:output.obj
 0001:00061640       ?parse_int_from_format_string@?$output_processor@DV?$string_output_adapter@D@__crt_stdio_output@@V?$standard_base@DV?$string_output_adapter@D@__crt_stdio_output@@@2@@__crt_stdio_output@@AEAA_NQEAH@Z 0000000180062640 f i libucrtd:output.obj
 0001:00061720       ?parse_int_from_format_string@?$output_processor@_WV?$stream_output_adapter@_W@__crt_stdio_output@@V?$format_validation_base@_WV?$stream_output_adapter@_W@__crt_stdio_output@@@2@@__crt_stdio_output@@AEAA_NQEAH@Z 0000000180062720 f i libucrtd:output.obj
 0001:00061800       ?parse_int_from_format_string@?$output_processor@_WV?$stream_output_adapter@_W@__crt_stdio_output@@V?$positional_parameter_base@_WV?$stream_output_adapter@_W@__crt_stdio_output@@@2@@__crt_stdio_output@@AEAA_NQEAH@Z 0000000180062800 f i libucrtd:output.obj
 0001:000618e0       ?parse_int_from_format_string@?$output_processor@_WV?$stream_output_adapter@_W@__crt_stdio_output@@V?$standard_base@_WV?$stream_output_adapter@_W@__crt_stdio_output@@@2@@__crt_stdio_output@@AEAA_NQEAH@Z 00000001800628e0 f i libucrtd:output.obj
 0001:000619c0       ?parse_int_from_format_string@?$output_processor@_WV?$string_output_adapter@_W@__crt_stdio_output@@V?$format_validation_base@_WV?$string_output_adapter@_W@__crt_stdio_output@@@2@@__crt_stdio_output@@AEAA_NQEAH@Z 00000001800629c0 f i libucrtd:output.obj
 0001:00061aa0       ?parse_int_from_format_string@?$output_processor@_WV?$string_output_adapter@_W@__crt_stdio_output@@V?$positional_parameter_base@_WV?$string_output_adapter@_W@__crt_stdio_output@@@2@@__crt_stdio_output@@AEAA_NQEAH@Z 0000000180062aa0 f i libucrtd:output.obj
 0001:00061b80       ?parse_int_from_format_string@?$output_processor@_WV?$string_output_adapter@_W@__crt_stdio_output@@V?$standard_base@_WV?$string_output_adapter@_W@__crt_stdio_output@@@2@@__crt_stdio_output@@AEAA_NQEAH@Z 0000000180062b80 f i libucrtd:output.obj
 0001:00061c60       ?process@?$output_processor@DV?$stream_output_adapter@D@__crt_stdio_output@@V?$format_validation_base@DV?$stream_output_adapter@D@__crt_stdio_output@@@2@@__crt_stdio_output@@QEAAHXZ 0000000180062c60 f i libucrtd:output.obj
 0001:00061fc0       ?process@?$output_processor@DV?$stream_output_adapter@D@__crt_stdio_output@@V?$positional_parameter_base@DV?$stream_output_adapter@D@__crt_stdio_output@@@2@@__crt_stdio_output@@QEAAHXZ 0000000180062fc0 f i libucrtd:output.obj
 0001:00062320       ?process@?$output_processor@DV?$stream_output_adapter@D@__crt_stdio_output@@V?$standard_base@DV?$stream_output_adapter@D@__crt_stdio_output@@@2@@__crt_stdio_output@@QEAAHXZ 0000000180063320 f i libucrtd:output.obj
 0001:00062680       ?process@?$output_processor@DV?$string_output_adapter@D@__crt_stdio_output@@V?$format_validation_base@DV?$string_output_adapter@D@__crt_stdio_output@@@2@@__crt_stdio_output@@QEAAHXZ 0000000180063680 f i libucrtd:output.obj
 0001:000629e0       ?process@?$output_processor@DV?$string_output_adapter@D@__crt_stdio_output@@V?$positional_parameter_base@DV?$string_output_adapter@D@__crt_stdio_output@@@2@@__crt_stdio_output@@QEAAHXZ 00000001800639e0 f i libucrtd:output.obj
 0001:00062d40       ?process@?$output_processor@DV?$string_output_adapter@D@__crt_stdio_output@@V?$standard_base@DV?$string_output_adapter@D@__crt_stdio_output@@@2@@__crt_stdio_output@@QEAAHXZ 0000000180063d40 f i libucrtd:output.obj
 0001:000630a0       ?process@?$output_processor@_WV?$stream_output_adapter@_W@__crt_stdio_output@@V?$format_validation_base@_WV?$stream_output_adapter@_W@__crt_stdio_output@@@2@@__crt_stdio_output@@QEAAHXZ 00000001800640a0 f i libucrtd:output.obj
 0001:00063400       ?process@?$output_processor@_WV?$stream_output_adapter@_W@__crt_stdio_output@@V?$positional_parameter_base@_WV?$stream_output_adapter@_W@__crt_stdio_output@@@2@@__crt_stdio_output@@QEAAHXZ 0000000180064400 f i libucrtd:output.obj
 0001:00063760       ?process@?$output_processor@_WV?$stream_output_adapter@_W@__crt_stdio_output@@V?$standard_base@_WV?$stream_output_adapter@_W@__crt_stdio_output@@@2@@__crt_stdio_output@@QEAAHXZ 0000000180064760 f i libucrtd:output.obj
 0001:00063ac0       ?process@?$output_processor@_WV?$string_output_adapter@_W@__crt_stdio_output@@V?$format_validation_base@_WV?$string_output_adapter@_W@__crt_stdio_output@@@2@@__crt_stdio_output@@QEAAHXZ 0000000180064ac0 f i libucrtd:output.obj
 0001:00063e20       ?process@?$output_processor@_WV?$string_output_adapter@_W@__crt_stdio_output@@V?$positional_parameter_base@_WV?$string_output_adapter@_W@__crt_stdio_output@@@2@@__crt_stdio_output@@QEAAHXZ 0000000180064e20 f i libucrtd:output.obj
 0001:00064180       ?process@?$output_processor@_WV?$string_output_adapter@_W@__crt_stdio_output@@V?$standard_base@_WV?$string_output_adapter@_W@__crt_stdio_output@@@2@@__crt_stdio_output@@QEAAHXZ 0000000180065180 f i libucrtd:output.obj
 0001:000644e0       ?public_stream@__crt_stdio_stream@@QEBAPEAU_iobuf@@XZ 00000001800654e0 f i libucrtd:output.obj
 0001:000644f0       ?set_flag@?$output_processor@DV?$stream_output_adapter@D@__crt_stdio_output@@V?$format_validation_base@DV?$stream_output_adapter@D@__crt_stdio_output@@@2@@__crt_stdio_output@@AEAAXI@Z 00000001800654f0 f i libucrtd:output.obj
 0001:00064510       ?set_flag@?$output_processor@DV?$stream_output_adapter@D@__crt_stdio_output@@V?$positional_parameter_base@DV?$stream_output_adapter@D@__crt_stdio_output@@@2@@__crt_stdio_output@@AEAAXI@Z 0000000180065510 f i libucrtd:output.obj
 0001:00064530       ?set_flag@?$output_processor@DV?$stream_output_adapter@D@__crt_stdio_output@@V?$standard_base@DV?$stream_output_adapter@D@__crt_stdio_output@@@2@@__crt_stdio_output@@AEAAXI@Z 0000000180065530 f i libucrtd:output.obj
 0001:00064550       ?set_flag@?$output_processor@DV?$string_output_adapter@D@__crt_stdio_output@@V?$format_validation_base@DV?$string_output_adapter@D@__crt_stdio_output@@@2@@__crt_stdio_output@@AEAAXI@Z 0000000180065550 f i libucrtd:output.obj
 0001:00064570       ?set_flag@?$output_processor@DV?$string_output_adapter@D@__crt_stdio_output@@V?$positional_parameter_base@DV?$string_output_adapter@D@__crt_stdio_output@@@2@@__crt_stdio_output@@AEAAXI@Z 0000000180065570 f i libucrtd:output.obj
 0001:00064590       ?set_flag@?$output_processor@DV?$string_output_adapter@D@__crt_stdio_output@@V?$standard_base@DV?$string_output_adapter@D@__crt_stdio_output@@@2@@__crt_stdio_output@@AEAAXI@Z 0000000180065590 f i libucrtd:output.obj
 0001:000645b0       ?set_flag@?$output_processor@_WV?$stream_output_adapter@_W@__crt_stdio_output@@V?$format_validation_base@_WV?$stream_output_adapter@_W@__crt_stdio_output@@@2@@__crt_stdio_output@@AEAAXI@Z 00000001800655b0 f i libucrtd:output.obj
 0001:000645d0       ?set_flag@?$output_processor@_WV?$stream_output_adapter@_W@__crt_stdio_output@@V?$positional_parameter_base@_WV?$stream_output_adapter@_W@__crt_stdio_output@@@2@@__crt_stdio_output@@AEAAXI@Z 00000001800655d0 f i libucrtd:output.obj
 0001:000645f0       ?set_flag@?$output_processor@_WV?$stream_output_adapter@_W@__crt_stdio_output@@V?$standard_base@_WV?$stream_output_adapter@_W@__crt_stdio_output@@@2@@__crt_stdio_output@@AEAAXI@Z 00000001800655f0 f i libucrtd:output.obj
 0001:00064610       ?set_flag@?$output_processor@_WV?$string_output_adapter@_W@__crt_stdio_output@@V?$format_validation_base@_WV?$string_output_adapter@_W@__crt_stdio_output@@@2@@__crt_stdio_output@@AEAAXI@Z 0000000180065610 f i libucrtd:output.obj
 0001:00064630       ?set_flag@?$output_processor@_WV?$string_output_adapter@_W@__crt_stdio_output@@V?$positional_parameter_base@_WV?$string_output_adapter@_W@__crt_stdio_output@@@2@@__crt_stdio_output@@AEAAXI@Z 0000000180065630 f i libucrtd:output.obj
 0001:00064650       ?set_flag@?$output_processor@_WV?$string_output_adapter@_W@__crt_stdio_output@@V?$standard_base@_WV?$string_output_adapter@_W@__crt_stdio_output@@@2@@__crt_stdio_output@@AEAAXI@Z 0000000180065650 f i libucrtd:output.obj
 0001:00064670       ?should_format@?$positional_parameter_base@DV?$stream_output_adapter@D@__crt_stdio_output@@@__crt_stdio_output@@IEAA_NXZ 0000000180065670 f i libucrtd:output.obj
 0001:000646b0       ?should_format@?$positional_parameter_base@DV?$string_output_adapter@D@__crt_stdio_output@@@__crt_stdio_output@@IEAA_NXZ 00000001800656b0 f i libucrtd:output.obj
 0001:000646f0       ?should_format@?$positional_parameter_base@_WV?$stream_output_adapter@_W@__crt_stdio_output@@@__crt_stdio_output@@IEAA_NXZ 00000001800656f0 f i libucrtd:output.obj
 0001:00064730       ?should_format@?$positional_parameter_base@_WV?$string_output_adapter@_W@__crt_stdio_output@@@__crt_stdio_output@@IEAA_NXZ 0000000180065730 f i libucrtd:output.obj
 0001:00064770       ?should_format@?$standard_base@DV?$stream_output_adapter@D@__crt_stdio_output@@@__crt_stdio_output@@IEAA_NXZ 0000000180065770 f i libucrtd:output.obj
 0001:00064780       ?should_format@?$standard_base@DV?$string_output_adapter@D@__crt_stdio_output@@@__crt_stdio_output@@IEAA_NXZ 0000000180065780 f i libucrtd:output.obj
 0001:00064790       ?should_format@?$standard_base@_WV?$stream_output_adapter@_W@__crt_stdio_output@@@__crt_stdio_output@@IEAA_NXZ 0000000180065790 f i libucrtd:output.obj
 0001:000647a0       ?should_format@?$standard_base@_WV?$string_output_adapter@_W@__crt_stdio_output@@@__crt_stdio_output@@IEAA_NXZ 00000001800657a0 f i libucrtd:output.obj
 0001:000647b0       ?should_skip_normal_state_processing@?$positional_parameter_base@DV?$stream_output_adapter@D@__crt_stdio_output@@@__crt_stdio_output@@IEAA_NXZ 00000001800657b0 f i libucrtd:output.obj
 0001:00064800       ?should_skip_normal_state_processing@?$positional_parameter_base@DV?$string_output_adapter@D@__crt_stdio_output@@@__crt_stdio_output@@IEAA_NXZ 0000000180065800 f i libucrtd:output.obj
 0001:00064850       ?should_skip_normal_state_processing@?$positional_parameter_base@_WV?$stream_output_adapter@_W@__crt_stdio_output@@@__crt_stdio_output@@IEAA_NXZ 0000000180065850 f i libucrtd:output.obj
 0001:000648a0       ?should_skip_normal_state_processing@?$positional_parameter_base@_WV?$string_output_adapter@_W@__crt_stdio_output@@@__crt_stdio_output@@IEAA_NXZ 00000001800658a0 f i libucrtd:output.obj
 0001:000648f0       ?should_skip_normal_state_processing@?$standard_base@DV?$stream_output_adapter@D@__crt_stdio_output@@@__crt_stdio_output@@IEAA_NXZ 00000001800658f0 f i libucrtd:output.obj
 0001:00064900       ?should_skip_normal_state_processing@?$standard_base@DV?$string_output_adapter@D@__crt_stdio_output@@@__crt_stdio_output@@IEAA_NXZ 0000000180065900 f i libucrtd:output.obj
 0001:00064910       ?should_skip_normal_state_processing@?$standard_base@_WV?$stream_output_adapter@_W@__crt_stdio_output@@@__crt_stdio_output@@IEAA_NXZ 0000000180065910 f i libucrtd:output.obj
 0001:00064920       ?should_skip_normal_state_processing@?$standard_base@_WV?$string_output_adapter@_W@__crt_stdio_output@@@__crt_stdio_output@@IEAA_NXZ 0000000180065920 f i libucrtd:output.obj
 0001:00064930       ?should_skip_type_state_output@?$positional_parameter_base@DV?$stream_output_adapter@D@__crt_stdio_output@@@__crt_stdio_output@@IEBA_NXZ 0000000180065930 f i libucrtd:output.obj
 0001:00064970       ?should_skip_type_state_output@?$positional_parameter_base@DV?$string_output_adapter@D@__crt_stdio_output@@@__crt_stdio_output@@IEBA_NXZ 0000000180065970 f i libucrtd:output.obj
 0001:000649b0       ?should_skip_type_state_output@?$positional_parameter_base@_WV?$stream_output_adapter@_W@__crt_stdio_output@@@__crt_stdio_output@@IEBA_NXZ 00000001800659b0 f i libucrtd:output.obj
 0001:000649f0       ?should_skip_type_state_output@?$positional_parameter_base@_WV?$string_output_adapter@_W@__crt_stdio_output@@@__crt_stdio_output@@IEBA_NXZ 00000001800659f0 f i libucrtd:output.obj
 0001:00064a30       ?should_skip_type_state_output@?$standard_base@DV?$stream_output_adapter@D@__crt_stdio_output@@@__crt_stdio_output@@IEBA_NXZ 0000000180065a30 f i libucrtd:output.obj
 0001:00064a40       ?should_skip_type_state_output@?$standard_base@DV?$string_output_adapter@D@__crt_stdio_output@@@__crt_stdio_output@@IEBA_NXZ 0000000180065a40 f i libucrtd:output.obj
 0001:00064a50       ?should_skip_type_state_output@?$standard_base@_WV?$stream_output_adapter@_W@__crt_stdio_output@@@__crt_stdio_output@@IEBA_NXZ 0000000180065a50 f i libucrtd:output.obj
 0001:00064a60       ?should_skip_type_state_output@?$standard_base@_WV?$string_output_adapter@_W@__crt_stdio_output@@@__crt_stdio_output@@IEBA_NXZ 0000000180065a60 f i libucrtd:output.obj
 0001:00064a70       ?state_case_dot@?$output_processor@DV?$stream_output_adapter@D@__crt_stdio_output@@V?$format_validation_base@DV?$stream_output_adapter@D@__crt_stdio_output@@@2@@__crt_stdio_output@@AEAA_NXZ 0000000180065a70 f i libucrtd:output.obj
 0001:00064a90       ?state_case_dot@?$output_processor@DV?$stream_output_adapter@D@__crt_stdio_output@@V?$positional_parameter_base@DV?$stream_output_adapter@D@__crt_stdio_output@@@2@@__crt_stdio_output@@AEAA_NXZ 0000000180065a90 f i libucrtd:output.obj
 0001:00064ab0       ?state_case_dot@?$output_processor@DV?$stream_output_adapter@D@__crt_stdio_output@@V?$standard_base@DV?$stream_output_adapter@D@__crt_stdio_output@@@2@@__crt_stdio_output@@AEAA_NXZ 0000000180065ab0 f i libucrtd:output.obj
 0001:00064ad0       ?state_case_dot@?$output_processor@DV?$string_output_adapter@D@__crt_stdio_output@@V?$format_validation_base@DV?$string_output_adapter@D@__crt_stdio_output@@@2@@__crt_stdio_output@@AEAA_NXZ 0000000180065ad0 f i libucrtd:output.obj
 0001:00064af0       ?state_case_dot@?$output_processor@DV?$string_output_adapter@D@__crt_stdio_output@@V?$positional_parameter_base@DV?$string_output_adapter@D@__crt_stdio_output@@@2@@__crt_stdio_output@@AEAA_NXZ 0000000180065af0 f i libucrtd:output.obj
 0001:00064b10       ?state_case_dot@?$output_processor@DV?$string_output_adapter@D@__crt_stdio_output@@V?$standard_base@DV?$string_output_adapter@D@__crt_stdio_output@@@2@@__crt_stdio_output@@AEAA_NXZ 0000000180065b10 f i libucrtd:output.obj
 0001:00064b30       ?state_case_dot@?$output_processor@_WV?$stream_output_adapter@_W@__crt_stdio_output@@V?$format_validation_base@_WV?$stream_output_adapter@_W@__crt_stdio_output@@@2@@__crt_stdio_output@@AEAA_NXZ 0000000180065b30 f i libucrtd:output.obj
 0001:00064b50       ?state_case_dot@?$output_processor@_WV?$stream_output_adapter@_W@__crt_stdio_output@@V?$positional_parameter_base@_WV?$stream_output_adapter@_W@__crt_stdio_output@@@2@@__crt_stdio_output@@AEAA_NXZ 0000000180065b50 f i libucrtd:output.obj
 0001:00064b70       ?state_case_dot@?$output_processor@_WV?$stream_output_adapter@_W@__crt_stdio_output@@V?$standard_base@_WV?$stream_output_adapter@_W@__crt_stdio_output@@@2@@__crt_stdio_output@@AEAA_NXZ 0000000180065b70 f i libucrtd:output.obj
 0001:00064b90       ?state_case_dot@?$output_processor@_WV?$string_output_adapter@_W@__crt_stdio_output@@V?$format_validation_base@_WV?$string_output_adapter@_W@__crt_stdio_output@@@2@@__crt_stdio_output@@AEAA_NXZ 0000000180065b90 f i libucrtd:output.obj
 0001:00064bb0       ?state_case_dot@?$output_processor@_WV?$string_output_adapter@_W@__crt_stdio_output@@V?$positional_parameter_base@_WV?$string_output_adapter@_W@__crt_stdio_output@@@2@@__crt_stdio_output@@AEAA_NXZ 0000000180065bb0 f i libucrtd:output.obj
 0001:00064bd0       ?state_case_dot@?$output_processor@_WV?$string_output_adapter@_W@__crt_stdio_output@@V?$standard_base@_WV?$string_output_adapter@_W@__crt_stdio_output@@@2@@__crt_stdio_output@@AEAA_NXZ 0000000180065bd0 f i libucrtd:output.obj
 0001:00064bf0       ?state_case_flag@?$output_processor@DV?$stream_output_adapter@D@__crt_stdio_output@@V?$format_validation_base@DV?$stream_output_adapter@D@__crt_stdio_output@@@2@@__crt_stdio_output@@AEAA_NXZ 0000000180065bf0 f i libucrtd:output.obj
 0001:00064c90       ?state_case_flag@?$output_processor@DV?$stream_output_adapter@D@__crt_stdio_output@@V?$positional_parameter_base@DV?$stream_output_adapter@D@__crt_stdio_output@@@2@@__crt_stdio_output@@AEAA_NXZ 0000000180065c90 f i libucrtd:output.obj
 0001:00064d30       ?state_case_flag@?$output_processor@DV?$stream_output_adapter@D@__crt_stdio_output@@V?$standard_base@DV?$stream_output_adapter@D@__crt_stdio_output@@@2@@__crt_stdio_output@@AEAA_NXZ 0000000180065d30 f i libucrtd:output.obj
 0001:00064dd0       ?state_case_flag@?$output_processor@DV?$string_output_adapter@D@__crt_stdio_output@@V?$format_validation_base@DV?$string_output_adapter@D@__crt_stdio_output@@@2@@__crt_stdio_output@@AEAA_NXZ 0000000180065dd0 f i libucrtd:output.obj
 0001:00064e70       ?state_case_flag@?$output_processor@DV?$string_output_adapter@D@__crt_stdio_output@@V?$positional_parameter_base@DV?$string_output_adapter@D@__crt_stdio_output@@@2@@__crt_stdio_output@@AEAA_NXZ 0000000180065e70 f i libucrtd:output.obj
 0001:00064f10       ?state_case_flag@?$output_processor@DV?$string_output_adapter@D@__crt_stdio_output@@V?$standard_base@DV?$string_output_adapter@D@__crt_stdio_output@@@2@@__crt_stdio_output@@AEAA_NXZ 0000000180065f10 f i libucrtd:output.obj
 0001:00064fb0       ?state_case_flag@?$output_processor@_WV?$stream_output_adapter@_W@__crt_stdio_output@@V?$format_validation_base@_WV?$stream_output_adapter@_W@__crt_stdio_output@@@2@@__crt_stdio_output@@AEAA_NXZ 0000000180065fb0 f i libucrtd:output.obj
 0001:00065050       ?state_case_flag@?$output_processor@_WV?$stream_output_adapter@_W@__crt_stdio_output@@V?$positional_parameter_base@_WV?$stream_output_adapter@_W@__crt_stdio_output@@@2@@__crt_stdio_output@@AEAA_NXZ 0000000180066050 f i libucrtd:output.obj
 0001:000650f0       ?state_case_flag@?$output_processor@_WV?$stream_output_adapter@_W@__crt_stdio_output@@V?$standard_base@_WV?$stream_output_adapter@_W@__crt_stdio_output@@@2@@__crt_stdio_output@@AEAA_NXZ 00000001800660f0 f i libucrtd:output.obj
 0001:00065190       ?state_case_flag@?$output_processor@_WV?$string_output_adapter@_W@__crt_stdio_output@@V?$format_validation_base@_WV?$string_output_adapter@_W@__crt_stdio_output@@@2@@__crt_stdio_output@@AEAA_NXZ 0000000180066190 f i libucrtd:output.obj
 0001:00065230       ?state_case_flag@?$output_processor@_WV?$string_output_adapter@_W@__crt_stdio_output@@V?$positional_parameter_base@_WV?$string_output_adapter@_W@__crt_stdio_output@@@2@@__crt_stdio_output@@AEAA_NXZ 0000000180066230 f i libucrtd:output.obj
 0001:000652d0       ?state_case_flag@?$output_processor@_WV?$string_output_adapter@_W@__crt_stdio_output@@V?$standard_base@_WV?$string_output_adapter@_W@__crt_stdio_output@@@2@@__crt_stdio_output@@AEAA_NXZ 00000001800662d0 f i libucrtd:output.obj
 0001:00065370       ?state_case_normal@?$output_processor@DV?$stream_output_adapter@D@__crt_stdio_output@@V?$format_validation_base@DV?$stream_output_adapter@D@__crt_stdio_output@@@2@@__crt_stdio_output@@AEAA_NXZ 0000000180066370 f i libucrtd:output.obj
 0001:00065450       ?state_case_normal@?$output_processor@DV?$stream_output_adapter@D@__crt_stdio_output@@V?$positional_parameter_base@DV?$stream_output_adapter@D@__crt_stdio_output@@@2@@__crt_stdio_output@@AEAA_NXZ 0000000180066450 f i libucrtd:output.obj
 0001:00065530       ?state_case_normal@?$output_processor@DV?$stream_output_adapter@D@__crt_stdio_output@@V?$standard_base@DV?$stream_output_adapter@D@__crt_stdio_output@@@2@@__crt_stdio_output@@AEAA_NXZ 0000000180066530 f i libucrtd:output.obj
 0001:00065610       ?state_case_normal@?$output_processor@DV?$string_output_adapter@D@__crt_stdio_output@@V?$format_validation_base@DV?$string_output_adapter@D@__crt_stdio_output@@@2@@__crt_stdio_output@@AEAA_NXZ 0000000180066610 f i libucrtd:output.obj
 0001:000656f0       ?state_case_normal@?$output_processor@DV?$string_output_adapter@D@__crt_stdio_output@@V?$positional_parameter_base@DV?$string_output_adapter@D@__crt_stdio_output@@@2@@__crt_stdio_output@@AEAA_NXZ 00000001800666f0 f i libucrtd:output.obj
 0001:000657d0       ?state_case_normal@?$output_processor@DV?$string_output_adapter@D@__crt_stdio_output@@V?$standard_base@DV?$string_output_adapter@D@__crt_stdio_output@@@2@@__crt_stdio_output@@AEAA_NXZ 00000001800667d0 f i libucrtd:output.obj
 0001:000658b0       ?state_case_normal@?$output_processor@_WV?$stream_output_adapter@_W@__crt_stdio_output@@V?$format_validation_base@_WV?$stream_output_adapter@_W@__crt_stdio_output@@@2@@__crt_stdio_output@@AEAA_NXZ 00000001800668b0 f i libucrtd:output.obj
 0001:00065990       ?state_case_normal@?$output_processor@_WV?$stream_output_adapter@_W@__crt_stdio_output@@V?$positional_parameter_base@_WV?$stream_output_adapter@_W@__crt_stdio_output@@@2@@__crt_stdio_output@@AEAA_NXZ 0000000180066990 f i libucrtd:output.obj
 0001:00065a70       ?state_case_normal@?$output_processor@_WV?$stream_output_adapter@_W@__crt_stdio_output@@V?$standard_base@_WV?$stream_output_adapter@_W@__crt_stdio_output@@@2@@__crt_stdio_output@@AEAA_NXZ 0000000180066a70 f i libucrtd:output.obj
 0001:00065b50       ?state_case_normal@?$output_processor@_WV?$string_output_adapter@_W@__crt_stdio_output@@V?$format_validation_base@_WV?$string_output_adapter@_W@__crt_stdio_output@@@2@@__crt_stdio_output@@AEAA_NXZ 0000000180066b50 f i libucrtd:output.obj
 0001:00065c30       ?state_case_normal@?$output_processor@_WV?$string_output_adapter@_W@__crt_stdio_output@@V?$positional_parameter_base@_WV?$string_output_adapter@_W@__crt_stdio_output@@@2@@__crt_stdio_output@@AEAA_NXZ 0000000180066c30 f i libucrtd:output.obj
 0001:00065d10       ?state_case_normal@?$output_processor@_WV?$string_output_adapter@_W@__crt_stdio_output@@V?$standard_base@_WV?$string_output_adapter@_W@__crt_stdio_output@@@2@@__crt_stdio_output@@AEAA_NXZ 0000000180066d10 f i libucrtd:output.obj
 0001:00065df0       ?state_case_normal_common@?$output_processor@DV?$stream_output_adapter@D@__crt_stdio_output@@V?$format_validation_base@DV?$stream_output_adapter@D@__crt_stdio_output@@@2@@__crt_stdio_output@@AEAA_NXZ 0000000180066df0 f i libucrtd:output.obj
 0001:00065e40       ?state_case_normal_common@?$output_processor@DV?$stream_output_adapter@D@__crt_stdio_output@@V?$positional_parameter_base@DV?$stream_output_adapter@D@__crt_stdio_output@@@2@@__crt_stdio_output@@AEAA_NXZ 0000000180066e40 f i libucrtd:output.obj
 0001:00065e90       ?state_case_normal_common@?$output_processor@DV?$stream_output_adapter@D@__crt_stdio_output@@V?$standard_base@DV?$stream_output_adapter@D@__crt_stdio_output@@@2@@__crt_stdio_output@@AEAA_NXZ 0000000180066e90 f i libucrtd:output.obj
 0001:00065ee0       ?state_case_normal_common@?$output_processor@DV?$string_output_adapter@D@__crt_stdio_output@@V?$format_validation_base@DV?$string_output_adapter@D@__crt_stdio_output@@@2@@__crt_stdio_output@@AEAA_NXZ 0000000180066ee0 f i libucrtd:output.obj
 0001:00065f30       ?state_case_normal_common@?$output_processor@DV?$string_output_adapter@D@__crt_stdio_output@@V?$positional_parameter_base@DV?$string_output_adapter@D@__crt_stdio_output@@@2@@__crt_stdio_output@@AEAA_NXZ 0000000180066f30 f i libucrtd:output.obj
 0001:00065f80       ?state_case_normal_common@?$output_processor@DV?$string_output_adapter@D@__crt_stdio_output@@V?$standard_base@DV?$string_output_adapter@D@__crt_stdio_output@@@2@@__crt_stdio_output@@AEAA_NXZ 0000000180066f80 f i libucrtd:output.obj
 0001:00065fd0       ?state_case_normal_common@?$output_processor@_WV?$stream_output_adapter@_W@__crt_stdio_output@@V?$format_validation_base@_WV?$stream_output_adapter@_W@__crt_stdio_output@@@2@@__crt_stdio_output@@AEAA_NXZ 0000000180066fd0 f i libucrtd:output.obj
 0001:00066020       ?state_case_normal_common@?$output_processor@_WV?$stream_output_adapter@_W@__crt_stdio_output@@V?$positional_parameter_base@_WV?$stream_output_adapter@_W@__crt_stdio_output@@@2@@__crt_stdio_output@@AEAA_NXZ 0000000180067020 f i libucrtd:output.obj
 0001:00066070       ?state_case_normal_common@?$output_processor@_WV?$stream_output_adapter@_W@__crt_stdio_output@@V?$standard_base@_WV?$stream_output_adapter@_W@__crt_stdio_output@@@2@@__crt_stdio_output@@AEAA_NXZ 0000000180067070 f i libucrtd:output.obj
 0001:000660c0       ?state_case_normal_common@?$output_processor@_WV?$string_output_adapter@_W@__crt_stdio_output@@V?$format_validation_base@_WV?$string_output_adapter@_W@__crt_stdio_output@@@2@@__crt_stdio_output@@AEAA_NXZ 00000001800670c0 f i libucrtd:output.obj
 0001:00066110       ?state_case_normal_common@?$output_processor@_WV?$string_output_adapter@_W@__crt_stdio_output@@V?$positional_parameter_base@_WV?$string_output_adapter@_W@__crt_stdio_output@@@2@@__crt_stdio_output@@AEAA_NXZ 0000000180067110 f i libucrtd:output.obj
 0001:00066160       ?state_case_normal_common@?$output_processor@_WV?$string_output_adapter@_W@__crt_stdio_output@@V?$standard_base@_WV?$string_output_adapter@_W@__crt_stdio_output@@@2@@__crt_stdio_output@@AEAA_NXZ 0000000180067160 f i libucrtd:output.obj
 0001:000661b0       ?state_case_normal_tchar@?$output_processor@DV?$stream_output_adapter@D@__crt_stdio_output@@V?$format_validation_base@DV?$stream_output_adapter@D@__crt_stdio_output@@@2@@__crt_stdio_output@@AEAA_ND@Z 00000001800671b0 f i libucrtd:output.obj
 0001:000662f0       ?state_case_normal_tchar@?$output_processor@DV?$stream_output_adapter@D@__crt_stdio_output@@V?$positional_parameter_base@DV?$stream_output_adapter@D@__crt_stdio_output@@@2@@__crt_stdio_output@@AEAA_ND@Z 00000001800672f0 f i libucrtd:output.obj
 0001:00066430       ?state_case_normal_tchar@?$output_processor@DV?$stream_output_adapter@D@__crt_stdio_output@@V?$standard_base@DV?$stream_output_adapter@D@__crt_stdio_output@@@2@@__crt_stdio_output@@AEAA_ND@Z 0000000180067430 f i libucrtd:output.obj
 0001:00066570       ?state_case_normal_tchar@?$output_processor@DV?$string_output_adapter@D@__crt_stdio_output@@V?$format_validation_base@DV?$string_output_adapter@D@__crt_stdio_output@@@2@@__crt_stdio_output@@AEAA_ND@Z 0000000180067570 f i libucrtd:output.obj
 0001:000666b0       ?state_case_normal_tchar@?$output_processor@DV?$string_output_adapter@D@__crt_stdio_output@@V?$positional_parameter_base@DV?$string_output_adapter@D@__crt_stdio_output@@@2@@__crt_stdio_output@@AEAA_ND@Z 00000001800676b0 f i libucrtd:output.obj
 0001:000667f0       ?state_case_normal_tchar@?$output_processor@DV?$string_output_adapter@D@__crt_stdio_output@@V?$standard_base@DV?$string_output_adapter@D@__crt_stdio_output@@@2@@__crt_stdio_output@@AEAA_ND@Z 00000001800677f0 f i libucrtd:output.obj
 0001:00066930       ?state_case_normal_tchar@?$output_processor@_WV?$stream_output_adapter@_W@__crt_stdio_output@@V?$format_validation_base@_WV?$stream_output_adapter@_W@__crt_stdio_output@@@2@@__crt_stdio_output@@AEAA_N_W@Z 0000000180067930 f i libucrtd:output.obj
 0001:00066950       ?state_case_normal_tchar@?$output_processor@_WV?$stream_output_adapter@_W@__crt_stdio_output@@V?$positional_parameter_base@_WV?$stream_output_adapter@_W@__crt_stdio_output@@@2@@__crt_stdio_output@@AEAA_N_W@Z 0000000180067950 f i libucrtd:output.obj
 0001:00066970       ?state_case_normal_tchar@?$output_processor@_WV?$stream_output_adapter@_W@__crt_stdio_output@@V?$standard_base@_WV?$stream_output_adapter@_W@__crt_stdio_output@@@2@@__crt_stdio_output@@AEAA_N_W@Z 0000000180067970 f i libucrtd:output.obj
 0001:00066990       ?state_case_normal_tchar@?$output_processor@_WV?$string_output_adapter@_W@__crt_stdio_output@@V?$format_validation_base@_WV?$string_output_adapter@_W@__crt_stdio_output@@@2@@__crt_stdio_output@@AEAA_N_W@Z 0000000180067990 f i libucrtd:output.obj
 0001:000669b0       ?state_case_normal_tchar@?$output_processor@_WV?$string_output_adapter@_W@__crt_stdio_output@@V?$positional_parameter_base@_WV?$string_output_adapter@_W@__crt_stdio_output@@@2@@__crt_stdio_output@@AEAA_N_W@Z 00000001800679b0 f i libucrtd:output.obj
 0001:000669d0       ?state_case_normal_tchar@?$output_processor@_WV?$string_output_adapter@_W@__crt_stdio_output@@V?$standard_base@_WV?$string_output_adapter@_W@__crt_stdio_output@@@2@@__crt_stdio_output@@AEAA_N_W@Z 00000001800679d0 f i libucrtd:output.obj
 0001:000669f0       ?state_case_percent@?$output_processor@DV?$stream_output_adapter@D@__crt_stdio_output@@V?$format_validation_base@DV?$stream_output_adapter@D@__crt_stdio_output@@@2@@__crt_stdio_output@@AEAA_NXZ 00000001800679f0 f i libucrtd:output.obj
 0001:00066a40       ?state_case_percent@?$output_processor@DV?$stream_output_adapter@D@__crt_stdio_output@@V?$positional_parameter_base@DV?$stream_output_adapter@D@__crt_stdio_output@@@2@@__crt_stdio_output@@AEAA_NXZ 0000000180067a40 f i libucrtd:output.obj
 0001:00066a90       ?state_case_percent@?$output_processor@DV?$stream_output_adapter@D@__crt_stdio_output@@V?$standard_base@DV?$stream_output_adapter@D@__crt_stdio_output@@@2@@__crt_stdio_output@@AEAA_NXZ 0000000180067a90 f i libucrtd:output.obj
 0001:00066ae0       ?state_case_percent@?$output_processor@DV?$string_output_adapter@D@__crt_stdio_output@@V?$format_validation_base@DV?$string_output_adapter@D@__crt_stdio_output@@@2@@__crt_stdio_output@@AEAA_NXZ 0000000180067ae0 f i libucrtd:output.obj
 0001:00066b30       ?state_case_percent@?$output_processor@DV?$string_output_adapter@D@__crt_stdio_output@@V?$positional_parameter_base@DV?$string_output_adapter@D@__crt_stdio_output@@@2@@__crt_stdio_output@@AEAA_NXZ 0000000180067b30 f i libucrtd:output.obj
 0001:00066b80       ?state_case_percent@?$output_processor@DV?$string_output_adapter@D@__crt_stdio_output@@V?$standard_base@DV?$string_output_adapter@D@__crt_stdio_output@@@2@@__crt_stdio_output@@AEAA_NXZ 0000000180067b80 f i libucrtd:output.obj
 0001:00066bd0       ?state_case_percent@?$output_processor@_WV?$stream_output_adapter@_W@__crt_stdio_output@@V?$format_validation_base@_WV?$stream_output_adapter@_W@__crt_stdio_output@@@2@@__crt_stdio_output@@AEAA_NXZ 0000000180067bd0 f i libucrtd:output.obj
 0001:00066c20       ?state_case_percent@?$output_processor@_WV?$stream_output_adapter@_W@__crt_stdio_output@@V?$positional_parameter_base@_WV?$stream_output_adapter@_W@__crt_stdio_output@@@2@@__crt_stdio_output@@AEAA_NXZ 0000000180067c20 f i libucrtd:output.obj
 0001:00066c70       ?state_case_percent@?$output_processor@_WV?$stream_output_adapter@_W@__crt_stdio_output@@V?$standard_base@_WV?$stream_output_adapter@_W@__crt_stdio_output@@@2@@__crt_stdio_output@@AEAA_NXZ 0000000180067c70 f i libucrtd:output.obj
 0001:00066cc0       ?state_case_percent@?$output_processor@_WV?$string_output_adapter@_W@__crt_stdio_output@@V?$format_validation_base@_WV?$string_output_adapter@_W@__crt_stdio_output@@@2@@__crt_stdio_output@@AEAA_NXZ 0000000180067cc0 f i libucrtd:output.obj
 0001:00066d10       ?state_case_percent@?$output_processor@_WV?$string_output_adapter@_W@__crt_stdio_output@@V?$positional_parameter_base@_WV?$string_output_adapter@_W@__crt_stdio_output@@@2@@__crt_stdio_output@@AEAA_NXZ 0000000180067d10 f i libucrtd:output.obj
 0001:00066d60       ?state_case_percent@?$output_processor@_WV?$string_output_adapter@_W@__crt_stdio_output@@V?$standard_base@_WV?$string_output_adapter@_W@__crt_stdio_output@@@2@@__crt_stdio_output@@AEAA_NXZ 0000000180067d60 f i libucrtd:output.obj
 0001:00066db0       ?state_case_precision@?$output_processor@DV?$stream_output_adapter@D@__crt_stdio_output@@V?$format_validation_base@DV?$stream_output_adapter@D@__crt_stdio_output@@@2@@__crt_stdio_output@@AEAA_NXZ 0000000180067db0 f i libucrtd:output.obj
 0001:00066e30       ?state_case_precision@?$output_processor@DV?$stream_output_adapter@D@__crt_stdio_output@@V?$positional_parameter_base@DV?$stream_output_adapter@D@__crt_stdio_output@@@2@@__crt_stdio_output@@AEAA_NXZ 0000000180067e30 f i libucrtd:output.obj
 0001:00066eb0       ?state_case_precision@?$output_processor@DV?$stream_output_adapter@D@__crt_stdio_output@@V?$standard_base@DV?$stream_output_adapter@D@__crt_stdio_output@@@2@@__crt_stdio_output@@AEAA_NXZ 0000000180067eb0 f i libucrtd:output.obj
 0001:00066f30       ?state_case_precision@?$output_processor@DV?$string_output_adapter@D@__crt_stdio_output@@V?$format_validation_base@DV?$string_output_adapter@D@__crt_stdio_output@@@2@@__crt_stdio_output@@AEAA_NXZ 0000000180067f30 f i libucrtd:output.obj
 0001:00066fb0       ?state_case_precision@?$output_processor@DV?$string_output_adapter@D@__crt_stdio_output@@V?$positional_parameter_base@DV?$string_output_adapter@D@__crt_stdio_output@@@2@@__crt_stdio_output@@AEAA_NXZ 0000000180067fb0 f i libucrtd:output.obj
 0001:00067030       ?state_case_precision@?$output_processor@DV?$string_output_adapter@D@__crt_stdio_output@@V?$standard_base@DV?$string_output_adapter@D@__crt_stdio_output@@@2@@__crt_stdio_output@@AEAA_NXZ 0000000180068030 f i libucrtd:output.obj
 0001:000670b0       ?state_case_precision@?$output_processor@_WV?$stream_output_adapter@_W@__crt_stdio_output@@V?$format_validation_base@_WV?$stream_output_adapter@_W@__crt_stdio_output@@@2@@__crt_stdio_output@@AEAA_NXZ 00000001800680b0 f i libucrtd:output.obj
 0001:00067130       ?state_case_precision@?$output_processor@_WV?$stream_output_adapter@_W@__crt_stdio_output@@V?$positional_parameter_base@_WV?$stream_output_adapter@_W@__crt_stdio_output@@@2@@__crt_stdio_output@@AEAA_NXZ 0000000180068130 f i libucrtd:output.obj
 0001:000671b0       ?state_case_precision@?$output_processor@_WV?$stream_output_adapter@_W@__crt_stdio_output@@V?$standard_base@_WV?$stream_output_adapter@_W@__crt_stdio_output@@@2@@__crt_stdio_output@@AEAA_NXZ 00000001800681b0 f i libucrtd:output.obj
 0001:00067230       ?state_case_precision@?$output_processor@_WV?$string_output_adapter@_W@__crt_stdio_output@@V?$format_validation_base@_WV?$string_output_adapter@_W@__crt_stdio_output@@@2@@__crt_stdio_output@@AEAA_NXZ 0000000180068230 f i libucrtd:output.obj
 0001:000672b0       ?state_case_precision@?$output_processor@_WV?$string_output_adapter@_W@__crt_stdio_output@@V?$positional_parameter_base@_WV?$string_output_adapter@_W@__crt_stdio_output@@@2@@__crt_stdio_output@@AEAA_NXZ 00000001800682b0 f i libucrtd:output.obj
 0001:00067330       ?state_case_precision@?$output_processor@_WV?$string_output_adapter@_W@__crt_stdio_output@@V?$standard_base@_WV?$string_output_adapter@_W@__crt_stdio_output@@@2@@__crt_stdio_output@@AEAA_NXZ 0000000180068330 f i libucrtd:output.obj
 0001:000673b0       ?state_case_size@?$output_processor@DV?$stream_output_adapter@D@__crt_stdio_output@@V?$format_validation_base@DV?$stream_output_adapter@D@__crt_stdio_output@@@2@@__crt_stdio_output@@AEAA_NXZ 00000001800683b0 f i libucrtd:output.obj
 0001:00067830       ?state_case_size@?$output_processor@DV?$stream_output_adapter@D@__crt_stdio_output@@V?$positional_parameter_base@DV?$stream_output_adapter@D@__crt_stdio_output@@@2@@__crt_stdio_output@@AEAA_NXZ 0000000180068830 f i libucrtd:output.obj
 0001:00067cb0       ?state_case_size@?$output_processor@DV?$stream_output_adapter@D@__crt_stdio_output@@V?$standard_base@DV?$stream_output_adapter@D@__crt_stdio_output@@@2@@__crt_stdio_output@@AEAA_NXZ 0000000180068cb0 f i libucrtd:output.obj
 0001:00068130       ?state_case_size@?$output_processor@DV?$string_output_adapter@D@__crt_stdio_output@@V?$format_validation_base@DV?$string_output_adapter@D@__crt_stdio_output@@@2@@__crt_stdio_output@@AEAA_NXZ 0000000180069130 f i libucrtd:output.obj
 0001:000685b0       ?state_case_size@?$output_processor@DV?$string_output_adapter@D@__crt_stdio_output@@V?$positional_parameter_base@DV?$string_output_adapter@D@__crt_stdio_output@@@2@@__crt_stdio_output@@AEAA_NXZ 00000001800695b0 f i libucrtd:output.obj
 0001:00068a30       ?state_case_size@?$output_processor@DV?$string_output_adapter@D@__crt_stdio_output@@V?$standard_base@DV?$string_output_adapter@D@__crt_stdio_output@@@2@@__crt_stdio_output@@AEAA_NXZ 0000000180069a30 f i libucrtd:output.obj
 0001:00068eb0       ?state_case_size@?$output_processor@_WV?$stream_output_adapter@_W@__crt_stdio_output@@V?$format_validation_base@_WV?$stream_output_adapter@_W@__crt_stdio_output@@@2@@__crt_stdio_output@@AEAA_NXZ 0000000180069eb0 f i libucrtd:output.obj
 0001:00069330       ?state_case_size@?$output_processor@_WV?$stream_output_adapter@_W@__crt_stdio_output@@V?$positional_parameter_base@_WV?$stream_output_adapter@_W@__crt_stdio_output@@@2@@__crt_stdio_output@@AEAA_NXZ 000000018006a330 f i libucrtd:output.obj
 0001:000697b0       ?state_case_size@?$output_processor@_WV?$stream_output_adapter@_W@__crt_stdio_output@@V?$standard_base@_WV?$stream_output_adapter@_W@__crt_stdio_output@@@2@@__crt_stdio_output@@AEAA_NXZ 000000018006a7b0 f i libucrtd:output.obj
 0001:00069c30       ?state_case_size@?$output_processor@_WV?$string_output_adapter@_W@__crt_stdio_output@@V?$format_validation_base@_WV?$string_output_adapter@_W@__crt_stdio_output@@@2@@__crt_stdio_output@@AEAA_NXZ 000000018006ac30 f i libucrtd:output.obj
 0001:0006a0b0       ?state_case_size@?$output_processor@_WV?$string_output_adapter@_W@__crt_stdio_output@@V?$positional_parameter_base@_WV?$string_output_adapter@_W@__crt_stdio_output@@@2@@__crt_stdio_output@@AEAA_NXZ 000000018006b0b0 f i libucrtd:output.obj
 0001:0006a530       ?state_case_size@?$output_processor@_WV?$string_output_adapter@_W@__crt_stdio_output@@V?$standard_base@_WV?$string_output_adapter@_W@__crt_stdio_output@@@2@@__crt_stdio_output@@AEAA_NXZ 000000018006b530 f i libucrtd:output.obj
 0001:0006a9b0       ?state_case_type@?$output_processor@DV?$stream_output_adapter@D@__crt_stdio_output@@V?$format_validation_base@DV?$stream_output_adapter@D@__crt_stdio_output@@@2@@__crt_stdio_output@@AEAA_NXZ 000000018006b9b0 f i libucrtd:output.obj
 0001:0006ae40       ?state_case_type@?$output_processor@DV?$stream_output_adapter@D@__crt_stdio_output@@V?$positional_parameter_base@DV?$stream_output_adapter@D@__crt_stdio_output@@@2@@__crt_stdio_output@@AEAA_NXZ 000000018006be40 f i libucrtd:output.obj
 0001:0006b2d0       ?state_case_type@?$output_processor@DV?$stream_output_adapter@D@__crt_stdio_output@@V?$standard_base@DV?$stream_output_adapter@D@__crt_stdio_output@@@2@@__crt_stdio_output@@AEAA_NXZ 000000018006c2d0 f i libucrtd:output.obj
 0001:0006b760       ?state_case_type@?$output_processor@DV?$string_output_adapter@D@__crt_stdio_output@@V?$format_validation_base@DV?$string_output_adapter@D@__crt_stdio_output@@@2@@__crt_stdio_output@@AEAA_NXZ 000000018006c760 f i libucrtd:output.obj
 0001:0006bbf0       ?state_case_type@?$output_processor@DV?$string_output_adapter@D@__crt_stdio_output@@V?$positional_parameter_base@DV?$string_output_adapter@D@__crt_stdio_output@@@2@@__crt_stdio_output@@AEAA_NXZ 000000018006cbf0 f i libucrtd:output.obj
 0001:0006c080       ?state_case_type@?$output_processor@DV?$string_output_adapter@D@__crt_stdio_output@@V?$standard_base@DV?$string_output_adapter@D@__crt_stdio_output@@@2@@__crt_stdio_output@@AEAA_NXZ 000000018006d080 f i libucrtd:output.obj
 0001:0006c510       ?state_case_type@?$output_processor@_WV?$stream_output_adapter@_W@__crt_stdio_output@@V?$format_validation_base@_WV?$stream_output_adapter@_W@__crt_stdio_output@@@2@@__crt_stdio_output@@AEAA_NXZ 000000018006d510 f i libucrtd:output.obj
 0001:0006c9e0       ?state_case_type@?$output_processor@_WV?$stream_output_adapter@_W@__crt_stdio_output@@V?$positional_parameter_base@_WV?$stream_output_adapter@_W@__crt_stdio_output@@@2@@__crt_stdio_output@@AEAA_NXZ 000000018006d9e0 f i libucrtd:output.obj
 0001:0006ceb0       ?state_case_type@?$output_processor@_WV?$stream_output_adapter@_W@__crt_stdio_output@@V?$standard_base@_WV?$stream_output_adapter@_W@__crt_stdio_output@@@2@@__crt_stdio_output@@AEAA_NXZ 000000018006deb0 f i libucrtd:output.obj
 0001:0006d380       ?state_case_type@?$output_processor@_WV?$string_output_adapter@_W@__crt_stdio_output@@V?$format_validation_base@_WV?$string_output_adapter@_W@__crt_stdio_output@@@2@@__crt_stdio_output@@AEAA_NXZ 000000018006e380 f i libucrtd:output.obj
 0001:0006d850       ?state_case_type@?$output_processor@_WV?$string_output_adapter@_W@__crt_stdio_output@@V?$positional_parameter_base@_WV?$string_output_adapter@_W@__crt_stdio_output@@@2@@__crt_stdio_output@@AEAA_NXZ 000000018006e850 f i libucrtd:output.obj
 0001:0006dd20       ?state_case_type@?$output_processor@_WV?$string_output_adapter@_W@__crt_stdio_output@@V?$standard_base@_WV?$string_output_adapter@_W@__crt_stdio_output@@@2@@__crt_stdio_output@@AEAA_NXZ 000000018006ed20 f i libucrtd:output.obj
 0001:0006e1f0       ?state_case_width@?$output_processor@DV?$stream_output_adapter@D@__crt_stdio_output@@V?$format_validation_base@DV?$stream_output_adapter@D@__crt_stdio_output@@@2@@__crt_stdio_output@@AEAA_NXZ 000000018006f1f0 f i libucrtd:output.obj
 0001:0006e280       ?state_case_width@?$output_processor@DV?$stream_output_adapter@D@__crt_stdio_output@@V?$positional_parameter_base@DV?$stream_output_adapter@D@__crt_stdio_output@@@2@@__crt_stdio_output@@AEAA_NXZ 000000018006f280 f i libucrtd:output.obj
 0001:0006e310       ?state_case_width@?$output_processor@DV?$stream_output_adapter@D@__crt_stdio_output@@V?$standard_base@DV?$stream_output_adapter@D@__crt_stdio_output@@@2@@__crt_stdio_output@@AEAA_NXZ 000000018006f310 f i libucrtd:output.obj
 0001:0006e3a0       ?state_case_width@?$output_processor@DV?$string_output_adapter@D@__crt_stdio_output@@V?$format_validation_base@DV?$string_output_adapter@D@__crt_stdio_output@@@2@@__crt_stdio_output@@AEAA_NXZ 000000018006f3a0 f i libucrtd:output.obj
 0001:0006e430       ?state_case_width@?$output_processor@DV?$string_output_adapter@D@__crt_stdio_output@@V?$positional_parameter_base@DV?$string_output_adapter@D@__crt_stdio_output@@@2@@__crt_stdio_output@@AEAA_NXZ 000000018006f430 f i libucrtd:output.obj
 0001:0006e4c0       ?state_case_width@?$output_processor@DV?$string_output_adapter@D@__crt_stdio_output@@V?$standard_base@DV?$string_output_adapter@D@__crt_stdio_output@@@2@@__crt_stdio_output@@AEAA_NXZ 000000018006f4c0 f i libucrtd:output.obj
 0001:0006e550       ?state_case_width@?$output_processor@_WV?$stream_output_adapter@_W@__crt_stdio_output@@V?$format_validation_base@_WV?$stream_output_adapter@_W@__crt_stdio_output@@@2@@__crt_stdio_output@@AEAA_NXZ 000000018006f550 f i libucrtd:output.obj
 0001:0006e5e0       ?state_case_width@?$output_processor@_WV?$stream_output_adapter@_W@__crt_stdio_output@@V?$positional_parameter_base@_WV?$stream_output_adapter@_W@__crt_stdio_output@@@2@@__crt_stdio_output@@AEAA_NXZ 000000018006f5e0 f i libucrtd:output.obj
 0001:0006e670       ?state_case_width@?$output_processor@_WV?$stream_output_adapter@_W@__crt_stdio_output@@V?$standard_base@_WV?$stream_output_adapter@_W@__crt_stdio_output@@@2@@__crt_stdio_output@@AEAA_NXZ 000000018006f670 f i libucrtd:output.obj
 0001:0006e700       ?state_case_width@?$output_processor@_WV?$string_output_adapter@_W@__crt_stdio_output@@V?$format_validation_base@_WV?$string_output_adapter@_W@__crt_stdio_output@@@2@@__crt_stdio_output@@AEAA_NXZ 000000018006f700 f i libucrtd:output.obj
 0001:0006e790       ?state_case_width@?$output_processor@_WV?$string_output_adapter@_W@__crt_stdio_output@@V?$positional_parameter_base@_WV?$string_output_adapter@_W@__crt_stdio_output@@@2@@__crt_stdio_output@@AEAA_NXZ 000000018006f790 f i libucrtd:output.obj
 0001:0006e820       ?state_case_width@?$output_processor@_WV?$string_output_adapter@_W@__crt_stdio_output@@V?$standard_base@_WV?$string_output_adapter@_W@__crt_stdio_output@@@2@@__crt_stdio_output@@AEAA_NXZ 000000018006f820 f i libucrtd:output.obj
 0001:0006e8b0       ?state_count@?$format_validation_base@DV?$stream_output_adapter@D@__crt_stdio_output@@@__crt_stdio_output@@KAIXZ 000000018006f8b0 f i libucrtd:output.obj
 0001:0006e8c0       ?state_count@?$format_validation_base@DV?$string_output_adapter@D@__crt_stdio_output@@@__crt_stdio_output@@KAIXZ 000000018006f8c0 f i libucrtd:output.obj
 0001:0006e8d0       ?state_count@?$format_validation_base@_WV?$stream_output_adapter@_W@__crt_stdio_output@@@__crt_stdio_output@@KAIXZ 000000018006f8d0 f i libucrtd:output.obj
 0001:0006e8e0       ?state_count@?$format_validation_base@_WV?$string_output_adapter@_W@__crt_stdio_output@@@__crt_stdio_output@@KAIXZ 000000018006f8e0 f i libucrtd:output.obj
 0001:0006e8f0       ?state_count@?$standard_base@DV?$stream_output_adapter@D@__crt_stdio_output@@@__crt_stdio_output@@KAIXZ 000000018006f8f0 f i libucrtd:output.obj
 0001:0006e900       ?state_count@?$standard_base@DV?$string_output_adapter@D@__crt_stdio_output@@@__crt_stdio_output@@KAIXZ 000000018006f900 f i libucrtd:output.obj
 0001:0006e910       ?state_count@?$standard_base@_WV?$stream_output_adapter@_W@__crt_stdio_output@@@__crt_stdio_output@@KAIXZ 000000018006f910 f i libucrtd:output.obj
 0001:0006e920       ?state_count@?$standard_base@_WV?$string_output_adapter@_W@__crt_stdio_output@@@__crt_stdio_output@@KAIXZ 000000018006f920 f i libucrtd:output.obj
 0001:0006e930       ?state_transition_table@?$format_validation_base@DV?$stream_output_adapter@D@__crt_stdio_output@@@__crt_stdio_output@@KAPEBEXZ 000000018006f930 f i libucrtd:output.obj
 0001:0006e940       ?state_transition_table@?$format_validation_base@DV?$string_output_adapter@D@__crt_stdio_output@@@__crt_stdio_output@@KAPEBEXZ 000000018006f940 f i libucrtd:output.obj
 0001:0006e950       ?state_transition_table@?$format_validation_base@_WV?$stream_output_adapter@_W@__crt_stdio_output@@@__crt_stdio_output@@KAPEBEXZ 000000018006f950 f i libucrtd:output.obj
 0001:0006e960       ?state_transition_table@?$format_validation_base@_WV?$string_output_adapter@_W@__crt_stdio_output@@@__crt_stdio_output@@KAPEBEXZ 000000018006f960 f i libucrtd:output.obj
 0001:0006e970       ?state_transition_table@?$standard_base@DV?$stream_output_adapter@D@__crt_stdio_output@@@__crt_stdio_output@@KAPEBEXZ 000000018006f970 f i libucrtd:output.obj
 0001:0006e980       ?state_transition_table@?$standard_base@DV?$string_output_adapter@D@__crt_stdio_output@@@__crt_stdio_output@@KAPEBEXZ 000000018006f980 f i libucrtd:output.obj
 0001:0006e990       ?state_transition_table@?$standard_base@_WV?$stream_output_adapter@_W@__crt_stdio_output@@@__crt_stdio_output@@KAPEBEXZ 000000018006f990 f i libucrtd:output.obj
 0001:0006e9a0       ?state_transition_table@?$standard_base@_WV?$string_output_adapter@_W@__crt_stdio_output@@@__crt_stdio_output@@KAPEBEXZ 000000018006f9a0 f i libucrtd:output.obj
 0001:0006e9b0       ?to_integer_size@__crt_stdio_output@@YA_KW4length_modifier@1@@Z 000000018006f9b0 f i libucrtd:output.obj
 0001:0006ea60       ?type_case_X@?$output_processor@DV?$stream_output_adapter@D@__crt_stdio_output@@V?$format_validation_base@DV?$stream_output_adapter@D@__crt_stdio_output@@@2@@__crt_stdio_output@@AEAA_NXZ 000000018006fa60 f i libucrtd:output.obj
 0001:0006ea80       ?type_case_X@?$output_processor@DV?$stream_output_adapter@D@__crt_stdio_output@@V?$positional_parameter_base@DV?$stream_output_adapter@D@__crt_stdio_output@@@2@@__crt_stdio_output@@AEAA_NXZ 000000018006fa80 f i libucrtd:output.obj
 0001:0006eaa0       ?type_case_X@?$output_processor@DV?$stream_output_adapter@D@__crt_stdio_output@@V?$standard_base@DV?$stream_output_adapter@D@__crt_stdio_output@@@2@@__crt_stdio_output@@AEAA_NXZ 000000018006faa0 f i libucrtd:output.obj
 0001:0006eac0       ?type_case_X@?$output_processor@DV?$string_output_adapter@D@__crt_stdio_output@@V?$format_validation_base@DV?$string_output_adapter@D@__crt_stdio_output@@@2@@__crt_stdio_output@@AEAA_NXZ 000000018006fac0 f i libucrtd:output.obj
 0001:0006eae0       ?type_case_X@?$output_processor@DV?$string_output_adapter@D@__crt_stdio_output@@V?$positional_parameter_base@DV?$string_output_adapter@D@__crt_stdio_output@@@2@@__crt_stdio_output@@AEAA_NXZ 000000018006fae0 f i libucrtd:output.obj
 0001:0006eb00       ?type_case_X@?$output_processor@DV?$string_output_adapter@D@__crt_stdio_output@@V?$standard_base@DV?$string_output_adapter@D@__crt_stdio_output@@@2@@__crt_stdio_output@@AEAA_NXZ 000000018006fb00 f i libucrtd:output.obj
 0001:0006eb20       ?type_case_X@?$output_processor@_WV?$stream_output_adapter@_W@__crt_stdio_output@@V?$format_validation_base@_WV?$stream_output_adapter@_W@__crt_stdio_output@@@2@@__crt_stdio_output@@AEAA_NXZ 000000018006fb20 f i libucrtd:output.obj
 0001:0006eb40       ?type_case_X@?$output_processor@_WV?$stream_output_adapter@_W@__crt_stdio_output@@V?$positional_parameter_base@_WV?$stream_output_adapter@_W@__crt_stdio_output@@@2@@__crt_stdio_output@@AEAA_NXZ 000000018006fb40 f i libucrtd:output.obj
 0001:0006eb60       ?type_case_X@?$output_processor@_WV?$stream_output_adapter@_W@__crt_stdio_output@@V?$standard_base@_WV?$stream_output_adapter@_W@__crt_stdio_output@@@2@@__crt_stdio_output@@AEAA_NXZ 000000018006fb60 f i libucrtd:output.obj
 0001:0006eb80       ?type_case_X@?$output_processor@_WV?$string_output_adapter@_W@__crt_stdio_output@@V?$format_validation_base@_WV?$string_output_adapter@_W@__crt_stdio_output@@@2@@__crt_stdio_output@@AEAA_NXZ 000000018006fb80 f i libucrtd:output.obj
 0001:0006eba0       ?type_case_X@?$output_processor@_WV?$string_output_adapter@_W@__crt_stdio_output@@V?$positional_parameter_base@_WV?$string_output_adapter@_W@__crt_stdio_output@@@2@@__crt_stdio_output@@AEAA_NXZ 000000018006fba0 f i libucrtd:output.obj
 0001:0006ebc0       ?type_case_X@?$output_processor@_WV?$string_output_adapter@_W@__crt_stdio_output@@V?$standard_base@_WV?$string_output_adapter@_W@__crt_stdio_output@@@2@@__crt_stdio_output@@AEAA_NXZ 000000018006fbc0 f i libucrtd:output.obj
 0001:0006ebe0       ?type_case_Z@?$output_processor@DV?$stream_output_adapter@D@__crt_stdio_output@@V?$format_validation_base@DV?$stream_output_adapter@D@__crt_stdio_output@@@2@@__crt_stdio_output@@AEAA_NXZ 000000018006fbe0 f i libucrtd:output.obj
 0001:0006ed00       ?type_case_Z@?$output_processor@DV?$stream_output_adapter@D@__crt_stdio_output@@V?$positional_parameter_base@DV?$stream_output_adapter@D@__crt_stdio_output@@@2@@__crt_stdio_output@@AEAA_NXZ 000000018006fd00 f i libucrtd:output.obj
 0001:0006ee20       ?type_case_Z@?$output_processor@DV?$stream_output_adapter@D@__crt_stdio_output@@V?$standard_base@DV?$stream_output_adapter@D@__crt_stdio_output@@@2@@__crt_stdio_output@@AEAA_NXZ 000000018006fe20 f i libucrtd:output.obj
 0001:0006ef40       ?type_case_Z@?$output_processor@DV?$string_output_adapter@D@__crt_stdio_output@@V?$format_validation_base@DV?$string_output_adapter@D@__crt_stdio_output@@@2@@__crt_stdio_output@@AEAA_NXZ 000000018006ff40 f i libucrtd:output.obj
 0001:0006f060       ?type_case_Z@?$output_processor@DV?$string_output_adapter@D@__crt_stdio_output@@V?$positional_parameter_base@DV?$string_output_adapter@D@__crt_stdio_output@@@2@@__crt_stdio_output@@AEAA_NXZ 0000000180070060 f i libucrtd:output.obj
 0001:0006f180       ?type_case_Z@?$output_processor@DV?$string_output_adapter@D@__crt_stdio_output@@V?$standard_base@DV?$string_output_adapter@D@__crt_stdio_output@@@2@@__crt_stdio_output@@AEAA_NXZ 0000000180070180 f i libucrtd:output.obj
 0001:0006f2a0       ?type_case_Z@?$output_processor@_WV?$stream_output_adapter@_W@__crt_stdio_output@@V?$format_validation_base@_WV?$stream_output_adapter@_W@__crt_stdio_output@@@2@@__crt_stdio_output@@AEAA_NXZ 00000001800702a0 f i libucrtd:output.obj
 0001:0006f3c0       ?type_case_Z@?$output_processor@_WV?$stream_output_adapter@_W@__crt_stdio_output@@V?$positional_parameter_base@_WV?$stream_output_adapter@_W@__crt_stdio_output@@@2@@__crt_stdio_output@@AEAA_NXZ 00000001800703c0 f i libucrtd:output.obj
 0001:0006f4e0       ?type_case_Z@?$output_processor@_WV?$stream_output_adapter@_W@__crt_stdio_output@@V?$standard_base@_WV?$stream_output_adapter@_W@__crt_stdio_output@@@2@@__crt_stdio_output@@AEAA_NXZ 00000001800704e0 f i libucrtd:output.obj
 0001:0006f600       ?type_case_Z@?$output_processor@_WV?$string_output_adapter@_W@__crt_stdio_output@@V?$format_validation_base@_WV?$string_output_adapter@_W@__crt_stdio_output@@@2@@__crt_stdio_output@@AEAA_NXZ 0000000180070600 f i libucrtd:output.obj
 0001:0006f720       ?type_case_Z@?$output_processor@_WV?$string_output_adapter@_W@__crt_stdio_output@@V?$positional_parameter_base@_WV?$string_output_adapter@_W@__crt_stdio_output@@@2@@__crt_stdio_output@@AEAA_NXZ 0000000180070720 f i libucrtd:output.obj
 0001:0006f840       ?type_case_Z@?$output_processor@_WV?$string_output_adapter@_W@__crt_stdio_output@@V?$standard_base@_WV?$string_output_adapter@_W@__crt_stdio_output@@@2@@__crt_stdio_output@@AEAA_NXZ 0000000180070840 f i libucrtd:output.obj
 0001:0006f960       ?type_case_a@?$output_processor@DV?$stream_output_adapter@D@__crt_stdio_output@@V?$format_validation_base@DV?$stream_output_adapter@D@__crt_stdio_output@@@2@@__crt_stdio_output@@AEAA_NXZ 0000000180070960 f i libucrtd:output.obj
 0001:0006fd10       ?type_case_a@?$output_processor@DV?$stream_output_adapter@D@__crt_stdio_output@@V?$positional_parameter_base@DV?$stream_output_adapter@D@__crt_stdio_output@@@2@@__crt_stdio_output@@AEAA_NXZ 0000000180070d10 f i libucrtd:output.obj
 0001:000700c0       ?type_case_a@?$output_processor@DV?$stream_output_adapter@D@__crt_stdio_output@@V?$standard_base@DV?$stream_output_adapter@D@__crt_stdio_output@@@2@@__crt_stdio_output@@AEAA_NXZ 00000001800710c0 f i libucrtd:output.obj
 0001:00070470       ?type_case_a@?$output_processor@DV?$string_output_adapter@D@__crt_stdio_output@@V?$format_validation_base@DV?$string_output_adapter@D@__crt_stdio_output@@@2@@__crt_stdio_output@@AEAA_NXZ 0000000180071470 f i libucrtd:output.obj
 0001:00070820       ?type_case_a@?$output_processor@DV?$string_output_adapter@D@__crt_stdio_output@@V?$positional_parameter_base@DV?$string_output_adapter@D@__crt_stdio_output@@@2@@__crt_stdio_output@@AEAA_NXZ 0000000180071820 f i libucrtd:output.obj
 0001:00070bd0       ?type_case_a@?$output_processor@DV?$string_output_adapter@D@__crt_stdio_output@@V?$standard_base@DV?$string_output_adapter@D@__crt_stdio_output@@@2@@__crt_stdio_output@@AEAA_NXZ 0000000180071bd0 f i libucrtd:output.obj
 0001:00070f80       ?type_case_a@?$output_processor@_WV?$stream_output_adapter@_W@__crt_stdio_output@@V?$format_validation_base@_WV?$stream_output_adapter@_W@__crt_stdio_output@@@2@@__crt_stdio_output@@AEAA_NXZ 0000000180071f80 f i libucrtd:output.obj
 0001:00071330       ?type_case_a@?$output_processor@_WV?$stream_output_adapter@_W@__crt_stdio_output@@V?$positional_parameter_base@_WV?$stream_output_adapter@_W@__crt_stdio_output@@@2@@__crt_stdio_output@@AEAA_NXZ 0000000180072330 f i libucrtd:output.obj
 0001:000716e0       ?type_case_a@?$output_processor@_WV?$stream_output_adapter@_W@__crt_stdio_output@@V?$standard_base@_WV?$stream_output_adapter@_W@__crt_stdio_output@@@2@@__crt_stdio_output@@AEAA_NXZ 00000001800726e0 f i libucrtd:output.obj
 0001:00071a90       ?type_case_a@?$output_processor@_WV?$string_output_adapter@_W@__crt_stdio_output@@V?$format_validation_base@_WV?$string_output_adapter@_W@__crt_stdio_output@@@2@@__crt_stdio_output@@AEAA_NXZ 0000000180072a90 f i libucrtd:output.obj
 0001:00071e40       ?type_case_a@?$output_processor@_WV?$string_output_adapter@_W@__crt_stdio_output@@V?$positional_parameter_base@_WV?$string_output_adapter@_W@__crt_stdio_output@@@2@@__crt_stdio_output@@AEAA_NXZ 0000000180072e40 f i libucrtd:output.obj
 0001:000721f0       ?type_case_a@?$output_processor@_WV?$string_output_adapter@_W@__crt_stdio_output@@V?$standard_base@_WV?$string_output_adapter@_W@__crt_stdio_output@@@2@@__crt_stdio_output@@AEAA_NXZ 00000001800731f0 f i libucrtd:output.obj
 0001:000725a0       ?type_case_c@?$output_processor@DV?$stream_output_adapter@D@__crt_stdio_output@@V?$format_validation_base@DV?$stream_output_adapter@D@__crt_stdio_output@@@2@@__crt_stdio_output@@AEAA_NXZ 00000001800735a0 f i libucrtd:output.obj
 0001:000725c0       ?type_case_c@?$output_processor@DV?$stream_output_adapter@D@__crt_stdio_output@@V?$positional_parameter_base@DV?$stream_output_adapter@D@__crt_stdio_output@@@2@@__crt_stdio_output@@AEAA_NXZ 00000001800735c0 f i libucrtd:output.obj
 0001:000725e0       ?type_case_c@?$output_processor@DV?$stream_output_adapter@D@__crt_stdio_output@@V?$standard_base@DV?$stream_output_adapter@D@__crt_stdio_output@@@2@@__crt_stdio_output@@AEAA_NXZ 00000001800735e0 f i libucrtd:output.obj
 0001:00072600       ?type_case_c@?$output_processor@DV?$string_output_adapter@D@__crt_stdio_output@@V?$format_validation_base@DV?$string_output_adapter@D@__crt_stdio_output@@@2@@__crt_stdio_output@@AEAA_NXZ 0000000180073600 f i libucrtd:output.obj
 0001:00072620       ?type_case_c@?$output_processor@DV?$string_output_adapter@D@__crt_stdio_output@@V?$positional_parameter_base@DV?$string_output_adapter@D@__crt_stdio_output@@@2@@__crt_stdio_output@@AEAA_NXZ 0000000180073620 f i libucrtd:output.obj
 0001:00072640       ?type_case_c@?$output_processor@DV?$string_output_adapter@D@__crt_stdio_output@@V?$standard_base@DV?$string_output_adapter@D@__crt_stdio_output@@@2@@__crt_stdio_output@@AEAA_NXZ 0000000180073640 f i libucrtd:output.obj
 0001:00072660       ?type_case_c@?$output_processor@_WV?$stream_output_adapter@_W@__crt_stdio_output@@V?$format_validation_base@_WV?$stream_output_adapter@_W@__crt_stdio_output@@@2@@__crt_stdio_output@@AEAA_NXZ 0000000180073660 f i libucrtd:output.obj
 0001:00072680       ?type_case_c@?$output_processor@_WV?$stream_output_adapter@_W@__crt_stdio_output@@V?$positional_parameter_base@_WV?$stream_output_adapter@_W@__crt_stdio_output@@@2@@__crt_stdio_output@@AEAA_NXZ 0000000180073680 f i libucrtd:output.obj
 0001:000726a0       ?type_case_c@?$output_processor@_WV?$stream_output_adapter@_W@__crt_stdio_output@@V?$standard_base@_WV?$stream_output_adapter@_W@__crt_stdio_output@@@2@@__crt_stdio_output@@AEAA_NXZ 00000001800736a0 f i libucrtd:output.obj
 0001:000726c0       ?type_case_c@?$output_processor@_WV?$string_output_adapter@_W@__crt_stdio_output@@V?$format_validation_base@_WV?$string_output_adapter@_W@__crt_stdio_output@@@2@@__crt_stdio_output@@AEAA_NXZ 00000001800736c0 f i libucrtd:output.obj
 0001:000726e0       ?type_case_c@?$output_processor@_WV?$string_output_adapter@_W@__crt_stdio_output@@V?$positional_parameter_base@_WV?$string_output_adapter@_W@__crt_stdio_output@@@2@@__crt_stdio_output@@AEAA_NXZ 00000001800736e0 f i libucrtd:output.obj
 0001:00072700       ?type_case_c@?$output_processor@_WV?$string_output_adapter@_W@__crt_stdio_output@@V?$standard_base@_WV?$string_output_adapter@_W@__crt_stdio_output@@@2@@__crt_stdio_output@@AEAA_NXZ 0000000180073700 f i libucrtd:output.obj
 0001:00072720       ?type_case_c_tchar@?$output_processor@DV?$stream_output_adapter@D@__crt_stdio_output@@V?$format_validation_base@DV?$stream_output_adapter@D@__crt_stdio_output@@@2@@__crt_stdio_output@@AEAA_ND@Z 0000000180073720 f i libucrtd:output.obj
 0001:00072870       ?type_case_c_tchar@?$output_processor@DV?$stream_output_adapter@D@__crt_stdio_output@@V?$positional_parameter_base@DV?$stream_output_adapter@D@__crt_stdio_output@@@2@@__crt_stdio_output@@AEAA_ND@Z 0000000180073870 f i libucrtd:output.obj
 0001:000729c0       ?type_case_c_tchar@?$output_processor@DV?$stream_output_adapter@D@__crt_stdio_output@@V?$standard_base@DV?$stream_output_adapter@D@__crt_stdio_output@@@2@@__crt_stdio_output@@AEAA_ND@Z 00000001800739c0 f i libucrtd:output.obj
 0001:00072b10       ?type_case_c_tchar@?$output_processor@DV?$string_output_adapter@D@__crt_stdio_output@@V?$format_validation_base@DV?$string_output_adapter@D@__crt_stdio_output@@@2@@__crt_stdio_output@@AEAA_ND@Z 0000000180073b10 f i libucrtd:output.obj
 0001:00072c60       ?type_case_c_tchar@?$output_processor@DV?$string_output_adapter@D@__crt_stdio_output@@V?$positional_parameter_base@DV?$string_output_adapter@D@__crt_stdio_output@@@2@@__crt_stdio_output@@AEAA_ND@Z 0000000180073c60 f i libucrtd:output.obj
 0001:00072db0       ?type_case_c_tchar@?$output_processor@DV?$string_output_adapter@D@__crt_stdio_output@@V?$standard_base@DV?$string_output_adapter@D@__crt_stdio_output@@@2@@__crt_stdio_output@@AEAA_ND@Z 0000000180073db0 f i libucrtd:output.obj
 0001:00072f00       ?type_case_c_tchar@?$output_processor@_WV?$stream_output_adapter@_W@__crt_stdio_output@@V?$format_validation_base@_WV?$stream_output_adapter@_W@__crt_stdio_output@@@2@@__crt_stdio_output@@AEAA_N_W@Z 0000000180073f00 f i libucrtd:output.obj
 0001:00073030       ?type_case_c_tchar@?$output_processor@_WV?$stream_output_adapter@_W@__crt_stdio_output@@V?$positional_parameter_base@_WV?$stream_output_adapter@_W@__crt_stdio_output@@@2@@__crt_stdio_output@@AEAA_N_W@Z 0000000180074030 f i libucrtd:output.obj
 0001:00073160       ?type_case_c_tchar@?$output_processor@_WV?$stream_output_adapter@_W@__crt_stdio_output@@V?$standard_base@_WV?$stream_output_adapter@_W@__crt_stdio_output@@@2@@__crt_stdio_output@@AEAA_N_W@Z 0000000180074160 f i libucrtd:output.obj
 0001:00073290       ?type_case_c_tchar@?$output_processor@_WV?$string_output_adapter@_W@__crt_stdio_output@@V?$format_validation_base@_WV?$string_output_adapter@_W@__crt_stdio_output@@@2@@__crt_stdio_output@@AEAA_N_W@Z 0000000180074290 f i libucrtd:output.obj
 0001:000733c0       ?type_case_c_tchar@?$output_processor@_WV?$string_output_adapter@_W@__crt_stdio_output@@V?$positional_parameter_base@_WV?$string_output_adapter@_W@__crt_stdio_output@@@2@@__crt_stdio_output@@AEAA_N_W@Z 00000001800743c0 f i libucrtd:output.obj
 0001:000734f0       ?type_case_c_tchar@?$output_processor@_WV?$string_output_adapter@_W@__crt_stdio_output@@V?$standard_base@_WV?$string_output_adapter@_W@__crt_stdio_output@@@2@@__crt_stdio_output@@AEAA_N_W@Z 00000001800744f0 f i libucrtd:output.obj
 0001:00073620       ?type_case_d@?$output_processor@DV?$stream_output_adapter@D@__crt_stdio_output@@V?$format_validation_base@DV?$stream_output_adapter@D@__crt_stdio_output@@@2@@__crt_stdio_output@@AEAA_NXZ 0000000180074620 f i libucrtd:output.obj
 0001:00073650       ?type_case_d@?$output_processor@DV?$stream_output_adapter@D@__crt_stdio_output@@V?$positional_parameter_base@DV?$stream_output_adapter@D@__crt_stdio_output@@@2@@__crt_stdio_output@@AEAA_NXZ 0000000180074650 f i libucrtd:output.obj
 0001:00073680       ?type_case_d@?$output_processor@DV?$stream_output_adapter@D@__crt_stdio_output@@V?$standard_base@DV?$stream_output_adapter@D@__crt_stdio_output@@@2@@__crt_stdio_output@@AEAA_NXZ 0000000180074680 f i libucrtd:output.obj
 0001:000736b0       ?type_case_d@?$output_processor@DV?$string_output_adapter@D@__crt_stdio_output@@V?$format_validation_base@DV?$string_output_adapter@D@__crt_stdio_output@@@2@@__crt_stdio_output@@AEAA_NXZ 00000001800746b0 f i libucrtd:output.obj
 0001:000736e0       ?type_case_d@?$output_processor@DV?$string_output_adapter@D@__crt_stdio_output@@V?$positional_parameter_base@DV?$string_output_adapter@D@__crt_stdio_output@@@2@@__crt_stdio_output@@AEAA_NXZ 00000001800746e0 f i libucrtd:output.obj
 0001:00073710       ?type_case_d@?$output_processor@DV?$string_output_adapter@D@__crt_stdio_output@@V?$standard_base@DV?$string_output_adapter@D@__crt_stdio_output@@@2@@__crt_stdio_output@@AEAA_NXZ 0000000180074710 f i libucrtd:output.obj
 0001:00073740       ?type_case_d@?$output_processor@_WV?$stream_output_adapter@_W@__crt_stdio_output@@V?$format_validation_base@_WV?$stream_output_adapter@_W@__crt_stdio_output@@@2@@__crt_stdio_output@@AEAA_NXZ 0000000180074740 f i libucrtd:output.obj
 0001:00073770       ?type_case_d@?$output_processor@_WV?$stream_output_adapter@_W@__crt_stdio_output@@V?$positional_parameter_base@_WV?$stream_output_adapter@_W@__crt_stdio_output@@@2@@__crt_stdio_output@@AEAA_NXZ 0000000180074770 f i libucrtd:output.obj
 0001:000737a0       ?type_case_d@?$output_processor@_WV?$stream_output_adapter@_W@__crt_stdio_output@@V?$standard_base@_WV?$stream_output_adapter@_W@__crt_stdio_output@@@2@@__crt_stdio_output@@AEAA_NXZ 00000001800747a0 f i libucrtd:output.obj
 0001:000737d0       ?type_case_d@?$output_processor@_WV?$string_output_adapter@_W@__crt_stdio_output@@V?$format_validation_base@_WV?$string_output_adapter@_W@__crt_stdio_output@@@2@@__crt_stdio_output@@AEAA_NXZ 00000001800747d0 f i libucrtd:output.obj
 0001:00073800       ?type_case_d@?$output_processor@_WV?$string_output_adapter@_W@__crt_stdio_output@@V?$positional_parameter_base@_WV?$string_output_adapter@_W@__crt_stdio_output@@@2@@__crt_stdio_output@@AEAA_NXZ 0000000180074800 f i libucrtd:output.obj
 0001:00073830       ?type_case_d@?$output_processor@_WV?$string_output_adapter@_W@__crt_stdio_output@@V?$standard_base@_WV?$string_output_adapter@_W@__crt_stdio_output@@@2@@__crt_stdio_output@@AEAA_NXZ 0000000180074830 f i libucrtd:output.obj
 0001:00073860       ?type_case_integer@?$output_processor@DV?$stream_output_adapter@D@__crt_stdio_output@@V?$format_validation_base@DV?$stream_output_adapter@D@__crt_stdio_output@@@2@@__crt_stdio_output@@AEAA_NI_N@Z 0000000180074860 f i libucrtd:output.obj
 0001:00073c90       ?type_case_integer@?$output_processor@DV?$stream_output_adapter@D@__crt_stdio_output@@V?$positional_parameter_base@DV?$stream_output_adapter@D@__crt_stdio_output@@@2@@__crt_stdio_output@@AEAA_NI_N@Z 0000000180074c90 f i libucrtd:output.obj
 0001:000740c0       ?type_case_integer@?$output_processor@DV?$stream_output_adapter@D@__crt_stdio_output@@V?$standard_base@DV?$stream_output_adapter@D@__crt_stdio_output@@@2@@__crt_stdio_output@@AEAA_NI_N@Z 00000001800750c0 f i libucrtd:output.obj
 0001:000744f0       ?type_case_integer@?$output_processor@DV?$string_output_adapter@D@__crt_stdio_output@@V?$format_validation_base@DV?$string_output_adapter@D@__crt_stdio_output@@@2@@__crt_stdio_output@@AEAA_NI_N@Z 00000001800754f0 f i libucrtd:output.obj
 0001:00074920       ?type_case_integer@?$output_processor@DV?$string_output_adapter@D@__crt_stdio_output@@V?$positional_parameter_base@DV?$string_output_adapter@D@__crt_stdio_output@@@2@@__crt_stdio_output@@AEAA_NI_N@Z 0000000180075920 f i libucrtd:output.obj
 0001:00074d50       ?type_case_integer@?$output_processor@DV?$string_output_adapter@D@__crt_stdio_output@@V?$standard_base@DV?$string_output_adapter@D@__crt_stdio_output@@@2@@__crt_stdio_output@@AEAA_NI_N@Z 0000000180075d50 f i libucrtd:output.obj
 0001:00075180       ?type_case_integer@?$output_processor@_WV?$stream_output_adapter@_W@__crt_stdio_output@@V?$format_validation_base@_WV?$stream_output_adapter@_W@__crt_stdio_output@@@2@@__crt_stdio_output@@AEAA_NI_N@Z 0000000180076180 f i libucrtd:output.obj
 0001:000755b0       ?type_case_integer@?$output_processor@_WV?$stream_output_adapter@_W@__crt_stdio_output@@V?$positional_parameter_base@_WV?$stream_output_adapter@_W@__crt_stdio_output@@@2@@__crt_stdio_output@@AEAA_NI_N@Z 00000001800765b0 f i libucrtd:output.obj
 0001:000759e0       ?type_case_integer@?$output_processor@_WV?$stream_output_adapter@_W@__crt_stdio_output@@V?$standard_base@_WV?$stream_output_adapter@_W@__crt_stdio_output@@@2@@__crt_stdio_output@@AEAA_NI_N@Z 00000001800769e0 f i libucrtd:output.obj
 0001:00075e10       ?type_case_integer@?$output_processor@_WV?$string_output_adapter@_W@__crt_stdio_output@@V?$format_validation_base@_WV?$string_output_adapter@_W@__crt_stdio_output@@@2@@__crt_stdio_output@@AEAA_NI_N@Z 0000000180076e10 f i libucrtd:output.obj
 0001:00076240       ?type_case_integer@?$output_processor@_WV?$string_output_adapter@_W@__crt_stdio_output@@V?$positional_parameter_base@_WV?$string_output_adapter@_W@__crt_stdio_output@@@2@@__crt_stdio_output@@AEAA_NI_N@Z 0000000180077240 f i libucrtd:output.obj
 0001:00076670       ?type_case_integer@?$output_processor@_WV?$string_output_adapter@_W@__crt_stdio_output@@V?$standard_base@_WV?$string_output_adapter@_W@__crt_stdio_output@@@2@@__crt_stdio_output@@AEAA_NI_N@Z 0000000180077670 f i libucrtd:output.obj
 0001:00076aa0       ?type_case_n@?$output_processor@DV?$stream_output_adapter@D@__crt_stdio_output@@V?$format_validation_base@DV?$stream_output_adapter@D@__crt_stdio_output@@@2@@__crt_stdio_output@@AEAA_NXZ 0000000180077aa0 f i libucrtd:output.obj
 0001:00076ce0       ?type_case_n@?$output_processor@DV?$stream_output_adapter@D@__crt_stdio_output@@V?$positional_parameter_base@DV?$stream_output_adapter@D@__crt_stdio_output@@@2@@__crt_stdio_output@@AEAA_NXZ 0000000180077ce0 f i libucrtd:output.obj
 0001:00076f20       ?type_case_n@?$output_processor@DV?$stream_output_adapter@D@__crt_stdio_output@@V?$standard_base@DV?$stream_output_adapter@D@__crt_stdio_output@@@2@@__crt_stdio_output@@AEAA_NXZ 0000000180077f20 f i libucrtd:output.obj
 0001:00077160       ?type_case_n@?$output_processor@DV?$string_output_adapter@D@__crt_stdio_output@@V?$format_validation_base@DV?$string_output_adapter@D@__crt_stdio_output@@@2@@__crt_stdio_output@@AEAA_NXZ 0000000180078160 f i libucrtd:output.obj
 0001:000773a0       ?type_case_n@?$output_processor@DV?$string_output_adapter@D@__crt_stdio_output@@V?$positional_parameter_base@DV?$string_output_adapter@D@__crt_stdio_output@@@2@@__crt_stdio_output@@AEAA_NXZ 00000001800783a0 f i libucrtd:output.obj
 0001:000775e0       ?type_case_n@?$output_processor@DV?$string_output_adapter@D@__crt_stdio_output@@V?$standard_base@DV?$string_output_adapter@D@__crt_stdio_output@@@2@@__crt_stdio_output@@AEAA_NXZ 00000001800785e0 f i libucrtd:output.obj
 0001:00077820       ?type_case_n@?$output_processor@_WV?$stream_output_adapter@_W@__crt_stdio_output@@V?$format_validation_base@_WV?$stream_output_adapter@_W@__crt_stdio_output@@@2@@__crt_stdio_output@@AEAA_NXZ 0000000180078820 f i libucrtd:output.obj
 0001:00077a60       ?type_case_n@?$output_processor@_WV?$stream_output_adapter@_W@__crt_stdio_output@@V?$positional_parameter_base@_WV?$stream_output_adapter@_W@__crt_stdio_output@@@2@@__crt_stdio_output@@AEAA_NXZ 0000000180078a60 f i libucrtd:output.obj
 0001:00077ca0       ?type_case_n@?$output_processor@_WV?$stream_output_adapter@_W@__crt_stdio_output@@V?$standard_base@_WV?$stream_output_adapter@_W@__crt_stdio_output@@@2@@__crt_stdio_output@@AEAA_NXZ 0000000180078ca0 f i libucrtd:output.obj
 0001:00077ee0       ?type_case_n@?$output_processor@_WV?$string_output_adapter@_W@__crt_stdio_output@@V?$format_validation_base@_WV?$string_output_adapter@_W@__crt_stdio_output@@@2@@__crt_stdio_output@@AEAA_NXZ 0000000180078ee0 f i libucrtd:output.obj
 0001:00078120       ?type_case_n@?$output_processor@_WV?$string_output_adapter@_W@__crt_stdio_output@@V?$positional_parameter_base@_WV?$string_output_adapter@_W@__crt_stdio_output@@@2@@__crt_stdio_output@@AEAA_NXZ 0000000180079120 f i libucrtd:output.obj
 0001:00078360       ?type_case_n@?$output_processor@_WV?$string_output_adapter@_W@__crt_stdio_output@@V?$standard_base@_WV?$string_output_adapter@_W@__crt_stdio_output@@@2@@__crt_stdio_output@@AEAA_NXZ 0000000180079360 f i libucrtd:output.obj
 0001:000785a0       ?type_case_o@?$output_processor@DV?$stream_output_adapter@D@__crt_stdio_output@@V?$format_validation_base@DV?$stream_output_adapter@D@__crt_stdio_output@@@2@@__crt_stdio_output@@AEAA_NXZ 00000001800795a0 f i libucrtd:output.obj
 0001:000785f0       ?type_case_o@?$output_processor@DV?$stream_output_adapter@D@__crt_stdio_output@@V?$positional_parameter_base@DV?$stream_output_adapter@D@__crt_stdio_output@@@2@@__crt_stdio_output@@AEAA_NXZ 00000001800795f0 f i libucrtd:output.obj
 0001:00078640       ?type_case_o@?$output_processor@DV?$stream_output_adapter@D@__crt_stdio_output@@V?$standard_base@DV?$stream_output_adapter@D@__crt_stdio_output@@@2@@__crt_stdio_output@@AEAA_NXZ 0000000180079640 f i libucrtd:output.obj
 0001:00078690       ?type_case_o@?$output_processor@DV?$string_output_adapter@D@__crt_stdio_output@@V?$format_validation_base@DV?$string_output_adapter@D@__crt_stdio_output@@@2@@__crt_stdio_output@@AEAA_NXZ 0000000180079690 f i libucrtd:output.obj
 0001:000786e0       ?type_case_o@?$output_processor@DV?$string_output_adapter@D@__crt_stdio_output@@V?$positional_parameter_base@DV?$string_output_adapter@D@__crt_stdio_output@@@2@@__crt_stdio_output@@AEAA_NXZ 00000001800796e0 f i libucrtd:output.obj
 0001:00078730       ?type_case_o@?$output_processor@DV?$string_output_adapter@D@__crt_stdio_output@@V?$standard_base@DV?$string_output_adapter@D@__crt_stdio_output@@@2@@__crt_stdio_output@@AEAA_NXZ 0000000180079730 f i libucrtd:output.obj
 0001:00078780       ?type_case_o@?$output_processor@_WV?$stream_output_adapter@_W@__crt_stdio_output@@V?$format_validation_base@_WV?$stream_output_adapter@_W@__crt_stdio_output@@@2@@__crt_stdio_output@@AEAA_NXZ 0000000180079780 f i libucrtd:output.obj
 0001:000787d0       ?type_case_o@?$output_processor@_WV?$stream_output_adapter@_W@__crt_stdio_output@@V?$positional_parameter_base@_WV?$stream_output_adapter@_W@__crt_stdio_output@@@2@@__crt_stdio_output@@AEAA_NXZ 00000001800797d0 f i libucrtd:output.obj
 0001:00078820       ?type_case_o@?$output_processor@_WV?$stream_output_adapter@_W@__crt_stdio_output@@V?$standard_base@_WV?$stream_output_adapter@_W@__crt_stdio_output@@@2@@__crt_stdio_output@@AEAA_NXZ 0000000180079820 f i libucrtd:output.obj
 0001:00078870       ?type_case_o@?$output_processor@_WV?$string_output_adapter@_W@__crt_stdio_output@@V?$format_validation_base@_WV?$string_output_adapter@_W@__crt_stdio_output@@@2@@__crt_stdio_output@@AEAA_NXZ 0000000180079870 f i libucrtd:output.obj
 0001:000788c0       ?type_case_o@?$output_processor@_WV?$string_output_adapter@_W@__crt_stdio_output@@V?$positional_parameter_base@_WV?$string_output_adapter@_W@__crt_stdio_output@@@2@@__crt_stdio_output@@AEAA_NXZ 00000001800798c0 f i libucrtd:output.obj
 0001:00078910       ?type_case_o@?$output_processor@_WV?$string_output_adapter@_W@__crt_stdio_output@@V?$standard_base@_WV?$string_output_adapter@_W@__crt_stdio_output@@@2@@__crt_stdio_output@@AEAA_NXZ 0000000180079910 f i libucrtd:output.obj
 0001:00078960       ?type_case_p@?$output_processor@DV?$stream_output_adapter@D@__crt_stdio_output@@V?$format_validation_base@DV?$stream_output_adapter@D@__crt_stdio_output@@@2@@__crt_stdio_output@@AEAA_NXZ 0000000180079960 f i libucrtd:output.obj
 0001:000789a0       ?type_case_p@?$output_processor@DV?$stream_output_adapter@D@__crt_stdio_output@@V?$positional_parameter_base@DV?$stream_output_adapter@D@__crt_stdio_output@@@2@@__crt_stdio_output@@AEAA_NXZ 00000001800799a0 f i libucrtd:output.obj
 0001:000789e0       ?type_case_p@?$output_processor@DV?$stream_output_adapter@D@__crt_stdio_output@@V?$standard_base@DV?$stream_output_adapter@D@__crt_stdio_output@@@2@@__crt_stdio_output@@AEAA_NXZ 00000001800799e0 f i libucrtd:output.obj
 0001:00078a20       ?type_case_p@?$output_processor@DV?$string_output_adapter@D@__crt_stdio_output@@V?$format_validation_base@DV?$string_output_adapter@D@__crt_stdio_output@@@2@@__crt_stdio_output@@AEAA_NXZ 0000000180079a20 f i libucrtd:output.obj
 0001:00078a60       ?type_case_p@?$output_processor@DV?$string_output_adapter@D@__crt_stdio_output@@V?$positional_parameter_base@DV?$string_output_adapter@D@__crt_stdio_output@@@2@@__crt_stdio_output@@AEAA_NXZ 0000000180079a60 f i libucrtd:output.obj
 0001:00078aa0       ?type_case_p@?$output_processor@DV?$string_output_adapter@D@__crt_stdio_output@@V?$standard_base@DV?$string_output_adapter@D@__crt_stdio_output@@@2@@__crt_stdio_output@@AEAA_NXZ 0000000180079aa0 f i libucrtd:output.obj
 0001:00078ae0       ?type_case_p@?$output_processor@_WV?$stream_output_adapter@_W@__crt_stdio_output@@V?$format_validation_base@_WV?$stream_output_adapter@_W@__crt_stdio_output@@@2@@__crt_stdio_output@@AEAA_NXZ 0000000180079ae0 f i libucrtd:output.obj
 0001:00078b20       ?type_case_p@?$output_processor@_WV?$stream_output_adapter@_W@__crt_stdio_output@@V?$positional_parameter_base@_WV?$stream_output_adapter@_W@__crt_stdio_output@@@2@@__crt_stdio_output@@AEAA_NXZ 0000000180079b20 f i libucrtd:output.obj
 0001:00078b60       ?type_case_p@?$output_processor@_WV?$stream_output_adapter@_W@__crt_stdio_output@@V?$standard_base@_WV?$stream_output_adapter@_W@__crt_stdio_output@@@2@@__crt_stdio_output@@AEAA_NXZ 0000000180079b60 f i libucrtd:output.obj
 0001:00078ba0       ?type_case_p@?$output_processor@_WV?$string_output_adapter@_W@__crt_stdio_output@@V?$format_validation_base@_WV?$string_output_adapter@_W@__crt_stdio_output@@@2@@__crt_stdio_output@@AEAA_NXZ 0000000180079ba0 f i libucrtd:output.obj
 0001:00078be0       ?type_case_p@?$output_processor@_WV?$string_output_adapter@_W@__crt_stdio_output@@V?$positional_parameter_base@_WV?$string_output_adapter@_W@__crt_stdio_output@@@2@@__crt_stdio_output@@AEAA_NXZ 0000000180079be0 f i libucrtd:output.obj
 0001:00078c20       ?type_case_p@?$output_processor@_WV?$string_output_adapter@_W@__crt_stdio_output@@V?$standard_base@_WV?$string_output_adapter@_W@__crt_stdio_output@@@2@@__crt_stdio_output@@AEAA_NXZ 0000000180079c20 f i libucrtd:output.obj
 0001:00078c60       ?type_case_s@?$output_processor@DV?$stream_output_adapter@D@__crt_stdio_output@@V?$format_validation_base@DV?$stream_output_adapter@D@__crt_stdio_output@@@2@@__crt_stdio_output@@AEAA_NXZ 0000000180079c60 f i libucrtd:output.obj
 0001:00078d80       ?type_case_s@?$output_processor@DV?$stream_output_adapter@D@__crt_stdio_output@@V?$positional_parameter_base@DV?$stream_output_adapter@D@__crt_stdio_output@@@2@@__crt_stdio_output@@AEAA_NXZ 0000000180079d80 f i libucrtd:output.obj
 0001:00078ea0       ?type_case_s@?$output_processor@DV?$stream_output_adapter@D@__crt_stdio_output@@V?$standard_base@DV?$stream_output_adapter@D@__crt_stdio_output@@@2@@__crt_stdio_output@@AEAA_NXZ 0000000180079ea0 f i libucrtd:output.obj
 0001:00078fc0       ?type_case_s@?$output_processor@DV?$string_output_adapter@D@__crt_stdio_output@@V?$format_validation_base@DV?$string_output_adapter@D@__crt_stdio_output@@@2@@__crt_stdio_output@@AEAA_NXZ 0000000180079fc0 f i libucrtd:output.obj
 0001:000790e0       ?type_case_s@?$output_processor@DV?$string_output_adapter@D@__crt_stdio_output@@V?$positional_parameter_base@DV?$string_output_adapter@D@__crt_stdio_output@@@2@@__crt_stdio_output@@AEAA_NXZ 000000018007a0e0 f i libucrtd:output.obj
 0001:00079200       ?type_case_s@?$output_processor@DV?$string_output_adapter@D@__crt_stdio_output@@V?$standard_base@DV?$string_output_adapter@D@__crt_stdio_output@@@2@@__crt_stdio_output@@AEAA_NXZ 000000018007a200 f i libucrtd:output.obj
 0001:00079320       ?type_case_s@?$output_processor@_WV?$stream_output_adapter@_W@__crt_stdio_output@@V?$format_validation_base@_WV?$stream_output_adapter@_W@__crt_stdio_output@@@2@@__crt_stdio_output@@AEAA_NXZ 000000018007a320 f i libucrtd:output.obj
 0001:00079440       ?type_case_s@?$output_processor@_WV?$stream_output_adapter@_W@__crt_stdio_output@@V?$positional_parameter_base@_WV?$stream_output_adapter@_W@__crt_stdio_output@@@2@@__crt_stdio_output@@AEAA_NXZ 000000018007a440 f i libucrtd:output.obj
 0001:00079560       ?type_case_s@?$output_processor@_WV?$stream_output_adapter@_W@__crt_stdio_output@@V?$standard_base@_WV?$stream_output_adapter@_W@__crt_stdio_output@@@2@@__crt_stdio_output@@AEAA_NXZ 000000018007a560 f i libucrtd:output.obj
 0001:00079680       ?type_case_s@?$output_processor@_WV?$string_output_adapter@_W@__crt_stdio_output@@V?$format_validation_base@_WV?$string_output_adapter@_W@__crt_stdio_output@@@2@@__crt_stdio_output@@AEAA_NXZ 000000018007a680 f i libucrtd:output.obj
 0001:000797a0       ?type_case_s@?$output_processor@_WV?$string_output_adapter@_W@__crt_stdio_output@@V?$positional_parameter_base@_WV?$string_output_adapter@_W@__crt_stdio_output@@@2@@__crt_stdio_output@@AEAA_NXZ 000000018007a7a0 f i libucrtd:output.obj
 0001:000798c0       ?type_case_s@?$output_processor@_WV?$string_output_adapter@_W@__crt_stdio_output@@V?$standard_base@_WV?$string_output_adapter@_W@__crt_stdio_output@@@2@@__crt_stdio_output@@AEAA_NXZ 000000018007a8c0 f i libucrtd:output.obj
 0001:000799e0       ?type_case_s_compute_narrow_string_length@?$output_processor@DV?$stream_output_adapter@D@__crt_stdio_output@@V?$format_validation_base@DV?$stream_output_adapter@D@__crt_stdio_output@@@2@@__crt_stdio_output@@AEBAHHD@Z 000000018007a9e0 f i libucrtd:output.obj
 0001:00079a10       ?type_case_s_compute_narrow_string_length@?$output_processor@DV?$stream_output_adapter@D@__crt_stdio_output@@V?$positional_parameter_base@DV?$stream_output_adapter@D@__crt_stdio_output@@@2@@__crt_stdio_output@@AEBAHHD@Z 000000018007aa10 f i libucrtd:output.obj
 0001:00079a40       ?type_case_s_compute_narrow_string_length@?$output_processor@DV?$stream_output_adapter@D@__crt_stdio_output@@V?$standard_base@DV?$stream_output_adapter@D@__crt_stdio_output@@@2@@__crt_stdio_output@@AEBAHHD@Z 000000018007aa40 f i libucrtd:output.obj
 0001:00079a70       ?type_case_s_compute_narrow_string_length@?$output_processor@DV?$string_output_adapter@D@__crt_stdio_output@@V?$format_validation_base@DV?$string_output_adapter@D@__crt_stdio_output@@@2@@__crt_stdio_output@@AEBAHHD@Z 000000018007aa70 f i libucrtd:output.obj
 0001:00079aa0       ?type_case_s_compute_narrow_string_length@?$output_processor@DV?$string_output_adapter@D@__crt_stdio_output@@V?$positional_parameter_base@DV?$string_output_adapter@D@__crt_stdio_output@@@2@@__crt_stdio_output@@AEBAHHD@Z 000000018007aaa0 f i libucrtd:output.obj
 0001:00079ad0       ?type_case_s_compute_narrow_string_length@?$output_processor@DV?$string_output_adapter@D@__crt_stdio_output@@V?$standard_base@DV?$string_output_adapter@D@__crt_stdio_output@@@2@@__crt_stdio_output@@AEBAHHD@Z 000000018007aad0 f i libucrtd:output.obj
 0001:00079b00       ?type_case_s_compute_narrow_string_length@?$output_processor@_WV?$stream_output_adapter@_W@__crt_stdio_output@@V?$format_validation_base@_WV?$stream_output_adapter@_W@__crt_stdio_output@@@2@@__crt_stdio_output@@AEBAHH_W@Z 000000018007ab00 f i libucrtd:output.obj
 0001:00079b90       ?type_case_s_compute_narrow_string_length@?$output_processor@_WV?$stream_output_adapter@_W@__crt_stdio_output@@V?$positional_parameter_base@_WV?$stream_output_adapter@_W@__crt_stdio_output@@@2@@__crt_stdio_output@@AEBAHH_W@Z 000000018007ab90 f i libucrtd:output.obj
 0001:00079c20       ?type_case_s_compute_narrow_string_length@?$output_processor@_WV?$stream_output_adapter@_W@__crt_stdio_output@@V?$standard_base@_WV?$stream_output_adapter@_W@__crt_stdio_output@@@2@@__crt_stdio_output@@AEBAHH_W@Z 000000018007ac20 f i libucrtd:output.obj
 0001:00079cb0       ?type_case_s_compute_narrow_string_length@?$output_processor@_WV?$string_output_adapter@_W@__crt_stdio_output@@V?$format_validation_base@_WV?$string_output_adapter@_W@__crt_stdio_output@@@2@@__crt_stdio_output@@AEBAHH_W@Z 000000018007acb0 f i libucrtd:output.obj
 0001:00079d40       ?type_case_s_compute_narrow_string_length@?$output_processor@_WV?$string_output_adapter@_W@__crt_stdio_output@@V?$positional_parameter_base@_WV?$string_output_adapter@_W@__crt_stdio_output@@@2@@__crt_stdio_output@@AEBAHH_W@Z 000000018007ad40 f i libucrtd:output.obj
 0001:00079dd0       ?type_case_s_compute_narrow_string_length@?$output_processor@_WV?$string_output_adapter@_W@__crt_stdio_output@@V?$standard_base@_WV?$string_output_adapter@_W@__crt_stdio_output@@@2@@__crt_stdio_output@@AEBAHH_W@Z 000000018007add0 f i libucrtd:output.obj
 0001:00079e60       ?type_case_u@?$output_processor@DV?$stream_output_adapter@D@__crt_stdio_output@@V?$format_validation_base@DV?$stream_output_adapter@D@__crt_stdio_output@@@2@@__crt_stdio_output@@AEAA_NXZ 000000018007ae60 f i libucrtd:output.obj
 0001:00079e80       ?type_case_u@?$output_processor@DV?$stream_output_adapter@D@__crt_stdio_output@@V?$positional_parameter_base@DV?$stream_output_adapter@D@__crt_stdio_output@@@2@@__crt_stdio_output@@AEAA_NXZ 000000018007ae80 f i libucrtd:output.obj
 0001:00079ea0       ?type_case_u@?$output_processor@DV?$stream_output_adapter@D@__crt_stdio_output@@V?$standard_base@DV?$stream_output_adapter@D@__crt_stdio_output@@@2@@__crt_stdio_output@@AEAA_NXZ 000000018007aea0 f i libucrtd:output.obj
 0001:00079ec0       ?type_case_u@?$output_processor@DV?$string_output_adapter@D@__crt_stdio_output@@V?$format_validation_base@DV?$string_output_adapter@D@__crt_stdio_output@@@2@@__crt_stdio_output@@AEAA_NXZ 000000018007aec0 f i libucrtd:output.obj
 0001:00079ee0       ?type_case_u@?$output_processor@DV?$string_output_adapter@D@__crt_stdio_output@@V?$positional_parameter_base@DV?$string_output_adapter@D@__crt_stdio_output@@@2@@__crt_stdio_output@@AEAA_NXZ 000000018007aee0 f i libucrtd:output.obj
 0001:00079f00       ?type_case_u@?$output_processor@DV?$string_output_adapter@D@__crt_stdio_output@@V?$standard_base@DV?$string_output_adapter@D@__crt_stdio_output@@@2@@__crt_stdio_output@@AEAA_NXZ 000000018007af00 f i libucrtd:output.obj
 0001:00079f20       ?type_case_u@?$output_processor@_WV?$stream_output_adapter@_W@__crt_stdio_output@@V?$format_validation_base@_WV?$stream_output_adapter@_W@__crt_stdio_output@@@2@@__crt_stdio_output@@AEAA_NXZ 000000018007af20 f i libucrtd:output.obj
 0001:00079f40       ?type_case_u@?$output_processor@_WV?$stream_output_adapter@_W@__crt_stdio_output@@V?$positional_parameter_base@_WV?$stream_output_adapter@_W@__crt_stdio_output@@@2@@__crt_stdio_output@@AEAA_NXZ 000000018007af40 f i libucrtd:output.obj
 0001:00079f60       ?type_case_u@?$output_processor@_WV?$stream_output_adapter@_W@__crt_stdio_output@@V?$standard_base@_WV?$stream_output_adapter@_W@__crt_stdio_output@@@2@@__crt_stdio_output@@AEAA_NXZ 000000018007af60 f i libucrtd:output.obj
 0001:00079f80       ?type_case_u@?$output_processor@_WV?$string_output_adapter@_W@__crt_stdio_output@@V?$format_validation_base@_WV?$string_output_adapter@_W@__crt_stdio_output@@@2@@__crt_stdio_output@@AEAA_NXZ 000000018007af80 f i libucrtd:output.obj
 0001:00079fa0       ?type_case_u@?$output_processor@_WV?$string_output_adapter@_W@__crt_stdio_output@@V?$positional_parameter_base@_WV?$string_output_adapter@_W@__crt_stdio_output@@@2@@__crt_stdio_output@@AEAA_NXZ 000000018007afa0 f i libucrtd:output.obj
 0001:00079fc0       ?type_case_u@?$output_processor@_WV?$string_output_adapter@_W@__crt_stdio_output@@V?$standard_base@_WV?$string_output_adapter@_W@__crt_stdio_output@@@2@@__crt_stdio_output@@AEAA_NXZ 000000018007afc0 f i libucrtd:output.obj
 0001:00079fe0       ?type_case_x@?$output_processor@DV?$stream_output_adapter@D@__crt_stdio_output@@V?$format_validation_base@DV?$stream_output_adapter@D@__crt_stdio_output@@@2@@__crt_stdio_output@@AEAA_NXZ 000000018007afe0 f i libucrtd:output.obj
 0001:0007a000       ?type_case_x@?$output_processor@DV?$stream_output_adapter@D@__crt_stdio_output@@V?$positional_parameter_base@DV?$stream_output_adapter@D@__crt_stdio_output@@@2@@__crt_stdio_output@@AEAA_NXZ 000000018007b000 f i libucrtd:output.obj
 0001:0007a020       ?type_case_x@?$output_processor@DV?$stream_output_adapter@D@__crt_stdio_output@@V?$standard_base@DV?$stream_output_adapter@D@__crt_stdio_output@@@2@@__crt_stdio_output@@AEAA_NXZ 000000018007b020 f i libucrtd:output.obj
 0001:0007a040       ?type_case_x@?$output_processor@DV?$string_output_adapter@D@__crt_stdio_output@@V?$format_validation_base@DV?$string_output_adapter@D@__crt_stdio_output@@@2@@__crt_stdio_output@@AEAA_NXZ 000000018007b040 f i libucrtd:output.obj
 0001:0007a060       ?type_case_x@?$output_processor@DV?$string_output_adapter@D@__crt_stdio_output@@V?$positional_parameter_base@DV?$string_output_adapter@D@__crt_stdio_output@@@2@@__crt_stdio_output@@AEAA_NXZ 000000018007b060 f i libucrtd:output.obj
 0001:0007a080       ?type_case_x@?$output_processor@DV?$string_output_adapter@D@__crt_stdio_output@@V?$standard_base@DV?$string_output_adapter@D@__crt_stdio_output@@@2@@__crt_stdio_output@@AEAA_NXZ 000000018007b080 f i libucrtd:output.obj
 0001:0007a0a0       ?type_case_x@?$output_processor@_WV?$stream_output_adapter@_W@__crt_stdio_output@@V?$format_validation_base@_WV?$stream_output_adapter@_W@__crt_stdio_output@@@2@@__crt_stdio_output@@AEAA_NXZ 000000018007b0a0 f i libucrtd:output.obj
 0001:0007a0c0       ?type_case_x@?$output_processor@_WV?$stream_output_adapter@_W@__crt_stdio_output@@V?$positional_parameter_base@_WV?$stream_output_adapter@_W@__crt_stdio_output@@@2@@__crt_stdio_output@@AEAA_NXZ 000000018007b0c0 f i libucrtd:output.obj
 0001:0007a0e0       ?type_case_x@?$output_processor@_WV?$stream_output_adapter@_W@__crt_stdio_output@@V?$standard_base@_WV?$stream_output_adapter@_W@__crt_stdio_output@@@2@@__crt_stdio_output@@AEAA_NXZ 000000018007b0e0 f i libucrtd:output.obj
 0001:0007a100       ?type_case_x@?$output_processor@_WV?$string_output_adapter@_W@__crt_stdio_output@@V?$format_validation_base@_WV?$string_output_adapter@_W@__crt_stdio_output@@@2@@__crt_stdio_output@@AEAA_NXZ 000000018007b100 f i libucrtd:output.obj
 0001:0007a120       ?type_case_x@?$output_processor@_WV?$string_output_adapter@_W@__crt_stdio_output@@V?$positional_parameter_base@_WV?$string_output_adapter@_W@__crt_stdio_output@@@2@@__crt_stdio_output@@AEAA_NXZ 000000018007b120 f i libucrtd:output.obj
 0001:0007a140       ?type_case_x@?$output_processor@_WV?$string_output_adapter@_W@__crt_stdio_output@@V?$standard_base@_WV?$string_output_adapter@_W@__crt_stdio_output@@@2@@__crt_stdio_output@@AEAA_NXZ 000000018007b140 f i libucrtd:output.obj
 0001:0007a160       ?unset_flag@?$output_processor@DV?$stream_output_adapter@D@__crt_stdio_output@@V?$format_validation_base@DV?$stream_output_adapter@D@__crt_stdio_output@@@2@@__crt_stdio_output@@AEAAXI@Z 000000018007b160 f i libucrtd:output.obj
 0001:0007a190       ?unset_flag@?$output_processor@DV?$stream_output_adapter@D@__crt_stdio_output@@V?$positional_parameter_base@DV?$stream_output_adapter@D@__crt_stdio_output@@@2@@__crt_stdio_output@@AEAAXI@Z 000000018007b190 f i libucrtd:output.obj
 0001:0007a1c0       ?unset_flag@?$output_processor@DV?$stream_output_adapter@D@__crt_stdio_output@@V?$standard_base@DV?$stream_output_adapter@D@__crt_stdio_output@@@2@@__crt_stdio_output@@AEAAXI@Z 000000018007b1c0 f i libucrtd:output.obj
 0001:0007a1f0       ?unset_flag@?$output_processor@DV?$string_output_adapter@D@__crt_stdio_output@@V?$format_validation_base@DV?$string_output_adapter@D@__crt_stdio_output@@@2@@__crt_stdio_output@@AEAAXI@Z 000000018007b1f0 f i libucrtd:output.obj
 0001:0007a220       ?unset_flag@?$output_processor@DV?$string_output_adapter@D@__crt_stdio_output@@V?$positional_parameter_base@DV?$string_output_adapter@D@__crt_stdio_output@@@2@@__crt_stdio_output@@AEAAXI@Z 000000018007b220 f i libucrtd:output.obj
 0001:0007a250       ?unset_flag@?$output_processor@DV?$string_output_adapter@D@__crt_stdio_output@@V?$standard_base@DV?$string_output_adapter@D@__crt_stdio_output@@@2@@__crt_stdio_output@@AEAAXI@Z 000000018007b250 f i libucrtd:output.obj
 0001:0007a280       ?unset_flag@?$output_processor@_WV?$stream_output_adapter@_W@__crt_stdio_output@@V?$format_validation_base@_WV?$stream_output_adapter@_W@__crt_stdio_output@@@2@@__crt_stdio_output@@AEAAXI@Z 000000018007b280 f i libucrtd:output.obj
 0001:0007a2b0       ?unset_flag@?$output_processor@_WV?$stream_output_adapter@_W@__crt_stdio_output@@V?$positional_parameter_base@_WV?$stream_output_adapter@_W@__crt_stdio_output@@@2@@__crt_stdio_output@@AEAAXI@Z 000000018007b2b0 f i libucrtd:output.obj
 0001:0007a2e0       ?unset_flag@?$output_processor@_WV?$stream_output_adapter@_W@__crt_stdio_output@@V?$standard_base@_WV?$stream_output_adapter@_W@__crt_stdio_output@@@2@@__crt_stdio_output@@AEAAXI@Z 000000018007b2e0 f i libucrtd:output.obj
 0001:0007a310       ?unset_flag@?$output_processor@_WV?$string_output_adapter@_W@__crt_stdio_output@@V?$format_validation_base@_WV?$string_output_adapter@_W@__crt_stdio_output@@@2@@__crt_stdio_output@@AEAAXI@Z 000000018007b310 f i libucrtd:output.obj
 0001:0007a340       ?unset_flag@?$output_processor@_WV?$string_output_adapter@_W@__crt_stdio_output@@V?$positional_parameter_base@_WV?$string_output_adapter@_W@__crt_stdio_output@@@2@@__crt_stdio_output@@AEAAXI@Z 000000018007b340 f i libucrtd:output.obj
 0001:0007a370       ?unset_flag@?$output_processor@_WV?$string_output_adapter@_W@__crt_stdio_output@@V?$standard_base@_WV?$string_output_adapter@_W@__crt_stdio_output@@@2@@__crt_stdio_output@@AEAAXI@Z 000000018007b370 f i libucrtd:output.obj
 0001:0007a3a0       ?update_field_width@?$positional_parameter_base@DV?$stream_output_adapter@D@__crt_stdio_output@@@__crt_stdio_output@@IEAA_NXZ 000000018007b3a0 f i libucrtd:output.obj
 0001:0007a590       ?update_field_width@?$positional_parameter_base@DV?$string_output_adapter@D@__crt_stdio_output@@@__crt_stdio_output@@IEAA_NXZ 000000018007b590 f i libucrtd:output.obj
 0001:0007a780       ?update_field_width@?$positional_parameter_base@_WV?$stream_output_adapter@_W@__crt_stdio_output@@@__crt_stdio_output@@IEAA_NXZ 000000018007b780 f i libucrtd:output.obj
 0001:0007a970       ?update_field_width@?$positional_parameter_base@_WV?$string_output_adapter@_W@__crt_stdio_output@@@__crt_stdio_output@@IEAA_NXZ 000000018007b970 f i libucrtd:output.obj
 0001:0007ab60       ?update_field_width@?$standard_base@DV?$stream_output_adapter@D@__crt_stdio_output@@@__crt_stdio_output@@IEAA_NXZ 000000018007bb60 f i libucrtd:output.obj
 0001:0007ab90       ?update_field_width@?$standard_base@DV?$string_output_adapter@D@__crt_stdio_output@@@__crt_stdio_output@@IEAA_NXZ 000000018007bb90 f i libucrtd:output.obj
 0001:0007abc0       ?update_field_width@?$standard_base@_WV?$stream_output_adapter@_W@__crt_stdio_output@@@__crt_stdio_output@@IEAA_NXZ 000000018007bbc0 f i libucrtd:output.obj
 0001:0007abf0       ?update_field_width@?$standard_base@_WV?$string_output_adapter@_W@__crt_stdio_output@@@__crt_stdio_output@@IEAA_NXZ 000000018007bbf0 f i libucrtd:output.obj
 0001:0007ac20       ?update_precision@?$positional_parameter_base@DV?$stream_output_adapter@D@__crt_stdio_output@@@__crt_stdio_output@@IEAA_NXZ 000000018007bc20 f i libucrtd:output.obj
 0001:0007ae10       ?update_precision@?$positional_parameter_base@DV?$string_output_adapter@D@__crt_stdio_output@@@__crt_stdio_output@@IEAA_NXZ 000000018007be10 f i libucrtd:output.obj
 0001:0007b000       ?update_precision@?$positional_parameter_base@_WV?$stream_output_adapter@_W@__crt_stdio_output@@@__crt_stdio_output@@IEAA_NXZ 000000018007c000 f i libucrtd:output.obj
 0001:0007b1f0       ?update_precision@?$positional_parameter_base@_WV?$string_output_adapter@_W@__crt_stdio_output@@@__crt_stdio_output@@IEAA_NXZ 000000018007c1f0 f i libucrtd:output.obj
 0001:0007b3e0       ?update_precision@?$standard_base@DV?$stream_output_adapter@D@__crt_stdio_output@@@__crt_stdio_output@@IEAA_NXZ 000000018007c3e0 f i libucrtd:output.obj
 0001:0007b410       ?update_precision@?$standard_base@DV?$string_output_adapter@D@__crt_stdio_output@@@__crt_stdio_output@@IEAA_NXZ 000000018007c410 f i libucrtd:output.obj
 0001:0007b440       ?update_precision@?$standard_base@_WV?$stream_output_adapter@_W@__crt_stdio_output@@@__crt_stdio_output@@IEAA_NXZ 000000018007c440 f i libucrtd:output.obj
 0001:0007b470       ?update_precision@?$standard_base@_WV?$string_output_adapter@_W@__crt_stdio_output@@@__crt_stdio_output@@IEAA_NXZ 000000018007c470 f i libucrtd:output.obj
 0001:0007b4a0       ?valid@__crt_stdio_stream@@QEBA_NXZ 000000018007c4a0 f i libucrtd:output.obj
 0001:0007b4d0       ?validate@?$stream_output_adapter@D@__crt_stdio_output@@QEBA_NXZ 000000018007c4d0 f i libucrtd:output.obj
 0001:0007b5b0       ?validate@?$stream_output_adapter@_W@__crt_stdio_output@@QEBA_NXZ 000000018007c5b0 f i libucrtd:output.obj
 0001:0007b690       ?validate@?$string_output_adapter@D@__crt_stdio_output@@QEBA_NXZ 000000018007c690 f i libucrtd:output.obj
 0001:0007b750       ?validate@?$string_output_adapter@_W@__crt_stdio_output@@QEBA_NXZ 000000018007c750 f i libucrtd:output.obj
 0001:0007b810       ?validate_and_store_parameter_data@?$positional_parameter_base@DV?$stream_output_adapter@D@__crt_stdio_output@@@__crt_stdio_output@@AEAA_NAEAUparameter_data@12@W4parameter_type@12@DW4length_modifier@2@@Z 000000018007c810 f i libucrtd:output.obj
 0001:0007b930       ?validate_and_store_parameter_data@?$positional_parameter_base@DV?$string_output_adapter@D@__crt_stdio_output@@@__crt_stdio_output@@AEAA_NAEAUparameter_data@12@W4parameter_type@12@DW4length_modifier@2@@Z 000000018007c930 f i libucrtd:output.obj
 0001:0007ba50       ?validate_and_store_parameter_data@?$positional_parameter_base@_WV?$stream_output_adapter@_W@__crt_stdio_output@@@__crt_stdio_output@@AEAA_NAEAUparameter_data@12@W4parameter_type@12@_WW4length_modifier@2@@Z 000000018007ca50 f i libucrtd:output.obj
 0001:0007bb70       ?validate_and_store_parameter_data@?$positional_parameter_base@_WV?$string_output_adapter@_W@__crt_stdio_output@@@__crt_stdio_output@@AEAA_NAEAUparameter_data@12@W4parameter_type@12@_WW4length_modifier@2@@Z 000000018007cb70 f i libucrtd:output.obj
 0001:0007bc90       ?validate_and_update_state_at_beginning_of_format_character@?$positional_parameter_base@DV?$stream_output_adapter@D@__crt_stdio_output@@@__crt_stdio_output@@IEAA_NXZ 000000018007cc90 f i libucrtd:output.obj
 0001:0007bf70       ?validate_and_update_state_at_beginning_of_format_character@?$positional_parameter_base@DV?$string_output_adapter@D@__crt_stdio_output@@@__crt_stdio_output@@IEAA_NXZ 000000018007cf70 f i libucrtd:output.obj
 0001:0007c250       ?validate_and_update_state_at_beginning_of_format_character@?$positional_parameter_base@_WV?$stream_output_adapter@_W@__crt_stdio_output@@@__crt_stdio_output@@IEAA_NXZ 000000018007d250 f i libucrtd:output.obj
 0001:0007c530       ?validate_and_update_state_at_beginning_of_format_character@?$positional_parameter_base@_WV?$string_output_adapter@_W@__crt_stdio_output@@@__crt_stdio_output@@IEAA_NXZ 000000018007d530 f i libucrtd:output.obj
 0001:0007c810       ?validate_and_update_state_at_beginning_of_format_character@?$standard_base@DV?$stream_output_adapter@D@__crt_stdio_output@@@__crt_stdio_output@@IEAA_NXZ 000000018007d810 f i libucrtd:output.obj
 0001:0007c820       ?validate_and_update_state_at_beginning_of_format_character@?$standard_base@DV?$string_output_adapter@D@__crt_stdio_output@@@__crt_stdio_output@@IEAA_NXZ 000000018007d820 f i libucrtd:output.obj
 0001:0007c830       ?validate_and_update_state_at_beginning_of_format_character@?$standard_base@_WV?$stream_output_adapter@_W@__crt_stdio_output@@@__crt_stdio_output@@IEAA_NXZ 000000018007d830 f i libucrtd:output.obj
 0001:0007c840       ?validate_and_update_state_at_beginning_of_format_character@?$standard_base@_WV?$string_output_adapter@_W@__crt_stdio_output@@@__crt_stdio_output@@IEAA_NXZ 000000018007d840 f i libucrtd:output.obj
 0001:0007c850       ?validate_and_update_state_at_end_of_format_string@?$format_validation_base@DV?$stream_output_adapter@D@__crt_stdio_output@@@__crt_stdio_output@@IEBA_NXZ 000000018007d850 f i libucrtd:output.obj
 0001:0007c910       ?validate_and_update_state_at_end_of_format_string@?$format_validation_base@DV?$string_output_adapter@D@__crt_stdio_output@@@__crt_stdio_output@@IEBA_NXZ 000000018007d910 f i libucrtd:output.obj
 0001:0007c9d0       ?validate_and_update_state_at_end_of_format_string@?$format_validation_base@_WV?$stream_output_adapter@_W@__crt_stdio_output@@@__crt_stdio_output@@IEBA_NXZ 000000018007d9d0 f i libucrtd:output.obj
 0001:0007ca90       ?validate_and_update_state_at_end_of_format_string@?$format_validation_base@_WV?$string_output_adapter@_W@__crt_stdio_output@@@__crt_stdio_output@@IEBA_NXZ 000000018007da90 f i libucrtd:output.obj
 0001:0007cb50       ?validate_and_update_state_at_end_of_format_string@?$positional_parameter_base@DV?$stream_output_adapter@D@__crt_stdio_output@@@__crt_stdio_output@@IEAA_NXZ 000000018007db50 f i libucrtd:output.obj
 0001:0007cd40       ?validate_and_update_state_at_end_of_format_string@?$positional_parameter_base@DV?$string_output_adapter@D@__crt_stdio_output@@@__crt_stdio_output@@IEAA_NXZ 000000018007dd40 f i libucrtd:output.obj
 0001:0007cf30       ?validate_and_update_state_at_end_of_format_string@?$positional_parameter_base@_WV?$stream_output_adapter@_W@__crt_stdio_output@@@__crt_stdio_output@@IEAA_NXZ 000000018007df30 f i libucrtd:output.obj
 0001:0007d120       ?validate_and_update_state_at_end_of_format_string@?$positional_parameter_base@_WV?$string_output_adapter@_W@__crt_stdio_output@@@__crt_stdio_output@@IEAA_NXZ 000000018007e120 f i libucrtd:output.obj
 0001:0007d310       ?validate_and_update_state_at_end_of_format_string@?$standard_base@DV?$stream_output_adapter@D@__crt_stdio_output@@@__crt_stdio_output@@IEBA_NXZ 000000018007e310 f i libucrtd:output.obj
 0001:0007d320       ?validate_and_update_state_at_end_of_format_string@?$standard_base@DV?$string_output_adapter@D@__crt_stdio_output@@@__crt_stdio_output@@IEBA_NXZ 000000018007e320 f i libucrtd:output.obj
 0001:0007d330       ?validate_and_update_state_at_end_of_format_string@?$standard_base@_WV?$stream_output_adapter@_W@__crt_stdio_output@@@__crt_stdio_output@@IEBA_NXZ 000000018007e330 f i libucrtd:output.obj
 0001:0007d340       ?validate_and_update_state_at_end_of_format_string@?$standard_base@_WV?$string_output_adapter@_W@__crt_stdio_output@@@__crt_stdio_output@@IEBA_NXZ 000000018007e340 f i libucrtd:output.obj
 0001:0007d350       ?validate_state_for_type_case_a@?$positional_parameter_base@DV?$stream_output_adapter@D@__crt_stdio_output@@@__crt_stdio_output@@IEAA_NXZ 000000018007e350 f i libucrtd:output.obj
 0001:0007d490       ?validate_state_for_type_case_a@?$positional_parameter_base@DV?$string_output_adapter@D@__crt_stdio_output@@@__crt_stdio_output@@IEAA_NXZ 000000018007e490 f i libucrtd:output.obj
 0001:0007d5d0       ?validate_state_for_type_case_a@?$positional_parameter_base@_WV?$stream_output_adapter@_W@__crt_stdio_output@@@__crt_stdio_output@@IEAA_NXZ 000000018007e5d0 f i libucrtd:output.obj
 0001:0007d710       ?validate_state_for_type_case_a@?$positional_parameter_base@_WV?$string_output_adapter@_W@__crt_stdio_output@@@__crt_stdio_output@@IEAA_NXZ 000000018007e710 f i libucrtd:output.obj
 0001:0007d850       ?validate_state_for_type_case_a@?$standard_base@DV?$stream_output_adapter@D@__crt_stdio_output@@@__crt_stdio_output@@IEBA_NXZ 000000018007e850 f i libucrtd:output.obj
 0001:0007d860       ?validate_state_for_type_case_a@?$standard_base@DV?$string_output_adapter@D@__crt_stdio_output@@@__crt_stdio_output@@IEBA_NXZ 000000018007e860 f i libucrtd:output.obj
 0001:0007d870       ?validate_state_for_type_case_a@?$standard_base@_WV?$stream_output_adapter@_W@__crt_stdio_output@@@__crt_stdio_output@@IEBA_NXZ 000000018007e870 f i libucrtd:output.obj
 0001:0007d880       ?validate_state_for_type_case_a@?$standard_base@_WV?$string_output_adapter@_W@__crt_stdio_output@@@__crt_stdio_output@@IEBA_NXZ 000000018007e880 f i libucrtd:output.obj
 0001:0007d890       ?validate_stream_is_ansi_if_required@?$__acrt_stdio_char_traits@D@@SA_NQEAU_iobuf@@@Z 000000018007e890 f i libucrtd:output.obj
 0001:0007da20       ?validate_stream_is_ansi_if_required@?$__acrt_stdio_char_traits@_W@@SA_NQEAU_iobuf@@@Z 000000018007ea20 f i libucrtd:output.obj
 0001:0007da30       ?wide_null_string@?$output_processor@DV?$stream_output_adapter@D@__crt_stdio_output@@V?$format_validation_base@DV?$stream_output_adapter@D@__crt_stdio_output@@@2@@__crt_stdio_output@@CAPEA_WXZ 000000018007ea30 f i libucrtd:output.obj
 0001:0007da40       ?wide_null_string@?$output_processor@DV?$stream_output_adapter@D@__crt_stdio_output@@V?$positional_parameter_base@DV?$stream_output_adapter@D@__crt_stdio_output@@@2@@__crt_stdio_output@@CAPEA_WXZ 000000018007ea40 f i libucrtd:output.obj
 0001:0007da50       ?wide_null_string@?$output_processor@DV?$stream_output_adapter@D@__crt_stdio_output@@V?$standard_base@DV?$stream_output_adapter@D@__crt_stdio_output@@@2@@__crt_stdio_output@@CAPEA_WXZ 000000018007ea50 f i libucrtd:output.obj
 0001:0007da60       ?wide_null_string@?$output_processor@DV?$string_output_adapter@D@__crt_stdio_output@@V?$format_validation_base@DV?$string_output_adapter@D@__crt_stdio_output@@@2@@__crt_stdio_output@@CAPEA_WXZ 000000018007ea60 f i libucrtd:output.obj
 0001:0007da70       ?wide_null_string@?$output_processor@DV?$string_output_adapter@D@__crt_stdio_output@@V?$positional_parameter_base@DV?$string_output_adapter@D@__crt_stdio_output@@@2@@__crt_stdio_output@@CAPEA_WXZ 000000018007ea70 f i libucrtd:output.obj
 0001:0007da80       ?wide_null_string@?$output_processor@DV?$string_output_adapter@D@__crt_stdio_output@@V?$standard_base@DV?$string_output_adapter@D@__crt_stdio_output@@@2@@__crt_stdio_output@@CAPEA_WXZ 000000018007ea80 f i libucrtd:output.obj
 0001:0007da90       ?wide_null_string@?$output_processor@_WV?$stream_output_adapter@_W@__crt_stdio_output@@V?$format_validation_base@_WV?$stream_output_adapter@_W@__crt_stdio_output@@@2@@__crt_stdio_output@@CAPEA_WXZ 000000018007ea90 f i libucrtd:output.obj
 0001:0007daa0       ?wide_null_string@?$output_processor@_WV?$stream_output_adapter@_W@__crt_stdio_output@@V?$positional_parameter_base@_WV?$stream_output_adapter@_W@__crt_stdio_output@@@2@@__crt_stdio_output@@CAPEA_WXZ 000000018007eaa0 f i libucrtd:output.obj
 0001:0007dab0       ?wide_null_string@?$output_processor@_WV?$stream_output_adapter@_W@__crt_stdio_output@@V?$standard_base@_WV?$stream_output_adapter@_W@__crt_stdio_output@@@2@@__crt_stdio_output@@CAPEA_WXZ 000000018007eab0 f i libucrtd:output.obj
 0001:0007dac0       ?wide_null_string@?$output_processor@_WV?$string_output_adapter@_W@__crt_stdio_output@@V?$format_validation_base@_WV?$string_output_adapter@_W@__crt_stdio_output@@@2@@__crt_stdio_output@@CAPEA_WXZ 000000018007eac0 f i libucrtd:output.obj
 0001:0007dad0       ?wide_null_string@?$output_processor@_WV?$string_output_adapter@_W@__crt_stdio_output@@V?$positional_parameter_base@_WV?$string_output_adapter@_W@__crt_stdio_output@@@2@@__crt_stdio_output@@CAPEA_WXZ 000000018007ead0 f i libucrtd:output.obj
 0001:0007dae0       ?wide_null_string@?$output_processor@_WV?$string_output_adapter@_W@__crt_stdio_output@@V?$standard_base@_WV?$string_output_adapter@_W@__crt_stdio_output@@@2@@__crt_stdio_output@@CAPEA_WXZ 000000018007eae0 f i libucrtd:output.obj
 0001:0007daf0       ?write_character@?$stream_output_adapter@D@__crt_stdio_output@@QEBAXDQEAH@Z 000000018007eaf0 f i libucrtd:output.obj
 0001:0007db90       ?write_character@?$stream_output_adapter@_W@__crt_stdio_output@@QEBAX_WQEAH@Z 000000018007eb90 f i libucrtd:output.obj
 0001:0007dc30       ?write_character@?$string_output_adapter@D@__crt_stdio_output@@QEBA_NDQEAH@Z 000000018007ec30 f i libucrtd:output.obj
 0001:0007dcf0       ?write_character@?$string_output_adapter@_W@__crt_stdio_output@@QEBA_N_WQEAH@Z 000000018007ecf0 f i libucrtd:output.obj
 0001:0007ddb0       ?write_stored_string_tchar@?$output_processor@DV?$stream_output_adapter@D@__crt_stdio_output@@V?$format_validation_base@DV?$stream_output_adapter@D@__crt_stdio_output@@@2@@__crt_stdio_output@@AEAA_ND@Z 000000018007edb0 f i libucrtd:output.obj
 0001:0007df10       ?write_stored_string_tchar@?$output_processor@DV?$stream_output_adapter@D@__crt_stdio_output@@V?$positional_parameter_base@DV?$stream_output_adapter@D@__crt_stdio_output@@@2@@__crt_stdio_output@@AEAA_ND@Z 000000018007ef10 f i libucrtd:output.obj
 0001:0007e070       ?write_stored_string_tchar@?$output_processor@DV?$stream_output_adapter@D@__crt_stdio_output@@V?$standard_base@DV?$stream_output_adapter@D@__crt_stdio_output@@@2@@__crt_stdio_output@@AEAA_ND@Z 000000018007f070 f i libucrtd:output.obj
 0001:0007e1d0       ?write_stored_string_tchar@?$output_processor@DV?$string_output_adapter@D@__crt_stdio_output@@V?$format_validation_base@DV?$string_output_adapter@D@__crt_stdio_output@@@2@@__crt_stdio_output@@AEAA_ND@Z 000000018007f1d0 f i libucrtd:output.obj
 0001:0007e330       ?write_stored_string_tchar@?$output_processor@DV?$string_output_adapter@D@__crt_stdio_output@@V?$positional_parameter_base@DV?$string_output_adapter@D@__crt_stdio_output@@@2@@__crt_stdio_output@@AEAA_ND@Z 000000018007f330 f i libucrtd:output.obj
 0001:0007e490       ?write_stored_string_tchar@?$output_processor@DV?$string_output_adapter@D@__crt_stdio_output@@V?$standard_base@DV?$string_output_adapter@D@__crt_stdio_output@@@2@@__crt_stdio_output@@AEAA_ND@Z 000000018007f490 f i libucrtd:output.obj
 0001:0007e5f0       ?write_stored_string_tchar@?$output_processor@_WV?$stream_output_adapter@_W@__crt_stdio_output@@V?$format_validation_base@_WV?$stream_output_adapter@_W@__crt_stdio_output@@@2@@__crt_stdio_output@@AEAA_N_W@Z 000000018007f5f0 f i libucrtd:output.obj
 0001:0007e730       ?write_stored_string_tchar@?$output_processor@_WV?$stream_output_adapter@_W@__crt_stdio_output@@V?$positional_parameter_base@_WV?$stream_output_adapter@_W@__crt_stdio_output@@@2@@__crt_stdio_output@@AEAA_N_W@Z 000000018007f730 f i libucrtd:output.obj
 0001:0007e870       ?write_stored_string_tchar@?$output_processor@_WV?$stream_output_adapter@_W@__crt_stdio_output@@V?$standard_base@_WV?$stream_output_adapter@_W@__crt_stdio_output@@@2@@__crt_stdio_output@@AEAA_N_W@Z 000000018007f870 f i libucrtd:output.obj
 0001:0007e9b0       ?write_stored_string_tchar@?$output_processor@_WV?$string_output_adapter@_W@__crt_stdio_output@@V?$format_validation_base@_WV?$string_output_adapter@_W@__crt_stdio_output@@@2@@__crt_stdio_output@@AEAA_N_W@Z 000000018007f9b0 f i libucrtd:output.obj
 0001:0007eaf0       ?write_stored_string_tchar@?$output_processor@_WV?$string_output_adapter@_W@__crt_stdio_output@@V?$positional_parameter_base@_WV?$string_output_adapter@_W@__crt_stdio_output@@@2@@__crt_stdio_output@@AEAA_N_W@Z 000000018007faf0 f i libucrtd:output.obj
 0001:0007ec30       ?write_stored_string_tchar@?$output_processor@_WV?$string_output_adapter@_W@__crt_stdio_output@@V?$standard_base@_WV?$string_output_adapter@_W@__crt_stdio_output@@@2@@__crt_stdio_output@@AEAA_N_W@Z 000000018007fc30 f i libucrtd:output.obj
 0001:0007ed70       ?write_string@?$stream_output_adapter@D@__crt_stdio_output@@QEBAXQEBDHQEAH1@Z 000000018007fd70 f i libucrtd:output.obj
 0001:0007ee70       ?write_string@?$stream_output_adapter@_W@__crt_stdio_output@@QEBAXQEB_WHQEAH1@Z 000000018007fe70 f i libucrtd:output.obj
 0001:0007ef70       ?write_string@?$string_output_adapter@D@__crt_stdio_output@@QEBAXQEBDHQEAH1@Z 000000018007ff70 f i libucrtd:output.obj
 0001:0007f0f0       ?write_string@?$string_output_adapter@_W@__crt_stdio_output@@QEBAXQEB_WHQEAH1@Z 00000001800800f0 f i libucrtd:output.obj
 0001:0007f280       __acrt_isleadbyte_l_noupdate 0000000180080280 f i libucrtd:output.obj
 0001:0007f2b0       __acrt_locale_changed      00000001800802b0 f i libucrtd:output.obj
 0001:0007f2e0       __stdio_common_vfprintf    00000001800802e0 f   libucrtd:output.obj
 0001:0007f320       __stdio_common_vfprintf_p  0000000180080320 f   libucrtd:output.obj
 0001:0007f360       __stdio_common_vfprintf_s  0000000180080360 f   libucrtd:output.obj
 0001:0007f3a0       __stdio_common_vfwprintf   00000001800803a0 f   libucrtd:output.obj
 0001:0007f3e0       __stdio_common_vfwprintf_p 00000001800803e0 f   libucrtd:output.obj
 0001:0007f420       __stdio_common_vfwprintf_s 0000000180080420 f   libucrtd:output.obj
 0001:0007f460       __stdio_common_vsnprintf_s 0000000180080460 f   libucrtd:output.obj
 0001:0007f4c0       __stdio_common_vsnwprintf_s 00000001800804c0 f   libucrtd:output.obj
 0001:0007f520       __stdio_common_vsprintf    0000000180080520 f   libucrtd:output.obj
 0001:0007f570       __stdio_common_vsprintf_p  0000000180080570 f   libucrtd:output.obj
 0001:0007f5c0       __stdio_common_vsprintf_s  00000001800805c0 f   libucrtd:output.obj
 0001:0007f610       __stdio_common_vswprintf   0000000180080610 f   libucrtd:output.obj
 0001:0007f660       __stdio_common_vswprintf_p 0000000180080660 f   libucrtd:output.obj
 0001:0007f6b0       __stdio_common_vswprintf_s 00000001800806b0 f   libucrtd:output.obj
 0001:0007f700       free                       0000000180080700 f   libucrtd:free.obj
 0001:0007f720       malloc                     0000000180080720 f   libucrtd:malloc.obj
 0001:0007f750       ??$?RU?$__crt_report_hook_node@D@@@__crt_internal_free_policy@@QEBAXQEBU?$__crt_report_hook_node@D@@@Z 0000000180080750 f i libucrtd:dbgrpt.obj
 0001:0007f780       ??$?RU?$__crt_report_hook_node@_W@@@__crt_internal_free_policy@@QEBAXQEBU?$__crt_report_hook_node@_W@@@Z 0000000180080780 f i libucrtd:dbgrpt.obj
 0001:0007f7b0       ??$?RV<lambda_48a95ab302c68b6787c202ce7b2428f2>@@AEAV<lambda_be7e00bcb36969a0670e3c91fd6c4917>@@V<lambda_95ad94005304955f3afd56db85f2c0f0>@@@?$__crt_seh_guarded_call@H@@QEAAH$$QEAV<lambda_48a95ab302c68b6787c202ce7b2428f2>@@AEAV<lambda_be7e00bcb36969a0670e3c91fd6c4917>@@$$QEAV<lambda_95ad94005304955f3afd56db85f2c0f0>@@@Z 00000001800807b0 f i libucrtd:dbgrpt.obj
 0001:0007f800       ??$?RV<lambda_af6322564f367be6e210c9b3b377439e>@@AEAV<lambda_ade3d750d30aed7d611b25c09e4cbaa9>@@V<lambda_f1c030d06c6692bdc9654ba3f7602b04>@@@?$__crt_seh_guarded_call@H@@QEAAH$$QEAV<lambda_af6322564f367be6e210c9b3b377439e>@@AEAV<lambda_ade3d750d30aed7d611b25c09e4cbaa9>@@$$QEAV<lambda_f1c030d06c6692bdc9654ba3f7602b04>@@@Z 0000000180080800 f i libucrtd:dbgrpt.obj
 0001:0007f850       ??$__acrt_lock_and_call@V<lambda_ade3d750d30aed7d611b25c09e4cbaa9>@@@@YAHW4__acrt_lock_id@@$$QEAV<lambda_ade3d750d30aed7d611b25c09e4cbaa9>@@@Z 0000000180080850 f i libucrtd:dbgrpt.obj
 0001:0007f8c0       ??$__acrt_lock_and_call@V<lambda_be7e00bcb36969a0670e3c91fd6c4917>@@@@YAHW4__acrt_lock_id@@$$QEAV<lambda_be7e00bcb36969a0670e3c91fd6c4917>@@@Z 00000001800808c0 f i libucrtd:dbgrpt.obj
 0001:0007f930       ??$__vcrt_va_start_verify_argument_type@QEBD@@YAXXZ 0000000180080930 f i libucrtd:dbgrpt.obj
 0001:0007f940       ??$__vcrt_va_start_verify_argument_type@QEB_W@@YAXXZ 0000000180080940 f i libucrtd:dbgrpt.obj
 0001:000809e0       ??$get_module_file_name@AEAPEAUHINSTANCE__@@AEAY0BAF@DK@?$__crt_char_traits@D@@SAKAEAPEAUHINSTANCE__@@AEAY0BAF@D$$QEAK@Z 00000001800819e0 f i libucrtd:dbgrpt.obj
 0001:00080a20       ??$get_module_file_name@AEAPEAUHINSTANCE__@@AEAY0BAF@_WK@?$__crt_char_traits@_W@@SAKAEAPEAUHINSTANCE__@@AEAY0BAF@_W$$QEAK@Z 0000000180081a20 f i libucrtd:dbgrpt.obj
 0001:00080a60       ??$tcscpy_s@AEAY0BAF@D_KPEBD@?$__crt_char_traits@D@@SAHAEAY0BAF@D$$QEA_K$$QEAPEBD@Z 0000000180081a60 f i libucrtd:dbgrpt.obj
 0001:00080aa0       ??$tcscpy_s@AEAY0BAF@_W_KPEB_W@?$__crt_char_traits@_W@@SAHAEAY0BAF@_W$$QEA_K$$QEAPEB_W@Z 0000000180081aa0 f i libucrtd:dbgrpt.obj
 0001:00080ae0       ??$tcslen@AEAY0BAF@D@?$__crt_char_traits@D@@SA_KAEAY0BAF@D@Z 0000000180081ae0 f i libucrtd:dbgrpt.obj
 0001:00080b00       ??$tcslen@AEAY0BAF@_W@?$__crt_char_traits@_W@@SA_KAEAY0BAF@_W@Z 0000000180081b00 f i libucrtd:dbgrpt.obj
 0001:00080b20       ??$tcslen@AEBQEBD@?$__crt_char_traits@D@@SA_KAEBQEBD@Z 0000000180081b20 f i libucrtd:dbgrpt.obj
 0001:00080b40       ??$tcslen@AEBQEB_W@?$__crt_char_traits@_W@@SA_KAEBQEB_W@Z 0000000180081b40 f i libucrtd:dbgrpt.obj
 0001:00080c40       ??0?$__crt_unique_heap_ptr@U?$__crt_report_hook_node@D@@U__crt_internal_free_policy@@@@QEAA@QEAU?$__crt_report_hook_node@D@@@Z 0000000180081c40 f i libucrtd:dbgrpt.obj
 0001:00080c60       ??0?$__crt_unique_heap_ptr@U?$__crt_report_hook_node@_W@@U__crt_internal_free_policy@@@@QEAA@QEAU?$__crt_report_hook_node@_W@@@Z 0000000180081c60 f i libucrtd:dbgrpt.obj
 0001:00080c80       ??1?$__crt_unique_heap_ptr@U?$__crt_report_hook_node@D@@U__crt_internal_free_policy@@@@QEAA@XZ 0000000180081c80 f i libucrtd:dbgrpt.obj
 0001:00080ca0       ??1?$__crt_unique_heap_ptr@U?$__crt_report_hook_node@_W@@U__crt_internal_free_policy@@@@QEAA@XZ 0000000180081ca0 f i libucrtd:dbgrpt.obj
 0001:00080cc0       ??B?$__crt_unique_heap_ptr@U?$__crt_report_hook_node@D@@U__crt_internal_free_policy@@@@QEBA_NXZ 0000000180081cc0 f i libucrtd:dbgrpt.obj
 0001:00080ce0       ??B?$__crt_unique_heap_ptr@U?$__crt_report_hook_node@_W@@U__crt_internal_free_policy@@@@QEBA_NXZ 0000000180081ce0 f i libucrtd:dbgrpt.obj
 0001:000813c0       ?detach@?$__crt_unique_heap_ptr@U?$__crt_report_hook_node@D@@U__crt_internal_free_policy@@@@QEAAPEAU?$__crt_report_hook_node@D@@XZ 00000001800823c0 f i libucrtd:dbgrpt.obj
 0001:000813f0       ?detach@?$__crt_unique_heap_ptr@U?$__crt_report_hook_node@_W@@U__crt_internal_free_policy@@@@QEAAPEAU?$__crt_report_hook_node@_W@@XZ 00000001800823f0 f i libucrtd:dbgrpt.obj
 0001:00081420       ?get@?$__crt_unique_heap_ptr@U?$__crt_report_hook_node@D@@U__crt_internal_free_policy@@@@QEBAPEAU?$__crt_report_hook_node@D@@XZ 0000000180082420 f i libucrtd:dbgrpt.obj
 0001:00081430       ?get@?$__crt_unique_heap_ptr@U?$__crt_report_hook_node@_W@@U__crt_internal_free_policy@@@@QEBAPEAU?$__crt_report_hook_node@_W@@XZ 0000000180082430 f i libucrtd:dbgrpt.obj
 0001:000814a0       ?is_valid@?$__crt_unique_heap_ptr@U?$__crt_report_hook_node@D@@U__crt_internal_free_policy@@@@QEBA_NXZ 00000001800824a0 f i libucrtd:dbgrpt.obj
 0001:000814d0       ?is_valid@?$__crt_unique_heap_ptr@U?$__crt_report_hook_node@_W@@U__crt_internal_free_policy@@@@QEBA_NXZ 00000001800824d0 f i libucrtd:dbgrpt.obj
 0001:00081500       ?release@?$__crt_unique_heap_ptr@U?$__crt_report_hook_node@D@@U__crt_internal_free_policy@@@@QEAAXXZ 0000000180082500 f i libucrtd:dbgrpt.obj
 0001:00081540       ?release@?$__crt_unique_heap_ptr@U?$__crt_report_hook_node@_W@@U__crt_internal_free_policy@@@@QEAAXXZ 0000000180082540 f i libucrtd:dbgrpt.obj
 0001:00081580       _CrtDbgReport              0000000180082580 f   libucrtd:dbgrpt.obj
 0001:00081600       _CrtDbgReportW             0000000180082600 f   libucrtd:dbgrpt.obj
 0001:00081680       _CrtSetReportHook2         0000000180082680 f   libucrtd:dbgrpt.obj
 0001:000816a0       _CrtSetReportHookW2        00000001800826a0 f   libucrtd:dbgrpt.obj
 0001:000816c0       __acrt_MessageWindowA      00000001800826c0 f   libucrtd:dbgrpt.obj
 0001:00081710       __acrt_MessageWindowW      0000000180082710 f   libucrtd:dbgrpt.obj
 0001:00081760       _invoke_watson_if_error    0000000180082760 f i libucrtd:dbgrpt.obj
 0001:000817b0       _invoke_watson_if_oneof    00000001800827b0 f i libucrtd:dbgrpt.obj
 0001:00081810       _snwprintf_s               0000000180082810 f i libucrtd:dbgrpt.obj
 0001:00081880       _vsnwprintf_s_l            0000000180082880 f i libucrtd:dbgrpt.obj
 0001:00081de0       wcscpy_s                   0000000180082de0 f   libucrtd:wcscpy_s.obj
 0001:00081e10       wcslen                     0000000180082e10 f   libucrtd:wcslen.obj
 0001:00081e60       ??$__crt_fast_decode_pointer@P6AXPEB_W00I_K@Z@@YAP6AXPEB_W00I_K@ZQ6AX000I1@Z@Z 0000000180082e60 f i libucrtd:invalid_parameter.obj
 0001:00081ea0       ??$__crt_fast_encode_pointer@P6AXPEB_W00I_K@Z@@YAP6AXPEB_W00I_K@ZQ6AX000I1@Z@Z 0000000180082ea0 f i libucrtd:invalid_parameter.obj
 0001:00081f80       ?get_current_state_index@__crt_state_management@@YA_KXZ 0000000180082f80 f i libucrtd:invalid_parameter.obj
 0001:00081f90       ?initialize@?$dual_state_global@P6AXPEB_W00I_K@Z@__crt_state_management@@QEAAXQ6AXPEB_W00I_K@Z@Z 0000000180082f90 f i libucrtd:invalid_parameter.obj
 0001:00081fe0       ?value@?$dual_state_global@P6AXPEB_W00I_K@Z@__crt_state_management@@QEAAAEAP6AXPEB_W00I_K@ZXZ 0000000180082fe0 f i libucrtd:invalid_parameter.obj
 0001:00082000       __acrt_call_reportfault    0000000180083000 f   libucrtd:invalid_parameter.obj
 0001:00082130       __acrt_initialize_invalid_parameter_handler 0000000180083130 f   libucrtd:invalid_parameter.obj
 0001:00082150       _get_invalid_parameter_handler 0000000180083150 f   libucrtd:invalid_parameter.obj
 0001:00082170       _get_thread_local_invalid_parameter_handler 0000000180083170 f   libucrtd:invalid_parameter.obj
 0001:000821a0       _invalid_parameter         00000001800831a0 f   libucrtd:invalid_parameter.obj
 0001:000822b0       _invalid_parameter_noinfo  00000001800832b0 f   libucrtd:invalid_parameter.obj
 0001:000822e0       _invalid_parameter_noinfo_noreturn 00000001800832e0 f   libucrtd:invalid_parameter.obj
 0001:00082320       _invoke_watson             0000000180083320 f   libucrtd:invalid_parameter.obj
 0001:00082380       _set_invalid_parameter_handler 0000000180083380 f   libucrtd:invalid_parameter.obj
 0001:000823d0       _set_thread_local_invalid_parameter_handler 00000001800833d0 f   libucrtd:invalid_parameter.obj
 0001:00082410       __acrt_errno_from_os_error 0000000180083410 f   libucrtd:errno.obj
 0001:000824a0       __acrt_errno_map_os_error  00000001800834a0 f   libucrtd:errno.obj
 0001:000824d0       __doserrno                 00000001800834d0 f   libucrtd:errno.obj
 0001:00082500       _errno                     0000000180083500 f   libucrtd:errno.obj
 0001:00082530       _get_doserrno              0000000180083530 f   libucrtd:errno.obj
 0001:000825f0       _get_errno                 00000001800835f0 f   libucrtd:errno.obj
 0001:000826b0       _set_doserrno              00000001800836b0 f   libucrtd:errno.obj
 0001:000826f0       _set_errno                 00000001800836f0 f   libucrtd:errno.obj
 0001:00082730       calloc                     0000000180083730 f   libucrtd:calloc.obj
 0001:00082770       _recalloc                  0000000180083770 f   libucrtd:recalloc.obj
 0001:000827c0       _recalloc_base             00000001800837c0 f   libucrtd:recalloc.obj
 0001:0008289c       _resetstkoflw              000000018008389c f   libucrtd:resetstk.obj
 0001:00083040       wcscat_s                   0000000180084040 f   libucrtd:wcscat_s.obj
 0001:00083700       wcsncpy_s                  0000000180084700 f   libucrtd:wcsncpy_s.obj
 0001:00083760       __acrt_get_locale_data_prefix 0000000180084760 f i libucrtd:_ctype.obj
 0001:00083780       __isascii                  0000000180084780 f i libucrtd:_ctype.obj
 0001:000837b0       __iscsym                   00000001800847b0 f i libucrtd:_ctype.obj
 0001:000837f0       __iscsymf                  00000001800847f0 f i libucrtd:_ctype.obj
 0001:00083830       __toascii                  0000000180084830 f i libucrtd:_ctype.obj
 0001:00083840       _chvalidchk_l              0000000180084840 f i libucrtd:_ctype.obj
 0001:00083870       _isalnum_l                 0000000180084870 f i libucrtd:_ctype.obj
 0001:000838c0       _isalpha_l                 00000001800848c0 f i libucrtd:_ctype.obj
 0001:00083910       _isblank_l                 0000000180084910 f i libucrtd:_ctype.obj
 0001:00083980       _ischartype_l              0000000180084980 f i libucrtd:_ctype.obj
 0001:000839e0       _iscntrl_l                 00000001800849e0 f i libucrtd:_ctype.obj
 0001:00083a30       _iscsym_l                  0000000180084a30 f i libucrtd:_ctype.obj
 0001:00083a80       _iscsymf_l                 0000000180084a80 f i libucrtd:_ctype.obj
 0001:00083ad0       _isdigit_l                 0000000180084ad0 f i libucrtd:_ctype.obj
 0001:00083b20       _isgraph_l                 0000000180084b20 f i libucrtd:_ctype.obj
 0001:00083b70       _islower_l                 0000000180084b70 f i libucrtd:_ctype.obj
 0001:00083bc0       _isprint_l                 0000000180084bc0 f i libucrtd:_ctype.obj
 0001:00083c10       _ispunct_l                 0000000180084c10 f i libucrtd:_ctype.obj
 0001:00083c60       _isspace_l                 0000000180084c60 f i libucrtd:_ctype.obj
 0001:00083cb0       _isupper_l                 0000000180084cb0 f i libucrtd:_ctype.obj
 0001:00083d00       _isxdigit_l                0000000180084d00 f i libucrtd:_ctype.obj
 0001:00083d50       isalnum                    0000000180084d50 f i libucrtd:_ctype.obj
 0001:00083d90       isalpha                    0000000180084d90 f i libucrtd:_ctype.obj
 0001:00083dd0       isblank                    0000000180084dd0 f i libucrtd:_ctype.obj
 0001:00083e30       iscntrl                    0000000180084e30 f i libucrtd:_ctype.obj
 0001:00083e70       isdigit                    0000000180084e70 f i libucrtd:_ctype.obj
 0001:00083eb0       isgraph                    0000000180084eb0 f i libucrtd:_ctype.obj
 0001:00083ef0       islower                    0000000180084ef0 f i libucrtd:_ctype.obj
 0001:00083f30       isprint                    0000000180084f30 f i libucrtd:_ctype.obj
 0001:00083f70       ispunct                    0000000180084f70 f i libucrtd:_ctype.obj
 0001:00083fb0       isspace                    0000000180084fb0 f i libucrtd:_ctype.obj
 0001:00083ff0       isupper                    0000000180084ff0 f i libucrtd:_ctype.obj
 0001:00084030       isxdigit                   0000000180085030 f i libucrtd:_ctype.obj
 0001:00084070       wcscat                     0000000180085070 f   libucrtd:wcscat.obj
 0001:000840f0       wcscpy                     00000001800850f0 f   libucrtd:wcscpy.obj
 0001:000848a0       ??$open_file@AEBQEBDAEBQEBDAEBHPEAU_iobuf@@@?$__crt_char_traits@D@@SAPEAU_iobuf@@AEBQEBD0AEBH$$QEAPEAU1@@Z 00000001800858a0 f i libucrtd:fopen.obj
 0001:000848f0       ??$open_file@AEBQEB_WAEBQEB_WAEBHPEAU_iobuf@@@?$__crt_char_traits@_W@@SAPEAU_iobuf@@AEBQEB_W0AEBH$$QEAPEAU1@@Z 00000001800858f0 f i libucrtd:fopen.obj
 0001:00084940       ?unlock@__crt_stdio_stream@@QEBAXXZ 0000000180085940 f i libucrtd:fopen.obj
 0001:00084960       _fsopen                    0000000180085960 f   libucrtd:fopen.obj
 0001:00084990       _wfopen                    0000000180085990 f   libucrtd:fopen.obj
 0001:000849c0       _wfopen_s                  00000001800859c0 f   libucrtd:fopen.obj
 0001:000849f0       _wfsopen                   00000001800859f0 f   libucrtd:fopen.obj
 0001:00084a20       fopen                      0000000180085a20 f   libucrtd:fopen.obj
 0001:00084a50       fopen_s                    0000000180085a50 f   libucrtd:fopen.obj
 0001:00084a80       ?is_in_use@__crt_stdio_stream@@QEBA_NXZ 0000000180085a80 f i libucrtd:fclose.obj
 0001:00084ac0       _fclose_nolock             0000000180085ac0 f   libucrtd:fclose.obj
 0001:00084c50       fclose                     0000000180085c50 f   libucrtd:fclose.obj
 0001:00084d90       _fputc_nolock              0000000180085d90 f   libucrtd:fputc.obj
 0001:00084e40       _fputchar                  0000000180085e40 f   libucrtd:fputc.obj
 0001:00084e70       _putc_nolock               0000000180085e70 f   libucrtd:fputc.obj
 0001:00084e90       fputc                      0000000180085e90 f   libucrtd:fputc.obj
 0001:00085130       putc                       0000000180086130 f   libucrtd:fputc.obj
 0001:00085150       putchar                    0000000180086150 f   libucrtd:fputc.obj
 0001:000851e0       _seh_filter_dll            00000001800861e0 f   libucrtd:exception_filter.obj
 0001:00085210       _seh_filter_exe            0000000180086210 f   libucrtd:exception_filter.obj
 0001:000854c0       ??$?B$$A6AXPEAXK0@Z@__crt_fast_encoded_nullptr_t@@QEBAP6AXPEAXK0@ZXZ 00000001800864c0 f i libucrtd:exit.obj
 0001:000854e0       ??$__crt_fast_decode_pointer@P6AXPEAXK0@Z@@YAP6AXPEAXK0@ZQ6AX0K0@Z@Z 00000001800864e0 f i libucrtd:exit.obj
 0001:00085520       ??$__crt_fast_encode_pointer@P6AXPEAXK0@Z@@YAP6AXPEAXK0@ZQ6AX0K0@Z@Z 0000000180086520 f i libucrtd:exit.obj
 0001:00085560       ??$__crt_get_proc_address@P6AXI@Z@@YAP6AXI@ZQEAUHINSTANCE__@@QEBD@Z 0000000180086560 f i libucrtd:exit.obj
 0001:00085590       ??0?$__crt_unique_handle_t@U__crt_hmodule_traits@@@@QEAA@QEAUHINSTANCE__@@@Z 0000000180086590 f i libucrtd:exit.obj
 0001:000855b0       ??1?$__crt_unique_handle_t@U__crt_hmodule_traits@@@@QEAA@XZ 00000001800865b0 f i libucrtd:exit.obj
 0001:000855f0       ?close@?$__crt_unique_handle_t@U__crt_hmodule_traits@@@@QEAAXXZ 00000001800865f0 f i libucrtd:exit.obj
 0001:00085630       ?close@__crt_hmodule_traits@@SA_NPEAUHINSTANCE__@@@Z 0000000180086630 f i libucrtd:exit.obj
 0001:00085800       ?get@?$__crt_unique_handle_t@U__crt_hmodule_traits@@@@QEBAPEAUHINSTANCE__@@XZ 0000000180086800 f i libucrtd:exit.obj
 0001:00085810       ?get_address_of@?$__crt_unique_handle_t@U__crt_hmodule_traits@@@@QEAAPEAPEAUHINSTANCE__@@XZ 0000000180086810 f i libucrtd:exit.obj
 0001:00085820       ?get_invalid_value@__crt_hmodule_traits@@SAPEAUHINSTANCE__@@XZ 0000000180086820 f i libucrtd:exit.obj
 0001:000859f0       _Exit                      00000001800869f0 f   libucrtd:exit.obj
 0001:00085a10       __acrt_initialize_thread_local_exit_callback 0000000180086a10 f   libucrtd:exit.obj
 0001:00085a30       _c_exit                    0000000180086a30 f   libucrtd:exit.obj
 0001:00085a50       _cexit                     0000000180086a50 f   libucrtd:exit.obj
 0001:00085a70       _exit                      0000000180086a70 f   libucrtd:exit.obj
 0001:00085a90       _is_c_termination_complete 0000000180086a90 f   libucrtd:exit.obj
 0001:00085ab0       _register_thread_local_exe_atexit_callback 0000000180086ab0 f   libucrtd:exit.obj
 0001:00085b00       exit                       0000000180086b00 f   libucrtd:exit.obj
 0001:00085b20       quick_exit                 0000000180086b20 f   libucrtd:exit.obj
 0001:00085b40       ??$?RE@__crt_internal_free_policy@@QEBAXQEBE@Z 0000000180086b40 f i libucrtd:argv_parsing.obj
 0001:00085b70       ??$?RPEAD@__crt_internal_free_policy@@QEBAXQEBQEAD@Z 0000000180086b70 f i libucrtd:argv_parsing.obj
 0001:00085ba0       ??$?RPEA_W@__crt_internal_free_policy@@QEBAXQEBQEA_W@Z 0000000180086ba0 f i libucrtd:argv_parsing.obj
 0001:000862d0       ??$get_module_file_name@$$TAEAY0BAF@DH@?$__crt_char_traits@D@@SAK$$QEA$$TAEAY0BAF@D$$QEAH@Z 00000001800872d0 f i libucrtd:argv_parsing.obj
 0001:00086310       ??$get_module_file_name@$$TAEAY0BAF@_WH@?$__crt_char_traits@_W@@SAK$$QEA$$TAEAY0BAF@_W$$QEAH@Z 0000000180087310 f i libucrtd:argv_parsing.obj
 0001:00086cc0       ??$set_program_name@PEAD@?$__crt_char_traits@D@@SAX$$QEAPEAD@Z 0000000180087cc0 f i libucrtd:argv_parsing.obj
 0001:00086ce0       ??$set_program_name@PEA_W@?$__crt_char_traits@_W@@SAX$$QEAPEA_W@Z 0000000180087ce0 f i libucrtd:argv_parsing.obj
 0001:00086d40       ??0?$__crt_unique_heap_ptr@EU__crt_internal_free_policy@@@@QEAA@QEAE@Z 0000000180087d40 f i libucrtd:argv_parsing.obj
 0001:00086d60       ??0?$__crt_unique_heap_ptr@PEADU__crt_internal_free_policy@@@@QEAA@QEAPEAD@Z 0000000180087d60 f i libucrtd:argv_parsing.obj
 0001:00086d80       ??0?$__crt_unique_heap_ptr@PEA_WU__crt_internal_free_policy@@@@QEAA@QEAPEA_W@Z 0000000180087d80 f i libucrtd:argv_parsing.obj
 0001:00086da0       ??1?$__crt_unique_heap_ptr@EU__crt_internal_free_policy@@@@QEAA@XZ 0000000180087da0 f i libucrtd:argv_parsing.obj
 0001:00086dc0       ??1?$__crt_unique_heap_ptr@PEADU__crt_internal_free_policy@@@@QEAA@XZ 0000000180087dc0 f i libucrtd:argv_parsing.obj
 0001:00086de0       ??1?$__crt_unique_heap_ptr@PEA_WU__crt_internal_free_policy@@@@QEAA@XZ 0000000180087de0 f i libucrtd:argv_parsing.obj
 0001:00086e00       ??B?$__crt_unique_heap_ptr@EU__crt_internal_free_policy@@@@QEBA_NXZ 0000000180087e00 f i libucrtd:argv_parsing.obj
 0001:00086ee0       ?detach@?$__crt_unique_heap_ptr@EU__crt_internal_free_policy@@@@QEAAPEAEXZ 0000000180087ee0 f i libucrtd:argv_parsing.obj
 0001:00086f10       ?detach@?$__crt_unique_heap_ptr@PEADU__crt_internal_free_policy@@@@QEAAPEAPEADXZ 0000000180087f10 f i libucrtd:argv_parsing.obj
 0001:00086f40       ?detach@?$__crt_unique_heap_ptr@PEA_WU__crt_internal_free_policy@@@@QEAAPEAPEA_WXZ 0000000180087f40 f i libucrtd:argv_parsing.obj
 0001:00087000       ?get@?$__crt_unique_heap_ptr@EU__crt_internal_free_policy@@@@QEBAPEAEXZ 0000000180088000 f i libucrtd:argv_parsing.obj
 0001:00087010       ?get@?$__crt_unique_heap_ptr@PEADU__crt_internal_free_policy@@@@QEBAPEAPEADXZ 0000000180088010 f i libucrtd:argv_parsing.obj
 0001:00087020       ?get@?$__crt_unique_heap_ptr@PEA_WU__crt_internal_free_policy@@@@QEBAPEAPEA_WXZ 0000000180088020 f i libucrtd:argv_parsing.obj
 0001:00087030       ?get_address_of@?$__crt_unique_heap_ptr@PEADU__crt_internal_free_policy@@@@QEAAPEAPEAPEADXZ 0000000180088030 f i libucrtd:argv_parsing.obj
 0001:00087040       ?get_address_of@?$__crt_unique_heap_ptr@PEA_WU__crt_internal_free_policy@@@@QEAAPEAPEAPEA_WXZ 0000000180088040 f i libucrtd:argv_parsing.obj
 0001:00087090       ?is_valid@?$__crt_unique_heap_ptr@EU__crt_internal_free_policy@@@@QEBA_NXZ 0000000180088090 f i libucrtd:argv_parsing.obj
 0001:000870c0       ?release@?$__crt_unique_heap_ptr@EU__crt_internal_free_policy@@@@QEAAXXZ 00000001800880c0 f i libucrtd:argv_parsing.obj
 0001:00087100       ?release@?$__crt_unique_heap_ptr@PEADU__crt_internal_free_policy@@@@QEAAXXZ 0000000180088100 f i libucrtd:argv_parsing.obj
 0001:00087140       ?release@?$__crt_unique_heap_ptr@PEA_WU__crt_internal_free_policy@@@@QEAAXXZ 0000000180088140 f i libucrtd:argv_parsing.obj
 0001:000871d0       __acrt_allocate_buffer_for_argv 00000001800881d0 f   libucrtd:argv_parsing.obj
 0001:000872f0       _configure_narrow_argv     00000001800882f0 f   libucrtd:argv_parsing.obj
 0001:00087310       _configure_wide_argv       0000000180088310 f   libucrtd:argv_parsing.obj
 0001:00087330       _set_pgmptr                0000000180088330 f i libucrtd:argv_parsing.obj
 0001:00087350       _set_wpgmptr               0000000180088350 f i libucrtd:argv_parsing.obj
 0001:00087364       ??$?R_W@__crt_internal_free_policy@@QEBAXQEB_W@Z 0000000180088364 f i libucrtd:environment_initialization.obj
 0001:000878c8       ??$get_environment_from_os@$$$V@?$__crt_char_traits@D@@SAPEADXZ 00000001800888c8 f i libucrtd:environment_initialization.obj
 0001:000878d0       ??$get_environment_from_os@$$$V@?$__crt_char_traits@_W@@SAPEA_WXZ 00000001800888d0 f i libucrtd:environment_initialization.obj
 0001:00087aa0       ??$set_variable_in_environment_nolock@PEADH@?$__crt_char_traits@D@@SAH$$QEAPEAD$$QEAH@Z 0000000180088aa0 f i libucrtd:environment_initialization.obj
 0001:00087aac       ??$set_variable_in_environment_nolock@PEA_WH@?$__crt_char_traits@_W@@SAH$$QEAPEA_W$$QEAH@Z 0000000180088aac f i libucrtd:environment_initialization.obj
 0001:00087ab8       ??$tcscpy_s@PEADAEB_KAEAPEAD@?$__crt_char_traits@D@@SAH$$QEAPEADAEB_KAEAPEAD@Z 0000000180088ab8 f i libucrtd:environment_initialization.obj
 0001:00087ac8       ??$tcscpy_s@PEA_WAEB_KAEAPEA_W@?$__crt_char_traits@_W@@SAH$$QEAPEA_WAEB_KAEAPEA_W@Z 0000000180088ac8 f i libucrtd:environment_initialization.obj
 0001:00087ad8       ??$tcslen@AEAPEAD@?$__crt_char_traits@D@@SA_KAEAPEAD@Z 0000000180088ad8 f i libucrtd:environment_initialization.obj
 0001:00087aec       ??$tcslen@AEAPEA_W@?$__crt_char_traits@_W@@SA_KAEAPEA_W@Z 0000000180088aec f i libucrtd:environment_initialization.obj
 0001:00087b00       ??$uninitialize@A6AXAEAPEAPEAD@Z@?$dual_state_global@PEAPEAD@__crt_state_management@@QEAAXA6AXAEAPEAPEAD@Z@Z 0000000180088b00 f i libucrtd:environment_initialization.obj
 0001:00087b48       ??$uninitialize@A6AXAEAPEAPEA_W@Z@?$dual_state_global@PEAPEA_W@__crt_state_management@@QEAAXA6AXAEAPEAPEA_W@Z@Z 0000000180088b48 f i libucrtd:environment_initialization.obj
 0001:00087bc8       ??0?$__crt_unique_heap_ptr@_WU__crt_internal_free_policy@@@@QEAA@QEA_W@Z 0000000180088bc8 f i libucrtd:environment_initialization.obj
 0001:00087bd0       ??1?$__crt_unique_heap_ptr@_WU__crt_internal_free_policy@@@@QEAA@XZ 0000000180088bd0 f i libucrtd:environment_initialization.obj
 0001:00087bf0       ??B?$__crt_unique_heap_ptr@PEADU__crt_internal_free_policy@@@@QEBA_NXZ 0000000180088bf0 f i libucrtd:environment_initialization.obj
 0001:00087bfc       ??B?$__crt_unique_heap_ptr@PEA_WU__crt_internal_free_policy@@@@QEBA_NXZ 0000000180088bfc f i libucrtd:environment_initialization.obj
 0001:00087c08       ??B?$__crt_unique_heap_ptr@_WU__crt_internal_free_policy@@@@QEBA_NXZ 0000000180088c08 f i libucrtd:environment_initialization.obj
 0001:00087c14       ?__crt_compute_required_transform_buffer_count@@YA_KIQEBD@Z 0000000180088c14 f i libucrtd:environment_initialization.obj
 0001:00087c3c       ?__crt_compute_required_transform_buffer_count@@YA_KIQEB_W@Z 0000000180088c3c f i libucrtd:environment_initialization.obj
 0001:00087c6c       ?__crt_transform_string@@YA_KIQEBDQEA_W_K@Z 0000000180088c6c f i libucrtd:environment_initialization.obj
 0001:00087c90       ?__crt_transform_string@@YA_KIQEB_WQEAD_K@Z 0000000180088c90 f i libucrtd:environment_initialization.obj
 0001:00087cc0       ?detach@?$__crt_unique_heap_ptr@DU__crt_internal_free_policy@@@@QEAAPEADXZ 0000000180088cc0 f i libucrtd:environment_initialization.obj
 0001:00087cc8       ?detach@?$__crt_unique_heap_ptr@_WU__crt_internal_free_policy@@@@QEAAPEA_WXZ 0000000180088cc8 f i libucrtd:environment_initialization.obj
 0001:00087cd0       ?get@?$__crt_unique_heap_ptr@_WU__crt_internal_free_policy@@@@QEBAPEA_WXZ 0000000180088cd0 f i libucrtd:environment_initialization.obj
 0001:00087d04       ?initialize@?$dual_state_global@PEAPEAD@__crt_state_management@@QEAAXQEAPEAD@Z 0000000180088d04 f i libucrtd:environment_initialization.obj
 0001:00087d38       ?initialize@?$dual_state_global@PEAPEA_W@__crt_state_management@@QEAAXQEAPEA_W@Z 0000000180088d38 f i libucrtd:environment_initialization.obj
 0001:00087d6c       ?is_valid@?$__crt_unique_heap_ptr@PEADU__crt_internal_free_policy@@@@QEBA_NXZ 0000000180088d6c f i libucrtd:environment_initialization.obj
 0001:00087d78       ?is_valid@?$__crt_unique_heap_ptr@PEA_WU__crt_internal_free_policy@@@@QEBA_NXZ 0000000180088d78 f i libucrtd:environment_initialization.obj
 0001:00087d84       ?is_valid@?$__crt_unique_heap_ptr@_WU__crt_internal_free_policy@@@@QEBA_NXZ 0000000180088d84 f i libucrtd:environment_initialization.obj
 0001:00087d9c       ?release@?$__crt_unique_heap_ptr@_WU__crt_internal_free_policy@@@@QEAAXXZ 0000000180088d9c f i libucrtd:environment_initialization.obj
 0001:00087dbc       ?value@?$dual_state_global@PEAPEAD@__crt_state_management@@QEAAAEAPEAPEADXZ 0000000180088dbc f i libucrtd:environment_initialization.obj
 0001:00087dc0       ?value@?$dual_state_global@PEAPEA_W@__crt_state_management@@QEAAAEAPEAPEA_WXZ 0000000180088dc0 f i libucrtd:environment_initialization.obj
 0001:00087dc4       __dcrt_get_or_create_narrow_environment_nolock 0000000180088dc4 f   libucrtd:environment_initialization.obj
 0001:00087dcc       __dcrt_get_or_create_wide_environment_nolock 0000000180088dcc f   libucrtd:environment_initialization.obj
 0001:00087dd4       __dcrt_uninitialize_environments_nolock 0000000180088dd4 f   libucrtd:environment_initialization.obj
 0001:00087e0c       __p__environ               0000000180088e0c f   libucrtd:environment_initialization.obj
 0001:00087e14       __p__wenviron              0000000180088e14 f   libucrtd:environment_initialization.obj
 0001:00087e1c       _get_initial_narrow_environment 0000000180088e1c f   libucrtd:environment_initialization.obj
 0001:00087e40       _get_initial_wide_environment 0000000180088e40 f   libucrtd:environment_initialization.obj
 0001:00087e64       _initialize_narrow_environment 0000000180088e64 f   libucrtd:environment_initialization.obj
 0001:00087e6c       _initialize_wide_environment 0000000180088e6c f   libucrtd:environment_initialization.obj
 0001:00087e80       ??$?BP6AXXZ@__crt_fast_encoded_nullptr_t@@QEBAPEAP6AXXZXZ 0000000180088e80 f i libucrtd:onexit.obj
 0001:00087ea0       ??$?RP6AXXZ@__crt_internal_free_policy@@QEBAXQEBQ6AXXZ@Z 0000000180088ea0 f i libucrtd:onexit.obj
 0001:00087ed0       ??$?RV<lambda_b0d8f1f77f5878de4f648f281b223c15>@@AEAV<lambda_942beefa13ab35ff55f86422493ffd6a>@@V<lambda_7adb6fc9c0d6a5bd4e2d9c212ec7cdcc>@@@?$__crt_seh_guarded_call@H@@QEAAH$$QEAV<lambda_b0d8f1f77f5878de4f648f281b223c15>@@AEAV<lambda_942beefa13ab35ff55f86422493ffd6a>@@$$QEAV<lambda_7adb6fc9c0d6a5bd4e2d9c212ec7cdcc>@@@Z 0000000180088ed0 f i libucrtd:onexit.obj
 0001:00087f20       ??$?RV<lambda_d22e02de4d14401f49897516b29a2b7c>@@AEAV<lambda_e971338317bfa523bb8920b43d823727>@@V<lambda_b0b8599c9027f5b14541fbbd6863d1f1>@@@?$__crt_seh_guarded_call@H@@QEAAH$$QEAV<lambda_d22e02de4d14401f49897516b29a2b7c>@@AEAV<lambda_e971338317bfa523bb8920b43d823727>@@$$QEAV<lambda_b0b8599c9027f5b14541fbbd6863d1f1>@@@Z 0000000180088f20 f i libucrtd:onexit.obj
 0001:00087f70       ??$__acrt_lock_and_call@V<lambda_942beefa13ab35ff55f86422493ffd6a>@@@@YAHW4__acrt_lock_id@@$$QEAV<lambda_942beefa13ab35ff55f86422493ffd6a>@@@Z 0000000180088f70 f i libucrtd:onexit.obj
 0001:00087fe0       ??$__acrt_lock_and_call@V<lambda_e971338317bfa523bb8920b43d823727>@@@@YAHW4__acrt_lock_id@@$$QEAV<lambda_e971338317bfa523bb8920b43d823727>@@@Z 0000000180088fe0 f i libucrtd:onexit.obj
 0001:00088050       ??$__crt_fast_encode_pointer@P6AHXZ@@YAP6AHXZQ6AHXZ@Z 0000000180089050 f i libucrtd:onexit.obj
 0001:00088160       ??0?$__crt_unique_heap_ptr@P6AXXZU__crt_internal_free_policy@@@@QEAA@QEAP6AXXZ@Z 0000000180089160 f i libucrtd:onexit.obj
 0001:00088180       ??1?$__crt_unique_heap_ptr@P6AXXZU__crt_internal_free_policy@@@@QEAA@XZ 0000000180089180 f i libucrtd:onexit.obj
 0001:00088750       ?detach@?$__crt_unique_heap_ptr@P6AXXZU__crt_internal_free_policy@@@@QEAAPEAP6AXXZXZ 0000000180089750 f i libucrtd:onexit.obj
 0001:00088780       ?release@?$__crt_unique_heap_ptr@P6AXXZU__crt_internal_free_policy@@@@QEAAXXZ 0000000180089780 f i libucrtd:onexit.obj
 0001:000887c0       _crt_at_quick_exit         00000001800897c0 f   libucrtd:onexit.obj
 0001:000887e0       _crt_atexit                00000001800897e0 f   libucrtd:onexit.obj
 0001:00088800       _execute_onexit_table      0000000180089800 f   libucrtd:onexit.obj
 0001:00088830       _initialize_onexit_table   0000000180089830 f   libucrtd:onexit.obj
 0001:000888b0       _register_onexit_function  00000001800898b0 f   libucrtd:onexit.obj
 0001:00088b30       ?initialize@?$dual_state_global@PEAU__crt_locale_data@@@__crt_state_management@@QEAAXQEAU__crt_locale_data@@@Z 0000000180089b30 f i libucrtd:initialization.obj
 0001:00088b80       __acrt_initialize          0000000180089b80 f   libucrtd:initialization.obj
 0001:00088bb0       __acrt_thread_attach       0000000180089bb0 f   libucrtd:initialization.obj
 0001:00088bd0       __acrt_thread_detach       0000000180089bd0 f   libucrtd:initialization.obj
 0001:00088be0       __acrt_uninitialize        0000000180089be0 f   libucrtd:initialization.obj
 0001:00088c10       __acrt_uninitialize_critical 0000000180089c10 f   libucrtd:initialization.obj
 0001:0008ac10       _CrtCheckMemory            000000018008bc10 f   libucrtd:debug_heap.obj
 0001:0008ada0       _CrtDoForAllClientObjects  000000018008bda0 f   libucrtd:debug_heap.obj
 0001:0008aee0       _CrtDumpMemoryLeaks        000000018008bee0 f   libucrtd:debug_heap.obj
 0001:0008afa0       _CrtGetAllocHook           000000018008bfa0 f   libucrtd:debug_heap.obj
 0001:0008afb0       _CrtGetDumpClient          000000018008bfb0 f   libucrtd:debug_heap.obj
 0001:0008afc0       _CrtIsMemoryBlock          000000018008bfc0 f   libucrtd:debug_heap.obj
 0001:0008b100       _CrtIsValidHeapPointer     000000018008c100 f   libucrtd:debug_heap.obj
 0001:0008b140       _CrtIsValidPointer         000000018008c140 f   libucrtd:debug_heap.obj
 0001:0008b180       _CrtMemCheckpoint          000000018008c180 f   libucrtd:debug_heap.obj
 0001:0008b400       _CrtMemDifference          000000018008c400 f   libucrtd:debug_heap.obj
 0001:0008b760       _CrtMemDumpAllObjectsSince 000000018008c760 f   libucrtd:debug_heap.obj
 0001:0008b7c0       _CrtMemDumpStatistics      000000018008c7c0 f   libucrtd:debug_heap.obj
 0001:0008b950       _CrtReportBlockType        000000018008c950 f   libucrtd:debug_heap.obj
 0001:0008b980       _CrtSetAllocHook           000000018008c980 f   libucrtd:debug_heap.obj
 0001:0008b9b0       _CrtSetBreakAlloc          000000018008c9b0 f   libucrtd:debug_heap.obj
 0001:0008b9e0       _CrtSetDbgBlockType        000000018008c9e0 f   libucrtd:debug_heap.obj
 0001:0008ba80       _CrtSetDbgFlag             000000018008ca80 f   libucrtd:debug_heap.obj
 0001:0008bbe0       _CrtSetDumpClient          000000018008cbe0 f   libucrtd:debug_heap.obj
 0001:0008bc10       __p__crtBreakAlloc         000000018008cc10 f   libucrtd:debug_heap.obj
 0001:0008bc20       __p__crtDbgFlag            000000018008cc20 f   libucrtd:debug_heap.obj
 0001:0008bc30       _aligned_free_dbg          000000018008cc30 f   libucrtd:debug_heap.obj
 0001:0008bd20       _aligned_malloc_dbg        000000018008cd20 f   libucrtd:debug_heap.obj
 0001:0008bd60       _aligned_msize_dbg         000000018008cd60 f   libucrtd:debug_heap.obj
 0001:0008bf20       _aligned_offset_malloc_dbg 000000018008cf20 f   libucrtd:debug_heap.obj
 0001:0008c210       _aligned_offset_realloc_dbg 000000018008d210 f   libucrtd:debug_heap.obj
 0001:0008c6c0       _aligned_offset_recalloc_dbg 000000018008d6c0 f   libucrtd:debug_heap.obj
 0001:0008c7e0       _aligned_realloc_dbg       000000018008d7e0 f   libucrtd:debug_heap.obj
 0001:0008c830       _aligned_recalloc_dbg      000000018008d830 f   libucrtd:debug_heap.obj
 0001:0008c890       _calloc_dbg                000000018008d890 f   libucrtd:debug_heap.obj
 0001:0008c930       _expand_dbg                000000018008d930 f   libucrtd:debug_heap.obj
 0001:0008ca60       _free_dbg                  000000018008da60 f   libucrtd:debug_heap.obj
 0001:0008cad0       _malloc_dbg                000000018008dad0 f   libucrtd:debug_heap.obj
 0001:0008cb10       _msize_dbg                 000000018008db10 f   libucrtd:debug_heap.obj
 0001:0008ccb0       _realloc_dbg               000000018008dcb0 f   libucrtd:debug_heap.obj
 0001:0008cd20       _recalloc_dbg              000000018008dd20 f   libucrtd:debug_heap.obj
 0001:0008ce20       _initterm                  000000018008de20 f   libucrtd:initterm.obj
 0001:0008ce90       _initterm_e                000000018008de90 f   libucrtd:initterm.obj
 0001:0008d3e0       strcpy_s                   000000018008e3e0 f   libucrtd:strcpy_s.obj
 0001:0008da70       strcat_s                   000000018008ea70 f   libucrtd:strcat_s.obj
 0001:0008daa0       ??$?B$$A6AH_K@Z@__crt_fast_encoded_nullptr_t@@QEBAP6AH_K@ZXZ 000000018008eaa0 f i libucrtd:new_handler.obj
 0001:0008dac0       ??$__crt_fast_decode_pointer@P6AH_K@Z@@YAP6AH_K@ZQ6AH0@Z@Z 000000018008eac0 f i libucrtd:new_handler.obj
 0001:0008db00       ??$__crt_fast_encode_pointer@P6AH_K@Z@@YAP6AH_K@ZQ6AH0@Z@Z 000000018008eb00 f i libucrtd:new_handler.obj
 0001:0008db40       ?_set_new_handler@@YAP6AH_K@ZH@Z 000000018008eb40 f   libucrtd:new_handler.obj
 0001:0008dbb0       ?initialize@?$dual_state_global@P6AH_K@Z@__crt_state_management@@QEAAXQ6AH_K@Z@Z 000000018008ebb0 f i libucrtd:new_handler.obj
 0001:0008dc00       ?value@?$dual_state_global@P6AH_K@Z@__crt_state_management@@QEAAAEAP6AH_K@ZXZ 000000018008ec00 f i libucrtd:new_handler.obj
 0001:0008dc20       __acrt_initialize_new_handler 000000018008ec20 f   libucrtd:new_handler.obj
 0001:0008dc40       _callnewh                  000000018008ec40 f   libucrtd:new_handler.obj
 0001:0008dc90       _query_new_handler         000000018008ec90 f   libucrtd:new_handler.obj
 0001:0008dcd0       _set_new_handler           000000018008ecd0 f   libucrtd:new_handler.obj
 0001:0008dd80       _get_terminate             000000018008ed80 f   libucrtd:terminate.obj
 0001:0008dda0       set_terminate              000000018008eda0 f   libucrtd:terminate.obj
 0001:0008dde0       terminate                  000000018008ede0 f   libucrtd:terminate.obj
 0001:0008ebe0       _makepath                  000000018008fbe0 f   libucrtd:makepath.obj
 0001:0008ec30       _makepath_s                000000018008fc30 f   libucrtd:makepath.obj
 0001:0008ec80       _wmakepath                 000000018008fc80 f   libucrtd:makepath.obj
 0001:0008ecd0       _wmakepath_s               000000018008fcd0 f   libucrtd:makepath.obj
 0001:000911a0       ??$tcsncpy_s@AEAPEAD_KAEAPEBDAEB_K@?$__crt_char_traits@D@@SAHAEAPEAD$$QEA_KAEAPEBDAEB_K@Z 00000001800921a0 f i libucrtd:splitpath.obj
 0001:000911f0       ??$tcsncpy_s@AEAPEAD_KAEAPEBDH@?$__crt_char_traits@D@@SAHAEAPEAD$$QEA_KAEAPEBD$$QEAH@Z 00000001800921f0 f i libucrtd:splitpath.obj
 0001:00091240       ??$tcsncpy_s@AEAPEA_W_KAEAPEB_WAEB_K@?$__crt_char_traits@_W@@SAHAEAPEA_W$$QEA_KAEAPEB_WAEB_K@Z 0000000180092240 f i libucrtd:splitpath.obj
 0001:00091290       ??$tcsncpy_s@AEAPEA_W_KAEAPEB_WH@?$__crt_char_traits@_W@@SAHAEAPEA_W$$QEA_KAEAPEB_W$$QEAH@Z 0000000180092290 f i libucrtd:splitpath.obj
 0001:000914f0       _splitpath                 00000001800924f0 f   libucrtd:splitpath.obj
 0001:00091530       _splitpath_s               0000000180092530 f   libucrtd:splitpath.obj
 0001:000915d0       _wsplitpath                00000001800925d0 f   libucrtd:splitpath.obj
 0001:00091610       _wsplitpath_s              0000000180092610 f   libucrtd:splitpath.obj
 0001:000916b0       _set_abort_behavior        00000001800926b0 f   libucrtd:abort.obj
 0001:000916f0       abort                      00000001800926f0 f   libucrtd:abort.obj
 0001:00091780       strcmp                     0000000180092780 f   libucrtd:strcmp.obj
 0001:00091800       strlen                     0000000180092800 f   libucrtd:strlen.obj
 0001:000918b0       wcsncmp                    00000001800928b0 f   libucrtd:wcsncmp.obj
 0001:00091940       ??$is_overflow_condition@K@__crt_strtox@@YA_NIK@Z 0000000180092940 f i libucrtd:atox.obj
 0001:000919b0       ??$is_overflow_condition@_K@__crt_strtox@@YA_NI_K@Z 00000001800929b0 f i libucrtd:atox.obj
 0001:00091a20       ??$make_c_string_character_source@D$$T@__crt_strtox@@YA?AV?$c_string_character_source@D@0@QEBD$$T@Z 0000000180092a20 f i libucrtd:atox.obj
 0001:00091a60       ??$make_c_string_character_source@_W$$T@__crt_strtox@@YA?AV?$c_string_character_source@_W@0@QEB_W$$T@Z 0000000180092a60 f i libucrtd:atox.obj
 0001:00091aa0       ??$parse_integer@KV?$c_string_character_source@D@__crt_strtox@@@__crt_strtox@@YAKQEAU__crt_locale_pointers@@V?$c_string_character_source@D@0@H_N@Z 0000000180092aa0 f i libucrtd:atox.obj
 0001:00091f30       ??$parse_integer@KV?$c_string_character_source@_W@__crt_strtox@@@__crt_strtox@@YAKQEAU__crt_locale_pointers@@V?$c_string_character_source@_W@0@H_N@Z 0000000180092f30 f i libucrtd:atox.obj
 0001:000923e0       ??$parse_integer@_KV?$c_string_character_source@D@__crt_strtox@@@__crt_strtox@@YA_KQEAU__crt_locale_pointers@@V?$c_string_character_source@D@0@H_N@Z 00000001800933e0 f i libucrtd:atox.obj
 0001:00092900       ??$parse_integer@_KV?$c_string_character_source@_W@__crt_strtox@@@__crt_strtox@@YA_KQEAU__crt_locale_pointers@@V?$c_string_character_source@_W@0@H_N@Z 0000000180093900 f i libucrtd:atox.obj
 0001:00092e20       ??$parse_integer_from_string@JD$$T@__crt_strtox@@YAJQEBD$$THQEAU__crt_locale_pointers@@@Z 0000000180093e20 f i libucrtd:atox.obj
 0001:00092e70       ??$parse_integer_from_string@J_W$$T@__crt_strtox@@YAJQEB_W$$THQEAU__crt_locale_pointers@@@Z 0000000180093e70 f i libucrtd:atox.obj
 0001:00092ec0       ??$parse_integer_from_string@_JD$$T@__crt_strtox@@YA_JQEBD$$THQEAU__crt_locale_pointers@@@Z 0000000180093ec0 f i libucrtd:atox.obj
 0001:00092f10       ??$parse_integer_from_string@_J_W$$T@__crt_strtox@@YA_JQEB_W$$THQEAU__crt_locale_pointers@@@Z 0000000180093f10 f i libucrtd:atox.obj
 0001:00092f60       ??0?$c_string_character_source@D@__crt_strtox@@QEAA@QEBDQEAPEBD@Z 0000000180093f60 f i libucrtd:atox.obj
 0001:00092fb0       ??0?$c_string_character_source@_W@__crt_strtox@@QEAA@QEB_WQEAPEB_W@Z 0000000180093fb0 f i libucrtd:atox.obj
 0001:00093000       ??1?$c_string_character_source@D@__crt_strtox@@QEAA@XZ 0000000180094000 f i libucrtd:atox.obj
 0001:00093030       ??1?$c_string_character_source@_W@__crt_strtox@@QEAA@XZ 0000000180094030 f i libucrtd:atox.obj
 0001:00093060       ?get@?$c_string_character_source@D@__crt_strtox@@QEAADXZ 0000000180094060 f i libucrtd:atox.obj
 0001:000930a0       ?get@?$c_string_character_source@_W@__crt_strtox@@QEAA_WXZ 00000001800940a0 f i libucrtd:atox.obj
 0001:000930e0       ?is_space@__crt_strtox@@YA_NDQEAU__crt_locale_pointers@@@Z 00000001800940e0 f i libucrtd:atox.obj
 0001:00093130       ?is_space@__crt_strtox@@YA_N_WPEAU__crt_locale_pointers@@@Z 0000000180094130 f i libucrtd:atox.obj
 0001:00093170       ?maximum_signed_value@__crt_strtox@@YAJK@Z 0000000180094170 f i libucrtd:atox.obj
 0001:00093180       ?maximum_signed_value@__crt_strtox@@YA_J_K@Z 0000000180094180 f i libucrtd:atox.obj
 0001:00093190       ?minimum_signed_value@__crt_strtox@@YAJK@Z 0000000180094190 f i libucrtd:atox.obj
 0001:000931a0       ?minimum_signed_value@__crt_strtox@@YA_J_K@Z 00000001800941a0 f i libucrtd:atox.obj
 0001:000931b0       ?parse_digit@__crt_strtox@@YAID@Z 00000001800941b0 f i libucrtd:atox.obj
 0001:00093220       ?parse_digit@__crt_strtox@@YAI_W@Z 0000000180094220 f i libucrtd:atox.obj
 0001:000932b0       ?restore_state@?$c_string_character_source@D@__crt_strtox@@QEAA_NQEBD@Z 00000001800942b0 f i libucrtd:atox.obj
 0001:000932d0       ?restore_state@?$c_string_character_source@_W@__crt_strtox@@QEAA_NQEB_W@Z 00000001800942d0 f i libucrtd:atox.obj
 0001:000932f0       ?save_state@?$c_string_character_source@D@__crt_strtox@@QEBAPEBDXZ 00000001800942f0 f i libucrtd:atox.obj
 0001:00093300       ?save_state@?$c_string_character_source@_W@__crt_strtox@@QEBAPEB_WXZ 0000000180094300 f i libucrtd:atox.obj
 0001:00093310       ?unget@?$c_string_character_source@D@__crt_strtox@@QEAAXD@Z 0000000180094310 f i libucrtd:atox.obj
 0001:000933f0       ?unget@?$c_string_character_source@_W@__crt_strtox@@QEAAX_W@Z 00000001800943f0 f i libucrtd:atox.obj
 0001:000934d0       ?validate@?$c_string_character_source@D@__crt_strtox@@QEBA_NXZ 00000001800944d0 f i libucrtd:atox.obj
 0001:00093590       ?validate@?$c_string_character_source@_W@__crt_strtox@@QEBA_NXZ 0000000180094590 f i libucrtd:atox.obj
 0001:00093650       ?wide_character_to_digit@__crt_strtox@@YAH_W@Z 0000000180094650 f i libucrtd:atox.obj
 0001:000939c0       _atoi64                    00000001800949c0 f   libucrtd:atox.obj
 0001:000939f0       _atoi64_l                  00000001800949f0 f   libucrtd:atox.obj
 0001:00093a20       _atoi_l                    0000000180094a20 f   libucrtd:atox.obj
 0001:00093a50       _atol_l                    0000000180094a50 f   libucrtd:atox.obj
 0001:00093a80       _atoll_l                   0000000180094a80 f   libucrtd:atox.obj
 0001:00093ab0       _wtoi                      0000000180094ab0 f   libucrtd:atox.obj
 0001:00093ae0       _wtoi64                    0000000180094ae0 f   libucrtd:atox.obj
 0001:00093b10       _wtoi64_l                  0000000180094b10 f   libucrtd:atox.obj
 0001:00093b40       _wtoi_l                    0000000180094b40 f   libucrtd:atox.obj
 0001:00093b70       _wtol                      0000000180094b70 f   libucrtd:atox.obj
 0001:00093ba0       _wtol_l                    0000000180094ba0 f   libucrtd:atox.obj
 0001:00093bd0       _wtoll                     0000000180094bd0 f   libucrtd:atox.obj
 0001:00093c00       _wtoll_l                   0000000180094c00 f   libucrtd:atox.obj
 0001:00093c30       atoi                       0000000180094c30 f   libucrtd:atox.obj
 0001:00093c60       atol                       0000000180094c60 f   libucrtd:atox.obj
 0001:00093c90       atoll                      0000000180094c90 f   libucrtd:atox.obj
 0001:00093cd0       strncmp                    0000000180094cd0 f   libucrtd:strncmp.obj
 0001:00094470       _tolower                   0000000180095470 f   libucrtd:tolower_toupper.obj
 0001:00094480       _tolower_l                 0000000180095480 f   libucrtd:tolower_toupper.obj
 0001:000944b0       _toupper                   00000001800954b0 f   libucrtd:tolower_toupper.obj
 0001:000944c0       _toupper_l                 00000001800954c0 f   libucrtd:tolower_toupper.obj
 0001:000944f0       tolower                    00000001800954f0 f   libucrtd:tolower_toupper.obj
 0001:00094550       toupper                    0000000180095550 f   libucrtd:tolower_toupper.obj
 0001:000945b0       _CrtGetDebugFillThreshold  00000001800955b0 f   libucrtd:debug_fill_threshold.obj
 0001:000945c0       _CrtSetDebugFillThreshold  00000001800955c0 f   libucrtd:debug_fill_threshold.obj
 0001:000945f0       ??$make_c_string_character_source@DPEAPEAD@__crt_strtox@@YA?AV?$c_string_character_source@D@0@QEBDQEAPEAD@Z 00000001800955f0 f i libucrtd:strtox.obj
 0001:00094630       ??$make_c_string_character_source@_WPEAPEA_W@__crt_strtox@@YA?AV?$c_string_character_source@_W@0@QEB_WQEAPEA_W@Z 0000000180095630 f i libucrtd:strtox.obj
 0001:00094670       ??$parse_integer_from_string@JDPEAPEAD@__crt_strtox@@YAJQEBDQEAPEADHQEAU__crt_locale_pointers@@@Z 0000000180095670 f i libucrtd:strtox.obj
 0001:000946c0       ??$parse_integer_from_string@J_WPEAPEA_W@__crt_strtox@@YAJQEB_WQEAPEA_WHQEAU__crt_locale_pointers@@@Z 00000001800956c0 f i libucrtd:strtox.obj
 0001:00094710       ??$parse_integer_from_string@KDPEAPEAD@__crt_strtox@@YAKQEBDQEAPEADHQEAU__crt_locale_pointers@@@Z 0000000180095710 f i libucrtd:strtox.obj
 0001:00094760       ??$parse_integer_from_string@K_WPEAPEA_W@__crt_strtox@@YAKQEB_WQEAPEA_WHQEAU__crt_locale_pointers@@@Z 0000000180095760 f i libucrtd:strtox.obj
 0001:000947b0       ??$parse_integer_from_string@_JDPEAPEAD@__crt_strtox@@YA_JQEBDQEAPEADHQEAU__crt_locale_pointers@@@Z 00000001800957b0 f i libucrtd:strtox.obj
 0001:00094800       ??$parse_integer_from_string@_J_WPEAPEA_W@__crt_strtox@@YA_JQEB_WQEAPEA_WHQEAU__crt_locale_pointers@@@Z 0000000180095800 f i libucrtd:strtox.obj
 0001:00094850       ??$parse_integer_from_string@_KDPEAPEAD@__crt_strtox@@YA_KQEBDQEAPEADHQEAU__crt_locale_pointers@@@Z 0000000180095850 f i libucrtd:strtox.obj
 0001:000948a0       ??$parse_integer_from_string@_K_WPEAPEA_W@__crt_strtox@@YA_KQEB_WQEAPEA_WHQEAU__crt_locale_pointers@@@Z 00000001800958a0 f i libucrtd:strtox.obj
 0001:000948f0       _strtoi64                  00000001800958f0 f   libucrtd:strtox.obj
 0001:00094920       _strtoi64_l                0000000180095920 f   libucrtd:strtox.obj
 0001:00094960       _strtoimax_l               0000000180095960 f   libucrtd:strtox.obj
 0001:000949a0       _strtol_l                  00000001800959a0 f   libucrtd:strtox.obj
 0001:000949e0       _strtoll_l                 00000001800959e0 f   libucrtd:strtox.obj
 0001:00094a20       _strtoui64                 0000000180095a20 f   libucrtd:strtox.obj
 0001:00094a50       _strtoui64_l               0000000180095a50 f   libucrtd:strtox.obj
 0001:00094a90       _strtoul_l                 0000000180095a90 f   libucrtd:strtox.obj
 0001:00094ad0       _strtoull_l                0000000180095ad0 f   libucrtd:strtox.obj
 0001:00094b10       _strtoumax_l               0000000180095b10 f   libucrtd:strtox.obj
 0001:00094b50       _wcstoi64                  0000000180095b50 f   libucrtd:strtox.obj
 0001:00094b80       _wcstoi64_l                0000000180095b80 f   libucrtd:strtox.obj
 0001:00094bc0       _wcstoimax_l               0000000180095bc0 f   libucrtd:strtox.obj
 0001:00094c00       _wcstol_l                  0000000180095c00 f   libucrtd:strtox.obj
 0001:00094c40       _wcstoll_l                 0000000180095c40 f   libucrtd:strtox.obj
 0001:00094c80       _wcstoui64                 0000000180095c80 f   libucrtd:strtox.obj
 0001:00094cb0       _wcstoui64_l               0000000180095cb0 f   libucrtd:strtox.obj
 0001:00094cf0       _wcstoul_l                 0000000180095cf0 f   libucrtd:strtox.obj
 0001:00094d30       _wcstoull_l                0000000180095d30 f   libucrtd:strtox.obj
 0001:00094d70       _wcstoumax_l               0000000180095d70 f   libucrtd:strtox.obj
 0001:00094db0       strtoimax                  0000000180095db0 f   libucrtd:strtox.obj
 0001:00094de0       strtol                     0000000180095de0 f   libucrtd:strtox.obj
 0001:00094e10       strtoll                    0000000180095e10 f   libucrtd:strtox.obj
 0001:00094e40       strtoul                    0000000180095e40 f   libucrtd:strtox.obj
 0001:00094e70       strtoull                   0000000180095e70 f   libucrtd:strtox.obj
 0001:00094ea0       strtoumax                  0000000180095ea0 f   libucrtd:strtox.obj
 0001:00094ed0       wcstoimax                  0000000180095ed0 f   libucrtd:strtox.obj
 0001:00094f00       wcstol                     0000000180095f00 f   libucrtd:strtox.obj
 0001:00094f30       wcstoll                    0000000180095f30 f   libucrtd:strtox.obj
 0001:00094f60       wcstoul                    0000000180095f60 f   libucrtd:strtox.obj
 0001:00094f90       wcstoull                   0000000180095f90 f   libucrtd:strtox.obj
 0001:00094fc0       wcstoumax                  0000000180095fc0 f   libucrtd:strtox.obj
 0001:00094ff0       _mbtowc_l                  0000000180095ff0 f   libucrtd:mbtowc.obj
 0001:00095320       mbtowc                     0000000180096320 f   libucrtd:mbtowc.obj
 0001:00095350       _wctomb_l                  0000000180096350 f   libucrtd:wctomb.obj
 0001:00095410       _wctomb_s_l                0000000180096410 f   libucrtd:wctomb.obj
 0001:000958b0       wctomb                     00000001800968b0 f   libucrtd:wctomb.obj
 0001:00095910       wctomb_s                   0000000180096910 f   libucrtd:wctomb.obj
 0001:000965a0       ??1?$__crt_simd_cleanup_guard@$00@@QEAA@XZ 00000001800975a0 f i libucrtd:strnlen.obj
 0001:000965b0       ??1?$__crt_simd_cleanup_guard@$0A@@@QEAA@XZ 00000001800975b0 f i libucrtd:strnlen.obj
 0001:000965c0       ?compare_equals@?$__crt_simd_traits@$00E@@SA?AT__m256i@@T2@0@Z 00000001800975c0 f i libucrtd:strnlen.obj
 0001:00096600       ?compare_equals@?$__crt_simd_traits@$00G@@SA?AT__m256i@@T2@0@Z 0000000180097600 f i libucrtd:strnlen.obj
 0001:00096640       ?compare_equals@?$__crt_simd_traits@$0A@E@@SA?AT__m128i@@T2@0@Z 0000000180097640 f i libucrtd:strnlen.obj
