 OPOSPointCardRW

 Timestamp is 61a7598b (Wed Dec  1 20:16:27 2021)

 Preferred load address is 0000000180000000

 Start         Length     Name                   Class
 0001:00000000 00000d90H .text$di                CODE
 0001:00000d90 000e5610H .text$mn                CODE
 0001:000e63a0 00000040H .text$mn$00             CODE
 0001:000e63e0 00001330H .text$x                 CODE
 0001:000e7710 00000124H .text$yd                CODE
 0002:00000000 000006f8H .idata$5                DATA
 0002:000006f8 00000030H .00cfg                  DATA
 0002:00000728 00000008H .CRT$XCA                DATA
 0002:00000730 00000008H .CRT$XCL                DATA
 0002:00000738 000000d8H .CRT$XCU                DATA
 0002:00000810 00000008H .CRT$XCZ                DATA
 0002:00000818 00000008H .CRT$XIA                DATA
 0002:00000820 00000028H .CRT$XIC                DATA
 0002:00000848 00000008H .CRT$XIZ                DATA
 0002:00000850 00000008H .CRT$XLA                DATA
 0002:00000858 00000008H .CRT$XLZ                DATA
 0002:00000860 00000008H .CRT$XPA                DATA
 0002:00000868 00000010H .CRT$XPX                DATA
 0002:00000878 00000008H .CRT$XPXA               DATA
 0002:00000880 00000008H .CRT$XPZ                DATA
 0002:00000888 00000008H .CRT$XTA                DATA
 0002:00000890 00000010H .CRT$XTZ                DATA
 0002:00000898 00000000H .gehcont$y              DATA
 0002:00000898 00000000H .gfids$y                DATA
 0002:000008a0 0003cae0H .rdata                  DATA
 0002:0003d380 00000080H .rdata$CastGuardVftablesA DATA
 0002:0003d400 00000080H .rdata$CastGuardVftablesC DATA
 0002:0003d480 00000028H .rdata$T                DATA
 0002:0003d4a8 0000056cH .rdata$r                DATA
 0002:0003da14 00000190H .rdata$voltmd           DATA
 0002:0003dba4 000004a4H .rdata$zzzdbg           DATA
 0002:0003e048 00000008H .rtc$IAA                DATA
 0002:0003e050 00000030H .rtc$IMZ                DATA
 0002:0003e080 00000008H .rtc$IZZ                DATA
 0002:0003e088 00000008H .rtc$TAA                DATA
 0002:0003e090 00000030H .rtc$TMZ                DATA
 0002:0003e0c0 00000008H .rtc$TZZ                DATA
 0002:0003e0c8 00000004H .tls                    DATA
 0002:0003e0cc 00000004H .tls$                   DATA
 0002:0003e0d0 00000008H .tls$ZZZ                DATA
 0002:0003e0d8 0000a130H .xdata                  DATA
 0002:00048208 00000150H .xdata$x                DATA
 0002:00048358 00000008H ATL$__a                 DATA
 0002:00048360 00000010H ATL$__z                 DATA
 0002:00048370 000000acH .edata                  DATA
 0002:0004841c 00000078H .idata$2                DATA
 0002:00048494 00000014H .idata$3                DATA
 0002:000484a8 000006f8H .idata$4                DATA
 0002:00048ba0 00000df0H .idata$6                DATA
 0003:00000000 00000f18H .data                   DATA
 0003:00000f18 000000a8H .data$r                 DATA
 0003:00000fc0 000000f0H .data$rs                DATA
 0003:000010b0 00003e7cH .bss                    DATA
 0004:00000000 0000cabcH .pdata                  DATA
 0005:00000000 000000fcH _RDATA                  DATA
 0006:00000000 00000220H .rsrc$01                DATA
 0006:00000220 00005e00H .rsrc$02                DATA

  Address         Publics by Value              Rva+Base               Lib:Object

 0000:00000000       __hybrid_code_map          0000000000000000     <absolute>
 0000:00000000       __hybrid_code_map_count    0000000000000000     <absolute>
 0000:00000000       __dynamic_value_reloc_table 0000000000000000     <absolute>
 0000:00000000       __enclave_config           0000000000000000     <absolute>
 0000:00000000       __guard_longjmp_count      0000000000000000     <absolute>
 0000:00000000       __arm64x_extra_rfe_table_size 0000000000000000     <absolute>
 0000:00000000       __guard_iat_count          0000000000000000     <absolute>
 0000:00000000       ___safe_se_handler_count   0000000000000000     <absolute>
 0000:00000000       __guard_eh_cont_table      0000000000000000     <absolute>
 0000:00000000       __arm64x_extra_rfe_table   0000000000000000     <absolute>
 0000:00000000       __x64_code_ranges_to_entry_points_count 0000000000000000     <absolute>
 0000:00000000       __guard_eh_cont_count      0000000000000000     <absolute>
 0000:00000000       __guard_fids_count         0000000000000000     <absolute>
 0000:00000000       __hybrid_auxiliary_iat_copy 0000000000000000     <absolute>
 0000:00000000       __arm64x_redirection_metadata 0000000000000000     <absolute>
 0000:00000000       __guard_longjmp_table      0000000000000000     <absolute>
 0000:00000000       __guard_check_icall_a64n_fptr 0000000000000000     <absolute>
 0000:00000000       __arm64x_redirection_metadata_count 0000000000000000     <absolute>
 0000:00000000       __guard_iat_table          0000000000000000     <absolute>
 0000:00000000       __hybrid_auxiliary_iat     0000000000000000     <absolute>
 0000:00000000       __x64_code_ranges_to_entry_points 0000000000000000     <absolute>
 0000:00000000       __arm64x_native_entrypoint 0000000000000000     <absolute>
 0000:00000000       __guard_fids_table         0000000000000000     <absolute>
 0000:00000000       __AbsoluteZero             0000000000000000     <absolute>
 0000:00000000       ___safe_se_handler_table   0000000000000000     <absolute>
 0000:00000100       __guard_flags              0000000000000100     <absolute>
 0000:00000000       __ImageBase                0000000180000000     <linker-defined>
 0001:00000d90       ?_assert@@YAXPEB_W0I@Z     0000000180001d90 f   Assert.obj
 0001:00000e90       __local_stdio_printf_options 0000000180001e90 f i Assert.obj
 0001:00000ea0       __vswprintf_l              0000000180001ea0 f i Assert.obj
 0001:00000ef0       _swprintf                  0000000180001ef0 f i Assert.obj
 0001:00000f70       _vswprintf_c_l             0000000180001f70 f i Assert.obj
 0001:00000fe0       _vswprintf_l               0000000180001fe0 f i Assert.obj
 0001:00001030       ?cw_memcpy@@YAHPEADPEB_WH@Z 0000000180002030 f   CWString.obj
 0001:000010b0       ?cw_memcpy@@YAHPEA_WPEBDH@Z 00000001800020b0 f   CWString.obj
 0001:00001120       ?cw_memcpy@@YAHPEADPEBDH@Z 0000000180002120 f   CWString.obj
 0001:000011b0       ?cw_memcpy@@YAHPEA_WPEB_WH@Z 00000001800021b0 f   CWString.obj
 0001:00001210       ?cw_memset@@YAXPEADDH@Z    0000000180002210 f   CWString.obj
 0001:00001270       ?cw_memset@@YAXPEA_W_WH@Z  0000000180002270 f   CWString.obj
 0001:00001300       ?cw_strlen@@YAHPEBD@Z      0000000180002300 f   CWString.obj
 0001:00001360       ?cw_strlen@@YAHPEB_W@Z     0000000180002360 f   CWString.obj
 0001:000013c0       ?cw_strcpy@@YAHPEADPEB_W@Z 00000001800023c0 f   CWString.obj
 0001:00001400       ?cw_strcpy@@YAHPEA_WPEBD@Z 0000000180002400 f   CWString.obj
 0001:00001440       ?cw_strcpy@@YAHPEADPEBD@Z  0000000180002440 f   CWString.obj
 0001:00001480       ?cw_strcpy@@YAHPEA_WPEB_W@Z 0000000180002480 f   CWString.obj
 0001:000014c0       ?cw_strcat@@YAHPEADPEB_W@Z 00000001800024c0 f   CWString.obj
 0001:00001510       ?cw_strcat@@YAHPEA_WPEBD@Z 0000000180002510 f   CWString.obj
 0001:00001560       ?cw_strcat@@YAHPEADPEBD@Z  0000000180002560 f   CWString.obj
 0001:000015b0       ?cw_strcat@@YAHPEA_WPEB_W@Z 00000001800025b0 f   CWString.obj
 0001:00001600       ?cw_dup@@YAXPEBDAEAHAEAPEA_W1@Z 0000000180002600 f   CWString.obj
 0001:00001700       ?cw_dup@@YAXPEB_WAEAHAEAPEAD1@Z 0000000180002700 f   CWString.obj
 0001:000017e0       ?DupChar@_CW@@AEAAXXZ      00000001800027e0 f   CWString.obj
 0001:00001830       ?DupWide@_CW@@AEAAXXZ      0000000180002830 f   CWString.obj
 0001:00001880       ?GetCharsMbcs@_CW@@QEAAHXZ 0000000180002880 f   CWString.obj
 0001:000018e0       ?GetCharsWide@_CW@@QEAAHXZ 00000001800028e0 f   CWString.obj
 0001:00001940       ?SetVARIANT_BOOL@OposVariant@@QEAAXF@Z 0000000180002940 f   OposVariant.obj
 0001:000019a0       ?SetVARIANT_BOOL_Ptr@OposVariant@@QEAAXPEAFAEAJ@Z 00000001800029a0 f   OposVariant.obj
 0001:00001a00       ?GetLONG@OposVariant@@QEAAJXZ 0000000180002a00 f   OposVariant.obj
 0001:00001a60       ?ChangeLONG@OposVariant@@QEAAXPEAJAEAJ@Z 0000000180002a60 f   OposVariant.obj
 0001:00001b10       ?SetLONG@OposVariant@@QEAAXJ@Z 0000000180002b10 f   OposVariant.obj
 0001:00001b50       ?SetLONG_Ptr@OposVariant@@QEAAXPEAJAEAJ@Z 0000000180002b50 f   OposVariant.obj
 0001:00001bb0       ?ChangeCURRENCY@OposVariant@@QEAAXPEATtagCY@@AEAJ@Z 0000000180002bb0 f   OposVariant.obj
 0001:00001c60       ?SetCURRENCY@OposVariant@@QEAAXTtagCY@@@Z 0000000180002c60 f   OposVariant.obj
 0001:00001ca0       ?SetCURRENCY_Ptr@OposVariant@@QEAAXPEATtagCY@@AEAJ@Z 0000000180002ca0 f   OposVariant.obj
 0001:00001d00       ?ChangeBSTR@OposVariant@@QEAAXPEAPEA_WAEAJ@Z 0000000180002d00 f   OposVariant.obj
 0001:00001db0       ?SetBSTR@OposVariant@@QEAAXPEA_WAEAJ@Z 0000000180002db0 f   OposVariant.obj
 0001:00001e10       ?SetBSTR_Copy@OposVariant@@QEAAXPEA_WAEAJ@Z 0000000180002e10 f   OposVariant.obj
 0001:00001eb0       ?SetBSTR_OutPtr@OposVariant@@QEAA_NPEAPEA_WAEAJ@Z 0000000180002eb0 f   OposVariant.obj
 0001:00001f10       ?SetBSTR_InOutPtr@OposVariant@@QEAA_NPEAPEA_WAEAJ@Z 0000000180002f10 f   OposVariant.obj
 0001:00001f70       ?SetVARIANT@OposVariant@@QEAAXAEAUtagVARIANT@@GAEAJ@Z 0000000180002f70 f   OposVariant.obj
 0001:00002000       ?SetVARIANT_Ptr@OposVariant@@QEAAXAEAPEAUtagVARIANT@@GAEAJ@Z 0000000180003000 f   OposVariant.obj
 0001:000020a0       ?SetString@OposVariant@@QEAAXPEB_WAEAJ@Z 00000001800030a0 f   OposVariant.obj
 0001:00002130       ?SetDispatch_Ptr@OposVariant@@QEAAXPEAUIDispatch@@AEAJ@Z 0000000180003130 f   OposVariant.obj
 0001:000021b0       ??0OposDispParms@@QEAA@PEAVOposVariant@@H@Z 00000001800031b0 f   OposVariant.obj
 0001:000022b0       ??1OposDispParms@@QEAA@XZ  00000001800032b0 f   OposVariant.obj
 0001:000022f0       ??$AtlMultiply@_K@ATL@@YAJPEA_K_K1@Z 00000001800032f0 f i OposVariant.obj
 0001:00002360       ??0?$CHeapPtr@_WVCCRTAllocator@ATL@@@ATL@@QEAA@XZ 0000000180003360 f i OposVariant.obj
 0001:00002380       ??0?$CHeapPtrBase@_WVCCRTAllocator@ATL@@@ATL@@IEAA@XZ 0000000180003380 f i OposVariant.obj
 0001:000023a0       ??0?$CSimpleArray@GV?$CSimpleArrayEqualHelper@G@ATL@@@ATL@@QEAA@XZ 00000001800033a0 f i OposVariant.obj
 0001:000023e0       ??0?$CTraceCategoryEx@$00$0A@@ATL@@QEAA@PEB_W@Z 00000001800033e0 f i OposVariant.obj
 0001:00002410       ??0?$CTraceCategoryEx@$01$0A@@ATL@@QEAA@PEB_W@Z 0000000180003410 f i OposVariant.obj
 0001:00002440       ??0?$CTraceCategoryEx@$03$0A@@ATL@@QEAA@PEB_W@Z 0000000180003440 f i OposVariant.obj
 0001:00002470       ??0?$CTraceCategoryEx@$07$0A@@ATL@@QEAA@PEB_W@Z 0000000180003470 f i OposVariant.obj
 0001:000024a0       ??0?$CTraceCategoryEx@$0BA@$0A@@ATL@@QEAA@PEB_W@Z 00000001800034a0 f i OposVariant.obj
 0001:000024d0       ??0?$CTraceCategoryEx@$0BAA@$0A@@ATL@@QEAA@PEB_W@Z 00000001800034d0 f i OposVariant.obj
 0001:00002500       ??0?$CTraceCategoryEx@$0BAAA@$0A@@ATL@@QEAA@PEB_W@Z 0000000180003500 f i OposVariant.obj
 0001:00002530       ??0?$CTraceCategoryEx@$0BAAAA@$0A@@ATL@@QEAA@PEB_W@Z 0000000180003530 f i OposVariant.obj
 0001:00002560       ??0?$CTraceCategoryEx@$0BAAAAA@$0A@@ATL@@QEAA@PEB_W@Z 0000000180003560 f i OposVariant.obj
 0001:00002590       ??0?$CTraceCategoryEx@$0CA@$0A@@ATL@@QEAA@PEB_W@Z 0000000180003590 f i OposVariant.obj
 0001:000025c0       ??0?$CTraceCategoryEx@$0CAA@$0A@@ATL@@QEAA@PEB_W@Z 00000001800035c0 f i OposVariant.obj
 0001:000025f0       ??0?$CTraceCategoryEx@$0CAAA@$0A@@ATL@@QEAA@PEB_W@Z 00000001800035f0 f i OposVariant.obj
 0001:00002620       ??0?$CTraceCategoryEx@$0CAAAA@$0A@@ATL@@QEAA@PEB_W@Z 0000000180003620 f i OposVariant.obj
 0001:00002650       ??0?$CTraceCategoryEx@$0CAAAAA@$0A@@ATL@@QEAA@PEB_W@Z 0000000180003650 f i OposVariant.obj
 0001:00002680       ??0?$CTraceCategoryEx@$0EA@$0A@@ATL@@QEAA@PEB_W@Z 0000000180003680 f i OposVariant.obj
 0001:000026b0       ??0?$CTraceCategoryEx@$0EAA@$0A@@ATL@@QEAA@PEB_W@Z 00000001800036b0 f i OposVariant.obj
 0001:000026e0       ??0?$CTraceCategoryEx@$0EAAA@$0A@@ATL@@QEAA@PEB_W@Z 00000001800036e0 f i OposVariant.obj
 0001:00002710       ??0?$CTraceCategoryEx@$0EAAAA@$0A@@ATL@@QEAA@PEB_W@Z 0000000180003710 f i OposVariant.obj
 0001:00002740       ??0?$CTraceCategoryEx@$0EAAAAA@$0A@@ATL@@QEAA@PEB_W@Z 0000000180003740 f i OposVariant.obj
 0001:00002770       ??0?$CTraceCategoryEx@$0IA@$0A@@ATL@@QEAA@PEB_W@Z 0000000180003770 f i OposVariant.obj
 0001:000027a0       ??0?$CTraceCategoryEx@$0IAA@$0A@@ATL@@QEAA@PEB_W@Z 00000001800037a0 f i OposVariant.obj
 0001:000027d0       ??0?$CTraceCategoryEx@$0IAAA@$0A@@ATL@@QEAA@PEB_W@Z 00000001800037d0 f i OposVariant.obj
 0001:00002800       ??0?$CTraceCategoryEx@$0IAAAA@$0A@@ATL@@QEAA@PEB_W@Z 0000000180003800 f i OposVariant.obj
 0001:00002830       ??0CAtlComModule@ATL@@QEAA@XZ 0000000180003830 f i OposVariant.obj
 0001:00002940       ??0CAtlWinModule@ATL@@QEAA@XZ 0000000180003940 f i OposVariant.obj
 0001:000029e0       ??0CComCriticalSection@ATL@@QEAA@XZ 00000001800039e0 f i OposVariant.obj
 0001:00002a10       ??0CPreserveLastError@ATL@@QEAA@XZ 0000000180003a10 f i OposVariant.obj
 0001:00002a40       ??0CTraceFileAndLineInfo@ATL@@QEAA@PEBDH@Z 0000000180003a40 f i OposVariant.obj
 0001:00002a70       ??0_ATL_COM_MODULE70@ATL@@QEAA@XZ 0000000180003a70 f i OposVariant.obj
 0001:00002aa0       ??0_ATL_WIN_MODULE70@ATL@@QEAA@XZ 0000000180003aa0 f i OposVariant.obj
 0001:00002ae0       ??1?$CHeapPtr@_WVCCRTAllocator@ATL@@@ATL@@QEAA@XZ 0000000180003ae0 f i OposVariant.obj
 0001:00002b00       ??1?$CHeapPtrBase@_WVCCRTAllocator@ATL@@@ATL@@QEAA@XZ 0000000180003b00 f i OposVariant.obj
 0001:00002b20       ??1?$CSimpleArray@GV?$CSimpleArrayEqualHelper@G@ATL@@@ATL@@QEAA@XZ 0000000180003b20 f i OposVariant.obj
 0001:00002b40       ??1CAtlComModule@ATL@@QEAA@XZ 0000000180003b40 f i OposVariant.obj
 0001:00002b70       ??1CAtlWinModule@ATL@@QEAA@XZ 0000000180003b70 f i OposVariant.obj
 0001:00002ba0       ??1CComBSTR@ATL@@QEAA@XZ   0000000180003ba0 f i OposVariant.obj
 0001:00002bc0       ??1CComCriticalSection@ATL@@QEAA@XZ 0000000180003bc0 f i OposVariant.obj
 0001:00002bd0       ??1CPreserveLastError@ATL@@QEAA@XZ 0000000180003bd0 f i OposVariant.obj
 0001:00002bf0       ??1_ATL_COM_MODULE70@ATL@@QEAA@XZ 0000000180003bf0 f i OposVariant.obj
 0001:00002c20       ??1_ATL_WIN_MODULE70@ATL@@QEAA@XZ 0000000180003c20 f i OposVariant.obj
 0001:00002c60       ??1stringdispid@CComTypeInfoHolder@ATL@@QEAA@XZ 0000000180003c60 f i OposVariant.obj
 0001:00002c80       ??A?$CSimpleArray@GV?$CSimpleArrayEqualHelper@G@ATL@@@ATL@@QEAAAEAGH@Z 0000000180003c80 f i OposVariant.obj
 0001:00002d20       ??B?$CHeapPtrBase@_WVCCRTAllocator@ATL@@@ATL@@QEBAPEA_WXZ 0000000180003d20 f i OposVariant.obj
 0001:00002d30       ??B?$CTraceCategoryEx@$01$0A@@ATL@@QEAAIXZ 0000000180003d30 f i OposVariant.obj
 0001:00002d40       ??B?$CTraceCategoryEx@$0CA@$0A@@ATL@@QEAAIXZ 0000000180003d40 f i OposVariant.obj
 0001:00002d50       ??RCTraceFileAndLineInfo@ATL@@QEBAXHIPEB_WZZ 0000000180003d50 f i OposVariant.obj
 0001:00002e10       ??_Estringdispid@CComTypeInfoHolder@ATL@@QEAAPEAXI@Z 0000000180003e10 f i OposVariant.obj
 0001:00002eb0       ??_H@YAXPEAX_K1P6APEAX0@Z@Z 0000000180003eb0 f i OposVariant.obj
 0001:00002f30       ??_I@YAXPEAX_K1P6AX0@Z@Z   0000000180003f30 f i OposVariant.obj
 0001:00002fd0       ?Allocate@?$CHeapPtr@_WVCCRTAllocator@ATL@@@ATL@@QEAA_N_K@Z 0000000180003fd0 f i OposVariant.obj
 0001:00003050       ?Allocate@CCRTAllocator@ATL@@SAPEAX_K@Z 0000000180004050 f i OposVariant.obj
 0001:00003070       ?AllocateBytes@?$CHeapPtrBase@_WVCCRTAllocator@ATL@@@ATL@@QEAA_N_K@Z 0000000180004070 f i OposVariant.obj
 0001:000030f0       ?AtlWinModuleInit@ATL@@YAJPEAU_ATL_WIN_MODULE70@1@@Z 00000001800040f0 f i OposVariant.obj
 0001:000031e0       ?AtlWinModuleTerm@ATL@@YAJPEAU_ATL_WIN_MODULE70@1@PEAUHINSTANCE__@@@Z 00000001800041e0 f i OposVariant.obj
 0001:000032b0       ?Clear@OposVariant@@QEAAJXZ 00000001800042b0 f i OposVariant.obj
 0001:000032e0       ?Free@?$CHeapPtrBase@_WVCCRTAllocator@ATL@@@ATL@@QEAAXXZ 00000001800042e0 f i OposVariant.obj
 0001:00003310       ?Free@CCRTAllocator@ATL@@SAXPEAX@Z 0000000180004310 f i OposVariant.obj
 0001:00003330       ?GetCategoryName@CTrace@ATL@@CAPEA_WI@Z 0000000180004330 f i OposVariant.obj
 0001:000033a0       ?GetModuleInstance@CAtlBaseModule@ATL@@QEAAPEAUHINSTANCE__@@XZ 00000001800043a0 f i OposVariant.obj
 0001:000033c0       ?GetSize@?$CSimpleArray@GV?$CSimpleArrayEqualHelper@G@ATL@@@ATL@@QEBAHXZ 00000001800043c0 f i OposVariant.obj
 0001:000033d0       ?Init@CComCriticalSection@ATL@@QEAAJXZ 00000001800043d0 f i OposVariant.obj
 0001:00003420       ?RegisterCategory@CTrace@ATL@@SAXPEB_WI@Z 0000000180004420 f i OposVariant.obj
 0001:000034e0       ?RemoveAll@?$CSimpleArray@GV?$CSimpleArrayEqualHelper@G@ATL@@@ATL@@QEAAXXZ 00000001800044e0 f i OposVariant.obj
 0001:00003550       ?Term@CAtlComModule@ATL@@QEAAXXZ 0000000180004550 f i OposVariant.obj
 0001:00003620       ?Term@CAtlWinModule@ATL@@QEAAXXZ 0000000180004620 f i OposVariant.obj
 0001:00003650       ?Term@CComCriticalSection@ATL@@QEAAJXZ 0000000180004650 f i OposVariant.obj
 0001:00003670       ?TraceV@CTrace@ATL@@CAXPEBDHIIPEB_W@Z 0000000180004670 f i OposVariant.obj
 0001:00003920       ?TraceV@CTrace@ATL@@SAXPEBDHIIPEB_WPEAD@Z 0000000180004920 f i OposVariant.obj
 0001:00003ad0       ?_AtlInitializeCriticalSectionEx@ATL@@YAHPEAU_RTL_CRITICAL_SECTION@@KK@Z 0000000180004ad0 f i OposVariant.obj
 0001:00003b00       ?_AtlRaiseException@ATL@@YAXKK@Z 0000000180004b00 f i OposVariant.obj
 0001:00003b30       HRESULT_FROM_WIN32         0000000180004b30 f i OposVariant.obj
 0001:00003b70       _vswprintf_s_l             0000000180004b70 f i OposVariant.obj
 0001:00003be0       swprintf_s                 0000000180004be0 f i OposVariant.obj
 0001:00003c70       ?ObjectMain@CComObjectRootBase@ATL@@SAX_N@Z 0000000180004c70 f i PointCardRW.obj
 0001:00003c80       ?GetCategoryMap@CComObjectRootBase@ATL@@SAPEBU_ATL_CATMAP_ENTRY@2@XZ 0000000180004c80 f i PointCardRW.obj
 0001:00003c90       ?GetObjectDescription@?$CComCoClass@VCOPOSPointCardRW@@$1?CLSID_OPOSPointCardRW@@3U_GUID@@B@ATL@@SAPEB_WXZ 0000000180004c90 f i PointCardRW.obj
 0001:00003ca0       ?UpdateRegistry@COPOSPointCardRW@@SAJH@Z 0000000180004ca0 f i PointCardRW.obj
 0001:00003cd0       ?CreateInstance@?$CComCreator@V?$CComObjectCached@VCComClassFactory@ATL@@@ATL@@@ATL@@SAJPEAXAEBU_GUID@@PEAPEAX@Z 0000000180004cd0 f i PointCardRW.obj
 0001:00003ea0       ?CreateInstance@?$CComCreator2@V?$CComCreator@V?$CComObject@VCOPOSPointCardRW@@@ATL@@@ATL@@V?$CComCreator@V?$CComAggObject@VCOPOSPointCardRW@@@ATL@@@2@@ATL@@SAJPEAXAEBU_GUID@@PEAPEAX@Z 0000000180004ea0 f i PointCardRW.obj
 0001:00004090       DllGetClassObject          0000000180005090 f   PointCardRW.obj
 0001:000040d0       DllCanUnloadNow            00000001800050d0 f   PointCardRW.obj
 0001:00004110       DllRegisterServer          0000000180005110 f   PointCardRW.obj
 0001:00004140       DllUnregisterServer        0000000180005140 f   PointCardRW.obj
 0001:00004300       DllMain                    0000000180005300 f   PointCardRW.obj
 0001:00004370       ??$?2G@Wrapper@?$CSimpleArray@GV?$CSimpleArrayEqualHelper@G@ATL@@@ATL@@SAPEAX_KPEAG@Z 0000000180005370 f i PointCardRW.obj
 0001:00004390       ??$?2PEA_W@?$Wrapper@PEA_W@?$CSimpleMap@PEA_WPEA_WVCExpansionVectorEqualHelper@ATL@@@ATL@@SAPEAX_KPEAPEA_W@Z 0000000180005390 f i PointCardRW.obj
 0001:000043b0       ??$?4UITypeInfo2@@@?$CComPtr@UITypeInfo@@@ATL@@QEAAPEAUITypeInfo@@AEBV?$CComPtr@UITypeInfo2@@@1@@Z 00000001800053b0 f i PointCardRW.obj
 0001:00004410       ??$AtlAdd@_K@ATL@@YAJPEA_K_K1@Z 0000000180005410 f i PointCardRW.obj
 0001:00004470       ??$AtlAddThrow@_K@ATL@@YA_K_K0@Z 0000000180005470 f i PointCardRW.obj
 0001:000044e0       ??$AtlModuleRegisterWndClassInfoT@VAtlModuleRegisterWndClassInfoParamW@ATL@@@ATL@@YAGPEAU_ATL_BASE_MODULE70@0@PEAU_ATL_WIN_MODULE70@0@PEAU_ATL_WNDCLASSINFOW@0@PEAP6A_JPEAUHWND__@@I_K_J@ZVAtlModuleRegisterWndClassInfoParamW@0@@Z 00000001800054e0 f i PointCardRW.obj
 0001:00004ab0       ??$AtlMultiply@H@ATL@@YAJPEAHHH@Z 0000000180005ab0 f i PointCardRW.obj
 0001:00004b10       ??$AtlMultiply@K@ATL@@YAJPEAKKK@Z 0000000180005b10 f i PointCardRW.obj
 0001:00004b60       ??$AtlMultiplyThrow@_K@ATL@@YA_K_K0@Z 0000000180005b60 f i PointCardRW.obj
 0001:00004bd0       ??$QueryInterface@UIPersistStream@@@IUnknown@@QEAAJPEAPEAUIPersistStream@@@Z 0000000180005bd0 f i PointCardRW.obj
 0001:00004c00       ??$QueryInterface@UITypeInfo2@@@IUnknown@@QEAAJPEAPEAUITypeInfo2@@@Z 0000000180005c00 f i PointCardRW.obj
 0001:00004c30       ??0?$CAtlModuleT@VCComModule@ATL@@@ATL@@QEAA@XZ 0000000180005c30 f i PointCardRW.obj
 0001:00004c60       ??0?$CAtlSafeAllocBufferManager@VCCRTAllocator@ATL@@@_ATL_SAFE_ALLOCA_IMPL@ATL@@QEAA@XZ 0000000180005c60 f i PointCardRW.obj
 0001:00004c80       ??0?$CAutoVectorPtr@_W@ATL@@QEAA@XZ 0000000180005c80 f i PointCardRW.obj
 0001:00004ca0       ??0?$CComAggObject@VCOPOSPointCardRW@@@ATL@@QEAA@PEAX@Z 0000000180005ca0 f i PointCardRW.obj
 0001:00004d10       ??0?$CComContainedObject@VCOPOSPointCardRW@@@ATL@@QEAA@PEAX@Z 0000000180005d10 f i PointCardRW.obj
 0001:00004ea0       ??0?$CComCritSecLock@VCComCriticalSection@ATL@@@ATL@@QEAA@AEAVCComCriticalSection@1@_N@Z 0000000180005ea0 f i PointCardRW.obj
 0001:00004f00       ??0?$CComEnum@UIEnumConnectionPoints@@$1?_GUID_b196b285_bab4_101a_b69c_00aa00341d07@@3U__s_GUID@@BPEAUIConnectionPoint@@V?$_CopyInterface@UIConnectionPoint@@@ATL@@VCComSingleThreadModel@6@@ATL@@QEAA@XZ 0000000180005f00 f i PointCardRW.obj
 0001:00004f30       ??0?$CComEnum@UIEnumConnections@@$1?_GUID_b196b287_bab4_101a_b69c_00aa00341d07@@3U__s_GUID@@BUtagCONNECTDATA@@V?$_Copy@UtagCONNECTDATA@@@ATL@@VCComSingleThreadModel@6@@ATL@@QEAA@XZ 0000000180005f30 f i PointCardRW.obj
 0001:00004f60       ??0?$CComEnumImpl@UIEnumConnectionPoints@@$1?_GUID_b196b285_bab4_101a_b69c_00aa00341d07@@3U__s_GUID@@BPEAUIConnectionPoint@@V?$_CopyInterface@UIConnectionPoint@@@ATL@@@ATL@@QEAA@XZ 0000000180005f60 f i PointCardRW.obj
 0001:00004fd0       ??0?$CComEnumImpl@UIEnumConnections@@$1?_GUID_b196b287_bab4_101a_b69c_00aa00341d07@@3U__s_GUID@@BUtagCONNECTDATA@@V?$_Copy@UtagCONNECTDATA@@@ATL@@@ATL@@QEAA@XZ 0000000180005fd0 f i PointCardRW.obj
 0001:00005040       ??0?$CComObject@V?$CComEnum@UIEnumConnectionPoints@@$1?_GUID_b196b285_bab4_101a_b69c_00aa00341d07@@3U__s_GUID@@BPEAUIConnectionPoint@@V?$_CopyInterface@UIConnectionPoint@@@ATL@@VCComSingleThreadModel@6@@ATL@@@ATL@@QEAA@PEAX@Z 0000000180006040 f i PointCardRW.obj
 0001:00005090       ??0?$CComObject@V?$CComEnum@UIEnumConnections@@$1?_GUID_b196b287_bab4_101a_b69c_00aa00341d07@@3U__s_GUID@@BUtagCONNECTDATA@@V?$_Copy@UtagCONNECTDATA@@@ATL@@VCComSingleThreadModel@6@@ATL@@@ATL@@QEAA@PEAX@Z 0000000180006090 f i PointCardRW.obj
 0001:000050e0       ??0?$CComObject@VCOPOSPointCardRW@@@ATL@@QEAA@PEAX@Z 00000001800060e0 f i PointCardRW.obj
 0001:00005270       ??0?$CComObjectCached@VCComClassFactory@ATL@@@ATL@@QEAA@PEAX@Z 0000000180006270 f i PointCardRW.obj
 0001:000052b0       ??0?$CComObjectRootEx@VCComMultiThreadModel@ATL@@@ATL@@QEAA@XZ 00000001800062b0 f i PointCardRW.obj
 0001:000052e0       ??0?$CComObjectRootEx@VCComSingleThreadModel@ATL@@@ATL@@QEAA@XZ 00000001800062e0 f i PointCardRW.obj
 0001:00005300       ??0?$CComPtr@UIAdviseSink@@@ATL@@QEAA@PEAUIAdviseSink@@@Z 0000000180006300 f i PointCardRW.obj
 0001:00005330       ??0?$CComPtr@UICatRegister@@@ATL@@QEAA@XZ 0000000180006330 f i PointCardRW.obj
 0001:00005350       ??0?$CComPtr@UIConnectionPoint@@@ATL@@QEAA@XZ 0000000180006350 f i PointCardRW.obj
 0001:00005370       ??0?$CComPtr@UIConnectionPointContainer@@@ATL@@QEAA@XZ 0000000180006370 f i PointCardRW.obj
 0001:00005390       ??0?$CComPtr@UIDataObject@@@ATL@@QEAA@XZ 0000000180006390 f i PointCardRW.obj
 0001:000053b0       ??0?$CComPtr@UIDispatch@@@ATL@@QEAA@XZ 00000001800063b0 f i PointCardRW.obj
 0001:000053d0       ??0?$CComPtr@UIOleClientSite@@@ATL@@QEAA@PEAUIOleClientSite@@@Z 00000001800063d0 f i PointCardRW.obj
 0001:00005400       ??0?$CComPtr@UIOleControlSite@@@ATL@@QEAA@XZ 0000000180006400 f i PointCardRW.obj
 0001:00005420       ??0?$CComPtr@UIOleInPlaceActiveObject@@@ATL@@QEAA@XZ 0000000180006420 f i PointCardRW.obj
 0001:00005440       ??0?$CComPtr@UIOleInPlaceFrame@@@ATL@@QEAA@XZ 0000000180006440 f i PointCardRW.obj
 0001:00005460       ??0?$CComPtr@UIOleInPlaceObject@@@ATL@@QEAA@XZ 0000000180006460 f i PointCardRW.obj
 0001:00005480       ??0?$CComPtr@UIOleInPlaceUIWindow@@@ATL@@QEAA@XZ 0000000180006480 f i PointCardRW.obj
 0001:000054a0       ??0?$CComPtr@UIOleObject@@@ATL@@QEAA@XZ 00000001800064a0 f i PointCardRW.obj
 0001:000054c0       ??0?$CComPtr@UIPersistStream@@@ATL@@QEAA@XZ 00000001800064c0 f i PointCardRW.obj
 0001:000054e0       ??0?$CComPtr@UIPersistStreamInit@@@ATL@@QEAA@XZ 00000001800064e0 f i PointCardRW.obj
 0001:00005500       ??0?$CComPtr@UIPointerInactive@@@ATL@@QEAA@XZ 0000000180006500 f i PointCardRW.obj
 0001:00005520       ??0?$CComPtr@UIProvideClassInfo2@@@ATL@@QEAA@XZ 0000000180006520 f i PointCardRW.obj
 0001:00005540       ??0?$CComPtr@UISpecifyPropertyPages@@@ATL@@QEAA@XZ 0000000180006540 f i PointCardRW.obj
 0001:00005560       ??0?$CComPtr@UIStream@@@ATL@@QEAA@XZ 0000000180006560 f i PointCardRW.obj
 0001:00005580       ??0?$CComPtr@UITypeInfo2@@@ATL@@QEAA@XZ 0000000180006580 f i PointCardRW.obj
 0001:000055a0       ??0?$CComPtr@UITypeInfo@@@ATL@@QEAA@AEBV01@@Z 00000001800065a0 f i PointCardRW.obj
 0001:000055d0       ??0?$CComPtr@UITypeInfo@@@ATL@@QEAA@XZ 00000001800065d0 f i PointCardRW.obj
 0001:000055f0       ??0?$CComPtr@UITypeLib@@@ATL@@QEAA@XZ 00000001800065f0 f i PointCardRW.obj
 0001:00005610       ??0?$CComPtr@UIUnknown@@@ATL@@QEAA@AEBV01@@Z 0000000180006610 f i PointCardRW.obj
 0001:00005640       ??0?$CComPtr@UIUnknown@@@ATL@@QEAA@PEAUIUnknown@@@Z 0000000180006640 f i PointCardRW.obj
 0001:00005670       ??0?$CComPtr@UIUnknown@@@ATL@@QEAA@XZ 0000000180006670 f i PointCardRW.obj
 0001:00005690       ??0?$CComPtr@UIViewObjectEx@@@ATL@@QEAA@XZ 0000000180006690 f i PointCardRW.obj
 0001:000056b0       ??0?$CComPtrBase@UIAdviseSink@@@ATL@@IEAA@PEAUIAdviseSink@@@Z 00000001800066b0 f i PointCardRW.obj
 0001:00005700       ??0?$CComPtrBase@UICatRegister@@@ATL@@IEAA@XZ 0000000180006700 f i PointCardRW.obj
 0001:00005720       ??0?$CComPtrBase@UIConnectionPoint@@@ATL@@IEAA@XZ 0000000180006720 f i PointCardRW.obj
 0001:00005740       ??0?$CComPtrBase@UIConnectionPointContainer@@@ATL@@IEAA@XZ 0000000180006740 f i PointCardRW.obj
 0001:00005760       ??0?$CComPtrBase@UIDataObject@@@ATL@@IEAA@XZ 0000000180006760 f i PointCardRW.obj
 0001:00005780       ??0?$CComPtrBase@UIDispatch@@@ATL@@IEAA@XZ 0000000180006780 f i PointCardRW.obj
 0001:000057a0       ??0?$CComPtrBase@UIOleClientSite@@@ATL@@IEAA@PEAUIOleClientSite@@@Z 00000001800067a0 f i PointCardRW.obj
 0001:000057f0       ??0?$CComPtrBase@UIOleControlSite@@@ATL@@IEAA@XZ 00000001800067f0 f i PointCardRW.obj
 0001:00005810       ??0?$CComPtrBase@UIOleInPlaceActiveObject@@@ATL@@IEAA@XZ 0000000180006810 f i PointCardRW.obj
 0001:00005830       ??0?$CComPtrBase@UIOleInPlaceFrame@@@ATL@@IEAA@XZ 0000000180006830 f i PointCardRW.obj
 0001:00005850       ??0?$CComPtrBase@UIOleInPlaceObject@@@ATL@@IEAA@XZ 0000000180006850 f i PointCardRW.obj
 0001:00005870       ??0?$CComPtrBase@UIOleInPlaceUIWindow@@@ATL@@IEAA@XZ 0000000180006870 f i PointCardRW.obj
 0001:00005890       ??0?$CComPtrBase@UIOleObject@@@ATL@@IEAA@XZ 0000000180006890 f i PointCardRW.obj
 0001:000058b0       ??0?$CComPtrBase@UIPersistStream@@@ATL@@IEAA@XZ 00000001800068b0 f i PointCardRW.obj
 0001:000058d0       ??0?$CComPtrBase@UIPersistStreamInit@@@ATL@@IEAA@XZ 00000001800068d0 f i PointCardRW.obj
 0001:000058f0       ??0?$CComPtrBase@UIPointerInactive@@@ATL@@IEAA@XZ 00000001800068f0 f i PointCardRW.obj
 0001:00005910       ??0?$CComPtrBase@UIProvideClassInfo2@@@ATL@@IEAA@XZ 0000000180006910 f i PointCardRW.obj
 0001:00005930       ??0?$CComPtrBase@UISpecifyPropertyPages@@@ATL@@IEAA@XZ 0000000180006930 f i PointCardRW.obj
 0001:00005950       ??0?$CComPtrBase@UIStream@@@ATL@@IEAA@XZ 0000000180006950 f i PointCardRW.obj
 0001:00005970       ??0?$CComPtrBase@UITypeInfo2@@@ATL@@IEAA@XZ 0000000180006970 f i PointCardRW.obj
 0001:00005990       ??0?$CComPtrBase@UITypeInfo@@@ATL@@IEAA@PEAUITypeInfo@@@Z 0000000180006990 f i PointCardRW.obj
 0001:000059e0       ??0?$CComPtrBase@UITypeInfo@@@ATL@@IEAA@XZ 00000001800069e0 f i PointCardRW.obj
 0001:00005a00       ??0?$CComPtrBase@UITypeLib@@@ATL@@IEAA@XZ 0000000180006a00 f i PointCardRW.obj
 0001:00005a20       ??0?$CComPtrBase@UIUnknown@@@ATL@@IEAA@PEAUIUnknown@@@Z 0000000180006a20 f i PointCardRW.obj
 0001:00005a70       ??0?$CComPtrBase@UIUnknown@@@ATL@@IEAA@XZ 0000000180006a70 f i PointCardRW.obj
 0001:00005a90       ??0?$CComPtrBase@UIViewObjectEx@@@ATL@@IEAA@XZ 0000000180006a90 f i PointCardRW.obj
 0001:00005ab0       ??0?$CComQIPtr@UIOleControlSite@@$1?_GUID_b196b289_bab4_101a_b69c_00aa00341d07@@3U__s_GUID@@B@ATL@@QEAA@PEAUIUnknown@@@Z 0000000180006ab0 f i PointCardRW.obj
 0001:00005b10       ??0?$CComQIPtr@UIOleObject@@$1?_GUID_00000112_0000_0000_c000_000000000046@@3U__s_GUID@@B@ATL@@QEAA@XZ 0000000180006b10 f i PointCardRW.obj
 0001:00005b30       ??0?$CComQIPtr@UISpecifyPropertyPages@@$1?_GUID_b196b28b_bab4_101a_b69c_00aa00341d07@@3U__s_GUID@@B@ATL@@QEAA@XZ 0000000180006b30 f i PointCardRW.obj
 0001:00005b50       ??0?$CSimpleMap@PEA_WPEA_WVCExpansionVectorEqualHelper@ATL@@@ATL@@QEAA@XZ 0000000180006b50 f i PointCardRW.obj
 0001:00005b90       ??0?$CTempBuffer@E$0BAA@VCCRTAllocator@ATL@@@ATL@@QEAA@XZ 0000000180006b90 f i PointCardRW.obj
 0001:00005bb0       ??0?$CTempBuffer@_W$0BAA@VCCRTAllocator@ATL@@@ATL@@QEAA@XZ 0000000180006bb0 f i PointCardRW.obj
 0001:00005bd0       ??0?$CTempBuffer@_W$0EAA@VCCRTAllocator@ATL@@@ATL@@QEAA@XZ 0000000180006bd0 f i PointCardRW.obj
 0001:00005bf0       ??0?$Wrapper@PEA_W@?$CSimpleMap@PEA_WPEA_WVCExpansionVectorEqualHelper@ATL@@@ATL@@QEAA@AEBQEA_W@Z 0000000180006bf0 f i PointCardRW.obj
 0001:00005c20       ??0CAtlModule@ATL@@QEAA@XZ 0000000180006c20 f i PointCardRW.obj
 0001:00005d80       ??0CComAutoDeleteCriticalSection@ATL@@QEAA@XZ 0000000180006d80 f i PointCardRW.obj
 0001:00005da0       ??0CComBSTR@ATL@@QEAA@XZ   0000000180006da0 f i PointCardRW.obj
 0001:00005dc0       ??0CComClassFactory@ATL@@QEAA@XZ 0000000180006dc0 f i PointCardRW.obj
 0001:00005e00       ??0CComModule@ATL@@QEAA@XZ 0000000180006e00 f i PointCardRW.obj
 0001:00005e80       ??0CComObjectRootBase@ATL@@QEAA@XZ 0000000180006e80 f i PointCardRW.obj
 0001:00005ea0       ??0CComSafeDeleteCriticalSection@ATL@@QEAA@XZ 0000000180006ea0 f i PointCardRW.obj
 0001:00005ed0       ??0CComVariant@ATL@@QEAA@XZ 0000000180006ed0 f i PointCardRW.obj
 0001:00005f10       ??0CExpansionVector@ATL@@QEAA@XZ 0000000180006f10 f i PointCardRW.obj
 0001:00005f30       ??0CParseBuffer@CRegParser@ATL@@QEAA@H@Z 0000000180006f30 f i PointCardRW.obj
 0001:00005fb0       ??0CRegKey@ATL@@QEAA@PEAUHKEY__@@@Z 0000000180006fb0 f i PointCardRW.obj
 0001:00005ff0       ??0CRegKey@ATL@@QEAA@PEAVCAtlTransactionManager@1@@Z 0000000180006ff0 f i PointCardRW.obj
 0001:00006030       ??0CRegObject@ATL@@QEAA@XZ 0000000180007030 f i PointCardRW.obj
 0001:00006070       ??0CRegParser@ATL@@QEAA@PEAVCRegObject@1@@Z 0000000180007070 f i PointCardRW.obj
 0001:000060a0       ??0IClassFactory@@QEAA@XZ  00000001800070a0 f i PointCardRW.obj
 0001:000060c0       ??0IEnumConnectionPoints@@QEAA@XZ 00000001800070c0 f i PointCardRW.obj
 0001:000060e0       ??0IEnumConnections@@QEAA@XZ 00000001800070e0 f i PointCardRW.obj
 0001:00006100       ??0IRegistrarBase@@QEAA@XZ 0000000180007100 f i PointCardRW.obj
 0001:00006120       ??0IUnknown@@QEAA@XZ       0000000180007120 f i PointCardRW.obj
 0001:00006130       ??0ModuleLockHelper@ATL@@QEAA@XZ 0000000180007130 f i PointCardRW.obj
 0001:00006160       ??0OposVariant@@QEAA@XZ    0000000180007160 f i PointCardRW.obj
 0001:00006180       ??0Wrapper@?$CSimpleArray@GV?$CSimpleArrayEqualHelper@G@ATL@@@ATL@@QEAA@AEBG@Z 0000000180007180 f i PointCardRW.obj
 0001:000061b0       ??0_ATL_MODULE70@ATL@@QEAA@XZ 00000001800071b0 f i PointCardRW.obj
 0001:000061e0       ??0_ATL_MSG@ATL@@QEAA@PEAUHWND__@@I_K_JH@Z 00000001800071e0 f i PointCardRW.obj
 0001:00006270       ??0_U_MENUorID@ATL@@QEAA@I@Z 0000000180007270 f i PointCardRW.obj
 0001:00006290       ??0_U_RECT@ATL@@QEAA@AEAUtagRECT@@@Z 0000000180007290 f i PointCardRW.obj
 0001:000062b0       ??0stringdispid@CComTypeInfoHolder@ATL@@QEAA@XZ 00000001800072b0 f i PointCardRW.obj
 0001:000062f0       ??1?$CAtlModuleT@VCComModule@ATL@@@ATL@@UEAA@XZ 00000001800072f0 f i PointCardRW.obj
 0001:00006310       ??1?$CAtlSafeAllocBufferManager@VCCRTAllocator@ATL@@@_ATL_SAFE_ALLOCA_IMPL@ATL@@QEAA@XZ 0000000180007310 f i PointCardRW.obj
 0001:00006360       ??1?$CAutoVectorPtr@_W@ATL@@QEAA@XZ 0000000180007360 f i PointCardRW.obj
 0001:00006380       ??1?$CComAggObject@VCOPOSPointCardRW@@@ATL@@UEAA@XZ 0000000180007380 f i PointCardRW.obj
 0001:000063f0       ??1?$CComContainedObject@VCOPOSPointCardRW@@@ATL@@UEAA@XZ 00000001800073f0 f i PointCardRW.obj
 0001:00006410       ??1?$CComCritSecLock@VCComCriticalSection@ATL@@@ATL@@QEAA@XZ 0000000180007410 f i PointCardRW.obj
 0001:00006440       ??1?$CComEnum@UIEnumConnectionPoints@@$1?_GUID_b196b285_bab4_101a_b69c_00aa00341d07@@3U__s_GUID@@BPEAUIConnectionPoint@@V?$_CopyInterface@UIConnectionPoint@@@ATL@@VCComSingleThreadModel@6@@ATL@@UEAA@XZ 0000000180007440 f i PointCardRW.obj
 0001:00006470       ??1?$CComEnum@UIEnumConnections@@$1?_GUID_b196b287_bab4_101a_b69c_00aa00341d07@@3U__s_GUID@@BUtagCONNECTDATA@@V?$_Copy@UtagCONNECTDATA@@@ATL@@VCComSingleThreadModel@6@@ATL@@UEAA@XZ 0000000180007470 f i PointCardRW.obj
 0001:000064a0       ??1?$CComEnumImpl@UIEnumConnectionPoints@@$1?_GUID_b196b285_bab4_101a_b69c_00aa00341d07@@3U__s_GUID@@BPEAUIConnectionPoint@@V?$_CopyInterface@UIConnectionPoint@@@ATL@@@ATL@@UEAA@XZ 00000001800074a0 f i PointCardRW.obj
 0001:00006530       ??1?$CComEnumImpl@UIEnumConnections@@$1?_GUID_b196b287_bab4_101a_b69c_00aa00341d07@@3U__s_GUID@@BUtagCONNECTDATA@@V?$_Copy@UtagCONNECTDATA@@@ATL@@@ATL@@UEAA@XZ 0000000180007530 f i PointCardRW.obj
 0001:000065c0       ??1?$CComObject@V?$CComEnum@UIEnumConnectionPoints@@$1?_GUID_b196b285_bab4_101a_b69c_00aa00341d07@@3U__s_GUID@@BPEAUIConnectionPoint@@V?$_CopyInterface@UIConnectionPoint@@@ATL@@VCComSingleThreadModel@6@@ATL@@@ATL@@UEAA@XZ 00000001800075c0 f i PointCardRW.obj
 0001:00006620       ??1?$CComObject@V?$CComEnum@UIEnumConnections@@$1?_GUID_b196b287_bab4_101a_b69c_00aa00341d07@@3U__s_GUID@@BUtagCONNECTDATA@@V?$_Copy@UtagCONNECTDATA@@@ATL@@VCComSingleThreadModel@6@@ATL@@@ATL@@UEAA@XZ 0000000180007620 f i PointCardRW.obj
 0001:00006680       ??1?$CComObject@VCOPOSPointCardRW@@@ATL@@UEAA@XZ 0000000180007680 f i PointCardRW.obj
 0001:00006820       ??1?$CComObjectCached@VCComClassFactory@ATL@@@ATL@@UEAA@XZ 0000000180007820 f i PointCardRW.obj
 0001:00006870       ??1?$CComObjectRootEx@VCComMultiThreadModel@ATL@@@ATL@@QEAA@XZ 0000000180007870 f i PointCardRW.obj
 0001:000068a0       ??1?$CComObjectRootEx@VCComSingleThreadModel@ATL@@@ATL@@QEAA@XZ 00000001800078a0 f i PointCardRW.obj
 0001:000068c0       ??1?$CComPtr@UIAdviseSink@@@ATL@@QEAA@XZ 00000001800078c0 f i PointCardRW.obj
 0001:000068e0       ??1?$CComPtr@UICatRegister@@@ATL@@QEAA@XZ 00000001800078e0 f i PointCardRW.obj
 0001:00006900       ??1?$CComPtr@UIConnectionPoint@@@ATL@@QEAA@XZ 0000000180007900 f i PointCardRW.obj
 0001:00006920       ??1?$CComPtr@UIConnectionPointContainer@@@ATL@@QEAA@XZ 0000000180007920 f i PointCardRW.obj
 0001:00006940       ??1?$CComPtr@UIDataObject@@@ATL@@QEAA@XZ 0000000180007940 f i PointCardRW.obj
 0001:00006960       ??1?$CComPtr@UIDispatch@@@ATL@@QEAA@XZ 0000000180007960 f i PointCardRW.obj
 0001:00006980       ??1?$CComPtr@UIOleClientSite@@@ATL@@QEAA@XZ 0000000180007980 f i PointCardRW.obj
 0001:000069a0       ??1?$CComPtr@UIOleControlSite@@@ATL@@QEAA@XZ 00000001800079a0 f i PointCardRW.obj
 0001:000069c0       ??1?$CComPtr@UIOleInPlaceActiveObject@@@ATL@@QEAA@XZ 00000001800079c0 f i PointCardRW.obj
 0001:000069e0       ??1?$CComPtr@UIOleInPlaceFrame@@@ATL@@QEAA@XZ 00000001800079e0 f i PointCardRW.obj
 0001:00006a00       ??1?$CComPtr@UIOleInPlaceObject@@@ATL@@QEAA@XZ 0000000180007a00 f i PointCardRW.obj
 0001:00006a20       ??1?$CComPtr@UIOleInPlaceUIWindow@@@ATL@@QEAA@XZ 0000000180007a20 f i PointCardRW.obj
 0001:00006a40       ??1?$CComPtr@UIOleObject@@@ATL@@QEAA@XZ 0000000180007a40 f i PointCardRW.obj
 0001:00006a60       ??1?$CComPtr@UIPersistStream@@@ATL@@QEAA@XZ 0000000180007a60 f i PointCardRW.obj
 0001:00006a80       ??1?$CComPtr@UIPersistStreamInit@@@ATL@@QEAA@XZ 0000000180007a80 f i PointCardRW.obj
 0001:00006aa0       ??1?$CComPtr@UIPointerInactive@@@ATL@@QEAA@XZ 0000000180007aa0 f i PointCardRW.obj
 0001:00006ac0       ??1?$CComPtr@UIProvideClassInfo2@@@ATL@@QEAA@XZ 0000000180007ac0 f i PointCardRW.obj
 0001:00006ae0       ??1?$CComPtr@UISpecifyPropertyPages@@@ATL@@QEAA@XZ 0000000180007ae0 f i PointCardRW.obj
 0001:00006b00       ??1?$CComPtr@UIStream@@@ATL@@QEAA@XZ 0000000180007b00 f i PointCardRW.obj
 0001:00006b20       ??1?$CComPtr@UITypeInfo2@@@ATL@@QEAA@XZ 0000000180007b20 f i PointCardRW.obj
 0001:00006b40       ??1?$CComPtr@UITypeInfo@@@ATL@@QEAA@XZ 0000000180007b40 f i PointCardRW.obj
 0001:00006b60       ??1?$CComPtr@UITypeLib@@@ATL@@QEAA@XZ 0000000180007b60 f i PointCardRW.obj
 0001:00006b80       ??1?$CComPtr@UIUnknown@@@ATL@@QEAA@XZ 0000000180007b80 f i PointCardRW.obj
 0001:00006ba0       ??1?$CComPtr@UIViewObjectEx@@@ATL@@QEAA@XZ 0000000180007ba0 f i PointCardRW.obj
 0001:00006bc0       ??1?$CComPtrBase@UIAdviseSink@@@ATL@@QEAA@XZ 0000000180007bc0 f i PointCardRW.obj
 0001:00006c00       ??1?$CComPtrBase@UICatRegister@@@ATL@@QEAA@XZ 0000000180007c00 f i PointCardRW.obj
 0001:00006c40       ??1?$CComPtrBase@UIConnectionPoint@@@ATL@@QEAA@XZ 0000000180007c40 f i PointCardRW.obj
 0001:00006c80       ??1?$CComPtrBase@UIConnectionPointContainer@@@ATL@@QEAA@XZ 0000000180007c80 f i PointCardRW.obj
 0001:00006cc0       ??1?$CComPtrBase@UIDataObject@@@ATL@@QEAA@XZ 0000000180007cc0 f i PointCardRW.obj
 0001:00006d00       ??1?$CComPtrBase@UIDispatch@@@ATL@@QEAA@XZ 0000000180007d00 f i PointCardRW.obj
 0001:00006d40       ??1?$CComPtrBase@UIOleClientSite@@@ATL@@QEAA@XZ 0000000180007d40 f i PointCardRW.obj
 0001:00006d80       ??1?$CComPtrBase@UIOleControlSite@@@ATL@@QEAA@XZ 0000000180007d80 f i PointCardRW.obj
 0001:00006dc0       ??1?$CComPtrBase@UIOleInPlaceActiveObject@@@ATL@@QEAA@XZ 0000000180007dc0 f i PointCardRW.obj
 0001:00006e00       ??1?$CComPtrBase@UIOleInPlaceFrame@@@ATL@@QEAA@XZ 0000000180007e00 f i PointCardRW.obj
 0001:00006e40       ??1?$CComPtrBase@UIOleInPlaceObject@@@ATL@@QEAA@XZ 0000000180007e40 f i PointCardRW.obj
 0001:00006e80       ??1?$CComPtrBase@UIOleInPlaceUIWindow@@@ATL@@QEAA@XZ 0000000180007e80 f i PointCardRW.obj
 0001:00006ec0       ??1?$CComPtrBase@UIOleObject@@@ATL@@QEAA@XZ 0000000180007ec0 f i PointCardRW.obj
 0001:00006f00       ??1?$CComPtrBase@UIPersistStream@@@ATL@@QEAA@XZ 0000000180007f00 f i PointCardRW.obj
 0001:00006f40       ??1?$CComPtrBase@UIPersistStreamInit@@@ATL@@QEAA@XZ 0000000180007f40 f i PointCardRW.obj
 0001:00006f80       ??1?$CComPtrBase@UIPointerInactive@@@ATL@@QEAA@XZ 0000000180007f80 f i PointCardRW.obj
 0001:00006fc0       ??1?$CComPtrBase@UIProvideClassInfo2@@@ATL@@QEAA@XZ 0000000180007fc0 f i PointCardRW.obj
 0001:00007000       ??1?$CComPtrBase@UISpecifyPropertyPages@@@ATL@@QEAA@XZ 0000000180008000 f i PointCardRW.obj
 0001:00007040       ??1?$CComPtrBase@UIStream@@@ATL@@QEAA@XZ 0000000180008040 f i PointCardRW.obj
 0001:00007080       ??1?$CComPtrBase@UITypeInfo2@@@ATL@@QEAA@XZ 0000000180008080 f i PointCardRW.obj
 0001:000070c0       ??1?$CComPtrBase@UITypeInfo@@@ATL@@QEAA@XZ 00000001800080c0 f i PointCardRW.obj
 0001:00007100       ??1?$CComPtrBase@UITypeLib@@@ATL@@QEAA@XZ 0000000180008100 f i PointCardRW.obj
 0001:00007140       ??1?$CComPtrBase@UIUnknown@@@ATL@@QEAA@XZ 0000000180008140 f i PointCardRW.obj
 0001:00007180       ??1?$CComPtrBase@UIViewObjectEx@@@ATL@@QEAA@XZ 0000000180008180 f i PointCardRW.obj
 0001:000071c0       ??1?$CComQIPtr@UIOleControlSite@@$1?_GUID_b196b289_bab4_101a_b69c_00aa00341d07@@3U__s_GUID@@B@ATL@@QEAA@XZ 00000001800081c0 f i PointCardRW.obj
 0001:000071e0       ??1?$CComQIPtr@UIOleObject@@$1?_GUID_00000112_0000_0000_c000_000000000046@@3U__s_GUID@@B@ATL@@QEAA@XZ 00000001800081e0 f i PointCardRW.obj
 0001:00007200       ??1?$CComQIPtr@UISpecifyPropertyPages@@$1?_GUID_b196b28b_bab4_101a_b69c_00aa00341d07@@3U__s_GUID@@B@ATL@@QEAA@XZ 0000000180008200 f i PointCardRW.obj
 0001:00007220       ??1?$CSimpleMap@PEA_WPEA_WVCExpansionVectorEqualHelper@ATL@@@ATL@@QEAA@XZ 0000000180008220 f i PointCardRW.obj
 0001:00007240       ??1?$CTempBuffer@E$0BAA@VCCRTAllocator@ATL@@@ATL@@QEAA@XZ 0000000180008240 f i PointCardRW.obj
 0001:00007270       ??1?$CTempBuffer@_W$0BAA@VCCRTAllocator@ATL@@@ATL@@QEAA@XZ 0000000180008270 f i PointCardRW.obj
 0001:000072a0       ??1?$CTempBuffer@_W$0EAA@VCCRTAllocator@ATL@@@ATL@@QEAA@XZ 00000001800082a0 f i PointCardRW.obj
 0001:000072d0       ??1CAtlModule@ATL@@UEAA@XZ 00000001800082d0 f i PointCardRW.obj
 0001:00007300       ??1CComAutoDeleteCriticalSection@ATL@@QEAA@XZ 0000000180008300 f i PointCardRW.obj
 0001:00007320       ??1CComClassFactory@ATL@@UEAA@XZ 0000000180008320 f i PointCardRW.obj
 0001:00007350       ??1CComModule@ATL@@UEAA@XZ 0000000180008350 f i PointCardRW.obj
 0001:00007380       ??1CComObjectRootBase@ATL@@QEAA@XZ 0000000180008380 f i PointCardRW.obj
 0001:00007390       ??1CComSafeDeleteCriticalSection@ATL@@QEAA@XZ 0000000180008390 f i PointCardRW.obj
 0001:000073d0       ??1CComVariant@ATL@@QEAA@XZ 00000001800083d0 f i PointCardRW.obj
 0001:00007430       ??1CExpansionVector@ATL@@QEAA@XZ 0000000180008430 f i PointCardRW.obj
 0001:00007460       ??1CParseBuffer@CRegParser@ATL@@QEAA@XZ 0000000180008460 f i PointCardRW.obj
 0001:00007480       ??1CRegKey@ATL@@QEAA@XZ    0000000180008480 f i PointCardRW.obj
 0001:000074a0       ??1CRegObject@ATL@@UEAA@XZ 00000001800084a0 f i PointCardRW.obj
 0001:000074e0       ??1ModuleLockHelper@ATL@@QEAA@XZ 00000001800084e0 f i PointCardRW.obj
 0001:00007510       ??1OposVariant@@QEAA@XZ    0000000180008510 f i PointCardRW.obj
 0001:00007540       ??1_ATL_MODULE70@ATL@@QEAA@XZ 0000000180008540 f i PointCardRW.obj
 0001:00007570       ??4?$CComPtr@UIAdviseSink@@@ATL@@QEAAPEAUIAdviseSink@@PEAU2@@Z 0000000180008570 f i PointCardRW.obj
 0001:000075d0       ??4?$CComPtr@UIOleClientSite@@@ATL@@QEAAPEAUIOleClientSite@@PEAU2@@Z 00000001800085d0 f i PointCardRW.obj
 0001:00007630       ??4?$CComPtr@UIUnknown@@@ATL@@QEAAPEAUIUnknown@@PEAU2@@Z 0000000180008630 f i PointCardRW.obj
 0001:00007690       ??4?$CComQIPtr@UIOleObject@@$1?_GUID_00000112_0000_0000_c000_000000000046@@3U__s_GUID@@B@ATL@@QEAAPEAUIOleObject@@PEAUIUnknown@@@Z 0000000180008690 f i PointCardRW.obj
 0001:000076e0       ??4?$CComQIPtr@UISpecifyPropertyPages@@$1?_GUID_b196b28b_bab4_101a_b69c_00aa00341d07@@3U__s_GUID@@B@ATL@@QEAAPEAUISpecifyPropertyPages@@PEAUIUnknown@@@Z 00000001800086e0 f i PointCardRW.obj
 0001:00007730       ??7?$CComPtrBase@UIOleClientSite@@@ATL@@QEBA_NXZ 0000000180008730 f i PointCardRW.obj
 0001:00007760       ??7?$CComPtrBase@UIOleInPlaceSiteWindowless@@@ATL@@QEBA_NXZ 0000000180008760 f i PointCardRW.obj
 0001:00007790       ??7CComBSTR@ATL@@QEBA_NXZ  0000000180008790 f i PointCardRW.obj
 0001:000077c0       ??8?$CComPtrBase@UIConnectionPointContainer@@@ATL@@QEBA_NPEAUIConnectionPointContainer@@@Z 00000001800087c0 f i PointCardRW.obj
 0001:00007800       ??8?$CComPtrBase@UIDataAdviseHolder@@@ATL@@QEBA_NPEAUIDataAdviseHolder@@@Z 0000000180008800 f i PointCardRW.obj
 0001:00007840       ??8?$CComPtrBase@UIOleAdviseHolder@@@ATL@@QEBA_NPEAUIOleAdviseHolder@@@Z 0000000180008840 f i PointCardRW.obj
 0001:00007880       ??8?$CComPtrBase@UIOleClientSite@@@ATL@@QEBA_NPEAUIOleClientSite@@@Z 0000000180008880 f i PointCardRW.obj
 0001:000078c0       ??8?$CComPtrBase@UIOleControlSite@@@ATL@@QEBA_NPEAUIOleControlSite@@@Z 00000001800088c0 f i PointCardRW.obj
 0001:00007900       ??8?$CComPtrBase@UIOleInPlaceObject@@@ATL@@QEBA_NPEAUIOleInPlaceObject@@@Z 0000000180008900 f i PointCardRW.obj
 0001:00007940       ??8?$CComPtrBase@UIOleInPlaceSiteWindowless@@@ATL@@QEBA_NPEAUIOleInPlaceSiteWindowless@@@Z 0000000180008940 f i PointCardRW.obj
 0001:00007980       ??8?$CComPtrBase@UIOleObject@@@ATL@@QEBA_NPEAUIOleObject@@@Z 0000000180008980 f i PointCardRW.obj
 0001:000079c0       ??8?$CComPtrBase@UIPersistStream@@@ATL@@QEBA_NPEAUIPersistStream@@@Z 00000001800089c0 f i PointCardRW.obj
 0001:00007a00       ??8?$CComPtrBase@UIPersistStreamInit@@@ATL@@QEBA_NPEAUIPersistStreamInit@@@Z 0000000180008a00 f i PointCardRW.obj
 0001:00007a40       ??8?$CComPtrBase@UIPointerInactive@@@ATL@@QEBA_NPEAUIPointerInactive@@@Z 0000000180008a40 f i PointCardRW.obj
 0001:00007a80       ??8?$CComPtrBase@UIUnknown@@@ATL@@QEBA_NPEAUIUnknown@@@Z 0000000180008a80 f i PointCardRW.obj
 0001:00007ac0       ??8?$CComPtrBase@UIViewObjectEx@@@ATL@@QEBA_NPEAUIViewObjectEx@@@Z 0000000180008ac0 f i PointCardRW.obj
 0001:00007b00       ??8CComBSTR@ATL@@QEBA_NH@Z 0000000180008b00 f i PointCardRW.obj
 0001:00007b60       ??9?$CComPtrBase@UIConnectionPointContainer@@@ATL@@QEBA_NPEAUIConnectionPointContainer@@@Z 0000000180008b60 f i PointCardRW.obj
 0001:00007bb0       ??9?$CComPtrBase@UIDataAdviseHolder@@@ATL@@QEBA_NPEAUIDataAdviseHolder@@@Z 0000000180008bb0 f i PointCardRW.obj
 0001:00007c00       ??9?$CComPtrBase@UIOleAdviseHolder@@@ATL@@QEBA_NPEAUIOleAdviseHolder@@@Z 0000000180008c00 f i PointCardRW.obj
 0001:00007c50       ??9?$CComPtrBase@UIOleClientSite@@@ATL@@QEBA_NPEAUIOleClientSite@@@Z 0000000180008c50 f i PointCardRW.obj
 0001:00007ca0       ??9?$CComPtrBase@UIOleControlSite@@@ATL@@QEBA_NPEAUIOleControlSite@@@Z 0000000180008ca0 f i PointCardRW.obj
 0001:00007cf0       ??9?$CComPtrBase@UIOleInPlaceObject@@@ATL@@QEBA_NPEAUIOleInPlaceObject@@@Z 0000000180008cf0 f i PointCardRW.obj
 0001:00007d40       ??9?$CComPtrBase@UIOleInPlaceSiteWindowless@@@ATL@@QEBA_NPEAUIOleInPlaceSiteWindowless@@@Z 0000000180008d40 f i PointCardRW.obj
 0001:00007d90       ??9?$CComPtrBase@UIOleObject@@@ATL@@QEBA_NPEAUIOleObject@@@Z 0000000180008d90 f i PointCardRW.obj
 0001:00007de0       ??9?$CComPtrBase@UIPersistStream@@@ATL@@QEBA_NPEAUIPersistStream@@@Z 0000000180008de0 f i PointCardRW.obj
 0001:00007e30       ??9?$CComPtrBase@UIPersistStreamInit@@@ATL@@QEBA_NPEAUIPersistStreamInit@@@Z 0000000180008e30 f i PointCardRW.obj
 0001:00007e80       ??9?$CComPtrBase@UIPointerInactive@@@ATL@@QEBA_NPEAUIPointerInactive@@@Z 0000000180008e80 f i PointCardRW.obj
 0001:00007ed0       ??9?$CComPtrBase@UIUnknown@@@ATL@@QEBA_NPEAUIUnknown@@@Z 0000000180008ed0 f i PointCardRW.obj
 0001:00007f20       ??9?$CComPtrBase@UIViewObjectEx@@@ATL@@QEBA_NPEAUIViewObjectEx@@@Z 0000000180008f20 f i PointCardRW.obj
 0001:00007f70       ??9CComBSTR@ATL@@QEBA_NH@Z 0000000180008f70 f i PointCardRW.obj
 0001:00007fb0       ??B?$CComPtrBase@UIAdviseSink@@@ATL@@QEBAPEAUIAdviseSink@@XZ 0000000180008fb0 f i PointCardRW.obj
 0001:00007fc0       ??B?$CComPtrBase@UIDataAdviseHolder@@@ATL@@QEBAPEAUIDataAdviseHolder@@XZ 0000000180008fc0 f i PointCardRW.obj
 0001:00007fd0       ??B?$CComPtrBase@UIDataObject@@@ATL@@QEBAPEAUIDataObject@@XZ 0000000180008fd0 f i PointCardRW.obj
 0001:00007fe0       ??B?$CComPtrBase@UIOleAdviseHolder@@@ATL@@QEBAPEAUIOleAdviseHolder@@XZ 0000000180008fe0 f i PointCardRW.obj
 0001:00007ff0       ??B?$CComPtrBase@UIOleClientSite@@@ATL@@QEBAPEAUIOleClientSite@@XZ 0000000180008ff0 f i PointCardRW.obj
 0001:00008000       ??B?$CComPtrBase@UIOleControlSite@@@ATL@@QEBAPEAUIOleControlSite@@XZ 0000000180009000 f i PointCardRW.obj
 0001:00008010       ??B?$CComPtrBase@UIOleInPlaceActiveObject@@@ATL@@QEBAPEAUIOleInPlaceActiveObject@@XZ 0000000180009010 f i PointCardRW.obj
 0001:00008020       ??B?$CComPtrBase@UIOleInPlaceFrame@@@ATL@@QEBAPEAUIOleInPlaceFrame@@XZ 0000000180009020 f i PointCardRW.obj
 0001:00008030       ??B?$CComPtrBase@UIOleInPlaceSiteWindowless@@@ATL@@QEBAPEAUIOleInPlaceSiteWindowless@@XZ 0000000180009030 f i PointCardRW.obj
 0001:00008040       ??B?$CComPtrBase@UIOleInPlaceUIWindow@@@ATL@@QEBAPEAUIOleInPlaceUIWindow@@XZ 0000000180009040 f i PointCardRW.obj
 0001:00008050       ??B?$CComPtrBase@UIOleObject@@@ATL@@QEBAPEAUIOleObject@@XZ 0000000180009050 f i PointCardRW.obj
 0001:00008060       ??B?$CComPtrBase@UIPersistStream@@@ATL@@QEBAPEAUIPersistStream@@XZ 0000000180009060 f i PointCardRW.obj
 0001:00008070       ??B?$CComPtrBase@UIProvideClassInfo2@@@ATL@@QEBAPEAUIProvideClassInfo2@@XZ 0000000180009070 f i PointCardRW.obj
 0001:00008080       ??B?$CComPtrBase@UISpecifyPropertyPages@@@ATL@@QEBAPEAUISpecifyPropertyPages@@XZ 0000000180009080 f i PointCardRW.obj
 0001:00008090       ??B?$CComPtrBase@UIStream@@@ATL@@QEBAPEAUIStream@@XZ 0000000180009090 f i PointCardRW.obj
 0001:000080a0       ??B?$CComPtrBase@UITypeInfo2@@@ATL@@QEBAPEAUITypeInfo2@@XZ 00000001800090a0 f i PointCardRW.obj
 0001:000080b0       ??B?$CComPtrBase@UITypeInfo@@@ATL@@QEBAPEAUITypeInfo@@XZ 00000001800090b0 f i PointCardRW.obj
 0001:000080c0       ??B?$CComPtrBase@UITypeLib@@@ATL@@QEBAPEAUITypeLib@@XZ 00000001800090c0 f i PointCardRW.obj
 0001:000080d0       ??B?$CComPtrBase@UIUnknown@@@ATL@@QEBAPEAUIUnknown@@XZ 00000001800090d0 f i PointCardRW.obj
 0001:000080e0       ??B?$CTempBuffer@E$0BAA@VCCRTAllocator@ATL@@@ATL@@QEBAPEAEXZ 00000001800090e0 f i PointCardRW.obj
 0001:000080f0       ??B?$CTempBuffer@_W$0BAA@VCCRTAllocator@ATL@@@ATL@@QEBAPEA_WXZ 00000001800090f0 f i PointCardRW.obj
 0001:00008100       ??B?$CTempBuffer@_W$0EAA@VCCRTAllocator@ATL@@@ATL@@QEBAPEA_WXZ 0000000180009100 f i PointCardRW.obj
 0001:00008110       ??B?$CTraceCategoryEx@$00$0A@@ATL@@QEAAIXZ 0000000180009110 f i PointCardRW.obj
 0001:00008120       ??B?$CTraceCategoryEx@$07$0A@@ATL@@QEAAIXZ 0000000180009120 f i PointCardRW.obj
 0001:00008130       ??B?$CTraceCategoryEx@$0CAAA@$0A@@ATL@@QEAAIXZ 0000000180009130 f i PointCardRW.obj
 0001:00008140       ??B?$CTraceCategoryEx@$0EA@$0A@@ATL@@QEAAIXZ 0000000180009140 f i PointCardRW.obj
 0001:00008150       ??B?$CTraceCategoryEx@$0IAA@$0A@@ATL@@QEAAIXZ 0000000180009150 f i PointCardRW.obj
 0001:00008160       ??BCComBSTR@ATL@@QEBAPEA_WXZ 0000000180009160 f i PointCardRW.obj
 0001:00008170       ??BCRegKey@ATL@@QEBAPEAUHKEY__@@XZ 0000000180009170 f i PointCardRW.obj
 0001:00008180       ??C?$CComPtrBase@UIAdviseSink@@@ATL@@QEBAPEAV?$_NoAddRefReleaseOnCComPtr@UIAdviseSink@@@1@XZ 0000000180009180 f i PointCardRW.obj
 0001:000081e0       ??C?$CComPtrBase@UICatRegister@@@ATL@@QEBAPEAV?$_NoAddRefReleaseOnCComPtr@UICatRegister@@@1@XZ 00000001800091e0 f i PointCardRW.obj
 0001:00008240       ??C?$CComPtrBase@UIConnectionPoint@@@ATL@@QEBAPEAV?$_NoAddRefReleaseOnCComPtr@UIConnectionPoint@@@1@XZ 0000000180009240 f i PointCardRW.obj
 0001:000082a0       ??C?$CComPtrBase@UIConnectionPointContainer@@@ATL@@QEBAPEAV?$_NoAddRefReleaseOnCComPtr@UIConnectionPointContainer@@@1@XZ 00000001800092a0 f i PointCardRW.obj
 0001:00008300       ??C?$CComPtrBase@UIDataAdviseHolder@@@ATL@@QEBAPEAV?$_NoAddRefReleaseOnCComPtr@UIDataAdviseHolder@@@1@XZ 0000000180009300 f i PointCardRW.obj
 0001:00008360       ??C?$CComPtrBase@UIOleAdviseHolder@@@ATL@@QEBAPEAV?$_NoAddRefReleaseOnCComPtr@UIOleAdviseHolder@@@1@XZ 0000000180009360 f i PointCardRW.obj
 0001:000083c0       ??C?$CComPtrBase@UIOleClientSite@@@ATL@@QEBAPEAV?$_NoAddRefReleaseOnCComPtr@UIOleClientSite@@@1@XZ 00000001800093c0 f i PointCardRW.obj
 0001:00008420       ??C?$CComPtrBase@UIOleControlSite@@@ATL@@QEBAPEAV?$_NoAddRefReleaseOnCComPtr@UIOleControlSite@@@1@XZ 0000000180009420 f i PointCardRW.obj
 0001:00008480       ??C?$CComPtrBase@UIOleInPlaceFrame@@@ATL@@QEBAPEAV?$_NoAddRefReleaseOnCComPtr@UIOleInPlaceFrame@@@1@XZ 0000000180009480 f i PointCardRW.obj
 0001:000084e0       ??C?$CComPtrBase@UIOleInPlaceObject@@@ATL@@QEBAPEAV?$_NoAddRefReleaseOnCComPtr@UIOleInPlaceObject@@@1@XZ 00000001800094e0 f i PointCardRW.obj
 0001:00008540       ??C?$CComPtrBase@UIOleInPlaceSiteWindowless@@@ATL@@QEBAPEAV?$_NoAddRefReleaseOnCComPtr@UIOleInPlaceSiteWindowless@@@1@XZ 0000000180009540 f i PointCardRW.obj
 0001:000085a0       ??C?$CComPtrBase@UIOleInPlaceUIWindow@@@ATL@@QEBAPEAV?$_NoAddRefReleaseOnCComPtr@UIOleInPlaceUIWindow@@@1@XZ 00000001800095a0 f i PointCardRW.obj
 0001:00008600       ??C?$CComPtrBase@UIOleObject@@@ATL@@QEBAPEAV?$_NoAddRefReleaseOnCComPtr@UIOleObject@@@1@XZ 0000000180009600 f i PointCardRW.obj
 0001:00008660       ??C?$CComPtrBase@UIPersistStream@@@ATL@@QEBAPEAV?$_NoAddRefReleaseOnCComPtr@UIPersistStream@@@1@XZ 0000000180009660 f i PointCardRW.obj
 0001:000086c0       ??C?$CComPtrBase@UIPersistStreamInit@@@ATL@@QEBAPEAV?$_NoAddRefReleaseOnCComPtr@UIPersistStreamInit@@@1@XZ 00000001800096c0 f i PointCardRW.obj
 0001:00008720       ??C?$CComPtrBase@UIPointerInactive@@@ATL@@QEBAPEAV?$_NoAddRefReleaseOnCComPtr@UIPointerInactive@@@1@XZ 0000000180009720 f i PointCardRW.obj
 0001:00008780       ??C?$CComPtrBase@UIProvideClassInfo2@@@ATL@@QEBAPEAV?$_NoAddRefReleaseOnCComPtr@UIProvideClassInfo2@@@1@XZ 0000000180009780 f i PointCardRW.obj
 0001:000087e0       ??C?$CComPtrBase@UISpecifyPropertyPages@@@ATL@@QEBAPEAV?$_NoAddRefReleaseOnCComPtr@UISpecifyPropertyPages@@@1@XZ 00000001800097e0 f i PointCardRW.obj
 0001:00008840       ??C?$CComPtrBase@UITypeInfo@@@ATL@@QEBAPEAV?$_NoAddRefReleaseOnCComPtr@UITypeInfo@@@1@XZ 0000000180009840 f i PointCardRW.obj
 0001:000088a0       ??C?$CComPtrBase@UITypeLib@@@ATL@@QEBAPEAV?$_NoAddRefReleaseOnCComPtr@UITypeLib@@@1@XZ 00000001800098a0 f i PointCardRW.obj
 0001:00008900       ??C?$CComPtrBase@UIUnknown@@@ATL@@QEBAPEAV?$_NoAddRefReleaseOnCComPtr@UIUnknown@@@1@XZ 0000000180009900 f i PointCardRW.obj
 0001:00008960       ??C?$CComPtrBase@UIViewObjectEx@@@ATL@@QEBAPEAV?$_NoAddRefReleaseOnCComPtr@UIViewObjectEx@@@1@XZ 0000000180009960 f i PointCardRW.obj
 0001:000089c0       ??I?$CComPtrBase@UICatRegister@@@ATL@@QEAAPEAPEAUICatRegister@@XZ 00000001800099c0 f i PointCardRW.obj
 0001:00008a20       ??I?$CComPtrBase@UIConnectionPoint@@@ATL@@QEAAPEAPEAUIConnectionPoint@@XZ 0000000180009a20 f i PointCardRW.obj
 0001:00008a80       ??I?$CComPtrBase@UIConnectionPointContainer@@@ATL@@QEAAPEAPEAUIConnectionPointContainer@@XZ 0000000180009a80 f i PointCardRW.obj
 0001:00008ae0       ??I?$CComPtrBase@UIDataAdviseHolder@@@ATL@@QEAAPEAPEAUIDataAdviseHolder@@XZ 0000000180009ae0 f i PointCardRW.obj
 0001:00008b40       ??I?$CComPtrBase@UIDataObject@@@ATL@@QEAAPEAPEAUIDataObject@@XZ 0000000180009b40 f i PointCardRW.obj
 0001:00008ba0       ??I?$CComPtrBase@UIDispatch@@@ATL@@QEAAPEAPEAUIDispatch@@XZ 0000000180009ba0 f i PointCardRW.obj
 0001:00008c00       ??I?$CComPtrBase@UIOleAdviseHolder@@@ATL@@QEAAPEAPEAUIOleAdviseHolder@@XZ 0000000180009c00 f i PointCardRW.obj
 0001:00008c60       ??I?$CComPtrBase@UIOleControlSite@@@ATL@@QEAAPEAPEAUIOleControlSite@@XZ 0000000180009c60 f i PointCardRW.obj
 0001:00008cc0       ??I?$CComPtrBase@UIOleInPlaceActiveObject@@@ATL@@QEAAPEAPEAUIOleInPlaceActiveObject@@XZ 0000000180009cc0 f i PointCardRW.obj
 0001:00008d20       ??I?$CComPtrBase@UIOleInPlaceFrame@@@ATL@@QEAAPEAPEAUIOleInPlaceFrame@@XZ 0000000180009d20 f i PointCardRW.obj
 0001:00008d80       ??I?$CComPtrBase@UIOleInPlaceObject@@@ATL@@QEAAPEAPEAUIOleInPlaceObject@@XZ 0000000180009d80 f i PointCardRW.obj
 0001:00008de0       ??I?$CComPtrBase@UIOleInPlaceSiteWindowless@@@ATL@@QEAAPEAPEAUIOleInPlaceSiteWindowless@@XZ 0000000180009de0 f i PointCardRW.obj
 0001:00008e40       ??I?$CComPtrBase@UIOleInPlaceUIWindow@@@ATL@@QEAAPEAPEAUIOleInPlaceUIWindow@@XZ 0000000180009e40 f i PointCardRW.obj
 0001:00008ea0       ??I?$CComPtrBase@UIOleObject@@@ATL@@QEAAPEAPEAUIOleObject@@XZ 0000000180009ea0 f i PointCardRW.obj
 0001:00008f00       ??I?$CComPtrBase@UIPersistStream@@@ATL@@QEAAPEAPEAUIPersistStream@@XZ 0000000180009f00 f i PointCardRW.obj
 0001:00008f60       ??I?$CComPtrBase@UIPointerInactive@@@ATL@@QEAAPEAPEAUIPointerInactive@@XZ 0000000180009f60 f i PointCardRW.obj
 0001:00008fc0       ??I?$CComPtrBase@UIProvideClassInfo2@@@ATL@@QEAAPEAPEAUIProvideClassInfo2@@XZ 0000000180009fc0 f i PointCardRW.obj
 0001:00009020       ??I?$CComPtrBase@UIStream@@@ATL@@QEAAPEAPEAUIStream@@XZ 000000018000a020 f i PointCardRW.obj
 0001:00009080       ??I?$CComPtrBase@UITypeInfo2@@@ATL@@QEAAPEAPEAUITypeInfo2@@XZ 000000018000a080 f i PointCardRW.obj
 0001:000090e0       ??I?$CComPtrBase@UITypeInfo@@@ATL@@QEAAPEAPEAUITypeInfo@@XZ 000000018000a0e0 f i PointCardRW.obj
 0001:00009140       ??I?$CComPtrBase@UITypeLib@@@ATL@@QEAAPEAPEAUITypeLib@@XZ 000000018000a140 f i PointCardRW.obj
 0001:000091a0       ??I?$CComPtrBase@UIUnknown@@@ATL@@QEAAPEAPEAUIUnknown@@XZ 000000018000a1a0 f i PointCardRW.obj
 0001:00009200       ??I?$CComPtrBase@UIViewObjectEx@@@ATL@@QEAAPEAPEAUIViewObjectEx@@XZ 000000018000a200 f i PointCardRW.obj
 0001:00009260       ??ICComBSTR@ATL@@QEAAPEAPEA_WXZ 000000018000a260 f i PointCardRW.obj
 0001:00009270       ??_E?$CComContainedObject@VCOPOSPointCardRW@@@ATL@@W7EAAPEAXI@Z 000000018000a270 f i PointCardRW.obj
 0001:0000927c       ??_E?$CComContainedObject@VCOPOSPointCardRW@@@ATL@@WHA@EAAPEAXI@Z 000000018000a27c f i PointCardRW.obj
 0001:00009288       ??_E?$CComObject@VCOPOSPointCardRW@@@ATL@@W7EAAPEAXI@Z 000000018000a288 f i PointCardRW.obj
 0001:00009294       ??_E?$CComObject@VCOPOSPointCardRW@@@ATL@@WHA@EAAPEAXI@Z 000000018000a294 f i PointCardRW.obj
 0001:000092a0       ??_G?$CComAggObject@VCOPOSPointCardRW@@@ATL@@UEAAPEAXI@Z 000000018000a2a0 f i PointCardRW.obj
 0001:000092a0       ??_E?$CComAggObject@VCOPOSPointCardRW@@@ATL@@UEAAPEAXI@Z 000000018000a2a0 f i PointCardRW.obj
 0001:000092e0       ??_E?$CComContainedObject@VCOPOSPointCardRW@@@ATL@@UEAAPEAXI@Z 000000018000a2e0 f i PointCardRW.obj
 0001:000092e0       ??_G?$CComContainedObject@VCOPOSPointCardRW@@@ATL@@UEAAPEAXI@Z 000000018000a2e0 f i PointCardRW.obj
 0001:00009320       ??_E?$CComObject@V?$CComEnum@UIEnumConnectionPoints@@$1?_GUID_b196b285_bab4_101a_b69c_00aa00341d07@@3U__s_GUID@@BPEAUIConnectionPoint@@V?$_CopyInterface@UIConnectionPoint@@@ATL@@VCComSingleThreadModel@6@@ATL@@@ATL@@UEAAPEAXI@Z 000000018000a320 f i PointCardRW.obj
 0001:00009320       ??_G?$CComObject@V?$CComEnum@UIEnumConnectionPoints@@$1?_GUID_b196b285_bab4_101a_b69c_00aa00341d07@@3U__s_GUID@@BPEAUIConnectionPoint@@V?$_CopyInterface@UIConnectionPoint@@@ATL@@VCComSingleThreadModel@6@@ATL@@@ATL@@UEAAPEAXI@Z 000000018000a320 f i PointCardRW.obj
 0001:00009360       ??_G?$CComObject@V?$CComEnum@UIEnumConnections@@$1?_GUID_b196b287_bab4_101a_b69c_00aa00341d07@@3U__s_GUID@@BUtagCONNECTDATA@@V?$_Copy@UtagCONNECTDATA@@@ATL@@VCComSingleThreadModel@6@@ATL@@@ATL@@UEAAPEAXI@Z 000000018000a360 f i PointCardRW.obj
 0001:00009360       ??_E?$CComObject@V?$CComEnum@UIEnumConnections@@$1?_GUID_b196b287_bab4_101a_b69c_00aa00341d07@@3U__s_GUID@@BUtagCONNECTDATA@@V?$_Copy@UtagCONNECTDATA@@@ATL@@VCComSingleThreadModel@6@@ATL@@@ATL@@UEAAPEAXI@Z 000000018000a360 f i PointCardRW.obj
 0001:000093a0       ??_E?$CComObject@VCOPOSPointCardRW@@@ATL@@UEAAPEAXI@Z 000000018000a3a0 f i PointCardRW.obj
 0001:000093a0       ??_G?$CComObject@VCOPOSPointCardRW@@@ATL@@UEAAPEAXI@Z 000000018000a3a0 f i PointCardRW.obj
 0001:000093e0       ??_E?$CComObjectCached@VCComClassFactory@ATL@@@ATL@@UEAAPEAXI@Z 000000018000a3e0 f i PointCardRW.obj
 0001:000093e0       ??_G?$CComObjectCached@VCComClassFactory@ATL@@@ATL@@UEAAPEAXI@Z 000000018000a3e0 f i PointCardRW.obj
 0001:00009420       ??_GCComClassFactory@ATL@@UEAAPEAXI@Z 000000018000a420 f i PointCardRW.obj
 0001:00009420       ??_ECComClassFactory@ATL@@UEAAPEAXI@Z 000000018000a420 f i PointCardRW.obj
 0001:00009460       ??_GCComModule@ATL@@UEAAPEAXI@Z 000000018000a460 f i PointCardRW.obj
 0001:00009460       ??_ECComModule@ATL@@UEAAPEAXI@Z 000000018000a460 f i PointCardRW.obj
 0001:000094a0       ??_ECRegObject@ATL@@UEAAPEAXI@Z 000000018000a4a0 f i PointCardRW.obj
 0001:000094a0       ??_GCRegObject@ATL@@UEAAPEAXI@Z 000000018000a4a0 f i PointCardRW.obj
 0001:000094e0       ?Add@?$CSimpleArray@GV?$CSimpleArrayEqualHelper@G@ATL@@@ATL@@QEAAHAEBG@Z 000000018000a4e0 f i PointCardRW.obj
 0001:00009670       ?Add@?$CSimpleMap@PEA_WPEA_WVCExpansionVectorEqualHelper@ATL@@@ATL@@QEAAHAEBQEA_W0@Z 000000018000a670 f i PointCardRW.obj
 0001:00009750       ?Add@CComDynamicUnkArray@ATL@@QEAAKPEAUIUnknown@@@Z 000000018000a750 f i PointCardRW.obj
 0001:00009930       ?Add@CExpansionVector@ATL@@QEAAHPEB_W0@Z 000000018000a930 f i PointCardRW.obj
 0001:00009c70       ?AddChar@CParseBuffer@CRegParser@ATL@@QEAAHPEB_W@Z 000000018000ac70 f i PointCardRW.obj
 0001:00009cb0       ?AddCommonRGSReplacements@?$CAtlModuleT@VCComModule@ATL@@@ATL@@UEAAJPEAUIRegistrarBase@@@Z 000000018000acb0 f i PointCardRW.obj
 0001:00009cf0       ?AddCreateWndData@CAtlWinModule@ATL@@QEAAXPEAU_AtlCreateWndData@2@PEAX@Z 000000018000acf0 f i PointCardRW.obj
 0001:00009d20       ?AddRef@?$CComAggObject@VCOPOSPointCardRW@@@ATL@@UEAAKXZ 000000018000ad20 f i PointCardRW.obj
 0001:00009d50       ?AddRef@?$CComContainedObject@VCOPOSPointCardRW@@@ATL@@UEAAKXZ 000000018000ad50 f i PointCardRW.obj
 0001:00009d74       ?AddRef@?$CComContainedObject@VCOPOSPointCardRW@@@ATL@@WBAA@EAAKXZ 000000018000ad74 f i PointCardRW.obj
 0001:00009d80       ?AddRef@?$CComContainedObject@VCOPOSPointCardRW@@@ATL@@WBAI@EAAKXZ 000000018000ad80 f i PointCardRW.obj
 0001:00009d8c       ?AddRef@?$CComContainedObject@VCOPOSPointCardRW@@@ATL@@WBBA@EAAKXZ 000000018000ad8c f i PointCardRW.obj
 0001:00009d98       ?AddRef@?$CComContainedObject@VCOPOSPointCardRW@@@ATL@@WBBI@EAAKXZ 000000018000ad98 f i PointCardRW.obj
 0001:00009da4       ?AddRef@?$CComContainedObject@VCOPOSPointCardRW@@@ATL@@WBCI@EAAKXZ 000000018000ada4 f i PointCardRW.obj
 0001:00009db0       ?AddRef@?$CComContainedObject@VCOPOSPointCardRW@@@ATL@@WBEA@EAAKXZ 000000018000adb0 f i PointCardRW.obj
 0001:00009dbc       ?AddRef@?$CComContainedObject@VCOPOSPointCardRW@@@ATL@@WLI@EAAKXZ 000000018000adbc f i PointCardRW.obj
 0001:00009dc8       ?AddRef@?$CComContainedObject@VCOPOSPointCardRW@@@ATL@@WMA@EAAKXZ 000000018000adc8 f i PointCardRW.obj
 0001:00009dd4       ?AddRef@?$CComContainedObject@VCOPOSPointCardRW@@@ATL@@WMI@EAAKXZ 000000018000add4 f i PointCardRW.obj
 0001:00009de0       ?AddRef@?$CComContainedObject@VCOPOSPointCardRW@@@ATL@@WNA@EAAKXZ 000000018000ade0 f i PointCardRW.obj
 0001:00009dec       ?AddRef@?$CComContainedObject@VCOPOSPointCardRW@@@ATL@@WNI@EAAKXZ 000000018000adec f i PointCardRW.obj
 0001:00009df8       ?AddRef@?$CComContainedObject@VCOPOSPointCardRW@@@ATL@@WOA@EAAKXZ 000000018000adf8 f i PointCardRW.obj
 0001:00009e04       ?AddRef@?$CComContainedObject@VCOPOSPointCardRW@@@ATL@@WOI@EAAKXZ 000000018000ae04 f i PointCardRW.obj
 0001:00009e10       ?AddRef@?$CComContainedObject@VCOPOSPointCardRW@@@ATL@@WPA@EAAKXZ 000000018000ae10 f i PointCardRW.obj
 0001:00009e1c       ?AddRef@?$CComContainedObject@VCOPOSPointCardRW@@@ATL@@WPI@EAAKXZ 000000018000ae1c f i PointCardRW.obj
 0001:00009e30       ?AddRef@?$CComObject@V?$CComEnum@UIEnumConnectionPoints@@$1?_GUID_b196b285_bab4_101a_b69c_00aa00341d07@@3U__s_GUID@@BPEAUIConnectionPoint@@V?$_CopyInterface@UIConnectionPoint@@@ATL@@VCComSingleThreadModel@6@@ATL@@@ATL@@UEAAKXZ 000000018000ae30 f i PointCardRW.obj
 0001:00009e60       ?AddRef@?$CComObject@V?$CComEnum@UIEnumConnections@@$1?_GUID_b196b287_bab4_101a_b69c_00aa00341d07@@3U__s_GUID@@BUtagCONNECTDATA@@V?$_Copy@UtagCONNECTDATA@@@ATL@@VCComSingleThreadModel@6@@ATL@@@ATL@@UEAAKXZ 000000018000ae60 f i PointCardRW.obj
 0001:00009e90       ?AddRef@?$CComObject@VCOPOSPointCardRW@@@ATL@@UEAAKXZ 000000018000ae90 f i PointCardRW.obj
 0001:00009eb4       ?AddRef@?$CComObject@VCOPOSPointCardRW@@@ATL@@WBAA@EAAKXZ 000000018000aeb4 f i PointCardRW.obj
 0001:00009ec0       ?AddRef@?$CComObject@VCOPOSPointCardRW@@@ATL@@WBAI@EAAKXZ 000000018000aec0 f i PointCardRW.obj
 0001:00009ecc       ?AddRef@?$CComObject@VCOPOSPointCardRW@@@ATL@@WBBA@EAAKXZ 000000018000aecc f i PointCardRW.obj
 0001:00009ed8       ?AddRef@?$CComObject@VCOPOSPointCardRW@@@ATL@@WBBI@EAAKXZ 000000018000aed8 f i PointCardRW.obj
 0001:00009ee4       ?AddRef@?$CComObject@VCOPOSPointCardRW@@@ATL@@WBCI@EAAKXZ 000000018000aee4 f i PointCardRW.obj
 0001:00009ef0       ?AddRef@?$CComObject@VCOPOSPointCardRW@@@ATL@@WBEA@EAAKXZ 000000018000aef0 f i PointCardRW.obj
 0001:00009efc       ?AddRef@?$CComObject@VCOPOSPointCardRW@@@ATL@@WLI@EAAKXZ 000000018000aefc f i PointCardRW.obj
 0001:00009f08       ?AddRef@?$CComObject@VCOPOSPointCardRW@@@ATL@@WMA@EAAKXZ 000000018000af08 f i PointCardRW.obj
 0001:00009f14       ?AddRef@?$CComObject@VCOPOSPointCardRW@@@ATL@@WMI@EAAKXZ 000000018000af14 f i PointCardRW.obj
 0001:00009f20       ?AddRef@?$CComObject@VCOPOSPointCardRW@@@ATL@@WNA@EAAKXZ 000000018000af20 f i PointCardRW.obj
 0001:00009f2c       ?AddRef@?$CComObject@VCOPOSPointCardRW@@@ATL@@WNI@EAAKXZ 000000018000af2c f i PointCardRW.obj
 0001:00009f38       ?AddRef@?$CComObject@VCOPOSPointCardRW@@@ATL@@WOA@EAAKXZ 000000018000af38 f i PointCardRW.obj
 0001:00009f44       ?AddRef@?$CComObject@VCOPOSPointCardRW@@@ATL@@WOI@EAAKXZ 000000018000af44 f i PointCardRW.obj
 0001:00009f50       ?AddRef@?$CComObject@VCOPOSPointCardRW@@@ATL@@WPA@EAAKXZ 000000018000af50 f i PointCardRW.obj
 0001:00009f5c       ?AddRef@?$CComObject@VCOPOSPointCardRW@@@ATL@@WPI@EAAKXZ 000000018000af5c f i PointCardRW.obj
 0001:00009f70       ?AddRef@?$CComObjectCached@VCComClassFactory@ATL@@@ATL@@UEAAKXZ 000000018000af70 f i PointCardRW.obj
 0001:00009fc0       ?AddRef@CRegObject@ATL@@UEAAKXZ 000000018000afc0 f i PointCardRW.obj
 0001:0000a020       ?AddReplacement@CRegObject@ATL@@UEAAJPEB_W0@Z 000000018000b020 f i PointCardRW.obj
 0001:0000a150       ?AddString@CParseBuffer@CRegParser@ATL@@QEAAHPEB_W@Z 000000018000b150 f i PointCardRW.obj
 0001:0000a240       ?AddTermFunc@CAtlModule@ATL@@QEAAJP6AX_K@Z0@Z 000000018000b240 f i PointCardRW.obj
 0001:0000a290       ?AddValue@CRegParser@ATL@@IEAAJAEAVCRegKey@2@PEB_WPEA_W@Z 000000018000b290 f i PointCardRW.obj
 0001:0000ab60       ?Advise@?$CProxy_IOPOSEvents@VCOPOSPointCardRW@@@@UEAAJPEAUIUnknown@@PEAK@Z 000000018000bb60 f i PointCardRW.obj
 0001:0000abc0       ?Advise@?$IConnectionPointImpl@VCOPOSPointCardRW@@$1?DIID__IOPOSPointCardRWEvents@@3U_GUID@@BVCComDynamicUnkArray@ATL@@@ATL@@UEAAJPEAUIUnknown@@PEAK@Z 000000018000bbc0 f i PointCardRW.obj
 0001:0000adc0       ?Advise@?$IConnectionPointImpl@VCOPOSPointCardRW@@$1?IID_IPropertyNotifySink@@3U_GUID@@BVCComDynamicUnkArray@ATL@@@ATL@@UEAAJPEAUIUnknown@@PEAK@Z 000000018000bdc0 f i PointCardRW.obj
 0001:0000afc0       ?Advise@?$IOleObjectImpl@VCOPOSPointCardRW@@@ATL@@UEAAJPEAUIAdviseSink@@PEAK@Z 000000018000bfc0 f i PointCardRW.obj
 0001:0000b070       ?Allocate@?$CAtlSafeAllocBufferManager@VCCRTAllocator@ATL@@@_ATL_SAFE_ALLOCA_IMPL@ATL@@QEAAPEAX_K@Z 000000018000c070 f i PointCardRW.obj
 0001:0000b0e0       ?Allocate@?$CTempBuffer@E$0BAA@VCCRTAllocator@ATL@@@ATL@@QEAAPEAE_K@Z 000000018000c0e0 f i PointCardRW.obj
 0001:0000b120       ?Allocate@?$CTempBuffer@_W$0BAA@VCCRTAllocator@ATL@@@ATL@@QEAAPEA_W_K@Z 000000018000c120 f i PointCardRW.obj
 0001:0000b160       ?Allocate@?$CTempBuffer@_W$0EAA@VCCRTAllocator@ATL@@@ATL@@QEAAPEA_W_K@Z 000000018000c160 f i PointCardRW.obj
 0001:0000b1a0       ?AllocateBytes@?$CTempBuffer@E$0BAA@VCCRTAllocator@ATL@@@ATL@@QEAAPEAE_K@Z 000000018000c1a0 f i PointCardRW.obj
 0001:0000b230       ?AllocateBytes@?$CTempBuffer@_W$0BAA@VCCRTAllocator@ATL@@@ATL@@QEAAPEA_W_K@Z 000000018000c230 f i PointCardRW.obj
 0001:0000b2c0       ?AllocateBytes@?$CTempBuffer@_W$0EAA@VCCRTAllocator@ATL@@@ATL@@QEAAPEA_W_K@Z 000000018000c2c0 f i PointCardRW.obj
 0001:0000b350       ?AllocateHeap@?$CTempBuffer@E$0BAA@VCCRTAllocator@ATL@@@ATL@@AEAAX_K@Z 000000018000c350 f i PointCardRW.obj
 0001:0000b3a0       ?AllocateHeap@?$CTempBuffer@_W$0BAA@VCCRTAllocator@ATL@@@ATL@@AEAAX_K@Z 000000018000c3a0 f i PointCardRW.obj
 0001:0000b3f0       ?AllocateHeap@?$CTempBuffer@_W$0EAA@VCCRTAllocator@ATL@@@ATL@@AEAAX_K@Z 000000018000c3f0 f i PointCardRW.obj
 0001:0000b440       ?Append@CParseBuffer@CRegParser@ATL@@QEAAHPEB_WH@Z 000000018000c440 f i PointCardRW.obj
 0001:0000b660       ?AtlCallTermFunc@ATL@@YAXPEAU_ATL_MODULE70@1@@Z 000000018000c660 f i PointCardRW.obj
 0001:0000b700       ?AtlCoTaskMemCAlloc@ATL@@YAPEAXKK@Z 000000018000c700 f i PointCardRW.obj
 0001:0000b780       ?AtlCoTaskMemRecalloc@ATL@@YAPEAXPEAXKK@Z 000000018000c780 f i PointCardRW.obj
 0001:0000b800       ?AtlComModuleGetClassObject@ATL@@YAJPEAU_ATL_COM_MODULE70@1@AEBU_GUID@@1PEAPEAX@Z 000000018000c800 f i PointCardRW.obj
 0001:0000bb30       ?AtlComModuleRegisterServer@ATL@@YAJPEAU_ATL_COM_MODULE70@1@HPEBU_GUID@@@Z 000000018000cb30 f i PointCardRW.obj
 0001:0000bd20       ?AtlComModuleUnregisterServer@ATL@@YAJPEAU_ATL_COM_MODULE70@1@HPEBU_GUID@@@Z 000000018000cd20 f i PointCardRW.obj
 0001:0000be70       ?AtlComQIPtrAssign2@ATL@@YAXPEAPEAUIUnknown@@PEAU2@AEBU_GUID@@@Z 000000018000ce70 f i PointCardRW.obj
 0001:0000bee0       ?AtlCreateTargetDC@ATL@@YAPEAUHDC__@@PEAU2@PEAUtagDVTARGETDEVICE@@@Z 000000018000cee0 f i PointCardRW.obj
 0001:0000c110       ?AtlCrtErrorCheck@ATL@@YAHH@Z 000000018000d110 f i PointCardRW.obj
 0001:0000c180       ?AtlGetPerUserRegistration@ATL@@YAJPEA_N@Z 000000018000d180 f i PointCardRW.obj
 0001:0000c1b0       ?AtlHiMetricToPixel@ATL@@YAXPEBUtagSIZE@@PEAU2@@Z 000000018000d1b0 f i PointCardRW.obj
 0001:0000c390       ?AtlHresultFromLastError@ATL@@YAJXZ 000000018000d390 f i PointCardRW.obj
 0001:0000c3b0       ?AtlHresultFromWin32@ATL@@YAJK@Z 000000018000d3b0 f i PointCardRW.obj
 0001:0000c3d0       ?AtlIPersistStreamInit_Load@ATL@@YAJPEAUIStream@@PEBUATL_PROPMAP_ENTRY@1@PEAXPEAUIUnknown@@@Z 000000018000d3d0 f i PointCardRW.obj
 0001:0000ca50       ?AtlIPersistStreamInit_Save@ATL@@YAJPEAUIStream@@HPEBUATL_PROPMAP_ENTRY@1@PEAXPEAUIUnknown@@@Z 000000018000da50 f i PointCardRW.obj
 0001:0000cfe0       ?AtlInternalOleLoadFromStream@ATL@@YAJPEAUIStream@@AEBU_GUID@@PEAPEAXTClassesAllowedInStream@1@K@Z 000000018000dfe0 f i PointCardRW.obj
 0001:0000d320       ?AtlInternalQueryInterface@ATL@@YAJPEAXPEBU_ATL_INTMAP_ENTRY@1@AEBU_GUID@@PEAPEAX@Z 000000018000e320 f i PointCardRW.obj
 0001:0000d5d0       ?AtlLoadTypeLib@ATL@@YAJPEAUHINSTANCE__@@PEB_WPEAPEA_WPEAPEAUITypeLib@@@Z 000000018000e5d0 f i PointCardRW.obj
 0001:0000daa0       ?AtlModuleAddTermFunc@ATL@@YAJPEAU_ATL_MODULE70@1@P6AX_K@Z1@Z 000000018000eaa0 f i PointCardRW.obj
 0001:0000dc70       ?AtlRegisterClassCategoriesHelper@ATL@@YAJAEBU_GUID@@PEBU_ATL_CATMAP_ENTRY@1@H@Z 000000018000ec70 f i PointCardRW.obj
 0001:0000e440       ?AtlRegisterTypeLib@ATL@@YAJPEAUHINSTANCE__@@PEB_W@Z 000000018000f440 f i PointCardRW.obj
 0001:0000e7a0       ?AtlThrowImpl@ATL@@YAXJ@Z  000000018000f7a0 f i PointCardRW.obj
 0001:0000e870       ?AtlUnRegisterTypeLib@ATL@@YAJPEAUHINSTANCE__@@PEB_W@Z 000000018000f870 f i PointCardRW.obj
 0001:0000eaa0       ?AtlWinModuleAddCreateWndData@ATL@@YAXPEAU_ATL_WIN_MODULE70@1@PEAU_AtlCreateWndData@1@PEAX@Z 000000018000faa0 f i PointCardRW.obj
 0001:0000ec90       ?AtlWinModuleExtractCreateWndData@ATL@@YAPEAXPEAU_ATL_WIN_MODULE70@1@@Z 000000018000fc90 f i PointCardRW.obj
 0001:0000ee90       ?AtlWinModuleRegisterClassExW@ATL@@YAGPEAU_ATL_WIN_MODULE70@1@PEBUtagWNDCLASSEXW@@@Z 000000018000fe90 f i PointCardRW.obj
 0001:0000ef60       ?AtlWinModuleRegisterWndClassInfoW@ATL@@YAGPEAU_ATL_WIN_MODULE70@1@PEAU_ATL_BASE_MODULE70@1@PEAU_ATL_WNDCLASSINFOW@1@PEAP6A_JPEAUHWND__@@I_K_J@Z@Z 000000018000ff60 f i PointCardRW.obj
 0001:0000efd0       ?Attach@?$CAutoVectorPtr@_W@ATL@@QEAAXPEA_W@Z 000000018000ffd0 f i PointCardRW.obj
 0001:0000f040       ?Attach@CComBSTR@ATL@@QEAAXPEA_W@Z 0000000180010040 f i PointCardRW.obj
 0001:0000f080       ?Attach@CRegKey@ATL@@QEAAXPEAUHKEY__@@@Z 0000000180010080 f i PointCardRW.obj
 0001:0000f110       ?CanForceRemoveKey@CRegParser@ATL@@IEAAHPEB_W@Z 0000000180010110 f i PointCardRW.obj
 0001:0000f170       ?ChToByte@CRegParser@ATL@@KAE_W@Z 0000000180010170 f i PointCardRW.obj
 0001:0000f310       ?ChangeType@CComVariant@ATL@@QEAAJGPEBUtagVARIANT@@@Z 0000000180010310 f i PointCardRW.obj
 0001:0000f360       ?Cleanup@CComTypeInfoHolder@ATL@@SAX_K@Z 0000000180010360 f i PointCardRW.obj
 0001:0000f440       ?Clear@CComVariant@ATL@@QEAAJXZ 0000000180010440 f i PointCardRW.obj
 0001:0000f460       ?ClearReplacements@CExpansionVector@ATL@@QEAAJXZ 0000000180010460 f i PointCardRW.obj
 0001:0000f4f0       ?ClearReplacements@CRegObject@ATL@@UEAAJXZ 00000001800104f0 f i PointCardRW.obj
 0001:0000f540       ?Clone@?$CComEnumImpl@UIEnumConnectionPoints@@$1?_GUID_b196b285_bab4_101a_b69c_00aa00341d07@@3U__s_GUID@@BPEAUIConnectionPoint@@V?$_CopyInterface@UIConnectionPoint@@@ATL@@@ATL@@UEAAJPEAPEAUIEnumConnectionPoints@@@Z 0000000180010540 f i PointCardRW.obj
 0001:0000f730       ?Clone@?$CComEnumImpl@UIEnumConnections@@$1?_GUID_b196b287_bab4_101a_b69c_00aa00341d07@@3U__s_GUID@@BUtagCONNECTDATA@@V?$_Copy@UtagCONNECTDATA@@@ATL@@@ATL@@UEAAJPEAPEAUIEnumConnections@@@Z 0000000180010730 f i PointCardRW.obj
 0001:0000f920       ?Close@?$IOleObjectImpl@VCOPOSPointCardRW@@@ATL@@UEAAJK@Z 0000000180010920 f i PointCardRW.obj
 0001:0000f9c0       ?Close@CRegKey@ATL@@QEAAJXZ 00000001800109c0 f i PointCardRW.obj
 0001:0000fa20       ?ContextSensitiveHelp@?$IOleInPlaceActiveObjectImpl@VCOPOSPointCardRW@@@ATL@@UEAAJH@Z 0000000180010a20 f i PointCardRW.obj
 0001:0000fa90       ?ContextSensitiveHelp@?$IOleInPlaceObjectWindowlessImpl@VCOPOSPointCardRW@@@ATL@@UEAAJH@Z 0000000180010a90 f i PointCardRW.obj
 0001:0000fb00       ?ControlQueryInterface@?$CComControl@VCOPOSPointCardRW@@V?$CWindowImpl@VCOPOSPointCardRW@@VCWindow@ATL@@V?$CWinTraits@$0FGAAAAAA@$0A@@3@@ATL@@@ATL@@UEAAJAEBU_GUID@@PEAPEAX@Z 0000000180010b00 f i PointCardRW.obj
 0001:0000fb70       ?CreateControlWindow@?$CComControl@VCOPOSPointCardRW@@V?$CWindowImpl@VCOPOSPointCardRW@@VCWindow@ATL@@V?$CWinTraits@$0FGAAAAAA@$0A@@3@@ATL@@@ATL@@UEAAPEAUHWND__@@PEAU3@AEAUtagRECT@@@Z 0000000180010b70 f i PointCardRW.obj
 0001:0000fc40       ?CreateInstance@?$CComCreator@V?$CComAggObject@VCOPOSPointCardRW@@@ATL@@@ATL@@SAJPEAXAEBU_GUID@@PEAPEAX@Z 0000000180010c40 f i PointCardRW.obj
 0001:0000fe10       ?CreateInstance@?$CComCreator@V?$CComObject@VCOPOSPointCardRW@@@ATL@@@ATL@@SAJPEAXAEBU_GUID@@PEAPEAX@Z 0000000180010e10 f i PointCardRW.obj
 0001:0000fff0       ?CreateInstance@?$CComObject@V?$CComEnum@UIEnumConnectionPoints@@$1?_GUID_b196b285_bab4_101a_b69c_00aa00341d07@@3U__s_GUID@@BPEAUIConnectionPoint@@V?$_CopyInterface@UIConnectionPoint@@@ATL@@VCComSingleThreadModel@6@@ATL@@@ATL@@SAJPEAPEAV12@@Z 0000000180010ff0 f i PointCardRW.obj
 0001:000101a0       ?CreateInstance@?$CComObject@V?$CComEnum@UIEnumConnections@@$1?_GUID_b196b287_bab4_101a_b69c_00aa00341d07@@3U__s_GUID@@BUtagCONNECTDATA@@V?$_Copy@UtagCONNECTDATA@@@ATL@@VCComSingleThreadModel@6@@ATL@@@ATL@@SAJPEAPEAV12@@Z 00000001800111a0 f i PointCardRW.obj
 0001:00010350       ?CreateInstance@CComClassFactory@ATL@@UEAAJPEAUIUnknown@@AEBU_GUID@@PEAPEAX@Z 0000000180011350 f i PointCardRW.obj
 0001:00010460       ?DAdvise@?$IDataObjectImpl@VCOPOSPointCardRW@@@ATL@@UEAAJPEAUtagFORMATETC@@KPEAUIAdviseSink@@PEAK@Z 0000000180011460 f i PointCardRW.obj
 0001:000105a0       ?DEVMODEOLE2T_EX@@YAPEAU_devicemodeW@@PEAU1@@Z 00000001800115a0 f i PointCardRW.obj
 0001:000105b0       ?DUnadvise@?$IDataObjectImpl@VCOPOSPointCardRW@@@ATL@@UEAAJK@Z 00000001800115b0 f i PointCardRW.obj
 0001:000106a0       ?Decrement@CComMultiThreadModel@ATL@@SAKPEAJ@Z 00000001800116a0 f i PointCardRW.obj
 0001:000106c0       ?Decrement@CComSingleThreadModel@ATL@@SAKPEAJ@Z 00000001800116c0 f i PointCardRW.obj
 0001:000106e0       ?DefWindowProcW@?$CWindowImplBaseT@VCWindow@ATL@@V?$CWinTraits@$0FGAAAAAA@$0A@@2@@ATL@@QEAA_JI_K_J@Z 00000001800116e0 f i PointCardRW.obj
 0001:00010730       ?DefaultReflectionHandler@?$CWindowImplRoot@VCWindow@ATL@@@ATL@@SAHPEAUHWND__@@I_K_JAEA_J@Z 0000000180011730 f i PointCardRW.obj
 0001:00010a30       ?DeleteSubKey@CRegKey@ATL@@QEAAJPEB_W@Z 0000000180011a30 f i PointCardRW.obj
 0001:00010b40       ?DeleteValue@CRegKey@ATL@@QEAAJPEB_W@Z 0000000180011b40 f i PointCardRW.obj
 0001:00010bc0       ?Detach@?$CAutoVectorPtr@_W@ATL@@QEAAPEA_WXZ 0000000180011bc0 f i PointCardRW.obj
 0001:00010bf0       ?Detach@?$CComPtrBase@UIPersistStream@@@ATL@@QEAAPEAUIPersistStream@@XZ 0000000180011bf0 f i PointCardRW.obj
 0001:00010c20       ?Detach@?$CComPtrBase@UITypeInfo@@@ATL@@QEAAPEAUITypeInfo@@XZ 0000000180011c20 f i PointCardRW.obj
 0001:00010c50       ?Detach@?$CComPtrBase@UIUnknown@@@ATL@@QEAAPEAUIUnknown@@XZ 0000000180011c50 f i PointCardRW.obj
 0001:00010c80       ?Detach@CComBSTR@ATL@@QEAAPEA_WXZ 0000000180011c80 f i PointCardRW.obj
 0001:00010cb0       ?Detach@CParseBuffer@CRegParser@ATL@@QEAAPEA_WXZ 0000000180011cb0 f i PointCardRW.obj
 0001:00010d00       ?Detach@CRegKey@ATL@@QEAAPEAUHKEY__@@XZ 0000000180011d00 f i PointCardRW.obj
 0001:00010d50       ?DoEvent@COPOSPointCardRW@@IEAAXI_K_J@Z 0000000180011d50 f i PointCardRW.obj
 0001:00010e70       ?DoVerb@?$IOleObjectImpl@VCOPOSPointCardRW@@@ATL@@UEAAJJPEAUtagMSG@@PEAUIOleClientSite@@JPEAUHWND__@@PEBUtagRECT@@@Z 0000000180011e70 f i PointCardRW.obj
 0001:00011170       ?DoVerbDiscardUndo@?$IOleObjectImpl@VCOPOSPointCardRW@@@ATL@@QEAAJPEBUtagRECT@@PEAUHWND__@@@Z 0000000180012170 f i PointCardRW.obj
 0001:000111f0       ?DoVerbHide@?$IOleObjectImpl@VCOPOSPointCardRW@@@ATL@@QEAAJPEBUtagRECT@@PEAUHWND__@@@Z 00000001800121f0 f i PointCardRW.obj
 0001:000112c0       ?DoVerbInPlaceActivate@?$IOleObjectImpl@VCOPOSPointCardRW@@@ATL@@QEAAJPEBUtagRECT@@PEAUHWND__@@@Z 00000001800122c0 f i PointCardRW.obj
 0001:00011380       ?DoVerbOpen@?$IOleObjectImpl@VCOPOSPointCardRW@@@ATL@@QEAAJPEBUtagRECT@@PEAUHWND__@@@Z 0000000180012380 f i PointCardRW.obj
 0001:00011400       ?DoVerbPrimary@?$IOleObjectImpl@VCOPOSPointCardRW@@@ATL@@QEAAJPEBUtagRECT@@PEAUHWND__@@@Z 0000000180012400 f i PointCardRW.obj
 0001:00011540       ?DoVerbProperties@CComControlBase@ATL@@QEAAJPEBUtagRECT@@PEAUHWND__@@@Z 0000000180012540 f i PointCardRW.obj
 0001:000118f0       ?DoVerbShow@?$IOleObjectImpl@VCOPOSPointCardRW@@@ATL@@QEAAJPEBUtagRECT@@PEAUHWND__@@@Z 00000001800128f0 f i PointCardRW.obj
 0001:000119a0       ?DoVerbUIActivate@?$IOleObjectImpl@VCOPOSPointCardRW@@@ATL@@QEAAJPEBUtagRECT@@PEAUHWND__@@@Z 00000001800129a0 f i PointCardRW.obj
 0001:00011a60       ?DoesVerbActivate@CComControlBase@ATL@@QEAAHJ@Z 0000000180012a60 f i PointCardRW.obj
 0001:00011ab0       ?DoesVerbUIActivate@CComControlBase@ATL@@QEAAHJ@Z 0000000180012ab0 f i PointCardRW.obj
 0001:00011b20       ?Draw@?$IViewObjectExImpl@VCOPOSPointCardRW@@@ATL@@UEAAJKJPEAXPEAUtagDVTARGETDEVICE@@PEAUHDC__@@2PEBU_RECTL@@3P6AH_K@Z4@Z 0000000180012b20 f i PointCardRW.obj
 0001:00011c30       ?Empty@CComBSTR@ATL@@QEAAXXZ 0000000180012c30 f i PointCardRW.obj
 0001:00011c60       ?EnableModeless@?$IOleInPlaceActiveObjectImpl@VCOPOSPointCardRW@@@ATL@@UEAAJH@Z 0000000180012c60 f i PointCardRW.obj
 0001:00011cc0       ?EndOfVar@CRegParser@ATL@@IEAAHXZ 0000000180012cc0 f i PointCardRW.obj
 0001:00011d10       ?EnsureTI@CComTypeInfoHolder@ATL@@QEAAJK@Z 0000000180012d10 f i PointCardRW.obj
 0001:00011d60       ?EnumAdvise@?$IOleObjectImpl@VCOPOSPointCardRW@@@ATL@@UEAAJPEAPEAUIEnumSTATDATA@@@Z 0000000180012d60 f i PointCardRW.obj
 0001:00011eb0       ?EnumConnectionPoints@?$IConnectionPointContainerImpl@VCOPOSPointCardRW@@@ATL@@UEAAJPEAPEAUIEnumConnectionPoints@@@Z 0000000180012eb0 f i PointCardRW.obj
 0001:000123a0       ?EnumConnections@?$IConnectionPointImpl@VCOPOSPointCardRW@@$1?DIID__IOPOSPointCardRWEvents@@3U_GUID@@BVCComDynamicUnkArray@ATL@@@ATL@@UEAAJPEAPEAUIEnumConnections@@@Z 00000001800133a0 f i PointCardRW.obj
 0001:000126d0       ?EnumConnections@?$IConnectionPointImpl@VCOPOSPointCardRW@@$1?IID_IPropertyNotifySink@@3U_GUID@@BVCComDynamicUnkArray@ATL@@@ATL@@UEAAJPEAPEAUIEnumConnections@@@Z 00000001800136d0 f i PointCardRW.obj
 0001:00012a00       ?EnumDAdvise@?$IDataObjectImpl@VCOPOSPointCardRW@@@ATL@@UEAAJPEAPEAUIEnumSTATDATA@@@Z 0000000180013a00 f i PointCardRW.obj
 0001:00012b30       ?EnumFormatEtc@?$IDataObjectImpl@VCOPOSPointCardRW@@@ATL@@UEAAJKPEAPEAUIEnumFORMATETC@@@Z 0000000180013b30 f i PointCardRW.obj
 0001:00012bb0       ?EnumVerbs@?$IOleObjectImpl@VCOPOSPointCardRW@@@ATL@@UEAAJPEAPEAUIEnumOLEVERB@@@Z 0000000180013bb0 f i PointCardRW.obj
 0001:00012c70       ?EscapeSingleQuote@CAtlModule@ATL@@SAXPEA_W_KPEB_W@Z 0000000180013c70 f i PointCardRW.obj
 0001:00012d50       ?ExtractCreateWndData@CAtlWinModule@ATL@@QEAAPEAXXZ 0000000180013d50 f i PointCardRW.obj
 0001:00012d70       ?FAccessAllowed@?$IObjectSafetyImpl@VCOPOSPointCardRW@@$02@ATL@@MEAAHXZ 0000000180013d70 f i PointCardRW.obj
 0001:00012d80       ?FinalConstruct@?$CComAggObject@VCOPOSPointCardRW@@@ATL@@QEAAJXZ 0000000180013d80 f i PointCardRW.obj
 0001:00012dc0       ?FinalConstruct@CComObjectRootBase@ATL@@QEAAJXZ 0000000180013dc0 f i PointCardRW.obj
 0001:00012dd0       ?FinalConstruct@CRegObject@ATL@@QEAAJXZ 0000000180013dd0 f i PointCardRW.obj
 0001:00012e00       ?FinalRelease@?$CComAggObject@VCOPOSPointCardRW@@@ATL@@QEAAXXZ 0000000180013e00 f i PointCardRW.obj
 0001:00012e40       ?FinalRelease@CComObjectRootBase@ATL@@QEAAXXZ 0000000180013e40 f i PointCardRW.obj
 0001:00012e50       ?FindConnectionPoint@?$IConnectionPointContainerImpl@VCOPOSPointCardRW@@@ATL@@UEAAJAEBU_GUID@@PEAPEAUIConnectionPoint@@@Z 0000000180013e50 f i PointCardRW.obj
 0001:00012fc0       ?FindKey@?$CSimpleMap@PEA_WPEA_WVCExpansionVectorEqualHelper@ATL@@@ATL@@QEBAHAEBQEA_W@Z 0000000180013fc0 f i PointCardRW.obj
 0001:00013030       ?FireTheEvent@?$CProxy_IOPOSEvents@VCOPOSPointCardRW@@@@IEAAXPEAUIUnknown@@PEAVOposVariant@@IAEAJPEB_WJ@Z 0000000180014030 f i PointCardRW.obj
 0001:00013210       ?FireViewChange@CComControlBase@ATL@@QEAAJXZ 0000000180014210 f i PointCardRW.obj
 0001:000132e0       ?Fire_DataEvent@?$CProxy_IOPOSEvents@VCOPOSPointCardRW@@@@QEAAXJ@Z 00000001800142e0 f i PointCardRW.obj
 0001:000134d0       ?Fire_DirectIOEvent@?$CProxy_IOPOSEvents@VCOPOSPointCardRW@@@@QEAAXJPEAJPEAPEA_W@Z 00000001800144d0 f i PointCardRW.obj
 0001:00013770       ?Fire_ErrorEvent@?$CProxy_IOPOSEvents@VCOPOSPointCardRW@@@@QEAAXJJJPEAJ@Z 0000000180014770 f i PointCardRW.obj
 0001:00013a20       ?Fire_OutputCompleteEvent@?$CProxy_IOPOSEvents@VCOPOSPointCardRW@@@@QEAAXJ@Z 0000000180014a20 f i PointCardRW.obj
 0001:00013c10       ?Fire_StatusUpdateEvent@?$CProxy_IOPOSEvents@VCOPOSPointCardRW@@@@QEAAXJ@Z 0000000180014c10 f i PointCardRW.obj
 0001:00013e00       ?FormatWindowClassName@AtlModuleRegisterWndClassInfoParamW@ATL@@SAXPEA_WKPEAX@Z 0000000180014e00 f i PointCardRW.obj
 0001:00013e40       ?Free@?$CAutoVectorPtr@_W@ATL@@QEAAXXZ 0000000180014e40 f i PointCardRW.obj
 0001:00013e80       ?FreeHeap@?$CTempBuffer@E$0BAA@VCCRTAllocator@ATL@@@ATL@@AEAAXXZ 0000000180014e80 f i PointCardRW.obj
 0001:00013ea0       ?FreeHeap@?$CTempBuffer@_W$0BAA@VCCRTAllocator@ATL@@@ATL@@AEAAXXZ 0000000180014ea0 f i PointCardRW.obj
 0001:00013ec0       ?FreeHeap@?$CTempBuffer@_W$0EAA@VCCRTAllocator@ATL@@@ATL@@AEAAXXZ 0000000180014ec0 f i PointCardRW.obj
 0001:00013ee0       ?Freeze@?$IViewObjectExImpl@VCOPOSPointCardRW@@@ATL@@UEAAJKJPEAXPEAK@Z 0000000180014ee0 f i PointCardRW.obj
 0001:00013f60       ?GenerateError@CRegParser@ATL@@IEAAJI@Z 0000000180014f60 f i PointCardRW.obj
 0001:00013f80       ?GetAdvise@?$IViewObjectExImpl@VCOPOSPointCardRW@@@ATL@@UEAAJPEAK0PEAPEAUIAdviseSink@@@Z 0000000180014f80 f i PointCardRW.obj
 0001:000140c0       ?GetAmbientLocaleID@CComControlBase@ATL@@QEAAJAEAK@Z 00000001800150c0 f i PointCardRW.obj
 0001:000141a0       ?GetAmbientProperty@CComControlBase@ATL@@QEAAJJAEAUtagVARIANT@@@Z 00000001800151a0 f i PointCardRW.obj
 0001:000141f0       ?GetAmbientUserMode@CComControlBase@ATL@@QEAAJAEAH@Z 00000001800151f0 f i PointCardRW.obj
 0001:00014310       ?GetAppId@?$CAtlModuleT@VCComModule@ATL@@@ATL@@SAPEB_WXZ 0000000180015310 f i PointCardRW.obj
 0001:00014320       ?GetAt@CComDynamicUnkArray@ATL@@QEAAPEAUIUnknown@@H@Z 0000000180015320 f i PointCardRW.obj
 0001:000143b0       ?GetCanonicalFormatEtc@?$IDataObjectImpl@VCOPOSPointCardRW@@@ATL@@UEAAJPEAUtagFORMATETC@@0@Z 00000001800153b0 f i PointCardRW.obj
 0001:00014430       ?GetClassID@?$IPersistStorageImpl@VCOPOSPointCardRW@@@ATL@@UEAAJPEAU_GUID@@@Z 0000000180015430 f i PointCardRW.obj
 0001:000144b0       ?GetClassID@?$IPersistStreamInitImpl@VCOPOSPointCardRW@@@ATL@@UEAAJPEAU_GUID@@@Z 00000001800154b0 f i PointCardRW.obj
 0001:00014530       ?GetClassInfoExW@AtlModuleRegisterWndClassInfoParamW@ATL@@SAHPEAUHINSTANCE__@@PEB_WPEAUtagWNDCLASSEXW@@@Z 0000000180015530 f i PointCardRW.obj
 0001:00014560       ?GetClassInfoW@?$IProvideClassInfo2Impl@$1?CLSID_OPOSPointCardRW@@3U_GUID@@B$1?DIID__IOPOSPointCardRWEvents@@3U2@B$1?LIBID_OposPointCardRW_CCO@@3U2@B$00$0A@VCComTypeInfoHolder@ATL@@@ATL@@UEAAJPEAPEAUITypeInfo@@@Z 0000000180015560 f i PointCardRW.obj
 0001:00014590       ?GetClassObject@CComModule@ATL@@QEAAJAEBU_GUID@@0PEAPEAX@Z 0000000180015590 f i PointCardRW.obj
 0001:00014800       ?GetClientSite@?$IOleObjectImpl@VCOPOSPointCardRW@@@ATL@@UEAAJPEAPEAUIOleClientSite@@@Z 0000000180015800 f i PointCardRW.obj
 0001:000148a0       ?GetClipboardData@?$IOleObjectImpl@VCOPOSPointCardRW@@@ATL@@UEAAJKPEAPEAUIDataObject@@@Z 00000001800158a0 f i PointCardRW.obj
 0001:00014920       ?GetCodeAddress@CDynamicStdCallThunk2@ATL@@QEAAPEAXXZ 0000000180015920 f i PointCardRW.obj
 0001:00014940       ?GetColorSet@?$IViewObjectExImpl@VCOPOSPointCardRW@@@ATL@@UEAAJKJPEAXPEAUtagDVTARGETDEVICE@@PEAUHDC__@@PEAPEAUtagLOGPALETTE@@@Z 0000000180015940 f i PointCardRW.obj
 0001:000149c0       ?GetConnMap@COPOSPointCardRW@@SAPEBU_ATL_CONNMAP_ENTRY@ATL@@PEAH@Z 00000001800159c0 f i PointCardRW.obj
 0001:00014b10       ?GetConnectionInterface@?$IConnectionPointImpl@VCOPOSPointCardRW@@$1?DIID__IOPOSPointCardRWEvents@@3U_GUID@@BVCComDynamicUnkArray@ATL@@@ATL@@UEAAJPEAU_GUID@@@Z 0000000180015b10 f i PointCardRW.obj
 0001:00014b50       ?GetConnectionInterface@?$IConnectionPointImpl@VCOPOSPointCardRW@@$1?IID_IPropertyNotifySink@@3U_GUID@@BVCComDynamicUnkArray@ATL@@@ATL@@UEAAJPEAU_GUID@@@Z 0000000180015b50 f i PointCardRW.obj
 0001:00014b90       ?GetConnectionPointContainer@?$IConnectionPointImpl@VCOPOSPointCardRW@@$1?DIID__IOPOSPointCardRWEvents@@3U_GUID@@BVCComDynamicUnkArray@ATL@@@ATL@@UEAAJPEAPEAUIConnectionPointContainer@@@Z 0000000180015b90 f i PointCardRW.obj
 0001:00014bf0       ?GetConnectionPointContainer@?$IConnectionPointImpl@VCOPOSPointCardRW@@$1?IID_IPropertyNotifySink@@3U_GUID@@BVCComDynamicUnkArray@ATL@@@ATL@@UEAAJPEAPEAUIConnectionPointContainer@@@Z 0000000180015bf0 f i PointCardRW.obj
 0001:00014c50       ?GetContentExtent@?$IQuickActivateImpl@VCOPOSPointCardRW@@@ATL@@UEAAJPEAUtagSIZE@@@Z 0000000180015c50 f i PointCardRW.obj
 0001:00014d00       ?GetControlInfo@?$IOleControlImpl@VCOPOSPointCardRW@@@ATL@@UEAAJPEAUtagCONTROLINFO@@@Z 0000000180015d00 f i PointCardRW.obj
 0001:00014d70       ?GetCookie@CComDynamicUnkArray@ATL@@QEAAKPEAPEAUIUnknown@@@Z 0000000180015d70 f i PointCardRW.obj
 0001:00014e50       ?GetData@?$IDataObjectImpl@VCOPOSPointCardRW@@@ATL@@UEAAJPEAUtagFORMATETC@@PEAUtagSTGMEDIUM@@@Z 0000000180015e50 f i PointCardRW.obj
 0001:00014f00       ?GetData@CAtlSafeAllocBufferNode@?$CAtlSafeAllocBufferManager@VCCRTAllocator@ATL@@@_ATL_SAFE_ALLOCA_IMPL@ATL@@QEAAPEAXXZ 0000000180015f00 f i PointCardRW.obj
 0001:00014f20       ?GetDataHere@?$IDataObjectImpl@VCOPOSPointCardRW@@@ATL@@UEAAJPEAUtagFORMATETC@@PEAUtagSTGMEDIUM@@@Z 0000000180015f20 f i PointCardRW.obj
 0001:00014fa0       ?GetDropTarget@?$IOleInPlaceObjectWindowlessImpl@VCOPOSPointCardRW@@@ATL@@UEAAJPEAPEAUIDropTarget@@@Z 0000000180015fa0 f i PointCardRW.obj
 0001:00015010       ?GetExtent@?$IOleObjectImpl@VCOPOSPointCardRW@@@ATL@@UEAAJKPEAUtagSIZE@@@Z 0000000180016010 f i PointCardRW.obj
 0001:000150d0       ?GetExtent@?$IViewObjectExImpl@VCOPOSPointCardRW@@@ATL@@UEAAJKJPEAUtagDVTARGETDEVICE@@PEAUtagSIZE@@@Z 00000001800160d0 f i PointCardRW.obj
 0001:000151d0       ?GetGITPtr@CAtlModule@ATL@@UEAAJPEAPEAUIGlobalInterfaceTable@@@Z 00000001800161d0 f i PointCardRW.obj
 0001:00015300       ?GetGUID@?$IProvideClassInfo2Impl@$1?CLSID_OPOSPointCardRW@@3U_GUID@@B$1?DIID__IOPOSPointCardRWEvents@@3U2@B$1?LIBID_OposPointCardRW_CCO@@3U2@B$00$0A@VCComTypeInfoHolder@ATL@@@ATL@@UEAAJKPEAU_GUID@@@Z 0000000180016300 f i PointCardRW.obj
 0001:00015380       ?GetIDsOfNames@?$IDispatchImpl@UIOPOSPointCardRW@@$1?IID_IOPOSPointCardRW@@3U_GUID@@B$1?LIBID_OposPointCardRW_CCO@@3U3@B$00$0A@VCComTypeInfoHolder@ATL@@@ATL@@UEAAJAEBU_GUID@@PEAPEA_WIKPEAJ@Z 0000000180016380 f i PointCardRW.obj
 0001:000153d0       ?GetIDsOfNames@CComTypeInfoHolder@ATL@@QEAAJAEBU_GUID@@PEAPEA_WIKPEAJ@Z 00000001800163d0 f i PointCardRW.obj
 0001:000155e0       ?GetInterfaceSafetyOptions@?$IObjectSafetyImpl@VCOPOSPointCardRW@@$02@ATL@@UEAAJAEBU_GUID@@PEAK1@Z 00000001800165e0 f i PointCardRW.obj
 0001:00015780       ?GetKeyAt@?$CSimpleMap@PEA_WPEA_WVCExpansionVectorEqualHelper@ATL@@@ATL@@QEBAAEAPEA_WH@Z 0000000180016780 f i PointCardRW.obj
 0001:00015820       ?GetLockCount@CAtlModule@ATL@@UEAAJXZ 0000000180016820 f i PointCardRW.obj
 0001:00015830       ?GetMiscStatus@?$IOleObjectImpl@VCOPOSPointCardRW@@@ATL@@UEAAJKPEAK@Z 0000000180016830 f i PointCardRW.obj
 0001:000158b0       ?GetMoniker@?$IOleObjectImpl@VCOPOSPointCardRW@@@ATL@@UEAAJKKPEAPEAUIMoniker@@@Z 00000001800168b0 f i PointCardRW.obj
 0001:00015930       ?GetNaturalExtent@?$IViewObjectExImpl@VCOPOSPointCardRW@@@ATL@@UEAAJKJPEAUtagDVTARGETDEVICE@@PEAUHDC__@@PEAUtagExtentInfo@@PEAUtagSIZE@@@Z 0000000180016930 f i PointCardRW.obj
 0001:00015ab0       ?GetObjectCLSID@?$CComCoClass@VCOPOSPointCardRW@@$1?CLSID_OPOSPointCardRW@@3U_GUID@@B@ATL@@SAAEBU_GUID@@XZ 0000000180016ab0 f i PointCardRW.obj
 0001:00015ac0       ?GetPages@?$ISpecifyPropertyPagesImpl@VCOPOSPointCardRW@@@ATL@@UEAAJPEAUtagCAUUID@@@Z 0000000180016ac0 f i PointCardRW.obj
 0001:00015b40       ?GetPagesHelper@?$ISpecifyPropertyPagesImpl@VCOPOSPointCardRW@@@ATL@@IEAAJPEAUtagCAUUID@@PEBUATL_PROPMAP_ENTRY@2@@Z 0000000180016b40 f i PointCardRW.obj
 0001:00015da0       ?GetProperty@?$CComPtr@UIDispatch@@@ATL@@QEAAJJPEAUtagVARIANT@@@Z 0000000180016da0 f i PointCardRW.obj
 0001:00015dd0       ?GetProperty@?$CComPtr@UIDispatch@@@ATL@@SAJPEAUIDispatch@@JPEAUtagVARIANT@@@Z 0000000180016dd0 f i PointCardRW.obj
 0001:00015fa0       ?GetPropertyMap@COPOSPointCardRW@@SAPEBUATL_PROPMAP_ENTRY@ATL@@XZ 0000000180016fa0 f i PointCardRW.obj
 0001:00015fb0       ?GetRect@?$IViewObjectExImpl@VCOPOSPointCardRW@@@ATL@@UEAAJKPEAU_RECTL@@@Z 0000000180016fb0 f i PointCardRW.obj
 0001:00016030       ?GetSize@?$CSimpleMap@PEA_WPEA_WVCExpansionVectorEqualHelper@ATL@@@ATL@@QEBAHXZ 0000000180017030 f i PointCardRW.obj
 0001:00016040       ?GetSize@CComDynamicUnkArray@ATL@@QEBAHXZ 0000000180017040 f i PointCardRW.obj
 0001:00016050       ?GetSizeMax@?$IPersistStreamInitImpl@VCOPOSPointCardRW@@@ATL@@UEAAJPEAT_ULARGE_INTEGER@@@Z 0000000180017050 f i PointCardRW.obj
 0001:000167f0       ?GetSizeMax@CComVariant@ATL@@QEBAJPEAT_ULARGE_INTEGER@@@Z 00000001800177f0 f i PointCardRW.obj
 0001:00016c40       ?GetStreamSize@CComBSTR@ATL@@SAKPEA_W@Z 0000000180017c40 f i PointCardRW.obj
 0001:00016c80       ?GetTI@CComTypeInfoHolder@ATL@@QEAAJK@Z 0000000180017c80 f i PointCardRW.obj
 0001:00017550       ?GetTI@CComTypeInfoHolder@ATL@@QEAAJKPEAPEAUITypeInfo@@@Z 0000000180018550 f i PointCardRW.obj
 0001:00017630       ?GetTypeInfo@?$IDispatchImpl@UIOPOSPointCardRW@@$1?IID_IOPOSPointCardRW@@3U_GUID@@B$1?LIBID_OposPointCardRW_CCO@@3U3@B$00$0A@VCComTypeInfoHolder@ATL@@@ATL@@UEAAJIKPEAPEAUITypeInfo@@@Z 0000000180018630 f i PointCardRW.obj
 0001:00017670       ?GetTypeInfo@CComTypeInfoHolder@ATL@@QEAAJIKPEAPEAUITypeInfo@@@Z 0000000180018670 f i PointCardRW.obj
 0001:000176b0       ?GetTypeInfoCount@?$IDispatchImpl@UIOPOSPointCardRW@@$1?IID_IOPOSPointCardRW@@3U_GUID@@B$1?LIBID_OposPointCardRW_CCO@@3U3@B$00$0A@VCComTypeInfoHolder@ATL@@@ATL@@UEAAJPEAI@Z 00000001800186b0 f i PointCardRW.obj
 0001:000176e0       ?GetUnknown@CComDynamicUnkArray@ATL@@QEAAPEAUIUnknown@@K@Z 00000001800186e0 f i PointCardRW.obj
 0001:00017770       ?GetUnknown@COPOSPointCardRW@@QEAAPEAUIUnknown@@XZ 0000000180018770 f i PointCardRW.obj
 0001:00017790       ?GetUserClassID@?$IOleObjectImpl@VCOPOSPointCardRW@@@ATL@@UEAAJPEAU_GUID@@@Z 0000000180018790 f i PointCardRW.obj
 0001:00017850       ?GetUserType@?$IOleObjectImpl@VCOPOSPointCardRW@@@ATL@@UEAAJKPEAPEA_W@Z 0000000180018850 f i PointCardRW.obj
 0001:000178d0       ?GetValueAt@?$CSimpleMap@PEA_WPEA_WVCExpansionVectorEqualHelper@ATL@@@ATL@@QEBAAEAPEA_WH@Z 00000001800188d0 f i PointCardRW.obj
 0001:00017970       ?GetViewStatus@?$IViewObjectExImpl@VCOPOSPointCardRW@@@ATL@@UEAAJPEAK@Z 0000000180018970 f i PointCardRW.obj
 0001:00017a60       ?GetWNDPROC@CWndProcThunk@ATL@@QEAAP6A_JPEAUHWND__@@I_K_J@ZXZ 0000000180018a60 f i PointCardRW.obj
 0001:00017a90       ?GetWindow@?$IOleInPlaceActiveObjectImpl@VCOPOSPointCardRW@@@ATL@@UEAAJPEAPEAUHWND__@@@Z 0000000180018a90 f i PointCardRW.obj
 0001:00017b80       ?GetWindow@?$IOleInPlaceObjectWindowlessImpl@VCOPOSPointCardRW@@@ATL@@UEAAJPEAPEAUHWND__@@@Z 0000000180018b80 f i PointCardRW.obj
 0001:00017c70       ?GetWindowProc@?$CWindowImplBaseT@VCWindow@ATL@@V?$CWinTraits@$0FGAAAAAA@$0A@@2@@ATL@@UEAAP6A_JPEAUHWND__@@I_K_J@ZXZ 0000000180018c70 f i PointCardRW.obj
 0001:00017c80       ?GetWndCaption@?$CWindowImpl@VCOPOSPointCardRW@@VCWindow@ATL@@V?$CWinTraits@$0FGAAAAAA@$0A@@3@@ATL@@SAPEB_WXZ 0000000180018c80 f i PointCardRW.obj
 0001:00017c90       ?GetWndClassInfo@?$CWindowImpl@VCOPOSPointCardRW@@VCWindow@ATL@@V?$CWinTraits@$0FGAAAAAA@$0A@@3@@ATL@@SAAEAU_ATL_WNDCLASSINFOW@2@XZ 0000000180018c90 f i PointCardRW.obj
 0001:00017ca0       ?GetWndClassName@CWindow@ATL@@SAPEB_WXZ 0000000180018ca0 f i PointCardRW.obj
 0001:00017cb0       ?GetWndExStyle@?$CWinTraits@$0FGAAAAAA@$0A@@ATL@@SAKK@Z 0000000180018cb0 f i PointCardRW.obj
 0001:00017ce0       ?GetWndExStyle@?$CWindowImplBaseT@VCWindow@ATL@@V?$CWinTraits@$0FGAAAAAA@$0A@@2@@ATL@@SAKK@Z 0000000180018ce0 f i PointCardRW.obj
 0001:00017d00       ?GetWndStyle@?$CWinTraits@$0FGAAAAAA@$0A@@ATL@@SAKK@Z 0000000180018d00 f i PointCardRW.obj
 0001:00017d30       ?GetWndStyle@?$CWindowImplBaseT@VCWindow@ATL@@V?$CWinTraits@$0FGAAAAAA@$0A@@2@@ATL@@SAKK@Z 0000000180018d30 f i PointCardRW.obj
 0001:00017d50       ?GetZoomInfo@CComControlBase@ATL@@QEAAXAEAUATL_DRAWINFO@@@Z 0000000180018d50 f i PointCardRW.obj
 0001:00017f00       ?HKeyFromString@CRegParser@ATL@@KAPEAUHKEY__@@PEA_W@Z 0000000180018f00 f i PointCardRW.obj
 0001:00017f70       ?HandsOffStorage@?$IPersistStorageImpl@VCOPOSPointCardRW@@@ATL@@UEAAJXZ 0000000180018f70 f i PointCardRW.obj
 0001:00017fd0       ?HasSubKeys@CRegParser@ATL@@IEAAHPEAUHKEY__@@@Z 0000000180018fd0 f i PointCardRW.obj
 0001:00018140       ?IDataObject_GetData@CComControlBase@ATL@@QEAAJPEAUtagFORMATETC@@PEAUtagSTGMEDIUM@@@Z 0000000180019140 f i PointCardRW.obj
 0001:000185f0       ?IOleInPlaceObject_InPlaceDeactivate@CComControlBase@ATL@@QEAAJXZ 00000001800195f0 f i PointCardRW.obj
 0001:00018860       ?IOleInPlaceObject_SetObjectRects@CComControlBase@ATL@@QEAAJPEBUtagRECT@@0@Z 0000000180019860 f i PointCardRW.obj
 0001:00018a50       ?IOleInPlaceObject_UIDeactivate@CComControlBase@ATL@@QEAAJXZ 0000000180019a50 f i PointCardRW.obj
 0001:00018cc0       ?IOleObject_Advise@CComControlBase@ATL@@QEAAJPEAUIAdviseSink@@PEAK@Z 0000000180019cc0 f i PointCardRW.obj
 0001:00018d60       ?IOleObject_Close@CComControlBase@ATL@@QEAAJK@Z 0000000180019d60 f i PointCardRW.obj
 0001:000190d0       ?IOleObject_GetClientSite@CComControlBase@ATL@@QEAAJPEAPEAUIOleClientSite@@@Z 000000018001a0d0 f i PointCardRW.obj
 0001:00019190       ?IOleObject_SetClientSite@CComControlBase@ATL@@QEAAJPEAUIOleClientSite@@@Z 000000018001a190 f i PointCardRW.obj
 0001:00019290       ?IOleObject_SetExtent@CComControlBase@ATL@@QEAAJKPEAUtagSIZE@@@Z 000000018001a290 f i PointCardRW.obj
 0001:000193e0       ?IPSI_GetIPersistStreamInit@?$IPersistStorageImpl@VCOPOSPointCardRW@@@ATL@@AEAAPEAUIPersistStreamInit@@XZ 000000018001a3e0 f i PointCardRW.obj
 0001:000194a0       ?IPersistStreamInit_Load@?$IPersistStreamInitImpl@VCOPOSPointCardRW@@@ATL@@QEAAJPEAUIStream@@PEBUATL_PROPMAP_ENTRY@2@@Z 000000018001a4a0 f i PointCardRW.obj
 0001:00019530       ?IPersistStreamInit_Save@?$IPersistStreamInitImpl@VCOPOSPointCardRW@@@ATL@@QEAAJPEAUIStream@@HPEBUATL_PROPMAP_ENTRY@2@@Z 000000018001a530 f i PointCardRW.obj
 0001:000195d0       ?IQuickActivate_QuickActivate@CComControlBase@ATL@@QEAAJPEAUtagQACONTAINER@@PEAUtagQACONTROL@@@Z 000000018001a5d0 f i PointCardRW.obj
 0001:00019e10       ?IViewObject_Draw@CComControlBase@ATL@@QEAAJKJPEAXPEAUtagDVTARGETDEVICE@@PEAUHDC__@@2PEBU_RECTL@@3@Z 000000018001ae10 f i PointCardRW.obj
 0001:0001a260       ?InPlaceActivate@CComControlBase@ATL@@QEAAJJPEBUtagRECT@@@Z 000000018001b260 f i PointCardRW.obj
 0001:0001ae00       ?InPlaceDeactivate@?$IOleInPlaceObjectWindowlessImpl@VCOPOSPointCardRW@@@ATL@@UEAAJXZ 000000018001be00 f i PointCardRW.obj
 0001:0001ae90       ?Increment@CComMultiThreadModel@ATL@@SAKPEAJ@Z 000000018001be90 f i PointCardRW.obj
 0001:0001aeb0       ?Increment@CComSingleThreadModel@ATL@@SAKPEAJ@Z 000000018001beb0 f i PointCardRW.obj
 0001:0001aed0       ?Init@?$CComEnumImpl@UIEnumConnectionPoints@@$1?_GUID_b196b285_bab4_101a_b69c_00aa00341d07@@3U__s_GUID@@BPEAUIConnectionPoint@@V?$_CopyInterface@UIConnectionPoint@@@ATL@@@ATL@@QEAAJPEAPEAUIConnectionPoint@@0PEAUIUnknown@@W4CComEnumFlags@2@@Z 000000018001bed0 f i PointCardRW.obj
 0001:0001b1b0       ?Init@?$CComEnumImpl@UIEnumConnections@@$1?_GUID_b196b287_bab4_101a_b69c_00aa00341d07@@3U__s_GUID@@BUtagCONNECTDATA@@V?$_Copy@UtagCONNECTDATA@@@ATL@@@ATL@@QEAAJPEAUtagCONNECTDATA@@0PEAUIUnknown@@W4CComEnumFlags@2@@Z 000000018001c1b0 f i PointCardRW.obj
 0001:0001b490       ?Init@CComFakeCriticalSection@ATL@@QEAAJXZ 000000018001c490 f i PointCardRW.obj
 0001:0001b4a0       ?Init@CComModule@ATL@@QEAAJPEAU_ATL_OBJMAP_ENTRY30@2@PEAUHINSTANCE__@@PEBU_GUID@@@Z 000000018001c4a0 f i PointCardRW.obj
 0001:0001b580       ?Init@CComSafeDeleteCriticalSection@ATL@@QEAAJXZ 000000018001c580 f i PointCardRW.obj
 0001:0001b600       ?Init@CDynamicStdCallThunk2@ATL@@QEAAH_KPEAX@Z 000000018001c600 f i PointCardRW.obj
 0001:0001b660       ?Init@CWndProcThunk@ATL@@QEAAHP6A_JPEAUHWND__@@I_K_J@ZPEAX@Z 000000018001c660 f i PointCardRW.obj
 0001:0001b6a0       ?InitFromData@?$IOleObjectImpl@VCOPOSPointCardRW@@@ATL@@UEAAJPEAUIDataObject@@HK@Z 000000018001c6a0 f i PointCardRW.obj
 0001:0001b720       ?InitLibId@?$CAtlModuleT@VCComModule@ATL@@@ATL@@SAXXZ 000000018001c720 f i PointCardRW.obj
 0001:0001b730       ?InitNew@?$IPersistStorageImpl@VCOPOSPointCardRW@@@ATL@@UEAAJPEAUIStorage@@@Z 000000018001c730 f i PointCardRW.obj
 0001:0001b820       ?InitNew@?$IPersistStreamInitImpl@VCOPOSPointCardRW@@@ATL@@UEAAJXZ 000000018001c820 f i PointCardRW.obj
 0001:0001b8c0       ?InlineIsEqualUnknown@ATL@@YAHAEBU_GUID@@@Z 000000018001c8c0 f i PointCardRW.obj
 0001:0001b940       ?InternalAddRef@?$CComObjectRootEx@VCComMultiThreadModel@ATL@@@ATL@@QEAAKXZ 000000018001c940 f i PointCardRW.obj
 0001:0001b9b0       ?InternalAddRef@?$CComObjectRootEx@VCComSingleThreadModel@ATL@@@ATL@@QEAAKXZ 000000018001c9b0 f i PointCardRW.obj
 0001:0001ba20       ?InternalFinalConstructAddRef@CComObjectRootBase@ATL@@QEAAXXZ 000000018001ca20 f i PointCardRW.obj
 0001:0001ba30       ?InternalFinalConstructAddRef@COPOSPointCardRW@@QEAAXXZ 000000018001ca30 f i PointCardRW.obj
 0001:0001ba60       ?InternalFinalConstructRelease@CComObjectRootBase@ATL@@QEAAXXZ 000000018001ca60 f i PointCardRW.obj
 0001:0001bac0       ?InternalFinalConstructRelease@COPOSPointCardRW@@QEAAXXZ 000000018001cac0 f i PointCardRW.obj
 0001:0001baf0       ?InternalGetSite@CComControlBase@ATL@@QEAAJAEBU_GUID@@PEAPEAX@Z 000000018001caf0 f i PointCardRW.obj
 0001:0001bbc0       ?InternalQueryInterface@CComObjectRootBase@ATL@@SAJPEAXPEBU_ATL_INTMAP_ENTRY@2@AEBU_GUID@@PEAPEAX@Z 000000018001cbc0 f i PointCardRW.obj
 0001:0001bcd0       ?InternalRelease@?$CComObjectRootEx@VCComMultiThreadModel@ATL@@@ATL@@QEAAKXZ 000000018001ccd0 f i PointCardRW.obj
 0001:0001bd40       ?InternalRelease@?$CComObjectRootEx@VCComSingleThreadModel@ATL@@@ATL@@QEAAKXZ 000000018001cd40 f i PointCardRW.obj
 0001:0001bdb0       ?InternalSetAtIndex@?$CSimpleArray@GV?$CSimpleArrayEqualHelper@G@ATL@@@ATL@@QEAAXHAEBG@Z 000000018001cdb0 f i PointCardRW.obj
 0001:0001be20       ?InternalSetAtIndex@?$CSimpleMap@PEA_WPEA_WVCExpansionVectorEqualHelper@ATL@@@ATL@@QEAAXHAEBQEA_W0@Z 000000018001ce20 f i PointCardRW.obj
 0001:0001bee0       ?Invoke@?$IDispatchImpl@UIOPOSPointCardRW@@$1?IID_IOPOSPointCardRW@@3U_GUID@@B$1?LIBID_OposPointCardRW_CCO@@3U3@B$00$0A@VCComTypeInfoHolder@ATL@@@ATL@@UEAAJJAEBU_GUID@@KGPEAUtagDISPPARAMS@@PEAUtagVARIANT@@PEAUtagEXCEPINFO@@PEAI@Z 000000018001cee0 f i PointCardRW.obj
 0001:0001bf70       ?Invoke@CComTypeInfoHolder@ATL@@QEAAJPEAUIDispatch@@JAEBU_GUID@@KGPEAUtagDISPPARAMS@@PEAUtagVARIANT@@PEAUtagEXCEPINFO@@PEAI@Z 000000018001cf70 f i PointCardRW.obj
 0001:0001c020       ?IsDirty@?$IPersistStorageImpl@VCOPOSPointCardRW@@@ATL@@UEAAJXZ 000000018001d020 f i PointCardRW.obj
 0001:0001c110       ?IsDirty@?$IPersistStreamInitImpl@VCOPOSPointCardRW@@@ATL@@UEAAJXZ 000000018001d110 f i PointCardRW.obj
 0001:0001c1c0       ?IsEqualKey@CExpansionVectorEqualHelper@ATL@@SA_NQEA_W0@Z 000000018001d1c0 f i PointCardRW.obj
 0001:0001c1f0       ?IsEqualObject@?$CComPtrBase@UIOleClientSite@@@ATL@@QEAA_NPEAUIUnknown@@@Z 000000018001d1f0 f i PointCardRW.obj
 0001:0001c340       ?IsEqualObject@?$CComPtrBase@UITypeInfo@@@ATL@@QEAA_NPEAUIUnknown@@@Z 000000018001d340 f i PointCardRW.obj
 0001:0001c490       ?IsSpace@CRegParser@ATL@@IEAAH_W@Z 000000018001d490 f i PointCardRW.obj
 0001:0001c4d0       ?IsUpToDate@?$IOleObjectImpl@VCOPOSPointCardRW@@@ATL@@UEAAJXZ 000000018001d4d0 f i PointCardRW.obj
 0001:0001c530       ?Length@CComBSTR@ATL@@QEBAIXZ 000000018001d530 f i PointCardRW.obj
 0001:0001c550       ?Load@?$IPersistStorageImpl@VCOPOSPointCardRW@@@ATL@@UEAAJPEAUIStorage@@@Z 000000018001d550 f i PointCardRW.obj
 0001:0001c700       ?Load@?$IPersistStreamInitImpl@VCOPOSPointCardRW@@@ATL@@UEAAJPEAUIStream@@@Z 000000018001d700 f i PointCardRW.obj
 0001:0001c7b0       ?LoadCursorW@AtlModuleRegisterWndClassInfoParamW@ATL@@SAPEAUHICON__@@PEAUHINSTANCE__@@PEB_W@Z 000000018001d7b0 f i PointCardRW.obj
 0001:0001c7e0       ?LoadNameCache@CComTypeInfoHolder@ATL@@QEAAJPEAUITypeInfo@@@Z 000000018001d7e0 f i PointCardRW.obj
 0001:0001cb20       ?Lock@?$CComCritSecLock@VCComCriticalSection@ATL@@@ATL@@QEAAJXZ 000000018001db20 f i PointCardRW.obj
 0001:0001cbf0       ?Lock@?$CComObjectRootEx@VCComSingleThreadModel@ATL@@@ATL@@QEAAXXZ 000000018001dbf0 f i PointCardRW.obj
 0001:0001cc00       ?Lock@CAtlModule@ATL@@UEAAJXZ 000000018001dc00 f i PointCardRW.obj
 0001:0001cc30       ?Lock@CComCriticalSection@ATL@@QEAAJXZ 000000018001dc30 f i PointCardRW.obj
 0001:0001cc50       ?Lock@CComFakeCriticalSection@ATL@@QEAAJXZ 000000018001dc50 f i PointCardRW.obj
 0001:0001cc60       ?LockServer@CComClassFactory@ATL@@UEAAJH@Z 000000018001dc60 f i PointCardRW.obj
 0001:0001ccb0       ?Lookup@?$CSimpleMap@PEA_WPEA_WVCExpansionVectorEqualHelper@ATL@@@ATL@@QEBAPEA_WAEBQEA_W@Z 000000018001dcb0 f i PointCardRW.obj
 0001:0001cd00       ?Next@?$CComEnumImpl@UIEnumConnectionPoints@@$1?_GUID_b196b285_bab4_101a_b69c_00aa00341d07@@3U__s_GUID@@BPEAUIConnectionPoint@@V?$_CopyInterface@UIConnectionPoint@@@ATL@@@ATL@@UEAAJKPEAPEAUIConnectionPoint@@PEAK@Z 000000018001dd00 f i PointCardRW.obj
 0001:0001ceb0       ?Next@?$CComEnumImpl@UIEnumConnections@@$1?_GUID_b196b287_bab4_101a_b69c_00aa00341d07@@3U__s_GUID@@BUtagCONNECTDATA@@V?$_Copy@UtagCONNECTDATA@@@ATL@@@ATL@@UEAAJKPEAUtagCONNECTDATA@@PEAK@Z 000000018001deb0 f i PointCardRW.obj
 0001:0001d060       ?NextToken@CRegParser@ATL@@IEAAJPEA_W@Z 000000018001e060 f i PointCardRW.obj
 0001:0001d3e0       ?OLE2CT_EX@@YAPEB_WPEB_WI@Z 000000018001e3e0 f i PointCardRW.obj
 0001:0001d400       ?OLE2CT_EX_DEF@@YAPEB_WPEB_W@Z 000000018001e400 f i PointCardRW.obj
 0001:0001d410       ?OLE2T_EX@@YAPEA_WPEA_WI@Z 000000018001e410 f i PointCardRW.obj
 0001:0001d430       ?OnAmbientPropertyChange@?$IOleControlImpl@VCOPOSPointCardRW@@@ATL@@UEAAJJ@Z 000000018001e430 f i PointCardRW.obj
 0001:0001d4e0       ?OnDocWindowActivate@?$IOleInPlaceActiveObjectImpl@VCOPOSPointCardRW@@@ATL@@UEAAJH@Z 000000018001e4e0 f i PointCardRW.obj
 0001:0001d580       ?OnDrawAdvanced@CComControlBase@ATL@@UEAAJAEAUATL_DRAWINFO@@@Z 000000018001e580 f i PointCardRW.obj
 0001:0001d7d0       ?OnFinalMessage@?$CWindowImplBaseT@VCWindow@ATL@@V?$CWinTraits@$0FGAAAAAA@$0A@@2@@ATL@@UEAAXPEAUHWND__@@@Z 000000018001e7d0 f i PointCardRW.obj
 0001:0001d7e0       ?OnFrameWindowActivate@?$IOleInPlaceActiveObjectImpl@VCOPOSPointCardRW@@@ATL@@UEAAJH@Z 000000018001e7e0 f i PointCardRW.obj
 0001:0001d840       ?OnKillFocus@CComControlBase@ATL@@QEAA_JI_K_JAEAH@Z 000000018001e840 f i PointCardRW.obj
 0001:0001d940       ?OnMnemonic@?$IOleControlImpl@VCOPOSPointCardRW@@@ATL@@UEAAJPEAUtagMSG@@@Z 000000018001e940 f i PointCardRW.obj
 0001:0001d9b0       ?OnMouseActivate@CComControlBase@ATL@@QEAA_JI_K_JAEAH@Z 000000018001e9b0 f i PointCardRW.obj
 0001:0001db50       ?OnPaint@CComControlBase@ATL@@QEAA_JI_K_JAEAH@Z 000000018001eb50 f i PointCardRW.obj
 0001:0001dce0       ?OnPostVerbDiscardUndo@?$IOleObjectImpl@VCOPOSPointCardRW@@@ATL@@QEAAJXZ 000000018001ece0 f i PointCardRW.obj
 0001:0001dcf0       ?OnPostVerbHide@?$IOleObjectImpl@VCOPOSPointCardRW@@@ATL@@QEAAJXZ 000000018001ecf0 f i PointCardRW.obj
 0001:0001dd00       ?OnPostVerbInPlaceActivate@?$IOleObjectImpl@VCOPOSPointCardRW@@@ATL@@QEAAJXZ 000000018001ed00 f i PointCardRW.obj
 0001:0001dd10       ?OnPostVerbOpen@?$IOleObjectImpl@VCOPOSPointCardRW@@@ATL@@QEAAJXZ 000000018001ed10 f i PointCardRW.obj
 0001:0001dd20       ?OnPostVerbShow@?$IOleObjectImpl@VCOPOSPointCardRW@@@ATL@@QEAAJXZ 000000018001ed20 f i PointCardRW.obj
 0001:0001dd30       ?OnPostVerbUIActivate@?$IOleObjectImpl@VCOPOSPointCardRW@@@ATL@@QEAAJXZ 000000018001ed30 f i PointCardRW.obj
 0001:0001dd40       ?OnPreVerbDiscardUndo@?$IOleObjectImpl@VCOPOSPointCardRW@@@ATL@@QEAAJXZ 000000018001ed40 f i PointCardRW.obj
 0001:0001dd50       ?OnPreVerbHide@?$IOleObjectImpl@VCOPOSPointCardRW@@@ATL@@QEAAJXZ 000000018001ed50 f i PointCardRW.obj
 0001:0001dd60       ?OnPreVerbInPlaceActivate@?$IOleObjectImpl@VCOPOSPointCardRW@@@ATL@@QEAAJXZ 000000018001ed60 f i PointCardRW.obj
 0001:0001dd70       ?OnPreVerbOpen@?$IOleObjectImpl@VCOPOSPointCardRW@@@ATL@@QEAAJXZ 000000018001ed70 f i PointCardRW.obj
 0001:0001dd80       ?OnPreVerbShow@?$IOleObjectImpl@VCOPOSPointCardRW@@@ATL@@QEAAJXZ 000000018001ed80 f i PointCardRW.obj
 0001:0001dd90       ?OnPreVerbUIActivate@?$IOleObjectImpl@VCOPOSPointCardRW@@@ATL@@QEAAJXZ 000000018001ed90 f i PointCardRW.obj
 0001:0001dda0       ?OnSetFocus@CComControlBase@ATL@@QEAA_JI_K_JAEAH@Z 000000018001eda0 f i PointCardRW.obj
 0001:0001dfa0       ?OnWindowMessage@?$IOleInPlaceObjectWindowlessImpl@VCOPOSPointCardRW@@@ATL@@UEAAJI_K_JPEA_J@Z 000000018001efa0 f i PointCardRW.obj
 0001:0001e1c0       ?Open@CRegKey@ATL@@QEAAJPEAUHKEY__@@PEB_WK@Z 000000018001f1c0 f i PointCardRW.obj
 0001:0001e340       ?OuterAddRef@CComObjectRootBase@ATL@@QEAAKXZ 000000018001f340 f i PointCardRW.obj
 0001:0001e370       ?OuterQueryInterface@CComObjectRootBase@ATL@@QEAAJAEBU_GUID@@PEAPEAX@Z 000000018001f370 f i PointCardRW.obj
 0001:0001e3b0       ?OuterRelease@CComObjectRootBase@ATL@@QEAAKXZ 000000018001f3b0 f i PointCardRW.obj
 0001:0001e3e0       ?PreProcessBuffer@CRegParser@ATL@@QEAAJPEA_WPEAPEA_W@Z 000000018001f3e0 f i PointCardRW.obj
 0001:0001eac0       ?PreTranslateAccelerator@CComControlBase@ATL@@QEAAHPEAUtagMSG@@AEAJ@Z 000000018001fac0 f i PointCardRW.obj
 0001:0001eae0       ?ProcessWindowMessage@?$CComControl@VCOPOSPointCardRW@@V?$CWindowImpl@VCOPOSPointCardRW@@VCWindow@ATL@@V?$CWinTraits@$0FGAAAAAA@$0A@@3@@ATL@@@ATL@@UEAAHPEAUHWND__@@I_K_JAEA_JK@Z 000000018001fae0 f i PointCardRW.obj
 0001:0001ed60       ?ProcessWindowMessage@COPOSPointCardRW@@UEAAHPEAUHWND__@@I_K_JAEA_JK@Z 000000018001fd60 f i PointCardRW.obj
 0001:0001eec0       ?PutProperty@?$CComPtr@UIDispatch@@@ATL@@QEAAJJPEAUtagVARIANT@@@Z 000000018001fec0 f i PointCardRW.obj
 0001:0001eef0       ?PutProperty@?$CComPtr@UIDispatch@@@ATL@@SAJPEAUIDispatch@@JPEAUtagVARIANT@@@Z 000000018001fef0 f i PointCardRW.obj
 0001:0001f1a0       ?QueryGetData@?$IDataObjectImpl@VCOPOSPointCardRW@@@ATL@@UEAAJPEAUtagFORMATETC@@@Z 00000001800201a0 f i PointCardRW.obj
 0001:0001f210       ?QueryHitPoint@?$IViewObjectExImpl@VCOPOSPointCardRW@@@ATL@@UEAAJKPEBUtagRECT@@UtagPOINT@@JPEAK@Z 0000000180020210 f i PointCardRW.obj
 0001:0001f370       ?QueryHitRect@?$IViewObjectExImpl@VCOPOSPointCardRW@@@ATL@@UEAAJKPEBUtagRECT@@0JPEAK@Z 0000000180020370 f i PointCardRW.obj
 0001:0001f540       ?QueryInterface@?$CComAggObject@VCOPOSPointCardRW@@@ATL@@UEAAJAEBU_GUID@@PEAPEAX@Z 0000000180020540 f i PointCardRW.obj
 0001:0001f610       ?QueryInterface@?$CComContainedObject@VCOPOSPointCardRW@@@ATL@@UEAAJAEBU_GUID@@PEAPEAX@Z 0000000180020610 f i PointCardRW.obj
 0001:0001f648       ?QueryInterface@?$CComContainedObject@VCOPOSPointCardRW@@@ATL@@WBAA@EAAJAEBU_GUID@@PEAPEAX@Z 0000000180020648 f i PointCardRW.obj
 0001:0001f654       ?QueryInterface@?$CComContainedObject@VCOPOSPointCardRW@@@ATL@@WBAI@EAAJAEBU_GUID@@PEAPEAX@Z 0000000180020654 f i PointCardRW.obj
 0001:0001f660       ?QueryInterface@?$CComContainedObject@VCOPOSPointCardRW@@@ATL@@WBBA@EAAJAEBU_GUID@@PEAPEAX@Z 0000000180020660 f i PointCardRW.obj
 0001:0001f66c       ?QueryInterface@?$CComContainedObject@VCOPOSPointCardRW@@@ATL@@WBBI@EAAJAEBU_GUID@@PEAPEAX@Z 000000018002066c f i PointCardRW.obj
 0001:0001f678       ?QueryInterface@?$CComContainedObject@VCOPOSPointCardRW@@@ATL@@WLI@EAAJAEBU_GUID@@PEAPEAX@Z 0000000180020678 f i PointCardRW.obj
 0001:0001f684       ?QueryInterface@?$CComContainedObject@VCOPOSPointCardRW@@@ATL@@WMA@EAAJAEBU_GUID@@PEAPEAX@Z 0000000180020684 f i PointCardRW.obj
 0001:0001f690       ?QueryInterface@?$CComContainedObject@VCOPOSPointCardRW@@@ATL@@WMI@EAAJAEBU_GUID@@PEAPEAX@Z 0000000180020690 f i PointCardRW.obj
 0001:0001f69c       ?QueryInterface@?$CComContainedObject@VCOPOSPointCardRW@@@ATL@@WNA@EAAJAEBU_GUID@@PEAPEAX@Z 000000018002069c f i PointCardRW.obj
 0001:0001f6a8       ?QueryInterface@?$CComContainedObject@VCOPOSPointCardRW@@@ATL@@WNI@EAAJAEBU_GUID@@PEAPEAX@Z 00000001800206a8 f i PointCardRW.obj
 0001:0001f6b4       ?QueryInterface@?$CComContainedObject@VCOPOSPointCardRW@@@ATL@@WOA@EAAJAEBU_GUID@@PEAPEAX@Z 00000001800206b4 f i PointCardRW.obj
 0001:0001f6c0       ?QueryInterface@?$CComContainedObject@VCOPOSPointCardRW@@@ATL@@WOI@EAAJAEBU_GUID@@PEAPEAX@Z 00000001800206c0 f i PointCardRW.obj
 0001:0001f6cc       ?QueryInterface@?$CComContainedObject@VCOPOSPointCardRW@@@ATL@@WPA@EAAJAEBU_GUID@@PEAPEAX@Z 00000001800206cc f i PointCardRW.obj
 0001:0001f6d8       ?QueryInterface@?$CComContainedObject@VCOPOSPointCardRW@@@ATL@@WPI@EAAJAEBU_GUID@@PEAPEAX@Z 00000001800206d8 f i PointCardRW.obj
 0001:0001f6f0       ?QueryInterface@?$CComObject@V?$CComEnum@UIEnumConnectionPoints@@$1?_GUID_b196b285_bab4_101a_b69c_00aa00341d07@@3U__s_GUID@@BPEAUIConnectionPoint@@V?$_CopyInterface@UIConnectionPoint@@@ATL@@VCComSingleThreadModel@6@@ATL@@@ATL@@UEAAJAEBU_GUID@@PEAPEAX@Z 00000001800206f0 f i PointCardRW.obj
 0001:0001f720       ?QueryInterface@?$CComObject@V?$CComEnum@UIEnumConnections@@$1?_GUID_b196b287_bab4_101a_b69c_00aa00341d07@@3U__s_GUID@@BUtagCONNECTDATA@@V?$_Copy@UtagCONNECTDATA@@@ATL@@VCComSingleThreadModel@6@@ATL@@@ATL@@UEAAJAEBU_GUID@@PEAPEAX@Z 0000000180020720 f i PointCardRW.obj
 0001:0001f750       ?QueryInterface@?$CComObject@VCOPOSPointCardRW@@@ATL@@UEAAJAEBU_GUID@@PEAPEAX@Z 0000000180020750 f i PointCardRW.obj
 0001:0001f780       ?QueryInterface@?$CComObject@VCOPOSPointCardRW@@@ATL@@WBAA@EAAJAEBU_GUID@@PEAPEAX@Z 0000000180020780 f i PointCardRW.obj
 0001:0001f78c       ?QueryInterface@?$CComObject@VCOPOSPointCardRW@@@ATL@@WBAI@EAAJAEBU_GUID@@PEAPEAX@Z 000000018002078c f i PointCardRW.obj
 0001:0001f798       ?QueryInterface@?$CComObject@VCOPOSPointCardRW@@@ATL@@WBBA@EAAJAEBU_GUID@@PEAPEAX@Z 0000000180020798 f i PointCardRW.obj
 0001:0001f7a4       ?QueryInterface@?$CComObject@VCOPOSPointCardRW@@@ATL@@WBBI@EAAJAEBU_GUID@@PEAPEAX@Z 00000001800207a4 f i PointCardRW.obj
 0001:0001f7b0       ?QueryInterface@?$CComObject@VCOPOSPointCardRW@@@ATL@@WLI@EAAJAEBU_GUID@@PEAPEAX@Z 00000001800207b0 f i PointCardRW.obj
 0001:0001f7bc       ?QueryInterface@?$CComObject@VCOPOSPointCardRW@@@ATL@@WMA@EAAJAEBU_GUID@@PEAPEAX@Z 00000001800207bc f i PointCardRW.obj
 0001:0001f7c8       ?QueryInterface@?$CComObject@VCOPOSPointCardRW@@@ATL@@WMI@EAAJAEBU_GUID@@PEAPEAX@Z 00000001800207c8 f i PointCardRW.obj
 0001:0001f7d4       ?QueryInterface@?$CComObject@VCOPOSPointCardRW@@@ATL@@WNA@EAAJAEBU_GUID@@PEAPEAX@Z 00000001800207d4 f i PointCardRW.obj
 0001:0001f7e0       ?QueryInterface@?$CComObject@VCOPOSPointCardRW@@@ATL@@WNI@EAAJAEBU_GUID@@PEAPEAX@Z 00000001800207e0 f i PointCardRW.obj
 0001:0001f7ec       ?QueryInterface@?$CComObject@VCOPOSPointCardRW@@@ATL@@WOA@EAAJAEBU_GUID@@PEAPEAX@Z 00000001800207ec f i PointCardRW.obj
 0001:0001f7f8       ?QueryInterface@?$CComObject@VCOPOSPointCardRW@@@ATL@@WOI@EAAJAEBU_GUID@@PEAPEAX@Z 00000001800207f8 f i PointCardRW.obj
 0001:0001f804       ?QueryInterface@?$CComObject@VCOPOSPointCardRW@@@ATL@@WPA@EAAJAEBU_GUID@@PEAPEAX@Z 0000000180020804 f i PointCardRW.obj
 0001:0001f810       ?QueryInterface@?$CComObject@VCOPOSPointCardRW@@@ATL@@WPI@EAAJAEBU_GUID@@PEAPEAX@Z 0000000180020810 f i PointCardRW.obj
 0001:0001f820       ?QueryInterface@?$CComObjectCached@VCComClassFactory@ATL@@@ATL@@UEAAJAEBU_GUID@@PEAPEAX@Z 0000000180020820 f i PointCardRW.obj
 0001:0001f850       ?QueryInterface@CRegObject@ATL@@UEAAJAEBU_GUID@@PEAPEAX@Z 0000000180020850 f i PointCardRW.obj
 0001:0001f8c0       ?QuickActivate@?$IQuickActivateImpl@VCOPOSPointCardRW@@@ATL@@UEAAJPEAUtagQACONTAINER@@PEAUtagQACONTROL@@@Z 00000001800208c0 f i PointCardRW.obj
 0001:0001f970       ?ReactivateAndUndo@?$IOleInPlaceObjectWindowlessImpl@VCOPOSPointCardRW@@@ATL@@UEAAJXZ 0000000180020970 f i PointCardRW.obj
 0001:0001f9e0       ?ReadFromStream@CComBSTR@ATL@@QEAAJPEAUIStream@@@Z 00000001800209e0 f i PointCardRW.obj
 0001:0001fec0       ?ReadFromStream@CComVariant@ATL@@QEAAJPEAUIStream@@GTClassesAllowedInStream@2@K@Z 0000000180020ec0 f i PointCardRW.obj
 0001:00020300       ?RecurseDeleteKey@CRegKey@ATL@@QEAAJPEB_W@Z 0000000180021300 f i PointCardRW.obj
 0001:00020520       ?RegCreateKeyExW@CAtlTransactionManager@ATL@@QEAAJPEAUHKEY__@@PEB_WKPEA_WKKQEAU_SECURITY_ATTRIBUTES@@PEAPEAU3@PEAK@Z 0000000180021520 f i PointCardRW.obj
 0001:000206d0       ?RegDeleteKeyW@CAtlTransactionManager@ATL@@QEAAJPEAUHKEY__@@PEB_W@Z 00000001800216d0 f i PointCardRW.obj
 0001:000207d0       ?RegOpenKeyExW@CAtlTransactionManager@ATL@@QEAAJPEAUHKEY__@@PEB_WKKPEAPEAU3@@Z 00000001800217d0 f i PointCardRW.obj
 0001:00020910       ?Register@_ATL_WNDCLASSINFOW@ATL@@QEAAGPEAP6A_JPEAUHWND__@@I_K_J@Z@Z 0000000180021910 f i PointCardRW.obj
 0001:00020950       ?RegisterBuffer@CRegParser@ATL@@QEAAJPEA_WH@Z 0000000180021950 f i PointCardRW.obj
 0001:00020d40       ?RegisterClassExW@AtlModuleRegisterWndClassInfoParamW@ATL@@SAGPEAU_ATL_WIN_MODULE70@2@PEBUtagWNDCLASSEXW@@@Z 0000000180021d40 f i PointCardRW.obj
 0001:00020d70       ?RegisterFromResource@CRegObject@ATL@@IEAAJPEB_W00H@Z 0000000180021d70 f i PointCardRW.obj
 0001:000211d0       ?RegisterServer@?$CAtlModuleT@VCComModule@ATL@@@ATL@@QEAAJHPEBU_GUID@@@Z 00000001800221d0 f i PointCardRW.obj
 0001:00021230       ?RegisterServer@CAtlComModule@ATL@@QEAAJHPEBU_GUID@@@Z 0000000180022230 f i PointCardRW.obj
 0001:00021260       ?RegisterServer@CComModule@ATL@@QEAAJHPEBU_GUID@@@Z 0000000180022260 f i PointCardRW.obj
 0001:00021340       ?RegisterSubkeys@CRegParser@ATL@@IEAAJPEA_WPEAUHKEY__@@HH@Z 0000000180022340 f i PointCardRW.obj
 0001:00022120       ?Release@?$CComAggObject@VCOPOSPointCardRW@@@ATL@@UEAAKXZ 0000000180023120 f i PointCardRW.obj
 0001:000221d0       ?Release@?$CComContainedObject@VCOPOSPointCardRW@@@ATL@@UEAAKXZ 00000001800231d0 f i PointCardRW.obj
 0001:000221f4       ?Release@?$CComContainedObject@VCOPOSPointCardRW@@@ATL@@WBAA@EAAKXZ 00000001800231f4 f i PointCardRW.obj
 0001:00022200       ?Release@?$CComContainedObject@VCOPOSPointCardRW@@@ATL@@WBAI@EAAKXZ 0000000180023200 f i PointCardRW.obj
 0001:0002220c       ?Release@?$CComContainedObject@VCOPOSPointCardRW@@@ATL@@WBBA@EAAKXZ 000000018002320c f i PointCardRW.obj
 0001:00022218       ?Release@?$CComContainedObject@VCOPOSPointCardRW@@@ATL@@WBBI@EAAKXZ 0000000180023218 f i PointCardRW.obj
 0001:00022224       ?Release@?$CComContainedObject@VCOPOSPointCardRW@@@ATL@@WBCI@EAAKXZ 0000000180023224 f i PointCardRW.obj
 0001:00022230       ?Release@?$CComContainedObject@VCOPOSPointCardRW@@@ATL@@WBEA@EAAKXZ 0000000180023230 f i PointCardRW.obj
 0001:0002223c       ?Release@?$CComContainedObject@VCOPOSPointCardRW@@@ATL@@WLI@EAAKXZ 000000018002323c f i PointCardRW.obj
 0001:00022248       ?Release@?$CComContainedObject@VCOPOSPointCardRW@@@ATL@@WMA@EAAKXZ 0000000180023248 f i PointCardRW.obj
 0001:00022254       ?Release@?$CComContainedObject@VCOPOSPointCardRW@@@ATL@@WMI@EAAKXZ 0000000180023254 f i PointCardRW.obj
 0001:00022260       ?Release@?$CComContainedObject@VCOPOSPointCardRW@@@ATL@@WNA@EAAKXZ 0000000180023260 f i PointCardRW.obj
 0001:0002226c       ?Release@?$CComContainedObject@VCOPOSPointCardRW@@@ATL@@WNI@EAAKXZ 000000018002326c f i PointCardRW.obj
 0001:00022278       ?Release@?$CComContainedObject@VCOPOSPointCardRW@@@ATL@@WOA@EAAKXZ 0000000180023278 f i PointCardRW.obj
 0001:00022284       ?Release@?$CComContainedObject@VCOPOSPointCardRW@@@ATL@@WOI@EAAKXZ 0000000180023284 f i PointCardRW.obj
 0001:00022290       ?Release@?$CComContainedObject@VCOPOSPointCardRW@@@ATL@@WPA@EAAKXZ 0000000180023290 f i PointCardRW.obj
 0001:0002229c       ?Release@?$CComContainedObject@VCOPOSPointCardRW@@@ATL@@WPI@EAAKXZ 000000018002329c f i PointCardRW.obj
 0001:000222b0       ?Release@?$CComObject@V?$CComEnum@UIEnumConnectionPoints@@$1?_GUID_b196b285_bab4_101a_b69c_00aa00341d07@@3U__s_GUID@@BPEAUIConnectionPoint@@V?$_CopyInterface@UIConnectionPoint@@@ATL@@VCComSingleThreadModel@6@@ATL@@@ATL@@UEAAKXZ 00000001800232b0 f i PointCardRW.obj
 0001:00022360       ?Release@?$CComObject@V?$CComEnum@UIEnumConnections@@$1?_GUID_b196b287_bab4_101a_b69c_00aa00341d07@@3U__s_GUID@@BUtagCONNECTDATA@@V?$_Copy@UtagCONNECTDATA@@@ATL@@VCComSingleThreadModel@6@@ATL@@@ATL@@UEAAKXZ 0000000180023360 f i PointCardRW.obj
 0001:00022410       ?Release@?$CComObject@VCOPOSPointCardRW@@@ATL@@UEAAKXZ 0000000180023410 f i PointCardRW.obj
 0001:000224c8       ?Release@?$CComObject@VCOPOSPointCardRW@@@ATL@@WBAA@EAAKXZ 00000001800234c8 f i PointCardRW.obj
 0001:000224d4       ?Release@?$CComObject@VCOPOSPointCardRW@@@ATL@@WBAI@EAAKXZ 00000001800234d4 f i PointCardRW.obj
 0001:000224e0       ?Release@?$CComObject@VCOPOSPointCardRW@@@ATL@@WBBA@EAAKXZ 00000001800234e0 f i PointCardRW.obj
 0001:000224ec       ?Release@?$CComObject@VCOPOSPointCardRW@@@ATL@@WBBI@EAAKXZ 00000001800234ec f i PointCardRW.obj
 0001:000224f8       ?Release@?$CComObject@VCOPOSPointCardRW@@@ATL@@WBCI@EAAKXZ 00000001800234f8 f i PointCardRW.obj
 0001:00022504       ?Release@?$CComObject@VCOPOSPointCardRW@@@ATL@@WBEA@EAAKXZ 0000000180023504 f i PointCardRW.obj
 0001:00022510       ?Release@?$CComObject@VCOPOSPointCardRW@@@ATL@@WLI@EAAKXZ 0000000180023510 f i PointCardRW.obj
 0001:0002251c       ?Release@?$CComObject@VCOPOSPointCardRW@@@ATL@@WMA@EAAKXZ 000000018002351c f i PointCardRW.obj
 0001:00022528       ?Release@?$CComObject@VCOPOSPointCardRW@@@ATL@@WMI@EAAKXZ 0000000180023528 f i PointCardRW.obj
 0001:00022534       ?Release@?$CComObject@VCOPOSPointCardRW@@@ATL@@WNA@EAAKXZ 0000000180023534 f i PointCardRW.obj
 0001:00022540       ?Release@?$CComObject@VCOPOSPointCardRW@@@ATL@@WNI@EAAKXZ 0000000180023540 f i PointCardRW.obj
 0001:0002254c       ?Release@?$CComObject@VCOPOSPointCardRW@@@ATL@@WOA@EAAKXZ 000000018002354c f i PointCardRW.obj
 0001:00022558       ?Release@?$CComObject@VCOPOSPointCardRW@@@ATL@@WOI@EAAKXZ 0000000180023558 f i PointCardRW.obj
 0001:00022564       ?Release@?$CComObject@VCOPOSPointCardRW@@@ATL@@WPA@EAAKXZ 0000000180023564 f i PointCardRW.obj
 0001:00022570       ?Release@?$CComObject@VCOPOSPointCardRW@@@ATL@@WPI@EAAKXZ 0000000180023570 f i PointCardRW.obj
 0001:00022580       ?Release@?$CComObjectCached@VCComClassFactory@ATL@@@ATL@@UEAAKXZ 0000000180023580 f i PointCardRW.obj
 0001:00022610       ?Release@?$CComPtrBase@UIAdviseSink@@@ATL@@QEAAXXZ 0000000180023610 f i PointCardRW.obj
 0001:00022660       ?Release@?$CComPtrBase@UIDispatch@@@ATL@@QEAAXXZ 0000000180023660 f i PointCardRW.obj
 0001:000226b0       ?Release@?$CComPtrBase@UIOleInPlaceSiteWindowless@@@ATL@@QEAAXXZ 00000001800236b0 f i PointCardRW.obj
 0001:00022700       ?Release@CRegObject@ATL@@UEAAKXZ 0000000180023700 f i PointCardRW.obj
 0001:00022760       ?Remove@CComDynamicUnkArray@ATL@@QEAAHK@Z 0000000180023760 f i PointCardRW.obj
 0001:00022820       ?RemoveAll@?$CSimpleMap@PEA_WPEA_WVCExpansionVectorEqualHelper@ATL@@@ATL@@QEAAXXZ 0000000180023820 f i PointCardRW.obj
 0001:000228b0       ?Reset@?$CComEnumImpl@UIEnumConnectionPoints@@$1?_GUID_b196b285_bab4_101a_b69c_00aa00341d07@@3U__s_GUID@@BPEAUIConnectionPoint@@V?$_CopyInterface@UIConnectionPoint@@@ATL@@@ATL@@UEAAJXZ 00000001800238b0 f i PointCardRW.obj
 0001:000228d0       ?Reset@?$CComEnumImpl@UIEnumConnections@@$1?_GUID_b196b287_bab4_101a_b69c_00aa00341d07@@3U__s_GUID@@BUtagCONNECTDATA@@V?$_Copy@UtagCONNECTDATA@@@ATL@@@ATL@@UEAAJXZ 00000001800238d0 f i PointCardRW.obj
 0001:000228f0       ?ResizeBorder@?$IOleInPlaceActiveObjectImpl@VCOPOSPointCardRW@@@ATL@@UEAAJPEBUtagRECT@@PEAUIOleInPlaceUIWindow@@H@Z 00000001800238f0 f i PointCardRW.obj
 0001:00022960       ?ResourceRegister@CRegObject@ATL@@QEAAJPEB_WI0@Z 0000000180023960 f i PointCardRW.obj
 0001:00022a40       ?ResourceRegisterSz@CRegObject@ATL@@QEAAJPEB_W00@Z 0000000180023a40 f i PointCardRW.obj
 0001:00022b60       ?ResourceUnregister@CRegObject@ATL@@QEAAJPEB_WI0@Z 0000000180023b60 f i PointCardRW.obj
 0001:00022c40       ?ResourceUnregisterSz@CRegObject@ATL@@QEAAJPEB_W00@Z 0000000180023c40 f i PointCardRW.obj
 0001:00022d60       ?SOData@COPOSPointCardRW@@MEAAJJ@Z 0000000180023d60 f i PointCardRW.obj
 0001:00022df0       ?SODirectIO@COPOSPointCardRW@@MEAAJJPEAJPEAPEA_W@Z 0000000180023df0 f i PointCardRW.obj
 0001:00023030       ?SOError@COPOSPointCardRW@@MEAAJJJJPEAJ@Z 0000000180024030 f i PointCardRW.obj
 0001:00023120       ?SOOutputComplete@COPOSPointCardRW@@MEAAJJ@Z 0000000180024120 f i PointCardRW.obj
 0001:000231b0       ?SOStatusUpdate@COPOSPointCardRW@@MEAAJJ@Z 00000001800241b0 f i PointCardRW.obj
 0001:00023240       ?Save@?$IPersistStorageImpl@VCOPOSPointCardRW@@@ATL@@UEAAJPEAUIStorage@@H@Z 0000000180024240 f i PointCardRW.obj
 0001:00023400       ?Save@?$IPersistStreamInitImpl@VCOPOSPointCardRW@@@ATL@@UEAAJPEAUIStream@@H@Z 0000000180024400 f i PointCardRW.obj
 0001:000234b0       ?SaveCompleted@?$IPersistStorageImpl@VCOPOSPointCardRW@@@ATL@@UEAAJPEAUIStorage@@@Z 00000001800244b0 f i PointCardRW.obj
 0001:00023510       ?SendOnDataChange@CComControlBase@ATL@@QEAAJK@Z 0000000180024510 f i PointCardRW.obj
 0001:00023610       ?SendOnSave@CComControlBase@ATL@@QEAAJXZ 0000000180024610 f i PointCardRW.obj
 0001:00023670       ?SendOnViewChange@CComControlBase@ATL@@QEAAJKJ@Z 0000000180024670 f i PointCardRW.obj
 0001:000236d0       ?SetAdvise@?$IViewObjectExImpl@VCOPOSPointCardRW@@@ATL@@UEAAJKKPEAUIAdviseSink@@@Z 00000001800246d0 f i PointCardRW.obj
 0001:00023780       ?SetClientSite@?$IOleObjectImpl@VCOPOSPointCardRW@@@ATL@@UEAAJPEAUIOleClientSite@@@Z 0000000180024780 f i PointCardRW.obj
 0001:00023820       ?SetColorScheme@?$IOleObjectImpl@VCOPOSPointCardRW@@@ATL@@UEAAJPEAUtagLOGPALETTE@@@Z 0000000180024820 f i PointCardRW.obj
 0001:00023890       ?SetContentExtent@?$IQuickActivateImpl@VCOPOSPointCardRW@@@ATL@@UEAAJPEAUtagSIZE@@@Z 0000000180024890 f i PointCardRW.obj
 0001:00023940       ?SetControlFocus@CComControlBase@ATL@@QEAAHH@Z 0000000180024940 f i PointCardRW.obj
 0001:00023ac0       ?SetDWORDValue@CRegKey@ATL@@QEAAJPEB_WK@Z 0000000180024ac0 f i PointCardRW.obj
 0001:00023b60       ?SetData@?$IDataObjectImpl@VCOPOSPointCardRW@@@ATL@@UEAAJPEAUtagFORMATETC@@PEAUtagSTGMEDIUM@@H@Z 0000000180024b60 f i PointCardRW.obj
 0001:00023be0       ?SetExtent@?$IOleObjectImpl@VCOPOSPointCardRW@@@ATL@@UEAAJKPEAUtagSIZE@@@Z 0000000180024be0 f i PointCardRW.obj
 0001:00023c90       ?SetHostNames@?$IOleObjectImpl@VCOPOSPointCardRW@@@ATL@@UEAAJPEB_W0@Z 0000000180024c90 f i PointCardRW.obj
 0001:00023cf0       ?SetInterfaceSafetyOptions@?$IObjectSafetyImpl@VCOPOSPointCardRW@@$02@ATL@@UEAAJAEBU_GUID@@KK@Z 0000000180024cf0 f i PointCardRW.obj
 0001:00023e90       ?SetMoniker@?$IOleObjectImpl@VCOPOSPointCardRW@@@ATL@@UEAAJKPEAUIMoniker@@@Z 0000000180024e90 f i PointCardRW.obj
 0001:00023f10       ?SetMultiStringValue@CRegKey@ATL@@QEAAJPEB_W0@Z 0000000180024f10 f i PointCardRW.obj
 0001:00024070       ?SetObjectRects@?$IOleInPlaceObjectWindowlessImpl@VCOPOSPointCardRW@@@ATL@@UEAAJPEBUtagRECT@@0@Z 0000000180025070 f i PointCardRW.obj
 0001:00024120       ?SetStringValue@CRegKey@ATL@@QEAAJPEB_W0K@Z 0000000180025120 f i PointCardRW.obj
 0001:00024290       ?SetVoid@CComClassFactory@ATL@@QEAAXPEAX@Z 0000000180025290 f i PointCardRW.obj
 0001:000242b0       ?SetVoid@CComObjectRootBase@ATL@@QEAAXPEAX@Z 00000001800252b0 f i PointCardRW.obj
 0001:000242c0       ?ShowWindow@CWindow@ATL@@QEAAHH@Z 00000001800252c0 f i PointCardRW.obj
 0001:00024340       ?Skip@?$CComEnumImpl@UIEnumConnectionPoints@@$1?_GUID_b196b285_bab4_101a_b69c_00aa00341d07@@3U__s_GUID@@BPEAUIConnectionPoint@@V?$_CopyInterface@UIConnectionPoint@@@ATL@@@ATL@@UEAAJK@Z 0000000180025340 f i PointCardRW.obj
 0001:000243d0       ?Skip@?$CComEnumImpl@UIEnumConnections@@$1?_GUID_b196b287_bab4_101a_b69c_00aa00341d07@@3U__s_GUID@@BUtagCONNECTDATA@@V?$_Copy@UtagCONNECTDATA@@@ATL@@@ATL@@UEAAJK@Z 00000001800253d0 f i PointCardRW.obj
 0001:00024460       ?SkipAssignment@CRegParser@ATL@@IEAAJPEA_W@Z 0000000180025460 f i PointCardRW.obj
 0001:00024560       ?SkipWhiteSpace@CRegParser@ATL@@IEAAXXZ 0000000180025560 f i PointCardRW.obj
 0001:000245b0       ?StartWindowProc@?$CWindowImplBaseT@VCWindow@ATL@@V?$CWinTraits@$0FGAAAAAA@$0A@@2@@ATL@@SA_JPEAUHWND__@@I_K_J@Z 00000001800255b0 f i PointCardRW.obj
 0001:00024700       ?StrChrW@CRegParser@ATL@@KAPEA_WPEA_W_W@Z 0000000180025700 f i PointCardRW.obj
 0001:00024770       ?StrFromMap@CRegObject@ATL@@QEAAPEB_WPEA_W@Z 0000000180025770 f i PointCardRW.obj
 0001:00024810       ?Swap@?$CComPtrBase@UIAdviseSink@@@ATL@@IEAAXAEAV12@@Z 0000000180025810 f i PointCardRW.obj
 0001:00024850       ?Swap@?$CComPtrBase@UIOleClientSite@@@ATL@@IEAAXAEAV12@@Z 0000000180025850 f i PointCardRW.obj
 0001:00024890       ?Swap@?$CComPtrBase@UIUnknown@@@ATL@@IEAAXAEAV12@@Z 0000000180025890 f i PointCardRW.obj
 0001:000248d0       ?T2COLE_EX@@YAPEB_WPEB_WI@Z 00000001800258d0 f i PointCardRW.obj
 0001:000248f0       ?T2OLE_EX@@YAPEA_WPEA_WI@Z 00000001800258f0 f i PointCardRW.obj
 0001:00024910       ?Term@CAtlModule@ATL@@QEAAXXZ 0000000180025910 f i PointCardRW.obj
 0001:000249c0       ?Term@CComModule@ATL@@QEAAXXZ 00000001800259c0 f i PointCardRW.obj
 0001:00024aa0       ?TranslateAcceleratorW@?$IOleInPlaceActiveObjectImpl@VCOPOSPointCardRW@@@ATL@@UEAAJPEAUtagMSG@@@Z 0000000180025aa0 f i PointCardRW.obj
 0001:00024d10       ?UIDeactivate@?$IOleInPlaceObjectWindowlessImpl@VCOPOSPointCardRW@@@ATL@@UEAAJXZ 0000000180025d10 f i PointCardRW.obj
 0001:00024da0       ?Unadvise@?$CProxy_IOPOSEvents@VCOPOSPointCardRW@@@@UEAAJK@Z 0000000180025da0 f i PointCardRW.obj
 0001:00024de0       ?Unadvise@?$IConnectionPointImpl@VCOPOSPointCardRW@@$1?DIID__IOPOSPointCardRWEvents@@3U_GUID@@BVCComDynamicUnkArray@ATL@@@ATL@@UEAAJK@Z 0000000180025de0 f i PointCardRW.obj
 0001:00024ec0       ?Unadvise@?$IConnectionPointImpl@VCOPOSPointCardRW@@$1?IID_IPropertyNotifySink@@3U_GUID@@BVCComDynamicUnkArray@ATL@@@ATL@@UEAAJK@Z 0000000180025ec0 f i PointCardRW.obj
 0001:00024fa0       ?Unadvise@?$IOleObjectImpl@VCOPOSPointCardRW@@@ATL@@UEAAJK@Z 0000000180025fa0 f i PointCardRW.obj
 0001:00025080       ?Unfreeze@?$IViewObjectExImpl@VCOPOSPointCardRW@@@ATL@@UEAAJK@Z 0000000180026080 f i PointCardRW.obj
 0001:000250f0       ?Unlock@?$CComCritSecLock@VCComCriticalSection@ATL@@@ATL@@QEAAXXZ 00000001800260f0 f i PointCardRW.obj
 0001:00025170       ?Unlock@?$CComObjectRootEx@VCComSingleThreadModel@ATL@@@ATL@@QEAAXXZ 0000000180026170 f i PointCardRW.obj
 0001:00025180       ?Unlock@CAtlModule@ATL@@UEAAJXZ 0000000180026180 f i PointCardRW.obj
 0001:000251b0       ?Unlock@CComCriticalSection@ATL@@QEAAJXZ 00000001800261b0 f i PointCardRW.obj
 0001:000251d0       ?Unlock@CComFakeCriticalSection@ATL@@QEAAJXZ 00000001800261d0 f i PointCardRW.obj
 0001:000251e0       ?UnregisterServer@?$CAtlModuleT@VCComModule@ATL@@@ATL@@QEAAJHPEBU_GUID@@@Z 00000001800261e0 f i PointCardRW.obj
 0001:00025240       ?UnregisterServer@CAtlComModule@ATL@@QEAAJHPEBU_GUID@@@Z 0000000180026240 f i PointCardRW.obj
 0001:00025270       ?UnregisterServer@CComModule@ATL@@QEAAJHPEBU_GUID@@@Z 0000000180026270 f i PointCardRW.obj
 0001:00025350       ?Update@?$IOleObjectImpl@VCOPOSPointCardRW@@@ATL@@UEAAJXZ 0000000180026350 f i PointCardRW.obj
 0001:000253b0       ?UpdateRegistryFromResource@CAtlModule@ATL@@QEAAJIHPEAU_ATL_REGMAP_ENTRY@2@@Z 00000001800263b0 f i PointCardRW.obj
 0001:000258f0       ?UpdateRegistryFromResource@CAtlModule@ATL@@QEAAJPEB_WHPEAU_ATL_REGMAP_ENTRY@2@@Z 00000001800268f0 f i PointCardRW.obj
 0001:00025e40       ?UpdateRegistryFromResource@CComModule@ATL@@UEAAJIHPEAU_ATL_REGMAP_ENTRY@2@@Z 0000000180026e40 f i PointCardRW.obj
 0001:00025e80       ?UpdateRegistryFromResource@CComModule@ATL@@UEAAJPEB_WHPEAU_ATL_REGMAP_ENTRY@2@@Z 0000000180026e80 f i PointCardRW.obj
 0001:00025ec0       ?UpdateRegistryFromResourceD@CComModule@ATL@@UEAAJIHPEAU_ATL_REGMAP_ENTRY@2@@Z 0000000180026ec0 f i PointCardRW.obj
 0001:00025ee0       ?UpdateRegistryFromResourceD@CComModule@ATL@@UEAAJPEB_WHPEAU_ATL_REGMAP_ENTRY@2@@Z 0000000180026ee0 f i PointCardRW.obj
 0001:00025f00       ?VTFromRegType@CRegParser@ATL@@KAHPEB_WAEAG@Z 0000000180026f00 f i PointCardRW.obj
 0001:00025fd0       ?WindowProc@?$CWindowImplBaseT@VCWindow@ATL@@V?$CWinTraits@$0FGAAAAAA@$0A@@2@@ATL@@SA_JPEAUHWND__@@I_K_J@Z 0000000180026fd0 f i PointCardRW.obj
 0001:000262b0       ?WriteToStream@CComBSTR@ATL@@QEAAJPEAUIStream@@@Z 00000001800272b0 f i PointCardRW.obj
 0001:00026420       ?WriteToStream@CComVariant@ATL@@QEAAJPEAUIStream@@@Z 0000000180027420 f i PointCardRW.obj
 0001:00026850       ?WriteToStream@CComVariant@ATL@@QEAAJPEAUIStream@@G@Z 0000000180027850 f i PointCardRW.obj
 0001:00026930       ?_AtlFinalConstruct@CComObjectRootBase@ATL@@QEAAJXZ 0000000180027930 f i PointCardRW.obj
 0001:00026940       ?_AtlGetConversionACP@ATL@@YAIXZ 0000000180027940 f i PointCardRW.obj
 0001:00026950       ?_AtlInitialConstruct@?$CComAggObject@VCOPOSPointCardRW@@@ATL@@QEAAJXZ 0000000180027950 f i PointCardRW.obj
 0001:000269a0       ?_AtlInitialConstruct@?$CComObjectRootEx@VCComMultiThreadModel@ATL@@@ATL@@QEAAJXZ 00000001800279a0 f i PointCardRW.obj
 0001:000269d0       ?_AtlInitialConstruct@?$CComObjectRootEx@VCComSingleThreadModel@ATL@@@ATL@@QEAAJXZ 00000001800279d0 f i PointCardRW.obj
 0001:000269e0       ?_AtlVerifyStackAvailable@_ATL_SAFE_ALLOCA_IMPL@ATL@@YA_N_K@Z 00000001800279e0 f i PointCardRW.obj
 0001:00026b40       ?_GetEntries@?$CComEnum@UIEnumConnectionPoints@@$1?_GUID_b196b285_bab4_101a_b69c_00aa00341d07@@3U__s_GUID@@BPEAUIConnectionPoint@@V?$_CopyInterface@UIConnectionPoint@@@ATL@@VCComSingleThreadModel@6@@ATL@@SAPEBU_ATL_INTMAP_ENTRY@2@XZ 0000000180027b40 f i PointCardRW.obj
 0001:00026b60       ?_GetEntries@?$CComEnum@UIEnumConnections@@$1?_GUID_b196b287_bab4_101a_b69c_00aa00341d07@@3U__s_GUID@@BUtagCONNECTDATA@@V?$_Copy@UtagCONNECTDATA@@@ATL@@VCComSingleThreadModel@6@@ATL@@SAPEBU_ATL_INTMAP_ENTRY@2@XZ 0000000180027b60 f i PointCardRW.obj
 0001:00026b80       ?_GetEntries@CComClassFactory@ATL@@SAPEBU_ATL_INTMAP_ENTRY@2@XZ 0000000180027b80 f i PointCardRW.obj
 0001:00026ba0       ?_GetEntries@COPOSPointCardRW@@SAPEBU_ATL_INTMAP_ENTRY@ATL@@XZ 0000000180027ba0 f i PointCardRW.obj
 0001:00026bc0       ?_GetRawUnknown@COPOSPointCardRW@@QEAAPEAUIUnknown@@XZ 0000000180027bc0 f i PointCardRW.obj
 0001:00026c40       ?_GetViewStatus@COPOSPointCardRW@@QEAAKXZ 0000000180027c40 f i PointCardRW.obj
 0001:00026c50       ?_InternalQueryInterface@?$CComEnum@UIEnumConnectionPoints@@$1?_GUID_b196b285_bab4_101a_b69c_00aa00341d07@@3U__s_GUID@@BPEAUIConnectionPoint@@V?$_CopyInterface@UIConnectionPoint@@@ATL@@VCComSingleThreadModel@6@@ATL@@QEAAJAEBU_GUID@@PEAPEAX@Z 0000000180027c50 f i PointCardRW.obj
 0001:00026c90       ?_InternalQueryInterface@?$CComEnum@UIEnumConnections@@$1?_GUID_b196b287_bab4_101a_b69c_00aa00341d07@@3U__s_GUID@@BUtagCONNECTDATA@@V?$_Copy@UtagCONNECTDATA@@@ATL@@VCComSingleThreadModel@6@@ATL@@QEAAJAEBU_GUID@@PEAPEAX@Z 0000000180027c90 f i PointCardRW.obj
 0001:00026cd0       ?_InternalQueryInterface@CComClassFactory@ATL@@QEAAJAEBU_GUID@@PEAPEAX@Z 0000000180027cd0 f i PointCardRW.obj
 0001:00026d10       ?_InternalQueryInterface@COPOSPointCardRW@@QEAAJAEBU_GUID@@PEAPEAX@Z 0000000180027d10 f i PointCardRW.obj
 0001:00026d50       ?_LocCPQueryInterface@?$IConnectionPointImpl@VCOPOSPointCardRW@@$1?DIID__IOPOSPointCardRWEvents@@3U_GUID@@BVCComDynamicUnkArray@ATL@@@ATL@@UEAAJAEBU_GUID@@PEAPEAX@Z 0000000180027d50 f i PointCardRW.obj
 0001:00026e20       ?_LocCPQueryInterface@?$IConnectionPointImpl@VCOPOSPointCardRW@@$1?IID_IPropertyNotifySink@@3U_GUID@@BVCComDynamicUnkArray@ATL@@@ATL@@UEAAJAEBU_GUID@@PEAPEAX@Z 0000000180027e20 f i PointCardRW.obj
 0001:00026ef0       ?atlCreate@?$CWindowImpl@VCOPOSPointCardRW@@VCWindow@ATL@@V?$CWinTraits@$0FGAAAAAA@$0A@@3@@ATL@@QEAAPEAUHWND__@@PEAU3@V_U_RECT@2@PEB_WKKV_U_MENUorID@2@PEAX@Z 0000000180027ef0 f i PointCardRW.obj
 0001:00027000       ?atlCreate@?$CWindowImplBaseT@VCWindow@ATL@@V?$CWinTraits@$0FGAAAAAA@$0A@@2@@ATL@@QEAAPEAUHWND__@@PEAU3@V_U_RECT@2@PEB_WKKV_U_MENUorID@2@GPEAX@Z 0000000180028000 f i PointCardRW.obj
 0001:00027250       ?atlCreate@CRegKey@ATL@@QEAAJPEAUHKEY__@@PEB_WPEA_WKKPEAU_SECURITY_ATTRIBUTES@@PEAK@Z 0000000180028250 f i PointCardRW.obj
 0001:00027450       ?begin@CComDynamicUnkArray@ATL@@QEAAPEAPEAUIUnknown@@XZ 0000000180028450 f i PointCardRW.obj
 0001:00027460       ?copy@?$_Copy@UtagCONNECTDATA@@@ATL@@SAJPEAUtagCONNECTDATA@@PEBU3@@Z 0000000180028460 f i PointCardRW.obj
 0001:00027540       ?copy@?$_CopyInterface@UIConnectionPoint@@@ATL@@SAJPEAPEAUIConnectionPoint@@PEBQEAU3@@Z 0000000180028540 f i PointCardRW.obj
 0001:00027620       ?destroy@?$_Copy@UtagCONNECTDATA@@@ATL@@SAXPEAUtagCONNECTDATA@@@Z 0000000180028620 f i PointCardRW.obj
 0001:00027660       ?destroy@?$_CopyInterface@UIConnectionPoint@@@ATL@@SAXPEAPEAUIConnectionPoint@@@Z 0000000180028660 f i PointCardRW.obj
 0001:000276a0       ?end@CComDynamicUnkArray@ATL@@QEAAPEAPEAUIUnknown@@XZ 00000001800286a0 f i PointCardRW.obj
 0001:000276c0       ?init@?$_Copy@UtagCONNECTDATA@@@ATL@@SAXPEAUtagCONNECTDATA@@@Z 00000001800286c0 f i PointCardRW.obj
 0001:000276d0       ?init@?$_CopyInterface@UIConnectionPoint@@@ATL@@SAXPEAPEAUIConnectionPoint@@@Z 00000001800286d0 f i PointCardRW.obj
 0001:000276e0       ?memcpy_s@Checked@ATL@@YAXPEAX_KPEBX1@Z 00000001800286e0 f i PointCardRW.obj
 0001:00027720       ?ocscpy_s@@YA_NPEA_W_KPEB_W@Z 0000000180028720 f i PointCardRW.obj
 0001:00027790       ?ocslen@@YAHPEB_W@Z        0000000180028790 f i PointCardRW.obj
 0001:000277c0       ?tcsncpy_s@Checked@ATL@@YAHPEA_W_KPEB_W1@Z 00000001800287c0 f i PointCardRW.obj
 0001:00027800       ?wcscat_s@Checked@ATL@@YAXPEA_W_KPEB_W@Z 0000000180028800 f i PointCardRW.obj
 0001:00027840       ?wcscpy_s@Checked@ATL@@YAXPEA_W_KPEB_W@Z 0000000180028840 f i PointCardRW.obj
 0001:00027880       ?wcsncpy_s@Checked@ATL@@YAHPEA_W_KPEB_W1@Z 0000000180028880 f i PointCardRW.obj
 0001:000278c0       ?wcsstr@@YAPEA_WPEA_WPEB_W@Z 00000001800288c0 f i PointCardRW.obj
 0001:000278f0       InlineIsEqualGUID          00000001800288f0 f i PointCardRW.obj
 0001:000279b0       IsEqualGUID                00000001800289b0 f i PointCardRW.obj
 0001:00027a00       ??0COPOSPointCardRW@@QEAA@XZ 0000000180028a00 f   PointCardRWImpl.obj
 0001:00027b70       ?FinalConstruct@COPOSPointCardRW@@QEAAJXZ 0000000180028b70 f   PointCardRWImpl.obj
 0001:00027c50       ??1COPOSPointCardRW@@UEAA@XZ 0000000180028c50 f   PointCardRWImpl.obj
 0001:00027d30       ?WriteTrace@COPOSPointCardRW@@QEAAXPEB_WZZ 0000000180028d30 f   PointCardRWImpl.obj
 0001:00027e00       ?WriteTraceString@COPOSPointCardRW@@QEAAXPEB_WPEA_W@Z 0000000180028e00 f   PointCardRWImpl.obj
 0001:00028230       ?WriteTraceString@COPOSPointCardRW@@QEAAXPEAXHHHPEB_WZZ 0000000180029230 f   PointCardRWImpl.obj
 0001:000284c0       ?WriteTraceError@COPOSPointCardRW@@QEAAXPEB_WK@Z 00000001800294c0 f   PointCardRWImpl.obj
 0001:000285c0       ?WriteTraceMethods@COPOSPointCardRW@@QEAAXPEAJH@Z 00000001800295c0 f   PointCardRWImpl.obj
 0001:00028640       ?GetOposProp@COPOSPointCardRW@@IEAAJPEBDJPEAJJ@Z 0000000180029640 f   PointCardRWImpl.obj
 0001:00028960       ?SetOposProp@COPOSPointCardRW@@IEAAJPEBDJJJ@Z 0000000180029960 f   PointCardRWImpl.obj
 0001:00028cd0       ?GetOposProp@COPOSPointCardRW@@IEAAJPEBDJPEAFJ@Z 0000000180029cd0 f   PointCardRWImpl.obj
 0001:00028d80       ?SetOposProp@COPOSPointCardRW@@IEAAJPEBDJFJ@Z 0000000180029d80 f   PointCardRWImpl.obj
 0001:00028df0       ?GetOposProp@COPOSPointCardRW@@IEAAJPEBDJPEAPEA_WJ@Z 0000000180029df0 f   PointCardRWImpl.obj
 0001:00029110       ?SetOposProp@COPOSPointCardRW@@IEAAJPEBDJPEA_WJ@Z 000000018002a110 f   PointCardRWImpl.obj
 0001:000294f0       ?DoInvoke@COPOSPointCardRW@@IEAAJPEBDJPEAVOposVariant@@IHPEAJ_N@Z 000000018002a4f0 f   PointCardRWImpl.obj
 0001:0002a050       ?SetCOFreezeEvents@COPOSPointCardRW@@IEAAXF@Z 000000018002b050 f   PointCardRWImpl.obj
 0001:0002a1e0       ?FreezeEvents@COPOSPointCardRW@@MEAAJH@Z 000000018002b1e0 f   PointCardRWImpl.obj
 0001:0002a300       ?OnDraw@COPOSPointCardRW@@MEAAJAEAUATL_DRAWINFO@@@Z 000000018002b300 f   PointCardRWImpl.obj
 0001:0002a4d0       ?SOProcessID@COPOSPointCardRW@@UEAAJPEAJ@Z 000000018002b4d0 f   PointCardRWImpl.obj
 0001:0002a520       ?get_OpenResult@COPOSPointCardRW@@UEAAJPEAJ@Z 000000018002b520 f   PointCardRWImpl.obj
 0001:0002a570       ?get_BinaryConversion@COPOSPointCardRW@@UEAAJPEAJ@Z 000000018002b570 f   PointCardRWImpl.obj
 0001:0002a5b0       ?put_BinaryConversion@COPOSPointCardRW@@UEAAJJ@Z 000000018002b5b0 f   PointCardRWImpl.obj
 0001:0002a600       ?get_CapPowerReporting@COPOSPointCardRW@@UEAAJPEAJ@Z 000000018002b600 f   PointCardRWImpl.obj
 0001:0002a640       ?get_CheckHealthText@COPOSPointCardRW@@UEAAJPEAPEA_W@Z 000000018002b640 f   PointCardRWImpl.obj
 0001:0002a680       ?get_Claimed@COPOSPointCardRW@@UEAAJPEAF@Z 000000018002b680 f   PointCardRWImpl.obj
 0001:0002a6c0       ?get_DataCount@COPOSPointCardRW@@UEAAJPEAJ@Z 000000018002b6c0 f   PointCardRWImpl.obj
 0001:0002a700       ?get_DataEventEnabled@COPOSPointCardRW@@UEAAJPEAF@Z 000000018002b700 f   PointCardRWImpl.obj
 0001:0002a740       ?put_DataEventEnabled@COPOSPointCardRW@@UEAAJF@Z 000000018002b740 f   PointCardRWImpl.obj
 0001:0002a780       ?get_DeviceEnabled@COPOSPointCardRW@@UEAAJPEAF@Z 000000018002b780 f   PointCardRWImpl.obj
 0001:0002a7c0       ?put_DeviceEnabled@COPOSPointCardRW@@UEAAJF@Z 000000018002b7c0 f   PointCardRWImpl.obj
 0001:0002a800       ?get_FreezeEvents@COPOSPointCardRW@@UEAAJPEAF@Z 000000018002b800 f   PointCardRWImpl.obj
 0001:0002a840       ?put_FreezeEvents@COPOSPointCardRW@@UEAAJF@Z 000000018002b840 f   PointCardRWImpl.obj
 0001:0002a900       ?get_OutputID@COPOSPointCardRW@@UEAAJPEAJ@Z 000000018002b900 f   PointCardRWImpl.obj
 0001:0002a940       ?get_PowerNotify@COPOSPointCardRW@@UEAAJPEAJ@Z 000000018002b940 f   PointCardRWImpl.obj
 0001:0002a980       ?put_PowerNotify@COPOSPointCardRW@@UEAAJJ@Z 000000018002b980 f   PointCardRWImpl.obj
 0001:0002a9c0       ?get_PowerState@COPOSPointCardRW@@UEAAJPEAJ@Z 000000018002b9c0 f   PointCardRWImpl.obj
 0001:0002aa00       ?get_ResultCode@COPOSPointCardRW@@UEAAJPEAJ@Z 000000018002ba00 f   PointCardRWImpl.obj
 0001:0002aab0       ?get_ResultCodeExtended@COPOSPointCardRW@@UEAAJPEAJ@Z 000000018002bab0 f   PointCardRWImpl.obj
 0001:0002aaf0       ?get_State@COPOSPointCardRW@@UEAAJPEAJ@Z 000000018002baf0 f   PointCardRWImpl.obj
 0001:0002ab60       ?get_ControlObjectDescription@COPOSPointCardRW@@UEAAJPEAPEA_W@Z 000000018002bb60 f   PointCardRWImpl.obj
 0001:0002abd0       ?get_ControlObjectVersion@COPOSPointCardRW@@UEAAJPEAJ@Z 000000018002bbd0 f   PointCardRWImpl.obj
 0001:0002ac20       ?get_ServiceObjectDescription@COPOSPointCardRW@@UEAAJPEAPEA_W@Z 000000018002bc20 f   PointCardRWImpl.obj
 0001:0002ac60       ?get_ServiceObjectVersion@COPOSPointCardRW@@UEAAJPEAJ@Z 000000018002bc60 f   PointCardRWImpl.obj
 0001:0002aca0       ?get_DeviceDescription@COPOSPointCardRW@@UEAAJPEAPEA_W@Z 000000018002bca0 f   PointCardRWImpl.obj
 0001:0002ace0       ?get_DeviceName@COPOSPointCardRW@@UEAAJPEAPEA_W@Z 000000018002bce0 f   PointCardRWImpl.obj
 0001:0002ad20       ?CheckHealth@COPOSPointCardRW@@UEAAJJPEAJ@Z 000000018002bd20 f   PointCardRWImpl.obj
 0001:0002ade0       ?ClaimDevice@COPOSPointCardRW@@UEAAJJPEAJ@Z 000000018002bde0 f   PointCardRWImpl.obj
 0001:0002af00       ?ClearInput@COPOSPointCardRW@@UEAAJPEAJ@Z 000000018002bf00 f   PointCardRWImpl.obj
 0001:0002af60       ?ClearOutput@COPOSPointCardRW@@UEAAJPEAJ@Z 000000018002bf60 f   PointCardRWImpl.obj
 0001:0002afc0       ?Close@COPOSPointCardRW@@UEAAJPEAJ@Z 000000018002bfc0 f   PointCardRWImpl.obj
 0001:0002b0c0       ?DirectIO@COPOSPointCardRW@@UEAAJJPEAJPEAPEA_W0@Z 000000018002c0c0 f   PointCardRWImpl.obj
 0001:0002b240       ?Open@COPOSPointCardRW@@UEAAJPEA_WPEAJ@Z 000000018002c240 f   PointCardRWImpl.obj
 0001:0002c720       ?ReleaseDevice@COPOSPointCardRW@@UEAAJPEAJ@Z 000000018002d720 f   PointCardRWImpl.obj
 0001:0002c7c0       ?get_CapBold@COPOSPointCardRW@@UEAAJPEAF@Z 000000018002d7c0 f   PointCardRWImpl.obj
 0001:0002c800       ?get_CapCardEntranceSensor@COPOSPointCardRW@@UEAAJPEAF@Z 000000018002d800 f   PointCardRWImpl.obj
 0001:0002c840       ?get_CapCharacterSet@COPOSPointCardRW@@UEAAJPEAJ@Z 000000018002d840 f   PointCardRWImpl.obj
 0001:0002c880       ?get_CapCleanCard@COPOSPointCardRW@@UEAAJPEAF@Z 000000018002d880 f   PointCardRWImpl.obj
 0001:0002c8c0       ?get_CapClearPrint@COPOSPointCardRW@@UEAAJPEAF@Z 000000018002d8c0 f   PointCardRWImpl.obj
 0001:0002c900       ?get_CapDhigh@COPOSPointCardRW@@UEAAJPEAF@Z 000000018002d900 f   PointCardRWImpl.obj
 0001:0002c940       ?get_CapDwide@COPOSPointCardRW@@UEAAJPEAF@Z 000000018002d940 f   PointCardRWImpl.obj
 0001:0002c980       ?get_CapDwideDhigh@COPOSPointCardRW@@UEAAJPEAF@Z 000000018002d980 f   PointCardRWImpl.obj
 0001:0002c9c0       ?get_CapItalic@COPOSPointCardRW@@UEAAJPEAF@Z 000000018002d9c0 f   PointCardRWImpl.obj
 0001:0002ca00       ?get_CapLeft90@COPOSPointCardRW@@UEAAJPEAF@Z 000000018002da00 f   PointCardRWImpl.obj
 0001:0002ca40       ?get_CapPrint@COPOSPointCardRW@@UEAAJPEAF@Z 000000018002da40 f   PointCardRWImpl.obj
 0001:0002ca80       ?get_CapPrintMode@COPOSPointCardRW@@UEAAJPEAF@Z 000000018002da80 f   PointCardRWImpl.obj
 0001:0002cac0       ?get_CapRight90@COPOSPointCardRW@@UEAAJPEAF@Z 000000018002dac0 f   PointCardRWImpl.obj
 0001:0002cb00       ?get_CapRotate180@COPOSPointCardRW@@UEAAJPEAF@Z 000000018002db00 f   PointCardRWImpl.obj
 0001:0002cb40       ?get_CapTracksToRead@COPOSPointCardRW@@UEAAJPEAJ@Z 000000018002db40 f   PointCardRWImpl.obj
 0001:0002cb80       ?get_CapTracksToWrite@COPOSPointCardRW@@UEAAJPEAJ@Z 000000018002db80 f   PointCardRWImpl.obj
 0001:0002cbc0       ?get_CardState@COPOSPointCardRW@@UEAAJPEAJ@Z 000000018002dbc0 f   PointCardRWImpl.obj
 0001:0002cc00       ?get_CharacterSet@COPOSPointCardRW@@UEAAJPEAJ@Z 000000018002dc00 f   PointCardRWImpl.obj
 0001:0002cc40       ?put_CharacterSet@COPOSPointCardRW@@UEAAJJ@Z 000000018002dc40 f   PointCardRWImpl.obj
 0001:0002cc80       ?get_CharacterSetList@COPOSPointCardRW@@UEAAJPEAPEA_W@Z 000000018002dc80 f   PointCardRWImpl.obj
 0001:0002ccc0       ?get_FontTypeFaceList@COPOSPointCardRW@@UEAAJPEAPEA_W@Z 000000018002dcc0 f   PointCardRWImpl.obj
 0001:0002cd00       ?get_LineChars@COPOSPointCardRW@@UEAAJPEAJ@Z 000000018002dd00 f   PointCardRWImpl.obj
 0001:0002cd40       ?put_LineChars@COPOSPointCardRW@@UEAAJJ@Z 000000018002dd40 f   PointCardRWImpl.obj
 0001:0002cd80       ?get_LineCharsList@COPOSPointCardRW@@UEAAJPEAPEA_W@Z 000000018002dd80 f   PointCardRWImpl.obj
 0001:0002cdc0       ?get_LineHeight@COPOSPointCardRW@@UEAAJPEAJ@Z 000000018002ddc0 f   PointCardRWImpl.obj
 0001:0002ce00       ?put_LineHeight@COPOSPointCardRW@@UEAAJJ@Z 000000018002de00 f   PointCardRWImpl.obj
 0001:0002ce40       ?get_LineSpacing@COPOSPointCardRW@@UEAAJPEAJ@Z 000000018002de40 f   PointCardRWImpl.obj
 0001:0002ce80       ?put_LineSpacing@COPOSPointCardRW@@UEAAJJ@Z 000000018002de80 f   PointCardRWImpl.obj
 0001:0002cec0       ?get_LineWidth@COPOSPointCardRW@@UEAAJPEAJ@Z 000000018002dec0 f   PointCardRWImpl.obj
 0001:0002cf00       ?get_MapMode@COPOSPointCardRW@@UEAAJPEAJ@Z 000000018002df00 f   PointCardRWImpl.obj
 0001:0002cf40       ?put_MapMode@COPOSPointCardRW@@UEAAJJ@Z 000000018002df40 f   PointCardRWImpl.obj
 0001:0002cf80       ?get_MaxLine@COPOSPointCardRW@@UEAAJPEAJ@Z 000000018002df80 f   PointCardRWImpl.obj
 0001:0002cfc0       ?get_PrintHeight@COPOSPointCardRW@@UEAAJPEAJ@Z 000000018002dfc0 f   PointCardRWImpl.obj
 0001:0002d000       ?get_ReadState1@COPOSPointCardRW@@UEAAJPEAJ@Z 000000018002e000 f   PointCardRWImpl.obj
 0001:0002d040       ?get_ReadState2@COPOSPointCardRW@@UEAAJPEAJ@Z 000000018002e040 f   PointCardRWImpl.obj
 0001:0002d080       ?get_RecvLength1@COPOSPointCardRW@@UEAAJPEAJ@Z 000000018002e080 f   PointCardRWImpl.obj
 0001:0002d0c0       ?get_RecvLength2@COPOSPointCardRW@@UEAAJPEAJ@Z 000000018002e0c0 f   PointCardRWImpl.obj
 0001:0002d100       ?get_SidewaysMaxChars@COPOSPointCardRW@@UEAAJPEAJ@Z 000000018002e100 f   PointCardRWImpl.obj
 0001:0002d140       ?get_SidewaysMaxLines@COPOSPointCardRW@@UEAAJPEAJ@Z 000000018002e140 f   PointCardRWImpl.obj
 0001:0002d180       ?get_Track1Data@COPOSPointCardRW@@UEAAJPEAPEA_W@Z 000000018002e180 f   PointCardRWImpl.obj
 0001:0002d1c0       ?get_Track2Data@COPOSPointCardRW@@UEAAJPEAPEA_W@Z 000000018002e1c0 f   PointCardRWImpl.obj
 0001:0002d200       ?get_Track3Data@COPOSPointCardRW@@UEAAJPEAPEA_W@Z 000000018002e200 f   PointCardRWImpl.obj
 0001:0002d240       ?get_Track4Data@COPOSPointCardRW@@UEAAJPEAPEA_W@Z 000000018002e240 f   PointCardRWImpl.obj
 0001:0002d280       ?get_Track5Data@COPOSPointCardRW@@UEAAJPEAPEA_W@Z 000000018002e280 f   PointCardRWImpl.obj
 0001:0002d2c0       ?get_Track6Data@COPOSPointCardRW@@UEAAJPEAPEA_W@Z 000000018002e2c0 f   PointCardRWImpl.obj
 0001:0002d300       ?get_TracksToRead@COPOSPointCardRW@@UEAAJPEAJ@Z 000000018002e300 f   PointCardRWImpl.obj
 0001:0002d340       ?put_TracksToRead@COPOSPointCardRW@@UEAAJJ@Z 000000018002e340 f   PointCardRWImpl.obj
 0001:0002d380       ?get_TracksToWrite@COPOSPointCardRW@@UEAAJPEAJ@Z 000000018002e380 f   PointCardRWImpl.obj
 0001:0002d3c0       ?put_TracksToWrite@COPOSPointCardRW@@UEAAJJ@Z 000000018002e3c0 f   PointCardRWImpl.obj
 0001:0002d400       ?get_Write1Data@COPOSPointCardRW@@UEAAJPEAPEA_W@Z 000000018002e400 f   PointCardRWImpl.obj
 0001:0002d440       ?put_Write1Data@COPOSPointCardRW@@UEAAJPEA_W@Z 000000018002e440 f   PointCardRWImpl.obj
 0001:0002d480       ?get_Write2Data@COPOSPointCardRW@@UEAAJPEAPEA_W@Z 000000018002e480 f   PointCardRWImpl.obj
 0001:0002d4c0       ?put_Write2Data@COPOSPointCardRW@@UEAAJPEA_W@Z 000000018002e4c0 f   PointCardRWImpl.obj
 0001:0002d500       ?get_Write3Data@COPOSPointCardRW@@UEAAJPEAPEA_W@Z 000000018002e500 f   PointCardRWImpl.obj
 0001:0002d540       ?put_Write3Data@COPOSPointCardRW@@UEAAJPEA_W@Z 000000018002e540 f   PointCardRWImpl.obj
 0001:0002d580       ?get_Write4Data@COPOSPointCardRW@@UEAAJPEAPEA_W@Z 000000018002e580 f   PointCardRWImpl.obj
 0001:0002d5c0       ?put_Write4Data@COPOSPointCardRW@@UEAAJPEA_W@Z 000000018002e5c0 f   PointCardRWImpl.obj
 0001:0002d600       ?get_Write5Data@COPOSPointCardRW@@UEAAJPEAPEA_W@Z 000000018002e600 f   PointCardRWImpl.obj
 0001:0002d640       ?put_Write5Data@COPOSPointCardRW@@UEAAJPEA_W@Z 000000018002e640 f   PointCardRWImpl.obj
 0001:0002d680       ?get_Write6Data@COPOSPointCardRW@@UEAAJPEAPEA_W@Z 000000018002e680 f   PointCardRWImpl.obj
 0001:0002d6c0       ?put_Write6Data@COPOSPointCardRW@@UEAAJPEA_W@Z 000000018002e6c0 f   PointCardRWImpl.obj
 0001:0002d700       ?get_WriteState1@COPOSPointCardRW@@UEAAJPEAJ@Z 000000018002e700 f   PointCardRWImpl.obj
 0001:0002d740       ?get_WriteState2@COPOSPointCardRW@@UEAAJPEAJ@Z 000000018002e740 f   PointCardRWImpl.obj
 0001:0002d780       ?BeginInsertion@COPOSPointCardRW@@UEAAJJPEAJ@Z 000000018002e780 f   PointCardRWImpl.obj
 0001:0002d840       ?BeginRemoval@COPOSPointCardRW@@UEAAJJPEAJ@Z 000000018002e840 f   PointCardRWImpl.obj
 0001:0002d900       ?CleanCard@COPOSPointCardRW@@UEAAJPEAJ@Z 000000018002e900 f   PointCardRWImpl.obj
 0001:0002d960       ?ClearPrintWrite@COPOSPointCardRW@@UEAAJJJJJJPEAJ@Z 000000018002e960 f   PointCardRWImpl.obj
 0001:0002daf0       ?EndInsertion@COPOSPointCardRW@@UEAAJPEAJ@Z 000000018002eaf0 f   PointCardRWImpl.obj
 0001:0002db50       ?EndRemoval@COPOSPointCardRW@@UEAAJPEAJ@Z 000000018002eb50 f   PointCardRWImpl.obj
 0001:0002dbb0       ?PrintWrite@COPOSPointCardRW@@UEAAJJJJPEA_WPEAJ@Z 000000018002ebb0 f   PointCardRWImpl.obj
 0001:0002dd40       ?RotatePrint@COPOSPointCardRW@@UEAAJJPEAJ@Z 000000018002ed40 f   PointCardRWImpl.obj
 0001:0002de00       ?ValidateData@COPOSPointCardRW@@UEAAJPEA_WPEAJ@Z 000000018002ee00 f   PointCardRWImpl.obj
 0001:0002dee0       ?get_CapMapCharacterSet@COPOSPointCardRW@@UEAAJPEAF@Z 000000018002eee0 f   PointCardRWImpl.obj
 0001:0002df20       ?get_MapCharacterSet@COPOSPointCardRW@@UEAAJPEAF@Z 000000018002ef20 f   PointCardRWImpl.obj
 0001:0002df60       ?put_MapCharacterSet@COPOSPointCardRW@@UEAAJF@Z 000000018002ef60 f   PointCardRWImpl.obj
 0001:0002dfa0       ?get_CapStatisticsReporting@COPOSPointCardRW@@UEAAJPEAF@Z 000000018002efa0 f   PointCardRWImpl.obj
 0001:0002dfe0       ?get_CapUpdateStatistics@COPOSPointCardRW@@UEAAJPEAF@Z 000000018002efe0 f   PointCardRWImpl.obj
 0001:0002e020       ?ResetStatistics@COPOSPointCardRW@@UEAAJPEA_WPEAJ@Z 000000018002f020 f   PointCardRWImpl.obj
 0001:0002e100       ?RetrieveStatistics@COPOSPointCardRW@@UEAAJPEAPEA_WPEAJ@Z 000000018002f100 f   PointCardRWImpl.obj
 0001:0002e1e0       ?UpdateStatistics@COPOSPointCardRW@@UEAAJPEA_WPEAJ@Z 000000018002f1e0 f   PointCardRWImpl.obj
 0001:0002e2c0       ?get_CapCompareFirmwareVersion@COPOSPointCardRW@@UEAAJPEAF@Z 000000018002f2c0 f   PointCardRWImpl.obj
 0001:0002e300       ?get_CapUpdateFirmware@COPOSPointCardRW@@UEAAJPEAF@Z 000000018002f300 f   PointCardRWImpl.obj
 0001:0002e340       ?CompareFirmwareVersion@COPOSPointCardRW@@UEAAJPEA_WPEAJ1@Z 000000018002f340 f   PointCardRWImpl.obj
 0001:0002e480       ?UpdateFirmware@COPOSPointCardRW@@UEAAJPEA_WPEAJ@Z 000000018002f480 f   PointCardRWImpl.obj
 0001:0002e560       ?ClearInputProperties@COPOSPointCardRW@@UEAAJPEAJ@Z 000000018002f560 f   PointCardRWImpl.obj
 0001:0002e5b0       ??0?$CComControl@VCOPOSPointCardRW@@V?$CWindowImpl@VCOPOSPointCardRW@@VCWindow@ATL@@V?$CWinTraits@$0FGAAAAAA@$0A@@3@@ATL@@@ATL@@QEAA@XZ 000000018002f5b0 f i PointCardRWImpl.obj
 0001:0002e5f0       ??0?$CComPtr@UIAdviseSink@@@ATL@@QEAA@XZ 000000018002f5f0 f i PointCardRWImpl.obj
 0001:0002e610       ??0?$CComPtr@UIDataAdviseHolder@@@ATL@@QEAA@XZ 000000018002f610 f i PointCardRWImpl.obj
 0001:0002e630       ??0?$CComPtr@UIOleAdviseHolder@@@ATL@@QEAA@XZ 000000018002f630 f i PointCardRWImpl.obj
 0001:0002e650       ??0?$CComPtr@UIOleClientSite@@@ATL@@QEAA@XZ 000000018002f650 f i PointCardRWImpl.obj
 0001:0002e670       ??0?$CComPtr@UIOleInPlaceSiteWindowless@@@ATL@@QEAA@XZ 000000018002f670 f i PointCardRWImpl.obj
 0001:0002e690       ??0?$CComPtrBase@UIAdviseSink@@@ATL@@IEAA@XZ 000000018002f690 f i PointCardRWImpl.obj
 0001:0002e6b0       ??0?$CComPtrBase@UIDataAdviseHolder@@@ATL@@IEAA@XZ 000000018002f6b0 f i PointCardRWImpl.obj
 0001:0002e6d0       ??0?$CComPtrBase@UIOleAdviseHolder@@@ATL@@IEAA@XZ 000000018002f6d0 f i PointCardRWImpl.obj
 0001:0002e6f0       ??0?$CComPtrBase@UIOleClientSite@@@ATL@@IEAA@XZ 000000018002f6f0 f i PointCardRWImpl.obj
 0001:0002e710       ??0?$CComPtrBase@UIOleInPlaceSiteWindowless@@@ATL@@IEAA@XZ 000000018002f710 f i PointCardRWImpl.obj
 0001:0002e730       ??0?$CComQIPtr@UIDispatch@@$1?_GUID_00020400_0000_0000_c000_000000000046@@3U__s_GUID@@B@ATL@@QEAA@XZ 000000018002f730 f i PointCardRWImpl.obj
 0001:0002e750       ??0?$CProxy_IOPOSEvents@VCOPOSPointCardRW@@@@QEAA@PEAVCOPOSPointCardRW@@@Z 000000018002f750 f i PointCardRWImpl.obj
 0001:0002e7d0       ??0?$CWindowImpl@VCOPOSPointCardRW@@VCWindow@ATL@@V?$CWinTraits@$0FGAAAAAA@$0A@@3@@ATL@@QEAA@XZ 000000018002f7d0 f i PointCardRWImpl.obj
 0001:0002e7f0       ??0?$CWindowImplBaseT@VCWindow@ATL@@V?$CWinTraits@$0FGAAAAAA@$0A@@2@@ATL@@QEAA@XZ 000000018002f7f0 f i PointCardRWImpl.obj
 0001:0002e820       ??0?$CWindowImplRoot@VCWindow@ATL@@@ATL@@QEAA@XZ 000000018002f820 f i PointCardRWImpl.obj
 0001:0002e880       ??0?$IConnectionPointContainerImpl@VCOPOSPointCardRW@@@ATL@@QEAA@XZ 000000018002f880 f i PointCardRWImpl.obj
 0001:0002e8a0       ??0?$IConnectionPointImpl@VCOPOSPointCardRW@@$1?DIID__IOPOSPointCardRWEvents@@3U_GUID@@BVCComDynamicUnkArray@ATL@@@ATL@@QEAA@XZ 000000018002f8a0 f i PointCardRWImpl.obj
 0001:0002e8d0       ??0?$IConnectionPointImpl@VCOPOSPointCardRW@@$1?IID_IPropertyNotifySink@@3U_GUID@@BVCComDynamicUnkArray@ATL@@@ATL@@QEAA@XZ 000000018002f8d0 f i PointCardRWImpl.obj
 0001:0002e900       ??0?$IDataObjectImpl@VCOPOSPointCardRW@@@ATL@@QEAA@XZ 000000018002f900 f i PointCardRWImpl.obj
 0001:0002e920       ??0?$IDispatchImpl@UIOPOSPointCardRW@@$1?IID_IOPOSPointCardRW@@3U_GUID@@B$1?LIBID_OposPointCardRW_CCO@@3U3@B$00$0A@VCComTypeInfoHolder@ATL@@@ATL@@QEAA@XZ 000000018002f920 f i PointCardRWImpl.obj
 0001:0002e940       ??0?$IObjectSafetyImpl@VCOPOSPointCardRW@@$02@ATL@@QEAA@XZ 000000018002f940 f i PointCardRWImpl.obj
 0001:0002e970       ??0?$IOleControlImpl@VCOPOSPointCardRW@@@ATL@@QEAA@XZ 000000018002f970 f i PointCardRWImpl.obj
 0001:0002e990       ??0?$IOleInPlaceActiveObjectImpl@VCOPOSPointCardRW@@@ATL@@QEAA@XZ 000000018002f990 f i PointCardRWImpl.obj
 0001:0002e9b0       ??0?$IOleInPlaceObjectWindowlessImpl@VCOPOSPointCardRW@@@ATL@@QEAA@XZ 000000018002f9b0 f i PointCardRWImpl.obj
 0001:0002e9d0       ??0?$IOleObjectImpl@VCOPOSPointCardRW@@@ATL@@QEAA@XZ 000000018002f9d0 f i PointCardRWImpl.obj
 0001:0002e9f0       ??0?$IPersistStorageImpl@VCOPOSPointCardRW@@@ATL@@QEAA@XZ 000000018002f9f0 f i PointCardRWImpl.obj
 0001:0002ea10       ??0?$IPersistStreamInitImpl@VCOPOSPointCardRW@@@ATL@@QEAA@XZ 000000018002fa10 f i PointCardRWImpl.obj
 0001:0002ea30       ??0?$IPropertyNotifySinkCP@VCOPOSPointCardRW@@VCComDynamicUnkArray@ATL@@@ATL@@QEAA@XZ 000000018002fa30 f i PointCardRWImpl.obj
 0001:0002ea50       ??0?$IProvideClassInfo2Impl@$1?CLSID_OPOSPointCardRW@@3U_GUID@@B$1?DIID__IOPOSPointCardRWEvents@@3U2@B$1?LIBID_OposPointCardRW_CCO@@3U2@B$00$0A@VCComTypeInfoHolder@ATL@@@ATL@@QEAA@XZ 000000018002fa50 f i PointCardRWImpl.obj
 0001:0002ea70       ??0?$IQuickActivateImpl@VCOPOSPointCardRW@@@ATL@@QEAA@XZ 000000018002fa70 f i PointCardRWImpl.obj
 0001:0002ea90       ??0?$ISpecifyPropertyPagesImpl@VCOPOSPointCardRW@@@ATL@@QEAA@XZ 000000018002fa90 f i PointCardRWImpl.obj
 0001:0002eab0       ??0?$IViewObjectExImpl@VCOPOSPointCardRW@@@ATL@@QEAA@XZ 000000018002fab0 f i PointCardRWImpl.obj
 0001:0002ead0       ??0?$_ICPLocator@$1?DIID__IOPOSPointCardRWEvents@@3U_GUID@@B@ATL@@QEAA@XZ 000000018002fad0 f i PointCardRWImpl.obj
 0001:0002eae0       ??0?$_ICPLocator@$1?IID_IPropertyNotifySink@@3U_GUID@@B@ATL@@QEAA@XZ 000000018002fae0 f i PointCardRWImpl.obj
 0001:0002eaf0       ??0CComControlBase@ATL@@QEAA@AEAPEAUHWND__@@@Z 000000018002faf0 f i PointCardRWImpl.obj
 0001:0002ed00       ??0CComDynamicUnkArray@ATL@@QEAA@XZ 000000018002fd00 f i PointCardRWImpl.obj
 0001:0002ed30       ??0CDynamicStdCallThunk2@ATL@@QEAA@XZ 000000018002fd30 f i PointCardRWImpl.obj
 0001:0002ed50       ??0CMessageMap@ATL@@QEAA@XZ 000000018002fd50 f i PointCardRWImpl.obj
 0001:0002ed60       ??0CWindow@ATL@@QEAA@PEAUHWND__@@@Z 000000018002fd60 f i PointCardRWImpl.obj
 0001:0002ed80       ??0CWndProcThunk@ATL@@QEAA@XZ 000000018002fd80 f i PointCardRWImpl.obj
 0001:0002edb0       ??0IConnectionPointContainer@@QEAA@XZ 000000018002fdb0 f i PointCardRWImpl.obj
 0001:0002edd0       ??0IDataObject@@QEAA@XZ    000000018002fdd0 f i PointCardRWImpl.obj
 0001:0002edf0       ??0IDispatch@@QEAA@XZ      000000018002fdf0 f i PointCardRWImpl.obj
 0001:0002ee10       ??0IOPOSPointCardRW@@QEAA@XZ 000000018002fe10 f i PointCardRWImpl.obj
 0001:0002ee30       ??0IOPOSPointCardRW_1_10@@QEAA@XZ 000000018002fe30 f i PointCardRWImpl.obj
 0001:0002ee50       ??0IOPOSPointCardRW_1_5@@QEAA@XZ 000000018002fe50 f i PointCardRWImpl.obj
 0001:0002ee70       ??0IOPOSPointCardRW_1_7@@QEAA@XZ 000000018002fe70 f i PointCardRWImpl.obj
 0001:0002ee90       ??0IOPOSPointCardRW_1_8@@QEAA@XZ 000000018002fe90 f i PointCardRWImpl.obj
 0001:0002eeb0       ??0IOPOSPointCardRW_1_9@@QEAA@XZ 000000018002feb0 f i PointCardRWImpl.obj
 0001:0002eed0       ??0IObjectSafety@@QEAA@XZ  000000018002fed0 f i PointCardRWImpl.obj
 0001:0002eef0       ??0IOleControl@@QEAA@XZ    000000018002fef0 f i PointCardRWImpl.obj
 0001:0002ef10       ??0IOleInPlaceActiveObject@@QEAA@XZ 000000018002ff10 f i PointCardRWImpl.obj
 0001:0002ef30       ??0IOleInPlaceObject@@QEAA@XZ 000000018002ff30 f i PointCardRWImpl.obj
 0001:0002ef50       ??0IOleInPlaceObjectWindowless@@QEAA@XZ 000000018002ff50 f i PointCardRWImpl.obj
 0001:0002ef70       ??0IOleObject@@QEAA@XZ     000000018002ff70 f i PointCardRWImpl.obj
 0001:0002ef90       ??0IOleWindow@@QEAA@XZ     000000018002ff90 f i PointCardRWImpl.obj
 0001:0002efb0       ??0IPersist@@QEAA@XZ       000000018002ffb0 f i PointCardRWImpl.obj
 0001:0002efd0       ??0IPersistStorage@@QEAA@XZ 000000018002ffd0 f i PointCardRWImpl.obj
 0001:0002eff0       ??0IPersistStreamInit@@QEAA@XZ 000000018002fff0 f i PointCardRWImpl.obj
 0001:0002f010       ??0IProvideClassInfo2@@QEAA@XZ 0000000180030010 f i PointCardRWImpl.obj
 0001:0002f030       ??0IProvideClassInfo@@QEAA@XZ 0000000180030030 f i PointCardRWImpl.obj
 0001:0002f050       ??0IQuickActivate@@QEAA@XZ 0000000180030050 f i PointCardRWImpl.obj
 0001:0002f070       ??0ISpecifyPropertyPages@@QEAA@XZ 0000000180030070 f i PointCardRWImpl.obj
 0001:0002f090       ??0IViewObject2@@QEAA@XZ   0000000180030090 f i PointCardRWImpl.obj
 0001:0002f0b0       ??0IViewObject@@QEAA@XZ    00000001800300b0 f i PointCardRWImpl.obj
 0001:0002f0d0       ??0IViewObjectEx@@QEAA@XZ  00000001800300d0 f i PointCardRWImpl.obj
 0001:0002f0f0       ??0OposVariantResult@@QEAA@XZ 00000001800300f0 f i PointCardRWImpl.obj
 0001:0002f110       ??0_CW@@QEAA@PEBD@Z        0000000180030110 f i PointCardRWImpl.obj
 0001:0002f160       ??0_CW@@QEAA@PEB_W@Z       0000000180030160 f i PointCardRWImpl.obj
 0001:0002f1b0       ??0_CWNCC@@QEAA@PEBD@Z     00000001800301b0 f i PointCardRWImpl.obj
 0001:0002f1e0       ??1?$CComControl@VCOPOSPointCardRW@@V?$CWindowImpl@VCOPOSPointCardRW@@VCWindow@ATL@@V?$CWinTraits@$0FGAAAAAA@$0A@@3@@ATL@@@ATL@@UEAA@XZ 00000001800301e0 f i PointCardRWImpl.obj
 0001:0002f210       ??1?$CComPtr@UIDataAdviseHolder@@@ATL@@QEAA@XZ 0000000180030210 f i PointCardRWImpl.obj
 0001:0002f230       ??1?$CComPtr@UIOleAdviseHolder@@@ATL@@QEAA@XZ 0000000180030230 f i PointCardRWImpl.obj
 0001:0002f250       ??1?$CComPtr@UIOleInPlaceSiteWindowless@@@ATL@@QEAA@XZ 0000000180030250 f i PointCardRWImpl.obj
 0001:0002f270       ??1?$CComPtrBase@UIDataAdviseHolder@@@ATL@@QEAA@XZ 0000000180030270 f i PointCardRWImpl.obj
 0001:0002f2b0       ??1?$CComPtrBase@UIOleAdviseHolder@@@ATL@@QEAA@XZ 00000001800302b0 f i PointCardRWImpl.obj
 0001:0002f2f0       ??1?$CComPtrBase@UIOleInPlaceSiteWindowless@@@ATL@@QEAA@XZ 00000001800302f0 f i PointCardRWImpl.obj
 0001:0002f330       ??1?$CComQIPtr@UIDispatch@@$1?_GUID_00020400_0000_0000_c000_000000000046@@3U__s_GUID@@B@ATL@@QEAA@XZ 0000000180030330 f i PointCardRWImpl.obj
 0001:0002f350       ??1?$CProxy_IOPOSEvents@VCOPOSPointCardRW@@@@QEAA@XZ 0000000180030350 f i PointCardRWImpl.obj
 0001:0002f370       ??1?$CWindowImpl@VCOPOSPointCardRW@@VCWindow@ATL@@V?$CWinTraits@$0FGAAAAAA@$0A@@3@@ATL@@UEAA@XZ 0000000180030370 f i PointCardRWImpl.obj
 0001:0002f390       ??1?$CWindowImplBaseT@VCWindow@ATL@@V?$CWinTraits@$0FGAAAAAA@$0A@@2@@ATL@@UEAA@XZ 0000000180030390 f i PointCardRWImpl.obj
 0001:0002f3b0       ??1?$CWindowImplRoot@VCWindow@ATL@@@ATL@@UEAA@XZ 00000001800303b0 f i PointCardRWImpl.obj
 0001:0002f460       ??1?$IConnectionPointImpl@VCOPOSPointCardRW@@$1?DIID__IOPOSPointCardRWEvents@@3U_GUID@@BVCComDynamicUnkArray@ATL@@@ATL@@QEAA@XZ 0000000180030460 f i PointCardRWImpl.obj
 0001:0002f4e0       ??1?$IConnectionPointImpl@VCOPOSPointCardRW@@$1?IID_IPropertyNotifySink@@3U_GUID@@BVCComDynamicUnkArray@ATL@@@ATL@@QEAA@XZ 00000001800304e0 f i PointCardRWImpl.obj
 0001:0002f560       ??1?$IPropertyNotifySinkCP@VCOPOSPointCardRW@@VCComDynamicUnkArray@ATL@@@ATL@@QEAA@XZ 0000000180030560 f i PointCardRWImpl.obj
 0001:0002f580       ??1CComControlBase@ATL@@UEAA@XZ 0000000180030580 f i PointCardRWImpl.obj
 0001:0002f660       ??1CComDynamicUnkArray@ATL@@QEAA@XZ 0000000180030660 f i PointCardRWImpl.obj
 0001:0002f690       ??1CDynamicStdCallThunk2@ATL@@QEAA@XZ 0000000180030690 f i PointCardRWImpl.obj
 0001:0002f6c0       ??1CWndProcThunk@ATL@@QEAA@XZ 00000001800306c0 f i PointCardRWImpl.obj
 0001:0002f6f0       ??1OposVariantResult@@QEAA@XZ 00000001800306f0 f i PointCardRWImpl.obj
 0001:0002f720       ??1_CW@@QEAA@XZ            0000000180030720 f i PointCardRWImpl.obj
 0001:0002f780       ??1_CWNCC@@QEAA@XZ         0000000180030780 f i PointCardRWImpl.obj
 0001:0002f7a0       ??B_CW@@QEAAPEB_WXZ        00000001800307a0 f i PointCardRWImpl.obj
 0001:0002f7d0       ??B_CWNCC@@QEAAPEA_WXZ     00000001800307d0 f i PointCardRWImpl.obj
 0001:0002f7f0       ??_EOposVariant@@QEAAPEAXI@Z 00000001800307f0 f i PointCardRWImpl.obj
 0001:0002f890       ?EventClaim@COPOSPointCardRW@@IEAAXXZ 0000000180030890 f i PointCardRWImpl.obj
 0001:0002f8c0       ?EventClose@COPOSPointCardRW@@IEAAXXZ 00000001800308c0 f i PointCardRWImpl.obj
 0001:0002f960       ?EventInit@COPOSPointCardRW@@IEAAJXZ 0000000180030960 f i PointCardRWImpl.obj
 0001:0002fc10       ?EventOpen@COPOSPointCardRW@@IEAAXXZ 0000000180030c10 f i PointCardRWImpl.obj
 0001:0002fc50       ?EventPreCloseRelease@COPOSPointCardRW@@IEAAXXZ 0000000180030c50 f i PointCardRWImpl.obj
 0001:0002fcc0       ?EventUninit@COPOSPointCardRW@@IEAAXXZ 0000000180030cc0 f i PointCardRWImpl.obj
 0001:0002fde0       ?EventWindowProc@COPOSPointCardRW@@IEAA_JI_K_J@Z 0000000180030de0 f i PointCardRWImpl.obj
 0001:0002fff0       ?FireEventCleanup@COPOSPointCardRW@@IEAAXXZ 0000000180030ff0 f i PointCardRWImpl.obj
 0001:00030030       ?FireEventSetup@COPOSPointCardRW@@IEAA_NXZ 0000000180031030 f i PointCardRWImpl.obj
 0001:000300a0       ?GetModuleInstance@CComModule@ATL@@QEAAPEAUHINSTANCE__@@XZ 00000001800310a0 f i PointCardRWImpl.obj
 0001:000300b0       ?SetRC@COPOSPointCardRW@@IEAAJJ@Z 00000001800310b0 f i PointCardRWImpl.obj
 0001:000300d0       ?s_EventWindowProc@COPOSPointCardRW@@KA_JPEAUHWND__@@I_K_J@Z 00000001800310d0 f i PointCardRWImpl.obj
 0001:00030170       _snwprintf                 0000000180031170 f i PointCardRWImpl.obj
 0001:00030200       _vfwprintf_l               0000000180031200 f i PointCardRWImpl.obj
 0001:00030250       _vsnwprintf                0000000180031250 f i PointCardRWImpl.obj
 0001:00030290       _vsnwprintf_l              0000000180031290 f i PointCardRWImpl.obj
 0001:00030310       vfwprintf                  0000000180031310 f i PointCardRWImpl.obj
 0001:00030341       DebugBreak                 0000000180031341 f   kernel32:KERNEL32.dll
 0001:00030347       Sleep                      0000000180031347 f   kernel32:KERNEL32.dll
 0001:0003034d       GetCurrentProcess          000000018003134d f   kernel32:KERNEL32.dll
 0001:00030353       TerminateProcess           0000000180031353 f   kernel32:KERNEL32.dll
 0001:00030359       MultiByteToWideChar        0000000180031359 f   kernel32:KERNEL32.dll
 0001:0003035f       WideCharToMultiByte        000000018003135f f   kernel32:KERNEL32.dll
 0001:00030365       DecodePointer              0000000180031365 f   kernel32:KERNEL32.dll
 0001:0003036b       RaiseException             000000018003136b f   kernel32:KERNEL32.dll
 0001:00030371       GetLastError               0000000180031371 f   kernel32:KERNEL32.dll
 0001:00030377       SetLastError               0000000180031377 f   kernel32:KERNEL32.dll
 0001:0003037d       InitializeCriticalSectionEx 000000018003137d f   kernel32:KERNEL32.dll
 0001:00030383       DeleteCriticalSection      0000000180031383 f   kernel32:KERNEL32.dll
 0001:00030389       EncodePointer              0000000180031389 f   kernel32:KERNEL32.dll
 0001:0003038f       EnterCriticalSection       000000018003138f f   kernel32:KERNEL32.dll
 0001:00030395       LeaveCriticalSection       0000000180031395 f   kernel32:KERNEL32.dll
 0001:0003039b       ResetEvent                 000000018003139b f   kernel32:KERNEL32.dll
 0001:000303a1       ReleaseMutex               00000001800313a1 f   kernel32:KERNEL32.dll
 0001:000303a7       WaitForSingleObject        00000001800313a7 f   kernel32:KERNEL32.dll
 0001:000303ad       GetCurrentThreadId         00000001800313ad f   kernel32:KERNEL32.dll
 0001:000303b3       DisableThreadLibraryCalls  00000001800313b3 f   kernel32:KERNEL32.dll
 0001:000303b9       FreeLibrary                00000001800313b9 f   kernel32:KERNEL32.dll
 0001:000303bf       GetModuleFileNameW         00000001800313bf f   kernel32:KERNEL32.dll
 0001:000303c5       GetModuleHandleW           00000001800313c5 f   kernel32:KERNEL32.dll
 0001:000303cb       GetProcAddress             00000001800313cb f   kernel32:KERNEL32.dll
 0001:000303d1       LoadLibraryExW             00000001800313d1 f   kernel32:KERNEL32.dll
 0001:000303d7       LoadResource               00000001800313d7 f   kernel32:KERNEL32.dll
 0001:000303dd       SizeofResource             00000001800313dd f   kernel32:KERNEL32.dll
 0001:000303e3       FindResourceW              00000001800313e3 f   kernel32:KERNEL32.dll
 0001:000303e9       GlobalAlloc                00000001800313e9 f   kernel32:KERNEL32.dll
 0001:000303ef       GlobalUnlock               00000001800313ef f   kernel32:KERNEL32.dll
 0001:000303f5       GlobalLock                 00000001800313f5 f   kernel32:KERNEL32.dll
 0001:000303fb       MulDiv                     00000001800313fb f   kernel32:KERNEL32.dll
 0001:00030401       lstrcmpiW                  0000000180031401 f   kernel32:KERNEL32.dll
 0001:00030407       DeleteFileW                0000000180031407 f   kernel32:KERNEL32.dll
 0001:0003040d       CloseHandle                000000018003140d f   kernel32:KERNEL32.dll
 0001:00030413       SetEvent                   0000000180031413 f   kernel32:KERNEL32.dll
 0001:00030419       CreateMutexW               0000000180031419 f   kernel32:KERNEL32.dll
 0001:0003041f       CreateEventW               000000018003141f f   kernel32:KERNEL32.dll
 0001:00030425       GetCurrentProcessId        0000000180031425 f   kernel32:KERNEL32.dll
 0001:0003042b       LocalFree                  000000018003142b f   kernel32:KERNEL32.dll
 0001:00030431       FormatMessageW             0000000180031431 f   kernel32:KERNEL32.dll
 0001:00030437       GetActiveWindow            0000000180031437 f   user32:USER32.dll
 0001:0003043d       MessageBoxW                000000018003143d f   user32:USER32.dll
 0001:00030443       UnregisterClassW           0000000180031443 f   user32:USER32.dll
 0001:00030449       PostMessageW               0000000180031449 f   user32:USER32.dll
 0001:0003044f       DefWindowProcW             000000018003144f f   user32:USER32.dll
 0001:00030455       CallWindowProcW            0000000180031455 f   user32:USER32.dll
 0001:0003045b       RegisterClassExW           000000018003145b f   user32:USER32.dll
 0001:00030461       GetClassInfoExW            0000000180031461 f   user32:USER32.dll
 0001:00030467       CreateWindowExW            0000000180031467 f   user32:USER32.dll
 0001:0003046d       IsWindow                   000000018003146d f   user32:USER32.dll
 0001:00030473       IsChild                    0000000180031473 f   user32:USER32.dll
 0001:00030479       DestroyWindow              0000000180031479 f   user32:USER32.dll
 0001:0003047f       ShowWindow                 000000018003147f f   user32:USER32.dll
 0001:00030485       SetWindowPos               0000000180031485 f   user32:USER32.dll
 0001:0003048b       CharNextW                  000000018003148b f   user32:USER32.dll
 0001:00030491       SetFocus                   0000000180031491 f   user32:USER32.dll
 0001:00030497       GetFocus                   0000000180031497 f   user32:USER32.dll
 0001:0003049d       GetKeyState                000000018003149d f   user32:USER32.dll
 0001:000304a3       GetDC                      00000001800314a3 f   user32:USER32.dll
 0001:000304a9       ReleaseDC                  00000001800314a9 f   user32:USER32.dll
 0001:000304af       BeginPaint                 00000001800314af f   user32:USER32.dll
 0001:000304b5       EndPaint                   00000001800314b5 f   user32:USER32.dll
 0001:000304bb       SetWindowRgn               00000001800314bb f   user32:USER32.dll
 0001:000304c1       InvalidateRect             00000001800314c1 f   user32:USER32.dll
 0001:000304c7       GetClientRect              00000001800314c7 f   user32:USER32.dll
 0001:000304cd       IntersectRect              00000001800314cd f   user32:USER32.dll
 0001:000304d3       UnionRect                  00000001800314d3 f   user32:USER32.dll
 0001:000304d9       OffsetRect                 00000001800314d9 f   user32:USER32.dll
 0001:000304df       EqualRect                  00000001800314df f   user32:USER32.dll
 0001:000304e5       PtInRect                   00000001800314e5 f   user32:USER32.dll
 0001:000304eb       GetWindowLongPtrW          00000001800314eb f   user32:USER32.dll
 0001:000304f1       SetWindowLongPtrW          00000001800314f1 f   user32:USER32.dll
 0001:000304f7       GetParent                  00000001800314f7 f   user32:USER32.dll
 0001:000304fd       LoadCursorW                00000001800314fd f   user32:USER32.dll
 0001:00030503       PeekMessageW               0000000180031503 f   user32:USER32.dll
 0001:00030509       RegisterClassW             0000000180031509 f   user32:USER32.dll
 0001:0003050f       LoadBitmapW                000000018003150f f   user32:USER32.dll
 0001:00030515       CloseMetaFile              0000000180031515 f   gdi32:GDI32.dll
 0001:0003051b       CreateDCW                  000000018003151b f   gdi32:GDI32.dll
 0001:00030521       CreateMetaFileW            0000000180031521 f   gdi32:GDI32.dll
 0001:00030527       CreateRectRgnIndirect      0000000180031527 f   gdi32:GDI32.dll
 0001:0003052d       DeleteDC                   000000018003152d f   gdi32:GDI32.dll
 0001:00030533       DeleteMetaFile             0000000180031533 f   gdi32:GDI32.dll
 0001:00030539       GetDeviceCaps              0000000180031539 f   gdi32:GDI32.dll
 0001:0003053f       RestoreDC                  000000018003153f f   gdi32:GDI32.dll
 0001:00030545       SaveDC                     0000000180031545 f   gdi32:GDI32.dll
 0001:0003054b       SetMapMode                 000000018003154b f   gdi32:GDI32.dll
 0001:00030551       LPtoDP                     0000000180031551 f   gdi32:GDI32.dll
 0001:00030557       SetViewportOrgEx           0000000180031557 f   gdi32:GDI32.dll
 0001:0003055d       SetWindowExtEx             000000018003155d f   gdi32:GDI32.dll
 0001:00030563       SetWindowOrgEx             0000000180031563 f   gdi32:GDI32.dll
 0001:00030569       BitBlt                     0000000180031569 f   gdi32:GDI32.dll
 0001:0003056f       CreateCompatibleDC         000000018003156f f   gdi32:GDI32.dll
 0001:00030575       DeleteObject               0000000180031575 f   gdi32:GDI32.dll
 0001:0003057b       SelectObject               000000018003157b f   gdi32:GDI32.dll
 0001:00030581       GetObjectW                 0000000180031581 f   gdi32:GDI32.dll
 0001:00030587       RegCloseKey                0000000180031587 f   advapi32:ADVAPI32.dll
 0001:0003058d       RegCreateKeyExW            000000018003158d f   advapi32:ADVAPI32.dll
 0001:00030593       RegDeleteKeyW              0000000180031593 f   advapi32:ADVAPI32.dll
 0001:00030599       RegDeleteValueW            0000000180031599 f   advapi32:ADVAPI32.dll
 0001:0003059f       RegEnumKeyExW              000000018003159f f   advapi32:ADVAPI32.dll
 0001:000305a5       RegOpenKeyExW              00000001800315a5 f   advapi32:ADVAPI32.dll
 0001:000305ab       RegQueryInfoKeyW           00000001800315ab f   advapi32:ADVAPI32.dll
 0001:000305b1       RegSetValueExW             00000001800315b1 f   advapi32:ADVAPI32.dll
 0001:000305b7       RegQueryValueExW           00000001800315b7 f   advapi32:ADVAPI32.dll
 0001:000305bd       CoCreateInstance           00000001800315bd f   ole32:ole32.dll
 0001:000305c3       StringFromGUID2            00000001800315c3 f   ole32:ole32.dll
 0001:000305c9       CoTaskMemAlloc             00000001800315c9 f   ole32:ole32.dll
 0001:000305cf       CoTaskMemRealloc           00000001800315cf f   ole32:ole32.dll
 0001:000305d5       CoTaskMemFree              00000001800315d5 f   ole32:ole32.dll
 0001:000305db       ReadClassStm               00000001800315db f   ole32:ole32.dll
 0001:000305e1       WriteClassStm              00000001800315e1 f   ole32:ole32.dll
 0001:000305e7       CreateDataAdviseHolder     00000001800315e7 f   ole32:ole32.dll
 0001:000305ed       OleSaveToStream            00000001800315ed f   ole32:ole32.dll
 0001:000305f3       CreateOleAdviseHolder      00000001800315f3 f   ole32:ole32.dll
 0001:000305f9       OleRegGetUserType          00000001800315f9 f   ole32:ole32.dll
 0001:000305ff       OleRegGetMiscStatus        00000001800315ff f   ole32:ole32.dll
 0001:00030605       OleRegEnumVerbs            0000000180031605 f   ole32:ole32.dll
 0001:0003060b       CLSIDFromProgID            000000018003160b f   ole32:ole32.dll
 0001:00030611       SysAllocString             0000000180031611 f   oleaut32:OLEAUT32.dll
 0001:00030617       SysAllocStringLen          0000000180031617 f   oleaut32:OLEAUT32.dll
 0001:0003061d       SysFreeString              000000018003161d f   oleaut32:OLEAUT32.dll
 0001:00030623       SysStringLen               0000000180031623 f   oleaut32:OLEAUT32.dll
 0001:00030629       VariantClear               0000000180031629 f   oleaut32:OLEAUT32.dll
 0001:0003062f       VariantCopyInd             000000018003162f f   oleaut32:OLEAUT32.dll
 0001:00030635       VariantChangeType          0000000180031635 f   oleaut32:OLEAUT32.dll
 0001:0003063b       SysStringByteLen           000000018003163b f   oleaut32:OLEAUT32.dll
 0001:00030641       SysAllocStringByteLen      0000000180031641 f   oleaut32:OLEAUT32.dll
 0001:00030647       VariantInit                0000000180031647 f   oleaut32:OLEAUT32.dll
 0001:0003064d       VarUI4FromStr              000000018003164d f   oleaut32:OLEAUT32.dll
 0001:00030653       LoadTypeLib                0000000180031653 f   oleaut32:OLEAUT32.dll
 0001:00030659       LoadRegTypeLib             0000000180031659 f   oleaut32:OLEAUT32.dll
 0001:0003065f       RegisterTypeLib            000000018003165f f   oleaut32:OLEAUT32.dll
 0001:00030665       UnRegisterTypeLib          0000000180031665 f   oleaut32:OLEAUT32.dll
 0001:0003066b       OleCreatePropertyFrame     000000018003166b f   oleaut32:OLEAUT32.dll
 0001:00030680       _RTC_AllocaHelper          0000000180031680 f   LIBCMTD:stack.obj
 0001:000306c0       _RTC_CheckStackVars        00000001800316c0 f   LIBCMTD:stack.obj
 0001:00030750       _RTC_CheckStackVars2       0000000180031750 f   LIBCMTD:stack.obj
 0001:00030860       _CRT_RTC_INIT              0000000180031860 f   LIBCMTD:init.obj
 0001:00030870       _CRT_RTC_INITW             0000000180031870 f   LIBCMTD:init.obj
 0001:00030880       _RTC_InitBase              0000000180031880 f   LIBCMTD:init.obj
 0001:000308c0       _RTC_Shutdown              00000001800318c0 f   LIBCMTD:init.obj
 0001:000308f0       __GSHandlerCheck           00000001800318f0 f   LIBCMTD:gshandler.obj
 0001:00030930       __GSHandlerCheckCommon     0000000180031930 f   LIBCMTD:gshandler.obj
 0001:00030a40       __security_check_cookie    0000000180031a40 f   LIBCMTD:amdsecgs.obj
 0001:00030a60       ??_U@YAPEAX_K@Z            0000000180031a60 f   LIBCMTD:new_array.obj
 0001:00030a80       ??3@YAXPEAX_K@Z            0000000180031a80 f   LIBCMTD:delete_scalar_size.obj
 0001:00030aa0       ??_V@YAXPEAX@Z             0000000180031aa0 f   LIBCMTD:delete_array.obj
 0001:00030ac0       ??_V@YAXPEAX_K@Z           0000000180031ac0 f   LIBCMTD:delete_array_size.obj
 0001:00030ae0       ?configure_argv@__scrt_narrow_argv_policy@@SAHXZ 0000000180031ae0 f i LIBCMTD:utility.obj
 0001:00030bd0       ?initialize_environment@__scrt_narrow_environment_policy@@SAHXZ 0000000180031bd0 f i LIBCMTD:utility.obj
 0001:00030c70       NtCurrentTeb               0000000180031c70 f i LIBCMTD:utility.obj
 0001:00030c80       __scrt_acquire_startup_lock 0000000180031c80 f   LIBCMTD:utility.obj
 0001:00030cf0       __scrt_dllmain_after_initialize_c 0000000180031cf0 f   LIBCMTD:utility.obj
 0001:00030d20       __scrt_dllmain_before_initialize_c 0000000180031d20 f   LIBCMTD:utility.obj
 0001:00030d40       __scrt_dllmain_crt_thread_attach 0000000180031d40 f   LIBCMTD:utility.obj
 0001:00030d70       __scrt_dllmain_crt_thread_detach 0000000180031d70 f   LIBCMTD:utility.obj
 0001:00030d90       __scrt_dllmain_exception_filter 0000000180031d90 f   LIBCMTD:utility.obj
 0001:00030e00       __scrt_dllmain_uninitialize_c 0000000180031e00 f   LIBCMTD:utility.obj
 0001:00030e30       __scrt_dllmain_uninitialize_critical 0000000180031e30 f   LIBCMTD:utility.obj
 0001:00030e50       __scrt_initialize_crt      0000000180031e50 f   LIBCMTD:utility.obj
 0001:00030ea0       __scrt_initialize_onexit_tables 0000000180031ea0 f   LIBCMTD:utility.obj
 0001:00030fb0       __scrt_is_nonwritable_in_current_image 0000000180031fb0 f   LIBCMTD:utility.obj
 0001:00031040       __scrt_release_startup_lock 0000000180032040 f   LIBCMTD:utility.obj
 0001:00031070       __scrt_uninitialize_crt    0000000180032070 f   LIBCMTD:utility.obj
 0001:000310b0       _onexit                    00000001800320b0 f   LIBCMTD:utility.obj
 0001:00031130       at_quick_exit              0000000180032130 f   LIBCMTD:utility.obj
 0001:00031180       atexit                     0000000180032180 f   LIBCMTD:utility.obj
 0001:000311c0       ??3@YAXPEAX@Z              00000001800321c0 f   LIBCMTD:delete_scalar.obj
 0001:000311e0       __raise_securityfailure    00000001800321e0 f   LIBCMTD:gs_report.obj
 0001:00031220       __report_gsfailure         0000000180032220 f   LIBCMTD:gs_report.obj
 0001:00031300       __report_rangecheckfailure 0000000180032300 f   LIBCMTD:gs_report.obj
 0001:00031320       __report_securityfailure   0000000180032320 f   LIBCMTD:gs_report.obj
 0001:000313c0       __report_securityfailureEx 00000001800323c0 f   LIBCMTD:gs_report.obj
 0001:00031780       _Init_thread_abort         0000000180032780 f   LIBCMTD:thread_safe_statics.obj
 0001:000317b0       _Init_thread_footer        00000001800327b0 f   LIBCMTD:thread_safe_statics.obj
 0001:00031810       _Init_thread_header        0000000180032810 f   LIBCMTD:thread_safe_statics.obj
 0001:000318a0       _Init_thread_lock          00000001800328a0 f   LIBCMTD:thread_safe_statics.obj
 0001:000318c0       _Init_thread_notify        00000001800328c0 f   LIBCMTD:thread_safe_statics.obj
 0001:00031920       _Init_thread_unlock        0000000180032920 f   LIBCMTD:thread_safe_statics.obj
 0001:00031940       _Init_thread_wait          0000000180032940 f   LIBCMTD:thread_safe_statics.obj
 0001:000319f0       ??2@YAPEAX_KAEBUnothrow_t@std@@@Z 00000001800329f0 f   LIBCMTD:new_scalar_nothrow.obj
 0001:00031a30       ??_U@YAPEAX_KAEBUnothrow_t@std@@@Z 0000000180032a30 f   LIBCMTD:new_array_nothrow.obj
 0001:00031a60       __GSHandlerCheck_SEH       0000000180032a60 f   LIBCMTD:gshandlerseh.obj
 0001:00031b30       _alloca_probe              0000000180032b30 f   LIBCMTD:chkstk.obj
 0001:00031b30       __chkstk                   0000000180032b30 f   LIBCMTD:chkstk.obj
 0001:00031f90       _CRT_INIT                  0000000180032f90 f   LIBCMTD:dll_dllmain.obj
 0001:00031fc0       _DllMainCRTStartup         0000000180032fc0 f   LIBCMTD:dll_dllmain.obj
 0001:00032090       ?_RTC_AllocaFailure@@YAXPEAXPEAU_RTC_ALLOCA_NODE@@H@Z 0000000180033090 f   LIBCMTD:error.obj
 0001:000321f0       ?_RTC_Failure@@YAXPEAXH@Z  00000001800331f0 f   LIBCMTD:error.obj
 0001:00032240       ?_RTC_StackFailure@@YAXPEAXPEBD@Z 0000000180033240 f   LIBCMTD:error.obj
 0001:00032670       _RTC_UninitUse             0000000180033670 f   LIBCMTD:error.obj
 0001:00032740       _vsprintf_s_l              0000000180033740 f i LIBCMTD:error.obj
 0001:000327b0       sprintf_s                  00000001800337b0 f i LIBCMTD:error.obj
 0001:000327e0       ?_RTC_GetErrorFunc@@YAP6AHHPEBDH00ZZPEBX@Z 00000001800337e0 f   LIBCMTD:userapi.obj
 0001:000327f0       ?_RTC_GetErrorFuncW@@YAP6AHHPEB_WH00ZZPEBX@Z 00000001800337f0 f   LIBCMTD:userapi.obj
 0001:00032800       _RTC_GetErrDesc            0000000180033800 f   LIBCMTD:userapi.obj
 0001:00032820       _RTC_NumErrors             0000000180033820 f   LIBCMTD:userapi.obj
 0001:00032830       _RTC_SetErrorFunc          0000000180033830 f   LIBCMTD:userapi.obj
 0001:00032850       _RTC_SetErrorFuncW         0000000180033850 f   LIBCMTD:userapi.obj
 0001:00032870       _RTC_SetErrorType          0000000180033870 f   LIBCMTD:userapi.obj
 0001:00032890       ??2@YAPEAX_K@Z             0000000180033890 f   LIBCMTD:new_scalar.obj
 0001:000328e0       __isa_available_init       00000001800338e0 f   LIBCMTD:cpu_disp.obj
 0001:00032c80       _get_startup_argv_mode     0000000180033c80 f   LIBCMTD:argv_mode.obj
 0001:00032c90       __scrt_is_ucrt_dll_in_use  0000000180033c90 f   LIBCMTD:ucrt_detection.obj
 0001:00032cc0       __crt_debugger_hook        0000000180033cc0 f   LIBCMTD:utility_desktop.obj
 0001:00032cd0       __scrt_fastfail            0000000180033cd0 f   LIBCMTD:utility_desktop.obj
 0001:00032e70       __scrt_get_show_window_mode 0000000180033e70 f   LIBCMTD:utility_desktop.obj
 0001:00032ed0       __scrt_initialize_mta      0000000180033ed0 f   LIBCMTD:utility_desktop.obj
 0001:00032ee0       __scrt_initialize_winrt    0000000180033ee0 f   LIBCMTD:utility_desktop.obj
 0001:00032ef0       __scrt_is_managed_app      0000000180033ef0 f   LIBCMTD:utility_desktop.obj
 0001:00032fa0       __scrt_set_unhandled_exception_filter 0000000180033fa0 f   LIBCMTD:utility_desktop.obj
 0001:00032fc0       __scrt_stub_for_initialize_mta 0000000180033fc0 f   LIBCMTD:utility_desktop.obj
 0001:00032fc0       __scrt_exe_initialize_mta  0000000180033fc0 f   LIBCMTD:utility_desktop.obj
 0001:00032fd0       __scrt_unhandled_exception_filter 0000000180033fd0 f   LIBCMTD:utility_desktop.obj
 0001:00033070       _guard_check_icall_nop     0000000180034070 f i LIBCMTD:guard_support.obj
 0001:00033080       ReadNoFence64              0000000180034080 f i LIBCMTD:guard_support.obj
 0001:000330a0       ReadPointerNoFence         00000001800340a0 f i LIBCMTD:guard_support.obj
 0001:000330c0       __castguard_check_failure_debugbreak 00000001800340c0 f i LIBCMTD:guard_support.obj
 0001:000330e0       __castguard_check_failure_fastfail 00000001800340e0 f i LIBCMTD:guard_support.obj
 0001:00033110       __castguard_check_failure_nop 0000000180034110 f i LIBCMTD:guard_support.obj
 0001:00033120       __castguard_check_failure_os_handled 0000000180034120 f i LIBCMTD:guard_support.obj
 0001:000331f0       __castguard_slow_path_check_debugbreak 00000001800341f0 f i LIBCMTD:guard_support.obj
 0001:00033230       __castguard_slow_path_check_fastfail 0000000180034230 f i LIBCMTD:guard_support.obj
 0001:00033280       __castguard_slow_path_check_nop 0000000180034280 f i LIBCMTD:guard_support.obj
 0001:00033290       __castguard_slow_path_check_os_handled 0000000180034290 f i LIBCMTD:guard_support.obj
 0001:00033350       _guard_icall_checks_enforced 0000000180034350 f i LIBCMTD:guard_support.obj
 0001:00033390       _guard_rf_checks_enforced  0000000180034390 f i LIBCMTD:guard_support.obj
 0001:00033460       __security_init_cookie     0000000180034460 f   LIBCMTD:gs_support.obj
 0001:000334e0       ?__scrt_initialize_type_info@@YAXXZ 00000001800344e0 f   LIBCMTD:tncleanup.obj
 0001:00033500       ?__scrt_uninitialize_type_info@@YAXXZ 0000000180034500 f   LIBCMTD:tncleanup.obj
 0001:00033520       __local_stdio_scanf_options 0000000180034520 f i LIBCMTD:default_local_stdio_options.obj
 0001:00033530       __scrt_initialize_default_local_stdio_options 0000000180034530 f   LIBCMTD:default_local_stdio_options.obj
 0001:00033580       __scrt_get_dyn_tls_init_callback 0000000180034580 f   LIBCMTD:dyn_tls_init.obj
 0001:00033590       _RTC_Initialize            0000000180034590 f   LIBCMTD:initsect.obj
 0001:000335e0       _RTC_Terminate             00000001800345e0 f   LIBCMTD:initsect.obj
 0001:00033b50       ?_RTC_GetSrcLine@@YAHPEAEPEA_WKPEAH1K@Z 0000000180034b50 f   LIBCMTD:pdblkup.obj
 0001:00033f20       ??0bad_alloc@std@@AEAA@QEBD@Z 0000000180034f20 f i LIBCMTD:throw_bad_alloc.obj
 0001:00033f60       ??0bad_alloc@std@@QEAA@AEBV01@@Z 0000000180034f60 f i LIBCMTD:throw_bad_alloc.obj
 0001:00033fa0       ??0bad_alloc@std@@QEAA@XZ  0000000180034fa0 f i LIBCMTD:throw_bad_alloc.obj
 0001:00033fe0       ??0bad_array_new_length@std@@QEAA@AEBV01@@Z 0000000180034fe0 f i LIBCMTD:throw_bad_alloc.obj
 0001:00034020       ??0bad_array_new_length@std@@QEAA@XZ 0000000180035020 f i LIBCMTD:throw_bad_alloc.obj
 0001:00034060       ??0exception@std@@QEAA@AEBV01@@Z 0000000180035060 f i LIBCMTD:throw_bad_alloc.obj
 0001:000340c0       ??0exception@std@@QEAA@QEBDH@Z 00000001800350c0 f i LIBCMTD:throw_bad_alloc.obj
 0001:00034110       ??1bad_alloc@std@@UEAA@XZ  0000000180035110 f i LIBCMTD:throw_bad_alloc.obj
 0001:00034130       ??1bad_array_new_length@std@@UEAA@XZ 0000000180035130 f i LIBCMTD:throw_bad_alloc.obj
 0001:00034150       ??1exception@std@@UEAA@XZ  0000000180035150 f i LIBCMTD:throw_bad_alloc.obj
 0001:00034180       ??_Ebad_alloc@std@@UEAAPEAXI@Z 0000000180035180 f i LIBCMTD:throw_bad_alloc.obj
 0001:00034180       ??_Gbad_alloc@std@@UEAAPEAXI@Z 0000000180035180 f i LIBCMTD:throw_bad_alloc.obj
 0001:000341c0       ??_Ebad_array_new_length@std@@UEAAPEAXI@Z 00000001800351c0 f i LIBCMTD:throw_bad_alloc.obj
 0001:000341c0       ??_Gbad_array_new_length@std@@UEAAPEAXI@Z 00000001800351c0 f i LIBCMTD:throw_bad_alloc.obj
 0001:00034200       ??_Gexception@std@@UEAAPEAXI@Z 0000000180035200 f i LIBCMTD:throw_bad_alloc.obj
 0001:00034200       ??_Eexception@std@@UEAAPEAXI@Z 0000000180035200 f i LIBCMTD:throw_bad_alloc.obj
 0001:00034240       ?__scrt_throw_std_bad_alloc@@YAXXZ 0000000180035240 f   LIBCMTD:throw_bad_alloc.obj
 0001:00034270       ?__scrt_throw_std_bad_array_new_length@@YAXXZ 0000000180035270 f   LIBCMTD:throw_bad_alloc.obj
 0001:000342a0       ?what@exception@std@@UEBAPEBDXZ 00000001800352a0 f i LIBCMTD:throw_bad_alloc.obj
 0001:000342e0       ??1type_info@@UEAA@XZ      00000001800352e0 f   LIBCMTD:std_type_info_static.obj
 0001:00034300       ??_Gtype_info@@UEAAPEAXI@Z 0000000180035300 f i LIBCMTD:std_type_info_static.obj
 0001:00034300       ??_Etype_info@@UEAAPEAXI@Z 0000000180035300 f i LIBCMTD:std_type_info_static.obj
 0001:0003433c       ??$?2PEAUHINSTANCE__@@@Wrapper@?$CSimpleArray@PEAUHINSTANCE__@@V?$CSimpleArrayEqualHelper@PEAUHINSTANCE__@@@ATL@@@ATL@@SAPEAX_KPEAPEAUHINSTANCE__@@@Z 000000018003533c f i atls:atlbase.obj
 0001:00034340       ??0?$CSimpleArray@PEAUHINSTANCE__@@V?$CSimpleArrayEqualHelper@PEAUHINSTANCE__@@@ATL@@@ATL@@QEAA@XZ 0000000180035340 f i atls:atlbase.obj
 0001:00034350       ??0CAtlBaseModule@ATL@@QEAA@XZ 0000000180035350 f   atls:atlbase.obj
 0001:000343f8       ??0Wrapper@?$CSimpleArray@PEAUHINSTANCE__@@V?$CSimpleArrayEqualHelper@PEAUHINSTANCE__@@@ATL@@@ATL@@QEAA@AEBQEAUHINSTANCE__@@@Z 00000001800353f8 f i atls:atlbase.obj
 0001:00034404       ??0_ATL_BASE_MODULE70@ATL@@QEAA@XZ 0000000180035404 f i atls:atlbase.obj
 0001:00034430       ??1?$CSimpleArray@PEAUHINSTANCE__@@V?$CSimpleArrayEqualHelper@PEAUHINSTANCE__@@@ATL@@@ATL@@QEAA@XZ 0000000180035430 f i atls:atlbase.obj
 0001:00034458       ??1CAtlBaseModule@ATL@@QEAA@XZ 0000000180035458 f   atls:atlbase.obj
 0001:0003448c       ??1_ATL_BASE_MODULE70@ATL@@QEAA@XZ 000000018003548c f i atls:atlbase.obj
 0001:000344b8       ??A?$CSimpleArray@PEAUHINSTANCE__@@V?$CSimpleArrayEqualHelper@PEAUHINSTANCE__@@@ATL@@@ATL@@QEAAAEAPEAUHINSTANCE__@@H@Z 00000001800354b8 f i atls:atlbase.obj
 0001:000344e4       ?Add@?$CSimpleArray@PEAUHINSTANCE__@@V?$CSimpleArrayEqualHelper@PEAUHINSTANCE__@@@ATL@@@ATL@@QEAAHAEBQEAUHINSTANCE__@@@Z 00000001800354e4 f i atls:atlbase.obj
 0001:00034584       ?AddResourceInstance@CAtlBaseModule@ATL@@QEAA_NPEAUHINSTANCE__@@@Z 0000000180035584 f   atls:atlbase.obj
 0001:000345cc       ?GetHInstanceAt@CAtlBaseModule@ATL@@QEAAPEAUHINSTANCE__@@H@Z 00000001800355cc f   atls:atlbase.obj
 0001:00034644       ?GetSize@?$CSimpleArray@PEAUHINSTANCE__@@V?$CSimpleArrayEqualHelper@PEAUHINSTANCE__@@@ATL@@@ATL@@QEBAHXZ 0000000180035644 f i atls:atlbase.obj
 0001:00034648       ?InternalSetAtIndex@?$CSimpleArray@PEAUHINSTANCE__@@V?$CSimpleArrayEqualHelper@PEAUHINSTANCE__@@@ATL@@@ATL@@QEAAXHAEBQEAUHINSTANCE__@@@Z 0000000180035648 f i atls:atlbase.obj
 0001:00034660       ?RemoveAll@?$CSimpleArray@PEAUHINSTANCE__@@V?$CSimpleArrayEqualHelper@PEAUHINSTANCE__@@@ATL@@@ATL@@QEAAXXZ 0000000180035660 f i atls:atlbase.obj
 0001:00034688       ?RemoveAt@?$CSimpleArray@PEAUHINSTANCE__@@V?$CSimpleArrayEqualHelper@PEAUHINSTANCE__@@@ATL@@@ATL@@QEAAHH@Z 0000000180035688 f i atls:atlbase.obj
 0001:00034720       ?RemoveResourceInstance@CAtlBaseModule@ATL@@QEAA_NPEAUHINSTANCE__@@@Z 0000000180035720 f   atls:atlbase.obj
 0001:000347a8       ?memmove_s@Checked@ATL@@YAXPEAX_KPEBX1@Z 00000001800357a8 f i atls:atlbase.obj
 0001:00034c50       ?GetCodeAddress@_stdcallthunk@ATL@@QEAAPEAXXZ 0000000180035c50 f i atls:atlthunk.obj
 0001:00034c7c       ?Init@_stdcallthunk@ATL@@QEAAH_KPEAX@Z 0000000180035c7c f i atls:atlthunk.obj
 0001:00034ccc       ?__AllocStdCallThunk@@YAPEAXXZ 0000000180035ccc f   atls:atlthunk.obj
 0001:00034cd4       ?__AllocStdCallThunk@ATL@@YAPEAXXZ 0000000180035cd4 f   atls:atlthunk.obj
 0001:00034cdc       ?__AllocStdCallThunk_cmn@@YAPEAXXZ 0000000180035cdc f   atls:atlthunk.obj
 0001:00034db4       ?__FreeStdCallThunk@@YAXPEAX@Z 0000000180035db4 f   atls:atlthunk.obj
 0001:00034dd4       ?__FreeStdCallThunk@ATL@@YAXPEAX@Z 0000000180035dd4 f   atls:atlthunk.obj
 0001:00034df4       ?__FreeStdCallThunk_cmn@@YAXPEAX@Z 0000000180035df4 f   atls:atlthunk.obj
 0001:00034e94       AtlThunk_AllocateData      0000000180035e94 f   atls:atlthunk.obj
 0001:00034f10       AtlThunk_DataToCode        0000000180035f10 f   atls:atlthunk.obj
 0001:00034f64       AtlThunk_FreeData          0000000180035f64 f   atls:atlthunk.obj
 0001:00034fc4       AtlThunk_InitData          0000000180035fc4 f   atls:atlthunk.obj
 0001:00035080       memset_repmovs             0000000180036080 f   libvcruntimed:memset.obj
 0001:000350a0       memset                     00000001800360a0 f   libvcruntimed:memset.obj
 0001:00035230       ??$__crt_interlocked_exchange_pointer@$$A6AXXZP6AXXZ@@YAP6AXXZPEDS6AXXZQ6AXXZ@Z 0000000180036230 f i libvcruntimed:purevirt.obj
 0001:00035250       ??$__crt_interlocked_read_pointer@$$A6AXXZ@@YAP6AXXZPEDS6AXXZ@Z 0000000180036250 f i libvcruntimed:purevirt.obj
 0001:00035270       ?__crt_interlocked_read_64@@YA_JPED_J@Z 0000000180036270 f i libvcruntimed:purevirt.obj
 0001:00035290       _get_purecall_handler      0000000180036290 f   libvcruntimed:purevirt.obj
 0001:000352b0       _purecall                  00000001800362b0 f   libvcruntimed:purevirt.obj
 0001:000352f0       _set_purecall_handler      00000001800362f0 f   libvcruntimed:purevirt.obj
 0001:00035320       memcmp                     0000000180036320 f   libvcruntimed:memcmp.obj
 0001:00035400       memcpy_repmovs             0000000180036400 f   libvcruntimed:memcpy.obj
 0001:00035420       memcpy                     0000000180036420 f   libvcruntimed:memcpy.obj
 0001:00035420       memmove                    0000000180036420 f   libvcruntimed:memcpy.obj
 0001:00035aa0       wcsstr                     0000000180036aa0 f   libvcruntimed:wcsstr.obj
 0001:00036100       __vcrt_initialize          0000000180037100 f   libvcruntimed:initialization.obj
 0001:00036140       __vcrt_thread_attach       0000000180037140 f   libvcruntimed:initialization.obj
 0001:00036160       __vcrt_thread_detach       0000000180037160 f   libvcruntimed:initialization.obj
 0001:00036180       __vcrt_uninitialize        0000000180037180 f   libvcruntimed:initialization.obj
 0001:000361a0       __vcrt_uninitialize_critical 00000001800371a0 f   libvcruntimed:initialization.obj
 0001:000361c0       __C_specific_handler       00000001800371c0 f   libvcruntimed:riscchandler.obj
 0001:00036630       ??$?0AEAViterator@TryBlockMap4@FH4@@AEAV012@$0A@@?$pair@Viterator@TryBlockMap4@FH4@@V123@@std@@QEAA@AEAViterator@TryBlockMap4@FH4@@0@Z 0000000180037630 f i libvcruntimed:risctrnsctrl.obj
 0001:00036690       ??$?0AEAViterator@TryBlockMap@__FrameHandler3@@AEAV012@$0A@@?$pair@Viterator@TryBlockMap@__FrameHandler3@@V123@@std@@QEAA@AEAViterator@TryBlockMap@__FrameHandler3@@0@Z 0000000180037690 f i libvcruntimed:risctrnsctrl.obj
 0001:00036860       ??$_CallSETranslator@V__FrameHandler3@@@@YAHPEAUEHExceptionRecord@@PEA_KPEAU_CONTEXT@@PEAU_xDISPATCHER_CONTEXT@@PEBU_s_FuncInfo@@K1H@Z 0000000180037860 f i libvcruntimed:risctrnsctrl.obj
 0001:000368f0       ??$_CallSETranslator@V__FrameHandler4@@@@YAHPEAUEHExceptionRecord@@PEA_KPEAU_CONTEXT@@PEAU_xDISPATCHER_CONTEXT@@PEAUFuncInfo4@FH4@@K1H@Z 00000001800378f0 f i libvcruntimed:risctrnsctrl.obj
 0001:00036980       ??$forward@AEAViterator@TryBlockMap4@FH4@@@std@@YAAEAViterator@TryBlockMap4@FH4@@AEAV123@@Z 0000000180037980 f i libvcruntimed:risctrnsctrl.obj
 0001:00036990       ??$forward@AEAViterator@TryBlockMap@__FrameHandler3@@@std@@YAAEAViterator@TryBlockMap@__FrameHandler3@@AEAV123@@Z 0000000180037990 f i libvcruntimed:risctrnsctrl.obj
 0001:000369a0       ??0FuncInfo4@FH4@@QEAA@XZ  00000001800379a0 f i libvcruntimed:risctrnsctrl.obj
 0001:00036a10       ??0FuncInfoHeader@FH4@@QEAA@XZ 0000000180037a10 f i libvcruntimed:risctrnsctrl.obj
 0001:00036a30       ??0iterator@TryBlockMap4@FH4@@QEAA@AEAV12@I@Z 0000000180037a30 f i libvcruntimed:risctrnsctrl.obj
 0001:00036a60       ??0iterator@TryBlockMap@__FrameHandler3@@QEAA@AEAV12@I@Z 0000000180037a60 f i libvcruntimed:risctrnsctrl.obj
 0001:00036a90       ??4iterator@TryBlockMap4@FH4@@QEAAAEAV012@AEBV012@@Z 0000000180037a90 f i libvcruntimed:risctrnsctrl.obj
 0001:00036ab0       ??9iterator@TryBlockMap4@FH4@@QEBA_NAEBV012@@Z 0000000180037ab0 f i libvcruntimed:risctrnsctrl.obj
 0001:00036af0       ??Diterator@TryBlockMap4@FH4@@QEAA?AUTryBlockMapEntry4@2@XZ 0000000180037af0 f i libvcruntimed:risctrnsctrl.obj
 0001:00036b20       ??Eiterator@TryBlockMap4@FH4@@QEAAAEAV012@XZ 0000000180037b20 f i libvcruntimed:risctrnsctrl.obj
 0001:00036b60       ?CatchTryBlock@__FrameHandler3@@SAPEBU_s_TryBlockMapEntry@@PEBU_s_FuncInfo@@H@Z 0000000180037b60 f   libvcruntimed:risctrnsctrl.obj
 0001:00036bf0       ?DecompFuncInfo@FH4@@YA_JPEAEAEAUFuncInfo4@1@_KH@Z 0000000180037bf0 f i libvcruntimed:risctrnsctrl.obj
 0001:00036c30       ?DecompFuncInfo@FH4@@YA_JPEAEAEAUFuncInfo4@1@_KH_N@Z 0000000180037c30 f i libvcruntimed:risctrnsctrl.obj
 0001:00036e00       ?DecompTryBlock@TryBlockMap4@FH4@@AEAAXXZ 0000000180037e00 f i libvcruntimed:risctrnsctrl.obj
 0001:00036e80       ?ExecutionInCatch@__FrameHandler3@@SA_NPEAU_xDISPATCHER_CONTEXT@@PEBU_s_FuncInfo@@@Z 0000000180037e80 f   libvcruntimed:risctrnsctrl.obj
 0001:00036ed0       ?ExecutionInCatch@__FrameHandler4@@SA_NPEAU_xDISPATCHER_CONTEXT@@PEAUFuncInfo4@FH4@@@Z 0000000180037ed0 f   libvcruntimed:risctrnsctrl.obj
 0001:00036ef0       ?FrameUnwindToEmptyState@__FrameHandler3@@SAXPEA_KPEAU_xDISPATCHER_CONTEXT@@PEBU_s_FuncInfo@@@Z 0000000180037ef0 f   libvcruntimed:risctrnsctrl.obj
 0001:00036f90       ?FrameUnwindToEmptyState@__FrameHandler4@@SAXPEA_KPEAU_xDISPATCHER_CONTEXT@@PEAUFuncInfo4@FH4@@@Z 0000000180037f90 f   libvcruntimed:risctrnsctrl.obj
 0001:00036fe0       ?GetEstablisherFrame@__FrameHandler3@@SAPEA_KPEA_KPEAU_xDISPATCHER_CONTEXT@@PEBU_s_FuncInfo@@0@Z 0000000180037fe0 f   libvcruntimed:risctrnsctrl.obj
 0001:00037150       ?GetEstablisherFrame@__FrameHandler4@@SAPEA_KPEA_KPEAU_xDISPATCHER_CONTEXT@@PEAUFuncInfo4@FH4@@0@Z 0000000180038150 f   libvcruntimed:risctrnsctrl.obj
 0001:000371c0       ?GetRangeOfTrysToCheck@__FrameHandler3@@SA?AU?$pair@Viterator@TryBlockMap@__FrameHandler3@@V123@@std@@AEAVTryBlockMap@1@HPEAU_xDISPATCHER_CONTEXT@@PEBU_s_FuncInfo@@H@Z 00000001800381c0 f   libvcruntimed:risctrnsctrl.obj
 0001:00037400       ?GetRangeOfTrysToCheck@__FrameHandler4@@SA?AU?$pair@Viterator@TryBlockMap4@FH4@@V123@@std@@AEAVTryBlockMap4@FH4@@HPEAU_xDISPATCHER_CONTEXT@@PEAUFuncInfo4@5@H@Z 0000000180038400 f   libvcruntimed:risctrnsctrl.obj
 0001:000375b0       ?ReadInt@FH4@@YAHPEAPEAE@Z 00000001800385b0 f i libvcruntimed:risctrnsctrl.obj
 0001:000375f0       ?ReadUnsigned@FH4@@YAIPEAPEAE@Z 00000001800385f0 f i libvcruntimed:risctrnsctrl.obj
 0001:00037680       ?UnwindNestedFrames@__FrameHandler3@@SAXPEA_KPEAUEHExceptionRecord@@PEAU_CONTEXT@@0PEAXPEBU_s_FuncInfo@@HHPEBU_s_HandlerType@@PEAU_xDISPATCHER_CONTEXT@@E@Z 0000000180038680 f   libvcruntimed:risctrnsctrl.obj
 0001:000377f0       ?UnwindNestedFrames@__FrameHandler4@@SAXPEA_KPEAUEHExceptionRecord@@PEAU_CONTEXT@@0PEAXPEAUFuncInfo4@FH4@@HHPEAUHandlerType4@5@PEAU_xDISPATCHER_CONTEXT@@E@Z 00000001800387f0 f   libvcruntimed:risctrnsctrl.obj
 0001:000379c0       ?begin@TryBlockMap4@FH4@@QEAA?AViterator@12@XZ 00000001800389c0 f i libvcruntimed:risctrnsctrl.obj
 0001:000379f0       ?end@TryBlockMap4@FH4@@QEAA?AViterator@12@XZ 00000001800389f0 f i libvcruntimed:risctrnsctrl.obj
 0001:00037a20       ?imageRelToByteBuffer@FH4@@YAPEAE_KH@Z 0000000180038a20 f i libvcruntimed:risctrnsctrl.obj
 0001:00037a40       ?incrementToSentinel@iterator@TryBlockMap4@FH4@@QEAAXXZ 0000000180038a40 f i libvcruntimed:risctrnsctrl.obj
 0001:00037a60       ?setBuffer@TryBlockMap4@FH4@@QEAAXViterator@12@@Z 0000000180038a60 f i libvcruntimed:risctrnsctrl.obj
 0001:00037ad0       _CreateFrameInfo           0000000180038ad0 f   libvcruntimed:risctrnsctrl.obj
 0001:00037b40       _FindAndUnlinkFrame        0000000180038b40 f   libvcruntimed:risctrnsctrl.obj
 0001:00037bc0       _GetImageBase              0000000180038bc0 f   libvcruntimed:risctrnsctrl.obj
 0001:00037be0       _GetThrowImageBase         0000000180038be0 f   libvcruntimed:risctrnsctrl.obj
 0001:00037c00       _SetImageBase              0000000180038c00 f   libvcruntimed:risctrnsctrl.obj
 0001:00037c20       _SetThrowImageBase         0000000180038c20 f   libvcruntimed:risctrnsctrl.obj
 0001:00037c40       __CxxFrameHandler          0000000180038c40 f   libvcruntimed:risctrnsctrl.obj
 0001:00037c80       __CxxFrameHandler2         0000000180038c80 f   libvcruntimed:risctrnsctrl.obj
 0001:00037cc0       __CxxFrameHandler3         0000000180038cc0 f   libvcruntimed:risctrnsctrl.obj
 0001:00037da0       __CxxFrameHandler4         0000000180038da0 f   libvcruntimed:risctrnsctrl.obj
 0001:00037eb0       __C_specific_handler_noexcept 0000000180038eb0 f   libvcruntimed:chandler_noexcept.obj
 0001:00037f40       __DestructExceptionObject  0000000180038f40 f   libvcruntimed:ehhelpers.obj
 0001:00038040       ?_CallMemberFunction0@@YAXQEAX0@Z 0000000180039040 f i libvcruntimed:ehhelpers.obj
 0001:00038110       ?raw_name@type_info@@QEBAPEBDXZ 0000000180039110 f i libvcruntimed:ehhelpers.obj
 0001:00038120       _IsExceptionObjectToBeDestroyed 0000000180039120 f   libvcruntimed:ehhelpers.obj
 0001:00038170       _SetWinRTOutOfMemoryExceptionCallback 0000000180039170 f   libvcruntimed:ehhelpers.obj
 0001:00038190       __AdjustPointer            0000000180039190 f   libvcruntimed:ehhelpers.obj
 0001:00038210       __FrameUnwindFilter        0000000180039210 f   libvcruntimed:ehhelpers.obj
 0001:000382c0       __GetPlatformExceptionInfo 00000001800392c0 f   libvcruntimed:ehhelpers.obj
 0001:00038370       __current_exception        0000000180039370 f   libvcruntimed:ehhelpers.obj
 0001:00038390       __current_exception_context 0000000180039390 f   libvcruntimed:ehhelpers.obj
 0001:000383b0       __processing_throw         00000001800393b0 f   libvcruntimed:ehhelpers.obj
 0001:000383d0       __std_terminate            00000001800393d0 f   libvcruntimed:ehhelpers.obj
 0001:000383e0       _is_exception_typeof       00000001800393e0 f   libvcruntimed:ehhelpers.obj
 0001:00038570       ??$?RD@__crt_internal_free_policy@@QEBAXQEBD@Z 0000000180039570 f i libvcruntimed:std_type_info.obj
 0001:000385a0       ??$?RX@__crt_internal_free_policy@@QEBAXQEBX@Z 00000001800395a0 f i libvcruntimed:std_type_info.obj
 0001:000385d0       ??$__crt_interlocked_compare_exchange_pointer@$$CBDPEAD$$T@@YAPEBDPEDSEBDQEAD$$T@Z 00000001800395d0 f i libvcruntimed:std_type_info.obj
 0001:00038610       ??$__crt_interlocked_read_pointer@$$CBD@@YAPEBDPEDSEBD@Z 0000000180039610 f i libvcruntimed:std_type_info.obj
 0001:00038630       ??0?$__crt_unique_heap_ptr@DU__crt_internal_free_policy@@@@QEAA@QEAD@Z 0000000180039630 f i libvcruntimed:std_type_info.obj
 0001:00038650       ??0?$__crt_unique_heap_ptr@XU__crt_internal_free_policy@@@@QEAA@QEAX@Z 0000000180039650 f i libvcruntimed:std_type_info.obj
 0001:00038670       ??1?$__crt_unique_heap_ptr@DU__crt_internal_free_policy@@@@QEAA@XZ 0000000180039670 f i libvcruntimed:std_type_info.obj
 0001:00038690       ??1?$__crt_unique_heap_ptr@XU__crt_internal_free_policy@@@@QEAA@XZ 0000000180039690 f i libvcruntimed:std_type_info.obj
 0001:000386b0       ??B?$__crt_unique_heap_ptr@DU__crt_internal_free_policy@@@@QEBA_NXZ 00000001800396b0 f i libvcruntimed:std_type_info.obj
 0001:000386d0       ??B?$__crt_unique_heap_ptr@XU__crt_internal_free_policy@@@@QEBA_NXZ 00000001800396d0 f i libvcruntimed:std_type_info.obj
 0001:00038770       ?detach@?$__crt_unique_heap_ptr@XU__crt_internal_free_policy@@@@QEAAPEAXXZ 0000000180039770 f i libvcruntimed:std_type_info.obj
 0001:000387a0       ?get@?$__crt_unique_heap_ptr@DU__crt_internal_free_policy@@@@QEBAPEADXZ 00000001800397a0 f i libvcruntimed:std_type_info.obj
 0001:000387b0       ?get@?$__crt_unique_heap_ptr@XU__crt_internal_free_policy@@@@QEBAPEAXXZ 00000001800397b0 f i libvcruntimed:std_type_info.obj
 0001:000387c0       ?is_valid@?$__crt_unique_heap_ptr@DU__crt_internal_free_policy@@@@QEBA_NXZ 00000001800397c0 f i libvcruntimed:std_type_info.obj
 0001:000387f0       ?is_valid@?$__crt_unique_heap_ptr@XU__crt_internal_free_policy@@@@QEBA_NXZ 00000001800397f0 f i libvcruntimed:std_type_info.obj
 0001:00038820       ?release@?$__crt_unique_heap_ptr@DU__crt_internal_free_policy@@@@QEAAXXZ 0000000180039820 f i libvcruntimed:std_type_info.obj
 0001:00038850       ?release@?$__crt_unique_heap_ptr@XU__crt_internal_free_policy@@@@QEAAXXZ 0000000180039850 f i libvcruntimed:std_type_info.obj
 0001:00038880       __std_type_info_compare    0000000180039880 f   libvcruntimed:std_type_info.obj
 0001:000388c0       __std_type_info_destroy_list 00000001800398c0 f   libvcruntimed:std_type_info.obj
 0001:00038920       __std_type_info_hash       0000000180039920 f   libvcruntimed:std_type_info.obj
 0001:000389d0       __std_type_info_name       00000001800399d0 f   libvcruntimed:std_type_info.obj
 0001:00038c80       __vcrt_GetModuleFileNameW  0000000180039c80 f   libvcruntimed:winapi_thunks.obj
 0001:00038cb0       __vcrt_GetModuleHandleW    0000000180039cb0 f   libvcruntimed:winapi_thunks.obj
 0001:00038cd0       __vcrt_LoadLibraryExW      0000000180039cd0 f   libvcruntimed:winapi_thunks.obj
 0001:00038d00       ??$?RD@__crt_public_free_policy@@QEBAXQEBD@Z 0000000180039d00 f i libvcruntimed:std_exception.obj
 0001:00038d20       ??0?$__crt_unique_heap_ptr@DU__crt_public_free_policy@@@@QEAA@QEAD@Z 0000000180039d20 f i libvcruntimed:std_exception.obj
 0001:00038d40       ??1?$__crt_unique_heap_ptr@DU__crt_public_free_policy@@@@QEAA@XZ 0000000180039d40 f i libvcruntimed:std_exception.obj
 0001:00038d60       ??B?$__crt_unique_heap_ptr@DU__crt_public_free_policy@@@@QEBA_NXZ 0000000180039d60 f i libvcruntimed:std_exception.obj
 0001:00038d80       ?detach@?$__crt_unique_heap_ptr@DU__crt_public_free_policy@@@@QEAAPEADXZ 0000000180039d80 f i libvcruntimed:std_exception.obj
 0001:00038db0       ?get@?$__crt_unique_heap_ptr@DU__crt_public_free_policy@@@@QEBAPEADXZ 0000000180039db0 f i libvcruntimed:std_exception.obj
 0001:00038dc0       ?is_valid@?$__crt_unique_heap_ptr@DU__crt_public_free_policy@@@@QEBA_NXZ 0000000180039dc0 f i libvcruntimed:std_exception.obj
 0001:00038df0       ?release@?$__crt_unique_heap_ptr@DU__crt_public_free_policy@@@@QEAAXXZ 0000000180039df0 f i libvcruntimed:std_exception.obj
 0001:00038e20       __std_exception_copy       0000000180039e20 f   libvcruntimed:std_exception.obj
 0001:00038f60       __std_exception_destroy    0000000180039f60 f   libvcruntimed:std_exception.obj
 0001:00038fa0       _CxxThrowException         0000000180039fa0 f   libvcruntimed:throw.obj
 0001:000390d0       ??$?RU__vcrt_ptd@@@__crt_internal_free_policy@@QEBAXQEBU__vcrt_ptd@@@Z 000000018003a0d0 f i libvcruntimed:per_thread_data.obj
 0001:00039100       ??0?$__crt_unique_heap_ptr@U__vcrt_ptd@@U__crt_internal_free_policy@@@@QEAA@QEAU__vcrt_ptd@@@Z 000000018003a100 f i libvcruntimed:per_thread_data.obj
 0001:00039140       ??1?$__crt_unique_heap_ptr@U__vcrt_ptd@@U__crt_internal_free_policy@@@@QEAA@XZ 000000018003a140 f i libvcruntimed:per_thread_data.obj
 0001:00039180       ??B?$__crt_unique_heap_ptr@U__vcrt_ptd@@U__crt_internal_free_policy@@@@QEBA_NXZ 000000018003a180 f i libvcruntimed:per_thread_data.obj
 0001:000391a0       ?detach@?$__crt_unique_heap_ptr@U__vcrt_ptd@@U__crt_internal_free_policy@@@@QEAAPEAU__vcrt_ptd@@XZ 000000018003a1a0 f i libvcruntimed:per_thread_data.obj
 0001:000391d0       ?get@?$__crt_unique_heap_ptr@U__vcrt_ptd@@U__crt_internal_free_policy@@@@QEBAPEAU__vcrt_ptd@@XZ 000000018003a1d0 f i libvcruntimed:per_thread_data.obj
 0001:000391e0       ?is_valid@?$__crt_unique_heap_ptr@U__vcrt_ptd@@U__crt_internal_free_policy@@@@QEBA_NXZ 000000018003a1e0 f i libvcruntimed:per_thread_data.obj
 0001:00039210       ?release@?$__crt_unique_heap_ptr@U__vcrt_ptd@@U__crt_internal_free_policy@@@@QEAAXXZ 000000018003a210 f i libvcruntimed:per_thread_data.obj
 0001:00039280       __vcrt_freefls             000000018003a280 f   libvcruntimed:per_thread_data.obj
 0001:000392c0       __vcrt_freeptd             000000018003a2c0 f   libvcruntimed:per_thread_data.obj
 0001:00039320       __vcrt_getptd              000000018003a320 f   libvcruntimed:per_thread_data.obj
 0001:00039350       __vcrt_getptd_noexit       000000018003a350 f   libvcruntimed:per_thread_data.obj
 0001:000394f0       __vcrt_getptd_noinit       000000018003a4f0 f   libvcruntimed:per_thread_data.obj
 0001:00039550       __vcrt_initialize_ptd      000000018003a550 f   libvcruntimed:per_thread_data.obj
 0001:000395a0       __vcrt_uninitialize_ptd    000000018003a5a0 f   libvcruntimed:per_thread_data.obj
 0001:000395d0       __vcrt_initialize_locks    000000018003a5d0 f   libvcruntimed:locks.obj
 0001:00039640       __vcrt_lock                000000018003a640 f   libvcruntimed:locks.obj
 0001:00039670       __vcrt_uninitialize_locks  000000018003a670 f   libvcruntimed:locks.obj
 0001:000396d0       __vcrt_unlock              000000018003a6d0 f   libvcruntimed:locks.obj
 0001:00039710       _NLG_Notify                000000018003a710 f   libvcruntimed:notify.obj
 0001:00039730       __NLG_Dispatch2            000000018003a730 f   libvcruntimed:notify.obj
 0001:00039740       __NLG_Return2              000000018003a740 f   libvcruntimed:notify.obj
 0001:00039760       __except_validate_context_record 000000018003a760 f   libvcruntimed:jbcxrval.obj
 0001:000397c0       __except_validate_jump_buffer 000000018003a7c0 f   libvcruntimed:jbcxrval.obj
 0001:000397e0       __except_validate_jump_buffer_common 000000018003a7e0 f i libvcruntimed:jbcxrval.obj
 0001:00039860       ?GetCurrentState@__FrameHandler3@@SAHPEA_KPEAU_xDISPATCHER_CONTEXT@@PEBU_s_FuncInfo@@@Z 000000018003a860 f   libvcruntimed:ehstate.obj
 0001:000398c0       ?GetUnwindTryBlock@__FrameHandler3@@SAHPEA_KPEAU_xDISPATCHER_CONTEXT@@PEBU_s_FuncInfo@@@Z 000000018003a8c0 f   libvcruntimed:ehstate.obj
 0001:00039910       ?SetState@__FrameHandler3@@SAXPEA_KPEBU_s_FuncInfo@@H@Z 000000018003a910 f   libvcruntimed:ehstate.obj
 0001:00039940       ?SetUnwindTryBlock@__FrameHandler3@@SAXPEA_KPEAU_xDISPATCHER_CONTEXT@@PEBU_s_FuncInfo@@H@Z 000000018003a940 f   libvcruntimed:ehstate.obj
 0001:000399b0       ?StateFromControlPc@__FrameHandler3@@SAHPEBU_s_FuncInfo@@PEAU_xDISPATCHER_CONTEXT@@@Z 000000018003a9b0 f   libvcruntimed:ehstate.obj
 0001:000399f0       ?StateFromControlPc@__FrameHandler4@@SAHPEAUFuncInfo4@FH4@@PEAU_xDISPATCHER_CONTEXT@@@Z 000000018003a9f0 f   libvcruntimed:ehstate.obj
 0001:00039a30       ?StateFromIp@__FrameHandler3@@SAHPEBU_s_FuncInfo@@PEAU_xDISPATCHER_CONTEXT@@_K@Z 000000018003aa30 f   libvcruntimed:ehstate.obj
 0001:00039b20       ?StateFromIp@__FrameHandler4@@SAHPEAUFuncInfo4@FH4@@PEAU_xDISPATCHER_CONTEXT@@_K@Z 000000018003ab20 f   libvcruntimed:ehstate.obj
 0001:00039c10       ?__FuncRelToRealOffset@@YA_KPEAU_xDISPATCHER_CONTEXT@@I@Z 000000018003ac10 f i libvcruntimed:ehstate.obj
 0001:00039c40       ?__RVAtoRealOffset@@YA_KPEAU_xDISPATCHER_CONTEXT@@H@Z 000000018003ac40 f i libvcruntimed:ehstate.obj
 0001:0003bea0       ??$TypeMatchHelper@V__FrameHandler3@@@@YAHPEBU_s_HandlerType@@PEBU_s_CatchableType@@PEBU_s_ThrowInfo@@@Z 000000018003cea0 f i libvcruntimed:frame.obj
 0001:0003c0a0       ??$TypeMatchHelper@V__FrameHandler4@@@@YAHPEAUHandlerType4@FH4@@PEBU_s_CatchableType@@PEBU_s_ThrowInfo@@@Z 000000018003d0a0 f i libvcruntimed:frame.obj
 0001:0003c2b0       ??$__InternalCxxFrameHandler@V__FrameHandler3@@@@YA?AW4_EXCEPTION_DISPOSITION@@PEAUEHExceptionRecord@@PEA_KPEAU_CONTEXT@@PEAU_xDISPATCHER_CONTEXT@@PEBU_s_FuncInfo@@H1E@Z 000000018003d2b0 f i libvcruntimed:frame.obj
 0001:0003c720       ??$__InternalCxxFrameHandler@V__FrameHandler4@@@@YA?AW4_EXCEPTION_DISPOSITION@@PEAUEHExceptionRecord@@PEA_KPEAU_CONTEXT@@PEAU_xDISPATCHER_CONTEXT@@PEAUFuncInfo4@FH4@@H1E@Z 000000018003d720 f i libvcruntimed:frame.obj
 0001:0003cbb0       ??0HandlerMap4@FH4@@QEAA@PEBUTryBlockMapEntry4@1@_KH@Z 000000018003dbb0 f i libvcruntimed:frame.obj
 0001:0003cc70       ??0HandlerMap@__FrameHandler3@@QEAA@PEBU_s_TryBlockMapEntry@@_KI@Z 000000018003dc70 f i libvcruntimed:frame.obj
 0001:0003ccc0       ??0HandlerType4@FH4@@QEAA@XZ 000000018003dcc0 f i libvcruntimed:frame.obj
 0001:0003cce0       ??0TryBlockMap4@FH4@@QEAA@PEBUFuncInfo4@1@_K@Z 000000018003dce0 f i libvcruntimed:frame.obj
 0001:0003cd70       ??0TryBlockMap@__FrameHandler3@@QEAA@PEBU_s_FuncInfo@@_K@Z 000000018003dd70 f i libvcruntimed:frame.obj
 0001:0003cda0       ??0UWMap4@FH4@@QEAA@PEBUFuncInfo4@1@_K@Z 000000018003dda0 f i libvcruntimed:frame.obj
 0001:0003ce10       ??0bad_exception@std@@QEAA@AEBV01@@Z 000000018003de10 f i libvcruntimed:frame.obj
 0001:0003ce50       ??0bad_exception@std@@QEAA@XZ 000000018003de50 f i libvcruntimed:frame.obj
 0001:0003ce90       ??0iterator@HandlerMap4@FH4@@QEAA@AEAV12@I@Z 000000018003de90 f i libvcruntimed:frame.obj
 0001:0003cec0       ??0iterator@HandlerMap@__FrameHandler3@@QEAA@AEAV12@I@Z 000000018003dec0 f i libvcruntimed:frame.obj
 0001:0003cef0       ??0iterator@UWMap4@FH4@@QEAA@AEAV12@PEAE@Z 000000018003def0 f i libvcruntimed:frame.obj
 0001:0003cf20       ??1bad_exception@std@@UEAA@XZ 000000018003df20 f i libvcruntimed:frame.obj
 0001:0003cf40       ??4iterator@UWMap4@FH4@@QEAAAEAV012@AEBV012@@Z 000000018003df40 f i libvcruntimed:frame.obj
 0001:0003cf90       ??8iterator@HandlerMap4@FH4@@QEBA_NAEBV012@@Z 000000018003df90 f i libvcruntimed:frame.obj
 0001:0003cfd0       ??8iterator@HandlerMap@__FrameHandler3@@QEBA_NAEBV012@@Z 000000018003dfd0 f i libvcruntimed:frame.obj
 0001:0003d010       ??8type_info@@QEBA_NAEBV0@@Z 000000018003e010 f i libvcruntimed:frame.obj
 0001:0003d060       ??9iterator@HandlerMap4@FH4@@QEBA_NAEBV012@@Z 000000018003e060 f i libvcruntimed:frame.obj
 0001:0003d0a0       ??9iterator@HandlerMap@__FrameHandler3@@QEBA_NAEBV012@@Z 000000018003e0a0 f i libvcruntimed:frame.obj
 0001:0003d0e0       ??Diterator@HandlerMap4@FH4@@QEAA?AUHandlerType4@2@XZ 000000018003e0e0 f i libvcruntimed:frame.obj
 0001:0003d110       ??Diterator@HandlerMap@__FrameHandler3@@QEAA?BU_s_HandlerType@@XZ 000000018003e110 f i libvcruntimed:frame.obj
 0001:0003d150       ??Diterator@TryBlockMap@__FrameHandler3@@QEAA?BU_s_TryBlockMapEntry@@XZ 000000018003e150 f i libvcruntimed:frame.obj
 0001:0003d1a0       ??Diterator@UWMap4@FH4@@QEAA?AUUnwindMapEntry4@2@XZ 000000018003e1a0 f i libvcruntimed:frame.obj
 0001:0003d220       ??Eiterator@HandlerMap4@FH4@@QEAAAEAV012@XZ 000000018003e220 f i libvcruntimed:frame.obj
 0001:0003d260       ??Eiterator@HandlerMap@__FrameHandler3@@QEAAAEAV012@XZ 000000018003e260 f i libvcruntimed:frame.obj
 0001:0003d280       ??Eiterator@TryBlockMap@__FrameHandler3@@QEAAAEAV012@XZ 000000018003e280 f i libvcruntimed:frame.obj
 0001:0003d2a0       ??Eiterator@UWMap4@FH4@@QEAAAEAV012@XZ 000000018003e2a0 f i libvcruntimed:frame.obj
 0001:0003d2e0       ??Giterator@UWMap4@FH4@@QEBA_JAEBV012@@Z 000000018003e2e0 f i libvcruntimed:frame.obj
 0001:0003d300       ??Miterator@TryBlockMap4@FH4@@QEBA_NAEBV012@@Z 000000018003e300 f i libvcruntimed:frame.obj
 0001:0003d340       ??Miterator@TryBlockMap@__FrameHandler3@@QEBA_NAEBV012@@Z 000000018003e340 f i libvcruntimed:frame.obj
 0001:0003d380       ??Oiterator@UWMap4@FH4@@QEBA_NAEBV012@@Z 000000018003e380 f i libvcruntimed:frame.obj
 0001:0003d3c0       ??Piterator@UWMap4@FH4@@QEBA_NAEBV012@@Z 000000018003e3c0 f i libvcruntimed:frame.obj
 0001:0003d400       ??_Ebad_exception@std@@UEAAPEAXI@Z 000000018003e400 f i libvcruntimed:frame.obj
 0001:0003d400       ??_Gbad_exception@std@@UEAAPEAXI@Z 000000018003e400 f i libvcruntimed:frame.obj
 0001:0003d440       ?BuildCatchObject@__FrameHandler3@@SAXPEAUEHExceptionRecord@@PEAXPEBU_s_HandlerType@@PEBU_s_CatchableType@@@Z 000000018003e440 f   libvcruntimed:frame.obj
 0001:0003d480       ?BuildCatchObject@__FrameHandler4@@SAXPEAUEHExceptionRecord@@PEAXPEAUHandlerType4@FH4@@PEBU_s_CatchableType@@@Z 000000018003e480 f   libvcruntimed:frame.obj
 0001:0003d4c0       ?BuildCatchObjectHelper@__FrameHandler3@@SAHPEAUEHExceptionRecord@@PEAXPEBU_s_HandlerType@@PEBU_s_CatchableType@@@Z 000000018003e4c0 f   libvcruntimed:frame.obj
 0001:0003d500       ?BuildCatchObjectHelper@__FrameHandler4@@SAHPEAUEHExceptionRecord@@PEAXPEAUHandlerType4@FH4@@PEBU_s_CatchableType@@@Z 000000018003e500 f   libvcruntimed:frame.obj
 0001:0003d540       ?CxxCallCatchBlock@__FrameHandler3@@SAPEAXPEAU_EXCEPTION_RECORD@@@Z 000000018003e540 f   libvcruntimed:frame.obj
 0001:0003d7a0       ?CxxCallCatchBlock@__FrameHandler4@@SAPEAXPEAU_EXCEPTION_RECORD@@@Z 000000018003e7a0 f   libvcruntimed:frame.obj
 0001:0003dad0       ?DecompHandler@HandlerMap4@FH4@@AEAAXXZ 000000018003ead0 f i libvcruntimed:frame.obj
 0001:0003dea0       ?FrameUnwindToState@__FrameHandler3@@SAXPEA_KPEAU_xDISPATCHER_CONTEXT@@PEBU_s_FuncInfo@@H@Z 000000018003eea0 f   libvcruntimed:frame.obj
 0001:0003e0f0       ?FrameUnwindToState@__FrameHandler4@@SAXPEA_KPEAU_xDISPATCHER_CONTEXT@@PEAUFuncInfo4@FH4@@H@Z 000000018003f0f0 f   libvcruntimed:frame.obj
 0001:0003e400       ?GetHandlerSearchState@__FrameHandler3@@SAHPEA_KPEAU_xDISPATCHER_CONTEXT@@PEBU_s_FuncInfo@@@Z 000000018003f400 f i libvcruntimed:frame.obj
 0001:0003e4b0       ?GetHandlerSearchState@__FrameHandler4@@SAHPEA_KPEAU_xDISPATCHER_CONTEXT@@PEAUFuncInfo4@FH4@@@Z 000000018003f4b0 f i libvcruntimed:frame.obj
 0001:0003e530       ?GetMaxState@__FrameHandler3@@SAHPEAU_xDISPATCHER_CONTEXT@@PEBU_s_FuncInfo@@@Z 000000018003f530 f i libvcruntimed:frame.obj
 0001:0003e550       ?GetMaxState@__FrameHandler4@@SAHPEAU_xDISPATCHER_CONTEXT@@PEAUFuncInfo4@FH4@@@Z 000000018003f550 f i libvcruntimed:frame.obj
 0001:0003e780       ?ReadEntry@UWMap4@FH4@@AEAAXPEAPEAE@Z 000000018003f780 f i libvcruntimed:frame.obj
 0001:0003e830       ?TypeMatch@__FrameHandler3@@SAHPEBU_s_HandlerType@@PEBU_s_CatchableType@@PEBU_s_ThrowInfo@@@Z 000000018003f830 f   libvcruntimed:frame.obj
 0001:0003e860       ?TypeMatch@__FrameHandler4@@SAHPEAUHandlerType4@FH4@@PEBU_s_CatchableType@@PEBU_s_ThrowInfo@@@Z 000000018003f860 f   libvcruntimed:frame.obj
 0001:0003e890       ?WalkBack@UWMap4@FH4@@AEAAXPEAPEAE@Z 000000018003f890 f i libvcruntimed:frame.obj
 0001:0003e8e0       ?WalkBack@iterator@UWMap4@FH4@@QEAAXXZ 000000018003f8e0 f i libvcruntimed:frame.obj
 0001:0003e920       ?WalkForward@UWMap4@FH4@@AEAAXPEAPEAE@Z 000000018003f920 f i libvcruntimed:frame.obj
 0001:0003e950       ?_CallMemberFunction1@@YAXQEAX00@Z 000000018003f950 f i libvcruntimed:frame.obj
 0001:0003e990       ?_CallMemberFunction2@@YAXQEAX00H@Z 000000018003f990 f i libvcruntimed:frame.obj
 0001:0003ea20       ?begin@HandlerMap4@FH4@@QEAA?AViterator@12@XZ 000000018003fa20 f i libvcruntimed:frame.obj
 0001:0003ea50       ?begin@HandlerMap@__FrameHandler3@@QEAA?AViterator@12@XZ 000000018003fa50 f i libvcruntimed:frame.obj
 0001:0003ea80       ?begin@UWMap4@FH4@@QEAA?AViterator@12@XZ 000000018003fa80 f i libvcruntimed:frame.obj
 0001:0003eab0       ?end@HandlerMap4@FH4@@QEAA?AViterator@12@XZ 000000018003fab0 f i libvcruntimed:frame.obj
 0001:0003eae0       ?end@HandlerMap@__FrameHandler3@@QEAA?AViterator@12@XZ 000000018003fae0 f i libvcruntimed:frame.obj
 0001:0003eb10       ?getESTypes@__FrameHandler3@@SAPEBU_s_ESTypeList@@PEBU_s_FuncInfo@@@Z 000000018003fb10 f i libvcruntimed:frame.obj
 0001:0003eb50       ?getESTypes@__FrameHandler4@@SAPEBU_s_ESTypeList@@PEAUFuncInfo4@FH4@@@Z 000000018003fb50 f i libvcruntimed:frame.obj
 0001:0003eb60       ?getLastEntry@HandlerMap4@FH4@@QEAAPEAUHandlerType4@2@XZ 000000018003fb60 f i libvcruntimed:frame.obj
 0001:0003eba0       ?getLastEntry@HandlerMap@__FrameHandler3@@QEAAPEBU_s_HandlerType@@XZ 000000018003fba0 f i libvcruntimed:frame.obj
 0001:0003ebc0       ?getMagicNum@__FrameHandler3@@SAIPEBU_s_FuncInfo@@@Z 000000018003fbc0 f i libvcruntimed:frame.obj
 0001:0003ebe0       ?getMagicNum@__FrameHandler4@@SAIPEAUFuncInfo4@FH4@@@Z 000000018003fbe0 f i libvcruntimed:frame.obj
 0001:0003ebf0       ?getNumTryBlocks@TryBlockMap4@FH4@@QEAAIXZ 000000018003fbf0 f i libvcruntimed:frame.obj
 0001:0003ec00       ?getNumTryBlocks@TryBlockMap@__FrameHandler3@@QEAAIXZ 000000018003fc00 f i libvcruntimed:frame.obj
 0001:0003ec20       ?getStartStop@UWMap4@FH4@@QEAAXHHAEAViterator@12@0@Z 000000018003fc20 f i libvcruntimed:frame.obj
 0001:0003ed40       ?getStateFromIterators@UWMap4@FH4@@SAHAEBViterator@12@H0H0@Z 000000018003fd40 f i libvcruntimed:frame.obj
 0001:0003ee80       ?isEHs@__FrameHandler3@@SA_NPEBU_s_FuncInfo@@@Z 000000018003fe80 f i libvcruntimed:frame.obj
 0001:0003eec0       ?isEHs@__FrameHandler4@@SA_NPEAUFuncInfo4@FH4@@@Z 000000018003fec0 f i libvcruntimed:frame.obj
 0001:0003eee0       ?isNoExcept@__FrameHandler3@@SA_NPEBU_s_FuncInfo@@@Z 000000018003fee0 f i libvcruntimed:frame.obj
 0001:0003ef20       ?isNoExcept@__FrameHandler4@@SA_NPEAUFuncInfo4@FH4@@@Z 000000018003ff20 f i libvcruntimed:frame.obj
 0001:0003ef40       ?reset@HandlerType4@FH4@@QEAAXXZ 000000018003ff40 f i libvcruntimed:frame.obj
 0001:0003efa0       ?resetBuffer@HandlerMap4@FH4@@QEAAXXZ 000000018003ffa0 f i libvcruntimed:frame.obj
 0001:0003efc0       ?setBuffer@HandlerMap4@FH4@@QEAAXI@Z 000000018003ffc0 f i libvcruntimed:frame.obj
 0001:0003f020       __BuildCatchObject         0000000180040020 f   libvcruntimed:frame.obj
 0001:0003f060       __BuildCatchObjectHelper   0000000180040060 f   libvcruntimed:frame.obj
 0001:0003f0a0       __TypeMatch                00000001800400a0 f   libvcruntimed:frame.obj
 0001:0003f0d0       __vcrt_EncodePointer       00000001800400d0 f i libvcruntimed:frame.obj
 0001:0003f0f0       ??$?0$00@DName@@QEAA@PEBDU?$StringLifeSelector@$00@@@Z 00000001800400f0 f i libvcruntimed:undname.obj
 0001:0003f160       ??$?0$00@pcharNode@@QEAA@PEBDHU?$StringLifeSelector@$00@@@Z 0000000180040160 f i libvcruntimed:undname.obj
 0001:0003f1c0       ??$?0$01@DName@@QEAA@PEBDU?$StringLifeSelector@$01@@@Z 00000001800401c0 f i libvcruntimed:undname.obj
 0001:0003f230       ??$?0$01@pcharNode@@QEAA@PEBDHU?$StringLifeSelector@$01@@@Z 0000000180040230 f i libvcruntimed:undname.obj
 0001:0003f2e0       ??$?0$0A@@DName@@QEAA@PEBDU?$StringLifeSelector@$0A@@@@Z 00000001800402e0 f i libvcruntimed:undname.obj
 0001:0003f350       ??$?0$0A@@pcharNode@@QEAA@PEBDHU?$StringLifeSelector@$0A@@@@Z 0000000180040350 f i libvcruntimed:undname.obj
 0001:0003f400       ??$?0_K$0A@@?$optional@_K@std@@QEAA@$$QEA_K@Z 0000000180040400 f i libvcruntimed:undname.obj
 0001:0003f450       ??$?0_K@?$_Optional_construct_base@_K@std@@QEAA@Uin_place_t@1@$$QEA_K@Z 0000000180040450 f i libvcruntimed:undname.obj
 0001:0003f480       ??$?0_K@?$_Optional_destruct_base@_K$00@std@@QEAA@Uin_place_t@1@$$QEA_K@Z 0000000180040480 f i libvcruntimed:undname.obj
 0001:0003f4c0       ??$append@VDNameNode@@@DName@@AEAAXPEBVDNameNode@@@Z 00000001800404c0 f i libvcruntimed:undname.obj
 0001:0003f570       ??$append@VDNameStatusNode@@@DName@@AEAAXPEBVDNameStatusNode@@@Z 0000000180040570 f i libvcruntimed:undname.obj
 0001:0003f620       ??$append@VcharNode@@@DName@@AEAAXPEBVcharNode@@@Z 0000000180040620 f i libvcruntimed:undname.obj
 0001:0003f6d0       ??$append@VpDNameNode@@@DName@@AEAAXPEBVpDNameNode@@@Z 00000001800406d0 f i libvcruntimed:undname.obj
 0001:0003f780       ??$append@VpcharNode@@@DName@@AEAAXPEBVpcharNode@@@Z 0000000180040780 f i libvcruntimed:undname.obj
 0001:0003f830       ??$doPchar@$00@DName@@AEAAXPEBDH@Z 0000000180040830 f i libvcruntimed:undname.obj
 0001:0003f990       ??$doPchar@$01@DName@@AEAAXPEBDH@Z 0000000180040990 f i libvcruntimed:undname.obj
 0001:0003faf0       ??$doPchar@$0A@@DName@@AEAAXPEBDH@Z 0000000180040af0 f i libvcruntimed:undname.obj
 0001:0003fc50       ??$forward@_K@std@@YA$$QEA_KAEA_K@Z 0000000180040c50 f i libvcruntimed:undname.obj
 0001:0003fc60       ??$size@D$04@std@@YA_KAEAY04$$CBD@Z 0000000180040c60 f i libvcruntimed:undname.obj
 0001:0003fc70       ??$size@D$0EB@@std@@YA_KAEAY0EB@$$CBD@Z 0000000180040c70 f i libvcruntimed:undname.obj
 0001:0003fc80       ??0?$_Optional_construct_base@_K@std@@QEAA@XZ 0000000180040c80 f i libvcruntimed:undname.obj
 0001:0003fca0       ??0?$_Optional_destruct_base@_K$00@std@@QEAA@XZ 0000000180040ca0 f i libvcruntimed:undname.obj
 0001:0003fcd0       ??0?$optional@_K@std@@QEAA@XZ 0000000180040cd0 f i libvcruntimed:undname.obj
 0001:0003fcf0       ??0Block@_HeapManager@@QEAA@XZ 0000000180040cf0 f i libvcruntimed:undname.obj
 0001:0003fd10       ??0DName@@QEAA@AEAPEBDD@Z  0000000180040d10 f   libvcruntimed:undname.obj
 0001:0003fee0       ??0DName@@QEAA@AEBUStringLiteral@@@Z 0000000180040ee0 f   libvcruntimed:undname.obj
 0001:0003ff40       ??0DName@@QEAA@AEBV0@@Z    0000000180040f40 f i libvcruntimed:undname.obj
 0001:0003ff70       ??0DName@@QEAA@D@Z         0000000180040f70 f   libvcruntimed:undname.obj
 0001:0003ffb0       ??0DName@@QEAA@PEAV0@@Z    0000000180040fb0 f   libvcruntimed:undname.obj
 0001:00040090       ??0DName@@QEAA@W4DNameStatus@@@Z 0000000180041090 f   libvcruntimed:undname.obj
 0001:00040140       ??0DName@@QEAA@XZ          0000000180041140 f i libvcruntimed:undname.obj
 0001:00040170       ??0DName@@QEAA@_J@Z        0000000180041170 f   libvcruntimed:undname.obj
 0001:00040280       ??0DName@@QEAA@_K@Z        0000000180041280 f   libvcruntimed:undname.obj
 0001:00040350       ??0DNameNode@@IEAA@XZ      0000000180041350 f i libvcruntimed:undname.obj
 0001:00040370       ??0Replicator@@QEAA@XZ     0000000180041370 f i libvcruntimed:undname.obj
 0001:000403b0       ??0UnDecorator@@QEAA@PEBDP6APEADJ@ZK@Z 00000001800413b0 f i libvcruntimed:undname.obj
 0001:00040460       ??0_Nontrivial_dummy_type@std@@QEAA@XZ 0000000180041460 f i libvcruntimed:undname.obj
 0001:00040470       ??0charNode@@QEAA@D@Z      0000000180041470 f i libvcruntimed:undname.obj
 0001:000404b0       ??0pDNameNode@@QEAA@PEAVDName@@@Z 00000001800414b0 f   libvcruntimed:undname.obj
 0001:00040530       ??0pairNode@@QEAA@PEBVDNameNode@@0@Z 0000000180041530 f i libvcruntimed:undname.obj
 0001:000405b0       ??2@YAPEAX_KAEAV_HeapManager@@H@Z 00000001800415b0 f   libvcruntimed:undname.obj
 0001:00040610       ??4DName@@QEAAAEAV0@AEBUStringLiteral@@@Z 0000000180041610 f   libvcruntimed:undname.obj
 0001:00040660       ??4DName@@QEAAAEAV0@AEBV0@@Z 0000000180041660 f   libvcruntimed:undname.obj
 0001:00040690       ??4DName@@QEAAAEAV0@D@Z    0000000180041690 f i libvcruntimed:undname.obj
 0001:000406d0       ??4DName@@QEAAAEAV0@PEAV0@@Z 00000001800416d0 f   libvcruntimed:undname.obj
 0001:000407a0       ??4DName@@QEAAAEAV0@W4DNameStatus@@@Z 00000001800417a0 f   libvcruntimed:undname.obj
 0001:00040830       ??AReplicator@@QEBA?AVDName@@H@Z 0000000180041830 f   libvcruntimed:undname.obj
 0001:000408c0       ??B?$optional@_K@std@@QEBA_NXZ 00000001800418c0 f i libvcruntimed:undname.obj
 0001:000408d0       ??D?$optional@_K@std@@QEGAAAEA_KXZ 00000001800418d0 f i libvcruntimed:undname.obj
 0001:00040970       ??H@YA?AVDName@@AEBUStringLiteral@@AEBV0@@Z 0000000180041970 f i libvcruntimed:undname.obj
 0001:000409c0       ??H@YA?AVDName@@DAEBV0@@Z  00000001800419c0 f i libvcruntimed:undname.obj
 0001:00040a10       ??H@YA?AVDName@@W4DNameStatus@@AEBV0@@Z 0000000180041a10 f i libvcruntimed:undname.obj
 0001:00040a60       ??HDName@@QEBA?AV0@AEBUStringLiteral@@@Z 0000000180041a60 f   libvcruntimed:undname.obj
 0001:00040ab0       ??HDName@@QEBA?AV0@AEBV0@@Z 0000000180041ab0 f   libvcruntimed:undname.obj
 0001:00040b00       ??HDName@@QEBA?AV0@D@Z     0000000180041b00 f   libvcruntimed:undname.obj
 0001:00040b50       ??HDName@@QEBA?AV0@PEAV0@@Z 0000000180041b50 f   libvcruntimed:undname.obj
 0001:00040ba0       ??HDName@@QEBA?AV0@W4DNameStatus@@@Z 0000000180041ba0 f   libvcruntimed:undname.obj
 0001:00040bf0       ??HStringLiteral@@QEBA?AU0@H@Z 0000000180041bf0 f i libvcruntimed:undname.obj
 0001:00040c30       ??YDName@@QEAAAEAV0@AEBUStringLiteral@@@Z 0000000180041c30 f   libvcruntimed:undname.obj
 0001:00040d00       ??YDName@@QEAAAEAV0@AEBV0@@Z 0000000180041d00 f   libvcruntimed:undname.obj
 0001:00040dc0       ??YDName@@QEAAAEAV0@D@Z    0000000180041dc0 f   libvcruntimed:undname.obj
 0001:00040e60       ??YDName@@QEAAAEAV0@PEAV0@@Z 0000000180041e60 f   libvcruntimed:undname.obj
 0001:00040f40       ??YDName@@QEAAAEAV0@W4DNameStatus@@@Z 0000000180041f40 f   libvcruntimed:undname.obj
 0001:00040fb0       ??YReplicator@@QEAAAEAV0@AEBVDName@@@Z 0000000180041fb0 f   libvcruntimed:undname.obj
 0001:00041070       ??_5DName@@QEAAAEAV0@AEBV0@@Z 0000000180042070 f   libvcruntimed:undname.obj
 0001:000410e0       ??__K_l@@YA?AUStringLiteral@@PEBD_K@Z 00000001800420e0 f i libvcruntimed:undname.obj
 0001:00041130       ?Constructor@_HeapManager@@QEAAXP6APEAX_K@ZP6AXPEAX@Z@Z 0000000180042130 f i libvcruntimed:undname.obj
 0001:00041190       ?Destructor@_HeapManager@@QEAAXXZ 0000000180042190 f i libvcruntimed:undname.obj
 0001:00041230       ?UScore@UnDecorator@@SA?AUStringLiteral@@W4Tokens@@@Z 0000000180042230 f   libvcruntimed:undname.obj
 0001:000412c0       ?composeDeclaration@UnDecorator@@CA?AVDName@@AEBV2@@Z 00000001800422c0 f i libvcruntimed:undname.obj
 0001:000437c0       ?dbGetString@DName@@QEBAPEADXZ 00000001800447c0 f   libvcruntimed:undname.obj
 0001:000437f0       ?doAccessSpecifiers@UnDecorator@@SAHXZ 00000001800447f0 f i libvcruntimed:undname.obj
 0001:00043820       ?doAllocationLanguage@UnDecorator@@SAHXZ 0000000180044820 f i libvcruntimed:undname.obj
 0001:00043850       ?doAllocationModel@UnDecorator@@SAHXZ 0000000180044850 f i libvcruntimed:undname.obj
 0001:00043880       ?doEcsu@UnDecorator@@SAHXZ 0000000180044880 f i libvcruntimed:undname.obj
 0001:000438b0       ?doEllipsis@UnDecorator@@SAHXZ 00000001800448b0 f i libvcruntimed:undname.obj
 0001:000438e0       ?doFunctionReturns@UnDecorator@@SAHXZ 00000001800448e0 f i libvcruntimed:undname.obj
 0001:00043910       ?doMSKeywords@UnDecorator@@SAHXZ 0000000180044910 f i libvcruntimed:undname.obj
 0001:00043940       ?doMemberTypes@UnDecorator@@SAHXZ 0000000180044940 f i libvcruntimed:undname.obj
 0001:00043970       ?doNameOnly@UnDecorator@@SAHXZ 0000000180044970 f i libvcruntimed:undname.obj
 0001:00043980       ?doNoIdentCharCheck@UnDecorator@@SAHXZ 0000000180044980 f i libvcruntimed:undname.obj
 0001:00043990       ?doPchar@DName@@AEAAXD@Z   0000000180044990 f   libvcruntimed:undname.obj
 0001:00043a20       ?doPtr64@UnDecorator@@SAHXZ 0000000180044a20 f i libvcruntimed:undname.obj
 0001:00043a50       ?doRestrictionSpec@UnDecorator@@SAHXZ 0000000180044a50 f i libvcruntimed:undname.obj
 0001:00043a80       ?doThisTypes@UnDecorator@@SAHXZ 0000000180044a80 f i libvcruntimed:undname.obj
 0001:00043ab0       ?doThrowTypes@UnDecorator@@SAHXZ 0000000180044ab0 f i libvcruntimed:undname.obj
 0001:00043ae0       ?doTypeOnly@UnDecorator@@SAHXZ 0000000180044ae0 f i libvcruntimed:undname.obj
 0001:00043af0       ?doUnderScore@UnDecorator@@SAHXZ 0000000180044af0 f i libvcruntimed:undname.obj
 0001:00043b20       ?getAddressOf@UnDecorator@@CA?AVDName@@XZ 0000000180044b20 f   libvcruntimed:undname.obj
 0001:00043bc0       ?getArgumentList@UnDecorator@@CA?AVDName@@XZ 0000000180044bc0 f   libvcruntimed:undname.obj
 0001:00043d60       ?getArgumentTypes@UnDecorator@@CA?AVDName@@XZ 0000000180044d60 f   libvcruntimed:undname.obj
 0001:00044040       ?getArrayAccess@UnDecorator@@CA?AVDName@@XZ 0000000180045040 f   libvcruntimed:undname.obj
 0001:00044100       ?getArrayObject@UnDecorator@@CA?AVDName@@XZ 0000000180045100 f   libvcruntimed:undname.obj
 0001:00044220       ?getArrayType@UnDecorator@@CA?AVDName@@AEBV2@@Z 0000000180045220 f i libvcruntimed:undname.obj
 0001:000445e0       ?getBasedType@UnDecorator@@CA?AVDName@@XZ 00000001800455e0 f   libvcruntimed:undname.obj
 0001:00044750       ?getBasicDataType@UnDecorator@@CA?AVDName@@AEBV2@@Z 0000000180045750 f   libvcruntimed:undname.obj
 0001:000454f0       ?getCHPEName@UnDecorator@@QEAAPEADPEADH@Z 00000001800464f0 f i libvcruntimed:undname.obj
 0001:000456c0       ?getCallIndex@UnDecorator@@CA?AVDName@@XZ 00000001800466c0 f i libvcruntimed:undname.obj
 0001:000456e0       ?getCallingConvention@UnDecorator@@CA?AVDName@@XZ 00000001800466e0 f   libvcruntimed:undname.obj
 0001:00045ad0       ?getDataIndirectType@UnDecorator@@CA?AVDName@@AEBV2@W4IndirectionKind@@0H@Z 0000000180046ad0 f   libvcruntimed:undname.obj
 0001:00046770       ?getDataIndirectType@UnDecorator@@CA?AVDName@@XZ 0000000180047770 f i libvcruntimed:undname.obj
 0001:000467c0       ?getDataType@UnDecorator@@CA?AVDName@@PEAV2@@Z 00000001800477c0 f   libvcruntimed:undname.obj
 0001:000469a0       ?getDecoratedName@UnDecorator@@CA?AVDName@@XZ 00000001800479a0 f   libvcruntimed:undname.obj
 0001:00046e90       ?getDimension@UnDecorator@@CA?AVDName@@_N@Z 0000000180047e90 f   libvcruntimed:undname.obj
 0001:000471a0       ?getDispatchTarget@UnDecorator@@CA?AVDName@@XZ 00000001800481a0 f   libvcruntimed:undname.obj
 0001:00047270       ?getDisplacement@UnDecorator@@CA?AVDName@@XZ 0000000180048270 f i libvcruntimed:undname.obj
 0001:00047290       ?getECSUDataType@UnDecorator@@CA?AVDName@@XZ 0000000180048290 f   libvcruntimed:undname.obj
 0001:00047620       ?getECSUName@UnDecorator@@CA?AVDName@@XZ 0000000180048620 f i libvcruntimed:undname.obj
 0001:00047640       ?getEnumType@UnDecorator@@CA?AVDName@@XZ 0000000180048640 f i libvcruntimed:undname.obj
 0001:000478d0       ?getExtendedDataIndirectType@UnDecorator@@CA?AVDName@@AEAW4IndirectionKind@@AEA_NH@Z 00000001800488d0 f   libvcruntimed:undname.obj
 0001:00047bf0       ?getExternalDataType@UnDecorator@@CA?AVDName@@AEBV2@@Z 0000000180048bf0 f i libvcruntimed:undname.obj
 0001:00047cd0       ?getFloatingPoint@UnDecorator@@CA?AVDName@@H@Z 0000000180048cd0 f   libvcruntimed:undname.obj
 0001:00047f50       ?getFunctionIndirectType@UnDecorator@@CA?AVDName@@AEBV2@@Z 0000000180048f50 f   libvcruntimed:undname.obj
 0001:00048580       ?getGuardNumber@UnDecorator@@CA?AVDName@@XZ 0000000180049580 f i libvcruntimed:undname.obj
 0001:000485a0       ?getLastChar@DName@@QEBADXZ 00000001800495a0 f i libvcruntimed:undname.obj
 0001:000485f0       ?getLastChar@DNameStatusNode@@UEBADXZ 00000001800495f0 f i libvcruntimed:undname.obj
 0001:00048630       ?getLastChar@charNode@@UEBADXZ 0000000180049630 f i libvcruntimed:undname.obj
 0001:00048640       ?getLastChar@pDNameNode@@UEBADXZ 0000000180049640 f i libvcruntimed:undname.obj
 0001:00048680       ?getLastChar@pairNode@@UEBADXZ 0000000180049680 f i libvcruntimed:undname.obj
 0001:00048700       ?getLastChar@pcharNode@@UEBADXZ 0000000180049700 f i libvcruntimed:undname.obj
 0001:00048740       ?getLexicalFrame@UnDecorator@@CA?AVDName@@XZ 0000000180049740 f i libvcruntimed:undname.obj
 0001:00048790       ?getMemberAccess@UnDecorator@@CA?AVDName@@XZ 0000000180049790 f   libvcruntimed:undname.obj
 0001:00048840       ?getMemoryWithBuffer@_HeapManager@@QEAAPEAX_K@Z 0000000180049840 f   libvcruntimed:undname.obj
 0001:00048990       ?getMemoryWithoutBuffer@_HeapManager@@QEAAPEAX_K@Z 0000000180049990 f   libvcruntimed:undname.obj
 0001:000489e0       ?getNoexcept@UnDecorator@@CA?AVDName@@XZ 00000001800499e0 f   libvcruntimed:undname.obj
 0001:00048a90       ?getNumberOfDimensions@UnDecorator@@CAHXZ 0000000180049a90 f   libvcruntimed:undname.obj
 0001:00048bb0       ?getOperatorName@UnDecorator@@CA?AVDName@@_NPEA_N@Z 0000000180049bb0 f i libvcruntimed:undname.obj
 0001:00049ba0       ?getPointerToMember@UnDecorator@@CA?AVDName@@XZ 000000018004aba0 f   libvcruntimed:undname.obj
 0001:00049cf0       ?getPointerType@UnDecorator@@CA?AVDName@@AEBV2@0@Z 000000018004acf0 f i libvcruntimed:undname.obj
 0001:00049d30       ?getPointerTypeArray@UnDecorator@@CA?AVDName@@AEBV2@0@Z 000000018004ad30 f i libvcruntimed:undname.obj
 0001:00049d70       ?getPrimaryDataType@UnDecorator@@CA?AVDName@@AEBV2@@Z 000000018004ad70 f   libvcruntimed:undname.obj
 0001:0004a3a0       ?getPtrRefDataType@UnDecorator@@CA?AVDName@@AEBV2@H@Z 000000018004b3a0 f   libvcruntimed:undname.obj
 0001:0004a790       ?getPtrRefType@UnDecorator@@CA?AVDName@@AEBV2@0W4IndirectionKind@@@Z 000000018004b790 f   libvcruntimed:undname.obj
 0001:0004a9d0       ?getReferenceType@UnDecorator@@CA?AVDName@@AEBV2@0W4IndirectionKind@@@Z 000000018004b9d0 f i libvcruntimed:undname.obj
 0001:0004aa10       ?getRestrictionSpec@UnDecorator@@CA?AVDName@@XZ 000000018004ba10 f   libvcruntimed:undname.obj
 0001:0004aca0       ?getReturnType@UnDecorator@@CA?AVDName@@PEAV2@@Z 000000018004bca0 f   libvcruntimed:undname.obj
 0001:0004ad00       ?getScope@UnDecorator@@CA?AVDName@@XZ 000000018004bd00 f   libvcruntimed:undname.obj
 0001:0004b460       ?getScopedName@UnDecorator@@CA?AVDName@@XZ 000000018004c460 f   libvcruntimed:undname.obj
 0001:0004b660       ?getSignedDimension@UnDecorator@@CA?AVDName@@XZ 000000018004c660 f   libvcruntimed:undname.obj
 0001:0004b6f0       ?getStorageConvention@UnDecorator@@CA?AVDName@@XZ 000000018004c6f0 f i libvcruntimed:undname.obj
 0001:0004b710       ?getString@DName@@QEBAPEADPEAD0@Z 000000018004c710 f i libvcruntimed:undname.obj
 0001:0004b790       ?getString@DName@@QEBAPEADPEADH@Z 000000018004c790 f i libvcruntimed:undname.obj
 0001:0004b850       ?getString@DNameStatusNode@@UEBAPEADPEAD0@Z 000000018004c850 f i libvcruntimed:undname.obj
 0001:0004b8a0       ?getString@charNode@@UEBAPEADPEAD0@Z 000000018004c8a0 f i libvcruntimed:undname.obj
 0001:0004b8e0       ?getString@pDNameNode@@UEBAPEADPEAD0@Z 000000018004c8e0 f i libvcruntimed:undname.obj
 0001:0004b940       ?getString@pairNode@@UEBAPEADPEAD0@Z 000000018004c940 f i libvcruntimed:undname.obj
 0001:0004ba10       ?getString@pcharNode@@UEBAPEADPEAD0@Z 000000018004ca10 f i libvcruntimed:undname.obj
 0001:0004ba50       ?getStringEncoding@UnDecorator@@CA?AVDName@@W4PrefixKind@@H@Z 000000018004ca50 f   libvcruntimed:undname.obj
 0001:0004bbb0       ?getStringHelper@@YAPEADPEADPEBD1H@Z 000000018004cbb0 f i libvcruntimed:undname.obj
 0001:0004bc20       ?getStringObject@UnDecorator@@CA?AVDName@@XZ 000000018004cc20 f   libvcruntimed:undname.obj
 0001:0004bd00       ?getSymbolName@UnDecorator@@CA?AVDName@@XZ 000000018004cd00 f i libvcruntimed:undname.obj
 0001:0004bda0       ?getTemplateArgumentList@UnDecorator@@CA?AVDName@@XZ 000000018004cda0 f   libvcruntimed:undname.obj
 0001:0004c0e0       ?getTemplateName@UnDecorator@@CA?AVDName@@_N@Z 000000018004d0e0 f   libvcruntimed:undname.obj
 0001:0004c320       ?getTemplateNonTypeArgument@UnDecorator@@CA?AVDName@@XZ 000000018004d320 f   libvcruntimed:undname.obj
 0001:0004cbc0       ?getTemplateTypeArgument@UnDecorator@@CA?AVDName@@XZ 000000018004dbc0 f   libvcruntimed:undname.obj
 0001:0004ce30       ?getThisType@UnDecorator@@CA?AVDName@@XZ 000000018004de30 f i libvcruntimed:undname.obj
 0001:0004ce80       ?getThrowTypes@UnDecorator@@CA?AVDName@@XZ 000000018004de80 f   libvcruntimed:undname.obj
 0001:0004ced0       ?getTypeEncoding@UnDecorator@@CAHXZ 000000018004ded0 f i libvcruntimed:undname.obj
 0001:0004db30       ?getUndecoratedName@UnDecorator@@QEAAPEADPEADH@Z 000000018004eb30 f i libvcruntimed:undname.obj
 0001:0004dd20       ?getUnionObject@UnDecorator@@CA?AVDName@@XZ 000000018004ed20 f   libvcruntimed:undname.obj
 0001:0004de30       ?getVCallThunkType@UnDecorator@@CA?AVDName@@XZ 000000018004ee30 f i libvcruntimed:undname.obj
 0001:0004dee0       ?getValue@UnDecorator@@CA?AV?$optional@_K@std@@XZ 000000018004eee0 f   libvcruntimed:undname.obj
 0001:0004dfb0       ?getValueObject@UnDecorator@@CA?AVDName@@XZ 000000018004efb0 f   libvcruntimed:undname.obj
 0001:0004e1d0       ?getVbTableType@UnDecorator@@CA?AVDName@@AEBV2@@Z 000000018004f1d0 f i libvcruntimed:undname.obj
 0001:0004e200       ?getVdispMapType@UnDecorator@@CA?AVDName@@AEBV2@@Z 000000018004f200 f i libvcruntimed:undname.obj
 0001:0004e2c0       ?getVfTableType@UnDecorator@@CA?AVDName@@AEBV2@@Z 000000018004f2c0 f i libvcruntimed:undname.obj
 0001:0004e560       ?getZName@UnDecorator@@CA?AVDName@@_N0@Z 000000018004f560 f   libvcruntimed:undname.obj
 0001:0004e9d0       ?haveTemplateParameters@UnDecorator@@SAHXZ 000000018004f9d0 f i libvcruntimed:undname.obj
 0001:0004e9e0       ?isArray@DName@@QEBAHXZ    000000018004f9e0 f i libvcruntimed:undname.obj
 0001:0004ea00       ?isComArray@DName@@QEBAHXZ 000000018004fa00 f i libvcruntimed:undname.obj
 0001:0004ea20       ?isEmpty@DName@@QEBAHXZ    000000018004fa20 f i libvcruntimed:undname.obj
 0001:0004ea50       ?isFull@Replicator@@QEBAHXZ 000000018004fa50 f i libvcruntimed:undname.obj
 0001:0004ea80       ?isNoTE@DName@@QEBAHXZ     000000018004fa80 f i libvcruntimed:undname.obj
 0001:0004eaa0       ?isPinPtr@DName@@QEBAHXZ   000000018004faa0 f i libvcruntimed:undname.obj
 0001:0004eac0       ?isPtrRef@DName@@QEBAHXZ   000000018004fac0 f i libvcruntimed:undname.obj
 0001:0004eae0       ?isUDC@DName@@QEBAHXZ      000000018004fae0 f i libvcruntimed:undname.obj
 0001:0004eb30       ?isUDTThunk@DName@@QEBAHXZ 000000018004fb30 f i libvcruntimed:undname.obj
 0001:0004eb80       ?isVCallThunk@DName@@QEBAHXZ 000000018004fb80 f i libvcruntimed:undname.obj
 0001:0004eba0       ?isValid@DName@@QEBAHXZ    000000018004fba0 f i libvcruntimed:undname.obj
 0001:0004ebe0       ?length@DName@@QEBAHXZ     000000018004fbe0 f i libvcruntimed:undname.obj
 0001:0004ec30       ?length@DNameStatusNode@@UEBAHXZ 000000018004fc30 f i libvcruntimed:undname.obj
 0001:0004ec40       ?length@charNode@@UEBAHXZ  000000018004fc40 f i libvcruntimed:undname.obj
 0001:0004ec50       ?length@pDNameNode@@UEBAHXZ 000000018004fc50 f i libvcruntimed:undname.obj
 0001:0004ec90       ?length@pairNode@@UEBAHXZ  000000018004fc90 f i libvcruntimed:undname.obj
 0001:0004ed20       ?length@pcharNode@@UEBAHXZ 000000018004fd20 f i libvcruntimed:undname.obj
 0001:0004ed30       ?make@DNameStatusNode@@SAPEBV1@W4DNameStatus@@@Z 000000018004fd30 f i libvcruntimed:undname.obj
 0001:0004ed80       ?parseDecoratedName@UnDecorator@@CA?AVDName@@XZ 000000018004fd80 f   libvcruntimed:undname.obj
 0001:0004ef70       ?raw_length@DNameStatusNode@@UEBAHXZ 000000018004ff70 f i libvcruntimed:undname.obj
 0001:0004ef90       ?raw_length@charNode@@UEBAHXZ 000000018004ff90 f i libvcruntimed:undname.obj
 0001:0004efb0       ?raw_length@pDNameNode@@UEBAHXZ 000000018004ffb0 f i libvcruntimed:undname.obj
 0001:0004efc0       ?raw_length@pairNode@@UEBAHXZ 000000018004ffc0 f i libvcruntimed:undname.obj
 0001:0004efd0       ?raw_length@pcharNode@@UEBAHXZ 000000018004ffd0 f i libvcruntimed:undname.obj
 0001:0004eff0       ?setIsArray@DName@@QEAAXXZ 000000018004fff0 f i libvcruntimed:undname.obj
 0001:0004f010       ?setIsComArray@DName@@QEAAXXZ 0000000180050010 f i libvcruntimed:undname.obj
 0001:0004f030       ?setIsNoTE@DName@@QEAAXXZ  0000000180050030 f i libvcruntimed:undname.obj
 0001:0004f050       ?setIsPinPtr@DName@@QEAAXXZ 0000000180050050 f i libvcruntimed:undname.obj
 0001:0004f070       ?setIsUDC@DName@@QEAAXXZ   0000000180050070 f i libvcruntimed:undname.obj
 0001:0004f0a0       ?setIsVCallThunk@DName@@QEAAXXZ 00000001800500a0 f i libvcruntimed:undname.obj
 0001:0004f0c0       ?setPtrRef@DName@@QEAAAEAV1@XZ 00000001800500c0 f i libvcruntimed:undname.obj
 0001:0004f0e0       ?status@DName@@QEBA?AW4DNameStatus@@XZ 00000001800500e0 f i libvcruntimed:undname.obj
 0001:0004f210       __unDName                  0000000180050210 f   libvcruntimed:undname.obj
 0001:0004f270       __unDNameEx                0000000180050270 f   libvcruntimed:undname.obj
 0001:0004f330       unDNameGenerateCHPE        0000000180050330 f   libvcruntimed:undname.obj
 0001:0004f3e0       ??$__crt_interlocked_exchange_pointer@UHINSTANCE__@@PEAU1@@@YAPEAUHINSTANCE__@@PEDSEAU0@QEAU0@@Z 00000001800503e0 f i libvcruntimed:winapi_downlevel.obj
 0001:0004f400       ??$__crt_interlocked_exchange_pointer@UHINSTANCE__@@PEAX@@YAPEAUHINSTANCE__@@PEDSEAU0@QEAX@Z 0000000180050400 f i libvcruntimed:winapi_downlevel.obj
 0001:0004f420       ??$__crt_interlocked_exchange_pointer@XPEAX@@YAPEAXPEDSEAXQEAX@Z 0000000180050420 f i libvcruntimed:winapi_downlevel.obj
 0001:0004f440       ??$__crt_interlocked_read_pointer@UHINSTANCE__@@@@YAPEAUHINSTANCE__@@PEDSEAU0@@Z 0000000180050440 f i libvcruntimed:winapi_downlevel.obj
 0001:0004f460       ??$__crt_interlocked_read_pointer@X@@YAPEAXPEDSEAX@Z 0000000180050460 f i libvcruntimed:winapi_downlevel.obj
 0001:0004f970       __vcrt_FlsAlloc            0000000180050970 f   libvcruntimed:winapi_downlevel.obj
 0001:0004f9c0       __vcrt_FlsFree             00000001800509c0 f   libvcruntimed:winapi_downlevel.obj
 0001:0004fa10       __vcrt_FlsGetValue         0000000180050a10 f   libvcruntimed:winapi_downlevel.obj
 0001:0004fa60       __vcrt_FlsSetValue         0000000180050a60 f   libvcruntimed:winapi_downlevel.obj
 0001:0004fac0       __vcrt_InitializeCriticalSectionEx 0000000180050ac0 f   libvcruntimed:winapi_downlevel.obj
 0001:0004fb40       _CallSettingFrame          0000000180050b40 f   libvcruntimed:handlers.obj
 0001:0004fb90       _CallSettingFrame_LookupContinuationIndex 0000000180050b90 f   libvcruntimed:handlers.obj
 0001:0004fbc0       _CallSettingFrame_NotifyContinuationAddr 0000000180050bc0 f   libvcruntimed:handlers.obj
 0001:0004fbf0       _CallSettingFrameEncoded   0000000180050bf0 f   libvcruntimed:handlers.obj
 0001:0004fc40       ??$?0AEBV?$stream_output_adapter@D@__crt_stdio_output@@AEB_KAEBQEBDAEAV__crt_cached_ptd_host@@AEBQEAD@?$format_validation_base@DV?$stream_output_adapter@D@__crt_stdio_output@@@__crt_stdio_output@@IEAA@AEBV?$stream_output_adapter@D@1@AEB_KAEBQEBDAEAV__crt_cached_ptd_host@@AEBQEAD@Z 0000000180050c40 f i libucrtd:output.obj
 0001:0004fc90       ??$?0AEBV?$stream_output_adapter@D@__crt_stdio_output@@AEB_KAEBQEBDAEAV__crt_cached_ptd_host@@AEBQEAD@?$positional_parameter_base@DV?$stream_output_adapter@D@__crt_stdio_output@@@__crt_stdio_output@@IEAA@AEBV?$stream_output_adapter@D@1@AEB_KAEBQEBDAEAV__crt_cached_ptd_host@@AEBQEAD@Z 0000000180050c90 f i libucrtd:output.obj
 0001:0004fd30       ??$?0AEBV?$stream_output_adapter@D@__crt_stdio_output@@AEB_KAEBQEBDAEAV__crt_cached_ptd_host@@AEBQEAD@?$standard_base@DV?$stream_output_adapter@D@__crt_stdio_output@@@__crt_stdio_output@@IEAA@AEBV?$stream_output_adapter@D@1@AEB_KAEBQEBDAEAV__crt_cached_ptd_host@@AEBQEAD@Z 0000000180050d30 f i libucrtd:output.obj
 0001:0004fda0       ??$?0AEBV?$stream_output_adapter@_W@__crt_stdio_output@@AEB_KAEBQEB_WAEAV__crt_cached_ptd_host@@AEBQEAD@?$format_validation_base@_WV?$stream_output_adapter@_W@__crt_stdio_output@@@__crt_stdio_output@@IEAA@AEBV?$stream_output_adapter@_W@1@AEB_KAEBQEB_WAEAV__crt_cached_ptd_host@@AEBQEAD@Z 0000000180050da0 f i libucrtd:output.obj
 0001:0004fdf0       ??$?0AEBV?$stream_output_adapter@_W@__crt_stdio_output@@AEB_KAEBQEB_WAEAV__crt_cached_ptd_host@@AEBQEAD@?$positional_parameter_base@_WV?$stream_output_adapter@_W@__crt_stdio_output@@@__crt_stdio_output@@IEAA@AEBV?$stream_output_adapter@_W@1@AEB_KAEBQEB_WAEAV__crt_cached_ptd_host@@AEBQEAD@Z 0000000180050df0 f i libucrtd:output.obj
 0001:0004fe90       ??$?0AEBV?$stream_output_adapter@_W@__crt_stdio_output@@AEB_KAEBQEB_WAEAV__crt_cached_ptd_host@@AEBQEAD@?$standard_base@_WV?$stream_output_adapter@_W@__crt_stdio_output@@@__crt_stdio_output@@IEAA@AEBV?$stream_output_adapter@_W@1@AEB_KAEBQEB_WAEAV__crt_cached_ptd_host@@AEBQEAD@Z 0000000180050e90 f i libucrtd:output.obj
 0001:0004ff00       ??$?0AEBV?$string_output_adapter@D@__crt_stdio_output@@AEB_KAEBQEBDAEAV__crt_cached_ptd_host@@AEBQEAD@?$format_validation_base@DV?$string_output_adapter@D@__crt_stdio_output@@@__crt_stdio_output@@IEAA@AEBV?$string_output_adapter@D@1@AEB_KAEBQEBDAEAV__crt_cached_ptd_host@@AEBQEAD@Z 0000000180050f00 f i libucrtd:output.obj
 0001:0004ff50       ??$?0AEBV?$string_output_adapter@D@__crt_stdio_output@@AEB_KAEBQEBDAEAV__crt_cached_ptd_host@@AEBQEAD@?$positional_parameter_base@DV?$string_output_adapter@D@__crt_stdio_output@@@__crt_stdio_output@@IEAA@AEBV?$string_output_adapter@D@1@AEB_KAEBQEBDAEAV__crt_cached_ptd_host@@AEBQEAD@Z 0000000180050f50 f i libucrtd:output.obj
 0001:0004fff0       ??$?0AEBV?$string_output_adapter@D@__crt_stdio_output@@AEB_KAEBQEBDAEAV__crt_cached_ptd_host@@AEBQEAD@?$standard_base@DV?$string_output_adapter@D@__crt_stdio_output@@@__crt_stdio_output@@IEAA@AEBV?$string_output_adapter@D@1@AEB_KAEBQEBDAEAV__crt_cached_ptd_host@@AEBQEAD@Z 0000000180050ff0 f i libucrtd:output.obj
 0001:00050060       ??$?0AEBV?$string_output_adapter@_W@__crt_stdio_output@@AEB_KAEBQEB_WAEAV__crt_cached_ptd_host@@AEBQEAD@?$format_validation_base@_WV?$string_output_adapter@_W@__crt_stdio_output@@@__crt_stdio_output@@IEAA@AEBV?$string_output_adapter@_W@1@AEB_KAEBQEB_WAEAV__crt_cached_ptd_host@@AEBQEAD@Z 0000000180051060 f i libucrtd:output.obj
 0001:000500b0       ??$?0AEBV?$string_output_adapter@_W@__crt_stdio_output@@AEB_KAEBQEB_WAEAV__crt_cached_ptd_host@@AEBQEAD@?$positional_parameter_base@_WV?$string_output_adapter@_W@__crt_stdio_output@@@__crt_stdio_output@@IEAA@AEBV?$string_output_adapter@_W@1@AEB_KAEBQEB_WAEAV__crt_cached_ptd_host@@AEBQEAD@Z 00000001800510b0 f i libucrtd:output.obj
 0001:00050150       ??$?0AEBV?$string_output_adapter@_W@__crt_stdio_output@@AEB_KAEBQEB_WAEAV__crt_cached_ptd_host@@AEBQEAD@?$standard_base@_WV?$string_output_adapter@_W@__crt_stdio_output@@@__crt_stdio_output@@IEAA@AEBV?$string_output_adapter@_W@1@AEB_KAEBQEB_WAEAV__crt_cached_ptd_host@@AEBQEAD@Z 0000000180051150 f i libucrtd:output.obj
 0001:000505e0       ??$__crt_interlocked_read@J@@YAJPEDJ@Z 00000001800515e0 f i libucrtd:output.obj
 0001:00050600       ??$_tcstol_internal@DPEAPEAD$0A@@@YAJAEAV__crt_cached_ptd_host@@QEBDQEAPEADH@Z 0000000180051600 f i libucrtd:output.obj
 0001:00050650       ??$_tcstol_internal@_WPEAPEA_W$0A@@@YAJAEAV__crt_cached_ptd_host@@QEB_WQEAPEA_WH@Z 0000000180051650 f i libucrtd:output.obj
 0001:00054670       ??$count@D@formatting_buffer@__crt_stdio_output@@QEBA_KXZ 0000000180055670 f i libucrtd:output.obj
 0001:000546c0       ??$count@_W@formatting_buffer@__crt_stdio_output@@QEBA_KXZ 00000001800556c0 f i libucrtd:output.obj
 0001:00054710       ??$data@D@formatting_buffer@__crt_stdio_output@@QEAAPEADXZ 0000000180055710 f i libucrtd:output.obj
 0001:00054760       ??$data@_W@formatting_buffer@__crt_stdio_output@@QEAAPEA_WXZ 0000000180055760 f i libucrtd:output.obj
 0001:000547b0       ??$ensure_buffer_is_big_enough@D@formatting_buffer@__crt_stdio_output@@QEAA_N_KAEAV__crt_cached_ptd_host@@@Z 00000001800557b0 f i libucrtd:output.obj
 0001:000548f0       ??$ensure_buffer_is_big_enough@_W@formatting_buffer@__crt_stdio_output@@QEAA_N_KAEAV__crt_cached_ptd_host@@@Z 00000001800558f0 f i libucrtd:output.obj
 0001:00054a30       ??$extract_argument_from_va_list@C_J@?$positional_parameter_base@DV?$stream_output_adapter@D@__crt_stdio_output@@@__crt_stdio_output@@IEAA_NAEA_J@Z 0000000180055a30 f i libucrtd:output.obj
 0001:00054bf0       ??$extract_argument_from_va_list@C_J@?$positional_parameter_base@DV?$string_output_adapter@D@__crt_stdio_output@@@__crt_stdio_output@@IEAA_NAEA_J@Z 0000000180055bf0 f i libucrtd:output.obj
 0001:00054db0       ??$extract_argument_from_va_list@C_J@?$positional_parameter_base@_WV?$stream_output_adapter@_W@__crt_stdio_output@@@__crt_stdio_output@@IEAA_NAEA_J@Z 0000000180055db0 f i libucrtd:output.obj
 0001:00054f70       ??$extract_argument_from_va_list@C_J@?$positional_parameter_base@_WV?$string_output_adapter@_W@__crt_stdio_output@@@__crt_stdio_output@@IEAA_NAEA_J@Z 0000000180055f70 f i libucrtd:output.obj
 0001:00055130       ??$extract_argument_from_va_list@C_J@?$standard_base@DV?$stream_output_adapter@D@__crt_stdio_output@@@__crt_stdio_output@@IEAA_NAEA_J@Z 0000000180056130 f i libucrtd:output.obj
 0001:00055170       ??$extract_argument_from_va_list@C_J@?$standard_base@DV?$string_output_adapter@D@__crt_stdio_output@@@__crt_stdio_output@@IEAA_NAEA_J@Z 0000000180056170 f i libucrtd:output.obj
 0001:000551b0       ??$extract_argument_from_va_list@C_J@?$standard_base@_WV?$stream_output_adapter@_W@__crt_stdio_output@@@__crt_stdio_output@@IEAA_NAEA_J@Z 00000001800561b0 f i libucrtd:output.obj
 0001:000551f0       ??$extract_argument_from_va_list@C_J@?$standard_base@_WV?$string_output_adapter@_W@__crt_stdio_output@@@__crt_stdio_output@@IEAA_NAEA_J@Z 00000001800561f0 f i libucrtd:output.obj
 0001:00055230       ??$extract_argument_from_va_list@E_J@?$positional_parameter_base@DV?$stream_output_adapter@D@__crt_stdio_output@@@__crt_stdio_output@@IEAA_NAEA_J@Z 0000000180056230 f i libucrtd:output.obj
 0001:000553f0       ??$extract_argument_from_va_list@E_J@?$positional_parameter_base@DV?$string_output_adapter@D@__crt_stdio_output@@@__crt_stdio_output@@IEAA_NAEA_J@Z 00000001800563f0 f i libucrtd:output.obj
 0001:000555b0       ??$extract_argument_from_va_list@E_J@?$positional_parameter_base@_WV?$stream_output_adapter@_W@__crt_stdio_output@@@__crt_stdio_output@@IEAA_NAEA_J@Z 00000001800565b0 f i libucrtd:output.obj
 0001:00055770       ??$extract_argument_from_va_list@E_J@?$positional_parameter_base@_WV?$string_output_adapter@_W@__crt_stdio_output@@@__crt_stdio_output@@IEAA_NAEA_J@Z 0000000180056770 f i libucrtd:output.obj
 0001:00055930       ??$extract_argument_from_va_list@E_J@?$standard_base@DV?$stream_output_adapter@D@__crt_stdio_output@@@__crt_stdio_output@@IEAA_NAEA_J@Z 0000000180056930 f i libucrtd:output.obj
 0001:00055970       ??$extract_argument_from_va_list@E_J@?$standard_base@DV?$string_output_adapter@D@__crt_stdio_output@@@__crt_stdio_output@@IEAA_NAEA_J@Z 0000000180056970 f i libucrtd:output.obj
 0001:000559b0       ??$extract_argument_from_va_list@E_J@?$standard_base@_WV?$stream_output_adapter@_W@__crt_stdio_output@@@__crt_stdio_output@@IEAA_NAEA_J@Z 00000001800569b0 f i libucrtd:output.obj
 0001:000559f0       ??$extract_argument_from_va_list@E_J@?$standard_base@_WV?$string_output_adapter@_W@__crt_stdio_output@@@__crt_stdio_output@@IEAA_NAEA_J@Z 00000001800569f0 f i libucrtd:output.obj
 0001:00055a30       ??$extract_argument_from_va_list@F_J@?$positional_parameter_base@DV?$stream_output_adapter@D@__crt_stdio_output@@@__crt_stdio_output@@IEAA_NAEA_J@Z 0000000180056a30 f i libucrtd:output.obj
 0001:00055bf0       ??$extract_argument_from_va_list@F_J@?$positional_parameter_base@DV?$string_output_adapter@D@__crt_stdio_output@@@__crt_stdio_output@@IEAA_NAEA_J@Z 0000000180056bf0 f i libucrtd:output.obj
 0001:00055db0       ??$extract_argument_from_va_list@F_J@?$positional_parameter_base@_WV?$stream_output_adapter@_W@__crt_stdio_output@@@__crt_stdio_output@@IEAA_NAEA_J@Z 0000000180056db0 f i libucrtd:output.obj
 0001:00055f70       ??$extract_argument_from_va_list@F_J@?$positional_parameter_base@_WV?$string_output_adapter@_W@__crt_stdio_output@@@__crt_stdio_output@@IEAA_NAEA_J@Z 0000000180056f70 f i libucrtd:output.obj
 0001:00056130       ??$extract_argument_from_va_list@F_J@?$standard_base@DV?$stream_output_adapter@D@__crt_stdio_output@@@__crt_stdio_output@@IEAA_NAEA_J@Z 0000000180057130 f i libucrtd:output.obj
 0001:00056170       ??$extract_argument_from_va_list@F_J@?$standard_base@DV?$string_output_adapter@D@__crt_stdio_output@@@__crt_stdio_output@@IEAA_NAEA_J@Z 0000000180057170 f i libucrtd:output.obj
 0001:000561b0       ??$extract_argument_from_va_list@F_J@?$standard_base@_WV?$stream_output_adapter@_W@__crt_stdio_output@@@__crt_stdio_output@@IEAA_NAEA_J@Z 00000001800571b0 f i libucrtd:output.obj
 0001:000561f0       ??$extract_argument_from_va_list@F_J@?$standard_base@_WV?$string_output_adapter@_W@__crt_stdio_output@@@__crt_stdio_output@@IEAA_NAEA_J@Z 00000001800571f0 f i libucrtd:output.obj
 0001:00056230       ??$extract_argument_from_va_list@GD@?$positional_parameter_base@DV?$stream_output_adapter@D@__crt_stdio_output@@@__crt_stdio_output@@IEAA_NAEAD@Z 0000000180057230 f i libucrtd:output.obj
 0001:000563f0       ??$extract_argument_from_va_list@GD@?$positional_parameter_base@DV?$string_output_adapter@D@__crt_stdio_output@@@__crt_stdio_output@@IEAA_NAEAD@Z 00000001800573f0 f i libucrtd:output.obj
 0001:000565b0       ??$extract_argument_from_va_list@GD@?$standard_base@DV?$stream_output_adapter@D@__crt_stdio_output@@@__crt_stdio_output@@IEAA_NAEAD@Z 00000001800575b0 f i libucrtd:output.obj
 0001:000565e0       ??$extract_argument_from_va_list@GD@?$standard_base@DV?$string_output_adapter@D@__crt_stdio_output@@@__crt_stdio_output@@IEAA_NAEAD@Z 00000001800575e0 f i libucrtd:output.obj
 0001:00056610       ??$extract_argument_from_va_list@G_J@?$positional_parameter_base@DV?$stream_output_adapter@D@__crt_stdio_output@@@__crt_stdio_output@@IEAA_NAEA_J@Z 0000000180057610 f i libucrtd:output.obj
 0001:000567d0       ??$extract_argument_from_va_list@G_J@?$positional_parameter_base@DV?$string_output_adapter@D@__crt_stdio_output@@@__crt_stdio_output@@IEAA_NAEA_J@Z 00000001800577d0 f i libucrtd:output.obj
 0001:00056990       ??$extract_argument_from_va_list@G_J@?$positional_parameter_base@_WV?$stream_output_adapter@_W@__crt_stdio_output@@@__crt_stdio_output@@IEAA_NAEA_J@Z 0000000180057990 f i libucrtd:output.obj
 0001:00056b50       ??$extract_argument_from_va_list@G_J@?$positional_parameter_base@_WV?$string_output_adapter@_W@__crt_stdio_output@@@__crt_stdio_output@@IEAA_NAEA_J@Z 0000000180057b50 f i libucrtd:output.obj
 0001:00056d10       ??$extract_argument_from_va_list@G_J@?$standard_base@DV?$stream_output_adapter@D@__crt_stdio_output@@@__crt_stdio_output@@IEAA_NAEA_J@Z 0000000180057d10 f i libucrtd:output.obj
 0001:00056d50       ??$extract_argument_from_va_list@G_J@?$standard_base@DV?$string_output_adapter@D@__crt_stdio_output@@@__crt_stdio_output@@IEAA_NAEA_J@Z 0000000180057d50 f i libucrtd:output.obj
 0001:00056d90       ??$extract_argument_from_va_list@G_J@?$standard_base@_WV?$stream_output_adapter@_W@__crt_stdio_output@@@__crt_stdio_output@@IEAA_NAEA_J@Z 0000000180057d90 f i libucrtd:output.obj
 0001:00056dd0       ??$extract_argument_from_va_list@G_J@?$standard_base@_WV?$string_output_adapter@_W@__crt_stdio_output@@@__crt_stdio_output@@IEAA_NAEA_J@Z 0000000180057dd0 f i libucrtd:output.obj
 0001:00056e10       ??$extract_argument_from_va_list@H_J@?$positional_parameter_base@DV?$stream_output_adapter@D@__crt_stdio_output@@@__crt_stdio_output@@IEAA_NAEA_J@Z 0000000180057e10 f i libucrtd:output.obj
 0001:00056fd0       ??$extract_argument_from_va_list@H_J@?$positional_parameter_base@DV?$string_output_adapter@D@__crt_stdio_output@@@__crt_stdio_output@@IEAA_NAEA_J@Z 0000000180057fd0 f i libucrtd:output.obj
 0001:00057190       ??$extract_argument_from_va_list@H_J@?$positional_parameter_base@_WV?$stream_output_adapter@_W@__crt_stdio_output@@@__crt_stdio_output@@IEAA_NAEA_J@Z 0000000180058190 f i libucrtd:output.obj
 0001:00057350       ??$extract_argument_from_va_list@H_J@?$positional_parameter_base@_WV?$string_output_adapter@_W@__crt_stdio_output@@@__crt_stdio_output@@IEAA_NAEA_J@Z 0000000180058350 f i libucrtd:output.obj
 0001:00057510       ??$extract_argument_from_va_list@H_J@?$standard_base@DV?$stream_output_adapter@D@__crt_stdio_output@@@__crt_stdio_output@@IEAA_NAEA_J@Z 0000000180058510 f i libucrtd:output.obj
 0001:00057540       ??$extract_argument_from_va_list@H_J@?$standard_base@DV?$string_output_adapter@D@__crt_stdio_output@@@__crt_stdio_output@@IEAA_NAEA_J@Z 0000000180058540 f i libucrtd:output.obj
 0001:00057570       ??$extract_argument_from_va_list@H_J@?$standard_base@_WV?$stream_output_adapter@_W@__crt_stdio_output@@@__crt_stdio_output@@IEAA_NAEA_J@Z 0000000180058570 f i libucrtd:output.obj
 0001:000575a0       ??$extract_argument_from_va_list@H_J@?$standard_base@_WV?$string_output_adapter@_W@__crt_stdio_output@@@__crt_stdio_output@@IEAA_NAEA_J@Z 00000001800585a0 f i libucrtd:output.obj
 0001:000575d0       ??$extract_argument_from_va_list@I_J@?$positional_parameter_base@DV?$stream_output_adapter@D@__crt_stdio_output@@@__crt_stdio_output@@IEAA_NAEA_J@Z 00000001800585d0 f i libucrtd:output.obj
 0001:00057790       ??$extract_argument_from_va_list@I_J@?$positional_parameter_base@DV?$string_output_adapter@D@__crt_stdio_output@@@__crt_stdio_output@@IEAA_NAEA_J@Z 0000000180058790 f i libucrtd:output.obj
 0001:00057950       ??$extract_argument_from_va_list@I_J@?$positional_parameter_base@_WV?$stream_output_adapter@_W@__crt_stdio_output@@@__crt_stdio_output@@IEAA_NAEA_J@Z 0000000180058950 f i libucrtd:output.obj
 0001:00057b10       ??$extract_argument_from_va_list@I_J@?$positional_parameter_base@_WV?$string_output_adapter@_W@__crt_stdio_output@@@__crt_stdio_output@@IEAA_NAEA_J@Z 0000000180058b10 f i libucrtd:output.obj
 0001:00057cd0       ??$extract_argument_from_va_list@I_J@?$standard_base@DV?$stream_output_adapter@D@__crt_stdio_output@@@__crt_stdio_output@@IEAA_NAEA_J@Z 0000000180058cd0 f i libucrtd:output.obj
 0001:00057d00       ??$extract_argument_from_va_list@I_J@?$standard_base@DV?$string_output_adapter@D@__crt_stdio_output@@@__crt_stdio_output@@IEAA_NAEA_J@Z 0000000180058d00 f i libucrtd:output.obj
 0001:00057d30       ??$extract_argument_from_va_list@I_J@?$standard_base@_WV?$stream_output_adapter@_W@__crt_stdio_output@@@__crt_stdio_output@@IEAA_NAEA_J@Z 0000000180058d30 f i libucrtd:output.obj
 0001:00057d60       ??$extract_argument_from_va_list@I_J@?$standard_base@_WV?$string_output_adapter@_W@__crt_stdio_output@@@__crt_stdio_output@@IEAA_NAEA_J@Z 0000000180058d60 f i libucrtd:output.obj
 0001:00057d90       ??$extract_argument_from_va_list@PEADPEAD@?$positional_parameter_base@DV?$stream_output_adapter@D@__crt_stdio_output@@@__crt_stdio_output@@IEAA_NAEAPEAD@Z 0000000180058d90 f i libucrtd:output.obj
 0001:00057f50       ??$extract_argument_from_va_list@PEADPEAD@?$positional_parameter_base@DV?$string_output_adapter@D@__crt_stdio_output@@@__crt_stdio_output@@IEAA_NAEAPEAD@Z 0000000180058f50 f i libucrtd:output.obj
 0001:00058110       ??$extract_argument_from_va_list@PEADPEAD@?$positional_parameter_base@_WV?$stream_output_adapter@_W@__crt_stdio_output@@@__crt_stdio_output@@IEAA_NAEAPEAD@Z 0000000180059110 f i libucrtd:output.obj
 0001:000582d0       ??$extract_argument_from_va_list@PEADPEAD@?$positional_parameter_base@_WV?$string_output_adapter@_W@__crt_stdio_output@@@__crt_stdio_output@@IEAA_NAEAPEAD@Z 00000001800592d0 f i libucrtd:output.obj
 0001:00058490       ??$extract_argument_from_va_list@PEADPEAD@?$standard_base@DV?$stream_output_adapter@D@__crt_stdio_output@@@__crt_stdio_output@@IEAA_NAEAPEAD@Z 0000000180059490 f i libucrtd:output.obj
 0001:000584c0       ??$extract_argument_from_va_list@PEADPEAD@?$standard_base@DV?$string_output_adapter@D@__crt_stdio_output@@@__crt_stdio_output@@IEAA_NAEAPEAD@Z 00000001800594c0 f i libucrtd:output.obj
 0001:000584f0       ??$extract_argument_from_va_list@PEADPEAD@?$standard_base@_WV?$stream_output_adapter@_W@__crt_stdio_output@@@__crt_stdio_output@@IEAA_NAEAPEAD@Z 00000001800594f0 f i libucrtd:output.obj
 0001:00058520       ??$extract_argument_from_va_list@PEADPEAD@?$standard_base@_WV?$string_output_adapter@_W@__crt_stdio_output@@@__crt_stdio_output@@IEAA_NAEAPEAD@Z 0000000180059520 f i libucrtd:output.obj
 0001:00058550       ??$extract_argument_from_va_list@PEAUansi_string@?1??type_case_Z@?$output_processor@DV?$stream_output_adapter@D@__crt_stdio_output@@V?$format_validation_base@DV?$stream_output_adapter@D@__crt_stdio_output@@@2@@__crt_stdio_output@@AEAA_NXZ@PEAU1?1??234@AEAA_NXZ@@?$standard_base@DV?$stream_output_adapter@D@__crt_stdio_output@@@__crt_stdio_output@@IEAA_NAEAPEAUansi_string@?1??type_case_Z@?$output_processor@DV?$stream_output_adapter@D@__crt_stdio_output@@V?$format_validation_base@DV?$stream_output_adapter@D@__crt_stdio_output@@@2@@1@AEAA_NXZ@@Z 0000000180059550 f i libucrtd:output.obj
 0001:00058580       ??$extract_argument_from_va_list@PEAUansi_string@?1??type_case_Z@?$output_processor@DV?$stream_output_adapter@D@__crt_stdio_output@@V?$positional_parameter_base@DV?$stream_output_adapter@D@__crt_stdio_output@@@2@@__crt_stdio_output@@AEAA_NXZ@PEAU1?1??234@AEAA_NXZ@@?$positional_parameter_base@DV?$stream_output_adapter@D@__crt_stdio_output@@@__crt_stdio_output@@IEAA_NAEAPEAUansi_string@?1??type_case_Z@?$output_processor@DV?$stream_output_adapter@D@__crt_stdio_output@@V?$positional_parameter_base@DV?$stream_output_adapter@D@__crt_stdio_output@@@2@@1@AEAA_NXZ@@Z 0000000180059580 f i libucrtd:output.obj
 0001:00058740       ??$extract_argument_from_va_list@PEAUansi_string@?1??type_case_Z@?$output_processor@DV?$stream_output_adapter@D@__crt_stdio_output@@V?$positional_parameter_base@DV?$stream_output_adapter@D@__crt_stdio_output@@@2@@__crt_stdio_output@@AEAA_NXZ@PEAU1?1??234@AEAA_NXZ@@?$standard_base@DV?$stream_output_adapter@D@__crt_stdio_output@@@__crt_stdio_output@@IEAA_NAEAPEAUansi_string@?1??type_case_Z@?$output_processor@DV?$stream_output_adapter@D@__crt_stdio_output@@V?$positional_parameter_base@DV?$stream_output_adapter@D@__crt_stdio_output@@@2@@1@AEAA_NXZ@@Z 0000000180059740 f i libucrtd:output.obj
 0001:00058770       ??$extract_argument_from_va_list@PEAUansi_string@?1??type_case_Z@?$output_processor@DV?$stream_output_adapter@D@__crt_stdio_output@@V?$standard_base@DV?$stream_output_adapter@D@__crt_stdio_output@@@2@@__crt_stdio_output@@AEAA_NXZ@PEAU1?1??234@AEAA_NXZ@@?$standard_base@DV?$stream_output_adapter@D@__crt_stdio_output@@@__crt_stdio_output@@IEAA_NAEAPEAUansi_string@?1??type_case_Z@?$output_processor@DV?$stream_output_adapter@D@__crt_stdio_output@@V?$standard_base@DV?$stream_output_adapter@D@__crt_stdio_output@@@2@@1@AEAA_NXZ@@Z 0000000180059770 f i libucrtd:output.obj
 0001:000587a0       ??$extract_argument_from_va_list@PEAUansi_string@?1??type_case_Z@?$output_processor@DV?$string_output_adapter@D@__crt_stdio_output@@V?$format_validation_base@DV?$string_output_adapter@D@__crt_stdio_output@@@2@@__crt_stdio_output@@AEAA_NXZ@PEAU1?1??234@AEAA_NXZ@@?$standard_base@DV?$string_output_adapter@D@__crt_stdio_output@@@__crt_stdio_output@@IEAA_NAEAPEAUansi_string@?1??type_case_Z@?$output_processor@DV?$string_output_adapter@D@__crt_stdio_output@@V?$format_validation_base@DV?$string_output_adapter@D@__crt_stdio_output@@@2@@1@AEAA_NXZ@@Z 00000001800597a0 f i libucrtd:output.obj
 0001:000587d0       ??$extract_argument_from_va_list@PEAUansi_string@?1??type_case_Z@?$output_processor@DV?$string_output_adapter@D@__crt_stdio_output@@V?$positional_parameter_base@DV?$string_output_adapter@D@__crt_stdio_output@@@2@@__crt_stdio_output@@AEAA_NXZ@PEAU1?1??234@AEAA_NXZ@@?$positional_parameter_base@DV?$string_output_adapter@D@__crt_stdio_output@@@__crt_stdio_output@@IEAA_NAEAPEAUansi_string@?1??type_case_Z@?$output_processor@DV?$string_output_adapter@D@__crt_stdio_output@@V?$positional_parameter_base@DV?$string_output_adapter@D@__crt_stdio_output@@@2@@1@AEAA_NXZ@@Z 00000001800597d0 f i libucrtd:output.obj
 0001:00058990       ??$extract_argument_from_va_list@PEAUansi_string@?1??type_case_Z@?$output_processor@DV?$string_output_adapter@D@__crt_stdio_output@@V?$positional_parameter_base@DV?$string_output_adapter@D@__crt_stdio_output@@@2@@__crt_stdio_output@@AEAA_NXZ@PEAU1?1??234@AEAA_NXZ@@?$standard_base@DV?$string_output_adapter@D@__crt_stdio_output@@@__crt_stdio_output@@IEAA_NAEAPEAUansi_string@?1??type_case_Z@?$output_processor@DV?$string_output_adapter@D@__crt_stdio_output@@V?$positional_parameter_base@DV?$string_output_adapter@D@__crt_stdio_output@@@2@@1@AEAA_NXZ@@Z 0000000180059990 f i libucrtd:output.obj
 0001:000589c0       ??$extract_argument_from_va_list@PEAUansi_string@?1??type_case_Z@?$output_processor@DV?$string_output_adapter@D@__crt_stdio_output@@V?$standard_base@DV?$string_output_adapter@D@__crt_stdio_output@@@2@@__crt_stdio_output@@AEAA_NXZ@PEAU1?1??234@AEAA_NXZ@@?$standard_base@DV?$string_output_adapter@D@__crt_stdio_output@@@__crt_stdio_output@@IEAA_NAEAPEAUansi_string@?1??type_case_Z@?$output_processor@DV?$string_output_adapter@D@__crt_stdio_output@@V?$standard_base@DV?$string_output_adapter@D@__crt_stdio_output@@@2@@1@AEAA_NXZ@@Z 00000001800599c0 f i libucrtd:output.obj
 0001:000589f0       ??$extract_argument_from_va_list@PEAUansi_string@?1??type_case_Z@?$output_processor@_WV?$stream_output_adapter@_W@__crt_stdio_output@@V?$format_validation_base@_WV?$stream_output_adapter@_W@__crt_stdio_output@@@2@@__crt_stdio_output@@AEAA_NXZ@PEAU1?1??234@AEAA_NXZ@@?$standard_base@_WV?$stream_output_adapter@_W@__crt_stdio_output@@@__crt_stdio_output@@IEAA_NAEAPEAUansi_string@?1??type_case_Z@?$output_processor@_WV?$stream_output_adapter@_W@__crt_stdio_output@@V?$format_validation_base@_WV?$stream_output_adapter@_W@__crt_stdio_output@@@2@@1@AEAA_NXZ@@Z 00000001800599f0 f i libucrtd:output.obj
 0001:00058a20       ??$extract_argument_from_va_list@PEAUansi_string@?1??type_case_Z@?$output_processor@_WV?$stream_output_adapter@_W@__crt_stdio_output@@V?$positional_parameter_base@_WV?$stream_output_adapter@_W@__crt_stdio_output@@@2@@__crt_stdio_output@@AEAA_NXZ@PEAU1?1??234@AEAA_NXZ@@?$positional_parameter_base@_WV?$stream_output_adapter@_W@__crt_stdio_output@@@__crt_stdio_output@@IEAA_NAEAPEAUansi_string@?1??type_case_Z@?$output_processor@_WV?$stream_output_adapter@_W@__crt_stdio_output@@V?$positional_parameter_base@_WV?$stream_output_adapter@_W@__crt_stdio_output@@@2@@1@AEAA_NXZ@@Z 0000000180059a20 f i libucrtd:output.obj
 0001:00058be0       ??$extract_argument_from_va_list@PEAUansi_string@?1??type_case_Z@?$output_processor@_WV?$stream_output_adapter@_W@__crt_stdio_output@@V?$positional_parameter_base@_WV?$stream_output_adapter@_W@__crt_stdio_output@@@2@@__crt_stdio_output@@AEAA_NXZ@PEAU1?1??234@AEAA_NXZ@@?$standard_base@_WV?$stream_output_adapter@_W@__crt_stdio_output@@@__crt_stdio_output@@IEAA_NAEAPEAUansi_string@?1??type_case_Z@?$output_processor@_WV?$stream_output_adapter@_W@__crt_stdio_output@@V?$positional_parameter_base@_WV?$stream_output_adapter@_W@__crt_stdio_output@@@2@@1@AEAA_NXZ@@Z 0000000180059be0 f i libucrtd:output.obj
 0001:00058c10       ??$extract_argument_from_va_list@PEAUansi_string@?1??type_case_Z@?$output_processor@_WV?$stream_output_adapter@_W@__crt_stdio_output@@V?$standard_base@_WV?$stream_output_adapter@_W@__crt_stdio_output@@@2@@__crt_stdio_output@@AEAA_NXZ@PEAU1?1??234@AEAA_NXZ@@?$standard_base@_WV?$stream_output_adapter@_W@__crt_stdio_output@@@__crt_stdio_output@@IEAA_NAEAPEAUansi_string@?1??type_case_Z@?$output_processor@_WV?$stream_output_adapter@_W@__crt_stdio_output@@V?$standard_base@_WV?$stream_output_adapter@_W@__crt_stdio_output@@@2@@1@AEAA_NXZ@@Z 0000000180059c10 f i libucrtd:output.obj
 0001:00058c40       ??$extract_argument_from_va_list@PEAUansi_string@?1??type_case_Z@?$output_processor@_WV?$string_output_adapter@_W@__crt_stdio_output@@V?$format_validation_base@_WV?$string_output_adapter@_W@__crt_stdio_output@@@2@@__crt_stdio_output@@AEAA_NXZ@PEAU1?1??234@AEAA_NXZ@@?$standard_base@_WV?$string_output_adapter@_W@__crt_stdio_output@@@__crt_stdio_output@@IEAA_NAEAPEAUansi_string@?1??type_case_Z@?$output_processor@_WV?$string_output_adapter@_W@__crt_stdio_output@@V?$format_validation_base@_WV?$string_output_adapter@_W@__crt_stdio_output@@@2@@1@AEAA_NXZ@@Z 0000000180059c40 f i libucrtd:output.obj
 0001:00058c70       ??$extract_argument_from_va_list@PEAUansi_string@?1??type_case_Z@?$output_processor@_WV?$string_output_adapter@_W@__crt_stdio_output@@V?$positional_parameter_base@_WV?$string_output_adapter@_W@__crt_stdio_output@@@2@@__crt_stdio_output@@AEAA_NXZ@PEAU1?1??234@AEAA_NXZ@@?$positional_parameter_base@_WV?$string_output_adapter@_W@__crt_stdio_output@@@__crt_stdio_output@@IEAA_NAEAPEAUansi_string@?1??type_case_Z@?$output_processor@_WV?$string_output_adapter@_W@__crt_stdio_output@@V?$positional_parameter_base@_WV?$string_output_adapter@_W@__crt_stdio_output@@@2@@1@AEAA_NXZ@@Z 0000000180059c70 f i libucrtd:output.obj
 0001:00058e30       ??$extract_argument_from_va_list@PEAUansi_string@?1??type_case_Z@?$output_processor@_WV?$string_output_adapter@_W@__crt_stdio_output@@V?$positional_parameter_base@_WV?$string_output_adapter@_W@__crt_stdio_output@@@2@@__crt_stdio_output@@AEAA_NXZ@PEAU1?1??234@AEAA_NXZ@@?$standard_base@_WV?$string_output_adapter@_W@__crt_stdio_output@@@__crt_stdio_output@@IEAA_NAEAPEAUansi_string@?1??type_case_Z@?$output_processor@_WV?$string_output_adapter@_W@__crt_stdio_output@@V?$positional_parameter_base@_WV?$string_output_adapter@_W@__crt_stdio_output@@@2@@1@AEAA_NXZ@@Z 0000000180059e30 f i libucrtd:output.obj
 0001:00058e60       ??$extract_argument_from_va_list@PEAUansi_string@?1??type_case_Z@?$output_processor@_WV?$string_output_adapter@_W@__crt_stdio_output@@V?$standard_base@_WV?$string_output_adapter@_W@__crt_stdio_output@@@2@@__crt_stdio_output@@AEAA_NXZ@PEAU1?1??234@AEAA_NXZ@@?$standard_base@_WV?$string_output_adapter@_W@__crt_stdio_output@@@__crt_stdio_output@@IEAA_NAEAPEAUansi_string@?1??type_case_Z@?$output_processor@_WV?$string_output_adapter@_W@__crt_stdio_output@@V?$standard_base@_WV?$string_output_adapter@_W@__crt_stdio_output@@@2@@1@AEAA_NXZ@@Z 0000000180059e60 f i libucrtd:output.obj
 0001:00058e90       ??$extract_argument_from_va_list@PEAXPEAX@?$positional_parameter_base@DV?$stream_output_adapter@D@__crt_stdio_output@@@__crt_stdio_output@@IEAA_NAEAPEAX@Z 0000000180059e90 f i libucrtd:output.obj
 0001:00059050       ??$extract_argument_from_va_list@PEAXPEAX@?$positional_parameter_base@DV?$string_output_adapter@D@__crt_stdio_output@@@__crt_stdio_output@@IEAA_NAEAPEAX@Z 000000018005a050 f i libucrtd:output.obj
 0001:00059210       ??$extract_argument_from_va_list@PEAXPEAX@?$positional_parameter_base@_WV?$stream_output_adapter@_W@__crt_stdio_output@@@__crt_stdio_output@@IEAA_NAEAPEAX@Z 000000018005a210 f i libucrtd:output.obj
 0001:000593d0       ??$extract_argument_from_va_list@PEAXPEAX@?$positional_parameter_base@_WV?$string_output_adapter@_W@__crt_stdio_output@@@__crt_stdio_output@@IEAA_NAEAPEAX@Z 000000018005a3d0 f i libucrtd:output.obj
 0001:00059590       ??$extract_argument_from_va_list@PEAXPEAX@?$standard_base@DV?$stream_output_adapter@D@__crt_stdio_output@@@__crt_stdio_output@@IEAA_NAEAPEAX@Z 000000018005a590 f i libucrtd:output.obj
 0001:000595c0       ??$extract_argument_from_va_list@PEAXPEAX@?$standard_base@DV?$string_output_adapter@D@__crt_stdio_output@@@__crt_stdio_output@@IEAA_NAEAPEAX@Z 000000018005a5c0 f i libucrtd:output.obj
 0001:000595f0       ??$extract_argument_from_va_list@PEAXPEAX@?$standard_base@_WV?$stream_output_adapter@_W@__crt_stdio_output@@@__crt_stdio_output@@IEAA_NAEAPEAX@Z 000000018005a5f0 f i libucrtd:output.obj
 0001:00059620       ??$extract_argument_from_va_list@PEAXPEAX@?$standard_base@_WV?$string_output_adapter@_W@__crt_stdio_output@@@__crt_stdio_output@@IEAA_NAEAPEAX@Z 000000018005a620 f i libucrtd:output.obj
 0001:00059650       ??$extract_argument_from_va_list@U_CRT_DOUBLE@@U1@@?$positional_parameter_base@DV?$stream_output_adapter@D@__crt_stdio_output@@@__crt_stdio_output@@IEAA_NAEAU_CRT_DOUBLE@@@Z 000000018005a650 f i libucrtd:output.obj
 0001:00059870       ??$extract_argument_from_va_list@U_CRT_DOUBLE@@U1@@?$positional_parameter_base@DV?$string_output_adapter@D@__crt_stdio_output@@@__crt_stdio_output@@IEAA_NAEAU_CRT_DOUBLE@@@Z 000000018005a870 f i libucrtd:output.obj
 0001:00059a90       ??$extract_argument_from_va_list@U_CRT_DOUBLE@@U1@@?$positional_parameter_base@_WV?$stream_output_adapter@_W@__crt_stdio_output@@@__crt_stdio_output@@IEAA_NAEAU_CRT_DOUBLE@@@Z 000000018005aa90 f i libucrtd:output.obj
 0001:00059cb0       ??$extract_argument_from_va_list@U_CRT_DOUBLE@@U1@@?$positional_parameter_base@_WV?$string_output_adapter@_W@__crt_stdio_output@@@__crt_stdio_output@@IEAA_NAEAU_CRT_DOUBLE@@@Z 000000018005acb0 f i libucrtd:output.obj
 0001:00059ed0       ??$extract_argument_from_va_list@U_CRT_DOUBLE@@U1@@?$standard_base@DV?$stream_output_adapter@D@__crt_stdio_output@@@__crt_stdio_output@@IEAA_NAEAU_CRT_DOUBLE@@@Z 000000018005aed0 f i libucrtd:output.obj
 0001:00059f20       ??$extract_argument_from_va_list@U_CRT_DOUBLE@@U1@@?$standard_base@DV?$string_output_adapter@D@__crt_stdio_output@@@__crt_stdio_output@@IEAA_NAEAU_CRT_DOUBLE@@@Z 000000018005af20 f i libucrtd:output.obj
 0001:00059f70       ??$extract_argument_from_va_list@U_CRT_DOUBLE@@U1@@?$standard_base@_WV?$stream_output_adapter@_W@__crt_stdio_output@@@__crt_stdio_output@@IEAA_NAEAU_CRT_DOUBLE@@@Z 000000018005af70 f i libucrtd:output.obj
 0001:00059fc0       ??$extract_argument_from_va_list@U_CRT_DOUBLE@@U1@@?$standard_base@_WV?$string_output_adapter@_W@__crt_stdio_output@@@__crt_stdio_output@@IEAA_NAEAU_CRT_DOUBLE@@@Z 000000018005afc0 f i libucrtd:output.obj
 0001:0005a010       ??$extract_argument_from_va_list@_J_J@?$positional_parameter_base@DV?$stream_output_adapter@D@__crt_stdio_output@@@__crt_stdio_output@@IEAA_NAEA_J@Z 000000018005b010 f i libucrtd:output.obj
 0001:0005a1d0       ??$extract_argument_from_va_list@_J_J@?$positional_parameter_base@DV?$string_output_adapter@D@__crt_stdio_output@@@__crt_stdio_output@@IEAA_NAEA_J@Z 000000018005b1d0 f i libucrtd:output.obj
 0001:0005a390       ??$extract_argument_from_va_list@_J_J@?$positional_parameter_base@_WV?$stream_output_adapter@_W@__crt_stdio_output@@@__crt_stdio_output@@IEAA_NAEA_J@Z 000000018005b390 f i libucrtd:output.obj
 0001:0005a550       ??$extract_argument_from_va_list@_J_J@?$positional_parameter_base@_WV?$string_output_adapter@_W@__crt_stdio_output@@@__crt_stdio_output@@IEAA_NAEA_J@Z 000000018005b550 f i libucrtd:output.obj
 0001:0005a710       ??$extract_argument_from_va_list@_J_J@?$standard_base@DV?$stream_output_adapter@D@__crt_stdio_output@@@__crt_stdio_output@@IEAA_NAEA_J@Z 000000018005b710 f i libucrtd:output.obj
 0001:0005a740       ??$extract_argument_from_va_list@_J_J@?$standard_base@DV?$string_output_adapter@D@__crt_stdio_output@@@__crt_stdio_output@@IEAA_NAEA_J@Z 000000018005b740 f i libucrtd:output.obj
 0001:0005a770       ??$extract_argument_from_va_list@_J_J@?$standard_base@_WV?$stream_output_adapter@_W@__crt_stdio_output@@@__crt_stdio_output@@IEAA_NAEA_J@Z 000000018005b770 f i libucrtd:output.obj
 0001:0005a7a0       ??$extract_argument_from_va_list@_J_J@?$standard_base@_WV?$string_output_adapter@_W@__crt_stdio_output@@@__crt_stdio_output@@IEAA_NAEA_J@Z 000000018005b7a0 f i libucrtd:output.obj
 0001:0005a7d0       ??$extract_argument_from_va_list@_K_J@?$positional_parameter_base@DV?$stream_output_adapter@D@__crt_stdio_output@@@__crt_stdio_output@@IEAA_NAEA_J@Z 000000018005b7d0 f i libucrtd:output.obj
 0001:0005a990       ??$extract_argument_from_va_list@_K_J@?$positional_parameter_base@DV?$string_output_adapter@D@__crt_stdio_output@@@__crt_stdio_output@@IEAA_NAEA_J@Z 000000018005b990 f i libucrtd:output.obj
 0001:0005ab50       ??$extract_argument_from_va_list@_K_J@?$positional_parameter_base@_WV?$stream_output_adapter@_W@__crt_stdio_output@@@__crt_stdio_output@@IEAA_NAEA_J@Z 000000018005bb50 f i libucrtd:output.obj
 0001:0005ad10       ??$extract_argument_from_va_list@_K_J@?$positional_parameter_base@_WV?$string_output_adapter@_W@__crt_stdio_output@@@__crt_stdio_output@@IEAA_NAEA_J@Z 000000018005bd10 f i libucrtd:output.obj
 0001:0005aed0       ??$extract_argument_from_va_list@_K_J@?$standard_base@DV?$stream_output_adapter@D@__crt_stdio_output@@@__crt_stdio_output@@IEAA_NAEA_J@Z 000000018005bed0 f i libucrtd:output.obj
 0001:0005af00       ??$extract_argument_from_va_list@_K_J@?$standard_base@DV?$string_output_adapter@D@__crt_stdio_output@@@__crt_stdio_output@@IEAA_NAEA_J@Z 000000018005bf00 f i libucrtd:output.obj
 0001:0005af30       ??$extract_argument_from_va_list@_K_J@?$standard_base@_WV?$stream_output_adapter@_W@__crt_stdio_output@@@__crt_stdio_output@@IEAA_NAEA_J@Z 000000018005bf30 f i libucrtd:output.obj
 0001:0005af60       ??$extract_argument_from_va_list@_K_J@?$standard_base@_WV?$string_output_adapter@_W@__crt_stdio_output@@@__crt_stdio_output@@IEAA_NAEA_J@Z 000000018005bf60 f i libucrtd:output.obj
 0001:0005af90       ??$extract_argument_from_va_list@_W_W@?$positional_parameter_base@DV?$stream_output_adapter@D@__crt_stdio_output@@@__crt_stdio_output@@IEAA_NAEA_W@Z 000000018005bf90 f i libucrtd:output.obj
 0001:0005b150       ??$extract_argument_from_va_list@_W_W@?$positional_parameter_base@DV?$string_output_adapter@D@__crt_stdio_output@@@__crt_stdio_output@@IEAA_NAEA_W@Z 000000018005c150 f i libucrtd:output.obj
 0001:0005b310       ??$extract_argument_from_va_list@_W_W@?$positional_parameter_base@_WV?$stream_output_adapter@_W@__crt_stdio_output@@@__crt_stdio_output@@IEAA_NAEA_W@Z 000000018005c310 f i libucrtd:output.obj
 0001:0005b4d0       ??$extract_argument_from_va_list@_W_W@?$positional_parameter_base@_WV?$string_output_adapter@_W@__crt_stdio_output@@@__crt_stdio_output@@IEAA_NAEA_W@Z 000000018005c4d0 f i libucrtd:output.obj
 0001:0005b690       ??$extract_argument_from_va_list@_W_W@?$standard_base@DV?$stream_output_adapter@D@__crt_stdio_output@@@__crt_stdio_output@@IEAA_NAEA_W@Z 000000018005c690 f i libucrtd:output.obj
 0001:0005b6c0       ??$extract_argument_from_va_list@_W_W@?$standard_base@DV?$string_output_adapter@D@__crt_stdio_output@@@__crt_stdio_output@@IEAA_NAEA_W@Z 000000018005c6c0 f i libucrtd:output.obj
 0001:0005b6f0       ??$extract_argument_from_va_list@_W_W@?$standard_base@_WV?$stream_output_adapter@_W@__crt_stdio_output@@@__crt_stdio_output@@IEAA_NAEA_W@Z 000000018005c6f0 f i libucrtd:output.obj
 0001:0005b720       ??$extract_argument_from_va_list@_W_W@?$standard_base@_WV?$string_output_adapter@_W@__crt_stdio_output@@@__crt_stdio_output@@IEAA_NAEA_W@Z 000000018005c720 f i libucrtd:output.obj
 0001:0005b750       ??$get_parameter_type@D@?$positional_parameter_base@DV?$stream_output_adapter@D@__crt_stdio_output@@@__crt_stdio_output@@CA?AW4parameter_type@01@PEAD@Z 000000018005c750 f i libucrtd:output.obj
 0001:0005b760       ??$get_parameter_type@D@?$positional_parameter_base@DV?$string_output_adapter@D@__crt_stdio_output@@@__crt_stdio_output@@CA?AW4parameter_type@01@PEAD@Z 000000018005c760 f i libucrtd:output.obj
 0001:0005b770       ??$get_parameter_type@D@?$positional_parameter_base@_WV?$stream_output_adapter@_W@__crt_stdio_output@@@__crt_stdio_output@@CA?AW4parameter_type@01@PEAD@Z 000000018005c770 f i libucrtd:output.obj
 0001:0005b780       ??$get_parameter_type@D@?$positional_parameter_base@_WV?$string_output_adapter@_W@__crt_stdio_output@@@__crt_stdio_output@@CA?AW4parameter_type@01@PEAD@Z 000000018005c780 f i libucrtd:output.obj
 0001:0005b790       ??$get_parameter_type@Uansi_string@?1??type_case_Z@?$output_processor@DV?$stream_output_adapter@D@__crt_stdio_output@@V?$positional_parameter_base@DV?$stream_output_adapter@D@__crt_stdio_output@@@2@@__crt_stdio_output@@AEAA_NXZ@@?$positional_parameter_base@DV?$stream_output_adapter@D@__crt_stdio_output@@@__crt_stdio_output@@CA?AW4parameter_type@01@PEAUansi_string@?1??type_case_Z@?$output_processor@DV?$stream_output_adapter@D@__crt_stdio_output@@V?$positional_parameter_base@DV?$stream_output_adapter@D@__crt_stdio_output@@@2@@1@AEAA_NXZ@@Z 000000018005c790 f i libucrtd:output.obj
 0001:0005b7a0       ??$get_parameter_type@Uansi_string@?1??type_case_Z@?$output_processor@DV?$string_output_adapter@D@__crt_stdio_output@@V?$positional_parameter_base@DV?$string_output_adapter@D@__crt_stdio_output@@@2@@__crt_stdio_output@@AEAA_NXZ@@?$positional_parameter_base@DV?$string_output_adapter@D@__crt_stdio_output@@@__crt_stdio_output@@CA?AW4parameter_type@01@PEAUansi_string@?1??type_case_Z@?$output_processor@DV?$string_output_adapter@D@__crt_stdio_output@@V?$positional_parameter_base@DV?$string_output_adapter@D@__crt_stdio_output@@@2@@1@AEAA_NXZ@@Z 000000018005c7a0 f i libucrtd:output.obj
 0001:0005b7b0       ??$get_parameter_type@Uansi_string@?1??type_case_Z@?$output_processor@_WV?$stream_output_adapter@_W@__crt_stdio_output@@V?$positional_parameter_base@_WV?$stream_output_adapter@_W@__crt_stdio_output@@@2@@__crt_stdio_output@@AEAA_NXZ@@?$positional_parameter_base@_WV?$stream_output_adapter@_W@__crt_stdio_output@@@__crt_stdio_output@@CA?AW4parameter_type@01@PEAUansi_string@?1??type_case_Z@?$output_processor@_WV?$stream_output_adapter@_W@__crt_stdio_output@@V?$positional_parameter_base@_WV?$stream_output_adapter@_W@__crt_stdio_output@@@2@@1@AEAA_NXZ@@Z 000000018005c7b0 f i libucrtd:output.obj
 0001:0005b7c0       ??$get_parameter_type@Uansi_string@?1??type_case_Z@?$output_processor@_WV?$string_output_adapter@_W@__crt_stdio_output@@V?$positional_parameter_base@_WV?$string_output_adapter@_W@__crt_stdio_output@@@2@@__crt_stdio_output@@AEAA_NXZ@@?$positional_parameter_base@_WV?$string_output_adapter@_W@__crt_stdio_output@@@__crt_stdio_output@@CA?AW4parameter_type@01@PEAUansi_string@?1??type_case_Z@?$output_processor@_WV?$string_output_adapter@_W@__crt_stdio_output@@V?$positional_parameter_base@_WV?$string_output_adapter@_W@__crt_stdio_output@@@2@@1@AEAA_NXZ@@Z 000000018005c7c0 f i libucrtd:output.obj
 0001:0005b7d0       ??$get_parameter_type@X@?$positional_parameter_base@DV?$stream_output_adapter@D@__crt_stdio_output@@@__crt_stdio_output@@CA?AW4parameter_type@01@PEAX@Z 000000018005c7d0 f i libucrtd:output.obj
 0001:0005b7e0       ??$get_parameter_type@X@?$positional_parameter_base@DV?$string_output_adapter@D@__crt_stdio_output@@@__crt_stdio_output@@CA?AW4parameter_type@01@PEAX@Z 000000018005c7e0 f i libucrtd:output.obj
 0001:0005b7f0       ??$get_parameter_type@X@?$positional_parameter_base@_WV?$stream_output_adapter@_W@__crt_stdio_output@@@__crt_stdio_output@@CA?AW4parameter_type@01@PEAX@Z 000000018005c7f0 f i libucrtd:output.obj
 0001:0005b800       ??$get_parameter_type@X@?$positional_parameter_base@_WV?$string_output_adapter@_W@__crt_stdio_output@@@__crt_stdio_output@@CA?AW4parameter_type@01@PEAX@Z 000000018005c800 f i libucrtd:output.obj
 0001:0005b810       ??$is_character_specifier@D@?$positional_parameter_base@DV?$stream_output_adapter@D@__crt_stdio_output@@@__crt_stdio_output@@CA_ND@Z 000000018005c810 f i libucrtd:output.obj
 0001:0005b850       ??$is_character_specifier@D@?$positional_parameter_base@DV?$string_output_adapter@D@__crt_stdio_output@@@__crt_stdio_output@@CA_ND@Z 000000018005c850 f i libucrtd:output.obj
 0001:0005b890       ??$is_character_specifier@_W@?$positional_parameter_base@_WV?$stream_output_adapter@_W@__crt_stdio_output@@@__crt_stdio_output@@CA_N_W@Z 000000018005c890 f i libucrtd:output.obj
 0001:0005b8d0       ??$is_character_specifier@_W@?$positional_parameter_base@_WV?$string_output_adapter@_W@__crt_stdio_output@@@__crt_stdio_output@@CA_N_W@Z 000000018005c8d0 f i libucrtd:output.obj
 0001:0005b910       ??$is_integral_specifier@D@?$positional_parameter_base@DV?$stream_output_adapter@D@__crt_stdio_output@@@__crt_stdio_output@@CA_ND@Z 000000018005c910 f i libucrtd:output.obj
 0001:0005b980       ??$is_integral_specifier@D@?$positional_parameter_base@DV?$string_output_adapter@D@__crt_stdio_output@@@__crt_stdio_output@@CA_ND@Z 000000018005c980 f i libucrtd:output.obj
 0001:0005b9f0       ??$is_integral_specifier@_W@?$positional_parameter_base@_WV?$stream_output_adapter@_W@__crt_stdio_output@@@__crt_stdio_output@@CA_N_W@Z 000000018005c9f0 f i libucrtd:output.obj
 0001:0005ba60       ??$is_integral_specifier@_W@?$positional_parameter_base@_WV?$string_output_adapter@_W@__crt_stdio_output@@@__crt_stdio_output@@CA_N_W@Z 000000018005ca60 f i libucrtd:output.obj
 0001:0005bad0       ??$is_overflow_condition@K@__crt_strtox@@YA_NIK@Z 000000018005cad0 f i libucrtd:output.obj
 0001:0005bb40       ??$is_pointer_specifier@D@?$positional_parameter_base@DV?$stream_output_adapter@D@__crt_stdio_output@@@__crt_stdio_output@@CA_ND@Z 000000018005cb40 f i libucrtd:output.obj
 0001:0005bb70       ??$is_pointer_specifier@D@?$positional_parameter_base@DV?$string_output_adapter@D@__crt_stdio_output@@@__crt_stdio_output@@CA_ND@Z 000000018005cb70 f i libucrtd:output.obj
 0001:0005bba0       ??$is_pointer_specifier@_W@?$positional_parameter_base@_WV?$stream_output_adapter@_W@__crt_stdio_output@@@__crt_stdio_output@@CA_N_W@Z 000000018005cba0 f i libucrtd:output.obj
 0001:0005bbd0       ??$is_pointer_specifier@_W@?$positional_parameter_base@_WV?$string_output_adapter@_W@__crt_stdio_output@@@__crt_stdio_output@@CA_N_W@Z 000000018005cbd0 f i libucrtd:output.obj
 0001:0005bc00       ??$is_string_specifier@D@?$positional_parameter_base@DV?$stream_output_adapter@D@__crt_stdio_output@@@__crt_stdio_output@@CA_ND@Z 000000018005cc00 f i libucrtd:output.obj
 0001:0005bc40       ??$is_string_specifier@D@?$positional_parameter_base@DV?$string_output_adapter@D@__crt_stdio_output@@@__crt_stdio_output@@CA_ND@Z 000000018005cc40 f i libucrtd:output.obj
 0001:0005bc80       ??$is_string_specifier@_W@?$positional_parameter_base@_WV?$stream_output_adapter@_W@__crt_stdio_output@@@__crt_stdio_output@@CA_N_W@Z 000000018005cc80 f i libucrtd:output.obj
 0001:0005bcc0       ??$is_string_specifier@_W@?$positional_parameter_base@_WV?$string_output_adapter@_W@__crt_stdio_output@@@__crt_stdio_output@@CA_N_W@Z 000000018005ccc0 f i libucrtd:output.obj
 0001:0005bd00       ??$is_wide_character_specifier@D@__crt_stdio_output@@YA_N_KDW4length_modifier@0@@Z 000000018005cd00 f i libucrtd:output.obj
 0001:0005bda0       ??$is_wide_character_specifier@_W@__crt_stdio_output@@YA_N_K_WW4length_modifier@0@@Z 000000018005cda0 f i libucrtd:output.obj
 0001:0005be70       ??$make_c_string_character_source@DPEAPEAD@__crt_strtox@@YA?AV?$c_string_character_source@D@0@QEBDQEAPEAD@Z 000000018005ce70 f i libucrtd:output.obj
 0001:0005beb0       ??$make_c_string_character_source@_WPEAPEA_W@__crt_strtox@@YA?AV?$c_string_character_source@_W@0@QEB_WQEAPEA_W@Z 000000018005ceb0 f i libucrtd:output.obj
 0001:0005bef0       ??$parse_integer@KV?$c_string_character_source@D@__crt_strtox@@$0A@@__crt_strtox@@YAKAEAV__crt_cached_ptd_host@@V?$c_string_character_source@D@0@H_N@Z 000000018005cef0 f i libucrtd:output.obj
 0001:0005c370       ??$parse_integer@KV?$c_string_character_source@_W@__crt_strtox@@$0A@@__crt_strtox@@YAKAEAV__crt_cached_ptd_host@@V?$c_string_character_source@_W@0@H_N@Z 000000018005d370 f i libucrtd:output.obj
 0001:0005c7f0       ??$peek_va_arg@C@__crt_stdio_output@@YACPEAD@Z 000000018005d7f0 f i libucrtd:output.obj
 0001:0005c850       ??$peek_va_arg@E@__crt_stdio_output@@YAEPEAD@Z 000000018005d850 f i libucrtd:output.obj
 0001:0005c8b0       ??$peek_va_arg@F@__crt_stdio_output@@YAFPEAD@Z 000000018005d8b0 f i libucrtd:output.obj
 0001:0005c910       ??$peek_va_arg@G@__crt_stdio_output@@YAGPEAD@Z 000000018005d910 f i libucrtd:output.obj
 0001:0005c970       ??$peek_va_arg@H@__crt_stdio_output@@YAHPEAD@Z 000000018005d970 f i libucrtd:output.obj
 0001:0005c9c0       ??$peek_va_arg@I@__crt_stdio_output@@YAIPEAD@Z 000000018005d9c0 f i libucrtd:output.obj
 0001:0005ca10       ??$peek_va_arg@PEAD@__crt_stdio_output@@YAPEADPEAD@Z 000000018005da10 f i libucrtd:output.obj
 0001:0005ca70       ??$peek_va_arg@PEAUansi_string@?1??type_case_Z@?$output_processor@DV?$stream_output_adapter@D@__crt_stdio_output@@V?$positional_parameter_base@DV?$stream_output_adapter@D@__crt_stdio_output@@@2@@__crt_stdio_output@@AEAA_NXZ@@__crt_stdio_output@@YAPEAUansi_string@?1??type_case_Z@?$output_processor@DV?$stream_output_adapter@D@__crt_stdio_output@@V?$positional_parameter_base@DV?$stream_output_adapter@D@__crt_stdio_output@@@2@@0@AEAA_NXZ@PEAD@Z 000000018005da70 f i libucrtd:output.obj
 0001:0005cad0       ??$peek_va_arg@PEAUansi_string@?1??type_case_Z@?$output_processor@DV?$string_output_adapter@D@__crt_stdio_output@@V?$positional_parameter_base@DV?$string_output_adapter@D@__crt_stdio_output@@@2@@__crt_stdio_output@@AEAA_NXZ@@__crt_stdio_output@@YAPEAUansi_string@?1??type_case_Z@?$output_processor@DV?$string_output_adapter@D@__crt_stdio_output@@V?$positional_parameter_base@DV?$string_output_adapter@D@__crt_stdio_output@@@2@@0@AEAA_NXZ@PEAD@Z 000000018005dad0 f i libucrtd:output.obj
 0001:0005cb30       ??$peek_va_arg@PEAUansi_string@?1??type_case_Z@?$output_processor@_WV?$stream_output_adapter@_W@__crt_stdio_output@@V?$positional_parameter_base@_WV?$stream_output_adapter@_W@__crt_stdio_output@@@2@@__crt_stdio_output@@AEAA_NXZ@@__crt_stdio_output@@YAPEAUansi_string@?1??type_case_Z@?$output_processor@_WV?$stream_output_adapter@_W@__crt_stdio_output@@V?$positional_parameter_base@_WV?$stream_output_adapter@_W@__crt_stdio_output@@@2@@0@AEAA_NXZ@PEAD@Z 000000018005db30 f i libucrtd:output.obj
 0001:0005cb90       ??$peek_va_arg@PEAUansi_string@?1??type_case_Z@?$output_processor@_WV?$string_output_adapter@_W@__crt_stdio_output@@V?$positional_parameter_base@_WV?$string_output_adapter@_W@__crt_stdio_output@@@2@@__crt_stdio_output@@AEAA_NXZ@@__crt_stdio_output@@YAPEAUansi_string@?1??type_case_Z@?$output_processor@_WV?$string_output_adapter@_W@__crt_stdio_output@@V?$positional_parameter_base@_WV?$string_output_adapter@_W@__crt_stdio_output@@@2@@0@AEAA_NXZ@PEAD@Z 000000018005db90 f i libucrtd:output.obj
 0001:0005cbf0       ??$peek_va_arg@PEAX@__crt_stdio_output@@YAPEAXPEAD@Z 000000018005dbf0 f i libucrtd:output.obj
 0001:0005cc50       ??$peek_va_arg@U_CRT_DOUBLE@@@__crt_stdio_output@@YA?AU_CRT_DOUBLE@@PEAD@Z 000000018005dc50 f i libucrtd:output.obj
 0001:0005ccb0       ??$peek_va_arg@_J@__crt_stdio_output@@YA_JPEAD@Z 000000018005dcb0 f i libucrtd:output.obj
 0001:0005cd10       ??$peek_va_arg@_K@__crt_stdio_output@@YA_KPEAD@Z 000000018005dd10 f i libucrtd:output.obj
 0001:0005cd70       ??$peek_va_arg@_W@__crt_stdio_output@@YA_WPEAD@Z 000000018005dd70 f i libucrtd:output.obj
 0001:0005cdd0       ??$puttc_nolock_internal@AEBDPEAU_iobuf@@AEAV__crt_cached_ptd_host@@@?$__crt_char_traits@D@@SAHAEBD$$QEAPEAU_iobuf@@AEAV__crt_cached_ptd_host@@@Z 000000018005ddd0 f i libucrtd:output.obj
 0001:0005ce10       ??$puttc_nolock_internal@AEB_WPEAU_iobuf@@AEAV__crt_cached_ptd_host@@@?$__crt_char_traits@_W@@SAGAEB_W$$QEAPEAU_iobuf@@AEAV__crt_cached_ptd_host@@@Z 000000018005de10 f i libucrtd:output.obj
 0001:0005ce50       ??$read_va_arg@C@__crt_stdio_output@@YACAEAPEAD@Z 000000018005de50 f i libucrtd:output.obj
 0001:0005cec0       ??$read_va_arg@E@__crt_stdio_output@@YAEAEAPEAD@Z 000000018005dec0 f i libucrtd:output.obj
 0001:0005cf30       ??$read_va_arg@F@__crt_stdio_output@@YAFAEAPEAD@Z 000000018005df30 f i libucrtd:output.obj
 0001:0005cfa0       ??$read_va_arg@G@__crt_stdio_output@@YAGAEAPEAD@Z 000000018005dfa0 f i libucrtd:output.obj
 0001:0005d010       ??$read_va_arg@H@__crt_stdio_output@@YAHAEAPEAD@Z 000000018005e010 f i libucrtd:output.obj
 0001:0005d070       ??$read_va_arg@I@__crt_stdio_output@@YAIAEAPEAD@Z 000000018005e070 f i libucrtd:output.obj
 0001:0005d0d0       ??$read_va_arg@PEAD@__crt_stdio_output@@YAPEADAEAPEAD@Z 000000018005e0d0 f i libucrtd:output.obj
 0001:0005d140       ??$read_va_arg@PEAUansi_string@?1??type_case_Z@?$output_processor@DV?$stream_output_adapter@D@__crt_stdio_output@@V?$format_validation_base@DV?$stream_output_adapter@D@__crt_stdio_output@@@2@@__crt_stdio_output@@AEAA_NXZ@@__crt_stdio_output@@YAPEAUansi_string@?1??type_case_Z@?$output_processor@DV?$stream_output_adapter@D@__crt_stdio_output@@V?$format_validation_base@DV?$stream_output_adapter@D@__crt_stdio_output@@@2@@0@AEAA_NXZ@AEAPEAD@Z 000000018005e140 f i libucrtd:output.obj
 0001:0005d1b0       ??$read_va_arg@PEAUansi_string@?1??type_case_Z@?$output_processor@DV?$stream_output_adapter@D@__crt_stdio_output@@V?$positional_parameter_base@DV?$stream_output_adapter@D@__crt_stdio_output@@@2@@__crt_stdio_output@@AEAA_NXZ@@__crt_stdio_output@@YAPEAUansi_string@?1??type_case_Z@?$output_processor@DV?$stream_output_adapter@D@__crt_stdio_output@@V?$positional_parameter_base@DV?$stream_output_adapter@D@__crt_stdio_output@@@2@@0@AEAA_NXZ@AEAPEAD@Z 000000018005e1b0 f i libucrtd:output.obj
 0001:0005d220       ??$read_va_arg@PEAUansi_string@?1??type_case_Z@?$output_processor@DV?$stream_output_adapter@D@__crt_stdio_output@@V?$standard_base@DV?$stream_output_adapter@D@__crt_stdio_output@@@2@@__crt_stdio_output@@AEAA_NXZ@@__crt_stdio_output@@YAPEAUansi_string@?1??type_case_Z@?$output_processor@DV?$stream_output_adapter@D@__crt_stdio_output@@V?$standard_base@DV?$stream_output_adapter@D@__crt_stdio_output@@@2@@0@AEAA_NXZ@AEAPEAD@Z 000000018005e220 f i libucrtd:output.obj
 0001:0005d290       ??$read_va_arg@PEAUansi_string@?1??type_case_Z@?$output_processor@DV?$string_output_adapter@D@__crt_stdio_output@@V?$format_validation_base@DV?$string_output_adapter@D@__crt_stdio_output@@@2@@__crt_stdio_output@@AEAA_NXZ@@__crt_stdio_output@@YAPEAUansi_string@?1??type_case_Z@?$output_processor@DV?$string_output_adapter@D@__crt_stdio_output@@V?$format_validation_base@DV?$string_output_adapter@D@__crt_stdio_output@@@2@@0@AEAA_NXZ@AEAPEAD@Z 000000018005e290 f i libucrtd:output.obj
 0001:0005d300       ??$read_va_arg@PEAUansi_string@?1??type_case_Z@?$output_processor@DV?$string_output_adapter@D@__crt_stdio_output@@V?$positional_parameter_base@DV?$string_output_adapter@D@__crt_stdio_output@@@2@@__crt_stdio_output@@AEAA_NXZ@@__crt_stdio_output@@YAPEAUansi_string@?1??type_case_Z@?$output_processor@DV?$string_output_adapter@D@__crt_stdio_output@@V?$positional_parameter_base@DV?$string_output_adapter@D@__crt_stdio_output@@@2@@0@AEAA_NXZ@AEAPEAD@Z 000000018005e300 f i libucrtd:output.obj
 0001:0005d370       ??$read_va_arg@PEAUansi_string@?1??type_case_Z@?$output_processor@DV?$string_output_adapter@D@__crt_stdio_output@@V?$standard_base@DV?$string_output_adapter@D@__crt_stdio_output@@@2@@__crt_stdio_output@@AEAA_NXZ@@__crt_stdio_output@@YAPEAUansi_string@?1??type_case_Z@?$output_processor@DV?$string_output_adapter@D@__crt_stdio_output@@V?$standard_base@DV?$string_output_adapter@D@__crt_stdio_output@@@2@@0@AEAA_NXZ@AEAPEAD@Z 000000018005e370 f i libucrtd:output.obj
 0001:0005d3e0       ??$read_va_arg@PEAUansi_string@?1??type_case_Z@?$output_processor@_WV?$stream_output_adapter@_W@__crt_stdio_output@@V?$format_validation_base@_WV?$stream_output_adapter@_W@__crt_stdio_output@@@2@@__crt_stdio_output@@AEAA_NXZ@@__crt_stdio_output@@YAPEAUansi_string@?1??type_case_Z@?$output_processor@_WV?$stream_output_adapter@_W@__crt_stdio_output@@V?$format_validation_base@_WV?$stream_output_adapter@_W@__crt_stdio_output@@@2@@0@AEAA_NXZ@AEAPEAD@Z 000000018005e3e0 f i libucrtd:output.obj
 0001:0005d450       ??$read_va_arg@PEAUansi_string@?1??type_case_Z@?$output_processor@_WV?$stream_output_adapter@_W@__crt_stdio_output@@V?$positional_parameter_base@_WV?$stream_output_adapter@_W@__crt_stdio_output@@@2@@__crt_stdio_output@@AEAA_NXZ@@__crt_stdio_output@@YAPEAUansi_string@?1??type_case_Z@?$output_processor@_WV?$stream_output_adapter@_W@__crt_stdio_output@@V?$positional_parameter_base@_WV?$stream_output_adapter@_W@__crt_stdio_output@@@2@@0@AEAA_NXZ@AEAPEAD@Z 000000018005e450 f i libucrtd:output.obj
 0001:0005d4c0       ??$read_va_arg@PEAUansi_string@?1??type_case_Z@?$output_processor@_WV?$stream_output_adapter@_W@__crt_stdio_output@@V?$standard_base@_WV?$stream_output_adapter@_W@__crt_stdio_output@@@2@@__crt_stdio_output@@AEAA_NXZ@@__crt_stdio_output@@YAPEAUansi_string@?1??type_case_Z@?$output_processor@_WV?$stream_output_adapter@_W@__crt_stdio_output@@V?$standard_base@_WV?$stream_output_adapter@_W@__crt_stdio_output@@@2@@0@AEAA_NXZ@AEAPEAD@Z 000000018005e4c0 f i libucrtd:output.obj
 0001:0005d530       ??$read_va_arg@PEAUansi_string@?1??type_case_Z@?$output_processor@_WV?$string_output_adapter@_W@__crt_stdio_output@@V?$format_validation_base@_WV?$string_output_adapter@_W@__crt_stdio_output@@@2@@__crt_stdio_output@@AEAA_NXZ@@__crt_stdio_output@@YAPEAUansi_string@?1??type_case_Z@?$output_processor@_WV?$string_output_adapter@_W@__crt_stdio_output@@V?$format_validation_base@_WV?$string_output_adapter@_W@__crt_stdio_output@@@2@@0@AEAA_NXZ@AEAPEAD@Z 000000018005e530 f i libucrtd:output.obj
 0001:0005d5a0       ??$read_va_arg@PEAUansi_string@?1??type_case_Z@?$output_processor@_WV?$string_output_adapter@_W@__crt_stdio_output@@V?$positional_parameter_base@_WV?$string_output_adapter@_W@__crt_stdio_output@@@2@@__crt_stdio_output@@AEAA_NXZ@@__crt_stdio_output@@YAPEAUansi_string@?1??type_case_Z@?$output_processor@_WV?$string_output_adapter@_W@__crt_stdio_output@@V?$positional_parameter_base@_WV?$string_output_adapter@_W@__crt_stdio_output@@@2@@0@AEAA_NXZ@AEAPEAD@Z 000000018005e5a0 f i libucrtd:output.obj
 0001:0005d610       ??$read_va_arg@PEAUansi_string@?1??type_case_Z@?$output_processor@_WV?$string_output_adapter@_W@__crt_stdio_output@@V?$standard_base@_WV?$string_output_adapter@_W@__crt_stdio_output@@@2@@__crt_stdio_output@@AEAA_NXZ@@__crt_stdio_output@@YAPEAUansi_string@?1??type_case_Z@?$output_processor@_WV?$string_output_adapter@_W@__crt_stdio_output@@V?$standard_base@_WV?$string_output_adapter@_W@__crt_stdio_output@@@2@@0@AEAA_NXZ@AEAPEAD@Z 000000018005e610 f i libucrtd:output.obj
 0001:0005d680       ??$read_va_arg@PEAX@__crt_stdio_output@@YAPEAXAEAPEAD@Z 000000018005e680 f i libucrtd:output.obj
 0001:0005d6f0       ??$read_va_arg@U_CRT_DOUBLE@@@__crt_stdio_output@@YA?AU_CRT_DOUBLE@@AEAPEAD@Z 000000018005e6f0 f i libucrtd:output.obj
 0001:0005d760       ??$read_va_arg@_J@__crt_stdio_output@@YA_JAEAPEAD@Z 000000018005e760 f i libucrtd:output.obj
 0001:0005d7d0       ??$read_va_arg@_K@__crt_stdio_output@@YA_KAEAPEAD@Z 000000018005e7d0 f i libucrtd:output.obj
 0001:0005d840       ??$read_va_arg@_W@__crt_stdio_output@@YA_WAEAPEAD@Z 000000018005e840 f i libucrtd:output.obj
 0001:0005d8b0       ??$scratch_count@D@formatting_buffer@__crt_stdio_output@@QEBA_KXZ 000000018005e8b0 f i libucrtd:output.obj
 0001:0005d8d0       ??$scratch_data@D@formatting_buffer@__crt_stdio_output@@QEAAPEADXZ 000000018005e8d0 f i libucrtd:output.obj
 0001:0005d940       ??$type_case_integer@$07@?$output_processor@DV?$stream_output_adapter@D@__crt_stdio_output@@V?$format_validation_base@DV?$stream_output_adapter@D@__crt_stdio_output@@@2@@__crt_stdio_output@@AEAA_N_N@Z 000000018005e940 f i libucrtd:output.obj
 0001:0005ddc0       ??$type_case_integer@$07@?$output_processor@DV?$stream_output_adapter@D@__crt_stdio_output@@V?$positional_parameter_base@DV?$stream_output_adapter@D@__crt_stdio_output@@@2@@__crt_stdio_output@@AEAA_N_N@Z 000000018005edc0 f i libucrtd:output.obj
 0001:0005e240       ??$type_case_integer@$07@?$output_processor@DV?$stream_output_adapter@D@__crt_stdio_output@@V?$standard_base@DV?$stream_output_adapter@D@__crt_stdio_output@@@2@@__crt_stdio_output@@AEAA_N_N@Z 000000018005f240 f i libucrtd:output.obj
 0001:0005e6c0       ??$type_case_integer@$07@?$output_processor@DV?$string_output_adapter@D@__crt_stdio_output@@V?$format_validation_base@DV?$string_output_adapter@D@__crt_stdio_output@@@2@@__crt_stdio_output@@AEAA_N_N@Z 000000018005f6c0 f i libucrtd:output.obj
 0001:0005eb40       ??$type_case_integer@$07@?$output_processor@DV?$string_output_adapter@D@__crt_stdio_output@@V?$positional_parameter_base@DV?$string_output_adapter@D@__crt_stdio_output@@@2@@__crt_stdio_output@@AEAA_N_N@Z 000000018005fb40 f i libucrtd:output.obj
 0001:0005efc0       ??$type_case_integer@$07@?$output_processor@DV?$string_output_adapter@D@__crt_stdio_output@@V?$standard_base@DV?$string_output_adapter@D@__crt_stdio_output@@@2@@__crt_stdio_output@@AEAA_N_N@Z 000000018005ffc0 f i libucrtd:output.obj
 0001:0005f440       ??$type_case_integer@$07@?$output_processor@_WV?$stream_output_adapter@_W@__crt_stdio_output@@V?$format_validation_base@_WV?$stream_output_adapter@_W@__crt_stdio_output@@@2@@__crt_stdio_output@@AEAA_N_N@Z 0000000180060440 f i libucrtd:output.obj
 0001:0005f8c0       ??$type_case_integer@$07@?$output_processor@_WV?$stream_output_adapter@_W@__crt_stdio_output@@V?$positional_parameter_base@_WV?$stream_output_adapter@_W@__crt_stdio_output@@@2@@__crt_stdio_output@@AEAA_N_N@Z 00000001800608c0 f i libucrtd:output.obj
 0001:0005fd40       ??$type_case_integer@$07@?$output_processor@_WV?$stream_output_adapter@_W@__crt_stdio_output@@V?$standard_base@_WV?$stream_output_adapter@_W@__crt_stdio_output@@@2@@__crt_stdio_output@@AEAA_N_N@Z 0000000180060d40 f i libucrtd:output.obj
 0001:000601c0       ??$type_case_integer@$07@?$output_processor@_WV?$string_output_adapter@_W@__crt_stdio_output@@V?$format_validation_base@_WV?$string_output_adapter@_W@__crt_stdio_output@@@2@@__crt_stdio_output@@AEAA_N_N@Z 00000001800611c0 f i libucrtd:output.obj
 0001:00060640       ??$type_case_integer@$07@?$output_processor@_WV?$string_output_adapter@_W@__crt_stdio_output@@V?$positional_parameter_base@_WV?$string_output_adapter@_W@__crt_stdio_output@@@2@@__crt_stdio_output@@AEAA_N_N@Z 0000000180061640 f i libucrtd:output.obj
 0001:00060ac0       ??$type_case_integer@$07@?$output_processor@_WV?$string_output_adapter@_W@__crt_stdio_output@@V?$standard_base@_WV?$string_output_adapter@_W@__crt_stdio_output@@@2@@__crt_stdio_output@@AEAA_N_N@Z 0000000180061ac0 f i libucrtd:output.obj
 0001:00060f40       ??$type_case_integer@$09@?$output_processor@DV?$stream_output_adapter@D@__crt_stdio_output@@V?$format_validation_base@DV?$stream_output_adapter@D@__crt_stdio_output@@@2@@__crt_stdio_output@@AEAA_N_N@Z 0000000180061f40 f i libucrtd:output.obj
 0001:000613c0       ??$type_case_integer@$09@?$output_processor@DV?$stream_output_adapter@D@__crt_stdio_output@@V?$positional_parameter_base@DV?$stream_output_adapter@D@__crt_stdio_output@@@2@@__crt_stdio_output@@AEAA_N_N@Z 00000001800623c0 f i libucrtd:output.obj
 0001:00061840       ??$type_case_integer@$09@?$output_processor@DV?$stream_output_adapter@D@__crt_stdio_output@@V?$standard_base@DV?$stream_output_adapter@D@__crt_stdio_output@@@2@@__crt_stdio_output@@AEAA_N_N@Z 0000000180062840 f i libucrtd:output.obj
 0001:00061cc0       ??$type_case_integer@$09@?$output_processor@DV?$string_output_adapter@D@__crt_stdio_output@@V?$format_validation_base@DV?$string_output_adapter@D@__crt_stdio_output@@@2@@__crt_stdio_output@@AEAA_N_N@Z 0000000180062cc0 f i libucrtd:output.obj
 0001:00062140       ??$type_case_integer@$09@?$output_processor@DV?$string_output_adapter@D@__crt_stdio_output@@V?$positional_parameter_base@DV?$string_output_adapter@D@__crt_stdio_output@@@2@@__crt_stdio_output@@AEAA_N_N@Z 0000000180063140 f i libucrtd:output.obj
 0001:000625c0       ??$type_case_integer@$09@?$output_processor@DV?$string_output_adapter@D@__crt_stdio_output@@V?$standard_base@DV?$string_output_adapter@D@__crt_stdio_output@@@2@@__crt_stdio_output@@AEAA_N_N@Z 00000001800635c0 f i libucrtd:output.obj
 0001:00062a40       ??$type_case_integer@$09@?$output_processor@_WV?$stream_output_adapter@_W@__crt_stdio_output@@V?$format_validation_base@_WV?$stream_output_adapter@_W@__crt_stdio_output@@@2@@__crt_stdio_output@@AEAA_N_N@Z 0000000180063a40 f i libucrtd:output.obj
 0001:00062ec0       ??$type_case_integer@$09@?$output_processor@_WV?$stream_output_adapter@_W@__crt_stdio_output@@V?$positional_parameter_base@_WV?$stream_output_adapter@_W@__crt_stdio_output@@@2@@__crt_stdio_output@@AEAA_N_N@Z 0000000180063ec0 f i libucrtd:output.obj
 0001:00063340       ??$type_case_integer@$09@?$output_processor@_WV?$stream_output_adapter@_W@__crt_stdio_output@@V?$standard_base@_WV?$stream_output_adapter@_W@__crt_stdio_output@@@2@@__crt_stdio_output@@AEAA_N_N@Z 0000000180064340 f i libucrtd:output.obj
 0001:000637c0       ??$type_case_integer@$09@?$output_processor@_WV?$string_output_adapter@_W@__crt_stdio_output@@V?$format_validation_base@_WV?$string_output_adapter@_W@__crt_stdio_output@@@2@@__crt_stdio_output@@AEAA_N_N@Z 00000001800647c0 f i libucrtd:output.obj
 0001:00063c40       ??$type_case_integer@$09@?$output_processor@_WV?$string_output_adapter@_W@__crt_stdio_output@@V?$positional_parameter_base@_WV?$string_output_adapter@_W@__crt_stdio_output@@@2@@__crt_stdio_output@@AEAA_N_N@Z 0000000180064c40 f i libucrtd:output.obj
 0001:000640c0       ??$type_case_integer@$09@?$output_processor@_WV?$string_output_adapter@_W@__crt_stdio_output@@V?$standard_base@_WV?$string_output_adapter@_W@__crt_stdio_output@@@2@@__crt_stdio_output@@AEAA_N_N@Z 00000001800650c0 f i libucrtd:output.obj
 0001:00064540       ??$type_case_integer@$0BA@@?$output_processor@DV?$stream_output_adapter@D@__crt_stdio_output@@V?$format_validation_base@DV?$stream_output_adapter@D@__crt_stdio_output@@@2@@__crt_stdio_output@@AEAA_N_N@Z 0000000180065540 f i libucrtd:output.obj
 0001:000649c0       ??$type_case_integer@$0BA@@?$output_processor@DV?$stream_output_adapter@D@__crt_stdio_output@@V?$positional_parameter_base@DV?$stream_output_adapter@D@__crt_stdio_output@@@2@@__crt_stdio_output@@AEAA_N_N@Z 00000001800659c0 f i libucrtd:output.obj
 0001:00064e40       ??$type_case_integer@$0BA@@?$output_processor@DV?$stream_output_adapter@D@__crt_stdio_output@@V?$standard_base@DV?$stream_output_adapter@D@__crt_stdio_output@@@2@@__crt_stdio_output@@AEAA_N_N@Z 0000000180065e40 f i libucrtd:output.obj
 0001:000652c0       ??$type_case_integer@$0BA@@?$output_processor@DV?$string_output_adapter@D@__crt_stdio_output@@V?$format_validation_base@DV?$string_output_adapter@D@__crt_stdio_output@@@2@@__crt_stdio_output@@AEAA_N_N@Z 00000001800662c0 f i libucrtd:output.obj
 0001:00065740       ??$type_case_integer@$0BA@@?$output_processor@DV?$string_output_adapter@D@__crt_stdio_output@@V?$positional_parameter_base@DV?$string_output_adapter@D@__crt_stdio_output@@@2@@__crt_stdio_output@@AEAA_N_N@Z 0000000180066740 f i libucrtd:output.obj
 0001:00065bc0       ??$type_case_integer@$0BA@@?$output_processor@DV?$string_output_adapter@D@__crt_stdio_output@@V?$standard_base@DV?$string_output_adapter@D@__crt_stdio_output@@@2@@__crt_stdio_output@@AEAA_N_N@Z 0000000180066bc0 f i libucrtd:output.obj
 0001:00066040       ??$type_case_integer@$0BA@@?$output_processor@_WV?$stream_output_adapter@_W@__crt_stdio_output@@V?$format_validation_base@_WV?$stream_output_adapter@_W@__crt_stdio_output@@@2@@__crt_stdio_output@@AEAA_N_N@Z 0000000180067040 f i libucrtd:output.obj
 0001:000664c0       ??$type_case_integer@$0BA@@?$output_processor@_WV?$stream_output_adapter@_W@__crt_stdio_output@@V?$positional_parameter_base@_WV?$stream_output_adapter@_W@__crt_stdio_output@@@2@@__crt_stdio_output@@AEAA_N_N@Z 00000001800674c0 f i libucrtd:output.obj
 0001:00066940       ??$type_case_integer@$0BA@@?$output_processor@_WV?$stream_output_adapter@_W@__crt_stdio_output@@V?$standard_base@_WV?$stream_output_adapter@_W@__crt_stdio_output@@@2@@__crt_stdio_output@@AEAA_N_N@Z 0000000180067940 f i libucrtd:output.obj
 0001:00066dc0       ??$type_case_integer@$0BA@@?$output_processor@_WV?$string_output_adapter@_W@__crt_stdio_output@@V?$format_validation_base@_WV?$string_output_adapter@_W@__crt_stdio_output@@@2@@__crt_stdio_output@@AEAA_N_N@Z 0000000180067dc0 f i libucrtd:output.obj
 0001:00067240       ??$type_case_integer@$0BA@@?$output_processor@_WV?$string_output_adapter@_W@__crt_stdio_output@@V?$positional_parameter_base@_WV?$string_output_adapter@_W@__crt_stdio_output@@@2@@__crt_stdio_output@@AEAA_N_N@Z 0000000180068240 f i libucrtd:output.obj
 0001:000676c0       ??$type_case_integer@$0BA@@?$output_processor@_WV?$string_output_adapter@_W@__crt_stdio_output@@V?$standard_base@_WV?$string_output_adapter@_W@__crt_stdio_output@@@2@@__crt_stdio_output@@AEAA_N_N@Z 00000001800686c0 f i libucrtd:output.obj
 0001:00067b40       ??$type_case_integer_parse_into_buffer@I$07@?$output_processor@DV?$stream_output_adapter@D@__crt_stdio_output@@V?$format_validation_base@DV?$stream_output_adapter@D@__crt_stdio_output@@@2@@__crt_stdio_output@@AEAAXI_N@Z 0000000180068b40 f i libucrtd:output.obj
 0001:00067c70       ??$type_case_integer_parse_into_buffer@I$07@?$output_processor@DV?$stream_output_adapter@D@__crt_stdio_output@@V?$positional_parameter_base@DV?$stream_output_adapter@D@__crt_stdio_output@@@2@@__crt_stdio_output@@AEAAXI_N@Z 0000000180068c70 f i libucrtd:output.obj
 0001:00067da0       ??$type_case_integer_parse_into_buffer@I$07@?$output_processor@DV?$stream_output_adapter@D@__crt_stdio_output@@V?$standard_base@DV?$stream_output_adapter@D@__crt_stdio_output@@@2@@__crt_stdio_output@@AEAAXI_N@Z 0000000180068da0 f i libucrtd:output.obj
 0001:00067ed0       ??$type_case_integer_parse_into_buffer@I$07@?$output_processor@DV?$string_output_adapter@D@__crt_stdio_output@@V?$format_validation_base@DV?$string_output_adapter@D@__crt_stdio_output@@@2@@__crt_stdio_output@@AEAAXI_N@Z 0000000180068ed0 f i libucrtd:output.obj
 0001:00068000       ??$type_case_integer_parse_into_buffer@I$07@?$output_processor@DV?$string_output_adapter@D@__crt_stdio_output@@V?$positional_parameter_base@DV?$string_output_adapter@D@__crt_stdio_output@@@2@@__crt_stdio_output@@AEAAXI_N@Z 0000000180069000 f i libucrtd:output.obj
 0001:00068130       ??$type_case_integer_parse_into_buffer@I$07@?$output_processor@DV?$string_output_adapter@D@__crt_stdio_output@@V?$standard_base@DV?$string_output_adapter@D@__crt_stdio_output@@@2@@__crt_stdio_output@@AEAAXI_N@Z 0000000180069130 f i libucrtd:output.obj
 0001:00068260       ??$type_case_integer_parse_into_buffer@I$07@?$output_processor@_WV?$stream_output_adapter@_W@__crt_stdio_output@@V?$format_validation_base@_WV?$stream_output_adapter@_W@__crt_stdio_output@@@2@@__crt_stdio_output@@AEAAXI_N@Z 0000000180069260 f i libucrtd:output.obj
 0001:000683a0       ??$type_case_integer_parse_into_buffer@I$07@?$output_processor@_WV?$stream_output_adapter@_W@__crt_stdio_output@@V?$positional_parameter_base@_WV?$stream_output_adapter@_W@__crt_stdio_output@@@2@@__crt_stdio_output@@AEAAXI_N@Z 00000001800693a0 f i libucrtd:output.obj
 0001:000684e0       ??$type_case_integer_parse_into_buffer@I$07@?$output_processor@_WV?$stream_output_adapter@_W@__crt_stdio_output@@V?$standard_base@_WV?$stream_output_adapter@_W@__crt_stdio_output@@@2@@__crt_stdio_output@@AEAAXI_N@Z 00000001800694e0 f i libucrtd:output.obj
 0001:00068620       ??$type_case_integer_parse_into_buffer@I$07@?$output_processor@_WV?$string_output_adapter@_W@__crt_stdio_output@@V?$format_validation_base@_WV?$string_output_adapter@_W@__crt_stdio_output@@@2@@__crt_stdio_output@@AEAAXI_N@Z 0000000180069620 f i libucrtd:output.obj
 0001:00068760       ??$type_case_integer_parse_into_buffer@I$07@?$output_processor@_WV?$string_output_adapter@_W@__crt_stdio_output@@V?$positional_parameter_base@_WV?$string_output_adapter@_W@__crt_stdio_output@@@2@@__crt_stdio_output@@AEAAXI_N@Z 0000000180069760 f i libucrtd:output.obj
 0001:000688a0       ??$type_case_integer_parse_into_buffer@I$07@?$output_processor@_WV?$string_output_adapter@_W@__crt_stdio_output@@V?$standard_base@_WV?$string_output_adapter@_W@__crt_stdio_output@@@2@@__crt_stdio_output@@AEAAXI_N@Z 00000001800698a0 f i libucrtd:output.obj
 0001:000689e0       ??$type_case_integer_parse_into_buffer@I$09@?$output_processor@DV?$stream_output_adapter@D@__crt_stdio_output@@V?$format_validation_base@DV?$stream_output_adapter@D@__crt_stdio_output@@@2@@__crt_stdio_output@@AEAAXI_N@Z 00000001800699e0 f i libucrtd:output.obj
 0001:00068b10       ??$type_case_integer_parse_into_buffer@I$09@?$output_processor@DV?$stream_output_adapter@D@__crt_stdio_output@@V?$positional_parameter_base@DV?$stream_output_adapter@D@__crt_stdio_output@@@2@@__crt_stdio_output@@AEAAXI_N@Z 0000000180069b10 f i libucrtd:output.obj
 0001:00068c40       ??$type_case_integer_parse_into_buffer@I$09@?$output_processor@DV?$stream_output_adapter@D@__crt_stdio_output@@V?$standard_base@DV?$stream_output_adapter@D@__crt_stdio_output@@@2@@__crt_stdio_output@@AEAAXI_N@Z 0000000180069c40 f i libucrtd:output.obj
 0001:00068d70       ??$type_case_integer_parse_into_buffer@I$09@?$output_processor@DV?$string_output_adapter@D@__crt_stdio_output@@V?$format_validation_base@DV?$string_output_adapter@D@__crt_stdio_output@@@2@@__crt_stdio_output@@AEAAXI_N@Z 0000000180069d70 f i libucrtd:output.obj
 0001:00068ea0       ??$type_case_integer_parse_into_buffer@I$09@?$output_processor@DV?$string_output_adapter@D@__crt_stdio_output@@V?$positional_parameter_base@DV?$string_output_adapter@D@__crt_stdio_output@@@2@@__crt_stdio_output@@AEAAXI_N@Z 0000000180069ea0 f i libucrtd:output.obj
 0001:00068fd0       ??$type_case_integer_parse_into_buffer@I$09@?$output_processor@DV?$string_output_adapter@D@__crt_stdio_output@@V?$standard_base@DV?$string_output_adapter@D@__crt_stdio_output@@@2@@__crt_stdio_output@@AEAAXI_N@Z 0000000180069fd0 f i libucrtd:output.obj
 0001:00069100       ??$type_case_integer_parse_into_buffer@I$09@?$output_processor@_WV?$stream_output_adapter@_W@__crt_stdio_output@@V?$format_validation_base@_WV?$stream_output_adapter@_W@__crt_stdio_output@@@2@@__crt_stdio_output@@AEAAXI_N@Z 000000018006a100 f i libucrtd:output.obj
 0001:00069240       ??$type_case_integer_parse_into_buffer@I$09@?$output_processor@_WV?$stream_output_adapter@_W@__crt_stdio_output@@V?$positional_parameter_base@_WV?$stream_output_adapter@_W@__crt_stdio_output@@@2@@__crt_stdio_output@@AEAAXI_N@Z 000000018006a240 f i libucrtd:output.obj
 0001:00069380       ??$type_case_integer_parse_into_buffer@I$09@?$output_processor@_WV?$stream_output_adapter@_W@__crt_stdio_output@@V?$standard_base@_WV?$stream_output_adapter@_W@__crt_stdio_output@@@2@@__crt_stdio_output@@AEAAXI_N@Z 000000018006a380 f i libucrtd:output.obj
 0001:000694c0       ??$type_case_integer_parse_into_buffer@I$09@?$output_processor@_WV?$string_output_adapter@_W@__crt_stdio_output@@V?$format_validation_base@_WV?$string_output_adapter@_W@__crt_stdio_output@@@2@@__crt_stdio_output@@AEAAXI_N@Z 000000018006a4c0 f i libucrtd:output.obj
 0001:00069600       ??$type_case_integer_parse_into_buffer@I$09@?$output_processor@_WV?$string_output_adapter@_W@__crt_stdio_output@@V?$positional_parameter_base@_WV?$string_output_adapter@_W@__crt_stdio_output@@@2@@__crt_stdio_output@@AEAAXI_N@Z 000000018006a600 f i libucrtd:output.obj
 0001:00069740       ??$type_case_integer_parse_into_buffer@I$09@?$output_processor@_WV?$string_output_adapter@_W@__crt_stdio_output@@V?$standard_base@_WV?$string_output_adapter@_W@__crt_stdio_output@@@2@@__crt_stdio_output@@AEAAXI_N@Z 000000018006a740 f i libucrtd:output.obj
 0001:00069880       ??$type_case_integer_parse_into_buffer@I$0BA@@?$output_processor@DV?$stream_output_adapter@D@__crt_stdio_output@@V?$format_validation_base@DV?$stream_output_adapter@D@__crt_stdio_output@@@2@@__crt_stdio_output@@AEAAXI_N@Z 000000018006a880 f i libucrtd:output.obj
 0001:000699b0       ??$type_case_integer_parse_into_buffer@I$0BA@@?$output_processor@DV?$stream_output_adapter@D@__crt_stdio_output@@V?$positional_parameter_base@DV?$stream_output_adapter@D@__crt_stdio_output@@@2@@__crt_stdio_output@@AEAAXI_N@Z 000000018006a9b0 f i libucrtd:output.obj
 0001:00069ae0       ??$type_case_integer_parse_into_buffer@I$0BA@@?$output_processor@DV?$stream_output_adapter@D@__crt_stdio_output@@V?$standard_base@DV?$stream_output_adapter@D@__crt_stdio_output@@@2@@__crt_stdio_output@@AEAAXI_N@Z 000000018006aae0 f i libucrtd:output.obj
 0001:00069c10       ??$type_case_integer_parse_into_buffer@I$0BA@@?$output_processor@DV?$string_output_adapter@D@__crt_stdio_output@@V?$format_validation_base@DV?$string_output_adapter@D@__crt_stdio_output@@@2@@__crt_stdio_output@@AEAAXI_N@Z 000000018006ac10 f i libucrtd:output.obj
 0001:00069d40       ??$type_case_integer_parse_into_buffer@I$0BA@@?$output_processor@DV?$string_output_adapter@D@__crt_stdio_output@@V?$positional_parameter_base@DV?$string_output_adapter@D@__crt_stdio_output@@@2@@__crt_stdio_output@@AEAAXI_N@Z 000000018006ad40 f i libucrtd:output.obj
 0001:00069e70       ??$type_case_integer_parse_into_buffer@I$0BA@@?$output_processor@DV?$string_output_adapter@D@__crt_stdio_output@@V?$standard_base@DV?$string_output_adapter@D@__crt_stdio_output@@@2@@__crt_stdio_output@@AEAAXI_N@Z 000000018006ae70 f i libucrtd:output.obj
 0001:00069fa0       ??$type_case_integer_parse_into_buffer@I$0BA@@?$output_processor@_WV?$stream_output_adapter@_W@__crt_stdio_output@@V?$format_validation_base@_WV?$stream_output_adapter@_W@__crt_stdio_output@@@2@@__crt_stdio_output@@AEAAXI_N@Z 000000018006afa0 f i libucrtd:output.obj
 0001:0006a0e0       ??$type_case_integer_parse_into_buffer@I$0BA@@?$output_processor@_WV?$stream_output_adapter@_W@__crt_stdio_output@@V?$positional_parameter_base@_WV?$stream_output_adapter@_W@__crt_stdio_output@@@2@@__crt_stdio_output@@AEAAXI_N@Z 000000018006b0e0 f i libucrtd:output.obj
 0001:0006a220       ??$type_case_integer_parse_into_buffer@I$0BA@@?$output_processor@_WV?$stream_output_adapter@_W@__crt_stdio_output@@V?$standard_base@_WV?$stream_output_adapter@_W@__crt_stdio_output@@@2@@__crt_stdio_output@@AEAAXI_N@Z 000000018006b220 f i libucrtd:output.obj
 0001:0006a360       ??$type_case_integer_parse_into_buffer@I$0BA@@?$output_processor@_WV?$string_output_adapter@_W@__crt_stdio_output@@V?$format_validation_base@_WV?$string_output_adapter@_W@__crt_stdio_output@@@2@@__crt_stdio_output@@AEAAXI_N@Z 000000018006b360 f i libucrtd:output.obj
 0001:0006a4a0       ??$type_case_integer_parse_into_buffer@I$0BA@@?$output_processor@_WV?$string_output_adapter@_W@__crt_stdio_output@@V?$positional_parameter_base@_WV?$string_output_adapter@_W@__crt_stdio_output@@@2@@__crt_stdio_output@@AEAAXI_N@Z 000000018006b4a0 f i libucrtd:output.obj
 0001:0006a5e0       ??$type_case_integer_parse_into_buffer@I$0BA@@?$output_processor@_WV?$string_output_adapter@_W@__crt_stdio_output@@V?$standard_base@_WV?$string_output_adapter@_W@__crt_stdio_output@@@2@@__crt_stdio_output@@AEAAXI_N@Z 000000018006b5e0 f i libucrtd:output.obj
 0001:0006a720       ??$type_case_integer_parse_into_buffer@_K$07@?$output_processor@DV?$stream_output_adapter@D@__crt_stdio_output@@V?$format_validation_base@DV?$stream_output_adapter@D@__crt_stdio_output@@@2@@__crt_stdio_output@@AEAAX_K_N@Z 000000018006b720 f i libucrtd:output.obj
 0001:0006a860       ??$type_case_integer_parse_into_buffer@_K$07@?$output_processor@DV?$stream_output_adapter@D@__crt_stdio_output@@V?$positional_parameter_base@DV?$stream_output_adapter@D@__crt_stdio_output@@@2@@__crt_stdio_output@@AEAAX_K_N@Z 000000018006b860 f i libucrtd:output.obj
 0001:0006a9a0       ??$type_case_integer_parse_into_buffer@_K$07@?$output_processor@DV?$stream_output_adapter@D@__crt_stdio_output@@V?$standard_base@DV?$stream_output_adapter@D@__crt_stdio_output@@@2@@__crt_stdio_output@@AEAAX_K_N@Z 000000018006b9a0 f i libucrtd:output.obj
 0001:0006aae0       ??$type_case_integer_parse_into_buffer@_K$07@?$output_processor@DV?$string_output_adapter@D@__crt_stdio_output@@V?$format_validation_base@DV?$string_output_adapter@D@__crt_stdio_output@@@2@@__crt_stdio_output@@AEAAX_K_N@Z 000000018006bae0 f i libucrtd:output.obj
 0001:0006ac20       ??$type_case_integer_parse_into_buffer@_K$07@?$output_processor@DV?$string_output_adapter@D@__crt_stdio_output@@V?$positional_parameter_base@DV?$string_output_adapter@D@__crt_stdio_output@@@2@@__crt_stdio_output@@AEAAX_K_N@Z 000000018006bc20 f i libucrtd:output.obj
 0001:0006ad60       ??$type_case_integer_parse_into_buffer@_K$07@?$output_processor@DV?$string_output_adapter@D@__crt_stdio_output@@V?$standard_base@DV?$string_output_adapter@D@__crt_stdio_output@@@2@@__crt_stdio_output@@AEAAX_K_N@Z 000000018006bd60 f i libucrtd:output.obj
 0001:0006aea0       ??$type_case_integer_parse_into_buffer@_K$07@?$output_processor@_WV?$stream_output_adapter@_W@__crt_stdio_output@@V?$format_validation_base@_WV?$stream_output_adapter@_W@__crt_stdio_output@@@2@@__crt_stdio_output@@AEAAX_K_N@Z 000000018006bea0 f i libucrtd:output.obj
 0001:0006afe0       ??$type_case_integer_parse_into_buffer@_K$07@?$output_processor@_WV?$stream_output_adapter@_W@__crt_stdio_output@@V?$positional_parameter_base@_WV?$stream_output_adapter@_W@__crt_stdio_output@@@2@@__crt_stdio_output@@AEAAX_K_N@Z 000000018006bfe0 f i libucrtd:output.obj
 0001:0006b120       ??$type_case_integer_parse_into_buffer@_K$07@?$output_processor@_WV?$stream_output_adapter@_W@__crt_stdio_output@@V?$standard_base@_WV?$stream_output_adapter@_W@__crt_stdio_output@@@2@@__crt_stdio_output@@AEAAX_K_N@Z 000000018006c120 f i libucrtd:output.obj
 0001:0006b260       ??$type_case_integer_parse_into_buffer@_K$07@?$output_processor@_WV?$string_output_adapter@_W@__crt_stdio_output@@V?$format_validation_base@_WV?$string_output_adapter@_W@__crt_stdio_output@@@2@@__crt_stdio_output@@AEAAX_K_N@Z 000000018006c260 f i libucrtd:output.obj
 0001:0006b3a0       ??$type_case_integer_parse_into_buffer@_K$07@?$output_processor@_WV?$string_output_adapter@_W@__crt_stdio_output@@V?$positional_parameter_base@_WV?$string_output_adapter@_W@__crt_stdio_output@@@2@@__crt_stdio_output@@AEAAX_K_N@Z 000000018006c3a0 f i libucrtd:output.obj
 0001:0006b4e0       ??$type_case_integer_parse_into_buffer@_K$07@?$output_processor@_WV?$string_output_adapter@_W@__crt_stdio_output@@V?$standard_base@_WV?$string_output_adapter@_W@__crt_stdio_output@@@2@@__crt_stdio_output@@AEAAX_K_N@Z 000000018006c4e0 f i libucrtd:output.obj
 0001:0006b620       ??$type_case_integer_parse_into_buffer@_K$09@?$output_processor@DV?$stream_output_adapter@D@__crt_stdio_output@@V?$format_validation_base@DV?$stream_output_adapter@D@__crt_stdio_output@@@2@@__crt_stdio_output@@AEAAX_K_N@Z 000000018006c620 f i libucrtd:output.obj
 0001:0006b760       ??$type_case_integer_parse_into_buffer@_K$09@?$output_processor@DV?$stream_output_adapter@D@__crt_stdio_output@@V?$positional_parameter_base@DV?$stream_output_adapter@D@__crt_stdio_output@@@2@@__crt_stdio_output@@AEAAX_K_N@Z 000000018006c760 f i libucrtd:output.obj
 0001:0006b8a0       ??$type_case_integer_parse_into_buffer@_K$09@?$output_processor@DV?$stream_output_adapter@D@__crt_stdio_output@@V?$standard_base@DV?$stream_output_adapter@D@__crt_stdio_output@@@2@@__crt_stdio_output@@AEAAX_K_N@Z 000000018006c8a0 f i libucrtd:output.obj
 0001:0006b9e0       ??$type_case_integer_parse_into_buffer@_K$09@?$output_processor@DV?$string_output_adapter@D@__crt_stdio_output@@V?$format_validation_base@DV?$string_output_adapter@D@__crt_stdio_output@@@2@@__crt_stdio_output@@AEAAX_K_N@Z 000000018006c9e0 f i libucrtd:output.obj
 0001:0006bb20       ??$type_case_integer_parse_into_buffer@_K$09@?$output_processor@DV?$string_output_adapter@D@__crt_stdio_output@@V?$positional_parameter_base@DV?$string_output_adapter@D@__crt_stdio_output@@@2@@__crt_stdio_output@@AEAAX_K_N@Z 000000018006cb20 f i libucrtd:output.obj
 0001:0006bc60       ??$type_case_integer_parse_into_buffer@_K$09@?$output_processor@DV?$string_output_adapter@D@__crt_stdio_output@@V?$standard_base@DV?$string_output_adapter@D@__crt_stdio_output@@@2@@__crt_stdio_output@@AEAAX_K_N@Z 000000018006cc60 f i libucrtd:output.obj
 0001:0006bda0       ??$type_case_integer_parse_into_buffer@_K$09@?$output_processor@_WV?$stream_output_adapter@_W@__crt_stdio_output@@V?$format_validation_base@_WV?$stream_output_adapter@_W@__crt_stdio_output@@@2@@__crt_stdio_output@@AEAAX_K_N@Z 000000018006cda0 f i libucrtd:output.obj
 0001:0006bee0       ??$type_case_integer_parse_into_buffer@_K$09@?$output_processor@_WV?$stream_output_adapter@_W@__crt_stdio_output@@V?$positional_parameter_base@_WV?$stream_output_adapter@_W@__crt_stdio_output@@@2@@__crt_stdio_output@@AEAAX_K_N@Z 000000018006cee0 f i libucrtd:output.obj
 0001:0006c020       ??$type_case_integer_parse_into_buffer@_K$09@?$output_processor@_WV?$stream_output_adapter@_W@__crt_stdio_output@@V?$standard_base@_WV?$stream_output_adapter@_W@__crt_stdio_output@@@2@@__crt_stdio_output@@AEAAX_K_N@Z 000000018006d020 f i libucrtd:output.obj
 0001:0006c160       ??$type_case_integer_parse_into_buffer@_K$09@?$output_processor@_WV?$string_output_adapter@_W@__crt_stdio_output@@V?$format_validation_base@_WV?$string_output_adapter@_W@__crt_stdio_output@@@2@@__crt_stdio_output@@AEAAX_K_N@Z 000000018006d160 f i libucrtd:output.obj
 0001:0006c2a0       ??$type_case_integer_parse_into_buffer@_K$09@?$output_processor@_WV?$string_output_adapter@_W@__crt_stdio_output@@V?$positional_parameter_base@_WV?$string_output_adapter@_W@__crt_stdio_output@@@2@@__crt_stdio_output@@AEAAX_K_N@Z 000000018006d2a0 f i libucrtd:output.obj
 0001:0006c3e0       ??$type_case_integer_parse_into_buffer@_K$09@?$output_processor@_WV?$string_output_adapter@_W@__crt_stdio_output@@V?$standard_base@_WV?$string_output_adapter@_W@__crt_stdio_output@@@2@@__crt_stdio_output@@AEAAX_K_N@Z 000000018006d3e0 f i libucrtd:output.obj
 0001:0006c520       ??$type_case_integer_parse_into_buffer@_K$0BA@@?$output_processor@DV?$stream_output_adapter@D@__crt_stdio_output@@V?$format_validation_base@DV?$stream_output_adapter@D@__crt_stdio_output@@@2@@__crt_stdio_output@@AEAAX_K_N@Z 000000018006d520 f i libucrtd:output.obj
 0001:0006c660       ??$type_case_integer_parse_into_buffer@_K$0BA@@?$output_processor@DV?$stream_output_adapter@D@__crt_stdio_output@@V?$positional_parameter_base@DV?$stream_output_adapter@D@__crt_stdio_output@@@2@@__crt_stdio_output@@AEAAX_K_N@Z 000000018006d660 f i libucrtd:output.obj
 0001:0006c7a0       ??$type_case_integer_parse_into_buffer@_K$0BA@@?$output_processor@DV?$stream_output_adapter@D@__crt_stdio_output@@V?$standard_base@DV?$stream_output_adapter@D@__crt_stdio_output@@@2@@__crt_stdio_output@@AEAAX_K_N@Z 000000018006d7a0 f i libucrtd:output.obj
 0001:0006c8e0       ??$type_case_integer_parse_into_buffer@_K$0BA@@?$output_processor@DV?$string_output_adapter@D@__crt_stdio_output@@V?$format_validation_base@DV?$string_output_adapter@D@__crt_stdio_output@@@2@@__crt_stdio_output@@AEAAX_K_N@Z 000000018006d8e0 f i libucrtd:output.obj
 0001:0006ca20       ??$type_case_integer_parse_into_buffer@_K$0BA@@?$output_processor@DV?$string_output_adapter@D@__crt_stdio_output@@V?$positional_parameter_base@DV?$string_output_adapter@D@__crt_stdio_output@@@2@@__crt_stdio_output@@AEAAX_K_N@Z 000000018006da20 f i libucrtd:output.obj
 0001:0006cb60       ??$type_case_integer_parse_into_buffer@_K$0BA@@?$output_processor@DV?$string_output_adapter@D@__crt_stdio_output@@V?$standard_base@DV?$string_output_adapter@D@__crt_stdio_output@@@2@@__crt_stdio_output@@AEAAX_K_N@Z 000000018006db60 f i libucrtd:output.obj
 0001:0006cca0       ??$type_case_integer_parse_into_buffer@_K$0BA@@?$output_processor@_WV?$stream_output_adapter@_W@__crt_stdio_output@@V?$format_validation_base@_WV?$stream_output_adapter@_W@__crt_stdio_output@@@2@@__crt_stdio_output@@AEAAX_K_N@Z 000000018006dca0 f i libucrtd:output.obj
 0001:0006cde0       ??$type_case_integer_parse_into_buffer@_K$0BA@@?$output_processor@_WV?$stream_output_adapter@_W@__crt_stdio_output@@V?$positional_parameter_base@_WV?$stream_output_adapter@_W@__crt_stdio_output@@@2@@__crt_stdio_output@@AEAAX_K_N@Z 000000018006dde0 f i libucrtd:output.obj
 0001:0006cf20       ??$type_case_integer_parse_into_buffer@_K$0BA@@?$output_processor@_WV?$stream_output_adapter@_W@__crt_stdio_output@@V?$standard_base@_WV?$stream_output_adapter@_W@__crt_stdio_output@@@2@@__crt_stdio_output@@AEAAX_K_N@Z 000000018006df20 f i libucrtd:output.obj
 0001:0006d060       ??$type_case_integer_parse_into_buffer@_K$0BA@@?$output_processor@_WV?$string_output_adapter@_W@__crt_stdio_output@@V?$format_validation_base@_WV?$string_output_adapter@_W@__crt_stdio_output@@@2@@__crt_stdio_output@@AEAAX_K_N@Z 000000018006e060 f i libucrtd:output.obj
 0001:0006d1a0       ??$type_case_integer_parse_into_buffer@_K$0BA@@?$output_processor@_WV?$string_output_adapter@_W@__crt_stdio_output@@V?$positional_parameter_base@_WV?$string_output_adapter@_W@__crt_stdio_output@@@2@@__crt_stdio_output@@AEAAX_K_N@Z 000000018006e1a0 f i libucrtd:output.obj
 0001:0006d2e0       ??$type_case_integer_parse_into_buffer@_K$0BA@@?$output_processor@_WV?$string_output_adapter@_W@__crt_stdio_output@@V?$standard_base@_WV?$string_output_adapter@_W@__crt_stdio_output@@@2@@__crt_stdio_output@@AEAAX_K_N@Z 000000018006e2e0 f i libucrtd:output.obj
 0001:0006d420       ??$write_multiple_characters@V?$stream_output_adapter@D@__crt_stdio_output@@D@__crt_stdio_output@@YAXAEBV?$stream_output_adapter@D@0@DHQEAHAEAV__crt_cached_ptd_host@@@Z 000000018006e420 f i libucrtd:output.obj
 0001:0006d490       ??$write_multiple_characters@V?$stream_output_adapter@_W@__crt_stdio_output@@D@__crt_stdio_output@@YAXAEBV?$stream_output_adapter@_W@0@DHQEAHAEAV__crt_cached_ptd_host@@@Z 000000018006e490 f i libucrtd:output.obj
 0001:0006d500       ??$write_multiple_characters@V?$string_output_adapter@D@__crt_stdio_output@@D@__crt_stdio_output@@YAXAEBV?$string_output_adapter@D@0@DHQEAHAEAV__crt_cached_ptd_host@@@Z 000000018006e500 f i libucrtd:output.obj
 0001:0006d570       ??$write_multiple_characters@V?$string_output_adapter@_W@__crt_stdio_output@@D@__crt_stdio_output@@YAXAEBV?$string_output_adapter@_W@0@DHQEAHAEAV__crt_cached_ptd_host@@@Z 000000018006e570 f i libucrtd:output.obj
 0001:0006d9a0       ??0?$c_string_character_source@D@__crt_strtox@@QEAA@QEBDQEAPEBD@Z 000000018006e9a0 f i libucrtd:output.obj
 0001:0006d9f0       ??0?$c_string_character_source@_W@__crt_strtox@@QEAA@QEB_WQEAPEB_W@Z 000000018006e9f0 f i libucrtd:output.obj
 0001:0006da40       ??0?$cached@H@__crt_cached_ptd_host@@QEAA@XZ 000000018006ea40 f i libucrtd:output.obj
 0001:0006da60       ??0?$cached@K@__crt_cached_ptd_host@@QEAA@XZ 000000018006ea60 f i libucrtd:output.obj
 0001:0006da80       ??0?$common_data@D@__crt_stdio_output@@IEAA@AEAV__crt_cached_ptd_host@@@Z 000000018006ea80 f i libucrtd:output.obj
 0001:0006db40       ??0?$common_data@_W@__crt_stdio_output@@IEAA@AEAV__crt_cached_ptd_host@@@Z 000000018006eb40 f i libucrtd:output.obj
 0001:0006dc00       ??0?$output_adapter_data@DV?$stream_output_adapter@D@__crt_stdio_output@@@__crt_stdio_output@@IEAA@AEBV?$stream_output_adapter@D@1@_KQEBDAEAV__crt_cached_ptd_host@@QEAD@Z 000000018006ec00 f i libucrtd:output.obj
 0001:0006dc80       ??0?$output_adapter_data@DV?$string_output_adapter@D@__crt_stdio_output@@@__crt_stdio_output@@IEAA@AEBV?$string_output_adapter@D@1@_KQEBDAEAV__crt_cached_ptd_host@@QEAD@Z 000000018006ec80 f i libucrtd:output.obj
 0001:0006dd00       ??0?$output_adapter_data@_WV?$stream_output_adapter@_W@__crt_stdio_output@@@__crt_stdio_output@@IEAA@AEBV?$stream_output_adapter@_W@1@_KQEB_WAEAV__crt_cached_ptd_host@@QEAD@Z 000000018006ed00 f i libucrtd:output.obj
 0001:0006dd80       ??0?$output_adapter_data@_WV?$string_output_adapter@_W@__crt_stdio_output@@@__crt_stdio_output@@IEAA@AEBV?$string_output_adapter@_W@1@_KQEB_WAEAV__crt_cached_ptd_host@@QEAD@Z 000000018006ed80 f i libucrtd:output.obj
 0001:0006de00       ??0?$output_processor@DV?$stream_output_adapter@D@__crt_stdio_output@@V?$format_validation_base@DV?$stream_output_adapter@D@__crt_stdio_output@@@2@@__crt_stdio_output@@QEAA@AEBV?$stream_output_adapter@D@1@_KQEBDAEAV__crt_cached_ptd_host@@QEAD@Z 000000018006ee00 f i libucrtd:output.obj
 0001:0006de50       ??0?$output_processor@DV?$stream_output_adapter@D@__crt_stdio_output@@V?$positional_parameter_base@DV?$stream_output_adapter@D@__crt_stdio_output@@@2@@__crt_stdio_output@@QEAA@AEBV?$stream_output_adapter@D@1@_KQEBDAEAV__crt_cached_ptd_host@@QEAD@Z 000000018006ee50 f i libucrtd:output.obj
 0001:0006dea0       ??0?$output_processor@DV?$stream_output_adapter@D@__crt_stdio_output@@V?$standard_base@DV?$stream_output_adapter@D@__crt_stdio_output@@@2@@__crt_stdio_output@@QEAA@AEBV?$stream_output_adapter@D@1@_KQEBDAEAV__crt_cached_ptd_host@@QEAD@Z 000000018006eea0 f i libucrtd:output.obj
 0001:0006def0       ??0?$output_processor@DV?$string_output_adapter@D@__crt_stdio_output@@V?$format_validation_base@DV?$string_output_adapter@D@__crt_stdio_output@@@2@@__crt_stdio_output@@QEAA@AEBV?$string_output_adapter@D@1@_KQEBDAEAV__crt_cached_ptd_host@@QEAD@Z 000000018006eef0 f i libucrtd:output.obj
 0001:0006df40       ??0?$output_processor@DV?$string_output_adapter@D@__crt_stdio_output@@V?$positional_parameter_base@DV?$string_output_adapter@D@__crt_stdio_output@@@2@@__crt_stdio_output@@QEAA@AEBV?$string_output_adapter@D@1@_KQEBDAEAV__crt_cached_ptd_host@@QEAD@Z 000000018006ef40 f i libucrtd:output.obj
 0001:0006df90       ??0?$output_processor@DV?$string_output_adapter@D@__crt_stdio_output@@V?$standard_base@DV?$string_output_adapter@D@__crt_stdio_output@@@2@@__crt_stdio_output@@QEAA@AEBV?$string_output_adapter@D@1@_KQEBDAEAV__crt_cached_ptd_host@@QEAD@Z 000000018006ef90 f i libucrtd:output.obj
 0001:0006dfe0       ??0?$output_processor@_WV?$stream_output_adapter@_W@__crt_stdio_output@@V?$format_validation_base@_WV?$stream_output_adapter@_W@__crt_stdio_output@@@2@@__crt_stdio_output@@QEAA@AEBV?$stream_output_adapter@_W@1@_KQEB_WAEAV__crt_cached_ptd_host@@QEAD@Z 000000018006efe0 f i libucrtd:output.obj
 0001:0006e030       ??0?$output_processor@_WV?$stream_output_adapter@_W@__crt_stdio_output@@V?$positional_parameter_base@_WV?$stream_output_adapter@_W@__crt_stdio_output@@@2@@__crt_stdio_output@@QEAA@AEBV?$stream_output_adapter@_W@1@_KQEB_WAEAV__crt_cached_ptd_host@@QEAD@Z 000000018006f030 f i libucrtd:output.obj
 0001:0006e080       ??0?$output_processor@_WV?$stream_output_adapter@_W@__crt_stdio_output@@V?$standard_base@_WV?$stream_output_adapter@_W@__crt_stdio_output@@@2@@__crt_stdio_output@@QEAA@AEBV?$stream_output_adapter@_W@1@_KQEB_WAEAV__crt_cached_ptd_host@@QEAD@Z 000000018006f080 f i libucrtd:output.obj
 0001:0006e0d0       ??0?$output_processor@_WV?$string_output_adapter@_W@__crt_stdio_output@@V?$format_validation_base@_WV?$string_output_adapter@_W@__crt_stdio_output@@@2@@__crt_stdio_output@@QEAA@AEBV?$string_output_adapter@_W@1@_KQEB_WAEAV__crt_cached_ptd_host@@QEAD@Z 000000018006f0d0 f i libucrtd:output.obj
 0001:0006e120       ??0?$output_processor@_WV?$string_output_adapter@_W@__crt_stdio_output@@V?$positional_parameter_base@_WV?$string_output_adapter@_W@__crt_stdio_output@@@2@@__crt_stdio_output@@QEAA@AEBV?$string_output_adapter@_W@1@_KQEB_WAEAV__crt_cached_ptd_host@@QEAD@Z 000000018006f120 f i libucrtd:output.obj
 0001:0006e170       ??0?$output_processor@_WV?$string_output_adapter@_W@__crt_stdio_output@@V?$standard_base@_WV?$string_output_adapter@_W@__crt_stdio_output@@@2@@__crt_stdio_output@@QEAA@AEBV?$string_output_adapter@_W@1@_KQEB_WAEAV__crt_cached_ptd_host@@QEAD@Z 000000018006f170 f i libucrtd:output.obj
 0001:0006e1c0       ??0?$stream_output_adapter@D@__crt_stdio_output@@QEAA@QEAU_iobuf@@@Z 000000018006f1c0 f i libucrtd:output.obj
 0001:0006e200       ??0?$stream_output_adapter@_W@__crt_stdio_output@@QEAA@QEAU_iobuf@@@Z 000000018006f200 f i libucrtd:output.obj
 0001:0006e240       ??0?$string_output_adapter@D@__crt_stdio_output@@QEAA@QEAU?$string_output_adapter_context@D@1@@Z 000000018006f240 f i libucrtd:output.obj
 0001:0006e260       ??0?$string_output_adapter@_W@__crt_stdio_output@@QEAA@QEAU?$string_output_adapter_context@_W@1@@Z 000000018006f260 f i libucrtd:output.obj
 0001:0006e280       ??0__acrt_stdio_temporary_buffering_guard@@QEAA@QEAU_iobuf@@AEAV__crt_cached_ptd_host@@@Z 000000018006f280 f i libucrtd:output.obj
 0001:0006e2d0       ??0__crt_cached_ptd_host@@QEAA@QEAU__crt_locale_pointers@@@Z 000000018006f2d0 f i libucrtd:output.obj
 0001:0006e390       ??0__crt_scoped_get_last_error_reset@@QEAA@XZ 000000018006f390 f i libucrtd:output.obj
 0001:0006e3b0       ??0__crt_stdio_stream@@QEAA@QEAU_iobuf@@@Z 000000018006f3b0 f i libucrtd:output.obj
 0001:0006e3d0       ??0formatting_buffer@__crt_stdio_output@@QEAA@XZ 000000018006f3d0 f i libucrtd:output.obj
 0001:0006e410       ??0guard@?$cached@H@__crt_cached_ptd_host@@QEAA@AEAU12@@Z 000000018006f410 f i libucrtd:output.obj
 0001:0006e450       ??1?$c_string_character_source@D@__crt_strtox@@QEAA@XZ 000000018006f450 f i libucrtd:output.obj
 0001:0006e480       ??1?$c_string_character_source@_W@__crt_strtox@@QEAA@XZ 000000018006f480 f i libucrtd:output.obj
 0001:0006e4b0       ??1?$common_data@D@__crt_stdio_output@@QEAA@XZ 000000018006f4b0 f i libucrtd:output.obj
 0001:0006e4d0       ??1?$common_data@_W@__crt_stdio_output@@QEAA@XZ 000000018006f4d0 f i libucrtd:output.obj
 0001:0006e4f0       ??1?$format_validation_base@DV?$stream_output_adapter@D@__crt_stdio_output@@@__crt_stdio_output@@QEAA@XZ 000000018006f4f0 f i libucrtd:output.obj
 0001:0006e510       ??1?$format_validation_base@DV?$string_output_adapter@D@__crt_stdio_output@@@__crt_stdio_output@@QEAA@XZ 000000018006f510 f i libucrtd:output.obj
 0001:0006e530       ??1?$format_validation_base@_WV?$stream_output_adapter@_W@__crt_stdio_output@@@__crt_stdio_output@@QEAA@XZ 000000018006f530 f i libucrtd:output.obj
 0001:0006e550       ??1?$format_validation_base@_WV?$string_output_adapter@_W@__crt_stdio_output@@@__crt_stdio_output@@QEAA@XZ 000000018006f550 f i libucrtd:output.obj
 0001:0006e570       ??1?$output_adapter_data@DV?$stream_output_adapter@D@__crt_stdio_output@@@__crt_stdio_output@@QEAA@XZ 000000018006f570 f i libucrtd:output.obj
 0001:0006e590       ??1?$output_adapter_data@DV?$string_output_adapter@D@__crt_stdio_output@@@__crt_stdio_output@@QEAA@XZ 000000018006f590 f i libucrtd:output.obj
 0001:0006e5b0       ??1?$output_adapter_data@_WV?$stream_output_adapter@_W@__crt_stdio_output@@@__crt_stdio_output@@QEAA@XZ 000000018006f5b0 f i libucrtd:output.obj
 0001:0006e5d0       ??1?$output_adapter_data@_WV?$string_output_adapter@_W@__crt_stdio_output@@@__crt_stdio_output@@QEAA@XZ 000000018006f5d0 f i libucrtd:output.obj
 0001:0006e5f0       ??1?$output_processor@DV?$stream_output_adapter@D@__crt_stdio_output@@V?$format_validation_base@DV?$stream_output_adapter@D@__crt_stdio_output@@@2@@__crt_stdio_output@@QEAA@XZ 000000018006f5f0 f i libucrtd:output.obj
 0001:0006e610       ??1?$output_processor@DV?$stream_output_adapter@D@__crt_stdio_output@@V?$positional_parameter_base@DV?$stream_output_adapter@D@__crt_stdio_output@@@2@@__crt_stdio_output@@QEAA@XZ 000000018006f610 f i libucrtd:output.obj
 0001:0006e630       ??1?$output_processor@DV?$stream_output_adapter@D@__crt_stdio_output@@V?$standard_base@DV?$stream_output_adapter@D@__crt_stdio_output@@@2@@__crt_stdio_output@@QEAA@XZ 000000018006f630 f i libucrtd:output.obj
 0001:0006e650       ??1?$output_processor@DV?$string_output_adapter@D@__crt_stdio_output@@V?$format_validation_base@DV?$string_output_adapter@D@__crt_stdio_output@@@2@@__crt_stdio_output@@QEAA@XZ 000000018006f650 f i libucrtd:output.obj
 0001:0006e670       ??1?$output_processor@DV?$string_output_adapter@D@__crt_stdio_output@@V?$positional_parameter_base@DV?$string_output_adapter@D@__crt_stdio_output@@@2@@__crt_stdio_output@@QEAA@XZ 000000018006f670 f i libucrtd:output.obj
 0001:0006e690       ??1?$output_processor@DV?$string_output_adapter@D@__crt_stdio_output@@V?$standard_base@DV?$string_output_adapter@D@__crt_stdio_output@@@2@@__crt_stdio_output@@QEAA@XZ 000000018006f690 f i libucrtd:output.obj
 0001:0006e6b0       ??1?$output_processor@_WV?$stream_output_adapter@_W@__crt_stdio_output@@V?$format_validation_base@_WV?$stream_output_adapter@_W@__crt_stdio_output@@@2@@__crt_stdio_output@@QEAA@XZ 000000018006f6b0 f i libucrtd:output.obj
 0001:0006e6d0       ??1?$output_processor@_WV?$stream_output_adapter@_W@__crt_stdio_output@@V?$positional_parameter_base@_WV?$stream_output_adapter@_W@__crt_stdio_output@@@2@@__crt_stdio_output@@QEAA@XZ 000000018006f6d0 f i libucrtd:output.obj
 0001:0006e6f0       ??1?$output_processor@_WV?$stream_output_adapter@_W@__crt_stdio_output@@V?$standard_base@_WV?$stream_output_adapter@_W@__crt_stdio_output@@@2@@__crt_stdio_output@@QEAA@XZ 000000018006f6f0 f i libucrtd:output.obj
 0001:0006e710       ??1?$output_processor@_WV?$string_output_adapter@_W@__crt_stdio_output@@V?$format_validation_base@_WV?$string_output_adapter@_W@__crt_stdio_output@@@2@@__crt_stdio_output@@QEAA@XZ 000000018006f710 f i libucrtd:output.obj
 0001:0006e730       ??1?$output_processor@_WV?$string_output_adapter@_W@__crt_stdio_output@@V?$positional_parameter_base@_WV?$string_output_adapter@_W@__crt_stdio_output@@@2@@__crt_stdio_output@@QEAA@XZ 000000018006f730 f i libucrtd:output.obj
 0001:0006e750       ??1?$output_processor@_WV?$string_output_adapter@_W@__crt_stdio_output@@V?$standard_base@_WV?$string_output_adapter@_W@__crt_stdio_output@@@2@@__crt_stdio_output@@QEAA@XZ 000000018006f750 f i libucrtd:output.obj
 0001:0006e770       ??1?$positional_parameter_base@DV?$stream_output_adapter@D@__crt_stdio_output@@@__crt_stdio_output@@QEAA@XZ 000000018006f770 f i libucrtd:output.obj
 0001:0006e790       ??1?$positional_parameter_base@DV?$string_output_adapter@D@__crt_stdio_output@@@__crt_stdio_output@@QEAA@XZ 000000018006f790 f i libucrtd:output.obj
 0001:0006e7b0       ??1?$positional_parameter_base@_WV?$stream_output_adapter@_W@__crt_stdio_output@@@__crt_stdio_output@@QEAA@XZ 000000018006f7b0 f i libucrtd:output.obj
 0001:0006e7d0       ??1?$positional_parameter_base@_WV?$string_output_adapter@_W@__crt_stdio_output@@@__crt_stdio_output@@QEAA@XZ 000000018006f7d0 f i libucrtd:output.obj
 0001:0006e7f0       ??1?$standard_base@DV?$stream_output_adapter@D@__crt_stdio_output@@@__crt_stdio_output@@QEAA@XZ 000000018006f7f0 f i libucrtd:output.obj
 0001:0006e810       ??1?$standard_base@DV?$string_output_adapter@D@__crt_stdio_output@@@__crt_stdio_output@@QEAA@XZ 000000018006f810 f i libucrtd:output.obj
 0001:0006e830       ??1?$standard_base@_WV?$stream_output_adapter@_W@__crt_stdio_output@@@__crt_stdio_output@@QEAA@XZ 000000018006f830 f i libucrtd:output.obj
 0001:0006e850       ??1?$standard_base@_WV?$string_output_adapter@_W@__crt_stdio_output@@@__crt_stdio_output@@QEAA@XZ 000000018006f850 f i libucrtd:output.obj
 0001:0006e870       ??1__acrt_stdio_temporary_buffering_guard@@QEAA@XZ 000000018006f870 f i libucrtd:output.obj
 0001:0006e8a0       ??1__crt_cached_ptd_host@@QEAA@XZ 000000018006f8a0 f i libucrtd:output.obj
 0001:0006e950       ??1__crt_scoped_get_last_error_reset@@QEAA@XZ 000000018006f950 f i libucrtd:output.obj
 0001:0006e970       ??1formatting_buffer@__crt_stdio_output@@QEAA@XZ 000000018006f970 f i libucrtd:output.obj
 0001:0006e9a0       ??1guard@?$cached@H@__crt_cached_ptd_host@@QEAA@XZ 000000018006f9a0 f i libucrtd:output.obj
 0001:0006e9d0       ??4?$__crt_unique_heap_ptr@DU__crt_internal_free_policy@@@@QEAAAEAV0@$$QEAV0@@Z 000000018006f9d0 f i libucrtd:output.obj
 0001:0006ea10       ??A?$spectre_mitigated_lookup_table@Ustate_transition_pair@__crt_stdio_output@@$0IA@@__crt_stdio_output@@QEBAAEBUstate_transition_pair@1@_K@Z 000000018006fa10 f i libucrtd:output.obj
 0001:0006ea30       ??C__crt_stdio_stream@@QEBAPEAU__crt_stdio_stream_data@@XZ 000000018006fa30 f i libucrtd:output.obj
 0001:0006f280       ?__crt_interlocked_read_32@@YAHPEDH@Z 0000000180070280 f i libucrtd:output.obj
 0001:0006f2a0       ?adjust_hexit@?$output_processor@DV?$stream_output_adapter@D@__crt_stdio_output@@V?$format_validation_base@DV?$stream_output_adapter@D@__crt_stdio_output@@@2@@__crt_stdio_output@@CADH_N@Z 00000001800702a0 f i libucrtd:output.obj
 0001:0006f2f0       ?adjust_hexit@?$output_processor@DV?$stream_output_adapter@D@__crt_stdio_output@@V?$positional_parameter_base@DV?$stream_output_adapter@D@__crt_stdio_output@@@2@@__crt_stdio_output@@CADH_N@Z 00000001800702f0 f i libucrtd:output.obj
 0001:0006f340       ?adjust_hexit@?$output_processor@DV?$stream_output_adapter@D@__crt_stdio_output@@V?$standard_base@DV?$stream_output_adapter@D@__crt_stdio_output@@@2@@__crt_stdio_output@@CADH_N@Z 0000000180070340 f i libucrtd:output.obj
 0001:0006f390       ?adjust_hexit@?$output_processor@DV?$string_output_adapter@D@__crt_stdio_output@@V?$format_validation_base@DV?$string_output_adapter@D@__crt_stdio_output@@@2@@__crt_stdio_output@@CADH_N@Z 0000000180070390 f i libucrtd:output.obj
 0001:0006f3e0       ?adjust_hexit@?$output_processor@DV?$string_output_adapter@D@__crt_stdio_output@@V?$positional_parameter_base@DV?$string_output_adapter@D@__crt_stdio_output@@@2@@__crt_stdio_output@@CADH_N@Z 00000001800703e0 f i libucrtd:output.obj
 0001:0006f430       ?adjust_hexit@?$output_processor@DV?$string_output_adapter@D@__crt_stdio_output@@V?$standard_base@DV?$string_output_adapter@D@__crt_stdio_output@@@2@@__crt_stdio_output@@CADH_N@Z 0000000180070430 f i libucrtd:output.obj
 0001:0006f480       ?adjust_hexit@?$output_processor@_WV?$stream_output_adapter@_W@__crt_stdio_output@@V?$format_validation_base@_WV?$stream_output_adapter@_W@__crt_stdio_output@@@2@@__crt_stdio_output@@CADH_N@Z 0000000180070480 f i libucrtd:output.obj
 0001:0006f4d0       ?adjust_hexit@?$output_processor@_WV?$stream_output_adapter@_W@__crt_stdio_output@@V?$positional_parameter_base@_WV?$stream_output_adapter@_W@__crt_stdio_output@@@2@@__crt_stdio_output@@CADH_N@Z 00000001800704d0 f i libucrtd:output.obj
 0001:0006f520       ?adjust_hexit@?$output_processor@_WV?$stream_output_adapter@_W@__crt_stdio_output@@V?$standard_base@_WV?$stream_output_adapter@_W@__crt_stdio_output@@@2@@__crt_stdio_output@@CADH_N@Z 0000000180070520 f i libucrtd:output.obj
 0001:0006f570       ?adjust_hexit@?$output_processor@_WV?$string_output_adapter@_W@__crt_stdio_output@@V?$format_validation_base@_WV?$string_output_adapter@_W@__crt_stdio_output@@@2@@__crt_stdio_output@@CADH_N@Z 0000000180070570 f i libucrtd:output.obj
 0001:0006f5c0       ?adjust_hexit@?$output_processor@_WV?$string_output_adapter@_W@__crt_stdio_output@@V?$positional_parameter_base@_WV?$string_output_adapter@_W@__crt_stdio_output@@@2@@__crt_stdio_output@@CADH_N@Z 00000001800705c0 f i libucrtd:output.obj
 0001:0006f610       ?adjust_hexit@?$output_processor@_WV?$string_output_adapter@_W@__crt_stdio_output@@V?$standard_base@_WV?$string_output_adapter@_W@__crt_stdio_output@@@2@@__crt_stdio_output@@CADH_N@Z 0000000180070610 f i libucrtd:output.obj
 0001:0006f660       ?advance_to_next_pass@?$positional_parameter_base@DV?$stream_output_adapter@D@__crt_stdio_output@@@__crt_stdio_output@@IEAA_NXZ 0000000180070660 f i libucrtd:output.obj
 0001:0006f710       ?advance_to_next_pass@?$positional_parameter_base@DV?$string_output_adapter@D@__crt_stdio_output@@@__crt_stdio_output@@IEAA_NXZ 0000000180070710 f i libucrtd:output.obj
 0001:0006f7c0       ?advance_to_next_pass@?$positional_parameter_base@_WV?$stream_output_adapter@_W@__crt_stdio_output@@@__crt_stdio_output@@IEAA_NXZ 00000001800707c0 f i libucrtd:output.obj
 0001:0006f870       ?advance_to_next_pass@?$positional_parameter_base@_WV?$string_output_adapter@_W@__crt_stdio_output@@@__crt_stdio_output@@IEAA_NXZ 0000000180070870 f i libucrtd:output.obj
 0001:0006f920       ?advance_to_next_pass@?$standard_base@DV?$stream_output_adapter@D@__crt_stdio_output@@@__crt_stdio_output@@IEAA_NXZ 0000000180070920 f i libucrtd:output.obj
 0001:0006f970       ?advance_to_next_pass@?$standard_base@DV?$string_output_adapter@D@__crt_stdio_output@@@__crt_stdio_output@@IEAA_NXZ 0000000180070970 f i libucrtd:output.obj
 0001:0006f9c0       ?advance_to_next_pass@?$standard_base@_WV?$stream_output_adapter@_W@__crt_stdio_output@@@__crt_stdio_output@@IEAA_NXZ 00000001800709c0 f i libucrtd:output.obj
 0001:0006fa10       ?advance_to_next_pass@?$standard_base@_WV?$string_output_adapter@_W@__crt_stdio_output@@@__crt_stdio_output@@IEAA_NXZ 0000000180070a10 f i libucrtd:output.obj
 0001:0006fa60       ?check@?$cached@H@__crt_cached_ptd_host@@QEBA_NH@Z 0000000180070a60 f i libucrtd:output.obj
 0001:0006faa0       ?check_synchronize_global_state_index@__crt_cached_ptd_host@@AEAA_KAEBV__crt_scoped_get_last_error_reset@@@Z 0000000180070aa0 f i libucrtd:output.obj
 0001:0006fae0       ?check_synchronize_per_thread_data@__crt_cached_ptd_host@@AEAAPEAU__acrt_ptd@@XZ 0000000180070ae0 f i libucrtd:output.obj
 0001:0006fb20       ?create_guard@?$cached@H@__crt_cached_ptd_host@@QEAA?AVguard@12@XZ 0000000180070b20 f i libucrtd:output.obj
 0001:0006fb50       ?crop_zeroes@__crt_stdio_output@@YAXPEADQEAU__crt_locale_pointers@@@Z 0000000180070b50 f i libucrtd:output.obj
 0001:0006fca0       ?disable@guard@?$cached@H@__crt_cached_ptd_host@@QEAAXXZ 0000000180070ca0 f i libucrtd:output.obj
 0001:0006fcb0       ?enable@guard@?$cached@H@__crt_cached_ptd_host@@QEAAXXZ 0000000180070cb0 f i libucrtd:output.obj
 0001:0006fcc0       ?find_next_state@?$output_processor@DV?$stream_output_adapter@D@__crt_stdio_output@@V?$format_validation_base@DV?$stream_output_adapter@D@__crt_stdio_output@@@2@@__crt_stdio_output@@AEBA?AW4state@2@DW432@@Z 0000000180070cc0 f i libucrtd:output.obj
 0001:0006fd60       ?find_next_state@?$output_processor@DV?$stream_output_adapter@D@__crt_stdio_output@@V?$positional_parameter_base@DV?$stream_output_adapter@D@__crt_stdio_output@@@2@@__crt_stdio_output@@AEBA?AW4state@2@DW432@@Z 0000000180070d60 f i libucrtd:output.obj
 0001:0006fe00       ?find_next_state@?$output_processor@DV?$stream_output_adapter@D@__crt_stdio_output@@V?$standard_base@DV?$stream_output_adapter@D@__crt_stdio_output@@@2@@__crt_stdio_output@@AEBA?AW4state@2@DW432@@Z 0000000180070e00 f i libucrtd:output.obj
 0001:0006fea0       ?find_next_state@?$output_processor@DV?$string_output_adapter@D@__crt_stdio_output@@V?$format_validation_base@DV?$string_output_adapter@D@__crt_stdio_output@@@2@@__crt_stdio_output@@AEBA?AW4state@2@DW432@@Z 0000000180070ea0 f i libucrtd:output.obj
 0001:0006ff40       ?find_next_state@?$output_processor@DV?$string_output_adapter@D@__crt_stdio_output@@V?$positional_parameter_base@DV?$string_output_adapter@D@__crt_stdio_output@@@2@@__crt_stdio_output@@AEBA?AW4state@2@DW432@@Z 0000000180070f40 f i libucrtd:output.obj
 0001:0006ffe0       ?find_next_state@?$output_processor@DV?$string_output_adapter@D@__crt_stdio_output@@V?$standard_base@DV?$string_output_adapter@D@__crt_stdio_output@@@2@@__crt_stdio_output@@AEBA?AW4state@2@DW432@@Z 0000000180070fe0 f i libucrtd:output.obj
 0001:00070080       ?find_next_state@?$output_processor@_WV?$stream_output_adapter@_W@__crt_stdio_output@@V?$format_validation_base@_WV?$stream_output_adapter@_W@__crt_stdio_output@@@2@@__crt_stdio_output@@AEBA?AW4state@2@_WW432@@Z 0000000180071080 f i libucrtd:output.obj
 0001:00070120       ?find_next_state@?$output_processor@_WV?$stream_output_adapter@_W@__crt_stdio_output@@V?$positional_parameter_base@_WV?$stream_output_adapter@_W@__crt_stdio_output@@@2@@__crt_stdio_output@@AEBA?AW4state@2@_WW432@@Z 0000000180071120 f i libucrtd:output.obj
 0001:000701c0       ?find_next_state@?$output_processor@_WV?$stream_output_adapter@_W@__crt_stdio_output@@V?$standard_base@_WV?$stream_output_adapter@_W@__crt_stdio_output@@@2@@__crt_stdio_output@@AEBA?AW4state@2@_WW432@@Z 00000001800711c0 f i libucrtd:output.obj
 0001:00070260       ?find_next_state@?$output_processor@_WV?$string_output_adapter@_W@__crt_stdio_output@@V?$format_validation_base@_WV?$string_output_adapter@_W@__crt_stdio_output@@@2@@__crt_stdio_output@@AEBA?AW4state@2@_WW432@@Z 0000000180071260 f i libucrtd:output.obj
 0001:00070300       ?find_next_state@?$output_processor@_WV?$string_output_adapter@_W@__crt_stdio_output@@V?$positional_parameter_base@_WV?$string_output_adapter@_W@__crt_stdio_output@@@2@@__crt_stdio_output@@AEBA?AW4state@2@_WW432@@Z 0000000180071300 f i libucrtd:output.obj
 0001:000703a0       ?find_next_state@?$output_processor@_WV?$string_output_adapter@_W@__crt_stdio_output@@V?$standard_base@_WV?$string_output_adapter@_W@__crt_stdio_output@@@2@@__crt_stdio_output@@AEBA?AW4state@2@_WW432@@Z 00000001800713a0 f i libucrtd:output.obj
 0001:00070440       ?force_decimal_point@__crt_stdio_output@@YAXPEADQEAU__crt_locale_pointers@@@Z 0000000180071440 f i libucrtd:output.obj
 0001:00070540       ?force_synchronize_global_state_index@__crt_cached_ptd_host@@AEAA_KAEBV__crt_scoped_get_last_error_reset@@@Z 0000000180071540 f i libucrtd:output.obj
 0001:00070580       ?force_synchronize_per_thread_data@__crt_cached_ptd_host@@AEAAPEAU__acrt_ptd@@XZ 0000000180071580 f i libucrtd:output.obj
 0001:000705e0       ?get@?$c_string_character_source@D@__crt_strtox@@QEAADXZ 00000001800715e0 f i libucrtd:output.obj
 0001:00070620       ?get@?$c_string_character_source@_W@__crt_strtox@@QEAA_WXZ 0000000180071620 f i libucrtd:output.obj
 0001:00070660       ?get_current_state_index@__crt_state_management@@YA_KAEBV__crt_scoped_get_last_error_reset@@@Z 0000000180071660 f i libucrtd:output.obj
 0001:00070670       ?get_errno@__crt_cached_ptd_host@@QEAAAEAU?$cached@H@1@XZ 0000000180071670 f i libucrtd:output.obj
 0001:00070680       ?get_flags@__crt_stdio_stream@@QEBAJXZ 0000000180071680 f i libucrtd:output.obj
 0001:000706b0       ?get_locale@__crt_cached_ptd_host@@QEAAPEAU__crt_locale_pointers@@XZ 00000001800716b0 f i libucrtd:output.obj
 0001:000706e0       ?get_parameter_type@?$positional_parameter_base@DV?$stream_output_adapter@D@__crt_stdio_output@@@__crt_stdio_output@@CA?AW4parameter_type@12@F@Z 00000001800716e0 f i libucrtd:output.obj
 0001:000706f0       ?get_parameter_type@?$positional_parameter_base@DV?$stream_output_adapter@D@__crt_stdio_output@@@__crt_stdio_output@@CA?AW4parameter_type@12@G@Z 00000001800716f0 f i libucrtd:output.obj
 0001:00070700       ?get_parameter_type@?$positional_parameter_base@DV?$stream_output_adapter@D@__crt_stdio_output@@@__crt_stdio_output@@CA?AW4parameter_type@12@H@Z 0000000180071700 f i libucrtd:output.obj
 0001:00070710       ?get_parameter_type@?$positional_parameter_base@DV?$stream_output_adapter@D@__crt_stdio_output@@@__crt_stdio_output@@CA?AW4parameter_type@12@I@Z 0000000180071710 f i libucrtd:output.obj
 0001:00070720       ?get_parameter_type@?$positional_parameter_base@DV?$stream_output_adapter@D@__crt_stdio_output@@@__crt_stdio_output@@CA?AW4parameter_type@12@U_CRT_DOUBLE@@@Z 0000000180071720 f i libucrtd:output.obj
 0001:00070730       ?get_parameter_type@?$positional_parameter_base@DV?$stream_output_adapter@D@__crt_stdio_output@@@__crt_stdio_output@@CA?AW4parameter_type@12@_J@Z 0000000180071730 f i libucrtd:output.obj
 0001:00070740       ?get_parameter_type@?$positional_parameter_base@DV?$stream_output_adapter@D@__crt_stdio_output@@@__crt_stdio_output@@CA?AW4parameter_type@12@_K@Z 0000000180071740 f i libucrtd:output.obj
 0001:00070750       ?get_parameter_type@?$positional_parameter_base@DV?$stream_output_adapter@D@__crt_stdio_output@@@__crt_stdio_output@@CA?AW4parameter_type@12@_W@Z 0000000180071750 f i libucrtd:output.obj
 0001:00070760       ?get_parameter_type@?$positional_parameter_base@DV?$string_output_adapter@D@__crt_stdio_output@@@__crt_stdio_output@@CA?AW4parameter_type@12@F@Z 0000000180071760 f i libucrtd:output.obj
 0001:00070770       ?get_parameter_type@?$positional_parameter_base@DV?$string_output_adapter@D@__crt_stdio_output@@@__crt_stdio_output@@CA?AW4parameter_type@12@G@Z 0000000180071770 f i libucrtd:output.obj
 0001:00070780       ?get_parameter_type@?$positional_parameter_base@DV?$string_output_adapter@D@__crt_stdio_output@@@__crt_stdio_output@@CA?AW4parameter_type@12@H@Z 0000000180071780 f i libucrtd:output.obj
 0001:00070790       ?get_parameter_type@?$positional_parameter_base@DV?$string_output_adapter@D@__crt_stdio_output@@@__crt_stdio_output@@CA?AW4parameter_type@12@I@Z 0000000180071790 f i libucrtd:output.obj
 0001:000707a0       ?get_parameter_type@?$positional_parameter_base@DV?$string_output_adapter@D@__crt_stdio_output@@@__crt_stdio_output@@CA?AW4parameter_type@12@U_CRT_DOUBLE@@@Z 00000001800717a0 f i libucrtd:output.obj
 0001:000707b0       ?get_parameter_type@?$positional_parameter_base@DV?$string_output_adapter@D@__crt_stdio_output@@@__crt_stdio_output@@CA?AW4parameter_type@12@_J@Z 00000001800717b0 f i libucrtd:output.obj
 0001:000707c0       ?get_parameter_type@?$positional_parameter_base@DV?$string_output_adapter@D@__crt_stdio_output@@@__crt_stdio_output@@CA?AW4parameter_type@12@_K@Z 00000001800717c0 f i libucrtd:output.obj
 0001:000707d0       ?get_parameter_type@?$positional_parameter_base@DV?$string_output_adapter@D@__crt_stdio_output@@@__crt_stdio_output@@CA?AW4parameter_type@12@_W@Z 00000001800717d0 f i libucrtd:output.obj
 0001:000707e0       ?get_parameter_type@?$positional_parameter_base@_WV?$stream_output_adapter@_W@__crt_stdio_output@@@__crt_stdio_output@@CA?AW4parameter_type@12@F@Z 00000001800717e0 f i libucrtd:output.obj
 0001:000707f0       ?get_parameter_type@?$positional_parameter_base@_WV?$stream_output_adapter@_W@__crt_stdio_output@@@__crt_stdio_output@@CA?AW4parameter_type@12@G@Z 00000001800717f0 f i libucrtd:output.obj
 0001:00070800       ?get_parameter_type@?$positional_parameter_base@_WV?$stream_output_adapter@_W@__crt_stdio_output@@@__crt_stdio_output@@CA?AW4parameter_type@12@H@Z 0000000180071800 f i libucrtd:output.obj
 0001:00070810       ?get_parameter_type@?$positional_parameter_base@_WV?$stream_output_adapter@_W@__crt_stdio_output@@@__crt_stdio_output@@CA?AW4parameter_type@12@I@Z 0000000180071810 f i libucrtd:output.obj
 0001:00070820       ?get_parameter_type@?$positional_parameter_base@_WV?$stream_output_adapter@_W@__crt_stdio_output@@@__crt_stdio_output@@CA?AW4parameter_type@12@U_CRT_DOUBLE@@@Z 0000000180071820 f i libucrtd:output.obj
 0001:00070830       ?get_parameter_type@?$positional_parameter_base@_WV?$stream_output_adapter@_W@__crt_stdio_output@@@__crt_stdio_output@@CA?AW4parameter_type@12@_J@Z 0000000180071830 f i libucrtd:output.obj
 0001:00070840       ?get_parameter_type@?$positional_parameter_base@_WV?$stream_output_adapter@_W@__crt_stdio_output@@@__crt_stdio_output@@CA?AW4parameter_type@12@_K@Z 0000000180071840 f i libucrtd:output.obj
 0001:00070850       ?get_parameter_type@?$positional_parameter_base@_WV?$stream_output_adapter@_W@__crt_stdio_output@@@__crt_stdio_output@@CA?AW4parameter_type@12@_W@Z 0000000180071850 f i libucrtd:output.obj
 0001:00070860       ?get_parameter_type@?$positional_parameter_base@_WV?$string_output_adapter@_W@__crt_stdio_output@@@__crt_stdio_output@@CA?AW4parameter_type@12@F@Z 0000000180071860 f i libucrtd:output.obj
 0001:00070870       ?get_parameter_type@?$positional_parameter_base@_WV?$string_output_adapter@_W@__crt_stdio_output@@@__crt_stdio_output@@CA?AW4parameter_type@12@G@Z 0000000180071870 f i libucrtd:output.obj
 0001:00070880       ?get_parameter_type@?$positional_parameter_base@_WV?$string_output_adapter@_W@__crt_stdio_output@@@__crt_stdio_output@@CA?AW4parameter_type@12@H@Z 0000000180071880 f i libucrtd:output.obj
 0001:00070890       ?get_parameter_type@?$positional_parameter_base@_WV?$string_output_adapter@_W@__crt_stdio_output@@@__crt_stdio_output@@CA?AW4parameter_type@12@I@Z 0000000180071890 f i libucrtd:output.obj
 0001:000708a0       ?get_parameter_type@?$positional_parameter_base@_WV?$string_output_adapter@_W@__crt_stdio_output@@@__crt_stdio_output@@CA?AW4parameter_type@12@U_CRT_DOUBLE@@@Z 00000001800718a0 f i libucrtd:output.obj
 0001:000708b0       ?get_parameter_type@?$positional_parameter_base@_WV?$string_output_adapter@_W@__crt_stdio_output@@@__crt_stdio_output@@CA?AW4parameter_type@12@_J@Z 00000001800718b0 f i libucrtd:output.obj
 0001:000708c0       ?get_parameter_type@?$positional_parameter_base@_WV?$string_output_adapter@_W@__crt_stdio_output@@@__crt_stdio_output@@CA?AW4parameter_type@12@_K@Z 00000001800718c0 f i libucrtd:output.obj
 0001:000708d0       ?get_parameter_type@?$positional_parameter_base@_WV?$string_output_adapter@_W@__crt_stdio_output@@@__crt_stdio_output@@CA?AW4parameter_type@12@_W@Z 00000001800718d0 f i libucrtd:output.obj
 0001:000708e0       ?get_raw_ptd@__crt_cached_ptd_host@@QEAAPEAU__acrt_ptd@@XZ 00000001800718e0 f i libucrtd:output.obj
 0001:00070900       ?has_flag@?$output_processor@DV?$stream_output_adapter@D@__crt_stdio_output@@V?$format_validation_base@DV?$stream_output_adapter@D@__crt_stdio_output@@@2@@__crt_stdio_output@@AEBA_NI@Z 0000000180071900 f i libucrtd:output.obj
 0001:00070940       ?has_flag@?$output_processor@DV?$stream_output_adapter@D@__crt_stdio_output@@V?$positional_parameter_base@DV?$stream_output_adapter@D@__crt_stdio_output@@@2@@__crt_stdio_output@@AEBA_NI@Z 0000000180071940 f i libucrtd:output.obj
 0001:00070980       ?has_flag@?$output_processor@DV?$stream_output_adapter@D@__crt_stdio_output@@V?$standard_base@DV?$stream_output_adapter@D@__crt_stdio_output@@@2@@__crt_stdio_output@@AEBA_NI@Z 0000000180071980 f i libucrtd:output.obj
 0001:000709c0       ?has_flag@?$output_processor@DV?$string_output_adapter@D@__crt_stdio_output@@V?$format_validation_base@DV?$string_output_adapter@D@__crt_stdio_output@@@2@@__crt_stdio_output@@AEBA_NI@Z 00000001800719c0 f i libucrtd:output.obj
 0001:00070a00       ?has_flag@?$output_processor@DV?$string_output_adapter@D@__crt_stdio_output@@V?$positional_parameter_base@DV?$string_output_adapter@D@__crt_stdio_output@@@2@@__crt_stdio_output@@AEBA_NI@Z 0000000180071a00 f i libucrtd:output.obj
 0001:00070a40       ?has_flag@?$output_processor@DV?$string_output_adapter@D@__crt_stdio_output@@V?$standard_base@DV?$string_output_adapter@D@__crt_stdio_output@@@2@@__crt_stdio_output@@AEBA_NI@Z 0000000180071a40 f i libucrtd:output.obj
 0001:00070a80       ?has_flag@?$output_processor@_WV?$stream_output_adapter@_W@__crt_stdio_output@@V?$format_validation_base@_WV?$stream_output_adapter@_W@__crt_stdio_output@@@2@@__crt_stdio_output@@AEBA_NI@Z 0000000180071a80 f i libucrtd:output.obj
 0001:00070ac0       ?has_flag@?$output_processor@_WV?$stream_output_adapter@_W@__crt_stdio_output@@V?$positional_parameter_base@_WV?$stream_output_adapter@_W@__crt_stdio_output@@@2@@__crt_stdio_output@@AEBA_NI@Z 0000000180071ac0 f i libucrtd:output.obj
 0001:00070b00       ?has_flag@?$output_processor@_WV?$stream_output_adapter@_W@__crt_stdio_output@@V?$standard_base@_WV?$stream_output_adapter@_W@__crt_stdio_output@@@2@@__crt_stdio_output@@AEBA_NI@Z 0000000180071b00 f i libucrtd:output.obj
 0001:00070b40       ?has_flag@?$output_processor@_WV?$string_output_adapter@_W@__crt_stdio_output@@V?$format_validation_base@_WV?$string_output_adapter@_W@__crt_stdio_output@@@2@@__crt_stdio_output@@AEBA_NI@Z 0000000180071b40 f i libucrtd:output.obj
 0001:00070b80       ?has_flag@?$output_processor@_WV?$string_output_adapter@_W@__crt_stdio_output@@V?$positional_parameter_base@_WV?$string_output_adapter@_W@__crt_stdio_output@@@2@@__crt_stdio_output@@AEBA_NI@Z 0000000180071b80 f i libucrtd:output.obj
 0001:00070bc0       ?has_flag@?$output_processor@_WV?$string_output_adapter@_W@__crt_stdio_output@@V?$standard_base@_WV?$string_output_adapter@_W@__crt_stdio_output@@@2@@__crt_stdio_output@@AEBA_NI@Z 0000000180071bc0 f i libucrtd:output.obj
 0001:00070c00       ?is_positional_parameter_reappearance_consistent@?$positional_parameter_base@DV?$stream_output_adapter@D@__crt_stdio_output@@@__crt_stdio_output@@AEAA_NAEBUparameter_data@12@W4parameter_type@12@DW4length_modifier@2@@Z 0000000180071c00 f i libucrtd:output.obj
 0001:00070e60       ?is_positional_parameter_reappearance_consistent@?$positional_parameter_base@DV?$string_output_adapter@D@__crt_stdio_output@@@__crt_stdio_output@@AEAA_NAEBUparameter_data@12@W4parameter_type@12@DW4length_modifier@2@@Z 0000000180071e60 f i libucrtd:output.obj
 0001:000710c0       ?is_positional_parameter_reappearance_consistent@?$positional_parameter_base@_WV?$stream_output_adapter@_W@__crt_stdio_output@@@__crt_stdio_output@@AEAA_NAEBUparameter_data@12@W4parameter_type@12@_WW4length_modifier@2@@Z 00000001800720c0 f i libucrtd:output.obj
 0001:00071320       ?is_positional_parameter_reappearance_consistent@?$positional_parameter_base@_WV?$string_output_adapter@_W@__crt_stdio_output@@@__crt_stdio_output@@AEAA_NAEBUparameter_data@12@W4parameter_type@12@_WW4length_modifier@2@@Z 0000000180072320 f i libucrtd:output.obj
 0001:00071580       ?is_string_backed@__crt_stdio_stream@@QEBA_NXZ 0000000180072580 f i libucrtd:output.obj
 0001:000715c0       ?maximum_signed_value@__crt_strtox@@YAJK@Z 00000001800725c0 f i libucrtd:output.obj
 0001:000715d0       ?minimum_signed_value@__crt_strtox@@YAJK@Z 00000001800725d0 f i libucrtd:output.obj
 0001:000715e0       ?narrow_null_string@?$output_processor@DV?$stream_output_adapter@D@__crt_stdio_output@@V?$format_validation_base@DV?$stream_output_adapter@D@__crt_stdio_output@@@2@@__crt_stdio_output@@CAPEADXZ 00000001800725e0 f i libucrtd:output.obj
 0001:000715f0       ?narrow_null_string@?$output_processor@DV?$stream_output_adapter@D@__crt_stdio_output@@V?$positional_parameter_base@DV?$stream_output_adapter@D@__crt_stdio_output@@@2@@__crt_stdio_output@@CAPEADXZ 00000001800725f0 f i libucrtd:output.obj
 0001:00071600       ?narrow_null_string@?$output_processor@DV?$stream_output_adapter@D@__crt_stdio_output@@V?$standard_base@DV?$stream_output_adapter@D@__crt_stdio_output@@@2@@__crt_stdio_output@@CAPEADXZ 0000000180072600 f i libucrtd:output.obj
 0001:00071610       ?narrow_null_string@?$output_processor@DV?$string_output_adapter@D@__crt_stdio_output@@V?$format_validation_base@DV?$string_output_adapter@D@__crt_stdio_output@@@2@@__crt_stdio_output@@CAPEADXZ 0000000180072610 f i libucrtd:output.obj
 0001:00071620       ?narrow_null_string@?$output_processor@DV?$string_output_adapter@D@__crt_stdio_output@@V?$positional_parameter_base@DV?$string_output_adapter@D@__crt_stdio_output@@@2@@__crt_stdio_output@@CAPEADXZ 0000000180072620 f i libucrtd:output.obj
 0001:00071630       ?narrow_null_string@?$output_processor@DV?$string_output_adapter@D@__crt_stdio_output@@V?$standard_base@DV?$string_output_adapter@D@__crt_stdio_output@@@2@@__crt_stdio_output@@CAPEADXZ 0000000180072630 f i libucrtd:output.obj
 0001:00071640       ?narrow_null_string@?$output_processor@_WV?$stream_output_adapter@_W@__crt_stdio_output@@V?$format_validation_base@_WV?$stream_output_adapter@_W@__crt_stdio_output@@@2@@__crt_stdio_output@@CAPEADXZ 0000000180072640 f i libucrtd:output.obj
 0001:00071650       ?narrow_null_string@?$output_processor@_WV?$stream_output_adapter@_W@__crt_stdio_output@@V?$positional_parameter_base@_WV?$stream_output_adapter@_W@__crt_stdio_output@@@2@@__crt_stdio_output@@CAPEADXZ 0000000180072650 f i libucrtd:output.obj
 0001:00071660       ?narrow_null_string@?$output_processor@_WV?$stream_output_adapter@_W@__crt_stdio_output@@V?$standard_base@_WV?$stream_output_adapter@_W@__crt_stdio_output@@@2@@__crt_stdio_output@@CAPEADXZ 0000000180072660 f i libucrtd:output.obj
 0001:00071670       ?narrow_null_string@?$output_processor@_WV?$string_output_adapter@_W@__crt_stdio_output@@V?$format_validation_base@_WV?$string_output_adapter@_W@__crt_stdio_output@@@2@@__crt_stdio_output@@CAPEADXZ 0000000180072670 f i libucrtd:output.obj
 0001:00071680       ?narrow_null_string@?$output_processor@_WV?$string_output_adapter@_W@__crt_stdio_output@@V?$positional_parameter_base@_WV?$string_output_adapter@_W@__crt_stdio_output@@@2@@__crt_stdio_output@@CAPEADXZ 0000000180072680 f i libucrtd:output.obj
 0001:00071690       ?narrow_null_string@?$output_processor@_WV?$string_output_adapter@_W@__crt_stdio_output@@V?$standard_base@_WV?$string_output_adapter@_W@__crt_stdio_output@@@2@@__crt_stdio_output@@CAPEADXZ 0000000180072690 f i libucrtd:output.obj
 0001:000716a0       ?parse_digit@__crt_strtox@@YAID@Z 00000001800726a0 f i libucrtd:output.obj
 0001:00071710       ?parse_digit@__crt_strtox@@YAI_W@Z 0000000180072710 f i libucrtd:output.obj
 0001:00071760       ?parse_int_from_format_string@?$output_processor@DV?$stream_output_adapter@D@__crt_stdio_output@@V?$format_validation_base@DV?$stream_output_adapter@D@__crt_stdio_output@@@2@@__crt_stdio_output@@AEAA_NQEAH@Z 0000000180072760 f i libucrtd:output.obj
 0001:00071860       ?parse_int_from_format_string@?$output_processor@DV?$stream_output_adapter@D@__crt_stdio_output@@V?$positional_parameter_base@DV?$stream_output_adapter@D@__crt_stdio_output@@@2@@__crt_stdio_output@@AEAA_NQEAH@Z 0000000180072860 f i libucrtd:output.obj
 0001:00071960       ?parse_int_from_format_string@?$output_processor@DV?$stream_output_adapter@D@__crt_stdio_output@@V?$standard_base@DV?$stream_output_adapter@D@__crt_stdio_output@@@2@@__crt_stdio_output@@AEAA_NQEAH@Z 0000000180072960 f i libucrtd:output.obj
 0001:00071a60       ?parse_int_from_format_string@?$output_processor@DV?$string_output_adapter@D@__crt_stdio_output@@V?$format_validation_base@DV?$string_output_adapter@D@__crt_stdio_output@@@2@@__crt_stdio_output@@AEAA_NQEAH@Z 0000000180072a60 f i libucrtd:output.obj
 0001:00071b60       ?parse_int_from_format_string@?$output_processor@DV?$string_output_adapter@D@__crt_stdio_output@@V?$positional_parameter_base@DV?$string_output_adapter@D@__crt_stdio_output@@@2@@__crt_stdio_output@@AEAA_NQEAH@Z 0000000180072b60 f i libucrtd:output.obj
 0001:00071c60       ?parse_int_from_format_string@?$output_processor@DV?$string_output_adapter@D@__crt_stdio_output@@V?$standard_base@DV?$string_output_adapter@D@__crt_stdio_output@@@2@@__crt_stdio_output@@AEAA_NQEAH@Z 0000000180072c60 f i libucrtd:output.obj
 0001:00071d60       ?parse_int_from_format_string@?$output_processor@_WV?$stream_output_adapter@_W@__crt_stdio_output@@V?$format_validation_base@_WV?$stream_output_adapter@_W@__crt_stdio_output@@@2@@__crt_stdio_output@@AEAA_NQEAH@Z 0000000180072d60 f i libucrtd:output.obj
 0001:00071e60       ?parse_int_from_format_string@?$output_processor@_WV?$stream_output_adapter@_W@__crt_stdio_output@@V?$positional_parameter_base@_WV?$stream_output_adapter@_W@__crt_stdio_output@@@2@@__crt_stdio_output@@AEAA_NQEAH@Z 0000000180072e60 f i libucrtd:output.obj
 0001:00071f60       ?parse_int_from_format_string@?$output_processor@_WV?$stream_output_adapter@_W@__crt_stdio_output@@V?$standard_base@_WV?$stream_output_adapter@_W@__crt_stdio_output@@@2@@__crt_stdio_output@@AEAA_NQEAH@Z 0000000180072f60 f i libucrtd:output.obj
 0001:00072060       ?parse_int_from_format_string@?$output_processor@_WV?$string_output_adapter@_W@__crt_stdio_output@@V?$format_validation_base@_WV?$string_output_adapter@_W@__crt_stdio_output@@@2@@__crt_stdio_output@@AEAA_NQEAH@Z 0000000180073060 f i libucrtd:output.obj
 0001:00072160       ?parse_int_from_format_string@?$output_processor@_WV?$string_output_adapter@_W@__crt_stdio_output@@V?$positional_parameter_base@_WV?$string_output_adapter@_W@__crt_stdio_output@@@2@@__crt_stdio_output@@AEAA_NQEAH@Z 0000000180073160 f i libucrtd:output.obj
 0001:00072260       ?parse_int_from_format_string@?$output_processor@_WV?$string_output_adapter@_W@__crt_stdio_output@@V?$standard_base@_WV?$string_output_adapter@_W@__crt_stdio_output@@@2@@__crt_stdio_output@@AEAA_NQEAH@Z 0000000180073260 f i libucrtd:output.obj
 0001:00072360       ?process@?$output_processor@DV?$stream_output_adapter@D@__crt_stdio_output@@V?$format_validation_base@DV?$stream_output_adapter@D@__crt_stdio_output@@@2@@__crt_stdio_output@@QEAAHXZ 0000000180073360 f i libucrtd:output.obj
 0001:00072720       ?process@?$output_processor@DV?$stream_output_adapter@D@__crt_stdio_output@@V?$positional_parameter_base@DV?$stream_output_adapter@D@__crt_stdio_output@@@2@@__crt_stdio_output@@QEAAHXZ 0000000180073720 f i libucrtd:output.obj
 0001:00072ae0       ?process@?$output_processor@DV?$stream_output_adapter@D@__crt_stdio_output@@V?$standard_base@DV?$stream_output_adapter@D@__crt_stdio_output@@@2@@__crt_stdio_output@@QEAAHXZ 0000000180073ae0 f i libucrtd:output.obj
 0001:00072ea0       ?process@?$output_processor@DV?$string_output_adapter@D@__crt_stdio_output@@V?$format_validation_base@DV?$string_output_adapter@D@__crt_stdio_output@@@2@@__crt_stdio_output@@QEAAHXZ 0000000180073ea0 f i libucrtd:output.obj
 0001:00073260       ?process@?$output_processor@DV?$string_output_adapter@D@__crt_stdio_output@@V?$positional_parameter_base@DV?$string_output_adapter@D@__crt_stdio_output@@@2@@__crt_stdio_output@@QEAAHXZ 0000000180074260 f i libucrtd:output.obj
 0001:00073620       ?process@?$output_processor@DV?$string_output_adapter@D@__crt_stdio_output@@V?$standard_base@DV?$string_output_adapter@D@__crt_stdio_output@@@2@@__crt_stdio_output@@QEAAHXZ 0000000180074620 f i libucrtd:output.obj
 0001:000739e0       ?process@?$output_processor@_WV?$stream_output_adapter@_W@__crt_stdio_output@@V?$format_validation_base@_WV?$stream_output_adapter@_W@__crt_stdio_output@@@2@@__crt_stdio_output@@QEAAHXZ 00000001800749e0 f i libucrtd:output.obj
 0001:00073da0       ?process@?$output_processor@_WV?$stream_output_adapter@_W@__crt_stdio_output@@V?$positional_parameter_base@_WV?$stream_output_adapter@_W@__crt_stdio_output@@@2@@__crt_stdio_output@@QEAAHXZ 0000000180074da0 f i libucrtd:output.obj
 0001:00074160       ?process@?$output_processor@_WV?$stream_output_adapter@_W@__crt_stdio_output@@V?$standard_base@_WV?$stream_output_adapter@_W@__crt_stdio_output@@@2@@__crt_stdio_output@@QEAAHXZ 0000000180075160 f i libucrtd:output.obj
 0001:00074520       ?process@?$output_processor@_WV?$string_output_adapter@_W@__crt_stdio_output@@V?$format_validation_base@_WV?$string_output_adapter@_W@__crt_stdio_output@@@2@@__crt_stdio_output@@QEAAHXZ 0000000180075520 f i libucrtd:output.obj
 0001:000748e0       ?process@?$output_processor@_WV?$string_output_adapter@_W@__crt_stdio_output@@V?$positional_parameter_base@_WV?$string_output_adapter@_W@__crt_stdio_output@@@2@@__crt_stdio_output@@QEAAHXZ 00000001800758e0 f i libucrtd:output.obj
 0001:00074ca0       ?process@?$output_processor@_WV?$string_output_adapter@_W@__crt_stdio_output@@V?$standard_base@_WV?$string_output_adapter@_W@__crt_stdio_output@@@2@@__crt_stdio_output@@QEAAHXZ 0000000180075ca0 f i libucrtd:output.obj
 0001:00075060       ?public_stream@__crt_stdio_stream@@QEBAPEAU_iobuf@@XZ 0000000180076060 f i libucrtd:output.obj
 0001:00075070       ?restore_state@?$c_string_character_source@D@__crt_strtox@@QEAA_NQEBD@Z 0000000180076070 f i libucrtd:output.obj
 0001:00075090       ?restore_state@?$c_string_character_source@_W@__crt_strtox@@QEAA_NQEB_W@Z 0000000180076090 f i libucrtd:output.obj
 0001:000750b0       ?save_state@?$c_string_character_source@D@__crt_strtox@@QEBAPEBDXZ 00000001800760b0 f i libucrtd:output.obj
 0001:000750c0       ?save_state@?$c_string_character_source@_W@__crt_strtox@@QEBAPEB_WXZ 00000001800760c0 f i libucrtd:output.obj
 0001:000750d0       ?set@?$cached@H@__crt_cached_ptd_host@@QEAAHH@Z 00000001800760d0 f i libucrtd:output.obj
 0001:00075100       ?set_flag@?$output_processor@DV?$stream_output_adapter@D@__crt_stdio_output@@V?$format_validation_base@DV?$stream_output_adapter@D@__crt_stdio_output@@@2@@__crt_stdio_output@@AEAAXI@Z 0000000180076100 f i libucrtd:output.obj
 0001:00075120       ?set_flag@?$output_processor@DV?$stream_output_adapter@D@__crt_stdio_output@@V?$positional_parameter_base@DV?$stream_output_adapter@D@__crt_stdio_output@@@2@@__crt_stdio_output@@AEAAXI@Z 0000000180076120 f i libucrtd:output.obj
 0001:00075140       ?set_flag@?$output_processor@DV?$stream_output_adapter@D@__crt_stdio_output@@V?$standard_base@DV?$stream_output_adapter@D@__crt_stdio_output@@@2@@__crt_stdio_output@@AEAAXI@Z 0000000180076140 f i libucrtd:output.obj
 0001:00075160       ?set_flag@?$output_processor@DV?$string_output_adapter@D@__crt_stdio_output@@V?$format_validation_base@DV?$string_output_adapter@D@__crt_stdio_output@@@2@@__crt_stdio_output@@AEAAXI@Z 0000000180076160 f i libucrtd:output.obj
 0001:00075180       ?set_flag@?$output_processor@DV?$string_output_adapter@D@__crt_stdio_output@@V?$positional_parameter_base@DV?$string_output_adapter@D@__crt_stdio_output@@@2@@__crt_stdio_output@@AEAAXI@Z 0000000180076180 f i libucrtd:output.obj
 0001:000751a0       ?set_flag@?$output_processor@DV?$string_output_adapter@D@__crt_stdio_output@@V?$standard_base@DV?$string_output_adapter@D@__crt_stdio_output@@@2@@__crt_stdio_output@@AEAAXI@Z 00000001800761a0 f i libucrtd:output.obj
 0001:000751c0       ?set_flag@?$output_processor@_WV?$stream_output_adapter@_W@__crt_stdio_output@@V?$format_validation_base@_WV?$stream_output_adapter@_W@__crt_stdio_output@@@2@@__crt_stdio_output@@AEAAXI@Z 00000001800761c0 f i libucrtd:output.obj
 0001:000751e0       ?set_flag@?$output_processor@_WV?$stream_output_adapter@_W@__crt_stdio_output@@V?$positional_parameter_base@_WV?$stream_output_adapter@_W@__crt_stdio_output@@@2@@__crt_stdio_output@@AEAAXI@Z 00000001800761e0 f i libucrtd:output.obj
 0001:00075200       ?set_flag@?$output_processor@_WV?$stream_output_adapter@_W@__crt_stdio_output@@V?$standard_base@_WV?$stream_output_adapter@_W@__crt_stdio_output@@@2@@__crt_stdio_output@@AEAAXI@Z 0000000180076200 f i libucrtd:output.obj
 0001:00075220       ?set_flag@?$output_processor@_WV?$string_output_adapter@_W@__crt_stdio_output@@V?$format_validation_base@_WV?$string_output_adapter@_W@__crt_stdio_output@@@2@@__crt_stdio_output@@AEAAXI@Z 0000000180076220 f i libucrtd:output.obj
 0001:00075240       ?set_flag@?$output_processor@_WV?$string_output_adapter@_W@__crt_stdio_output@@V?$positional_parameter_base@_WV?$string_output_adapter@_W@__crt_stdio_output@@@2@@__crt_stdio_output@@AEAAXI@Z 0000000180076240 f i libucrtd:output.obj
 0001:00075260       ?set_flag@?$output_processor@_WV?$string_output_adapter@_W@__crt_stdio_output@@V?$standard_base@_WV?$string_output_adapter@_W@__crt_stdio_output@@@2@@__crt_stdio_output@@AEAAXI@Z 0000000180076260 f i libucrtd:output.obj
 0001:00075280       ?should_format@?$positional_parameter_base@DV?$stream_output_adapter@D@__crt_stdio_output@@@__crt_stdio_output@@IEAA_NXZ 0000000180076280 f i libucrtd:output.obj
 0001:000752c0       ?should_format@?$positional_parameter_base@DV?$string_output_adapter@D@__crt_stdio_output@@@__crt_stdio_output@@IEAA_NXZ 00000001800762c0 f i libucrtd:output.obj
 0001:00075300       ?should_format@?$positional_parameter_base@_WV?$stream_output_adapter@_W@__crt_stdio_output@@@__crt_stdio_output@@IEAA_NXZ 0000000180076300 f i libucrtd:output.obj
 0001:00075340       ?should_format@?$positional_parameter_base@_WV?$string_output_adapter@_W@__crt_stdio_output@@@__crt_stdio_output@@IEAA_NXZ 0000000180076340 f i libucrtd:output.obj
 0001:00075380       ?should_format@?$standard_base@DV?$stream_output_adapter@D@__crt_stdio_output@@@__crt_stdio_output@@IEAA_NXZ 0000000180076380 f i libucrtd:output.obj
 0001:00075390       ?should_format@?$standard_base@DV?$string_output_adapter@D@__crt_stdio_output@@@__crt_stdio_output@@IEAA_NXZ 0000000180076390 f i libucrtd:output.obj
 0001:000753a0       ?should_format@?$standard_base@_WV?$stream_output_adapter@_W@__crt_stdio_output@@@__crt_stdio_output@@IEAA_NXZ 00000001800763a0 f i libucrtd:output.obj
 0001:000753b0       ?should_format@?$standard_base@_WV?$string_output_adapter@_W@__crt_stdio_output@@@__crt_stdio_output@@IEAA_NXZ 00000001800763b0 f i libucrtd:output.obj
 0001:000753c0       ?should_skip_normal_state_processing@?$positional_parameter_base@DV?$stream_output_adapter@D@__crt_stdio_output@@@__crt_stdio_output@@IEAA_NXZ 00000001800763c0 f i libucrtd:output.obj
 0001:00075410       ?should_skip_normal_state_processing@?$positional_parameter_base@DV?$string_output_adapter@D@__crt_stdio_output@@@__crt_stdio_output@@IEAA_NXZ 0000000180076410 f i libucrtd:output.obj
 0001:00075460       ?should_skip_normal_state_processing@?$positional_parameter_base@_WV?$stream_output_adapter@_W@__crt_stdio_output@@@__crt_stdio_output@@IEAA_NXZ 0000000180076460 f i libucrtd:output.obj
 0001:000754b0       ?should_skip_normal_state_processing@?$positional_parameter_base@_WV?$string_output_adapter@_W@__crt_stdio_output@@@__crt_stdio_output@@IEAA_NXZ 00000001800764b0 f i libucrtd:output.obj
 0001:00075500       ?should_skip_normal_state_processing@?$standard_base@DV?$stream_output_adapter@D@__crt_stdio_output@@@__crt_stdio_output@@IEAA_NXZ 0000000180076500 f i libucrtd:output.obj
 0001:00075510       ?should_skip_normal_state_processing@?$standard_base@DV?$string_output_adapter@D@__crt_stdio_output@@@__crt_stdio_output@@IEAA_NXZ 0000000180076510 f i libucrtd:output.obj
 0001:00075520       ?should_skip_normal_state_processing@?$standard_base@_WV?$stream_output_adapter@_W@__crt_stdio_output@@@__crt_stdio_output@@IEAA_NXZ 0000000180076520 f i libucrtd:output.obj
 0001:00075530       ?should_skip_normal_state_processing@?$standard_base@_WV?$string_output_adapter@_W@__crt_stdio_output@@@__crt_stdio_output@@IEAA_NXZ 0000000180076530 f i libucrtd:output.obj
 0001:00075540       ?should_skip_type_state_output@?$positional_parameter_base@DV?$stream_output_adapter@D@__crt_stdio_output@@@__crt_stdio_output@@IEBA_NXZ 0000000180076540 f i libucrtd:output.obj
 0001:00075580       ?should_skip_type_state_output@?$positional_parameter_base@DV?$string_output_adapter@D@__crt_stdio_output@@@__crt_stdio_output@@IEBA_NXZ 0000000180076580 f i libucrtd:output.obj
 0001:000755c0       ?should_skip_type_state_output@?$positional_parameter_base@_WV?$stream_output_adapter@_W@__crt_stdio_output@@@__crt_stdio_output@@IEBA_NXZ 00000001800765c0 f i libucrtd:output.obj
 0001:00075600       ?should_skip_type_state_output@?$positional_parameter_base@_WV?$string_output_adapter@_W@__crt_stdio_output@@@__crt_stdio_output@@IEBA_NXZ 0000000180076600 f i libucrtd:output.obj
 0001:00075640       ?should_skip_type_state_output@?$standard_base@DV?$stream_output_adapter@D@__crt_stdio_output@@@__crt_stdio_output@@IEBA_NXZ 0000000180076640 f i libucrtd:output.obj
 0001:00075650       ?should_skip_type_state_output@?$standard_base@DV?$string_output_adapter@D@__crt_stdio_output@@@__crt_stdio_output@@IEBA_NXZ 0000000180076650 f i libucrtd:output.obj
 0001:00075660       ?should_skip_type_state_output@?$standard_base@_WV?$stream_output_adapter@_W@__crt_stdio_output@@@__crt_stdio_output@@IEBA_NXZ 0000000180076660 f i libucrtd:output.obj
 0001:00075670       ?should_skip_type_state_output@?$standard_base@_WV?$string_output_adapter@_W@__crt_stdio_output@@@__crt_stdio_output@@IEBA_NXZ 0000000180076670 f i libucrtd:output.obj
 0001:00075680       ?state_case_dot@?$output_processor@DV?$stream_output_adapter@D@__crt_stdio_output@@V?$format_validation_base@DV?$stream_output_adapter@D@__crt_stdio_output@@@2@@__crt_stdio_output@@AEAA_NXZ 0000000180076680 f i libucrtd:output.obj
 0001:000756a0       ?state_case_dot@?$output_processor@DV?$stream_output_adapter@D@__crt_stdio_output@@V?$positional_parameter_base@DV?$stream_output_adapter@D@__crt_stdio_output@@@2@@__crt_stdio_output@@AEAA_NXZ 00000001800766a0 f i libucrtd:output.obj
 0001:000756c0       ?state_case_dot@?$output_processor@DV?$stream_output_adapter@D@__crt_stdio_output@@V?$standard_base@DV?$stream_output_adapter@D@__crt_stdio_output@@@2@@__crt_stdio_output@@AEAA_NXZ 00000001800766c0 f i libucrtd:output.obj
 0001:000756e0       ?state_case_dot@?$output_processor@DV?$string_output_adapter@D@__crt_stdio_output@@V?$format_validation_base@DV?$string_output_adapter@D@__crt_stdio_output@@@2@@__crt_stdio_output@@AEAA_NXZ 00000001800766e0 f i libucrtd:output.obj
 0001:00075700       ?state_case_dot@?$output_processor@DV?$string_output_adapter@D@__crt_stdio_output@@V?$positional_parameter_base@DV?$string_output_adapter@D@__crt_stdio_output@@@2@@__crt_stdio_output@@AEAA_NXZ 0000000180076700 f i libucrtd:output.obj
 0001:00075720       ?state_case_dot@?$output_processor@DV?$string_output_adapter@D@__crt_stdio_output@@V?$standard_base@DV?$string_output_adapter@D@__crt_stdio_output@@@2@@__crt_stdio_output@@AEAA_NXZ 0000000180076720 f i libucrtd:output.obj
 0001:00075740       ?state_case_dot@?$output_processor@_WV?$stream_output_adapter@_W@__crt_stdio_output@@V?$format_validation_base@_WV?$stream_output_adapter@_W@__crt_stdio_output@@@2@@__crt_stdio_output@@AEAA_NXZ 0000000180076740 f i libucrtd:output.obj
 0001:00075760       ?state_case_dot@?$output_processor@_WV?$stream_output_adapter@_W@__crt_stdio_output@@V?$positional_parameter_base@_WV?$stream_output_adapter@_W@__crt_stdio_output@@@2@@__crt_stdio_output@@AEAA_NXZ 0000000180076760 f i libucrtd:output.obj
 0001:00075780       ?state_case_dot@?$output_processor@_WV?$stream_output_adapter@_W@__crt_stdio_output@@V?$standard_base@_WV?$stream_output_adapter@_W@__crt_stdio_output@@@2@@__crt_stdio_output@@AEAA_NXZ 0000000180076780 f i libucrtd:output.obj
 0001:000757a0       ?state_case_dot@?$output_processor@_WV?$string_output_adapter@_W@__crt_stdio_output@@V?$format_validation_base@_WV?$string_output_adapter@_W@__crt_stdio_output@@@2@@__crt_stdio_output@@AEAA_NXZ 00000001800767a0 f i libucrtd:output.obj
 0001:000757c0       ?state_case_dot@?$output_processor@_WV?$string_output_adapter@_W@__crt_stdio_output@@V?$positional_parameter_base@_WV?$string_output_adapter@_W@__crt_stdio_output@@@2@@__crt_stdio_output@@AEAA_NXZ 00000001800767c0 f i libucrtd:output.obj
 0001:000757e0       ?state_case_dot@?$output_processor@_WV?$string_output_adapter@_W@__crt_stdio_output@@V?$standard_base@_WV?$string_output_adapter@_W@__crt_stdio_output@@@2@@__crt_stdio_output@@AEAA_NXZ 00000001800767e0 f i libucrtd:output.obj
 0001:00075800       ?state_case_flag@?$output_processor@DV?$stream_output_adapter@D@__crt_stdio_output@@V?$format_validation_base@DV?$stream_output_adapter@D@__crt_stdio_output@@@2@@__crt_stdio_output@@AEAA_NXZ 0000000180076800 f i libucrtd:output.obj
 0001:000758a0       ?state_case_flag@?$output_processor@DV?$stream_output_adapter@D@__crt_stdio_output@@V?$positional_parameter_base@DV?$stream_output_adapter@D@__crt_stdio_output@@@2@@__crt_stdio_output@@AEAA_NXZ 00000001800768a0 f i libucrtd:output.obj
 0001:00075940       ?state_case_flag@?$output_processor@DV?$stream_output_adapter@D@__crt_stdio_output@@V?$standard_base@DV?$stream_output_adapter@D@__crt_stdio_output@@@2@@__crt_stdio_output@@AEAA_NXZ 0000000180076940 f i libucrtd:output.obj
 0001:000759e0       ?state_case_flag@?$output_processor@DV?$string_output_adapter@D@__crt_stdio_output@@V?$format_validation_base@DV?$string_output_adapter@D@__crt_stdio_output@@@2@@__crt_stdio_output@@AEAA_NXZ 00000001800769e0 f i libucrtd:output.obj
 0001:00075a80       ?state_case_flag@?$output_processor@DV?$string_output_adapter@D@__crt_stdio_output@@V?$positional_parameter_base@DV?$string_output_adapter@D@__crt_stdio_output@@@2@@__crt_stdio_output@@AEAA_NXZ 0000000180076a80 f i libucrtd:output.obj
 0001:00075b20       ?state_case_flag@?$output_processor@DV?$string_output_adapter@D@__crt_stdio_output@@V?$standard_base@DV?$string_output_adapter@D@__crt_stdio_output@@@2@@__crt_stdio_output@@AEAA_NXZ 0000000180076b20 f i libucrtd:output.obj
 0001:00075bc0       ?state_case_flag@?$output_processor@_WV?$stream_output_adapter@_W@__crt_stdio_output@@V?$format_validation_base@_WV?$stream_output_adapter@_W@__crt_stdio_output@@@2@@__crt_stdio_output@@AEAA_NXZ 0000000180076bc0 f i libucrtd:output.obj
 0001:00075c60       ?state_case_flag@?$output_processor@_WV?$stream_output_adapter@_W@__crt_stdio_output@@V?$positional_parameter_base@_WV?$stream_output_adapter@_W@__crt_stdio_output@@@2@@__crt_stdio_output@@AEAA_NXZ 0000000180076c60 f i libucrtd:output.obj
 0001:00075d00       ?state_case_flag@?$output_processor@_WV?$stream_output_adapter@_W@__crt_stdio_output@@V?$standard_base@_WV?$stream_output_adapter@_W@__crt_stdio_output@@@2@@__crt_stdio_output@@AEAA_NXZ 0000000180076d00 f i libucrtd:output.obj
 0001:00075da0       ?state_case_flag@?$output_processor@_WV?$string_output_adapter@_W@__crt_stdio_output@@V?$format_validation_base@_WV?$string_output_adapter@_W@__crt_stdio_output@@@2@@__crt_stdio_output@@AEAA_NXZ 0000000180076da0 f i libucrtd:output.obj
 0001:00075e40       ?state_case_flag@?$output_processor@_WV?$string_output_adapter@_W@__crt_stdio_output@@V?$positional_parameter_base@_WV?$string_output_adapter@_W@__crt_stdio_output@@@2@@__crt_stdio_output@@AEAA_NXZ 0000000180076e40 f i libucrtd:output.obj
 0001:00075ee0       ?state_case_flag@?$output_processor@_WV?$string_output_adapter@_W@__crt_stdio_output@@V?$standard_base@_WV?$string_output_adapter@_W@__crt_stdio_output@@@2@@__crt_stdio_output@@AEAA_NXZ 0000000180076ee0 f i libucrtd:output.obj
 0001:00075f80       ?state_case_normal@?$output_processor@DV?$stream_output_adapter@D@__crt_stdio_output@@V?$format_validation_base@DV?$stream_output_adapter@D@__crt_stdio_output@@@2@@__crt_stdio_output@@AEAA_NXZ 0000000180076f80 f i libucrtd:output.obj
 0001:00076080       ?state_case_normal@?$output_processor@DV?$stream_output_adapter@D@__crt_stdio_output@@V?$positional_parameter_base@DV?$stream_output_adapter@D@__crt_stdio_output@@@2@@__crt_stdio_output@@AEAA_NXZ 0000000180077080 f i libucrtd:output.obj
 0001:00076180       ?state_case_normal@?$output_processor@DV?$stream_output_adapter@D@__crt_stdio_output@@V?$standard_base@DV?$stream_output_adapter@D@__crt_stdio_output@@@2@@__crt_stdio_output@@AEAA_NXZ 0000000180077180 f i libucrtd:output.obj
 0001:00076280       ?state_case_normal@?$output_processor@DV?$string_output_adapter@D@__crt_stdio_output@@V?$format_validation_base@DV?$string_output_adapter@D@__crt_stdio_output@@@2@@__crt_stdio_output@@AEAA_NXZ 0000000180077280 f i libucrtd:output.obj
 0001:00076380       ?state_case_normal@?$output_processor@DV?$string_output_adapter@D@__crt_stdio_output@@V?$positional_parameter_base@DV?$string_output_adapter@D@__crt_stdio_output@@@2@@__crt_stdio_output@@AEAA_NXZ 0000000180077380 f i libucrtd:output.obj
 0001:00076480       ?state_case_normal@?$output_processor@DV?$string_output_adapter@D@__crt_stdio_output@@V?$standard_base@DV?$string_output_adapter@D@__crt_stdio_output@@@2@@__crt_stdio_output@@AEAA_NXZ 0000000180077480 f i libucrtd:output.obj
 0001:00076580       ?state_case_normal@?$output_processor@_WV?$stream_output_adapter@_W@__crt_stdio_output@@V?$format_validation_base@_WV?$stream_output_adapter@_W@__crt_stdio_output@@@2@@__crt_stdio_output@@AEAA_NXZ 0000000180077580 f i libucrtd:output.obj
 0001:00076680       ?state_case_normal@?$output_processor@_WV?$stream_output_adapter@_W@__crt_stdio_output@@V?$positional_parameter_base@_WV?$stream_output_adapter@_W@__crt_stdio_output@@@2@@__crt_stdio_output@@AEAA_NXZ 0000000180077680 f i libucrtd:output.obj
 0001:00076780       ?state_case_normal@?$output_processor@_WV?$stream_output_adapter@_W@__crt_stdio_output@@V?$standard_base@_WV?$stream_output_adapter@_W@__crt_stdio_output@@@2@@__crt_stdio_output@@AEAA_NXZ 0000000180077780 f i libucrtd:output.obj
 0001:00076880       ?state_case_normal@?$output_processor@_WV?$string_output_adapter@_W@__crt_stdio_output@@V?$format_validation_base@_WV?$string_output_adapter@_W@__crt_stdio_output@@@2@@__crt_stdio_output@@AEAA_NXZ 0000000180077880 f i libucrtd:output.obj
 0001:00076980       ?state_case_normal@?$output_processor@_WV?$string_output_adapter@_W@__crt_stdio_output@@V?$positional_parameter_base@_WV?$string_output_adapter@_W@__crt_stdio_output@@@2@@__crt_stdio_output@@AEAA_NXZ 0000000180077980 f i libucrtd:output.obj
 0001:00076a80       ?state_case_normal@?$output_processor@_WV?$string_output_adapter@_W@__crt_stdio_output@@V?$standard_base@_WV?$string_output_adapter@_W@__crt_stdio_output@@@2@@__crt_stdio_output@@AEAA_NXZ 0000000180077a80 f i libucrtd:output.obj
 0001:00076b80       ?state_case_normal_common@?$output_processor@DV?$stream_output_adapter@D@__crt_stdio_output@@V?$format_validation_base@DV?$stream_output_adapter@D@__crt_stdio_output@@@2@@__crt_stdio_output@@AEAA_NXZ 0000000180077b80 f i libucrtd:output.obj
 0001:00076be0       ?state_case_normal_common@?$output_processor@DV?$stream_output_adapter@D@__crt_stdio_output@@V?$positional_parameter_base@DV?$stream_output_adapter@D@__crt_stdio_output@@@2@@__crt_stdio_output@@AEAA_NXZ 0000000180077be0 f i libucrtd:output.obj
 0001:00076c40       ?state_case_normal_common@?$output_processor@DV?$stream_output_adapter@D@__crt_stdio_output@@V?$standard_base@DV?$stream_output_adapter@D@__crt_stdio_output@@@2@@__crt_stdio_output@@AEAA_NXZ 0000000180077c40 f i libucrtd:output.obj
 0001:00076ca0       ?state_case_normal_common@?$output_processor@DV?$string_output_adapter@D@__crt_stdio_output@@V?$format_validation_base@DV?$string_output_adapter@D@__crt_stdio_output@@@2@@__crt_stdio_output@@AEAA_NXZ 0000000180077ca0 f i libucrtd:output.obj
 0001:00076d00       ?state_case_normal_common@?$output_processor@DV?$string_output_adapter@D@__crt_stdio_output@@V?$positional_parameter_base@DV?$string_output_adapter@D@__crt_stdio_output@@@2@@__crt_stdio_output@@AEAA_NXZ 0000000180077d00 f i libucrtd:output.obj
 0001:00076d60       ?state_case_normal_common@?$output_processor@DV?$string_output_adapter@D@__crt_stdio_output@@V?$standard_base@DV?$string_output_adapter@D@__crt_stdio_output@@@2@@__crt_stdio_output@@AEAA_NXZ 0000000180077d60 f i libucrtd:output.obj
 0001:00076dc0       ?state_case_normal_common@?$output_processor@_WV?$stream_output_adapter@_W@__crt_stdio_output@@V?$format_validation_base@_WV?$stream_output_adapter@_W@__crt_stdio_output@@@2@@__crt_stdio_output@@AEAA_NXZ 0000000180077dc0 f i libucrtd:output.obj
 0001:00076e20       ?state_case_normal_common@?$output_processor@_WV?$stream_output_adapter@_W@__crt_stdio_output@@V?$positional_parameter_base@_WV?$stream_output_adapter@_W@__crt_stdio_output@@@2@@__crt_stdio_output@@AEAA_NXZ 0000000180077e20 f i libucrtd:output.obj
 0001:00076e80       ?state_case_normal_common@?$output_processor@_WV?$stream_output_adapter@_W@__crt_stdio_output@@V?$standard_base@_WV?$stream_output_adapter@_W@__crt_stdio_output@@@2@@__crt_stdio_output@@AEAA_NXZ 0000000180077e80 f i libucrtd:output.obj
 0001:00076ee0       ?state_case_normal_common@?$output_processor@_WV?$string_output_adapter@_W@__crt_stdio_output@@V?$format_validation_base@_WV?$string_output_adapter@_W@__crt_stdio_output@@@2@@__crt_stdio_output@@AEAA_NXZ 0000000180077ee0 f i libucrtd:output.obj
 0001:00076f40       ?state_case_normal_common@?$output_processor@_WV?$string_output_adapter@_W@__crt_stdio_output@@V?$positional_parameter_base@_WV?$string_output_adapter@_W@__crt_stdio_output@@@2@@__crt_stdio_output@@AEAA_NXZ 0000000180077f40 f i libucrtd:output.obj
 0001:00076fa0       ?state_case_normal_common@?$output_processor@_WV?$string_output_adapter@_W@__crt_stdio_output@@V?$standard_base@_WV?$string_output_adapter@_W@__crt_stdio_output@@@2@@__crt_stdio_output@@AEAA_NXZ 0000000180077fa0 f i libucrtd:output.obj
 0001:00077000       ?state_case_normal_tchar@?$output_processor@DV?$stream_output_adapter@D@__crt_stdio_output@@V?$format_validation_base@DV?$stream_output_adapter@D@__crt_stdio_output@@@2@@__crt_stdio_output@@AEAA_ND@Z 0000000180078000 f i libucrtd:output.obj
 0001:00077190       ?state_case_normal_tchar@?$output_processor@DV?$stream_output_adapter@D@__crt_stdio_output@@V?$positional_parameter_base@DV?$stream_output_adapter@D@__crt_stdio_output@@@2@@__crt_stdio_output@@AEAA_ND@Z 0000000180078190 f i libucrtd:output.obj
 0001:00077320       ?state_case_normal_tchar@?$output_processor@DV?$stream_output_adapter@D@__crt_stdio_output@@V?$standard_base@DV?$stream_output_adapter@D@__crt_stdio_output@@@2@@__crt_stdio_output@@AEAA_ND@Z 0000000180078320 f i libucrtd:output.obj
 0001:000774b0       ?state_case_normal_tchar@?$output_processor@DV?$string_output_adapter@D@__crt_stdio_output@@V?$format_validation_base@DV?$string_output_adapter@D@__crt_stdio_output@@@2@@__crt_stdio_output@@AEAA_ND@Z 00000001800784b0 f i libucrtd:output.obj
 0001:00077640       ?state_case_normal_tchar@?$output_processor@DV?$string_output_adapter@D@__crt_stdio_output@@V?$positional_parameter_base@DV?$string_output_adapter@D@__crt_stdio_output@@@2@@__crt_stdio_output@@AEAA_ND@Z 0000000180078640 f i libucrtd:output.obj
 0001:000777d0       ?state_case_normal_tchar@?$output_processor@DV?$string_output_adapter@D@__crt_stdio_output@@V?$standard_base@DV?$string_output_adapter@D@__crt_stdio_output@@@2@@__crt_stdio_output@@AEAA_ND@Z 00000001800787d0 f i libucrtd:output.obj
 0001:00077960       ?state_case_normal_tchar@?$output_processor@_WV?$stream_output_adapter@_W@__crt_stdio_output@@V?$format_validation_base@_WV?$stream_output_adapter@_W@__crt_stdio_output@@@2@@__crt_stdio_output@@AEAA_N_W@Z 0000000180078960 f i libucrtd:output.obj
 0001:00077980       ?state_case_normal_tchar@?$output_processor@_WV?$stream_output_adapter@_W@__crt_stdio_output@@V?$positional_parameter_base@_WV?$stream_output_adapter@_W@__crt_stdio_output@@@2@@__crt_stdio_output@@AEAA_N_W@Z 0000000180078980 f i libucrtd:output.obj
 0001:000779a0       ?state_case_normal_tchar@?$output_processor@_WV?$stream_output_adapter@_W@__crt_stdio_output@@V?$standard_base@_WV?$stream_output_adapter@_W@__crt_stdio_output@@@2@@__crt_stdio_output@@AEAA_N_W@Z 00000001800789a0 f i libucrtd:output.obj
 0001:000779c0       ?state_case_normal_tchar@?$output_processor@_WV?$string_output_adapter@_W@__crt_stdio_output@@V?$format_validation_base@_WV?$string_output_adapter@_W@__crt_stdio_output@@@2@@__crt_stdio_output@@AEAA_N_W@Z 00000001800789c0 f i libucrtd:output.obj
 0001:000779e0       ?state_case_normal_tchar@?$output_processor@_WV?$string_output_adapter@_W@__crt_stdio_output@@V?$positional_parameter_base@_WV?$string_output_adapter@_W@__crt_stdio_output@@@2@@__crt_stdio_output@@AEAA_N_W@Z 00000001800789e0 f i libucrtd:output.obj
 0001:00077a00       ?state_case_normal_tchar@?$output_processor@_WV?$string_output_adapter@_W@__crt_stdio_output@@V?$standard_base@_WV?$string_output_adapter@_W@__crt_stdio_output@@@2@@__crt_stdio_output@@AEAA_N_W@Z 0000000180078a00 f i libucrtd:output.obj
 0001:00077a20       ?state_case_percent@?$output_processor@DV?$stream_output_adapter@D@__crt_stdio_output@@V?$format_validation_base@DV?$stream_output_adapter@D@__crt_stdio_output@@@2@@__crt_stdio_output@@AEAA_NXZ 0000000180078a20 f i libucrtd:output.obj
 0001:00077a70       ?state_case_percent@?$output_processor@DV?$stream_output_adapter@D@__crt_stdio_output@@V?$positional_parameter_base@DV?$stream_output_adapter@D@__crt_stdio_output@@@2@@__crt_stdio_output@@AEAA_NXZ 0000000180078a70 f i libucrtd:output.obj
 0001:00077ac0       ?state_case_percent@?$output_processor@DV?$stream_output_adapter@D@__crt_stdio_output@@V?$standard_base@DV?$stream_output_adapter@D@__crt_stdio_output@@@2@@__crt_stdio_output@@AEAA_NXZ 0000000180078ac0 f i libucrtd:output.obj
 0001:00077b10       ?state_case_percent@?$output_processor@DV?$string_output_adapter@D@__crt_stdio_output@@V?$format_validation_base@DV?$string_output_adapter@D@__crt_stdio_output@@@2@@__crt_stdio_output@@AEAA_NXZ 0000000180078b10 f i libucrtd:output.obj
 0001:00077b60       ?state_case_percent@?$output_processor@DV?$string_output_adapter@D@__crt_stdio_output@@V?$positional_parameter_base@DV?$string_output_adapter@D@__crt_stdio_output@@@2@@__crt_stdio_output@@AEAA_NXZ 0000000180078b60 f i libucrtd:output.obj
 0001:00077bb0       ?state_case_percent@?$output_processor@DV?$string_output_adapter@D@__crt_stdio_output@@V?$standard_base@DV?$string_output_adapter@D@__crt_stdio_output@@@2@@__crt_stdio_output@@AEAA_NXZ 0000000180078bb0 f i libucrtd:output.obj
 0001:00077c00       ?state_case_percent@?$output_processor@_WV?$stream_output_adapter@_W@__crt_stdio_output@@V?$format_validation_base@_WV?$stream_output_adapter@_W@__crt_stdio_output@@@2@@__crt_stdio_output@@AEAA_NXZ 0000000180078c00 f i libucrtd:output.obj
 0001:00077c50       ?state_case_percent@?$output_processor@_WV?$stream_output_adapter@_W@__crt_stdio_output@@V?$positional_parameter_base@_WV?$stream_output_adapter@_W@__crt_stdio_output@@@2@@__crt_stdio_output@@AEAA_NXZ 0000000180078c50 f i libucrtd:output.obj
 0001:00077ca0       ?state_case_percent@?$output_processor@_WV?$stream_output_adapter@_W@__crt_stdio_output@@V?$standard_base@_WV?$stream_output_adapter@_W@__crt_stdio_output@@@2@@__crt_stdio_output@@AEAA_NXZ 0000000180078ca0 f i libucrtd:output.obj
 0001:00077cf0       ?state_case_percent@?$output_processor@_WV?$string_output_adapter@_W@__crt_stdio_output@@V?$format_validation_base@_WV?$string_output_adapter@_W@__crt_stdio_output@@@2@@__crt_stdio_output@@AEAA_NXZ 0000000180078cf0 f i libucrtd:output.obj
 0001:00077d40       ?state_case_percent@?$output_processor@_WV?$string_output_adapter@_W@__crt_stdio_output@@V?$positional_parameter_base@_WV?$string_output_adapter@_W@__crt_stdio_output@@@2@@__crt_stdio_output@@AEAA_NXZ 0000000180078d40 f i libucrtd:output.obj
 0001:00077d90       ?state_case_percent@?$output_processor@_WV?$string_output_adapter@_W@__crt_stdio_output@@V?$standard_base@_WV?$string_output_adapter@_W@__crt_stdio_output@@@2@@__crt_stdio_output@@AEAA_NXZ 0000000180078d90 f i libucrtd:output.obj
 0001:00077de0       ?state_case_precision@?$output_processor@DV?$stream_output_adapter@D@__crt_stdio_output@@V?$format_validation_base@DV?$stream_output_adapter@D@__crt_stdio_output@@@2@@__crt_stdio_output@@AEAA_NXZ 0000000180078de0 f i libucrtd:output.obj
 0001:00077e60       ?state_case_precision@?$output_processor@DV?$stream_output_adapter@D@__crt_stdio_output@@V?$positional_parameter_base@DV?$stream_output_adapter@D@__crt_stdio_output@@@2@@__crt_stdio_output@@AEAA_NXZ 0000000180078e60 f i libucrtd:output.obj
 0001:00077ee0       ?state_case_precision@?$output_processor@DV?$stream_output_adapter@D@__crt_stdio_output@@V?$standard_base@DV?$stream_output_adapter@D@__crt_stdio_output@@@2@@__crt_stdio_output@@AEAA_NXZ 0000000180078ee0 f i libucrtd:output.obj
 0001:00077f60       ?state_case_precision@?$output_processor@DV?$string_output_adapter@D@__crt_stdio_output@@V?$format_validation_base@DV?$string_output_adapter@D@__crt_stdio_output@@@2@@__crt_stdio_output@@AEAA_NXZ 0000000180078f60 f i libucrtd:output.obj
 0001:00077fe0       ?state_case_precision@?$output_processor@DV?$string_output_adapter@D@__crt_stdio_output@@V?$positional_parameter_base@DV?$string_output_adapter@D@__crt_stdio_output@@@2@@__crt_stdio_output@@AEAA_NXZ 0000000180078fe0 f i libucrtd:output.obj
 0001:00078060       ?state_case_precision@?$output_processor@DV?$string_output_adapter@D@__crt_stdio_output@@V?$standard_base@DV?$string_output_adapter@D@__crt_stdio_output@@@2@@__crt_stdio_output@@AEAA_NXZ 0000000180079060 f i libucrtd:output.obj
 0001:000780e0       ?state_case_precision@?$output_processor@_WV?$stream_output_adapter@_W@__crt_stdio_output@@V?$format_validation_base@_WV?$stream_output_adapter@_W@__crt_stdio_output@@@2@@__crt_stdio_output@@AEAA_NXZ 00000001800790e0 f i libucrtd:output.obj
 0001:00078160       ?state_case_precision@?$output_processor@_WV?$stream_output_adapter@_W@__crt_stdio_output@@V?$positional_parameter_base@_WV?$stream_output_adapter@_W@__crt_stdio_output@@@2@@__crt_stdio_output@@AEAA_NXZ 0000000180079160 f i libucrtd:output.obj
 0001:000781e0       ?state_case_precision@?$output_processor@_WV?$stream_output_adapter@_W@__crt_stdio_output@@V?$standard_base@_WV?$stream_output_adapter@_W@__crt_stdio_output@@@2@@__crt_stdio_output@@AEAA_NXZ 00000001800791e0 f i libucrtd:output.obj
 0001:00078260       ?state_case_precision@?$output_processor@_WV?$string_output_adapter@_W@__crt_stdio_output@@V?$format_validation_base@_WV?$string_output_adapter@_W@__crt_stdio_output@@@2@@__crt_stdio_output@@AEAA_NXZ 0000000180079260 f i libucrtd:output.obj
 0001:000782e0       ?state_case_precision@?$output_processor@_WV?$string_output_adapter@_W@__crt_stdio_output@@V?$positional_parameter_base@_WV?$string_output_adapter@_W@__crt_stdio_output@@@2@@__crt_stdio_output@@AEAA_NXZ 00000001800792e0 f i libucrtd:output.obj
 0001:00078360       ?state_case_precision@?$output_processor@_WV?$string_output_adapter@_W@__crt_stdio_output@@V?$standard_base@_WV?$string_output_adapter@_W@__crt_stdio_output@@@2@@__crt_stdio_output@@AEAA_NXZ 0000000180079360 f i libucrtd:output.obj
 0001:000783e0       ?state_case_size@?$output_processor@DV?$stream_output_adapter@D@__crt_stdio_output@@V?$format_validation_base@DV?$stream_output_adapter@D@__crt_stdio_output@@@2@@__crt_stdio_output@@AEAA_NXZ 00000001800793e0 f i libucrtd:output.obj
 0001:000788a0       ?state_case_size@?$output_processor@DV?$stream_output_adapter@D@__crt_stdio_output@@V?$positional_parameter_base@DV?$stream_output_adapter@D@__crt_stdio_output@@@2@@__crt_stdio_output@@AEAA_NXZ 00000001800798a0 f i libucrtd:output.obj
 0001:00078d60       ?state_case_size@?$output_processor@DV?$stream_output_adapter@D@__crt_stdio_output@@V?$standard_base@DV?$stream_output_adapter@D@__crt_stdio_output@@@2@@__crt_stdio_output@@AEAA_NXZ 0000000180079d60 f i libucrtd:output.obj
 0001:00079220       ?state_case_size@?$output_processor@DV?$string_output_adapter@D@__crt_stdio_output@@V?$format_validation_base@DV?$string_output_adapter@D@__crt_stdio_output@@@2@@__crt_stdio_output@@AEAA_NXZ 000000018007a220 f i libucrtd:output.obj
 0001:000796e0       ?state_case_size@?$output_processor@DV?$string_output_adapter@D@__crt_stdio_output@@V?$positional_parameter_base@DV?$string_output_adapter@D@__crt_stdio_output@@@2@@__crt_stdio_output@@AEAA_NXZ 000000018007a6e0 f i libucrtd:output.obj
 0001:00079ba0       ?state_case_size@?$output_processor@DV?$string_output_adapter@D@__crt_stdio_output@@V?$standard_base@DV?$string_output_adapter@D@__crt_stdio_output@@@2@@__crt_stdio_output@@AEAA_NXZ 000000018007aba0 f i libucrtd:output.obj
 0001:0007a060       ?state_case_size@?$output_processor@_WV?$stream_output_adapter@_W@__crt_stdio_output@@V?$format_validation_base@_WV?$stream_output_adapter@_W@__crt_stdio_output@@@2@@__crt_stdio_output@@AEAA_NXZ 000000018007b060 f i libucrtd:output.obj
 0001:0007a520       ?state_case_size@?$output_processor@_WV?$stream_output_adapter@_W@__crt_stdio_output@@V?$positional_parameter_base@_WV?$stream_output_adapter@_W@__crt_stdio_output@@@2@@__crt_stdio_output@@AEAA_NXZ 000000018007b520 f i libucrtd:output.obj
 0001:0007a9e0       ?state_case_size@?$output_processor@_WV?$stream_output_adapter@_W@__crt_stdio_output@@V?$standard_base@_WV?$stream_output_adapter@_W@__crt_stdio_output@@@2@@__crt_stdio_output@@AEAA_NXZ 000000018007b9e0 f i libucrtd:output.obj
 0001:0007aea0       ?state_case_size@?$output_processor@_WV?$string_output_adapter@_W@__crt_stdio_output@@V?$format_validation_base@_WV?$string_output_adapter@_W@__crt_stdio_output@@@2@@__crt_stdio_output@@AEAA_NXZ 000000018007bea0 f i libucrtd:output.obj
 0001:0007b360       ?state_case_size@?$output_processor@_WV?$string_output_adapter@_W@__crt_stdio_output@@V?$positional_parameter_base@_WV?$string_output_adapter@_W@__crt_stdio_output@@@2@@__crt_stdio_output@@AEAA_NXZ 000000018007c360 f i libucrtd:output.obj
 0001:0007b820       ?state_case_size@?$output_processor@_WV?$string_output_adapter@_W@__crt_stdio_output@@V?$standard_base@_WV?$string_output_adapter@_W@__crt_stdio_output@@@2@@__crt_stdio_output@@AEAA_NXZ 000000018007c820 f i libucrtd:output.obj
 0001:0007bce0       ?state_case_type@?$output_processor@DV?$stream_output_adapter@D@__crt_stdio_output@@V?$format_validation_base@DV?$stream_output_adapter@D@__crt_stdio_output@@@2@@__crt_stdio_output@@AEAA_NXZ 000000018007cce0 f i libucrtd:output.obj
 0001:0007c1a0       ?state_case_type@?$output_processor@DV?$stream_output_adapter@D@__crt_stdio_output@@V?$positional_parameter_base@DV?$stream_output_adapter@D@__crt_stdio_output@@@2@@__crt_stdio_output@@AEAA_NXZ 000000018007d1a0 f i libucrtd:output.obj
 0001:0007c660       ?state_case_type@?$output_processor@DV?$stream_output_adapter@D@__crt_stdio_output@@V?$standard_base@DV?$stream_output_adapter@D@__crt_stdio_output@@@2@@__crt_stdio_output@@AEAA_NXZ 000000018007d660 f i libucrtd:output.obj
 0001:0007cb20       ?state_case_type@?$output_processor@DV?$string_output_adapter@D@__crt_stdio_output@@V?$format_validation_base@DV?$string_output_adapter@D@__crt_stdio_output@@@2@@__crt_stdio_output@@AEAA_NXZ 000000018007db20 f i libucrtd:output.obj
 0001:0007cfe0       ?state_case_type@?$output_processor@DV?$string_output_adapter@D@__crt_stdio_output@@V?$positional_parameter_base@DV?$string_output_adapter@D@__crt_stdio_output@@@2@@__crt_stdio_output@@AEAA_NXZ 000000018007dfe0 f i libucrtd:output.obj
 0001:0007d4a0       ?state_case_type@?$output_processor@DV?$string_output_adapter@D@__crt_stdio_output@@V?$standard_base@DV?$string_output_adapter@D@__crt_stdio_output@@@2@@__crt_stdio_output@@AEAA_NXZ 000000018007e4a0 f i libucrtd:output.obj
 0001:0007d960       ?state_case_type@?$output_processor@_WV?$stream_output_adapter@_W@__crt_stdio_output@@V?$format_validation_base@_WV?$stream_output_adapter@_W@__crt_stdio_output@@@2@@__crt_stdio_output@@AEAA_NXZ 000000018007e960 f i libucrtd:output.obj
 0001:0007def0       ?state_case_type@?$output_processor@_WV?$stream_output_adapter@_W@__crt_stdio_output@@V?$positional_parameter_base@_WV?$stream_output_adapter@_W@__crt_stdio_output@@@2@@__crt_stdio_output@@AEAA_NXZ 000000018007eef0 f i libucrtd:output.obj
 0001:0007e480       ?state_case_type@?$output_processor@_WV?$stream_output_adapter@_W@__crt_stdio_output@@V?$standard_base@_WV?$stream_output_adapter@_W@__crt_stdio_output@@@2@@__crt_stdio_output@@AEAA_NXZ 000000018007f480 f i libucrtd:output.obj
 0001:0007ea10       ?state_case_type@?$output_processor@_WV?$string_output_adapter@_W@__crt_stdio_output@@V?$format_validation_base@_WV?$string_output_adapter@_W@__crt_stdio_output@@@2@@__crt_stdio_output@@AEAA_NXZ 000000018007fa10 f i libucrtd:output.obj
 0001:0007efa0       ?state_case_type@?$output_processor@_WV?$string_output_adapter@_W@__crt_stdio_output@@V?$positional_parameter_base@_WV?$string_output_adapter@_W@__crt_stdio_output@@@2@@__crt_stdio_output@@AEAA_NXZ 000000018007ffa0 f i libucrtd:output.obj
 0001:0007f530       ?state_case_type@?$output_processor@_WV?$string_output_adapter@_W@__crt_stdio_output@@V?$standard_base@_WV?$string_output_adapter@_W@__crt_stdio_output@@@2@@__crt_stdio_output@@AEAA_NXZ 0000000180080530 f i libucrtd:output.obj
 0001:0007fac0       ?state_case_width@?$output_processor@DV?$stream_output_adapter@D@__crt_stdio_output@@V?$format_validation_base@DV?$stream_output_adapter@D@__crt_stdio_output@@@2@@__crt_stdio_output@@AEAA_NXZ 0000000180080ac0 f i libucrtd:output.obj
 0001:0007fb50       ?state_case_width@?$output_processor@DV?$stream_output_adapter@D@__crt_stdio_output@@V?$positional_parameter_base@DV?$stream_output_adapter@D@__crt_stdio_output@@@2@@__crt_stdio_output@@AEAA_NXZ 0000000180080b50 f i libucrtd:output.obj
 0001:0007fbe0       ?state_case_width@?$output_processor@DV?$stream_output_adapter@D@__crt_stdio_output@@V?$standard_base@DV?$stream_output_adapter@D@__crt_stdio_output@@@2@@__crt_stdio_output@@AEAA_NXZ 0000000180080be0 f i libucrtd:output.obj
 0001:0007fc70       ?state_case_width@?$output_processor@DV?$string_output_adapter@D@__crt_stdio_output@@V?$format_validation_base@DV?$string_output_adapter@D@__crt_stdio_output@@@2@@__crt_stdio_output@@AEAA_NXZ 0000000180080c70 f i libucrtd:output.obj
 0001:0007fd00       ?state_case_width@?$output_processor@DV?$string_output_adapter@D@__crt_stdio_output@@V?$positional_parameter_base@DV?$string_output_adapter@D@__crt_stdio_output@@@2@@__crt_stdio_output@@AEAA_NXZ 0000000180080d00 f i libucrtd:output.obj
 0001:0007fd90       ?state_case_width@?$output_processor@DV?$string_output_adapter@D@__crt_stdio_output@@V?$standard_base@DV?$string_output_adapter@D@__crt_stdio_output@@@2@@__crt_stdio_output@@AEAA_NXZ 0000000180080d90 f i libucrtd:output.obj
 0001:0007fe20       ?state_case_width@?$output_processor@_WV?$stream_output_adapter@_W@__crt_stdio_output@@V?$format_validation_base@_WV?$stream_output_adapter@_W@__crt_stdio_output@@@2@@__crt_stdio_output@@AEAA_NXZ 0000000180080e20 f i libucrtd:output.obj
 0001:0007feb0       ?state_case_width@?$output_processor@_WV?$stream_output_adapter@_W@__crt_stdio_output@@V?$positional_parameter_base@_WV?$stream_output_adapter@_W@__crt_stdio_output@@@2@@__crt_stdio_output@@AEAA_NXZ 0000000180080eb0 f i libucrtd:output.obj
 0001:0007ff40       ?state_case_width@?$output_processor@_WV?$stream_output_adapter@_W@__crt_stdio_output@@V?$standard_base@_WV?$stream_output_adapter@_W@__crt_stdio_output@@@2@@__crt_stdio_output@@AEAA_NXZ 0000000180080f40 f i libucrtd:output.obj
 0001:0007ffd0       ?state_case_width@?$output_processor@_WV?$string_output_adapter@_W@__crt_stdio_output@@V?$format_validation_base@_WV?$string_output_adapter@_W@__crt_stdio_output@@@2@@__crt_stdio_output@@AEAA_NXZ 0000000180080fd0 f i libucrtd:output.obj
 0001:00080060       ?state_case_width@?$output_processor@_WV?$string_output_adapter@_W@__crt_stdio_output@@V?$positional_parameter_base@_WV?$string_output_adapter@_W@__crt_stdio_output@@@2@@__crt_stdio_output@@AEAA_NXZ 0000000180081060 f i libucrtd:output.obj
 0001:000800f0       ?state_case_width@?$output_processor@_WV?$string_output_adapter@_W@__crt_stdio_output@@V?$standard_base@_WV?$string_output_adapter@_W@__crt_stdio_output@@@2@@__crt_stdio_output@@AEAA_NXZ 00000001800810f0 f i libucrtd:output.obj
 0001:00080180       ?state_count@?$format_validation_base@DV?$stream_output_adapter@D@__crt_stdio_output@@@__crt_stdio_output@@KAIXZ 0000000180081180 f i libucrtd:output.obj
 0001:00080190       ?state_count@?$format_validation_base@DV?$string_output_adapter@D@__crt_stdio_output@@@__crt_stdio_output@@KAIXZ 0000000180081190 f i libucrtd:output.obj
 0001:000801a0       ?state_count@?$format_validation_base@_WV?$stream_output_adapter@_W@__crt_stdio_output@@@__crt_stdio_output@@KAIXZ 00000001800811a0 f i libucrtd:output.obj
 0001:000801b0       ?state_count@?$format_validation_base@_WV?$string_output_adapter@_W@__crt_stdio_output@@@__crt_stdio_output@@KAIXZ 00000001800811b0 f i libucrtd:output.obj
 0001:000801c0       ?state_count@?$standard_base@DV?$stream_output_adapter@D@__crt_stdio_output@@@__crt_stdio_output@@KAIXZ 00000001800811c0 f i libucrtd:output.obj
 0001:000801d0       ?state_count@?$standard_base@DV?$string_output_adapter@D@__crt_stdio_output@@@__crt_stdio_output@@KAIXZ 00000001800811d0 f i libucrtd:output.obj
 0001:000801e0       ?state_count@?$standard_base@_WV?$stream_output_adapter@_W@__crt_stdio_output@@@__crt_stdio_output@@KAIXZ 00000001800811e0 f i libucrtd:output.obj
 0001:000801f0       ?state_count@?$standard_base@_WV?$string_output_adapter@_W@__crt_stdio_output@@@__crt_stdio_output@@KAIXZ 00000001800811f0 f i libucrtd:output.obj
 0001:00080200       ?state_transition_table@?$format_validation_base@DV?$stream_output_adapter@D@__crt_stdio_output@@@__crt_stdio_output@@KAAEBV?$spectre_mitigated_lookup_table@Ustate_transition_pair@__crt_stdio_output@@$0IA@@2@XZ 0000000180081200 f i libucrtd:output.obj
 0001:00080210       ?state_transition_table@?$format_validation_base@DV?$string_output_adapter@D@__crt_stdio_output@@@__crt_stdio_output@@KAAEBV?$spectre_mitigated_lookup_table@Ustate_transition_pair@__crt_stdio_output@@$0IA@@2@XZ 0000000180081210 f i libucrtd:output.obj
 0001:00080220       ?state_transition_table@?$format_validation_base@_WV?$stream_output_adapter@_W@__crt_stdio_output@@@__crt_stdio_output@@KAAEBV?$spectre_mitigated_lookup_table@Ustate_transition_pair@__crt_stdio_output@@$0IA@@2@XZ 0000000180081220 f i libucrtd:output.obj
 0001:00080230       ?state_transition_table@?$format_validation_base@_WV?$string_output_adapter@_W@__crt_stdio_output@@@__crt_stdio_output@@KAAEBV?$spectre_mitigated_lookup_table@Ustate_transition_pair@__crt_stdio_output@@$0IA@@2@XZ 0000000180081230 f i libucrtd:output.obj
 0001:00080240       ?state_transition_table@?$standard_base@DV?$stream_output_adapter@D@__crt_stdio_output@@@__crt_stdio_output@@KAAEBV?$spectre_mitigated_lookup_table@Ustate_transition_pair@__crt_stdio_output@@$0IA@@2@XZ 0000000180081240 f i libucrtd:output.obj
 0001:00080250       ?state_transition_table@?$standard_base@DV?$string_output_adapter@D@__crt_stdio_output@@@__crt_stdio_output@@KAAEBV?$spectre_mitigated_lookup_table@Ustate_transition_pair@__crt_stdio_output@@$0IA@@2@XZ 0000000180081250 f i libucrtd:output.obj
 0001:00080260       ?state_transition_table@?$standard_base@_WV?$stream_output_adapter@_W@__crt_stdio_output@@@__crt_stdio_output@@KAAEBV?$spectre_mitigated_lookup_table@Ustate_transition_pair@__crt_stdio_output@@$0IA@@2@XZ 0000000180081260 f i libucrtd:output.obj
 0001:00080270       ?state_transition_table@?$standard_base@_WV?$string_output_adapter@_W@__crt_stdio_output@@@__crt_stdio_output@@KAAEBV?$spectre_mitigated_lookup_table@Ustate_transition_pair@__crt_stdio_output@@$0IA@@2@XZ 0000000180081270 f i libucrtd:output.obj
 0001:00080280       ?tchar_string@?$common_data@D@__crt_stdio_output@@IEAAAEAPEADD@Z 0000000180081280 f i libucrtd:output.obj
 0001:000802a0       ?tchar_string@?$common_data@D@__crt_stdio_output@@IEAAAEAPEADXZ 00000001800812a0 f i libucrtd:output.obj
 0001:000802c0       ?tchar_string@?$common_data@_W@__crt_stdio_output@@IEAAAEAPEA_WXZ 00000001800812c0 f i libucrtd:output.obj
 0001:000802e0       ?tchar_string@?$common_data@_W@__crt_stdio_output@@IEAAAEAPEA_W_W@Z 00000001800812e0 f i libucrtd:output.obj
 0001:00080300       ?to_integer_size@__crt_stdio_output@@YA_KW4length_modifier@1@@Z 0000000180081300 f i libucrtd:output.obj
 0001:000803b0       ?type_case_X@?$output_processor@DV?$stream_output_adapter@D@__crt_stdio_output@@V?$format_validation_base@DV?$stream_output_adapter@D@__crt_stdio_output@@@2@@__crt_stdio_output@@AEAA_NXZ 00000001800813b0 f i libucrtd:output.obj
 0001:000803d0       ?type_case_X@?$output_processor@DV?$stream_output_adapter@D@__crt_stdio_output@@V?$positional_parameter_base@DV?$stream_output_adapter@D@__crt_stdio_output@@@2@@__crt_stdio_output@@AEAA_NXZ 00000001800813d0 f i libucrtd:output.obj
 0001:000803f0       ?type_case_X@?$output_processor@DV?$stream_output_adapter@D@__crt_stdio_output@@V?$standard_base@DV?$stream_output_adapter@D@__crt_stdio_output@@@2@@__crt_stdio_output@@AEAA_NXZ 00000001800813f0 f i libucrtd:output.obj
 0001:00080410       ?type_case_X@?$output_processor@DV?$string_output_adapter@D@__crt_stdio_output@@V?$format_validation_base@DV?$string_output_adapter@D@__crt_stdio_output@@@2@@__crt_stdio_output@@AEAA_NXZ 0000000180081410 f i libucrtd:output.obj
 0001:00080430       ?type_case_X@?$output_processor@DV?$string_output_adapter@D@__crt_stdio_output@@V?$positional_parameter_base@DV?$string_output_adapter@D@__crt_stdio_output@@@2@@__crt_stdio_output@@AEAA_NXZ 0000000180081430 f i libucrtd:output.obj
 0001:00080450       ?type_case_X@?$output_processor@DV?$string_output_adapter@D@__crt_stdio_output@@V?$standard_base@DV?$string_output_adapter@D@__crt_stdio_output@@@2@@__crt_stdio_output@@AEAA_NXZ 0000000180081450 f i libucrtd:output.obj
 0001:00080470       ?type_case_X@?$output_processor@_WV?$stream_output_adapter@_W@__crt_stdio_output@@V?$format_validation_base@_WV?$stream_output_adapter@_W@__crt_stdio_output@@@2@@__crt_stdio_output@@AEAA_NXZ 0000000180081470 f i libucrtd:output.obj
 0001:00080490       ?type_case_X@?$output_processor@_WV?$stream_output_adapter@_W@__crt_stdio_output@@V?$positional_parameter_base@_WV?$stream_output_adapter@_W@__crt_stdio_output@@@2@@__crt_stdio_output@@AEAA_NXZ 0000000180081490 f i libucrtd:output.obj
 0001:000804b0       ?type_case_X@?$output_processor@_WV?$stream_output_adapter@_W@__crt_stdio_output@@V?$standard_base@_WV?$stream_output_adapter@_W@__crt_stdio_output@@@2@@__crt_stdio_output@@AEAA_NXZ 00000001800814b0 f i libucrtd:output.obj
 0001:000804d0       ?type_case_X@?$output_processor@_WV?$string_output_adapter@_W@__crt_stdio_output@@V?$format_validation_base@_WV?$string_output_adapter@_W@__crt_stdio_output@@@2@@__crt_stdio_output@@AEAA_NXZ 00000001800814d0 f i libucrtd:output.obj
 0001:000804f0       ?type_case_X@?$output_processor@_WV?$string_output_adapter@_W@__crt_stdio_output@@V?$positional_parameter_base@_WV?$string_output_adapter@_W@__crt_stdio_output@@@2@@__crt_stdio_output@@AEAA_NXZ 00000001800814f0 f i libucrtd:output.obj
 0001:00080510       ?type_case_X@?$output_processor@_WV?$string_output_adapter@_W@__crt_stdio_output@@V?$standard_base@_WV?$string_output_adapter@_W@__crt_stdio_output@@@2@@__crt_stdio_output@@AEAA_NXZ 0000000180081510 f i libucrtd:output.obj
 0001:00080530       ?type_case_Z@?$output_processor@DV?$stream_output_adapter@D@__crt_stdio_output@@V?$format_validation_base@DV?$stream_output_adapter@D@__crt_stdio_output@@@2@@__crt_stdio_output@@AEAA_NXZ 0000000180081530 f i libucrtd:output.obj
 0001:00080650       ?type_case_Z@?$output_processor@DV?$stream_output_adapter@D@__crt_stdio_output@@V?$positional_parameter_base@DV?$stream_output_adapter@D@__crt_stdio_output@@@2@@__crt_stdio_output@@AEAA_NXZ 0000000180081650 f i libucrtd:output.obj
 0001:00080770       ?type_case_Z@?$output_processor@DV?$stream_output_adapter@D@__crt_stdio_output@@V?$standard_base@DV?$stream_output_adapter@D@__crt_stdio_output@@@2@@__crt_stdio_output@@AEAA_NXZ 0000000180081770 f i libucrtd:output.obj
 0001:00080890       ?type_case_Z@?$output_processor@DV?$string_output_adapter@D@__crt_stdio_output@@V?$format_validation_base@DV?$string_output_adapter@D@__crt_stdio_output@@@2@@__crt_stdio_output@@AEAA_NXZ 0000000180081890 f i libucrtd:output.obj
 0001:000809b0       ?type_case_Z@?$output_processor@DV?$string_output_adapter@D@__crt_stdio_output@@V?$positional_parameter_base@DV?$string_output_adapter@D@__crt_stdio_output@@@2@@__crt_stdio_output@@AEAA_NXZ 00000001800819b0 f i libucrtd:output.obj
 0001:00080ad0       ?type_case_Z@?$output_processor@DV?$string_output_adapter@D@__crt_stdio_output@@V?$standard_base@DV?$string_output_adapter@D@__crt_stdio_output@@@2@@__crt_stdio_output@@AEAA_NXZ 0000000180081ad0 f i libucrtd:output.obj
 0001:00080bf0       ?type_case_Z@?$output_processor@_WV?$stream_output_adapter@_W@__crt_stdio_output@@V?$format_validation_base@_WV?$stream_output_adapter@_W@__crt_stdio_output@@@2@@__crt_stdio_output@@AEAA_NXZ 0000000180081bf0 f i libucrtd:output.obj
 0001:00080d10       ?type_case_Z@?$output_processor@_WV?$stream_output_adapter@_W@__crt_stdio_output@@V?$positional_parameter_base@_WV?$stream_output_adapter@_W@__crt_stdio_output@@@2@@__crt_stdio_output@@AEAA_NXZ 0000000180081d10 f i libucrtd:output.obj
 0001:00080e30       ?type_case_Z@?$output_processor@_WV?$stream_output_adapter@_W@__crt_stdio_output@@V?$standard_base@_WV?$stream_output_adapter@_W@__crt_stdio_output@@@2@@__crt_stdio_output@@AEAA_NXZ 0000000180081e30 f i libucrtd:output.obj
 0001:00080f50       ?type_case_Z@?$output_processor@_WV?$string_output_adapter@_W@__crt_stdio_output@@V?$format_validation_base@_WV?$string_output_adapter@_W@__crt_stdio_output@@@2@@__crt_stdio_output@@AEAA_NXZ 0000000180081f50 f i libucrtd:output.obj
 0001:00081070       ?type_case_Z@?$output_processor@_WV?$string_output_adapter@_W@__crt_stdio_output@@V?$positional_parameter_base@_WV?$string_output_adapter@_W@__crt_stdio_output@@@2@@__crt_stdio_output@@AEAA_NXZ 0000000180082070 f i libucrtd:output.obj
 0001:00081190       ?type_case_Z@?$output_processor@_WV?$string_output_adapter@_W@__crt_stdio_output@@V?$standard_base@_WV?$string_output_adapter@_W@__crt_stdio_output@@@2@@__crt_stdio_output@@AEAA_NXZ 0000000180082190 f i libucrtd:output.obj
 0001:000812b0       ?type_case_a@?$output_processor@DV?$stream_output_adapter@D@__crt_stdio_output@@V?$format_validation_base@DV?$stream_output_adapter@D@__crt_stdio_output@@@2@@__crt_stdio_output@@AEAA_NXZ 00000001800822b0 f i libucrtd:output.obj
 0001:00081710       ?type_case_a@?$output_processor@DV?$stream_output_adapter@D@__crt_stdio_output@@V?$positional_parameter_base@DV?$stream_output_adapter@D@__crt_stdio_output@@@2@@__crt_stdio_output@@AEAA_NXZ 0000000180082710 f i libucrtd:output.obj
 0001:00081b70       ?type_case_a@?$output_processor@DV?$stream_output_adapter@D@__crt_stdio_output@@V?$standard_base@DV?$stream_output_adapter@D@__crt_stdio_output@@@2@@__crt_stdio_output@@AEAA_NXZ 0000000180082b70 f i libucrtd:output.obj
 0001:00081fd0       ?type_case_a@?$output_processor@DV?$string_output_adapter@D@__crt_stdio_output@@V?$format_validation_base@DV?$string_output_adapter@D@__crt_stdio_output@@@2@@__crt_stdio_output@@AEAA_NXZ 0000000180082fd0 f i libucrtd:output.obj
 0001:00082430       ?type_case_a@?$output_processor@DV?$string_output_adapter@D@__crt_stdio_output@@V?$positional_parameter_base@DV?$string_output_adapter@D@__crt_stdio_output@@@2@@__crt_stdio_output@@AEAA_NXZ 0000000180083430 f i libucrtd:output.obj
 0001:00082890       ?type_case_a@?$output_processor@DV?$string_output_adapter@D@__crt_stdio_output@@V?$standard_base@DV?$string_output_adapter@D@__crt_stdio_output@@@2@@__crt_stdio_output@@AEAA_NXZ 0000000180083890 f i libucrtd:output.obj
 0001:00082cf0       ?type_case_a@?$output_processor@_WV?$stream_output_adapter@_W@__crt_stdio_output@@V?$format_validation_base@_WV?$stream_output_adapter@_W@__crt_stdio_output@@@2@@__crt_stdio_output@@AEAA_NXZ 0000000180083cf0 f i libucrtd:output.obj
 0001:00083160       ?type_case_a@?$output_processor@_WV?$stream_output_adapter@_W@__crt_stdio_output@@V?$positional_parameter_base@_WV?$stream_output_adapter@_W@__crt_stdio_output@@@2@@__crt_stdio_output@@AEAA_NXZ 0000000180084160 f i libucrtd:output.obj
 0001:000835d0       ?type_case_a@?$output_processor@_WV?$stream_output_adapter@_W@__crt_stdio_output@@V?$standard_base@_WV?$stream_output_adapter@_W@__crt_stdio_output@@@2@@__crt_stdio_output@@AEAA_NXZ 00000001800845d0 f i libucrtd:output.obj
 0001:00083a40       ?type_case_a@?$output_processor@_WV?$string_output_adapter@_W@__crt_stdio_output@@V?$format_validation_base@_WV?$string_output_adapter@_W@__crt_stdio_output@@@2@@__crt_stdio_output@@AEAA_NXZ 0000000180084a40 f i libucrtd:output.obj
 0001:00083eb0       ?type_case_a@?$output_processor@_WV?$string_output_adapter@_W@__crt_stdio_output@@V?$positional_parameter_base@_WV?$string_output_adapter@_W@__crt_stdio_output@@@2@@__crt_stdio_output@@AEAA_NXZ 0000000180084eb0 f i libucrtd:output.obj
 0001:00084320       ?type_case_a@?$output_processor@_WV?$string_output_adapter@_W@__crt_stdio_output@@V?$standard_base@_WV?$string_output_adapter@_W@__crt_stdio_output@@@2@@__crt_stdio_output@@AEAA_NXZ 0000000180085320 f i libucrtd:output.obj
 0001:00084790       ?type_case_c@?$output_processor@DV?$stream_output_adapter@D@__crt_stdio_output@@V?$format_validation_base@DV?$stream_output_adapter@D@__crt_stdio_output@@@2@@__crt_stdio_output@@AEAA_NXZ 0000000180085790 f i libucrtd:output.obj
 0001:000847b0       ?type_case_c@?$output_processor@DV?$stream_output_adapter@D@__crt_stdio_output@@V?$positional_parameter_base@DV?$stream_output_adapter@D@__crt_stdio_output@@@2@@__crt_stdio_output@@AEAA_NXZ 00000001800857b0 f i libucrtd:output.obj
 0001:000847d0       ?type_case_c@?$output_processor@DV?$stream_output_adapter@D@__crt_stdio_output@@V?$standard_base@DV?$stream_output_adapter@D@__crt_stdio_output@@@2@@__crt_stdio_output@@AEAA_NXZ 00000001800857d0 f i libucrtd:output.obj
 0001:000847f0       ?type_case_c@?$output_processor@DV?$string_output_adapter@D@__crt_stdio_output@@V?$format_validation_base@DV?$string_output_adapter@D@__crt_stdio_output@@@2@@__crt_stdio_output@@AEAA_NXZ 00000001800857f0 f i libucrtd:output.obj
 0001:00084810       ?type_case_c@?$output_processor@DV?$string_output_adapter@D@__crt_stdio_output@@V?$positional_parameter_base@DV?$string_output_adapter@D@__crt_stdio_output@@@2@@__crt_stdio_output@@AEAA_NXZ 0000000180085810 f i libucrtd:output.obj
 0001:00084830       ?type_case_c@?$output_processor@DV?$string_output_adapter@D@__crt_stdio_output@@V?$standard_base@DV?$string_output_adapter@D@__crt_stdio_output@@@2@@__crt_stdio_output@@AEAA_NXZ 0000000180085830 f i libucrtd:output.obj
 0001:00084850       ?type_case_c@?$output_processor@_WV?$stream_output_adapter@_W@__crt_stdio_output@@V?$format_validation_base@_WV?$stream_output_adapter@_W@__crt_stdio_output@@@2@@__crt_stdio_output@@AEAA_NXZ 0000000180085850 f i libucrtd:output.obj
 0001:00084870       ?type_case_c@?$output_processor@_WV?$stream_output_adapter@_W@__crt_stdio_output@@V?$positional_parameter_base@_WV?$stream_output_adapter@_W@__crt_stdio_output@@@2@@__crt_stdio_output@@AEAA_NXZ 0000000180085870 f i libucrtd:output.obj
 0001:00084890       ?type_case_c@?$output_processor@_WV?$stream_output_adapter@_W@__crt_stdio_output@@V?$standard_base@_WV?$stream_output_adapter@_W@__crt_stdio_output@@@2@@__crt_stdio_output@@AEAA_NXZ 0000000180085890 f i libucrtd:output.obj
 0001:000848b0       ?type_case_c@?$output_processor@_WV?$string_output_adapter@_W@__crt_stdio_output@@V?$format_validation_base@_WV?$string_output_adapter@_W@__crt_stdio_output@@@2@@__crt_stdio_output@@AEAA_NXZ 00000001800858b0 f i libucrtd:output.obj
 0001:000848d0       ?type_case_c@?$output_processor@_WV?$string_output_adapter@_W@__crt_stdio_output@@V?$positional_parameter_base@_WV?$string_output_adapter@_W@__crt_stdio_output@@@2@@__crt_stdio_output@@AEAA_NXZ 00000001800858d0 f i libucrtd:output.obj
 0001:000848f0       ?type_case_c@?$output_processor@_WV?$string_output_adapter@_W@__crt_stdio_output@@V?$standard_base@_WV?$string_output_adapter@_W@__crt_stdio_output@@@2@@__crt_stdio_output@@AEAA_NXZ 00000001800858f0 f i libucrtd:output.obj
 0001:00084910       ?type_case_c_tchar@?$output_processor@DV?$stream_output_adapter@D@__crt_stdio_output@@V?$format_validation_base@DV?$stream_output_adapter@D@__crt_stdio_output@@@2@@__crt_stdio_output@@AEAA_ND@Z 0000000180085910 f i libucrtd:output.obj
 0001:00084a80       ?type_case_c_tchar@?$output_processor@DV?$stream_output_adapter@D@__crt_stdio_output@@V?$positional_parameter_base@DV?$stream_output_adapter@D@__crt_stdio_output@@@2@@__crt_stdio_output@@AEAA_ND@Z 0000000180085a80 f i libucrtd:output.obj
 0001:00084bf0       ?type_case_c_tchar@?$output_processor@DV?$stream_output_adapter@D@__crt_stdio_output@@V?$standard_base@DV?$stream_output_adapter@D@__crt_stdio_output@@@2@@__crt_stdio_output@@AEAA_ND@Z 0000000180085bf0 f i libucrtd:output.obj
 0001:00084d60       ?type_case_c_tchar@?$output_processor@DV?$string_output_adapter@D@__crt_stdio_output@@V?$format_validation_base@DV?$string_output_adapter@D@__crt_stdio_output@@@2@@__crt_stdio_output@@AEAA_ND@Z 0000000180085d60 f i libucrtd:output.obj
 0001:00084ed0       ?type_case_c_tchar@?$output_processor@DV?$string_output_adapter@D@__crt_stdio_output@@V?$positional_parameter_base@DV?$string_output_adapter@D@__crt_stdio_output@@@2@@__crt_stdio_output@@AEAA_ND@Z 0000000180085ed0 f i libucrtd:output.obj
 0001:00085040       ?type_case_c_tchar@?$output_processor@DV?$string_output_adapter@D@__crt_stdio_output@@V?$standard_base@DV?$string_output_adapter@D@__crt_stdio_output@@@2@@__crt_stdio_output@@AEAA_ND@Z 0000000180086040 f i libucrtd:output.obj
 0001:000851b0       ?type_case_c_tchar@?$output_processor@_WV?$stream_output_adapter@_W@__crt_stdio_output@@V?$format_validation_base@_WV?$stream_output_adapter@_W@__crt_stdio_output@@@2@@__crt_stdio_output@@AEAA_N_W@Z 00000001800861b0 f i libucrtd:output.obj
 0001:00085310       ?type_case_c_tchar@?$output_processor@_WV?$stream_output_adapter@_W@__crt_stdio_output@@V?$positional_parameter_base@_WV?$stream_output_adapter@_W@__crt_stdio_output@@@2@@__crt_stdio_output@@AEAA_N_W@Z 0000000180086310 f i libucrtd:output.obj
 0001:00085470       ?type_case_c_tchar@?$output_processor@_WV?$stream_output_adapter@_W@__crt_stdio_output@@V?$standard_base@_WV?$stream_output_adapter@_W@__crt_stdio_output@@@2@@__crt_stdio_output@@AEAA_N_W@Z 0000000180086470 f i libucrtd:output.obj
 0001:000855d0       ?type_case_c_tchar@?$output_processor@_WV?$string_output_adapter@_W@__crt_stdio_output@@V?$format_validation_base@_WV?$string_output_adapter@_W@__crt_stdio_output@@@2@@__crt_stdio_output@@AEAA_N_W@Z 00000001800865d0 f i libucrtd:output.obj
 0001:00085730       ?type_case_c_tchar@?$output_processor@_WV?$string_output_adapter@_W@__crt_stdio_output@@V?$positional_parameter_base@_WV?$string_output_adapter@_W@__crt_stdio_output@@@2@@__crt_stdio_output@@AEAA_N_W@Z 0000000180086730 f i libucrtd:output.obj
 0001:00085890       ?type_case_c_tchar@?$output_processor@_WV?$string_output_adapter@_W@__crt_stdio_output@@V?$standard_base@_WV?$string_output_adapter@_W@__crt_stdio_output@@@2@@__crt_stdio_output@@AEAA_N_W@Z 0000000180086890 f i libucrtd:output.obj
 0001:000859f0       ?type_case_d@?$output_processor@DV?$stream_output_adapter@D@__crt_stdio_output@@V?$format_validation_base@DV?$stream_output_adapter@D@__crt_stdio_output@@@2@@__crt_stdio_output@@AEAA_NXZ 00000001800869f0 f i libucrtd:output.obj
 0001:00085a20       ?type_case_d@?$output_processor@DV?$stream_output_adapter@D@__crt_stdio_output@@V?$positional_parameter_base@DV?$stream_output_adapter@D@__crt_stdio_output@@@2@@__crt_stdio_output@@AEAA_NXZ 0000000180086a20 f i libucrtd:output.obj
 0001:00085a50       ?type_case_d@?$output_processor@DV?$stream_output_adapter@D@__crt_stdio_output@@V?$standard_base@DV?$stream_output_adapter@D@__crt_stdio_output@@@2@@__crt_stdio_output@@AEAA_NXZ 0000000180086a50 f i libucrtd:output.obj
 0001:00085a80       ?type_case_d@?$output_processor@DV?$string_output_adapter@D@__crt_stdio_output@@V?$format_validation_base@DV?$string_output_adapter@D@__crt_stdio_output@@@2@@__crt_stdio_output@@AEAA_NXZ 0000000180086a80 f i libucrtd:output.obj
 0001:00085ab0       ?type_case_d@?$output_processor@DV?$string_output_adapter@D@__crt_stdio_output@@V?$positional_parameter_base@DV?$string_output_adapter@D@__crt_stdio_output@@@2@@__crt_stdio_output@@AEAA_NXZ 0000000180086ab0 f i libucrtd:output.obj
 0001:00085ae0       ?type_case_d@?$output_processor@DV?$string_output_adapter@D@__crt_stdio_output@@V?$standard_base@DV?$string_output_adapter@D@__crt_stdio_output@@@2@@__crt_stdio_output@@AEAA_NXZ 0000000180086ae0 f i libucrtd:output.obj
 0001:00085b10       ?type_case_d@?$output_processor@_WV?$stream_output_adapter@_W@__crt_stdio_output@@V?$format_validation_base@_WV?$stream_output_adapter@_W@__crt_stdio_output@@@2@@__crt_stdio_output@@AEAA_NXZ 0000000180086b10 f i libucrtd:output.obj
 0001:00085b40       ?type_case_d@?$output_processor@_WV?$stream_output_adapter@_W@__crt_stdio_output@@V?$positional_parameter_base@_WV?$stream_output_adapter@_W@__crt_stdio_output@@@2@@__crt_stdio_output@@AEAA_NXZ 0000000180086b40 f i libucrtd:output.obj
 0001:00085b70       ?type_case_d@?$output_processor@_WV?$stream_output_adapter@_W@__crt_stdio_output@@V?$standard_base@_WV?$stream_output_adapter@_W@__crt_stdio_output@@@2@@__crt_stdio_output@@AEAA_NXZ 0000000180086b70 f i libucrtd:output.obj
 0001:00085ba0       ?type_case_d@?$output_processor@_WV?$string_output_adapter@_W@__crt_stdio_output@@V?$format_validation_base@_WV?$string_output_adapter@_W@__crt_stdio_output@@@2@@__crt_stdio_output@@AEAA_NXZ 0000000180086ba0 f i libucrtd:output.obj
 0001:00085bd0       ?type_case_d@?$output_processor@_WV?$string_output_adapter@_W@__crt_stdio_output@@V?$positional_parameter_base@_WV?$string_output_adapter@_W@__crt_stdio_output@@@2@@__crt_stdio_output@@AEAA_NXZ 0000000180086bd0 f i libucrtd:output.obj
 0001:00085c00       ?type_case_d@?$output_processor@_WV?$string_output_adapter@_W@__crt_stdio_output@@V?$standard_base@_WV?$string_output_adapter@_W@__crt_stdio_output@@@2@@__crt_stdio_output@@AEAA_NXZ 0000000180086c00 f i libucrtd:output.obj
 0001:00085c30       ?type_case_n@?$output_processor@DV?$stream_output_adapter@D@__crt_stdio_output@@V?$format_validation_base@DV?$stream_output_adapter@D@__crt_stdio_output@@@2@@__crt_stdio_output@@AEAA_NXZ 0000000180086c30 f i libucrtd:output.obj
 0001:00085ec0       ?type_case_n@?$output_processor@DV?$stream_output_adapter@D@__crt_stdio_output@@V?$positional_parameter_base@DV?$stream_output_adapter@D@__crt_stdio_output@@@2@@__crt_stdio_output@@AEAA_NXZ 0000000180086ec0 f i libucrtd:output.obj
 0001:00086150       ?type_case_n@?$output_processor@DV?$stream_output_adapter@D@__crt_stdio_output@@V?$standard_base@DV?$stream_output_adapter@D@__crt_stdio_output@@@2@@__crt_stdio_output@@AEAA_NXZ 0000000180087150 f i libucrtd:output.obj
 0001:000863e0       ?type_case_n@?$output_processor@DV?$string_output_adapter@D@__crt_stdio_output@@V?$format_validation_base@DV?$string_output_adapter@D@__crt_stdio_output@@@2@@__crt_stdio_output@@AEAA_NXZ 00000001800873e0 f i libucrtd:output.obj
 0001:00086670       ?type_case_n@?$output_processor@DV?$string_output_adapter@D@__crt_stdio_output@@V?$positional_parameter_base@DV?$string_output_adapter@D@__crt_stdio_output@@@2@@__crt_stdio_output@@AEAA_NXZ 0000000180087670 f i libucrtd:output.obj
 0001:00086900       ?type_case_n@?$output_processor@DV?$string_output_adapter@D@__crt_stdio_output@@V?$standard_base@DV?$string_output_adapter@D@__crt_stdio_output@@@2@@__crt_stdio_output@@AEAA_NXZ 0000000180087900 f i libucrtd:output.obj
 0001:00086b90       ?type_case_n@?$output_processor@_WV?$stream_output_adapter@_W@__crt_stdio_output@@V?$format_validation_base@_WV?$stream_output_adapter@_W@__crt_stdio_output@@@2@@__crt_stdio_output@@AEAA_NXZ 0000000180087b90 f i libucrtd:output.obj
 0001:00086e20       ?type_case_n@?$output_processor@_WV?$stream_output_adapter@_W@__crt_stdio_output@@V?$positional_parameter_base@_WV?$stream_output_adapter@_W@__crt_stdio_output@@@2@@__crt_stdio_output@@AEAA_NXZ 0000000180087e20 f i libucrtd:output.obj
 0001:000870b0       ?type_case_n@?$output_processor@_WV?$stream_output_adapter@_W@__crt_stdio_output@@V?$standard_base@_WV?$stream_output_adapter@_W@__crt_stdio_output@@@2@@__crt_stdio_output@@AEAA_NXZ 00000001800880b0 f i libucrtd:output.obj
 0001:00087340       ?type_case_n@?$output_processor@_WV?$string_output_adapter@_W@__crt_stdio_output@@V?$format_validation_base@_WV?$string_output_adapter@_W@__crt_stdio_output@@@2@@__crt_stdio_output@@AEAA_NXZ 0000000180088340 f i libucrtd:output.obj
 0001:000875d0       ?type_case_n@?$output_processor@_WV?$string_output_adapter@_W@__crt_stdio_output@@V?$positional_parameter_base@_WV?$string_output_adapter@_W@__crt_stdio_output@@@2@@__crt_stdio_output@@AEAA_NXZ 00000001800885d0 f i libucrtd:output.obj
 0001:00087860       ?type_case_n@?$output_processor@_WV?$string_output_adapter@_W@__crt_stdio_output@@V?$standard_base@_WV?$string_output_adapter@_W@__crt_stdio_output@@@2@@__crt_stdio_output@@AEAA_NXZ 0000000180088860 f i libucrtd:output.obj
 0001:00087af0       ?type_case_o@?$output_processor@DV?$stream_output_adapter@D@__crt_stdio_output@@V?$format_validation_base@DV?$stream_output_adapter@D@__crt_stdio_output@@@2@@__crt_stdio_output@@AEAA_NXZ 0000000180088af0 f i libucrtd:output.obj
 0001:00087b30       ?type_case_o@?$output_processor@DV?$stream_output_adapter@D@__crt_stdio_output@@V?$positional_parameter_base@DV?$stream_output_adapter@D@__crt_stdio_output@@@2@@__crt_stdio_output@@AEAA_NXZ 0000000180088b30 f i libucrtd:output.obj
 0001:00087b70       ?type_case_o@?$output_processor@DV?$stream_output_adapter@D@__crt_stdio_output@@V?$standard_base@DV?$stream_output_adapter@D@__crt_stdio_output@@@2@@__crt_stdio_output@@AEAA_NXZ 0000000180088b70 f i libucrtd:output.obj
 0001:00087bb0       ?type_case_o@?$output_processor@DV?$string_output_adapter@D@__crt_stdio_output@@V?$format_validation_base@DV?$string_output_adapter@D@__crt_stdio_output@@@2@@__crt_stdio_output@@AEAA_NXZ 0000000180088bb0 f i libucrtd:output.obj
 0001:00087bf0       ?type_case_o@?$output_processor@DV?$string_output_adapter@D@__crt_stdio_output@@V?$positional_parameter_base@DV?$string_output_adapter@D@__crt_stdio_output@@@2@@__crt_stdio_output@@AEAA_NXZ 0000000180088bf0 f i libucrtd:output.obj
 0001:00087c30       ?type_case_o@?$output_processor@DV?$string_output_adapter@D@__crt_stdio_output@@V?$standard_base@DV?$string_output_adapter@D@__crt_stdio_output@@@2@@__crt_stdio_output@@AEAA_NXZ 0000000180088c30 f i libucrtd:output.obj
 0001:00087c70       ?type_case_o@?$output_processor@_WV?$stream_output_adapter@_W@__crt_stdio_output@@V?$format_validation_base@_WV?$stream_output_adapter@_W@__crt_stdio_output@@@2@@__crt_stdio_output@@AEAA_NXZ 0000000180088c70 f i libucrtd:output.obj
 0001:00087cb0       ?type_case_o@?$output_processor@_WV?$stream_output_adapter@_W@__crt_stdio_output@@V?$positional_parameter_base@_WV?$stream_output_adapter@_W@__crt_stdio_output@@@2@@__crt_stdio_output@@AEAA_NXZ 0000000180088cb0 f i libucrtd:output.obj
 0001:00087cf0       ?type_case_o@?$output_processor@_WV?$stream_output_adapter@_W@__crt_stdio_output@@V?$standard_base@_WV?$stream_output_adapter@_W@__crt_stdio_output@@@2@@__crt_stdio_output@@AEAA_NXZ 0000000180088cf0 f i libucrtd:output.obj
 0001:00087d30       ?type_case_o@?$output_processor@_WV?$string_output_adapter@_W@__crt_stdio_output@@V?$format_validation_base@_WV?$string_output_adapter@_W@__crt_stdio_output@@@2@@__crt_stdio_output@@AEAA_NXZ 0000000180088d30 f i libucrtd:output.obj
 0001:00087d70       ?type_case_o@?$output_processor@_WV?$string_output_adapter@_W@__crt_stdio_output@@V?$positional_parameter_base@_WV?$string_output_adapter@_W@__crt_stdio_output@@@2@@__crt_stdio_output@@AEAA_NXZ 0000000180088d70 f i libucrtd:output.obj
 0001:00087db0       ?type_case_o@?$output_processor@_WV?$string_output_adapter@_W@__crt_stdio_output@@V?$standard_base@_WV?$string_output_adapter@_W@__crt_stdio_output@@@2@@__crt_stdio_output@@AEAA_NXZ 0000000180088db0 f i libucrtd:output.obj
 0001:00087df0       ?type_case_p@?$output_processor@DV?$stream_output_adapter@D@__crt_stdio_output@@V?$format_validation_base@DV?$stream_output_adapter@D@__crt_stdio_output@@@2@@__crt_stdio_output@@AEAA_NXZ 0000000180088df0 f i libucrtd:output.obj
 0001:00087e30       ?type_case_p@?$output_processor@DV?$stream_output_adapter@D@__crt_stdio_output@@V?$positional_parameter_base@DV?$stream_output_adapter@D@__crt_stdio_output@@@2@@__crt_stdio_output@@AEAA_NXZ 0000000180088e30 f i libucrtd:output.obj
 0001:00087e70       ?type_case_p@?$output_processor@DV?$stream_output_adapter@D@__crt_stdio_output@@V?$standard_base@DV?$stream_output_adapter@D@__crt_stdio_output@@@2@@__crt_stdio_output@@AEAA_NXZ 0000000180088e70 f i libucrtd:output.obj
 0001:00087eb0       ?type_case_p@?$output_processor@DV?$string_output_adapter@D@__crt_stdio_output@@V?$format_validation_base@DV?$string_output_adapter@D@__crt_stdio_output@@@2@@__crt_stdio_output@@AEAA_NXZ 0000000180088eb0 f i libucrtd:output.obj
 0001:00087ef0       ?type_case_p@?$output_processor@DV?$string_output_adapter@D@__crt_stdio_output@@V?$positional_parameter_base@DV?$string_output_adapter@D@__crt_stdio_output@@@2@@__crt_stdio_output@@AEAA_NXZ 0000000180088ef0 f i libucrtd:output.obj
 0001:00087f30       ?type_case_p@?$output_processor@DV?$string_output_adapter@D@__crt_stdio_output@@V?$standard_base@DV?$string_output_adapter@D@__crt_stdio_output@@@2@@__crt_stdio_output@@AEAA_NXZ 0000000180088f30 f i libucrtd:output.obj
 0001:00087f70       ?type_case_p@?$output_processor@_WV?$stream_output_adapter@_W@__crt_stdio_output@@V?$format_validation_base@_WV?$stream_output_adapter@_W@__crt_stdio_output@@@2@@__crt_stdio_output@@AEAA_NXZ 0000000180088f70 f i libucrtd:output.obj
 0001:00087fb0       ?type_case_p@?$output_processor@_WV?$stream_output_adapter@_W@__crt_stdio_output@@V?$positional_parameter_base@_WV?$stream_output_adapter@_W@__crt_stdio_output@@@2@@__crt_stdio_output@@AEAA_NXZ 0000000180088fb0 f i libucrtd:output.obj
 0001:00087ff0       ?type_case_p@?$output_processor@_WV?$stream_output_adapter@_W@__crt_stdio_output@@V?$standard_base@_WV?$stream_output_adapter@_W@__crt_stdio_output@@@2@@__crt_stdio_output@@AEAA_NXZ 0000000180088ff0 f i libucrtd:output.obj
 0001:00088030       ?type_case_p@?$output_processor@_WV?$string_output_adapter@_W@__crt_stdio_output@@V?$format_validation_base@_WV?$string_output_adapter@_W@__crt_stdio_output@@@2@@__crt_stdio_output@@AEAA_NXZ 0000000180089030 f i libucrtd:output.obj
 0001:00088070       ?type_case_p@?$output_processor@_WV?$string_output_adapter@_W@__crt_stdio_output@@V?$positional_parameter_base@_WV?$string_output_adapter@_W@__crt_stdio_output@@@2@@__crt_stdio_output@@AEAA_NXZ 0000000180089070 f i libucrtd:output.obj
 0001:000880b0       ?type_case_p@?$output_processor@_WV?$string_output_adapter@_W@__crt_stdio_output@@V?$standard_base@_WV?$string_output_adapter@_W@__crt_stdio_output@@@2@@__crt_stdio_output@@AEAA_NXZ 00000001800890b0 f i libucrtd:output.obj
 0001:000880f0       ?type_case_s@?$output_processor@DV?$stream_output_adapter@D@__crt_stdio_output@@V?$format_validation_base@DV?$stream_output_adapter@D@__crt_stdio_output@@@2@@__crt_stdio_output@@AEAA_NXZ 00000001800890f0 f i libucrtd:output.obj
 0001:00088210       ?type_case_s@?$output_processor@DV?$stream_output_adapter@D@__crt_stdio_output@@V?$positional_parameter_base@DV?$stream_output_adapter@D@__crt_stdio_output@@@2@@__crt_stdio_output@@AEAA_NXZ 0000000180089210 f i libucrtd:output.obj
 0001:00088330       ?type_case_s@?$output_processor@DV?$stream_output_adapter@D@__crt_stdio_output@@V?$standard_base@DV?$stream_output_adapter@D@__crt_stdio_output@@@2@@__crt_stdio_output@@AEAA_NXZ 0000000180089330 f i libucrtd:output.obj
 0001:00088450       ?type_case_s@?$output_processor@DV?$string_output_adapter@D@__crt_stdio_output@@V?$format_validation_base@DV?$string_output_adapter@D@__crt_stdio_output@@@2@@__crt_stdio_output@@AEAA_NXZ 0000000180089450 f i libucrtd:output.obj
 0001:00088570       ?type_case_s@?$output_processor@DV?$string_output_adapter@D@__crt_stdio_output@@V?$positional_parameter_base@DV?$string_output_adapter@D@__crt_stdio_output@@@2@@__crt_stdio_output@@AEAA_NXZ 0000000180089570 f i libucrtd:output.obj
 0001:00088690       ?type_case_s@?$output_processor@DV?$string_output_adapter@D@__crt_stdio_output@@V?$standard_base@DV?$string_output_adapter@D@__crt_stdio_output@@@2@@__crt_stdio_output@@AEAA_NXZ 0000000180089690 f i libucrtd:output.obj
 0001:000887b0       ?type_case_s@?$output_processor@_WV?$stream_output_adapter@_W@__crt_stdio_output@@V?$format_validation_base@_WV?$stream_output_adapter@_W@__crt_stdio_output@@@2@@__crt_stdio_output@@AEAA_NXZ 00000001800897b0 f i libucrtd:output.obj
 0001:000888d0       ?type_case_s@?$output_processor@_WV?$stream_output_adapter@_W@__crt_stdio_output@@V?$positional_parameter_base@_WV?$stream_output_adapter@_W@__crt_stdio_output@@@2@@__crt_stdio_output@@AEAA_NXZ 00000001800898d0 f i libucrtd:output.obj
 0001:000889f0       ?type_case_s@?$output_processor@_WV?$stream_output_adapter@_W@__crt_stdio_output@@V?$standard_base@_WV?$stream_output_adapter@_W@__crt_stdio_output@@@2@@__crt_stdio_output@@AEAA_NXZ 00000001800899f0 f i libucrtd:output.obj
 0001:00088b10       ?type_case_s@?$output_processor@_WV?$string_output_adapter@_W@__crt_stdio_output@@V?$format_validation_base@_WV?$string_output_adapter@_W@__crt_stdio_output@@@2@@__crt_stdio_output@@AEAA_NXZ 0000000180089b10 f i libucrtd:output.obj
 0001:00088c30       ?type_case_s@?$output_processor@_WV?$string_output_adapter@_W@__crt_stdio_output@@V?$positional_parameter_base@_WV?$string_output_adapter@_W@__crt_stdio_output@@@2@@__crt_stdio_output@@AEAA_NXZ 0000000180089c30 f i libucrtd:output.obj
 0001:00088d50       ?type_case_s@?$output_processor@_WV?$string_output_adapter@_W@__crt_stdio_output@@V?$standard_base@_WV?$string_output_adapter@_W@__crt_stdio_output@@@2@@__crt_stdio_output@@AEAA_NXZ 0000000180089d50 f i libucrtd:output.obj
 0001:00088e70       ?type_case_s_compute_narrow_string_length@?$output_processor@DV?$stream_output_adapter@D@__crt_stdio_output@@V?$format_validation_base@DV?$stream_output_adapter@D@__crt_stdio_output@@@2@@__crt_stdio_output@@AEAAHHD@Z 0000000180089e70 f i libucrtd:output.obj
 0001:00088ea0       ?type_case_s_compute_narrow_string_length@?$output_processor@DV?$stream_output_adapter@D@__crt_stdio_output@@V?$positional_parameter_base@DV?$stream_output_adapter@D@__crt_stdio_output@@@2@@__crt_stdio_output@@AEAAHHD@Z 0000000180089ea0 f i libucrtd:output.obj
 0001:00088ed0       ?type_case_s_compute_narrow_string_length@?$output_processor@DV?$stream_output_adapter@D@__crt_stdio_output@@V?$standard_base@DV?$stream_output_adapter@D@__crt_stdio_output@@@2@@__crt_stdio_output@@AEAAHHD@Z 0000000180089ed0 f i libucrtd:output.obj
 0001:00088f00       ?type_case_s_compute_narrow_string_length@?$output_processor@DV?$string_output_adapter@D@__crt_stdio_output@@V?$format_validation_base@DV?$string_output_adapter@D@__crt_stdio_output@@@2@@__crt_stdio_output@@AEAAHHD@Z 0000000180089f00 f i libucrtd:output.obj
 0001:00088f30       ?type_case_s_compute_narrow_string_length@?$output_processor@DV?$string_output_adapter@D@__crt_stdio_output@@V?$positional_parameter_base@DV?$string_output_adapter@D@__crt_stdio_output@@@2@@__crt_stdio_output@@AEAAHHD@Z 0000000180089f30 f i libucrtd:output.obj
 0001:00088f60       ?type_case_s_compute_narrow_string_length@?$output_processor@DV?$string_output_adapter@D@__crt_stdio_output@@V?$standard_base@DV?$string_output_adapter@D@__crt_stdio_output@@@2@@__crt_stdio_output@@AEAAHHD@Z 0000000180089f60 f i libucrtd:output.obj
 0001:00088f90       ?type_case_s_compute_narrow_string_length@?$output_processor@_WV?$stream_output_adapter@_W@__crt_stdio_output@@V?$format_validation_base@_WV?$stream_output_adapter@_W@__crt_stdio_output@@@2@@__crt_stdio_output@@AEAAHH_W@Z 0000000180089f90 f i libucrtd:output.obj
 0001:00089030       ?type_case_s_compute_narrow_string_length@?$output_processor@_WV?$stream_output_adapter@_W@__crt_stdio_output@@V?$positional_parameter_base@_WV?$stream_output_adapter@_W@__crt_stdio_output@@@2@@__crt_stdio_output@@AEAAHH_W@Z 000000018008a030 f i libucrtd:output.obj
 0001:000890d0       ?type_case_s_compute_narrow_string_length@?$output_processor@_WV?$stream_output_adapter@_W@__crt_stdio_output@@V?$standard_base@_WV?$stream_output_adapter@_W@__crt_stdio_output@@@2@@__crt_stdio_output@@AEAAHH_W@Z 000000018008a0d0 f i libucrtd:output.obj
 0001:00089170       ?type_case_s_compute_narrow_string_length@?$output_processor@_WV?$string_output_adapter@_W@__crt_stdio_output@@V?$format_validation_base@_WV?$string_output_adapter@_W@__crt_stdio_output@@@2@@__crt_stdio_output@@AEAAHH_W@Z 000000018008a170 f i libucrtd:output.obj
 0001:00089210       ?type_case_s_compute_narrow_string_length@?$output_processor@_WV?$string_output_adapter@_W@__crt_stdio_output@@V?$positional_parameter_base@_WV?$string_output_adapter@_W@__crt_stdio_output@@@2@@__crt_stdio_output@@AEAAHH_W@Z 000000018008a210 f i libucrtd:output.obj
 0001:000892b0       ?type_case_s_compute_narrow_string_length@?$output_processor@_WV?$string_output_adapter@_W@__crt_stdio_output@@V?$standard_base@_WV?$string_output_adapter@_W@__crt_stdio_output@@@2@@__crt_stdio_output@@AEAAHH_W@Z 000000018008a2b0 f i libucrtd:output.obj
 0001:00089350       ?type_case_u@?$output_processor@DV?$stream_output_adapter@D@__crt_stdio_output@@V?$format_validation_base@DV?$stream_output_adapter@D@__crt_stdio_output@@@2@@__crt_stdio_output@@AEAA_NXZ 000000018008a350 f i libucrtd:output.obj
 0001:00089370       ?type_case_u@?$output_processor@DV?$stream_output_adapter@D@__crt_stdio_output@@V?$positional_parameter_base@DV?$stream_output_adapter@D@__crt_stdio_output@@@2@@__crt_stdio_output@@AEAA_NXZ 000000018008a370 f i libucrtd:output.obj
 0001:00089390       ?type_case_u@?$output_processor@DV?$stream_output_adapter@D@__crt_stdio_output@@V?$standard_base@DV?$stream_output_adapter@D@__crt_stdio_output@@@2@@__crt_stdio_output@@AEAA_NXZ 000000018008a390 f i libucrtd:output.obj
 0001:000893b0       ?type_case_u@?$output_processor@DV?$string_output_adapter@D@__crt_stdio_output@@V?$format_validation_base@DV?$string_output_adapter@D@__crt_stdio_output@@@2@@__crt_stdio_output@@AEAA_NXZ 000000018008a3b0 f i libucrtd:output.obj
 0001:000893d0       ?type_case_u@?$output_processor@DV?$string_output_adapter@D@__crt_stdio_output@@V?$positional_parameter_base@DV?$string_output_adapter@D@__crt_stdio_output@@@2@@__crt_stdio_output@@AEAA_NXZ 000000018008a3d0 f i libucrtd:output.obj
 0001:000893f0       ?type_case_u@?$output_processor@DV?$string_output_adapter@D@__crt_stdio_output@@V?$standard_base@DV?$string_output_adapter@D@__crt_stdio_output@@@2@@__crt_stdio_output@@AEAA_NXZ 000000018008a3f0 f i libucrtd:output.obj
 0001:00089410       ?type_case_u@?$output_processor@_WV?$stream_output_adapter@_W@__crt_stdio_output@@V?$format_validation_base@_WV?$stream_output_adapter@_W@__crt_stdio_output@@@2@@__crt_stdio_output@@AEAA_NXZ 000000018008a410 f i libucrtd:output.obj
 0001:00089430       ?type_case_u@?$output_processor@_WV?$stream_output_adapter@_W@__crt_stdio_output@@V?$positional_parameter_base@_WV?$stream_output_adapter@_W@__crt_stdio_output@@@2@@__crt_stdio_output@@AEAA_NXZ 000000018008a430 f i libucrtd:output.obj
 0001:00089450       ?type_case_u@?$output_processor@_WV?$stream_output_adapter@_W@__crt_stdio_output@@V?$standard_base@_WV?$stream_output_adapter@_W@__crt_stdio_output@@@2@@__crt_stdio_output@@AEAA_NXZ 000000018008a450 f i libucrtd:output.obj
 0001:00089470       ?type_case_u@?$output_processor@_WV?$string_output_adapter@_W@__crt_stdio_output@@V?$format_validation_base@_WV?$string_output_adapter@_W@__crt_stdio_output@@@2@@__crt_stdio_output@@AEAA_NXZ 000000018008a470 f i libucrtd:output.obj
 0001:00089490       ?type_case_u@?$output_processor@_WV?$string_output_adapter@_W@__crt_stdio_output@@V?$positional_parameter_base@_WV?$string_output_adapter@_W@__crt_stdio_output@@@2@@__crt_stdio_output@@AEAA_NXZ 000000018008a490 f i libucrtd:output.obj
 0001:000894b0       ?type_case_u@?$output_processor@_WV?$string_output_adapter@_W@__crt_stdio_output@@V?$standard_base@_WV?$string_output_adapter@_W@__crt_stdio_output@@@2@@__crt_stdio_output@@AEAA_NXZ 000000018008a4b0 f i libucrtd:output.obj
 0001:000894d0       ?type_case_x@?$output_processor@DV?$stream_output_adapter@D@__crt_stdio_output@@V?$format_validation_base@DV?$stream_output_adapter@D@__crt_stdio_output@@@2@@__crt_stdio_output@@AEAA_NXZ 000000018008a4d0 f i libucrtd:output.obj
 0001:000894f0       ?type_case_x@?$output_processor@DV?$stream_output_adapter@D@__crt_stdio_output@@V?$positional_parameter_base@DV?$stream_output_adapter@D@__crt_stdio_output@@@2@@__crt_stdio_output@@AEAA_NXZ 000000018008a4f0 f i libucrtd:output.obj
 0001:00089510       ?type_case_x@?$output_processor@DV?$stream_output_adapter@D@__crt_stdio_output@@V?$standard_base@DV?$stream_output_adapter@D@__crt_stdio_output@@@2@@__crt_stdio_output@@AEAA_NXZ 000000018008a510 f i libucrtd:output.obj
 0001:00089530       ?type_case_x@?$output_processor@DV?$string_output_adapter@D@__crt_stdio_output@@V?$format_validation_base@DV?$string_output_adapter@D@__crt_stdio_output@@@2@@__crt_stdio_output@@AEAA_NXZ 000000018008a530 f i libucrtd:output.obj
 0001:00089550       ?type_case_x@?$output_processor@DV?$string_output_adapter@D@__crt_stdio_output@@V?$positional_parameter_base@DV?$string_output_adapter@D@__crt_stdio_output@@@2@@__crt_stdio_output@@AEAA_NXZ 000000018008a550 f i libucrtd:output.obj
 0001:00089570       ?type_case_x@?$output_processor@DV?$string_output_adapter@D@__crt_stdio_output@@V?$standard_base@DV?$string_output_adapter@D@__crt_stdio_output@@@2@@__crt_stdio_output@@AEAA_NXZ 000000018008a570 f i libucrtd:output.obj
 0001:00089590       ?type_case_x@?$output_processor@_WV?$stream_output_adapter@_W@__crt_stdio_output@@V?$format_validation_base@_WV?$stream_output_adapter@_W@__crt_stdio_output@@@2@@__crt_stdio_output@@AEAA_NXZ 000000018008a590 f i libucrtd:output.obj
 0001:000895b0       ?type_case_x@?$output_processor@_WV?$stream_output_adapter@_W@__crt_stdio_output@@V?$positional_parameter_base@_WV?$stream_output_adapter@_W@__crt_stdio_output@@@2@@__crt_stdio_output@@AEAA_NXZ 000000018008a5b0 f i libucrtd:output.obj
 0001:000895d0       ?type_case_x@?$output_processor@_WV?$stream_output_adapter@_W@__crt_stdio_output@@V?$standard_base@_WV?$stream_output_adapter@_W@__crt_stdio_output@@@2@@__crt_stdio_output@@AEAA_NXZ 000000018008a5d0 f i libucrtd:output.obj
 0001:000895f0       ?type_case_x@?$output_processor@_WV?$string_output_adapter@_W@__crt_stdio_output@@V?$format_validation_base@_WV?$string_output_adapter@_W@__crt_stdio_output@@@2@@__crt_stdio_output@@AEAA_NXZ 000000018008a5f0 f i libucrtd:output.obj
 0001:00089610       ?type_case_x@?$output_processor@_WV?$string_output_adapter@_W@__crt_stdio_output@@V?$positional_parameter_base@_WV?$string_output_adapter@_W@__crt_stdio_output@@@2@@__crt_stdio_output@@AEAA_NXZ 000000018008a610 f i libucrtd:output.obj
 0001:00089630       ?type_case_x@?$output_processor@_WV?$string_output_adapter@_W@__crt_stdio_output@@V?$standard_base@_WV?$string_output_adapter@_W@__crt_stdio_output@@@2@@__crt_stdio_output@@AEAA_NXZ 000000018008a630 f i libucrtd:output.obj
 0001:00089650       ?unget@?$c_string_character_source@D@__crt_strtox@@QEAAXD@Z 000000018008a650 f i libucrtd:output.obj
 0001:00089730       ?unget@?$c_string_character_source@_W@__crt_strtox@@QEAAX_W@Z 000000018008a730 f i libucrtd:output.obj
 0001:00089810       ?unsafe_value@?$cached@H@__crt_cached_ptd_host@@QEAAHXZ 000000018008a810 f i libucrtd:output.obj
 0001:00089820       ?unsafe_value@?$cached@K@__crt_cached_ptd_host@@QEAAKXZ 000000018008a820 f i libucrtd:output.obj
 0001:00089830       ?unset_flag@?$output_processor@DV?$stream_output_adapter@D@__crt_stdio_output@@V?$format_validation_base@DV?$stream_output_adapter@D@__crt_stdio_output@@@2@@__crt_stdio_output@@AEAAXI@Z 000000018008a830 f i libucrtd:output.obj
 0001:00089860       ?unset_flag@?$output_processor@DV?$stream_output_adapter@D@__crt_stdio_output@@V?$positional_parameter_base@DV?$stream_output_adapter@D@__crt_stdio_output@@@2@@__crt_stdio_output@@AEAAXI@Z 000000018008a860 f i libucrtd:output.obj
 0001:00089890       ?unset_flag@?$output_processor@DV?$stream_output_adapter@D@__crt_stdio_output@@V?$standard_base@DV?$stream_output_adapter@D@__crt_stdio_output@@@2@@__crt_stdio_output@@AEAAXI@Z 000000018008a890 f i libucrtd:output.obj
 0001:000898c0       ?unset_flag@?$output_processor@DV?$string_output_adapter@D@__crt_stdio_output@@V?$format_validation_base@DV?$string_output_adapter@D@__crt_stdio_output@@@2@@__crt_stdio_output@@AEAAXI@Z 000000018008a8c0 f i libucrtd:output.obj
 0001:000898f0       ?unset_flag@?$output_processor@DV?$string_output_adapter@D@__crt_stdio_output@@V?$positional_parameter_base@DV?$string_output_adapter@D@__crt_stdio_output@@@2@@__crt_stdio_output@@AEAAXI@Z 000000018008a8f0 f i libucrtd:output.obj
 0001:00089920       ?unset_flag@?$output_processor@DV?$string_output_adapter@D@__crt_stdio_output@@V?$standard_base@DV?$string_output_adapter@D@__crt_stdio_output@@@2@@__crt_stdio_output@@AEAAXI@Z 000000018008a920 f i libucrtd:output.obj
 0001:00089950       ?unset_flag@?$output_processor@_WV?$stream_output_adapter@_W@__crt_stdio_output@@V?$format_validation_base@_WV?$stream_output_adapter@_W@__crt_stdio_output@@@2@@__crt_stdio_output@@AEAAXI@Z 000000018008a950 f i libucrtd:output.obj
 0001:00089980       ?unset_flag@?$output_processor@_WV?$stream_output_adapter@_W@__crt_stdio_output@@V?$positional_parameter_base@_WV?$stream_output_adapter@_W@__crt_stdio_output@@@2@@__crt_stdio_output@@AEAAXI@Z 000000018008a980 f i libucrtd:output.obj
 0001:000899b0       ?unset_flag@?$output_processor@_WV?$stream_output_adapter@_W@__crt_stdio_output@@V?$standard_base@_WV?$stream_output_adapter@_W@__crt_stdio_output@@@2@@__crt_stdio_output@@AEAAXI@Z 000000018008a9b0 f i libucrtd:output.obj
 0001:000899e0       ?unset_flag@?$output_processor@_WV?$string_output_adapter@_W@__crt_stdio_output@@V?$format_validation_base@_WV?$string_output_adapter@_W@__crt_stdio_output@@@2@@__crt_stdio_output@@AEAAXI@Z 000000018008a9e0 f i libucrtd:output.obj
 0001:00089a10       ?unset_flag@?$output_processor@_WV?$string_output_adapter@_W@__crt_stdio_output@@V?$positional_parameter_base@_WV?$string_output_adapter@_W@__crt_stdio_output@@@2@@__crt_stdio_output@@AEAAXI@Z 000000018008aa10 f i libucrtd:output.obj
 0001:00089a40       ?unset_flag@?$output_processor@_WV?$string_output_adapter@_W@__crt_stdio_output@@V?$standard_base@_WV?$string_output_adapter@_W@__crt_stdio_output@@@2@@__crt_stdio_output@@AEAAXI@Z 000000018008aa40 f i libucrtd:output.obj
 0001:00089a70       ?update_field_width@?$positional_parameter_base@DV?$stream_output_adapter@D@__crt_stdio_output@@@__crt_stdio_output@@IEAA_NXZ 000000018008aa70 f i libucrtd:output.obj
 0001:00089c70       ?update_field_width@?$positional_parameter_base@DV?$string_output_adapter@D@__crt_stdio_output@@@__crt_stdio_output@@IEAA_NXZ 000000018008ac70 f i libucrtd:output.obj
 0001:00089e70       ?update_field_width@?$positional_parameter_base@_WV?$stream_output_adapter@_W@__crt_stdio_output@@@__crt_stdio_output@@IEAA_NXZ 000000018008ae70 f i libucrtd:output.obj
 0001:0008a070       ?update_field_width@?$positional_parameter_base@_WV?$string_output_adapter@_W@__crt_stdio_output@@@__crt_stdio_output@@IEAA_NXZ 000000018008b070 f i libucrtd:output.obj
 0001:0008a270       ?update_field_width@?$standard_base@DV?$stream_output_adapter@D@__crt_stdio_output@@@__crt_stdio_output@@IEAA_NXZ 000000018008b270 f i libucrtd:output.obj
 0001:0008a2a0       ?update_field_width@?$standard_base@DV?$string_output_adapter@D@__crt_stdio_output@@@__crt_stdio_output@@IEAA_NXZ 000000018008b2a0 f i libucrtd:output.obj
 0001:0008a2d0       ?update_field_width@?$standard_base@_WV?$stream_output_adapter@_W@__crt_stdio_output@@@__crt_stdio_output@@IEAA_NXZ 000000018008b2d0 f i libucrtd:output.obj
 0001:0008a300       ?update_field_width@?$standard_base@_WV?$string_output_adapter@_W@__crt_stdio_output@@@__crt_stdio_output@@IEAA_NXZ 000000018008b300 f i libucrtd:output.obj
 0001:0008a330       ?update_locale@__crt_cached_ptd_host@@AEAAXXZ 000000018008b330 f i libucrtd:output.obj
 0001:0008a360       ?update_locale_slow@__crt_cached_ptd_host@@AEAAXXZ 000000018008b360 f i libucrtd:output.obj
 0001:0008a410       ?update_precision@?$positional_parameter_base@DV?$stream_output_adapter@D@__crt_stdio_output@@@__crt_stdio_output@@IEAA_NXZ 000000018008b410 f i libucrtd:output.obj
 0001:0008a610       ?update_precision@?$positional_parameter_base@DV?$string_output_adapter@D@__crt_stdio_output@@@__crt_stdio_output@@IEAA_NXZ 000000018008b610 f i libucrtd:output.obj
 0001:0008a810       ?update_precision@?$positional_parameter_base@_WV?$stream_output_adapter@_W@__crt_stdio_output@@@__crt_stdio_output@@IEAA_NXZ 000000018008b810 f i libucrtd:output.obj
 0001:0008aa10       ?update_precision@?$positional_parameter_base@_WV?$string_output_adapter@_W@__crt_stdio_output@@@__crt_stdio_output@@IEAA_NXZ 000000018008ba10 f i libucrtd:output.obj
 0001:0008ac10       ?update_precision@?$standard_base@DV?$stream_output_adapter@D@__crt_stdio_output@@@__crt_stdio_output@@IEAA_NXZ 000000018008bc10 f i libucrtd:output.obj
 0001:0008ac40       ?update_precision@?$standard_base@DV?$string_output_adapter@D@__crt_stdio_output@@@__crt_stdio_output@@IEAA_NXZ 000000018008bc40 f i libucrtd:output.obj
 0001:0008ac70       ?update_precision@?$standard_base@_WV?$stream_output_adapter@_W@__crt_stdio_output@@@__crt_stdio_output@@IEAA_NXZ 000000018008bc70 f i libucrtd:output.obj
 0001:0008aca0       ?update_precision@?$standard_base@_WV?$string_output_adapter@_W@__crt_stdio_output@@@__crt_stdio_output@@IEAA_NXZ 000000018008bca0 f i libucrtd:output.obj
 0001:0008acd0       ?valid@?$cached@H@__crt_cached_ptd_host@@QEBA_NXZ 000000018008bcd0 f i libucrtd:output.obj
 0001:0008ace0       ?valid@?$cached@K@__crt_cached_ptd_host@@QEBA_NXZ 000000018008bce0 f i libucrtd:output.obj
 0001:0008acf0       ?valid@__crt_stdio_stream@@QEBA_NXZ 000000018008bcf0 f i libucrtd:output.obj
 0001:0008ad20       ?validate@?$c_string_character_source@D@__crt_strtox@@QEBA_NXZ 000000018008bd20 f i libucrtd:output.obj
 0001:0008ade0       ?validate@?$c_string_character_source@_W@__crt_strtox@@QEBA_NXZ 000000018008bde0 f i libucrtd:output.obj
 0001:0008aea0       ?validate@?$stream_output_adapter@D@__crt_stdio_output@@QEBA_NAEAV__crt_cached_ptd_host@@@Z 000000018008bea0 f i libucrtd:output.obj
 0001:0008afa0       ?validate@?$stream_output_adapter@_W@__crt_stdio_output@@QEBA_NAEAV__crt_cached_ptd_host@@@Z 000000018008bfa0 f i libucrtd:output.obj
 0001:0008b0a0       ?validate@?$string_output_adapter@D@__crt_stdio_output@@QEBA_NAEAV__crt_cached_ptd_host@@@Z 000000018008c0a0 f i libucrtd:output.obj
 0001:0008b180       ?validate@?$string_output_adapter@_W@__crt_stdio_output@@QEBA_NAEAV__crt_cached_ptd_host@@@Z 000000018008c180 f i libucrtd:output.obj
 0001:0008b260       ?validate_and_store_parameter_data@?$positional_parameter_base@DV?$stream_output_adapter@D@__crt_stdio_output@@@__crt_stdio_output@@AEAA_NAEAUparameter_data@12@W4parameter_type@12@DW4length_modifier@2@@Z 000000018008c260 f i libucrtd:output.obj
 0001:0008b3a0       ?validate_and_store_parameter_data@?$positional_parameter_base@DV?$string_output_adapter@D@__crt_stdio_output@@@__crt_stdio_output@@AEAA_NAEAUparameter_data@12@W4parameter_type@12@DW4length_modifier@2@@Z 000000018008c3a0 f i libucrtd:output.obj
 0001:0008b4e0       ?validate_and_store_parameter_data@?$positional_parameter_base@_WV?$stream_output_adapter@_W@__crt_stdio_output@@@__crt_stdio_output@@AEAA_NAEAUparameter_data@12@W4parameter_type@12@_WW4length_modifier@2@@Z 000000018008c4e0 f i libucrtd:output.obj
 0001:0008b620       ?validate_and_store_parameter_data@?$positional_parameter_base@_WV?$string_output_adapter@_W@__crt_stdio_output@@@__crt_stdio_output@@AEAA_NAEAUparameter_data@12@W4parameter_type@12@_WW4length_modifier@2@@Z 000000018008c620 f i libucrtd:output.obj
 0001:0008b760       ?validate_and_update_state_at_beginning_of_format_character@?$positional_parameter_base@DV?$stream_output_adapter@D@__crt_stdio_output@@@__crt_stdio_output@@IEAA_NXZ 000000018008c760 f i libucrtd:output.obj
 0001:0008ba00       ?validate_and_update_state_at_beginning_of_format_character@?$positional_parameter_base@DV?$string_output_adapter@D@__crt_stdio_output@@@__crt_stdio_output@@IEAA_NXZ 000000018008ca00 f i libucrtd:output.obj
 0001:0008bca0       ?validate_and_update_state_at_beginning_of_format_character@?$positional_parameter_base@_WV?$stream_output_adapter@_W@__crt_stdio_output@@@__crt_stdio_output@@IEAA_NXZ 000000018008cca0 f i libucrtd:output.obj
 0001:0008bf40       ?validate_and_update_state_at_beginning_of_format_character@?$positional_parameter_base@_WV?$string_output_adapter@_W@__crt_stdio_output@@@__crt_stdio_output@@IEAA_NXZ 000000018008cf40 f i libucrtd:output.obj
 0001:0008c1e0       ?validate_and_update_state_at_beginning_of_format_character@?$standard_base@DV?$stream_output_adapter@D@__crt_stdio_output@@@__crt_stdio_output@@IEAA_NXZ 000000018008d1e0 f i libucrtd:output.obj
 0001:0008c1f0       ?validate_and_update_state_at_beginning_of_format_character@?$standard_base@DV?$string_output_adapter@D@__crt_stdio_output@@@__crt_stdio_output@@IEAA_NXZ 000000018008d1f0 f i libucrtd:output.obj
 0001:0008c200       ?validate_and_update_state_at_beginning_of_format_character@?$standard_base@_WV?$stream_output_adapter@_W@__crt_stdio_output@@@__crt_stdio_output@@IEAA_NXZ 000000018008d200 f i libucrtd:output.obj
 0001:0008c210       ?validate_and_update_state_at_beginning_of_format_character@?$standard_base@_WV?$string_output_adapter@_W@__crt_stdio_output@@@__crt_stdio_output@@IEAA_NXZ 000000018008d210 f i libucrtd:output.obj
 0001:0008c220       ?validate_and_update_state_at_end_of_format_string@?$format_validation_base@DV?$stream_output_adapter@D@__crt_stdio_output@@@__crt_stdio_output@@IEAA_NXZ 000000018008d220 f i libucrtd:output.obj
 0001:0008c310       ?validate_and_update_state_at_end_of_format_string@?$format_validation_base@DV?$string_output_adapter@D@__crt_stdio_output@@@__crt_stdio_output@@IEAA_NXZ 000000018008d310 f i libucrtd:output.obj
 0001:0008c400       ?validate_and_update_state_at_end_of_format_string@?$format_validation_base@_WV?$stream_output_adapter@_W@__crt_stdio_output@@@__crt_stdio_output@@IEAA_NXZ 000000018008d400 f i libucrtd:output.obj
 0001:0008c4f0       ?validate_and_update_state_at_end_of_format_string@?$format_validation_base@_WV?$string_output_adapter@_W@__crt_stdio_output@@@__crt_stdio_output@@IEAA_NXZ 000000018008d4f0 f i libucrtd:output.obj
 0001:0008c5e0       ?validate_and_update_state_at_end_of_format_string@?$positional_parameter_base@DV?$stream_output_adapter@D@__crt_stdio_output@@@__crt_stdio_output@@IEAA_NXZ 000000018008d5e0 f i libucrtd:output.obj
 0001:0008c810       ?validate_and_update_state_at_end_of_format_string@?$positional_parameter_base@DV?$string_output_adapter@D@__crt_stdio_output@@@__crt_stdio_output@@IEAA_NXZ 000000018008d810 f i libucrtd:output.obj
 0001:0008ca40       ?validate_and_update_state_at_end_of_format_string@?$positional_parameter_base@_WV?$stream_output_adapter@_W@__crt_stdio_output@@@__crt_stdio_output@@IEAA_NXZ 000000018008da40 f i libucrtd:output.obj
 0001:0008cc70       ?validate_and_update_state_at_end_of_format_string@?$positional_parameter_base@_WV?$string_output_adapter@_W@__crt_stdio_output@@@__crt_stdio_output@@IEAA_NXZ 000000018008dc70 f i libucrtd:output.obj
 0001:0008cea0       ?validate_and_update_state_at_end_of_format_string@?$standard_base@DV?$stream_output_adapter@D@__crt_stdio_output@@@__crt_stdio_output@@IEBA_NXZ 000000018008dea0 f i libucrtd:output.obj
 0001:0008ceb0       ?validate_and_update_state_at_end_of_format_string@?$standard_base@DV?$string_output_adapter@D@__crt_stdio_output@@@__crt_stdio_output@@IEBA_NXZ 000000018008deb0 f i libucrtd:output.obj
 0001:0008cec0       ?validate_and_update_state_at_end_of_format_string@?$standard_base@_WV?$stream_output_adapter@_W@__crt_stdio_output@@@__crt_stdio_output@@IEBA_NXZ 000000018008dec0 f i libucrtd:output.obj
 0001:0008ced0       ?validate_and_update_state_at_end_of_format_string@?$standard_base@_WV?$string_output_adapter@_W@__crt_stdio_output@@@__crt_stdio_output@@IEBA_NXZ 000000018008ded0 f i libucrtd:output.obj
 0001:0008cee0       ?validate_state_for_type_case_a@?$positional_parameter_base@DV?$stream_output_adapter@D@__crt_stdio_output@@@__crt_stdio_output@@IEAA_NXZ 000000018008dee0 f i libucrtd:output.obj
 0001:0008d040       ?validate_state_for_type_case_a@?$positional_parameter_base@DV?$string_output_adapter@D@__crt_stdio_output@@@__crt_stdio_output@@IEAA_NXZ 000000018008e040 f i libucrtd:output.obj
 0001:0008d1a0       ?validate_state_for_type_case_a@?$positional_parameter_base@_WV?$stream_output_adapter@_W@__crt_stdio_output@@@__crt_stdio_output@@IEAA_NXZ 000000018008e1a0 f i libucrtd:output.obj
 0001:0008d300       ?validate_state_for_type_case_a@?$positional_parameter_base@_WV?$string_output_adapter@_W@__crt_stdio_output@@@__crt_stdio_output@@IEAA_NXZ 000000018008e300 f i libucrtd:output.obj
 0001:0008d460       ?validate_state_for_type_case_a@?$standard_base@DV?$stream_output_adapter@D@__crt_stdio_output@@@__crt_stdio_output@@IEBA_NXZ 000000018008e460 f i libucrtd:output.obj
 0001:0008d470       ?validate_state_for_type_case_a@?$standard_base@DV?$string_output_adapter@D@__crt_stdio_output@@@__crt_stdio_output@@IEBA_NXZ 000000018008e470 f i libucrtd:output.obj
 0001:0008d480       ?validate_state_for_type_case_a@?$standard_base@_WV?$stream_output_adapter@_W@__crt_stdio_output@@@__crt_stdio_output@@IEBA_NXZ 000000018008e480 f i libucrtd:output.obj
 0001:0008d490       ?validate_state_for_type_case_a@?$standard_base@_WV?$string_output_adapter@_W@__crt_stdio_output@@@__crt_stdio_output@@IEBA_NXZ 000000018008e490 f i libucrtd:output.obj
 0001:0008d4a0       ?validate_stream_is_ansi_if_required@?$__acrt_stdio_char_traits@D@@SA_NQEAU_iobuf@@@Z 000000018008e4a0 f i libucrtd:output.obj
 0001:0008d630       ?validate_stream_is_ansi_if_required@?$__acrt_stdio_char_traits@_W@@SA_NQEAU_iobuf@@@Z 000000018008e630 f i libucrtd:output.obj
 0001:0008d640       ?wide_character_to_digit@__crt_strtox@@YAH_W@Z 000000018008e640 f i libucrtd:output.obj
 0001:0008d9b0       ?wide_null_string@?$output_processor@DV?$stream_output_adapter@D@__crt_stdio_output@@V?$format_validation_base@DV?$stream_output_adapter@D@__crt_stdio_output@@@2@@__crt_stdio_output@@CAPEA_WXZ 000000018008e9b0 f i libucrtd:output.obj
 0001:0008d9c0       ?wide_null_string@?$output_processor@DV?$stream_output_adapter@D@__crt_stdio_output@@V?$positional_parameter_base@DV?$stream_output_adapter@D@__crt_stdio_output@@@2@@__crt_stdio_output@@CAPEA_WXZ 000000018008e9c0 f i libucrtd:output.obj
 0001:0008d9d0       ?wide_null_string@?$output_processor@DV?$stream_output_adapter@D@__crt_stdio_output@@V?$standard_base@DV?$stream_output_adapter@D@__crt_stdio_output@@@2@@__crt_stdio_output@@CAPEA_WXZ 000000018008e9d0 f i libucrtd:output.obj
 0001:0008d9e0       ?wide_null_string@?$output_processor@DV?$string_output_adapter@D@__crt_stdio_output@@V?$format_validation_base@DV?$string_output_adapter@D@__crt_stdio_output@@@2@@__crt_stdio_output@@CAPEA_WXZ 000000018008e9e0 f i libucrtd:output.obj
 0001:0008d9f0       ?wide_null_string@?$output_processor@DV?$string_output_adapter@D@__crt_stdio_output@@V?$positional_parameter_base@DV?$string_output_adapter@D@__crt_stdio_output@@@2@@__crt_stdio_output@@CAPEA_WXZ 000000018008e9f0 f i libucrtd:output.obj
 0001:0008da00       ?wide_null_string@?$output_processor@DV?$string_output_adapter@D@__crt_stdio_output@@V?$standard_base@DV?$string_output_adapter@D@__crt_stdio_output@@@2@@__crt_stdio_output@@CAPEA_WXZ 000000018008ea00 f i libucrtd:output.obj
 0001:0008da10       ?wide_null_string@?$output_processor@_WV?$stream_output_adapter@_W@__crt_stdio_output@@V?$format_validation_base@_WV?$stream_output_adapter@_W@__crt_stdio_output@@@2@@__crt_stdio_output@@CAPEA_WXZ 000000018008ea10 f i libucrtd:output.obj
 0001:0008da20       ?wide_null_string@?$output_processor@_WV?$stream_output_adapter@_W@__crt_stdio_output@@V?$positional_parameter_base@_WV?$stream_output_adapter@_W@__crt_stdio_output@@@2@@__crt_stdio_output@@CAPEA_WXZ 000000018008ea20 f i libucrtd:output.obj
 0001:0008da30       ?wide_null_string@?$output_processor@_WV?$stream_output_adapter@_W@__crt_stdio_output@@V?$standard_base@_WV?$stream_output_adapter@_W@__crt_stdio_output@@@2@@__crt_stdio_output@@CAPEA_WXZ 000000018008ea30 f i libucrtd:output.obj
 0001:0008da40       ?wide_null_string@?$output_processor@_WV?$string_output_adapter@_W@__crt_stdio_output@@V?$format_validation_base@_WV?$string_output_adapter@_W@__crt_stdio_output@@@2@@__crt_stdio_output@@CAPEA_WXZ 000000018008ea40 f i libucrtd:output.obj
 0001:0008da50       ?wide_null_string@?$output_processor@_WV?$string_output_adapter@_W@__crt_stdio_output@@V?$positional_parameter_base@_WV?$string_output_adapter@_W@__crt_stdio_output@@@2@@__crt_stdio_output@@CAPEA_WXZ 000000018008ea50 f i libucrtd:output.obj
 0001:0008da60       ?wide_null_string@?$output_processor@_WV?$string_output_adapter@_W@__crt_stdio_output@@V?$standard_base@_WV?$string_output_adapter@_W@__crt_stdio_output@@@2@@__crt_stdio_output@@CAPEA_WXZ 000000018008ea60 f i libucrtd:output.obj
 0001:0008da70       ?write_character@?$output_adapter_common@DV?$stream_output_adapter@D@__crt_stdio_output@@@__crt_stdio_output@@QEBAXDQEAHAEAV__crt_cached_ptd_host@@@Z 000000018008ea70 f i libucrtd:output.obj
 0001:0008dad0       ?write_character@?$output_adapter_common@_WV?$stream_output_adapter@_W@__crt_stdio_output@@@__crt_stdio_output@@QEBAX_WQEAHAEAV__crt_cached_ptd_host@@@Z 000000018008ead0 f i libucrtd:output.obj
 0001:0008db30       ?write_character@?$string_output_adapter@D@__crt_stdio_output@@QEBA_NDQEAHAEAV__crt_cached_ptd_host@@@Z 000000018008eb30 f i libucrtd:output.obj
 0001:0008dc00       ?write_character@?$string_output_adapter@_W@__crt_stdio_output@@QEBA_N_WQEAHAEAV__crt_cached_ptd_host@@@Z 000000018008ec00 f i libucrtd:output.obj
 0001:0008dcd0       ?write_character_without_count_update@?$stream_output_adapter@D@__crt_stdio_output@@QEBA_NDAEAV__crt_cached_ptd_host@@@Z 000000018008ecd0 f i libucrtd:output.obj
 0001:0008dd60       ?write_character_without_count_update@?$stream_output_adapter@_W@__crt_stdio_output@@QEBA_N_WAEAV__crt_cached_ptd_host@@@Z 000000018008ed60 f i libucrtd:output.obj
 0001:0008ddf0       ?write_stored_string_tchar@?$output_processor@DV?$stream_output_adapter@D@__crt_stdio_output@@V?$format_validation_base@DV?$stream_output_adapter@D@__crt_stdio_output@@@2@@__crt_stdio_output@@AEAA_ND@Z 000000018008edf0 f i libucrtd:output.obj
 0001:0008dfa0       ?write_stored_string_tchar@?$output_processor@DV?$stream_output_adapter@D@__crt_stdio_output@@V?$positional_parameter_base@DV?$stream_output_adapter@D@__crt_stdio_output@@@2@@__crt_stdio_output@@AEAA_ND@Z 000000018008efa0 f i libucrtd:output.obj
 0001:0008e150       ?write_stored_string_tchar@?$output_processor@DV?$stream_output_adapter@D@__crt_stdio_output@@V?$standard_base@DV?$stream_output_adapter@D@__crt_stdio_output@@@2@@__crt_stdio_output@@AEAA_ND@Z 000000018008f150 f i libucrtd:output.obj
 0001:0008e300       ?write_stored_string_tchar@?$output_processor@DV?$string_output_adapter@D@__crt_stdio_output@@V?$format_validation_base@DV?$string_output_adapter@D@__crt_stdio_output@@@2@@__crt_stdio_output@@AEAA_ND@Z 000000018008f300 f i libucrtd:output.obj
 0001:0008e4b0       ?write_stored_string_tchar@?$output_processor@DV?$string_output_adapter@D@__crt_stdio_output@@V?$positional_parameter_base@DV?$string_output_adapter@D@__crt_stdio_output@@@2@@__crt_stdio_output@@AEAA_ND@Z 000000018008f4b0 f i libucrtd:output.obj
 0001:0008e660       ?write_stored_string_tchar@?$output_processor@DV?$string_output_adapter@D@__crt_stdio_output@@V?$standard_base@DV?$string_output_adapter@D@__crt_stdio_output@@@2@@__crt_stdio_output@@AEAA_ND@Z 000000018008f660 f i libucrtd:output.obj
 0001:0008e810       ?write_stored_string_tchar@?$output_processor@_WV?$stream_output_adapter@_W@__crt_stdio_output@@V?$format_validation_base@_WV?$stream_output_adapter@_W@__crt_stdio_output@@@2@@__crt_stdio_output@@AEAA_N_W@Z 000000018008f810 f i libucrtd:output.obj
 0001:0008e970       ?write_stored_string_tchar@?$output_processor@_WV?$stream_output_adapter@_W@__crt_stdio_output@@V?$positional_parameter_base@_WV?$stream_output_adapter@_W@__crt_stdio_output@@@2@@__crt_stdio_output@@AEAA_N_W@Z 000000018008f970 f i libucrtd:output.obj
 0001:0008ead0       ?write_stored_string_tchar@?$output_processor@_WV?$stream_output_adapter@_W@__crt_stdio_output@@V?$standard_base@_WV?$stream_output_adapter@_W@__crt_stdio_output@@@2@@__crt_stdio_output@@AEAA_N_W@Z 000000018008fad0 f i libucrtd:output.obj
 0001:0008ec30       ?write_stored_string_tchar@?$output_processor@_WV?$string_output_adapter@_W@__crt_stdio_output@@V?$format_validation_base@_WV?$string_output_adapter@_W@__crt_stdio_output@@@2@@__crt_stdio_output@@AEAA_N_W@Z 000000018008fc30 f i libucrtd:output.obj
 0001:0008ed90       ?write_stored_string_tchar@?$output_processor@_WV?$string_output_adapter@_W@__crt_stdio_output@@V?$positional_parameter_base@_WV?$string_output_adapter@_W@__crt_stdio_output@@@2@@__crt_stdio_output@@AEAA_N_W@Z 000000018008fd90 f i libucrtd:output.obj
 0001:0008eef0       ?write_stored_string_tchar@?$output_processor@_WV?$string_output_adapter@_W@__crt_stdio_output@@V?$standard_base@_WV?$string_output_adapter@_W@__crt_stdio_output@@@2@@__crt_stdio_output@@AEAA_N_W@Z 000000018008fef0 f i libucrtd:output.obj
 0001:0008f050       ?write_string@?$stream_output_adapter@D@__crt_stdio_output@@QEBAXQEBDHQEAHAEAV__crt_cached_ptd_host@@@Z 0000000180090050 f i libucrtd:output.obj
 0001:0008f0d0       ?write_string@?$stream_output_adapter@_W@__crt_stdio_output@@QEBAXQEB_WHQEAHAEAV__crt_cached_ptd_host@@@Z 00000001800900d0 f i libucrtd:output.obj
 0001:0008f150       ?write_string@?$string_output_adapter@D@__crt_stdio_output@@QEBAXQEBDHQEAHAEAV__crt_cached_ptd_host@@@Z 0000000180090150 f i libucrtd:output.obj
 0001:0008f2c0       ?write_string@?$string_output_adapter@_W@__crt_stdio_output@@QEBAXQEB_WHQEAHAEAV__crt_cached_ptd_host@@@Z 00000001800902c0 f i libucrtd:output.obj
 0001:0008f430       ?write_string_impl@?$output_adapter_common@DV?$stream_output_adapter@D@__crt_stdio_output@@@__crt_stdio_output@@IEBAXQEBDHQEAHAEAV__crt_cached_ptd_host@@@Z 0000000180090430 f i libucrtd:output.obj
 0001:0008f550       ?write_string_impl@?$output_adapter_common@_WV?$stream_output_adapter@_W@__crt_stdio_output@@@__crt_stdio_output@@IEBAXQEB_WHQEAHAEAV__crt_cached_ptd_host@@@Z 0000000180090550 f i libucrtd:output.obj
 0001:0008f670       __acrt_disable_global_locale_sync 0000000180090670 f i libucrtd:output.obj
 0001:0008f6a0       __acrt_enable_global_locale_sync 00000001800906a0 f i libucrtd:output.obj
 0001:0008f6d0       __acrt_isleadbyte_l_noupdate 00000001800906d0 f i libucrtd:output.obj
 0001:0008f700       __acrt_locale_changed      0000000180090700 f i libucrtd:output.obj
 0001:0008f730       __acrt_locale_get_ctype_array_value 0000000180090730 f i libucrtd:output.obj
 0001:0008f770       __ascii_iswalpha           0000000180090770 f i libucrtd:output.obj
 0001:0008f7b0       __ascii_toupper            00000001800907b0 f i libucrtd:output.obj
 0001:0008f7d0       __ascii_towupper           00000001800907d0 f i libucrtd:output.obj
 0001:0008f7f0       __stdio_common_vfprintf    00000001800907f0 f   libucrtd:output.obj
 0001:0008f870       __stdio_common_vfprintf_p  0000000180090870 f   libucrtd:output.obj
 0001:0008f8f0       __stdio_common_vfprintf_s  00000001800908f0 f   libucrtd:output.obj
 0001:0008f970       __stdio_common_vfwprintf   0000000180090970 f   libucrtd:output.obj
 0001:0008f9f0       __stdio_common_vfwprintf_p 00000001800909f0 f   libucrtd:output.obj
 0001:0008fa70       __stdio_common_vfwprintf_s 0000000180090a70 f   libucrtd:output.obj
 0001:0008faf0       __stdio_common_vsnprintf_s 0000000180090af0 f   libucrtd:output.obj
 0001:0008fb80       __stdio_common_vsnwprintf_s 0000000180090b80 f   libucrtd:output.obj
 0001:0008fc10       __stdio_common_vsprintf    0000000180090c10 f   libucrtd:output.obj
 0001:0008fca0       __stdio_common_vsprintf_p  0000000180090ca0 f   libucrtd:output.obj
 0001:0008fd30       __stdio_common_vsprintf_s  0000000180090d30 f   libucrtd:output.obj
 0001:0008fdc0       __stdio_common_vswprintf   0000000180090dc0 f   libucrtd:output.obj
 0001:0008fe50       __stdio_common_vswprintf_p 0000000180090e50 f   libucrtd:output.obj
 0001:0008fee0       __stdio_common_vswprintf_s 0000000180090ee0 f   libucrtd:output.obj
 0001:0008ff70       _ctype_fast_check_internal 0000000180090f70 f i libucrtd:output.obj
 0001:0008ffa0       _isdigit_fast_internal     0000000180090fa0 f i libucrtd:output.obj
 0001:0008ffd0       _tolower_fast_internal     0000000180090fd0 f i libucrtd:output.obj
 0001:00090000       free                       0000000180091000 f   libucrtd:free.obj
 0001:00090030       malloc                     0000000180091030 f   libucrtd:malloc.obj
 0001:00090060       ??$?RU?$__crt_report_hook_node@D@@@__crt_internal_free_policy@@QEBAXQEBU?$__crt_report_hook_node@D@@@Z 0000000180091060 f i libucrtd:dbgrpt.obj
 0001:00090090       ??$?RU?$__crt_report_hook_node@_W@@@__crt_internal_free_policy@@QEBAXQEBU?$__crt_report_hook_node@_W@@@Z 0000000180091090 f i libucrtd:dbgrpt.obj
 0001:000912f0       ??$get_module_file_name@AEAPEAUHINSTANCE__@@AEAY0BAF@DK@?$__crt_char_traits@D@@SAKAEAPEAUHINSTANCE__@@AEAY0BAF@D$$QEAK@Z 00000001800922f0 f i libucrtd:dbgrpt.obj
 0001:00091330       ??$get_module_file_name@AEAPEAUHINSTANCE__@@AEAY0BAF@_WK@?$__crt_char_traits@_W@@SAKAEAPEAUHINSTANCE__@@AEAY0BAF@_W$$QEAK@Z 0000000180092330 f i libucrtd:dbgrpt.obj
 0001:00091370       ??$tcscpy_s@AEAY0BAF@D_KPEBD@?$__crt_char_traits@D@@SAHAEAY0BAF@D$$QEA_K$$QEAPEBD@Z 0000000180092370 f i libucrtd:dbgrpt.obj
 0001:000913b0       ??$tcscpy_s@AEAY0BAF@_W_KPEB_W@?$__crt_char_traits@_W@@SAHAEAY0BAF@_W$$QEA_K$$QEAPEB_W@Z 00000001800923b0 f i libucrtd:dbgrpt.obj
 0001:000913f0       ??$tcslen@AEAY0BAF@D@?$__crt_char_traits@D@@SA_KAEAY0BAF@D@Z 00000001800923f0 f i libucrtd:dbgrpt.obj
 0001:00091410       ??$tcslen@AEAY0BAF@_W@?$__crt_char_traits@_W@@SA_KAEAY0BAF@_W@Z 0000000180092410 f i libucrtd:dbgrpt.obj
 0001:00091430       ??$tcslen@AEBQEBD@?$__crt_char_traits@D@@SA_KAEBQEBD@Z 0000000180092430 f i libucrtd:dbgrpt.obj
 0001:00091450       ??$tcslen@AEBQEB_W@?$__crt_char_traits@_W@@SA_KAEBQEB_W@Z 0000000180092450 f i libucrtd:dbgrpt.obj
 0001:00091550       ??0?$__crt_unique_heap_ptr@U?$__crt_report_hook_node@D@@U__crt_internal_free_policy@@@@QEAA@QEAU?$__crt_report_hook_node@D@@@Z 0000000180092550 f i libucrtd:dbgrpt.obj
 0001:00091570       ??0?$__crt_unique_heap_ptr@U?$__crt_report_hook_node@_W@@U__crt_internal_free_policy@@@@QEAA@QEAU?$__crt_report_hook_node@_W@@@Z 0000000180092570 f i libucrtd:dbgrpt.obj
 0001:00091590       ??1?$__crt_unique_heap_ptr@U?$__crt_report_hook_node@D@@U__crt_internal_free_policy@@@@QEAA@XZ 0000000180092590 f i libucrtd:dbgrpt.obj
 0001:000915b0       ??1?$__crt_unique_heap_ptr@U?$__crt_report_hook_node@_W@@U__crt_internal_free_policy@@@@QEAA@XZ 00000001800925b0 f i libucrtd:dbgrpt.obj
 0001:000915d0       ??B?$__crt_unique_heap_ptr@U?$__crt_report_hook_node@D@@U__crt_internal_free_policy@@@@QEBA_NXZ 00000001800925d0 f i libucrtd:dbgrpt.obj
 0001:000915f0       ??B?$__crt_unique_heap_ptr@U?$__crt_report_hook_node@_W@@U__crt_internal_free_policy@@@@QEBA_NXZ 00000001800925f0 f i libucrtd:dbgrpt.obj
 0001:00091d10       ?detach@?$__crt_unique_heap_ptr@U?$__crt_report_hook_node@D@@U__crt_internal_free_policy@@@@QEAAPEAU?$__crt_report_hook_node@D@@XZ 0000000180092d10 f i libucrtd:dbgrpt.obj
 0001:00091d40       ?detach@?$__crt_unique_heap_ptr@U?$__crt_report_hook_node@_W@@U__crt_internal_free_policy@@@@QEAAPEAU?$__crt_report_hook_node@_W@@XZ 0000000180092d40 f i libucrtd:dbgrpt.obj
 0001:00091d70       ?get@?$__crt_unique_heap_ptr@U?$__crt_report_hook_node@D@@U__crt_internal_free_policy@@@@QEBAPEAU?$__crt_report_hook_node@D@@XZ 0000000180092d70 f i libucrtd:dbgrpt.obj
 0001:00091d80       ?get@?$__crt_unique_heap_ptr@U?$__crt_report_hook_node@_W@@U__crt_internal_free_policy@@@@QEBAPEAU?$__crt_report_hook_node@_W@@XZ 0000000180092d80 f i libucrtd:dbgrpt.obj
 0001:00091df0       ?is_valid@?$__crt_unique_heap_ptr@U?$__crt_report_hook_node@D@@U__crt_internal_free_policy@@@@QEBA_NXZ 0000000180092df0 f i libucrtd:dbgrpt.obj
 0001:00091e20       ?is_valid@?$__crt_unique_heap_ptr@U?$__crt_report_hook_node@_W@@U__crt_internal_free_policy@@@@QEBA_NXZ 0000000180092e20 f i libucrtd:dbgrpt.obj
 0001:00091e50       ?release@?$__crt_unique_heap_ptr@U?$__crt_report_hook_node@D@@U__crt_internal_free_policy@@@@QEAAXXZ 0000000180092e50 f i libucrtd:dbgrpt.obj
 0001:00091e80       ?release@?$__crt_unique_heap_ptr@U?$__crt_report_hook_node@_W@@U__crt_internal_free_policy@@@@QEAAXXZ 0000000180092e80 f i libucrtd:dbgrpt.obj
 0001:00091eb0       _CrtDbgReport              0000000180092eb0 f   libucrtd:dbgrpt.obj
 0001:00091f30       _CrtDbgReportW             0000000180092f30 f   libucrtd:dbgrpt.obj
 0001:00091fb0       _CrtSetReportHook2         0000000180092fb0 f   libucrtd:dbgrpt.obj
 0001:00091fd0       _CrtSetReportHookW2        0000000180092fd0 f   libucrtd:dbgrpt.obj
 0001:00091ff0       __acrt_MessageWindowA      0000000180092ff0 f   libucrtd:dbgrpt.obj
 0001:00092040       __acrt_MessageWindowW      0000000180093040 f   libucrtd:dbgrpt.obj
 0001:00092090       _invoke_watson_if_error    0000000180093090 f i libucrtd:dbgrpt.obj
 0001:000920e0       _invoke_watson_if_oneof    00000001800930e0 f i libucrtd:dbgrpt.obj
 0001:00092140       _snwprintf_s               0000000180093140 f i libucrtd:dbgrpt.obj
 0001:000921b0       _vsnwprintf_s_l            00000001800931b0 f i libucrtd:dbgrpt.obj
 0001:00092730       wcscpy_s                   0000000180093730 f   libucrtd:wcscpy_s.obj
 0001:00093ac0       ??1?$__crt_simd_cleanup_guard@$00@@QEAA@XZ 0000000180094ac0 f i libucrtd:strnlen.obj
 0001:00093ad0       ??1?$__crt_simd_cleanup_guard@$0A@@@QEAA@XZ 0000000180094ad0 f i libucrtd:strnlen.obj
 0001:00093ae0       ?compare_equals@?$__crt_simd_traits@$00E@@SA?AT__m256i@@T2@0@Z 0000000180094ae0 f i libucrtd:strnlen.obj
 0001:00093b20       ?compare_equals@?$__crt_simd_traits@$00G@@SA?AT__m256i@@T2@0@Z 0000000180094b20 f i libucrtd:strnlen.obj
 0001:00093b60       ?compare_equals@?$__crt_simd_traits@$0A@E@@SA?AT__m128i@@T2@0@Z 0000000180094b60 f i libucrtd:strnlen.obj
 0001:00093b90       ?compare_equals@?$__crt_simd_traits@$0A@G@@SA?AT__m128i@@T2@0@Z 0000000180094b90 f i libucrtd:strnlen.obj
 0001:00093bc0       ?compute_byte_mask@?$__crt_simd_pack_traits@$00@@SAHT__m256i@@@Z 0000000180094bc0 f i libucrtd:strnlen.obj
 0001:00093be0       ?compute_byte_mask@?$__crt_simd_pack_traits@$0A@@@SAHT__m128i@@@Z 0000000180094be0 f i libucrtd:strnlen.obj
 0001:00093c00       ?get_zero_pack@?$__crt_simd_pack_traits@$00@@SA?AT__m256i@@XZ 0000000180094c00 f i libucrtd:strnlen.obj
 0001:00093c30       ?get_zero_pack@?$__crt_simd_pack_traits@$0A@@@SA?AT__m128i@@XZ 0000000180094c30 f i libucrtd:strnlen.obj
 0001:00093c50       strnlen                    0000000180094c50 f   libucrtd:strnlen.obj
 0001:00093c80       wcslen                     0000000180094c80 f   libucrtd:strnlen.obj
 0001:00093ca0       wcsnlen                    0000000180094ca0 f   libucrtd:strnlen.obj
 0001:00093cd0       ??$__crt_fast_decode_pointer@P6AXPEB_W00I_K@Z@@YAP6AXPEB_W00I_K@ZQ6AX000I1@Z@Z 0000000180094cd0 f i libucrtd:invalid_parameter.obj
 0001:00093d10       ??$__crt_fast_encode_pointer@P6AXPEB_W00I_K@Z@@YAP6AXPEB_W00I_K@ZQ6AX000I1@Z@Z 0000000180094d10 f i libucrtd:invalid_parameter.obj
 0001:00093d50       ??$initialize_from_array@$$BY00Q6AXPEB_W00I_K@Z@?$dual_state_global@P6AXPEB_W00I_K@Z@__crt_state_management@@QEAAXAEAY00Q6AXPEB_W00I_K@Z@Z 0000000180094d50 f i libucrtd:invalid_parameter.obj
 0001:00093db0       ?__crt_rotate_pointer_value@@YA_K_KH@Z 0000000180094db0 f i libucrtd:invalid_parameter.obj
 0001:00093e70       ?check_synchronize_global_state_index@__crt_cached_ptd_host@@AEAA_KXZ 0000000180094e70 f i libucrtd:invalid_parameter.obj
 0001:00093ed0       ?dangerous_get_state_array@?$dual_state_global@P6AXPEB_W00I_K@Z@__crt_state_management@@QEAAPEAP6AXPEB_W00I_K@ZXZ 0000000180094ed0 f i libucrtd:invalid_parameter.obj
 0001:00093ee0       ?get_current_global_state_index@__crt_cached_ptd_host@@QEAA_KXZ 0000000180094ee0 f i libucrtd:invalid_parameter.obj
 0001:00093f00       ?get_current_state_index@__crt_state_management@@YA_KXZ 0000000180094f00 f i libucrtd:invalid_parameter.obj
 0001:00093f10       ?get_raw_ptd_noexit@__crt_cached_ptd_host@@QEAAPEAU__acrt_ptd@@XZ 0000000180094f10 f i libucrtd:invalid_parameter.obj
 0001:00093f30       ?try_synchronize_per_thread_data@__crt_cached_ptd_host@@AEAAPEAU__acrt_ptd@@XZ 0000000180094f30 f i libucrtd:invalid_parameter.obj
 0001:00093f60       ?value@?$dual_state_global@P6AXPEB_W00I_K@Z@__crt_state_management@@QEAAAEAP6AXPEB_W00I_K@ZAEAV__crt_cached_ptd_host@@@Z 0000000180094f60 f i libucrtd:invalid_parameter.obj
 0001:00093f90       ?value@?$dual_state_global@P6AXPEB_W00I_K@Z@__crt_state_management@@QEAAAEAP6AXPEB_W00I_K@ZXZ 0000000180094f90 f i libucrtd:invalid_parameter.obj
 0001:00093fb0       __acrt_call_reportfault    0000000180094fb0 f   libucrtd:invalid_parameter.obj
 0001:000940e0       __acrt_initialize_invalid_parameter_handler 00000001800950e0 f   libucrtd:invalid_parameter.obj
 0001:00094110       _get_invalid_parameter_handler 0000000180095110 f   libucrtd:invalid_parameter.obj
 0001:00094130       _get_thread_local_invalid_parameter_handler 0000000180095130 f   libucrtd:invalid_parameter.obj
 0001:00094160       _invalid_parameter         0000000180095160 f   libucrtd:invalid_parameter.obj
 0001:000941d0       _invalid_parameter_internal 00000001800951d0 f   libucrtd:invalid_parameter.obj
 0001:00094320       _invalid_parameter_noinfo  0000000180095320 f   libucrtd:invalid_parameter.obj
 0001:00094350       _invalid_parameter_noinfo_noreturn 0000000180095350 f   libucrtd:invalid_parameter.obj
 0001:00094390       _invoke_watson             0000000180095390 f   libucrtd:invalid_parameter.obj
 0001:000943f0       _set_invalid_parameter_handler 00000001800953f0 f   libucrtd:invalid_parameter.obj
 0001:00094440       _set_thread_local_invalid_parameter_handler 0000000180095440 f   libucrtd:invalid_parameter.obj
 0001:00094480       ?get_doserrno@__crt_cached_ptd_host@@QEAAAEAU?$cached@K@1@XZ 0000000180095480 f i libucrtd:errno.obj
 0001:00094490       ?set@?$cached@K@__crt_cached_ptd_host@@QEAAKK@Z 0000000180095490 f i libucrtd:errno.obj
 0001:000944c0       __acrt_errno_from_os_error 00000001800954c0 f   libucrtd:errno.obj
 0001:00094550       __acrt_errno_map_os_error  0000000180095550 f   libucrtd:errno.obj
 0001:00094580       __acrt_errno_map_os_error_ptd 0000000180095580 f   libucrtd:errno.obj
 0001:000945e0       __doserrno                 00000001800955e0 f   libucrtd:errno.obj
 0001:00094610       _errno                     0000000180095610 f   libucrtd:errno.obj
 0001:00094640       _get_doserrno              0000000180095640 f   libucrtd:errno.obj
 0001:00094700       _get_errno                 0000000180095700 f   libucrtd:errno.obj
 0001:000947c0       _set_doserrno              00000001800957c0 f   libucrtd:errno.obj
 0001:00094800       _set_errno                 0000000180095800 f   libucrtd:errno.obj
 0001:00094840       calloc                     0000000180095840 f   libucrtd:calloc.obj
 0001:00094880       _recalloc                  0000000180095880 f   libucrtd:recalloc.obj
 0001:000948d0       _recalloc_base             00000001800958d0 f   libucrtd:recalloc.obj
 0001:000949b0       _resetstkoflw              00000001800959b0 f   libucrtd:resetstk.obj
 0001:000951b0       wcscat_s                   00000001800961b0 f   libucrtd:wcscat_s.obj
 0001:00095890       wcsncpy_s                  0000000180096890 f   libucrtd:wcsncpy_s.obj
 0001:00095a10       __isascii                  0000000180096a10 f   libucrtd:_ctype.obj
 0001:00095a40       __iscsym                   0000000180096a40 f   libucrtd:_ctype.obj
 0001:00095a80       __iscsymf                  0000000180096a80 f   libucrtd:_ctype.obj
 0001:00095ac0       __toascii                  0000000180096ac0 f   libucrtd:_ctype.obj
 0001:00095ad0       _isalnum_l                 0000000180096ad0 f   libucrtd:_ctype.obj
 0001:00095b00       _isalpha_l                 0000000180096b00 f   libucrtd:_ctype.obj
 0001:00095b30       _isblank_l                 0000000180096b30 f   libucrtd:_ctype.obj
 0001:00095b60       _iscntrl_l                 0000000180096b60 f   libucrtd:_ctype.obj
 0001:00095b90       _iscsym_l                  0000000180096b90 f   libucrtd:_ctype.obj
 0001:00095be0       _iscsymf_l                 0000000180096be0 f   libucrtd:_ctype.obj
 0001:00095c30       _isdigit_l                 0000000180096c30 f   libucrtd:_ctype.obj
 0001:00095c60       _isgraph_l                 0000000180096c60 f   libucrtd:_ctype.obj
 0001:00095c90       _islower_l                 0000000180096c90 f   libucrtd:_ctype.obj
 0001:00095cc0       _isprint_l                 0000000180096cc0 f   libucrtd:_ctype.obj
 0001:00095cf0       _ispunct_l                 0000000180096cf0 f   libucrtd:_ctype.obj
 0001:00095d20       _isspace_l                 0000000180096d20 f   libucrtd:_ctype.obj
 0001:00095d50       _isupper_l                 0000000180096d50 f   libucrtd:_ctype.obj
 0001:00095d80       _isxdigit_l                0000000180096d80 f   libucrtd:_ctype.obj
 0001:00095db0       isalnum                    0000000180096db0 f   libucrtd:_ctype.obj
 0001:00095dd0       isalpha                    0000000180096dd0 f   libucrtd:_ctype.obj
 0001:00095df0       isblank                    0000000180096df0 f   libucrtd:_ctype.obj
 0001:00095e20       iscntrl                    0000000180096e20 f   libucrtd:_ctype.obj
 0001:00095e40       isdigit                    0000000180096e40 f   libucrtd:_ctype.obj
 0001:00095e60       isgraph                    0000000180096e60 f   libucrtd:_ctype.obj
 0001:00095e80       islower                    0000000180096e80 f   libucrtd:_ctype.obj
 0001:00095ea0       isprint                    0000000180096ea0 f   libucrtd:_ctype.obj
 0001:00095ec0       ispunct                    0000000180096ec0 f   libucrtd:_ctype.obj
 0001:00095ee0       isspace                    0000000180096ee0 f   libucrtd:_ctype.obj
 0001:00095f00       isupper                    0000000180096f00 f   libucrtd:_ctype.obj
 0001:00095f20       isxdigit                   0000000180096f20 f   libucrtd:_ctype.obj
 0001:00095f40       wcscat                     0000000180096f40 f   libucrtd:wcscat.obj
 0001:00095fd0       wcscpy                     0000000180096fd0 f   libucrtd:wcscpy.obj
 0001:00096780       ??$open_file@AEBQEBDAEBQEBDAEBHPEAU_iobuf@@@?$__crt_char_traits@D@@SAPEAU_iobuf@@AEBQEBD0AEBH$$QEAPEAU1@@Z 0000000180097780 f i libucrtd:fopen.obj
 0001:000967d0       ??$open_file@AEBQEB_WAEBQEB_WAEBHPEAU_iobuf@@@?$__crt_char_traits@_W@@SAPEAU_iobuf@@AEBQEB_W0AEBH$$QEAPEAU1@@Z 00000001800977d0 f i libucrtd:fopen.obj
 0001:00096820       ?unlock@__crt_stdio_stream@@QEBAXXZ 0000000180097820 f i libucrtd:fopen.obj
 0001:00096840       _fsopen                    0000000180097840 f   libucrtd:fopen.obj
 0001:00096870       _wfopen                    0000000180097870 f   libucrtd:fopen.obj
