 OPOSCheckScanner

 Timestamp is 61a759fb (Wed Dec  1 20:18:19 2021)

 Preferred load address is 0000000180000000

 Start         Length     Name                   Class
 0001:00000000 00000d90H .text$di                CODE
 0001:00000d90 000e4c50H .text$mn                CODE
 0001:000e59e0 00000040H .text$mn$00             CODE
 0001:000e5a20 00001330H .text$x                 CODE
 0001:000e6d50 00000124H .text$yd                CODE
 0002:00000000 000006f8H .idata$5                DATA
 0002:000006f8 00000030H .00cfg                  DATA
 0002:00000728 00000008H .CRT$XCA                DATA
 0002:00000730 00000008H .CRT$XCL                DATA
 0002:00000738 000000d8H .CRT$XCU                DATA
 0002:00000810 00000008H .CRT$XCZ                DATA
 0002:00000818 00000008H .CRT$XIA                DATA
 0002:00000820 00000028H .CRT$XIC                DATA
 0002:00000848 00000008H .CRT$XIZ                DATA
 0002:00000850 00000008H .CRT$XLA                DATA
 0002:00000858 00000008H .CRT$XLZ                DATA
 0002:00000860 00000008H .CRT$XPA                DATA
 0002:00000868 00000010H .CRT$XPX                DATA
 0002:00000878 00000008H .CRT$XPXA               DATA
 0002:00000880 00000008H .CRT$XPZ                DATA
 0002:00000888 00000008H .CRT$XTA                DATA
 0002:00000890 00000010H .CRT$XTZ                DATA
 0002:00000898 00000000H .gehcont$y              DATA
 0002:00000898 00000000H .gfids$y                DATA
 0002:000008a0 0003c5e0H .rdata                  DATA
 0002:0003ce80 00000080H .rdata$CastGuardVftablesA DATA
 0002:0003cf00 00000080H .rdata$CastGuardVftablesC DATA
 0002:0003cf80 00000028H .rdata$T                DATA
 0002:0003cfa8 0000056cH .rdata$r                DATA
 0002:0003d514 00000188H .rdata$voltmd           DATA
 0002:0003d69c 000004a4H .rdata$zzzdbg           DATA
 0002:0003db40 00000008H .rtc$IAA                DATA
 0002:0003db48 00000030H .rtc$IMZ                DATA
 0002:0003db78 00000008H .rtc$IZZ                DATA
 0002:0003db80 00000008H .rtc$TAA                DATA
 0002:0003db88 00000030H .rtc$TMZ                DATA
 0002:0003dbb8 00000008H .rtc$TZZ                DATA
 0002:0003dbc0 00000004H .tls                    DATA
 0002:0003dbc4 00000004H .tls$                   DATA
 0002:0003dbc8 00000008H .tls$ZZZ                DATA
 0002:0003dbd0 0000a040H .xdata                  DATA
 0002:00047c10 00000150H .xdata$x                DATA
 0002:00047d60 00000008H ATL$__a                 DATA
 0002:00047d68 00000008H ATL$__z                 DATA
 0002:00047d70 000000b0H .edata                  DATA
 0002:00047e20 00000078H .idata$2                DATA
 0002:00047e98 00000018H .idata$3                DATA
 0002:00047eb0 000006f8H .idata$4                DATA
 0002:000485a8 00000df0H .idata$6                DATA
 0003:00000000 00000f08H .data                   DATA
 0003:00000f08 000000a8H .data$r                 DATA
 0003:00000fb0 000000f0H .data$rs                DATA
 0003:000010a0 00003e7cH .bss                    DATA
 0004:00000000 0000c978H .pdata                  DATA
 0005:00000000 000000fcH _RDATA                  DATA
 0006:00000000 00000220H .rsrc$01                DATA
 0006:00000220 00005120H .rsrc$02                DATA

  Address         Publics by Value              Rva+Base               Lib:Object

 0000:00000000       __arm64x_native_entrypoint 0000000000000000     <absolute>
 0000:00000000       __dynamic_value_reloc_table 0000000000000000     <absolute>
 0000:00000000       __hybrid_auxiliary_iat_copy 0000000000000000     <absolute>
 0000:00000000       __hybrid_code_map          0000000000000000     <absolute>
 0000:00000000       __guard_eh_cont_table      0000000000000000     <absolute>
 0000:00000000       __arm64x_extra_rfe_table_size 0000000000000000     <absolute>
 0000:00000000       ___safe_se_handler_count   0000000000000000     <absolute>
 0000:00000000       __arm64x_redirection_metadata 0000000000000000     <absolute>
 0000:00000000       __guard_fids_count         0000000000000000     <absolute>
 0000:00000000       __arm64x_redirection_metadata_count 0000000000000000     <absolute>
 0000:00000000       __arm64x_extra_rfe_table   0000000000000000     <absolute>
 0000:00000000       __guard_longjmp_count      0000000000000000     <absolute>
 0000:00000000       __x64_code_ranges_to_entry_points 0000000000000000     <absolute>
 0000:00000000       __guard_eh_cont_count      0000000000000000     <absolute>
 0000:00000000       __guard_iat_count          0000000000000000     <absolute>
 0000:00000000       __enclave_config           0000000000000000     <absolute>
 0000:00000000       __guard_longjmp_table      0000000000000000     <absolute>
 0000:00000000       __AbsoluteZero             0000000000000000     <absolute>
 0000:00000000       __guard_check_icall_a64n_fptr 0000000000000000     <absolute>
 0000:00000000       __x64_code_ranges_to_entry_points_count 0000000000000000     <absolute>
 0000:00000000       __hybrid_auxiliary_iat     0000000000000000     <absolute>
 0000:00000000       ___safe_se_handler_table   0000000000000000     <absolute>
 0000:00000000       __guard_iat_table          0000000000000000     <absolute>
 0000:00000000       __guard_fids_table         0000000000000000     <absolute>
 0000:00000000       __hybrid_code_map_count    0000000000000000     <absolute>
 0000:00000100       __guard_flags              0000000000000100     <absolute>
 0000:00000000       __ImageBase                0000000180000000     <linker-defined>
 0001:00000d90       ?_assert@@YAXPEB_W0I@Z     0000000180001d90 f   Assert.obj
 0001:00000e90       __local_stdio_printf_options 0000000180001e90 f i Assert.obj
 0001:00000ea0       __vswprintf_l              0000000180001ea0 f i Assert.obj
 0001:00000ef0       _swprintf                  0000000180001ef0 f i Assert.obj
 0001:00000f70       _vswprintf_c_l             0000000180001f70 f i Assert.obj
 0001:00000fe0       _vswprintf_l               0000000180001fe0 f i Assert.obj
 0001:00001030       ?cw_memcpy@@YAHPEADPEB_WH@Z 0000000180002030 f   CWString.obj
 0001:000010b0       ?cw_memcpy@@YAHPEA_WPEBDH@Z 00000001800020b0 f   CWString.obj
 0001:00001120       ?cw_memcpy@@YAHPEADPEBDH@Z 0000000180002120 f   CWString.obj
 0001:000011b0       ?cw_memcpy@@YAHPEA_WPEB_WH@Z 00000001800021b0 f   CWString.obj
 0001:00001210       ?cw_memset@@YAXPEADDH@Z    0000000180002210 f   CWString.obj
 0001:00001270       ?cw_memset@@YAXPEA_W_WH@Z  0000000180002270 f   CWString.obj
 0001:00001300       ?cw_strlen@@YAHPEBD@Z      0000000180002300 f   CWString.obj
 0001:00001360       ?cw_strlen@@YAHPEB_W@Z     0000000180002360 f   CWString.obj
 0001:000013c0       ?cw_strcpy@@YAHPEADPEB_W@Z 00000001800023c0 f   CWString.obj
 0001:00001400       ?cw_strcpy@@YAHPEA_WPEBD@Z 0000000180002400 f   CWString.obj
 0001:00001440       ?cw_strcpy@@YAHPEADPEBD@Z  0000000180002440 f   CWString.obj
 0001:00001480       ?cw_strcpy@@YAHPEA_WPEB_W@Z 0000000180002480 f   CWString.obj
 0001:000014c0       ?cw_strcat@@YAHPEADPEB_W@Z 00000001800024c0 f   CWString.obj
 0001:00001510       ?cw_strcat@@YAHPEA_WPEBD@Z 0000000180002510 f   CWString.obj
 0001:00001560       ?cw_strcat@@YAHPEADPEBD@Z  0000000180002560 f   CWString.obj
 0001:000015b0       ?cw_strcat@@YAHPEA_WPEB_W@Z 00000001800025b0 f   CWString.obj
 0001:00001600       ?cw_dup@@YAXPEBDAEAHAEAPEA_W1@Z 0000000180002600 f   CWString.obj
 0001:00001700       ?cw_dup@@YAXPEB_WAEAHAEAPEAD1@Z 0000000180002700 f   CWString.obj
 0001:000017e0       ?DupChar@_CW@@AEAAXXZ      00000001800027e0 f   CWString.obj
 0001:00001830       ?DupWide@_CW@@AEAAXXZ      0000000180002830 f   CWString.obj
 0001:00001880       ?GetCharsMbcs@_CW@@QEAAHXZ 0000000180002880 f   CWString.obj
 0001:000018e0       ?GetCharsWide@_CW@@QEAAHXZ 00000001800028e0 f   CWString.obj
 0001:00001940       ?SetVARIANT_BOOL@OposVariant@@QEAAXF@Z 0000000180002940 f   OposVariant.obj
 0001:000019a0       ?SetVARIANT_BOOL_Ptr@OposVariant@@QEAAXPEAFAEAJ@Z 00000001800029a0 f   OposVariant.obj
 0001:00001a00       ?GetLONG@OposVariant@@QEAAJXZ 0000000180002a00 f   OposVariant.obj
 0001:00001a60       ?ChangeLONG@OposVariant@@QEAAXPEAJAEAJ@Z 0000000180002a60 f   OposVariant.obj
 0001:00001b10       ?SetLONG@OposVariant@@QEAAXJ@Z 0000000180002b10 f   OposVariant.obj
 0001:00001b50       ?SetLONG_Ptr@OposVariant@@QEAAXPEAJAEAJ@Z 0000000180002b50 f   OposVariant.obj
 0001:00001bb0       ?ChangeCURRENCY@OposVariant@@QEAAXPEATtagCY@@AEAJ@Z 0000000180002bb0 f   OposVariant.obj
 0001:00001c60       ?SetCURRENCY@OposVariant@@QEAAXTtagCY@@@Z 0000000180002c60 f   OposVariant.obj
 0001:00001ca0       ?SetCURRENCY_Ptr@OposVariant@@QEAAXPEATtagCY@@AEAJ@Z 0000000180002ca0 f   OposVariant.obj
 0001:00001d00       ?ChangeBSTR@OposVariant@@QEAAXPEAPEA_WAEAJ@Z 0000000180002d00 f   OposVariant.obj
 0001:00001db0       ?SetBSTR@OposVariant@@QEAAXPEA_WAEAJ@Z 0000000180002db0 f   OposVariant.obj
 0001:00001e10       ?SetBSTR_Copy@OposVariant@@QEAAXPEA_WAEAJ@Z 0000000180002e10 f   OposVariant.obj
 0001:00001eb0       ?SetBSTR_OutPtr@OposVariant@@QEAA_NPEAPEA_WAEAJ@Z 0000000180002eb0 f   OposVariant.obj
 0001:00001f10       ?SetBSTR_InOutPtr@OposVariant@@QEAA_NPEAPEA_WAEAJ@Z 0000000180002f10 f   OposVariant.obj
 0001:00001f70       ?SetVARIANT@OposVariant@@QEAAXAEAUtagVARIANT@@GAEAJ@Z 0000000180002f70 f   OposVariant.obj
 0001:00002000       ?SetVARIANT_Ptr@OposVariant@@QEAAXAEAPEAUtagVARIANT@@GAEAJ@Z 0000000180003000 f   OposVariant.obj
 0001:000020a0       ?SetString@OposVariant@@QEAAXPEB_WAEAJ@Z 00000001800030a0 f   OposVariant.obj
 0001:00002130       ?SetDispatch_Ptr@OposVariant@@QEAAXPEAUIDispatch@@AEAJ@Z 0000000180003130 f   OposVariant.obj
 0001:000021b0       ??0OposDispParms@@QEAA@PEAVOposVariant@@H@Z 00000001800031b0 f   OposVariant.obj
 0001:000022b0       ??1OposDispParms@@QEAA@XZ  00000001800032b0 f   OposVariant.obj
 0001:000022f0       ??$AtlMultiply@_K@ATL@@YAJPEA_K_K1@Z 00000001800032f0 f i OposVariant.obj
 0001:00002360       ??0?$CHeapPtr@_WVCCRTAllocator@ATL@@@ATL@@QEAA@XZ 0000000180003360 f i OposVariant.obj
 0001:00002380       ??0?$CHeapPtrBase@_WVCCRTAllocator@ATL@@@ATL@@IEAA@XZ 0000000180003380 f i OposVariant.obj
 0001:000023a0       ??0?$CSimpleArray@GV?$CSimpleArrayEqualHelper@G@ATL@@@ATL@@QEAA@XZ 00000001800033a0 f i OposVariant.obj
 0001:000023e0       ??0?$CTraceCategoryEx@$00$0A@@ATL@@QEAA@PEB_W@Z 00000001800033e0 f i OposVariant.obj
 0001:00002410       ??0?$CTraceCategoryEx@$01$0A@@ATL@@QEAA@PEB_W@Z 0000000180003410 f i OposVariant.obj
 0001:00002440       ??0?$CTraceCategoryEx@$03$0A@@ATL@@QEAA@PEB_W@Z 0000000180003440 f i OposVariant.obj
 0001:00002470       ??0?$CTraceCategoryEx@$07$0A@@ATL@@QEAA@PEB_W@Z 0000000180003470 f i OposVariant.obj
 0001:000024a0       ??0?$CTraceCategoryEx@$0BA@$0A@@ATL@@QEAA@PEB_W@Z 00000001800034a0 f i OposVariant.obj
 0001:000024d0       ??0?$CTraceCategoryEx@$0BAA@$0A@@ATL@@QEAA@PEB_W@Z 00000001800034d0 f i OposVariant.obj
 0001:00002500       ??0?$CTraceCategoryEx@$0BAAA@$0A@@ATL@@QEAA@PEB_W@Z 0000000180003500 f i OposVariant.obj
 0001:00002530       ??0?$CTraceCategoryEx@$0BAAAA@$0A@@ATL@@QEAA@PEB_W@Z 0000000180003530 f i OposVariant.obj
 0001:00002560       ??0?$CTraceCategoryEx@$0BAAAAA@$0A@@ATL@@QEAA@PEB_W@Z 0000000180003560 f i OposVariant.obj
 0001:00002590       ??0?$CTraceCategoryEx@$0CA@$0A@@ATL@@QEAA@PEB_W@Z 0000000180003590 f i OposVariant.obj
 0001:000025c0       ??0?$CTraceCategoryEx@$0CAA@$0A@@ATL@@QEAA@PEB_W@Z 00000001800035c0 f i OposVariant.obj
 0001:000025f0       ??0?$CTraceCategoryEx@$0CAAA@$0A@@ATL@@QEAA@PEB_W@Z 00000001800035f0 f i OposVariant.obj
 0001:00002620       ??0?$CTraceCategoryEx@$0CAAAA@$0A@@ATL@@QEAA@PEB_W@Z 0000000180003620 f i OposVariant.obj
 0001:00002650       ??0?$CTraceCategoryEx@$0CAAAAA@$0A@@ATL@@QEAA@PEB_W@Z 0000000180003650 f i OposVariant.obj
 0001:00002680       ??0?$CTraceCategoryEx@$0EA@$0A@@ATL@@QEAA@PEB_W@Z 0000000180003680 f i OposVariant.obj
 0001:000026b0       ??0?$CTraceCategoryEx@$0EAA@$0A@@ATL@@QEAA@PEB_W@Z 00000001800036b0 f i OposVariant.obj
 0001:000026e0       ??0?$CTraceCategoryEx@$0EAAA@$0A@@ATL@@QEAA@PEB_W@Z 00000001800036e0 f i OposVariant.obj
 0001:00002710       ??0?$CTraceCategoryEx@$0EAAAA@$0A@@ATL@@QEAA@PEB_W@Z 0000000180003710 f i OposVariant.obj
 0001:00002740       ??0?$CTraceCategoryEx@$0EAAAAA@$0A@@ATL@@QEAA@PEB_W@Z 0000000180003740 f i OposVariant.obj
 0001:00002770       ??0?$CTraceCategoryEx@$0IA@$0A@@ATL@@QEAA@PEB_W@Z 0000000180003770 f i OposVariant.obj
 0001:000027a0       ??0?$CTraceCategoryEx@$0IAA@$0A@@ATL@@QEAA@PEB_W@Z 00000001800037a0 f i OposVariant.obj
 0001:000027d0       ??0?$CTraceCategoryEx@$0IAAA@$0A@@ATL@@QEAA@PEB_W@Z 00000001800037d0 f i OposVariant.obj
 0001:00002800       ??0?$CTraceCategoryEx@$0IAAAA@$0A@@ATL@@QEAA@PEB_W@Z 0000000180003800 f i OposVariant.obj
 0001:00002830       ??0CAtlComModule@ATL@@QEAA@XZ 0000000180003830 f i OposVariant.obj
 0001:00002940       ??0CAtlWinModule@ATL@@QEAA@XZ 0000000180003940 f i OposVariant.obj
 0001:000029e0       ??0CComCriticalSection@ATL@@QEAA@XZ 00000001800039e0 f i OposVariant.obj
 0001:00002a10       ??0CPreserveLastError@ATL@@QEAA@XZ 0000000180003a10 f i OposVariant.obj
 0001:00002a40       ??0CTraceFileAndLineInfo@ATL@@QEAA@PEBDH@Z 0000000180003a40 f i OposVariant.obj
 0001:00002a70       ??0_ATL_COM_MODULE70@ATL@@QEAA@XZ 0000000180003a70 f i OposVariant.obj
 0001:00002aa0       ??0_ATL_WIN_MODULE70@ATL@@QEAA@XZ 0000000180003aa0 f i OposVariant.obj
 0001:00002ae0       ??1?$CHeapPtr@_WVCCRTAllocator@ATL@@@ATL@@QEAA@XZ 0000000180003ae0 f i OposVariant.obj
 0001:00002b00       ??1?$CHeapPtrBase@_WVCCRTAllocator@ATL@@@ATL@@QEAA@XZ 0000000180003b00 f i OposVariant.obj
 0001:00002b20       ??1?$CSimpleArray@GV?$CSimpleArrayEqualHelper@G@ATL@@@ATL@@QEAA@XZ 0000000180003b20 f i OposVariant.obj
 0001:00002b40       ??1CAtlComModule@ATL@@QEAA@XZ 0000000180003b40 f i OposVariant.obj
 0001:00002b70       ??1CAtlWinModule@ATL@@QEAA@XZ 0000000180003b70 f i OposVariant.obj
 0001:00002ba0       ??1CComBSTR@ATL@@QEAA@XZ   0000000180003ba0 f i OposVariant.obj
 0001:00002bc0       ??1CComCriticalSection@ATL@@QEAA@XZ 0000000180003bc0 f i OposVariant.obj
 0001:00002bd0       ??1CPreserveLastError@ATL@@QEAA@XZ 0000000180003bd0 f i OposVariant.obj
 0001:00002bf0       ??1_ATL_COM_MODULE70@ATL@@QEAA@XZ 0000000180003bf0 f i OposVariant.obj
 0001:00002c20       ??1_ATL_WIN_MODULE70@ATL@@QEAA@XZ 0000000180003c20 f i OposVariant.obj
 0001:00002c60       ??1stringdispid@CComTypeInfoHolder@ATL@@QEAA@XZ 0000000180003c60 f i OposVariant.obj
 0001:00002c80       ??A?$CSimpleArray@GV?$CSimpleArrayEqualHelper@G@ATL@@@ATL@@QEAAAEAGH@Z 0000000180003c80 f i OposVariant.obj
 0001:00002d20       ??B?$CHeapPtrBase@_WVCCRTAllocator@ATL@@@ATL@@QEBAPEA_WXZ 0000000180003d20 f i OposVariant.obj
 0001:00002d30       ??B?$CTraceCategoryEx@$01$0A@@ATL@@QEAAIXZ 0000000180003d30 f i OposVariant.obj
 0001:00002d40       ??B?$CTraceCategoryEx@$0CA@$0A@@ATL@@QEAAIXZ 0000000180003d40 f i OposVariant.obj
 0001:00002d50       ??RCTraceFileAndLineInfo@ATL@@QEBAXHIPEB_WZZ 0000000180003d50 f i OposVariant.obj
 0001:00002e10       ??_Estringdispid@CComTypeInfoHolder@ATL@@QEAAPEAXI@Z 0000000180003e10 f i OposVariant.obj
 0001:00002eb0       ??_H@YAXPEAX_K1P6APEAX0@Z@Z 0000000180003eb0 f i OposVariant.obj
 0001:00002f30       ??_I@YAXPEAX_K1P6AX0@Z@Z   0000000180003f30 f i OposVariant.obj
 0001:00002fd0       ?Allocate@?$CHeapPtr@_WVCCRTAllocator@ATL@@@ATL@@QEAA_N_K@Z 0000000180003fd0 f i OposVariant.obj
 0001:00003050       ?Allocate@CCRTAllocator@ATL@@SAPEAX_K@Z 0000000180004050 f i OposVariant.obj
 0001:00003070       ?AllocateBytes@?$CHeapPtrBase@_WVCCRTAllocator@ATL@@@ATL@@QEAA_N_K@Z 0000000180004070 f i OposVariant.obj
 0001:000030f0       ?AtlWinModuleInit@ATL@@YAJPEAU_ATL_WIN_MODULE70@1@@Z 00000001800040f0 f i OposVariant.obj
 0001:000031e0       ?AtlWinModuleTerm@ATL@@YAJPEAU_ATL_WIN_MODULE70@1@PEAUHINSTANCE__@@@Z 00000001800041e0 f i OposVariant.obj
 0001:000032b0       ?Clear@OposVariant@@QEAAJXZ 00000001800042b0 f i OposVariant.obj
 0001:000032e0       ?Free@?$CHeapPtrBase@_WVCCRTAllocator@ATL@@@ATL@@QEAAXXZ 00000001800042e0 f i OposVariant.obj
 0001:00003310       ?Free@CCRTAllocator@ATL@@SAXPEAX@Z 0000000180004310 f i OposVariant.obj
 0001:00003330       ?GetCategoryName@CTrace@ATL@@CAPEA_WI@Z 0000000180004330 f i OposVariant.obj
 0001:000033a0       ?GetModuleInstance@CAtlBaseModule@ATL@@QEAAPEAUHINSTANCE__@@XZ 00000001800043a0 f i OposVariant.obj
 0001:000033c0       ?GetSize@?$CSimpleArray@GV?$CSimpleArrayEqualHelper@G@ATL@@@ATL@@QEBAHXZ 00000001800043c0 f i OposVariant.obj
 0001:000033d0       ?Init@CComCriticalSection@ATL@@QEAAJXZ 00000001800043d0 f i OposVariant.obj
 0001:00003420       ?RegisterCategory@CTrace@ATL@@SAXPEB_WI@Z 0000000180004420 f i OposVariant.obj
 0001:000034e0       ?RemoveAll@?$CSimpleArray@GV?$CSimpleArrayEqualHelper@G@ATL@@@ATL@@QEAAXXZ 00000001800044e0 f i OposVariant.obj
 0001:00003550       ?Term@CAtlComModule@ATL@@QEAAXXZ 0000000180004550 f i OposVariant.obj
 0001:00003620       ?Term@CAtlWinModule@ATL@@QEAAXXZ 0000000180004620 f i OposVariant.obj
 0001:00003650       ?Term@CComCriticalSection@ATL@@QEAAJXZ 0000000180004650 f i OposVariant.obj
 0001:00003670       ?TraceV@CTrace@ATL@@CAXPEBDHIIPEB_W@Z 0000000180004670 f i OposVariant.obj
 0001:00003920       ?TraceV@CTrace@ATL@@SAXPEBDHIIPEB_WPEAD@Z 0000000180004920 f i OposVariant.obj
 0001:00003ad0       ?_AtlInitializeCriticalSectionEx@ATL@@YAHPEAU_RTL_CRITICAL_SECTION@@KK@Z 0000000180004ad0 f i OposVariant.obj
 0001:00003b00       ?_AtlRaiseException@ATL@@YAXKK@Z 0000000180004b00 f i OposVariant.obj
 0001:00003b30       HRESULT_FROM_WIN32         0000000180004b30 f i OposVariant.obj
 0001:00003b70       _vswprintf_s_l             0000000180004b70 f i OposVariant.obj
 0001:00003be0       swprintf_s                 0000000180004be0 f i OposVariant.obj
 0001:00003c70       ?ObjectMain@CComObjectRootBase@ATL@@SAX_N@Z 0000000180004c70 f i CheckScanner.obj
 0001:00003c80       ?GetCategoryMap@CComObjectRootBase@ATL@@SAPEBU_ATL_CATMAP_ENTRY@2@XZ 0000000180004c80 f i CheckScanner.obj
 0001:00003c90       ?GetObjectDescription@?$CComCoClass@VCOPOSCheckScanner@@$1?CLSID_OPOSCheckScanner@@3U_GUID@@B@ATL@@SAPEB_WXZ 0000000180004c90 f i CheckScanner.obj
 0001:00003ca0       ?UpdateRegistry@COPOSCheckScanner@@SAJH@Z 0000000180004ca0 f i CheckScanner.obj
 0001:00003cd0       ?CreateInstance@?$CComCreator@V?$CComObjectCached@VCComClassFactory@ATL@@@ATL@@@ATL@@SAJPEAXAEBU_GUID@@PEAPEAX@Z 0000000180004cd0 f i CheckScanner.obj
 0001:00003ea0       ?CreateInstance@?$CComCreator2@V?$CComCreator@V?$CComObject@VCOPOSCheckScanner@@@ATL@@@ATL@@V?$CComCreator@V?$CComAggObject@VCOPOSCheckScanner@@@ATL@@@2@@ATL@@SAJPEAXAEBU_GUID@@PEAPEAX@Z 0000000180004ea0 f i CheckScanner.obj
 0001:00004090       DllGetClassObject          0000000180005090 f   CheckScanner.obj
 0001:000040d0       DllCanUnloadNow            00000001800050d0 f   CheckScanner.obj
 0001:00004110       DllRegisterServer          0000000180005110 f   CheckScanner.obj
 0001:00004140       DllUnregisterServer        0000000180005140 f   CheckScanner.obj
 0001:00004300       DllMain                    0000000180005300 f   CheckScanner.obj
 0001:00004370       ??$?2G@Wrapper@?$CSimpleArray@GV?$CSimpleArrayEqualHelper@G@ATL@@@ATL@@SAPEAX_KPEAG@Z 0000000180005370 f i CheckScanner.obj
 0001:00004390       ??$?2PEA_W@?$Wrapper@PEA_W@?$CSimpleMap@PEA_WPEA_WVCExpansionVectorEqualHelper@ATL@@@ATL@@SAPEAX_KPEAPEA_W@Z 0000000180005390 f i CheckScanner.obj
 0001:000043b0       ??$?4UITypeInfo2@@@?$CComPtr@UITypeInfo@@@ATL@@QEAAPEAUITypeInfo@@AEBV?$CComPtr@UITypeInfo2@@@1@@Z 00000001800053b0 f i CheckScanner.obj
 0001:00004410       ??$AtlAdd@_K@ATL@@YAJPEA_K_K1@Z 0000000180005410 f i CheckScanner.obj
 0001:00004470       ??$AtlAddThrow@_K@ATL@@YA_K_K0@Z 0000000180005470 f i CheckScanner.obj
 0001:000044e0       ??$AtlModuleRegisterWndClassInfoT@VAtlModuleRegisterWndClassInfoParamW@ATL@@@ATL@@YAGPEAU_ATL_BASE_MODULE70@0@PEAU_ATL_WIN_MODULE70@0@PEAU_ATL_WNDCLASSINFOW@0@PEAP6A_JPEAUHWND__@@I_K_J@ZVAtlModuleRegisterWndClassInfoParamW@0@@Z 00000001800054e0 f i CheckScanner.obj
 0001:00004ab0       ??$AtlMultiply@H@ATL@@YAJPEAHHH@Z 0000000180005ab0 f i CheckScanner.obj
 0001:00004b10       ??$AtlMultiply@K@ATL@@YAJPEAKKK@Z 0000000180005b10 f i CheckScanner.obj
 0001:00004b60       ??$AtlMultiplyThrow@_K@ATL@@YA_K_K0@Z 0000000180005b60 f i CheckScanner.obj
 0001:00004bd0       ??$QueryInterface@UIPersistStream@@@IUnknown@@QEAAJPEAPEAUIPersistStream@@@Z 0000000180005bd0 f i CheckScanner.obj
 0001:00004c00       ??$QueryInterface@UITypeInfo2@@@IUnknown@@QEAAJPEAPEAUITypeInfo2@@@Z 0000000180005c00 f i CheckScanner.obj
 0001:00004c30       ??0?$CAtlModuleT@VCComModule@ATL@@@ATL@@QEAA@XZ 0000000180005c30 f i CheckScanner.obj
 0001:00004c60       ??0?$CAtlSafeAllocBufferManager@VCCRTAllocator@ATL@@@_ATL_SAFE_ALLOCA_IMPL@ATL@@QEAA@XZ 0000000180005c60 f i CheckScanner.obj
 0001:00004c80       ??0?$CAutoVectorPtr@_W@ATL@@QEAA@XZ 0000000180005c80 f i CheckScanner.obj
 0001:00004ca0       ??0?$CComAggObject@VCOPOSCheckScanner@@@ATL@@QEAA@PEAX@Z 0000000180005ca0 f i CheckScanner.obj
 0001:00004d10       ??0?$CComContainedObject@VCOPOSCheckScanner@@@ATL@@QEAA@PEAX@Z 0000000180005d10 f i CheckScanner.obj
 0001:00004ea0       ??0?$CComCritSecLock@VCComCriticalSection@ATL@@@ATL@@QEAA@AEAVCComCriticalSection@1@_N@Z 0000000180005ea0 f i CheckScanner.obj
 0001:00004f00       ??0?$CComEnum@UIEnumConnectionPoints@@$1?_GUID_b196b285_bab4_101a_b69c_00aa00341d07@@3U__s_GUID@@BPEAUIConnectionPoint@@V?$_CopyInterface@UIConnectionPoint@@@ATL@@VCComSingleThreadModel@6@@ATL@@QEAA@XZ 0000000180005f00 f i CheckScanner.obj
 0001:00004f30       ??0?$CComEnum@UIEnumConnections@@$1?_GUID_b196b287_bab4_101a_b69c_00aa00341d07@@3U__s_GUID@@BUtagCONNECTDATA@@V?$_Copy@UtagCONNECTDATA@@@ATL@@VCComSingleThreadModel@6@@ATL@@QEAA@XZ 0000000180005f30 f i CheckScanner.obj
 0001:00004f60       ??0?$CComEnumImpl@UIEnumConnectionPoints@@$1?_GUID_b196b285_bab4_101a_b69c_00aa00341d07@@3U__s_GUID@@BPEAUIConnectionPoint@@V?$_CopyInterface@UIConnectionPoint@@@ATL@@@ATL@@QEAA@XZ 0000000180005f60 f i CheckScanner.obj
 0001:00004fd0       ??0?$CComEnumImpl@UIEnumConnections@@$1?_GUID_b196b287_bab4_101a_b69c_00aa00341d07@@3U__s_GUID@@BUtagCONNECTDATA@@V?$_Copy@UtagCONNECTDATA@@@ATL@@@ATL@@QEAA@XZ 0000000180005fd0 f i CheckScanner.obj
 0001:00005040       ??0?$CComObject@V?$CComEnum@UIEnumConnectionPoints@@$1?_GUID_b196b285_bab4_101a_b69c_00aa00341d07@@3U__s_GUID@@BPEAUIConnectionPoint@@V?$_CopyInterface@UIConnectionPoint@@@ATL@@VCComSingleThreadModel@6@@ATL@@@ATL@@QEAA@PEAX@Z 0000000180006040 f i CheckScanner.obj
 0001:00005090       ??0?$CComObject@V?$CComEnum@UIEnumConnections@@$1?_GUID_b196b287_bab4_101a_b69c_00aa00341d07@@3U__s_GUID@@BUtagCONNECTDATA@@V?$_Copy@UtagCONNECTDATA@@@ATL@@VCComSingleThreadModel@6@@ATL@@@ATL@@QEAA@PEAX@Z 0000000180006090 f i CheckScanner.obj
 0001:000050e0       ??0?$CComObject@VCOPOSCheckScanner@@@ATL@@QEAA@PEAX@Z 00000001800060e0 f i CheckScanner.obj
 0001:00005270       ??0?$CComObjectCached@VCComClassFactory@ATL@@@ATL@@QEAA@PEAX@Z 0000000180006270 f i CheckScanner.obj
 0001:000052b0       ??0?$CComObjectRootEx@VCComMultiThreadModel@ATL@@@ATL@@QEAA@XZ 00000001800062b0 f i CheckScanner.obj
 0001:000052e0       ??0?$CComObjectRootEx@VCComSingleThreadModel@ATL@@@ATL@@QEAA@XZ 00000001800062e0 f i CheckScanner.obj
 0001:00005300       ??0?$CComPtr@UIAdviseSink@@@ATL@@QEAA@PEAUIAdviseSink@@@Z 0000000180006300 f i CheckScanner.obj
 0001:00005330       ??0?$CComPtr@UICatRegister@@@ATL@@QEAA@XZ 0000000180006330 f i CheckScanner.obj
 0001:00005350       ??0?$CComPtr@UIConnectionPoint@@@ATL@@QEAA@XZ 0000000180006350 f i CheckScanner.obj
 0001:00005370       ??0?$CComPtr@UIConnectionPointContainer@@@ATL@@QEAA@XZ 0000000180006370 f i CheckScanner.obj
 0001:00005390       ??0?$CComPtr@UIDataObject@@@ATL@@QEAA@XZ 0000000180006390 f i CheckScanner.obj
 0001:000053b0       ??0?$CComPtr@UIDispatch@@@ATL@@QEAA@XZ 00000001800063b0 f i CheckScanner.obj
 0001:000053d0       ??0?$CComPtr@UIOleClientSite@@@ATL@@QEAA@PEAUIOleClientSite@@@Z 00000001800063d0 f i CheckScanner.obj
 0001:00005400       ??0?$CComPtr@UIOleControlSite@@@ATL@@QEAA@XZ 0000000180006400 f i CheckScanner.obj
 0001:00005420       ??0?$CComPtr@UIOleInPlaceActiveObject@@@ATL@@QEAA@XZ 0000000180006420 f i CheckScanner.obj
 0001:00005440       ??0?$CComPtr@UIOleInPlaceFrame@@@ATL@@QEAA@XZ 0000000180006440 f i CheckScanner.obj
 0001:00005460       ??0?$CComPtr@UIOleInPlaceObject@@@ATL@@QEAA@XZ 0000000180006460 f i CheckScanner.obj
 0001:00005480       ??0?$CComPtr@UIOleInPlaceUIWindow@@@ATL@@QEAA@XZ 0000000180006480 f i CheckScanner.obj
 0001:000054a0       ??0?$CComPtr@UIOleObject@@@ATL@@QEAA@XZ 00000001800064a0 f i CheckScanner.obj
 0001:000054c0       ??0?$CComPtr@UIPersistStream@@@ATL@@QEAA@XZ 00000001800064c0 f i CheckScanner.obj
 0001:000054e0       ??0?$CComPtr@UIPersistStreamInit@@@ATL@@QEAA@XZ 00000001800064e0 f i CheckScanner.obj
 0001:00005500       ??0?$CComPtr@UIPointerInactive@@@ATL@@QEAA@XZ 0000000180006500 f i CheckScanner.obj
 0001:00005520       ??0?$CComPtr@UIProvideClassInfo2@@@ATL@@QEAA@XZ 0000000180006520 f i CheckScanner.obj
 0001:00005540       ??0?$CComPtr@UISpecifyPropertyPages@@@ATL@@QEAA@XZ 0000000180006540 f i CheckScanner.obj
 0001:00005560       ??0?$CComPtr@UIStream@@@ATL@@QEAA@XZ 0000000180006560 f i CheckScanner.obj
 0001:00005580       ??0?$CComPtr@UITypeInfo2@@@ATL@@QEAA@XZ 0000000180006580 f i CheckScanner.obj
 0001:000055a0       ??0?$CComPtr@UITypeInfo@@@ATL@@QEAA@AEBV01@@Z 00000001800065a0 f i CheckScanner.obj
 0001:000055d0       ??0?$CComPtr@UITypeInfo@@@ATL@@QEAA@XZ 00000001800065d0 f i CheckScanner.obj
 0001:000055f0       ??0?$CComPtr@UITypeLib@@@ATL@@QEAA@XZ 00000001800065f0 f i CheckScanner.obj
 0001:00005610       ??0?$CComPtr@UIUnknown@@@ATL@@QEAA@AEBV01@@Z 0000000180006610 f i CheckScanner.obj
 0001:00005640       ??0?$CComPtr@UIUnknown@@@ATL@@QEAA@PEAUIUnknown@@@Z 0000000180006640 f i CheckScanner.obj
 0001:00005670       ??0?$CComPtr@UIUnknown@@@ATL@@QEAA@XZ 0000000180006670 f i CheckScanner.obj
 0001:00005690       ??0?$CComPtr@UIViewObjectEx@@@ATL@@QEAA@XZ 0000000180006690 f i CheckScanner.obj
 0001:000056b0       ??0?$CComPtrBase@UIAdviseSink@@@ATL@@IEAA@PEAUIAdviseSink@@@Z 00000001800066b0 f i CheckScanner.obj
 0001:00005700       ??0?$CComPtrBase@UICatRegister@@@ATL@@IEAA@XZ 0000000180006700 f i CheckScanner.obj
 0001:00005720       ??0?$CComPtrBase@UIConnectionPoint@@@ATL@@IEAA@XZ 0000000180006720 f i CheckScanner.obj
 0001:00005740       ??0?$CComPtrBase@UIConnectionPointContainer@@@ATL@@IEAA@XZ 0000000180006740 f i CheckScanner.obj
 0001:00005760       ??0?$CComPtrBase@UIDataObject@@@ATL@@IEAA@XZ 0000000180006760 f i CheckScanner.obj
 0001:00005780       ??0?$CComPtrBase@UIDispatch@@@ATL@@IEAA@XZ 0000000180006780 f i CheckScanner.obj
 0001:000057a0       ??0?$CComPtrBase@UIOleClientSite@@@ATL@@IEAA@PEAUIOleClientSite@@@Z 00000001800067a0 f i CheckScanner.obj
 0001:000057f0       ??0?$CComPtrBase@UIOleControlSite@@@ATL@@IEAA@XZ 00000001800067f0 f i CheckScanner.obj
 0001:00005810       ??0?$CComPtrBase@UIOleInPlaceActiveObject@@@ATL@@IEAA@XZ 0000000180006810 f i CheckScanner.obj
 0001:00005830       ??0?$CComPtrBase@UIOleInPlaceFrame@@@ATL@@IEAA@XZ 0000000180006830 f i CheckScanner.obj
 0001:00005850       ??0?$CComPtrBase@UIOleInPlaceObject@@@ATL@@IEAA@XZ 0000000180006850 f i CheckScanner.obj
 0001:00005870       ??0?$CComPtrBase@UIOleInPlaceUIWindow@@@ATL@@IEAA@XZ 0000000180006870 f i CheckScanner.obj
 0001:00005890       ??0?$CComPtrBase@UIOleObject@@@ATL@@IEAA@XZ 0000000180006890 f i CheckScanner.obj
 0001:000058b0       ??0?$CComPtrBase@UIPersistStream@@@ATL@@IEAA@XZ 00000001800068b0 f i CheckScanner.obj
 0001:000058d0       ??0?$CComPtrBase@UIPersistStreamInit@@@ATL@@IEAA@XZ 00000001800068d0 f i CheckScanner.obj
 0001:000058f0       ??0?$CComPtrBase@UIPointerInactive@@@ATL@@IEAA@XZ 00000001800068f0 f i CheckScanner.obj
 0001:00005910       ??0?$CComPtrBase@UIProvideClassInfo2@@@ATL@@IEAA@XZ 0000000180006910 f i CheckScanner.obj
 0001:00005930       ??0?$CComPtrBase@UISpecifyPropertyPages@@@ATL@@IEAA@XZ 0000000180006930 f i CheckScanner.obj
 0001:00005950       ??0?$CComPtrBase@UIStream@@@ATL@@IEAA@XZ 0000000180006950 f i CheckScanner.obj
 0001:00005970       ??0?$CComPtrBase@UITypeInfo2@@@ATL@@IEAA@XZ 0000000180006970 f i CheckScanner.obj
 0001:00005990       ??0?$CComPtrBase@UITypeInfo@@@ATL@@IEAA@PEAUITypeInfo@@@Z 0000000180006990 f i CheckScanner.obj
 0001:000059e0       ??0?$CComPtrBase@UITypeInfo@@@ATL@@IEAA@XZ 00000001800069e0 f i CheckScanner.obj
 0001:00005a00       ??0?$CComPtrBase@UITypeLib@@@ATL@@IEAA@XZ 0000000180006a00 f i CheckScanner.obj
 0001:00005a20       ??0?$CComPtrBase@UIUnknown@@@ATL@@IEAA@PEAUIUnknown@@@Z 0000000180006a20 f i CheckScanner.obj
 0001:00005a70       ??0?$CComPtrBase@UIUnknown@@@ATL@@IEAA@XZ 0000000180006a70 f i CheckScanner.obj
 0001:00005a90       ??0?$CComPtrBase@UIViewObjectEx@@@ATL@@IEAA@XZ 0000000180006a90 f i CheckScanner.obj
 0001:00005ab0       ??0?$CComQIPtr@UIOleControlSite@@$1?_GUID_b196b289_bab4_101a_b69c_00aa00341d07@@3U__s_GUID@@B@ATL@@QEAA@PEAUIUnknown@@@Z 0000000180006ab0 f i CheckScanner.obj
 0001:00005b10       ??0?$CComQIPtr@UIOleObject@@$1?_GUID_00000112_0000_0000_c000_000000000046@@3U__s_GUID@@B@ATL@@QEAA@XZ 0000000180006b10 f i CheckScanner.obj
 0001:00005b30       ??0?$CComQIPtr@UISpecifyPropertyPages@@$1?_GUID_b196b28b_bab4_101a_b69c_00aa00341d07@@3U__s_GUID@@B@ATL@@QEAA@XZ 0000000180006b30 f i CheckScanner.obj
 0001:00005b50       ??0?$CSimpleMap@PEA_WPEA_WVCExpansionVectorEqualHelper@ATL@@@ATL@@QEAA@XZ 0000000180006b50 f i CheckScanner.obj
 0001:00005b90       ??0?$CTempBuffer@E$0BAA@VCCRTAllocator@ATL@@@ATL@@QEAA@XZ 0000000180006b90 f i CheckScanner.obj
 0001:00005bb0       ??0?$CTempBuffer@_W$0BAA@VCCRTAllocator@ATL@@@ATL@@QEAA@XZ 0000000180006bb0 f i CheckScanner.obj
 0001:00005bd0       ??0?$CTempBuffer@_W$0EAA@VCCRTAllocator@ATL@@@ATL@@QEAA@XZ 0000000180006bd0 f i CheckScanner.obj
 0001:00005bf0       ??0?$Wrapper@PEA_W@?$CSimpleMap@PEA_WPEA_WVCExpansionVectorEqualHelper@ATL@@@ATL@@QEAA@AEBQEA_W@Z 0000000180006bf0 f i CheckScanner.obj
 0001:00005c20       ??0CAtlModule@ATL@@QEAA@XZ 0000000180006c20 f i CheckScanner.obj
 0001:00005d80       ??0CComAutoDeleteCriticalSection@ATL@@QEAA@XZ 0000000180006d80 f i CheckScanner.obj
 0001:00005da0       ??0CComBSTR@ATL@@QEAA@XZ   0000000180006da0 f i CheckScanner.obj
 0001:00005dc0       ??0CComClassFactory@ATL@@QEAA@XZ 0000000180006dc0 f i CheckScanner.obj
 0001:00005e00       ??0CComModule@ATL@@QEAA@XZ 0000000180006e00 f i CheckScanner.obj
 0001:00005e80       ??0CComObjectRootBase@ATL@@QEAA@XZ 0000000180006e80 f i CheckScanner.obj
 0001:00005ea0       ??0CComSafeDeleteCriticalSection@ATL@@QEAA@XZ 0000000180006ea0 f i CheckScanner.obj
 0001:00005ed0       ??0CComVariant@ATL@@QEAA@XZ 0000000180006ed0 f i CheckScanner.obj
 0001:00005f10       ??0CExpansionVector@ATL@@QEAA@XZ 0000000180006f10 f i CheckScanner.obj
 0001:00005f30       ??0CParseBuffer@CRegParser@ATL@@QEAA@H@Z 0000000180006f30 f i CheckScanner.obj
 0001:00005fb0       ??0CRegKey@ATL@@QEAA@PEAUHKEY__@@@Z 0000000180006fb0 f i CheckScanner.obj
 0001:00005ff0       ??0CRegKey@ATL@@QEAA@PEAVCAtlTransactionManager@1@@Z 0000000180006ff0 f i CheckScanner.obj
 0001:00006030       ??0CRegObject@ATL@@QEAA@XZ 0000000180007030 f i CheckScanner.obj
 0001:00006070       ??0CRegParser@ATL@@QEAA@PEAVCRegObject@1@@Z 0000000180007070 f i CheckScanner.obj
 0001:000060a0       ??0IClassFactory@@QEAA@XZ  00000001800070a0 f i CheckScanner.obj
 0001:000060c0       ??0IEnumConnectionPoints@@QEAA@XZ 00000001800070c0 f i CheckScanner.obj
 0001:000060e0       ??0IEnumConnections@@QEAA@XZ 00000001800070e0 f i CheckScanner.obj
 0001:00006100       ??0IRegistrarBase@@QEAA@XZ 0000000180007100 f i CheckScanner.obj
 0001:00006120       ??0IUnknown@@QEAA@XZ       0000000180007120 f i CheckScanner.obj
 0001:00006130       ??0ModuleLockHelper@ATL@@QEAA@XZ 0000000180007130 f i CheckScanner.obj
 0001:00006160       ??0OposVariant@@QEAA@XZ    0000000180007160 f i CheckScanner.obj
 0001:00006180       ??0Wrapper@?$CSimpleArray@GV?$CSimpleArrayEqualHelper@G@ATL@@@ATL@@QEAA@AEBG@Z 0000000180007180 f i CheckScanner.obj
 0001:000061b0       ??0_ATL_MODULE70@ATL@@QEAA@XZ 00000001800071b0 f i CheckScanner.obj
 0001:000061e0       ??0_ATL_MSG@ATL@@QEAA@PEAUHWND__@@I_K_JH@Z 00000001800071e0 f i CheckScanner.obj
 0001:00006270       ??0_U_MENUorID@ATL@@QEAA@I@Z 0000000180007270 f i CheckScanner.obj
 0001:00006290       ??0_U_RECT@ATL@@QEAA@AEAUtagRECT@@@Z 0000000180007290 f i CheckScanner.obj
 0001:000062b0       ??0stringdispid@CComTypeInfoHolder@ATL@@QEAA@XZ 00000001800072b0 f i CheckScanner.obj
 0001:000062f0       ??1?$CAtlModuleT@VCComModule@ATL@@@ATL@@UEAA@XZ 00000001800072f0 f i CheckScanner.obj
 0001:00006310       ??1?$CAtlSafeAllocBufferManager@VCCRTAllocator@ATL@@@_ATL_SAFE_ALLOCA_IMPL@ATL@@QEAA@XZ 0000000180007310 f i CheckScanner.obj
 0001:00006360       ??1?$CAutoVectorPtr@_W@ATL@@QEAA@XZ 0000000180007360 f i CheckScanner.obj
 0001:00006380       ??1?$CComAggObject@VCOPOSCheckScanner@@@ATL@@UEAA@XZ 0000000180007380 f i CheckScanner.obj
 0001:000063f0       ??1?$CComContainedObject@VCOPOSCheckScanner@@@ATL@@UEAA@XZ 00000001800073f0 f i CheckScanner.obj
 0001:00006410       ??1?$CComCritSecLock@VCComCriticalSection@ATL@@@ATL@@QEAA@XZ 0000000180007410 f i CheckScanner.obj
 0001:00006440       ??1?$CComEnum@UIEnumConnectionPoints@@$1?_GUID_b196b285_bab4_101a_b69c_00aa00341d07@@3U__s_GUID@@BPEAUIConnectionPoint@@V?$_CopyInterface@UIConnectionPoint@@@ATL@@VCComSingleThreadModel@6@@ATL@@UEAA@XZ 0000000180007440 f i CheckScanner.obj
 0001:00006470       ??1?$CComEnum@UIEnumConnections@@$1?_GUID_b196b287_bab4_101a_b69c_00aa00341d07@@3U__s_GUID@@BUtagCONNECTDATA@@V?$_Copy@UtagCONNECTDATA@@@ATL@@VCComSingleThreadModel@6@@ATL@@UEAA@XZ 0000000180007470 f i CheckScanner.obj
 0001:000064a0       ??1?$CComEnumImpl@UIEnumConnectionPoints@@$1?_GUID_b196b285_bab4_101a_b69c_00aa00341d07@@3U__s_GUID@@BPEAUIConnectionPoint@@V?$_CopyInterface@UIConnectionPoint@@@ATL@@@ATL@@UEAA@XZ 00000001800074a0 f i CheckScanner.obj
 0001:00006530       ??1?$CComEnumImpl@UIEnumConnections@@$1?_GUID_b196b287_bab4_101a_b69c_00aa00341d07@@3U__s_GUID@@BUtagCONNECTDATA@@V?$_Copy@UtagCONNECTDATA@@@ATL@@@ATL@@UEAA@XZ 0000000180007530 f i CheckScanner.obj
 0001:000065c0       ??1?$CComObject@V?$CComEnum@UIEnumConnectionPoints@@$1?_GUID_b196b285_bab4_101a_b69c_00aa00341d07@@3U__s_GUID@@BPEAUIConnectionPoint@@V?$_CopyInterface@UIConnectionPoint@@@ATL@@VCComSingleThreadModel@6@@ATL@@@ATL@@UEAA@XZ 00000001800075c0 f i CheckScanner.obj
 0001:00006620       ??1?$CComObject@V?$CComEnum@UIEnumConnections@@$1?_GUID_b196b287_bab4_101a_b69c_00aa00341d07@@3U__s_GUID@@BUtagCONNECTDATA@@V?$_Copy@UtagCONNECTDATA@@@ATL@@VCComSingleThreadModel@6@@ATL@@@ATL@@UEAA@XZ 0000000180007620 f i CheckScanner.obj
 0001:00006680       ??1?$CComObject@VCOPOSCheckScanner@@@ATL@@UEAA@XZ 0000000180007680 f i CheckScanner.obj
 0001:00006820       ??1?$CComObjectCached@VCComClassFactory@ATL@@@ATL@@UEAA@XZ 0000000180007820 f i CheckScanner.obj
 0001:00006870       ??1?$CComObjectRootEx@VCComMultiThreadModel@ATL@@@ATL@@QEAA@XZ 0000000180007870 f i CheckScanner.obj
 0001:000068a0       ??1?$CComObjectRootEx@VCComSingleThreadModel@ATL@@@ATL@@QEAA@XZ 00000001800078a0 f i CheckScanner.obj
 0001:000068c0       ??1?$CComPtr@UIAdviseSink@@@ATL@@QEAA@XZ 00000001800078c0 f i CheckScanner.obj
 0001:000068e0       ??1?$CComPtr@UICatRegister@@@ATL@@QEAA@XZ 00000001800078e0 f i CheckScanner.obj
 0001:00006900       ??1?$CComPtr@UIConnectionPoint@@@ATL@@QEAA@XZ 0000000180007900 f i CheckScanner.obj
 0001:00006920       ??1?$CComPtr@UIConnectionPointContainer@@@ATL@@QEAA@XZ 0000000180007920 f i CheckScanner.obj
 0001:00006940       ??1?$CComPtr@UIDataObject@@@ATL@@QEAA@XZ 0000000180007940 f i CheckScanner.obj
 0001:00006960       ??1?$CComPtr@UIDispatch@@@ATL@@QEAA@XZ 0000000180007960 f i CheckScanner.obj
 0001:00006980       ??1?$CComPtr@UIOleClientSite@@@ATL@@QEAA@XZ 0000000180007980 f i CheckScanner.obj
 0001:000069a0       ??1?$CComPtr@UIOleControlSite@@@ATL@@QEAA@XZ 00000001800079a0 f i CheckScanner.obj
 0001:000069c0       ??1?$CComPtr@UIOleInPlaceActiveObject@@@ATL@@QEAA@XZ 00000001800079c0 f i CheckScanner.obj
 0001:000069e0       ??1?$CComPtr@UIOleInPlaceFrame@@@ATL@@QEAA@XZ 00000001800079e0 f i CheckScanner.obj
 0001:00006a00       ??1?$CComPtr@UIOleInPlaceObject@@@ATL@@QEAA@XZ 0000000180007a00 f i CheckScanner.obj
 0001:00006a20       ??1?$CComPtr@UIOleInPlaceUIWindow@@@ATL@@QEAA@XZ 0000000180007a20 f i CheckScanner.obj
 0001:00006a40       ??1?$CComPtr@UIOleObject@@@ATL@@QEAA@XZ 0000000180007a40 f i CheckScanner.obj
 0001:00006a60       ??1?$CComPtr@UIPersistStream@@@ATL@@QEAA@XZ 0000000180007a60 f i CheckScanner.obj
 0001:00006a80       ??1?$CComPtr@UIPersistStreamInit@@@ATL@@QEAA@XZ 0000000180007a80 f i CheckScanner.obj
 0001:00006aa0       ??1?$CComPtr@UIPointerInactive@@@ATL@@QEAA@XZ 0000000180007aa0 f i CheckScanner.obj
 0001:00006ac0       ??1?$CComPtr@UIProvideClassInfo2@@@ATL@@QEAA@XZ 0000000180007ac0 f i CheckScanner.obj
 0001:00006ae0       ??1?$CComPtr@UISpecifyPropertyPages@@@ATL@@QEAA@XZ 0000000180007ae0 f i CheckScanner.obj
 0001:00006b00       ??1?$CComPtr@UIStream@@@ATL@@QEAA@XZ 0000000180007b00 f i CheckScanner.obj
 0001:00006b20       ??1?$CComPtr@UITypeInfo2@@@ATL@@QEAA@XZ 0000000180007b20 f i CheckScanner.obj
 0001:00006b40       ??1?$CComPtr@UITypeInfo@@@ATL@@QEAA@XZ 0000000180007b40 f i CheckScanner.obj
 0001:00006b60       ??1?$CComPtr@UITypeLib@@@ATL@@QEAA@XZ 0000000180007b60 f i CheckScanner.obj
 0001:00006b80       ??1?$CComPtr@UIUnknown@@@ATL@@QEAA@XZ 0000000180007b80 f i CheckScanner.obj
 0001:00006ba0       ??1?$CComPtr@UIViewObjectEx@@@ATL@@QEAA@XZ 0000000180007ba0 f i CheckScanner.obj
 0001:00006bc0       ??1?$CComPtrBase@UIAdviseSink@@@ATL@@QEAA@XZ 0000000180007bc0 f i CheckScanner.obj
 0001:00006c00       ??1?$CComPtrBase@UICatRegister@@@ATL@@QEAA@XZ 0000000180007c00 f i CheckScanner.obj
 0001:00006c40       ??1?$CComPtrBase@UIConnectionPoint@@@ATL@@QEAA@XZ 0000000180007c40 f i CheckScanner.obj
 0001:00006c80       ??1?$CComPtrBase@UIConnectionPointContainer@@@ATL@@QEAA@XZ 0000000180007c80 f i CheckScanner.obj
 0001:00006cc0       ??1?$CComPtrBase@UIDataObject@@@ATL@@QEAA@XZ 0000000180007cc0 f i CheckScanner.obj
 0001:00006d00       ??1?$CComPtrBase@UIDispatch@@@ATL@@QEAA@XZ 0000000180007d00 f i CheckScanner.obj
 0001:00006d40       ??1?$CComPtrBase@UIOleClientSite@@@ATL@@QEAA@XZ 0000000180007d40 f i CheckScanner.obj
 0001:00006d80       ??1?$CComPtrBase@UIOleControlSite@@@ATL@@QEAA@XZ 0000000180007d80 f i CheckScanner.obj
 0001:00006dc0       ??1?$CComPtrBase@UIOleInPlaceActiveObject@@@ATL@@QEAA@XZ 0000000180007dc0 f i CheckScanner.obj
 0001:00006e00       ??1?$CComPtrBase@UIOleInPlaceFrame@@@ATL@@QEAA@XZ 0000000180007e00 f i CheckScanner.obj
 0001:00006e40       ??1?$CComPtrBase@UIOleInPlaceObject@@@ATL@@QEAA@XZ 0000000180007e40 f i CheckScanner.obj
 0001:00006e80       ??1?$CComPtrBase@UIOleInPlaceUIWindow@@@ATL@@QEAA@XZ 0000000180007e80 f i CheckScanner.obj
 0001:00006ec0       ??1?$CComPtrBase@UIOleObject@@@ATL@@QEAA@XZ 0000000180007ec0 f i CheckScanner.obj
 0001:00006f00       ??1?$CComPtrBase@UIPersistStream@@@ATL@@QEAA@XZ 0000000180007f00 f i CheckScanner.obj
 0001:00006f40       ??1?$CComPtrBase@UIPersistStreamInit@@@ATL@@QEAA@XZ 0000000180007f40 f i CheckScanner.obj
 0001:00006f80       ??1?$CComPtrBase@UIPointerInactive@@@ATL@@QEAA@XZ 0000000180007f80 f i CheckScanner.obj
 0001:00006fc0       ??1?$CComPtrBase@UIProvideClassInfo2@@@ATL@@QEAA@XZ 0000000180007fc0 f i CheckScanner.obj
 0001:00007000       ??1?$CComPtrBase@UISpecifyPropertyPages@@@ATL@@QEAA@XZ 0000000180008000 f i CheckScanner.obj
 0001:00007040       ??1?$CComPtrBase@UIStream@@@ATL@@QEAA@XZ 0000000180008040 f i CheckScanner.obj
 0001:00007080       ??1?$CComPtrBase@UITypeInfo2@@@ATL@@QEAA@XZ 0000000180008080 f i CheckScanner.obj
 0001:000070c0       ??1?$CComPtrBase@UITypeInfo@@@ATL@@QEAA@XZ 00000001800080c0 f i CheckScanner.obj
 0001:00007100       ??1?$CComPtrBase@UITypeLib@@@ATL@@QEAA@XZ 0000000180008100 f i CheckScanner.obj
 0001:00007140       ??1?$CComPtrBase@UIUnknown@@@ATL@@QEAA@XZ 0000000180008140 f i CheckScanner.obj
 0001:00007180       ??1?$CComPtrBase@UIViewObjectEx@@@ATL@@QEAA@XZ 0000000180008180 f i CheckScanner.obj
 0001:000071c0       ??1?$CComQIPtr@UIOleControlSite@@$1?_GUID_b196b289_bab4_101a_b69c_00aa00341d07@@3U__s_GUID@@B@ATL@@QEAA@XZ 00000001800081c0 f i CheckScanner.obj
 0001:000071e0       ??1?$CComQIPtr@UIOleObject@@$1?_GUID_00000112_0000_0000_c000_000000000046@@3U__s_GUID@@B@ATL@@QEAA@XZ 00000001800081e0 f i CheckScanner.obj
 0001:00007200       ??1?$CComQIPtr@UISpecifyPropertyPages@@$1?_GUID_b196b28b_bab4_101a_b69c_00aa00341d07@@3U__s_GUID@@B@ATL@@QEAA@XZ 0000000180008200 f i CheckScanner.obj
 0001:00007220       ??1?$CSimpleMap@PEA_WPEA_WVCExpansionVectorEqualHelper@ATL@@@ATL@@QEAA@XZ 0000000180008220 f i CheckScanner.obj
 0001:00007240       ??1?$CTempBuffer@E$0BAA@VCCRTAllocator@ATL@@@ATL@@QEAA@XZ 0000000180008240 f i CheckScanner.obj
 0001:00007270       ??1?$CTempBuffer@_W$0BAA@VCCRTAllocator@ATL@@@ATL@@QEAA@XZ 0000000180008270 f i CheckScanner.obj
 0001:000072a0       ??1?$CTempBuffer@_W$0EAA@VCCRTAllocator@ATL@@@ATL@@QEAA@XZ 00000001800082a0 f i CheckScanner.obj
 0001:000072d0       ??1CAtlModule@ATL@@UEAA@XZ 00000001800082d0 f i CheckScanner.obj
 0001:00007300       ??1CComAutoDeleteCriticalSection@ATL@@QEAA@XZ 0000000180008300 f i CheckScanner.obj
 0001:00007320       ??1CComClassFactory@ATL@@UEAA@XZ 0000000180008320 f i CheckScanner.obj
 0001:00007350       ??1CComModule@ATL@@UEAA@XZ 0000000180008350 f i CheckScanner.obj
 0001:00007380       ??1CComObjectRootBase@ATL@@QEAA@XZ 0000000180008380 f i CheckScanner.obj
 0001:00007390       ??1CComSafeDeleteCriticalSection@ATL@@QEAA@XZ 0000000180008390 f i CheckScanner.obj
 0001:000073d0       ??1CComVariant@ATL@@QEAA@XZ 00000001800083d0 f i CheckScanner.obj
 0001:00007430       ??1CExpansionVector@ATL@@QEAA@XZ 0000000180008430 f i CheckScanner.obj
 0001:00007460       ??1CParseBuffer@CRegParser@ATL@@QEAA@XZ 0000000180008460 f i CheckScanner.obj
 0001:00007480       ??1CRegKey@ATL@@QEAA@XZ    0000000180008480 f i CheckScanner.obj
 0001:000074a0       ??1CRegObject@ATL@@UEAA@XZ 00000001800084a0 f i CheckScanner.obj
 0001:000074e0       ??1ModuleLockHelper@ATL@@QEAA@XZ 00000001800084e0 f i CheckScanner.obj
 0001:00007510       ??1OposVariant@@QEAA@XZ    0000000180008510 f i CheckScanner.obj
 0001:00007540       ??1_ATL_MODULE70@ATL@@QEAA@XZ 0000000180008540 f i CheckScanner.obj
 0001:00007570       ??4?$CComPtr@UIAdviseSink@@@ATL@@QEAAPEAUIAdviseSink@@PEAU2@@Z 0000000180008570 f i CheckScanner.obj
 0001:000075d0       ??4?$CComPtr@UIOleClientSite@@@ATL@@QEAAPEAUIOleClientSite@@PEAU2@@Z 00000001800085d0 f i CheckScanner.obj
 0001:00007630       ??4?$CComPtr@UIUnknown@@@ATL@@QEAAPEAUIUnknown@@PEAU2@@Z 0000000180008630 f i CheckScanner.obj
 0001:00007690       ??4?$CComQIPtr@UIOleObject@@$1?_GUID_00000112_0000_0000_c000_000000000046@@3U__s_GUID@@B@ATL@@QEAAPEAUIOleObject@@PEAUIUnknown@@@Z 0000000180008690 f i CheckScanner.obj
 0001:000076e0       ??4?$CComQIPtr@UISpecifyPropertyPages@@$1?_GUID_b196b28b_bab4_101a_b69c_00aa00341d07@@3U__s_GUID@@B@ATL@@QEAAPEAUISpecifyPropertyPages@@PEAUIUnknown@@@Z 00000001800086e0 f i CheckScanner.obj
 0001:00007730       ??7?$CComPtrBase@UIOleClientSite@@@ATL@@QEBA_NXZ 0000000180008730 f i CheckScanner.obj
 0001:00007760       ??7?$CComPtrBase@UIOleInPlaceSiteWindowless@@@ATL@@QEBA_NXZ 0000000180008760 f i CheckScanner.obj
 0001:00007790       ??7CComBSTR@ATL@@QEBA_NXZ  0000000180008790 f i CheckScanner.obj
 0001:000077c0       ??8?$CComPtrBase@UIConnectionPointContainer@@@ATL@@QEBA_NPEAUIConnectionPointContainer@@@Z 00000001800087c0 f i CheckScanner.obj
 0001:00007800       ??8?$CComPtrBase@UIDataAdviseHolder@@@ATL@@QEBA_NPEAUIDataAdviseHolder@@@Z 0000000180008800 f i CheckScanner.obj
 0001:00007840       ??8?$CComPtrBase@UIOleAdviseHolder@@@ATL@@QEBA_NPEAUIOleAdviseHolder@@@Z 0000000180008840 f i CheckScanner.obj
 0001:00007880       ??8?$CComPtrBase@UIOleClientSite@@@ATL@@QEBA_NPEAUIOleClientSite@@@Z 0000000180008880 f i CheckScanner.obj
 0001:000078c0       ??8?$CComPtrBase@UIOleControlSite@@@ATL@@QEBA_NPEAUIOleControlSite@@@Z 00000001800088c0 f i CheckScanner.obj
 0001:00007900       ??8?$CComPtrBase@UIOleInPlaceObject@@@ATL@@QEBA_NPEAUIOleInPlaceObject@@@Z 0000000180008900 f i CheckScanner.obj
 0001:00007940       ??8?$CComPtrBase@UIOleInPlaceSiteWindowless@@@ATL@@QEBA_NPEAUIOleInPlaceSiteWindowless@@@Z 0000000180008940 f i CheckScanner.obj
 0001:00007980       ??8?$CComPtrBase@UIOleObject@@@ATL@@QEBA_NPEAUIOleObject@@@Z 0000000180008980 f i CheckScanner.obj
 0001:000079c0       ??8?$CComPtrBase@UIPersistStream@@@ATL@@QEBA_NPEAUIPersistStream@@@Z 00000001800089c0 f i CheckScanner.obj
 0001:00007a00       ??8?$CComPtrBase@UIPersistStreamInit@@@ATL@@QEBA_NPEAUIPersistStreamInit@@@Z 0000000180008a00 f i CheckScanner.obj
 0001:00007a40       ??8?$CComPtrBase@UIPointerInactive@@@ATL@@QEBA_NPEAUIPointerInactive@@@Z 0000000180008a40 f i CheckScanner.obj
 0001:00007a80       ??8?$CComPtrBase@UIUnknown@@@ATL@@QEBA_NPEAUIUnknown@@@Z 0000000180008a80 f i CheckScanner.obj
 0001:00007ac0       ??8?$CComPtrBase@UIViewObjectEx@@@ATL@@QEBA_NPEAUIViewObjectEx@@@Z 0000000180008ac0 f i CheckScanner.obj
 0001:00007b00       ??8CComBSTR@ATL@@QEBA_NH@Z 0000000180008b00 f i CheckScanner.obj
 0001:00007b60       ??9?$CComPtrBase@UIConnectionPointContainer@@@ATL@@QEBA_NPEAUIConnectionPointContainer@@@Z 0000000180008b60 f i CheckScanner.obj
 0001:00007bb0       ??9?$CComPtrBase@UIDataAdviseHolder@@@ATL@@QEBA_NPEAUIDataAdviseHolder@@@Z 0000000180008bb0 f i CheckScanner.obj
 0001:00007c00       ??9?$CComPtrBase@UIOleAdviseHolder@@@ATL@@QEBA_NPEAUIOleAdviseHolder@@@Z 0000000180008c00 f i CheckScanner.obj
 0001:00007c50       ??9?$CComPtrBase@UIOleClientSite@@@ATL@@QEBA_NPEAUIOleClientSite@@@Z 0000000180008c50 f i CheckScanner.obj
 0001:00007ca0       ??9?$CComPtrBase@UIOleControlSite@@@ATL@@QEBA_NPEAUIOleControlSite@@@Z 0000000180008ca0 f i CheckScanner.obj
 0001:00007cf0       ??9?$CComPtrBase@UIOleInPlaceObject@@@ATL@@QEBA_NPEAUIOleInPlaceObject@@@Z 0000000180008cf0 f i CheckScanner.obj
 0001:00007d40       ??9?$CComPtrBase@UIOleInPlaceSiteWindowless@@@ATL@@QEBA_NPEAUIOleInPlaceSiteWindowless@@@Z 0000000180008d40 f i CheckScanner.obj
 0001:00007d90       ??9?$CComPtrBase@UIOleObject@@@ATL@@QEBA_NPEAUIOleObject@@@Z 0000000180008d90 f i CheckScanner.obj
 0001:00007de0       ??9?$CComPtrBase@UIPersistStream@@@ATL@@QEBA_NPEAUIPersistStream@@@Z 0000000180008de0 f i CheckScanner.obj
 0001:00007e30       ??9?$CComPtrBase@UIPersistStreamInit@@@ATL@@QEBA_NPEAUIPersistStreamInit@@@Z 0000000180008e30 f i CheckScanner.obj
 0001:00007e80       ??9?$CComPtrBase@UIPointerInactive@@@ATL@@QEBA_NPEAUIPointerInactive@@@Z 0000000180008e80 f i CheckScanner.obj
 0001:00007ed0       ??9?$CComPtrBase@UIUnknown@@@ATL@@QEBA_NPEAUIUnknown@@@Z 0000000180008ed0 f i CheckScanner.obj
 0001:00007f20       ??9?$CComPtrBase@UIViewObjectEx@@@ATL@@QEBA_NPEAUIViewObjectEx@@@Z 0000000180008f20 f i CheckScanner.obj
 0001:00007f70       ??9CComBSTR@ATL@@QEBA_NH@Z 0000000180008f70 f i CheckScanner.obj
 0001:00007fb0       ??B?$CComPtrBase@UIAdviseSink@@@ATL@@QEBAPEAUIAdviseSink@@XZ 0000000180008fb0 f i CheckScanner.obj
 0001:00007fc0       ??B?$CComPtrBase@UIDataAdviseHolder@@@ATL@@QEBAPEAUIDataAdviseHolder@@XZ 0000000180008fc0 f i CheckScanner.obj
 0001:00007fd0       ??B?$CComPtrBase@UIDataObject@@@ATL@@QEBAPEAUIDataObject@@XZ 0000000180008fd0 f i CheckScanner.obj
 0001:00007fe0       ??B?$CComPtrBase@UIOleAdviseHolder@@@ATL@@QEBAPEAUIOleAdviseHolder@@XZ 0000000180008fe0 f i CheckScanner.obj
 0001:00007ff0       ??B?$CComPtrBase@UIOleClientSite@@@ATL@@QEBAPEAUIOleClientSite@@XZ 0000000180008ff0 f i CheckScanner.obj
 0001:00008000       ??B?$CComPtrBase@UIOleControlSite@@@ATL@@QEBAPEAUIOleControlSite@@XZ 0000000180009000 f i CheckScanner.obj
 0001:00008010       ??B?$CComPtrBase@UIOleInPlaceActiveObject@@@ATL@@QEBAPEAUIOleInPlaceActiveObject@@XZ 0000000180009010 f i CheckScanner.obj
 0001:00008020       ??B?$CComPtrBase@UIOleInPlaceFrame@@@ATL@@QEBAPEAUIOleInPlaceFrame@@XZ 0000000180009020 f i CheckScanner.obj
 0001:00008030       ??B?$CComPtrBase@UIOleInPlaceSiteWindowless@@@ATL@@QEBAPEAUIOleInPlaceSiteWindowless@@XZ 0000000180009030 f i CheckScanner.obj
 0001:00008040       ??B?$CComPtrBase@UIOleInPlaceUIWindow@@@ATL@@QEBAPEAUIOleInPlaceUIWindow@@XZ 0000000180009040 f i CheckScanner.obj
 0001:00008050       ??B?$CComPtrBase@UIOleObject@@@ATL@@QEBAPEAUIOleObject@@XZ 0000000180009050 f i CheckScanner.obj
 0001:00008060       ??B?$CComPtrBase@UIPersistStream@@@ATL@@QEBAPEAUIPersistStream@@XZ 0000000180009060 f i CheckScanner.obj
 0001:00008070       ??B?$CComPtrBase@UIProvideClassInfo2@@@ATL@@QEBAPEAUIProvideClassInfo2@@XZ 0000000180009070 f i CheckScanner.obj
 0001:00008080       ??B?$CComPtrBase@UISpecifyPropertyPages@@@ATL@@QEBAPEAUISpecifyPropertyPages@@XZ 0000000180009080 f i CheckScanner.obj
 0001:00008090       ??B?$CComPtrBase@UIStream@@@ATL@@QEBAPEAUIStream@@XZ 0000000180009090 f i CheckScanner.obj
 0001:000080a0       ??B?$CComPtrBase@UITypeInfo2@@@ATL@@QEBAPEAUITypeInfo2@@XZ 00000001800090a0 f i CheckScanner.obj
 0001:000080b0       ??B?$CComPtrBase@UITypeInfo@@@ATL@@QEBAPEAUITypeInfo@@XZ 00000001800090b0 f i CheckScanner.obj
 0001:000080c0       ??B?$CComPtrBase@UITypeLib@@@ATL@@QEBAPEAUITypeLib@@XZ 00000001800090c0 f i CheckScanner.obj
 0001:000080d0       ??B?$CComPtrBase@UIUnknown@@@ATL@@QEBAPEAUIUnknown@@XZ 00000001800090d0 f i CheckScanner.obj
 0001:000080e0       ??B?$CTempBuffer@E$0BAA@VCCRTAllocator@ATL@@@ATL@@QEBAPEAEXZ 00000001800090e0 f i CheckScanner.obj
 0001:000080f0       ??B?$CTempBuffer@_W$0BAA@VCCRTAllocator@ATL@@@ATL@@QEBAPEA_WXZ 00000001800090f0 f i CheckScanner.obj
 0001:00008100       ??B?$CTempBuffer@_W$0EAA@VCCRTAllocator@ATL@@@ATL@@QEBAPEA_WXZ 0000000180009100 f i CheckScanner.obj
 0001:00008110       ??B?$CTraceCategoryEx@$00$0A@@ATL@@QEAAIXZ 0000000180009110 f i CheckScanner.obj
 0001:00008120       ??B?$CTraceCategoryEx@$07$0A@@ATL@@QEAAIXZ 0000000180009120 f i CheckScanner.obj
 0001:00008130       ??B?$CTraceCategoryEx@$0CAAA@$0A@@ATL@@QEAAIXZ 0000000180009130 f i CheckScanner.obj
 0001:00008140       ??B?$CTraceCategoryEx@$0EA@$0A@@ATL@@QEAAIXZ 0000000180009140 f i CheckScanner.obj
 0001:00008150       ??B?$CTraceCategoryEx@$0IAA@$0A@@ATL@@QEAAIXZ 0000000180009150 f i CheckScanner.obj
 0001:00008160       ??BCComBSTR@ATL@@QEBAPEA_WXZ 0000000180009160 f i CheckScanner.obj
 0001:00008170       ??BCRegKey@ATL@@QEBAPEAUHKEY__@@XZ 0000000180009170 f i CheckScanner.obj
 0001:00008180       ??C?$CComPtrBase@UIAdviseSink@@@ATL@@QEBAPEAV?$_NoAddRefReleaseOnCComPtr@UIAdviseSink@@@1@XZ 0000000180009180 f i CheckScanner.obj
 0001:000081e0       ??C?$CComPtrBase@UICatRegister@@@ATL@@QEBAPEAV?$_NoAddRefReleaseOnCComPtr@UICatRegister@@@1@XZ 00000001800091e0 f i CheckScanner.obj
 0001:00008240       ??C?$CComPtrBase@UIConnectionPoint@@@ATL@@QEBAPEAV?$_NoAddRefReleaseOnCComPtr@UIConnectionPoint@@@1@XZ 0000000180009240 f i CheckScanner.obj
 0001:000082a0       ??C?$CComPtrBase@UIConnectionPointContainer@@@ATL@@QEBAPEAV?$_NoAddRefReleaseOnCComPtr@UIConnectionPointContainer@@@1@XZ 00000001800092a0 f i CheckScanner.obj
 0001:00008300       ??C?$CComPtrBase@UIDataAdviseHolder@@@ATL@@QEBAPEAV?$_NoAddRefReleaseOnCComPtr@UIDataAdviseHolder@@@1@XZ 0000000180009300 f i CheckScanner.obj
 0001:00008360       ??C?$CComPtrBase@UIOleAdviseHolder@@@ATL@@QEBAPEAV?$_NoAddRefReleaseOnCComPtr@UIOleAdviseHolder@@@1@XZ 0000000180009360 f i CheckScanner.obj
 0001:000083c0       ??C?$CComPtrBase@UIOleClientSite@@@ATL@@QEBAPEAV?$_NoAddRefReleaseOnCComPtr@UIOleClientSite@@@1@XZ 00000001800093c0 f i CheckScanner.obj
 0001:00008420       ??C?$CComPtrBase@UIOleControlSite@@@ATL@@QEBAPEAV?$_NoAddRefReleaseOnCComPtr@UIOleControlSite@@@1@XZ 0000000180009420 f i CheckScanner.obj
 0001:00008480       ??C?$CComPtrBase@UIOleInPlaceFrame@@@ATL@@QEBAPEAV?$_NoAddRefReleaseOnCComPtr@UIOleInPlaceFrame@@@1@XZ 0000000180009480 f i CheckScanner.obj
 0001:000084e0       ??C?$CComPtrBase@UIOleInPlaceObject@@@ATL@@QEBAPEAV?$_NoAddRefReleaseOnCComPtr@UIOleInPlaceObject@@@1@XZ 00000001800094e0 f i CheckScanner.obj
 0001:00008540       ??C?$CComPtrBase@UIOleInPlaceSiteWindowless@@@ATL@@QEBAPEAV?$_NoAddRefReleaseOnCComPtr@UIOleInPlaceSiteWindowless@@@1@XZ 0000000180009540 f i CheckScanner.obj
 0001:000085a0       ??C?$CComPtrBase@UIOleInPlaceUIWindow@@@ATL@@QEBAPEAV?$_NoAddRefReleaseOnCComPtr@UIOleInPlaceUIWindow@@@1@XZ 00000001800095a0 f i CheckScanner.obj
 0001:00008600       ??C?$CComPtrBase@UIOleObject@@@ATL@@QEBAPEAV?$_NoAddRefReleaseOnCComPtr@UIOleObject@@@1@XZ 0000000180009600 f i CheckScanner.obj
 0001:00008660       ??C?$CComPtrBase@UIPersistStream@@@ATL@@QEBAPEAV?$_NoAddRefReleaseOnCComPtr@UIPersistStream@@@1@XZ 0000000180009660 f i CheckScanner.obj
 0001:000086c0       ??C?$CComPtrBase@UIPersistStreamInit@@@ATL@@QEBAPEAV?$_NoAddRefReleaseOnCComPtr@UIPersistStreamInit@@@1@XZ 00000001800096c0 f i CheckScanner.obj
 0001:00008720       ??C?$CComPtrBase@UIPointerInactive@@@ATL@@QEBAPEAV?$_NoAddRefReleaseOnCComPtr@UIPointerInactive@@@1@XZ 0000000180009720 f i CheckScanner.obj
 0001:00008780       ??C?$CComPtrBase@UIProvideClassInfo2@@@ATL@@QEBAPEAV?$_NoAddRefReleaseOnCComPtr@UIProvideClassInfo2@@@1@XZ 0000000180009780 f i CheckScanner.obj
 0001:000087e0       ??C?$CComPtrBase@UISpecifyPropertyPages@@@ATL@@QEBAPEAV?$_NoAddRefReleaseOnCComPtr@UISpecifyPropertyPages@@@1@XZ 00000001800097e0 f i CheckScanner.obj
 0001:00008840       ??C?$CComPtrBase@UITypeInfo@@@ATL@@QEBAPEAV?$_NoAddRefReleaseOnCComPtr@UITypeInfo@@@1@XZ 0000000180009840 f i CheckScanner.obj
 0001:000088a0       ??C?$CComPtrBase@UITypeLib@@@ATL@@QEBAPEAV?$_NoAddRefReleaseOnCComPtr@UITypeLib@@@1@XZ 00000001800098a0 f i CheckScanner.obj
 0001:00008900       ??C?$CComPtrBase@UIUnknown@@@ATL@@QEBAPEAV?$_NoAddRefReleaseOnCComPtr@UIUnknown@@@1@XZ 0000000180009900 f i CheckScanner.obj
 0001:00008960       ??C?$CComPtrBase@UIViewObjectEx@@@ATL@@QEBAPEAV?$_NoAddRefReleaseOnCComPtr@UIViewObjectEx@@@1@XZ 0000000180009960 f i CheckScanner.obj
 0001:000089c0       ??I?$CComPtrBase@UICatRegister@@@ATL@@QEAAPEAPEAUICatRegister@@XZ 00000001800099c0 f i CheckScanner.obj
 0001:00008a20       ??I?$CComPtrBase@UIConnectionPoint@@@ATL@@QEAAPEAPEAUIConnectionPoint@@XZ 0000000180009a20 f i CheckScanner.obj
 0001:00008a80       ??I?$CComPtrBase@UIConnectionPointContainer@@@ATL@@QEAAPEAPEAUIConnectionPointContainer@@XZ 0000000180009a80 f i CheckScanner.obj
 0001:00008ae0       ??I?$CComPtrBase@UIDataAdviseHolder@@@ATL@@QEAAPEAPEAUIDataAdviseHolder@@XZ 0000000180009ae0 f i CheckScanner.obj
 0001:00008b40       ??I?$CComPtrBase@UIDataObject@@@ATL@@QEAAPEAPEAUIDataObject@@XZ 0000000180009b40 f i CheckScanner.obj
 0001:00008ba0       ??I?$CComPtrBase@UIDispatch@@@ATL@@QEAAPEAPEAUIDispatch@@XZ 0000000180009ba0 f i CheckScanner.obj
 0001:00008c00       ??I?$CComPtrBase@UIOleAdviseHolder@@@ATL@@QEAAPEAPEAUIOleAdviseHolder@@XZ 0000000180009c00 f i CheckScanner.obj
 0001:00008c60       ??I?$CComPtrBase@UIOleControlSite@@@ATL@@QEAAPEAPEAUIOleControlSite@@XZ 0000000180009c60 f i CheckScanner.obj
 0001:00008cc0       ??I?$CComPtrBase@UIOleInPlaceActiveObject@@@ATL@@QEAAPEAPEAUIOleInPlaceActiveObject@@XZ 0000000180009cc0 f i CheckScanner.obj
 0001:00008d20       ??I?$CComPtrBase@UIOleInPlaceFrame@@@ATL@@QEAAPEAPEAUIOleInPlaceFrame@@XZ 0000000180009d20 f i CheckScanner.obj
 0001:00008d80       ??I?$CComPtrBase@UIOleInPlaceObject@@@ATL@@QEAAPEAPEAUIOleInPlaceObject@@XZ 0000000180009d80 f i CheckScanner.obj
 0001:00008de0       ??I?$CComPtrBase@UIOleInPlaceSiteWindowless@@@ATL@@QEAAPEAPEAUIOleInPlaceSiteWindowless@@XZ 0000000180009de0 f i CheckScanner.obj
 0001:00008e40       ??I?$CComPtrBase@UIOleInPlaceUIWindow@@@ATL@@QEAAPEAPEAUIOleInPlaceUIWindow@@XZ 0000000180009e40 f i CheckScanner.obj
 0001:00008ea0       ??I?$CComPtrBase@UIOleObject@@@ATL@@QEAAPEAPEAUIOleObject@@XZ 0000000180009ea0 f i CheckScanner.obj
 0001:00008f00       ??I?$CComPtrBase@UIPersistStream@@@ATL@@QEAAPEAPEAUIPersistStream@@XZ 0000000180009f00 f i CheckScanner.obj
 0001:00008f60       ??I?$CComPtrBase@UIPointerInactive@@@ATL@@QEAAPEAPEAUIPointerInactive@@XZ 0000000180009f60 f i CheckScanner.obj
 0001:00008fc0       ??I?$CComPtrBase@UIProvideClassInfo2@@@ATL@@QEAAPEAPEAUIProvideClassInfo2@@XZ 0000000180009fc0 f i CheckScanner.obj
 0001:00009020       ??I?$CComPtrBase@UIStream@@@ATL@@QEAAPEAPEAUIStream@@XZ 000000018000a020 f i CheckScanner.obj
 0001:00009080       ??I?$CComPtrBase@UITypeInfo2@@@ATL@@QEAAPEAPEAUITypeInfo2@@XZ 000000018000a080 f i CheckScanner.obj
 0001:000090e0       ??I?$CComPtrBase@UITypeInfo@@@ATL@@QEAAPEAPEAUITypeInfo@@XZ 000000018000a0e0 f i CheckScanner.obj
 0001:00009140       ??I?$CComPtrBase@UITypeLib@@@ATL@@QEAAPEAPEAUITypeLib@@XZ 000000018000a140 f i CheckScanner.obj
 0001:000091a0       ??I?$CComPtrBase@UIUnknown@@@ATL@@QEAAPEAPEAUIUnknown@@XZ 000000018000a1a0 f i CheckScanner.obj
 0001:00009200       ??I?$CComPtrBase@UIViewObjectEx@@@ATL@@QEAAPEAPEAUIViewObjectEx@@XZ 000000018000a200 f i CheckScanner.obj
 0001:00009260       ??ICComBSTR@ATL@@QEAAPEAPEA_WXZ 000000018000a260 f i CheckScanner.obj
 0001:00009270       ??_E?$CComContainedObject@VCOPOSCheckScanner@@@ATL@@W7EAAPEAXI@Z 000000018000a270 f i CheckScanner.obj
 0001:0000927c       ??_E?$CComContainedObject@VCOPOSCheckScanner@@@ATL@@WHA@EAAPEAXI@Z 000000018000a27c f i CheckScanner.obj
 0001:00009288       ??_E?$CComObject@VCOPOSCheckScanner@@@ATL@@W7EAAPEAXI@Z 000000018000a288 f i CheckScanner.obj
 0001:00009294       ??_E?$CComObject@VCOPOSCheckScanner@@@ATL@@WHA@EAAPEAXI@Z 000000018000a294 f i CheckScanner.obj
 0001:000092a0       ??_E?$CComAggObject@VCOPOSCheckScanner@@@ATL@@UEAAPEAXI@Z 000000018000a2a0 f i CheckScanner.obj
 0001:000092a0       ??_G?$CComAggObject@VCOPOSCheckScanner@@@ATL@@UEAAPEAXI@Z 000000018000a2a0 f i CheckScanner.obj
 0001:000092e0       ??_G?$CComContainedObject@VCOPOSCheckScanner@@@ATL@@UEAAPEAXI@Z 000000018000a2e0 f i CheckScanner.obj
 0001:000092e0       ??_E?$CComContainedObject@VCOPOSCheckScanner@@@ATL@@UEAAPEAXI@Z 000000018000a2e0 f i CheckScanner.obj
 0001:00009320       ??_E?$CComObject@V?$CComEnum@UIEnumConnectionPoints@@$1?_GUID_b196b285_bab4_101a_b69c_00aa00341d07@@3U__s_GUID@@BPEAUIConnectionPoint@@V?$_CopyInterface@UIConnectionPoint@@@ATL@@VCComSingleThreadModel@6@@ATL@@@ATL@@UEAAPEAXI@Z 000000018000a320 f i CheckScanner.obj
 0001:00009320       ??_G?$CComObject@V?$CComEnum@UIEnumConnectionPoints@@$1?_GUID_b196b285_bab4_101a_b69c_00aa00341d07@@3U__s_GUID@@BPEAUIConnectionPoint@@V?$_CopyInterface@UIConnectionPoint@@@ATL@@VCComSingleThreadModel@6@@ATL@@@ATL@@UEAAPEAXI@Z 000000018000a320 f i CheckScanner.obj
 0001:00009360       ??_E?$CComObject@V?$CComEnum@UIEnumConnections@@$1?_GUID_b196b287_bab4_101a_b69c_00aa00341d07@@3U__s_GUID@@BUtagCONNECTDATA@@V?$_Copy@UtagCONNECTDATA@@@ATL@@VCComSingleThreadModel@6@@ATL@@@ATL@@UEAAPEAXI@Z 000000018000a360 f i CheckScanner.obj
 0001:00009360       ??_G?$CComObject@V?$CComEnum@UIEnumConnections@@$1?_GUID_b196b287_bab4_101a_b69c_00aa00341d07@@3U__s_GUID@@BUtagCONNECTDATA@@V?$_Copy@UtagCONNECTDATA@@@ATL@@VCComSingleThreadModel@6@@ATL@@@ATL@@UEAAPEAXI@Z 000000018000a360 f i CheckScanner.obj
 0001:000093a0       ??_G?$CComObject@VCOPOSCheckScanner@@@ATL@@UEAAPEAXI@Z 000000018000a3a0 f i CheckScanner.obj
 0001:000093a0       ??_E?$CComObject@VCOPOSCheckScanner@@@ATL@@UEAAPEAXI@Z 000000018000a3a0 f i CheckScanner.obj
 0001:000093e0       ??_G?$CComObjectCached@VCComClassFactory@ATL@@@ATL@@UEAAPEAXI@Z 000000018000a3e0 f i CheckScanner.obj
 0001:000093e0       ??_E?$CComObjectCached@VCComClassFactory@ATL@@@ATL@@UEAAPEAXI@Z 000000018000a3e0 f i CheckScanner.obj
 0001:00009420       ??_ECComClassFactory@ATL@@UEAAPEAXI@Z 000000018000a420 f i CheckScanner.obj
 0001:00009420       ??_GCComClassFactory@ATL@@UEAAPEAXI@Z 000000018000a420 f i CheckScanner.obj
 0001:00009460       ??_ECComModule@ATL@@UEAAPEAXI@Z 000000018000a460 f i CheckScanner.obj
 0001:00009460       ??_GCComModule@ATL@@UEAAPEAXI@Z 000000018000a460 f i CheckScanner.obj
 0001:000094a0       ??_GCRegObject@ATL@@UEAAPEAXI@Z 000000018000a4a0 f i CheckScanner.obj
 0001:000094a0       ??_ECRegObject@ATL@@UEAAPEAXI@Z 000000018000a4a0 f i CheckScanner.obj
 0001:000094e0       ?Add@?$CSimpleArray@GV?$CSimpleArrayEqualHelper@G@ATL@@@ATL@@QEAAHAEBG@Z 000000018000a4e0 f i CheckScanner.obj
 0001:00009670       ?Add@?$CSimpleMap@PEA_WPEA_WVCExpansionVectorEqualHelper@ATL@@@ATL@@QEAAHAEBQEA_W0@Z 000000018000a670 f i CheckScanner.obj
 0001:00009750       ?Add@CComDynamicUnkArray@ATL@@QEAAKPEAUIUnknown@@@Z 000000018000a750 f i CheckScanner.obj
 0001:00009930       ?Add@CExpansionVector@ATL@@QEAAHPEB_W0@Z 000000018000a930 f i CheckScanner.obj
 0001:00009c70       ?AddChar@CParseBuffer@CRegParser@ATL@@QEAAHPEB_W@Z 000000018000ac70 f i CheckScanner.obj
 0001:00009cb0       ?AddCommonRGSReplacements@?$CAtlModuleT@VCComModule@ATL@@@ATL@@UEAAJPEAUIRegistrarBase@@@Z 000000018000acb0 f i CheckScanner.obj
 0001:00009cf0       ?AddCreateWndData@CAtlWinModule@ATL@@QEAAXPEAU_AtlCreateWndData@2@PEAX@Z 000000018000acf0 f i CheckScanner.obj
 0001:00009d20       ?AddRef@?$CComAggObject@VCOPOSCheckScanner@@@ATL@@UEAAKXZ 000000018000ad20 f i CheckScanner.obj
 0001:00009d50       ?AddRef@?$CComContainedObject@VCOPOSCheckScanner@@@ATL@@UEAAKXZ 000000018000ad50 f i CheckScanner.obj
 0001:00009d74       ?AddRef@?$CComContainedObject@VCOPOSCheckScanner@@@ATL@@WBAA@EAAKXZ 000000018000ad74 f i CheckScanner.obj
 0001:00009d80       ?AddRef@?$CComContainedObject@VCOPOSCheckScanner@@@ATL@@WBAI@EAAKXZ 000000018000ad80 f i CheckScanner.obj
 0001:00009d8c       ?AddRef@?$CComContainedObject@VCOPOSCheckScanner@@@ATL@@WBBA@EAAKXZ 000000018000ad8c f i CheckScanner.obj
 0001:00009d98       ?AddRef@?$CComContainedObject@VCOPOSCheckScanner@@@ATL@@WBBI@EAAKXZ 000000018000ad98 f i CheckScanner.obj
 0001:00009da4       ?AddRef@?$CComContainedObject@VCOPOSCheckScanner@@@ATL@@WBCI@EAAKXZ 000000018000ada4 f i CheckScanner.obj
 0001:00009db0       ?AddRef@?$CComContainedObject@VCOPOSCheckScanner@@@ATL@@WBEA@EAAKXZ 000000018000adb0 f i CheckScanner.obj
 0001:00009dbc       ?AddRef@?$CComContainedObject@VCOPOSCheckScanner@@@ATL@@WLI@EAAKXZ 000000018000adbc f i CheckScanner.obj
 0001:00009dc8       ?AddRef@?$CComContainedObject@VCOPOSCheckScanner@@@ATL@@WMA@EAAKXZ 000000018000adc8 f i CheckScanner.obj
 0001:00009dd4       ?AddRef@?$CComContainedObject@VCOPOSCheckScanner@@@ATL@@WMI@EAAKXZ 000000018000add4 f i CheckScanner.obj
 0001:00009de0       ?AddRef@?$CComContainedObject@VCOPOSCheckScanner@@@ATL@@WNA@EAAKXZ 000000018000ade0 f i CheckScanner.obj
 0001:00009dec       ?AddRef@?$CComContainedObject@VCOPOSCheckScanner@@@ATL@@WNI@EAAKXZ 000000018000adec f i CheckScanner.obj
 0001:00009df8       ?AddRef@?$CComContainedObject@VCOPOSCheckScanner@@@ATL@@WOA@EAAKXZ 000000018000adf8 f i CheckScanner.obj
 0001:00009e04       ?AddRef@?$CComContainedObject@VCOPOSCheckScanner@@@ATL@@WOI@EAAKXZ 000000018000ae04 f i CheckScanner.obj
 0001:00009e10       ?AddRef@?$CComContainedObject@VCOPOSCheckScanner@@@ATL@@WPA@EAAKXZ 000000018000ae10 f i CheckScanner.obj
 0001:00009e1c       ?AddRef@?$CComContainedObject@VCOPOSCheckScanner@@@ATL@@WPI@EAAKXZ 000000018000ae1c f i CheckScanner.obj
 0001:00009e30       ?AddRef@?$CComObject@V?$CComEnum@UIEnumConnectionPoints@@$1?_GUID_b196b285_bab4_101a_b69c_00aa00341d07@@3U__s_GUID@@BPEAUIConnectionPoint@@V?$_CopyInterface@UIConnectionPoint@@@ATL@@VCComSingleThreadModel@6@@ATL@@@ATL@@UEAAKXZ 000000018000ae30 f i CheckScanner.obj
 0001:00009e60       ?AddRef@?$CComObject@V?$CComEnum@UIEnumConnections@@$1?_GUID_b196b287_bab4_101a_b69c_00aa00341d07@@3U__s_GUID@@BUtagCONNECTDATA@@V?$_Copy@UtagCONNECTDATA@@@ATL@@VCComSingleThreadModel@6@@ATL@@@ATL@@UEAAKXZ 000000018000ae60 f i CheckScanner.obj
 0001:00009e90       ?AddRef@?$CComObject@VCOPOSCheckScanner@@@ATL@@UEAAKXZ 000000018000ae90 f i CheckScanner.obj
 0001:00009eb4       ?AddRef@?$CComObject@VCOPOSCheckScanner@@@ATL@@WBAA@EAAKXZ 000000018000aeb4 f i CheckScanner.obj
 0001:00009ec0       ?AddRef@?$CComObject@VCOPOSCheckScanner@@@ATL@@WBAI@EAAKXZ 000000018000aec0 f i CheckScanner.obj
 0001:00009ecc       ?AddRef@?$CComObject@VCOPOSCheckScanner@@@ATL@@WBBA@EAAKXZ 000000018000aecc f i CheckScanner.obj
 0001:00009ed8       ?AddRef@?$CComObject@VCOPOSCheckScanner@@@ATL@@WBBI@EAAKXZ 000000018000aed8 f i CheckScanner.obj
 0001:00009ee4       ?AddRef@?$CComObject@VCOPOSCheckScanner@@@ATL@@WBCI@EAAKXZ 000000018000aee4 f i CheckScanner.obj
 0001:00009ef0       ?AddRef@?$CComObject@VCOPOSCheckScanner@@@ATL@@WBEA@EAAKXZ 000000018000aef0 f i CheckScanner.obj
 0001:00009efc       ?AddRef@?$CComObject@VCOPOSCheckScanner@@@ATL@@WLI@EAAKXZ 000000018000aefc f i CheckScanner.obj
 0001:00009f08       ?AddRef@?$CComObject@VCOPOSCheckScanner@@@ATL@@WMA@EAAKXZ 000000018000af08 f i CheckScanner.obj
 0001:00009f14       ?AddRef@?$CComObject@VCOPOSCheckScanner@@@ATL@@WMI@EAAKXZ 000000018000af14 f i CheckScanner.obj
 0001:00009f20       ?AddRef@?$CComObject@VCOPOSCheckScanner@@@ATL@@WNA@EAAKXZ 000000018000af20 f i CheckScanner.obj
 0001:00009f2c       ?AddRef@?$CComObject@VCOPOSCheckScanner@@@ATL@@WNI@EAAKXZ 000000018000af2c f i CheckScanner.obj
 0001:00009f38       ?AddRef@?$CComObject@VCOPOSCheckScanner@@@ATL@@WOA@EAAKXZ 000000018000af38 f i CheckScanner.obj
 0001:00009f44       ?AddRef@?$CComObject@VCOPOSCheckScanner@@@ATL@@WOI@EAAKXZ 000000018000af44 f i CheckScanner.obj
 0001:00009f50       ?AddRef@?$CComObject@VCOPOSCheckScanner@@@ATL@@WPA@EAAKXZ 000000018000af50 f i CheckScanner.obj
 0001:00009f5c       ?AddRef@?$CComObject@VCOPOSCheckScanner@@@ATL@@WPI@EAAKXZ 000000018000af5c f i CheckScanner.obj
 0001:00009f70       ?AddRef@?$CComObjectCached@VCComClassFactory@ATL@@@ATL@@UEAAKXZ 000000018000af70 f i CheckScanner.obj
 0001:00009fc0       ?AddRef@CRegObject@ATL@@UEAAKXZ 000000018000afc0 f i CheckScanner.obj
 0001:0000a020       ?AddReplacement@CRegObject@ATL@@UEAAJPEB_W0@Z 000000018000b020 f i CheckScanner.obj
 0001:0000a150       ?AddString@CParseBuffer@CRegParser@ATL@@QEAAHPEB_W@Z 000000018000b150 f i CheckScanner.obj
 0001:0000a240       ?AddTermFunc@CAtlModule@ATL@@QEAAJP6AX_K@Z0@Z 000000018000b240 f i CheckScanner.obj
 0001:0000a290       ?AddValue@CRegParser@ATL@@IEAAJAEAVCRegKey@2@PEB_WPEA_W@Z 000000018000b290 f i CheckScanner.obj
 0001:0000ab60       ?Advise@?$CProxy_IOPOSEvents@VCOPOSCheckScanner@@@@UEAAJPEAUIUnknown@@PEAK@Z 000000018000bb60 f i CheckScanner.obj
 0001:0000abc0       ?Advise@?$IConnectionPointImpl@VCOPOSCheckScanner@@$1?DIID__IOPOSCheckScannerEvents@@3U_GUID@@BVCComDynamicUnkArray@ATL@@@ATL@@UEAAJPEAUIUnknown@@PEAK@Z 000000018000bbc0 f i CheckScanner.obj
 0001:0000adc0       ?Advise@?$IConnectionPointImpl@VCOPOSCheckScanner@@$1?IID_IPropertyNotifySink@@3U_GUID@@BVCComDynamicUnkArray@ATL@@@ATL@@UEAAJPEAUIUnknown@@PEAK@Z 000000018000bdc0 f i CheckScanner.obj
 0001:0000afc0       ?Advise@?$IOleObjectImpl@VCOPOSCheckScanner@@@ATL@@UEAAJPEAUIAdviseSink@@PEAK@Z 000000018000bfc0 f i CheckScanner.obj
 0001:0000b070       ?Allocate@?$CAtlSafeAllocBufferManager@VCCRTAllocator@ATL@@@_ATL_SAFE_ALLOCA_IMPL@ATL@@QEAAPEAX_K@Z 000000018000c070 f i CheckScanner.obj
 0001:0000b0e0       ?Allocate@?$CTempBuffer@E$0BAA@VCCRTAllocator@ATL@@@ATL@@QEAAPEAE_K@Z 000000018000c0e0 f i CheckScanner.obj
 0001:0000b120       ?Allocate@?$CTempBuffer@_W$0BAA@VCCRTAllocator@ATL@@@ATL@@QEAAPEA_W_K@Z 000000018000c120 f i CheckScanner.obj
 0001:0000b160       ?Allocate@?$CTempBuffer@_W$0EAA@VCCRTAllocator@ATL@@@ATL@@QEAAPEA_W_K@Z 000000018000c160 f i CheckScanner.obj
 0001:0000b1a0       ?AllocateBytes@?$CTempBuffer@E$0BAA@VCCRTAllocator@ATL@@@ATL@@QEAAPEAE_K@Z 000000018000c1a0 f i CheckScanner.obj
 0001:0000b230       ?AllocateBytes@?$CTempBuffer@_W$0BAA@VCCRTAllocator@ATL@@@ATL@@QEAAPEA_W_K@Z 000000018000c230 f i CheckScanner.obj
 0001:0000b2c0       ?AllocateBytes@?$CTempBuffer@_W$0EAA@VCCRTAllocator@ATL@@@ATL@@QEAAPEA_W_K@Z 000000018000c2c0 f i CheckScanner.obj
 0001:0000b350       ?AllocateHeap@?$CTempBuffer@E$0BAA@VCCRTAllocator@ATL@@@ATL@@AEAAX_K@Z 000000018000c350 f i CheckScanner.obj
 0001:0000b3a0       ?AllocateHeap@?$CTempBuffer@_W$0BAA@VCCRTAllocator@ATL@@@ATL@@AEAAX_K@Z 000000018000c3a0 f i CheckScanner.obj
 0001:0000b3f0       ?AllocateHeap@?$CTempBuffer@_W$0EAA@VCCRTAllocator@ATL@@@ATL@@AEAAX_K@Z 000000018000c3f0 f i CheckScanner.obj
 0001:0000b440       ?Append@CParseBuffer@CRegParser@ATL@@QEAAHPEB_WH@Z 000000018000c440 f i CheckScanner.obj
 0001:0000b660       ?AtlCallTermFunc@ATL@@YAXPEAU_ATL_MODULE70@1@@Z 000000018000c660 f i CheckScanner.obj
 0001:0000b700       ?AtlCoTaskMemCAlloc@ATL@@YAPEAXKK@Z 000000018000c700 f i CheckScanner.obj
 0001:0000b780       ?AtlCoTaskMemRecalloc@ATL@@YAPEAXPEAXKK@Z 000000018000c780 f i CheckScanner.obj
 0001:0000b800       ?AtlComModuleGetClassObject@ATL@@YAJPEAU_ATL_COM_MODULE70@1@AEBU_GUID@@1PEAPEAX@Z 000000018000c800 f i CheckScanner.obj
 0001:0000bb30       ?AtlComModuleRegisterServer@ATL@@YAJPEAU_ATL_COM_MODULE70@1@HPEBU_GUID@@@Z 000000018000cb30 f i CheckScanner.obj
 0001:0000bd20       ?AtlComModuleUnregisterServer@ATL@@YAJPEAU_ATL_COM_MODULE70@1@HPEBU_GUID@@@Z 000000018000cd20 f i CheckScanner.obj
 0001:0000be70       ?AtlComQIPtrAssign2@ATL@@YAXPEAPEAUIUnknown@@PEAU2@AEBU_GUID@@@Z 000000018000ce70 f i CheckScanner.obj
 0001:0000bee0       ?AtlCreateTargetDC@ATL@@YAPEAUHDC__@@PEAU2@PEAUtagDVTARGETDEVICE@@@Z 000000018000cee0 f i CheckScanner.obj
 0001:0000c110       ?AtlCrtErrorCheck@ATL@@YAHH@Z 000000018000d110 f i CheckScanner.obj
 0001:0000c180       ?AtlGetPerUserRegistration@ATL@@YAJPEA_N@Z 000000018000d180 f i CheckScanner.obj
 0001:0000c1b0       ?AtlHiMetricToPixel@ATL@@YAXPEBUtagSIZE@@PEAU2@@Z 000000018000d1b0 f i CheckScanner.obj
 0001:0000c390       ?AtlHresultFromLastError@ATL@@YAJXZ 000000018000d390 f i CheckScanner.obj
 0001:0000c3b0       ?AtlHresultFromWin32@ATL@@YAJK@Z 000000018000d3b0 f i CheckScanner.obj
 0001:0000c3d0       ?AtlIPersistStreamInit_Load@ATL@@YAJPEAUIStream@@PEBUATL_PROPMAP_ENTRY@1@PEAXPEAUIUnknown@@@Z 000000018000d3d0 f i CheckScanner.obj
 0001:0000ca50       ?AtlIPersistStreamInit_Save@ATL@@YAJPEAUIStream@@HPEBUATL_PROPMAP_ENTRY@1@PEAXPEAUIUnknown@@@Z 000000018000da50 f i CheckScanner.obj
 0001:0000cfe0       ?AtlInternalOleLoadFromStream@ATL@@YAJPEAUIStream@@AEBU_GUID@@PEAPEAXTClassesAllowedInStream@1@K@Z 000000018000dfe0 f i CheckScanner.obj
 0001:0000d320       ?AtlInternalQueryInterface@ATL@@YAJPEAXPEBU_ATL_INTMAP_ENTRY@1@AEBU_GUID@@PEAPEAX@Z 000000018000e320 f i CheckScanner.obj
 0001:0000d5d0       ?AtlLoadTypeLib@ATL@@YAJPEAUHINSTANCE__@@PEB_WPEAPEA_WPEAPEAUITypeLib@@@Z 000000018000e5d0 f i CheckScanner.obj
 0001:0000daa0       ?AtlModuleAddTermFunc@ATL@@YAJPEAU_ATL_MODULE70@1@P6AX_K@Z1@Z 000000018000eaa0 f i CheckScanner.obj
 0001:0000dc70       ?AtlRegisterClassCategoriesHelper@ATL@@YAJAEBU_GUID@@PEBU_ATL_CATMAP_ENTRY@1@H@Z 000000018000ec70 f i CheckScanner.obj
 0001:0000e440       ?AtlRegisterTypeLib@ATL@@YAJPEAUHINSTANCE__@@PEB_W@Z 000000018000f440 f i CheckScanner.obj
 0001:0000e7a0       ?AtlThrowImpl@ATL@@YAXJ@Z  000000018000f7a0 f i CheckScanner.obj
 0001:0000e870       ?AtlUnRegisterTypeLib@ATL@@YAJPEAUHINSTANCE__@@PEB_W@Z 000000018000f870 f i CheckScanner.obj
 0001:0000eaa0       ?AtlWinModuleAddCreateWndData@ATL@@YAXPEAU_ATL_WIN_MODULE70@1@PEAU_AtlCreateWndData@1@PEAX@Z 000000018000faa0 f i CheckScanner.obj
 0001:0000ec90       ?AtlWinModuleExtractCreateWndData@ATL@@YAPEAXPEAU_ATL_WIN_MODULE70@1@@Z 000000018000fc90 f i CheckScanner.obj
 0001:0000ee90       ?AtlWinModuleRegisterClassExW@ATL@@YAGPEAU_ATL_WIN_MODULE70@1@PEBUtagWNDCLASSEXW@@@Z 000000018000fe90 f i CheckScanner.obj
 0001:0000ef60       ?AtlWinModuleRegisterWndClassInfoW@ATL@@YAGPEAU_ATL_WIN_MODULE70@1@PEAU_ATL_BASE_MODULE70@1@PEAU_ATL_WNDCLASSINFOW@1@PEAP6A_JPEAUHWND__@@I_K_J@Z@Z 000000018000ff60 f i CheckScanner.obj
 0001:0000efd0       ?Attach@?$CAutoVectorPtr@_W@ATL@@QEAAXPEA_W@Z 000000018000ffd0 f i CheckScanner.obj
 0001:0000f040       ?Attach@CComBSTR@ATL@@QEAAXPEA_W@Z 0000000180010040 f i CheckScanner.obj
 0001:0000f080       ?Attach@CRegKey@ATL@@QEAAXPEAUHKEY__@@@Z 0000000180010080 f i CheckScanner.obj
 0001:0000f110       ?CanForceRemoveKey@CRegParser@ATL@@IEAAHPEB_W@Z 0000000180010110 f i CheckScanner.obj
 0001:0000f170       ?ChToByte@CRegParser@ATL@@KAE_W@Z 0000000180010170 f i CheckScanner.obj
 0001:0000f310       ?ChangeType@CComVariant@ATL@@QEAAJGPEBUtagVARIANT@@@Z 0000000180010310 f i CheckScanner.obj
 0001:0000f360       ?Cleanup@CComTypeInfoHolder@ATL@@SAX_K@Z 0000000180010360 f i CheckScanner.obj
 0001:0000f440       ?Clear@CComVariant@ATL@@QEAAJXZ 0000000180010440 f i CheckScanner.obj
 0001:0000f460       ?ClearReplacements@CExpansionVector@ATL@@QEAAJXZ 0000000180010460 f i CheckScanner.obj
 0001:0000f4f0       ?ClearReplacements@CRegObject@ATL@@UEAAJXZ 00000001800104f0 f i CheckScanner.obj
 0001:0000f540       ?Clone@?$CComEnumImpl@UIEnumConnectionPoints@@$1?_GUID_b196b285_bab4_101a_b69c_00aa00341d07@@3U__s_GUID@@BPEAUIConnectionPoint@@V?$_CopyInterface@UIConnectionPoint@@@ATL@@@ATL@@UEAAJPEAPEAUIEnumConnectionPoints@@@Z 0000000180010540 f i CheckScanner.obj
 0001:0000f730       ?Clone@?$CComEnumImpl@UIEnumConnections@@$1?_GUID_b196b287_bab4_101a_b69c_00aa00341d07@@3U__s_GUID@@BUtagCONNECTDATA@@V?$_Copy@UtagCONNECTDATA@@@ATL@@@ATL@@UEAAJPEAPEAUIEnumConnections@@@Z 0000000180010730 f i CheckScanner.obj
 0001:0000f920       ?Close@?$IOleObjectImpl@VCOPOSCheckScanner@@@ATL@@UEAAJK@Z 0000000180010920 f i CheckScanner.obj
 0001:0000f9c0       ?Close@CRegKey@ATL@@QEAAJXZ 00000001800109c0 f i CheckScanner.obj
 0001:0000fa20       ?ContextSensitiveHelp@?$IOleInPlaceActiveObjectImpl@VCOPOSCheckScanner@@@ATL@@UEAAJH@Z 0000000180010a20 f i CheckScanner.obj
 0001:0000fa90       ?ContextSensitiveHelp@?$IOleInPlaceObjectWindowlessImpl@VCOPOSCheckScanner@@@ATL@@UEAAJH@Z 0000000180010a90 f i CheckScanner.obj
 0001:0000fb00       ?ControlQueryInterface@?$CComControl@VCOPOSCheckScanner@@V?$CWindowImpl@VCOPOSCheckScanner@@VCWindow@ATL@@V?$CWinTraits@$0FGAAAAAA@$0A@@3@@ATL@@@ATL@@UEAAJAEBU_GUID@@PEAPEAX@Z 0000000180010b00 f i CheckScanner.obj
 0001:0000fb70       ?CreateControlWindow@?$CComControl@VCOPOSCheckScanner@@V?$CWindowImpl@VCOPOSCheckScanner@@VCWindow@ATL@@V?$CWinTraits@$0FGAAAAAA@$0A@@3@@ATL@@@ATL@@UEAAPEAUHWND__@@PEAU3@AEAUtagRECT@@@Z 0000000180010b70 f i CheckScanner.obj
 0001:0000fc40       ?CreateInstance@?$CComCreator@V?$CComAggObject@VCOPOSCheckScanner@@@ATL@@@ATL@@SAJPEAXAEBU_GUID@@PEAPEAX@Z 0000000180010c40 f i CheckScanner.obj
 0001:0000fe10       ?CreateInstance@?$CComCreator@V?$CComObject@VCOPOSCheckScanner@@@ATL@@@ATL@@SAJPEAXAEBU_GUID@@PEAPEAX@Z 0000000180010e10 f i CheckScanner.obj
 0001:0000fff0       ?CreateInstance@?$CComObject@V?$CComEnum@UIEnumConnectionPoints@@$1?_GUID_b196b285_bab4_101a_b69c_00aa00341d07@@3U__s_GUID@@BPEAUIConnectionPoint@@V?$_CopyInterface@UIConnectionPoint@@@ATL@@VCComSingleThreadModel@6@@ATL@@@ATL@@SAJPEAPEAV12@@Z 0000000180010ff0 f i CheckScanner.obj
 0001:000101a0       ?CreateInstance@?$CComObject@V?$CComEnum@UIEnumConnections@@$1?_GUID_b196b287_bab4_101a_b69c_00aa00341d07@@3U__s_GUID@@BUtagCONNECTDATA@@V?$_Copy@UtagCONNECTDATA@@@ATL@@VCComSingleThreadModel@6@@ATL@@@ATL@@SAJPEAPEAV12@@Z 00000001800111a0 f i CheckScanner.obj
 0001:00010350       ?CreateInstance@CComClassFactory@ATL@@UEAAJPEAUIUnknown@@AEBU_GUID@@PEAPEAX@Z 0000000180011350 f i CheckScanner.obj
 0001:00010460       ?DAdvise@?$IDataObjectImpl@VCOPOSCheckScanner@@@ATL@@UEAAJPEAUtagFORMATETC@@KPEAUIAdviseSink@@PEAK@Z 0000000180011460 f i CheckScanner.obj
 0001:000105a0       ?DEVMODEOLE2T_EX@@YAPEAU_devicemodeW@@PEAU1@@Z 00000001800115a0 f i CheckScanner.obj
 0001:000105b0       ?DUnadvise@?$IDataObjectImpl@VCOPOSCheckScanner@@@ATL@@UEAAJK@Z 00000001800115b0 f i CheckScanner.obj
 0001:000106a0       ?Decrement@CComMultiThreadModel@ATL@@SAKPEAJ@Z 00000001800116a0 f i CheckScanner.obj
 0001:000106c0       ?Decrement@CComSingleThreadModel@ATL@@SAKPEAJ@Z 00000001800116c0 f i CheckScanner.obj
 0001:000106e0       ?DefWindowProcW@?$CWindowImplBaseT@VCWindow@ATL@@V?$CWinTraits@$0FGAAAAAA@$0A@@2@@ATL@@QEAA_JI_K_J@Z 00000001800116e0 f i CheckScanner.obj
 0001:00010730       ?DefaultReflectionHandler@?$CWindowImplRoot@VCWindow@ATL@@@ATL@@SAHPEAUHWND__@@I_K_JAEA_J@Z 0000000180011730 f i CheckScanner.obj
 0001:00010a30       ?DeleteSubKey@CRegKey@ATL@@QEAAJPEB_W@Z 0000000180011a30 f i CheckScanner.obj
 0001:00010b40       ?DeleteValue@CRegKey@ATL@@QEAAJPEB_W@Z 0000000180011b40 f i CheckScanner.obj
 0001:00010bc0       ?Detach@?$CAutoVectorPtr@_W@ATL@@QEAAPEA_WXZ 0000000180011bc0 f i CheckScanner.obj
 0001:00010bf0       ?Detach@?$CComPtrBase@UIPersistStream@@@ATL@@QEAAPEAUIPersistStream@@XZ 0000000180011bf0 f i CheckScanner.obj
 0001:00010c20       ?Detach@?$CComPtrBase@UITypeInfo@@@ATL@@QEAAPEAUITypeInfo@@XZ 0000000180011c20 f i CheckScanner.obj
 0001:00010c50       ?Detach@?$CComPtrBase@UIUnknown@@@ATL@@QEAAPEAUIUnknown@@XZ 0000000180011c50 f i CheckScanner.obj
 0001:00010c80       ?Detach@CComBSTR@ATL@@QEAAPEA_WXZ 0000000180011c80 f i CheckScanner.obj
 0001:00010cb0       ?Detach@CParseBuffer@CRegParser@ATL@@QEAAPEA_WXZ 0000000180011cb0 f i CheckScanner.obj
 0001:00010d00       ?Detach@CRegKey@ATL@@QEAAPEAUHKEY__@@XZ 0000000180011d00 f i CheckScanner.obj
 0001:00010d50       ?DoEvent@COPOSCheckScanner@@IEAAXI_K_J@Z 0000000180011d50 f i CheckScanner.obj
 0001:00010e70       ?DoVerb@?$IOleObjectImpl@VCOPOSCheckScanner@@@ATL@@UEAAJJPEAUtagMSG@@PEAUIOleClientSite@@JPEAUHWND__@@PEBUtagRECT@@@Z 0000000180011e70 f i CheckScanner.obj
 0001:00011170       ?DoVerbDiscardUndo@?$IOleObjectImpl@VCOPOSCheckScanner@@@ATL@@QEAAJPEBUtagRECT@@PEAUHWND__@@@Z 0000000180012170 f i CheckScanner.obj
 0001:000111f0       ?DoVerbHide@?$IOleObjectImpl@VCOPOSCheckScanner@@@ATL@@QEAAJPEBUtagRECT@@PEAUHWND__@@@Z 00000001800121f0 f i CheckScanner.obj
 0001:000112c0       ?DoVerbInPlaceActivate@?$IOleObjectImpl@VCOPOSCheckScanner@@@ATL@@QEAAJPEBUtagRECT@@PEAUHWND__@@@Z 00000001800122c0 f i CheckScanner.obj
 0001:00011380       ?DoVerbOpen@?$IOleObjectImpl@VCOPOSCheckScanner@@@ATL@@QEAAJPEBUtagRECT@@PEAUHWND__@@@Z 0000000180012380 f i CheckScanner.obj
 0001:00011400       ?DoVerbPrimary@?$IOleObjectImpl@VCOPOSCheckScanner@@@ATL@@QEAAJPEBUtagRECT@@PEAUHWND__@@@Z 0000000180012400 f i CheckScanner.obj
 0001:00011540       ?DoVerbProperties@CComControlBase@ATL@@QEAAJPEBUtagRECT@@PEAUHWND__@@@Z 0000000180012540 f i CheckScanner.obj
 0001:000118f0       ?DoVerbShow@?$IOleObjectImpl@VCOPOSCheckScanner@@@ATL@@QEAAJPEBUtagRECT@@PEAUHWND__@@@Z 00000001800128f0 f i CheckScanner.obj
 0001:000119a0       ?DoVerbUIActivate@?$IOleObjectImpl@VCOPOSCheckScanner@@@ATL@@QEAAJPEBUtagRECT@@PEAUHWND__@@@Z 00000001800129a0 f i CheckScanner.obj
 0001:00011a60       ?DoesVerbActivate@CComControlBase@ATL@@QEAAHJ@Z 0000000180012a60 f i CheckScanner.obj
 0001:00011ab0       ?DoesVerbUIActivate@CComControlBase@ATL@@QEAAHJ@Z 0000000180012ab0 f i CheckScanner.obj
 0001:00011b20       ?Draw@?$IViewObjectExImpl@VCOPOSCheckScanner@@@ATL@@UEAAJKJPEAXPEAUtagDVTARGETDEVICE@@PEAUHDC__@@2PEBU_RECTL@@3P6AH_K@Z4@Z 0000000180012b20 f i CheckScanner.obj
 0001:00011c30       ?Empty@CComBSTR@ATL@@QEAAXXZ 0000000180012c30 f i CheckScanner.obj
 0001:00011c60       ?EnableModeless@?$IOleInPlaceActiveObjectImpl@VCOPOSCheckScanner@@@ATL@@UEAAJH@Z 0000000180012c60 f i CheckScanner.obj
 0001:00011cc0       ?EndOfVar@CRegParser@ATL@@IEAAHXZ 0000000180012cc0 f i CheckScanner.obj
 0001:00011d10       ?EnsureTI@CComTypeInfoHolder@ATL@@QEAAJK@Z 0000000180012d10 f i CheckScanner.obj
 0001:00011d60       ?EnumAdvise@?$IOleObjectImpl@VCOPOSCheckScanner@@@ATL@@UEAAJPEAPEAUIEnumSTATDATA@@@Z 0000000180012d60 f i CheckScanner.obj
 0001:00011eb0       ?EnumConnectionPoints@?$IConnectionPointContainerImpl@VCOPOSCheckScanner@@@ATL@@UEAAJPEAPEAUIEnumConnectionPoints@@@Z 0000000180012eb0 f i CheckScanner.obj
 0001:000123a0       ?EnumConnections@?$IConnectionPointImpl@VCOPOSCheckScanner@@$1?DIID__IOPOSCheckScannerEvents@@3U_GUID@@BVCComDynamicUnkArray@ATL@@@ATL@@UEAAJPEAPEAUIEnumConnections@@@Z 00000001800133a0 f i CheckScanner.obj
 0001:000126d0       ?EnumConnections@?$IConnectionPointImpl@VCOPOSCheckScanner@@$1?IID_IPropertyNotifySink@@3U_GUID@@BVCComDynamicUnkArray@ATL@@@ATL@@UEAAJPEAPEAUIEnumConnections@@@Z 00000001800136d0 f i CheckScanner.obj
 0001:00012a00       ?EnumDAdvise@?$IDataObjectImpl@VCOPOSCheckScanner@@@ATL@@UEAAJPEAPEAUIEnumSTATDATA@@@Z 0000000180013a00 f i CheckScanner.obj
 0001:00012b30       ?EnumFormatEtc@?$IDataObjectImpl@VCOPOSCheckScanner@@@ATL@@UEAAJKPEAPEAUIEnumFORMATETC@@@Z 0000000180013b30 f i CheckScanner.obj
 0001:00012bb0       ?EnumVerbs@?$IOleObjectImpl@VCOPOSCheckScanner@@@ATL@@UEAAJPEAPEAUIEnumOLEVERB@@@Z 0000000180013bb0 f i CheckScanner.obj
 0001:00012c70       ?EscapeSingleQuote@CAtlModule@ATL@@SAXPEA_W_KPEB_W@Z 0000000180013c70 f i CheckScanner.obj
 0001:00012d50       ?ExtractCreateWndData@CAtlWinModule@ATL@@QEAAPEAXXZ 0000000180013d50 f i CheckScanner.obj
 0001:00012d70       ?FAccessAllowed@?$IObjectSafetyImpl@VCOPOSCheckScanner@@$02@ATL@@MEAAHXZ 0000000180013d70 f i CheckScanner.obj
 0001:00012d80       ?FinalConstruct@?$CComAggObject@VCOPOSCheckScanner@@@ATL@@QEAAJXZ 0000000180013d80 f i CheckScanner.obj
 0001:00012dc0       ?FinalConstruct@CComObjectRootBase@ATL@@QEAAJXZ 0000000180013dc0 f i CheckScanner.obj
 0001:00012dd0       ?FinalConstruct@CRegObject@ATL@@QEAAJXZ 0000000180013dd0 f i CheckScanner.obj
 0001:00012e00       ?FinalRelease@?$CComAggObject@VCOPOSCheckScanner@@@ATL@@QEAAXXZ 0000000180013e00 f i CheckScanner.obj
 0001:00012e40       ?FinalRelease@CComObjectRootBase@ATL@@QEAAXXZ 0000000180013e40 f i CheckScanner.obj
 0001:00012e50       ?FindConnectionPoint@?$IConnectionPointContainerImpl@VCOPOSCheckScanner@@@ATL@@UEAAJAEBU_GUID@@PEAPEAUIConnectionPoint@@@Z 0000000180013e50 f i CheckScanner.obj
 0001:00012fc0       ?FindKey@?$CSimpleMap@PEA_WPEA_WVCExpansionVectorEqualHelper@ATL@@@ATL@@QEBAHAEBQEA_W@Z 0000000180013fc0 f i CheckScanner.obj
 0001:00013030       ?FireTheEvent@?$CProxy_IOPOSEvents@VCOPOSCheckScanner@@@@IEAAXPEAUIUnknown@@PEAVOposVariant@@IAEAJPEB_WJ@Z 0000000180014030 f i CheckScanner.obj
 0001:00013210       ?FireViewChange@CComControlBase@ATL@@QEAAJXZ 0000000180014210 f i CheckScanner.obj
 0001:000132e0       ?Fire_DataEvent@?$CProxy_IOPOSEvents@VCOPOSCheckScanner@@@@QEAAXJ@Z 00000001800142e0 f i CheckScanner.obj
 0001:000134d0       ?Fire_DirectIOEvent@?$CProxy_IOPOSEvents@VCOPOSCheckScanner@@@@QEAAXJPEAJPEAPEA_W@Z 00000001800144d0 f i CheckScanner.obj
 0001:00013770       ?Fire_ErrorEvent@?$CProxy_IOPOSEvents@VCOPOSCheckScanner@@@@QEAAXJJJPEAJ@Z 0000000180014770 f i CheckScanner.obj
 0001:00013a20       ?Fire_StatusUpdateEvent@?$CProxy_IOPOSEvents@VCOPOSCheckScanner@@@@QEAAXJ@Z 0000000180014a20 f i CheckScanner.obj
 0001:00013c10       ?FormatWindowClassName@AtlModuleRegisterWndClassInfoParamW@ATL@@SAXPEA_WKPEAX@Z 0000000180014c10 f i CheckScanner.obj
 0001:00013c50       ?Free@?$CAutoVectorPtr@_W@ATL@@QEAAXXZ 0000000180014c50 f i CheckScanner.obj
 0001:00013c90       ?FreeHeap@?$CTempBuffer@E$0BAA@VCCRTAllocator@ATL@@@ATL@@AEAAXXZ 0000000180014c90 f i CheckScanner.obj
 0001:00013cb0       ?FreeHeap@?$CTempBuffer@_W$0BAA@VCCRTAllocator@ATL@@@ATL@@AEAAXXZ 0000000180014cb0 f i CheckScanner.obj
 0001:00013cd0       ?FreeHeap@?$CTempBuffer@_W$0EAA@VCCRTAllocator@ATL@@@ATL@@AEAAXXZ 0000000180014cd0 f i CheckScanner.obj
 0001:00013cf0       ?Freeze@?$IViewObjectExImpl@VCOPOSCheckScanner@@@ATL@@UEAAJKJPEAXPEAK@Z 0000000180014cf0 f i CheckScanner.obj
 0001:00013d70       ?GenerateError@CRegParser@ATL@@IEAAJI@Z 0000000180014d70 f i CheckScanner.obj
 0001:00013d90       ?GetAdvise@?$IViewObjectExImpl@VCOPOSCheckScanner@@@ATL@@UEAAJPEAK0PEAPEAUIAdviseSink@@@Z 0000000180014d90 f i CheckScanner.obj
 0001:00013ed0       ?GetAmbientLocaleID@CComControlBase@ATL@@QEAAJAEAK@Z 0000000180014ed0 f i CheckScanner.obj
 0001:00013fb0       ?GetAmbientProperty@CComControlBase@ATL@@QEAAJJAEAUtagVARIANT@@@Z 0000000180014fb0 f i CheckScanner.obj
 0001:00014000       ?GetAmbientUserMode@CComControlBase@ATL@@QEAAJAEAH@Z 0000000180015000 f i CheckScanner.obj
 0001:00014120       ?GetAppId@?$CAtlModuleT@VCComModule@ATL@@@ATL@@SAPEB_WXZ 0000000180015120 f i CheckScanner.obj
 0001:00014130       ?GetAt@CComDynamicUnkArray@ATL@@QEAAPEAUIUnknown@@H@Z 0000000180015130 f i CheckScanner.obj
 0001:000141c0       ?GetCanonicalFormatEtc@?$IDataObjectImpl@VCOPOSCheckScanner@@@ATL@@UEAAJPEAUtagFORMATETC@@0@Z 00000001800151c0 f i CheckScanner.obj
 0001:00014240       ?GetClassID@?$IPersistStorageImpl@VCOPOSCheckScanner@@@ATL@@UEAAJPEAU_GUID@@@Z 0000000180015240 f i CheckScanner.obj
 0001:000142c0       ?GetClassID@?$IPersistStreamInitImpl@VCOPOSCheckScanner@@@ATL@@UEAAJPEAU_GUID@@@Z 00000001800152c0 f i CheckScanner.obj
 0001:00014340       ?GetClassInfoExW@AtlModuleRegisterWndClassInfoParamW@ATL@@SAHPEAUHINSTANCE__@@PEB_WPEAUtagWNDCLASSEXW@@@Z 0000000180015340 f i CheckScanner.obj
 0001:00014370       ?GetClassInfoW@?$IProvideClassInfo2Impl@$1?CLSID_OPOSCheckScanner@@3U_GUID@@B$1?DIID__IOPOSCheckScannerEvents@@3U2@B$1?LIBID_OposCheckScanner_CCO@@3U2@B$00$0A@VCComTypeInfoHolder@ATL@@@ATL@@UEAAJPEAPEAUITypeInfo@@@Z 0000000180015370 f i CheckScanner.obj
 0001:000143a0       ?GetClassObject@CComModule@ATL@@QEAAJAEBU_GUID@@0PEAPEAX@Z 00000001800153a0 f i CheckScanner.obj
 0001:00014610       ?GetClientSite@?$IOleObjectImpl@VCOPOSCheckScanner@@@ATL@@UEAAJPEAPEAUIOleClientSite@@@Z 0000000180015610 f i CheckScanner.obj
 0001:000146b0       ?GetClipboardData@?$IOleObjectImpl@VCOPOSCheckScanner@@@ATL@@UEAAJKPEAPEAUIDataObject@@@Z 00000001800156b0 f i CheckScanner.obj
 0001:00014730       ?GetCodeAddress@CDynamicStdCallThunk2@ATL@@QEAAPEAXXZ 0000000180015730 f i CheckScanner.obj
 0001:00014750       ?GetColorSet@?$IViewObjectExImpl@VCOPOSCheckScanner@@@ATL@@UEAAJKJPEAXPEAUtagDVTARGETDEVICE@@PEAUHDC__@@PEAPEAUtagLOGPALETTE@@@Z 0000000180015750 f i CheckScanner.obj
 0001:000147d0       ?GetConnMap@COPOSCheckScanner@@SAPEBU_ATL_CONNMAP_ENTRY@ATL@@PEAH@Z 00000001800157d0 f i CheckScanner.obj
 0001:00014920       ?GetConnectionInterface@?$IConnectionPointImpl@VCOPOSCheckScanner@@$1?DIID__IOPOSCheckScannerEvents@@3U_GUID@@BVCComDynamicUnkArray@ATL@@@ATL@@UEAAJPEAU_GUID@@@Z 0000000180015920 f i CheckScanner.obj
 0001:00014960       ?GetConnectionInterface@?$IConnectionPointImpl@VCOPOSCheckScanner@@$1?IID_IPropertyNotifySink@@3U_GUID@@BVCComDynamicUnkArray@ATL@@@ATL@@UEAAJPEAU_GUID@@@Z 0000000180015960 f i CheckScanner.obj
 0001:000149a0       ?GetConnectionPointContainer@?$IConnectionPointImpl@VCOPOSCheckScanner@@$1?DIID__IOPOSCheckScannerEvents@@3U_GUID@@BVCComDynamicUnkArray@ATL@@@ATL@@UEAAJPEAPEAUIConnectionPointContainer@@@Z 00000001800159a0 f i CheckScanner.obj
 0001:00014a00       ?GetConnectionPointContainer@?$IConnectionPointImpl@VCOPOSCheckScanner@@$1?IID_IPropertyNotifySink@@3U_GUID@@BVCComDynamicUnkArray@ATL@@@ATL@@UEAAJPEAPEAUIConnectionPointContainer@@@Z 0000000180015a00 f i CheckScanner.obj
 0001:00014a60       ?GetContentExtent@?$IQuickActivateImpl@VCOPOSCheckScanner@@@ATL@@UEAAJPEAUtagSIZE@@@Z 0000000180015a60 f i CheckScanner.obj
 0001:00014b10       ?GetControlInfo@?$IOleControlImpl@VCOPOSCheckScanner@@@ATL@@UEAAJPEAUtagCONTROLINFO@@@Z 0000000180015b10 f i CheckScanner.obj
 0001:00014b80       ?GetCookie@CComDynamicUnkArray@ATL@@QEAAKPEAPEAUIUnknown@@@Z 0000000180015b80 f i CheckScanner.obj
 0001:00014c60       ?GetData@?$IDataObjectImpl@VCOPOSCheckScanner@@@ATL@@UEAAJPEAUtagFORMATETC@@PEAUtagSTGMEDIUM@@@Z 0000000180015c60 f i CheckScanner.obj
 0001:00014d10       ?GetData@CAtlSafeAllocBufferNode@?$CAtlSafeAllocBufferManager@VCCRTAllocator@ATL@@@_ATL_SAFE_ALLOCA_IMPL@ATL@@QEAAPEAXXZ 0000000180015d10 f i CheckScanner.obj
 0001:00014d30       ?GetDataHere@?$IDataObjectImpl@VCOPOSCheckScanner@@@ATL@@UEAAJPEAUtagFORMATETC@@PEAUtagSTGMEDIUM@@@Z 0000000180015d30 f i CheckScanner.obj
 0001:00014db0       ?GetDropTarget@?$IOleInPlaceObjectWindowlessImpl@VCOPOSCheckScanner@@@ATL@@UEAAJPEAPEAUIDropTarget@@@Z 0000000180015db0 f i CheckScanner.obj
 0001:00014e20       ?GetExtent@?$IOleObjectImpl@VCOPOSCheckScanner@@@ATL@@UEAAJKPEAUtagSIZE@@@Z 0000000180015e20 f i CheckScanner.obj
 0001:00014ee0       ?GetExtent@?$IViewObjectExImpl@VCOPOSCheckScanner@@@ATL@@UEAAJKJPEAUtagDVTARGETDEVICE@@PEAUtagSIZE@@@Z 0000000180015ee0 f i CheckScanner.obj
 0001:00014fe0       ?GetGITPtr@CAtlModule@ATL@@UEAAJPEAPEAUIGlobalInterfaceTable@@@Z 0000000180015fe0 f i CheckScanner.obj
 0001:00015110       ?GetGUID@?$IProvideClassInfo2Impl@$1?CLSID_OPOSCheckScanner@@3U_GUID@@B$1?DIID__IOPOSCheckScannerEvents@@3U2@B$1?LIBID_OposCheckScanner_CCO@@3U2@B$00$0A@VCComTypeInfoHolder@ATL@@@ATL@@UEAAJKPEAU_GUID@@@Z 0000000180016110 f i CheckScanner.obj
 0001:00015190       ?GetIDsOfNames@?$IDispatchImpl@UIOPOSCheckScanner@@$1?IID_IOPOSCheckScanner@@3U_GUID@@B$1?LIBID_OposCheckScanner_CCO@@3U3@B$00$0A@VCComTypeInfoHolder@ATL@@@ATL@@UEAAJAEBU_GUID@@PEAPEA_WIKPEAJ@Z 0000000180016190 f i CheckScanner.obj
 0001:000151e0       ?GetIDsOfNames@CComTypeInfoHolder@ATL@@QEAAJAEBU_GUID@@PEAPEA_WIKPEAJ@Z 00000001800161e0 f i CheckScanner.obj
 0001:000153f0       ?GetInterfaceSafetyOptions@?$IObjectSafetyImpl@VCOPOSCheckScanner@@$02@ATL@@UEAAJAEBU_GUID@@PEAK1@Z 00000001800163f0 f i CheckScanner.obj
 0001:00015590       ?GetKeyAt@?$CSimpleMap@PEA_WPEA_WVCExpansionVectorEqualHelper@ATL@@@ATL@@QEBAAEAPEA_WH@Z 0000000180016590 f i CheckScanner.obj
 0001:00015630       ?GetLockCount@CAtlModule@ATL@@UEAAJXZ 0000000180016630 f i CheckScanner.obj
 0001:00015640       ?GetMiscStatus@?$IOleObjectImpl@VCOPOSCheckScanner@@@ATL@@UEAAJKPEAK@Z 0000000180016640 f i CheckScanner.obj
 0001:000156c0       ?GetMoniker@?$IOleObjectImpl@VCOPOSCheckScanner@@@ATL@@UEAAJKKPEAPEAUIMoniker@@@Z 00000001800166c0 f i CheckScanner.obj
 0001:00015740       ?GetNaturalExtent@?$IViewObjectExImpl@VCOPOSCheckScanner@@@ATL@@UEAAJKJPEAUtagDVTARGETDEVICE@@PEAUHDC__@@PEAUtagExtentInfo@@PEAUtagSIZE@@@Z 0000000180016740 f i CheckScanner.obj
 0001:000158c0       ?GetObjectCLSID@?$CComCoClass@VCOPOSCheckScanner@@$1?CLSID_OPOSCheckScanner@@3U_GUID@@B@ATL@@SAAEBU_GUID@@XZ 00000001800168c0 f i CheckScanner.obj
 0001:000158d0       ?GetPages@?$ISpecifyPropertyPagesImpl@VCOPOSCheckScanner@@@ATL@@UEAAJPEAUtagCAUUID@@@Z 00000001800168d0 f i CheckScanner.obj
 0001:00015950       ?GetPagesHelper@?$ISpecifyPropertyPagesImpl@VCOPOSCheckScanner@@@ATL@@IEAAJPEAUtagCAUUID@@PEBUATL_PROPMAP_ENTRY@2@@Z 0000000180016950 f i CheckScanner.obj
 0001:00015bb0       ?GetProperty@?$CComPtr@UIDispatch@@@ATL@@QEAAJJPEAUtagVARIANT@@@Z 0000000180016bb0 f i CheckScanner.obj
 0001:00015be0       ?GetProperty@?$CComPtr@UIDispatch@@@ATL@@SAJPEAUIDispatch@@JPEAUtagVARIANT@@@Z 0000000180016be0 f i CheckScanner.obj
 0001:00015db0       ?GetPropertyMap@COPOSCheckScanner@@SAPEBUATL_PROPMAP_ENTRY@ATL@@XZ 0000000180016db0 f i CheckScanner.obj
 0001:00015dc0       ?GetRect@?$IViewObjectExImpl@VCOPOSCheckScanner@@@ATL@@UEAAJKPEAU_RECTL@@@Z 0000000180016dc0 f i CheckScanner.obj
 0001:00015e40       ?GetSize@?$CSimpleMap@PEA_WPEA_WVCExpansionVectorEqualHelper@ATL@@@ATL@@QEBAHXZ 0000000180016e40 f i CheckScanner.obj
 0001:00015e50       ?GetSize@CComDynamicUnkArray@ATL@@QEBAHXZ 0000000180016e50 f i CheckScanner.obj
 0001:00015e60       ?GetSizeMax@?$IPersistStreamInitImpl@VCOPOSCheckScanner@@@ATL@@UEAAJPEAT_ULARGE_INTEGER@@@Z 0000000180016e60 f i CheckScanner.obj
 0001:00016600       ?GetSizeMax@CComVariant@ATL@@QEBAJPEAT_ULARGE_INTEGER@@@Z 0000000180017600 f i CheckScanner.obj
 0001:00016a50       ?GetStreamSize@CComBSTR@ATL@@SAKPEA_W@Z 0000000180017a50 f i CheckScanner.obj
 0001:00016a90       ?GetTI@CComTypeInfoHolder@ATL@@QEAAJK@Z 0000000180017a90 f i CheckScanner.obj
 0001:00017360       ?GetTI@CComTypeInfoHolder@ATL@@QEAAJKPEAPEAUITypeInfo@@@Z 0000000180018360 f i CheckScanner.obj
 0001:00017440       ?GetTypeInfo@?$IDispatchImpl@UIOPOSCheckScanner@@$1?IID_IOPOSCheckScanner@@3U_GUID@@B$1?LIBID_OposCheckScanner_CCO@@3U3@B$00$0A@VCComTypeInfoHolder@ATL@@@ATL@@UEAAJIKPEAPEAUITypeInfo@@@Z 0000000180018440 f i CheckScanner.obj
 0001:00017480       ?GetTypeInfo@CComTypeInfoHolder@ATL@@QEAAJIKPEAPEAUITypeInfo@@@Z 0000000180018480 f i CheckScanner.obj
 0001:000174c0       ?GetTypeInfoCount@?$IDispatchImpl@UIOPOSCheckScanner@@$1?IID_IOPOSCheckScanner@@3U_GUID@@B$1?LIBID_OposCheckScanner_CCO@@3U3@B$00$0A@VCComTypeInfoHolder@ATL@@@ATL@@UEAAJPEAI@Z 00000001800184c0 f i CheckScanner.obj
 0001:000174f0       ?GetUnknown@CComDynamicUnkArray@ATL@@QEAAPEAUIUnknown@@K@Z 00000001800184f0 f i CheckScanner.obj
 0001:00017580       ?GetUnknown@COPOSCheckScanner@@QEAAPEAUIUnknown@@XZ 0000000180018580 f i CheckScanner.obj
 0001:000175a0       ?GetUserClassID@?$IOleObjectImpl@VCOPOSCheckScanner@@@ATL@@UEAAJPEAU_GUID@@@Z 00000001800185a0 f i CheckScanner.obj
 0001:00017660       ?GetUserType@?$IOleObjectImpl@VCOPOSCheckScanner@@@ATL@@UEAAJKPEAPEA_W@Z 0000000180018660 f i CheckScanner.obj
 0001:000176e0       ?GetValueAt@?$CSimpleMap@PEA_WPEA_WVCExpansionVectorEqualHelper@ATL@@@ATL@@QEBAAEAPEA_WH@Z 00000001800186e0 f i CheckScanner.obj
 0001:00017780       ?GetViewStatus@?$IViewObjectExImpl@VCOPOSCheckScanner@@@ATL@@UEAAJPEAK@Z 0000000180018780 f i CheckScanner.obj
 0001:00017870       ?GetWNDPROC@CWndProcThunk@ATL@@QEAAP6A_JPEAUHWND__@@I_K_J@ZXZ 0000000180018870 f i CheckScanner.obj
 0001:000178a0       ?GetWindow@?$IOleInPlaceActiveObjectImpl@VCOPOSCheckScanner@@@ATL@@UEAAJPEAPEAUHWND__@@@Z 00000001800188a0 f i CheckScanner.obj
 0001:00017990       ?GetWindow@?$IOleInPlaceObjectWindowlessImpl@VCOPOSCheckScanner@@@ATL@@UEAAJPEAPEAUHWND__@@@Z 0000000180018990 f i CheckScanner.obj
 0001:00017a80       ?GetWindowProc@?$CWindowImplBaseT@VCWindow@ATL@@V?$CWinTraits@$0FGAAAAAA@$0A@@2@@ATL@@UEAAP6A_JPEAUHWND__@@I_K_J@ZXZ 0000000180018a80 f i CheckScanner.obj
 0001:00017a90       ?GetWndCaption@?$CWindowImpl@VCOPOSCheckScanner@@VCWindow@ATL@@V?$CWinTraits@$0FGAAAAAA@$0A@@3@@ATL@@SAPEB_WXZ 0000000180018a90 f i CheckScanner.obj
 0001:00017aa0       ?GetWndClassInfo@?$CWindowImpl@VCOPOSCheckScanner@@VCWindow@ATL@@V?$CWinTraits@$0FGAAAAAA@$0A@@3@@ATL@@SAAEAU_ATL_WNDCLASSINFOW@2@XZ 0000000180018aa0 f i CheckScanner.obj
 0001:00017ab0       ?GetWndClassName@CWindow@ATL@@SAPEB_WXZ 0000000180018ab0 f i CheckScanner.obj
 0001:00017ac0       ?GetWndExStyle@?$CWinTraits@$0FGAAAAAA@$0A@@ATL@@SAKK@Z 0000000180018ac0 f i CheckScanner.obj
 0001:00017af0       ?GetWndExStyle@?$CWindowImplBaseT@VCWindow@ATL@@V?$CWinTraits@$0FGAAAAAA@$0A@@2@@ATL@@SAKK@Z 0000000180018af0 f i CheckScanner.obj
 0001:00017b10       ?GetWndStyle@?$CWinTraits@$0FGAAAAAA@$0A@@ATL@@SAKK@Z 0000000180018b10 f i CheckScanner.obj
 0001:00017b40       ?GetWndStyle@?$CWindowImplBaseT@VCWindow@ATL@@V?$CWinTraits@$0FGAAAAAA@$0A@@2@@ATL@@SAKK@Z 0000000180018b40 f i CheckScanner.obj
 0001:00017b60       ?GetZoomInfo@CComControlBase@ATL@@QEAAXAEAUATL_DRAWINFO@@@Z 0000000180018b60 f i CheckScanner.obj
 0001:00017d10       ?HKeyFromString@CRegParser@ATL@@KAPEAUHKEY__@@PEA_W@Z 0000000180018d10 f i CheckScanner.obj
 0001:00017d80       ?HandsOffStorage@?$IPersistStorageImpl@VCOPOSCheckScanner@@@ATL@@UEAAJXZ 0000000180018d80 f i CheckScanner.obj
 0001:00017de0       ?HasSubKeys@CRegParser@ATL@@IEAAHPEAUHKEY__@@@Z 0000000180018de0 f i CheckScanner.obj
 0001:00017f50       ?IDataObject_GetData@CComControlBase@ATL@@QEAAJPEAUtagFORMATETC@@PEAUtagSTGMEDIUM@@@Z 0000000180018f50 f i CheckScanner.obj
 0001:00018400       ?IOleInPlaceObject_InPlaceDeactivate@CComControlBase@ATL@@QEAAJXZ 0000000180019400 f i CheckScanner.obj
 0001:00018670       ?IOleInPlaceObject_SetObjectRects@CComControlBase@ATL@@QEAAJPEBUtagRECT@@0@Z 0000000180019670 f i CheckScanner.obj
 0001:00018860       ?IOleInPlaceObject_UIDeactivate@CComControlBase@ATL@@QEAAJXZ 0000000180019860 f i CheckScanner.obj
 0001:00018ad0       ?IOleObject_Advise@CComControlBase@ATL@@QEAAJPEAUIAdviseSink@@PEAK@Z 0000000180019ad0 f i CheckScanner.obj
 0001:00018b70       ?IOleObject_Close@CComControlBase@ATL@@QEAAJK@Z 0000000180019b70 f i CheckScanner.obj
 0001:00018ee0       ?IOleObject_GetClientSite@CComControlBase@ATL@@QEAAJPEAPEAUIOleClientSite@@@Z 0000000180019ee0 f i CheckScanner.obj
 0001:00018fa0       ?IOleObject_SetClientSite@CComControlBase@ATL@@QEAAJPEAUIOleClientSite@@@Z 0000000180019fa0 f i CheckScanner.obj
 0001:000190a0       ?IOleObject_SetExtent@CComControlBase@ATL@@QEAAJKPEAUtagSIZE@@@Z 000000018001a0a0 f i CheckScanner.obj
 0001:000191f0       ?IPSI_GetIPersistStreamInit@?$IPersistStorageImpl@VCOPOSCheckScanner@@@ATL@@AEAAPEAUIPersistStreamInit@@XZ 000000018001a1f0 f i CheckScanner.obj
 0001:000192b0       ?IPersistStreamInit_Load@?$IPersistStreamInitImpl@VCOPOSCheckScanner@@@ATL@@QEAAJPEAUIStream@@PEBUATL_PROPMAP_ENTRY@2@@Z 000000018001a2b0 f i CheckScanner.obj
 0001:00019340       ?IPersistStreamInit_Save@?$IPersistStreamInitImpl@VCOPOSCheckScanner@@@ATL@@QEAAJPEAUIStream@@HPEBUATL_PROPMAP_ENTRY@2@@Z 000000018001a340 f i CheckScanner.obj
 0001:000193e0       ?IQuickActivate_QuickActivate@CComControlBase@ATL@@QEAAJPEAUtagQACONTAINER@@PEAUtagQACONTROL@@@Z 000000018001a3e0 f i CheckScanner.obj
 0001:00019c20       ?IViewObject_Draw@CComControlBase@ATL@@QEAAJKJPEAXPEAUtagDVTARGETDEVICE@@PEAUHDC__@@2PEBU_RECTL@@3@Z 000000018001ac20 f i CheckScanner.obj
 0001:0001a070       ?InPlaceActivate@CComControlBase@ATL@@QEAAJJPEBUtagRECT@@@Z 000000018001b070 f i CheckScanner.obj
 0001:0001ac10       ?InPlaceDeactivate@?$IOleInPlaceObjectWindowlessImpl@VCOPOSCheckScanner@@@ATL@@UEAAJXZ 000000018001bc10 f i CheckScanner.obj
 0001:0001aca0       ?Increment@CComMultiThreadModel@ATL@@SAKPEAJ@Z 000000018001bca0 f i CheckScanner.obj
 0001:0001acc0       ?Increment@CComSingleThreadModel@ATL@@SAKPEAJ@Z 000000018001bcc0 f i CheckScanner.obj
 0001:0001ace0       ?Init@?$CComEnumImpl@UIEnumConnectionPoints@@$1?_GUID_b196b285_bab4_101a_b69c_00aa00341d07@@3U__s_GUID@@BPEAUIConnectionPoint@@V?$_CopyInterface@UIConnectionPoint@@@ATL@@@ATL@@QEAAJPEAPEAUIConnectionPoint@@0PEAUIUnknown@@W4CComEnumFlags@2@@Z 000000018001bce0 f i CheckScanner.obj
 0001:0001afc0       ?Init@?$CComEnumImpl@UIEnumConnections@@$1?_GUID_b196b287_bab4_101a_b69c_00aa00341d07@@3U__s_GUID@@BUtagCONNECTDATA@@V?$_Copy@UtagCONNECTDATA@@@ATL@@@ATL@@QEAAJPEAUtagCONNECTDATA@@0PEAUIUnknown@@W4CComEnumFlags@2@@Z 000000018001bfc0 f i CheckScanner.obj
 0001:0001b2a0       ?Init@CComFakeCriticalSection@ATL@@QEAAJXZ 000000018001c2a0 f i CheckScanner.obj
 0001:0001b2b0       ?Init@CComModule@ATL@@QEAAJPEAU_ATL_OBJMAP_ENTRY30@2@PEAUHINSTANCE__@@PEBU_GUID@@@Z 000000018001c2b0 f i CheckScanner.obj
 0001:0001b390       ?Init@CComSafeDeleteCriticalSection@ATL@@QEAAJXZ 000000018001c390 f i CheckScanner.obj
 0001:0001b410       ?Init@CDynamicStdCallThunk2@ATL@@QEAAH_KPEAX@Z 000000018001c410 f i CheckScanner.obj
 0001:0001b470       ?Init@CWndProcThunk@ATL@@QEAAHP6A_JPEAUHWND__@@I_K_J@ZPEAX@Z 000000018001c470 f i CheckScanner.obj
 0001:0001b4b0       ?InitFromData@?$IOleObjectImpl@VCOPOSCheckScanner@@@ATL@@UEAAJPEAUIDataObject@@HK@Z 000000018001c4b0 f i CheckScanner.obj
 0001:0001b530       ?InitLibId@?$CAtlModuleT@VCComModule@ATL@@@ATL@@SAXXZ 000000018001c530 f i CheckScanner.obj
 0001:0001b540       ?InitNew@?$IPersistStorageImpl@VCOPOSCheckScanner@@@ATL@@UEAAJPEAUIStorage@@@Z 000000018001c540 f i CheckScanner.obj
 0001:0001b630       ?InitNew@?$IPersistStreamInitImpl@VCOPOSCheckScanner@@@ATL@@UEAAJXZ 000000018001c630 f i CheckScanner.obj
 0001:0001b6d0       ?InlineIsEqualUnknown@ATL@@YAHAEBU_GUID@@@Z 000000018001c6d0 f i CheckScanner.obj
 0001:0001b750       ?InternalAddRef@?$CComObjectRootEx@VCComMultiThreadModel@ATL@@@ATL@@QEAAKXZ 000000018001c750 f i CheckScanner.obj
 0001:0001b7c0       ?InternalAddRef@?$CComObjectRootEx@VCComSingleThreadModel@ATL@@@ATL@@QEAAKXZ 000000018001c7c0 f i CheckScanner.obj
 0001:0001b830       ?InternalFinalConstructAddRef@CComObjectRootBase@ATL@@QEAAXXZ 000000018001c830 f i CheckScanner.obj
 0001:0001b840       ?InternalFinalConstructAddRef@COPOSCheckScanner@@QEAAXXZ 000000018001c840 f i CheckScanner.obj
 0001:0001b870       ?InternalFinalConstructRelease@CComObjectRootBase@ATL@@QEAAXXZ 000000018001c870 f i CheckScanner.obj
 0001:0001b8d0       ?InternalFinalConstructRelease@COPOSCheckScanner@@QEAAXXZ 000000018001c8d0 f i CheckScanner.obj
 0001:0001b900       ?InternalGetSite@CComControlBase@ATL@@QEAAJAEBU_GUID@@PEAPEAX@Z 000000018001c900 f i CheckScanner.obj
 0001:0001b9d0       ?InternalQueryInterface@CComObjectRootBase@ATL@@SAJPEAXPEBU_ATL_INTMAP_ENTRY@2@AEBU_GUID@@PEAPEAX@Z 000000018001c9d0 f i CheckScanner.obj
 0001:0001bae0       ?InternalRelease@?$CComObjectRootEx@VCComMultiThreadModel@ATL@@@ATL@@QEAAKXZ 000000018001cae0 f i CheckScanner.obj
 0001:0001bb50       ?InternalRelease@?$CComObjectRootEx@VCComSingleThreadModel@ATL@@@ATL@@QEAAKXZ 000000018001cb50 f i CheckScanner.obj
 0001:0001bbc0       ?InternalSetAtIndex@?$CSimpleArray@GV?$CSimpleArrayEqualHelper@G@ATL@@@ATL@@QEAAXHAEBG@Z 000000018001cbc0 f i CheckScanner.obj
 0001:0001bc30       ?InternalSetAtIndex@?$CSimpleMap@PEA_WPEA_WVCExpansionVectorEqualHelper@ATL@@@ATL@@QEAAXHAEBQEA_W0@Z 000000018001cc30 f i CheckScanner.obj
 0001:0001bcf0       ?Invoke@?$IDispatchImpl@UIOPOSCheckScanner@@$1?IID_IOPOSCheckScanner@@3U_GUID@@B$1?LIBID_OposCheckScanner_CCO@@3U3@B$00$0A@VCComTypeInfoHolder@ATL@@@ATL@@UEAAJJAEBU_GUID@@KGPEAUtagDISPPARAMS@@PEAUtagVARIANT@@PEAUtagEXCEPINFO@@PEAI@Z 000000018001ccf0 f i CheckScanner.obj
 0001:0001bd80       ?Invoke@CComTypeInfoHolder@ATL@@QEAAJPEAUIDispatch@@JAEBU_GUID@@KGPEAUtagDISPPARAMS@@PEAUtagVARIANT@@PEAUtagEXCEPINFO@@PEAI@Z 000000018001cd80 f i CheckScanner.obj
 0001:0001be30       ?IsDirty@?$IPersistStorageImpl@VCOPOSCheckScanner@@@ATL@@UEAAJXZ 000000018001ce30 f i CheckScanner.obj
 0001:0001bf20       ?IsDirty@?$IPersistStreamInitImpl@VCOPOSCheckScanner@@@ATL@@UEAAJXZ 000000018001cf20 f i CheckScanner.obj
 0001:0001bfd0       ?IsEqualKey@CExpansionVectorEqualHelper@ATL@@SA_NQEA_W0@Z 000000018001cfd0 f i CheckScanner.obj
 0001:0001c000       ?IsEqualObject@?$CComPtrBase@UIOleClientSite@@@ATL@@QEAA_NPEAUIUnknown@@@Z 000000018001d000 f i CheckScanner.obj
 0001:0001c150       ?IsEqualObject@?$CComPtrBase@UITypeInfo@@@ATL@@QEAA_NPEAUIUnknown@@@Z 000000018001d150 f i CheckScanner.obj
 0001:0001c2a0       ?IsSpace@CRegParser@ATL@@IEAAH_W@Z 000000018001d2a0 f i CheckScanner.obj
 0001:0001c2e0       ?IsUpToDate@?$IOleObjectImpl@VCOPOSCheckScanner@@@ATL@@UEAAJXZ 000000018001d2e0 f i CheckScanner.obj
 0001:0001c340       ?Length@CComBSTR@ATL@@QEBAIXZ 000000018001d340 f i CheckScanner.obj
 0001:0001c360       ?Load@?$IPersistStorageImpl@VCOPOSCheckScanner@@@ATL@@UEAAJPEAUIStorage@@@Z 000000018001d360 f i CheckScanner.obj
 0001:0001c510       ?Load@?$IPersistStreamInitImpl@VCOPOSCheckScanner@@@ATL@@UEAAJPEAUIStream@@@Z 000000018001d510 f i CheckScanner.obj
 0001:0001c5c0       ?LoadCursorW@AtlModuleRegisterWndClassInfoParamW@ATL@@SAPEAUHICON__@@PEAUHINSTANCE__@@PEB_W@Z 000000018001d5c0 f i CheckScanner.obj
 0001:0001c5f0       ?LoadNameCache@CComTypeInfoHolder@ATL@@QEAAJPEAUITypeInfo@@@Z 000000018001d5f0 f i CheckScanner.obj
 0001:0001c930       ?Lock@?$CComCritSecLock@VCComCriticalSection@ATL@@@ATL@@QEAAJXZ 000000018001d930 f i CheckScanner.obj
 0001:0001ca00       ?Lock@?$CComObjectRootEx@VCComSingleThreadModel@ATL@@@ATL@@QEAAXXZ 000000018001da00 f i CheckScanner.obj
 0001:0001ca10       ?Lock@CAtlModule@ATL@@UEAAJXZ 000000018001da10 f i CheckScanner.obj
 0001:0001ca40       ?Lock@CComCriticalSection@ATL@@QEAAJXZ 000000018001da40 f i CheckScanner.obj
 0001:0001ca60       ?Lock@CComFakeCriticalSection@ATL@@QEAAJXZ 000000018001da60 f i CheckScanner.obj
 0001:0001ca70       ?LockServer@CComClassFactory@ATL@@UEAAJH@Z 000000018001da70 f i CheckScanner.obj
 0001:0001cac0       ?Lookup@?$CSimpleMap@PEA_WPEA_WVCExpansionVectorEqualHelper@ATL@@@ATL@@QEBAPEA_WAEBQEA_W@Z 000000018001dac0 f i CheckScanner.obj
 0001:0001cb10       ?Next@?$CComEnumImpl@UIEnumConnectionPoints@@$1?_GUID_b196b285_bab4_101a_b69c_00aa00341d07@@3U__s_GUID@@BPEAUIConnectionPoint@@V?$_CopyInterface@UIConnectionPoint@@@ATL@@@ATL@@UEAAJKPEAPEAUIConnectionPoint@@PEAK@Z 000000018001db10 f i CheckScanner.obj
 0001:0001ccc0       ?Next@?$CComEnumImpl@UIEnumConnections@@$1?_GUID_b196b287_bab4_101a_b69c_00aa00341d07@@3U__s_GUID@@BUtagCONNECTDATA@@V?$_Copy@UtagCONNECTDATA@@@ATL@@@ATL@@UEAAJKPEAUtagCONNECTDATA@@PEAK@Z 000000018001dcc0 f i CheckScanner.obj
 0001:0001ce70       ?NextToken@CRegParser@ATL@@IEAAJPEA_W@Z 000000018001de70 f i CheckScanner.obj
 0001:0001d1f0       ?OLE2CT_EX@@YAPEB_WPEB_WI@Z 000000018001e1f0 f i CheckScanner.obj
 0001:0001d210       ?OLE2CT_EX_DEF@@YAPEB_WPEB_W@Z 000000018001e210 f i CheckScanner.obj
 0001:0001d220       ?OLE2T_EX@@YAPEA_WPEA_WI@Z 000000018001e220 f i CheckScanner.obj
 0001:0001d240       ?OnAmbientPropertyChange@?$IOleControlImpl@VCOPOSCheckScanner@@@ATL@@UEAAJJ@Z 000000018001e240 f i CheckScanner.obj
 0001:0001d2f0       ?OnDocWindowActivate@?$IOleInPlaceActiveObjectImpl@VCOPOSCheckScanner@@@ATL@@UEAAJH@Z 000000018001e2f0 f i CheckScanner.obj
 0001:0001d390       ?OnDrawAdvanced@CComControlBase@ATL@@UEAAJAEAUATL_DRAWINFO@@@Z 000000018001e390 f i CheckScanner.obj
 0001:0001d5e0       ?OnFinalMessage@?$CWindowImplBaseT@VCWindow@ATL@@V?$CWinTraits@$0FGAAAAAA@$0A@@2@@ATL@@UEAAXPEAUHWND__@@@Z 000000018001e5e0 f i CheckScanner.obj
 0001:0001d5f0       ?OnFrameWindowActivate@?$IOleInPlaceActiveObjectImpl@VCOPOSCheckScanner@@@ATL@@UEAAJH@Z 000000018001e5f0 f i CheckScanner.obj
 0001:0001d650       ?OnKillFocus@CComControlBase@ATL@@QEAA_JI_K_JAEAH@Z 000000018001e650 f i CheckScanner.obj
 0001:0001d750       ?OnMnemonic@?$IOleControlImpl@VCOPOSCheckScanner@@@ATL@@UEAAJPEAUtagMSG@@@Z 000000018001e750 f i CheckScanner.obj
 0001:0001d7c0       ?OnMouseActivate@CComControlBase@ATL@@QEAA_JI_K_JAEAH@Z 000000018001e7c0 f i CheckScanner.obj
 0001:0001d960       ?OnPaint@CComControlBase@ATL@@QEAA_JI_K_JAEAH@Z 000000018001e960 f i CheckScanner.obj
 0001:0001daf0       ?OnPostVerbDiscardUndo@?$IOleObjectImpl@VCOPOSCheckScanner@@@ATL@@QEAAJXZ 000000018001eaf0 f i CheckScanner.obj
 0001:0001db00       ?OnPostVerbHide@?$IOleObjectImpl@VCOPOSCheckScanner@@@ATL@@QEAAJXZ 000000018001eb00 f i CheckScanner.obj
 0001:0001db10       ?OnPostVerbInPlaceActivate@?$IOleObjectImpl@VCOPOSCheckScanner@@@ATL@@QEAAJXZ 000000018001eb10 f i CheckScanner.obj
 0001:0001db20       ?OnPostVerbOpen@?$IOleObjectImpl@VCOPOSCheckScanner@@@ATL@@QEAAJXZ 000000018001eb20 f i CheckScanner.obj
 0001:0001db30       ?OnPostVerbShow@?$IOleObjectImpl@VCOPOSCheckScanner@@@ATL@@QEAAJXZ 000000018001eb30 f i CheckScanner.obj
 0001:0001db40       ?OnPostVerbUIActivate@?$IOleObjectImpl@VCOPOSCheckScanner@@@ATL@@QEAAJXZ 000000018001eb40 f i CheckScanner.obj
 0001:0001db50       ?OnPreVerbDiscardUndo@?$IOleObjectImpl@VCOPOSCheckScanner@@@ATL@@QEAAJXZ 000000018001eb50 f i CheckScanner.obj
 0001:0001db60       ?OnPreVerbHide@?$IOleObjectImpl@VCOPOSCheckScanner@@@ATL@@QEAAJXZ 000000018001eb60 f i CheckScanner.obj
 0001:0001db70       ?OnPreVerbInPlaceActivate@?$IOleObjectImpl@VCOPOSCheckScanner@@@ATL@@QEAAJXZ 000000018001eb70 f i CheckScanner.obj
 0001:0001db80       ?OnPreVerbOpen@?$IOleObjectImpl@VCOPOSCheckScanner@@@ATL@@QEAAJXZ 000000018001eb80 f i CheckScanner.obj
 0001:0001db90       ?OnPreVerbShow@?$IOleObjectImpl@VCOPOSCheckScanner@@@ATL@@QEAAJXZ 000000018001eb90 f i CheckScanner.obj
 0001:0001dba0       ?OnPreVerbUIActivate@?$IOleObjectImpl@VCOPOSCheckScanner@@@ATL@@QEAAJXZ 000000018001eba0 f i CheckScanner.obj
 0001:0001dbb0       ?OnSetFocus@CComControlBase@ATL@@QEAA_JI_K_JAEAH@Z 000000018001ebb0 f i CheckScanner.obj
 0001:0001ddb0       ?OnWindowMessage@?$IOleInPlaceObjectWindowlessImpl@VCOPOSCheckScanner@@@ATL@@UEAAJI_K_JPEA_J@Z 000000018001edb0 f i CheckScanner.obj
 0001:0001dfd0       ?Open@CRegKey@ATL@@QEAAJPEAUHKEY__@@PEB_WK@Z 000000018001efd0 f i CheckScanner.obj
 0001:0001e150       ?OuterAddRef@CComObjectRootBase@ATL@@QEAAKXZ 000000018001f150 f i CheckScanner.obj
 0001:0001e180       ?OuterQueryInterface@CComObjectRootBase@ATL@@QEAAJAEBU_GUID@@PEAPEAX@Z 000000018001f180 f i CheckScanner.obj
 0001:0001e1c0       ?OuterRelease@CComObjectRootBase@ATL@@QEAAKXZ 000000018001f1c0 f i CheckScanner.obj
 0001:0001e1f0       ?PreProcessBuffer@CRegParser@ATL@@QEAAJPEA_WPEAPEA_W@Z 000000018001f1f0 f i CheckScanner.obj
 0001:0001e8d0       ?PreTranslateAccelerator@CComControlBase@ATL@@QEAAHPEAUtagMSG@@AEAJ@Z 000000018001f8d0 f i CheckScanner.obj
 0001:0001e8f0       ?ProcessWindowMessage@?$CComControl@VCOPOSCheckScanner@@V?$CWindowImpl@VCOPOSCheckScanner@@VCWindow@ATL@@V?$CWinTraits@$0FGAAAAAA@$0A@@3@@ATL@@@ATL@@UEAAHPEAUHWND__@@I_K_JAEA_JK@Z 000000018001f8f0 f i CheckScanner.obj
 0001:0001eb70       ?ProcessWindowMessage@COPOSCheckScanner@@UEAAHPEAUHWND__@@I_K_JAEA_JK@Z 000000018001fb70 f i CheckScanner.obj
 0001:0001ecd0       ?PutProperty@?$CComPtr@UIDispatch@@@ATL@@QEAAJJPEAUtagVARIANT@@@Z 000000018001fcd0 f i CheckScanner.obj
 0001:0001ed00       ?PutProperty@?$CComPtr@UIDispatch@@@ATL@@SAJPEAUIDispatch@@JPEAUtagVARIANT@@@Z 000000018001fd00 f i CheckScanner.obj
 0001:0001efb0       ?QueryGetData@?$IDataObjectImpl@VCOPOSCheckScanner@@@ATL@@UEAAJPEAUtagFORMATETC@@@Z 000000018001ffb0 f i CheckScanner.obj
 0001:0001f020       ?QueryHitPoint@?$IViewObjectExImpl@VCOPOSCheckScanner@@@ATL@@UEAAJKPEBUtagRECT@@UtagPOINT@@JPEAK@Z 0000000180020020 f i CheckScanner.obj
 0001:0001f180       ?QueryHitRect@?$IViewObjectExImpl@VCOPOSCheckScanner@@@ATL@@UEAAJKPEBUtagRECT@@0JPEAK@Z 0000000180020180 f i CheckScanner.obj
 0001:0001f350       ?QueryInterface@?$CComAggObject@VCOPOSCheckScanner@@@ATL@@UEAAJAEBU_GUID@@PEAPEAX@Z 0000000180020350 f i CheckScanner.obj
 0001:0001f420       ?QueryInterface@?$CComContainedObject@VCOPOSCheckScanner@@@ATL@@UEAAJAEBU_GUID@@PEAPEAX@Z 0000000180020420 f i CheckScanner.obj
 0001:0001f458       ?QueryInterface@?$CComContainedObject@VCOPOSCheckScanner@@@ATL@@WBAA@EAAJAEBU_GUID@@PEAPEAX@Z 0000000180020458 f i CheckScanner.obj
 0001:0001f464       ?QueryInterface@?$CComContainedObject@VCOPOSCheckScanner@@@ATL@@WBAI@EAAJAEBU_GUID@@PEAPEAX@Z 0000000180020464 f i CheckScanner.obj
 0001:0001f470       ?QueryInterface@?$CComContainedObject@VCOPOSCheckScanner@@@ATL@@WBBA@EAAJAEBU_GUID@@PEAPEAX@Z 0000000180020470 f i CheckScanner.obj
 0001:0001f47c       ?QueryInterface@?$CComContainedObject@VCOPOSCheckScanner@@@ATL@@WBBI@EAAJAEBU_GUID@@PEAPEAX@Z 000000018002047c f i CheckScanner.obj
 0001:0001f488       ?QueryInterface@?$CComContainedObject@VCOPOSCheckScanner@@@ATL@@WLI@EAAJAEBU_GUID@@PEAPEAX@Z 0000000180020488 f i CheckScanner.obj
 0001:0001f494       ?QueryInterface@?$CComContainedObject@VCOPOSCheckScanner@@@ATL@@WMA@EAAJAEBU_GUID@@PEAPEAX@Z 0000000180020494 f i CheckScanner.obj
 0001:0001f4a0       ?QueryInterface@?$CComContainedObject@VCOPOSCheckScanner@@@ATL@@WMI@EAAJAEBU_GUID@@PEAPEAX@Z 00000001800204a0 f i CheckScanner.obj
 0001:0001f4ac       ?QueryInterface@?$CComContainedObject@VCOPOSCheckScanner@@@ATL@@WNA@EAAJAEBU_GUID@@PEAPEAX@Z 00000001800204ac f i CheckScanner.obj
 0001:0001f4b8       ?QueryInterface@?$CComContainedObject@VCOPOSCheckScanner@@@ATL@@WNI@EAAJAEBU_GUID@@PEAPEAX@Z 00000001800204b8 f i CheckScanner.obj
 0001:0001f4c4       ?QueryInterface@?$CComContainedObject@VCOPOSCheckScanner@@@ATL@@WOA@EAAJAEBU_GUID@@PEAPEAX@Z 00000001800204c4 f i CheckScanner.obj
 0001:0001f4d0       ?QueryInterface@?$CComContainedObject@VCOPOSCheckScanner@@@ATL@@WOI@EAAJAEBU_GUID@@PEAPEAX@Z 00000001800204d0 f i CheckScanner.obj
 0001:0001f4dc       ?QueryInterface@?$CComContainedObject@VCOPOSCheckScanner@@@ATL@@WPA@EAAJAEBU_GUID@@PEAPEAX@Z 00000001800204dc f i CheckScanner.obj
 0001:0001f4e8       ?QueryInterface@?$CComContainedObject@VCOPOSCheckScanner@@@ATL@@WPI@EAAJAEBU_GUID@@PEAPEAX@Z 00000001800204e8 f i CheckScanner.obj
 0001:0001f500       ?QueryInterface@?$CComObject@V?$CComEnum@UIEnumConnectionPoints@@$1?_GUID_b196b285_bab4_101a_b69c_00aa00341d07@@3U__s_GUID@@BPEAUIConnectionPoint@@V?$_CopyInterface@UIConnectionPoint@@@ATL@@VCComSingleThreadModel@6@@ATL@@@ATL@@UEAAJAEBU_GUID@@PEAPEAX@Z 0000000180020500 f i CheckScanner.obj
 0001:0001f530       ?QueryInterface@?$CComObject@V?$CComEnum@UIEnumConnections@@$1?_GUID_b196b287_bab4_101a_b69c_00aa00341d07@@3U__s_GUID@@BUtagCONNECTDATA@@V?$_Copy@UtagCONNECTDATA@@@ATL@@VCComSingleThreadModel@6@@ATL@@@ATL@@UEAAJAEBU_GUID@@PEAPEAX@Z 0000000180020530 f i CheckScanner.obj
 0001:0001f560       ?QueryInterface@?$CComObject@VCOPOSCheckScanner@@@ATL@@UEAAJAEBU_GUID@@PEAPEAX@Z 0000000180020560 f i CheckScanner.obj
 0001:0001f590       ?QueryInterface@?$CComObject@VCOPOSCheckScanner@@@ATL@@WBAA@EAAJAEBU_GUID@@PEAPEAX@Z 0000000180020590 f i CheckScanner.obj
 0001:0001f59c       ?QueryInterface@?$CComObject@VCOPOSCheckScanner@@@ATL@@WBAI@EAAJAEBU_GUID@@PEAPEAX@Z 000000018002059c f i CheckScanner.obj
 0001:0001f5a8       ?QueryInterface@?$CComObject@VCOPOSCheckScanner@@@ATL@@WBBA@EAAJAEBU_GUID@@PEAPEAX@Z 00000001800205a8 f i CheckScanner.obj
 0001:0001f5b4       ?QueryInterface@?$CComObject@VCOPOSCheckScanner@@@ATL@@WBBI@EAAJAEBU_GUID@@PEAPEAX@Z 00000001800205b4 f i CheckScanner.obj
 0001:0001f5c0       ?QueryInterface@?$CComObject@VCOPOSCheckScanner@@@ATL@@WLI@EAAJAEBU_GUID@@PEAPEAX@Z 00000001800205c0 f i CheckScanner.obj
 0001:0001f5cc       ?QueryInterface@?$CComObject@VCOPOSCheckScanner@@@ATL@@WMA@EAAJAEBU_GUID@@PEAPEAX@Z 00000001800205cc f i CheckScanner.obj
 0001:0001f5d8       ?QueryInterface@?$CComObject@VCOPOSCheckScanner@@@ATL@@WMI@EAAJAEBU_GUID@@PEAPEAX@Z 00000001800205d8 f i CheckScanner.obj
 0001:0001f5e4       ?QueryInterface@?$CComObject@VCOPOSCheckScanner@@@ATL@@WNA@EAAJAEBU_GUID@@PEAPEAX@Z 00000001800205e4 f i CheckScanner.obj
 0001:0001f5f0       ?QueryInterface@?$CComObject@VCOPOSCheckScanner@@@ATL@@WNI@EAAJAEBU_GUID@@PEAPEAX@Z 00000001800205f0 f i CheckScanner.obj
 0001:0001f5fc       ?QueryInterface@?$CComObject@VCOPOSCheckScanner@@@ATL@@WOA@EAAJAEBU_GUID@@PEAPEAX@Z 00000001800205fc f i CheckScanner.obj
 0001:0001f608       ?QueryInterface@?$CComObject@VCOPOSCheckScanner@@@ATL@@WOI@EAAJAEBU_GUID@@PEAPEAX@Z 0000000180020608 f i CheckScanner.obj
 0001:0001f614       ?QueryInterface@?$CComObject@VCOPOSCheckScanner@@@ATL@@WPA@EAAJAEBU_GUID@@PEAPEAX@Z 0000000180020614 f i CheckScanner.obj
 0001:0001f620       ?QueryInterface@?$CComObject@VCOPOSCheckScanner@@@ATL@@WPI@EAAJAEBU_GUID@@PEAPEAX@Z 0000000180020620 f i CheckScanner.obj
 0001:0001f630       ?QueryInterface@?$CComObjectCached@VCComClassFactory@ATL@@@ATL@@UEAAJAEBU_GUID@@PEAPEAX@Z 0000000180020630 f i CheckScanner.obj
 0001:0001f660       ?QueryInterface@CRegObject@ATL@@UEAAJAEBU_GUID@@PEAPEAX@Z 0000000180020660 f i CheckScanner.obj
 0001:0001f6d0       ?QuickActivate@?$IQuickActivateImpl@VCOPOSCheckScanner@@@ATL@@UEAAJPEAUtagQACONTAINER@@PEAUtagQACONTROL@@@Z 00000001800206d0 f i CheckScanner.obj
 0001:0001f780       ?ReactivateAndUndo@?$IOleInPlaceObjectWindowlessImpl@VCOPOSCheckScanner@@@ATL@@UEAAJXZ 0000000180020780 f i CheckScanner.obj
 0001:0001f7f0       ?ReadFromStream@CComBSTR@ATL@@QEAAJPEAUIStream@@@Z 00000001800207f0 f i CheckScanner.obj
 0001:0001fcd0       ?ReadFromStream@CComVariant@ATL@@QEAAJPEAUIStream@@GTClassesAllowedInStream@2@K@Z 0000000180020cd0 f i CheckScanner.obj
 0001:00020110       ?RecurseDeleteKey@CRegKey@ATL@@QEAAJPEB_W@Z 0000000180021110 f i CheckScanner.obj
 0001:00020330       ?RegCreateKeyExW@CAtlTransactionManager@ATL@@QEAAJPEAUHKEY__@@PEB_WKPEA_WKKQEAU_SECURITY_ATTRIBUTES@@PEAPEAU3@PEAK@Z 0000000180021330 f i CheckScanner.obj
 0001:000204e0       ?RegDeleteKeyW@CAtlTransactionManager@ATL@@QEAAJPEAUHKEY__@@PEB_W@Z 00000001800214e0 f i CheckScanner.obj
 0001:000205e0       ?RegOpenKeyExW@CAtlTransactionManager@ATL@@QEAAJPEAUHKEY__@@PEB_WKKPEAPEAU3@@Z 00000001800215e0 f i CheckScanner.obj
 0001:00020720       ?Register@_ATL_WNDCLASSINFOW@ATL@@QEAAGPEAP6A_JPEAUHWND__@@I_K_J@Z@Z 0000000180021720 f i CheckScanner.obj
 0001:00020760       ?RegisterBuffer@CRegParser@ATL@@QEAAJPEA_WH@Z 0000000180021760 f i CheckScanner.obj
 0001:00020b50       ?RegisterClassExW@AtlModuleRegisterWndClassInfoParamW@ATL@@SAGPEAU_ATL_WIN_MODULE70@2@PEBUtagWNDCLASSEXW@@@Z 0000000180021b50 f i CheckScanner.obj
 0001:00020b80       ?RegisterFromResource@CRegObject@ATL@@IEAAJPEB_W00H@Z 0000000180021b80 f i CheckScanner.obj
 0001:00020fe0       ?RegisterServer@?$CAtlModuleT@VCComModule@ATL@@@ATL@@QEAAJHPEBU_GUID@@@Z 0000000180021fe0 f i CheckScanner.obj
 0001:00021040       ?RegisterServer@CAtlComModule@ATL@@QEAAJHPEBU_GUID@@@Z 0000000180022040 f i CheckScanner.obj
 0001:00021070       ?RegisterServer@CComModule@ATL@@QEAAJHPEBU_GUID@@@Z 0000000180022070 f i CheckScanner.obj
 0001:00021150       ?RegisterSubkeys@CRegParser@ATL@@IEAAJPEA_WPEAUHKEY__@@HH@Z 0000000180022150 f i CheckScanner.obj
 0001:00021f30       ?Release@?$CComAggObject@VCOPOSCheckScanner@@@ATL@@UEAAKXZ 0000000180022f30 f i CheckScanner.obj
 0001:00021fe0       ?Release@?$CComContainedObject@VCOPOSCheckScanner@@@ATL@@UEAAKXZ 0000000180022fe0 f i CheckScanner.obj
 0001:00022004       ?Release@?$CComContainedObject@VCOPOSCheckScanner@@@ATL@@WBAA@EAAKXZ 0000000180023004 f i CheckScanner.obj
 0001:00022010       ?Release@?$CComContainedObject@VCOPOSCheckScanner@@@ATL@@WBAI@EAAKXZ 0000000180023010 f i CheckScanner.obj
 0001:0002201c       ?Release@?$CComContainedObject@VCOPOSCheckScanner@@@ATL@@WBBA@EAAKXZ 000000018002301c f i CheckScanner.obj
 0001:00022028       ?Release@?$CComContainedObject@VCOPOSCheckScanner@@@ATL@@WBBI@EAAKXZ 0000000180023028 f i CheckScanner.obj
 0001:00022034       ?Release@?$CComContainedObject@VCOPOSCheckScanner@@@ATL@@WBCI@EAAKXZ 0000000180023034 f i CheckScanner.obj
 0001:00022040       ?Release@?$CComContainedObject@VCOPOSCheckScanner@@@ATL@@WBEA@EAAKXZ 0000000180023040 f i CheckScanner.obj
 0001:0002204c       ?Release@?$CComContainedObject@VCOPOSCheckScanner@@@ATL@@WLI@EAAKXZ 000000018002304c f i CheckScanner.obj
 0001:00022058       ?Release@?$CComContainedObject@VCOPOSCheckScanner@@@ATL@@WMA@EAAKXZ 0000000180023058 f i CheckScanner.obj
 0001:00022064       ?Release@?$CComContainedObject@VCOPOSCheckScanner@@@ATL@@WMI@EAAKXZ 0000000180023064 f i CheckScanner.obj
 0001:00022070       ?Release@?$CComContainedObject@VCOPOSCheckScanner@@@ATL@@WNA@EAAKXZ 0000000180023070 f i CheckScanner.obj
 0001:0002207c       ?Release@?$CComContainedObject@VCOPOSCheckScanner@@@ATL@@WNI@EAAKXZ 000000018002307c f i CheckScanner.obj
 0001:00022088       ?Release@?$CComContainedObject@VCOPOSCheckScanner@@@ATL@@WOA@EAAKXZ 0000000180023088 f i CheckScanner.obj
 0001:00022094       ?Release@?$CComContainedObject@VCOPOSCheckScanner@@@ATL@@WOI@EAAKXZ 0000000180023094 f i CheckScanner.obj
 0001:000220a0       ?Release@?$CComContainedObject@VCOPOSCheckScanner@@@ATL@@WPA@EAAKXZ 00000001800230a0 f i CheckScanner.obj
 0001:000220ac       ?Release@?$CComContainedObject@VCOPOSCheckScanner@@@ATL@@WPI@EAAKXZ 00000001800230ac f i CheckScanner.obj
 0001:000220c0       ?Release@?$CComObject@V?$CComEnum@UIEnumConnectionPoints@@$1?_GUID_b196b285_bab4_101a_b69c_00aa00341d07@@3U__s_GUID@@BPEAUIConnectionPoint@@V?$_CopyInterface@UIConnectionPoint@@@ATL@@VCComSingleThreadModel@6@@ATL@@@ATL@@UEAAKXZ 00000001800230c0 f i CheckScanner.obj
 0001:00022170       ?Release@?$CComObject@V?$CComEnum@UIEnumConnections@@$1?_GUID_b196b287_bab4_101a_b69c_00aa00341d07@@3U__s_GUID@@BUtagCONNECTDATA@@V?$_Copy@UtagCONNECTDATA@@@ATL@@VCComSingleThreadModel@6@@ATL@@@ATL@@UEAAKXZ 0000000180023170 f i CheckScanner.obj
 0001:00022220       ?Release@?$CComObject@VCOPOSCheckScanner@@@ATL@@UEAAKXZ 0000000180023220 f i CheckScanner.obj
 0001:000222d8       ?Release@?$CComObject@VCOPOSCheckScanner@@@ATL@@WBAA@EAAKXZ 00000001800232d8 f i CheckScanner.obj
 0001:000222e4       ?Release@?$CComObject@VCOPOSCheckScanner@@@ATL@@WBAI@EAAKXZ 00000001800232e4 f i CheckScanner.obj
 0001:000222f0       ?Release@?$CComObject@VCOPOSCheckScanner@@@ATL@@WBBA@EAAKXZ 00000001800232f0 f i CheckScanner.obj
 0001:000222fc       ?Release@?$CComObject@VCOPOSCheckScanner@@@ATL@@WBBI@EAAKXZ 00000001800232fc f i CheckScanner.obj
 0001:00022308       ?Release@?$CComObject@VCOPOSCheckScanner@@@ATL@@WBCI@EAAKXZ 0000000180023308 f i CheckScanner.obj
 0001:00022314       ?Release@?$CComObject@VCOPOSCheckScanner@@@ATL@@WBEA@EAAKXZ 0000000180023314 f i CheckScanner.obj
 0001:00022320       ?Release@?$CComObject@VCOPOSCheckScanner@@@ATL@@WLI@EAAKXZ 0000000180023320 f i CheckScanner.obj
 0001:0002232c       ?Release@?$CComObject@VCOPOSCheckScanner@@@ATL@@WMA@EAAKXZ 000000018002332c f i CheckScanner.obj
 0001:00022338       ?Release@?$CComObject@VCOPOSCheckScanner@@@ATL@@WMI@EAAKXZ 0000000180023338 f i CheckScanner.obj
 0001:00022344       ?Release@?$CComObject@VCOPOSCheckScanner@@@ATL@@WNA@EAAKXZ 0000000180023344 f i CheckScanner.obj
 0001:00022350       ?Release@?$CComObject@VCOPOSCheckScanner@@@ATL@@WNI@EAAKXZ 0000000180023350 f i CheckScanner.obj
 0001:0002235c       ?Release@?$CComObject@VCOPOSCheckScanner@@@ATL@@WOA@EAAKXZ 000000018002335c f i CheckScanner.obj
 0001:00022368       ?Release@?$CComObject@VCOPOSCheckScanner@@@ATL@@WOI@EAAKXZ 0000000180023368 f i CheckScanner.obj
 0001:00022374       ?Release@?$CComObject@VCOPOSCheckScanner@@@ATL@@WPA@EAAKXZ 0000000180023374 f i CheckScanner.obj
 0001:00022380       ?Release@?$CComObject@VCOPOSCheckScanner@@@ATL@@WPI@EAAKXZ 0000000180023380 f i CheckScanner.obj
 0001:00022390       ?Release@?$CComObjectCached@VCComClassFactory@ATL@@@ATL@@UEAAKXZ 0000000180023390 f i CheckScanner.obj
 0001:00022420       ?Release@?$CComPtrBase@UIAdviseSink@@@ATL@@QEAAXXZ 0000000180023420 f i CheckScanner.obj
 0001:00022470       ?Release@?$CComPtrBase@UIDispatch@@@ATL@@QEAAXXZ 0000000180023470 f i CheckScanner.obj
 0001:000224c0       ?Release@?$CComPtrBase@UIOleInPlaceSiteWindowless@@@ATL@@QEAAXXZ 00000001800234c0 f i CheckScanner.obj
 0001:00022510       ?Release@CRegObject@ATL@@UEAAKXZ 0000000180023510 f i CheckScanner.obj
 0001:00022570       ?Remove@CComDynamicUnkArray@ATL@@QEAAHK@Z 0000000180023570 f i CheckScanner.obj
 0001:00022630       ?RemoveAll@?$CSimpleMap@PEA_WPEA_WVCExpansionVectorEqualHelper@ATL@@@ATL@@QEAAXXZ 0000000180023630 f i CheckScanner.obj
 0001:000226c0       ?Reset@?$CComEnumImpl@UIEnumConnectionPoints@@$1?_GUID_b196b285_bab4_101a_b69c_00aa00341d07@@3U__s_GUID@@BPEAUIConnectionPoint@@V?$_CopyInterface@UIConnectionPoint@@@ATL@@@ATL@@UEAAJXZ 00000001800236c0 f i CheckScanner.obj
 0001:000226e0       ?Reset@?$CComEnumImpl@UIEnumConnections@@$1?_GUID_b196b287_bab4_101a_b69c_00aa00341d07@@3U__s_GUID@@BUtagCONNECTDATA@@V?$_Copy@UtagCONNECTDATA@@@ATL@@@ATL@@UEAAJXZ 00000001800236e0 f i CheckScanner.obj
 0001:00022700       ?ResizeBorder@?$IOleInPlaceActiveObjectImpl@VCOPOSCheckScanner@@@ATL@@UEAAJPEBUtagRECT@@PEAUIOleInPlaceUIWindow@@H@Z 0000000180023700 f i CheckScanner.obj
 0001:00022770       ?ResourceRegister@CRegObject@ATL@@QEAAJPEB_WI0@Z 0000000180023770 f i CheckScanner.obj
 0001:00022850       ?ResourceRegisterSz@CRegObject@ATL@@QEAAJPEB_W00@Z 0000000180023850 f i CheckScanner.obj
 0001:00022970       ?ResourceUnregister@CRegObject@ATL@@QEAAJPEB_WI0@Z 0000000180023970 f i CheckScanner.obj
 0001:00022a50       ?ResourceUnregisterSz@CRegObject@ATL@@QEAAJPEB_W00@Z 0000000180023a50 f i CheckScanner.obj
 0001:00022b70       ?SOData@COPOSCheckScanner@@MEAAJJ@Z 0000000180023b70 f i CheckScanner.obj
 0001:00022c00       ?SODirectIO@COPOSCheckScanner@@MEAAJJPEAJPEAPEA_W@Z 0000000180023c00 f i CheckScanner.obj
 0001:00022e40       ?SOError@COPOSCheckScanner@@MEAAJJJJPEAJ@Z 0000000180023e40 f i CheckScanner.obj
 0001:00022f30       ?SOOutputCompleteDummy@COPOSCheckScanner@@MEAAJJ@Z 0000000180023f30 f i CheckScanner.obj
 0001:00022f50       ?SOStatusUpdate@COPOSCheckScanner@@MEAAJJ@Z 0000000180023f50 f i CheckScanner.obj
 0001:00022fe0       ?Save@?$IPersistStorageImpl@VCOPOSCheckScanner@@@ATL@@UEAAJPEAUIStorage@@H@Z 0000000180023fe0 f i CheckScanner.obj
 0001:000231a0       ?Save@?$IPersistStreamInitImpl@VCOPOSCheckScanner@@@ATL@@UEAAJPEAUIStream@@H@Z 00000001800241a0 f i CheckScanner.obj
 0001:00023250       ?SaveCompleted@?$IPersistStorageImpl@VCOPOSCheckScanner@@@ATL@@UEAAJPEAUIStorage@@@Z 0000000180024250 f i CheckScanner.obj
 0001:000232b0       ?SendOnDataChange@CComControlBase@ATL@@QEAAJK@Z 00000001800242b0 f i CheckScanner.obj
 0001:000233b0       ?SendOnSave@CComControlBase@ATL@@QEAAJXZ 00000001800243b0 f i CheckScanner.obj
 0001:00023410       ?SendOnViewChange@CComControlBase@ATL@@QEAAJKJ@Z 0000000180024410 f i CheckScanner.obj
 0001:00023470       ?SetAdvise@?$IViewObjectExImpl@VCOPOSCheckScanner@@@ATL@@UEAAJKKPEAUIAdviseSink@@@Z 0000000180024470 f i CheckScanner.obj
 0001:00023520       ?SetClientSite@?$IOleObjectImpl@VCOPOSCheckScanner@@@ATL@@UEAAJPEAUIOleClientSite@@@Z 0000000180024520 f i CheckScanner.obj
 0001:000235c0       ?SetColorScheme@?$IOleObjectImpl@VCOPOSCheckScanner@@@ATL@@UEAAJPEAUtagLOGPALETTE@@@Z 00000001800245c0 f i CheckScanner.obj
 0001:00023630       ?SetContentExtent@?$IQuickActivateImpl@VCOPOSCheckScanner@@@ATL@@UEAAJPEAUtagSIZE@@@Z 0000000180024630 f i CheckScanner.obj
 0001:000236e0       ?SetControlFocus@CComControlBase@ATL@@QEAAHH@Z 00000001800246e0 f i CheckScanner.obj
 0001:00023860       ?SetDWORDValue@CRegKey@ATL@@QEAAJPEB_WK@Z 0000000180024860 f i CheckScanner.obj
 0001:00023900       ?SetData@?$IDataObjectImpl@VCOPOSCheckScanner@@@ATL@@UEAAJPEAUtagFORMATETC@@PEAUtagSTGMEDIUM@@H@Z 0000000180024900 f i CheckScanner.obj
 0001:00023980       ?SetExtent@?$IOleObjectImpl@VCOPOSCheckScanner@@@ATL@@UEAAJKPEAUtagSIZE@@@Z 0000000180024980 f i CheckScanner.obj
 0001:00023a30       ?SetHostNames@?$IOleObjectImpl@VCOPOSCheckScanner@@@ATL@@UEAAJPEB_W0@Z 0000000180024a30 f i CheckScanner.obj
 0001:00023a90       ?SetInterfaceSafetyOptions@?$IObjectSafetyImpl@VCOPOSCheckScanner@@$02@ATL@@UEAAJAEBU_GUID@@KK@Z 0000000180024a90 f i CheckScanner.obj
 0001:00023c30       ?SetMoniker@?$IOleObjectImpl@VCOPOSCheckScanner@@@ATL@@UEAAJKPEAUIMoniker@@@Z 0000000180024c30 f i CheckScanner.obj
 0001:00023cb0       ?SetMultiStringValue@CRegKey@ATL@@QEAAJPEB_W0@Z 0000000180024cb0 f i CheckScanner.obj
 0001:00023e10       ?SetObjectRects@?$IOleInPlaceObjectWindowlessImpl@VCOPOSCheckScanner@@@ATL@@UEAAJPEBUtagRECT@@0@Z 0000000180024e10 f i CheckScanner.obj
 0001:00023ec0       ?SetStringValue@CRegKey@ATL@@QEAAJPEB_W0K@Z 0000000180024ec0 f i CheckScanner.obj
 0001:00024030       ?SetVoid@CComClassFactory@ATL@@QEAAXPEAX@Z 0000000180025030 f i CheckScanner.obj
 0001:00024050       ?SetVoid@CComObjectRootBase@ATL@@QEAAXPEAX@Z 0000000180025050 f i CheckScanner.obj
 0001:00024060       ?ShowWindow@CWindow@ATL@@QEAAHH@Z 0000000180025060 f i CheckScanner.obj
 0001:000240e0       ?Skip@?$CComEnumImpl@UIEnumConnectionPoints@@$1?_GUID_b196b285_bab4_101a_b69c_00aa00341d07@@3U__s_GUID@@BPEAUIConnectionPoint@@V?$_CopyInterface@UIConnectionPoint@@@ATL@@@ATL@@UEAAJK@Z 00000001800250e0 f i CheckScanner.obj
 0001:00024170       ?Skip@?$CComEnumImpl@UIEnumConnections@@$1?_GUID_b196b287_bab4_101a_b69c_00aa00341d07@@3U__s_GUID@@BUtagCONNECTDATA@@V?$_Copy@UtagCONNECTDATA@@@ATL@@@ATL@@UEAAJK@Z 0000000180025170 f i CheckScanner.obj
 0001:00024200       ?SkipAssignment@CRegParser@ATL@@IEAAJPEA_W@Z 0000000180025200 f i CheckScanner.obj
 0001:00024300       ?SkipWhiteSpace@CRegParser@ATL@@IEAAXXZ 0000000180025300 f i CheckScanner.obj
 0001:00024350       ?StartWindowProc@?$CWindowImplBaseT@VCWindow@ATL@@V?$CWinTraits@$0FGAAAAAA@$0A@@2@@ATL@@SA_JPEAUHWND__@@I_K_J@Z 0000000180025350 f i CheckScanner.obj
 0001:000244a0       ?StrChrW@CRegParser@ATL@@KAPEA_WPEA_W_W@Z 00000001800254a0 f i CheckScanner.obj
 0001:00024510       ?StrFromMap@CRegObject@ATL@@QEAAPEB_WPEA_W@Z 0000000180025510 f i CheckScanner.obj
 0001:000245b0       ?Swap@?$CComPtrBase@UIAdviseSink@@@ATL@@IEAAXAEAV12@@Z 00000001800255b0 f i CheckScanner.obj
 0001:000245f0       ?Swap@?$CComPtrBase@UIOleClientSite@@@ATL@@IEAAXAEAV12@@Z 00000001800255f0 f i CheckScanner.obj
 0001:00024630       ?Swap@?$CComPtrBase@UIUnknown@@@ATL@@IEAAXAEAV12@@Z 0000000180025630 f i CheckScanner.obj
 0001:00024670       ?T2COLE_EX@@YAPEB_WPEB_WI@Z 0000000180025670 f i CheckScanner.obj
 0001:00024690       ?T2OLE_EX@@YAPEA_WPEA_WI@Z 0000000180025690 f i CheckScanner.obj
 0001:000246b0       ?Term@CAtlModule@ATL@@QEAAXXZ 00000001800256b0 f i CheckScanner.obj
 0001:00024760       ?Term@CComModule@ATL@@QEAAXXZ 0000000180025760 f i CheckScanner.obj
 0001:00024840       ?TranslateAcceleratorW@?$IOleInPlaceActiveObjectImpl@VCOPOSCheckScanner@@@ATL@@UEAAJPEAUtagMSG@@@Z 0000000180025840 f i CheckScanner.obj
 0001:00024ab0       ?UIDeactivate@?$IOleInPlaceObjectWindowlessImpl@VCOPOSCheckScanner@@@ATL@@UEAAJXZ 0000000180025ab0 f i CheckScanner.obj
 0001:00024b40       ?Unadvise@?$CProxy_IOPOSEvents@VCOPOSCheckScanner@@@@UEAAJK@Z 0000000180025b40 f i CheckScanner.obj
 0001:00024b80       ?Unadvise@?$IConnectionPointImpl@VCOPOSCheckScanner@@$1?DIID__IOPOSCheckScannerEvents@@3U_GUID@@BVCComDynamicUnkArray@ATL@@@ATL@@UEAAJK@Z 0000000180025b80 f i CheckScanner.obj
 0001:00024c60       ?Unadvise@?$IConnectionPointImpl@VCOPOSCheckScanner@@$1?IID_IPropertyNotifySink@@3U_GUID@@BVCComDynamicUnkArray@ATL@@@ATL@@UEAAJK@Z 0000000180025c60 f i CheckScanner.obj
 0001:00024d40       ?Unadvise@?$IOleObjectImpl@VCOPOSCheckScanner@@@ATL@@UEAAJK@Z 0000000180025d40 f i CheckScanner.obj
 0001:00024e20       ?Unfreeze@?$IViewObjectExImpl@VCOPOSCheckScanner@@@ATL@@UEAAJK@Z 0000000180025e20 f i CheckScanner.obj
 0001:00024e90       ?Unlock@?$CComCritSecLock@VCComCriticalSection@ATL@@@ATL@@QEAAXXZ 0000000180025e90 f i CheckScanner.obj
 0001:00024f10       ?Unlock@?$CComObjectRootEx@VCComSingleThreadModel@ATL@@@ATL@@QEAAXXZ 0000000180025f10 f i CheckScanner.obj
 0001:00024f20       ?Unlock@CAtlModule@ATL@@UEAAJXZ 0000000180025f20 f i CheckScanner.obj
 0001:00024f50       ?Unlock@CComCriticalSection@ATL@@QEAAJXZ 0000000180025f50 f i CheckScanner.obj
 0001:00024f70       ?Unlock@CComFakeCriticalSection@ATL@@QEAAJXZ 0000000180025f70 f i CheckScanner.obj
 0001:00024f80       ?UnregisterServer@?$CAtlModuleT@VCComModule@ATL@@@ATL@@QEAAJHPEBU_GUID@@@Z 0000000180025f80 f i CheckScanner.obj
 0001:00024fe0       ?UnregisterServer@CAtlComModule@ATL@@QEAAJHPEBU_GUID@@@Z 0000000180025fe0 f i CheckScanner.obj
 0001:00025010       ?UnregisterServer@CComModule@ATL@@QEAAJHPEBU_GUID@@@Z 0000000180026010 f i CheckScanner.obj
 0001:000250f0       ?Update@?$IOleObjectImpl@VCOPOSCheckScanner@@@ATL@@UEAAJXZ 00000001800260f0 f i CheckScanner.obj
 0001:00025150       ?UpdateRegistryFromResource@CAtlModule@ATL@@QEAAJIHPEAU_ATL_REGMAP_ENTRY@2@@Z 0000000180026150 f i CheckScanner.obj
 0001:00025690       ?UpdateRegistryFromResource@CAtlModule@ATL@@QEAAJPEB_WHPEAU_ATL_REGMAP_ENTRY@2@@Z 0000000180026690 f i CheckScanner.obj
 0001:00025be0       ?UpdateRegistryFromResource@CComModule@ATL@@UEAAJIHPEAU_ATL_REGMAP_ENTRY@2@@Z 0000000180026be0 f i CheckScanner.obj
 0001:00025c20       ?UpdateRegistryFromResource@CComModule@ATL@@UEAAJPEB_WHPEAU_ATL_REGMAP_ENTRY@2@@Z 0000000180026c20 f i CheckScanner.obj
 0001:00025c60       ?UpdateRegistryFromResourceD@CComModule@ATL@@UEAAJIHPEAU_ATL_REGMAP_ENTRY@2@@Z 0000000180026c60 f i CheckScanner.obj
 0001:00025c80       ?UpdateRegistryFromResourceD@CComModule@ATL@@UEAAJPEB_WHPEAU_ATL_REGMAP_ENTRY@2@@Z 0000000180026c80 f i CheckScanner.obj
 0001:00025ca0       ?VTFromRegType@CRegParser@ATL@@KAHPEB_WAEAG@Z 0000000180026ca0 f i CheckScanner.obj
 0001:00025d70       ?WindowProc@?$CWindowImplBaseT@VCWindow@ATL@@V?$CWinTraits@$0FGAAAAAA@$0A@@2@@ATL@@SA_JPEAUHWND__@@I_K_J@Z 0000000180026d70 f i CheckScanner.obj
 0001:00026050       ?WriteToStream@CComBSTR@ATL@@QEAAJPEAUIStream@@@Z 0000000180027050 f i CheckScanner.obj
 0001:000261c0       ?WriteToStream@CComVariant@ATL@@QEAAJPEAUIStream@@@Z 00000001800271c0 f i CheckScanner.obj
 0001:000265f0       ?WriteToStream@CComVariant@ATL@@QEAAJPEAUIStream@@G@Z 00000001800275f0 f i CheckScanner.obj
 0001:000266d0       ?_AtlFinalConstruct@CComObjectRootBase@ATL@@QEAAJXZ 00000001800276d0 f i CheckScanner.obj
 0001:000266e0       ?_AtlGetConversionACP@ATL@@YAIXZ 00000001800276e0 f i CheckScanner.obj
 0001:000266f0       ?_AtlInitialConstruct@?$CComAggObject@VCOPOSCheckScanner@@@ATL@@QEAAJXZ 00000001800276f0 f i CheckScanner.obj
 0001:00026740       ?_AtlInitialConstruct@?$CComObjectRootEx@VCComMultiThreadModel@ATL@@@ATL@@QEAAJXZ 0000000180027740 f i CheckScanner.obj
 0001:00026770       ?_AtlInitialConstruct@?$CComObjectRootEx@VCComSingleThreadModel@ATL@@@ATL@@QEAAJXZ 0000000180027770 f i CheckScanner.obj
 0001:00026780       ?_AtlVerifyStackAvailable@_ATL_SAFE_ALLOCA_IMPL@ATL@@YA_N_K@Z 0000000180027780 f i CheckScanner.obj
 0001:000268e0       ?_GetEntries@?$CComEnum@UIEnumConnectionPoints@@$1?_GUID_b196b285_bab4_101a_b69c_00aa00341d07@@3U__s_GUID@@BPEAUIConnectionPoint@@V?$_CopyInterface@UIConnectionPoint@@@ATL@@VCComSingleThreadModel@6@@ATL@@SAPEBU_ATL_INTMAP_ENTRY@2@XZ 00000001800278e0 f i CheckScanner.obj
 0001:00026900       ?_GetEntries@?$CComEnum@UIEnumConnections@@$1?_GUID_b196b287_bab4_101a_b69c_00aa00341d07@@3U__s_GUID@@BUtagCONNECTDATA@@V?$_Copy@UtagCONNECTDATA@@@ATL@@VCComSingleThreadModel@6@@ATL@@SAPEBU_ATL_INTMAP_ENTRY@2@XZ 0000000180027900 f i CheckScanner.obj
 0001:00026920       ?_GetEntries@CComClassFactory@ATL@@SAPEBU_ATL_INTMAP_ENTRY@2@XZ 0000000180027920 f i CheckScanner.obj
 0001:00026940       ?_GetEntries@COPOSCheckScanner@@SAPEBU_ATL_INTMAP_ENTRY@ATL@@XZ 0000000180027940 f i CheckScanner.obj
 0001:00026960       ?_GetRawUnknown@COPOSCheckScanner@@QEAAPEAUIUnknown@@XZ 0000000180027960 f i CheckScanner.obj
 0001:000269e0       ?_GetViewStatus@COPOSCheckScanner@@QEAAKXZ 00000001800279e0 f i CheckScanner.obj
 0001:000269f0       ?_InternalQueryInterface@?$CComEnum@UIEnumConnectionPoints@@$1?_GUID_b196b285_bab4_101a_b69c_00aa00341d07@@3U__s_GUID@@BPEAUIConnectionPoint@@V?$_CopyInterface@UIConnectionPoint@@@ATL@@VCComSingleThreadModel@6@@ATL@@QEAAJAEBU_GUID@@PEAPEAX@Z 00000001800279f0 f i CheckScanner.obj
 0001:00026a30       ?_InternalQueryInterface@?$CComEnum@UIEnumConnections@@$1?_GUID_b196b287_bab4_101a_b69c_00aa00341d07@@3U__s_GUID@@BUtagCONNECTDATA@@V?$_Copy@UtagCONNECTDATA@@@ATL@@VCComSingleThreadModel@6@@ATL@@QEAAJAEBU_GUID@@PEAPEAX@Z 0000000180027a30 f i CheckScanner.obj
 0001:00026a70       ?_InternalQueryInterface@CComClassFactory@ATL@@QEAAJAEBU_GUID@@PEAPEAX@Z 0000000180027a70 f i CheckScanner.obj
 0001:00026ab0       ?_InternalQueryInterface@COPOSCheckScanner@@QEAAJAEBU_GUID@@PEAPEAX@Z 0000000180027ab0 f i CheckScanner.obj
 0001:00026af0       ?_LocCPQueryInterface@?$IConnectionPointImpl@VCOPOSCheckScanner@@$1?DIID__IOPOSCheckScannerEvents@@3U_GUID@@BVCComDynamicUnkArray@ATL@@@ATL@@UEAAJAEBU_GUID@@PEAPEAX@Z 0000000180027af0 f i CheckScanner.obj
 0001:00026bc0       ?_LocCPQueryInterface@?$IConnectionPointImpl@VCOPOSCheckScanner@@$1?IID_IPropertyNotifySink@@3U_GUID@@BVCComDynamicUnkArray@ATL@@@ATL@@UEAAJAEBU_GUID@@PEAPEAX@Z 0000000180027bc0 f i CheckScanner.obj
 0001:00026c90       ?atlCreate@?$CWindowImpl@VCOPOSCheckScanner@@VCWindow@ATL@@V?$CWinTraits@$0FGAAAAAA@$0A@@3@@ATL@@QEAAPEAUHWND__@@PEAU3@V_U_RECT@2@PEB_WKKV_U_MENUorID@2@PEAX@Z 0000000180027c90 f i CheckScanner.obj
 0001:00026da0       ?atlCreate@?$CWindowImplBaseT@VCWindow@ATL@@V?$CWinTraits@$0FGAAAAAA@$0A@@2@@ATL@@QEAAPEAUHWND__@@PEAU3@V_U_RECT@2@PEB_WKKV_U_MENUorID@2@GPEAX@Z 0000000180027da0 f i CheckScanner.obj
 0001:00026ff0       ?atlCreate@CRegKey@ATL@@QEAAJPEAUHKEY__@@PEB_WPEA_WKKPEAU_SECURITY_ATTRIBUTES@@PEAK@Z 0000000180027ff0 f i CheckScanner.obj
 0001:000271f0       ?begin@CComDynamicUnkArray@ATL@@QEAAPEAPEAUIUnknown@@XZ 00000001800281f0 f i CheckScanner.obj
 0001:00027200       ?copy@?$_Copy@UtagCONNECTDATA@@@ATL@@SAJPEAUtagCONNECTDATA@@PEBU3@@Z 0000000180028200 f i CheckScanner.obj
 0001:000272e0       ?copy@?$_CopyInterface@UIConnectionPoint@@@ATL@@SAJPEAPEAUIConnectionPoint@@PEBQEAU3@@Z 00000001800282e0 f i CheckScanner.obj
 0001:000273c0       ?destroy@?$_Copy@UtagCONNECTDATA@@@ATL@@SAXPEAUtagCONNECTDATA@@@Z 00000001800283c0 f i CheckScanner.obj
 0001:00027400       ?destroy@?$_CopyInterface@UIConnectionPoint@@@ATL@@SAXPEAPEAUIConnectionPoint@@@Z 0000000180028400 f i CheckScanner.obj
 0001:00027440       ?end@CComDynamicUnkArray@ATL@@QEAAPEAPEAUIUnknown@@XZ 0000000180028440 f i CheckScanner.obj
 0001:00027460       ?init@?$_Copy@UtagCONNECTDATA@@@ATL@@SAXPEAUtagCONNECTDATA@@@Z 0000000180028460 f i CheckScanner.obj
 0001:00027470       ?init@?$_CopyInterface@UIConnectionPoint@@@ATL@@SAXPEAPEAUIConnectionPoint@@@Z 0000000180028470 f i CheckScanner.obj
 0001:00027480       ?memcpy_s@Checked@ATL@@YAXPEAX_KPEBX1@Z 0000000180028480 f i CheckScanner.obj
 0001:000274c0       ?ocscpy_s@@YA_NPEA_W_KPEB_W@Z 00000001800284c0 f i CheckScanner.obj
 0001:00027530       ?ocslen@@YAHPEB_W@Z        0000000180028530 f i CheckScanner.obj
 0001:00027560       ?tcsncpy_s@Checked@ATL@@YAHPEA_W_KPEB_W1@Z 0000000180028560 f i CheckScanner.obj
 0001:000275a0       ?wcscat_s@Checked@ATL@@YAXPEA_W_KPEB_W@Z 00000001800285a0 f i CheckScanner.obj
 0001:000275e0       ?wcscpy_s@Checked@ATL@@YAXPEA_W_KPEB_W@Z 00000001800285e0 f i CheckScanner.obj
 0001:00027620       ?wcsncpy_s@Checked@ATL@@YAHPEA_W_KPEB_W1@Z 0000000180028620 f i CheckScanner.obj
 0001:00027660       ?wcsstr@@YAPEA_WPEA_WPEB_W@Z 0000000180028660 f i CheckScanner.obj
 0001:00027690       InlineIsEqualGUID          0000000180028690 f i CheckScanner.obj
 0001:00027750       IsEqualGUID                0000000180028750 f i CheckScanner.obj
 0001:000277a0       ??0COPOSCheckScanner@@QEAA@XZ 00000001800287a0 f   CheckScannerImpl.obj
 0001:00027910       ?FinalConstruct@COPOSCheckScanner@@QEAAJXZ 0000000180028910 f   CheckScannerImpl.obj
 0001:000279f0       ??1COPOSCheckScanner@@UEAA@XZ 00000001800289f0 f   CheckScannerImpl.obj
 0001:00027ad0       ?WriteTrace@COPOSCheckScanner@@QEAAXPEB_WZZ 0000000180028ad0 f   CheckScannerImpl.obj
 0001:00027ba0       ?WriteTraceString@COPOSCheckScanner@@QEAAXPEB_WPEA_W@Z 0000000180028ba0 f   CheckScannerImpl.obj
 0001:00027fd0       ?WriteTraceString@COPOSCheckScanner@@QEAAXPEAXHHHPEB_WZZ 0000000180028fd0 f   CheckScannerImpl.obj
 0001:00028260       ?WriteTraceError@COPOSCheckScanner@@QEAAXPEB_WK@Z 0000000180029260 f   CheckScannerImpl.obj
 0001:00028360       ?WriteTraceMethods@COPOSCheckScanner@@QEAAXPEAJH@Z 0000000180029360 f   CheckScannerImpl.obj
 0001:000283e0       ?GetOposProp@COPOSCheckScanner@@IEAAJPEBDJPEAJJ@Z 00000001800293e0 f   CheckScannerImpl.obj
 0001:00028700       ?SetOposProp@COPOSCheckScanner@@IEAAJPEBDJJJ@Z 0000000180029700 f   CheckScannerImpl.obj
 0001:00028a70       ?GetOposProp@COPOSCheckScanner@@IEAAJPEBDJPEAFJ@Z 0000000180029a70 f   CheckScannerImpl.obj
 0001:00028b20       ?SetOposProp@COPOSCheckScanner@@IEAAJPEBDJFJ@Z 0000000180029b20 f   CheckScannerImpl.obj
 0001:00028b90       ?GetOposProp@COPOSCheckScanner@@IEAAJPEBDJPEAPEA_WJ@Z 0000000180029b90 f   CheckScannerImpl.obj
 0001:00028eb0       ?SetOposProp@COPOSCheckScanner@@IEAAJPEBDJPEA_WJ@Z 0000000180029eb0 f   CheckScannerImpl.obj
 0001:00029290       ?DoInvoke@COPOSCheckScanner@@IEAAJPEBDJPEAVOposVariant@@IHPEAJ_N@Z 000000018002a290 f   CheckScannerImpl.obj
 0001:00029df0       ?SetCOFreezeEvents@COPOSCheckScanner@@IEAAXF@Z 000000018002adf0 f   CheckScannerImpl.obj
 0001:00029f80       ?FreezeEvents@COPOSCheckScanner@@MEAAJH@Z 000000018002af80 f   CheckScannerImpl.obj
 0001:0002a0a0       ?OnDraw@COPOSCheckScanner@@MEAAJAEAUATL_DRAWINFO@@@Z 000000018002b0a0 f   CheckScannerImpl.obj
 0001:0002a270       ?SOProcessID@COPOSCheckScanner@@UEAAJPEAJ@Z 000000018002b270 f   CheckScannerImpl.obj
 0001:0002a2c0       ?get_OpenResult@COPOSCheckScanner@@UEAAJPEAJ@Z 000000018002b2c0 f   CheckScannerImpl.obj
 0001:0002a310       ?get_AutoDisable@COPOSCheckScanner@@UEAAJPEAF@Z 000000018002b310 f   CheckScannerImpl.obj
 0001:0002a350       ?put_AutoDisable@COPOSCheckScanner@@UEAAJF@Z 000000018002b350 f   CheckScannerImpl.obj
 0001:0002a390       ?get_BinaryConversion@COPOSCheckScanner@@UEAAJPEAJ@Z 000000018002b390 f   CheckScannerImpl.obj
 0001:0002a3d0       ?put_BinaryConversion@COPOSCheckScanner@@UEAAJJ@Z 000000018002b3d0 f   CheckScannerImpl.obj
 0001:0002a420       ?get_CapPowerReporting@COPOSCheckScanner@@UEAAJPEAJ@Z 000000018002b420 f   CheckScannerImpl.obj
 0001:0002a460       ?get_CheckHealthText@COPOSCheckScanner@@UEAAJPEAPEA_W@Z 000000018002b460 f   CheckScannerImpl.obj
 0001:0002a4a0       ?get_Claimed@COPOSCheckScanner@@UEAAJPEAF@Z 000000018002b4a0 f   CheckScannerImpl.obj
 0001:0002a4e0       ?get_DataCount@COPOSCheckScanner@@UEAAJPEAJ@Z 000000018002b4e0 f   CheckScannerImpl.obj
 0001:0002a520       ?get_DataEventEnabled@COPOSCheckScanner@@UEAAJPEAF@Z 000000018002b520 f   CheckScannerImpl.obj
 0001:0002a560       ?put_DataEventEnabled@COPOSCheckScanner@@UEAAJF@Z 000000018002b560 f   CheckScannerImpl.obj
 0001:0002a5a0       ?get_DeviceEnabled@COPOSCheckScanner@@UEAAJPEAF@Z 000000018002b5a0 f   CheckScannerImpl.obj
 0001:0002a5e0       ?put_DeviceEnabled@COPOSCheckScanner@@UEAAJF@Z 000000018002b5e0 f   CheckScannerImpl.obj
 0001:0002a620       ?get_FreezeEvents@COPOSCheckScanner@@UEAAJPEAF@Z 000000018002b620 f   CheckScannerImpl.obj
 0001:0002a660       ?put_FreezeEvents@COPOSCheckScanner@@UEAAJF@Z 000000018002b660 f   CheckScannerImpl.obj
 0001:0002a720       ?get_PowerNotify@COPOSCheckScanner@@UEAAJPEAJ@Z 000000018002b720 f   CheckScannerImpl.obj
 0001:0002a760       ?put_PowerNotify@COPOSCheckScanner@@UEAAJJ@Z 000000018002b760 f   CheckScannerImpl.obj
 0001:0002a7a0       ?get_PowerState@COPOSCheckScanner@@UEAAJPEAJ@Z 000000018002b7a0 f   CheckScannerImpl.obj
 0001:0002a7e0       ?get_ResultCode@COPOSCheckScanner@@UEAAJPEAJ@Z 000000018002b7e0 f   CheckScannerImpl.obj
 0001:0002a890       ?get_ResultCodeExtended@COPOSCheckScanner@@UEAAJPEAJ@Z 000000018002b890 f   CheckScannerImpl.obj
 0001:0002a8d0       ?get_State@COPOSCheckScanner@@UEAAJPEAJ@Z 000000018002b8d0 f   CheckScannerImpl.obj
 0001:0002a940       ?get_ControlObjectDescription@COPOSCheckScanner@@UEAAJPEAPEA_W@Z 000000018002b940 f   CheckScannerImpl.obj
 0001:0002a9b0       ?get_ControlObjectVersion@COPOSCheckScanner@@UEAAJPEAJ@Z 000000018002b9b0 f   CheckScannerImpl.obj
 0001:0002aa00       ?get_ServiceObjectDescription@COPOSCheckScanner@@UEAAJPEAPEA_W@Z 000000018002ba00 f   CheckScannerImpl.obj
 0001:0002aa40       ?get_ServiceObjectVersion@COPOSCheckScanner@@UEAAJPEAJ@Z 000000018002ba40 f   CheckScannerImpl.obj
 0001:0002aa80       ?get_DeviceDescription@COPOSCheckScanner@@UEAAJPEAPEA_W@Z 000000018002ba80 f   CheckScannerImpl.obj
 0001:0002aac0       ?get_DeviceName@COPOSCheckScanner@@UEAAJPEAPEA_W@Z 000000018002bac0 f   CheckScannerImpl.obj
 0001:0002ab00       ?CheckHealth@COPOSCheckScanner@@UEAAJJPEAJ@Z 000000018002bb00 f   CheckScannerImpl.obj
 0001:0002abc0       ?ClaimDevice@COPOSCheckScanner@@UEAAJJPEAJ@Z 000000018002bbc0 f   CheckScannerImpl.obj
 0001:0002ace0       ?ClearInput@COPOSCheckScanner@@UEAAJPEAJ@Z 000000018002bce0 f   CheckScannerImpl.obj
 0001:0002ad40       ?Close@COPOSCheckScanner@@UEAAJPEAJ@Z 000000018002bd40 f   CheckScannerImpl.obj
 0001:0002ae40       ?DirectIO@COPOSCheckScanner@@UEAAJJPEAJPEAPEA_W0@Z 000000018002be40 f   CheckScannerImpl.obj
 0001:0002afc0       ?Open@COPOSCheckScanner@@UEAAJPEA_WPEAJ@Z 000000018002bfc0 f   CheckScannerImpl.obj
 0001:0002c4a0       ?ReleaseDevice@COPOSCheckScanner@@UEAAJPEAJ@Z 000000018002d4a0 f   CheckScannerImpl.obj
 0001:0002c540       ?get_CapAutoGenerateFileID@COPOSCheckScanner@@UEAAJPEAF@Z 000000018002d540 f   CheckScannerImpl.obj
 0001:0002c580       ?get_CapAutoGenerateImageTagData@COPOSCheckScanner@@UEAAJPEAF@Z 000000018002d580 f   CheckScannerImpl.obj
 0001:0002c5c0       ?get_CapAutoSize@COPOSCheckScanner@@UEAAJPEAF@Z 000000018002d5c0 f   CheckScannerImpl.obj
 0001:0002c600       ?get_CapColor@COPOSCheckScanner@@UEAAJPEAJ@Z 000000018002d600 f   CheckScannerImpl.obj
 0001:0002c640       ?get_CapConcurrentMICR@COPOSCheckScanner@@UEAAJPEAF@Z 000000018002d640 f   CheckScannerImpl.obj
 0001:0002c680       ?get_CapDefineCropArea@COPOSCheckScanner@@UEAAJPEAF@Z 000000018002d680 f   CheckScannerImpl.obj
 0001:0002c6c0       ?get_CapImageFormat@COPOSCheckScanner@@UEAAJPEAJ@Z 000000018002d6c0 f   CheckScannerImpl.obj
 0001:0002c700       ?get_CapImageTagData@COPOSCheckScanner@@UEAAJPEAF@Z 000000018002d700 f   CheckScannerImpl.obj
 0001:0002c740       ?get_CapMICRDevice@COPOSCheckScanner@@UEAAJPEAF@Z 000000018002d740 f   CheckScannerImpl.obj
 0001:0002c780       ?get_CapStoreImageFiles@COPOSCheckScanner@@UEAAJPEAF@Z 000000018002d780 f   CheckScannerImpl.obj
 0001:0002c7c0       ?get_CapValidationDevice@COPOSCheckScanner@@UEAAJPEAF@Z 000000018002d7c0 f   CheckScannerImpl.obj
 0001:0002c800       ?get_Color@COPOSCheckScanner@@UEAAJPEAJ@Z 000000018002d800 f   CheckScannerImpl.obj
 0001:0002c840       ?put_Color@COPOSCheckScanner@@UEAAJJ@Z 000000018002d840 f   CheckScannerImpl.obj
 0001:0002c880       ?get_ConcurrentMICR@COPOSCheckScanner@@UEAAJPEAF@Z 000000018002d880 f   CheckScannerImpl.obj
 0001:0002c8c0       ?put_ConcurrentMICR@COPOSCheckScanner@@UEAAJF@Z 000000018002d8c0 f   CheckScannerImpl.obj
 0001:0002c900       ?get_CropAreaCount@COPOSCheckScanner@@UEAAJPEAJ@Z 000000018002d900 f   CheckScannerImpl.obj
 0001:0002c940       ?get_DocumentHeight@COPOSCheckScanner@@UEAAJPEAJ@Z 000000018002d940 f   CheckScannerImpl.obj
 0001:0002c980       ?put_DocumentHeight@COPOSCheckScanner@@UEAAJJ@Z 000000018002d980 f   CheckScannerImpl.obj
 0001:0002c9c0       ?get_DocumentWidth@COPOSCheckScanner@@UEAAJPEAJ@Z 000000018002d9c0 f   CheckScannerImpl.obj
 0001:0002ca00       ?put_DocumentWidth@COPOSCheckScanner@@UEAAJJ@Z 000000018002da00 f   CheckScannerImpl.obj
 0001:0002ca40       ?get_FileID@COPOSCheckScanner@@UEAAJPEAPEA_W@Z 000000018002da40 f   CheckScannerImpl.obj
 0001:0002ca80       ?put_FileID@COPOSCheckScanner@@UEAAJPEA_W@Z 000000018002da80 f   CheckScannerImpl.obj
 0001:0002cac0       ?get_FileIndex@COPOSCheckScanner@@UEAAJPEAJ@Z 000000018002dac0 f   CheckScannerImpl.obj
 0001:0002cb00       ?put_FileIndex@COPOSCheckScanner@@UEAAJJ@Z 000000018002db00 f   CheckScannerImpl.obj
 0001:0002cb40       ?get_ImageData@COPOSCheckScanner@@UEAAJPEAPEA_W@Z 000000018002db40 f   CheckScannerImpl.obj
 0001:0002cb80       ?get_ImageFormat@COPOSCheckScanner@@UEAAJPEAJ@Z 000000018002db80 f   CheckScannerImpl.obj
 0001:0002cbc0       ?put_ImageFormat@COPOSCheckScanner@@UEAAJJ@Z 000000018002dbc0 f   CheckScannerImpl.obj
 0001:0002cc00       ?get_ImageMemoryStatus@COPOSCheckScanner@@UEAAJPEAJ@Z 000000018002dc00 f   CheckScannerImpl.obj
 0001:0002cc40       ?get_ImageTagData@COPOSCheckScanner@@UEAAJPEAPEA_W@Z 000000018002dc40 f   CheckScannerImpl.obj
 0001:0002cc80       ?put_ImageTagData@COPOSCheckScanner@@UEAAJPEA_W@Z 000000018002dc80 f   CheckScannerImpl.obj
 0001:0002ccc0       ?get_MapMode@COPOSCheckScanner@@UEAAJPEAJ@Z 000000018002dcc0 f   CheckScannerImpl.obj
 0001:0002cd00       ?put_MapMode@COPOSCheckScanner@@UEAAJJ@Z 000000018002dd00 f   CheckScannerImpl.obj
 0001:0002cd40       ?get_MaxCropAreas@COPOSCheckScanner@@UEAAJPEAJ@Z 000000018002dd40 f   CheckScannerImpl.obj
 0001:0002cd80       ?get_Quality@COPOSCheckScanner@@UEAAJPEAJ@Z 000000018002dd80 f   CheckScannerImpl.obj
 0001:0002cdc0       ?put_Quality@COPOSCheckScanner@@UEAAJJ@Z 000000018002ddc0 f   CheckScannerImpl.obj
 0001:0002ce00       ?get_QualityList@COPOSCheckScanner@@UEAAJPEAPEA_W@Z 000000018002de00 f   CheckScannerImpl.obj
 0001:0002ce40       ?get_RemainingImagesEstimate@COPOSCheckScanner@@UEAAJPEAJ@Z 000000018002de40 f   CheckScannerImpl.obj
 0001:0002ce80       ?BeginInsertion@COPOSCheckScanner@@UEAAJJPEAJ@Z 000000018002de80 f   CheckScannerImpl.obj
 0001:0002cf40       ?BeginRemoval@COPOSCheckScanner@@UEAAJJPEAJ@Z 000000018002df40 f   CheckScannerImpl.obj
 0001:0002d000       ?ClearImage@COPOSCheckScanner@@UEAAJJPEAJ@Z 000000018002e000 f   CheckScannerImpl.obj
 0001:0002d0c0       ?DefineCropArea@COPOSCheckScanner@@UEAAJJJJJJPEAJ@Z 000000018002e0c0 f   CheckScannerImpl.obj
 0001:0002d250       ?EndInsertion@COPOSCheckScanner@@UEAAJPEAJ@Z 000000018002e250 f   CheckScannerImpl.obj
 0001:0002d2b0       ?EndRemoval@COPOSCheckScanner@@UEAAJPEAJ@Z 000000018002e2b0 f   CheckScannerImpl.obj
 0001:0002d310       ?RetrieveImage@COPOSCheckScanner@@UEAAJJPEAJ@Z 000000018002e310 f   CheckScannerImpl.obj
 0001:0002d3d0       ?RetrieveMemory@COPOSCheckScanner@@UEAAJJPEAJ@Z 000000018002e3d0 f   CheckScannerImpl.obj
 0001:0002d490       ?StoreImage@COPOSCheckScanner@@UEAAJJPEAJ@Z 000000018002e490 f   CheckScannerImpl.obj
 0001:0002d550       ?get_CapStatisticsReporting@COPOSCheckScanner@@UEAAJPEAF@Z 000000018002e550 f   CheckScannerImpl.obj
 0001:0002d590       ?get_CapUpdateStatistics@COPOSCheckScanner@@UEAAJPEAF@Z 000000018002e590 f   CheckScannerImpl.obj
 0001:0002d5d0       ?ResetStatistics@COPOSCheckScanner@@UEAAJPEA_WPEAJ@Z 000000018002e5d0 f   CheckScannerImpl.obj
 0001:0002d6b0       ?RetrieveStatistics@COPOSCheckScanner@@UEAAJPEAPEA_WPEAJ@Z 000000018002e6b0 f   CheckScannerImpl.obj
 0001:0002d790       ?UpdateStatistics@COPOSCheckScanner@@UEAAJPEA_WPEAJ@Z 000000018002e790 f   CheckScannerImpl.obj
 0001:0002d870       ?get_CapCompareFirmwareVersion@COPOSCheckScanner@@UEAAJPEAF@Z 000000018002e870 f   CheckScannerImpl.obj
 0001:0002d8b0       ?get_CapUpdateFirmware@COPOSCheckScanner@@UEAAJPEAF@Z 000000018002e8b0 f   CheckScannerImpl.obj
 0001:0002d8f0       ?CompareFirmwareVersion@COPOSCheckScanner@@UEAAJPEA_WPEAJ1@Z 000000018002e8f0 f   CheckScannerImpl.obj
 0001:0002da30       ?UpdateFirmware@COPOSCheckScanner@@UEAAJPEA_WPEAJ@Z 000000018002ea30 f   CheckScannerImpl.obj
 0001:0002db10       ?get_CapAutoContrast@COPOSCheckScanner@@UEAAJPEAF@Z 000000018002eb10 f   CheckScannerImpl.obj
 0001:0002db50       ?get_CapContrast@COPOSCheckScanner@@UEAAJPEAF@Z 000000018002eb50 f   CheckScannerImpl.obj
 0001:0002db90       ?get_Contrast@COPOSCheckScanner@@UEAAJPEAJ@Z 000000018002eb90 f   CheckScannerImpl.obj
 0001:0002dbd0       ?put_Contrast@COPOSCheckScanner@@UEAAJJ@Z 000000018002ebd0 f   CheckScannerImpl.obj
 0001:0002dc10       ?ClearInputProperties@COPOSCheckScanner@@UEAAJPEAJ@Z 000000018002ec10 f   CheckScannerImpl.obj
 0001:0002dc60       ??0?$CComControl@VCOPOSCheckScanner@@V?$CWindowImpl@VCOPOSCheckScanner@@VCWindow@ATL@@V?$CWinTraits@$0FGAAAAAA@$0A@@3@@ATL@@@ATL@@QEAA@XZ 000000018002ec60 f i CheckScannerImpl.obj
 0001:0002dca0       ??0?$CComPtr@UIAdviseSink@@@ATL@@QEAA@XZ 000000018002eca0 f i CheckScannerImpl.obj
 0001:0002dcc0       ??0?$CComPtr@UIDataAdviseHolder@@@ATL@@QEAA@XZ 000000018002ecc0 f i CheckScannerImpl.obj
 0001:0002dce0       ??0?$CComPtr@UIOleAdviseHolder@@@ATL@@QEAA@XZ 000000018002ece0 f i CheckScannerImpl.obj
 0001:0002dd00       ??0?$CComPtr@UIOleClientSite@@@ATL@@QEAA@XZ 000000018002ed00 f i CheckScannerImpl.obj
 0001:0002dd20       ??0?$CComPtr@UIOleInPlaceSiteWindowless@@@ATL@@QEAA@XZ 000000018002ed20 f i CheckScannerImpl.obj
 0001:0002dd40       ??0?$CComPtrBase@UIAdviseSink@@@ATL@@IEAA@XZ 000000018002ed40 f i CheckScannerImpl.obj
 0001:0002dd60       ??0?$CComPtrBase@UIDataAdviseHolder@@@ATL@@IEAA@XZ 000000018002ed60 f i CheckScannerImpl.obj
 0001:0002dd80       ??0?$CComPtrBase@UIOleAdviseHolder@@@ATL@@IEAA@XZ 000000018002ed80 f i CheckScannerImpl.obj
 0001:0002dda0       ??0?$CComPtrBase@UIOleClientSite@@@ATL@@IEAA@XZ 000000018002eda0 f i CheckScannerImpl.obj
 0001:0002ddc0       ??0?$CComPtrBase@UIOleInPlaceSiteWindowless@@@ATL@@IEAA@XZ 000000018002edc0 f i CheckScannerImpl.obj
 0001:0002dde0       ??0?$CComQIPtr@UIDispatch@@$1?_GUID_00020400_0000_0000_c000_000000000046@@3U__s_GUID@@B@ATL@@QEAA@XZ 000000018002ede0 f i CheckScannerImpl.obj
 0001:0002de00       ??0?$CProxy_IOPOSEvents@VCOPOSCheckScanner@@@@QEAA@PEAVCOPOSCheckScanner@@@Z 000000018002ee00 f i CheckScannerImpl.obj
 0001:0002de80       ??0?$CWindowImpl@VCOPOSCheckScanner@@VCWindow@ATL@@V?$CWinTraits@$0FGAAAAAA@$0A@@3@@ATL@@QEAA@XZ 000000018002ee80 f i CheckScannerImpl.obj
 0001:0002dea0       ??0?$CWindowImplBaseT@VCWindow@ATL@@V?$CWinTraits@$0FGAAAAAA@$0A@@2@@ATL@@QEAA@XZ 000000018002eea0 f i CheckScannerImpl.obj
 0001:0002ded0       ??0?$CWindowImplRoot@VCWindow@ATL@@@ATL@@QEAA@XZ 000000018002eed0 f i CheckScannerImpl.obj
 0001:0002df30       ??0?$IConnectionPointContainerImpl@VCOPOSCheckScanner@@@ATL@@QEAA@XZ 000000018002ef30 f i CheckScannerImpl.obj
 0001:0002df50       ??0?$IConnectionPointImpl@VCOPOSCheckScanner@@$1?DIID__IOPOSCheckScannerEvents@@3U_GUID@@BVCComDynamicUnkArray@ATL@@@ATL@@QEAA@XZ 000000018002ef50 f i CheckScannerImpl.obj
 0001:0002df80       ??0?$IConnectionPointImpl@VCOPOSCheckScanner@@$1?IID_IPropertyNotifySink@@3U_GUID@@BVCComDynamicUnkArray@ATL@@@ATL@@QEAA@XZ 000000018002ef80 f i CheckScannerImpl.obj
 0001:0002dfb0       ??0?$IDataObjectImpl@VCOPOSCheckScanner@@@ATL@@QEAA@XZ 000000018002efb0 f i CheckScannerImpl.obj
 0001:0002dfd0       ??0?$IDispatchImpl@UIOPOSCheckScanner@@$1?IID_IOPOSCheckScanner@@3U_GUID@@B$1?LIBID_OposCheckScanner_CCO@@3U3@B$00$0A@VCComTypeInfoHolder@ATL@@@ATL@@QEAA@XZ 000000018002efd0 f i CheckScannerImpl.obj
 0001:0002dff0       ??0?$IObjectSafetyImpl@VCOPOSCheckScanner@@$02@ATL@@QEAA@XZ 000000018002eff0 f i CheckScannerImpl.obj
 0001:0002e020       ??0?$IOleControlImpl@VCOPOSCheckScanner@@@ATL@@QEAA@XZ 000000018002f020 f i CheckScannerImpl.obj
 0001:0002e040       ??0?$IOleInPlaceActiveObjectImpl@VCOPOSCheckScanner@@@ATL@@QEAA@XZ 000000018002f040 f i CheckScannerImpl.obj
 0001:0002e060       ??0?$IOleInPlaceObjectWindowlessImpl@VCOPOSCheckScanner@@@ATL@@QEAA@XZ 000000018002f060 f i CheckScannerImpl.obj
 0001:0002e080       ??0?$IOleObjectImpl@VCOPOSCheckScanner@@@ATL@@QEAA@XZ 000000018002f080 f i CheckScannerImpl.obj
 0001:0002e0a0       ??0?$IPersistStorageImpl@VCOPOSCheckScanner@@@ATL@@QEAA@XZ 000000018002f0a0 f i CheckScannerImpl.obj
 0001:0002e0c0       ??0?$IPersistStreamInitImpl@VCOPOSCheckScanner@@@ATL@@QEAA@XZ 000000018002f0c0 f i CheckScannerImpl.obj
 0001:0002e0e0       ??0?$IPropertyNotifySinkCP@VCOPOSCheckScanner@@VCComDynamicUnkArray@ATL@@@ATL@@QEAA@XZ 000000018002f0e0 f i CheckScannerImpl.obj
 0001:0002e100       ??0?$IProvideClassInfo2Impl@$1?CLSID_OPOSCheckScanner@@3U_GUID@@B$1?DIID__IOPOSCheckScannerEvents@@3U2@B$1?LIBID_OposCheckScanner_CCO@@3U2@B$00$0A@VCComTypeInfoHolder@ATL@@@ATL@@QEAA@XZ 000000018002f100 f i CheckScannerImpl.obj
 0001:0002e120       ??0?$IQuickActivateImpl@VCOPOSCheckScanner@@@ATL@@QEAA@XZ 000000018002f120 f i CheckScannerImpl.obj
 0001:0002e140       ??0?$ISpecifyPropertyPagesImpl@VCOPOSCheckScanner@@@ATL@@QEAA@XZ 000000018002f140 f i CheckScannerImpl.obj
 0001:0002e160       ??0?$IViewObjectExImpl@VCOPOSCheckScanner@@@ATL@@QEAA@XZ 000000018002f160 f i CheckScannerImpl.obj
 0001:0002e180       ??0?$_ICPLocator@$1?DIID__IOPOSCheckScannerEvents@@3U_GUID@@B@ATL@@QEAA@XZ 000000018002f180 f i CheckScannerImpl.obj
 0001:0002e190       ??0?$_ICPLocator@$1?IID_IPropertyNotifySink@@3U_GUID@@B@ATL@@QEAA@XZ 000000018002f190 f i CheckScannerImpl.obj
 0001:0002e1a0       ??0CComControlBase@ATL@@QEAA@AEAPEAUHWND__@@@Z 000000018002f1a0 f i CheckScannerImpl.obj
 0001:0002e3b0       ??0CComDynamicUnkArray@ATL@@QEAA@XZ 000000018002f3b0 f i CheckScannerImpl.obj
 0001:0002e3e0       ??0CDynamicStdCallThunk2@ATL@@QEAA@XZ 000000018002f3e0 f i CheckScannerImpl.obj
 0001:0002e400       ??0CMessageMap@ATL@@QEAA@XZ 000000018002f400 f i CheckScannerImpl.obj
 0001:0002e410       ??0CWindow@ATL@@QEAA@PEAUHWND__@@@Z 000000018002f410 f i CheckScannerImpl.obj
 0001:0002e430       ??0CWndProcThunk@ATL@@QEAA@XZ 000000018002f430 f i CheckScannerImpl.obj
 0001:0002e460       ??0IConnectionPointContainer@@QEAA@XZ 000000018002f460 f i CheckScannerImpl.obj
 0001:0002e480       ??0IDataObject@@QEAA@XZ    000000018002f480 f i CheckScannerImpl.obj
 0001:0002e4a0       ??0IDispatch@@QEAA@XZ      000000018002f4a0 f i CheckScannerImpl.obj
 0001:0002e4c0       ??0IOPOSCheckScanner@@QEAA@XZ 000000018002f4c0 f i CheckScannerImpl.obj
 0001:0002e4e0       ??0IOPOSCheckScanner_1_10@@QEAA@XZ 000000018002f4e0 f i CheckScannerImpl.obj
 0001:0002e500       ??0IOPOSCheckScanner_1_7@@QEAA@XZ 000000018002f500 f i CheckScannerImpl.obj
 0001:0002e520       ??0IOPOSCheckScanner_1_8@@QEAA@XZ 000000018002f520 f i CheckScannerImpl.obj
 0001:0002e540       ??0IOPOSCheckScanner_1_9@@QEAA@XZ 000000018002f540 f i CheckScannerImpl.obj
 0001:0002e560       ??0IObjectSafety@@QEAA@XZ  000000018002f560 f i CheckScannerImpl.obj
 0001:0002e580       ??0IOleControl@@QEAA@XZ    000000018002f580 f i CheckScannerImpl.obj
 0001:0002e5a0       ??0IOleInPlaceActiveObject@@QEAA@XZ 000000018002f5a0 f i CheckScannerImpl.obj
 0001:0002e5c0       ??0IOleInPlaceObject@@QEAA@XZ 000000018002f5c0 f i CheckScannerImpl.obj
 0001:0002e5e0       ??0IOleInPlaceObjectWindowless@@QEAA@XZ 000000018002f5e0 f i CheckScannerImpl.obj
 0001:0002e600       ??0IOleObject@@QEAA@XZ     000000018002f600 f i CheckScannerImpl.obj
 0001:0002e620       ??0IOleWindow@@QEAA@XZ     000000018002f620 f i CheckScannerImpl.obj
 0001:0002e640       ??0IPersist@@QEAA@XZ       000000018002f640 f i CheckScannerImpl.obj
 0001:0002e660       ??0IPersistStorage@@QEAA@XZ 000000018002f660 f i CheckScannerImpl.obj
 0001:0002e680       ??0IPersistStreamInit@@QEAA@XZ 000000018002f680 f i CheckScannerImpl.obj
 0001:0002e6a0       ??0IProvideClassInfo2@@QEAA@XZ 000000018002f6a0 f i CheckScannerImpl.obj
 0001:0002e6c0       ??0IProvideClassInfo@@QEAA@XZ 000000018002f6c0 f i CheckScannerImpl.obj
 0001:0002e6e0       ??0IQuickActivate@@QEAA@XZ 000000018002f6e0 f i CheckScannerImpl.obj
 0001:0002e700       ??0ISpecifyPropertyPages@@QEAA@XZ 000000018002f700 f i CheckScannerImpl.obj
 0001:0002e720       ??0IViewObject2@@QEAA@XZ   000000018002f720 f i CheckScannerImpl.obj
 0001:0002e740       ??0IViewObject@@QEAA@XZ    000000018002f740 f i CheckScannerImpl.obj
 0001:0002e760       ??0IViewObjectEx@@QEAA@XZ  000000018002f760 f i CheckScannerImpl.obj
 0001:0002e780       ??0OposVariantResult@@QEAA@XZ 000000018002f780 f i CheckScannerImpl.obj
 0001:0002e7a0       ??0_CW@@QEAA@PEBD@Z        000000018002f7a0 f i CheckScannerImpl.obj
 0001:0002e7f0       ??0_CW@@QEAA@PEB_W@Z       000000018002f7f0 f i CheckScannerImpl.obj
 0001:0002e840       ??0_CWNCC@@QEAA@PEBD@Z     000000018002f840 f i CheckScannerImpl.obj
 0001:0002e870       ??1?$CComControl@VCOPOSCheckScanner@@V?$CWindowImpl@VCOPOSCheckScanner@@VCWindow@ATL@@V?$CWinTraits@$0FGAAAAAA@$0A@@3@@ATL@@@ATL@@UEAA@XZ 000000018002f870 f i CheckScannerImpl.obj
 0001:0002e8a0       ??1?$CComPtr@UIDataAdviseHolder@@@ATL@@QEAA@XZ 000000018002f8a0 f i CheckScannerImpl.obj
 0001:0002e8c0       ??1?$CComPtr@UIOleAdviseHolder@@@ATL@@QEAA@XZ 000000018002f8c0 f i CheckScannerImpl.obj
 0001:0002e8e0       ??1?$CComPtr@UIOleInPlaceSiteWindowless@@@ATL@@QEAA@XZ 000000018002f8e0 f i CheckScannerImpl.obj
 0001:0002e900       ??1?$CComPtrBase@UIDataAdviseHolder@@@ATL@@QEAA@XZ 000000018002f900 f i CheckScannerImpl.obj
 0001:0002e940       ??1?$CComPtrBase@UIOleAdviseHolder@@@ATL@@QEAA@XZ 000000018002f940 f i CheckScannerImpl.obj
 0001:0002e980       ??1?$CComPtrBase@UIOleInPlaceSiteWindowless@@@ATL@@QEAA@XZ 000000018002f980 f i CheckScannerImpl.obj
 0001:0002e9c0       ??1?$CComQIPtr@UIDispatch@@$1?_GUID_00020400_0000_0000_c000_000000000046@@3U__s_GUID@@B@ATL@@QEAA@XZ 000000018002f9c0 f i CheckScannerImpl.obj
 0001:0002e9e0       ??1?$CProxy_IOPOSEvents@VCOPOSCheckScanner@@@@QEAA@XZ 000000018002f9e0 f i CheckScannerImpl.obj
 0001:0002ea00       ??1?$CWindowImpl@VCOPOSCheckScanner@@VCWindow@ATL@@V?$CWinTraits@$0FGAAAAAA@$0A@@3@@ATL@@UEAA@XZ 000000018002fa00 f i CheckScannerImpl.obj
 0001:0002ea20       ??1?$CWindowImplBaseT@VCWindow@ATL@@V?$CWinTraits@$0FGAAAAAA@$0A@@2@@ATL@@UEAA@XZ 000000018002fa20 f i CheckScannerImpl.obj
 0001:0002ea40       ??1?$CWindowImplRoot@VCWindow@ATL@@@ATL@@UEAA@XZ 000000018002fa40 f i CheckScannerImpl.obj
 0001:0002eaf0       ??1?$IConnectionPointImpl@VCOPOSCheckScanner@@$1?DIID__IOPOSCheckScannerEvents@@3U_GUID@@BVCComDynamicUnkArray@ATL@@@ATL@@QEAA@XZ 000000018002faf0 f i CheckScannerImpl.obj
 0001:0002eb70       ??1?$IConnectionPointImpl@VCOPOSCheckScanner@@$1?IID_IPropertyNotifySink@@3U_GUID@@BVCComDynamicUnkArray@ATL@@@ATL@@QEAA@XZ 000000018002fb70 f i CheckScannerImpl.obj
 0001:0002ebf0       ??1?$IPropertyNotifySinkCP@VCOPOSCheckScanner@@VCComDynamicUnkArray@ATL@@@ATL@@QEAA@XZ 000000018002fbf0 f i CheckScannerImpl.obj
 0001:0002ec10       ??1CComControlBase@ATL@@UEAA@XZ 000000018002fc10 f i CheckScannerImpl.obj
 0001:0002ecf0       ??1CComDynamicUnkArray@ATL@@QEAA@XZ 000000018002fcf0 f i CheckScannerImpl.obj
 0001:0002ed20       ??1CDynamicStdCallThunk2@ATL@@QEAA@XZ 000000018002fd20 f i CheckScannerImpl.obj
 0001:0002ed50       ??1CWndProcThunk@ATL@@QEAA@XZ 000000018002fd50 f i CheckScannerImpl.obj
 0001:0002ed80       ??1OposVariantResult@@QEAA@XZ 000000018002fd80 f i CheckScannerImpl.obj
 0001:0002edb0       ??1_CW@@QEAA@XZ            000000018002fdb0 f i CheckScannerImpl.obj
 0001:0002ee10       ??1_CWNCC@@QEAA@XZ         000000018002fe10 f i CheckScannerImpl.obj
 0001:0002ee30       ??B_CW@@QEAAPEB_WXZ        000000018002fe30 f i CheckScannerImpl.obj
 0001:0002ee60       ??B_CWNCC@@QEAAPEA_WXZ     000000018002fe60 f i CheckScannerImpl.obj
 0001:0002ee80       ??_EOposVariant@@QEAAPEAXI@Z 000000018002fe80 f i CheckScannerImpl.obj
 0001:0002ef20       ?EventClaim@COPOSCheckScanner@@IEAAXXZ 000000018002ff20 f i CheckScannerImpl.obj
 0001:0002ef50       ?EventClose@COPOSCheckScanner@@IEAAXXZ 000000018002ff50 f i CheckScannerImpl.obj
 0001:0002eff0       ?EventInit@COPOSCheckScanner@@IEAAJXZ 000000018002fff0 f i CheckScannerImpl.obj
 0001:0002f2a0       ?EventOpen@COPOSCheckScanner@@IEAAXXZ 00000001800302a0 f i CheckScannerImpl.obj
 0001:0002f2e0       ?EventPreCloseRelease@COPOSCheckScanner@@IEAAXXZ 00000001800302e0 f i CheckScannerImpl.obj
 0001:0002f350       ?EventUninit@COPOSCheckScanner@@IEAAXXZ 0000000180030350 f i CheckScannerImpl.obj
 0001:0002f470       ?EventWindowProc@COPOSCheckScanner@@IEAA_JI_K_J@Z 0000000180030470 f i CheckScannerImpl.obj
 0001:0002f630       ?FireEventCleanup@COPOSCheckScanner@@IEAAXXZ 0000000180030630 f i CheckScannerImpl.obj
 0001:0002f670       ?FireEventSetup@COPOSCheckScanner@@IEAA_NXZ 0000000180030670 f i CheckScannerImpl.obj
 0001:0002f6e0       ?GetModuleInstance@CComModule@ATL@@QEAAPEAUHINSTANCE__@@XZ 00000001800306e0 f i CheckScannerImpl.obj
 0001:0002f6f0       ?SetRC@COPOSCheckScanner@@IEAAJJ@Z 00000001800306f0 f i CheckScannerImpl.obj
 0001:0002f710       ?s_EventWindowProc@COPOSCheckScanner@@KA_JPEAUHWND__@@I_K_J@Z 0000000180030710 f i CheckScannerImpl.obj
 0001:0002f7b0       _snwprintf                 00000001800307b0 f i CheckScannerImpl.obj
 0001:0002f840       _vfwprintf_l               0000000180030840 f i CheckScannerImpl.obj
 0001:0002f890       _vsnwprintf                0000000180030890 f i CheckScannerImpl.obj
 0001:0002f8d0       _vsnwprintf_l              00000001800308d0 f i CheckScannerImpl.obj
 0001:0002f950       vfwprintf                  0000000180030950 f i CheckScannerImpl.obj
 0001:0002f981       DebugBreak                 0000000180030981 f   kernel32:KERNEL32.dll
 0001:0002f987       Sleep                      0000000180030987 f   kernel32:KERNEL32.dll
 0001:0002f98d       GetCurrentProcess          000000018003098d f   kernel32:KERNEL32.dll
 0001:0002f993       TerminateProcess           0000000180030993 f   kernel32:KERNEL32.dll
 0001:0002f999       MultiByteToWideChar        0000000180030999 f   kernel32:KERNEL32.dll
 0001:0002f99f       WideCharToMultiByte        000000018003099f f   kernel32:KERNEL32.dll
 0001:0002f9a5       DecodePointer              00000001800309a5 f   kernel32:KERNEL32.dll
 0001:0002f9ab       RaiseException             00000001800309ab f   kernel32:KERNEL32.dll
 0001:0002f9b1       GetLastError               00000001800309b1 f   kernel32:KERNEL32.dll
 0001:0002f9b7       SetLastError               00000001800309b7 f   kernel32:KERNEL32.dll
 0001:0002f9bd       InitializeCriticalSectionEx 00000001800309bd f   kernel32:KERNEL32.dll
 0001:0002f9c3       DeleteCriticalSection      00000001800309c3 f   kernel32:KERNEL32.dll
 0001:0002f9c9       EncodePointer              00000001800309c9 f   kernel32:KERNEL32.dll
 0001:0002f9cf       EnterCriticalSection       00000001800309cf f   kernel32:KERNEL32.dll
 0001:0002f9d5       LeaveCriticalSection       00000001800309d5 f   kernel32:KERNEL32.dll
 0001:0002f9db       ResetEvent                 00000001800309db f   kernel32:KERNEL32.dll
 0001:0002f9e1       ReleaseMutex               00000001800309e1 f   kernel32:KERNEL32.dll
 0001:0002f9e7       WaitForSingleObject        00000001800309e7 f   kernel32:KERNEL32.dll
 0001:0002f9ed       GetCurrentThreadId         00000001800309ed f   kernel32:KERNEL32.dll
 0001:0002f9f3       DisableThreadLibraryCalls  00000001800309f3 f   kernel32:KERNEL32.dll
 0001:0002f9f9       FreeLibrary                00000001800309f9 f   kernel32:KERNEL32.dll
 0001:0002f9ff       GetModuleFileNameW         00000001800309ff f   kernel32:KERNEL32.dll
 0001:0002fa05       GetModuleHandleW           0000000180030a05 f   kernel32:KERNEL32.dll
 0001:0002fa0b       GetProcAddress             0000000180030a0b f   kernel32:KERNEL32.dll
 0001:0002fa11       LoadLibraryExW             0000000180030a11 f   kernel32:KERNEL32.dll
 0001:0002fa17       LoadResource               0000000180030a17 f   kernel32:KERNEL32.dll
 0001:0002fa1d       SizeofResource             0000000180030a1d f   kernel32:KERNEL32.dll
 0001:0002fa23       FindResourceW              0000000180030a23 f   kernel32:KERNEL32.dll
 0001:0002fa29       GlobalAlloc                0000000180030a29 f   kernel32:KERNEL32.dll
 0001:0002fa2f       GlobalUnlock               0000000180030a2f f   kernel32:KERNEL32.dll
 0001:0002fa35       GlobalLock                 0000000180030a35 f   kernel32:KERNEL32.dll
 0001:0002fa3b       MulDiv                     0000000180030a3b f   kernel32:KERNEL32.dll
 0001:0002fa41       lstrcmpiW                  0000000180030a41 f   kernel32:KERNEL32.dll
 0001:0002fa47       DeleteFileW                0000000180030a47 f   kernel32:KERNEL32.dll
 0001:0002fa4d       CloseHandle                0000000180030a4d f   kernel32:KERNEL32.dll
 0001:0002fa53       SetEvent                   0000000180030a53 f   kernel32:KERNEL32.dll
 0001:0002fa59       CreateMutexW               0000000180030a59 f   kernel32:KERNEL32.dll
 0001:0002fa5f       CreateEventW               0000000180030a5f f   kernel32:KERNEL32.dll
 0001:0002fa65       GetCurrentProcessId        0000000180030a65 f   kernel32:KERNEL32.dll
 0001:0002fa6b       LocalFree                  0000000180030a6b f   kernel32:KERNEL32.dll
 0001:0002fa71       FormatMessageW             0000000180030a71 f   kernel32:KERNEL32.dll
 0001:0002fa77       GetActiveWindow            0000000180030a77 f   user32:USER32.dll
 0001:0002fa7d       MessageBoxW                0000000180030a7d f   user32:USER32.dll
 0001:0002fa83       UnregisterClassW           0000000180030a83 f   user32:USER32.dll
 0001:0002fa89       PostMessageW               0000000180030a89 f   user32:USER32.dll
 0001:0002fa8f       DefWindowProcW             0000000180030a8f f   user32:USER32.dll
 0001:0002fa95       CallWindowProcW            0000000180030a95 f   user32:USER32.dll
 0001:0002fa9b       RegisterClassExW           0000000180030a9b f   user32:USER32.dll
 0001:0002faa1       GetClassInfoExW            0000000180030aa1 f   user32:USER32.dll
 0001:0002faa7       CreateWindowExW            0000000180030aa7 f   user32:USER32.dll
 0001:0002faad       IsWindow                   0000000180030aad f   user32:USER32.dll
 0001:0002fab3       IsChild                    0000000180030ab3 f   user32:USER32.dll
 0001:0002fab9       DestroyWindow              0000000180030ab9 f   user32:USER32.dll
 0001:0002fabf       ShowWindow                 0000000180030abf f   user32:USER32.dll
 0001:0002fac5       SetWindowPos               0000000180030ac5 f   user32:USER32.dll
 0001:0002facb       CharNextW                  0000000180030acb f   user32:USER32.dll
 0001:0002fad1       SetFocus                   0000000180030ad1 f   user32:USER32.dll
 0001:0002fad7       GetFocus                   0000000180030ad7 f   user32:USER32.dll
 0001:0002fadd       GetKeyState                0000000180030add f   user32:USER32.dll
 0001:0002fae3       GetDC                      0000000180030ae3 f   user32:USER32.dll
 0001:0002fae9       ReleaseDC                  0000000180030ae9 f   user32:USER32.dll
 0001:0002faef       BeginPaint                 0000000180030aef f   user32:USER32.dll
 0001:0002faf5       EndPaint                   0000000180030af5 f   user32:USER32.dll
 0001:0002fafb       SetWindowRgn               0000000180030afb f   user32:USER32.dll
 0001:0002fb01       InvalidateRect             0000000180030b01 f   user32:USER32.dll
 0001:0002fb07       GetClientRect              0000000180030b07 f   user32:USER32.dll
 0001:0002fb0d       IntersectRect              0000000180030b0d f   user32:USER32.dll
 0001:0002fb13       UnionRect                  0000000180030b13 f   user32:USER32.dll
 0001:0002fb19       OffsetRect                 0000000180030b19 f   user32:USER32.dll
 0001:0002fb1f       EqualRect                  0000000180030b1f f   user32:USER32.dll
 0001:0002fb25       PtInRect                   0000000180030b25 f   user32:USER32.dll
 0001:0002fb2b       GetWindowLongPtrW          0000000180030b2b f   user32:USER32.dll
 0001:0002fb31       SetWindowLongPtrW          0000000180030b31 f   user32:USER32.dll
 0001:0002fb37       GetParent                  0000000180030b37 f   user32:USER32.dll
 0001:0002fb3d       LoadCursorW                0000000180030b3d f   user32:USER32.dll
 0001:0002fb43       PeekMessageW               0000000180030b43 f   user32:USER32.dll
 0001:0002fb49       RegisterClassW             0000000180030b49 f   user32:USER32.dll
 0001:0002fb4f       LoadBitmapW                0000000180030b4f f   user32:USER32.dll
 0001:0002fb55       CloseMetaFile              0000000180030b55 f   gdi32:GDI32.dll
 0001:0002fb5b       CreateDCW                  0000000180030b5b f   gdi32:GDI32.dll
 0001:0002fb61       CreateMetaFileW            0000000180030b61 f   gdi32:GDI32.dll
 0001:0002fb67       CreateRectRgnIndirect      0000000180030b67 f   gdi32:GDI32.dll
 0001:0002fb6d       DeleteDC                   0000000180030b6d f   gdi32:GDI32.dll
 0001:0002fb73       DeleteMetaFile             0000000180030b73 f   gdi32:GDI32.dll
 0001:0002fb79       GetDeviceCaps              0000000180030b79 f   gdi32:GDI32.dll
 0001:0002fb7f       RestoreDC                  0000000180030b7f f   gdi32:GDI32.dll
 0001:0002fb85       SaveDC                     0000000180030b85 f   gdi32:GDI32.dll
 0001:0002fb8b       SetMapMode                 0000000180030b8b f   gdi32:GDI32.dll
 0001:0002fb91       LPtoDP                     0000000180030b91 f   gdi32:GDI32.dll
 0001:0002fb97       SetViewportOrgEx           0000000180030b97 f   gdi32:GDI32.dll
 0001:0002fb9d       SetWindowExtEx             0000000180030b9d f   gdi32:GDI32.dll
 0001:0002fba3       SetWindowOrgEx             0000000180030ba3 f   gdi32:GDI32.dll
 0001:0002fba9       BitBlt                     0000000180030ba9 f   gdi32:GDI32.dll
 0001:0002fbaf       CreateCompatibleDC         0000000180030baf f   gdi32:GDI32.dll
 0001:0002fbb5       DeleteObject               0000000180030bb5 f   gdi32:GDI32.dll
 0001:0002fbbb       SelectObject               0000000180030bbb f   gdi32:GDI32.dll
 0001:0002fbc1       GetObjectW                 0000000180030bc1 f   gdi32:GDI32.dll
 0001:0002fbc7       RegCloseKey                0000000180030bc7 f   advapi32:ADVAPI32.dll
 0001:0002fbcd       RegCreateKeyExW            0000000180030bcd f   advapi32:ADVAPI32.dll
 0001:0002fbd3       RegDeleteKeyW              0000000180030bd3 f   advapi32:ADVAPI32.dll
 0001:0002fbd9       RegDeleteValueW            0000000180030bd9 f   advapi32:ADVAPI32.dll
 0001:0002fbdf       RegEnumKeyExW              0000000180030bdf f   advapi32:ADVAPI32.dll
 0001:0002fbe5       RegOpenKeyExW              0000000180030be5 f   advapi32:ADVAPI32.dll
 0001:0002fbeb       RegQueryInfoKeyW           0000000180030beb f   advapi32:ADVAPI32.dll
 0001:0002fbf1       RegSetValueExW             0000000180030bf1 f   advapi32:ADVAPI32.dll
 0001:0002fbf7       RegQueryValueExW           0000000180030bf7 f   advapi32:ADVAPI32.dll
 0001:0002fbfd       CoCreateInstance           0000000180030bfd f   ole32:ole32.dll
 0001:0002fc03       StringFromGUID2            0000000180030c03 f   ole32:ole32.dll
 0001:0002fc09       CoTaskMemAlloc             0000000180030c09 f   ole32:ole32.dll
 0001:0002fc0f       CoTaskMemRealloc           0000000180030c0f f   ole32:ole32.dll
 0001:0002fc15       CoTaskMemFree              0000000180030c15 f   ole32:ole32.dll
 0001:0002fc1b       ReadClassStm               0000000180030c1b f   ole32:ole32.dll
 0001:0002fc21       WriteClassStm              0000000180030c21 f   ole32:ole32.dll
 0001:0002fc27       CreateDataAdviseHolder     0000000180030c27 f   ole32:ole32.dll
 0001:0002fc2d       OleSaveToStream            0000000180030c2d f   ole32:ole32.dll
 0001:0002fc33       CreateOleAdviseHolder      0000000180030c33 f   ole32:ole32.dll
 0001:0002fc39       OleRegGetUserType          0000000180030c39 f   ole32:ole32.dll
 0001:0002fc3f       OleRegGetMiscStatus        0000000180030c3f f   ole32:ole32.dll
 0001:0002fc45       OleRegEnumVerbs            0000000180030c45 f   ole32:ole32.dll
 0001:0002fc4b       CLSIDFromProgID            0000000180030c4b f   ole32:ole32.dll
 0001:0002fc51       SysAllocString             0000000180030c51 f   oleaut32:OLEAUT32.dll
 0001:0002fc57       SysAllocStringLen          0000000180030c57 f   oleaut32:OLEAUT32.dll
 0001:0002fc5d       SysFreeString              0000000180030c5d f   oleaut32:OLEAUT32.dll
 0001:0002fc63       SysStringLen               0000000180030c63 f   oleaut32:OLEAUT32.dll
 0001:0002fc69       VariantClear               0000000180030c69 f   oleaut32:OLEAUT32.dll
 0001:0002fc6f       VariantCopyInd             0000000180030c6f f   oleaut32:OLEAUT32.dll
 0001:0002fc75       VariantChangeType          0000000180030c75 f   oleaut32:OLEAUT32.dll
 0001:0002fc7b       SysStringByteLen           0000000180030c7b f   oleaut32:OLEAUT32.dll
 0001:0002fc81       SysAllocStringByteLen      0000000180030c81 f   oleaut32:OLEAUT32.dll
 0001:0002fc87       VariantInit                0000000180030c87 f   oleaut32:OLEAUT32.dll
 0001:0002fc8d       VarUI4FromStr              0000000180030c8d f   oleaut32:OLEAUT32.dll
 0001:0002fc93       LoadTypeLib                0000000180030c93 f   oleaut32:OLEAUT32.dll
 0001:0002fc99       LoadRegTypeLib             0000000180030c99 f   oleaut32:OLEAUT32.dll
 0001:0002fc9f       RegisterTypeLib            0000000180030c9f f   oleaut32:OLEAUT32.dll
 0001:0002fca5       UnRegisterTypeLib          0000000180030ca5 f   oleaut32:OLEAUT32.dll
 0001:0002fcab       OleCreatePropertyFrame     0000000180030cab f   oleaut32:OLEAUT32.dll
 0001:0002fcc0       _RTC_AllocaHelper          0000000180030cc0 f   LIBCMTD:stack.obj
 0001:0002fd00       _RTC_CheckStackVars        0000000180030d00 f   LIBCMTD:stack.obj
 0001:0002fd90       _RTC_CheckStackVars2       0000000180030d90 f   LIBCMTD:stack.obj
 0001:0002fea0       _CRT_RTC_INIT              0000000180030ea0 f   LIBCMTD:init.obj
 0001:0002feb0       _CRT_RTC_INITW             0000000180030eb0 f   LIBCMTD:init.obj
 0001:0002fec0       _RTC_InitBase              0000000180030ec0 f   LIBCMTD:init.obj
 0001:0002ff00       _RTC_Shutdown              0000000180030f00 f   LIBCMTD:init.obj
 0001:0002ff30       __GSHandlerCheck           0000000180030f30 f   LIBCMTD:gshandler.obj
 0001:0002ff70       __GSHandlerCheckCommon     0000000180030f70 f   LIBCMTD:gshandler.obj
 0001:00030080       __security_check_cookie    0000000180031080 f   LIBCMTD:amdsecgs.obj
 0001:000300a0       ??_U@YAPEAX_K@Z            00000001800310a0 f   LIBCMTD:new_array.obj
 0001:000300c0       ??3@YAXPEAX_K@Z            00000001800310c0 f   LIBCMTD:delete_scalar_size.obj
 0001:000300e0       ??_V@YAXPEAX@Z             00000001800310e0 f   LIBCMTD:delete_array.obj
 0001:00030100       ??_V@YAXPEAX_K@Z           0000000180031100 f   LIBCMTD:delete_array_size.obj
 0001:00030120       ?configure_argv@__scrt_narrow_argv_policy@@SAHXZ 0000000180031120 f i LIBCMTD:utility.obj
 0001:00030210       ?initialize_environment@__scrt_narrow_environment_policy@@SAHXZ 0000000180031210 f i LIBCMTD:utility.obj
 0001:000302b0       NtCurrentTeb               00000001800312b0 f i LIBCMTD:utility.obj
 0001:000302c0       __scrt_acquire_startup_lock 00000001800312c0 f   LIBCMTD:utility.obj
 0001:00030330       __scrt_dllmain_after_initialize_c 0000000180031330 f   LIBCMTD:utility.obj
 0001:00030360       __scrt_dllmain_before_initialize_c 0000000180031360 f   LIBCMTD:utility.obj
 0001:00030380       __scrt_dllmain_crt_thread_attach 0000000180031380 f   LIBCMTD:utility.obj
 0001:000303b0       __scrt_dllmain_crt_thread_detach 00000001800313b0 f   LIBCMTD:utility.obj
 0001:000303d0       __scrt_dllmain_exception_filter 00000001800313d0 f   LIBCMTD:utility.obj
 0001:00030440       __scrt_dllmain_uninitialize_c 0000000180031440 f   LIBCMTD:utility.obj
 0001:00030470       __scrt_dllmain_uninitialize_critical 0000000180031470 f   LIBCMTD:utility.obj
 0001:00030490       __scrt_initialize_crt      0000000180031490 f   LIBCMTD:utility.obj
 0001:000304e0       __scrt_initialize_onexit_tables 00000001800314e0 f   LIBCMTD:utility.obj
 0001:000305f0       __scrt_is_nonwritable_in_current_image 00000001800315f0 f   LIBCMTD:utility.obj
 0001:00030680       __scrt_release_startup_lock 0000000180031680 f   LIBCMTD:utility.obj
 0001:000306b0       __scrt_uninitialize_crt    00000001800316b0 f   LIBCMTD:utility.obj
 0001:000306f0       _onexit                    00000001800316f0 f   LIBCMTD:utility.obj
 0001:00030770       at_quick_exit              0000000180031770 f   LIBCMTD:utility.obj
 0001:000307c0       atexit                     00000001800317c0 f   LIBCMTD:utility.obj
 0001:00030800       ??3@YAXPEAX@Z              0000000180031800 f   LIBCMTD:delete_scalar.obj
 0001:00030820       __raise_securityfailure    0000000180031820 f   LIBCMTD:gs_report.obj
 0001:00030860       __report_gsfailure         0000000180031860 f   LIBCMTD:gs_report.obj
 0001:00030940       __report_rangecheckfailure 0000000180031940 f   LIBCMTD:gs_report.obj
 0001:00030960       __report_securityfailure   0000000180031960 f   LIBCMTD:gs_report.obj
 0001:00030a00       __report_securityfailureEx 0000000180031a00 f   LIBCMTD:gs_report.obj
 0001:00030dc0       _Init_thread_abort         0000000180031dc0 f   LIBCMTD:thread_safe_statics.obj
 0001:00030df0       _Init_thread_footer        0000000180031df0 f   LIBCMTD:thread_safe_statics.obj
 0001:00030e50       _Init_thread_header        0000000180031e50 f   LIBCMTD:thread_safe_statics.obj
 0001:00030ee0       _Init_thread_lock          0000000180031ee0 f   LIBCMTD:thread_safe_statics.obj
 0001:00030f00       _Init_thread_notify        0000000180031f00 f   LIBCMTD:thread_safe_statics.obj
 0001:00030f60       _Init_thread_unlock        0000000180031f60 f   LIBCMTD:thread_safe_statics.obj
 0001:00030f80       _Init_thread_wait          0000000180031f80 f   LIBCMTD:thread_safe_statics.obj
 0001:00031030       ??2@YAPEAX_KAEBUnothrow_t@std@@@Z 0000000180032030 f   LIBCMTD:new_scalar_nothrow.obj
 0001:00031070       ??_U@YAPEAX_KAEBUnothrow_t@std@@@Z 0000000180032070 f   LIBCMTD:new_array_nothrow.obj
 0001:000310a0       __GSHandlerCheck_SEH       00000001800320a0 f   LIBCMTD:gshandlerseh.obj
 0001:00031170       __chkstk                   0000000180032170 f   LIBCMTD:chkstk.obj
 0001:00031170       _alloca_probe              0000000180032170 f   LIBCMTD:chkstk.obj
 0001:000315d0       _CRT_INIT                  00000001800325d0 f   LIBCMTD:dll_dllmain.obj
 0001:00031600       _DllMainCRTStartup         0000000180032600 f   LIBCMTD:dll_dllmain.obj
 0001:000316d0       ?_RTC_AllocaFailure@@YAXPEAXPEAU_RTC_ALLOCA_NODE@@H@Z 00000001800326d0 f   LIBCMTD:error.obj
 0001:00031830       ?_RTC_Failure@@YAXPEAXH@Z  0000000180032830 f   LIBCMTD:error.obj
 0001:00031880       ?_RTC_StackFailure@@YAXPEAXPEBD@Z 0000000180032880 f   LIBCMTD:error.obj
 0001:00031cb0       _RTC_UninitUse             0000000180032cb0 f   LIBCMTD:error.obj
 0001:00031d80       _vsprintf_s_l              0000000180032d80 f i LIBCMTD:error.obj
 0001:00031df0       sprintf_s                  0000000180032df0 f i LIBCMTD:error.obj
 0001:00031e20       ?_RTC_GetErrorFunc@@YAP6AHHPEBDH00ZZPEBX@Z 0000000180032e20 f   LIBCMTD:userapi.obj
 0001:00031e30       ?_RTC_GetErrorFuncW@@YAP6AHHPEB_WH00ZZPEBX@Z 0000000180032e30 f   LIBCMTD:userapi.obj
 0001:00031e40       _RTC_GetErrDesc            0000000180032e40 f   LIBCMTD:userapi.obj
 0001:00031e60       _RTC_NumErrors             0000000180032e60 f   LIBCMTD:userapi.obj
 0001:00031e70       _RTC_SetErrorFunc          0000000180032e70 f   LIBCMTD:userapi.obj
 0001:00031e90       _RTC_SetErrorFuncW         0000000180032e90 f   LIBCMTD:userapi.obj
 0001:00031eb0       _RTC_SetErrorType          0000000180032eb0 f   LIBCMTD:userapi.obj
 0001:00031ed0       ??2@YAPEAX_K@Z             0000000180032ed0 f   LIBCMTD:new_scalar.obj
 0001:00031f20       __isa_available_init       0000000180032f20 f   LIBCMTD:cpu_disp.obj
 0001:000322c0       _get_startup_argv_mode     00000001800332c0 f   LIBCMTD:argv_mode.obj
 0001:000322d0       __scrt_is_ucrt_dll_in_use  00000001800332d0 f   LIBCMTD:ucrt_detection.obj
 0001:00032300       __crt_debugger_hook        0000000180033300 f   LIBCMTD:utility_desktop.obj
 0001:00032310       __scrt_fastfail            0000000180033310 f   LIBCMTD:utility_desktop.obj
 0001:000324b0       __scrt_get_show_window_mode 00000001800334b0 f   LIBCMTD:utility_desktop.obj
 0001:00032510       __scrt_initialize_mta      0000000180033510 f   LIBCMTD:utility_desktop.obj
 0001:00032520       __scrt_initialize_winrt    0000000180033520 f   LIBCMTD:utility_desktop.obj
 0001:00032530       __scrt_is_managed_app      0000000180033530 f   LIBCMTD:utility_desktop.obj
 0001:000325e0       __scrt_set_unhandled_exception_filter 00000001800335e0 f   LIBCMTD:utility_desktop.obj
 0001:00032600       __scrt_stub_for_initialize_mta 0000000180033600 f   LIBCMTD:utility_desktop.obj
 0001:00032600       __scrt_exe_initialize_mta  0000000180033600 f   LIBCMTD:utility_desktop.obj
 0001:00032610       __scrt_unhandled_exception_filter 0000000180033610 f   LIBCMTD:utility_desktop.obj
 0001:000326b0       _guard_check_icall_nop     00000001800336b0 f i LIBCMTD:guard_support.obj
 0001:000326c0       ReadNoFence64              00000001800336c0 f i LIBCMTD:guard_support.obj
 0001:000326e0       ReadPointerNoFence         00000001800336e0 f i LIBCMTD:guard_support.obj
 0001:00032700       __castguard_check_failure_debugbreak 0000000180033700 f i LIBCMTD:guard_support.obj
 0001:00032720       __castguard_check_failure_fastfail 0000000180033720 f i LIBCMTD:guard_support.obj
 0001:00032750       __castguard_check_failure_nop 0000000180033750 f i LIBCMTD:guard_support.obj
 0001:00032760       __castguard_check_failure_os_handled 0000000180033760 f i LIBCMTD:guard_support.obj
 0001:00032830       __castguard_slow_path_check_debugbreak 0000000180033830 f i LIBCMTD:guard_support.obj
 0001:00032870       __castguard_slow_path_check_fastfail 0000000180033870 f i LIBCMTD:guard_support.obj
 0001:000328c0       __castguard_slow_path_check_nop 00000001800338c0 f i LIBCMTD:guard_support.obj
 0001:000328d0       __castguard_slow_path_check_os_handled 00000001800338d0 f i LIBCMTD:guard_support.obj
 0001:00032990       _guard_icall_checks_enforced 0000000180033990 f i LIBCMTD:guard_support.obj
 0001:000329d0       _guard_rf_checks_enforced  00000001800339d0 f i LIBCMTD:guard_support.obj
 0001:00032aa0       __security_init_cookie     0000000180033aa0 f   LIBCMTD:gs_support.obj
 0001:00032b20       ?__scrt_initialize_type_info@@YAXXZ 0000000180033b20 f   LIBCMTD:tncleanup.obj
 0001:00032b40       ?__scrt_uninitialize_type_info@@YAXXZ 0000000180033b40 f   LIBCMTD:tncleanup.obj
 0001:00032b60       __local_stdio_scanf_options 0000000180033b60 f i LIBCMTD:default_local_stdio_options.obj
 0001:00032b70       __scrt_initialize_default_local_stdio_options 0000000180033b70 f   LIBCMTD:default_local_stdio_options.obj
 0001:00032bc0       __scrt_get_dyn_tls_init_callback 0000000180033bc0 f   LIBCMTD:dyn_tls_init.obj
 0001:00032bd0       _RTC_Initialize            0000000180033bd0 f   LIBCMTD:initsect.obj
 0001:00032c20       _RTC_Terminate             0000000180033c20 f   LIBCMTD:initsect.obj
 0001:00033190       ?_RTC_GetSrcLine@@YAHPEAEPEA_WKPEAH1K@Z 0000000180034190 f   LIBCMTD:pdblkup.obj
 0001:00033560       ??0bad_alloc@std@@AEAA@QEBD@Z 0000000180034560 f i LIBCMTD:throw_bad_alloc.obj
 0001:000335a0       ??0bad_alloc@std@@QEAA@AEBV01@@Z 00000001800345a0 f i LIBCMTD:throw_bad_alloc.obj
 0001:000335e0       ??0bad_alloc@std@@QEAA@XZ  00000001800345e0 f i LIBCMTD:throw_bad_alloc.obj
 0001:00033620       ??0bad_array_new_length@std@@QEAA@AEBV01@@Z 0000000180034620 f i LIBCMTD:throw_bad_alloc.obj
 0001:00033660       ??0bad_array_new_length@std@@QEAA@XZ 0000000180034660 f i LIBCMTD:throw_bad_alloc.obj
 0001:000336a0       ??0exception@std@@QEAA@AEBV01@@Z 00000001800346a0 f i LIBCMTD:throw_bad_alloc.obj
 0001:00033700       ??0exception@std@@QEAA@QEBDH@Z 0000000180034700 f i LIBCMTD:throw_bad_alloc.obj
 0001:00033750       ??1bad_alloc@std@@UEAA@XZ  0000000180034750 f i LIBCMTD:throw_bad_alloc.obj
 0001:00033770       ??1bad_array_new_length@std@@UEAA@XZ 0000000180034770 f i LIBCMTD:throw_bad_alloc.obj
 0001:00033790       ??1exception@std@@UEAA@XZ  0000000180034790 f i LIBCMTD:throw_bad_alloc.obj
 0001:000337c0       ??_Gbad_alloc@std@@UEAAPEAXI@Z 00000001800347c0 f i LIBCMTD:throw_bad_alloc.obj
 0001:000337c0       ??_Ebad_alloc@std@@UEAAPEAXI@Z 00000001800347c0 f i LIBCMTD:throw_bad_alloc.obj
 0001:00033800       ??_Gbad_array_new_length@std@@UEAAPEAXI@Z 0000000180034800 f i LIBCMTD:throw_bad_alloc.obj
 0001:00033800       ??_Ebad_array_new_length@std@@UEAAPEAXI@Z 0000000180034800 f i LIBCMTD:throw_bad_alloc.obj
 0001:00033840       ??_Gexception@std@@UEAAPEAXI@Z 0000000180034840 f i LIBCMTD:throw_bad_alloc.obj
 0001:00033840       ??_Eexception@std@@UEAAPEAXI@Z 0000000180034840 f i LIBCMTD:throw_bad_alloc.obj
 0001:00033880       ?__scrt_throw_std_bad_alloc@@YAXXZ 0000000180034880 f   LIBCMTD:throw_bad_alloc.obj
 0001:000338b0       ?__scrt_throw_std_bad_array_new_length@@YAXXZ 00000001800348b0 f   LIBCMTD:throw_bad_alloc.obj
 0001:000338e0       ?what@exception@std@@UEBAPEBDXZ 00000001800348e0 f i LIBCMTD:throw_bad_alloc.obj
 0001:00033920       ??1type_info@@UEAA@XZ      0000000180034920 f   LIBCMTD:std_type_info_static.obj
 0001:00033940       ??_Gtype_info@@UEAAPEAXI@Z 0000000180034940 f i LIBCMTD:std_type_info_static.obj
 0001:00033940       ??_Etype_info@@UEAAPEAXI@Z 0000000180034940 f i LIBCMTD:std_type_info_static.obj
 0001:0003397c       ??$?2PEAUHINSTANCE__@@@Wrapper@?$CSimpleArray@PEAUHINSTANCE__@@V?$CSimpleArrayEqualHelper@PEAUHINSTANCE__@@@ATL@@@ATL@@SAPEAX_KPEAPEAUHINSTANCE__@@@Z 000000018003497c f i atls:atlbase.obj
 0001:00033980       ??0?$CSimpleArray@PEAUHINSTANCE__@@V?$CSimpleArrayEqualHelper@PEAUHINSTANCE__@@@ATL@@@ATL@@QEAA@XZ 0000000180034980 f i atls:atlbase.obj
 0001:00033990       ??0CAtlBaseModule@ATL@@QEAA@XZ 0000000180034990 f   atls:atlbase.obj
 0001:00033a38       ??0Wrapper@?$CSimpleArray@PEAUHINSTANCE__@@V?$CSimpleArrayEqualHelper@PEAUHINSTANCE__@@@ATL@@@ATL@@QEAA@AEBQEAUHINSTANCE__@@@Z 0000000180034a38 f i atls:atlbase.obj
 0001:00033a44       ??0_ATL_BASE_MODULE70@ATL@@QEAA@XZ 0000000180034a44 f i atls:atlbase.obj
 0001:00033a70       ??1?$CSimpleArray@PEAUHINSTANCE__@@V?$CSimpleArrayEqualHelper@PEAUHINSTANCE__@@@ATL@@@ATL@@QEAA@XZ 0000000180034a70 f i atls:atlbase.obj
 0001:00033a98       ??1CAtlBaseModule@ATL@@QEAA@XZ 0000000180034a98 f   atls:atlbase.obj
 0001:00033acc       ??1_ATL_BASE_MODULE70@ATL@@QEAA@XZ 0000000180034acc f i atls:atlbase.obj
 0001:00033af8       ??A?$CSimpleArray@PEAUHINSTANCE__@@V?$CSimpleArrayEqualHelper@PEAUHINSTANCE__@@@ATL@@@ATL@@QEAAAEAPEAUHINSTANCE__@@H@Z 0000000180034af8 f i atls:atlbase.obj
 0001:00033b24       ?Add@?$CSimpleArray@PEAUHINSTANCE__@@V?$CSimpleArrayEqualHelper@PEAUHINSTANCE__@@@ATL@@@ATL@@QEAAHAEBQEAUHINSTANCE__@@@Z 0000000180034b24 f i atls:atlbase.obj
 0001:00033bc4       ?AddResourceInstance@CAtlBaseModule@ATL@@QEAA_NPEAUHINSTANCE__@@@Z 0000000180034bc4 f   atls:atlbase.obj
 0001:00033c0c       ?GetHInstanceAt@CAtlBaseModule@ATL@@QEAAPEAUHINSTANCE__@@H@Z 0000000180034c0c f   atls:atlbase.obj
 0001:00033c84       ?GetSize@?$CSimpleArray@PEAUHINSTANCE__@@V?$CSimpleArrayEqualHelper@PEAUHINSTANCE__@@@ATL@@@ATL@@QEBAHXZ 0000000180034c84 f i atls:atlbase.obj
 0001:00033c88       ?InternalSetAtIndex@?$CSimpleArray@PEAUHINSTANCE__@@V?$CSimpleArrayEqualHelper@PEAUHINSTANCE__@@@ATL@@@ATL@@QEAAXHAEBQEAUHINSTANCE__@@@Z 0000000180034c88 f i atls:atlbase.obj
 0001:00033ca0       ?RemoveAll@?$CSimpleArray@PEAUHINSTANCE__@@V?$CSimpleArrayEqualHelper@PEAUHINSTANCE__@@@ATL@@@ATL@@QEAAXXZ 0000000180034ca0 f i atls:atlbase.obj
 0001:00033cc8       ?RemoveAt@?$CSimpleArray@PEAUHINSTANCE__@@V?$CSimpleArrayEqualHelper@PEAUHINSTANCE__@@@ATL@@@ATL@@QEAAHH@Z 0000000180034cc8 f i atls:atlbase.obj
 0001:00033d60       ?RemoveResourceInstance@CAtlBaseModule@ATL@@QEAA_NPEAUHINSTANCE__@@@Z 0000000180034d60 f   atls:atlbase.obj
 0001:00033de8       ?memmove_s@Checked@ATL@@YAXPEAX_KPEBX1@Z 0000000180034de8 f i atls:atlbase.obj
 0001:00034290       ?GetCodeAddress@_stdcallthunk@ATL@@QEAAPEAXXZ 0000000180035290 f i atls:atlthunk.obj
 0001:000342bc       ?Init@_stdcallthunk@ATL@@QEAAH_KPEAX@Z 00000001800352bc f i atls:atlthunk.obj
 0001:0003430c       ?__AllocStdCallThunk@@YAPEAXXZ 000000018003530c f   atls:atlthunk.obj
 0001:00034314       ?__AllocStdCallThunk@ATL@@YAPEAXXZ 0000000180035314 f   atls:atlthunk.obj
 0001:0003431c       ?__AllocStdCallThunk_cmn@@YAPEAXXZ 000000018003531c f   atls:atlthunk.obj
 0001:000343f4       ?__FreeStdCallThunk@@YAXPEAX@Z 00000001800353f4 f   atls:atlthunk.obj
 0001:00034414       ?__FreeStdCallThunk@ATL@@YAXPEAX@Z 0000000180035414 f   atls:atlthunk.obj
 0001:00034434       ?__FreeStdCallThunk_cmn@@YAXPEAX@Z 0000000180035434 f   atls:atlthunk.obj
 0001:000344d4       AtlThunk_AllocateData      00000001800354d4 f   atls:atlthunk.obj
 0001:00034550       AtlThunk_DataToCode        0000000180035550 f   atls:atlthunk.obj
 0001:000345a4       AtlThunk_FreeData          00000001800355a4 f   atls:atlthunk.obj
 0001:00034604       AtlThunk_InitData          0000000180035604 f   atls:atlthunk.obj
 0001:000346c0       memset_repmovs             00000001800356c0 f   libvcruntimed:memset.obj
 0001:000346e0       memset                     00000001800356e0 f   libvcruntimed:memset.obj
 0001:00034870       ??$__crt_interlocked_exchange_pointer@$$A6AXXZP6AXXZ@@YAP6AXXZPEDS6AXXZQ6AXXZ@Z 0000000180035870 f i libvcruntimed:purevirt.obj
 0001:00034890       ??$__crt_interlocked_read_pointer@$$A6AXXZ@@YAP6AXXZPEDS6AXXZ@Z 0000000180035890 f i libvcruntimed:purevirt.obj
 0001:000348b0       ?__crt_interlocked_read_64@@YA_JPED_J@Z 00000001800358b0 f i libvcruntimed:purevirt.obj
 0001:000348d0       _get_purecall_handler      00000001800358d0 f   libvcruntimed:purevirt.obj
 0001:000348f0       _purecall                  00000001800358f0 f   libvcruntimed:purevirt.obj
 0001:00034930       _set_purecall_handler      0000000180035930 f   libvcruntimed:purevirt.obj
 0001:00034960       memcmp                     0000000180035960 f   libvcruntimed:memcmp.obj
 0001:00034a40       memcpy_repmovs             0000000180035a40 f   libvcruntimed:memcpy.obj
 0001:00034a60       memcpy                     0000000180035a60 f   libvcruntimed:memcpy.obj
 0001:00034a60       memmove                    0000000180035a60 f   libvcruntimed:memcpy.obj
 0001:000350e0       wcsstr                     00000001800360e0 f   libvcruntimed:wcsstr.obj
 0001:00035740       __vcrt_initialize          0000000180036740 f   libvcruntimed:initialization.obj
 0001:00035780       __vcrt_thread_attach       0000000180036780 f   libvcruntimed:initialization.obj
 0001:000357a0       __vcrt_thread_detach       00000001800367a0 f   libvcruntimed:initialization.obj
 0001:000357c0       __vcrt_uninitialize        00000001800367c0 f   libvcruntimed:initialization.obj
 0001:000357e0       __vcrt_uninitialize_critical 00000001800367e0 f   libvcruntimed:initialization.obj
 0001:00035800       __C_specific_handler       0000000180036800 f   libvcruntimed:riscchandler.obj
 0001:00035c70       ??$?0AEAViterator@TryBlockMap4@FH4@@AEAV012@$0A@@?$pair@Viterator@TryBlockMap4@FH4@@V123@@std@@QEAA@AEAViterator@TryBlockMap4@FH4@@0@Z 0000000180036c70 f i libvcruntimed:risctrnsctrl.obj
 0001:00035cd0       ??$?0AEAViterator@TryBlockMap@__FrameHandler3@@AEAV012@$0A@@?$pair@Viterator@TryBlockMap@__FrameHandler3@@V123@@std@@QEAA@AEAViterator@TryBlockMap@__FrameHandler3@@0@Z 0000000180036cd0 f i libvcruntimed:risctrnsctrl.obj
 0001:00035ea0       ??$_CallSETranslator@V__FrameHandler3@@@@YAHPEAUEHExceptionRecord@@PEA_KPEAU_CONTEXT@@PEAU_xDISPATCHER_CONTEXT@@PEBU_s_FuncInfo@@K1H@Z 0000000180036ea0 f i libvcruntimed:risctrnsctrl.obj
 0001:00035f30       ??$_CallSETranslator@V__FrameHandler4@@@@YAHPEAUEHExceptionRecord@@PEA_KPEAU_CONTEXT@@PEAU_xDISPATCHER_CONTEXT@@PEAUFuncInfo4@FH4@@K1H@Z 0000000180036f30 f i libvcruntimed:risctrnsctrl.obj
 0001:00035fc0       ??$forward@AEAViterator@TryBlockMap4@FH4@@@std@@YAAEAViterator@TryBlockMap4@FH4@@AEAV123@@Z 0000000180036fc0 f i libvcruntimed:risctrnsctrl.obj
 0001:00035fd0       ??$forward@AEAViterator@TryBlockMap@__FrameHandler3@@@std@@YAAEAViterator@TryBlockMap@__FrameHandler3@@AEAV123@@Z 0000000180036fd0 f i libvcruntimed:risctrnsctrl.obj
 0001:00035fe0       ??0FuncInfo4@FH4@@QEAA@XZ  0000000180036fe0 f i libvcruntimed:risctrnsctrl.obj
 0001:00036050       ??0FuncInfoHeader@FH4@@QEAA@XZ 0000000180037050 f i libvcruntimed:risctrnsctrl.obj
 0001:00036070       ??0iterator@TryBlockMap4@FH4@@QEAA@AEAV12@I@Z 0000000180037070 f i libvcruntimed:risctrnsctrl.obj
 0001:000360a0       ??0iterator@TryBlockMap@__FrameHandler3@@QEAA@AEAV12@I@Z 00000001800370a0 f i libvcruntimed:risctrnsctrl.obj
 0001:000360d0       ??4iterator@TryBlockMap4@FH4@@QEAAAEAV012@AEBV012@@Z 00000001800370d0 f i libvcruntimed:risctrnsctrl.obj
 0001:000360f0       ??9iterator@TryBlockMap4@FH4@@QEBA_NAEBV012@@Z 00000001800370f0 f i libvcruntimed:risctrnsctrl.obj
 0001:00036130       ??Diterator@TryBlockMap4@FH4@@QEAA?AUTryBlockMapEntry4@2@XZ 0000000180037130 f i libvcruntimed:risctrnsctrl.obj
 0001:00036160       ??Eiterator@TryBlockMap4@FH4@@QEAAAEAV012@XZ 0000000180037160 f i libvcruntimed:risctrnsctrl.obj
 0001:000361a0       ?CatchTryBlock@__FrameHandler3@@SAPEBU_s_TryBlockMapEntry@@PEBU_s_FuncInfo@@H@Z 00000001800371a0 f   libvcruntimed:risctrnsctrl.obj
 0001:00036230       ?DecompFuncInfo@FH4@@YA_JPEAEAEAUFuncInfo4@1@_KH@Z 0000000180037230 f i libvcruntimed:risctrnsctrl.obj
 0001:00036270       ?DecompFuncInfo@FH4@@YA_JPEAEAEAUFuncInfo4@1@_KH_N@Z 0000000180037270 f i libvcruntimed:risctrnsctrl.obj
 0001:00036440       ?DecompTryBlock@TryBlockMap4@FH4@@AEAAXXZ 0000000180037440 f i libvcruntimed:risctrnsctrl.obj
 0001:000364c0       ?ExecutionInCatch@__FrameHandler3@@SA_NPEAU_xDISPATCHER_CONTEXT@@PEBU_s_FuncInfo@@@Z 00000001800374c0 f   libvcruntimed:risctrnsctrl.obj
 0001:00036510       ?ExecutionInCatch@__FrameHandler4@@SA_NPEAU_xDISPATCHER_CONTEXT@@PEAUFuncInfo4@FH4@@@Z 0000000180037510 f   libvcruntimed:risctrnsctrl.obj
 0001:00036530       ?FrameUnwindToEmptyState@__FrameHandler3@@SAXPEA_KPEAU_xDISPATCHER_CONTEXT@@PEBU_s_FuncInfo@@@Z 0000000180037530 f   libvcruntimed:risctrnsctrl.obj
 0001:000365d0       ?FrameUnwindToEmptyState@__FrameHandler4@@SAXPEA_KPEAU_xDISPATCHER_CONTEXT@@PEAUFuncInfo4@FH4@@@Z 00000001800375d0 f   libvcruntimed:risctrnsctrl.obj
 0001:00036620       ?GetEstablisherFrame@__FrameHandler3@@SAPEA_KPEA_KPEAU_xDISPATCHER_CONTEXT@@PEBU_s_FuncInfo@@0@Z 0000000180037620 f   libvcruntimed:risctrnsctrl.obj
 0001:00036790       ?GetEstablisherFrame@__FrameHandler4@@SAPEA_KPEA_KPEAU_xDISPATCHER_CONTEXT@@PEAUFuncInfo4@FH4@@0@Z 0000000180037790 f   libvcruntimed:risctrnsctrl.obj
 0001:00036800       ?GetRangeOfTrysToCheck@__FrameHandler3@@SA?AU?$pair@Viterator@TryBlockMap@__FrameHandler3@@V123@@std@@AEAVTryBlockMap@1@HPEAU_xDISPATCHER_CONTEXT@@PEBU_s_FuncInfo@@H@Z 0000000180037800 f   libvcruntimed:risctrnsctrl.obj
 0001:00036a40       ?GetRangeOfTrysToCheck@__FrameHandler4@@SA?AU?$pair@Viterator@TryBlockMap4@FH4@@V123@@std@@AEAVTryBlockMap4@FH4@@HPEAU_xDISPATCHER_CONTEXT@@PEAUFuncInfo4@5@H@Z 0000000180037a40 f   libvcruntimed:risctrnsctrl.obj
 0001:00036bf0       ?ReadInt@FH4@@YAHPEAPEAE@Z 0000000180037bf0 f i libvcruntimed:risctrnsctrl.obj
 0001:00036c30       ?ReadUnsigned@FH4@@YAIPEAPEAE@Z 0000000180037c30 f i libvcruntimed:risctrnsctrl.obj
 0001:00036cc0       ?UnwindNestedFrames@__FrameHandler3@@SAXPEA_KPEAUEHExceptionRecord@@PEAU_CONTEXT@@0PEAXPEBU_s_FuncInfo@@HHPEBU_s_HandlerType@@PEAU_xDISPATCHER_CONTEXT@@E@Z 0000000180037cc0 f   libvcruntimed:risctrnsctrl.obj
 0001:00036e30       ?UnwindNestedFrames@__FrameHandler4@@SAXPEA_KPEAUEHExceptionRecord@@PEAU_CONTEXT@@0PEAXPEAUFuncInfo4@FH4@@HHPEAUHandlerType4@5@PEAU_xDISPATCHER_CONTEXT@@E@Z 0000000180037e30 f   libvcruntimed:risctrnsctrl.obj
 0001:00037000       ?begin@TryBlockMap4@FH4@@QEAA?AViterator@12@XZ 0000000180038000 f i libvcruntimed:risctrnsctrl.obj
 0001:00037030       ?end@TryBlockMap4@FH4@@QEAA?AViterator@12@XZ 0000000180038030 f i libvcruntimed:risctrnsctrl.obj
 0001:00037060       ?imageRelToByteBuffer@FH4@@YAPEAE_KH@Z 0000000180038060 f i libvcruntimed:risctrnsctrl.obj
 0001:00037080       ?incrementToSentinel@iterator@TryBlockMap4@FH4@@QEAAXXZ 0000000180038080 f i libvcruntimed:risctrnsctrl.obj
 0001:000370a0       ?setBuffer@TryBlockMap4@FH4@@QEAAXViterator@12@@Z 00000001800380a0 f i libvcruntimed:risctrnsctrl.obj
 0001:00037110       _CreateFrameInfo           0000000180038110 f   libvcruntimed:risctrnsctrl.obj
 0001:00037180       _FindAndUnlinkFrame        0000000180038180 f   libvcruntimed:risctrnsctrl.obj
 0001:00037200       _GetImageBase              0000000180038200 f   libvcruntimed:risctrnsctrl.obj
 0001:00037220       _GetThrowImageBase         0000000180038220 f   libvcruntimed:risctrnsctrl.obj
 0001:00037240       _SetImageBase              0000000180038240 f   libvcruntimed:risctrnsctrl.obj
 0001:00037260       _SetThrowImageBase         0000000180038260 f   libvcruntimed:risctrnsctrl.obj
 0001:00037280       __CxxFrameHandler          0000000180038280 f   libvcruntimed:risctrnsctrl.obj
 0001:000372c0       __CxxFrameHandler2         00000001800382c0 f   libvcruntimed:risctrnsctrl.obj
 0001:00037300       __CxxFrameHandler3         0000000180038300 f   libvcruntimed:risctrnsctrl.obj
 0001:000373e0       __CxxFrameHandler4         00000001800383e0 f   libvcruntimed:risctrnsctrl.obj
 0001:000374f0       __C_specific_handler_noexcept 00000001800384f0 f   libvcruntimed:chandler_noexcept.obj
 0001:00037580       __DestructExceptionObject  0000000180038580 f   libvcruntimed:ehhelpers.obj
 0001:00037680       ?_CallMemberFunction0@@YAXQEAX0@Z 0000000180038680 f i libvcruntimed:ehhelpers.obj
 0001:00037750       ?raw_name@type_info@@QEBAPEBDXZ 0000000180038750 f i libvcruntimed:ehhelpers.obj
 0001:00037760       _IsExceptionObjectToBeDestroyed 0000000180038760 f   libvcruntimed:ehhelpers.obj
 0001:000377b0       _SetWinRTOutOfMemoryExceptionCallback 00000001800387b0 f   libvcruntimed:ehhelpers.obj
 0001:000377d0       __AdjustPointer            00000001800387d0 f   libvcruntimed:ehhelpers.obj
 0001:00037850       __FrameUnwindFilter        0000000180038850 f   libvcruntimed:ehhelpers.obj
 0001:00037900       __GetPlatformExceptionInfo 0000000180038900 f   libvcruntimed:ehhelpers.obj
 0001:000379b0       __current_exception        00000001800389b0 f   libvcruntimed:ehhelpers.obj
 0001:000379d0       __current_exception_context 00000001800389d0 f   libvcruntimed:ehhelpers.obj
 0001:000379f0       __processing_throw         00000001800389f0 f   libvcruntimed:ehhelpers.obj
 0001:00037a10       __std_terminate            0000000180038a10 f   libvcruntimed:ehhelpers.obj
 0001:00037a20       _is_exception_typeof       0000000180038a20 f   libvcruntimed:ehhelpers.obj
 0001:00037bb0       ??$?RD@__crt_internal_free_policy@@QEBAXQEBD@Z 0000000180038bb0 f i libvcruntimed:std_type_info.obj
 0001:00037be0       ??$?RX@__crt_internal_free_policy@@QEBAXQEBX@Z 0000000180038be0 f i libvcruntimed:std_type_info.obj
 0001:00037c10       ??$__crt_interlocked_compare_exchange_pointer@$$CBDPEAD$$T@@YAPEBDPEDSEBDQEAD$$T@Z 0000000180038c10 f i libvcruntimed:std_type_info.obj
 0001:00037c50       ??$__crt_interlocked_read_pointer@$$CBD@@YAPEBDPEDSEBD@Z 0000000180038c50 f i libvcruntimed:std_type_info.obj
 0001:00037c70       ??0?$__crt_unique_heap_ptr@DU__crt_internal_free_policy@@@@QEAA@QEAD@Z 0000000180038c70 f i libvcruntimed:std_type_info.obj
 0001:00037c90       ??0?$__crt_unique_heap_ptr@XU__crt_internal_free_policy@@@@QEAA@QEAX@Z 0000000180038c90 f i libvcruntimed:std_type_info.obj
 0001:00037cb0       ??1?$__crt_unique_heap_ptr@DU__crt_internal_free_policy@@@@QEAA@XZ 0000000180038cb0 f i libvcruntimed:std_type_info.obj
 0001:00037cd0       ??1?$__crt_unique_heap_ptr@XU__crt_internal_free_policy@@@@QEAA@XZ 0000000180038cd0 f i libvcruntimed:std_type_info.obj
 0001:00037cf0       ??B?$__crt_unique_heap_ptr@DU__crt_internal_free_policy@@@@QEBA_NXZ 0000000180038cf0 f i libvcruntimed:std_type_info.obj
 0001:00037d10       ??B?$__crt_unique_heap_ptr@XU__crt_internal_free_policy@@@@QEBA_NXZ 0000000180038d10 f i libvcruntimed:std_type_info.obj
 0001:00037db0       ?detach@?$__crt_unique_heap_ptr@XU__crt_internal_free_policy@@@@QEAAPEAXXZ 0000000180038db0 f i libvcruntimed:std_type_info.obj
 0001:00037de0       ?get@?$__crt_unique_heap_ptr@DU__crt_internal_free_policy@@@@QEBAPEADXZ 0000000180038de0 f i libvcruntimed:std_type_info.obj
 0001:00037df0       ?get@?$__crt_unique_heap_ptr@XU__crt_internal_free_policy@@@@QEBAPEAXXZ 0000000180038df0 f i libvcruntimed:std_type_info.obj
 0001:00037e00       ?is_valid@?$__crt_unique_heap_ptr@DU__crt_internal_free_policy@@@@QEBA_NXZ 0000000180038e00 f i libvcruntimed:std_type_info.obj
 0001:00037e30       ?is_valid@?$__crt_unique_heap_ptr@XU__crt_internal_free_policy@@@@QEBA_NXZ 0000000180038e30 f i libvcruntimed:std_type_info.obj
 0001:00037e60       ?release@?$__crt_unique_heap_ptr@DU__crt_internal_free_policy@@@@QEAAXXZ 0000000180038e60 f i libvcruntimed:std_type_info.obj
 0001:00037e90       ?release@?$__crt_unique_heap_ptr@XU__crt_internal_free_policy@@@@QEAAXXZ 0000000180038e90 f i libvcruntimed:std_type_info.obj
 0001:00037ec0       __std_type_info_compare    0000000180038ec0 f   libvcruntimed:std_type_info.obj
 0001:00037f00       __std_type_info_destroy_list 0000000180038f00 f   libvcruntimed:std_type_info.obj
 0001:00037f60       __std_type_info_hash       0000000180038f60 f   libvcruntimed:std_type_info.obj
 0001:00038010       __std_type_info_name       0000000180039010 f   libvcruntimed:std_type_info.obj
 0001:000382c0       __vcrt_GetModuleFileNameW  00000001800392c0 f   libvcruntimed:winapi_thunks.obj
 0001:000382f0       __vcrt_GetModuleHandleW    00000001800392f0 f   libvcruntimed:winapi_thunks.obj
 0001:00038310       __vcrt_LoadLibraryExW      0000000180039310 f   libvcruntimed:winapi_thunks.obj
 0001:00038340       ??$?RD@__crt_public_free_policy@@QEBAXQEBD@Z 0000000180039340 f i libvcruntimed:std_exception.obj
 0001:00038360       ??0?$__crt_unique_heap_ptr@DU__crt_public_free_policy@@@@QEAA@QEAD@Z 0000000180039360 f i libvcruntimed:std_exception.obj
 0001:00038380       ??1?$__crt_unique_heap_ptr@DU__crt_public_free_policy@@@@QEAA@XZ 0000000180039380 f i libvcruntimed:std_exception.obj
 0001:000383a0       ??B?$__crt_unique_heap_ptr@DU__crt_public_free_policy@@@@QEBA_NXZ 00000001800393a0 f i libvcruntimed:std_exception.obj
 0001:000383c0       ?detach@?$__crt_unique_heap_ptr@DU__crt_public_free_policy@@@@QEAAPEADXZ 00000001800393c0 f i libvcruntimed:std_exception.obj
 0001:000383f0       ?get@?$__crt_unique_heap_ptr@DU__crt_public_free_policy@@@@QEBAPEADXZ 00000001800393f0 f i libvcruntimed:std_exception.obj
 0001:00038400       ?is_valid@?$__crt_unique_heap_ptr@DU__crt_public_free_policy@@@@QEBA_NXZ 0000000180039400 f i libvcruntimed:std_exception.obj
 0001:00038430       ?release@?$__crt_unique_heap_ptr@DU__crt_public_free_policy@@@@QEAAXXZ 0000000180039430 f i libvcruntimed:std_exception.obj
 0001:00038460       __std_exception_copy       0000000180039460 f   libvcruntimed:std_exception.obj
 0001:000385a0       __std_exception_destroy    00000001800395a0 f   libvcruntimed:std_exception.obj
 0001:000385e0       _CxxThrowException         00000001800395e0 f   libvcruntimed:throw.obj
 0001:00038710       ??$?RU__vcrt_ptd@@@__crt_internal_free_policy@@QEBAXQEBU__vcrt_ptd@@@Z 0000000180039710 f i libvcruntimed:per_thread_data.obj
 0001:00038740       ??0?$__crt_unique_heap_ptr@U__vcrt_ptd@@U__crt_internal_free_policy@@@@QEAA@QEAU__vcrt_ptd@@@Z 0000000180039740 f i libvcruntimed:per_thread_data.obj
 0001:00038780       ??1?$__crt_unique_heap_ptr@U__vcrt_ptd@@U__crt_internal_free_policy@@@@QEAA@XZ 0000000180039780 f i libvcruntimed:per_thread_data.obj
 0001:000387c0       ??B?$__crt_unique_heap_ptr@U__vcrt_ptd@@U__crt_internal_free_policy@@@@QEBA_NXZ 00000001800397c0 f i libvcruntimed:per_thread_data.obj
 0001:000387e0       ?detach@?$__crt_unique_heap_ptr@U__vcrt_ptd@@U__crt_internal_free_policy@@@@QEAAPEAU__vcrt_ptd@@XZ 00000001800397e0 f i libvcruntimed:per_thread_data.obj
 0001:00038810       ?get@?$__crt_unique_heap_ptr@U__vcrt_ptd@@U__crt_internal_free_policy@@@@QEBAPEAU__vcrt_ptd@@XZ 0000000180039810 f i libvcruntimed:per_thread_data.obj
 0001:00038820       ?is_valid@?$__crt_unique_heap_ptr@U__vcrt_ptd@@U__crt_internal_free_policy@@@@QEBA_NXZ 0000000180039820 f i libvcruntimed:per_thread_data.obj
 0001:00038850       ?release@?$__crt_unique_heap_ptr@U__vcrt_ptd@@U__crt_internal_free_policy@@@@QEAAXXZ 0000000180039850 f i libvcruntimed:per_thread_data.obj
 0001:000388c0       __vcrt_freefls             00000001800398c0 f   libvcruntimed:per_thread_data.obj
 0001:00038900       __vcrt_freeptd             0000000180039900 f   libvcruntimed:per_thread_data.obj
 0001:00038960       __vcrt_getptd              0000000180039960 f   libvcruntimed:per_thread_data.obj
 0001:00038990       __vcrt_getptd_noexit       0000000180039990 f   libvcruntimed:per_thread_data.obj
 0001:00038b30       __vcrt_getptd_noinit       0000000180039b30 f   libvcruntimed:per_thread_data.obj
 0001:00038b90       __vcrt_initialize_ptd      0000000180039b90 f   libvcruntimed:per_thread_data.obj
 0001:00038be0       __vcrt_uninitialize_ptd    0000000180039be0 f   libvcruntimed:per_thread_data.obj
 0001:00038c10       __vcrt_initialize_locks    0000000180039c10 f   libvcruntimed:locks.obj
 0001:00038c80       __vcrt_lock                0000000180039c80 f   libvcruntimed:locks.obj
 0001:00038cb0       __vcrt_uninitialize_locks  0000000180039cb0 f   libvcruntimed:locks.obj
 0001:00038d10       __vcrt_unlock              0000000180039d10 f   libvcruntimed:locks.obj
 0001:00038d50       _NLG_Notify                0000000180039d50 f   libvcruntimed:notify.obj
 0001:00038d70       __NLG_Dispatch2            0000000180039d70 f   libvcruntimed:notify.obj
 0001:00038d80       __NLG_Return2              0000000180039d80 f   libvcruntimed:notify.obj
 0001:00038da0       __except_validate_context_record 0000000180039da0 f   libvcruntimed:jbcxrval.obj
 0001:00038e00       __except_validate_jump_buffer 0000000180039e00 f   libvcruntimed:jbcxrval.obj
 0001:00038e20       __except_validate_jump_buffer_common 0000000180039e20 f i libvcruntimed:jbcxrval.obj
 0001:00038ea0       ?GetCurrentState@__FrameHandler3@@SAHPEA_KPEAU_xDISPATCHER_CONTEXT@@PEBU_s_FuncInfo@@@Z 0000000180039ea0 f   libvcruntimed:ehstate.obj
 0001:00038f00       ?GetUnwindTryBlock@__FrameHandler3@@SAHPEA_KPEAU_xDISPATCHER_CONTEXT@@PEBU_s_FuncInfo@@@Z 0000000180039f00 f   libvcruntimed:ehstate.obj
 0001:00038f50       ?SetState@__FrameHandler3@@SAXPEA_KPEBU_s_FuncInfo@@H@Z 0000000180039f50 f   libvcruntimed:ehstate.obj
 0001:00038f80       ?SetUnwindTryBlock@__FrameHandler3@@SAXPEA_KPEAU_xDISPATCHER_CONTEXT@@PEBU_s_FuncInfo@@H@Z 0000000180039f80 f   libvcruntimed:ehstate.obj
 0001:00038ff0       ?StateFromControlPc@__FrameHandler3@@SAHPEBU_s_FuncInfo@@PEAU_xDISPATCHER_CONTEXT@@@Z 0000000180039ff0 f   libvcruntimed:ehstate.obj
 0001:00039030       ?StateFromControlPc@__FrameHandler4@@SAHPEAUFuncInfo4@FH4@@PEAU_xDISPATCHER_CONTEXT@@@Z 000000018003a030 f   libvcruntimed:ehstate.obj
 0001:00039070       ?StateFromIp@__FrameHandler3@@SAHPEBU_s_FuncInfo@@PEAU_xDISPATCHER_CONTEXT@@_K@Z 000000018003a070 f   libvcruntimed:ehstate.obj
 0001:00039160       ?StateFromIp@__FrameHandler4@@SAHPEAUFuncInfo4@FH4@@PEAU_xDISPATCHER_CONTEXT@@_K@Z 000000018003a160 f   libvcruntimed:ehstate.obj
 0001:00039250       ?__FuncRelToRealOffset@@YA_KPEAU_xDISPATCHER_CONTEXT@@I@Z 000000018003a250 f i libvcruntimed:ehstate.obj
 0001:00039280       ?__RVAtoRealOffset@@YA_KPEAU_xDISPATCHER_CONTEXT@@H@Z 000000018003a280 f i libvcruntimed:ehstate.obj
 0001:0003b4e0       ??$TypeMatchHelper@V__FrameHandler3@@@@YAHPEBU_s_HandlerType@@PEBU_s_CatchableType@@PEBU_s_ThrowInfo@@@Z 000000018003c4e0 f i libvcruntimed:frame.obj
 0001:0003b6e0       ??$TypeMatchHelper@V__FrameHandler4@@@@YAHPEAUHandlerType4@FH4@@PEBU_s_CatchableType@@PEBU_s_ThrowInfo@@@Z 000000018003c6e0 f i libvcruntimed:frame.obj
 0001:0003b8f0       ??$__InternalCxxFrameHandler@V__FrameHandler3@@@@YA?AW4_EXCEPTION_DISPOSITION@@PEAUEHExceptionRecord@@PEA_KPEAU_CONTEXT@@PEAU_xDISPATCHER_CONTEXT@@PEBU_s_FuncInfo@@H1E@Z 000000018003c8f0 f i libvcruntimed:frame.obj
 0001:0003bd60       ??$__InternalCxxFrameHandler@V__FrameHandler4@@@@YA?AW4_EXCEPTION_DISPOSITION@@PEAUEHExceptionRecord@@PEA_KPEAU_CONTEXT@@PEAU_xDISPATCHER_CONTEXT@@PEAUFuncInfo4@FH4@@H1E@Z 000000018003cd60 f i libvcruntimed:frame.obj
 0001:0003c1f0       ??0HandlerMap4@FH4@@QEAA@PEBUTryBlockMapEntry4@1@_KH@Z 000000018003d1f0 f i libvcruntimed:frame.obj
 0001:0003c2b0       ??0HandlerMap@__FrameHandler3@@QEAA@PEBU_s_TryBlockMapEntry@@_KI@Z 000000018003d2b0 f i libvcruntimed:frame.obj
 0001:0003c300       ??0HandlerType4@FH4@@QEAA@XZ 000000018003d300 f i libvcruntimed:frame.obj
 0001:0003c320       ??0TryBlockMap4@FH4@@QEAA@PEBUFuncInfo4@1@_K@Z 000000018003d320 f i libvcruntimed:frame.obj
 0001:0003c3b0       ??0TryBlockMap@__FrameHandler3@@QEAA@PEBU_s_FuncInfo@@_K@Z 000000018003d3b0 f i libvcruntimed:frame.obj
 0001:0003c3e0       ??0UWMap4@FH4@@QEAA@PEBUFuncInfo4@1@_K@Z 000000018003d3e0 f i libvcruntimed:frame.obj
 0001:0003c450       ??0bad_exception@std@@QEAA@AEBV01@@Z 000000018003d450 f i libvcruntimed:frame.obj
 0001:0003c490       ??0bad_exception@std@@QEAA@XZ 000000018003d490 f i libvcruntimed:frame.obj
 0001:0003c4d0       ??0iterator@HandlerMap4@FH4@@QEAA@AEAV12@I@Z 000000018003d4d0 f i libvcruntimed:frame.obj
 0001:0003c500       ??0iterator@HandlerMap@__FrameHandler3@@QEAA@AEAV12@I@Z 000000018003d500 f i libvcruntimed:frame.obj
 0001:0003c530       ??0iterator@UWMap4@FH4@@QEAA@AEAV12@PEAE@Z 000000018003d530 f i libvcruntimed:frame.obj
 0001:0003c560       ??1bad_exception@std@@UEAA@XZ 000000018003d560 f i libvcruntimed:frame.obj
 0001:0003c580       ??4iterator@UWMap4@FH4@@QEAAAEAV012@AEBV012@@Z 000000018003d580 f i libvcruntimed:frame.obj
 0001:0003c5d0       ??8iterator@HandlerMap4@FH4@@QEBA_NAEBV012@@Z 000000018003d5d0 f i libvcruntimed:frame.obj
 0001:0003c610       ??8iterator@HandlerMap@__FrameHandler3@@QEBA_NAEBV012@@Z 000000018003d610 f i libvcruntimed:frame.obj
 0001:0003c650       ??8type_info@@QEBA_NAEBV0@@Z 000000018003d650 f i libvcruntimed:frame.obj
 0001:0003c6a0       ??9iterator@HandlerMap4@FH4@@QEBA_NAEBV012@@Z 000000018003d6a0 f i libvcruntimed:frame.obj
 0001:0003c6e0       ??9iterator@HandlerMap@__FrameHandler3@@QEBA_NAEBV012@@Z 000000018003d6e0 f i libvcruntimed:frame.obj
 0001:0003c720       ??Diterator@HandlerMap4@FH4@@QEAA?AUHandlerType4@2@XZ 000000018003d720 f i libvcruntimed:frame.obj
 0001:0003c750       ??Diterator@HandlerMap@__FrameHandler3@@QEAA?BU_s_HandlerType@@XZ 000000018003d750 f i libvcruntimed:frame.obj
 0001:0003c790       ??Diterator@TryBlockMap@__FrameHandler3@@QEAA?BU_s_TryBlockMapEntry@@XZ 000000018003d790 f i libvcruntimed:frame.obj
 0001:0003c7e0       ??Diterator@UWMap4@FH4@@QEAA?AUUnwindMapEntry4@2@XZ 000000018003d7e0 f i libvcruntimed:frame.obj
 0001:0003c860       ??Eiterator@HandlerMap4@FH4@@QEAAAEAV012@XZ 000000018003d860 f i libvcruntimed:frame.obj
 0001:0003c8a0       ??Eiterator@HandlerMap@__FrameHandler3@@QEAAAEAV012@XZ 000000018003d8a0 f i libvcruntimed:frame.obj
 0001:0003c8c0       ??Eiterator@TryBlockMap@__FrameHandler3@@QEAAAEAV012@XZ 000000018003d8c0 f i libvcruntimed:frame.obj
 0001:0003c8e0       ??Eiterator@UWMap4@FH4@@QEAAAEAV012@XZ 000000018003d8e0 f i libvcruntimed:frame.obj
 0001:0003c920       ??Giterator@UWMap4@FH4@@QEBA_JAEBV012@@Z 000000018003d920 f i libvcruntimed:frame.obj
 0001:0003c940       ??Miterator@TryBlockMap4@FH4@@QEBA_NAEBV012@@Z 000000018003d940 f i libvcruntimed:frame.obj
 0001:0003c980       ??Miterator@TryBlockMap@__FrameHandler3@@QEBA_NAEBV012@@Z 000000018003d980 f i libvcruntimed:frame.obj
 0001:0003c9c0       ??Oiterator@UWMap4@FH4@@QEBA_NAEBV012@@Z 000000018003d9c0 f i libvcruntimed:frame.obj
 0001:0003ca00       ??Piterator@UWMap4@FH4@@QEBA_NAEBV012@@Z 000000018003da00 f i libvcruntimed:frame.obj
 0001:0003ca40       ??_Gbad_exception@std@@UEAAPEAXI@Z 000000018003da40 f i libvcruntimed:frame.obj
 0001:0003ca40       ??_Ebad_exception@std@@UEAAPEAXI@Z 000000018003da40 f i libvcruntimed:frame.obj
 0001:0003ca80       ?BuildCatchObject@__FrameHandler3@@SAXPEAUEHExceptionRecord@@PEAXPEBU_s_HandlerType@@PEBU_s_CatchableType@@@Z 000000018003da80 f   libvcruntimed:frame.obj
 0001:0003cac0       ?BuildCatchObject@__FrameHandler4@@SAXPEAUEHExceptionRecord@@PEAXPEAUHandlerType4@FH4@@PEBU_s_CatchableType@@@Z 000000018003dac0 f   libvcruntimed:frame.obj
 0001:0003cb00       ?BuildCatchObjectHelper@__FrameHandler3@@SAHPEAUEHExceptionRecord@@PEAXPEBU_s_HandlerType@@PEBU_s_CatchableType@@@Z 000000018003db00 f   libvcruntimed:frame.obj
 0001:0003cb40       ?BuildCatchObjectHelper@__FrameHandler4@@SAHPEAUEHExceptionRecord@@PEAXPEAUHandlerType4@FH4@@PEBU_s_CatchableType@@@Z 000000018003db40 f   libvcruntimed:frame.obj
 0001:0003cb80       ?CxxCallCatchBlock@__FrameHandler3@@SAPEAXPEAU_EXCEPTION_RECORD@@@Z 000000018003db80 f   libvcruntimed:frame.obj
 0001:0003cde0       ?CxxCallCatchBlock@__FrameHandler4@@SAPEAXPEAU_EXCEPTION_RECORD@@@Z 000000018003dde0 f   libvcruntimed:frame.obj
 0001:0003d110       ?DecompHandler@HandlerMap4@FH4@@AEAAXXZ 000000018003e110 f i libvcruntimed:frame.obj
 0001:0003d4e0       ?FrameUnwindToState@__FrameHandler3@@SAXPEA_KPEAU_xDISPATCHER_CONTEXT@@PEBU_s_FuncInfo@@H@Z 000000018003e4e0 f   libvcruntimed:frame.obj
 0001:0003d730       ?FrameUnwindToState@__FrameHandler4@@SAXPEA_KPEAU_xDISPATCHER_CONTEXT@@PEAUFuncInfo4@FH4@@H@Z 000000018003e730 f   libvcruntimed:frame.obj
 0001:0003da40       ?GetHandlerSearchState@__FrameHandler3@@SAHPEA_KPEAU_xDISPATCHER_CONTEXT@@PEBU_s_FuncInfo@@@Z 000000018003ea40 f i libvcruntimed:frame.obj
 0001:0003daf0       ?GetHandlerSearchState@__FrameHandler4@@SAHPEA_KPEAU_xDISPATCHER_CONTEXT@@PEAUFuncInfo4@FH4@@@Z 000000018003eaf0 f i libvcruntimed:frame.obj
 0001:0003db70       ?GetMaxState@__FrameHandler3@@SAHPEAU_xDISPATCHER_CONTEXT@@PEBU_s_FuncInfo@@@Z 000000018003eb70 f i libvcruntimed:frame.obj
 0001:0003db90       ?GetMaxState@__FrameHandler4@@SAHPEAU_xDISPATCHER_CONTEXT@@PEAUFuncInfo4@FH4@@@Z 000000018003eb90 f i libvcruntimed:frame.obj
 0001:0003ddc0       ?ReadEntry@UWMap4@FH4@@AEAAXPEAPEAE@Z 000000018003edc0 f i libvcruntimed:frame.obj
 0001:0003de70       ?TypeMatch@__FrameHandler3@@SAHPEBU_s_HandlerType@@PEBU_s_CatchableType@@PEBU_s_ThrowInfo@@@Z 000000018003ee70 f   libvcruntimed:frame.obj
 0001:0003dea0       ?TypeMatch@__FrameHandler4@@SAHPEAUHandlerType4@FH4@@PEBU_s_CatchableType@@PEBU_s_ThrowInfo@@@Z 000000018003eea0 f   libvcruntimed:frame.obj
 0001:0003ded0       ?WalkBack@UWMap4@FH4@@AEAAXPEAPEAE@Z 000000018003eed0 f i libvcruntimed:frame.obj
 0001:0003df20       ?WalkBack@iterator@UWMap4@FH4@@QEAAXXZ 000000018003ef20 f i libvcruntimed:frame.obj
 0001:0003df60       ?WalkForward@UWMap4@FH4@@AEAAXPEAPEAE@Z 000000018003ef60 f i libvcruntimed:frame.obj
 0001:0003df90       ?_CallMemberFunction1@@YAXQEAX00@Z 000000018003ef90 f i libvcruntimed:frame.obj
 0001:0003dfd0       ?_CallMemberFunction2@@YAXQEAX00H@Z 000000018003efd0 f i libvcruntimed:frame.obj
 0001:0003e060       ?begin@HandlerMap4@FH4@@QEAA?AViterator@12@XZ 000000018003f060 f i libvcruntimed:frame.obj
 0001:0003e090       ?begin@HandlerMap@__FrameHandler3@@QEAA?AViterator@12@XZ 000000018003f090 f i libvcruntimed:frame.obj
 0001:0003e0c0       ?begin@UWMap4@FH4@@QEAA?AViterator@12@XZ 000000018003f0c0 f i libvcruntimed:frame.obj
 0001:0003e0f0       ?end@HandlerMap4@FH4@@QEAA?AViterator@12@XZ 000000018003f0f0 f i libvcruntimed:frame.obj
 0001:0003e120       ?end@HandlerMap@__FrameHandler3@@QEAA?AViterator@12@XZ 000000018003f120 f i libvcruntimed:frame.obj
 0001:0003e150       ?getESTypes@__FrameHandler3@@SAPEBU_s_ESTypeList@@PEBU_s_FuncInfo@@@Z 000000018003f150 f i libvcruntimed:frame.obj
 0001:0003e190       ?getESTypes@__FrameHandler4@@SAPEBU_s_ESTypeList@@PEAUFuncInfo4@FH4@@@Z 000000018003f190 f i libvcruntimed:frame.obj
 0001:0003e1a0       ?getLastEntry@HandlerMap4@FH4@@QEAAPEAUHandlerType4@2@XZ 000000018003f1a0 f i libvcruntimed:frame.obj
 0001:0003e1e0       ?getLastEntry@HandlerMap@__FrameHandler3@@QEAAPEBU_s_HandlerType@@XZ 000000018003f1e0 f i libvcruntimed:frame.obj
 0001:0003e200       ?getMagicNum@__FrameHandler3@@SAIPEBU_s_FuncInfo@@@Z 000000018003f200 f i libvcruntimed:frame.obj
 0001:0003e220       ?getMagicNum@__FrameHandler4@@SAIPEAUFuncInfo4@FH4@@@Z 000000018003f220 f i libvcruntimed:frame.obj
 0001:0003e230       ?getNumTryBlocks@TryBlockMap4@FH4@@QEAAIXZ 000000018003f230 f i libvcruntimed:frame.obj
 0001:0003e240       ?getNumTryBlocks@TryBlockMap@__FrameHandler3@@QEAAIXZ 000000018003f240 f i libvcruntimed:frame.obj
 0001:0003e260       ?getStartStop@UWMap4@FH4@@QEAAXHHAEAViterator@12@0@Z 000000018003f260 f i libvcruntimed:frame.obj
 0001:0003e380       ?getStateFromIterators@UWMap4@FH4@@SAHAEBViterator@12@H0H0@Z 000000018003f380 f i libvcruntimed:frame.obj
 0001:0003e4c0       ?isEHs@__FrameHandler3@@SA_NPEBU_s_FuncInfo@@@Z 000000018003f4c0 f i libvcruntimed:frame.obj
 0001:0003e500       ?isEHs@__FrameHandler4@@SA_NPEAUFuncInfo4@FH4@@@Z 000000018003f500 f i libvcruntimed:frame.obj
 0001:0003e520       ?isNoExcept@__FrameHandler3@@SA_NPEBU_s_FuncInfo@@@Z 000000018003f520 f i libvcruntimed:frame.obj
 0001:0003e560       ?isNoExcept@__FrameHandler4@@SA_NPEAUFuncInfo4@FH4@@@Z 000000018003f560 f i libvcruntimed:frame.obj
 0001:0003e580       ?reset@HandlerType4@FH4@@QEAAXXZ 000000018003f580 f i libvcruntimed:frame.obj
 0001:0003e5e0       ?resetBuffer@HandlerMap4@FH4@@QEAAXXZ 000000018003f5e0 f i libvcruntimed:frame.obj
 0001:0003e600       ?setBuffer@HandlerMap4@FH4@@QEAAXI@Z 000000018003f600 f i libvcruntimed:frame.obj
 0001:0003e660       __BuildCatchObject         000000018003f660 f   libvcruntimed:frame.obj
 0001:0003e6a0       __BuildCatchObjectHelper   000000018003f6a0 f   libvcruntimed:frame.obj
 0001:0003e6e0       __TypeMatch                000000018003f6e0 f   libvcruntimed:frame.obj
 0001:0003e710       __vcrt_EncodePointer       000000018003f710 f i libvcruntimed:frame.obj
 0001:0003e730       ??$?0$00@DName@@QEAA@PEBDU?$StringLifeSelector@$00@@@Z 000000018003f730 f i libvcruntimed:undname.obj
 0001:0003e7a0       ??$?0$00@pcharNode@@QEAA@PEBDHU?$StringLifeSelector@$00@@@Z 000000018003f7a0 f i libvcruntimed:undname.obj
 0001:0003e800       ??$?0$01@DName@@QEAA@PEBDU?$StringLifeSelector@$01@@@Z 000000018003f800 f i libvcruntimed:undname.obj
 0001:0003e870       ??$?0$01@pcharNode@@QEAA@PEBDHU?$StringLifeSelector@$01@@@Z 000000018003f870 f i libvcruntimed:undname.obj
 0001:0003e920       ??$?0$0A@@DName@@QEAA@PEBDU?$StringLifeSelector@$0A@@@@Z 000000018003f920 f i libvcruntimed:undname.obj
 0001:0003e990       ??$?0$0A@@pcharNode@@QEAA@PEBDHU?$StringLifeSelector@$0A@@@@Z 000000018003f990 f i libvcruntimed:undname.obj
 0001:0003ea40       ??$?0_K$0A@@?$optional@_K@std@@QEAA@$$QEA_K@Z 000000018003fa40 f i libvcruntimed:undname.obj
 0001:0003ea90       ??$?0_K@?$_Optional_construct_base@_K@std@@QEAA@Uin_place_t@1@$$QEA_K@Z 000000018003fa90 f i libvcruntimed:undname.obj
 0001:0003eac0       ??$?0_K@?$_Optional_destruct_base@_K$00@std@@QEAA@Uin_place_t@1@$$QEA_K@Z 000000018003fac0 f i libvcruntimed:undname.obj
 0001:0003eb00       ??$append@VDNameNode@@@DName@@AEAAXPEBVDNameNode@@@Z 000000018003fb00 f i libvcruntimed:undname.obj
 0001:0003ebb0       ??$append@VDNameStatusNode@@@DName@@AEAAXPEBVDNameStatusNode@@@Z 000000018003fbb0 f i libvcruntimed:undname.obj
 0001:0003ec60       ??$append@VcharNode@@@DName@@AEAAXPEBVcharNode@@@Z 000000018003fc60 f i libvcruntimed:undname.obj
 0001:0003ed10       ??$append@VpDNameNode@@@DName@@AEAAXPEBVpDNameNode@@@Z 000000018003fd10 f i libvcruntimed:undname.obj
 0001:0003edc0       ??$append@VpcharNode@@@DName@@AEAAXPEBVpcharNode@@@Z 000000018003fdc0 f i libvcruntimed:undname.obj
 0001:0003ee70       ??$doPchar@$00@DName@@AEAAXPEBDH@Z 000000018003fe70 f i libvcruntimed:undname.obj
 0001:0003efd0       ??$doPchar@$01@DName@@AEAAXPEBDH@Z 000000018003ffd0 f i libvcruntimed:undname.obj
 0001:0003f130       ??$doPchar@$0A@@DName@@AEAAXPEBDH@Z 0000000180040130 f i libvcruntimed:undname.obj
 0001:0003f290       ??$forward@_K@std@@YA$$QEA_KAEA_K@Z 0000000180040290 f i libvcruntimed:undname.obj
 0001:0003f2a0       ??$size@D$04@std@@YA_KAEAY04$$CBD@Z 00000001800402a0 f i libvcruntimed:undname.obj
 0001:0003f2b0       ??$size@D$0EB@@std@@YA_KAEAY0EB@$$CBD@Z 00000001800402b0 f i libvcruntimed:undname.obj
 0001:0003f2c0       ??0?$_Optional_construct_base@_K@std@@QEAA@XZ 00000001800402c0 f i libvcruntimed:undname.obj
 0001:0003f2e0       ??0?$_Optional_destruct_base@_K$00@std@@QEAA@XZ 00000001800402e0 f i libvcruntimed:undname.obj
 0001:0003f310       ??0?$optional@_K@std@@QEAA@XZ 0000000180040310 f i libvcruntimed:undname.obj
 0001:0003f330       ??0Block@_HeapManager@@QEAA@XZ 0000000180040330 f i libvcruntimed:undname.obj
 0001:0003f350       ??0DName@@QEAA@AEAPEBDD@Z  0000000180040350 f   libvcruntimed:undname.obj
 0001:0003f520       ??0DName@@QEAA@AEBUStringLiteral@@@Z 0000000180040520 f   libvcruntimed:undname.obj
 0001:0003f580       ??0DName@@QEAA@AEBV0@@Z    0000000180040580 f i libvcruntimed:undname.obj
 0001:0003f5b0       ??0DName@@QEAA@D@Z         00000001800405b0 f   libvcruntimed:undname.obj
 0001:0003f5f0       ??0DName@@QEAA@PEAV0@@Z    00000001800405f0 f   libvcruntimed:undname.obj
 0001:0003f6d0       ??0DName@@QEAA@W4DNameStatus@@@Z 00000001800406d0 f   libvcruntimed:undname.obj
 0001:0003f780       ??0DName@@QEAA@XZ          0000000180040780 f i libvcruntimed:undname.obj
 0001:0003f7b0       ??0DName@@QEAA@_J@Z        00000001800407b0 f   libvcruntimed:undname.obj
 0001:0003f8c0       ??0DName@@QEAA@_K@Z        00000001800408c0 f   libvcruntimed:undname.obj
 0001:0003f990       ??0DNameNode@@IEAA@XZ      0000000180040990 f i libvcruntimed:undname.obj
 0001:0003f9b0       ??0Replicator@@QEAA@XZ     00000001800409b0 f i libvcruntimed:undname.obj
 0001:0003f9f0       ??0UnDecorator@@QEAA@PEBDP6APEADJ@ZK@Z 00000001800409f0 f i libvcruntimed:undname.obj
 0001:0003faa0       ??0_Nontrivial_dummy_type@std@@QEAA@XZ 0000000180040aa0 f i libvcruntimed:undname.obj
 0001:0003fab0       ??0charNode@@QEAA@D@Z      0000000180040ab0 f i libvcruntimed:undname.obj
 0001:0003faf0       ??0pDNameNode@@QEAA@PEAVDName@@@Z 0000000180040af0 f   libvcruntimed:undname.obj
 0001:0003fb70       ??0pairNode@@QEAA@PEBVDNameNode@@0@Z 0000000180040b70 f i libvcruntimed:undname.obj
 0001:0003fbf0       ??2@YAPEAX_KAEAV_HeapManager@@H@Z 0000000180040bf0 f   libvcruntimed:undname.obj
 0001:0003fc50       ??4DName@@QEAAAEAV0@AEBUStringLiteral@@@Z 0000000180040c50 f   libvcruntimed:undname.obj
 0001:0003fca0       ??4DName@@QEAAAEAV0@AEBV0@@Z 0000000180040ca0 f   libvcruntimed:undname.obj
 0001:0003fcd0       ??4DName@@QEAAAEAV0@D@Z    0000000180040cd0 f i libvcruntimed:undname.obj
 0001:0003fd10       ??4DName@@QEAAAEAV0@PEAV0@@Z 0000000180040d10 f   libvcruntimed:undname.obj
 0001:0003fde0       ??4DName@@QEAAAEAV0@W4DNameStatus@@@Z 0000000180040de0 f   libvcruntimed:undname.obj
 0001:0003fe70       ??AReplicator@@QEBA?AVDName@@H@Z 0000000180040e70 f   libvcruntimed:undname.obj
 0001:0003ff00       ??B?$optional@_K@std@@QEBA_NXZ 0000000180040f00 f i libvcruntimed:undname.obj
 0001:0003ff10       ??D?$optional@_K@std@@QEGAAAEA_KXZ 0000000180040f10 f i libvcruntimed:undname.obj
 0001:0003ffb0       ??H@YA?AVDName@@AEBUStringLiteral@@AEBV0@@Z 0000000180040fb0 f i libvcruntimed:undname.obj
 0001:00040000       ??H@YA?AVDName@@DAEBV0@@Z  0000000180041000 f i libvcruntimed:undname.obj
 0001:00040050       ??H@YA?AVDName@@W4DNameStatus@@AEBV0@@Z 0000000180041050 f i libvcruntimed:undname.obj
 0001:000400a0       ??HDName@@QEBA?AV0@AEBUStringLiteral@@@Z 00000001800410a0 f   libvcruntimed:undname.obj
 0001:000400f0       ??HDName@@QEBA?AV0@AEBV0@@Z 00000001800410f0 f   libvcruntimed:undname.obj
 0001:00040140       ??HDName@@QEBA?AV0@D@Z     0000000180041140 f   libvcruntimed:undname.obj
 0001:00040190       ??HDName@@QEBA?AV0@PEAV0@@Z 0000000180041190 f   libvcruntimed:undname.obj
 0001:000401e0       ??HDName@@QEBA?AV0@W4DNameStatus@@@Z 00000001800411e0 f   libvcruntimed:undname.obj
 0001:00040230       ??HStringLiteral@@QEBA?AU0@H@Z 0000000180041230 f i libvcruntimed:undname.obj
 0001:00040270       ??YDName@@QEAAAEAV0@AEBUStringLiteral@@@Z 0000000180041270 f   libvcruntimed:undname.obj
 0001:00040340       ??YDName@@QEAAAEAV0@AEBV0@@Z 0000000180041340 f   libvcruntimed:undname.obj
 0001:00040400       ??YDName@@QEAAAEAV0@D@Z    0000000180041400 f   libvcruntimed:undname.obj
 0001:000404a0       ??YDName@@QEAAAEAV0@PEAV0@@Z 00000001800414a0 f   libvcruntimed:undname.obj
 0001:00040580       ??YDName@@QEAAAEAV0@W4DNameStatus@@@Z 0000000180041580 f   libvcruntimed:undname.obj
 0001:000405f0       ??YReplicator@@QEAAAEAV0@AEBVDName@@@Z 00000001800415f0 f   libvcruntimed:undname.obj
 0001:000406b0       ??_5DName@@QEAAAEAV0@AEBV0@@Z 00000001800416b0 f   libvcruntimed:undname.obj
 0001:00040720       ??__K_l@@YA?AUStringLiteral@@PEBD_K@Z 0000000180041720 f i libvcruntimed:undname.obj
 0001:00040770       ?Constructor@_HeapManager@@QEAAXP6APEAX_K@ZP6AXPEAX@Z@Z 0000000180041770 f i libvcruntimed:undname.obj
 0001:000407d0       ?Destructor@_HeapManager@@QEAAXXZ 00000001800417d0 f i libvcruntimed:undname.obj
 0001:00040870       ?UScore@UnDecorator@@SA?AUStringLiteral@@W4Tokens@@@Z 0000000180041870 f   libvcruntimed:undname.obj
 0001:00040900       ?composeDeclaration@UnDecorator@@CA?AVDName@@AEBV2@@Z 0000000180041900 f i libvcruntimed:undname.obj
 0001:00042e00       ?dbGetString@DName@@QEBAPEADXZ 0000000180043e00 f   libvcruntimed:undname.obj
 0001:00042e30       ?doAccessSpecifiers@UnDecorator@@SAHXZ 0000000180043e30 f i libvcruntimed:undname.obj
 0001:00042e60       ?doAllocationLanguage@UnDecorator@@SAHXZ 0000000180043e60 f i libvcruntimed:undname.obj
 0001:00042e90       ?doAllocationModel@UnDecorator@@SAHXZ 0000000180043e90 f i libvcruntimed:undname.obj
 0001:00042ec0       ?doEcsu@UnDecorator@@SAHXZ 0000000180043ec0 f i libvcruntimed:undname.obj
 0001:00042ef0       ?doEllipsis@UnDecorator@@SAHXZ 0000000180043ef0 f i libvcruntimed:undname.obj
 0001:00042f20       ?doFunctionReturns@UnDecorator@@SAHXZ 0000000180043f20 f i libvcruntimed:undname.obj
 0001:00042f50       ?doMSKeywords@UnDecorator@@SAHXZ 0000000180043f50 f i libvcruntimed:undname.obj
 0001:00042f80       ?doMemberTypes@UnDecorator@@SAHXZ 0000000180043f80 f i libvcruntimed:undname.obj
 0001:00042fb0       ?doNameOnly@UnDecorator@@SAHXZ 0000000180043fb0 f i libvcruntimed:undname.obj
 0001:00042fc0       ?doNoIdentCharCheck@UnDecorator@@SAHXZ 0000000180043fc0 f i libvcruntimed:undname.obj
 0001:00042fd0       ?doPchar@DName@@AEAAXD@Z   0000000180043fd0 f   libvcruntimed:undname.obj
 0001:00043060       ?doPtr64@UnDecorator@@SAHXZ 0000000180044060 f i libvcruntimed:undname.obj
 0001:00043090       ?doRestrictionSpec@UnDecorator@@SAHXZ 0000000180044090 f i libvcruntimed:undname.obj
 0001:000430c0       ?doThisTypes@UnDecorator@@SAHXZ 00000001800440c0 f i libvcruntimed:undname.obj
 0001:000430f0       ?doThrowTypes@UnDecorator@@SAHXZ 00000001800440f0 f i libvcruntimed:undname.obj
 0001:00043120       ?doTypeOnly@UnDecorator@@SAHXZ 0000000180044120 f i libvcruntimed:undname.obj
 0001:00043130       ?doUnderScore@UnDecorator@@SAHXZ 0000000180044130 f i libvcruntimed:undname.obj
 0001:00043160       ?getAddressOf@UnDecorator@@CA?AVDName@@XZ 0000000180044160 f   libvcruntimed:undname.obj
 0001:00043200       ?getArgumentList@UnDecorator@@CA?AVDName@@XZ 0000000180044200 f   libvcruntimed:undname.obj
 0001:000433a0       ?getArgumentTypes@UnDecorator@@CA?AVDName@@XZ 00000001800443a0 f   libvcruntimed:undname.obj
 0001:00043680       ?getArrayAccess@UnDecorator@@CA?AVDName@@XZ 0000000180044680 f   libvcruntimed:undname.obj
 0001:00043740       ?getArrayObject@UnDecorator@@CA?AVDName@@XZ 0000000180044740 f   libvcruntimed:undname.obj
 0001:00043860       ?getArrayType@UnDecorator@@CA?AVDName@@AEBV2@@Z 0000000180044860 f i libvcruntimed:undname.obj
 0001:00043c20       ?getBasedType@UnDecorator@@CA?AVDName@@XZ 0000000180044c20 f   libvcruntimed:undname.obj
 0001:00043d90       ?getBasicDataType@UnDecorator@@CA?AVDName@@AEBV2@@Z 0000000180044d90 f   libvcruntimed:undname.obj
 0001:00044b30       ?getCHPEName@UnDecorator@@QEAAPEADPEADH@Z 0000000180045b30 f i libvcruntimed:undname.obj
 0001:00044d00       ?getCallIndex@UnDecorator@@CA?AVDName@@XZ 0000000180045d00 f i libvcruntimed:undname.obj
 0001:00044d20       ?getCallingConvention@UnDecorator@@CA?AVDName@@XZ 0000000180045d20 f   libvcruntimed:undname.obj
 0001:00045110       ?getDataIndirectType@UnDecorator@@CA?AVDName@@AEBV2@W4IndirectionKind@@0H@Z 0000000180046110 f   libvcruntimed:undname.obj
 0001:00045db0       ?getDataIndirectType@UnDecorator@@CA?AVDName@@XZ 0000000180046db0 f i libvcruntimed:undname.obj
 0001:00045e00       ?getDataType@UnDecorator@@CA?AVDName@@PEAV2@@Z 0000000180046e00 f   libvcruntimed:undname.obj
 0001:00045fe0       ?getDecoratedName@UnDecorator@@CA?AVDName@@XZ 0000000180046fe0 f   libvcruntimed:undname.obj
 0001:000464d0       ?getDimension@UnDecorator@@CA?AVDName@@_N@Z 00000001800474d0 f   libvcruntimed:undname.obj
 0001:000467e0       ?getDispatchTarget@UnDecorator@@CA?AVDName@@XZ 00000001800477e0 f   libvcruntimed:undname.obj
 0001:000468b0       ?getDisplacement@UnDecorator@@CA?AVDName@@XZ 00000001800478b0 f i libvcruntimed:undname.obj
 0001:000468d0       ?getECSUDataType@UnDecorator@@CA?AVDName@@XZ 00000001800478d0 f   libvcruntimed:undname.obj
 0001:00046c60       ?getECSUName@UnDecorator@@CA?AVDName@@XZ 0000000180047c60 f i libvcruntimed:undname.obj
 0001:00046c80       ?getEnumType@UnDecorator@@CA?AVDName@@XZ 0000000180047c80 f i libvcruntimed:undname.obj
 0001:00046f10       ?getExtendedDataIndirectType@UnDecorator@@CA?AVDName@@AEAW4IndirectionKind@@AEA_NH@Z 0000000180047f10 f   libvcruntimed:undname.obj
 0001:00047230       ?getExternalDataType@UnDecorator@@CA?AVDName@@AEBV2@@Z 0000000180048230 f i libvcruntimed:undname.obj
 0001:00047310       ?getFloatingPoint@UnDecorator@@CA?AVDName@@H@Z 0000000180048310 f   libvcruntimed:undname.obj
 0001:00047590       ?getFunctionIndirectType@UnDecorator@@CA?AVDName@@AEBV2@@Z 0000000180048590 f   libvcruntimed:undname.obj
 0001:00047bc0       ?getGuardNumber@UnDecorator@@CA?AVDName@@XZ 0000000180048bc0 f i libvcruntimed:undname.obj
 0001:00047be0       ?getLastChar@DName@@QEBADXZ 0000000180048be0 f i libvcruntimed:undname.obj
 0001:00047c30       ?getLastChar@DNameStatusNode@@UEBADXZ 0000000180048c30 f i libvcruntimed:undname.obj
 0001:00047c70       ?getLastChar@charNode@@UEBADXZ 0000000180048c70 f i libvcruntimed:undname.obj
 0001:00047c80       ?getLastChar@pDNameNode@@UEBADXZ 0000000180048c80 f i libvcruntimed:undname.obj
 0001:00047cc0       ?getLastChar@pairNode@@UEBADXZ 0000000180048cc0 f i libvcruntimed:undname.obj
 0001:00047d40       ?getLastChar@pcharNode@@UEBADXZ 0000000180048d40 f i libvcruntimed:undname.obj
 0001:00047d80       ?getLexicalFrame@UnDecorator@@CA?AVDName@@XZ 0000000180048d80 f i libvcruntimed:undname.obj
 0001:00047dd0       ?getMemberAccess@UnDecorator@@CA?AVDName@@XZ 0000000180048dd0 f   libvcruntimed:undname.obj
 0001:00047e80       ?getMemoryWithBuffer@_HeapManager@@QEAAPEAX_K@Z 0000000180048e80 f   libvcruntimed:undname.obj
 0001:00047fd0       ?getMemoryWithoutBuffer@_HeapManager@@QEAAPEAX_K@Z 0000000180048fd0 f   libvcruntimed:undname.obj
 0001:00048020       ?getNoexcept@UnDecorator@@CA?AVDName@@XZ 0000000180049020 f   libvcruntimed:undname.obj
 0001:000480d0       ?getNumberOfDimensions@UnDecorator@@CAHXZ 00000001800490d0 f   libvcruntimed:undname.obj
 0001:000481f0       ?getOperatorName@UnDecorator@@CA?AVDName@@_NPEA_N@Z 00000001800491f0 f i libvcruntimed:undname.obj
 0001:000491e0       ?getPointerToMember@UnDecorator@@CA?AVDName@@XZ 000000018004a1e0 f   libvcruntimed:undname.obj
 0001:00049330       ?getPointerType@UnDecorator@@CA?AVDName@@AEBV2@0@Z 000000018004a330 f i libvcruntimed:undname.obj
 0001:00049370       ?getPointerTypeArray@UnDecorator@@CA?AVDName@@AEBV2@0@Z 000000018004a370 f i libvcruntimed:undname.obj
 0001:000493b0       ?getPrimaryDataType@UnDecorator@@CA?AVDName@@AEBV2@@Z 000000018004a3b0 f   libvcruntimed:undname.obj
 0001:000499e0       ?getPtrRefDataType@UnDecorator@@CA?AVDName@@AEBV2@H@Z 000000018004a9e0 f   libvcruntimed:undname.obj
 0001:00049dd0       ?getPtrRefType@UnDecorator@@CA?AVDName@@AEBV2@0W4IndirectionKind@@@Z 000000018004add0 f   libvcruntimed:undname.obj
 0001:0004a010       ?getReferenceType@UnDecorator@@CA?AVDName@@AEBV2@0W4IndirectionKind@@@Z 000000018004b010 f i libvcruntimed:undname.obj
 0001:0004a050       ?getRestrictionSpec@UnDecorator@@CA?AVDName@@XZ 000000018004b050 f   libvcruntimed:undname.obj
 0001:0004a2e0       ?getReturnType@UnDecorator@@CA?AVDName@@PEAV2@@Z 000000018004b2e0 f   libvcruntimed:undname.obj
 0001:0004a340       ?getScope@UnDecorator@@CA?AVDName@@XZ 000000018004b340 f   libvcruntimed:undname.obj
 0001:0004aaa0       ?getScopedName@UnDecorator@@CA?AVDName@@XZ 000000018004baa0 f   libvcruntimed:undname.obj
 0001:0004aca0       ?getSignedDimension@UnDecorator@@CA?AVDName@@XZ 000000018004bca0 f   libvcruntimed:undname.obj
 0001:0004ad30       ?getStorageConvention@UnDecorator@@CA?AVDName@@XZ 000000018004bd30 f i libvcruntimed:undname.obj
 0001:0004ad50       ?getString@DName@@QEBAPEADPEAD0@Z 000000018004bd50 f i libvcruntimed:undname.obj
 0001:0004add0       ?getString@DName@@QEBAPEADPEADH@Z 000000018004bdd0 f i libvcruntimed:undname.obj
 0001:0004ae90       ?getString@DNameStatusNode@@UEBAPEADPEAD0@Z 000000018004be90 f i libvcruntimed:undname.obj
 0001:0004aee0       ?getString@charNode@@UEBAPEADPEAD0@Z 000000018004bee0 f i libvcruntimed:undname.obj
 0001:0004af20       ?getString@pDNameNode@@UEBAPEADPEAD0@Z 000000018004bf20 f i libvcruntimed:undname.obj
 0001:0004af80       ?getString@pairNode@@UEBAPEADPEAD0@Z 000000018004bf80 f i libvcruntimed:undname.obj
 0001:0004b050       ?getString@pcharNode@@UEBAPEADPEAD0@Z 000000018004c050 f i libvcruntimed:undname.obj
 0001:0004b090       ?getStringEncoding@UnDecorator@@CA?AVDName@@W4PrefixKind@@H@Z 000000018004c090 f   libvcruntimed:undname.obj
 0001:0004b1f0       ?getStringHelper@@YAPEADPEADPEBD1H@Z 000000018004c1f0 f i libvcruntimed:undname.obj
 0001:0004b260       ?getStringObject@UnDecorator@@CA?AVDName@@XZ 000000018004c260 f   libvcruntimed:undname.obj
 0001:0004b340       ?getSymbolName@UnDecorator@@CA?AVDName@@XZ 000000018004c340 f i libvcruntimed:undname.obj
 0001:0004b3e0       ?getTemplateArgumentList@UnDecorator@@CA?AVDName@@XZ 000000018004c3e0 f   libvcruntimed:undname.obj
 0001:0004b720       ?getTemplateName@UnDecorator@@CA?AVDName@@_N@Z 000000018004c720 f   libvcruntimed:undname.obj
 0001:0004b960       ?getTemplateNonTypeArgument@UnDecorator@@CA?AVDName@@XZ 000000018004c960 f   libvcruntimed:undname.obj
 0001:0004c200       ?getTemplateTypeArgument@UnDecorator@@CA?AVDName@@XZ 000000018004d200 f   libvcruntimed:undname.obj
 0001:0004c470       ?getThisType@UnDecorator@@CA?AVDName@@XZ 000000018004d470 f i libvcruntimed:undname.obj
 0001:0004c4c0       ?getThrowTypes@UnDecorator@@CA?AVDName@@XZ 000000018004d4c0 f   libvcruntimed:undname.obj
 0001:0004c510       ?getTypeEncoding@UnDecorator@@CAHXZ 000000018004d510 f i libvcruntimed:undname.obj
 0001:0004d170       ?getUndecoratedName@UnDecorator@@QEAAPEADPEADH@Z 000000018004e170 f i libvcruntimed:undname.obj
 0001:0004d360       ?getUnionObject@UnDecorator@@CA?AVDName@@XZ 000000018004e360 f   libvcruntimed:undname.obj
 0001:0004d470       ?getVCallThunkType@UnDecorator@@CA?AVDName@@XZ 000000018004e470 f i libvcruntimed:undname.obj
 0001:0004d520       ?getValue@UnDecorator@@CA?AV?$optional@_K@std@@XZ 000000018004e520 f   libvcruntimed:undname.obj
 0001:0004d5f0       ?getValueObject@UnDecorator@@CA?AVDName@@XZ 000000018004e5f0 f   libvcruntimed:undname.obj
 0001:0004d810       ?getVbTableType@UnDecorator@@CA?AVDName@@AEBV2@@Z 000000018004e810 f i libvcruntimed:undname.obj
 0001:0004d840       ?getVdispMapType@UnDecorator@@CA?AVDName@@AEBV2@@Z 000000018004e840 f i libvcruntimed:undname.obj
 0001:0004d900       ?getVfTableType@UnDecorator@@CA?AVDName@@AEBV2@@Z 000000018004e900 f i libvcruntimed:undname.obj
 0001:0004dba0       ?getZName@UnDecorator@@CA?AVDName@@_N0@Z 000000018004eba0 f   libvcruntimed:undname.obj
 0001:0004e010       ?haveTemplateParameters@UnDecorator@@SAHXZ 000000018004f010 f i libvcruntimed:undname.obj
 0001:0004e020       ?isArray@DName@@QEBAHXZ    000000018004f020 f i libvcruntimed:undname.obj
 0001:0004e040       ?isComArray@DName@@QEBAHXZ 000000018004f040 f i libvcruntimed:undname.obj
 0001:0004e060       ?isEmpty@DName@@QEBAHXZ    000000018004f060 f i libvcruntimed:undname.obj
 0001:0004e090       ?isFull@Replicator@@QEBAHXZ 000000018004f090 f i libvcruntimed:undname.obj
 0001:0004e0c0       ?isNoTE@DName@@QEBAHXZ     000000018004f0c0 f i libvcruntimed:undname.obj
 0001:0004e0e0       ?isPinPtr@DName@@QEBAHXZ   000000018004f0e0 f i libvcruntimed:undname.obj
 0001:0004e100       ?isPtrRef@DName@@QEBAHXZ   000000018004f100 f i libvcruntimed:undname.obj
 0001:0004e120       ?isUDC@DName@@QEBAHXZ      000000018004f120 f i libvcruntimed:undname.obj
 0001:0004e170       ?isUDTThunk@DName@@QEBAHXZ 000000018004f170 f i libvcruntimed:undname.obj
 0001:0004e1c0       ?isVCallThunk@DName@@QEBAHXZ 000000018004f1c0 f i libvcruntimed:undname.obj
 0001:0004e1e0       ?isValid@DName@@QEBAHXZ    000000018004f1e0 f i libvcruntimed:undname.obj
 0001:0004e220       ?length@DName@@QEBAHXZ     000000018004f220 f i libvcruntimed:undname.obj
 0001:0004e270       ?length@DNameStatusNode@@UEBAHXZ 000000018004f270 f i libvcruntimed:undname.obj
 0001:0004e280       ?length@charNode@@UEBAHXZ  000000018004f280 f i libvcruntimed:undname.obj
 0001:0004e290       ?length@pDNameNode@@UEBAHXZ 000000018004f290 f i libvcruntimed:undname.obj
 0001:0004e2d0       ?length@pairNode@@UEBAHXZ  000000018004f2d0 f i libvcruntimed:undname.obj
 0001:0004e360       ?length@pcharNode@@UEBAHXZ 000000018004f360 f i libvcruntimed:undname.obj
 0001:0004e370       ?make@DNameStatusNode@@SAPEBV1@W4DNameStatus@@@Z 000000018004f370 f i libvcruntimed:undname.obj
 0001:0004e3c0       ?parseDecoratedName@UnDecorator@@CA?AVDName@@XZ 000000018004f3c0 f   libvcruntimed:undname.obj
 0001:0004e5b0       ?raw_length@DNameStatusNode@@UEBAHXZ 000000018004f5b0 f i libvcruntimed:undname.obj
 0001:0004e5d0       ?raw_length@charNode@@UEBAHXZ 000000018004f5d0 f i libvcruntimed:undname.obj
 0001:0004e5f0       ?raw_length@pDNameNode@@UEBAHXZ 000000018004f5f0 f i libvcruntimed:undname.obj
 0001:0004e600       ?raw_length@pairNode@@UEBAHXZ 000000018004f600 f i libvcruntimed:undname.obj
 0001:0004e610       ?raw_length@pcharNode@@UEBAHXZ 000000018004f610 f i libvcruntimed:undname.obj
 0001:0004e630       ?setIsArray@DName@@QEAAXXZ 000000018004f630 f i libvcruntimed:undname.obj
 0001:0004e650       ?setIsComArray@DName@@QEAAXXZ 000000018004f650 f i libvcruntimed:undname.obj
 0001:0004e670       ?setIsNoTE@DName@@QEAAXXZ  000000018004f670 f i libvcruntimed:undname.obj
 0001:0004e690       ?setIsPinPtr@DName@@QEAAXXZ 000000018004f690 f i libvcruntimed:undname.obj
 0001:0004e6b0       ?setIsUDC@DName@@QEAAXXZ   000000018004f6b0 f i libvcruntimed:undname.obj
 0001:0004e6e0       ?setIsVCallThunk@DName@@QEAAXXZ 000000018004f6e0 f i libvcruntimed:undname.obj
 0001:0004e700       ?setPtrRef@DName@@QEAAAEAV1@XZ 000000018004f700 f i libvcruntimed:undname.obj
 0001:0004e720       ?status@DName@@QEBA?AW4DNameStatus@@XZ 000000018004f720 f i libvcruntimed:undname.obj
 0001:0004e850       __unDName                  000000018004f850 f   libvcruntimed:undname.obj
 0001:0004e8b0       __unDNameEx                000000018004f8b0 f   libvcruntimed:undname.obj
 0001:0004e970       unDNameGenerateCHPE        000000018004f970 f   libvcruntimed:undname.obj
 0001:0004ea20       ??$__crt_interlocked_exchange_pointer@UHINSTANCE__@@PEAU1@@@YAPEAUHINSTANCE__@@PEDSEAU0@QEAU0@@Z 000000018004fa20 f i libvcruntimed:winapi_downlevel.obj
 0001:0004ea40       ??$__crt_interlocked_exchange_pointer@UHINSTANCE__@@PEAX@@YAPEAUHINSTANCE__@@PEDSEAU0@QEAX@Z 000000018004fa40 f i libvcruntimed:winapi_downlevel.obj
 0001:0004ea60       ??$__crt_interlocked_exchange_pointer@XPEAX@@YAPEAXPEDSEAXQEAX@Z 000000018004fa60 f i libvcruntimed:winapi_downlevel.obj
 0001:0004ea80       ??$__crt_interlocked_read_pointer@UHINSTANCE__@@@@YAPEAUHINSTANCE__@@PEDSEAU0@@Z 000000018004fa80 f i libvcruntimed:winapi_downlevel.obj
 0001:0004eaa0       ??$__crt_interlocked_read_pointer@X@@YAPEAXPEDSEAX@Z 000000018004faa0 f i libvcruntimed:winapi_downlevel.obj
 0001:0004efb0       __vcrt_FlsAlloc            000000018004ffb0 f   libvcruntimed:winapi_downlevel.obj
 0001:0004f000       __vcrt_FlsFree             0000000180050000 f   libvcruntimed:winapi_downlevel.obj
 0001:0004f050       __vcrt_FlsGetValue         0000000180050050 f   libvcruntimed:winapi_downlevel.obj
 0001:0004f0a0       __vcrt_FlsSetValue         00000001800500a0 f   libvcruntimed:winapi_downlevel.obj
 0001:0004f100       __vcrt_InitializeCriticalSectionEx 0000000180050100 f   libvcruntimed:winapi_downlevel.obj
 0001:0004f180       _CallSettingFrame          0000000180050180 f   libvcruntimed:handlers.obj
 0001:0004f1d0       _CallSettingFrame_LookupContinuationIndex 00000001800501d0 f   libvcruntimed:handlers.obj
 0001:0004f200       _CallSettingFrame_NotifyContinuationAddr 0000000180050200 f   libvcruntimed:handlers.obj
 0001:0004f230       _CallSettingFrameEncoded   0000000180050230 f   libvcruntimed:handlers.obj
 0001:0004f280       ??$?0AEBV?$stream_output_adapter@D@__crt_stdio_output@@AEB_KAEBQEBDAEAV__crt_cached_ptd_host@@AEBQEAD@?$format_validation_base@DV?$stream_output_adapter@D@__crt_stdio_output@@@__crt_stdio_output@@IEAA@AEBV?$stream_output_adapter@D@1@AEB_KAEBQEBDAEAV__crt_cached_ptd_host@@AEBQEAD@Z 0000000180050280 f i libucrtd:output.obj
 0001:0004f2d0       ??$?0AEBV?$stream_output_adapter@D@__crt_stdio_output@@AEB_KAEBQEBDAEAV__crt_cached_ptd_host@@AEBQEAD@?$positional_parameter_base@DV?$stream_output_adapter@D@__crt_stdio_output@@@__crt_stdio_output@@IEAA@AEBV?$stream_output_adapter@D@1@AEB_KAEBQEBDAEAV__crt_cached_ptd_host@@AEBQEAD@Z 00000001800502d0 f i libucrtd:output.obj
 0001:0004f370       ??$?0AEBV?$stream_output_adapter@D@__crt_stdio_output@@AEB_KAEBQEBDAEAV__crt_cached_ptd_host@@AEBQEAD@?$standard_base@DV?$stream_output_adapter@D@__crt_stdio_output@@@__crt_stdio_output@@IEAA@AEBV?$stream_output_adapter@D@1@AEB_KAEBQEBDAEAV__crt_cached_ptd_host@@AEBQEAD@Z 0000000180050370 f i libucrtd:output.obj
 0001:0004f3e0       ??$?0AEBV?$stream_output_adapter@_W@__crt_stdio_output@@AEB_KAEBQEB_WAEAV__crt_cached_ptd_host@@AEBQEAD@?$format_validation_base@_WV?$stream_output_adapter@_W@__crt_stdio_output@@@__crt_stdio_output@@IEAA@AEBV?$stream_output_adapter@_W@1@AEB_KAEBQEB_WAEAV__crt_cached_ptd_host@@AEBQEAD@Z 00000001800503e0 f i libucrtd:output.obj
 0001:0004f430       ??$?0AEBV?$stream_output_adapter@_W@__crt_stdio_output@@AEB_KAEBQEB_WAEAV__crt_cached_ptd_host@@AEBQEAD@?$positional_parameter_base@_WV?$stream_output_adapter@_W@__crt_stdio_output@@@__crt_stdio_output@@IEAA@AEBV?$stream_output_adapter@_W@1@AEB_KAEBQEB_WAEAV__crt_cached_ptd_host@@AEBQEAD@Z 0000000180050430 f i libucrtd:output.obj
 0001:0004f4d0       ??$?0AEBV?$stream_output_adapter@_W@__crt_stdio_output@@AEB_KAEBQEB_WAEAV__crt_cached_ptd_host@@AEBQEAD@?$standard_base@_WV?$stream_output_adapter@_W@__crt_stdio_output@@@__crt_stdio_output@@IEAA@AEBV?$stream_output_adapter@_W@1@AEB_KAEBQEB_WAEAV__crt_cached_ptd_host@@AEBQEAD@Z 00000001800504d0 f i libucrtd:output.obj
 0001:0004f540       ??$?0AEBV?$string_output_adapter@D@__crt_stdio_output@@AEB_KAEBQEBDAEAV__crt_cached_ptd_host@@AEBQEAD@?$format_validation_base@DV?$string_output_adapter@D@__crt_stdio_output@@@__crt_stdio_output@@IEAA@AEBV?$string_output_adapter@D@1@AEB_KAEBQEBDAEAV__crt_cached_ptd_host@@AEBQEAD@Z 0000000180050540 f i libucrtd:output.obj
 0001:0004f590       ??$?0AEBV?$string_output_adapter@D@__crt_stdio_output@@AEB_KAEBQEBDAEAV__crt_cached_ptd_host@@AEBQEAD@?$positional_parameter_base@DV?$string_output_adapter@D@__crt_stdio_output@@@__crt_stdio_output@@IEAA@AEBV?$string_output_adapter@D@1@AEB_KAEBQEBDAEAV__crt_cached_ptd_host@@AEBQEAD@Z 0000000180050590 f i libucrtd:output.obj
 0001:0004f630       ??$?0AEBV?$string_output_adapter@D@__crt_stdio_output@@AEB_KAEBQEBDAEAV__crt_cached_ptd_host@@AEBQEAD@?$standard_base@DV?$string_output_adapter@D@__crt_stdio_output@@@__crt_stdio_output@@IEAA@AEBV?$string_output_adapter@D@1@AEB_KAEBQEBDAEAV__crt_cached_ptd_host@@AEBQEAD@Z 0000000180050630 f i libucrtd:output.obj
 0001:0004f6a0       ??$?0AEBV?$string_output_adapter@_W@__crt_stdio_output@@AEB_KAEBQEB_WAEAV__crt_cached_ptd_host@@AEBQEAD@?$format_validation_base@_WV?$string_output_adapter@_W@__crt_stdio_output@@@__crt_stdio_output@@IEAA@AEBV?$string_output_adapter@_W@1@AEB_KAEBQEB_WAEAV__crt_cached_ptd_host@@AEBQEAD@Z 00000001800506a0 f i libucrtd:output.obj
 0001:0004f6f0       ??$?0AEBV?$string_output_adapter@_W@__crt_stdio_output@@AEB_KAEBQEB_WAEAV__crt_cached_ptd_host@@AEBQEAD@?$positional_parameter_base@_WV?$string_output_adapter@_W@__crt_stdio_output@@@__crt_stdio_output@@IEAA@AEBV?$string_output_adapter@_W@1@AEB_KAEBQEB_WAEAV__crt_cached_ptd_host@@AEBQEAD@Z 00000001800506f0 f i libucrtd:output.obj
 0001:0004f790       ??$?0AEBV?$string_output_adapter@_W@__crt_stdio_output@@AEB_KAEBQEB_WAEAV__crt_cached_ptd_host@@AEBQEAD@?$standard_base@_WV?$string_output_adapter@_W@__crt_stdio_output@@@__crt_stdio_output@@IEAA@AEBV?$string_output_adapter@_W@1@AEB_KAEBQEB_WAEAV__crt_cached_ptd_host@@AEBQEAD@Z 0000000180050790 f i libucrtd:output.obj
 0001:0004fc20       ??$__crt_interlocked_read@J@@YAJPEDJ@Z 0000000180050c20 f i libucrtd:output.obj
 0001:0004fc40       ??$_tcstol_internal@DPEAPEAD$0A@@@YAJAEAV__crt_cached_ptd_host@@QEBDQEAPEADH@Z 0000000180050c40 f i libucrtd:output.obj
 0001:0004fc90       ??$_tcstol_internal@_WPEAPEA_W$0A@@@YAJAEAV__crt_cached_ptd_host@@QEB_WQEAPEA_WH@Z 0000000180050c90 f i libucrtd:output.obj
 0001:00053cb0       ??$count@D@formatting_buffer@__crt_stdio_output@@QEBA_KXZ 0000000180054cb0 f i libucrtd:output.obj
 0001:00053d00       ??$count@_W@formatting_buffer@__crt_stdio_output@@QEBA_KXZ 0000000180054d00 f i libucrtd:output.obj
 0001:00053d50       ??$data@D@formatting_buffer@__crt_stdio_output@@QEAAPEADXZ 0000000180054d50 f i libucrtd:output.obj
 0001:00053da0       ??$data@_W@formatting_buffer@__crt_stdio_output@@QEAAPEA_WXZ 0000000180054da0 f i libucrtd:output.obj
 0001:00053df0       ??$ensure_buffer_is_big_enough@D@formatting_buffer@__crt_stdio_output@@QEAA_N_KAEAV__crt_cached_ptd_host@@@Z 0000000180054df0 f i libucrtd:output.obj
 0001:00053f30       ??$ensure_buffer_is_big_enough@_W@formatting_buffer@__crt_stdio_output@@QEAA_N_KAEAV__crt_cached_ptd_host@@@Z 0000000180054f30 f i libucrtd:output.obj
 0001:00054070       ??$extract_argument_from_va_list@C_J@?$positional_parameter_base@DV?$stream_output_adapter@D@__crt_stdio_output@@@__crt_stdio_output@@IEAA_NAEA_J@Z 0000000180055070 f i libucrtd:output.obj
 0001:00054230       ??$extract_argument_from_va_list@C_J@?$positional_parameter_base@DV?$string_output_adapter@D@__crt_stdio_output@@@__crt_stdio_output@@IEAA_NAEA_J@Z 0000000180055230 f i libucrtd:output.obj
 0001:000543f0       ??$extract_argument_from_va_list@C_J@?$positional_parameter_base@_WV?$stream_output_adapter@_W@__crt_stdio_output@@@__crt_stdio_output@@IEAA_NAEA_J@Z 00000001800553f0 f i libucrtd:output.obj
 0001:000545b0       ??$extract_argument_from_va_list@C_J@?$positional_parameter_base@_WV?$string_output_adapter@_W@__crt_stdio_output@@@__crt_stdio_output@@IEAA_NAEA_J@Z 00000001800555b0 f i libucrtd:output.obj
 0001:00054770       ??$extract_argument_from_va_list@C_J@?$standard_base@DV?$stream_output_adapter@D@__crt_stdio_output@@@__crt_stdio_output@@IEAA_NAEA_J@Z 0000000180055770 f i libucrtd:output.obj
 0001:000547b0       ??$extract_argument_from_va_list@C_J@?$standard_base@DV?$string_output_adapter@D@__crt_stdio_output@@@__crt_stdio_output@@IEAA_NAEA_J@Z 00000001800557b0 f i libucrtd:output.obj
 0001:000547f0       ??$extract_argument_from_va_list@C_J@?$standard_base@_WV?$stream_output_adapter@_W@__crt_stdio_output@@@__crt_stdio_output@@IEAA_NAEA_J@Z 00000001800557f0 f i libucrtd:output.obj
 0001:00054830       ??$extract_argument_from_va_list@C_J@?$standard_base@_WV?$string_output_adapter@_W@__crt_stdio_output@@@__crt_stdio_output@@IEAA_NAEA_J@Z 0000000180055830 f i libucrtd:output.obj
 0001:00054870       ??$extract_argument_from_va_list@E_J@?$positional_parameter_base@DV?$stream_output_adapter@D@__crt_stdio_output@@@__crt_stdio_output@@IEAA_NAEA_J@Z 0000000180055870 f i libucrtd:output.obj
 0001:00054a30       ??$extract_argument_from_va_list@E_J@?$positional_parameter_base@DV?$string_output_adapter@D@__crt_stdio_output@@@__crt_stdio_output@@IEAA_NAEA_J@Z 0000000180055a30 f i libucrtd:output.obj
 0001:00054bf0       ??$extract_argument_from_va_list@E_J@?$positional_parameter_base@_WV?$stream_output_adapter@_W@__crt_stdio_output@@@__crt_stdio_output@@IEAA_NAEA_J@Z 0000000180055bf0 f i libucrtd:output.obj
 0001:00054db0       ??$extract_argument_from_va_list@E_J@?$positional_parameter_base@_WV?$string_output_adapter@_W@__crt_stdio_output@@@__crt_stdio_output@@IEAA_NAEA_J@Z 0000000180055db0 f i libucrtd:output.obj
 0001:00054f70       ??$extract_argument_from_va_list@E_J@?$standard_base@DV?$stream_output_adapter@D@__crt_stdio_output@@@__crt_stdio_output@@IEAA_NAEA_J@Z 0000000180055f70 f i libucrtd:output.obj
 0001:00054fb0       ??$extract_argument_from_va_list@E_J@?$standard_base@DV?$string_output_adapter@D@__crt_stdio_output@@@__crt_stdio_output@@IEAA_NAEA_J@Z 0000000180055fb0 f i libucrtd:output.obj
 0001:00054ff0       ??$extract_argument_from_va_list@E_J@?$standard_base@_WV?$stream_output_adapter@_W@__crt_stdio_output@@@__crt_stdio_output@@IEAA_NAEA_J@Z 0000000180055ff0 f i libucrtd:output.obj
 0001:00055030       ??$extract_argument_from_va_list@E_J@?$standard_base@_WV?$string_output_adapter@_W@__crt_stdio_output@@@__crt_stdio_output@@IEAA_NAEA_J@Z 0000000180056030 f i libucrtd:output.obj
 0001:00055070       ??$extract_argument_from_va_list@F_J@?$positional_parameter_base@DV?$stream_output_adapter@D@__crt_stdio_output@@@__crt_stdio_output@@IEAA_NAEA_J@Z 0000000180056070 f i libucrtd:output.obj
 0001:00055230       ??$extract_argument_from_va_list@F_J@?$positional_parameter_base@DV?$string_output_adapter@D@__crt_stdio_output@@@__crt_stdio_output@@IEAA_NAEA_J@Z 0000000180056230 f i libucrtd:output.obj
 0001:000553f0       ??$extract_argument_from_va_list@F_J@?$positional_parameter_base@_WV?$stream_output_adapter@_W@__crt_stdio_output@@@__crt_stdio_output@@IEAA_NAEA_J@Z 00000001800563f0 f i libucrtd:output.obj
 0001:000555b0       ??$extract_argument_from_va_list@F_J@?$positional_parameter_base@_WV?$string_output_adapter@_W@__crt_stdio_output@@@__crt_stdio_output@@IEAA_NAEA_J@Z 00000001800565b0 f i libucrtd:output.obj
 0001:00055770       ??$extract_argument_from_va_list@F_J@?$standard_base@DV?$stream_output_adapter@D@__crt_stdio_output@@@__crt_stdio_output@@IEAA_NAEA_J@Z 0000000180056770 f i libucrtd:output.obj
 0001:000557b0       ??$extract_argument_from_va_list@F_J@?$standard_base@DV?$string_output_adapter@D@__crt_stdio_output@@@__crt_stdio_output@@IEAA_NAEA_J@Z 00000001800567b0 f i libucrtd:output.obj
 0001:000557f0       ??$extract_argument_from_va_list@F_J@?$standard_base@_WV?$stream_output_adapter@_W@__crt_stdio_output@@@__crt_stdio_output@@IEAA_NAEA_J@Z 00000001800567f0 f i libucrtd:output.obj
 0001:00055830       ??$extract_argument_from_va_list@F_J@?$standard_base@_WV?$string_output_adapter@_W@__crt_stdio_output@@@__crt_stdio_output@@IEAA_NAEA_J@Z 0000000180056830 f i libucrtd:output.obj
 0001:00055870       ??$extract_argument_from_va_list@GD@?$positional_parameter_base@DV?$stream_output_adapter@D@__crt_stdio_output@@@__crt_stdio_output@@IEAA_NAEAD@Z 0000000180056870 f i libucrtd:output.obj
 0001:00055a30       ??$extract_argument_from_va_list@GD@?$positional_parameter_base@DV?$string_output_adapter@D@__crt_stdio_output@@@__crt_stdio_output@@IEAA_NAEAD@Z 0000000180056a30 f i libucrtd:output.obj
 0001:00055bf0       ??$extract_argument_from_va_list@GD@?$standard_base@DV?$stream_output_adapter@D@__crt_stdio_output@@@__crt_stdio_output@@IEAA_NAEAD@Z 0000000180056bf0 f i libucrtd:output.obj
 0001:00055c20       ??$extract_argument_from_va_list@GD@?$standard_base@DV?$string_output_adapter@D@__crt_stdio_output@@@__crt_stdio_output@@IEAA_NAEAD@Z 0000000180056c20 f i libucrtd:output.obj
 0001:00055c50       ??$extract_argument_from_va_list@G_J@?$positional_parameter_base@DV?$stream_output_adapter@D@__crt_stdio_output@@@__crt_stdio_output@@IEAA_NAEA_J@Z 0000000180056c50 f i libucrtd:output.obj
 0001:00055e10       ??$extract_argument_from_va_list@G_J@?$positional_parameter_base@DV?$string_output_adapter@D@__crt_stdio_output@@@__crt_stdio_output@@IEAA_NAEA_J@Z 0000000180056e10 f i libucrtd:output.obj
 0001:00055fd0       ??$extract_argument_from_va_list@G_J@?$positional_parameter_base@_WV?$stream_output_adapter@_W@__crt_stdio_output@@@__crt_stdio_output@@IEAA_NAEA_J@Z 0000000180056fd0 f i libucrtd:output.obj
 0001:00056190       ??$extract_argument_from_va_list@G_J@?$positional_parameter_base@_WV?$string_output_adapter@_W@__crt_stdio_output@@@__crt_stdio_output@@IEAA_NAEA_J@Z 0000000180057190 f i libucrtd:output.obj
 0001:00056350       ??$extract_argument_from_va_list@G_J@?$standard_base@DV?$stream_output_adapter@D@__crt_stdio_output@@@__crt_stdio_output@@IEAA_NAEA_J@Z 0000000180057350 f i libucrtd:output.obj
 0001:00056390       ??$extract_argument_from_va_list@G_J@?$standard_base@DV?$string_output_adapter@D@__crt_stdio_output@@@__crt_stdio_output@@IEAA_NAEA_J@Z 0000000180057390 f i libucrtd:output.obj
 0001:000563d0       ??$extract_argument_from_va_list@G_J@?$standard_base@_WV?$stream_output_adapter@_W@__crt_stdio_output@@@__crt_stdio_output@@IEAA_NAEA_J@Z 00000001800573d0 f i libucrtd:output.obj
 0001:00056410       ??$extract_argument_from_va_list@G_J@?$standard_base@_WV?$string_output_adapter@_W@__crt_stdio_output@@@__crt_stdio_output@@IEAA_NAEA_J@Z 0000000180057410 f i libucrtd:output.obj
 0001:00056450       ??$extract_argument_from_va_list@H_J@?$positional_parameter_base@DV?$stream_output_adapter@D@__crt_stdio_output@@@__crt_stdio_output@@IEAA_NAEA_J@Z 0000000180057450 f i libucrtd:output.obj
 0001:00056610       ??$extract_argument_from_va_list@H_J@?$positional_parameter_base@DV?$string_output_adapter@D@__crt_stdio_output@@@__crt_stdio_output@@IEAA_NAEA_J@Z 0000000180057610 f i libucrtd:output.obj
 0001:000567d0       ??$extract_argument_from_va_list@H_J@?$positional_parameter_base@_WV?$stream_output_adapter@_W@__crt_stdio_output@@@__crt_stdio_output@@IEAA_NAEA_J@Z 00000001800577d0 f i libucrtd:output.obj
 0001:00056990       ??$extract_argument_from_va_list@H_J@?$positional_parameter_base@_WV?$string_output_adapter@_W@__crt_stdio_output@@@__crt_stdio_output@@IEAA_NAEA_J@Z 0000000180057990 f i libucrtd:output.obj
 0001:00056b50       ??$extract_argument_from_va_list@H_J@?$standard_base@DV?$stream_output_adapter@D@__crt_stdio_output@@@__crt_stdio_output@@IEAA_NAEA_J@Z 0000000180057b50 f i libucrtd:output.obj
 0001:00056b80       ??$extract_argument_from_va_list@H_J@?$standard_base@DV?$string_output_adapter@D@__crt_stdio_output@@@__crt_stdio_output@@IEAA_NAEA_J@Z 0000000180057b80 f i libucrtd:output.obj
 0001:00056bb0       ??$extract_argument_from_va_list@H_J@?$standard_base@_WV?$stream_output_adapter@_W@__crt_stdio_output@@@__crt_stdio_output@@IEAA_NAEA_J@Z 0000000180057bb0 f i libucrtd:output.obj
 0001:00056be0       ??$extract_argument_from_va_list@H_J@?$standard_base@_WV?$string_output_adapter@_W@__crt_stdio_output@@@__crt_stdio_output@@IEAA_NAEA_J@Z 0000000180057be0 f i libucrtd:output.obj
 0001:00056c10       ??$extract_argument_from_va_list@I_J@?$positional_parameter_base@DV?$stream_output_adapter@D@__crt_stdio_output@@@__crt_stdio_output@@IEAA_NAEA_J@Z 0000000180057c10 f i libucrtd:output.obj
 0001:00056dd0       ??$extract_argument_from_va_list@I_J@?$positional_parameter_base@DV?$string_output_adapter@D@__crt_stdio_output@@@__crt_stdio_output@@IEAA_NAEA_J@Z 0000000180057dd0 f i libucrtd:output.obj
 0001:00056f90       ??$extract_argument_from_va_list@I_J@?$positional_parameter_base@_WV?$stream_output_adapter@_W@__crt_stdio_output@@@__crt_stdio_output@@IEAA_NAEA_J@Z 0000000180057f90 f i libucrtd:output.obj
 0001:00057150       ??$extract_argument_from_va_list@I_J@?$positional_parameter_base@_WV?$string_output_adapter@_W@__crt_stdio_output@@@__crt_stdio_output@@IEAA_NAEA_J@Z 0000000180058150 f i libucrtd:output.obj
 0001:00057310       ??$extract_argument_from_va_list@I_J@?$standard_base@DV?$stream_output_adapter@D@__crt_stdio_output@@@__crt_stdio_output@@IEAA_NAEA_J@Z 0000000180058310 f i libucrtd:output.obj
 0001:00057340       ??$extract_argument_from_va_list@I_J@?$standard_base@DV?$string_output_adapter@D@__crt_stdio_output@@@__crt_stdio_output@@IEAA_NAEA_J@Z 0000000180058340 f i libucrtd:output.obj
 0001:00057370       ??$extract_argument_from_va_list@I_J@?$standard_base@_WV?$stream_output_adapter@_W@__crt_stdio_output@@@__crt_stdio_output@@IEAA_NAEA_J@Z 0000000180058370 f i libucrtd:output.obj
 0001:000573a0       ??$extract_argument_from_va_list@I_J@?$standard_base@_WV?$string_output_adapter@_W@__crt_stdio_output@@@__crt_stdio_output@@IEAA_NAEA_J@Z 00000001800583a0 f i libucrtd:output.obj
 0001:000573d0       ??$extract_argument_from_va_list@PEADPEAD@?$positional_parameter_base@DV?$stream_output_adapter@D@__crt_stdio_output@@@__crt_stdio_output@@IEAA_NAEAPEAD@Z 00000001800583d0 f i libucrtd:output.obj
 0001:00057590       ??$extract_argument_from_va_list@PEADPEAD@?$positional_parameter_base@DV?$string_output_adapter@D@__crt_stdio_output@@@__crt_stdio_output@@IEAA_NAEAPEAD@Z 0000000180058590 f i libucrtd:output.obj
 0001:00057750       ??$extract_argument_from_va_list@PEADPEAD@?$positional_parameter_base@_WV?$stream_output_adapter@_W@__crt_stdio_output@@@__crt_stdio_output@@IEAA_NAEAPEAD@Z 0000000180058750 f i libucrtd:output.obj
 0001:00057910       ??$extract_argument_from_va_list@PEADPEAD@?$positional_parameter_base@_WV?$string_output_adapter@_W@__crt_stdio_output@@@__crt_stdio_output@@IEAA_NAEAPEAD@Z 0000000180058910 f i libucrtd:output.obj
 0001:00057ad0       ??$extract_argument_from_va_list@PEADPEAD@?$standard_base@DV?$stream_output_adapter@D@__crt_stdio_output@@@__crt_stdio_output@@IEAA_NAEAPEAD@Z 0000000180058ad0 f i libucrtd:output.obj
 0001:00057b00       ??$extract_argument_from_va_list@PEADPEAD@?$standard_base@DV?$string_output_adapter@D@__crt_stdio_output@@@__crt_stdio_output@@IEAA_NAEAPEAD@Z 0000000180058b00 f i libucrtd:output.obj
 0001:00057b30       ??$extract_argument_from_va_list@PEADPEAD@?$standard_base@_WV?$stream_output_adapter@_W@__crt_stdio_output@@@__crt_stdio_output@@IEAA_NAEAPEAD@Z 0000000180058b30 f i libucrtd:output.obj
 0001:00057b60       ??$extract_argument_from_va_list@PEADPEAD@?$standard_base@_WV?$string_output_adapter@_W@__crt_stdio_output@@@__crt_stdio_output@@IEAA_NAEAPEAD@Z 0000000180058b60 f i libucrtd:output.obj
 0001:00057b90       ??$extract_argument_from_va_list@PEAUansi_string@?1??type_case_Z@?$output_processor@DV?$stream_output_adapter@D@__crt_stdio_output@@V?$format_validation_base@DV?$stream_output_adapter@D@__crt_stdio_output@@@2@@__crt_stdio_output@@AEAA_NXZ@PEAU1?1??234@AEAA_NXZ@@?$standard_base@DV?$stream_output_adapter@D@__crt_stdio_output@@@__crt_stdio_output@@IEAA_NAEAPEAUansi_string@?1??type_case_Z@?$output_processor@DV?$stream_output_adapter@D@__crt_stdio_output@@V?$format_validation_base@DV?$stream_output_adapter@D@__crt_stdio_output@@@2@@1@AEAA_NXZ@@Z 0000000180058b90 f i libucrtd:output.obj
 0001:00057bc0       ??$extract_argument_from_va_list@PEAUansi_string@?1??type_case_Z@?$output_processor@DV?$stream_output_adapter@D@__crt_stdio_output@@V?$positional_parameter_base@DV?$stream_output_adapter@D@__crt_stdio_output@@@2@@__crt_stdio_output@@AEAA_NXZ@PEAU1?1??234@AEAA_NXZ@@?$positional_parameter_base@DV?$stream_output_adapter@D@__crt_stdio_output@@@__crt_stdio_output@@IEAA_NAEAPEAUansi_string@?1??type_case_Z@?$output_processor@DV?$stream_output_adapter@D@__crt_stdio_output@@V?$positional_parameter_base@DV?$stream_output_adapter@D@__crt_stdio_output@@@2@@1@AEAA_NXZ@@Z 0000000180058bc0 f i libucrtd:output.obj
 0001:00057d80       ??$extract_argument_from_va_list@PEAUansi_string@?1??type_case_Z@?$output_processor@DV?$stream_output_adapter@D@__crt_stdio_output@@V?$positional_parameter_base@DV?$stream_output_adapter@D@__crt_stdio_output@@@2@@__crt_stdio_output@@AEAA_NXZ@PEAU1?1??234@AEAA_NXZ@@?$standard_base@DV?$stream_output_adapter@D@__crt_stdio_output@@@__crt_stdio_output@@IEAA_NAEAPEAUansi_string@?1??type_case_Z@?$output_processor@DV?$stream_output_adapter@D@__crt_stdio_output@@V?$positional_parameter_base@DV?$stream_output_adapter@D@__crt_stdio_output@@@2@@1@AEAA_NXZ@@Z 0000000180058d80 f i libucrtd:output.obj
 0001:00057db0       ??$extract_argument_from_va_list@PEAUansi_string@?1??type_case_Z@?$output_processor@DV?$stream_output_adapter@D@__crt_stdio_output@@V?$standard_base@DV?$stream_output_adapter@D@__crt_stdio_output@@@2@@__crt_stdio_output@@AEAA_NXZ@PEAU1?1??234@AEAA_NXZ@@?$standard_base@DV?$stream_output_adapter@D@__crt_stdio_output@@@__crt_stdio_output@@IEAA_NAEAPEAUansi_string@?1??type_case_Z@?$output_processor@DV?$stream_output_adapter@D@__crt_stdio_output@@V?$standard_base@DV?$stream_output_adapter@D@__crt_stdio_output@@@2@@1@AEAA_NXZ@@Z 0000000180058db0 f i libucrtd:output.obj
 0001:00057de0       ??$extract_argument_from_va_list@PEAUansi_string@?1??type_case_Z@?$output_processor@DV?$string_output_adapter@D@__crt_stdio_output@@V?$format_validation_base@DV?$string_output_adapter@D@__crt_stdio_output@@@2@@__crt_stdio_output@@AEAA_NXZ@PEAU1?1??234@AEAA_NXZ@@?$standard_base@DV?$string_output_adapter@D@__crt_stdio_output@@@__crt_stdio_output@@IEAA_NAEAPEAUansi_string@?1??type_case_Z@?$output_processor@DV?$string_output_adapter@D@__crt_stdio_output@@V?$format_validation_base@DV?$string_output_adapter@D@__crt_stdio_output@@@2@@1@AEAA_NXZ@@Z 0000000180058de0 f i libucrtd:output.obj
 0001:00057e10       ??$extract_argument_from_va_list@PEAUansi_string@?1??type_case_Z@?$output_processor@DV?$string_output_adapter@D@__crt_stdio_output@@V?$positional_parameter_base@DV?$string_output_adapter@D@__crt_stdio_output@@@2@@__crt_stdio_output@@AEAA_NXZ@PEAU1?1??234@AEAA_NXZ@@?$positional_parameter_base@DV?$string_output_adapter@D@__crt_stdio_output@@@__crt_stdio_output@@IEAA_NAEAPEAUansi_string@?1??type_case_Z@?$output_processor@DV?$string_output_adapter@D@__crt_stdio_output@@V?$positional_parameter_base@DV?$string_output_adapter@D@__crt_stdio_output@@@2@@1@AEAA_NXZ@@Z 0000000180058e10 f i libucrtd:output.obj
 0001:00057fd0       ??$extract_argument_from_va_list@PEAUansi_string@?1??type_case_Z@?$output_processor@DV?$string_output_adapter@D@__crt_stdio_output@@V?$positional_parameter_base@DV?$string_output_adapter@D@__crt_stdio_output@@@2@@__crt_stdio_output@@AEAA_NXZ@PEAU1?1??234@AEAA_NXZ@@?$standard_base@DV?$string_output_adapter@D@__crt_stdio_output@@@__crt_stdio_output@@IEAA_NAEAPEAUansi_string@?1??type_case_Z@?$output_processor@DV?$string_output_adapter@D@__crt_stdio_output@@V?$positional_parameter_base@DV?$string_output_adapter@D@__crt_stdio_output@@@2@@1@AEAA_NXZ@@Z 0000000180058fd0 f i libucrtd:output.obj
 0001:00058000       ??$extract_argument_from_va_list@PEAUansi_string@?1??type_case_Z@?$output_processor@DV?$string_output_adapter@D@__crt_stdio_output@@V?$standard_base@DV?$string_output_adapter@D@__crt_stdio_output@@@2@@__crt_stdio_output@@AEAA_NXZ@PEAU1?1??234@AEAA_NXZ@@?$standard_base@DV?$string_output_adapter@D@__crt_stdio_output@@@__crt_stdio_output@@IEAA_NAEAPEAUansi_string@?1??type_case_Z@?$output_processor@DV?$string_output_adapter@D@__crt_stdio_output@@V?$standard_base@DV?$string_output_adapter@D@__crt_stdio_output@@@2@@1@AEAA_NXZ@@Z 0000000180059000 f i libucrtd:output.obj
 0001:00058030       ??$extract_argument_from_va_list@PEAUansi_string@?1??type_case_Z@?$output_processor@_WV?$stream_output_adapter@_W@__crt_stdio_output@@V?$format_validation_base@_WV?$stream_output_adapter@_W@__crt_stdio_output@@@2@@__crt_stdio_output@@AEAA_NXZ@PEAU1?1??234@AEAA_NXZ@@?$standard_base@_WV?$stream_output_adapter@_W@__crt_stdio_output@@@__crt_stdio_output@@IEAA_NAEAPEAUansi_string@?1??type_case_Z@?$output_processor@_WV?$stream_output_adapter@_W@__crt_stdio_output@@V?$format_validation_base@_WV?$stream_output_adapter@_W@__crt_stdio_output@@@2@@1@AEAA_NXZ@@Z 0000000180059030 f i libucrtd:output.obj
 0001:00058060       ??$extract_argument_from_va_list@PEAUansi_string@?1??type_case_Z@?$output_processor@_WV?$stream_output_adapter@_W@__crt_stdio_output@@V?$positional_parameter_base@_WV?$stream_output_adapter@_W@__crt_stdio_output@@@2@@__crt_stdio_output@@AEAA_NXZ@PEAU1?1??234@AEAA_NXZ@@?$positional_parameter_base@_WV?$stream_output_adapter@_W@__crt_stdio_output@@@__crt_stdio_output@@IEAA_NAEAPEAUansi_string@?1??type_case_Z@?$output_processor@_WV?$stream_output_adapter@_W@__crt_stdio_output@@V?$positional_parameter_base@_WV?$stream_output_adapter@_W@__crt_stdio_output@@@2@@1@AEAA_NXZ@@Z 0000000180059060 f i libucrtd:output.obj
 0001:00058220       ??$extract_argument_from_va_list@PEAUansi_string@?1??type_case_Z@?$output_processor@_WV?$stream_output_adapter@_W@__crt_stdio_output@@V?$positional_parameter_base@_WV?$stream_output_adapter@_W@__crt_stdio_output@@@2@@__crt_stdio_output@@AEAA_NXZ@PEAU1?1??234@AEAA_NXZ@@?$standard_base@_WV?$stream_output_adapter@_W@__crt_stdio_output@@@__crt_stdio_output@@IEAA_NAEAPEAUansi_string@?1??type_case_Z@?$output_processor@_WV?$stream_output_adapter@_W@__crt_stdio_output@@V?$positional_parameter_base@_WV?$stream_output_adapter@_W@__crt_stdio_output@@@2@@1@AEAA_NXZ@@Z 0000000180059220 f i libucrtd:output.obj
 0001:00058250       ??$extract_argument_from_va_list@PEAUansi_string@?1??type_case_Z@?$output_processor@_WV?$stream_output_adapter@_W@__crt_stdio_output@@V?$standard_base@_WV?$stream_output_adapter@_W@__crt_stdio_output@@@2@@__crt_stdio_output@@AEAA_NXZ@PEAU1?1??234@AEAA_NXZ@@?$standard_base@_WV?$stream_output_adapter@_W@__crt_stdio_output@@@__crt_stdio_output@@IEAA_NAEAPEAUansi_string@?1??type_case_Z@?$output_processor@_WV?$stream_output_adapter@_W@__crt_stdio_output@@V?$standard_base@_WV?$stream_output_adapter@_W@__crt_stdio_output@@@2@@1@AEAA_NXZ@@Z 0000000180059250 f i libucrtd:output.obj
 0001:00058280       ??$extract_argument_from_va_list@PEAUansi_string@?1??type_case_Z@?$output_processor@_WV?$string_output_adapter@_W@__crt_stdio_output@@V?$format_validation_base@_WV?$string_output_adapter@_W@__crt_stdio_output@@@2@@__crt_stdio_output@@AEAA_NXZ@PEAU1?1??234@AEAA_NXZ@@?$standard_base@_WV?$string_output_adapter@_W@__crt_stdio_output@@@__crt_stdio_output@@IEAA_NAEAPEAUansi_string@?1??type_case_Z@?$output_processor@_WV?$string_output_adapter@_W@__crt_stdio_output@@V?$format_validation_base@_WV?$string_output_adapter@_W@__crt_stdio_output@@@2@@1@AEAA_NXZ@@Z 0000000180059280 f i libucrtd:output.obj
 0001:000582b0       ??$extract_argument_from_va_list@PEAUansi_string@?1??type_case_Z@?$output_processor@_WV?$string_output_adapter@_W@__crt_stdio_output@@V?$positional_parameter_base@_WV?$string_output_adapter@_W@__crt_stdio_output@@@2@@__crt_stdio_output@@AEAA_NXZ@PEAU1?1??234@AEAA_NXZ@@?$positional_parameter_base@_WV?$string_output_adapter@_W@__crt_stdio_output@@@__crt_stdio_output@@IEAA_NAEAPEAUansi_string@?1??type_case_Z@?$output_processor@_WV?$string_output_adapter@_W@__crt_stdio_output@@V?$positional_parameter_base@_WV?$string_output_adapter@_W@__crt_stdio_output@@@2@@1@AEAA_NXZ@@Z 00000001800592b0 f i libucrtd:output.obj
 0001:00058470       ??$extract_argument_from_va_list@PEAUansi_string@?1??type_case_Z@?$output_processor@_WV?$string_output_adapter@_W@__crt_stdio_output@@V?$positional_parameter_base@_WV?$string_output_adapter@_W@__crt_stdio_output@@@2@@__crt_stdio_output@@AEAA_NXZ@PEAU1?1??234@AEAA_NXZ@@?$standard_base@_WV?$string_output_adapter@_W@__crt_stdio_output@@@__crt_stdio_output@@IEAA_NAEAPEAUansi_string@?1??type_case_Z@?$output_processor@_WV?$string_output_adapter@_W@__crt_stdio_output@@V?$positional_parameter_base@_WV?$string_output_adapter@_W@__crt_stdio_output@@@2@@1@AEAA_NXZ@@Z 0000000180059470 f i libucrtd:output.obj
 0001:000584a0       ??$extract_argument_from_va_list@PEAUansi_string@?1??type_case_Z@?$output_processor@_WV?$string_output_adapter@_W@__crt_stdio_output@@V?$standard_base@_WV?$string_output_adapter@_W@__crt_stdio_output@@@2@@__crt_stdio_output@@AEAA_NXZ@PEAU1?1??234@AEAA_NXZ@@?$standard_base@_WV?$string_output_adapter@_W@__crt_stdio_output@@@__crt_stdio_output@@IEAA_NAEAPEAUansi_string@?1??type_case_Z@?$output_processor@_WV?$string_output_adapter@_W@__crt_stdio_output@@V?$standard_base@_WV?$string_output_adapter@_W@__crt_stdio_output@@@2@@1@AEAA_NXZ@@Z 00000001800594a0 f i libucrtd:output.obj
 0001:000584d0       ??$extract_argument_from_va_list@PEAXPEAX@?$positional_parameter_base@DV?$stream_output_adapter@D@__crt_stdio_output@@@__crt_stdio_output@@IEAA_NAEAPEAX@Z 00000001800594d0 f i libucrtd:output.obj
 0001:00058690       ??$extract_argument_from_va_list@PEAXPEAX@?$positional_parameter_base@DV?$string_output_adapter@D@__crt_stdio_output@@@__crt_stdio_output@@IEAA_NAEAPEAX@Z 0000000180059690 f i libucrtd:output.obj
 0001:00058850       ??$extract_argument_from_va_list@PEAXPEAX@?$positional_parameter_base@_WV?$stream_output_adapter@_W@__crt_stdio_output@@@__crt_stdio_output@@IEAA_NAEAPEAX@Z 0000000180059850 f i libucrtd:output.obj
 0001:00058a10       ??$extract_argument_from_va_list@PEAXPEAX@?$positional_parameter_base@_WV?$string_output_adapter@_W@__crt_stdio_output@@@__crt_stdio_output@@IEAA_NAEAPEAX@Z 0000000180059a10 f i libucrtd:output.obj
 0001:00058bd0       ??$extract_argument_from_va_list@PEAXPEAX@?$standard_base@DV?$stream_output_adapter@D@__crt_stdio_output@@@__crt_stdio_output@@IEAA_NAEAPEAX@Z 0000000180059bd0 f i libucrtd:output.obj
 0001:00058c00       ??$extract_argument_from_va_list@PEAXPEAX@?$standard_base@DV?$string_output_adapter@D@__crt_stdio_output@@@__crt_stdio_output@@IEAA_NAEAPEAX@Z 0000000180059c00 f i libucrtd:output.obj
 0001:00058c30       ??$extract_argument_from_va_list@PEAXPEAX@?$standard_base@_WV?$stream_output_adapter@_W@__crt_stdio_output@@@__crt_stdio_output@@IEAA_NAEAPEAX@Z 0000000180059c30 f i libucrtd:output.obj
 0001:00058c60       ??$extract_argument_from_va_list@PEAXPEAX@?$standard_base@_WV?$string_output_adapter@_W@__crt_stdio_output@@@__crt_stdio_output@@IEAA_NAEAPEAX@Z 0000000180059c60 f i libucrtd:output.obj
 0001:00058c90       ??$extract_argument_from_va_list@U_CRT_DOUBLE@@U1@@?$positional_parameter_base@DV?$stream_output_adapter@D@__crt_stdio_output@@@__crt_stdio_output@@IEAA_NAEAU_CRT_DOUBLE@@@Z 0000000180059c90 f i libucrtd:output.obj
 0001:00058eb0       ??$extract_argument_from_va_list@U_CRT_DOUBLE@@U1@@?$positional_parameter_base@DV?$string_output_adapter@D@__crt_stdio_output@@@__crt_stdio_output@@IEAA_NAEAU_CRT_DOUBLE@@@Z 0000000180059eb0 f i libucrtd:output.obj
 0001:000590d0       ??$extract_argument_from_va_list@U_CRT_DOUBLE@@U1@@?$positional_parameter_base@_WV?$stream_output_adapter@_W@__crt_stdio_output@@@__crt_stdio_output@@IEAA_NAEAU_CRT_DOUBLE@@@Z 000000018005a0d0 f i libucrtd:output.obj
 0001:000592f0       ??$extract_argument_from_va_list@U_CRT_DOUBLE@@U1@@?$positional_parameter_base@_WV?$string_output_adapter@_W@__crt_stdio_output@@@__crt_stdio_output@@IEAA_NAEAU_CRT_DOUBLE@@@Z 000000018005a2f0 f i libucrtd:output.obj
 0001:00059510       ??$extract_argument_from_va_list@U_CRT_DOUBLE@@U1@@?$standard_base@DV?$stream_output_adapter@D@__crt_stdio_output@@@__crt_stdio_output@@IEAA_NAEAU_CRT_DOUBLE@@@Z 000000018005a510 f i libucrtd:output.obj
 0001:00059560       ??$extract_argument_from_va_list@U_CRT_DOUBLE@@U1@@?$standard_base@DV?$string_output_adapter@D@__crt_stdio_output@@@__crt_stdio_output@@IEAA_NAEAU_CRT_DOUBLE@@@Z 000000018005a560 f i libucrtd:output.obj
 0001:000595b0       ??$extract_argument_from_va_list@U_CRT_DOUBLE@@U1@@?$standard_base@_WV?$stream_output_adapter@_W@__crt_stdio_output@@@__crt_stdio_output@@IEAA_NAEAU_CRT_DOUBLE@@@Z 000000018005a5b0 f i libucrtd:output.obj
 0001:00059600       ??$extract_argument_from_va_list@U_CRT_DOUBLE@@U1@@?$standard_base@_WV?$string_output_adapter@_W@__crt_stdio_output@@@__crt_stdio_output@@IEAA_NAEAU_CRT_DOUBLE@@@Z 000000018005a600 f i libucrtd:output.obj
 0001:00059650       ??$extract_argument_from_va_list@_J_J@?$positional_parameter_base@DV?$stream_output_adapter@D@__crt_stdio_output@@@__crt_stdio_output@@IEAA_NAEA_J@Z 000000018005a650 f i libucrtd:output.obj
 0001:00059810       ??$extract_argument_from_va_list@_J_J@?$positional_parameter_base@DV?$string_output_adapter@D@__crt_stdio_output@@@__crt_stdio_output@@IEAA_NAEA_J@Z 000000018005a810 f i libucrtd:output.obj
 0001:000599d0       ??$extract_argument_from_va_list@_J_J@?$positional_parameter_base@_WV?$stream_output_adapter@_W@__crt_stdio_output@@@__crt_stdio_output@@IEAA_NAEA_J@Z 000000018005a9d0 f i libucrtd:output.obj
 0001:00059b90       ??$extract_argument_from_va_list@_J_J@?$positional_parameter_base@_WV?$string_output_adapter@_W@__crt_stdio_output@@@__crt_stdio_output@@IEAA_NAEA_J@Z 000000018005ab90 f i libucrtd:output.obj
 0001:00059d50       ??$extract_argument_from_va_list@_J_J@?$standard_base@DV?$stream_output_adapter@D@__crt_stdio_output@@@__crt_stdio_output@@IEAA_NAEA_J@Z 000000018005ad50 f i libucrtd:output.obj
 0001:00059d80       ??$extract_argument_from_va_list@_J_J@?$standard_base@DV?$string_output_adapter@D@__crt_stdio_output@@@__crt_stdio_output@@IEAA_NAEA_J@Z 000000018005ad80 f i libucrtd:output.obj
 0001:00059db0       ??$extract_argument_from_va_list@_J_J@?$standard_base@_WV?$stream_output_adapter@_W@__crt_stdio_output@@@__crt_stdio_output@@IEAA_NAEA_J@Z 000000018005adb0 f i libucrtd:output.obj
 0001:00059de0       ??$extract_argument_from_va_list@_J_J@?$standard_base@_WV?$string_output_adapter@_W@__crt_stdio_output@@@__crt_stdio_output@@IEAA_NAEA_J@Z 000000018005ade0 f i libucrtd:output.obj
 0001:00059e10       ??$extract_argument_from_va_list@_K_J@?$positional_parameter_base@DV?$stream_output_adapter@D@__crt_stdio_output@@@__crt_stdio_output@@IEAA_NAEA_J@Z 000000018005ae10 f i libucrtd:output.obj
 0001:00059fd0       ??$extract_argument_from_va_list@_K_J@?$positional_parameter_base@DV?$string_output_adapter@D@__crt_stdio_output@@@__crt_stdio_output@@IEAA_NAEA_J@Z 000000018005afd0 f i libucrtd:output.obj
 0001:0005a190       ??$extract_argument_from_va_list@_K_J@?$positional_parameter_base@_WV?$stream_output_adapter@_W@__crt_stdio_output@@@__crt_stdio_output@@IEAA_NAEA_J@Z 000000018005b190 f i libucrtd:output.obj
 0001:0005a350       ??$extract_argument_from_va_list@_K_J@?$positional_parameter_base@_WV?$string_output_adapter@_W@__crt_stdio_output@@@__crt_stdio_output@@IEAA_NAEA_J@Z 000000018005b350 f i libucrtd:output.obj
 0001:0005a510       ??$extract_argument_from_va_list@_K_J@?$standard_base@DV?$stream_output_adapter@D@__crt_stdio_output@@@__crt_stdio_output@@IEAA_NAEA_J@Z 000000018005b510 f i libucrtd:output.obj
 0001:0005a540       ??$extract_argument_from_va_list@_K_J@?$standard_base@DV?$string_output_adapter@D@__crt_stdio_output@@@__crt_stdio_output@@IEAA_NAEA_J@Z 000000018005b540 f i libucrtd:output.obj
 0001:0005a570       ??$extract_argument_from_va_list@_K_J@?$standard_base@_WV?$stream_output_adapter@_W@__crt_stdio_output@@@__crt_stdio_output@@IEAA_NAEA_J@Z 000000018005b570 f i libucrtd:output.obj
 0001:0005a5a0       ??$extract_argument_from_va_list@_K_J@?$standard_base@_WV?$string_output_adapter@_W@__crt_stdio_output@@@__crt_stdio_output@@IEAA_NAEA_J@Z 000000018005b5a0 f i libucrtd:output.obj
 0001:0005a5d0       ??$extract_argument_from_va_list@_W_W@?$positional_parameter_base@DV?$stream_output_adapter@D@__crt_stdio_output@@@__crt_stdio_output@@IEAA_NAEA_W@Z 000000018005b5d0 f i libucrtd:output.obj
 0001:0005a790       ??$extract_argument_from_va_list@_W_W@?$positional_parameter_base@DV?$string_output_adapter@D@__crt_stdio_output@@@__crt_stdio_output@@IEAA_NAEA_W@Z 000000018005b790 f i libucrtd:output.obj
 0001:0005a950       ??$extract_argument_from_va_list@_W_W@?$positional_parameter_base@_WV?$stream_output_adapter@_W@__crt_stdio_output@@@__crt_stdio_output@@IEAA_NAEA_W@Z 000000018005b950 f i libucrtd:output.obj
 0001:0005ab10       ??$extract_argument_from_va_list@_W_W@?$positional_parameter_base@_WV?$string_output_adapter@_W@__crt_stdio_output@@@__crt_stdio_output@@IEAA_NAEA_W@Z 000000018005bb10 f i libucrtd:output.obj
 0001:0005acd0       ??$extract_argument_from_va_list@_W_W@?$standard_base@DV?$stream_output_adapter@D@__crt_stdio_output@@@__crt_stdio_output@@IEAA_NAEA_W@Z 000000018005bcd0 f i libucrtd:output.obj
 0001:0005ad00       ??$extract_argument_from_va_list@_W_W@?$standard_base@DV?$string_output_adapter@D@__crt_stdio_output@@@__crt_stdio_output@@IEAA_NAEA_W@Z 000000018005bd00 f i libucrtd:output.obj
 0001:0005ad30       ??$extract_argument_from_va_list@_W_W@?$standard_base@_WV?$stream_output_adapter@_W@__crt_stdio_output@@@__crt_stdio_output@@IEAA_NAEA_W@Z 000000018005bd30 f i libucrtd:output.obj
 0001:0005ad60       ??$extract_argument_from_va_list@_W_W@?$standard_base@_WV?$string_output_adapter@_W@__crt_stdio_output@@@__crt_stdio_output@@IEAA_NAEA_W@Z 000000018005bd60 f i libucrtd:output.obj
 0001:0005ad90       ??$get_parameter_type@D@?$positional_parameter_base@DV?$stream_output_adapter@D@__crt_stdio_output@@@__crt_stdio_output@@CA?AW4parameter_type@01@PEAD@Z 000000018005bd90 f i libucrtd:output.obj
 0001:0005ada0       ??$get_parameter_type@D@?$positional_parameter_base@DV?$string_output_adapter@D@__crt_stdio_output@@@__crt_stdio_output@@CA?AW4parameter_type@01@PEAD@Z 000000018005bda0 f i libucrtd:output.obj
 0001:0005adb0       ??$get_parameter_type@D@?$positional_parameter_base@_WV?$stream_output_adapter@_W@__crt_stdio_output@@@__crt_stdio_output@@CA?AW4parameter_type@01@PEAD@Z 000000018005bdb0 f i libucrtd:output.obj
 0001:0005adc0       ??$get_parameter_type@D@?$positional_parameter_base@_WV?$string_output_adapter@_W@__crt_stdio_output@@@__crt_stdio_output@@CA?AW4parameter_type@01@PEAD@Z 000000018005bdc0 f i libucrtd:output.obj
 0001:0005add0       ??$get_parameter_type@Uansi_string@?1??type_case_Z@?$output_processor@DV?$stream_output_adapter@D@__crt_stdio_output@@V?$positional_parameter_base@DV?$stream_output_adapter@D@__crt_stdio_output@@@2@@__crt_stdio_output@@AEAA_NXZ@@?$positional_parameter_base@DV?$stream_output_adapter@D@__crt_stdio_output@@@__crt_stdio_output@@CA?AW4parameter_type@01@PEAUansi_string@?1??type_case_Z@?$output_processor@DV?$stream_output_adapter@D@__crt_stdio_output@@V?$positional_parameter_base@DV?$stream_output_adapter@D@__crt_stdio_output@@@2@@1@AEAA_NXZ@@Z 000000018005bdd0 f i libucrtd:output.obj
 0001:0005ade0       ??$get_parameter_type@Uansi_string@?1??type_case_Z@?$output_processor@DV?$string_output_adapter@D@__crt_stdio_output@@V?$positional_parameter_base@DV?$string_output_adapter@D@__crt_stdio_output@@@2@@__crt_stdio_output@@AEAA_NXZ@@?$positional_parameter_base@DV?$string_output_adapter@D@__crt_stdio_output@@@__crt_stdio_output@@CA?AW4parameter_type@01@PEAUansi_string@?1??type_case_Z@?$output_processor@DV?$string_output_adapter@D@__crt_stdio_output@@V?$positional_parameter_base@DV?$string_output_adapter@D@__crt_stdio_output@@@2@@1@AEAA_NXZ@@Z 000000018005bde0 f i libucrtd:output.obj
 0001:0005adf0       ??$get_parameter_type@Uansi_string@?1??type_case_Z@?$output_processor@_WV?$stream_output_adapter@_W@__crt_stdio_output@@V?$positional_parameter_base@_WV?$stream_output_adapter@_W@__crt_stdio_output@@@2@@__crt_stdio_output@@AEAA_NXZ@@?$positional_parameter_base@_WV?$stream_output_adapter@_W@__crt_stdio_output@@@__crt_stdio_output@@CA?AW4parameter_type@01@PEAUansi_string@?1??type_case_Z@?$output_processor@_WV?$stream_output_adapter@_W@__crt_stdio_output@@V?$positional_parameter_base@_WV?$stream_output_adapter@_W@__crt_stdio_output@@@2@@1@AEAA_NXZ@@Z 000000018005bdf0 f i libucrtd:output.obj
 0001:0005ae00       ??$get_parameter_type@Uansi_string@?1??type_case_Z@?$output_processor@_WV?$string_output_adapter@_W@__crt_stdio_output@@V?$positional_parameter_base@_WV?$string_output_adapter@_W@__crt_stdio_output@@@2@@__crt_stdio_output@@AEAA_NXZ@@?$positional_parameter_base@_WV?$string_output_adapter@_W@__crt_stdio_output@@@__crt_stdio_output@@CA?AW4parameter_type@01@PEAUansi_string@?1??type_case_Z@?$output_processor@_WV?$string_output_adapter@_W@__crt_stdio_output@@V?$positional_parameter_base@_WV?$string_output_adapter@_W@__crt_stdio_output@@@2@@1@AEAA_NXZ@@Z 000000018005be00 f i libucrtd:output.obj
 0001:0005ae10       ??$get_parameter_type@X@?$positional_parameter_base@DV?$stream_output_adapter@D@__crt_stdio_output@@@__crt_stdio_output@@CA?AW4parameter_type@01@PEAX@Z 000000018005be10 f i libucrtd:output.obj
 0001:0005ae20       ??$get_parameter_type@X@?$positional_parameter_base@DV?$string_output_adapter@D@__crt_stdio_output@@@__crt_stdio_output@@CA?AW4parameter_type@01@PEAX@Z 000000018005be20 f i libucrtd:output.obj
 0001:0005ae30       ??$get_parameter_type@X@?$positional_parameter_base@_WV?$stream_output_adapter@_W@__crt_stdio_output@@@__crt_stdio_output@@CA?AW4parameter_type@01@PEAX@Z 000000018005be30 f i libucrtd:output.obj
 0001:0005ae40       ??$get_parameter_type@X@?$positional_parameter_base@_WV?$string_output_adapter@_W@__crt_stdio_output@@@__crt_stdio_output@@CA?AW4parameter_type@01@PEAX@Z 000000018005be40 f i libucrtd:output.obj
 0001:0005ae50       ??$is_character_specifier@D@?$positional_parameter_base@DV?$stream_output_adapter@D@__crt_stdio_output@@@__crt_stdio_output@@CA_ND@Z 000000018005be50 f i libucrtd:output.obj
 0001:0005ae90       ??$is_character_specifier@D@?$positional_parameter_base@DV?$string_output_adapter@D@__crt_stdio_output@@@__crt_stdio_output@@CA_ND@Z 000000018005be90 f i libucrtd:output.obj
 0001:0005aed0       ??$is_character_specifier@_W@?$positional_parameter_base@_WV?$stream_output_adapter@_W@__crt_stdio_output@@@__crt_stdio_output@@CA_N_W@Z 000000018005bed0 f i libucrtd:output.obj
 0001:0005af10       ??$is_character_specifier@_W@?$positional_parameter_base@_WV?$string_output_adapter@_W@__crt_stdio_output@@@__crt_stdio_output@@CA_N_W@Z 000000018005bf10 f i libucrtd:output.obj
 0001:0005af50       ??$is_integral_specifier@D@?$positional_parameter_base@DV?$stream_output_adapter@D@__crt_stdio_output@@@__crt_stdio_output@@CA_ND@Z 000000018005bf50 f i libucrtd:output.obj
 0001:0005afc0       ??$is_integral_specifier@D@?$positional_parameter_base@DV?$string_output_adapter@D@__crt_stdio_output@@@__crt_stdio_output@@CA_ND@Z 000000018005bfc0 f i libucrtd:output.obj
 0001:0005b030       ??$is_integral_specifier@_W@?$positional_parameter_base@_WV?$stream_output_adapter@_W@__crt_stdio_output@@@__crt_stdio_output@@CA_N_W@Z 000000018005c030 f i libucrtd:output.obj
 0001:0005b0a0       ??$is_integral_specifier@_W@?$positional_parameter_base@_WV?$string_output_adapter@_W@__crt_stdio_output@@@__crt_stdio_output@@CA_N_W@Z 000000018005c0a0 f i libucrtd:output.obj
 0001:0005b110       ??$is_overflow_condition@K@__crt_strtox@@YA_NIK@Z 000000018005c110 f i libucrtd:output.obj
 0001:0005b180       ??$is_pointer_specifier@D@?$positional_parameter_base@DV?$stream_output_adapter@D@__crt_stdio_output@@@__crt_stdio_output@@CA_ND@Z 000000018005c180 f i libucrtd:output.obj
 0001:0005b1b0       ??$is_pointer_specifier@D@?$positional_parameter_base@DV?$string_output_adapter@D@__crt_stdio_output@@@__crt_stdio_output@@CA_ND@Z 000000018005c1b0 f i libucrtd:output.obj
 0001:0005b1e0       ??$is_pointer_specifier@_W@?$positional_parameter_base@_WV?$stream_output_adapter@_W@__crt_stdio_output@@@__crt_stdio_output@@CA_N_W@Z 000000018005c1e0 f i libucrtd:output.obj
 0001:0005b210       ??$is_pointer_specifier@_W@?$positional_parameter_base@_WV?$string_output_adapter@_W@__crt_stdio_output@@@__crt_stdio_output@@CA_N_W@Z 000000018005c210 f i libucrtd:output.obj
 0001:0005b240       ??$is_string_specifier@D@?$positional_parameter_base@DV?$stream_output_adapter@D@__crt_stdio_output@@@__crt_stdio_output@@CA_ND@Z 000000018005c240 f i libucrtd:output.obj
 0001:0005b280       ??$is_string_specifier@D@?$positional_parameter_base@DV?$string_output_adapter@D@__crt_stdio_output@@@__crt_stdio_output@@CA_ND@Z 000000018005c280 f i libucrtd:output.obj
 0001:0005b2c0       ??$is_string_specifier@_W@?$positional_parameter_base@_WV?$stream_output_adapter@_W@__crt_stdio_output@@@__crt_stdio_output@@CA_N_W@Z 000000018005c2c0 f i libucrtd:output.obj
 0001:0005b300       ??$is_string_specifier@_W@?$positional_parameter_base@_WV?$string_output_adapter@_W@__crt_stdio_output@@@__crt_stdio_output@@CA_N_W@Z 000000018005c300 f i libucrtd:output.obj
 0001:0005b340       ??$is_wide_character_specifier@D@__crt_stdio_output@@YA_N_KDW4length_modifier@0@@Z 000000018005c340 f i libucrtd:output.obj
 0001:0005b3e0       ??$is_wide_character_specifier@_W@__crt_stdio_output@@YA_N_K_WW4length_modifier@0@@Z 000000018005c3e0 f i libucrtd:output.obj
 0001:0005b4b0       ??$make_c_string_character_source@DPEAPEAD@__crt_strtox@@YA?AV?$c_string_character_source@D@0@QEBDQEAPEAD@Z 000000018005c4b0 f i libucrtd:output.obj
 0001:0005b4f0       ??$make_c_string_character_source@_WPEAPEA_W@__crt_strtox@@YA?AV?$c_string_character_source@_W@0@QEB_WQEAPEA_W@Z 000000018005c4f0 f i libucrtd:output.obj
 0001:0005b530       ??$parse_integer@KV?$c_string_character_source@D@__crt_strtox@@$0A@@__crt_strtox@@YAKAEAV__crt_cached_ptd_host@@V?$c_string_character_source@D@0@H_N@Z 000000018005c530 f i libucrtd:output.obj
 0001:0005b9b0       ??$parse_integer@KV?$c_string_character_source@_W@__crt_strtox@@$0A@@__crt_strtox@@YAKAEAV__crt_cached_ptd_host@@V?$c_string_character_source@_W@0@H_N@Z 000000018005c9b0 f i libucrtd:output.obj
 0001:0005be30       ??$peek_va_arg@C@__crt_stdio_output@@YACPEAD@Z 000000018005ce30 f i libucrtd:output.obj
 0001:0005be90       ??$peek_va_arg@E@__crt_stdio_output@@YAEPEAD@Z 000000018005ce90 f i libucrtd:output.obj
 0001:0005bef0       ??$peek_va_arg@F@__crt_stdio_output@@YAFPEAD@Z 000000018005cef0 f i libucrtd:output.obj
 0001:0005bf50       ??$peek_va_arg@G@__crt_stdio_output@@YAGPEAD@Z 000000018005cf50 f i libucrtd:output.obj
 0001:0005bfb0       ??$peek_va_arg@H@__crt_stdio_output@@YAHPEAD@Z 000000018005cfb0 f i libucrtd:output.obj
 0001:0005c000       ??$peek_va_arg@I@__crt_stdio_output@@YAIPEAD@Z 000000018005d000 f i libucrtd:output.obj
 0001:0005c050       ??$peek_va_arg@PEAD@__crt_stdio_output@@YAPEADPEAD@Z 000000018005d050 f i libucrtd:output.obj
 0001:0005c0b0       ??$peek_va_arg@PEAUansi_string@?1??type_case_Z@?$output_processor@DV?$stream_output_adapter@D@__crt_stdio_output@@V?$positional_parameter_base@DV?$stream_output_adapter@D@__crt_stdio_output@@@2@@__crt_stdio_output@@AEAA_NXZ@@__crt_stdio_output@@YAPEAUansi_string@?1??type_case_Z@?$output_processor@DV?$stream_output_adapter@D@__crt_stdio_output@@V?$positional_parameter_base@DV?$stream_output_adapter@D@__crt_stdio_output@@@2@@0@AEAA_NXZ@PEAD@Z 000000018005d0b0 f i libucrtd:output.obj
 0001:0005c110       ??$peek_va_arg@PEAUansi_string@?1??type_case_Z@?$output_processor@DV?$string_output_adapter@D@__crt_stdio_output@@V?$positional_parameter_base@DV?$string_output_adapter@D@__crt_stdio_output@@@2@@__crt_stdio_output@@AEAA_NXZ@@__crt_stdio_output@@YAPEAUansi_string@?1??type_case_Z@?$output_processor@DV?$string_output_adapter@D@__crt_stdio_output@@V?$positional_parameter_base@DV?$string_output_adapter@D@__crt_stdio_output@@@2@@0@AEAA_NXZ@PEAD@Z 000000018005d110 f i libucrtd:output.obj
 0001:0005c170       ??$peek_va_arg@PEAUansi_string@?1??type_case_Z@?$output_processor@_WV?$stream_output_adapter@_W@__crt_stdio_output@@V?$positional_parameter_base@_WV?$stream_output_adapter@_W@__crt_stdio_output@@@2@@__crt_stdio_output@@AEAA_NXZ@@__crt_stdio_output@@YAPEAUansi_string@?1??type_case_Z@?$output_processor@_WV?$stream_output_adapter@_W@__crt_stdio_output@@V?$positional_parameter_base@_WV?$stream_output_adapter@_W@__crt_stdio_output@@@2@@0@AEAA_NXZ@PEAD@Z 000000018005d170 f i libucrtd:output.obj
 0001:0005c1d0       ??$peek_va_arg@PEAUansi_string@?1??type_case_Z@?$output_processor@_WV?$string_output_adapter@_W@__crt_stdio_output@@V?$positional_parameter_base@_WV?$string_output_adapter@_W@__crt_stdio_output@@@2@@__crt_stdio_output@@AEAA_NXZ@@__crt_stdio_output@@YAPEAUansi_string@?1??type_case_Z@?$output_processor@_WV?$string_output_adapter@_W@__crt_stdio_output@@V?$positional_parameter_base@_WV?$string_output_adapter@_W@__crt_stdio_output@@@2@@0@AEAA_NXZ@PEAD@Z 000000018005d1d0 f i libucrtd:output.obj
 0001:0005c230       ??$peek_va_arg@PEAX@__crt_stdio_output@@YAPEAXPEAD@Z 000000018005d230 f i libucrtd:output.obj
 0001:0005c290       ??$peek_va_arg@U_CRT_DOUBLE@@@__crt_stdio_output@@YA?AU_CRT_DOUBLE@@PEAD@Z 000000018005d290 f i libucrtd:output.obj
 0001:0005c2f0       ??$peek_va_arg@_J@__crt_stdio_output@@YA_JPEAD@Z 000000018005d2f0 f i libucrtd:output.obj
 0001:0005c350       ??$peek_va_arg@_K@__crt_stdio_output@@YA_KPEAD@Z 000000018005d350 f i libucrtd:output.obj
 0001:0005c3b0       ??$peek_va_arg@_W@__crt_stdio_output@@YA_WPEAD@Z 000000018005d3b0 f i libucrtd:output.obj
 0001:0005c410       ??$puttc_nolock_internal@AEBDPEAU_iobuf@@AEAV__crt_cached_ptd_host@@@?$__crt_char_traits@D@@SAHAEBD$$QEAPEAU_iobuf@@AEAV__crt_cached_ptd_host@@@Z 000000018005d410 f i libucrtd:output.obj
 0001:0005c450       ??$puttc_nolock_internal@AEB_WPEAU_iobuf@@AEAV__crt_cached_ptd_host@@@?$__crt_char_traits@_W@@SAGAEB_W$$QEAPEAU_iobuf@@AEAV__crt_cached_ptd_host@@@Z 000000018005d450 f i libucrtd:output.obj
 0001:0005c490       ??$read_va_arg@C@__crt_stdio_output@@YACAEAPEAD@Z 000000018005d490 f i libucrtd:output.obj
 0001:0005c500       ??$read_va_arg@E@__crt_stdio_output@@YAEAEAPEAD@Z 000000018005d500 f i libucrtd:output.obj
 0001:0005c570       ??$read_va_arg@F@__crt_stdio_output@@YAFAEAPEAD@Z 000000018005d570 f i libucrtd:output.obj
 0001:0005c5e0       ??$read_va_arg@G@__crt_stdio_output@@YAGAEAPEAD@Z 000000018005d5e0 f i libucrtd:output.obj
 0001:0005c650       ??$read_va_arg@H@__crt_stdio_output@@YAHAEAPEAD@Z 000000018005d650 f i libucrtd:output.obj
 0001:0005c6b0       ??$read_va_arg@I@__crt_stdio_output@@YAIAEAPEAD@Z 000000018005d6b0 f i libucrtd:output.obj
 0001:0005c710       ??$read_va_arg@PEAD@__crt_stdio_output@@YAPEADAEAPEAD@Z 000000018005d710 f i libucrtd:output.obj
 0001:0005c780       ??$read_va_arg@PEAUansi_string@?1??type_case_Z@?$output_processor@DV?$stream_output_adapter@D@__crt_stdio_output@@V?$format_validation_base@DV?$stream_output_adapter@D@__crt_stdio_output@@@2@@__crt_stdio_output@@AEAA_NXZ@@__crt_stdio_output@@YAPEAUansi_string@?1??type_case_Z@?$output_processor@DV?$stream_output_adapter@D@__crt_stdio_output@@V?$format_validation_base@DV?$stream_output_adapter@D@__crt_stdio_output@@@2@@0@AEAA_NXZ@AEAPEAD@Z 000000018005d780 f i libucrtd:output.obj
 0001:0005c7f0       ??$read_va_arg@PEAUansi_string@?1??type_case_Z@?$output_processor@DV?$stream_output_adapter@D@__crt_stdio_output@@V?$positional_parameter_base@DV?$stream_output_adapter@D@__crt_stdio_output@@@2@@__crt_stdio_output@@AEAA_NXZ@@__crt_stdio_output@@YAPEAUansi_string@?1??type_case_Z@?$output_processor@DV?$stream_output_adapter@D@__crt_stdio_output@@V?$positional_parameter_base@DV?$stream_output_adapter@D@__crt_stdio_output@@@2@@0@AEAA_NXZ@AEAPEAD@Z 000000018005d7f0 f i libucrtd:output.obj
 0001:0005c860       ??$read_va_arg@PEAUansi_string@?1??type_case_Z@?$output_processor@DV?$stream_output_adapter@D@__crt_stdio_output@@V?$standard_base@DV?$stream_output_adapter@D@__crt_stdio_output@@@2@@__crt_stdio_output@@AEAA_NXZ@@__crt_stdio_output@@YAPEAUansi_string@?1??type_case_Z@?$output_processor@DV?$stream_output_adapter@D@__crt_stdio_output@@V?$standard_base@DV?$stream_output_adapter@D@__crt_stdio_output@@@2@@0@AEAA_NXZ@AEAPEAD@Z 000000018005d860 f i libucrtd:output.obj
 0001:0005c8d0       ??$read_va_arg@PEAUansi_string@?1??type_case_Z@?$output_processor@DV?$string_output_adapter@D@__crt_stdio_output@@V?$format_validation_base@DV?$string_output_adapter@D@__crt_stdio_output@@@2@@__crt_stdio_output@@AEAA_NXZ@@__crt_stdio_output@@YAPEAUansi_string@?1??type_case_Z@?$output_processor@DV?$string_output_adapter@D@__crt_stdio_output@@V?$format_validation_base@DV?$string_output_adapter@D@__crt_stdio_output@@@2@@0@AEAA_NXZ@AEAPEAD@Z 000000018005d8d0 f i libucrtd:output.obj
 0001:0005c940       ??$read_va_arg@PEAUansi_string@?1??type_case_Z@?$output_processor@DV?$string_output_adapter@D@__crt_stdio_output@@V?$positional_parameter_base@DV?$string_output_adapter@D@__crt_stdio_output@@@2@@__crt_stdio_output@@AEAA_NXZ@@__crt_stdio_output@@YAPEAUansi_string@?1??type_case_Z@?$output_processor@DV?$string_output_adapter@D@__crt_stdio_output@@V?$positional_parameter_base@DV?$string_output_adapter@D@__crt_stdio_output@@@2@@0@AEAA_NXZ@AEAPEAD@Z 000000018005d940 f i libucrtd:output.obj
 0001:0005c9b0       ??$read_va_arg@PEAUansi_string@?1??type_case_Z@?$output_processor@DV?$string_output_adapter@D@__crt_stdio_output@@V?$standard_base@DV?$string_output_adapter@D@__crt_stdio_output@@@2@@__crt_stdio_output@@AEAA_NXZ@@__crt_stdio_output@@YAPEAUansi_string@?1??type_case_Z@?$output_processor@DV?$string_output_adapter@D@__crt_stdio_output@@V?$standard_base@DV?$string_output_adapter@D@__crt_stdio_output@@@2@@0@AEAA_NXZ@AEAPEAD@Z 000000018005d9b0 f i libucrtd:output.obj
 0001:0005ca20       ??$read_va_arg@PEAUansi_string@?1??type_case_Z@?$output_processor@_WV?$stream_output_adapter@_W@__crt_stdio_output@@V?$format_validation_base@_WV?$stream_output_adapter@_W@__crt_stdio_output@@@2@@__crt_stdio_output@@AEAA_NXZ@@__crt_stdio_output@@YAPEAUansi_string@?1??type_case_Z@?$output_processor@_WV?$stream_output_adapter@_W@__crt_stdio_output@@V?$format_validation_base@_WV?$stream_output_adapter@_W@__crt_stdio_output@@@2@@0@AEAA_NXZ@AEAPEAD@Z 000000018005da20 f i libucrtd:output.obj
 0001:0005ca90       ??$read_va_arg@PEAUansi_string@?1??type_case_Z@?$output_processor@_WV?$stream_output_adapter@_W@__crt_stdio_output@@V?$positional_parameter_base@_WV?$stream_output_adapter@_W@__crt_stdio_output@@@2@@__crt_stdio_output@@AEAA_NXZ@@__crt_stdio_output@@YAPEAUansi_string@?1??type_case_Z@?$output_processor@_WV?$stream_output_adapter@_W@__crt_stdio_output@@V?$positional_parameter_base@_WV?$stream_output_adapter@_W@__crt_stdio_output@@@2@@0@AEAA_NXZ@AEAPEAD@Z 000000018005da90 f i libucrtd:output.obj
 0001:0005cb00       ??$read_va_arg@PEAUansi_string@?1??type_case_Z@?$output_processor@_WV?$stream_output_adapter@_W@__crt_stdio_output@@V?$standard_base@_WV?$stream_output_adapter@_W@__crt_stdio_output@@@2@@__crt_stdio_output@@AEAA_NXZ@@__crt_stdio_output@@YAPEAUansi_string@?1??type_case_Z@?$output_processor@_WV?$stream_output_adapter@_W@__crt_stdio_output@@V?$standard_base@_WV?$stream_output_adapter@_W@__crt_stdio_output@@@2@@0@AEAA_NXZ@AEAPEAD@Z 000000018005db00 f i libucrtd:output.obj
 0001:0005cb70       ??$read_va_arg@PEAUansi_string@?1??type_case_Z@?$output_processor@_WV?$string_output_adapter@_W@__crt_stdio_output@@V?$format_validation_base@_WV?$string_output_adapter@_W@__crt_stdio_output@@@2@@__crt_stdio_output@@AEAA_NXZ@@__crt_stdio_output@@YAPEAUansi_string@?1??type_case_Z@?$output_processor@_WV?$string_output_adapter@_W@__crt_stdio_output@@V?$format_validation_base@_WV?$string_output_adapter@_W@__crt_stdio_output@@@2@@0@AEAA_NXZ@AEAPEAD@Z 000000018005db70 f i libucrtd:output.obj
 0001:0005cbe0       ??$read_va_arg@PEAUansi_string@?1??type_case_Z@?$output_processor@_WV?$string_output_adapter@_W@__crt_stdio_output@@V?$positional_parameter_base@_WV?$string_output_adapter@_W@__crt_stdio_output@@@2@@__crt_stdio_output@@AEAA_NXZ@@__crt_stdio_output@@YAPEAUansi_string@?1??type_case_Z@?$output_processor@_WV?$string_output_adapter@_W@__crt_stdio_output@@V?$positional_parameter_base@_WV?$string_output_adapter@_W@__crt_stdio_output@@@2@@0@AEAA_NXZ@AEAPEAD@Z 000000018005dbe0 f i libucrtd:output.obj
 0001:0005cc50       ??$read_va_arg@PEAUansi_string@?1??type_case_Z@?$output_processor@_WV?$string_output_adapter@_W@__crt_stdio_output@@V?$standard_base@_WV?$string_output_adapter@_W@__crt_stdio_output@@@2@@__crt_stdio_output@@AEAA_NXZ@@__crt_stdio_output@@YAPEAUansi_string@?1??type_case_Z@?$output_processor@_WV?$string_output_adapter@_W@__crt_stdio_output@@V?$standard_base@_WV?$string_output_adapter@_W@__crt_stdio_output@@@2@@0@AEAA_NXZ@AEAPEAD@Z 000000018005dc50 f i libucrtd:output.obj
 0001:0005ccc0       ??$read_va_arg@PEAX@__crt_stdio_output@@YAPEAXAEAPEAD@Z 000000018005dcc0 f i libucrtd:output.obj
 0001:0005cd30       ??$read_va_arg@U_CRT_DOUBLE@@@__crt_stdio_output@@YA?AU_CRT_DOUBLE@@AEAPEAD@Z 000000018005dd30 f i libucrtd:output.obj
 0001:0005cda0       ??$read_va_arg@_J@__crt_stdio_output@@YA_JAEAPEAD@Z 000000018005dda0 f i libucrtd:output.obj
 0001:0005ce10       ??$read_va_arg@_K@__crt_stdio_output@@YA_KAEAPEAD@Z 000000018005de10 f i libucrtd:output.obj
 0001:0005ce80       ??$read_va_arg@_W@__crt_stdio_output@@YA_WAEAPEAD@Z 000000018005de80 f i libucrtd:output.obj
 0001:0005cef0       ??$scratch_count@D@formatting_buffer@__crt_stdio_output@@QEBA_KXZ 000000018005def0 f i libucrtd:output.obj
 0001:0005cf10       ??$scratch_data@D@formatting_buffer@__crt_stdio_output@@QEAAPEADXZ 000000018005df10 f i libucrtd:output.obj
 0001:0005cf80       ??$type_case_integer@$07@?$output_processor@DV?$stream_output_adapter@D@__crt_stdio_output@@V?$format_validation_base@DV?$stream_output_adapter@D@__crt_stdio_output@@@2@@__crt_stdio_output@@AEAA_N_N@Z 000000018005df80 f i libucrtd:output.obj
 0001:0005d400       ??$type_case_integer@$07@?$output_processor@DV?$stream_output_adapter@D@__crt_stdio_output@@V?$positional_parameter_base@DV?$stream_output_adapter@D@__crt_stdio_output@@@2@@__crt_stdio_output@@AEAA_N_N@Z 000000018005e400 f i libucrtd:output.obj
 0001:0005d880       ??$type_case_integer@$07@?$output_processor@DV?$stream_output_adapter@D@__crt_stdio_output@@V?$standard_base@DV?$stream_output_adapter@D@__crt_stdio_output@@@2@@__crt_stdio_output@@AEAA_N_N@Z 000000018005e880 f i libucrtd:output.obj
 0001:0005dd00       ??$type_case_integer@$07@?$output_processor@DV?$string_output_adapter@D@__crt_stdio_output@@V?$format_validation_base@DV?$string_output_adapter@D@__crt_stdio_output@@@2@@__crt_stdio_output@@AEAA_N_N@Z 000000018005ed00 f i libucrtd:output.obj
 0001:0005e180       ??$type_case_integer@$07@?$output_processor@DV?$string_output_adapter@D@__crt_stdio_output@@V?$positional_parameter_base@DV?$string_output_adapter@D@__crt_stdio_output@@@2@@__crt_stdio_output@@AEAA_N_N@Z 000000018005f180 f i libucrtd:output.obj
 0001:0005e600       ??$type_case_integer@$07@?$output_processor@DV?$string_output_adapter@D@__crt_stdio_output@@V?$standard_base@DV?$string_output_adapter@D@__crt_stdio_output@@@2@@__crt_stdio_output@@AEAA_N_N@Z 000000018005f600 f i libucrtd:output.obj
 0001:0005ea80       ??$type_case_integer@$07@?$output_processor@_WV?$stream_output_adapter@_W@__crt_stdio_output@@V?$format_validation_base@_WV?$stream_output_adapter@_W@__crt_stdio_output@@@2@@__crt_stdio_output@@AEAA_N_N@Z 000000018005fa80 f i libucrtd:output.obj
 0001:0005ef00       ??$type_case_integer@$07@?$output_processor@_WV?$stream_output_adapter@_W@__crt_stdio_output@@V?$positional_parameter_base@_WV?$stream_output_adapter@_W@__crt_stdio_output@@@2@@__crt_stdio_output@@AEAA_N_N@Z 000000018005ff00 f i libucrtd:output.obj
 0001:0005f380       ??$type_case_integer@$07@?$output_processor@_WV?$stream_output_adapter@_W@__crt_stdio_output@@V?$standard_base@_WV?$stream_output_adapter@_W@__crt_stdio_output@@@2@@__crt_stdio_output@@AEAA_N_N@Z 0000000180060380 f i libucrtd:output.obj
 0001:0005f800       ??$type_case_integer@$07@?$output_processor@_WV?$string_output_adapter@_W@__crt_stdio_output@@V?$format_validation_base@_WV?$string_output_adapter@_W@__crt_stdio_output@@@2@@__crt_stdio_output@@AEAA_N_N@Z 0000000180060800 f i libucrtd:output.obj
 0001:0005fc80       ??$type_case_integer@$07@?$output_processor@_WV?$string_output_adapter@_W@__crt_stdio_output@@V?$positional_parameter_base@_WV?$string_output_adapter@_W@__crt_stdio_output@@@2@@__crt_stdio_output@@AEAA_N_N@Z 0000000180060c80 f i libucrtd:output.obj
 0001:00060100       ??$type_case_integer@$07@?$output_processor@_WV?$string_output_adapter@_W@__crt_stdio_output@@V?$standard_base@_WV?$string_output_adapter@_W@__crt_stdio_output@@@2@@__crt_stdio_output@@AEAA_N_N@Z 0000000180061100 f i libucrtd:output.obj
 0001:00060580       ??$type_case_integer@$09@?$output_processor@DV?$stream_output_adapter@D@__crt_stdio_output@@V?$format_validation_base@DV?$stream_output_adapter@D@__crt_stdio_output@@@2@@__crt_stdio_output@@AEAA_N_N@Z 0000000180061580 f i libucrtd:output.obj
 0001:00060a00       ??$type_case_integer@$09@?$output_processor@DV?$stream_output_adapter@D@__crt_stdio_output@@V?$positional_parameter_base@DV?$stream_output_adapter@D@__crt_stdio_output@@@2@@__crt_stdio_output@@AEAA_N_N@Z 0000000180061a00 f i libucrtd:output.obj
 0001:00060e80       ??$type_case_integer@$09@?$output_processor@DV?$stream_output_adapter@D@__crt_stdio_output@@V?$standard_base@DV?$stream_output_adapter@D@__crt_stdio_output@@@2@@__crt_stdio_output@@AEAA_N_N@Z 0000000180061e80 f i libucrtd:output.obj
 0001:00061300       ??$type_case_integer@$09@?$output_processor@DV?$string_output_adapter@D@__crt_stdio_output@@V?$format_validation_base@DV?$string_output_adapter@D@__crt_stdio_output@@@2@@__crt_stdio_output@@AEAA_N_N@Z 0000000180062300 f i libucrtd:output.obj
 0001:00061780       ??$type_case_integer@$09@?$output_processor@DV?$string_output_adapter@D@__crt_stdio_output@@V?$positional_parameter_base@DV?$string_output_adapter@D@__crt_stdio_output@@@2@@__crt_stdio_output@@AEAA_N_N@Z 0000000180062780 f i libucrtd:output.obj
 0001:00061c00       ??$type_case_integer@$09@?$output_processor@DV?$string_output_adapter@D@__crt_stdio_output@@V?$standard_base@DV?$string_output_adapter@D@__crt_stdio_output@@@2@@__crt_stdio_output@@AEAA_N_N@Z 0000000180062c00 f i libucrtd:output.obj
 0001:00062080       ??$type_case_integer@$09@?$output_processor@_WV?$stream_output_adapter@_W@__crt_stdio_output@@V?$format_validation_base@_WV?$stream_output_adapter@_W@__crt_stdio_output@@@2@@__crt_stdio_output@@AEAA_N_N@Z 0000000180063080 f i libucrtd:output.obj
 0001:00062500       ??$type_case_integer@$09@?$output_processor@_WV?$stream_output_adapter@_W@__crt_stdio_output@@V?$positional_parameter_base@_WV?$stream_output_adapter@_W@__crt_stdio_output@@@2@@__crt_stdio_output@@AEAA_N_N@Z 0000000180063500 f i libucrtd:output.obj
 0001:00062980       ??$type_case_integer@$09@?$output_processor@_WV?$stream_output_adapter@_W@__crt_stdio_output@@V?$standard_base@_WV?$stream_output_adapter@_W@__crt_stdio_output@@@2@@__crt_stdio_output@@AEAA_N_N@Z 0000000180063980 f i libucrtd:output.obj
 0001:00062e00       ??$type_case_integer@$09@?$output_processor@_WV?$string_output_adapter@_W@__crt_stdio_output@@V?$format_validation_base@_WV?$string_output_adapter@_W@__crt_stdio_output@@@2@@__crt_stdio_output@@AEAA_N_N@Z 0000000180063e00 f i libucrtd:output.obj
 0001:00063280       ??$type_case_integer@$09@?$output_processor@_WV?$string_output_adapter@_W@__crt_stdio_output@@V?$positional_parameter_base@_WV?$string_output_adapter@_W@__crt_stdio_output@@@2@@__crt_stdio_output@@AEAA_N_N@Z 0000000180064280 f i libucrtd:output.obj
 0001:00063700       ??$type_case_integer@$09@?$output_processor@_WV?$string_output_adapter@_W@__crt_stdio_output@@V?$standard_base@_WV?$string_output_adapter@_W@__crt_stdio_output@@@2@@__crt_stdio_output@@AEAA_N_N@Z 0000000180064700 f i libucrtd:output.obj
 0001:00063b80       ??$type_case_integer@$0BA@@?$output_processor@DV?$stream_output_adapter@D@__crt_stdio_output@@V?$format_validation_base@DV?$stream_output_adapter@D@__crt_stdio_output@@@2@@__crt_stdio_output@@AEAA_N_N@Z 0000000180064b80 f i libucrtd:output.obj
 0001:00064000       ??$type_case_integer@$0BA@@?$output_processor@DV?$stream_output_adapter@D@__crt_stdio_output@@V?$positional_parameter_base@DV?$stream_output_adapter@D@__crt_stdio_output@@@2@@__crt_stdio_output@@AEAA_N_N@Z 0000000180065000 f i libucrtd:output.obj
 0001:00064480       ??$type_case_integer@$0BA@@?$output_processor@DV?$stream_output_adapter@D@__crt_stdio_output@@V?$standard_base@DV?$stream_output_adapter@D@__crt_stdio_output@@@2@@__crt_stdio_output@@AEAA_N_N@Z 0000000180065480 f i libucrtd:output.obj
 0001:00064900       ??$type_case_integer@$0BA@@?$output_processor@DV?$string_output_adapter@D@__crt_stdio_output@@V?$format_validation_base@DV?$string_output_adapter@D@__crt_stdio_output@@@2@@__crt_stdio_output@@AEAA_N_N@Z 0000000180065900 f i libucrtd:output.obj
 0001:00064d80       ??$type_case_integer@$0BA@@?$output_processor@DV?$string_output_adapter@D@__crt_stdio_output@@V?$positional_parameter_base@DV?$string_output_adapter@D@__crt_stdio_output@@@2@@__crt_stdio_output@@AEAA_N_N@Z 0000000180065d80 f i libucrtd:output.obj
 0001:00065200       ??$type_case_integer@$0BA@@?$output_processor@DV?$string_output_adapter@D@__crt_stdio_output@@V?$standard_base@DV?$string_output_adapter@D@__crt_stdio_output@@@2@@__crt_stdio_output@@AEAA_N_N@Z 0000000180066200 f i libucrtd:output.obj
 0001:00065680       ??$type_case_integer@$0BA@@?$output_processor@_WV?$stream_output_adapter@_W@__crt_stdio_output@@V?$format_validation_base@_WV?$stream_output_adapter@_W@__crt_stdio_output@@@2@@__crt_stdio_output@@AEAA_N_N@Z 0000000180066680 f i libucrtd:output.obj
 0001:00065b00       ??$type_case_integer@$0BA@@?$output_processor@_WV?$stream_output_adapter@_W@__crt_stdio_output@@V?$positional_parameter_base@_WV?$stream_output_adapter@_W@__crt_stdio_output@@@2@@__crt_stdio_output@@AEAA_N_N@Z 0000000180066b00 f i libucrtd:output.obj
 0001:00065f80       ??$type_case_integer@$0BA@@?$output_processor@_WV?$stream_output_adapter@_W@__crt_stdio_output@@V?$standard_base@_WV?$stream_output_adapter@_W@__crt_stdio_output@@@2@@__crt_stdio_output@@AEAA_N_N@Z 0000000180066f80 f i libucrtd:output.obj
 0001:00066400       ??$type_case_integer@$0BA@@?$output_processor@_WV?$string_output_adapter@_W@__crt_stdio_output@@V?$format_validation_base@_WV?$string_output_adapter@_W@__crt_stdio_output@@@2@@__crt_stdio_output@@AEAA_N_N@Z 0000000180067400 f i libucrtd:output.obj
 0001:00066880       ??$type_case_integer@$0BA@@?$output_processor@_WV?$string_output_adapter@_W@__crt_stdio_output@@V?$positional_parameter_base@_WV?$string_output_adapter@_W@__crt_stdio_output@@@2@@__crt_stdio_output@@AEAA_N_N@Z 0000000180067880 f i libucrtd:output.obj
 0001:00066d00       ??$type_case_integer@$0BA@@?$output_processor@_WV?$string_output_adapter@_W@__crt_stdio_output@@V?$standard_base@_WV?$string_output_adapter@_W@__crt_stdio_output@@@2@@__crt_stdio_output@@AEAA_N_N@Z 0000000180067d00 f i libucrtd:output.obj
 0001:00067180       ??$type_case_integer_parse_into_buffer@I$07@?$output_processor@DV?$stream_output_adapter@D@__crt_stdio_output@@V?$format_validation_base@DV?$stream_output_adapter@D@__crt_stdio_output@@@2@@__crt_stdio_output@@AEAAXI_N@Z 0000000180068180 f i libucrtd:output.obj
 0001:000672b0       ??$type_case_integer_parse_into_buffer@I$07@?$output_processor@DV?$stream_output_adapter@D@__crt_stdio_output@@V?$positional_parameter_base@DV?$stream_output_adapter@D@__crt_stdio_output@@@2@@__crt_stdio_output@@AEAAXI_N@Z 00000001800682b0 f i libucrtd:output.obj
 0001:000673e0       ??$type_case_integer_parse_into_buffer@I$07@?$output_processor@DV?$stream_output_adapter@D@__crt_stdio_output@@V?$standard_base@DV?$stream_output_adapter@D@__crt_stdio_output@@@2@@__crt_stdio_output@@AEAAXI_N@Z 00000001800683e0 f i libucrtd:output.obj
 0001:00067510       ??$type_case_integer_parse_into_buffer@I$07@?$output_processor@DV?$string_output_adapter@D@__crt_stdio_output@@V?$format_validation_base@DV?$string_output_adapter@D@__crt_stdio_output@@@2@@__crt_stdio_output@@AEAAXI_N@Z 0000000180068510 f i libucrtd:output.obj
 0001:00067640       ??$type_case_integer_parse_into_buffer@I$07@?$output_processor@DV?$string_output_adapter@D@__crt_stdio_output@@V?$positional_parameter_base@DV?$string_output_adapter@D@__crt_stdio_output@@@2@@__crt_stdio_output@@AEAAXI_N@Z 0000000180068640 f i libucrtd:output.obj
 0001:00067770       ??$type_case_integer_parse_into_buffer@I$07@?$output_processor@DV?$string_output_adapter@D@__crt_stdio_output@@V?$standard_base@DV?$string_output_adapter@D@__crt_stdio_output@@@2@@__crt_stdio_output@@AEAAXI_N@Z 0000000180068770 f i libucrtd:output.obj
 0001:000678a0       ??$type_case_integer_parse_into_buffer@I$07@?$output_processor@_WV?$stream_output_adapter@_W@__crt_stdio_output@@V?$format_validation_base@_WV?$stream_output_adapter@_W@__crt_stdio_output@@@2@@__crt_stdio_output@@AEAAXI_N@Z 00000001800688a0 f i libucrtd:output.obj
 0001:000679e0       ??$type_case_integer_parse_into_buffer@I$07@?$output_processor@_WV?$stream_output_adapter@_W@__crt_stdio_output@@V?$positional_parameter_base@_WV?$stream_output_adapter@_W@__crt_stdio_output@@@2@@__crt_stdio_output@@AEAAXI_N@Z 00000001800689e0 f i libucrtd:output.obj
 0001:00067b20       ??$type_case_integer_parse_into_buffer@I$07@?$output_processor@_WV?$stream_output_adapter@_W@__crt_stdio_output@@V?$standard_base@_WV?$stream_output_adapter@_W@__crt_stdio_output@@@2@@__crt_stdio_output@@AEAAXI_N@Z 0000000180068b20 f i libucrtd:output.obj
 0001:00067c60       ??$type_case_integer_parse_into_buffer@I$07@?$output_processor@_WV?$string_output_adapter@_W@__crt_stdio_output@@V?$format_validation_base@_WV?$string_output_adapter@_W@__crt_stdio_output@@@2@@__crt_stdio_output@@AEAAXI_N@Z 0000000180068c60 f i libucrtd:output.obj
 0001:00067da0       ??$type_case_integer_parse_into_buffer@I$07@?$output_processor@_WV?$string_output_adapter@_W@__crt_stdio_output@@V?$positional_parameter_base@_WV?$string_output_adapter@_W@__crt_stdio_output@@@2@@__crt_stdio_output@@AEAAXI_N@Z 0000000180068da0 f i libucrtd:output.obj
 0001:00067ee0       ??$type_case_integer_parse_into_buffer@I$07@?$output_processor@_WV?$string_output_adapter@_W@__crt_stdio_output@@V?$standard_base@_WV?$string_output_adapter@_W@__crt_stdio_output@@@2@@__crt_stdio_output@@AEAAXI_N@Z 0000000180068ee0 f i libucrtd:output.obj
 0001:00068020       ??$type_case_integer_parse_into_buffer@I$09@?$output_processor@DV?$stream_output_adapter@D@__crt_stdio_output@@V?$format_validation_base@DV?$stream_output_adapter@D@__crt_stdio_output@@@2@@__crt_stdio_output@@AEAAXI_N@Z 0000000180069020 f i libucrtd:output.obj
 0001:00068150       ??$type_case_integer_parse_into_buffer@I$09@?$output_processor@DV?$stream_output_adapter@D@__crt_stdio_output@@V?$positional_parameter_base@DV?$stream_output_adapter@D@__crt_stdio_output@@@2@@__crt_stdio_output@@AEAAXI_N@Z 0000000180069150 f i libucrtd:output.obj
 0001:00068280       ??$type_case_integer_parse_into_buffer@I$09@?$output_processor@DV?$stream_output_adapter@D@__crt_stdio_output@@V?$standard_base@DV?$stream_output_adapter@D@__crt_stdio_output@@@2@@__crt_stdio_output@@AEAAXI_N@Z 0000000180069280 f i libucrtd:output.obj
 0001:000683b0       ??$type_case_integer_parse_into_buffer@I$09@?$output_processor@DV?$string_output_adapter@D@__crt_stdio_output@@V?$format_validation_base@DV?$string_output_adapter@D@__crt_stdio_output@@@2@@__crt_stdio_output@@AEAAXI_N@Z 00000001800693b0 f i libucrtd:output.obj
 0001:000684e0       ??$type_case_integer_parse_into_buffer@I$09@?$output_processor@DV?$string_output_adapter@D@__crt_stdio_output@@V?$positional_parameter_base@DV?$string_output_adapter@D@__crt_stdio_output@@@2@@__crt_stdio_output@@AEAAXI_N@Z 00000001800694e0 f i libucrtd:output.obj
 0001:00068610       ??$type_case_integer_parse_into_buffer@I$09@?$output_processor@DV?$string_output_adapter@D@__crt_stdio_output@@V?$standard_base@DV?$string_output_adapter@D@__crt_stdio_output@@@2@@__crt_stdio_output@@AEAAXI_N@Z 0000000180069610 f i libucrtd:output.obj
 0001:00068740       ??$type_case_integer_parse_into_buffer@I$09@?$output_processor@_WV?$stream_output_adapter@_W@__crt_stdio_output@@V?$format_validation_base@_WV?$stream_output_adapter@_W@__crt_stdio_output@@@2@@__crt_stdio_output@@AEAAXI_N@Z 0000000180069740 f i libucrtd:output.obj
 0001:00068880       ??$type_case_integer_parse_into_buffer@I$09@?$output_processor@_WV?$stream_output_adapter@_W@__crt_stdio_output@@V?$positional_parameter_base@_WV?$stream_output_adapter@_W@__crt_stdio_output@@@2@@__crt_stdio_output@@AEAAXI_N@Z 0000000180069880 f i libucrtd:output.obj
 0001:000689c0       ??$type_case_integer_parse_into_buffer@I$09@?$output_processor@_WV?$stream_output_adapter@_W@__crt_stdio_output@@V?$standard_base@_WV?$stream_output_adapter@_W@__crt_stdio_output@@@2@@__crt_stdio_output@@AEAAXI_N@Z 00000001800699c0 f i libucrtd:output.obj
 0001:00068b00       ??$type_case_integer_parse_into_buffer@I$09@?$output_processor@_WV?$string_output_adapter@_W@__crt_stdio_output@@V?$format_validation_base@_WV?$string_output_adapter@_W@__crt_stdio_output@@@2@@__crt_stdio_output@@AEAAXI_N@Z 0000000180069b00 f i libucrtd:output.obj
 0001:00068c40       ??$type_case_integer_parse_into_buffer@I$09@?$output_processor@_WV?$string_output_adapter@_W@__crt_stdio_output@@V?$positional_parameter_base@_WV?$string_output_adapter@_W@__crt_stdio_output@@@2@@__crt_stdio_output@@AEAAXI_N@Z 0000000180069c40 f i libucrtd:output.obj
 0001:00068d80       ??$type_case_integer_parse_into_buffer@I$09@?$output_processor@_WV?$string_output_adapter@_W@__crt_stdio_output@@V?$standard_base@_WV?$string_output_adapter@_W@__crt_stdio_output@@@2@@__crt_stdio_output@@AEAAXI_N@Z 0000000180069d80 f i libucrtd:output.obj
 0001:00068ec0       ??$type_case_integer_parse_into_buffer@I$0BA@@?$output_processor@DV?$stream_output_adapter@D@__crt_stdio_output@@V?$format_validation_base@DV?$stream_output_adapter@D@__crt_stdio_output@@@2@@__crt_stdio_output@@AEAAXI_N@Z 0000000180069ec0 f i libucrtd:output.obj
 0001:00068ff0       ??$type_case_integer_parse_into_buffer@I$0BA@@?$output_processor@DV?$stream_output_adapter@D@__crt_stdio_output@@V?$positional_parameter_base@DV?$stream_output_adapter@D@__crt_stdio_output@@@2@@__crt_stdio_output@@AEAAXI_N@Z 0000000180069ff0 f i libucrtd:output.obj
 0001:00069120       ??$type_case_integer_parse_into_buffer@I$0BA@@?$output_processor@DV?$stream_output_adapter@D@__crt_stdio_output@@V?$standard_base@DV?$stream_output_adapter@D@__crt_stdio_output@@@2@@__crt_stdio_output@@AEAAXI_N@Z 000000018006a120 f i libucrtd:output.obj
 0001:00069250       ??$type_case_integer_parse_into_buffer@I$0BA@@?$output_processor@DV?$string_output_adapter@D@__crt_stdio_output@@V?$format_validation_base@DV?$string_output_adapter@D@__crt_stdio_output@@@2@@__crt_stdio_output@@AEAAXI_N@Z 000000018006a250 f i libucrtd:output.obj
 0001:00069380       ??$type_case_integer_parse_into_buffer@I$0BA@@?$output_processor@DV?$string_output_adapter@D@__crt_stdio_output@@V?$positional_parameter_base@DV?$string_output_adapter@D@__crt_stdio_output@@@2@@__crt_stdio_output@@AEAAXI_N@Z 000000018006a380 f i libucrtd:output.obj
 0001:000694b0       ??$type_case_integer_parse_into_buffer@I$0BA@@?$output_processor@DV?$string_output_adapter@D@__crt_stdio_output@@V?$standard_base@DV?$string_output_adapter@D@__crt_stdio_output@@@2@@__crt_stdio_output@@AEAAXI_N@Z 000000018006a4b0 f i libucrtd:output.obj
 0001:000695e0       ??$type_case_integer_parse_into_buffer@I$0BA@@?$output_processor@_WV?$stream_output_adapter@_W@__crt_stdio_output@@V?$format_validation_base@_WV?$stream_output_adapter@_W@__crt_stdio_output@@@2@@__crt_stdio_output@@AEAAXI_N@Z 000000018006a5e0 f i libucrtd:output.obj
 0001:00069720       ??$type_case_integer_parse_into_buffer@I$0BA@@?$output_processor@_WV?$stream_output_adapter@_W@__crt_stdio_output@@V?$positional_parameter_base@_WV?$stream_output_adapter@_W@__crt_stdio_output@@@2@@__crt_stdio_output@@AEAAXI_N@Z 000000018006a720 f i libucrtd:output.obj
 0001:00069860       ??$type_case_integer_parse_into_buffer@I$0BA@@?$output_processor@_WV?$stream_output_adapter@_W@__crt_stdio_output@@V?$standard_base@_WV?$stream_output_adapter@_W@__crt_stdio_output@@@2@@__crt_stdio_output@@AEAAXI_N@Z 000000018006a860 f i libucrtd:output.obj
 0001:000699a0       ??$type_case_integer_parse_into_buffer@I$0BA@@?$output_processor@_WV?$string_output_adapter@_W@__crt_stdio_output@@V?$format_validation_base@_WV?$string_output_adapter@_W@__crt_stdio_output@@@2@@__crt_stdio_output@@AEAAXI_N@Z 000000018006a9a0 f i libucrtd:output.obj
 0001:00069ae0       ??$type_case_integer_parse_into_buffer@I$0BA@@?$output_processor@_WV?$string_output_adapter@_W@__crt_stdio_output@@V?$positional_parameter_base@_WV?$string_output_adapter@_W@__crt_stdio_output@@@2@@__crt_stdio_output@@AEAAXI_N@Z 000000018006aae0 f i libucrtd:output.obj
 0001:00069c20       ??$type_case_integer_parse_into_buffer@I$0BA@@?$output_processor@_WV?$string_output_adapter@_W@__crt_stdio_output@@V?$standard_base@_WV?$string_output_adapter@_W@__crt_stdio_output@@@2@@__crt_stdio_output@@AEAAXI_N@Z 000000018006ac20 f i libucrtd:output.obj
 0001:00069d60       ??$type_case_integer_parse_into_buffer@_K$07@?$output_processor@DV?$stream_output_adapter@D@__crt_stdio_output@@V?$format_validation_base@DV?$stream_output_adapter@D@__crt_stdio_output@@@2@@__crt_stdio_output@@AEAAX_K_N@Z 000000018006ad60 f i libucrtd:output.obj
 0001:00069ea0       ??$type_case_integer_parse_into_buffer@_K$07@?$output_processor@DV?$stream_output_adapter@D@__crt_stdio_output@@V?$positional_parameter_base@DV?$stream_output_adapter@D@__crt_stdio_output@@@2@@__crt_stdio_output@@AEAAX_K_N@Z 000000018006aea0 f i libucrtd:output.obj
 0001:00069fe0       ??$type_case_integer_parse_into_buffer@_K$07@?$output_processor@DV?$stream_output_adapter@D@__crt_stdio_output@@V?$standard_base@DV?$stream_output_adapter@D@__crt_stdio_output@@@2@@__crt_stdio_output@@AEAAX_K_N@Z 000000018006afe0 f i libucrtd:output.obj
 0001:0006a120       ??$type_case_integer_parse_into_buffer@_K$07@?$output_processor@DV?$string_output_adapter@D@__crt_stdio_output@@V?$format_validation_base@DV?$string_output_adapter@D@__crt_stdio_output@@@2@@__crt_stdio_output@@AEAAX_K_N@Z 000000018006b120 f i libucrtd:output.obj
 0001:0006a260       ??$type_case_integer_parse_into_buffer@_K$07@?$output_processor@DV?$string_output_adapter@D@__crt_stdio_output@@V?$positional_parameter_base@DV?$string_output_adapter@D@__crt_stdio_output@@@2@@__crt_stdio_output@@AEAAX_K_N@Z 000000018006b260 f i libucrtd:output.obj
 0001:0006a3a0       ??$type_case_integer_parse_into_buffer@_K$07@?$output_processor@DV?$string_output_adapter@D@__crt_stdio_output@@V?$standard_base@DV?$string_output_adapter@D@__crt_stdio_output@@@2@@__crt_stdio_output@@AEAAX_K_N@Z 000000018006b3a0 f i libucrtd:output.obj
 0001:0006a4e0       ??$type_case_integer_parse_into_buffer@_K$07@?$output_processor@_WV?$stream_output_adapter@_W@__crt_stdio_output@@V?$format_validation_base@_WV?$stream_output_adapter@_W@__crt_stdio_output@@@2@@__crt_stdio_output@@AEAAX_K_N@Z 000000018006b4e0 f i libucrtd:output.obj
 0001:0006a620       ??$type_case_integer_parse_into_buffer@_K$07@?$output_processor@_WV?$stream_output_adapter@_W@__crt_stdio_output@@V?$positional_parameter_base@_WV?$stream_output_adapter@_W@__crt_stdio_output@@@2@@__crt_stdio_output@@AEAAX_K_N@Z 000000018006b620 f i libucrtd:output.obj
 0001:0006a760       ??$type_case_integer_parse_into_buffer@_K$07@?$output_processor@_WV?$stream_output_adapter@_W@__crt_stdio_output@@V?$standard_base@_WV?$stream_output_adapter@_W@__crt_stdio_output@@@2@@__crt_stdio_output@@AEAAX_K_N@Z 000000018006b760 f i libucrtd:output.obj
 0001:0006a8a0       ??$type_case_integer_parse_into_buffer@_K$07@?$output_processor@_WV?$string_output_adapter@_W@__crt_stdio_output@@V?$format_validation_base@_WV?$string_output_adapter@_W@__crt_stdio_output@@@2@@__crt_stdio_output@@AEAAX_K_N@Z 000000018006b8a0 f i libucrtd:output.obj
 0001:0006a9e0       ??$type_case_integer_parse_into_buffer@_K$07@?$output_processor@_WV?$string_output_adapter@_W@__crt_stdio_output@@V?$positional_parameter_base@_WV?$string_output_adapter@_W@__crt_stdio_output@@@2@@__crt_stdio_output@@AEAAX_K_N@Z 000000018006b9e0 f i libucrtd:output.obj
 0001:0006ab20       ??$type_case_integer_parse_into_buffer@_K$07@?$output_processor@_WV?$string_output_adapter@_W@__crt_stdio_output@@V?$standard_base@_WV?$string_output_adapter@_W@__crt_stdio_output@@@2@@__crt_stdio_output@@AEAAX_K_N@Z 000000018006bb20 f i libucrtd:output.obj
 0001:0006ac60       ??$type_case_integer_parse_into_buffer@_K$09@?$output_processor@DV?$stream_output_adapter@D@__crt_stdio_output@@V?$format_validation_base@DV?$stream_output_adapter@D@__crt_stdio_output@@@2@@__crt_stdio_output@@AEAAX_K_N@Z 000000018006bc60 f i libucrtd:output.obj
 0001:0006ada0       ??$type_case_integer_parse_into_buffer@_K$09@?$output_processor@DV?$stream_output_adapter@D@__crt_stdio_output@@V?$positional_parameter_base@DV?$stream_output_adapter@D@__crt_stdio_output@@@2@@__crt_stdio_output@@AEAAX_K_N@Z 000000018006bda0 f i libucrtd:output.obj
 0001:0006aee0       ??$type_case_integer_parse_into_buffer@_K$09@?$output_processor@DV?$stream_output_adapter@D@__crt_stdio_output@@V?$standard_base@DV?$stream_output_adapter@D@__crt_stdio_output@@@2@@__crt_stdio_output@@AEAAX_K_N@Z 000000018006bee0 f i libucrtd:output.obj
 0001:0006b020       ??$type_case_integer_parse_into_buffer@_K$09@?$output_processor@DV?$string_output_adapter@D@__crt_stdio_output@@V?$format_validation_base@DV?$string_output_adapter@D@__crt_stdio_output@@@2@@__crt_stdio_output@@AEAAX_K_N@Z 000000018006c020 f i libucrtd:output.obj
 0001:0006b160       ??$type_case_integer_parse_into_buffer@_K$09@?$output_processor@DV?$string_output_adapter@D@__crt_stdio_output@@V?$positional_parameter_base@DV?$string_output_adapter@D@__crt_stdio_output@@@2@@__crt_stdio_output@@AEAAX_K_N@Z 000000018006c160 f i libucrtd:output.obj
 0001:0006b2a0       ??$type_case_integer_parse_into_buffer@_K$09@?$output_processor@DV?$string_output_adapter@D@__crt_stdio_output@@V?$standard_base@DV?$string_output_adapter@D@__crt_stdio_output@@@2@@__crt_stdio_output@@AEAAX_K_N@Z 000000018006c2a0 f i libucrtd:output.obj
 0001:0006b3e0       ??$type_case_integer_parse_into_buffer@_K$09@?$output_processor@_WV?$stream_output_adapter@_W@__crt_stdio_output@@V?$format_validation_base@_WV?$stream_output_adapter@_W@__crt_stdio_output@@@2@@__crt_stdio_output@@AEAAX_K_N@Z 000000018006c3e0 f i libucrtd:output.obj
 0001:0006b520       ??$type_case_integer_parse_into_buffer@_K$09@?$output_processor@_WV?$stream_output_adapter@_W@__crt_stdio_output@@V?$positional_parameter_base@_WV?$stream_output_adapter@_W@__crt_stdio_output@@@2@@__crt_stdio_output@@AEAAX_K_N@Z 000000018006c520 f i libucrtd:output.obj
 0001:0006b660       ??$type_case_integer_parse_into_buffer@_K$09@?$output_processor@_WV?$stream_output_adapter@_W@__crt_stdio_output@@V?$standard_base@_WV?$stream_output_adapter@_W@__crt_stdio_output@@@2@@__crt_stdio_output@@AEAAX_K_N@Z 000000018006c660 f i libucrtd:output.obj
 0001:0006b7a0       ??$type_case_integer_parse_into_buffer@_K$09@?$output_processor@_WV?$string_output_adapter@_W@__crt_stdio_output@@V?$format_validation_base@_WV?$string_output_adapter@_W@__crt_stdio_output@@@2@@__crt_stdio_output@@AEAAX_K_N@Z 000000018006c7a0 f i libucrtd:output.obj
 0001:0006b8e0       ??$type_case_integer_parse_into_buffer@_K$09@?$output_processor@_WV?$string_output_adapter@_W@__crt_stdio_output@@V?$positional_parameter_base@_WV?$string_output_adapter@_W@__crt_stdio_output@@@2@@__crt_stdio_output@@AEAAX_K_N@Z 000000018006c8e0 f i libucrtd:output.obj
 0001:0006ba20       ??$type_case_integer_parse_into_buffer@_K$09@?$output_processor@_WV?$string_output_adapter@_W@__crt_stdio_output@@V?$standard_base@_WV?$string_output_adapter@_W@__crt_stdio_output@@@2@@__crt_stdio_output@@AEAAX_K_N@Z 000000018006ca20 f i libucrtd:output.obj
 0001:0006bb60       ??$type_case_integer_parse_into_buffer@_K$0BA@@?$output_processor@DV?$stream_output_adapter@D@__crt_stdio_output@@V?$format_validation_base@DV?$stream_output_adapter@D@__crt_stdio_output@@@2@@__crt_stdio_output@@AEAAX_K_N@Z 000000018006cb60 f i libucrtd:output.obj
 0001:0006bca0       ??$type_case_integer_parse_into_buffer@_K$0BA@@?$output_processor@DV?$stream_output_adapter@D@__crt_stdio_output@@V?$positional_parameter_base@DV?$stream_output_adapter@D@__crt_stdio_output@@@2@@__crt_stdio_output@@AEAAX_K_N@Z 000000018006cca0 f i libucrtd:output.obj
 0001:0006bde0       ??$type_case_integer_parse_into_buffer@_K$0BA@@?$output_processor@DV?$stream_output_adapter@D@__crt_stdio_output@@V?$standard_base@DV?$stream_output_adapter@D@__crt_stdio_output@@@2@@__crt_stdio_output@@AEAAX_K_N@Z 000000018006cde0 f i libucrtd:output.obj
 0001:0006bf20       ??$type_case_integer_parse_into_buffer@_K$0BA@@?$output_processor@DV?$string_output_adapter@D@__crt_stdio_output@@V?$format_validation_base@DV?$string_output_adapter@D@__crt_stdio_output@@@2@@__crt_stdio_output@@AEAAX_K_N@Z 000000018006cf20 f i libucrtd:output.obj
 0001:0006c060       ??$type_case_integer_parse_into_buffer@_K$0BA@@?$output_processor@DV?$string_output_adapter@D@__crt_stdio_output@@V?$positional_parameter_base@DV?$string_output_adapter@D@__crt_stdio_output@@@2@@__crt_stdio_output@@AEAAX_K_N@Z 000000018006d060 f i libucrtd:output.obj
 0001:0006c1a0       ??$type_case_integer_parse_into_buffer@_K$0BA@@?$output_processor@DV?$string_output_adapter@D@__crt_stdio_output@@V?$standard_base@DV?$string_output_adapter@D@__crt_stdio_output@@@2@@__crt_stdio_output@@AEAAX_K_N@Z 000000018006d1a0 f i libucrtd:output.obj
 0001:0006c2e0       ??$type_case_integer_parse_into_buffer@_K$0BA@@?$output_processor@_WV?$stream_output_adapter@_W@__crt_stdio_output@@V?$format_validation_base@_WV?$stream_output_adapter@_W@__crt_stdio_output@@@2@@__crt_stdio_output@@AEAAX_K_N@Z 000000018006d2e0 f i libucrtd:output.obj
 0001:0006c420       ??$type_case_integer_parse_into_buffer@_K$0BA@@?$output_processor@_WV?$stream_output_adapter@_W@__crt_stdio_output@@V?$positional_parameter_base@_WV?$stream_output_adapter@_W@__crt_stdio_output@@@2@@__crt_stdio_output@@AEAAX_K_N@Z 000000018006d420 f i libucrtd:output.obj
 0001:0006c560       ??$type_case_integer_parse_into_buffer@_K$0BA@@?$output_processor@_WV?$stream_output_adapter@_W@__crt_stdio_output@@V?$standard_base@_WV?$stream_output_adapter@_W@__crt_stdio_output@@@2@@__crt_stdio_output@@AEAAX_K_N@Z 000000018006d560 f i libucrtd:output.obj
 0001:0006c6a0       ??$type_case_integer_parse_into_buffer@_K$0BA@@?$output_processor@_WV?$string_output_adapter@_W@__crt_stdio_output@@V?$format_validation_base@_WV?$string_output_adapter@_W@__crt_stdio_output@@@2@@__crt_stdio_output@@AEAAX_K_N@Z 000000018006d6a0 f i libucrtd:output.obj
 0001:0006c7e0       ??$type_case_integer_parse_into_buffer@_K$0BA@@?$output_processor@_WV?$string_output_adapter@_W@__crt_stdio_output@@V?$positional_parameter_base@_WV?$string_output_adapter@_W@__crt_stdio_output@@@2@@__crt_stdio_output@@AEAAX_K_N@Z 000000018006d7e0 f i libucrtd:output.obj
 0001:0006c920       ??$type_case_integer_parse_into_buffer@_K$0BA@@?$output_processor@_WV?$string_output_adapter@_W@__crt_stdio_output@@V?$standard_base@_WV?$string_output_adapter@_W@__crt_stdio_output@@@2@@__crt_stdio_output@@AEAAX_K_N@Z 000000018006d920 f i libucrtd:output.obj
 0001:0006ca60       ??$write_multiple_characters@V?$stream_output_adapter@D@__crt_stdio_output@@D@__crt_stdio_output@@YAXAEBV?$stream_output_adapter@D@0@DHQEAHAEAV__crt_cached_ptd_host@@@Z 000000018006da60 f i libucrtd:output.obj
 0001:0006cad0       ??$write_multiple_characters@V?$stream_output_adapter@_W@__crt_stdio_output@@D@__crt_stdio_output@@YAXAEBV?$stream_output_adapter@_W@0@DHQEAHAEAV__crt_cached_ptd_host@@@Z 000000018006dad0 f i libucrtd:output.obj
 0001:0006cb40       ??$write_multiple_characters@V?$string_output_adapter@D@__crt_stdio_output@@D@__crt_stdio_output@@YAXAEBV?$string_output_adapter@D@0@DHQEAHAEAV__crt_cached_ptd_host@@@Z 000000018006db40 f i libucrtd:output.obj
 0001:0006cbb0       ??$write_multiple_characters@V?$string_output_adapter@_W@__crt_stdio_output@@D@__crt_stdio_output@@YAXAEBV?$string_output_adapter@_W@0@DHQEAHAEAV__crt_cached_ptd_host@@@Z 000000018006dbb0 f i libucrtd:output.obj
 0001:0006cfe0       ??0?$c_string_character_source@D@__crt_strtox@@QEAA@QEBDQEAPEBD@Z 000000018006dfe0 f i libucrtd:output.obj
 0001:0006d030       ??0?$c_string_character_source@_W@__crt_strtox@@QEAA@QEB_WQEAPEB_W@Z 000000018006e030 f i libucrtd:output.obj
 0001:0006d080       ??0?$cached@H@__crt_cached_ptd_host@@QEAA@XZ 000000018006e080 f i libucrtd:output.obj
 0001:0006d0a0       ??0?$cached@K@__crt_cached_ptd_host@@QEAA@XZ 000000018006e0a0 f i libucrtd:output.obj
 0001:0006d0c0       ??0?$common_data@D@__crt_stdio_output@@IEAA@AEAV__crt_cached_ptd_host@@@Z 000000018006e0c0 f i libucrtd:output.obj
 0001:0006d180       ??0?$common_data@_W@__crt_stdio_output@@IEAA@AEAV__crt_cached_ptd_host@@@Z 000000018006e180 f i libucrtd:output.obj
 0001:0006d240       ??0?$output_adapter_data@DV?$stream_output_adapter@D@__crt_stdio_output@@@__crt_stdio_output@@IEAA@AEBV?$stream_output_adapter@D@1@_KQEBDAEAV__crt_cached_ptd_host@@QEAD@Z 000000018006e240 f i libucrtd:output.obj
 0001:0006d2c0       ??0?$output_adapter_data@DV?$string_output_adapter@D@__crt_stdio_output@@@__crt_stdio_output@@IEAA@AEBV?$string_output_adapter@D@1@_KQEBDAEAV__crt_cached_ptd_host@@QEAD@Z 000000018006e2c0 f i libucrtd:output.obj
 0001:0006d340       ??0?$output_adapter_data@_WV?$stream_output_adapter@_W@__crt_stdio_output@@@__crt_stdio_output@@IEAA@AEBV?$stream_output_adapter@_W@1@_KQEB_WAEAV__crt_cached_ptd_host@@QEAD@Z 000000018006e340 f i libucrtd:output.obj
 0001:0006d3c0       ??0?$output_adapter_data@_WV?$string_output_adapter@_W@__crt_stdio_output@@@__crt_stdio_output@@IEAA@AEBV?$string_output_adapter@_W@1@_KQEB_WAEAV__crt_cached_ptd_host@@QEAD@Z 000000018006e3c0 f i libucrtd:output.obj
 0001:0006d440       ??0?$output_processor@DV?$stream_output_adapter@D@__crt_stdio_output@@V?$format_validation_base@DV?$stream_output_adapter@D@__crt_stdio_output@@@2@@__crt_stdio_output@@QEAA@AEBV?$stream_output_adapter@D@1@_KQEBDAEAV__crt_cached_ptd_host@@QEAD@Z 000000018006e440 f i libucrtd:output.obj
 0001:0006d490       ??0?$output_processor@DV?$stream_output_adapter@D@__crt_stdio_output@@V?$positional_parameter_base@DV?$stream_output_adapter@D@__crt_stdio_output@@@2@@__crt_stdio_output@@QEAA@AEBV?$stream_output_adapter@D@1@_KQEBDAEAV__crt_cached_ptd_host@@QEAD@Z 000000018006e490 f i libucrtd:output.obj
 0001:0006d4e0       ??0?$output_processor@DV?$stream_output_adapter@D@__crt_stdio_output@@V?$standard_base@DV?$stream_output_adapter@D@__crt_stdio_output@@@2@@__crt_stdio_output@@QEAA@AEBV?$stream_output_adapter@D@1@_KQEBDAEAV__crt_cached_ptd_host@@QEAD@Z 000000018006e4e0 f i libucrtd:output.obj
 0001:0006d530       ??0?$output_processor@DV?$string_output_adapter@D@__crt_stdio_output@@V?$format_validation_base@DV?$string_output_adapter@D@__crt_stdio_output@@@2@@__crt_stdio_output@@QEAA@AEBV?$string_output_adapter@D@1@_KQEBDAEAV__crt_cached_ptd_host@@QEAD@Z 000000018006e530 f i libucrtd:output.obj
 0001:0006d580       ??0?$output_processor@DV?$string_output_adapter@D@__crt_stdio_output@@V?$positional_parameter_base@DV?$string_output_adapter@D@__crt_stdio_output@@@2@@__crt_stdio_output@@QEAA@AEBV?$string_output_adapter@D@1@_KQEBDAEAV__crt_cached_ptd_host@@QEAD@Z 000000018006e580 f i libucrtd:output.obj
 0001:0006d5d0       ??0?$output_processor@DV?$string_output_adapter@D@__crt_stdio_output@@V?$standard_base@DV?$string_output_adapter@D@__crt_stdio_output@@@2@@__crt_stdio_output@@QEAA@AEBV?$string_output_adapter@D@1@_KQEBDAEAV__crt_cached_ptd_host@@QEAD@Z 000000018006e5d0 f i libucrtd:output.obj
 0001:0006d620       ??0?$output_processor@_WV?$stream_output_adapter@_W@__crt_stdio_output@@V?$format_validation_base@_WV?$stream_output_adapter@_W@__crt_stdio_output@@@2@@__crt_stdio_output@@QEAA@AEBV?$stream_output_adapter@_W@1@_KQEB_WAEAV__crt_cached_ptd_host@@QEAD@Z 000000018006e620 f i libucrtd:output.obj
 0001:0006d670       ??0?$output_processor@_WV?$stream_output_adapter@_W@__crt_stdio_output@@V?$positional_parameter_base@_WV?$stream_output_adapter@_W@__crt_stdio_output@@@2@@__crt_stdio_output@@QEAA@AEBV?$stream_output_adapter@_W@1@_KQEB_WAEAV__crt_cached_ptd_host@@QEAD@Z 000000018006e670 f i libucrtd:output.obj
 0001:0006d6c0       ??0?$output_processor@_WV?$stream_output_adapter@_W@__crt_stdio_output@@V?$standard_base@_WV?$stream_output_adapter@_W@__crt_stdio_output@@@2@@__crt_stdio_output@@QEAA@AEBV?$stream_output_adapter@_W@1@_KQEB_WAEAV__crt_cached_ptd_host@@QEAD@Z 000000018006e6c0 f i libucrtd:output.obj
 0001:0006d710       ??0?$output_processor@_WV?$string_output_adapter@_W@__crt_stdio_output@@V?$format_validation_base@_WV?$string_output_adapter@_W@__crt_stdio_output@@@2@@__crt_stdio_output@@QEAA@AEBV?$string_output_adapter@_W@1@_KQEB_WAEAV__crt_cached_ptd_host@@QEAD@Z 000000018006e710 f i libucrtd:output.obj
 0001:0006d760       ??0?$output_processor@_WV?$string_output_adapter@_W@__crt_stdio_output@@V?$positional_parameter_base@_WV?$string_output_adapter@_W@__crt_stdio_output@@@2@@__crt_stdio_output@@QEAA@AEBV?$string_output_adapter@_W@1@_KQEB_WAEAV__crt_cached_ptd_host@@QEAD@Z 000000018006e760 f i libucrtd:output.obj
 0001:0006d7b0       ??0?$output_processor@_WV?$string_output_adapter@_W@__crt_stdio_output@@V?$standard_base@_WV?$string_output_adapter@_W@__crt_stdio_output@@@2@@__crt_stdio_output@@QEAA@AEBV?$string_output_adapter@_W@1@_KQEB_WAEAV__crt_cached_ptd_host@@QEAD@Z 000000018006e7b0 f i libucrtd:output.obj
 0001:0006d800       ??0?$stream_output_adapter@D@__crt_stdio_output@@QEAA@QEAU_iobuf@@@Z 000000018006e800 f i libucrtd:output.obj
 0001:0006d840       ??0?$stream_output_adapter@_W@__crt_stdio_output@@QEAA@QEAU_iobuf@@@Z 000000018006e840 f i libucrtd:output.obj
 0001:0006d880       ??0?$string_output_adapter@D@__crt_stdio_output@@QEAA@QEAU?$string_output_adapter_context@D@1@@Z 000000018006e880 f i libucrtd:output.obj
 0001:0006d8a0       ??0?$string_output_adapter@_W@__crt_stdio_output@@QEAA@QEAU?$string_output_adapter_context@_W@1@@Z 000000018006e8a0 f i libucrtd:output.obj
 0001:0006d8c0       ??0__acrt_stdio_temporary_buffering_guard@@QEAA@QEAU_iobuf@@AEAV__crt_cached_ptd_host@@@Z 000000018006e8c0 f i libucrtd:output.obj
 0001:0006d910       ??0__crt_cached_ptd_host@@QEAA@QEAU__crt_locale_pointers@@@Z 000000018006e910 f i libucrtd:output.obj
 0001:0006d9d0       ??0__crt_scoped_get_last_error_reset@@QEAA@XZ 000000018006e9d0 f i libucrtd:output.obj
 0001:0006d9f0       ??0__crt_stdio_stream@@QEAA@QEAU_iobuf@@@Z 000000018006e9f0 f i libucrtd:output.obj
 0001:0006da10       ??0formatting_buffer@__crt_stdio_output@@QEAA@XZ 000000018006ea10 f i libucrtd:output.obj
 0001:0006da50       ??0guard@?$cached@H@__crt_cached_ptd_host@@QEAA@AEAU12@@Z 000000018006ea50 f i libucrtd:output.obj
 0001:0006da90       ??1?$c_string_character_source@D@__crt_strtox@@QEAA@XZ 000000018006ea90 f i libucrtd:output.obj
 0001:0006dac0       ??1?$c_string_character_source@_W@__crt_strtox@@QEAA@XZ 000000018006eac0 f i libucrtd:output.obj
 0001:0006daf0       ??1?$common_data@D@__crt_stdio_output@@QEAA@XZ 000000018006eaf0 f i libucrtd:output.obj
 0001:0006db10       ??1?$common_data@_W@__crt_stdio_output@@QEAA@XZ 000000018006eb10 f i libucrtd:output.obj
 0001:0006db30       ??1?$format_validation_base@DV?$stream_output_adapter@D@__crt_stdio_output@@@__crt_stdio_output@@QEAA@XZ 000000018006eb30 f i libucrtd:output.obj
 0001:0006db50       ??1?$format_validation_base@DV?$string_output_adapter@D@__crt_stdio_output@@@__crt_stdio_output@@QEAA@XZ 000000018006eb50 f i libucrtd:output.obj
 0001:0006db70       ??1?$format_validation_base@_WV?$stream_output_adapter@_W@__crt_stdio_output@@@__crt_stdio_output@@QEAA@XZ 000000018006eb70 f i libucrtd:output.obj
 0001:0006db90       ??1?$format_validation_base@_WV?$string_output_adapter@_W@__crt_stdio_output@@@__crt_stdio_output@@QEAA@XZ 000000018006eb90 f i libucrtd:output.obj
 0001:0006dbb0       ??1?$output_adapter_data@DV?$stream_output_adapter@D@__crt_stdio_output@@@__crt_stdio_output@@QEAA@XZ 000000018006ebb0 f i libucrtd:output.obj
 0001:0006dbd0       ??1?$output_adapter_data@DV?$string_output_adapter@D@__crt_stdio_output@@@__crt_stdio_output@@QEAA@XZ 000000018006ebd0 f i libucrtd:output.obj
 0001:0006dbf0       ??1?$output_adapter_data@_WV?$stream_output_adapter@_W@__crt_stdio_output@@@__crt_stdio_output@@QEAA@XZ 000000018006ebf0 f i libucrtd:output.obj
 0001:0006dc10       ??1?$output_adapter_data@_WV?$string_output_adapter@_W@__crt_stdio_output@@@__crt_stdio_output@@QEAA@XZ 000000018006ec10 f i libucrtd:output.obj
 0001:0006dc30       ??1?$output_processor@DV?$stream_output_adapter@D@__crt_stdio_output@@V?$format_validation_base@DV?$stream_output_adapter@D@__crt_stdio_output@@@2@@__crt_stdio_output@@QEAA@XZ 000000018006ec30 f i libucrtd:output.obj
 0001:0006dc50       ??1?$output_processor@DV?$stream_output_adapter@D@__crt_stdio_output@@V?$positional_parameter_base@DV?$stream_output_adapter@D@__crt_stdio_output@@@2@@__crt_stdio_output@@QEAA@XZ 000000018006ec50 f i libucrtd:output.obj
 0001:0006dc70       ??1?$output_processor@DV?$stream_output_adapter@D@__crt_stdio_output@@V?$standard_base@DV?$stream_output_adapter@D@__crt_stdio_output@@@2@@__crt_stdio_output@@QEAA@XZ 000000018006ec70 f i libucrtd:output.obj
 0001:0006dc90       ??1?$output_processor@DV?$string_output_adapter@D@__crt_stdio_output@@V?$format_validation_base@DV?$string_output_adapter@D@__crt_stdio_output@@@2@@__crt_stdio_output@@QEAA@XZ 000000018006ec90 f i libucrtd:output.obj
 0001:0006dcb0       ??1?$output_processor@DV?$string_output_adapter@D@__crt_stdio_output@@V?$positional_parameter_base@DV?$string_output_adapter@D@__crt_stdio_output@@@2@@__crt_stdio_output@@QEAA@XZ 000000018006ecb0 f i libucrtd:output.obj
 0001:0006dcd0       ??1?$output_processor@DV?$string_output_adapter@D@__crt_stdio_output@@V?$standard_base@DV?$string_output_adapter@D@__crt_stdio_output@@@2@@__crt_stdio_output@@QEAA@XZ 000000018006ecd0 f i libucrtd:output.obj
 0001:0006dcf0       ??1?$output_processor@_WV?$stream_output_adapter@_W@__crt_stdio_output@@V?$format_validation_base@_WV?$stream_output_adapter@_W@__crt_stdio_output@@@2@@__crt_stdio_output@@QEAA@XZ 000000018006ecf0 f i libucrtd:output.obj
 0001:0006dd10       ??1?$output_processor@_WV?$stream_output_adapter@_W@__crt_stdio_output@@V?$positional_parameter_base@_WV?$stream_output_adapter@_W@__crt_stdio_output@@@2@@__crt_stdio_output@@QEAA@XZ 000000018006ed10 f i libucrtd:output.obj
 0001:0006dd30       ??1?$output_processor@_WV?$stream_output_adapter@_W@__crt_stdio_output@@V?$standard_base@_WV?$stream_output_adapter@_W@__crt_stdio_output@@@2@@__crt_stdio_output@@QEAA@XZ 000000018006ed30 f i libucrtd:output.obj
 0001:0006dd50       ??1?$output_processor@_WV?$string_output_adapter@_W@__crt_stdio_output@@V?$format_validation_base@_WV?$string_output_adapter@_W@__crt_stdio_output@@@2@@__crt_stdio_output@@QEAA@XZ 000000018006ed50 f i libucrtd:output.obj
 0001:0006dd70       ??1?$output_processor@_WV?$string_output_adapter@_W@__crt_stdio_output@@V?$positional_parameter_base@_WV?$string_output_adapter@_W@__crt_stdio_output@@@2@@__crt_stdio_output@@QEAA@XZ 000000018006ed70 f i libucrtd:output.obj
 0001:0006dd90       ??1?$output_processor@_WV?$string_output_adapter@_W@__crt_stdio_output@@V?$standard_base@_WV?$string_output_adapter@_W@__crt_stdio_output@@@2@@__crt_stdio_output@@QEAA@XZ 000000018006ed90 f i libucrtd:output.obj
 0001:0006ddb0       ??1?$positional_parameter_base@DV?$stream_output_adapter@D@__crt_stdio_output@@@__crt_stdio_output@@QEAA@XZ 000000018006edb0 f i libucrtd:output.obj
 0001:0006ddd0       ??1?$positional_parameter_base@DV?$string_output_adapter@D@__crt_stdio_output@@@__crt_stdio_output@@QEAA@XZ 000000018006edd0 f i libucrtd:output.obj
 0001:0006ddf0       ??1?$positional_parameter_base@_WV?$stream_output_adapter@_W@__crt_stdio_output@@@__crt_stdio_output@@QEAA@XZ 000000018006edf0 f i libucrtd:output.obj
 0001:0006de10       ??1?$positional_parameter_base@_WV?$string_output_adapter@_W@__crt_stdio_output@@@__crt_stdio_output@@QEAA@XZ 000000018006ee10 f i libucrtd:output.obj
 0001:0006de30       ??1?$standard_base@DV?$stream_output_adapter@D@__crt_stdio_output@@@__crt_stdio_output@@QEAA@XZ 000000018006ee30 f i libucrtd:output.obj
 0001:0006de50       ??1?$standard_base@DV?$string_output_adapter@D@__crt_stdio_output@@@__crt_stdio_output@@QEAA@XZ 000000018006ee50 f i libucrtd:output.obj
 0001:0006de70       ??1?$standard_base@_WV?$stream_output_adapter@_W@__crt_stdio_output@@@__crt_stdio_output@@QEAA@XZ 000000018006ee70 f i libucrtd:output.obj
 0001:0006de90       ??1?$standard_base@_WV?$string_output_adapter@_W@__crt_stdio_output@@@__crt_stdio_output@@QEAA@XZ 000000018006ee90 f i libucrtd:output.obj
 0001:0006deb0       ??1__acrt_stdio_temporary_buffering_guard@@QEAA@XZ 000000018006eeb0 f i libucrtd:output.obj
 0001:0006dee0       ??1__crt_cached_ptd_host@@QEAA@XZ 000000018006eee0 f i libucrtd:output.obj
 0001:0006df90       ??1__crt_scoped_get_last_error_reset@@QEAA@XZ 000000018006ef90 f i libucrtd:output.obj
 0001:0006dfb0       ??1formatting_buffer@__crt_stdio_output@@QEAA@XZ 000000018006efb0 f i libucrtd:output.obj
 0001:0006dfe0       ??1guard@?$cached@H@__crt_cached_ptd_host@@QEAA@XZ 000000018006efe0 f i libucrtd:output.obj
 0001:0006e010       ??4?$__crt_unique_heap_ptr@DU__crt_internal_free_policy@@@@QEAAAEAV0@$$QEAV0@@Z 000000018006f010 f i libucrtd:output.obj
 0001:0006e050       ??A?$spectre_mitigated_lookup_table@Ustate_transition_pair@__crt_stdio_output@@$0IA@@__crt_stdio_output@@QEBAAEBUstate_transition_pair@1@_K@Z 000000018006f050 f i libucrtd:output.obj
 0001:0006e070       ??C__crt_stdio_stream@@QEBAPEAU__crt_stdio_stream_data@@XZ 000000018006f070 f i libucrtd:output.obj
 0001:0006e8c0       ?__crt_interlocked_read_32@@YAHPEDH@Z 000000018006f8c0 f i libucrtd:output.obj
 0001:0006e8e0       ?adjust_hexit@?$output_processor@DV?$stream_output_adapter@D@__crt_stdio_output@@V?$format_validation_base@DV?$stream_output_adapter@D@__crt_stdio_output@@@2@@__crt_stdio_output@@CADH_N@Z 000000018006f8e0 f i libucrtd:output.obj
 0001:0006e930       ?adjust_hexit@?$output_processor@DV?$stream_output_adapter@D@__crt_stdio_output@@V?$positional_parameter_base@DV?$stream_output_adapter@D@__crt_stdio_output@@@2@@__crt_stdio_output@@CADH_N@Z 000000018006f930 f i libucrtd:output.obj
 0001:0006e980       ?adjust_hexit@?$output_processor@DV?$stream_output_adapter@D@__crt_stdio_output@@V?$standard_base@DV?$stream_output_adapter@D@__crt_stdio_output@@@2@@__crt_stdio_output@@CADH_N@Z 000000018006f980 f i libucrtd:output.obj
 0001:0006e9d0       ?adjust_hexit@?$output_processor@DV?$string_output_adapter@D@__crt_stdio_output@@V?$format_validation_base@DV?$string_output_adapter@D@__crt_stdio_output@@@2@@__crt_stdio_output@@CADH_N@Z 000000018006f9d0 f i libucrtd:output.obj
 0001:0006ea20       ?adjust_hexit@?$output_processor@DV?$string_output_adapter@D@__crt_stdio_output@@V?$positional_parameter_base@DV?$string_output_adapter@D@__crt_stdio_output@@@2@@__crt_stdio_output@@CADH_N@Z 000000018006fa20 f i libucrtd:output.obj
 0001:0006ea70       ?adjust_hexit@?$output_processor@DV?$string_output_adapter@D@__crt_stdio_output@@V?$standard_base@DV?$string_output_adapter@D@__crt_stdio_output@@@2@@__crt_stdio_output@@CADH_N@Z 000000018006fa70 f i libucrtd:output.obj
 0001:0006eac0       ?adjust_hexit@?$output_processor@_WV?$stream_output_adapter@_W@__crt_stdio_output@@V?$format_validation_base@_WV?$stream_output_adapter@_W@__crt_stdio_output@@@2@@__crt_stdio_output@@CADH_N@Z 000000018006fac0 f i libucrtd:output.obj
 0001:0006eb10       ?adjust_hexit@?$output_processor@_WV?$stream_output_adapter@_W@__crt_stdio_output@@V?$positional_parameter_base@_WV?$stream_output_adapter@_W@__crt_stdio_output@@@2@@__crt_stdio_output@@CADH_N@Z 000000018006fb10 f i libucrtd:output.obj
 0001:0006eb60       ?adjust_hexit@?$output_processor@_WV?$stream_output_adapter@_W@__crt_stdio_output@@V?$standard_base@_WV?$stream_output_adapter@_W@__crt_stdio_output@@@2@@__crt_stdio_output@@CADH_N@Z 000000018006fb60 f i libucrtd:output.obj
 0001:0006ebb0       ?adjust_hexit@?$output_processor@_WV?$string_output_adapter@_W@__crt_stdio_output@@V?$format_validation_base@_WV?$string_output_adapter@_W@__crt_stdio_output@@@2@@__crt_stdio_output@@CADH_N@Z 000000018006fbb0 f i libucrtd:output.obj
 0001:0006ec00       ?adjust_hexit@?$output_processor@_WV?$string_output_adapter@_W@__crt_stdio_output@@V?$positional_parameter_base@_WV?$string_output_adapter@_W@__crt_stdio_output@@@2@@__crt_stdio_output@@CADH_N@Z 000000018006fc00 f i libucrtd:output.obj
 0001:0006ec50       ?adjust_hexit@?$output_processor@_WV?$string_output_adapter@_W@__crt_stdio_output@@V?$standard_base@_WV?$string_output_adapter@_W@__crt_stdio_output@@@2@@__crt_stdio_output@@CADH_N@Z 000000018006fc50 f i libucrtd:output.obj
 0001:0006eca0       ?advance_to_next_pass@?$positional_parameter_base@DV?$stream_output_adapter@D@__crt_stdio_output@@@__crt_stdio_output@@IEAA_NXZ 000000018006fca0 f i libucrtd:output.obj
 0001:0006ed50       ?advance_to_next_pass@?$positional_parameter_base@DV?$string_output_adapter@D@__crt_stdio_output@@@__crt_stdio_output@@IEAA_NXZ 000000018006fd50 f i libucrtd:output.obj
 0001:0006ee00       ?advance_to_next_pass@?$positional_parameter_base@_WV?$stream_output_adapter@_W@__crt_stdio_output@@@__crt_stdio_output@@IEAA_NXZ 000000018006fe00 f i libucrtd:output.obj
 0001:0006eeb0       ?advance_to_next_pass@?$positional_parameter_base@_WV?$string_output_adapter@_W@__crt_stdio_output@@@__crt_stdio_output@@IEAA_NXZ 000000018006feb0 f i libucrtd:output.obj
 0001:0006ef60       ?advance_to_next_pass@?$standard_base@DV?$stream_output_adapter@D@__crt_stdio_output@@@__crt_stdio_output@@IEAA_NXZ 000000018006ff60 f i libucrtd:output.obj
 0001:0006efb0       ?advance_to_next_pass@?$standard_base@DV?$string_output_adapter@D@__crt_stdio_output@@@__crt_stdio_output@@IEAA_NXZ 000000018006ffb0 f i libucrtd:output.obj
 0001:0006f000       ?advance_to_next_pass@?$standard_base@_WV?$stream_output_adapter@_W@__crt_stdio_output@@@__crt_stdio_output@@IEAA_NXZ 0000000180070000 f i libucrtd:output.obj
 0001:0006f050       ?advance_to_next_pass@?$standard_base@_WV?$string_output_adapter@_W@__crt_stdio_output@@@__crt_stdio_output@@IEAA_NXZ 0000000180070050 f i libucrtd:output.obj
 0001:0006f0a0       ?check@?$cached@H@__crt_cached_ptd_host@@QEBA_NH@Z 00000001800700a0 f i libucrtd:output.obj
 0001:0006f0e0       ?check_synchronize_global_state_index@__crt_cached_ptd_host@@AEAA_KAEBV__crt_scoped_get_last_error_reset@@@Z 00000001800700e0 f i libucrtd:output.obj
 0001:0006f120       ?check_synchronize_per_thread_data@__crt_cached_ptd_host@@AEAAPEAU__acrt_ptd@@XZ 0000000180070120 f i libucrtd:output.obj
 0001:0006f160       ?create_guard@?$cached@H@__crt_cached_ptd_host@@QEAA?AVguard@12@XZ 0000000180070160 f i libucrtd:output.obj
 0001:0006f190       ?crop_zeroes@__crt_stdio_output@@YAXPEADQEAU__crt_locale_pointers@@@Z 0000000180070190 f i libucrtd:output.obj
 0001:0006f2e0       ?disable@guard@?$cached@H@__crt_cached_ptd_host@@QEAAXXZ 00000001800702e0 f i libucrtd:output.obj
 0001:0006f2f0       ?enable@guard@?$cached@H@__crt_cached_ptd_host@@QEAAXXZ 00000001800702f0 f i libucrtd:output.obj
 0001:0006f300       ?find_next_state@?$output_processor@DV?$stream_output_adapter@D@__crt_stdio_output@@V?$format_validation_base@DV?$stream_output_adapter@D@__crt_stdio_output@@@2@@__crt_stdio_output@@AEBA?AW4state@2@DW432@@Z 0000000180070300 f i libucrtd:output.obj
 0001:0006f3a0       ?find_next_state@?$output_processor@DV?$stream_output_adapter@D@__crt_stdio_output@@V?$positional_parameter_base@DV?$stream_output_adapter@D@__crt_stdio_output@@@2@@__crt_stdio_output@@AEBA?AW4state@2@DW432@@Z 00000001800703a0 f i libucrtd:output.obj
 0001:0006f440       ?find_next_state@?$output_processor@DV?$stream_output_adapter@D@__crt_stdio_output@@V?$standard_base@DV?$stream_output_adapter@D@__crt_stdio_output@@@2@@__crt_stdio_output@@AEBA?AW4state@2@DW432@@Z 0000000180070440 f i libucrtd:output.obj
 0001:0006f4e0       ?find_next_state@?$output_processor@DV?$string_output_adapter@D@__crt_stdio_output@@V?$format_validation_base@DV?$string_output_adapter@D@__crt_stdio_output@@@2@@__crt_stdio_output@@AEBA?AW4state@2@DW432@@Z 00000001800704e0 f i libucrtd:output.obj
 0001:0006f580       ?find_next_state@?$output_processor@DV?$string_output_adapter@D@__crt_stdio_output@@V?$positional_parameter_base@DV?$string_output_adapter@D@__crt_stdio_output@@@2@@__crt_stdio_output@@AEBA?AW4state@2@DW432@@Z 0000000180070580 f i libucrtd:output.obj
 0001:0006f620       ?find_next_state@?$output_processor@DV?$string_output_adapter@D@__crt_stdio_output@@V?$standard_base@DV?$string_output_adapter@D@__crt_stdio_output@@@2@@__crt_stdio_output@@AEBA?AW4state@2@DW432@@Z 0000000180070620 f i libucrtd:output.obj
 0001:0006f6c0       ?find_next_state@?$output_processor@_WV?$stream_output_adapter@_W@__crt_stdio_output@@V?$format_validation_base@_WV?$stream_output_adapter@_W@__crt_stdio_output@@@2@@__crt_stdio_output@@AEBA?AW4state@2@_WW432@@Z 00000001800706c0 f i libucrtd:output.obj
 0001:0006f760       ?find_next_state@?$output_processor@_WV?$stream_output_adapter@_W@__crt_stdio_output@@V?$positional_parameter_base@_WV?$stream_output_adapter@_W@__crt_stdio_output@@@2@@__crt_stdio_output@@AEBA?AW4state@2@_WW432@@Z 0000000180070760 f i libucrtd:output.obj
 0001:0006f800       ?find_next_state@?$output_processor@_WV?$stream_output_adapter@_W@__crt_stdio_output@@V?$standard_base@_WV?$stream_output_adapter@_W@__crt_stdio_output@@@2@@__crt_stdio_output@@AEBA?AW4state@2@_WW432@@Z 0000000180070800 f i libucrtd:output.obj
 0001:0006f8a0       ?find_next_state@?$output_processor@_WV?$string_output_adapter@_W@__crt_stdio_output@@V?$format_validation_base@_WV?$string_output_adapter@_W@__crt_stdio_output@@@2@@__crt_stdio_output@@AEBA?AW4state@2@_WW432@@Z 00000001800708a0 f i libucrtd:output.obj
 0001:0006f940       ?find_next_state@?$output_processor@_WV?$string_output_adapter@_W@__crt_stdio_output@@V?$positional_parameter_base@_WV?$string_output_adapter@_W@__crt_stdio_output@@@2@@__crt_stdio_output@@AEBA?AW4state@2@_WW432@@Z 0000000180070940 f i libucrtd:output.obj
 0001:0006f9e0       ?find_next_state@?$output_processor@_WV?$string_output_adapter@_W@__crt_stdio_output@@V?$standard_base@_WV?$string_output_adapter@_W@__crt_stdio_output@@@2@@__crt_stdio_output@@AEBA?AW4state@2@_WW432@@Z 00000001800709e0 f i libucrtd:output.obj
 0001:0006fa80       ?force_decimal_point@__crt_stdio_output@@YAXPEADQEAU__crt_locale_pointers@@@Z 0000000180070a80 f i libucrtd:output.obj
 0001:0006fb80       ?force_synchronize_global_state_index@__crt_cached_ptd_host@@AEAA_KAEBV__crt_scoped_get_last_error_reset@@@Z 0000000180070b80 f i libucrtd:output.obj
 0001:0006fbc0       ?force_synchronize_per_thread_data@__crt_cached_ptd_host@@AEAAPEAU__acrt_ptd@@XZ 0000000180070bc0 f i libucrtd:output.obj
 0001:0006fc20       ?get@?$c_string_character_source@D@__crt_strtox@@QEAADXZ 0000000180070c20 f i libucrtd:output.obj
 0001:0006fc60       ?get@?$c_string_character_source@_W@__crt_strtox@@QEAA_WXZ 0000000180070c60 f i libucrtd:output.obj
 0001:0006fca0       ?get_current_state_index@__crt_state_management@@YA_KAEBV__crt_scoped_get_last_error_reset@@@Z 0000000180070ca0 f i libucrtd:output.obj
 0001:0006fcb0       ?get_errno@__crt_cached_ptd_host@@QEAAAEAU?$cached@H@1@XZ 0000000180070cb0 f i libucrtd:output.obj
 0001:0006fcc0       ?get_flags@__crt_stdio_stream@@QEBAJXZ 0000000180070cc0 f i libucrtd:output.obj
 0001:0006fcf0       ?get_locale@__crt_cached_ptd_host@@QEAAPEAU__crt_locale_pointers@@XZ 0000000180070cf0 f i libucrtd:output.obj
 0001:0006fd20       ?get_parameter_type@?$positional_parameter_base@DV?$stream_output_adapter@D@__crt_stdio_output@@@__crt_stdio_output@@CA?AW4parameter_type@12@F@Z 0000000180070d20 f i libucrtd:output.obj
 0001:0006fd30       ?get_parameter_type@?$positional_parameter_base@DV?$stream_output_adapter@D@__crt_stdio_output@@@__crt_stdio_output@@CA?AW4parameter_type@12@G@Z 0000000180070d30 f i libucrtd:output.obj
 0001:0006fd40       ?get_parameter_type@?$positional_parameter_base@DV?$stream_output_adapter@D@__crt_stdio_output@@@__crt_stdio_output@@CA?AW4parameter_type@12@H@Z 0000000180070d40 f i libucrtd:output.obj
 0001:0006fd50       ?get_parameter_type@?$positional_parameter_base@DV?$stream_output_adapter@D@__crt_stdio_output@@@__crt_stdio_output@@CA?AW4parameter_type@12@I@Z 0000000180070d50 f i libucrtd:output.obj
 0001:0006fd60       ?get_parameter_type@?$positional_parameter_base@DV?$stream_output_adapter@D@__crt_stdio_output@@@__crt_stdio_output@@CA?AW4parameter_type@12@U_CRT_DOUBLE@@@Z 0000000180070d60 f i libucrtd:output.obj
 0001:0006fd70       ?get_parameter_type@?$positional_parameter_base@DV?$stream_output_adapter@D@__crt_stdio_output@@@__crt_stdio_output@@CA?AW4parameter_type@12@_J@Z 0000000180070d70 f i libucrtd:output.obj
 0001:0006fd80       ?get_parameter_type@?$positional_parameter_base@DV?$stream_output_adapter@D@__crt_stdio_output@@@__crt_stdio_output@@CA?AW4parameter_type@12@_K@Z 0000000180070d80 f i libucrtd:output.obj
 0001:0006fd90       ?get_parameter_type@?$positional_parameter_base@DV?$stream_output_adapter@D@__crt_stdio_output@@@__crt_stdio_output@@CA?AW4parameter_type@12@_W@Z 0000000180070d90 f i libucrtd:output.obj
 0001:0006fda0       ?get_parameter_type@?$positional_parameter_base@DV?$string_output_adapter@D@__crt_stdio_output@@@__crt_stdio_output@@CA?AW4parameter_type@12@F@Z 0000000180070da0 f i libucrtd:output.obj
 0001:0006fdb0       ?get_parameter_type@?$positional_parameter_base@DV?$string_output_adapter@D@__crt_stdio_output@@@__crt_stdio_output@@CA?AW4parameter_type@12@G@Z 0000000180070db0 f i libucrtd:output.obj
 0001:0006fdc0       ?get_parameter_type@?$positional_parameter_base@DV?$string_output_adapter@D@__crt_stdio_output@@@__crt_stdio_output@@CA?AW4parameter_type@12@H@Z 0000000180070dc0 f i libucrtd:output.obj
 0001:0006fdd0       ?get_parameter_type@?$positional_parameter_base@DV?$string_output_adapter@D@__crt_stdio_output@@@__crt_stdio_output@@CA?AW4parameter_type@12@I@Z 0000000180070dd0 f i libucrtd:output.obj
 0001:0006fde0       ?get_parameter_type@?$positional_parameter_base@DV?$string_output_adapter@D@__crt_stdio_output@@@__crt_stdio_output@@CA?AW4parameter_type@12@U_CRT_DOUBLE@@@Z 0000000180070de0 f i libucrtd:output.obj
 0001:0006fdf0       ?get_parameter_type@?$positional_parameter_base@DV?$string_output_adapter@D@__crt_stdio_output@@@__crt_stdio_output@@CA?AW4parameter_type@12@_J@Z 0000000180070df0 f i libucrtd:output.obj
 0001:0006fe00       ?get_parameter_type@?$positional_parameter_base@DV?$string_output_adapter@D@__crt_stdio_output@@@__crt_stdio_output@@CA?AW4parameter_type@12@_K@Z 0000000180070e00 f i libucrtd:output.obj
 0001:0006fe10       ?get_parameter_type@?$positional_parameter_base@DV?$string_output_adapter@D@__crt_stdio_output@@@__crt_stdio_output@@CA?AW4parameter_type@12@_W@Z 0000000180070e10 f i libucrtd:output.obj
 0001:0006fe20       ?get_parameter_type@?$positional_parameter_base@_WV?$stream_output_adapter@_W@__crt_stdio_output@@@__crt_stdio_output@@CA?AW4parameter_type@12@F@Z 0000000180070e20 f i libucrtd:output.obj
 0001:0006fe30       ?get_parameter_type@?$positional_parameter_base@_WV?$stream_output_adapter@_W@__crt_stdio_output@@@__crt_stdio_output@@CA?AW4parameter_type@12@G@Z 0000000180070e30 f i libucrtd:output.obj
 0001:0006fe40       ?get_parameter_type@?$positional_parameter_base@_WV?$stream_output_adapter@_W@__crt_stdio_output@@@__crt_stdio_output@@CA?AW4parameter_type@12@H@Z 0000000180070e40 f i libucrtd:output.obj
 0001:0006fe50       ?get_parameter_type@?$positional_parameter_base@_WV?$stream_output_adapter@_W@__crt_stdio_output@@@__crt_stdio_output@@CA?AW4parameter_type@12@I@Z 0000000180070e50 f i libucrtd:output.obj
 0001:0006fe60       ?get_parameter_type@?$positional_parameter_base@_WV?$stream_output_adapter@_W@__crt_stdio_output@@@__crt_stdio_output@@CA?AW4parameter_type@12@U_CRT_DOUBLE@@@Z 0000000180070e60 f i libucrtd:output.obj
 0001:0006fe70       ?get_parameter_type@?$positional_parameter_base@_WV?$stream_output_adapter@_W@__crt_stdio_output@@@__crt_stdio_output@@CA?AW4parameter_type@12@_J@Z 0000000180070e70 f i libucrtd:output.obj
 0001:0006fe80       ?get_parameter_type@?$positional_parameter_base@_WV?$stream_output_adapter@_W@__crt_stdio_output@@@__crt_stdio_output@@CA?AW4parameter_type@12@_K@Z 0000000180070e80 f i libucrtd:output.obj
 0001:0006fe90       ?get_parameter_type@?$positional_parameter_base@_WV?$stream_output_adapter@_W@__crt_stdio_output@@@__crt_stdio_output@@CA?AW4parameter_type@12@_W@Z 0000000180070e90 f i libucrtd:output.obj
 0001:0006fea0       ?get_parameter_type@?$positional_parameter_base@_WV?$string_output_adapter@_W@__crt_stdio_output@@@__crt_stdio_output@@CA?AW4parameter_type@12@F@Z 0000000180070ea0 f i libucrtd:output.obj
 0001:0006feb0       ?get_parameter_type@?$positional_parameter_base@_WV?$string_output_adapter@_W@__crt_stdio_output@@@__crt_stdio_output@@CA?AW4parameter_type@12@G@Z 0000000180070eb0 f i libucrtd:output.obj
 0001:0006fec0       ?get_parameter_type@?$positional_parameter_base@_WV?$string_output_adapter@_W@__crt_stdio_output@@@__crt_stdio_output@@CA?AW4parameter_type@12@H@Z 0000000180070ec0 f i libucrtd:output.obj
 0001:0006fed0       ?get_parameter_type@?$positional_parameter_base@_WV?$string_output_adapter@_W@__crt_stdio_output@@@__crt_stdio_output@@CA?AW4parameter_type@12@I@Z 0000000180070ed0 f i libucrtd:output.obj
 0001:0006fee0       ?get_parameter_type@?$positional_parameter_base@_WV?$string_output_adapter@_W@__crt_stdio_output@@@__crt_stdio_output@@CA?AW4parameter_type@12@U_CRT_DOUBLE@@@Z 0000000180070ee0 f i libucrtd:output.obj
 0001:0006fef0       ?get_parameter_type@?$positional_parameter_base@_WV?$string_output_adapter@_W@__crt_stdio_output@@@__crt_stdio_output@@CA?AW4parameter_type@12@_J@Z 0000000180070ef0 f i libucrtd:output.obj
 0001:0006ff00       ?get_parameter_type@?$positional_parameter_base@_WV?$string_output_adapter@_W@__crt_stdio_output@@@__crt_stdio_output@@CA?AW4parameter_type@12@_K@Z 0000000180070f00 f i libucrtd:output.obj
 0001:0006ff10       ?get_parameter_type@?$positional_parameter_base@_WV?$string_output_adapter@_W@__crt_stdio_output@@@__crt_stdio_output@@CA?AW4parameter_type@12@_W@Z 0000000180070f10 f i libucrtd:output.obj
 0001:0006ff20       ?get_raw_ptd@__crt_cached_ptd_host@@QEAAPEAU__acrt_ptd@@XZ 0000000180070f20 f i libucrtd:output.obj
 0001:0006ff40       ?has_flag@?$output_processor@DV?$stream_output_adapter@D@__crt_stdio_output@@V?$format_validation_base@DV?$stream_output_adapter@D@__crt_stdio_output@@@2@@__crt_stdio_output@@AEBA_NI@Z 0000000180070f40 f i libucrtd:output.obj
 0001:0006ff80       ?has_flag@?$output_processor@DV?$stream_output_adapter@D@__crt_stdio_output@@V?$positional_parameter_base@DV?$stream_output_adapter@D@__crt_stdio_output@@@2@@__crt_stdio_output@@AEBA_NI@Z 0000000180070f80 f i libucrtd:output.obj
 0001:0006ffc0       ?has_flag@?$output_processor@DV?$stream_output_adapter@D@__crt_stdio_output@@V?$standard_base@DV?$stream_output_adapter@D@__crt_stdio_output@@@2@@__crt_stdio_output@@AEBA_NI@Z 0000000180070fc0 f i libucrtd:output.obj
 0001:00070000       ?has_flag@?$output_processor@DV?$string_output_adapter@D@__crt_stdio_output@@V?$format_validation_base@DV?$string_output_adapter@D@__crt_stdio_output@@@2@@__crt_stdio_output@@AEBA_NI@Z 0000000180071000 f i libucrtd:output.obj
 0001:00070040       ?has_flag@?$output_processor@DV?$string_output_adapter@D@__crt_stdio_output@@V?$positional_parameter_base@DV?$string_output_adapter@D@__crt_stdio_output@@@2@@__crt_stdio_output@@AEBA_NI@Z 0000000180071040 f i libucrtd:output.obj
 0001:00070080       ?has_flag@?$output_processor@DV?$string_output_adapter@D@__crt_stdio_output@@V?$standard_base@DV?$string_output_adapter@D@__crt_stdio_output@@@2@@__crt_stdio_output@@AEBA_NI@Z 0000000180071080 f i libucrtd:output.obj
 0001:000700c0       ?has_flag@?$output_processor@_WV?$stream_output_adapter@_W@__crt_stdio_output@@V?$format_validation_base@_WV?$stream_output_adapter@_W@__crt_stdio_output@@@2@@__crt_stdio_output@@AEBA_NI@Z 00000001800710c0 f i libucrtd:output.obj
 0001:00070100       ?has_flag@?$output_processor@_WV?$stream_output_adapter@_W@__crt_stdio_output@@V?$positional_parameter_base@_WV?$stream_output_adapter@_W@__crt_stdio_output@@@2@@__crt_stdio_output@@AEBA_NI@Z 0000000180071100 f i libucrtd:output.obj
 0001:00070140       ?has_flag@?$output_processor@_WV?$stream_output_adapter@_W@__crt_stdio_output@@V?$standard_base@_WV?$stream_output_adapter@_W@__crt_stdio_output@@@2@@__crt_stdio_output@@AEBA_NI@Z 0000000180071140 f i libucrtd:output.obj
 0001:00070180       ?has_flag@?$output_processor@_WV?$string_output_adapter@_W@__crt_stdio_output@@V?$format_validation_base@_WV?$string_output_adapter@_W@__crt_stdio_output@@@2@@__crt_stdio_output@@AEBA_NI@Z 0000000180071180 f i libucrtd:output.obj
 0001:000701c0       ?has_flag@?$output_processor@_WV?$string_output_adapter@_W@__crt_stdio_output@@V?$positional_parameter_base@_WV?$string_output_adapter@_W@__crt_stdio_output@@@2@@__crt_stdio_output@@AEBA_NI@Z 00000001800711c0 f i libucrtd:output.obj
 0001:00070200       ?has_flag@?$output_processor@_WV?$string_output_adapter@_W@__crt_stdio_output@@V?$standard_base@_WV?$string_output_adapter@_W@__crt_stdio_output@@@2@@__crt_stdio_output@@AEBA_NI@Z 0000000180071200 f i libucrtd:output.obj
 0001:00070240       ?is_positional_parameter_reappearance_consistent@?$positional_parameter_base@DV?$stream_output_adapter@D@__crt_stdio_output@@@__crt_stdio_output@@AEAA_NAEBUparameter_data@12@W4parameter_type@12@DW4length_modifier@2@@Z 0000000180071240 f i libucrtd:output.obj
 0001:000704a0       ?is_positional_parameter_reappearance_consistent@?$positional_parameter_base@DV?$string_output_adapter@D@__crt_stdio_output@@@__crt_stdio_output@@AEAA_NAEBUparameter_data@12@W4parameter_type@12@DW4length_modifier@2@@Z 00000001800714a0 f i libucrtd:output.obj
 0001:00070700       ?is_positional_parameter_reappearance_consistent@?$positional_parameter_base@_WV?$stream_output_adapter@_W@__crt_stdio_output@@@__crt_stdio_output@@AEAA_NAEBUparameter_data@12@W4parameter_type@12@_WW4length_modifier@2@@Z 0000000180071700 f i libucrtd:output.obj
 0001:00070960       ?is_positional_parameter_reappearance_consistent@?$positional_parameter_base@_WV?$string_output_adapter@_W@__crt_stdio_output@@@__crt_stdio_output@@AEAA_NAEBUparameter_data@12@W4parameter_type@12@_WW4length_modifier@2@@Z 0000000180071960 f i libucrtd:output.obj
 0001:00070bc0       ?is_string_backed@__crt_stdio_stream@@QEBA_NXZ 0000000180071bc0 f i libucrtd:output.obj
 0001:00070c00       ?maximum_signed_value@__crt_strtox@@YAJK@Z 0000000180071c00 f i libucrtd:output.obj
 0001:00070c10       ?minimum_signed_value@__crt_strtox@@YAJK@Z 0000000180071c10 f i libucrtd:output.obj
 0001:00070c20       ?narrow_null_string@?$output_processor@DV?$stream_output_adapter@D@__crt_stdio_output@@V?$format_validation_base@DV?$stream_output_adapter@D@__crt_stdio_output@@@2@@__crt_stdio_output@@CAPEADXZ 0000000180071c20 f i libucrtd:output.obj
 0001:00070c30       ?narrow_null_string@?$output_processor@DV?$stream_output_adapter@D@__crt_stdio_output@@V?$positional_parameter_base@DV?$stream_output_adapter@D@__crt_stdio_output@@@2@@__crt_stdio_output@@CAPEADXZ 0000000180071c30 f i libucrtd:output.obj
 0001:00070c40       ?narrow_null_string@?$output_processor@DV?$stream_output_adapter@D@__crt_stdio_output@@V?$standard_base@DV?$stream_output_adapter@D@__crt_stdio_output@@@2@@__crt_stdio_output@@CAPEADXZ 0000000180071c40 f i libucrtd:output.obj
 0001:00070c50       ?narrow_null_string@?$output_processor@DV?$string_output_adapter@D@__crt_stdio_output@@V?$format_validation_base@DV?$string_output_adapter@D@__crt_stdio_output@@@2@@__crt_stdio_output@@CAPEADXZ 0000000180071c50 f i libucrtd:output.obj
 0001:00070c60       ?narrow_null_string@?$output_processor@DV?$string_output_adapter@D@__crt_stdio_output@@V?$positional_parameter_base@DV?$string_output_adapter@D@__crt_stdio_output@@@2@@__crt_stdio_output@@CAPEADXZ 0000000180071c60 f i libucrtd:output.obj
 0001:00070c70       ?narrow_null_string@?$output_processor@DV?$string_output_adapter@D@__crt_stdio_output@@V?$standard_base@DV?$string_output_adapter@D@__crt_stdio_output@@@2@@__crt_stdio_output@@CAPEADXZ 0000000180071c70 f i libucrtd:output.obj
 0001:00070c80       ?narrow_null_string@?$output_processor@_WV?$stream_output_adapter@_W@__crt_stdio_output@@V?$format_validation_base@_WV?$stream_output_adapter@_W@__crt_stdio_output@@@2@@__crt_stdio_output@@CAPEADXZ 0000000180071c80 f i libucrtd:output.obj
 0001:00070c90       ?narrow_null_string@?$output_processor@_WV?$stream_output_adapter@_W@__crt_stdio_output@@V?$positional_parameter_base@_WV?$stream_output_adapter@_W@__crt_stdio_output@@@2@@__crt_stdio_output@@CAPEADXZ 0000000180071c90 f i libucrtd:output.obj
 0001:00070ca0       ?narrow_null_string@?$output_processor@_WV?$stream_output_adapter@_W@__crt_stdio_output@@V?$standard_base@_WV?$stream_output_adapter@_W@__crt_stdio_output@@@2@@__crt_stdio_output@@CAPEADXZ 0000000180071ca0 f i libucrtd:output.obj
 0001:00070cb0       ?narrow_null_string@?$output_processor@_WV?$string_output_adapter@_W@__crt_stdio_output@@V?$format_validation_base@_WV?$string_output_adapter@_W@__crt_stdio_output@@@2@@__crt_stdio_output@@CAPEADXZ 0000000180071cb0 f i libucrtd:output.obj
 0001:00070cc0       ?narrow_null_string@?$output_processor@_WV?$string_output_adapter@_W@__crt_stdio_output@@V?$positional_parameter_base@_WV?$string_output_adapter@_W@__crt_stdio_output@@@2@@__crt_stdio_output@@CAPEADXZ 0000000180071cc0 f i libucrtd:output.obj
 0001:00070cd0       ?narrow_null_string@?$output_processor@_WV?$string_output_adapter@_W@__crt_stdio_output@@V?$standard_base@_WV?$string_output_adapter@_W@__crt_stdio_output@@@2@@__crt_stdio_output@@CAPEADXZ 0000000180071cd0 f i libucrtd:output.obj
 0001:00070ce0       ?parse_digit@__crt_strtox@@YAID@Z 0000000180071ce0 f i libucrtd:output.obj
 0001:00070d50       ?parse_digit@__crt_strtox@@YAI_W@Z 0000000180071d50 f i libucrtd:output.obj
 0001:00070da0       ?parse_int_from_format_string@?$output_processor@DV?$stream_output_adapter@D@__crt_stdio_output@@V?$format_validation_base@DV?$stream_output_adapter@D@__crt_stdio_output@@@2@@__crt_stdio_output@@AEAA_NQEAH@Z 0000000180071da0 f i libucrtd:output.obj
 0001:00070ea0       ?parse_int_from_format_string@?$output_processor@DV?$stream_output_adapter@D@__crt_stdio_output@@V?$positional_parameter_base@DV?$stream_output_adapter@D@__crt_stdio_output@@@2@@__crt_stdio_output@@AEAA_NQEAH@Z 0000000180071ea0 f i libucrtd:output.obj
 0001:00070fa0       ?parse_int_from_format_string@?$output_processor@DV?$stream_output_adapter@D@__crt_stdio_output@@V?$standard_base@DV?$stream_output_adapter@D@__crt_stdio_output@@@2@@__crt_stdio_output@@AEAA_NQEAH@Z 0000000180071fa0 f i libucrtd:output.obj
 0001:000710a0       ?parse_int_from_format_string@?$output_processor@DV?$string_output_adapter@D@__crt_stdio_output@@V?$format_validation_base@DV?$string_output_adapter@D@__crt_stdio_output@@@2@@__crt_stdio_output@@AEAA_NQEAH@Z 00000001800720a0 f i libucrtd:output.obj
 0001:000711a0       ?parse_int_from_format_string@?$output_processor@DV?$string_output_adapter@D@__crt_stdio_output@@V?$positional_parameter_base@DV?$string_output_adapter@D@__crt_stdio_output@@@2@@__crt_stdio_output@@AEAA_NQEAH@Z 00000001800721a0 f i libucrtd:output.obj
 0001:000712a0       ?parse_int_from_format_string@?$output_processor@DV?$string_output_adapter@D@__crt_stdio_output@@V?$standard_base@DV?$string_output_adapter@D@__crt_stdio_output@@@2@@__crt_stdio_output@@AEAA_NQEAH@Z 00000001800722a0 f i libucrtd:output.obj
 0001:000713a0       ?parse_int_from_format_string@?$output_processor@_WV?$stream_output_adapter@_W@__crt_stdio_output@@V?$format_validation_base@_WV?$stream_output_adapter@_W@__crt_stdio_output@@@2@@__crt_stdio_output@@AEAA_NQEAH@Z 00000001800723a0 f i libucrtd:output.obj
 0001:000714a0       ?parse_int_from_format_string@?$output_processor@_WV?$stream_output_adapter@_W@__crt_stdio_output@@V?$positional_parameter_base@_WV?$stream_output_adapter@_W@__crt_stdio_output@@@2@@__crt_stdio_output@@AEAA_NQEAH@Z 00000001800724a0 f i libucrtd:output.obj
 0001:000715a0       ?parse_int_from_format_string@?$output_processor@_WV?$stream_output_adapter@_W@__crt_stdio_output@@V?$standard_base@_WV?$stream_output_adapter@_W@__crt_stdio_output@@@2@@__crt_stdio_output@@AEAA_NQEAH@Z 00000001800725a0 f i libucrtd:output.obj
 0001:000716a0       ?parse_int_from_format_string@?$output_processor@_WV?$string_output_adapter@_W@__crt_stdio_output@@V?$format_validation_base@_WV?$string_output_adapter@_W@__crt_stdio_output@@@2@@__crt_stdio_output@@AEAA_NQEAH@Z 00000001800726a0 f i libucrtd:output.obj
 0001:000717a0       ?parse_int_from_format_string@?$output_processor@_WV?$string_output_adapter@_W@__crt_stdio_output@@V?$positional_parameter_base@_WV?$string_output_adapter@_W@__crt_stdio_output@@@2@@__crt_stdio_output@@AEAA_NQEAH@Z 00000001800727a0 f i libucrtd:output.obj
 0001:000718a0       ?parse_int_from_format_string@?$output_processor@_WV?$string_output_adapter@_W@__crt_stdio_output@@V?$standard_base@_WV?$string_output_adapter@_W@__crt_stdio_output@@@2@@__crt_stdio_output@@AEAA_NQEAH@Z 00000001800728a0 f i libucrtd:output.obj
 0001:000719a0       ?process@?$output_processor@DV?$stream_output_adapter@D@__crt_stdio_output@@V?$format_validation_base@DV?$stream_output_adapter@D@__crt_stdio_output@@@2@@__crt_stdio_output@@QEAAHXZ 00000001800729a0 f i libucrtd:output.obj
 0001:00071d60       ?process@?$output_processor@DV?$stream_output_adapter@D@__crt_stdio_output@@V?$positional_parameter_base@DV?$stream_output_adapter@D@__crt_stdio_output@@@2@@__crt_stdio_output@@QEAAHXZ 0000000180072d60 f i libucrtd:output.obj
 0001:00072120       ?process@?$output_processor@DV?$stream_output_adapter@D@__crt_stdio_output@@V?$standard_base@DV?$stream_output_adapter@D@__crt_stdio_output@@@2@@__crt_stdio_output@@QEAAHXZ 0000000180073120 f i libucrtd:output.obj
 0001:000724e0       ?process@?$output_processor@DV?$string_output_adapter@D@__crt_stdio_output@@V?$format_validation_base@DV?$string_output_adapter@D@__crt_stdio_output@@@2@@__crt_stdio_output@@QEAAHXZ 00000001800734e0 f i libucrtd:output.obj
 0001:000728a0       ?process@?$output_processor@DV?$string_output_adapter@D@__crt_stdio_output@@V?$positional_parameter_base@DV?$string_output_adapter@D@__crt_stdio_output@@@2@@__crt_stdio_output@@QEAAHXZ 00000001800738a0 f i libucrtd:output.obj
 0001:00072c60       ?process@?$output_processor@DV?$string_output_adapter@D@__crt_stdio_output@@V?$standard_base@DV?$string_output_adapter@D@__crt_stdio_output@@@2@@__crt_stdio_output@@QEAAHXZ 0000000180073c60 f i libucrtd:output.obj
 0001:00073020       ?process@?$output_processor@_WV?$stream_output_adapter@_W@__crt_stdio_output@@V?$format_validation_base@_WV?$stream_output_adapter@_W@__crt_stdio_output@@@2@@__crt_stdio_output@@QEAAHXZ 0000000180074020 f i libucrtd:output.obj
 0001:000733e0       ?process@?$output_processor@_WV?$stream_output_adapter@_W@__crt_stdio_output@@V?$positional_parameter_base@_WV?$stream_output_adapter@_W@__crt_stdio_output@@@2@@__crt_stdio_output@@QEAAHXZ 00000001800743e0 f i libucrtd:output.obj
 0001:000737a0       ?process@?$output_processor@_WV?$stream_output_adapter@_W@__crt_stdio_output@@V?$standard_base@_WV?$stream_output_adapter@_W@__crt_stdio_output@@@2@@__crt_stdio_output@@QEAAHXZ 00000001800747a0 f i libucrtd:output.obj
 0001:00073b60       ?process@?$output_processor@_WV?$string_output_adapter@_W@__crt_stdio_output@@V?$format_validation_base@_WV?$string_output_adapter@_W@__crt_stdio_output@@@2@@__crt_stdio_output@@QEAAHXZ 0000000180074b60 f i libucrtd:output.obj
 0001:00073f20       ?process@?$output_processor@_WV?$string_output_adapter@_W@__crt_stdio_output@@V?$positional_parameter_base@_WV?$string_output_adapter@_W@__crt_stdio_output@@@2@@__crt_stdio_output@@QEAAHXZ 0000000180074f20 f i libucrtd:output.obj
 0001:000742e0       ?process@?$output_processor@_WV?$string_output_adapter@_W@__crt_stdio_output@@V?$standard_base@_WV?$string_output_adapter@_W@__crt_stdio_output@@@2@@__crt_stdio_output@@QEAAHXZ 00000001800752e0 f i libucrtd:output.obj
 0001:000746a0       ?public_stream@__crt_stdio_stream@@QEBAPEAU_iobuf@@XZ 00000001800756a0 f i libucrtd:output.obj
 0001:000746b0       ?restore_state@?$c_string_character_source@D@__crt_strtox@@QEAA_NQEBD@Z 00000001800756b0 f i libucrtd:output.obj
 0001:000746d0       ?restore_state@?$c_string_character_source@_W@__crt_strtox@@QEAA_NQEB_W@Z 00000001800756d0 f i libucrtd:output.obj
 0001:000746f0       ?save_state@?$c_string_character_source@D@__crt_strtox@@QEBAPEBDXZ 00000001800756f0 f i libucrtd:output.obj
 0001:00074700       ?save_state@?$c_string_character_source@_W@__crt_strtox@@QEBAPEB_WXZ 0000000180075700 f i libucrtd:output.obj
 0001:00074710       ?set@?$cached@H@__crt_cached_ptd_host@@QEAAHH@Z 0000000180075710 f i libucrtd:output.obj
 0001:00074740       ?set_flag@?$output_processor@DV?$stream_output_adapter@D@__crt_stdio_output@@V?$format_validation_base@DV?$stream_output_adapter@D@__crt_stdio_output@@@2@@__crt_stdio_output@@AEAAXI@Z 0000000180075740 f i libucrtd:output.obj
 0001:00074760       ?set_flag@?$output_processor@DV?$stream_output_adapter@D@__crt_stdio_output@@V?$positional_parameter_base@DV?$stream_output_adapter@D@__crt_stdio_output@@@2@@__crt_stdio_output@@AEAAXI@Z 0000000180075760 f i libucrtd:output.obj
 0001:00074780       ?set_flag@?$output_processor@DV?$stream_output_adapter@D@__crt_stdio_output@@V?$standard_base@DV?$stream_output_adapter@D@__crt_stdio_output@@@2@@__crt_stdio_output@@AEAAXI@Z 0000000180075780 f i libucrtd:output.obj
 0001:000747a0       ?set_flag@?$output_processor@DV?$string_output_adapter@D@__crt_stdio_output@@V?$format_validation_base@DV?$string_output_adapter@D@__crt_stdio_output@@@2@@__crt_stdio_output@@AEAAXI@Z 00000001800757a0 f i libucrtd:output.obj
 0001:000747c0       ?set_flag@?$output_processor@DV?$string_output_adapter@D@__crt_stdio_output@@V?$positional_parameter_base@DV?$string_output_adapter@D@__crt_stdio_output@@@2@@__crt_stdio_output@@AEAAXI@Z 00000001800757c0 f i libucrtd:output.obj
 0001:000747e0       ?set_flag@?$output_processor@DV?$string_output_adapter@D@__crt_stdio_output@@V?$standard_base@DV?$string_output_adapter@D@__crt_stdio_output@@@2@@__crt_stdio_output@@AEAAXI@Z 00000001800757e0 f i libucrtd:output.obj
 0001:00074800       ?set_flag@?$output_processor@_WV?$stream_output_adapter@_W@__crt_stdio_output@@V?$format_validation_base@_WV?$stream_output_adapter@_W@__crt_stdio_output@@@2@@__crt_stdio_output@@AEAAXI@Z 0000000180075800 f i libucrtd:output.obj
 0001:00074820       ?set_flag@?$output_processor@_WV?$stream_output_adapter@_W@__crt_stdio_output@@V?$positional_parameter_base@_WV?$stream_output_adapter@_W@__crt_stdio_output@@@2@@__crt_stdio_output@@AEAAXI@Z 0000000180075820 f i libucrtd:output.obj
 0001:00074840       ?set_flag@?$output_processor@_WV?$stream_output_adapter@_W@__crt_stdio_output@@V?$standard_base@_WV?$stream_output_adapter@_W@__crt_stdio_output@@@2@@__crt_stdio_output@@AEAAXI@Z 0000000180075840 f i libucrtd:output.obj
 0001:00074860       ?set_flag@?$output_processor@_WV?$string_output_adapter@_W@__crt_stdio_output@@V?$format_validation_base@_WV?$string_output_adapter@_W@__crt_stdio_output@@@2@@__crt_stdio_output@@AEAAXI@Z 0000000180075860 f i libucrtd:output.obj
 0001:00074880       ?set_flag@?$output_processor@_WV?$string_output_adapter@_W@__crt_stdio_output@@V?$positional_parameter_base@_WV?$string_output_adapter@_W@__crt_stdio_output@@@2@@__crt_stdio_output@@AEAAXI@Z 0000000180075880 f i libucrtd:output.obj
 0001:000748a0       ?set_flag@?$output_processor@_WV?$string_output_adapter@_W@__crt_stdio_output@@V?$standard_base@_WV?$string_output_adapter@_W@__crt_stdio_output@@@2@@__crt_stdio_output@@AEAAXI@Z 00000001800758a0 f i libucrtd:output.obj
 0001:000748c0       ?should_format@?$positional_parameter_base@DV?$stream_output_adapter@D@__crt_stdio_output@@@__crt_stdio_output@@IEAA_NXZ 00000001800758c0 f i libucrtd:output.obj
 0001:00074900       ?should_format@?$positional_parameter_base@DV?$string_output_adapter@D@__crt_stdio_output@@@__crt_stdio_output@@IEAA_NXZ 0000000180075900 f i libucrtd:output.obj
 0001:00074940       ?should_format@?$positional_parameter_base@_WV?$stream_output_adapter@_W@__crt_stdio_output@@@__crt_stdio_output@@IEAA_NXZ 0000000180075940 f i libucrtd:output.obj
 0001:00074980       ?should_format@?$positional_parameter_base@_WV?$string_output_adapter@_W@__crt_stdio_output@@@__crt_stdio_output@@IEAA_NXZ 0000000180075980 f i libucrtd:output.obj
 0001:000749c0       ?should_format@?$standard_base@DV?$stream_output_adapter@D@__crt_stdio_output@@@__crt_stdio_output@@IEAA_NXZ 00000001800759c0 f i libucrtd:output.obj
 0001:000749d0       ?should_format@?$standard_base@DV?$string_output_adapter@D@__crt_stdio_output@@@__crt_stdio_output@@IEAA_NXZ 00000001800759d0 f i libucrtd:output.obj
 0001:000749e0       ?should_format@?$standard_base@_WV?$stream_output_adapter@_W@__crt_stdio_output@@@__crt_stdio_output@@IEAA_NXZ 00000001800759e0 f i libucrtd:output.obj
 0001:000749f0       ?should_format@?$standard_base@_WV?$string_output_adapter@_W@__crt_stdio_output@@@__crt_stdio_output@@IEAA_NXZ 00000001800759f0 f i libucrtd:output.obj
 0001:00074a00       ?should_skip_normal_state_processing@?$positional_parameter_base@DV?$stream_output_adapter@D@__crt_stdio_output@@@__crt_stdio_output@@IEAA_NXZ 0000000180075a00 f i libucrtd:output.obj
 0001:00074a50       ?should_skip_normal_state_processing@?$positional_parameter_base@DV?$string_output_adapter@D@__crt_stdio_output@@@__crt_stdio_output@@IEAA_NXZ 0000000180075a50 f i libucrtd:output.obj
 0001:00074aa0       ?should_skip_normal_state_processing@?$positional_parameter_base@_WV?$stream_output_adapter@_W@__crt_stdio_output@@@__crt_stdio_output@@IEAA_NXZ 0000000180075aa0 f i libucrtd:output.obj
 0001:00074af0       ?should_skip_normal_state_processing@?$positional_parameter_base@_WV?$string_output_adapter@_W@__crt_stdio_output@@@__crt_stdio_output@@IEAA_NXZ 0000000180075af0 f i libucrtd:output.obj
 0001:00074b40       ?should_skip_normal_state_processing@?$standard_base@DV?$stream_output_adapter@D@__crt_stdio_output@@@__crt_stdio_output@@IEAA_NXZ 0000000180075b40 f i libucrtd:output.obj
 0001:00074b50       ?should_skip_normal_state_processing@?$standard_base@DV?$string_output_adapter@D@__crt_stdio_output@@@__crt_stdio_output@@IEAA_NXZ 0000000180075b50 f i libucrtd:output.obj
 0001:00074b60       ?should_skip_normal_state_processing@?$standard_base@_WV?$stream_output_adapter@_W@__crt_stdio_output@@@__crt_stdio_output@@IEAA_NXZ 0000000180075b60 f i libucrtd:output.obj
 0001:00074b70       ?should_skip_normal_state_processing@?$standard_base@_WV?$string_output_adapter@_W@__crt_stdio_output@@@__crt_stdio_output@@IEAA_NXZ 0000000180075b70 f i libucrtd:output.obj
 0001:00074b80       ?should_skip_type_state_output@?$positional_parameter_base@DV?$stream_output_adapter@D@__crt_stdio_output@@@__crt_stdio_output@@IEBA_NXZ 0000000180075b80 f i libucrtd:output.obj
 0001:00074bc0       ?should_skip_type_state_output@?$positional_parameter_base@DV?$string_output_adapter@D@__crt_stdio_output@@@__crt_stdio_output@@IEBA_NXZ 0000000180075bc0 f i libucrtd:output.obj
 0001:00074c00       ?should_skip_type_state_output@?$positional_parameter_base@_WV?$stream_output_adapter@_W@__crt_stdio_output@@@__crt_stdio_output@@IEBA_NXZ 0000000180075c00 f i libucrtd:output.obj
 0001:00074c40       ?should_skip_type_state_output@?$positional_parameter_base@_WV?$string_output_adapter@_W@__crt_stdio_output@@@__crt_stdio_output@@IEBA_NXZ 0000000180075c40 f i libucrtd:output.obj
 0001:00074c80       ?should_skip_type_state_output@?$standard_base@DV?$stream_output_adapter@D@__crt_stdio_output@@@__crt_stdio_output@@IEBA_NXZ 0000000180075c80 f i libucrtd:output.obj
 0001:00074c90       ?should_skip_type_state_output@?$standard_base@DV?$string_output_adapter@D@__crt_stdio_output@@@__crt_stdio_output@@IEBA_NXZ 0000000180075c90 f i libucrtd:output.obj
 0001:00074ca0       ?should_skip_type_state_output@?$standard_base@_WV?$stream_output_adapter@_W@__crt_stdio_output@@@__crt_stdio_output@@IEBA_NXZ 0000000180075ca0 f i libucrtd:output.obj
 0001:00074cb0       ?should_skip_type_state_output@?$standard_base@_WV?$string_output_adapter@_W@__crt_stdio_output@@@__crt_stdio_output@@IEBA_NXZ 0000000180075cb0 f i libucrtd:output.obj
 0001:00074cc0       ?state_case_dot@?$output_processor@DV?$stream_output_adapter@D@__crt_stdio_output@@V?$format_validation_base@DV?$stream_output_adapter@D@__crt_stdio_output@@@2@@__crt_stdio_output@@AEAA_NXZ 0000000180075cc0 f i libucrtd:output.obj
 0001:00074ce0       ?state_case_dot@?$output_processor@DV?$stream_output_adapter@D@__crt_stdio_output@@V?$positional_parameter_base@DV?$stream_output_adapter@D@__crt_stdio_output@@@2@@__crt_stdio_output@@AEAA_NXZ 0000000180075ce0 f i libucrtd:output.obj
 0001:00074d00       ?state_case_dot@?$output_processor@DV?$stream_output_adapter@D@__crt_stdio_output@@V?$standard_base@DV?$stream_output_adapter@D@__crt_stdio_output@@@2@@__crt_stdio_output@@AEAA_NXZ 0000000180075d00 f i libucrtd:output.obj
 0001:00074d20       ?state_case_dot@?$output_processor@DV?$string_output_adapter@D@__crt_stdio_output@@V?$format_validation_base@DV?$string_output_adapter@D@__crt_stdio_output@@@2@@__crt_stdio_output@@AEAA_NXZ 0000000180075d20 f i libucrtd:output.obj
 0001:00074d40       ?state_case_dot@?$output_processor@DV?$string_output_adapter@D@__crt_stdio_output@@V?$positional_parameter_base@DV?$string_output_adapter@D@__crt_stdio_output@@@2@@__crt_stdio_output@@AEAA_NXZ 0000000180075d40 f i libucrtd:output.obj
 0001:00074d60       ?state_case_dot@?$output_processor@DV?$string_output_adapter@D@__crt_stdio_output@@V?$standard_base@DV?$string_output_adapter@D@__crt_stdio_output@@@2@@__crt_stdio_output@@AEAA_NXZ 0000000180075d60 f i libucrtd:output.obj
 0001:00074d80       ?state_case_dot@?$output_processor@_WV?$stream_output_adapter@_W@__crt_stdio_output@@V?$format_validation_base@_WV?$stream_output_adapter@_W@__crt_stdio_output@@@2@@__crt_stdio_output@@AEAA_NXZ 0000000180075d80 f i libucrtd:output.obj
 0001:00074da0       ?state_case_dot@?$output_processor@_WV?$stream_output_adapter@_W@__crt_stdio_output@@V?$positional_parameter_base@_WV?$stream_output_adapter@_W@__crt_stdio_output@@@2@@__crt_stdio_output@@AEAA_NXZ 0000000180075da0 f i libucrtd:output.obj
 0001:00074dc0       ?state_case_dot@?$output_processor@_WV?$stream_output_adapter@_W@__crt_stdio_output@@V?$standard_base@_WV?$stream_output_adapter@_W@__crt_stdio_output@@@2@@__crt_stdio_output@@AEAA_NXZ 0000000180075dc0 f i libucrtd:output.obj
 0001:00074de0       ?state_case_dot@?$output_processor@_WV?$string_output_adapter@_W@__crt_stdio_output@@V?$format_validation_base@_WV?$string_output_adapter@_W@__crt_stdio_output@@@2@@__crt_stdio_output@@AEAA_NXZ 0000000180075de0 f i libucrtd:output.obj
 0001:00074e00       ?state_case_dot@?$output_processor@_WV?$string_output_adapter@_W@__crt_stdio_output@@V?$positional_parameter_base@_WV?$string_output_adapter@_W@__crt_stdio_output@@@2@@__crt_stdio_output@@AEAA_NXZ 0000000180075e00 f i libucrtd:output.obj
 0001:00074e20       ?state_case_dot@?$output_processor@_WV?$string_output_adapter@_W@__crt_stdio_output@@V?$standard_base@_WV?$string_output_adapter@_W@__crt_stdio_output@@@2@@__crt_stdio_output@@AEAA_NXZ 0000000180075e20 f i libucrtd:output.obj
 0001:00074e40       ?state_case_flag@?$output_processor@DV?$stream_output_adapter@D@__crt_stdio_output@@V?$format_validation_base@DV?$stream_output_adapter@D@__crt_stdio_output@@@2@@__crt_stdio_output@@AEAA_NXZ 0000000180075e40 f i libucrtd:output.obj
 0001:00074ee0       ?state_case_flag@?$output_processor@DV?$stream_output_adapter@D@__crt_stdio_output@@V?$positional_parameter_base@DV?$stream_output_adapter@D@__crt_stdio_output@@@2@@__crt_stdio_output@@AEAA_NXZ 0000000180075ee0 f i libucrtd:output.obj
 0001:00074f80       ?state_case_flag@?$output_processor@DV?$stream_output_adapter@D@__crt_stdio_output@@V?$standard_base@DV?$stream_output_adapter@D@__crt_stdio_output@@@2@@__crt_stdio_output@@AEAA_NXZ 0000000180075f80 f i libucrtd:output.obj
 0001:00075020       ?state_case_flag@?$output_processor@DV?$string_output_adapter@D@__crt_stdio_output@@V?$format_validation_base@DV?$string_output_adapter@D@__crt_stdio_output@@@2@@__crt_stdio_output@@AEAA_NXZ 0000000180076020 f i libucrtd:output.obj
 0001:000750c0       ?state_case_flag@?$output_processor@DV?$string_output_adapter@D@__crt_stdio_output@@V?$positional_parameter_base@DV?$string_output_adapter@D@__crt_stdio_output@@@2@@__crt_stdio_output@@AEAA_NXZ 00000001800760c0 f i libucrtd:output.obj
 0001:00075160       ?state_case_flag@?$output_processor@DV?$string_output_adapter@D@__crt_stdio_output@@V?$standard_base@DV?$string_output_adapter@D@__crt_stdio_output@@@2@@__crt_stdio_output@@AEAA_NXZ 0000000180076160 f i libucrtd:output.obj
 0001:00075200       ?state_case_flag@?$output_processor@_WV?$stream_output_adapter@_W@__crt_stdio_output@@V?$format_validation_base@_WV?$stream_output_adapter@_W@__crt_stdio_output@@@2@@__crt_stdio_output@@AEAA_NXZ 0000000180076200 f i libucrtd:output.obj
 0001:000752a0       ?state_case_flag@?$output_processor@_WV?$stream_output_adapter@_W@__crt_stdio_output@@V?$positional_parameter_base@_WV?$stream_output_adapter@_W@__crt_stdio_output@@@2@@__crt_stdio_output@@AEAA_NXZ 00000001800762a0 f i libucrtd:output.obj
 0001:00075340       ?state_case_flag@?$output_processor@_WV?$stream_output_adapter@_W@__crt_stdio_output@@V?$standard_base@_WV?$stream_output_adapter@_W@__crt_stdio_output@@@2@@__crt_stdio_output@@AEAA_NXZ 0000000180076340 f i libucrtd:output.obj
 0001:000753e0       ?state_case_flag@?$output_processor@_WV?$string_output_adapter@_W@__crt_stdio_output@@V?$format_validation_base@_WV?$string_output_adapter@_W@__crt_stdio_output@@@2@@__crt_stdio_output@@AEAA_NXZ 00000001800763e0 f i libucrtd:output.obj
 0001:00075480       ?state_case_flag@?$output_processor@_WV?$string_output_adapter@_W@__crt_stdio_output@@V?$positional_parameter_base@_WV?$string_output_adapter@_W@__crt_stdio_output@@@2@@__crt_stdio_output@@AEAA_NXZ 0000000180076480 f i libucrtd:output.obj
 0001:00075520       ?state_case_flag@?$output_processor@_WV?$string_output_adapter@_W@__crt_stdio_output@@V?$standard_base@_WV?$string_output_adapter@_W@__crt_stdio_output@@@2@@__crt_stdio_output@@AEAA_NXZ 0000000180076520 f i libucrtd:output.obj
 0001:000755c0       ?state_case_normal@?$output_processor@DV?$stream_output_adapter@D@__crt_stdio_output@@V?$format_validation_base@DV?$stream_output_adapter@D@__crt_stdio_output@@@2@@__crt_stdio_output@@AEAA_NXZ 00000001800765c0 f i libucrtd:output.obj
 0001:000756c0       ?state_case_normal@?$output_processor@DV?$stream_output_adapter@D@__crt_stdio_output@@V?$positional_parameter_base@DV?$stream_output_adapter@D@__crt_stdio_output@@@2@@__crt_stdio_output@@AEAA_NXZ 00000001800766c0 f i libucrtd:output.obj
 0001:000757c0       ?state_case_normal@?$output_processor@DV?$stream_output_adapter@D@__crt_stdio_output@@V?$standard_base@DV?$stream_output_adapter@D@__crt_stdio_output@@@2@@__crt_stdio_output@@AEAA_NXZ 00000001800767c0 f i libucrtd:output.obj
 0001:000758c0       ?state_case_normal@?$output_processor@DV?$string_output_adapter@D@__crt_stdio_output@@V?$format_validation_base@DV?$string_output_adapter@D@__crt_stdio_output@@@2@@__crt_stdio_output@@AEAA_NXZ 00000001800768c0 f i libucrtd:output.obj
 0001:000759c0       ?state_case_normal@?$output_processor@DV?$string_output_adapter@D@__crt_stdio_output@@V?$positional_parameter_base@DV?$string_output_adapter@D@__crt_stdio_output@@@2@@__crt_stdio_output@@AEAA_NXZ 00000001800769c0 f i libucrtd:output.obj
 0001:00075ac0       ?state_case_normal@?$output_processor@DV?$string_output_adapter@D@__crt_stdio_output@@V?$standard_base@DV?$string_output_adapter@D@__crt_stdio_output@@@2@@__crt_stdio_output@@AEAA_NXZ 0000000180076ac0 f i libucrtd:output.obj
 0001:00075bc0       ?state_case_normal@?$output_processor@_WV?$stream_output_adapter@_W@__crt_stdio_output@@V?$format_validation_base@_WV?$stream_output_adapter@_W@__crt_stdio_output@@@2@@__crt_stdio_output@@AEAA_NXZ 0000000180076bc0 f i libucrtd:output.obj
 0001:00075cc0       ?state_case_normal@?$output_processor@_WV?$stream_output_adapter@_W@__crt_stdio_output@@V?$positional_parameter_base@_WV?$stream_output_adapter@_W@__crt_stdio_output@@@2@@__crt_stdio_output@@AEAA_NXZ 0000000180076cc0 f i libucrtd:output.obj
 0001:00075dc0       ?state_case_normal@?$output_processor@_WV?$stream_output_adapter@_W@__crt_stdio_output@@V?$standard_base@_WV?$stream_output_adapter@_W@__crt_stdio_output@@@2@@__crt_stdio_output@@AEAA_NXZ 0000000180076dc0 f i libucrtd:output.obj
 0001:00075ec0       ?state_case_normal@?$output_processor@_WV?$string_output_adapter@_W@__crt_stdio_output@@V?$format_validation_base@_WV?$string_output_adapter@_W@__crt_stdio_output@@@2@@__crt_stdio_output@@AEAA_NXZ 0000000180076ec0 f i libucrtd:output.obj
 0001:00075fc0       ?state_case_normal@?$output_processor@_WV?$string_output_adapter@_W@__crt_stdio_output@@V?$positional_parameter_base@_WV?$string_output_adapter@_W@__crt_stdio_output@@@2@@__crt_stdio_output@@AEAA_NXZ 0000000180076fc0 f i libucrtd:output.obj
 0001:000760c0       ?state_case_normal@?$output_processor@_WV?$string_output_adapter@_W@__crt_stdio_output@@V?$standard_base@_WV?$string_output_adapter@_W@__crt_stdio_output@@@2@@__crt_stdio_output@@AEAA_NXZ 00000001800770c0 f i libucrtd:output.obj
 0001:000761c0       ?state_case_normal_common@?$output_processor@DV?$stream_output_adapter@D@__crt_stdio_output@@V?$format_validation_base@DV?$stream_output_adapter@D@__crt_stdio_output@@@2@@__crt_stdio_output@@AEAA_NXZ 00000001800771c0 f i libucrtd:output.obj
 0001:00076220       ?state_case_normal_common@?$output_processor@DV?$stream_output_adapter@D@__crt_stdio_output@@V?$positional_parameter_base@DV?$stream_output_adapter@D@__crt_stdio_output@@@2@@__crt_stdio_output@@AEAA_NXZ 0000000180077220 f i libucrtd:output.obj
 0001:00076280       ?state_case_normal_common@?$output_processor@DV?$stream_output_adapter@D@__crt_stdio_output@@V?$standard_base@DV?$stream_output_adapter@D@__crt_stdio_output@@@2@@__crt_stdio_output@@AEAA_NXZ 0000000180077280 f i libucrtd:output.obj
 0001:000762e0       ?state_case_normal_common@?$output_processor@DV?$string_output_adapter@D@__crt_stdio_output@@V?$format_validation_base@DV?$string_output_adapter@D@__crt_stdio_output@@@2@@__crt_stdio_output@@AEAA_NXZ 00000001800772e0 f i libucrtd:output.obj
 0001:00076340       ?state_case_normal_common@?$output_processor@DV?$string_output_adapter@D@__crt_stdio_output@@V?$positional_parameter_base@DV?$string_output_adapter@D@__crt_stdio_output@@@2@@__crt_stdio_output@@AEAA_NXZ 0000000180077340 f i libucrtd:output.obj
 0001:000763a0       ?state_case_normal_common@?$output_processor@DV?$string_output_adapter@D@__crt_stdio_output@@V?$standard_base@DV?$string_output_adapter@D@__crt_stdio_output@@@2@@__crt_stdio_output@@AEAA_NXZ 00000001800773a0 f i libucrtd:output.obj
 0001:00076400       ?state_case_normal_common@?$output_processor@_WV?$stream_output_adapter@_W@__crt_stdio_output@@V?$format_validation_base@_WV?$stream_output_adapter@_W@__crt_stdio_output@@@2@@__crt_stdio_output@@AEAA_NXZ 0000000180077400 f i libucrtd:output.obj
 0001:00076460       ?state_case_normal_common@?$output_processor@_WV?$stream_output_adapter@_W@__crt_stdio_output@@V?$positional_parameter_base@_WV?$stream_output_adapter@_W@__crt_stdio_output@@@2@@__crt_stdio_output@@AEAA_NXZ 0000000180077460 f i libucrtd:output.obj
 0001:000764c0       ?state_case_normal_common@?$output_processor@_WV?$stream_output_adapter@_W@__crt_stdio_output@@V?$standard_base@_WV?$stream_output_adapter@_W@__crt_stdio_output@@@2@@__crt_stdio_output@@AEAA_NXZ 00000001800774c0 f i libucrtd:output.obj
 0001:00076520       ?state_case_normal_common@?$output_processor@_WV?$string_output_adapter@_W@__crt_stdio_output@@V?$format_validation_base@_WV?$string_output_adapter@_W@__crt_stdio_output@@@2@@__crt_stdio_output@@AEAA_NXZ 0000000180077520 f i libucrtd:output.obj
 0001:00076580       ?state_case_normal_common@?$output_processor@_WV?$string_output_adapter@_W@__crt_stdio_output@@V?$positional_parameter_base@_WV?$string_output_adapter@_W@__crt_stdio_output@@@2@@__crt_stdio_output@@AEAA_NXZ 0000000180077580 f i libucrtd:output.obj
 0001:000765e0       ?state_case_normal_common@?$output_processor@_WV?$string_output_adapter@_W@__crt_stdio_output@@V?$standard_base@_WV?$string_output_adapter@_W@__crt_stdio_output@@@2@@__crt_stdio_output@@AEAA_NXZ 00000001800775e0 f i libucrtd:output.obj
 0001:00076640       ?state_case_normal_tchar@?$output_processor@DV?$stream_output_adapter@D@__crt_stdio_output@@V?$format_validation_base@DV?$stream_output_adapter@D@__crt_stdio_output@@@2@@__crt_stdio_output@@AEAA_ND@Z 0000000180077640 f i libucrtd:output.obj
 0001:000767d0       ?state_case_normal_tchar@?$output_processor@DV?$stream_output_adapter@D@__crt_stdio_output@@V?$positional_parameter_base@DV?$stream_output_adapter@D@__crt_stdio_output@@@2@@__crt_stdio_output@@AEAA_ND@Z 00000001800777d0 f i libucrtd:output.obj
 0001:00076960       ?state_case_normal_tchar@?$output_processor@DV?$stream_output_adapter@D@__crt_stdio_output@@V?$standard_base@DV?$stream_output_adapter@D@__crt_stdio_output@@@2@@__crt_stdio_output@@AEAA_ND@Z 0000000180077960 f i libucrtd:output.obj
 0001:00076af0       ?state_case_normal_tchar@?$output_processor@DV?$string_output_adapter@D@__crt_stdio_output@@V?$format_validation_base@DV?$string_output_adapter@D@__crt_stdio_output@@@2@@__crt_stdio_output@@AEAA_ND@Z 0000000180077af0 f i libucrtd:output.obj
 0001:00076c80       ?state_case_normal_tchar@?$output_processor@DV?$string_output_adapter@D@__crt_stdio_output@@V?$positional_parameter_base@DV?$string_output_adapter@D@__crt_stdio_output@@@2@@__crt_stdio_output@@AEAA_ND@Z 0000000180077c80 f i libucrtd:output.obj
 0001:00076e10       ?state_case_normal_tchar@?$output_processor@DV?$string_output_adapter@D@__crt_stdio_output@@V?$standard_base@DV?$string_output_adapter@D@__crt_stdio_output@@@2@@__crt_stdio_output@@AEAA_ND@Z 0000000180077e10 f i libucrtd:output.obj
 0001:00076fa0       ?state_case_normal_tchar@?$output_processor@_WV?$stream_output_adapter@_W@__crt_stdio_output@@V?$format_validation_base@_WV?$stream_output_adapter@_W@__crt_stdio_output@@@2@@__crt_stdio_output@@AEAA_N_W@Z 0000000180077fa0 f i libucrtd:output.obj
 0001:00076fc0       ?state_case_normal_tchar@?$output_processor@_WV?$stream_output_adapter@_W@__crt_stdio_output@@V?$positional_parameter_base@_WV?$stream_output_adapter@_W@__crt_stdio_output@@@2@@__crt_stdio_output@@AEAA_N_W@Z 0000000180077fc0 f i libucrtd:output.obj
 0001:00076fe0       ?state_case_normal_tchar@?$output_processor@_WV?$stream_output_adapter@_W@__crt_stdio_output@@V?$standard_base@_WV?$stream_output_adapter@_W@__crt_stdio_output@@@2@@__crt_stdio_output@@AEAA_N_W@Z 0000000180077fe0 f i libucrtd:output.obj
 0001:00077000       ?state_case_normal_tchar@?$output_processor@_WV?$string_output_adapter@_W@__crt_stdio_output@@V?$format_validation_base@_WV?$string_output_adapter@_W@__crt_stdio_output@@@2@@__crt_stdio_output@@AEAA_N_W@Z 0000000180078000 f i libucrtd:output.obj
 0001:00077020       ?state_case_normal_tchar@?$output_processor@_WV?$string_output_adapter@_W@__crt_stdio_output@@V?$positional_parameter_base@_WV?$string_output_adapter@_W@__crt_stdio_output@@@2@@__crt_stdio_output@@AEAA_N_W@Z 0000000180078020 f i libucrtd:output.obj
 0001:00077040       ?state_case_normal_tchar@?$output_processor@_WV?$string_output_adapter@_W@__crt_stdio_output@@V?$standard_base@_WV?$string_output_adapter@_W@__crt_stdio_output@@@2@@__crt_stdio_output@@AEAA_N_W@Z 0000000180078040 f i libucrtd:output.obj
 0001:00077060       ?state_case_percent@?$output_processor@DV?$stream_output_adapter@D@__crt_stdio_output@@V?$format_validation_base@DV?$stream_output_adapter@D@__crt_stdio_output@@@2@@__crt_stdio_output@@AEAA_NXZ 0000000180078060 f i libucrtd:output.obj
 0001:000770b0       ?state_case_percent@?$output_processor@DV?$stream_output_adapter@D@__crt_stdio_output@@V?$positional_parameter_base@DV?$stream_output_adapter@D@__crt_stdio_output@@@2@@__crt_stdio_output@@AEAA_NXZ 00000001800780b0 f i libucrtd:output.obj
 0001:00077100       ?state_case_percent@?$output_processor@DV?$stream_output_adapter@D@__crt_stdio_output@@V?$standard_base@DV?$stream_output_adapter@D@__crt_stdio_output@@@2@@__crt_stdio_output@@AEAA_NXZ 0000000180078100 f i libucrtd:output.obj
 0001:00077150       ?state_case_percent@?$output_processor@DV?$string_output_adapter@D@__crt_stdio_output@@V?$format_validation_base@DV?$string_output_adapter@D@__crt_stdio_output@@@2@@__crt_stdio_output@@AEAA_NXZ 0000000180078150 f i libucrtd:output.obj
 0001:000771a0       ?state_case_percent@?$output_processor@DV?$string_output_adapter@D@__crt_stdio_output@@V?$positional_parameter_base@DV?$string_output_adapter@D@__crt_stdio_output@@@2@@__crt_stdio_output@@AEAA_NXZ 00000001800781a0 f i libucrtd:output.obj
 0001:000771f0       ?state_case_percent@?$output_processor@DV?$string_output_adapter@D@__crt_stdio_output@@V?$standard_base@DV?$string_output_adapter@D@__crt_stdio_output@@@2@@__crt_stdio_output@@AEAA_NXZ 00000001800781f0 f i libucrtd:output.obj
 0001:00077240       ?state_case_percent@?$output_processor@_WV?$stream_output_adapter@_W@__crt_stdio_output@@V?$format_validation_base@_WV?$stream_output_adapter@_W@__crt_stdio_output@@@2@@__crt_stdio_output@@AEAA_NXZ 0000000180078240 f i libucrtd:output.obj
 0001:00077290       ?state_case_percent@?$output_processor@_WV?$stream_output_adapter@_W@__crt_stdio_output@@V?$positional_parameter_base@_WV?$stream_output_adapter@_W@__crt_stdio_output@@@2@@__crt_stdio_output@@AEAA_NXZ 0000000180078290 f i libucrtd:output.obj
 0001:000772e0       ?state_case_percent@?$output_processor@_WV?$stream_output_adapter@_W@__crt_stdio_output@@V?$standard_base@_WV?$stream_output_adapter@_W@__crt_stdio_output@@@2@@__crt_stdio_output@@AEAA_NXZ 00000001800782e0 f i libucrtd:output.obj
 0001:00077330       ?state_case_percent@?$output_processor@_WV?$string_output_adapter@_W@__crt_stdio_output@@V?$format_validation_base@_WV?$string_output_adapter@_W@__crt_stdio_output@@@2@@__crt_stdio_output@@AEAA_NXZ 0000000180078330 f i libucrtd:output.obj
 0001:00077380       ?state_case_percent@?$output_processor@_WV?$string_output_adapter@_W@__crt_stdio_output@@V?$positional_parameter_base@_WV?$string_output_adapter@_W@__crt_stdio_output@@@2@@__crt_stdio_output@@AEAA_NXZ 0000000180078380 f i libucrtd:output.obj
 0001:000773d0       ?state_case_percent@?$output_processor@_WV?$string_output_adapter@_W@__crt_stdio_output@@V?$standard_base@_WV?$string_output_adapter@_W@__crt_stdio_output@@@2@@__crt_stdio_output@@AEAA_NXZ 00000001800783d0 f i libucrtd:output.obj
 0001:00077420       ?state_case_precision@?$output_processor@DV?$stream_output_adapter@D@__crt_stdio_output@@V?$format_validation_base@DV?$stream_output_adapter@D@__crt_stdio_output@@@2@@__crt_stdio_output@@AEAA_NXZ 0000000180078420 f i libucrtd:output.obj
 0001:000774a0       ?state_case_precision@?$output_processor@DV?$stream_output_adapter@D@__crt_stdio_output@@V?$positional_parameter_base@DV?$stream_output_adapter@D@__crt_stdio_output@@@2@@__crt_stdio_output@@AEAA_NXZ 00000001800784a0 f i libucrtd:output.obj
 0001:00077520       ?state_case_precision@?$output_processor@DV?$stream_output_adapter@D@__crt_stdio_output@@V?$standard_base@DV?$stream_output_adapter@D@__crt_stdio_output@@@2@@__crt_stdio_output@@AEAA_NXZ 0000000180078520 f i libucrtd:output.obj
 0001:000775a0       ?state_case_precision@?$output_processor@DV?$string_output_adapter@D@__crt_stdio_output@@V?$format_validation_base@DV?$string_output_adapter@D@__crt_stdio_output@@@2@@__crt_stdio_output@@AEAA_NXZ 00000001800785a0 f i libucrtd:output.obj
 0001:00077620       ?state_case_precision@?$output_processor@DV?$string_output_adapter@D@__crt_stdio_output@@V?$positional_parameter_base@DV?$string_output_adapter@D@__crt_stdio_output@@@2@@__crt_stdio_output@@AEAA_NXZ 0000000180078620 f i libucrtd:output.obj
 0001:000776a0       ?state_case_precision@?$output_processor@DV?$string_output_adapter@D@__crt_stdio_output@@V?$standard_base@DV?$string_output_adapter@D@__crt_stdio_output@@@2@@__crt_stdio_output@@AEAA_NXZ 00000001800786a0 f i libucrtd:output.obj
 0001:00077720       ?state_case_precision@?$output_processor@_WV?$stream_output_adapter@_W@__crt_stdio_output@@V?$format_validation_base@_WV?$stream_output_adapter@_W@__crt_stdio_output@@@2@@__crt_stdio_output@@AEAA_NXZ 0000000180078720 f i libucrtd:output.obj
 0001:000777a0       ?state_case_precision@?$output_processor@_WV?$stream_output_adapter@_W@__crt_stdio_output@@V?$positional_parameter_base@_WV?$stream_output_adapter@_W@__crt_stdio_output@@@2@@__crt_stdio_output@@AEAA_NXZ 00000001800787a0 f i libucrtd:output.obj
 0001:00077820       ?state_case_precision@?$output_processor@_WV?$stream_output_adapter@_W@__crt_stdio_output@@V?$standard_base@_WV?$stream_output_adapter@_W@__crt_stdio_output@@@2@@__crt_stdio_output@@AEAA_NXZ 0000000180078820 f i libucrtd:output.obj
 0001:000778a0       ?state_case_precision@?$output_processor@_WV?$string_output_adapter@_W@__crt_stdio_output@@V?$format_validation_base@_WV?$string_output_adapter@_W@__crt_stdio_output@@@2@@__crt_stdio_output@@AEAA_NXZ 00000001800788a0 f i libucrtd:output.obj
 0001:00077920       ?state_case_precision@?$output_processor@_WV?$string_output_adapter@_W@__crt_stdio_output@@V?$positional_parameter_base@_WV?$string_output_adapter@_W@__crt_stdio_output@@@2@@__crt_stdio_output@@AEAA_NXZ 0000000180078920 f i libucrtd:output.obj
 0001:000779a0       ?state_case_precision@?$output_processor@_WV?$string_output_adapter@_W@__crt_stdio_output@@V?$standard_base@_WV?$string_output_adapter@_W@__crt_stdio_output@@@2@@__crt_stdio_output@@AEAA_NXZ 00000001800789a0 f i libucrtd:output.obj
 0001:00077a20       ?state_case_size@?$output_processor@DV?$stream_output_adapter@D@__crt_stdio_output@@V?$format_validation_base@DV?$stream_output_adapter@D@__crt_stdio_output@@@2@@__crt_stdio_output@@AEAA_NXZ 0000000180078a20 f i libucrtd:output.obj
 0001:00077ee0       ?state_case_size@?$output_processor@DV?$stream_output_adapter@D@__crt_stdio_output@@V?$positional_parameter_base@DV?$stream_output_adapter@D@__crt_stdio_output@@@2@@__crt_stdio_output@@AEAA_NXZ 0000000180078ee0 f i libucrtd:output.obj
 0001:000783a0       ?state_case_size@?$output_processor@DV?$stream_output_adapter@D@__crt_stdio_output@@V?$standard_base@DV?$stream_output_adapter@D@__crt_stdio_output@@@2@@__crt_stdio_output@@AEAA_NXZ 00000001800793a0 f i libucrtd:output.obj
 0001:00078860       ?state_case_size@?$output_processor@DV?$string_output_adapter@D@__crt_stdio_output@@V?$format_validation_base@DV?$string_output_adapter@D@__crt_stdio_output@@@2@@__crt_stdio_output@@AEAA_NXZ 0000000180079860 f i libucrtd:output.obj
 0001:00078d20       ?state_case_size@?$output_processor@DV?$string_output_adapter@D@__crt_stdio_output@@V?$positional_parameter_base@DV?$string_output_adapter@D@__crt_stdio_output@@@2@@__crt_stdio_output@@AEAA_NXZ 0000000180079d20 f i libucrtd:output.obj
 0001:000791e0       ?state_case_size@?$output_processor@DV?$string_output_adapter@D@__crt_stdio_output@@V?$standard_base@DV?$string_output_adapter@D@__crt_stdio_output@@@2@@__crt_stdio_output@@AEAA_NXZ 000000018007a1e0 f i libucrtd:output.obj
 0001:000796a0       ?state_case_size@?$output_processor@_WV?$stream_output_adapter@_W@__crt_stdio_output@@V?$format_validation_base@_WV?$stream_output_adapter@_W@__crt_stdio_output@@@2@@__crt_stdio_output@@AEAA_NXZ 000000018007a6a0 f i libucrtd:output.obj
 0001:00079b60       ?state_case_size@?$output_processor@_WV?$stream_output_adapter@_W@__crt_stdio_output@@V?$positional_parameter_base@_WV?$stream_output_adapter@_W@__crt_stdio_output@@@2@@__crt_stdio_output@@AEAA_NXZ 000000018007ab60 f i libucrtd:output.obj
 0001:0007a020       ?state_case_size@?$output_processor@_WV?$stream_output_adapter@_W@__crt_stdio_output@@V?$standard_base@_WV?$stream_output_adapter@_W@__crt_stdio_output@@@2@@__crt_stdio_output@@AEAA_NXZ 000000018007b020 f i libucrtd:output.obj
 0001:0007a4e0       ?state_case_size@?$output_processor@_WV?$string_output_adapter@_W@__crt_stdio_output@@V?$format_validation_base@_WV?$string_output_adapter@_W@__crt_stdio_output@@@2@@__crt_stdio_output@@AEAA_NXZ 000000018007b4e0 f i libucrtd:output.obj
 0001:0007a9a0       ?state_case_size@?$output_processor@_WV?$string_output_adapter@_W@__crt_stdio_output@@V?$positional_parameter_base@_WV?$string_output_adapter@_W@__crt_stdio_output@@@2@@__crt_stdio_output@@AEAA_NXZ 000000018007b9a0 f i libucrtd:output.obj
 0001:0007ae60       ?state_case_size@?$output_processor@_WV?$string_output_adapter@_W@__crt_stdio_output@@V?$standard_base@_WV?$string_output_adapter@_W@__crt_stdio_output@@@2@@__crt_stdio_output@@AEAA_NXZ 000000018007be60 f i libucrtd:output.obj
 0001:0007b320       ?state_case_type@?$output_processor@DV?$stream_output_adapter@D@__crt_stdio_output@@V?$format_validation_base@DV?$stream_output_adapter@D@__crt_stdio_output@@@2@@__crt_stdio_output@@AEAA_NXZ 000000018007c320 f i libucrtd:output.obj
 0001:0007b7e0       ?state_case_type@?$output_processor@DV?$stream_output_adapter@D@__crt_stdio_output@@V?$positional_parameter_base@DV?$stream_output_adapter@D@__crt_stdio_output@@@2@@__crt_stdio_output@@AEAA_NXZ 000000018007c7e0 f i libucrtd:output.obj
 0001:0007bca0       ?state_case_type@?$output_processor@DV?$stream_output_adapter@D@__crt_stdio_output@@V?$standard_base@DV?$stream_output_adapter@D@__crt_stdio_output@@@2@@__crt_stdio_output@@AEAA_NXZ 000000018007cca0 f i libucrtd:output.obj
 0001:0007c160       ?state_case_type@?$output_processor@DV?$string_output_adapter@D@__crt_stdio_output@@V?$format_validation_base@DV?$string_output_adapter@D@__crt_stdio_output@@@2@@__crt_stdio_output@@AEAA_NXZ 000000018007d160 f i libucrtd:output.obj
 0001:0007c620       ?state_case_type@?$output_processor@DV?$string_output_adapter@D@__crt_stdio_output@@V?$positional_parameter_base@DV?$string_output_adapter@D@__crt_stdio_output@@@2@@__crt_stdio_output@@AEAA_NXZ 000000018007d620 f i libucrtd:output.obj
 0001:0007cae0       ?state_case_type@?$output_processor@DV?$string_output_adapter@D@__crt_stdio_output@@V?$standard_base@DV?$string_output_adapter@D@__crt_stdio_output@@@2@@__crt_stdio_output@@AEAA_NXZ 000000018007dae0 f i libucrtd:output.obj
 0001:0007cfa0       ?state_case_type@?$output_processor@_WV?$stream_output_adapter@_W@__crt_stdio_output@@V?$format_validation_base@_WV?$stream_output_adapter@_W@__crt_stdio_output@@@2@@__crt_stdio_output@@AEAA_NXZ 000000018007dfa0 f i libucrtd:output.obj
 0001:0007d530       ?state_case_type@?$output_processor@_WV?$stream_output_adapter@_W@__crt_stdio_output@@V?$positional_parameter_base@_WV?$stream_output_adapter@_W@__crt_stdio_output@@@2@@__crt_stdio_output@@AEAA_NXZ 000000018007e530 f i libucrtd:output.obj
 0001:0007dac0       ?state_case_type@?$output_processor@_WV?$stream_output_adapter@_W@__crt_stdio_output@@V?$standard_base@_WV?$stream_output_adapter@_W@__crt_stdio_output@@@2@@__crt_stdio_output@@AEAA_NXZ 000000018007eac0 f i libucrtd:output.obj
 0001:0007e050       ?state_case_type@?$output_processor@_WV?$string_output_adapter@_W@__crt_stdio_output@@V?$format_validation_base@_WV?$string_output_adapter@_W@__crt_stdio_output@@@2@@__crt_stdio_output@@AEAA_NXZ 000000018007f050 f i libucrtd:output.obj
 0001:0007e5e0       ?state_case_type@?$output_processor@_WV?$string_output_adapter@_W@__crt_stdio_output@@V?$positional_parameter_base@_WV?$string_output_adapter@_W@__crt_stdio_output@@@2@@__crt_stdio_output@@AEAA_NXZ 000000018007f5e0 f i libucrtd:output.obj
 0001:0007eb70       ?state_case_type@?$output_processor@_WV?$string_output_adapter@_W@__crt_stdio_output@@V?$standard_base@_WV?$string_output_adapter@_W@__crt_stdio_output@@@2@@__crt_stdio_output@@AEAA_NXZ 000000018007fb70 f i libucrtd:output.obj
 0001:0007f100       ?state_case_width@?$output_processor@DV?$stream_output_adapter@D@__crt_stdio_output@@V?$format_validation_base@DV?$stream_output_adapter@D@__crt_stdio_output@@@2@@__crt_stdio_output@@AEAA_NXZ 0000000180080100 f i libucrtd:output.obj
 0001:0007f190       ?state_case_width@?$output_processor@DV?$stream_output_adapter@D@__crt_stdio_output@@V?$positional_parameter_base@DV?$stream_output_adapter@D@__crt_stdio_output@@@2@@__crt_stdio_output@@AEAA_NXZ 0000000180080190 f i libucrtd:output.obj
 0001:0007f220       ?state_case_width@?$output_processor@DV?$stream_output_adapter@D@__crt_stdio_output@@V?$standard_base@DV?$stream_output_adapter@D@__crt_stdio_output@@@2@@__crt_stdio_output@@AEAA_NXZ 0000000180080220 f i libucrtd:output.obj
 0001:0007f2b0       ?state_case_width@?$output_processor@DV?$string_output_adapter@D@__crt_stdio_output@@V?$format_validation_base@DV?$string_output_adapter@D@__crt_stdio_output@@@2@@__crt_stdio_output@@AEAA_NXZ 00000001800802b0 f i libucrtd:output.obj
 0001:0007f340       ?state_case_width@?$output_processor@DV?$string_output_adapter@D@__crt_stdio_output@@V?$positional_parameter_base@DV?$string_output_adapter@D@__crt_stdio_output@@@2@@__crt_stdio_output@@AEAA_NXZ 0000000180080340 f i libucrtd:output.obj
 0001:0007f3d0       ?state_case_width@?$output_processor@DV?$string_output_adapter@D@__crt_stdio_output@@V?$standard_base@DV?$string_output_adapter@D@__crt_stdio_output@@@2@@__crt_stdio_output@@AEAA_NXZ 00000001800803d0 f i libucrtd:output.obj
 0001:0007f460       ?state_case_width@?$output_processor@_WV?$stream_output_adapter@_W@__crt_stdio_output@@V?$format_validation_base@_WV?$stream_output_adapter@_W@__crt_stdio_output@@@2@@__crt_stdio_output@@AEAA_NXZ 0000000180080460 f i libucrtd:output.obj
 0001:0007f4f0       ?state_case_width@?$output_processor@_WV?$stream_output_adapter@_W@__crt_stdio_output@@V?$positional_parameter_base@_WV?$stream_output_adapter@_W@__crt_stdio_output@@@2@@__crt_stdio_output@@AEAA_NXZ 00000001800804f0 f i libucrtd:output.obj
 0001:0007f580       ?state_case_width@?$output_processor@_WV?$stream_output_adapter@_W@__crt_stdio_output@@V?$standard_base@_WV?$stream_output_adapter@_W@__crt_stdio_output@@@2@@__crt_stdio_output@@AEAA_NXZ 0000000180080580 f i libucrtd:output.obj
 0001:0007f610       ?state_case_width@?$output_processor@_WV?$string_output_adapter@_W@__crt_stdio_output@@V?$format_validation_base@_WV?$string_output_adapter@_W@__crt_stdio_output@@@2@@__crt_stdio_output@@AEAA_NXZ 0000000180080610 f i libucrtd:output.obj
 0001:0007f6a0       ?state_case_width@?$output_processor@_WV?$string_output_adapter@_W@__crt_stdio_output@@V?$positional_parameter_base@_WV?$string_output_adapter@_W@__crt_stdio_output@@@2@@__crt_stdio_output@@AEAA_NXZ 00000001800806a0 f i libucrtd:output.obj
 0001:0007f730       ?state_case_width@?$output_processor@_WV?$string_output_adapter@_W@__crt_stdio_output@@V?$standard_base@_WV?$string_output_adapter@_W@__crt_stdio_output@@@2@@__crt_stdio_output@@AEAA_NXZ 0000000180080730 f i libucrtd:output.obj
 0001:0007f7c0       ?state_count@?$format_validation_base@DV?$stream_output_adapter@D@__crt_stdio_output@@@__crt_stdio_output@@KAIXZ 00000001800807c0 f i libucrtd:output.obj
 0001:0007f7d0       ?state_count@?$format_validation_base@DV?$string_output_adapter@D@__crt_stdio_output@@@__crt_stdio_output@@KAIXZ 00000001800807d0 f i libucrtd:output.obj
 0001:0007f7e0       ?state_count@?$format_validation_base@_WV?$stream_output_adapter@_W@__crt_stdio_output@@@__crt_stdio_output@@KAIXZ 00000001800807e0 f i libucrtd:output.obj
 0001:0007f7f0       ?state_count@?$format_validation_base@_WV?$string_output_adapter@_W@__crt_stdio_output@@@__crt_stdio_output@@KAIXZ 00000001800807f0 f i libucrtd:output.obj
 0001:0007f800       ?state_count@?$standard_base@DV?$stream_output_adapter@D@__crt_stdio_output@@@__crt_stdio_output@@KAIXZ 0000000180080800 f i libucrtd:output.obj
 0001:0007f810       ?state_count@?$standard_base@DV?$string_output_adapter@D@__crt_stdio_output@@@__crt_stdio_output@@KAIXZ 0000000180080810 f i libucrtd:output.obj
 0001:0007f820       ?state_count@?$standard_base@_WV?$stream_output_adapter@_W@__crt_stdio_output@@@__crt_stdio_output@@KAIXZ 0000000180080820 f i libucrtd:output.obj
 0001:0007f830       ?state_count@?$standard_base@_WV?$string_output_adapter@_W@__crt_stdio_output@@@__crt_stdio_output@@KAIXZ 0000000180080830 f i libucrtd:output.obj
 0001:0007f840       ?state_transition_table@?$format_validation_base@DV?$stream_output_adapter@D@__crt_stdio_output@@@__crt_stdio_output@@KAAEBV?$spectre_mitigated_lookup_table@Ustate_transition_pair@__crt_stdio_output@@$0IA@@2@XZ 0000000180080840 f i libucrtd:output.obj
 0001:0007f850       ?state_transition_table@?$format_validation_base@DV?$string_output_adapter@D@__crt_stdio_output@@@__crt_stdio_output@@KAAEBV?$spectre_mitigated_lookup_table@Ustate_transition_pair@__crt_stdio_output@@$0IA@@2@XZ 0000000180080850 f i libucrtd:output.obj
 0001:0007f860       ?state_transition_table@?$format_validation_base@_WV?$stream_output_adapter@_W@__crt_stdio_output@@@__crt_stdio_output@@KAAEBV?$spectre_mitigated_lookup_table@Ustate_transition_pair@__crt_stdio_output@@$0IA@@2@XZ 0000000180080860 f i libucrtd:output.obj
 0001:0007f870       ?state_transition_table@?$format_validation_base@_WV?$string_output_adapter@_W@__crt_stdio_output@@@__crt_stdio_output@@KAAEBV?$spectre_mitigated_lookup_table@Ustate_transition_pair@__crt_stdio_output@@$0IA@@2@XZ 0000000180080870 f i libucrtd:output.obj
 0001:0007f880       ?state_transition_table@?$standard_base@DV?$stream_output_adapter@D@__crt_stdio_output@@@__crt_stdio_output@@KAAEBV?$spectre_mitigated_lookup_table@Ustate_transition_pair@__crt_stdio_output@@$0IA@@2@XZ 0000000180080880 f i libucrtd:output.obj
 0001:0007f890       ?state_transition_table@?$standard_base@DV?$string_output_adapter@D@__crt_stdio_output@@@__crt_stdio_output@@KAAEBV?$spectre_mitigated_lookup_table@Ustate_transition_pair@__crt_stdio_output@@$0IA@@2@XZ 0000000180080890 f i libucrtd:output.obj
 0001:0007f8a0       ?state_transition_table@?$standard_base@_WV?$stream_output_adapter@_W@__crt_stdio_output@@@__crt_stdio_output@@KAAEBV?$spectre_mitigated_lookup_table@Ustate_transition_pair@__crt_stdio_output@@$0IA@@2@XZ 00000001800808a0 f i libucrtd:output.obj
 0001:0007f8b0       ?state_transition_table@?$standard_base@_WV?$string_output_adapter@_W@__crt_stdio_output@@@__crt_stdio_output@@KAAEBV?$spectre_mitigated_lookup_table@Ustate_transition_pair@__crt_stdio_output@@$0IA@@2@XZ 00000001800808b0 f i libucrtd:output.obj
 0001:0007f8c0       ?tchar_string@?$common_data@D@__crt_stdio_output@@IEAAAEAPEADD@Z 00000001800808c0 f i libucrtd:output.obj
 0001:0007f8e0       ?tchar_string@?$common_data@D@__crt_stdio_output@@IEAAAEAPEADXZ 00000001800808e0 f i libucrtd:output.obj
 0001:0007f900       ?tchar_string@?$common_data@_W@__crt_stdio_output@@IEAAAEAPEA_WXZ 0000000180080900 f i libucrtd:output.obj
 0001:0007f920       ?tchar_string@?$common_data@_W@__crt_stdio_output@@IEAAAEAPEA_W_W@Z 0000000180080920 f i libucrtd:output.obj
 0001:0007f940       ?to_integer_size@__crt_stdio_output@@YA_KW4length_modifier@1@@Z 0000000180080940 f i libucrtd:output.obj
 0001:0007f9f0       ?type_case_X@?$output_processor@DV?$stream_output_adapter@D@__crt_stdio_output@@V?$format_validation_base@DV?$stream_output_adapter@D@__crt_stdio_output@@@2@@__crt_stdio_output@@AEAA_NXZ 00000001800809f0 f i libucrtd:output.obj
 0001:0007fa10       ?type_case_X@?$output_processor@DV?$stream_output_adapter@D@__crt_stdio_output@@V?$positional_parameter_base@DV?$stream_output_adapter@D@__crt_stdio_output@@@2@@__crt_stdio_output@@AEAA_NXZ 0000000180080a10 f i libucrtd:output.obj
 0001:0007fa30       ?type_case_X@?$output_processor@DV?$stream_output_adapter@D@__crt_stdio_output@@V?$standard_base@DV?$stream_output_adapter@D@__crt_stdio_output@@@2@@__crt_stdio_output@@AEAA_NXZ 0000000180080a30 f i libucrtd:output.obj
 0001:0007fa50       ?type_case_X@?$output_processor@DV?$string_output_adapter@D@__crt_stdio_output@@V?$format_validation_base@DV?$string_output_adapter@D@__crt_stdio_output@@@2@@__crt_stdio_output@@AEAA_NXZ 0000000180080a50 f i libucrtd:output.obj
 0001:0007fa70       ?type_case_X@?$output_processor@DV?$string_output_adapter@D@__crt_stdio_output@@V?$positional_parameter_base@DV?$string_output_adapter@D@__crt_stdio_output@@@2@@__crt_stdio_output@@AEAA_NXZ 0000000180080a70 f i libucrtd:output.obj
 0001:0007fa90       ?type_case_X@?$output_processor@DV?$string_output_adapter@D@__crt_stdio_output@@V?$standard_base@DV?$string_output_adapter@D@__crt_stdio_output@@@2@@__crt_stdio_output@@AEAA_NXZ 0000000180080a90 f i libucrtd:output.obj
 0001:0007fab0       ?type_case_X@?$output_processor@_WV?$stream_output_adapter@_W@__crt_stdio_output@@V?$format_validation_base@_WV?$stream_output_adapter@_W@__crt_stdio_output@@@2@@__crt_stdio_output@@AEAA_NXZ 0000000180080ab0 f i libucrtd:output.obj
 0001:0007fad0       ?type_case_X@?$output_processor@_WV?$stream_output_adapter@_W@__crt_stdio_output@@V?$positional_parameter_base@_WV?$stream_output_adapter@_W@__crt_stdio_output@@@2@@__crt_stdio_output@@AEAA_NXZ 0000000180080ad0 f i libucrtd:output.obj
 0001:0007faf0       ?type_case_X@?$output_processor@_WV?$stream_output_adapter@_W@__crt_stdio_output@@V?$standard_base@_WV?$stream_output_adapter@_W@__crt_stdio_output@@@2@@__crt_stdio_output@@AEAA_NXZ 0000000180080af0 f i libucrtd:output.obj
 0001:0007fb10       ?type_case_X@?$output_processor@_WV?$string_output_adapter@_W@__crt_stdio_output@@V?$format_validation_base@_WV?$string_output_adapter@_W@__crt_stdio_output@@@2@@__crt_stdio_output@@AEAA_NXZ 0000000180080b10 f i libucrtd:output.obj
 0001:0007fb30       ?type_case_X@?$output_processor@_WV?$string_output_adapter@_W@__crt_stdio_output@@V?$positional_parameter_base@_WV?$string_output_adapter@_W@__crt_stdio_output@@@2@@__crt_stdio_output@@AEAA_NXZ 0000000180080b30 f i libucrtd:output.obj
 0001:0007fb50       ?type_case_X@?$output_processor@_WV?$string_output_adapter@_W@__crt_stdio_output@@V?$standard_base@_WV?$string_output_adapter@_W@__crt_stdio_output@@@2@@__crt_stdio_output@@AEAA_NXZ 0000000180080b50 f i libucrtd:output.obj
 0001:0007fb70       ?type_case_Z@?$output_processor@DV?$stream_output_adapter@D@__crt_stdio_output@@V?$format_validation_base@DV?$stream_output_adapter@D@__crt_stdio_output@@@2@@__crt_stdio_output@@AEAA_NXZ 0000000180080b70 f i libucrtd:output.obj
 0001:0007fc90       ?type_case_Z@?$output_processor@DV?$stream_output_adapter@D@__crt_stdio_output@@V?$positional_parameter_base@DV?$stream_output_adapter@D@__crt_stdio_output@@@2@@__crt_stdio_output@@AEAA_NXZ 0000000180080c90 f i libucrtd:output.obj
 0001:0007fdb0       ?type_case_Z@?$output_processor@DV?$stream_output_adapter@D@__crt_stdio_output@@V?$standard_base@DV?$stream_output_adapter@D@__crt_stdio_output@@@2@@__crt_stdio_output@@AEAA_NXZ 0000000180080db0 f i libucrtd:output.obj
 0001:0007fed0       ?type_case_Z@?$output_processor@DV?$string_output_adapter@D@__crt_stdio_output@@V?$format_validation_base@DV?$string_output_adapter@D@__crt_stdio_output@@@2@@__crt_stdio_output@@AEAA_NXZ 0000000180080ed0 f i libucrtd:output.obj
 0001:0007fff0       ?type_case_Z@?$output_processor@DV?$string_output_adapter@D@__crt_stdio_output@@V?$positional_parameter_base@DV?$string_output_adapter@D@__crt_stdio_output@@@2@@__crt_stdio_output@@AEAA_NXZ 0000000180080ff0 f i libucrtd:output.obj
 0001:00080110       ?type_case_Z@?$output_processor@DV?$string_output_adapter@D@__crt_stdio_output@@V?$standard_base@DV?$string_output_adapter@D@__crt_stdio_output@@@2@@__crt_stdio_output@@AEAA_NXZ 0000000180081110 f i libucrtd:output.obj
 0001:00080230       ?type_case_Z@?$output_processor@_WV?$stream_output_adapter@_W@__crt_stdio_output@@V?$format_validation_base@_WV?$stream_output_adapter@_W@__crt_stdio_output@@@2@@__crt_stdio_output@@AEAA_NXZ 0000000180081230 f i libucrtd:output.obj
 0001:00080350       ?type_case_Z@?$output_processor@_WV?$stream_output_adapter@_W@__crt_stdio_output@@V?$positional_parameter_base@_WV?$stream_output_adapter@_W@__crt_stdio_output@@@2@@__crt_stdio_output@@AEAA_NXZ 0000000180081350 f i libucrtd:output.obj
 0001:00080470       ?type_case_Z@?$output_processor@_WV?$stream_output_adapter@_W@__crt_stdio_output@@V?$standard_base@_WV?$stream_output_adapter@_W@__crt_stdio_output@@@2@@__crt_stdio_output@@AEAA_NXZ 0000000180081470 f i libucrtd:output.obj
 0001:00080590       ?type_case_Z@?$output_processor@_WV?$string_output_adapter@_W@__crt_stdio_output@@V?$format_validation_base@_WV?$string_output_adapter@_W@__crt_stdio_output@@@2@@__crt_stdio_output@@AEAA_NXZ 0000000180081590 f i libucrtd:output.obj
 0001:000806b0       ?type_case_Z@?$output_processor@_WV?$string_output_adapter@_W@__crt_stdio_output@@V?$positional_parameter_base@_WV?$string_output_adapter@_W@__crt_stdio_output@@@2@@__crt_stdio_output@@AEAA_NXZ 00000001800816b0 f i libucrtd:output.obj
 0001:000807d0       ?type_case_Z@?$output_processor@_WV?$string_output_adapter@_W@__crt_stdio_output@@V?$standard_base@_WV?$string_output_adapter@_W@__crt_stdio_output@@@2@@__crt_stdio_output@@AEAA_NXZ 00000001800817d0 f i libucrtd:output.obj
 0001:000808f0       ?type_case_a@?$output_processor@DV?$stream_output_adapter@D@__crt_stdio_output@@V?$format_validation_base@DV?$stream_output_adapter@D@__crt_stdio_output@@@2@@__crt_stdio_output@@AEAA_NXZ 00000001800818f0 f i libucrtd:output.obj
 0001:00080d50       ?type_case_a@?$output_processor@DV?$stream_output_adapter@D@__crt_stdio_output@@V?$positional_parameter_base@DV?$stream_output_adapter@D@__crt_stdio_output@@@2@@__crt_stdio_output@@AEAA_NXZ 0000000180081d50 f i libucrtd:output.obj
 0001:000811b0       ?type_case_a@?$output_processor@DV?$stream_output_adapter@D@__crt_stdio_output@@V?$standard_base@DV?$stream_output_adapter@D@__crt_stdio_output@@@2@@__crt_stdio_output@@AEAA_NXZ 00000001800821b0 f i libucrtd:output.obj
 0001:00081610       ?type_case_a@?$output_processor@DV?$string_output_adapter@D@__crt_stdio_output@@V?$format_validation_base@DV?$string_output_adapter@D@__crt_stdio_output@@@2@@__crt_stdio_output@@AEAA_NXZ 0000000180082610 f i libucrtd:output.obj
 0001:00081a70       ?type_case_a@?$output_processor@DV?$string_output_adapter@D@__crt_stdio_output@@V?$positional_parameter_base@DV?$string_output_adapter@D@__crt_stdio_output@@@2@@__crt_stdio_output@@AEAA_NXZ 0000000180082a70 f i libucrtd:output.obj
 0001:00081ed0       ?type_case_a@?$output_processor@DV?$string_output_adapter@D@__crt_stdio_output@@V?$standard_base@DV?$string_output_adapter@D@__crt_stdio_output@@@2@@__crt_stdio_output@@AEAA_NXZ 0000000180082ed0 f i libucrtd:output.obj
 0001:00082330       ?type_case_a@?$output_processor@_WV?$stream_output_adapter@_W@__crt_stdio_output@@V?$format_validation_base@_WV?$stream_output_adapter@_W@__crt_stdio_output@@@2@@__crt_stdio_output@@AEAA_NXZ 0000000180083330 f i libucrtd:output.obj
 0001:000827a0       ?type_case_a@?$output_processor@_WV?$stream_output_adapter@_W@__crt_stdio_output@@V?$positional_parameter_base@_WV?$stream_output_adapter@_W@__crt_stdio_output@@@2@@__crt_stdio_output@@AEAA_NXZ 00000001800837a0 f i libucrtd:output.obj
 0001:00082c10       ?type_case_a@?$output_processor@_WV?$stream_output_adapter@_W@__crt_stdio_output@@V?$standard_base@_WV?$stream_output_adapter@_W@__crt_stdio_output@@@2@@__crt_stdio_output@@AEAA_NXZ 0000000180083c10 f i libucrtd:output.obj
 0001:00083080       ?type_case_a@?$output_processor@_WV?$string_output_adapter@_W@__crt_stdio_output@@V?$format_validation_base@_WV?$string_output_adapter@_W@__crt_stdio_output@@@2@@__crt_stdio_output@@AEAA_NXZ 0000000180084080 f i libucrtd:output.obj
 0001:000834f0       ?type_case_a@?$output_processor@_WV?$string_output_adapter@_W@__crt_stdio_output@@V?$positional_parameter_base@_WV?$string_output_adapter@_W@__crt_stdio_output@@@2@@__crt_stdio_output@@AEAA_NXZ 00000001800844f0 f i libucrtd:output.obj
 0001:00083960       ?type_case_a@?$output_processor@_WV?$string_output_adapter@_W@__crt_stdio_output@@V?$standard_base@_WV?$string_output_adapter@_W@__crt_stdio_output@@@2@@__crt_stdio_output@@AEAA_NXZ 0000000180084960 f i libucrtd:output.obj
 0001:00083dd0       ?type_case_c@?$output_processor@DV?$stream_output_adapter@D@__crt_stdio_output@@V?$format_validation_base@DV?$stream_output_adapter@D@__crt_stdio_output@@@2@@__crt_stdio_output@@AEAA_NXZ 0000000180084dd0 f i libucrtd:output.obj
 0001:00083df0       ?type_case_c@?$output_processor@DV?$stream_output_adapter@D@__crt_stdio_output@@V?$positional_parameter_base@DV?$stream_output_adapter@D@__crt_stdio_output@@@2@@__crt_stdio_output@@AEAA_NXZ 0000000180084df0 f i libucrtd:output.obj
 0001:00083e10       ?type_case_c@?$output_processor@DV?$stream_output_adapter@D@__crt_stdio_output@@V?$standard_base@DV?$stream_output_adapter@D@__crt_stdio_output@@@2@@__crt_stdio_output@@AEAA_NXZ 0000000180084e10 f i libucrtd:output.obj
 0001:00083e30       ?type_case_c@?$output_processor@DV?$string_output_adapter@D@__crt_stdio_output@@V?$format_validation_base@DV?$string_output_adapter@D@__crt_stdio_output@@@2@@__crt_stdio_output@@AEAA_NXZ 0000000180084e30 f i libucrtd:output.obj
 0001:00083e50       ?type_case_c@?$output_processor@DV?$string_output_adapter@D@__crt_stdio_output@@V?$positional_parameter_base@DV?$string_output_adapter@D@__crt_stdio_output@@@2@@__crt_stdio_output@@AEAA_NXZ 0000000180084e50 f i libucrtd:output.obj
 0001:00083e70       ?type_case_c@?$output_processor@DV?$string_output_adapter@D@__crt_stdio_output@@V?$standard_base@DV?$string_output_adapter@D@__crt_stdio_output@@@2@@__crt_stdio_output@@AEAA_NXZ 0000000180084e70 f i libucrtd:output.obj
 0001:00083e90       ?type_case_c@?$output_processor@_WV?$stream_output_adapter@_W@__crt_stdio_output@@V?$format_validation_base@_WV?$stream_output_adapter@_W@__crt_stdio_output@@@2@@__crt_stdio_output@@AEAA_NXZ 0000000180084e90 f i libucrtd:output.obj
 0001:00083eb0       ?type_case_c@?$output_processor@_WV?$stream_output_adapter@_W@__crt_stdio_output@@V?$positional_parameter_base@_WV?$stream_output_adapter@_W@__crt_stdio_output@@@2@@__crt_stdio_output@@AEAA_NXZ 0000000180084eb0 f i libucrtd:output.obj
 0001:00083ed0       ?type_case_c@?$output_processor@_WV?$stream_output_adapter@_W@__crt_stdio_output@@V?$standard_base@_WV?$stream_output_adapter@_W@__crt_stdio_output@@@2@@__crt_stdio_output@@AEAA_NXZ 0000000180084ed0 f i libucrtd:output.obj
 0001:00083ef0       ?type_case_c@?$output_processor@_WV?$string_output_adapter@_W@__crt_stdio_output@@V?$format_validation_base@_WV?$string_output_adapter@_W@__crt_stdio_output@@@2@@__crt_stdio_output@@AEAA_NXZ 0000000180084ef0 f i libucrtd:output.obj
 0001:00083f10       ?type_case_c@?$output_processor@_WV?$string_output_adapter@_W@__crt_stdio_output@@V?$positional_parameter_base@_WV?$string_output_adapter@_W@__crt_stdio_output@@@2@@__crt_stdio_output@@AEAA_NXZ 0000000180084f10 f i libucrtd:output.obj
 0001:00083f30       ?type_case_c@?$output_processor@_WV?$string_output_adapter@_W@__crt_stdio_output@@V?$standard_base@_WV?$string_output_adapter@_W@__crt_stdio_output@@@2@@__crt_stdio_output@@AEAA_NXZ 0000000180084f30 f i libucrtd:output.obj
 0001:00083f50       ?type_case_c_tchar@?$output_processor@DV?$stream_output_adapter@D@__crt_stdio_output@@V?$format_validation_base@DV?$stream_output_adapter@D@__crt_stdio_output@@@2@@__crt_stdio_output@@AEAA_ND@Z 0000000180084f50 f i libucrtd:output.obj
 0001:000840c0       ?type_case_c_tchar@?$output_processor@DV?$stream_output_adapter@D@__crt_stdio_output@@V?$positional_parameter_base@DV?$stream_output_adapter@D@__crt_stdio_output@@@2@@__crt_stdio_output@@AEAA_ND@Z 00000001800850c0 f i libucrtd:output.obj
 0001:00084230       ?type_case_c_tchar@?$output_processor@DV?$stream_output_adapter@D@__crt_stdio_output@@V?$standard_base@DV?$stream_output_adapter@D@__crt_stdio_output@@@2@@__crt_stdio_output@@AEAA_ND@Z 0000000180085230 f i libucrtd:output.obj
 0001:000843a0       ?type_case_c_tchar@?$output_processor@DV?$string_output_adapter@D@__crt_stdio_output@@V?$format_validation_base@DV?$string_output_adapter@D@__crt_stdio_output@@@2@@__crt_stdio_output@@AEAA_ND@Z 00000001800853a0 f i libucrtd:output.obj
 0001:00084510       ?type_case_c_tchar@?$output_processor@DV?$string_output_adapter@D@__crt_stdio_output@@V?$positional_parameter_base@DV?$string_output_adapter@D@__crt_stdio_output@@@2@@__crt_stdio_output@@AEAA_ND@Z 0000000180085510 f i libucrtd:output.obj
 0001:00084680       ?type_case_c_tchar@?$output_processor@DV?$string_output_adapter@D@__crt_stdio_output@@V?$standard_base@DV?$string_output_adapter@D@__crt_stdio_output@@@2@@__crt_stdio_output@@AEAA_ND@Z 0000000180085680 f i libucrtd:output.obj
 0001:000847f0       ?type_case_c_tchar@?$output_processor@_WV?$stream_output_adapter@_W@__crt_stdio_output@@V?$format_validation_base@_WV?$stream_output_adapter@_W@__crt_stdio_output@@@2@@__crt_stdio_output@@AEAA_N_W@Z 00000001800857f0 f i libucrtd:output.obj
 0001:00084950       ?type_case_c_tchar@?$output_processor@_WV?$stream_output_adapter@_W@__crt_stdio_output@@V?$positional_parameter_base@_WV?$stream_output_adapter@_W@__crt_stdio_output@@@2@@__crt_stdio_output@@AEAA_N_W@Z 0000000180085950 f i libucrtd:output.obj
 0001:00084ab0       ?type_case_c_tchar@?$output_processor@_WV?$stream_output_adapter@_W@__crt_stdio_output@@V?$standard_base@_WV?$stream_output_adapter@_W@__crt_stdio_output@@@2@@__crt_stdio_output@@AEAA_N_W@Z 0000000180085ab0 f i libucrtd:output.obj
 0001:00084c10       ?type_case_c_tchar@?$output_processor@_WV?$string_output_adapter@_W@__crt_stdio_output@@V?$format_validation_base@_WV?$string_output_adapter@_W@__crt_stdio_output@@@2@@__crt_stdio_output@@AEAA_N_W@Z 0000000180085c10 f i libucrtd:output.obj
 0001:00084d70       ?type_case_c_tchar@?$output_processor@_WV?$string_output_adapter@_W@__crt_stdio_output@@V?$positional_parameter_base@_WV?$string_output_adapter@_W@__crt_stdio_output@@@2@@__crt_stdio_output@@AEAA_N_W@Z 0000000180085d70 f i libucrtd:output.obj
 0001:00084ed0       ?type_case_c_tchar@?$output_processor@_WV?$string_output_adapter@_W@__crt_stdio_output@@V?$standard_base@_WV?$string_output_adapter@_W@__crt_stdio_output@@@2@@__crt_stdio_output@@AEAA_N_W@Z 0000000180085ed0 f i libucrtd:output.obj
 0001:00085030       ?type_case_d@?$output_processor@DV?$stream_output_adapter@D@__crt_stdio_output@@V?$format_validation_base@DV?$stream_output_adapter@D@__crt_stdio_output@@@2@@__crt_stdio_output@@AEAA_NXZ 0000000180086030 f i libucrtd:output.obj
 0001:00085060       ?type_case_d@?$output_processor@DV?$stream_output_adapter@D@__crt_stdio_output@@V?$positional_parameter_base@DV?$stream_output_adapter@D@__crt_stdio_output@@@2@@__crt_stdio_output@@AEAA_NXZ 0000000180086060 f i libucrtd:output.obj
 0001:00085090       ?type_case_d@?$output_processor@DV?$stream_output_adapter@D@__crt_stdio_output@@V?$standard_base@DV?$stream_output_adapter@D@__crt_stdio_output@@@2@@__crt_stdio_output@@AEAA_NXZ 0000000180086090 f i libucrtd:output.obj
 0001:000850c0       ?type_case_d@?$output_processor@DV?$string_output_adapter@D@__crt_stdio_output@@V?$format_validation_base@DV?$string_output_adapter@D@__crt_stdio_output@@@2@@__crt_stdio_output@@AEAA_NXZ 00000001800860c0 f i libucrtd:output.obj
 0001:000850f0       ?type_case_d@?$output_processor@DV?$string_output_adapter@D@__crt_stdio_output@@V?$positional_parameter_base@DV?$string_output_adapter@D@__crt_stdio_output@@@2@@__crt_stdio_output@@AEAA_NXZ 00000001800860f0 f i libucrtd:output.obj
 0001:00085120       ?type_case_d@?$output_processor@DV?$string_output_adapter@D@__crt_stdio_output@@V?$standard_base@DV?$string_output_adapter@D@__crt_stdio_output@@@2@@__crt_stdio_output@@AEAA_NXZ 0000000180086120 f i libucrtd:output.obj
 0001:00085150       ?type_case_d@?$output_processor@_WV?$stream_output_adapter@_W@__crt_stdio_output@@V?$format_validation_base@_WV?$stream_output_adapter@_W@__crt_stdio_output@@@2@@__crt_stdio_output@@AEAA_NXZ 0000000180086150 f i libucrtd:output.obj
 0001:00085180       ?type_case_d@?$output_processor@_WV?$stream_output_adapter@_W@__crt_stdio_output@@V?$positional_parameter_base@_WV?$stream_output_adapter@_W@__crt_stdio_output@@@2@@__crt_stdio_output@@AEAA_NXZ 0000000180086180 f i libucrtd:output.obj
 0001:000851b0       ?type_case_d@?$output_processor@_WV?$stream_output_adapter@_W@__crt_stdio_output@@V?$standard_base@_WV?$stream_output_adapter@_W@__crt_stdio_output@@@2@@__crt_stdio_output@@AEAA_NXZ 00000001800861b0 f i libucrtd:output.obj
 0001:000851e0       ?type_case_d@?$output_processor@_WV?$string_output_adapter@_W@__crt_stdio_output@@V?$format_validation_base@_WV?$string_output_adapter@_W@__crt_stdio_output@@@2@@__crt_stdio_output@@AEAA_NXZ 00000001800861e0 f i libucrtd:output.obj
 0001:00085210       ?type_case_d@?$output_processor@_WV?$string_output_adapter@_W@__crt_stdio_output@@V?$positional_parameter_base@_WV?$string_output_adapter@_W@__crt_stdio_output@@@2@@__crt_stdio_output@@AEAA_NXZ 0000000180086210 f i libucrtd:output.obj
 0001:00085240       ?type_case_d@?$output_processor@_WV?$string_output_adapter@_W@__crt_stdio_output@@V?$standard_base@_WV?$string_output_adapter@_W@__crt_stdio_output@@@2@@__crt_stdio_output@@AEAA_NXZ 0000000180086240 f i libucrtd:output.obj
 0001:00085270       ?type_case_n@?$output_processor@DV?$stream_output_adapter@D@__crt_stdio_output@@V?$format_validation_base@DV?$stream_output_adapter@D@__crt_stdio_output@@@2@@__crt_stdio_output@@AEAA_NXZ 0000000180086270 f i libucrtd:output.obj
 0001:00085500       ?type_case_n@?$output_processor@DV?$stream_output_adapter@D@__crt_stdio_output@@V?$positional_parameter_base@DV?$stream_output_adapter@D@__crt_stdio_output@@@2@@__crt_stdio_output@@AEAA_NXZ 0000000180086500 f i libucrtd:output.obj
 0001:00085790       ?type_case_n@?$output_processor@DV?$stream_output_adapter@D@__crt_stdio_output@@V?$standard_base@DV?$stream_output_adapter@D@__crt_stdio_output@@@2@@__crt_stdio_output@@AEAA_NXZ 0000000180086790 f i libucrtd:output.obj
 0001:00085a20       ?type_case_n@?$output_processor@DV?$string_output_adapter@D@__crt_stdio_output@@V?$format_validation_base@DV?$string_output_adapter@D@__crt_stdio_output@@@2@@__crt_stdio_output@@AEAA_NXZ 0000000180086a20 f i libucrtd:output.obj
 0001:00085cb0       ?type_case_n@?$output_processor@DV?$string_output_adapter@D@__crt_stdio_output@@V?$positional_parameter_base@DV?$string_output_adapter@D@__crt_stdio_output@@@2@@__crt_stdio_output@@AEAA_NXZ 0000000180086cb0 f i libucrtd:output.obj
 0001:00085f40       ?type_case_n@?$output_processor@DV?$string_output_adapter@D@__crt_stdio_output@@V?$standard_base@DV?$string_output_adapter@D@__crt_stdio_output@@@2@@__crt_stdio_output@@AEAA_NXZ 0000000180086f40 f i libucrtd:output.obj
 0001:000861d0       ?type_case_n@?$output_processor@_WV?$stream_output_adapter@_W@__crt_stdio_output@@V?$format_validation_base@_WV?$stream_output_adapter@_W@__crt_stdio_output@@@2@@__crt_stdio_output@@AEAA_NXZ 00000001800871d0 f i libucrtd:output.obj
 0001:00086460       ?type_case_n@?$output_processor@_WV?$stream_output_adapter@_W@__crt_stdio_output@@V?$positional_parameter_base@_WV?$stream_output_adapter@_W@__crt_stdio_output@@@2@@__crt_stdio_output@@AEAA_NXZ 0000000180087460 f i libucrtd:output.obj
 0001:000866f0       ?type_case_n@?$output_processor@_WV?$stream_output_adapter@_W@__crt_stdio_output@@V?$standard_base@_WV?$stream_output_adapter@_W@__crt_stdio_output@@@2@@__crt_stdio_output@@AEAA_NXZ 00000001800876f0 f i libucrtd:output.obj
 0001:00086980       ?type_case_n@?$output_processor@_WV?$string_output_adapter@_W@__crt_stdio_output@@V?$format_validation_base@_WV?$string_output_adapter@_W@__crt_stdio_output@@@2@@__crt_stdio_output@@AEAA_NXZ 0000000180087980 f i libucrtd:output.obj
 0001:00086c10       ?type_case_n@?$output_processor@_WV?$string_output_adapter@_W@__crt_stdio_output@@V?$positional_parameter_base@_WV?$string_output_adapter@_W@__crt_stdio_output@@@2@@__crt_stdio_output@@AEAA_NXZ 0000000180087c10 f i libucrtd:output.obj
 0001:00086ea0       ?type_case_n@?$output_processor@_WV?$string_output_adapter@_W@__crt_stdio_output@@V?$standard_base@_WV?$string_output_adapter@_W@__crt_stdio_output@@@2@@__crt_stdio_output@@AEAA_NXZ 0000000180087ea0 f i libucrtd:output.obj
 0001:00087130       ?type_case_o@?$output_processor@DV?$stream_output_adapter@D@__crt_stdio_output@@V?$format_validation_base@DV?$stream_output_adapter@D@__crt_stdio_output@@@2@@__crt_stdio_output@@AEAA_NXZ 0000000180088130 f i libucrtd:output.obj
 0001:00087170       ?type_case_o@?$output_processor@DV?$stream_output_adapter@D@__crt_stdio_output@@V?$positional_parameter_base@DV?$stream_output_adapter@D@__crt_stdio_output@@@2@@__crt_stdio_output@@AEAA_NXZ 0000000180088170 f i libucrtd:output.obj
 0001:000871b0       ?type_case_o@?$output_processor@DV?$stream_output_adapter@D@__crt_stdio_output@@V?$standard_base@DV?$stream_output_adapter@D@__crt_stdio_output@@@2@@__crt_stdio_output@@AEAA_NXZ 00000001800881b0 f i libucrtd:output.obj
 0001:000871f0       ?type_case_o@?$output_processor@DV?$string_output_adapter@D@__crt_stdio_output@@V?$format_validation_base@DV?$string_output_adapter@D@__crt_stdio_output@@@2@@__crt_stdio_output@@AEAA_NXZ 00000001800881f0 f i libucrtd:output.obj
 0001:00087230       ?type_case_o@?$output_processor@DV?$string_output_adapter@D@__crt_stdio_output@@V?$positional_parameter_base@DV?$string_output_adapter@D@__crt_stdio_output@@@2@@__crt_stdio_output@@AEAA_NXZ 0000000180088230 f i libucrtd:output.obj
 0001:00087270       ?type_case_o@?$output_processor@DV?$string_output_adapter@D@__crt_stdio_output@@V?$standard_base@DV?$string_output_adapter@D@__crt_stdio_output@@@2@@__crt_stdio_output@@AEAA_NXZ 0000000180088270 f i libucrtd:output.obj
 0001:000872b0       ?type_case_o@?$output_processor@_WV?$stream_output_adapter@_W@__crt_stdio_output@@V?$format_validation_base@_WV?$stream_output_adapter@_W@__crt_stdio_output@@@2@@__crt_stdio_output@@AEAA_NXZ 00000001800882b0 f i libucrtd:output.obj
 0001:000872f0       ?type_case_o@?$output_processor@_WV?$stream_output_adapter@_W@__crt_stdio_output@@V?$positional_parameter_base@_WV?$stream_output_adapter@_W@__crt_stdio_output@@@2@@__crt_stdio_output@@AEAA_NXZ 00000001800882f0 f i libucrtd:output.obj
 0001:00087330       ?type_case_o@?$output_processor@_WV?$stream_output_adapter@_W@__crt_stdio_output@@V?$standard_base@_WV?$stream_output_adapter@_W@__crt_stdio_output@@@2@@__crt_stdio_output@@AEAA_NXZ 0000000180088330 f i libucrtd:output.obj
 0001:00087370       ?type_case_o@?$output_processor@_WV?$string_output_adapter@_W@__crt_stdio_output@@V?$format_validation_base@_WV?$string_output_adapter@_W@__crt_stdio_output@@@2@@__crt_stdio_output@@AEAA_NXZ 0000000180088370 f i libucrtd:output.obj
 0001:000873b0       ?type_case_o@?$output_processor@_WV?$string_output_adapter@_W@__crt_stdio_output@@V?$positional_parameter_base@_WV?$string_output_adapter@_W@__crt_stdio_output@@@2@@__crt_stdio_output@@AEAA_NXZ 00000001800883b0 f i libucrtd:output.obj
 0001:000873f0       ?type_case_o@?$output_processor@_WV?$string_output_adapter@_W@__crt_stdio_output@@V?$standard_base@_WV?$string_output_adapter@_W@__crt_stdio_output@@@2@@__crt_stdio_output@@AEAA_NXZ 00000001800883f0 f i libucrtd:output.obj
 0001:00087430       ?type_case_p@?$output_processor@DV?$stream_output_adapter@D@__crt_stdio_output@@V?$format_validation_base@DV?$stream_output_adapter@D@__crt_stdio_output@@@2@@__crt_stdio_output@@AEAA_NXZ 0000000180088430 f i libucrtd:output.obj
 0001:00087470       ?type_case_p@?$output_processor@DV?$stream_output_adapter@D@__crt_stdio_output@@V?$positional_parameter_base@DV?$stream_output_adapter@D@__crt_stdio_output@@@2@@__crt_stdio_output@@AEAA_NXZ 0000000180088470 f i libucrtd:output.obj
 0001:000874b0       ?type_case_p@?$output_processor@DV?$stream_output_adapter@D@__crt_stdio_output@@V?$standard_base@DV?$stream_output_adapter@D@__crt_stdio_output@@@2@@__crt_stdio_output@@AEAA_NXZ 00000001800884b0 f i libucrtd:output.obj
 0001:000874f0       ?type_case_p@?$output_processor@DV?$string_output_adapter@D@__crt_stdio_output@@V?$format_validation_base@DV?$string_output_adapter@D@__crt_stdio_output@@@2@@__crt_stdio_output@@AEAA_NXZ 00000001800884f0 f i libucrtd:output.obj
 0001:00087530       ?type_case_p@?$output_processor@DV?$string_output_adapter@D@__crt_stdio_output@@V?$positional_parameter_base@DV?$string_output_adapter@D@__crt_stdio_output@@@2@@__crt_stdio_output@@AEAA_NXZ 0000000180088530 f i libucrtd:output.obj
 0001:00087570       ?type_case_p@?$output_processor@DV?$string_output_adapter@D@__crt_stdio_output@@V?$standard_base@DV?$string_output_adapter@D@__crt_stdio_output@@@2@@__crt_stdio_output@@AEAA_NXZ 0000000180088570 f i libucrtd:output.obj
 0001:000875b0       ?type_case_p@?$output_processor@_WV?$stream_output_adapter@_W@__crt_stdio_output@@V?$format_validation_base@_WV?$stream_output_adapter@_W@__crt_stdio_output@@@2@@__crt_stdio_output@@AEAA_NXZ 00000001800885b0 f i libucrtd:output.obj
 0001:000875f0       ?type_case_p@?$output_processor@_WV?$stream_output_adapter@_W@__crt_stdio_output@@V?$positional_parameter_base@_WV?$stream_output_adapter@_W@__crt_stdio_output@@@2@@__crt_stdio_output@@AEAA_NXZ 00000001800885f0 f i libucrtd:output.obj
 0001:00087630       ?type_case_p@?$output_processor@_WV?$stream_output_adapter@_W@__crt_stdio_output@@V?$standard_base@_WV?$stream_output_adapter@_W@__crt_stdio_output@@@2@@__crt_stdio_output@@AEAA_NXZ 0000000180088630 f i libucrtd:output.obj
 0001:00087670       ?type_case_p@?$output_processor@_WV?$string_output_adapter@_W@__crt_stdio_output@@V?$format_validation_base@_WV?$string_output_adapter@_W@__crt_stdio_output@@@2@@__crt_stdio_output@@AEAA_NXZ 0000000180088670 f i libucrtd:output.obj
 0001:000876b0       ?type_case_p@?$output_processor@_WV?$string_output_adapter@_W@__crt_stdio_output@@V?$positional_parameter_base@_WV?$string_output_adapter@_W@__crt_stdio_output@@@2@@__crt_stdio_output@@AEAA_NXZ 00000001800886b0 f i libucrtd:output.obj
 0001:000876f0       ?type_case_p@?$output_processor@_WV?$string_output_adapter@_W@__crt_stdio_output@@V?$standard_base@_WV?$string_output_adapter@_W@__crt_stdio_output@@@2@@__crt_stdio_output@@AEAA_NXZ 00000001800886f0 f i libucrtd:output.obj
 0001:00087730       ?type_case_s@?$output_processor@DV?$stream_output_adapter@D@__crt_stdio_output@@V?$format_validation_base@DV?$stream_output_adapter@D@__crt_stdio_output@@@2@@__crt_stdio_output@@AEAA_NXZ 0000000180088730 f i libucrtd:output.obj
 0001:00087850       ?type_case_s@?$output_processor@DV?$stream_output_adapter@D@__crt_stdio_output@@V?$positional_parameter_base@DV?$stream_output_adapter@D@__crt_stdio_output@@@2@@__crt_stdio_output@@AEAA_NXZ 0000000180088850 f i libucrtd:output.obj
 0001:00087970       ?type_case_s@?$output_processor@DV?$stream_output_adapter@D@__crt_stdio_output@@V?$standard_base@DV?$stream_output_adapter@D@__crt_stdio_output@@@2@@__crt_stdio_output@@AEAA_NXZ 0000000180088970 f i libucrtd:output.obj
 0001:00087a90       ?type_case_s@?$output_processor@DV?$string_output_adapter@D@__crt_stdio_output@@V?$format_validation_base@DV?$string_output_adapter@D@__crt_stdio_output@@@2@@__crt_stdio_output@@AEAA_NXZ 0000000180088a90 f i libucrtd:output.obj
 0001:00087bb0       ?type_case_s@?$output_processor@DV?$string_output_adapter@D@__crt_stdio_output@@V?$positional_parameter_base@DV?$string_output_adapter@D@__crt_stdio_output@@@2@@__crt_stdio_output@@AEAA_NXZ 0000000180088bb0 f i libucrtd:output.obj
 0001:00087cd0       ?type_case_s@?$output_processor@DV?$string_output_adapter@D@__crt_stdio_output@@V?$standard_base@DV?$string_output_adapter@D@__crt_stdio_output@@@2@@__crt_stdio_output@@AEAA_NXZ 0000000180088cd0 f i libucrtd:output.obj
 0001:00087df0       ?type_case_s@?$output_processor@_WV?$stream_output_adapter@_W@__crt_stdio_output@@V?$format_validation_base@_WV?$stream_output_adapter@_W@__crt_stdio_output@@@2@@__crt_stdio_output@@AEAA_NXZ 0000000180088df0 f i libucrtd:output.obj
 0001:00087f10       ?type_case_s@?$output_processor@_WV?$stream_output_adapter@_W@__crt_stdio_output@@V?$positional_parameter_base@_WV?$stream_output_adapter@_W@__crt_stdio_output@@@2@@__crt_stdio_output@@AEAA_NXZ 0000000180088f10 f i libucrtd:output.obj
 0001:00088030       ?type_case_s@?$output_processor@_WV?$stream_output_adapter@_W@__crt_stdio_output@@V?$standard_base@_WV?$stream_output_adapter@_W@__crt_stdio_output@@@2@@__crt_stdio_output@@AEAA_NXZ 0000000180089030 f i libucrtd:output.obj
 0001:00088150       ?type_case_s@?$output_processor@_WV?$string_output_adapter@_W@__crt_stdio_output@@V?$format_validation_base@_WV?$string_output_adapter@_W@__crt_stdio_output@@@2@@__crt_stdio_output@@AEAA_NXZ 0000000180089150 f i libucrtd:output.obj
 0001:00088270       ?type_case_s@?$output_processor@_WV?$string_output_adapter@_W@__crt_stdio_output@@V?$positional_parameter_base@_WV?$string_output_adapter@_W@__crt_stdio_output@@@2@@__crt_stdio_output@@AEAA_NXZ 0000000180089270 f i libucrtd:output.obj
 0001:00088390       ?type_case_s@?$output_processor@_WV?$string_output_adapter@_W@__crt_stdio_output@@V?$standard_base@_WV?$string_output_adapter@_W@__crt_stdio_output@@@2@@__crt_stdio_output@@AEAA_NXZ 0000000180089390 f i libucrtd:output.obj
 0001:000884b0       ?type_case_s_compute_narrow_string_length@?$output_processor@DV?$stream_output_adapter@D@__crt_stdio_output@@V?$format_validation_base@DV?$stream_output_adapter@D@__crt_stdio_output@@@2@@__crt_stdio_output@@AEAAHHD@Z 00000001800894b0 f i libucrtd:output.obj
 0001:000884e0       ?type_case_s_compute_narrow_string_length@?$output_processor@DV?$stream_output_adapter@D@__crt_stdio_output@@V?$positional_parameter_base@DV?$stream_output_adapter@D@__crt_stdio_output@@@2@@__crt_stdio_output@@AEAAHHD@Z 00000001800894e0 f i libucrtd:output.obj
 0001:00088510       ?type_case_s_compute_narrow_string_length@?$output_processor@DV?$stream_output_adapter@D@__crt_stdio_output@@V?$standard_base@DV?$stream_output_adapter@D@__crt_stdio_output@@@2@@__crt_stdio_output@@AEAAHHD@Z 0000000180089510 f i libucrtd:output.obj
 0001:00088540       ?type_case_s_compute_narrow_string_length@?$output_processor@DV?$string_output_adapter@D@__crt_stdio_output@@V?$format_validation_base@DV?$string_output_adapter@D@__crt_stdio_output@@@2@@__crt_stdio_output@@AEAAHHD@Z 0000000180089540 f i libucrtd:output.obj
 0001:00088570       ?type_case_s_compute_narrow_string_length@?$output_processor@DV?$string_output_adapter@D@__crt_stdio_output@@V?$positional_parameter_base@DV?$string_output_adapter@D@__crt_stdio_output@@@2@@__crt_stdio_output@@AEAAHHD@Z 0000000180089570 f i libucrtd:output.obj
 0001:000885a0       ?type_case_s_compute_narrow_string_length@?$output_processor@DV?$string_output_adapter@D@__crt_stdio_output@@V?$standard_base@DV?$string_output_adapter@D@__crt_stdio_output@@@2@@__crt_stdio_output@@AEAAHHD@Z 00000001800895a0 f i libucrtd:output.obj
 0001:000885d0       ?type_case_s_compute_narrow_string_length@?$output_processor@_WV?$stream_output_adapter@_W@__crt_stdio_output@@V?$format_validation_base@_WV?$stream_output_adapter@_W@__crt_stdio_output@@@2@@__crt_stdio_output@@AEAAHH_W@Z 00000001800895d0 f i libucrtd:output.obj
 0001:00088670       ?type_case_s_compute_narrow_string_length@?$output_processor@_WV?$stream_output_adapter@_W@__crt_stdio_output@@V?$positional_parameter_base@_WV?$stream_output_adapter@_W@__crt_stdio_output@@@2@@__crt_stdio_output@@AEAAHH_W@Z 0000000180089670 f i libucrtd:output.obj
 0001:00088710       ?type_case_s_compute_narrow_string_length@?$output_processor@_WV?$stream_output_adapter@_W@__crt_stdio_output@@V?$standard_base@_WV?$stream_output_adapter@_W@__crt_stdio_output@@@2@@__crt_stdio_output@@AEAAHH_W@Z 0000000180089710 f i libucrtd:output.obj
 0001:000887b0       ?type_case_s_compute_narrow_string_length@?$output_processor@_WV?$string_output_adapter@_W@__crt_stdio_output@@V?$format_validation_base@_WV?$string_output_adapter@_W@__crt_stdio_output@@@2@@__crt_stdio_output@@AEAAHH_W@Z 00000001800897b0 f i libucrtd:output.obj
 0001:00088850       ?type_case_s_compute_narrow_string_length@?$output_processor@_WV?$string_output_adapter@_W@__crt_stdio_output@@V?$positional_parameter_base@_WV?$string_output_adapter@_W@__crt_stdio_output@@@2@@__crt_stdio_output@@AEAAHH_W@Z 0000000180089850 f i libucrtd:output.obj
 0001:000888f0       ?type_case_s_compute_narrow_string_length@?$output_processor@_WV?$string_output_adapter@_W@__crt_stdio_output@@V?$standard_base@_WV?$string_output_adapter@_W@__crt_stdio_output@@@2@@__crt_stdio_output@@AEAAHH_W@Z 00000001800898f0 f i libucrtd:output.obj
 0001:00088990       ?type_case_u@?$output_processor@DV?$stream_output_adapter@D@__crt_stdio_output@@V?$format_validation_base@DV?$stream_output_adapter@D@__crt_stdio_output@@@2@@__crt_stdio_output@@AEAA_NXZ 0000000180089990 f i libucrtd:output.obj
 0001:000889b0       ?type_case_u@?$output_processor@DV?$stream_output_adapter@D@__crt_stdio_output@@V?$positional_parameter_base@DV?$stream_output_adapter@D@__crt_stdio_output@@@2@@__crt_stdio_output@@AEAA_NXZ 00000001800899b0 f i libucrtd:output.obj
 0001:000889d0       ?type_case_u@?$output_processor@DV?$stream_output_adapter@D@__crt_stdio_output@@V?$standard_base@DV?$stream_output_adapter@D@__crt_stdio_output@@@2@@__crt_stdio_output@@AEAA_NXZ 00000001800899d0 f i libucrtd:output.obj
 0001:000889f0       ?type_case_u@?$output_processor@DV?$string_output_adapter@D@__crt_stdio_output@@V?$format_validation_base@DV?$string_output_adapter@D@__crt_stdio_output@@@2@@__crt_stdio_output@@AEAA_NXZ 00000001800899f0 f i libucrtd:output.obj
 0001:00088a10       ?type_case_u@?$output_processor@DV?$string_output_adapter@D@__crt_stdio_output@@V?$positional_parameter_base@DV?$string_output_adapter@D@__crt_stdio_output@@@2@@__crt_stdio_output@@AEAA_NXZ 0000000180089a10 f i libucrtd:output.obj
 0001:00088a30       ?type_case_u@?$output_processor@DV?$string_output_adapter@D@__crt_stdio_output@@V?$standard_base@DV?$string_output_adapter@D@__crt_stdio_output@@@2@@__crt_stdio_output@@AEAA_NXZ 0000000180089a30 f i libucrtd:output.obj
 0001:00088a50       ?type_case_u@?$output_processor@_WV?$stream_output_adapter@_W@__crt_stdio_output@@V?$format_validation_base@_WV?$stream_output_adapter@_W@__crt_stdio_output@@@2@@__crt_stdio_output@@AEAA_NXZ 0000000180089a50 f i libucrtd:output.obj
 0001:00088a70       ?type_case_u@?$output_processor@_WV?$stream_output_adapter@_W@__crt_stdio_output@@V?$positional_parameter_base@_WV?$stream_output_adapter@_W@__crt_stdio_output@@@2@@__crt_stdio_output@@AEAA_NXZ 0000000180089a70 f i libucrtd:output.obj
 0001:00088a90       ?type_case_u@?$output_processor@_WV?$stream_output_adapter@_W@__crt_stdio_output@@V?$standard_base@_WV?$stream_output_adapter@_W@__crt_stdio_output@@@2@@__crt_stdio_output@@AEAA_NXZ 0000000180089a90 f i libucrtd:output.obj
 0001:00088ab0       ?type_case_u@?$output_processor@_WV?$string_output_adapter@_W@__crt_stdio_output@@V?$format_validation_base@_WV?$string_output_adapter@_W@__crt_stdio_output@@@2@@__crt_stdio_output@@AEAA_NXZ 0000000180089ab0 f i libucrtd:output.obj
 0001:00088ad0       ?type_case_u@?$output_processor@_WV?$string_output_adapter@_W@__crt_stdio_output@@V?$positional_parameter_base@_WV?$string_output_adapter@_W@__crt_stdio_output@@@2@@__crt_stdio_output@@AEAA_NXZ 0000000180089ad0 f i libucrtd:output.obj
 0001:00088af0       ?type_case_u@?$output_processor@_WV?$string_output_adapter@_W@__crt_stdio_output@@V?$standard_base@_WV?$string_output_adapter@_W@__crt_stdio_output@@@2@@__crt_stdio_output@@AEAA_NXZ 0000000180089af0 f i libucrtd:output.obj
 0001:00088b10       ?type_case_x@?$output_processor@DV?$stream_output_adapter@D@__crt_stdio_output@@V?$format_validation_base@DV?$stream_output_adapter@D@__crt_stdio_output@@@2@@__crt_stdio_output@@AEAA_NXZ 0000000180089b10 f i libucrtd:output.obj
 0001:00088b30       ?type_case_x@?$output_processor@DV?$stream_output_adapter@D@__crt_stdio_output@@V?$positional_parameter_base@DV?$stream_output_adapter@D@__crt_stdio_output@@@2@@__crt_stdio_output@@AEAA_NXZ 0000000180089b30 f i libucrtd:output.obj
 0001:00088b50       ?type_case_x@?$output_processor@DV?$stream_output_adapter@D@__crt_stdio_output@@V?$standard_base@DV?$stream_output_adapter@D@__crt_stdio_output@@@2@@__crt_stdio_output@@AEAA_NXZ 0000000180089b50 f i libucrtd:output.obj
 0001:00088b70       ?type_case_x@?$output_processor@DV?$string_output_adapter@D@__crt_stdio_output@@V?$format_validation_base@DV?$string_output_adapter@D@__crt_stdio_output@@@2@@__crt_stdio_output@@AEAA_NXZ 0000000180089b70 f i libucrtd:output.obj
 0001:00088b90       ?type_case_x@?$output_processor@DV?$string_output_adapter@D@__crt_stdio_output@@V?$positional_parameter_base@DV?$string_output_adapter@D@__crt_stdio_output@@@2@@__crt_stdio_output@@AEAA_NXZ 0000000180089b90 f i libucrtd:output.obj
 0001:00088bb0       ?type_case_x@?$output_processor@DV?$string_output_adapter@D@__crt_stdio_output@@V?$standard_base@DV?$string_output_adapter@D@__crt_stdio_output@@@2@@__crt_stdio_output@@AEAA_NXZ 0000000180089bb0 f i libucrtd:output.obj
 0001:00088bd0       ?type_case_x@?$output_processor@_WV?$stream_output_adapter@_W@__crt_stdio_output@@V?$format_validation_base@_WV?$stream_output_adapter@_W@__crt_stdio_output@@@2@@__crt_stdio_output@@AEAA_NXZ 0000000180089bd0 f i libucrtd:output.obj
 0001:00088bf0       ?type_case_x@?$output_processor@_WV?$stream_output_adapter@_W@__crt_stdio_output@@V?$positional_parameter_base@_WV?$stream_output_adapter@_W@__crt_stdio_output@@@2@@__crt_stdio_output@@AEAA_NXZ 0000000180089bf0 f i libucrtd:output.obj
 0001:00088c10       ?type_case_x@?$output_processor@_WV?$stream_output_adapter@_W@__crt_stdio_output@@V?$standard_base@_WV?$stream_output_adapter@_W@__crt_stdio_output@@@2@@__crt_stdio_output@@AEAA_NXZ 0000000180089c10 f i libucrtd:output.obj
 0001:00088c30       ?type_case_x@?$output_processor@_WV?$string_output_adapter@_W@__crt_stdio_output@@V?$format_validation_base@_WV?$string_output_adapter@_W@__crt_stdio_output@@@2@@__crt_stdio_output@@AEAA_NXZ 0000000180089c30 f i libucrtd:output.obj
 0001:00088c50       ?type_case_x@?$output_processor@_WV?$string_output_adapter@_W@__crt_stdio_output@@V?$positional_parameter_base@_WV?$string_output_adapter@_W@__crt_stdio_output@@@2@@__crt_stdio_output@@AEAA_NXZ 0000000180089c50 f i libucrtd:output.obj
 0001:00088c70       ?type_case_x@?$output_processor@_WV?$string_output_adapter@_W@__crt_stdio_output@@V?$standard_base@_WV?$string_output_adapter@_W@__crt_stdio_output@@@2@@__crt_stdio_output@@AEAA_NXZ 0000000180089c70 f i libucrtd:output.obj
 0001:00088c90       ?unget@?$c_string_character_source@D@__crt_strtox@@QEAAXD@Z 0000000180089c90 f i libucrtd:output.obj
 0001:00088d70       ?unget@?$c_string_character_source@_W@__crt_strtox@@QEAAX_W@Z 0000000180089d70 f i libucrtd:output.obj
 0001:00088e50       ?unsafe_value@?$cached@H@__crt_cached_ptd_host@@QEAAHXZ 0000000180089e50 f i libucrtd:output.obj
 0001:00088e60       ?unsafe_value@?$cached@K@__crt_cached_ptd_host@@QEAAKXZ 0000000180089e60 f i libucrtd:output.obj
 0001:00088e70       ?unset_flag@?$output_processor@DV?$stream_output_adapter@D@__crt_stdio_output@@V?$format_validation_base@DV?$stream_output_adapter@D@__crt_stdio_output@@@2@@__crt_stdio_output@@AEAAXI@Z 0000000180089e70 f i libucrtd:output.obj
 0001:00088ea0       ?unset_flag@?$output_processor@DV?$stream_output_adapter@D@__crt_stdio_output@@V?$positional_parameter_base@DV?$stream_output_adapter@D@__crt_stdio_output@@@2@@__crt_stdio_output@@AEAAXI@Z 0000000180089ea0 f i libucrtd:output.obj
 0001:00088ed0       ?unset_flag@?$output_processor@DV?$stream_output_adapter@D@__crt_stdio_output@@V?$standard_base@DV?$stream_output_adapter@D@__crt_stdio_output@@@2@@__crt_stdio_output@@AEAAXI@Z 0000000180089ed0 f i libucrtd:output.obj
 0001:00088f00       ?unset_flag@?$output_processor@DV?$string_output_adapter@D@__crt_stdio_output@@V?$format_validation_base@DV?$string_output_adapter@D@__crt_stdio_output@@@2@@__crt_stdio_output@@AEAAXI@Z 0000000180089f00 f i libucrtd:output.obj
 0001:00088f30       ?unset_flag@?$output_processor@DV?$string_output_adapter@D@__crt_stdio_output@@V?$positional_parameter_base@DV?$string_output_adapter@D@__crt_stdio_output@@@2@@__crt_stdio_output@@AEAAXI@Z 0000000180089f30 f i libucrtd:output.obj
 0001:00088f60       ?unset_flag@?$output_processor@DV?$string_output_adapter@D@__crt_stdio_output@@V?$standard_base@DV?$string_output_adapter@D@__crt_stdio_output@@@2@@__crt_stdio_output@@AEAAXI@Z 0000000180089f60 f i libucrtd:output.obj
 0001:00088f90       ?unset_flag@?$output_processor@_WV?$stream_output_adapter@_W@__crt_stdio_output@@V?$format_validation_base@_WV?$stream_output_adapter@_W@__crt_stdio_output@@@2@@__crt_stdio_output@@AEAAXI@Z 0000000180089f90 f i libucrtd:output.obj
 0001:00088fc0       ?unset_flag@?$output_processor@_WV?$stream_output_adapter@_W@__crt_stdio_output@@V?$positional_parameter_base@_WV?$stream_output_adapter@_W@__crt_stdio_output@@@2@@__crt_stdio_output@@AEAAXI@Z 0000000180089fc0 f i libucrtd:output.obj
 0001:00088ff0       ?unset_flag@?$output_processor@_WV?$stream_output_adapter@_W@__crt_stdio_output@@V?$standard_base@_WV?$stream_output_adapter@_W@__crt_stdio_output@@@2@@__crt_stdio_output@@AEAAXI@Z 0000000180089ff0 f i libucrtd:output.obj
 0001:00089020       ?unset_flag@?$output_processor@_WV?$string_output_adapter@_W@__crt_stdio_output@@V?$format_validation_base@_WV?$string_output_adapter@_W@__crt_stdio_output@@@2@@__crt_stdio_output@@AEAAXI@Z 000000018008a020 f i libucrtd:output.obj
 0001:00089050       ?unset_flag@?$output_processor@_WV?$string_output_adapter@_W@__crt_stdio_output@@V?$positional_parameter_base@_WV?$string_output_adapter@_W@__crt_stdio_output@@@2@@__crt_stdio_output@@AEAAXI@Z 000000018008a050 f i libucrtd:output.obj
 0001:00089080       ?unset_flag@?$output_processor@_WV?$string_output_adapter@_W@__crt_stdio_output@@V?$standard_base@_WV?$string_output_adapter@_W@__crt_stdio_output@@@2@@__crt_stdio_output@@AEAAXI@Z 000000018008a080 f i libucrtd:output.obj
 0001:000890b0       ?update_field_width@?$positional_parameter_base@DV?$stream_output_adapter@D@__crt_stdio_output@@@__crt_stdio_output@@IEAA_NXZ 000000018008a0b0 f i libucrtd:output.obj
 0001:000892b0       ?update_field_width@?$positional_parameter_base@DV?$string_output_adapter@D@__crt_stdio_output@@@__crt_stdio_output@@IEAA_NXZ 000000018008a2b0 f i libucrtd:output.obj
 0001:000894b0       ?update_field_width@?$positional_parameter_base@_WV?$stream_output_adapter@_W@__crt_stdio_output@@@__crt_stdio_output@@IEAA_NXZ 000000018008a4b0 f i libucrtd:output.obj
 0001:000896b0       ?update_field_width@?$positional_parameter_base@_WV?$string_output_adapter@_W@__crt_stdio_output@@@__crt_stdio_output@@IEAA_NXZ 000000018008a6b0 f i libucrtd:output.obj
 0001:000898b0       ?update_field_width@?$standard_base@DV?$stream_output_adapter@D@__crt_stdio_output@@@__crt_stdio_output@@IEAA_NXZ 000000018008a8b0 f i libucrtd:output.obj
 0001:000898e0       ?update_field_width@?$standard_base@DV?$string_output_adapter@D@__crt_stdio_output@@@__crt_stdio_output@@IEAA_NXZ 000000018008a8e0 f i libucrtd:output.obj
 0001:00089910       ?update_field_width@?$standard_base@_WV?$stream_output_adapter@_W@__crt_stdio_output@@@__crt_stdio_output@@IEAA_NXZ 000000018008a910 f i libucrtd:output.obj
 0001:00089940       ?update_field_width@?$standard_base@_WV?$string_output_adapter@_W@__crt_stdio_output@@@__crt_stdio_output@@IEAA_NXZ 000000018008a940 f i libucrtd:output.obj
 0001:00089970       ?update_locale@__crt_cached_ptd_host@@AEAAXXZ 000000018008a970 f i libucrtd:output.obj
 0001:000899a0       ?update_locale_slow@__crt_cached_ptd_host@@AEAAXXZ 000000018008a9a0 f i libucrtd:output.obj
 0001:00089a50       ?update_precision@?$positional_parameter_base@DV?$stream_output_adapter@D@__crt_stdio_output@@@__crt_stdio_output@@IEAA_NXZ 000000018008aa50 f i libucrtd:output.obj
 0001:00089c50       ?update_precision@?$positional_parameter_base@DV?$string_output_adapter@D@__crt_stdio_output@@@__crt_stdio_output@@IEAA_NXZ 000000018008ac50 f i libucrtd:output.obj
 0001:00089e50       ?update_precision@?$positional_parameter_base@_WV?$stream_output_adapter@_W@__crt_stdio_output@@@__crt_stdio_output@@IEAA_NXZ 000000018008ae50 f i libucrtd:output.obj
 0001:0008a050       ?update_precision@?$positional_parameter_base@_WV?$string_output_adapter@_W@__crt_stdio_output@@@__crt_stdio_output@@IEAA_NXZ 000000018008b050 f i libucrtd:output.obj
 0001:0008a250       ?update_precision@?$standard_base@DV?$stream_output_adapter@D@__crt_stdio_output@@@__crt_stdio_output@@IEAA_NXZ 000000018008b250 f i libucrtd:output.obj
 0001:0008a280       ?update_precision@?$standard_base@DV?$string_output_adapter@D@__crt_stdio_output@@@__crt_stdio_output@@IEAA_NXZ 000000018008b280 f i libucrtd:output.obj
 0001:0008a2b0       ?update_precision@?$standard_base@_WV?$stream_output_adapter@_W@__crt_stdio_output@@@__crt_stdio_output@@IEAA_NXZ 000000018008b2b0 f i libucrtd:output.obj
 0001:0008a2e0       ?update_precision@?$standard_base@_WV?$string_output_adapter@_W@__crt_stdio_output@@@__crt_stdio_output@@IEAA_NXZ 000000018008b2e0 f i libucrtd:output.obj
 0001:0008a310       ?valid@?$cached@H@__crt_cached_ptd_host@@QEBA_NXZ 000000018008b310 f i libucrtd:output.obj
 0001:0008a320       ?valid@?$cached@K@__crt_cached_ptd_host@@QEBA_NXZ 000000018008b320 f i libucrtd:output.obj
 0001:0008a330       ?valid@__crt_stdio_stream@@QEBA_NXZ 000000018008b330 f i libucrtd:output.obj
 0001:0008a360       ?validate@?$c_string_character_source@D@__crt_strtox@@QEBA_NXZ 000000018008b360 f i libucrtd:output.obj
 0001:0008a420       ?validate@?$c_string_character_source@_W@__crt_strtox@@QEBA_NXZ 000000018008b420 f i libucrtd:output.obj
 0001:0008a4e0       ?validate@?$stream_output_adapter@D@__crt_stdio_output@@QEBA_NAEAV__crt_cached_ptd_host@@@Z 000000018008b4e0 f i libucrtd:output.obj
 0001:0008a5e0       ?validate@?$stream_output_adapter@_W@__crt_stdio_output@@QEBA_NAEAV__crt_cached_ptd_host@@@Z 000000018008b5e0 f i libucrtd:output.obj
 0001:0008a6e0       ?validate@?$string_output_adapter@D@__crt_stdio_output@@QEBA_NAEAV__crt_cached_ptd_host@@@Z 000000018008b6e0 f i libucrtd:output.obj
 0001:0008a7c0       ?validate@?$string_output_adapter@_W@__crt_stdio_output@@QEBA_NAEAV__crt_cached_ptd_host@@@Z 000000018008b7c0 f i libucrtd:output.obj
 0001:0008a8a0       ?validate_and_store_parameter_data@?$positional_parameter_base@DV?$stream_output_adapter@D@__crt_stdio_output@@@__crt_stdio_output@@AEAA_NAEAUparameter_data@12@W4parameter_type@12@DW4length_modifier@2@@Z 000000018008b8a0 f i libucrtd:output.obj
 0001:0008a9e0       ?validate_and_store_parameter_data@?$positional_parameter_base@DV?$string_output_adapter@D@__crt_stdio_output@@@__crt_stdio_output@@AEAA_NAEAUparameter_data@12@W4parameter_type@12@DW4length_modifier@2@@Z 000000018008b9e0 f i libucrtd:output.obj
 0001:0008ab20       ?validate_and_store_parameter_data@?$positional_parameter_base@_WV?$stream_output_adapter@_W@__crt_stdio_output@@@__crt_stdio_output@@AEAA_NAEAUparameter_data@12@W4parameter_type@12@_WW4length_modifier@2@@Z 000000018008bb20 f i libucrtd:output.obj
 0001:0008ac60       ?validate_and_store_parameter_data@?$positional_parameter_base@_WV?$string_output_adapter@_W@__crt_stdio_output@@@__crt_stdio_output@@AEAA_NAEAUparameter_data@12@W4parameter_type@12@_WW4length_modifier@2@@Z 000000018008bc60 f i libucrtd:output.obj
 0001:0008ada0       ?validate_and_update_state_at_beginning_of_format_character@?$positional_parameter_base@DV?$stream_output_adapter@D@__crt_stdio_output@@@__crt_stdio_output@@IEAA_NXZ 000000018008bda0 f i libucrtd:output.obj
 0001:0008b040       ?validate_and_update_state_at_beginning_of_format_character@?$positional_parameter_base@DV?$string_output_adapter@D@__crt_stdio_output@@@__crt_stdio_output@@IEAA_NXZ 000000018008c040 f i libucrtd:output.obj
 0001:0008b2e0       ?validate_and_update_state_at_beginning_of_format_character@?$positional_parameter_base@_WV?$stream_output_adapter@_W@__crt_stdio_output@@@__crt_stdio_output@@IEAA_NXZ 000000018008c2e0 f i libucrtd:output.obj
 0001:0008b580       ?validate_and_update_state_at_beginning_of_format_character@?$positional_parameter_base@_WV?$string_output_adapter@_W@__crt_stdio_output@@@__crt_stdio_output@@IEAA_NXZ 000000018008c580 f i libucrtd:output.obj
 0001:0008b820       ?validate_and_update_state_at_beginning_of_format_character@?$standard_base@DV?$stream_output_adapter@D@__crt_stdio_output@@@__crt_stdio_output@@IEAA_NXZ 000000018008c820 f i libucrtd:output.obj
 0001:0008b830       ?validate_and_update_state_at_beginning_of_format_character@?$standard_base@DV?$string_output_adapter@D@__crt_stdio_output@@@__crt_stdio_output@@IEAA_NXZ 000000018008c830 f i libucrtd:output.obj
 0001:0008b840       ?validate_and_update_state_at_beginning_of_format_character@?$standard_base@_WV?$stream_output_adapter@_W@__crt_stdio_output@@@__crt_stdio_output@@IEAA_NXZ 000000018008c840 f i libucrtd:output.obj
 0001:0008b850       ?validate_and_update_state_at_beginning_of_format_character@?$standard_base@_WV?$string_output_adapter@_W@__crt_stdio_output@@@__crt_stdio_output@@IEAA_NXZ 000000018008c850 f i libucrtd:output.obj
 0001:0008b860       ?validate_and_update_state_at_end_of_format_string@?$format_validation_base@DV?$stream_output_adapter@D@__crt_stdio_output@@@__crt_stdio_output@@IEAA_NXZ 000000018008c860 f i libucrtd:output.obj
 0001:0008b950       ?validate_and_update_state_at_end_of_format_string@?$format_validation_base@DV?$string_output_adapter@D@__crt_stdio_output@@@__crt_stdio_output@@IEAA_NXZ 000000018008c950 f i libucrtd:output.obj
 0001:0008ba40       ?validate_and_update_state_at_end_of_format_string@?$format_validation_base@_WV?$stream_output_adapter@_W@__crt_stdio_output@@@__crt_stdio_output@@IEAA_NXZ 000000018008ca40 f i libucrtd:output.obj
 0001:0008bb30       ?validate_and_update_state_at_end_of_format_string@?$format_validation_base@_WV?$string_output_adapter@_W@__crt_stdio_output@@@__crt_stdio_output@@IEAA_NXZ 000000018008cb30 f i libucrtd:output.obj
 0001:0008bc20       ?validate_and_update_state_at_end_of_format_string@?$positional_parameter_base@DV?$stream_output_adapter@D@__crt_stdio_output@@@__crt_stdio_output@@IEAA_NXZ 000000018008cc20 f i libucrtd:output.obj
 0001:0008be50       ?validate_and_update_state_at_end_of_format_string@?$positional_parameter_base@DV?$string_output_adapter@D@__crt_stdio_output@@@__crt_stdio_output@@IEAA_NXZ 000000018008ce50 f i libucrtd:output.obj
 0001:0008c080       ?validate_and_update_state_at_end_of_format_string@?$positional_parameter_base@_WV?$stream_output_adapter@_W@__crt_stdio_output@@@__crt_stdio_output@@IEAA_NXZ 000000018008d080 f i libucrtd:output.obj
 0001:0008c2b0       ?validate_and_update_state_at_end_of_format_string@?$positional_parameter_base@_WV?$string_output_adapter@_W@__crt_stdio_output@@@__crt_stdio_output@@IEAA_NXZ 000000018008d2b0 f i libucrtd:output.obj
 0001:0008c4e0       ?validate_and_update_state_at_end_of_format_string@?$standard_base@DV?$stream_output_adapter@D@__crt_stdio_output@@@__crt_stdio_output@@IEBA_NXZ 000000018008d4e0 f i libucrtd:output.obj
 0001:0008c4f0       ?validate_and_update_state_at_end_of_format_string@?$standard_base@DV?$string_output_adapter@D@__crt_stdio_output@@@__crt_stdio_output@@IEBA_NXZ 000000018008d4f0 f i libucrtd:output.obj
 0001:0008c500       ?validate_and_update_state_at_end_of_format_string@?$standard_base@_WV?$stream_output_adapter@_W@__crt_stdio_output@@@__crt_stdio_output@@IEBA_NXZ 000000018008d500 f i libucrtd:output.obj
 0001:0008c510       ?validate_and_update_state_at_end_of_format_string@?$standard_base@_WV?$string_output_adapter@_W@__crt_stdio_output@@@__crt_stdio_output@@IEBA_NXZ 000000018008d510 f i libucrtd:output.obj
 0001:0008c520       ?validate_state_for_type_case_a@?$positional_parameter_base@DV?$stream_output_adapter@D@__crt_stdio_output@@@__crt_stdio_output@@IEAA_NXZ 000000018008d520 f i libucrtd:output.obj
 0001:0008c680       ?validate_state_for_type_case_a@?$positional_parameter_base@DV?$string_output_adapter@D@__crt_stdio_output@@@__crt_stdio_output@@IEAA_NXZ 000000018008d680 f i libucrtd:output.obj
 0001:0008c7e0       ?validate_state_for_type_case_a@?$positional_parameter_base@_WV?$stream_output_adapter@_W@__crt_stdio_output@@@__crt_stdio_output@@IEAA_NXZ 000000018008d7e0 f i libucrtd:output.obj
 0001:0008c940       ?validate_state_for_type_case_a@?$positional_parameter_base@_WV?$string_output_adapter@_W@__crt_stdio_output@@@__crt_stdio_output@@IEAA_NXZ 000000018008d940 f i libucrtd:output.obj
 0001:0008caa0       ?validate_state_for_type_case_a@?$standard_base@DV?$stream_output_adapter@D@__crt_stdio_output@@@__crt_stdio_output@@IEBA_NXZ 000000018008daa0 f i libucrtd:output.obj
 0001:0008cab0       ?validate_state_for_type_case_a@?$standard_base@DV?$string_output_adapter@D@__crt_stdio_output@@@__crt_stdio_output@@IEBA_NXZ 000000018008dab0 f i libucrtd:output.obj
 0001:0008cac0       ?validate_state_for_type_case_a@?$standard_base@_WV?$stream_output_adapter@_W@__crt_stdio_output@@@__crt_stdio_output@@IEBA_NXZ 000000018008dac0 f i libucrtd:output.obj
 0001:0008cad0       ?validate_state_for_type_case_a@?$standard_base@_WV?$string_output_adapter@_W@__crt_stdio_output@@@__crt_stdio_output@@IEBA_NXZ 000000018008dad0 f i libucrtd:output.obj
 0001:0008cae0       ?validate_stream_is_ansi_if_required@?$__acrt_stdio_char_traits@D@@SA_NQEAU_iobuf@@@Z 000000018008dae0 f i libucrtd:output.obj
 0001:0008cc70       ?validate_stream_is_ansi_if_required@?$__acrt_stdio_char_traits@_W@@SA_NQEAU_iobuf@@@Z 000000018008dc70 f i libucrtd:output.obj
 0001:0008cc80       ?wide_character_to_digit@__crt_strtox@@YAH_W@Z 000000018008dc80 f i libucrtd:output.obj
 0001:0008cff0       ?wide_null_string@?$output_processor@DV?$stream_output_adapter@D@__crt_stdio_output@@V?$format_validation_base@DV?$stream_output_adapter@D@__crt_stdio_output@@@2@@__crt_stdio_output@@CAPEA_WXZ 000000018008dff0 f i libucrtd:output.obj
 0001:0008d000       ?wide_null_string@?$output_processor@DV?$stream_output_adapter@D@__crt_stdio_output@@V?$positional_parameter_base@DV?$stream_output_adapter@D@__crt_stdio_output@@@2@@__crt_stdio_output@@CAPEA_WXZ 000000018008e000 f i libucrtd:output.obj
 0001:0008d010       ?wide_null_string@?$output_processor@DV?$stream_output_adapter@D@__crt_stdio_output@@V?$standard_base@DV?$stream_output_adapter@D@__crt_stdio_output@@@2@@__crt_stdio_output@@CAPEA_WXZ 000000018008e010 f i libucrtd:output.obj
 0001:0008d020       ?wide_null_string@?$output_processor@DV?$string_output_adapter@D@__crt_stdio_output@@V?$format_validation_base@DV?$string_output_adapter@D@__crt_stdio_output@@@2@@__crt_stdio_output@@CAPEA_WXZ 000000018008e020 f i libucrtd:output.obj
 0001:0008d030       ?wide_null_string@?$output_processor@DV?$string_output_adapter@D@__crt_stdio_output@@V?$positional_parameter_base@DV?$string_output_adapter@D@__crt_stdio_output@@@2@@__crt_stdio_output@@CAPEA_WXZ 000000018008e030 f i libucrtd:output.obj
 0001:0008d040       ?wide_null_string@?$output_processor@DV?$string_output_adapter@D@__crt_stdio_output@@V?$standard_base@DV?$string_output_adapter@D@__crt_stdio_output@@@2@@__crt_stdio_output@@CAPEA_WXZ 000000018008e040 f i libucrtd:output.obj
 0001:0008d050       ?wide_null_string@?$output_processor@_WV?$stream_output_adapter@_W@__crt_stdio_output@@V?$format_validation_base@_WV?$stream_output_adapter@_W@__crt_stdio_output@@@2@@__crt_stdio_output@@CAPEA_WXZ 000000018008e050 f i libucrtd:output.obj
 0001:0008d060       ?wide_null_string@?$output_processor@_WV?$stream_output_adapter@_W@__crt_stdio_output@@V?$positional_parameter_base@_WV?$stream_output_adapter@_W@__crt_stdio_output@@@2@@__crt_stdio_output@@CAPEA_WXZ 000000018008e060 f i libucrtd:output.obj
 0001:0008d070       ?wide_null_string@?$output_processor@_WV?$stream_output_adapter@_W@__crt_stdio_output@@V?$standard_base@_WV?$stream_output_adapter@_W@__crt_stdio_output@@@2@@__crt_stdio_output@@CAPEA_WXZ 000000018008e070 f i libucrtd:output.obj
 0001:0008d080       ?wide_null_string@?$output_processor@_WV?$string_output_adapter@_W@__crt_stdio_output@@V?$format_validation_base@_WV?$string_output_adapter@_W@__crt_stdio_output@@@2@@__crt_stdio_output@@CAPEA_WXZ 000000018008e080 f i libucrtd:output.obj
 0001:0008d090       ?wide_null_string@?$output_processor@_WV?$string_output_adapter@_W@__crt_stdio_output@@V?$positional_parameter_base@_WV?$string_output_adapter@_W@__crt_stdio_output@@@2@@__crt_stdio_output@@CAPEA_WXZ 000000018008e090 f i libucrtd:output.obj
 0001:0008d0a0       ?wide_null_string@?$output_processor@_WV?$string_output_adapter@_W@__crt_stdio_output@@V?$standard_base@_WV?$string_output_adapter@_W@__crt_stdio_output@@@2@@__crt_stdio_output@@CAPEA_WXZ 000000018008e0a0 f i libucrtd:output.obj
 0001:0008d0b0       ?write_character@?$output_adapter_common@DV?$stream_output_adapter@D@__crt_stdio_output@@@__crt_stdio_output@@QEBAXDQEAHAEAV__crt_cached_ptd_host@@@Z 000000018008e0b0 f i libucrtd:output.obj
 0001:0008d110       ?write_character@?$output_adapter_common@_WV?$stream_output_adapter@_W@__crt_stdio_output@@@__crt_stdio_output@@QEBAX_WQEAHAEAV__crt_cached_ptd_host@@@Z 000000018008e110 f i libucrtd:output.obj
 0001:0008d170       ?write_character@?$string_output_adapter@D@__crt_stdio_output@@QEBA_NDQEAHAEAV__crt_cached_ptd_host@@@Z 000000018008e170 f i libucrtd:output.obj
 0001:0008d240       ?write_character@?$string_output_adapter@_W@__crt_stdio_output@@QEBA_N_WQEAHAEAV__crt_cached_ptd_host@@@Z 000000018008e240 f i libucrtd:output.obj
 0001:0008d310       ?write_character_without_count_update@?$stream_output_adapter@D@__crt_stdio_output@@QEBA_NDAEAV__crt_cached_ptd_host@@@Z 000000018008e310 f i libucrtd:output.obj
 0001:0008d3a0       ?write_character_without_count_update@?$stream_output_adapter@_W@__crt_stdio_output@@QEBA_N_WAEAV__crt_cached_ptd_host@@@Z 000000018008e3a0 f i libucrtd:output.obj
 0001:0008d430       ?write_stored_string_tchar@?$output_processor@DV?$stream_output_adapter@D@__crt_stdio_output@@V?$format_validation_base@DV?$stream_output_adapter@D@__crt_stdio_output@@@2@@__crt_stdio_output@@AEAA_ND@Z 000000018008e430 f i libucrtd:output.obj
 0001:0008d5e0       ?write_stored_string_tchar@?$output_processor@DV?$stream_output_adapter@D@__crt_stdio_output@@V?$positional_parameter_base@DV?$stream_output_adapter@D@__crt_stdio_output@@@2@@__crt_stdio_output@@AEAA_ND@Z 000000018008e5e0 f i libucrtd:output.obj
 0001:0008d790       ?write_stored_string_tchar@?$output_processor@DV?$stream_output_adapter@D@__crt_stdio_output@@V?$standard_base@DV?$stream_output_adapter@D@__crt_stdio_output@@@2@@__crt_stdio_output@@AEAA_ND@Z 000000018008e790 f i libucrtd:output.obj
 0001:0008d940       ?write_stored_string_tchar@?$output_processor@DV?$string_output_adapter@D@__crt_stdio_output@@V?$format_validation_base@DV?$string_output_adapter@D@__crt_stdio_output@@@2@@__crt_stdio_output@@AEAA_ND@Z 000000018008e940 f i libucrtd:output.obj
 0001:0008daf0       ?write_stored_string_tchar@?$output_processor@DV?$string_output_adapter@D@__crt_stdio_output@@V?$positional_parameter_base@DV?$string_output_adapter@D@__crt_stdio_output@@@2@@__crt_stdio_output@@AEAA_ND@Z 000000018008eaf0 f i libucrtd:output.obj
 0001:0008dca0       ?write_stored_string_tchar@?$output_processor@DV?$string_output_adapter@D@__crt_stdio_output@@V?$standard_base@DV?$string_output_adapter@D@__crt_stdio_output@@@2@@__crt_stdio_output@@AEAA_ND@Z 000000018008eca0 f i libucrtd:output.obj
 0001:0008de50       ?write_stored_string_tchar@?$output_processor@_WV?$stream_output_adapter@_W@__crt_stdio_output@@V?$format_validation_base@_WV?$stream_output_adapter@_W@__crt_stdio_output@@@2@@__crt_stdio_output@@AEAA_N_W@Z 000000018008ee50 f i libucrtd:output.obj
 0001:0008dfb0       ?write_stored_string_tchar@?$output_processor@_WV?$stream_output_adapter@_W@__crt_stdio_output@@V?$positional_parameter_base@_WV?$stream_output_adapter@_W@__crt_stdio_output@@@2@@__crt_stdio_output@@AEAA_N_W@Z 000000018008efb0 f i libucrtd:output.obj
 0001:0008e110       ?write_stored_string_tchar@?$output_processor@_WV?$stream_output_adapter@_W@__crt_stdio_output@@V?$standard_base@_WV?$stream_output_adapter@_W@__crt_stdio_output@@@2@@__crt_stdio_output@@AEAA_N_W@Z 000000018008f110 f i libucrtd:output.obj
 0001:0008e270       ?write_stored_string_tchar@?$output_processor@_WV?$string_output_adapter@_W@__crt_stdio_output@@V?$format_validation_base@_WV?$string_output_adapter@_W@__crt_stdio_output@@@2@@__crt_stdio_output@@AEAA_N_W@Z 000000018008f270 f i libucrtd:output.obj
 0001:0008e3d0       ?write_stored_string_tchar@?$output_processor@_WV?$string_output_adapter@_W@__crt_stdio_output@@V?$positional_parameter_base@_WV?$string_output_adapter@_W@__crt_stdio_output@@@2@@__crt_stdio_output@@AEAA_N_W@Z 000000018008f3d0 f i libucrtd:output.obj
 0001:0008e530       ?write_stored_string_tchar@?$output_processor@_WV?$string_output_adapter@_W@__crt_stdio_output@@V?$standard_base@_WV?$string_output_adapter@_W@__crt_stdio_output@@@2@@__crt_stdio_output@@AEAA_N_W@Z 000000018008f530 f i libucrtd:output.obj
 0001:0008e690       ?write_string@?$stream_output_adapter@D@__crt_stdio_output@@QEBAXQEBDHQEAHAEAV__crt_cached_ptd_host@@@Z 000000018008f690 f i libucrtd:output.obj
 0001:0008e710       ?write_string@?$stream_output_adapter@_W@__crt_stdio_output@@QEBAXQEB_WHQEAHAEAV__crt_cached_ptd_host@@@Z 000000018008f710 f i libucrtd:output.obj
 0001:0008e790       ?write_string@?$string_output_adapter@D@__crt_stdio_output@@QEBAXQEBDHQEAHAEAV__crt_cached_ptd_host@@@Z 000000018008f790 f i libucrtd:output.obj
 0001:0008e900       ?write_string@?$string_output_adapter@_W@__crt_stdio_output@@QEBAXQEB_WHQEAHAEAV__crt_cached_ptd_host@@@Z 000000018008f900 f i libucrtd:output.obj
 0001:0008ea70       ?write_string_impl@?$output_adapter_common@DV?$stream_output_adapter@D@__crt_stdio_output@@@__crt_stdio_output@@IEBAXQEBDHQEAHAEAV__crt_cached_ptd_host@@@Z 000000018008fa70 f i libucrtd:output.obj
 0001:0008eb90       ?write_string_impl@?$output_adapter_common@_WV?$stream_output_adapter@_W@__crt_stdio_output@@@__crt_stdio_output@@IEBAXQEB_WHQEAHAEAV__crt_cached_ptd_host@@@Z 000000018008fb90 f i libucrtd:output.obj
 0001:0008ecb0       __acrt_disable_global_locale_sync 000000018008fcb0 f i libucrtd:output.obj
 0001:0008ece0       __acrt_enable_global_locale_sync 000000018008fce0 f i libucrtd:output.obj
 0001:0008ed10       __acrt_isleadbyte_l_noupdate 000000018008fd10 f i libucrtd:output.obj
 0001:0008ed40       __acrt_locale_changed      000000018008fd40 f i libucrtd:output.obj
 0001:0008ed70       __acrt_locale_get_ctype_array_value 000000018008fd70 f i libucrtd:output.obj
 0001:0008edb0       __ascii_iswalpha           000000018008fdb0 f i libucrtd:output.obj
 0001:0008edf0       __ascii_toupper            000000018008fdf0 f i libucrtd:output.obj
 0001:0008ee10       __ascii_towupper           000000018008fe10 f i libucrtd:output.obj
 0001:0008ee30       __stdio_common_vfprintf    000000018008fe30 f   libucrtd:output.obj
 0001:0008eeb0       __stdio_common_vfprintf_p  000000018008feb0 f   libucrtd:output.obj
 0001:0008ef30       __stdio_common_vfprintf_s  000000018008ff30 f   libucrtd:output.obj
 0001:0008efb0       __stdio_common_vfwprintf   000000018008ffb0 f   libucrtd:output.obj
 0001:0008f030       __stdio_common_vfwprintf_p 0000000180090030 f   libucrtd:output.obj
 0001:0008f0b0       __stdio_common_vfwprintf_s 00000001800900b0 f   libucrtd:output.obj
 0001:0008f130       __stdio_common_vsnprintf_s 0000000180090130 f   libucrtd:output.obj
 0001:0008f1c0       __stdio_common_vsnwprintf_s 00000001800901c0 f   libucrtd:output.obj
 0001:0008f250       __stdio_common_vsprintf    0000000180090250 f   libucrtd:output.obj
 0001:0008f2e0       __stdio_common_vsprintf_p  00000001800902e0 f   libucrtd:output.obj
 0001:0008f370       __stdio_common_vsprintf_s  0000000180090370 f   libucrtd:output.obj
 0001:0008f400       __stdio_common_vswprintf   0000000180090400 f   libucrtd:output.obj
 0001:0008f490       __stdio_common_vswprintf_p 0000000180090490 f   libucrtd:output.obj
 0001:0008f520       __stdio_common_vswprintf_s 0000000180090520 f   libucrtd:output.obj
 0001:0008f5b0       _ctype_fast_check_internal 00000001800905b0 f i libucrtd:output.obj
 0001:0008f5e0       _isdigit_fast_internal     00000001800905e0 f i libucrtd:output.obj
 0001:0008f610       _tolower_fast_internal     0000000180090610 f i libucrtd:output.obj
 0001:0008f640       free                       0000000180090640 f   libucrtd:free.obj
 0001:0008f670       malloc                     0000000180090670 f   libucrtd:malloc.obj
 0001:0008f6a0       ??$?RU?$__crt_report_hook_node@D@@@__crt_internal_free_policy@@QEBAXQEBU?$__crt_report_hook_node@D@@@Z 00000001800906a0 f i libucrtd:dbgrpt.obj
 0001:0008f6d0       ??$?RU?$__crt_report_hook_node@_W@@@__crt_internal_free_policy@@QEBAXQEBU?$__crt_report_hook_node@_W@@@Z 00000001800906d0 f i libucrtd:dbgrpt.obj
 0001:00090930       ??$get_module_file_name@AEAPEAUHINSTANCE__@@AEAY0BAF@DK@?$__crt_char_traits@D@@SAKAEAPEAUHINSTANCE__@@AEAY0BAF@D$$QEAK@Z 0000000180091930 f i libucrtd:dbgrpt.obj
 0001:00090970       ??$get_module_file_name@AEAPEAUHINSTANCE__@@AEAY0BAF@_WK@?$__crt_char_traits@_W@@SAKAEAPEAUHINSTANCE__@@AEAY0BAF@_W$$QEAK@Z 0000000180091970 f i libucrtd:dbgrpt.obj
 0001:000909b0       ??$tcscpy_s@AEAY0BAF@D_KPEBD@?$__crt_char_traits@D@@SAHAEAY0BAF@D$$QEA_K$$QEAPEBD@Z 00000001800919b0 f i libucrtd:dbgrpt.obj
 0001:000909f0       ??$tcscpy_s@AEAY0BAF@_W_KPEB_W@?$__crt_char_traits@_W@@SAHAEAY0BAF@_W$$QEA_K$$QEAPEB_W@Z 00000001800919f0 f i libucrtd:dbgrpt.obj
 0001:00090a30       ??$tcslen@AEAY0BAF@D@?$__crt_char_traits@D@@SA_KAEAY0BAF@D@Z 0000000180091a30 f i libucrtd:dbgrpt.obj
 0001:00090a50       ??$tcslen@AEAY0BAF@_W@?$__crt_char_traits@_W@@SA_KAEAY0BAF@_W@Z 0000000180091a50 f i libucrtd:dbgrpt.obj
 0001:00090a70       ??$tcslen@AEBQEBD@?$__crt_char_traits@D@@SA_KAEBQEBD@Z 0000000180091a70 f i libucrtd:dbgrpt.obj
 0001:00090a90       ??$tcslen@AEBQEB_W@?$__crt_char_traits@_W@@SA_KAEBQEB_W@Z 0000000180091a90 f i libucrtd:dbgrpt.obj
 0001:00090b90       ??0?$__crt_unique_heap_ptr@U?$__crt_report_hook_node@D@@U__crt_internal_free_policy@@@@QEAA@QEAU?$__crt_report_hook_node@D@@@Z 0000000180091b90 f i libucrtd:dbgrpt.obj
 0001:00090bb0       ??0?$__crt_unique_heap_ptr@U?$__crt_report_hook_node@_W@@U__crt_internal_free_policy@@@@QEAA@QEAU?$__crt_report_hook_node@_W@@@Z 0000000180091bb0 f i libucrtd:dbgrpt.obj
 0001:00090bd0       ??1?$__crt_unique_heap_ptr@U?$__crt_report_hook_node@D@@U__crt_internal_free_policy@@@@QEAA@XZ 0000000180091bd0 f i libucrtd:dbgrpt.obj
 0001:00090bf0       ??1?$__crt_unique_heap_ptr@U?$__crt_report_hook_node@_W@@U__crt_internal_free_policy@@@@QEAA@XZ 0000000180091bf0 f i libucrtd:dbgrpt.obj
 0001:00090c10       ??B?$__crt_unique_heap_ptr@U?$__crt_report_hook_node@D@@U__crt_internal_free_policy@@@@QEBA_NXZ 0000000180091c10 f i libucrtd:dbgrpt.obj
 0001:00090c30       ??B?$__crt_unique_heap_ptr@U?$__crt_report_hook_node@_W@@U__crt_internal_free_policy@@@@QEBA_NXZ 0000000180091c30 f i libucrtd:dbgrpt.obj
 0001:00091350       ?detach@?$__crt_unique_heap_ptr@U?$__crt_report_hook_node@D@@U__crt_internal_free_policy@@@@QEAAPEAU?$__crt_report_hook_node@D@@XZ 0000000180092350 f i libucrtd:dbgrpt.obj
 0001:00091380       ?detach@?$__crt_unique_heap_ptr@U?$__crt_report_hook_node@_W@@U__crt_internal_free_policy@@@@QEAAPEAU?$__crt_report_hook_node@_W@@XZ 0000000180092380 f i libucrtd:dbgrpt.obj
 0001:000913b0       ?get@?$__crt_unique_heap_ptr@U?$__crt_report_hook_node@D@@U__crt_internal_free_policy@@@@QEBAPEAU?$__crt_report_hook_node@D@@XZ 00000001800923b0 f i libucrtd:dbgrpt.obj
 0001:000913c0       ?get@?$__crt_unique_heap_ptr@U?$__crt_report_hook_node@_W@@U__crt_internal_free_policy@@@@QEBAPEAU?$__crt_report_hook_node@_W@@XZ 00000001800923c0 f i libucrtd:dbgrpt.obj
 0001:00091430       ?is_valid@?$__crt_unique_heap_ptr@U?$__crt_report_hook_node@D@@U__crt_internal_free_policy@@@@QEBA_NXZ 0000000180092430 f i libucrtd:dbgrpt.obj
 0001:00091460       ?is_valid@?$__crt_unique_heap_ptr@U?$__crt_report_hook_node@_W@@U__crt_internal_free_policy@@@@QEBA_NXZ 0000000180092460 f i libucrtd:dbgrpt.obj
 0001:00091490       ?release@?$__crt_unique_heap_ptr@U?$__crt_report_hook_node@D@@U__crt_internal_free_policy@@@@QEAAXXZ 0000000180092490 f i libucrtd:dbgrpt.obj
 0001:000914c0       ?release@?$__crt_unique_heap_ptr@U?$__crt_report_hook_node@_W@@U__crt_internal_free_policy@@@@QEAAXXZ 00000001800924c0 f i libucrtd:dbgrpt.obj
 0001:000914f0       _CrtDbgReport              00000001800924f0 f   libucrtd:dbgrpt.obj
 0001:00091570       _CrtDbgReportW             0000000180092570 f   libucrtd:dbgrpt.obj
 0001:000915f0       _CrtSetReportHook2         00000001800925f0 f   libucrtd:dbgrpt.obj
 0001:00091610       _CrtSetReportHookW2        0000000180092610 f   libucrtd:dbgrpt.obj
 0001:00091630       __acrt_MessageWindowA      0000000180092630 f   libucrtd:dbgrpt.obj
 0001:00091680       __acrt_MessageWindowW      0000000180092680 f   libucrtd:dbgrpt.obj
 0001:000916d0       _invoke_watson_if_error    00000001800926d0 f i libucrtd:dbgrpt.obj
 0001:00091720       _invoke_watson_if_oneof    0000000180092720 f i libucrtd:dbgrpt.obj
 0001:00091780       _snwprintf_s               0000000180092780 f i libucrtd:dbgrpt.obj
 0001:000917f0       _vsnwprintf_s_l            00000001800927f0 f i libucrtd:dbgrpt.obj
 0001:00091d70       wcscpy_s                   0000000180092d70 f   libucrtd:wcscpy_s.obj
 0001:00093100       ??1?$__crt_simd_cleanup_guard@$00@@QEAA@XZ 0000000180094100 f i libucrtd:strnlen.obj
 0001:00093110       ??1?$__crt_simd_cleanup_guard@$0A@@@QEAA@XZ 0000000180094110 f i libucrtd:strnlen.obj
 0001:00093120       ?compare_equals@?$__crt_simd_traits@$00E@@SA?AT__m256i@@T2@0@Z 0000000180094120 f i libucrtd:strnlen.obj
 0001:00093160       ?compare_equals@?$__crt_simd_traits@$00G@@SA?AT__m256i@@T2@0@Z 0000000180094160 f i libucrtd:strnlen.obj
 0001:000931a0       ?compare_equals@?$__crt_simd_traits@$0A@E@@SA?AT__m128i@@T2@0@Z 00000001800941a0 f i libucrtd:strnlen.obj
 0001:000931d0       ?compare_equals@?$__crt_simd_traits@$0A@G@@SA?AT__m128i@@T2@0@Z 00000001800941d0 f i libucrtd:strnlen.obj
 0001:00093200       ?compute_byte_mask@?$__crt_simd_pack_traits@$00@@SAHT__m256i@@@Z 0000000180094200 f i libucrtd:strnlen.obj
 0001:00093220       ?compute_byte_mask@?$__crt_simd_pack_traits@$0A@@@SAHT__m128i@@@Z 0000000180094220 f i libucrtd:strnlen.obj
 0001:00093240       ?get_zero_pack@?$__crt_simd_pack_traits@$00@@SA?AT__m256i@@XZ 0000000180094240 f i libucrtd:strnlen.obj
 0001:00093270       ?get_zero_pack@?$__crt_simd_pack_traits@$0A@@@SA?AT__m128i@@XZ 0000000180094270 f i libucrtd:strnlen.obj
 0001:00093290       strnlen                    0000000180094290 f   libucrtd:strnlen.obj
 0001:000932c0       wcslen                     00000001800942c0 f   libucrtd:strnlen.obj
 0001:000932e0       wcsnlen                    00000001800942e0 f   libucrtd:strnlen.obj
 0001:00093310       ??$__crt_fast_decode_pointer@P6AXPEB_W00I_K@Z@@YAP6AXPEB_W00I_K@ZQ6AX000I1@Z@Z 0000000180094310 f i libucrtd:invalid_parameter.obj
 0001:00093350       ??$__crt_fast_encode_pointer@P6AXPEB_W00I_K@Z@@YAP6AXPEB_W00I_K@ZQ6AX000I1@Z@Z 0000000180094350 f i libucrtd:invalid_parameter.obj
 0001:00093390       ??$initialize_from_array@$$BY00Q6AXPEB_W00I_K@Z@?$dual_state_global@P6AXPEB_W00I_K@Z@__crt_state_management@@QEAAXAEAY00Q6AXPEB_W00I_K@Z@Z 0000000180094390 f i libucrtd:invalid_parameter.obj
 0001:000933f0       ?__crt_rotate_pointer_value@@YA_K_KH@Z 00000001800943f0 f i libucrtd:invalid_parameter.obj
 0001:000934b0       ?check_synchronize_global_state_index@__crt_cached_ptd_host@@AEAA_KXZ 00000001800944b0 f i libucrtd:invalid_parameter.obj
 0001:00093510       ?dangerous_get_state_array@?$dual_state_global@P6AXPEB_W00I_K@Z@__crt_state_management@@QEAAPEAP6AXPEB_W00I_K@ZXZ 0000000180094510 f i libucrtd:invalid_parameter.obj
 0001:00093520       ?get_current_global_state_index@__crt_cached_ptd_host@@QEAA_KXZ 0000000180094520 f i libucrtd:invalid_parameter.obj
 0001:00093540       ?get_current_state_index@__crt_state_management@@YA_KXZ 0000000180094540 f i libucrtd:invalid_parameter.obj
 0001:00093550       ?get_raw_ptd_noexit@__crt_cached_ptd_host@@QEAAPEAU__acrt_ptd@@XZ 0000000180094550 f i libucrtd:invalid_parameter.obj
 0001:00093570       ?try_synchronize_per_thread_data@__crt_cached_ptd_host@@AEAAPEAU__acrt_ptd@@XZ 0000000180094570 f i libucrtd:invalid_parameter.obj
 0001:000935a0       ?value@?$dual_state_global@P6AXPEB_W00I_K@Z@__crt_state_management@@QEAAAEAP6AXPEB_W00I_K@ZAEAV__crt_cached_ptd_host@@@Z 00000001800945a0 f i libucrtd:invalid_parameter.obj
 0001:000935d0       ?value@?$dual_state_global@P6AXPEB_W00I_K@Z@__crt_state_management@@QEAAAEAP6AXPEB_W00I_K@ZXZ 00000001800945d0 f i libucrtd:invalid_parameter.obj
 0001:000935f0       __acrt_call_reportfault    00000001800945f0 f   libucrtd:invalid_parameter.obj
 0001:00093720       __acrt_initialize_invalid_parameter_handler 0000000180094720 f   libucrtd:invalid_parameter.obj
 0001:00093750       _get_invalid_parameter_handler 0000000180094750 f   libucrtd:invalid_parameter.obj
 0001:00093770       _get_thread_local_invalid_parameter_handler 0000000180094770 f   libucrtd:invalid_parameter.obj
 0001:000937a0       _invalid_parameter         00000001800947a0 f   libucrtd:invalid_parameter.obj
 0001:00093810       _invalid_parameter_internal 0000000180094810 f   libucrtd:invalid_parameter.obj
 0001:00093960       _invalid_parameter_noinfo  0000000180094960 f   libucrtd:invalid_parameter.obj
 0001:00093990       _invalid_parameter_noinfo_noreturn 0000000180094990 f   libucrtd:invalid_parameter.obj
 0001:000939d0       _invoke_watson             00000001800949d0 f   libucrtd:invalid_parameter.obj
 0001:00093a30       _set_invalid_parameter_handler 0000000180094a30 f   libucrtd:invalid_parameter.obj
 0001:00093a80       _set_thread_local_invalid_parameter_handler 0000000180094a80 f   libucrtd:invalid_parameter.obj
 0001:00093ac0       ?get_doserrno@__crt_cached_ptd_host@@QEAAAEAU?$cached@K@1@XZ 0000000180094ac0 f i libucrtd:errno.obj
 0001:00093ad0       ?set@?$cached@K@__crt_cached_ptd_host@@QEAAKK@Z 0000000180094ad0 f i libucrtd:errno.obj
 0001:00093b00       __acrt_errno_from_os_error 0000000180094b00 f   libucrtd:errno.obj
 0001:00093b90       __acrt_errno_map_os_error  0000000180094b90 f   libucrtd:errno.obj
 0001:00093bc0       __acrt_errno_map_os_error_ptd 0000000180094bc0 f   libucrtd:errno.obj
 0001:00093c20       __doserrno                 0000000180094c20 f   libucrtd:errno.obj
 0001:00093c50       _errno                     0000000180094c50 f   libucrtd:errno.obj
 0001:00093c80       _get_doserrno              0000000180094c80 f   libucrtd:errno.obj
 0001:00093d40       _get_errno                 0000000180094d40 f   libucrtd:errno.obj
 0001:00093e00       _set_doserrno              0000000180094e00 f   libucrtd:errno.obj
 0001:00093e40       _set_errno                 0000000180094e40 f   libucrtd:errno.obj
 0001:00093e80       calloc                     0000000180094e80 f   libucrtd:calloc.obj
 0001:00093ec0       _recalloc                  0000000180094ec0 f   libucrtd:recalloc.obj
 0001:00093f10       _recalloc_base             0000000180094f10 f   libucrtd:recalloc.obj
 0001:00093ff0       _resetstkoflw              0000000180094ff0 f   libucrtd:resetstk.obj
 0001:000947f0       wcscat_s                   00000001800957f0 f   libucrtd:wcscat_s.obj
 0001:00094ed0       wcsncpy_s                  0000000180095ed0 f   libucrtd:wcsncpy_s.obj
 0001:00095050       __isascii                  0000000180096050 f   libucrtd:_ctype.obj
 0001:00095080       __iscsym                   0000000180096080 f   libucrtd:_ctype.obj
 0001:000950c0       __iscsymf                  00000001800960c0 f   libucrtd:_ctype.obj
 0001:00095100       __toascii                  0000000180096100 f   libucrtd:_ctype.obj
 0001:00095110       _isalnum_l                 0000000180096110 f   libucrtd:_ctype.obj
 0001:00095140       _isalpha_l                 0000000180096140 f   libucrtd:_ctype.obj
 0001:00095170       _isblank_l                 0000000180096170 f   libucrtd:_ctype.obj
 0001:000951a0       _iscntrl_l                 00000001800961a0 f   libucrtd:_ctype.obj
 0001:000951d0       _iscsym_l                  00000001800961d0 f   libucrtd:_ctype.obj
 0001:00095220       _iscsymf_l                 0000000180096220 f   libucrtd:_ctype.obj
 0001:00095270       _isdigit_l                 0000000180096270 f   libucrtd:_ctype.obj
 0001:000952a0       _isgraph_l                 00000001800962a0 f   libucrtd:_ctype.obj
 0001:000952d0       _islower_l                 00000001800962d0 f   libucrtd:_ctype.obj
 0001:00095300       _isprint_l                 0000000180096300 f   libucrtd:_ctype.obj
 0001:00095330       _ispunct_l                 0000000180096330 f   libucrtd:_ctype.obj
 0001:00095360       _isspace_l                 0000000180096360 f   libucrtd:_ctype.obj
 0001:00095390       _isupper_l                 0000000180096390 f   libucrtd:_ctype.obj
 0001:000953c0       _isxdigit_l                00000001800963c0 f   libucrtd:_ctype.obj
 0001:000953f0       isalnum                    00000001800963f0 f   libucrtd:_ctype.obj
 0001:00095410       isalpha                    0000000180096410 f   libucrtd:_ctype.obj
 0001:00095430       isblank                    0000000180096430 f   libucrtd:_ctype.obj
 0001:00095460       iscntrl                    0000000180096460 f   libucrtd:_ctype.obj
 0001:00095480       isdigit                    0000000180096480 f   libucrtd:_ctype.obj
 0001:000954a0       isgraph                    00000001800964a0 f   libucrtd:_ctype.obj
 0001:000954c0       islower                    00000001800964c0 f   libucrtd:_ctype.obj
 0001:000954e0       isprint                    00000001800964e0 f   libucrtd:_ctype.obj
 0001:00095500       ispunct                    0000000180096500 f   libucrtd:_ctype.obj
 0001:00095520       isspace                    0000000180096520 f   libucrtd:_ctype.obj
 0001:00095540       isupper                    0000000180096540 f   libucrtd:_ctype.obj
 0001:00095560       isxdigit                   0000000180096560 f   libucrtd:_ctype.obj
 0001:00095580       wcscat                     0000000180096580 f   libucrtd:wcscat.obj
 0001:00095610       wcscpy                     0000000180096610 f   libucrtd:wcscpy.obj
 0001:00095dc0       ??$open_file@AEBQEBDAEBQEBDAEBHPEAU_iobuf@@@?$__crt_char_traits@D@@SAPEAU_iobuf@@AEBQEBD0AEBH$$QEAPEAU1@@Z 0000000180096dc0 f i libucrtd:fopen.obj
 0001:00095e10       ??$open_file@AEBQEB_WAEBQEB_WAEBHPEAU_iobuf@@@?$__crt_char_traits@_W@@SAPEAU_iobuf@@AEBQEB_W0AEBH$$QEAPEAU1@@Z 0000000180096e10 f i libucrtd:fopen.obj
 0001:00095e60       ?unlock@__crt_stdio_stream@@QEBAXXZ 0000000180096e60 f i libucrtd:fopen.obj
 0001:00095e80       _fsopen                    0000000180096e80 f   libucrtd:fopen.obj
 0001:00095eb0       _wfopen                    0000000180096eb0 f   libucrtd:fopen.obj
 0001:00095ee0       _wfopen_s                  0000000180096ee0 f   libucrtd:fopen.obj
 0001:00095f10       _wfsopen                   0000000180096f10 f   libucrtd:fopen.obj
 0001:00095f40       fopen                      0000000180096f40 f   libucrtd:fopen.obj
 0001:00095f70       fopen_s                    0000000180096f70 f   libucrtd:fopen.obj
 0001:000962b0       ?is_in_use@__crt_stdio_stream@@QEBA_NXZ 00000001800972b0 f i libucrtd:fclose.obj
 0001:000962f0       _fclose_nolock             00000001800972f0 f   libucrtd:fclose.obj
 0001:00096330       fclose                     0000000180097330 f   libucrtd:fclose.obj
 0001:00096670       _fputc_nolock              0000000180097670 f   libucrtd:fputc.obj
 0001:000966c0       _fputc_nolock_internal     00000001800976c0 f   libucrtd:fputc.obj
 0001:00096780       _fputchar                  0000000180097780 f   libucrtd:fputc.obj
 0001:000967b0       _putc_nolock               00000001800977b0 f   libucrtd:fputc.obj
 0001:000967d0       fputc                      00000001800977d0 f   libucrtd:fputc.obj
 0001:00096820       putc                       0000000180097820 f   libucrtd:fputc.obj
 0001:00096840       putchar                    0000000180097840 f   libucrtd:fputc.obj
 0001:000968d0       _seh_filter_dll            00000001800978d0 f   libucrtd:exception_filter.obj
