 OPOSScale

 Timestamp is 5defaadb (Tue Dec 10 23:25:31 2019)

 Preferred load address is 0000000180000000

 Start         Length     Name                   Class
 0001:00000000 00001400H .text$di                CODE
 0001:00001400 000d5c60H .text$mn                CODE
 0001:000d7060 00000020H .text$mn$00             CODE
 0001:000d7080 00001370H .text$x                 CODE
 0001:000d83f0 000001b4H .text$yd                CODE
 0002:00000000 000006d8H .idata$5                DATA
 0002:000006d8 00000010H .00cfg                  DATA
 0002:000006e8 00000008H .CRT$XCA                DATA
 0002:000006f0 00000008H .CRT$XCL                DATA
 0002:000006f8 000000d8H .CRT$XCU                DATA
 0002:000007d0 00000008H .CRT$XCZ                DATA
 0002:000007d8 00000008H .CRT$XIA                DATA
 0002:000007e0 00000020H .CRT$XIC                DATA
 0002:00000800 00000008H .CRT$XIZ                DATA
 0002:00000808 00000008H .CRT$XLA                DATA
 0002:00000810 00000008H .CRT$XLZ                DATA
 0002:00000818 00000008H .CRT$XPA                DATA
 0002:00000820 00000010H .CRT$XPX                DATA
 0002:00000830 00000008H .CRT$XPXA               DATA
 0002:00000838 00000008H .CRT$XPZ                DATA
 0002:00000840 00000008H .CRT$XTA                DATA
 0002:00000848 00000008H .CRT$XTZ                DATA
 0002:00000850 00000000H .gfids$y                DATA
 0002:00000850 0003c0d8H .rdata                  DATA
 0002:0003c928 00000028H .rdata$T                DATA
 0002:0003c950 0000056cH .rdata$r                DATA
 0002:0003cebc 0000042cH .rdata$zzzdbg           DATA
 0002:0003d2e8 00000008H .rtc$IAA                DATA
 0002:0003d2f0 00000030H .rtc$IMZ                DATA
 0002:0003d320 00000008H .rtc$IZZ                DATA
 0002:0003d328 00000008H .rtc$TAA                DATA
 0002:0003d330 00000030H .rtc$TMZ                DATA
 0002:0003d360 00000008H .rtc$TZZ                DATA
 0002:0003d368 00000004H .tls                    DATA
 0002:0003d36c 00000004H .tls$                   DATA
 0002:0003d370 00000010H .tls$ZZZ                DATA
 0002:0003d380 000098e8H .xdata                  DATA
 0002:00046c68 00000150H .xdata$x                DATA
 0002:00046db8 00000008H ATL$__a                 DATA
 0002:00046dc0 00000010H ATL$__z                 DATA
 0002:00046dd0 000000a8H .edata                  DATA
 0002:00046e78 00000078H .idata$2                DATA
 0002:00046ef0 00000018H .idata$3                DATA
 0002:00046f08 000006d8H .idata$4                DATA
 0002:000475e0 00000db8H .idata$6                DATA
 0003:00000000 00000f18H .data                   DATA
 0003:00000f18 00000198H .data$r                 DATA
 0003:000010b0 00003eccH .bss                    DATA
 0004:00000000 0000c1a4H .pdata                  DATA
 0005:00000000 00000094H _RDATA                  DATA
 0006:00000000 00000220H .rsrc$01                DATA
 0006:00000220 000050c0H .rsrc$02                DATA

  Address         Publics by Value              Rva+Base               Lib:Object

 0000:00000000       __guard_iat_table          0000000000000000     <absolute>
 0000:00000000       __hybrid_code_map          0000000000000000     <absolute>
 0000:00000000       __guard_iat_count          0000000000000000     <absolute>
 0000:00000000       __guard_longjmp_count      0000000000000000     <absolute>
 0000:00000000       __dynamic_value_reloc_table 0000000000000000     <absolute>
 0000:00000000       __guard_longjmp_table      0000000000000000     <absolute>
 0000:00000000       ___safe_se_handler_table   0000000000000000     <absolute>
 0000:00000000       ___safe_se_handler_count   0000000000000000     <absolute>
 0000:00000000       __guard_fids_count         0000000000000000     <absolute>
 0000:00000000       __volatile_metadata        0000000000000000     <absolute>
 0000:00000000       __guard_fids_table         0000000000000000     <absolute>
 0000:00000000       __hybrid_auxiliary_iat     0000000000000000     <absolute>
 0000:00000000       __hybrid_code_map_count    0000000000000000     <absolute>
 0000:00000000       __AbsoluteZero             0000000000000000     <absolute>
 0000:00000000       __enclave_config           0000000000000000     <absolute>
 0000:00000100       __guard_flags              0000000000000100     <absolute>
 0000:00000000       __ImageBase                0000000180000000     <linker-defined>
 0001:00001400       ?_assert@@YAXPEB_W0I@Z     0000000180002400 f   Assert.obj
 0001:00001500       __local_stdio_printf_options 0000000180002500 f i Assert.obj
 0001:00001510       __vswprintf_l              0000000180002510 f i Assert.obj
 0001:00001570       _swprintf                  0000000180002570 f i Assert.obj
 0001:000015f0       _vswprintf_c_l             00000001800025f0 f i Assert.obj
 0001:00001680       _vswprintf_l               0000000180002680 f i Assert.obj
 0001:000016e0       ?cw_memcpy@@YAHPEADPEB_WH@Z 00000001800026e0 f   CWString.obj
 0001:00001770       ?cw_memcpy@@YAHPEA_WPEBDH@Z 0000000180002770 f   CWString.obj
 0001:000017f0       ?cw_memcpy@@YAHPEADPEBDH@Z 00000001800027f0 f   CWString.obj
 0001:00001890       ?cw_memcpy@@YAHPEA_WPEB_WH@Z 0000000180002890 f   CWString.obj
 0001:00001900       ?cw_memset@@YAXPEADDH@Z    0000000180002900 f   CWString.obj
 0001:00001970       ?cw_memset@@YAXPEA_W_WH@Z  0000000180002970 f   CWString.obj
 0001:00001a10       ?cw_strlen@@YAHPEBD@Z      0000000180002a10 f   CWString.obj
 0001:00001a80       ?cw_strlen@@YAHPEB_W@Z     0000000180002a80 f   CWString.obj
 0001:00001af0       ?cw_strcpy@@YAHPEADPEB_W@Z 0000000180002af0 f   CWString.obj
 0001:00001b40       ?cw_strcpy@@YAHPEA_WPEBD@Z 0000000180002b40 f   CWString.obj
 0001:00001b90       ?cw_strcpy@@YAHPEADPEBD@Z  0000000180002b90 f   CWString.obj
 0001:00001be0       ?cw_strcpy@@YAHPEA_WPEB_W@Z 0000000180002be0 f   CWString.obj
 0001:00001c30       ?cw_strcat@@YAHPEADPEB_W@Z 0000000180002c30 f   CWString.obj
 0001:00001c90       ?cw_strcat@@YAHPEA_WPEBD@Z 0000000180002c90 f   CWString.obj
 0001:00001cf0       ?cw_strcat@@YAHPEADPEBD@Z  0000000180002cf0 f   CWString.obj
 0001:00001d50       ?cw_strcat@@YAHPEA_WPEB_W@Z 0000000180002d50 f   CWString.obj
 0001:00001db0       ?cw_dup@@YAXPEBDAEAHAEAPEA_W1@Z 0000000180002db0 f   CWString.obj
 0001:00001ec0       ?cw_dup@@YAXPEB_WAEAHAEAPEAD1@Z 0000000180002ec0 f   CWString.obj
 0001:00001fb0       ?DupChar@_CW@@AEAAXXZ      0000000180002fb0 f   CWString.obj
 0001:00002010       ?DupWide@_CW@@AEAAXXZ      0000000180003010 f   CWString.obj
 0001:00002080       ?GetCharsMbcs@_CW@@QEAAHXZ 0000000180003080 f   CWString.obj
 0001:000020f0       ?GetCharsWide@_CW@@QEAAHXZ 00000001800030f0 f   CWString.obj
 0001:00002160       ?SetVARIANT_BOOL@OposVariant@@QEAAXF@Z 0000000180003160 f   OposVariant.obj
 0001:000021d0       ?SetVARIANT_BOOL_Ptr@OposVariant@@QEAAXPEAFAEAJ@Z 00000001800031d0 f   OposVariant.obj
 0001:00002240       ?GetLONG@OposVariant@@QEAAJXZ 0000000180003240 f   OposVariant.obj
 0001:000022a0       ?ChangeLONG@OposVariant@@QEAAXPEAJAEAJ@Z 00000001800032a0 f   OposVariant.obj
 0001:00002350       ?SetLONG@OposVariant@@QEAAXJ@Z 0000000180003350 f   OposVariant.obj
 0001:000023b0       ?SetLONG_Ptr@OposVariant@@QEAAXPEAJAEAJ@Z 00000001800033b0 f   OposVariant.obj
 0001:00002420       ?ChangeCURRENCY@OposVariant@@QEAAXPEATtagCY@@AEAJ@Z 0000000180003420 f   OposVariant.obj
 0001:000024d0       ?SetCURRENCY@OposVariant@@QEAAXTtagCY@@@Z 00000001800034d0 f   OposVariant.obj
 0001:00002530       ?SetCURRENCY_Ptr@OposVariant@@QEAAXPEATtagCY@@AEAJ@Z 0000000180003530 f   OposVariant.obj
 0001:000025a0       ?ChangeBSTR@OposVariant@@QEAAXPEAPEA_WAEAJ@Z 00000001800035a0 f   OposVariant.obj
 0001:00002650       ?SetBSTR@OposVariant@@QEAAXPEA_WAEAJ@Z 0000000180003650 f   OposVariant.obj
 0001:000026d0       ?SetBSTR_Copy@OposVariant@@QEAAXPEA_WAEAJ@Z 00000001800036d0 f   OposVariant.obj
 0001:00002780       ?SetBSTR_OutPtr@OposVariant@@QEAA_NPEAPEA_WAEAJ@Z 0000000180003780 f   OposVariant.obj
 0001:000027f0       ?SetBSTR_InOutPtr@OposVariant@@QEAA_NPEAPEA_WAEAJ@Z 00000001800037f0 f   OposVariant.obj
 0001:00002870       ?SetVARIANT@OposVariant@@QEAAXAEAUtagVARIANT@@GAEAJ@Z 0000000180003870 f   OposVariant.obj
 0001:00002910       ?SetVARIANT_Ptr@OposVariant@@QEAAXAEAPEAUtagVARIANT@@GAEAJ@Z 0000000180003910 f   OposVariant.obj
 0001:000029c0       ?SetString@OposVariant@@QEAAXPEB_WAEAJ@Z 00000001800039c0 f   OposVariant.obj
 0001:00002a70       ?SetDispatch_Ptr@OposVariant@@QEAAXPEAUIDispatch@@AEAJ@Z 0000000180003a70 f   OposVariant.obj
 0001:00002b00       ??0OposDispParms@@QEAA@PEAVOposVariant@@H@Z 0000000180003b00 f   OposVariant.obj
 0001:00002c10       ??1OposDispParms@@QEAA@XZ  0000000180003c10 f   OposVariant.obj
 0001:00002c60       ??$AtlMultiply@_K@ATL@@YAJPEA_K_K1@Z 0000000180003c60 f i OposVariant.obj
 0001:00002ce0       ??0?$CHeapPtr@_WVCCRTAllocator@ATL@@@ATL@@QEAA@XZ 0000000180003ce0 f i OposVariant.obj
 0001:00002d20       ??0?$CHeapPtrBase@_WVCCRTAllocator@ATL@@@ATL@@IEAA@XZ 0000000180003d20 f i OposVariant.obj
 0001:00002d40       ??0?$CSimpleArray@GV?$CSimpleArrayEqualHelper@G@ATL@@@ATL@@QEAA@XZ 0000000180003d40 f i OposVariant.obj
 0001:00002d80       ??0?$CTraceCategoryEx@$00$0A@@ATL@@QEAA@PEB_W@Z 0000000180003d80 f i OposVariant.obj
 0001:00002dc0       ??0?$CTraceCategoryEx@$01$0A@@ATL@@QEAA@PEB_W@Z 0000000180003dc0 f i OposVariant.obj
 0001:00002e00       ??0?$CTraceCategoryEx@$03$0A@@ATL@@QEAA@PEB_W@Z 0000000180003e00 f i OposVariant.obj
 0001:00002e40       ??0?$CTraceCategoryEx@$07$0A@@ATL@@QEAA@PEB_W@Z 0000000180003e40 f i OposVariant.obj
 0001:00002e80       ??0?$CTraceCategoryEx@$0BA@$0A@@ATL@@QEAA@PEB_W@Z 0000000180003e80 f i OposVariant.obj
 0001:00002ec0       ??0?$CTraceCategoryEx@$0BAA@$0A@@ATL@@QEAA@PEB_W@Z 0000000180003ec0 f i OposVariant.obj
 0001:00002f00       ??0?$CTraceCategoryEx@$0BAAA@$0A@@ATL@@QEAA@PEB_W@Z 0000000180003f00 f i OposVariant.obj
 0001:00002f40       ??0?$CTraceCategoryEx@$0BAAAA@$0A@@ATL@@QEAA@PEB_W@Z 0000000180003f40 f i OposVariant.obj
 0001:00002f80       ??0?$CTraceCategoryEx@$0BAAAAA@$0A@@ATL@@QEAA@PEB_W@Z 0000000180003f80 f i OposVariant.obj
 0001:00002fc0       ??0?$CTraceCategoryEx@$0CA@$0A@@ATL@@QEAA@PEB_W@Z 0000000180003fc0 f i OposVariant.obj
 0001:00003000       ??0?$CTraceCategoryEx@$0CAA@$0A@@ATL@@QEAA@PEB_W@Z 0000000180004000 f i OposVariant.obj
 0001:00003040       ??0?$CTraceCategoryEx@$0CAAA@$0A@@ATL@@QEAA@PEB_W@Z 0000000180004040 f i OposVariant.obj
 0001:00003080       ??0?$CTraceCategoryEx@$0CAAAA@$0A@@ATL@@QEAA@PEB_W@Z 0000000180004080 f i OposVariant.obj
 0001:000030c0       ??0?$CTraceCategoryEx@$0CAAAAA@$0A@@ATL@@QEAA@PEB_W@Z 00000001800040c0 f i OposVariant.obj
 0001:00003100       ??0?$CTraceCategoryEx@$0EA@$0A@@ATL@@QEAA@PEB_W@Z 0000000180004100 f i OposVariant.obj
 0001:00003140       ??0?$CTraceCategoryEx@$0EAA@$0A@@ATL@@QEAA@PEB_W@Z 0000000180004140 f i OposVariant.obj
 0001:00003180       ??0?$CTraceCategoryEx@$0EAAA@$0A@@ATL@@QEAA@PEB_W@Z 0000000180004180 f i OposVariant.obj
 0001:000031c0       ??0?$CTraceCategoryEx@$0EAAAA@$0A@@ATL@@QEAA@PEB_W@Z 00000001800041c0 f i OposVariant.obj
 0001:00003200       ??0?$CTraceCategoryEx@$0EAAAAA@$0A@@ATL@@QEAA@PEB_W@Z 0000000180004200 f i OposVariant.obj
 0001:00003240       ??0?$CTraceCategoryEx@$0IA@$0A@@ATL@@QEAA@PEB_W@Z 0000000180004240 f i OposVariant.obj
 0001:00003280       ??0?$CTraceCategoryEx@$0IAA@$0A@@ATL@@QEAA@PEB_W@Z 0000000180004280 f i OposVariant.obj
 0001:000032c0       ??0?$CTraceCategoryEx@$0IAAA@$0A@@ATL@@QEAA@PEB_W@Z 00000001800042c0 f i OposVariant.obj
 0001:00003300       ??0?$CTraceCategoryEx@$0IAAAA@$0A@@ATL@@QEAA@PEB_W@Z 0000000180004300 f i OposVariant.obj
 0001:00003340       ??0CAtlComModule@ATL@@QEAA@XZ 0000000180004340 f i OposVariant.obj
 0001:00003460       ??0CAtlWinModule@ATL@@QEAA@XZ 0000000180004460 f i OposVariant.obj
 0001:00003510       ??0CComCriticalSection@ATL@@QEAA@XZ 0000000180004510 f i OposVariant.obj
 0001:00003550       ??0CPreserveLastError@ATL@@QEAA@XZ 0000000180004550 f i OposVariant.obj
 0001:00003590       ??0CTraceFileAndLineInfo@ATL@@QEAA@PEBDH@Z 0000000180004590 f i OposVariant.obj
 0001:000035c0       ??0_ATL_COM_MODULE70@ATL@@QEAA@XZ 00000001800045c0 f i OposVariant.obj
 0001:00003600       ??0_ATL_WIN_MODULE70@ATL@@QEAA@XZ 0000000180004600 f i OposVariant.obj
 0001:00003650       ??1?$CHeapPtr@_WVCCRTAllocator@ATL@@@ATL@@QEAA@XZ 0000000180004650 f i OposVariant.obj
 0001:00003680       ??1?$CHeapPtrBase@_WVCCRTAllocator@ATL@@@ATL@@QEAA@XZ 0000000180004680 f i OposVariant.obj
 0001:000036b0       ??1?$CSimpleArray@GV?$CSimpleArrayEqualHelper@G@ATL@@@ATL@@QEAA@XZ 00000001800046b0 f i OposVariant.obj
 0001:000036e0       ??1CAtlComModule@ATL@@QEAA@XZ 00000001800046e0 f i OposVariant.obj
 0001:00003720       ??1CAtlWinModule@ATL@@QEAA@XZ 0000000180004720 f i OposVariant.obj
 0001:00003760       ??1CComBSTR@ATL@@QEAA@XZ   0000000180004760 f i OposVariant.obj
 0001:000037a0       ??1CComCriticalSection@ATL@@QEAA@XZ 00000001800047a0 f i OposVariant.obj
 0001:000037b0       ??1CPreserveLastError@ATL@@QEAA@XZ 00000001800047b0 f i OposVariant.obj
 0001:000037f0       ??1_ATL_COM_MODULE70@ATL@@QEAA@XZ 00000001800047f0 f i OposVariant.obj
 0001:00003830       ??1_ATL_WIN_MODULE70@ATL@@QEAA@XZ 0000000180004830 f i OposVariant.obj
 0001:00003880       ??1stringdispid@CComTypeInfoHolder@ATL@@QEAA@XZ 0000000180004880 f i OposVariant.obj
 0001:000038c0       ??A?$CSimpleArray@GV?$CSimpleArrayEqualHelper@G@ATL@@@ATL@@QEAAAEAGH@Z 00000001800048c0 f i OposVariant.obj
 0001:00003970       ??B?$CHeapPtrBase@_WVCCRTAllocator@ATL@@@ATL@@QEBAPEA_WXZ 0000000180004970 f i OposVariant.obj
 0001:00003980       ??B?$CTraceCategoryEx@$01$0A@@ATL@@QEAAIXZ 0000000180004980 f i OposVariant.obj
 0001:00003990       ??B?$CTraceCategoryEx@$0CA@$0A@@ATL@@QEAAIXZ 0000000180004990 f i OposVariant.obj
 0001:000039a0       ??RCTraceFileAndLineInfo@ATL@@QEBAXHIPEB_WZZ 00000001800049a0 f i OposVariant.obj
 0001:00003a50       ??_Estringdispid@CComTypeInfoHolder@ATL@@QEAAPEAXI@Z 0000000180004a50 f i OposVariant.obj
 0001:00003b00       ??_H@YAXPEAX_K1P6APEAX0@Z@Z 0000000180004b00 f i OposVariant.obj
 0001:00003b90       ??_I@YAXPEAX_K1P6AX0@Z@Z   0000000180004b90 f i OposVariant.obj
 0001:00003c40       ?Allocate@?$CHeapPtr@_WVCCRTAllocator@ATL@@@ATL@@QEAA_N_K@Z 0000000180004c40 f i OposVariant.obj
 0001:00003cc0       ?Allocate@CCRTAllocator@ATL@@SAPEAX_K@Z 0000000180004cc0 f i OposVariant.obj
 0001:00003cf0       ?AllocateBytes@?$CHeapPtrBase@_WVCCRTAllocator@ATL@@@ATL@@QEAA_N_K@Z 0000000180004cf0 f i OposVariant.obj
 0001:00003d90       ?AtlWinModuleInit@ATL@@YAJPEAU_ATL_WIN_MODULE70@1@@Z 0000000180004d90 f i OposVariant.obj
 0001:00003e90       ?AtlWinModuleTerm@ATL@@YAJPEAU_ATL_WIN_MODULE70@1@PEAUHINSTANCE__@@@Z 0000000180004e90 f i OposVariant.obj
 0001:00003f80       ?Clear@OposVariant@@QEAAJXZ 0000000180004f80 f i OposVariant.obj
 0001:00003fc0       ?Free@?$CHeapPtrBase@_WVCCRTAllocator@ATL@@@ATL@@QEAAXXZ 0000000180004fc0 f i OposVariant.obj
 0001:00004000       ?Free@CCRTAllocator@ATL@@SAXPEAX@Z 0000000180005000 f i OposVariant.obj
 0001:00004030       ?GetCategoryName@CTrace@ATL@@CAPEA_WI@Z 0000000180005030 f i OposVariant.obj
 0001:000040b0       ?GetModuleInstance@CAtlBaseModule@ATL@@QEAAPEAUHINSTANCE__@@XZ 00000001800050b0 f i OposVariant.obj
 0001:000040d0       ?GetSize@?$CSimpleArray@GV?$CSimpleArrayEqualHelper@G@ATL@@@ATL@@QEBAHXZ 00000001800050d0 f i OposVariant.obj
 0001:000040e0       ?Init@CComCriticalSection@ATL@@QEAAJXZ 00000001800050e0 f i OposVariant.obj
 0001:00004140       ?RegisterCategory@CTrace@ATL@@SAXPEB_WI@Z 0000000180005140 f i OposVariant.obj
 0001:00004220       ?RemoveAll@?$CSimpleArray@GV?$CSimpleArrayEqualHelper@G@ATL@@@ATL@@QEAAXXZ 0000000180005220 f i OposVariant.obj
 0001:000042b0       ?Term@CAtlComModule@ATL@@QEAAXXZ 00000001800052b0 f i OposVariant.obj
 0001:00004390       ?Term@CAtlWinModule@ATL@@QEAAXXZ 0000000180005390 f i OposVariant.obj
 0001:000043d0       ?Term@CComCriticalSection@ATL@@QEAAJXZ 00000001800053d0 f i OposVariant.obj
 0001:00004410       ?TraceV@CTrace@ATL@@CAXPEBDHIIPEB_W@Z 0000000180005410 f i OposVariant.obj
 0001:000046c0       ?TraceV@CTrace@ATL@@SAXPEBDHIIPEB_WPEAD@Z 00000001800056c0 f i OposVariant.obj
 0001:00004870       ?_AtlInitializeCriticalSectionEx@ATL@@YAHPEAU_RTL_CRITICAL_SECTION@@KK@Z 0000000180005870 f i OposVariant.obj
 0001:000048c0       ?_AtlRaiseException@ATL@@YAXKK@Z 00000001800058c0 f i OposVariant.obj
 0001:00004900       HRESULT_FROM_WIN32         0000000180005900 f i OposVariant.obj
 0001:00004950       _vswprintf_s_l             0000000180005950 f i OposVariant.obj
 0001:000049e0       swprintf_s                 00000001800059e0 f i OposVariant.obj
 0001:00004a70       ?ObjectMain@CComObjectRootBase@ATL@@SAX_N@Z 0000000180005a70 f i Scale.obj
 0001:00004a80       ?GetCategoryMap@CComObjectRootBase@ATL@@SAPEBU_ATL_CATMAP_ENTRY@2@XZ 0000000180005a80 f i Scale.obj
 0001:00004a90       ?GetObjectDescription@?$CComCoClass@VCOPOSScale@@$1?CLSID_OPOSScale@@3U_GUID@@B@ATL@@SAPEB_WXZ 0000000180005a90 f i Scale.obj
 0001:00004aa0       ?UpdateRegistry@COPOSScale@@SAJH@Z 0000000180005aa0 f i Scale.obj
 0001:00004ae0       ?CreateInstance@?$CComCreator@V?$CComObjectCached@VCComClassFactory@ATL@@@ATL@@@ATL@@SAJPEAXAEBU_GUID@@PEAPEAX@Z 0000000180005ae0 f i Scale.obj
 0001:00004cd0       ?CreateInstance@?$CComCreator2@V?$CComCreator@V?$CComObject@VCOPOSScale@@@ATL@@@ATL@@V?$CComCreator@V?$CComAggObject@VCOPOSScale@@@ATL@@@2@@ATL@@SAJPEAXAEBU_GUID@@PEAPEAX@Z 0000000180005cd0 f i Scale.obj
 0001:00004ee0       DllGetClassObject          0000000180005ee0 f   Scale.obj
 0001:00004f30       DllCanUnloadNow            0000000180005f30 f   Scale.obj
 0001:00004f80       DllRegisterServer          0000000180005f80 f   Scale.obj
 0001:00004fc0       DllUnregisterServer        0000000180005fc0 f   Scale.obj
 0001:000051c0       DllMain                    00000001800061c0 f   Scale.obj
 0001:00005240       ??$?2G@Wrapper@?$CSimpleArray@GV?$CSimpleArrayEqualHelper@G@ATL@@@ATL@@SAPEAX_KPEAG@Z 0000000180006240 f i Scale.obj
 0001:00005260       ??$?2PEA_W@?$Wrapper@PEA_W@?$CSimpleMap@PEA_WPEA_WVCExpansionVectorEqualHelper@ATL@@@ATL@@SAPEAX_KPEAPEA_W@Z 0000000180006260 f i Scale.obj
 0001:00005280       ??$?4UITypeInfo2@@@?$CComPtr@UITypeInfo@@@ATL@@QEAAPEAUITypeInfo@@AEBV?$CComPtr@UITypeInfo2@@@1@@Z 0000000180006280 f i Scale.obj
 0001:000052f0       ??$AtlAdd@_K@ATL@@YAJPEA_K_K1@Z 00000001800062f0 f i Scale.obj
 0001:00005360       ??$AtlAddThrow@_K@ATL@@YA_K_K0@Z 0000000180006360 f i Scale.obj
 0001:000053d0       ??$AtlModuleRegisterWndClassInfoT@VAtlModuleRegisterWndClassInfoParamW@ATL@@@ATL@@YAGPEAU_ATL_BASE_MODULE70@0@PEAU_ATL_WIN_MODULE70@0@PEAU_ATL_WNDCLASSINFOW@0@PEAP6A_JPEAUHWND__@@I_K_J@ZVAtlModuleRegisterWndClassInfoParamW@0@@Z 00000001800063d0 f i Scale.obj
 0001:000059a0       ??$AtlMultiply@H@ATL@@YAJPEAHHH@Z 00000001800069a0 f i Scale.obj
 0001:00005a10       ??$AtlMultiply@K@ATL@@YAJPEAKKK@Z 0000000180006a10 f i Scale.obj
 0001:00005a80       ??$AtlMultiplyThrow@_K@ATL@@YA_K_K0@Z 0000000180006a80 f i Scale.obj
 0001:00005af0       ??$QueryInterface@UIPersistStream@@@IUnknown@@QEAAJPEAPEAUIPersistStream@@@Z 0000000180006af0 f i Scale.obj
 0001:00005b40       ??$QueryInterface@UITypeInfo2@@@IUnknown@@QEAAJPEAPEAUITypeInfo2@@@Z 0000000180006b40 f i Scale.obj
 0001:00005b90       ??0?$CAtlModuleT@VCComModule@ATL@@@ATL@@QEAA@XZ 0000000180006b90 f i Scale.obj
 0001:00005bd0       ??0?$CAtlSafeAllocBufferManager@VCCRTAllocator@ATL@@@_ATL_SAFE_ALLOCA_IMPL@ATL@@QEAA@XZ 0000000180006bd0 f i Scale.obj
 0001:00005bf0       ??0?$CAutoVectorPtr@_W@ATL@@QEAA@XZ 0000000180006bf0 f i Scale.obj
 0001:00005c10       ??0?$CComAggObject@VCOPOSScale@@@ATL@@QEAA@PEAX@Z 0000000180006c10 f i Scale.obj
 0001:00005ca0       ??0?$CComContainedObject@VCOPOSScale@@@ATL@@QEAA@PEAX@Z 0000000180006ca0 f i Scale.obj
 0001:00005e40       ??0?$CComCritSecLock@VCComCriticalSection@ATL@@@ATL@@QEAA@AEAVCComCriticalSection@1@_N@Z 0000000180006e40 f i Scale.obj
 0001:00005eb0       ??0?$CComEnum@UIEnumConnectionPoints@@$1?_GUID_b196b285_bab4_101a_b69c_00aa00341d07@@3U__s_GUID@@BPEAUIConnectionPoint@@V?$_CopyInterface@UIConnectionPoint@@@ATL@@VCComSingleThreadModel@6@@ATL@@QEAA@XZ 0000000180006eb0 f i Scale.obj
 0001:00005f00       ??0?$CComEnum@UIEnumConnections@@$1?_GUID_b196b287_bab4_101a_b69c_00aa00341d07@@3U__s_GUID@@BUtagCONNECTDATA@@V?$_Copy@UtagCONNECTDATA@@@ATL@@VCComSingleThreadModel@6@@ATL@@QEAA@XZ 0000000180006f00 f i Scale.obj
 0001:00005f50       ??0?$CComEnumImpl@UIEnumConnectionPoints@@$1?_GUID_b196b285_bab4_101a_b69c_00aa00341d07@@3U__s_GUID@@BPEAUIConnectionPoint@@V?$_CopyInterface@UIConnectionPoint@@@ATL@@@ATL@@QEAA@XZ 0000000180006f50 f i Scale.obj
 0001:00005fd0       ??0?$CComEnumImpl@UIEnumConnections@@$1?_GUID_b196b287_bab4_101a_b69c_00aa00341d07@@3U__s_GUID@@BUtagCONNECTDATA@@V?$_Copy@UtagCONNECTDATA@@@ATL@@@ATL@@QEAA@XZ 0000000180006fd0 f i Scale.obj
 0001:00006050       ??0?$CComObject@V?$CComEnum@UIEnumConnectionPoints@@$1?_GUID_b196b285_bab4_101a_b69c_00aa00341d07@@3U__s_GUID@@BPEAUIConnectionPoint@@V?$_CopyInterface@UIConnectionPoint@@@ATL@@VCComSingleThreadModel@6@@ATL@@@ATL@@QEAA@PEAX@Z 0000000180007050 f i Scale.obj
 0001:000060b0       ??0?$CComObject@V?$CComEnum@UIEnumConnections@@$1?_GUID_b196b287_bab4_101a_b69c_00aa00341d07@@3U__s_GUID@@BUtagCONNECTDATA@@V?$_Copy@UtagCONNECTDATA@@@ATL@@VCComSingleThreadModel@6@@ATL@@@ATL@@QEAA@PEAX@Z 00000001800070b0 f i Scale.obj
 0001:00006110       ??0?$CComObject@VCOPOSScale@@@ATL@@QEAA@PEAX@Z 0000000180007110 f i Scale.obj
 0001:000062b0       ??0?$CComObjectCached@VCComClassFactory@ATL@@@ATL@@QEAA@PEAX@Z 00000001800072b0 f i Scale.obj
 0001:00006300       ??0?$CComObjectRootEx@VCComMultiThreadModel@ATL@@@ATL@@QEAA@XZ 0000000180007300 f i Scale.obj
 0001:00006350       ??0?$CComObjectRootEx@VCComSingleThreadModel@ATL@@@ATL@@QEAA@XZ 0000000180007350 f i Scale.obj
 0001:00006390       ??0?$CComPtr@UIAdviseSink@@@ATL@@QEAA@PEAUIAdviseSink@@@Z 0000000180007390 f i Scale.obj
 0001:000063d0       ??0?$CComPtr@UICatRegister@@@ATL@@QEAA@XZ 00000001800073d0 f i Scale.obj
 0001:00006410       ??0?$CComPtr@UIConnectionPoint@@@ATL@@QEAA@XZ 0000000180007410 f i Scale.obj
 0001:00006450       ??0?$CComPtr@UIConnectionPointContainer@@@ATL@@QEAA@XZ 0000000180007450 f i Scale.obj
 0001:00006490       ??0?$CComPtr@UIDataObject@@@ATL@@QEAA@XZ 0000000180007490 f i Scale.obj
 0001:000064d0       ??0?$CComPtr@UIDispatch@@@ATL@@QEAA@XZ 00000001800074d0 f i Scale.obj
 0001:00006510       ??0?$CComPtr@UIOleClientSite@@@ATL@@QEAA@PEAUIOleClientSite@@@Z 0000000180007510 f i Scale.obj
 0001:00006550       ??0?$CComPtr@UIOleControlSite@@@ATL@@QEAA@XZ 0000000180007550 f i Scale.obj
 0001:00006590       ??0?$CComPtr@UIOleInPlaceActiveObject@@@ATL@@QEAA@XZ 0000000180007590 f i Scale.obj
 0001:000065d0       ??0?$CComPtr@UIOleInPlaceFrame@@@ATL@@QEAA@XZ 00000001800075d0 f i Scale.obj
 0001:00006610       ??0?$CComPtr@UIOleInPlaceObject@@@ATL@@QEAA@XZ 0000000180007610 f i Scale.obj
 0001:00006650       ??0?$CComPtr@UIOleInPlaceUIWindow@@@ATL@@QEAA@XZ 0000000180007650 f i Scale.obj
 0001:00006690       ??0?$CComPtr@UIOleObject@@@ATL@@QEAA@XZ 0000000180007690 f i Scale.obj
 0001:000066d0       ??0?$CComPtr@UIPersistStream@@@ATL@@QEAA@XZ 00000001800076d0 f i Scale.obj
 0001:00006710       ??0?$CComPtr@UIPersistStreamInit@@@ATL@@QEAA@XZ 0000000180007710 f i Scale.obj
 0001:00006750       ??0?$CComPtr@UIPointerInactive@@@ATL@@QEAA@XZ 0000000180007750 f i Scale.obj
 0001:00006790       ??0?$CComPtr@UIProvideClassInfo2@@@ATL@@QEAA@XZ 0000000180007790 f i Scale.obj
 0001:000067d0       ??0?$CComPtr@UISpecifyPropertyPages@@@ATL@@QEAA@XZ 00000001800077d0 f i Scale.obj
 0001:00006810       ??0?$CComPtr@UIStream@@@ATL@@QEAA@XZ 0000000180007810 f i Scale.obj
 0001:00006850       ??0?$CComPtr@UITypeInfo2@@@ATL@@QEAA@XZ 0000000180007850 f i Scale.obj
 0001:00006890       ??0?$CComPtr@UITypeInfo@@@ATL@@QEAA@AEBV01@@Z 0000000180007890 f i Scale.obj
 0001:000068d0       ??0?$CComPtr@UITypeInfo@@@ATL@@QEAA@XZ 00000001800078d0 f i Scale.obj
 0001:00006910       ??0?$CComPtr@UITypeLib@@@ATL@@QEAA@XZ 0000000180007910 f i Scale.obj
 0001:00006950       ??0?$CComPtr@UIUnknown@@@ATL@@QEAA@AEBV01@@Z 0000000180007950 f i Scale.obj
 0001:00006990       ??0?$CComPtr@UIUnknown@@@ATL@@QEAA@PEAUIUnknown@@@Z 0000000180007990 f i Scale.obj
 0001:000069d0       ??0?$CComPtr@UIUnknown@@@ATL@@QEAA@XZ 00000001800079d0 f i Scale.obj
 0001:00006a10       ??0?$CComPtr@UIViewObjectEx@@@ATL@@QEAA@XZ 0000000180007a10 f i Scale.obj
 0001:00006a50       ??0?$CComPtrBase@UIAdviseSink@@@ATL@@IEAA@PEAUIAdviseSink@@@Z 0000000180007a50 f i Scale.obj
 0001:00006ab0       ??0?$CComPtrBase@UICatRegister@@@ATL@@IEAA@XZ 0000000180007ab0 f i Scale.obj
 0001:00006ad0       ??0?$CComPtrBase@UIConnectionPoint@@@ATL@@IEAA@XZ 0000000180007ad0 f i Scale.obj
 0001:00006af0       ??0?$CComPtrBase@UIConnectionPointContainer@@@ATL@@IEAA@XZ 0000000180007af0 f i Scale.obj
 0001:00006b10       ??0?$CComPtrBase@UIDataObject@@@ATL@@IEAA@XZ 0000000180007b10 f i Scale.obj
 0001:00006b30       ??0?$CComPtrBase@UIDispatch@@@ATL@@IEAA@XZ 0000000180007b30 f i Scale.obj
 0001:00006b50       ??0?$CComPtrBase@UIOleClientSite@@@ATL@@IEAA@PEAUIOleClientSite@@@Z 0000000180007b50 f i Scale.obj
 0001:00006bb0       ??0?$CComPtrBase@UIOleControlSite@@@ATL@@IEAA@XZ 0000000180007bb0 f i Scale.obj
 0001:00006bd0       ??0?$CComPtrBase@UIOleInPlaceActiveObject@@@ATL@@IEAA@XZ 0000000180007bd0 f i Scale.obj
 0001:00006bf0       ??0?$CComPtrBase@UIOleInPlaceFrame@@@ATL@@IEAA@XZ 0000000180007bf0 f i Scale.obj
 0001:00006c10       ??0?$CComPtrBase@UIOleInPlaceObject@@@ATL@@IEAA@XZ 0000000180007c10 f i Scale.obj
 0001:00006c30       ??0?$CComPtrBase@UIOleInPlaceUIWindow@@@ATL@@IEAA@XZ 0000000180007c30 f i Scale.obj
 0001:00006c50       ??0?$CComPtrBase@UIOleObject@@@ATL@@IEAA@XZ 0000000180007c50 f i Scale.obj
 0001:00006c70       ??0?$CComPtrBase@UIPersistStream@@@ATL@@IEAA@XZ 0000000180007c70 f i Scale.obj
 0001:00006c90       ??0?$CComPtrBase@UIPersistStreamInit@@@ATL@@IEAA@XZ 0000000180007c90 f i Scale.obj
 0001:00006cb0       ??0?$CComPtrBase@UIPointerInactive@@@ATL@@IEAA@XZ 0000000180007cb0 f i Scale.obj
 0001:00006cd0       ??0?$CComPtrBase@UIProvideClassInfo2@@@ATL@@IEAA@XZ 0000000180007cd0 f i Scale.obj
 0001:00006cf0       ??0?$CComPtrBase@UISpecifyPropertyPages@@@ATL@@IEAA@XZ 0000000180007cf0 f i Scale.obj
 0001:00006d10       ??0?$CComPtrBase@UIStream@@@ATL@@IEAA@XZ 0000000180007d10 f i Scale.obj
 0001:00006d30       ??0?$CComPtrBase@UITypeInfo2@@@ATL@@IEAA@XZ 0000000180007d30 f i Scale.obj
 0001:00006d50       ??0?$CComPtrBase@UITypeInfo@@@ATL@@IEAA@PEAUITypeInfo@@@Z 0000000180007d50 f i Scale.obj
 0001:00006db0       ??0?$CComPtrBase@UITypeInfo@@@ATL@@IEAA@XZ 0000000180007db0 f i Scale.obj
 0001:00006dd0       ??0?$CComPtrBase@UITypeLib@@@ATL@@IEAA@XZ 0000000180007dd0 f i Scale.obj
 0001:00006df0       ??0?$CComPtrBase@UIUnknown@@@ATL@@IEAA@PEAUIUnknown@@@Z 0000000180007df0 f i Scale.obj
 0001:00006e50       ??0?$CComPtrBase@UIUnknown@@@ATL@@IEAA@XZ 0000000180007e50 f i Scale.obj
 0001:00006e70       ??0?$CComPtrBase@UIViewObjectEx@@@ATL@@IEAA@XZ 0000000180007e70 f i Scale.obj
 0001:00006e90       ??0?$CComQIPtr@UIOleControlSite@@$1?_GUID_b196b289_bab4_101a_b69c_00aa00341d07@@3U__s_GUID@@B@ATL@@QEAA@PEAUIUnknown@@@Z 0000000180007e90 f i Scale.obj
 0001:00006f00       ??0?$CComQIPtr@UIOleObject@@$1?_GUID_00000112_0000_0000_c000_000000000046@@3U__s_GUID@@B@ATL@@QEAA@XZ 0000000180007f00 f i Scale.obj
 0001:00006f40       ??0?$CComQIPtr@UISpecifyPropertyPages@@$1?_GUID_b196b28b_bab4_101a_b69c_00aa00341d07@@3U__s_GUID@@B@ATL@@QEAA@XZ 0000000180007f40 f i Scale.obj
 0001:00006f80       ??0?$CSimpleMap@PEA_WPEA_WVCExpansionVectorEqualHelper@ATL@@@ATL@@QEAA@XZ 0000000180007f80 f i Scale.obj
 0001:00006fc0       ??0?$CTempBuffer@E$0BAA@VCCRTAllocator@ATL@@@ATL@@QEAA@XZ 0000000180007fc0 f i Scale.obj
 0001:00006fe0       ??0?$CTempBuffer@_W$0BAA@VCCRTAllocator@ATL@@@ATL@@QEAA@XZ 0000000180007fe0 f i Scale.obj
 0001:00007000       ??0?$CTempBuffer@_W$0EAA@VCCRTAllocator@ATL@@@ATL@@QEAA@XZ 0000000180008000 f i Scale.obj
 0001:00007020       ??0?$Wrapper@PEA_W@?$CSimpleMap@PEA_WPEA_WVCExpansionVectorEqualHelper@ATL@@@ATL@@QEAA@AEBQEA_W@Z 0000000180008020 f i Scale.obj
 0001:00007050       ??0CAtlModule@ATL@@QEAA@XZ 0000000180008050 f i Scale.obj
 0001:000071c0       ??0CComAutoDeleteCriticalSection@ATL@@QEAA@XZ 00000001800081c0 f i Scale.obj
 0001:00007200       ??0CComBSTR@ATL@@QEAA@XZ   0000000180008200 f i Scale.obj
 0001:00007220       ??0CComClassFactory@ATL@@QEAA@XZ 0000000180008220 f i Scale.obj
 0001:00007280       ??0CComModule@ATL@@QEAA@XZ 0000000180008280 f i Scale.obj
 0001:00007320       ??0CComObjectRootBase@ATL@@QEAA@XZ 0000000180008320 f i Scale.obj
 0001:00007340       ??0CComSafeDeleteCriticalSection@ATL@@QEAA@XZ 0000000180008340 f i Scale.obj
 0001:00007380       ??0CComVariant@ATL@@QEAA@XZ 0000000180008380 f i Scale.obj
 0001:000073d0       ??0CExpansionVector@ATL@@QEAA@XZ 00000001800083d0 f i Scale.obj
 0001:00007410       ??0CParseBuffer@CRegParser@ATL@@QEAA@H@Z 0000000180008410 f i Scale.obj
 0001:000074a0       ??0CRegKey@ATL@@QEAA@PEAUHKEY__@@@Z 00000001800084a0 f i Scale.obj
 0001:000074e0       ??0CRegKey@ATL@@QEAA@PEAVCAtlTransactionManager@1@@Z 00000001800084e0 f i Scale.obj
 0001:00007520       ??0CRegObject@ATL@@QEAA@XZ 0000000180008520 f i Scale.obj
 0001:00007580       ??0CRegParser@ATL@@QEAA@PEAVCRegObject@1@@Z 0000000180008580 f i Scale.obj
 0001:000075b0       ??0IClassFactory@@QEAA@XZ  00000001800085b0 f i Scale.obj
 0001:000075f0       ??0IEnumConnectionPoints@@QEAA@XZ 00000001800085f0 f i Scale.obj
 0001:00007630       ??0IEnumConnections@@QEAA@XZ 0000000180008630 f i Scale.obj
 0001:00007670       ??0IRegistrarBase@@QEAA@XZ 0000000180008670 f i Scale.obj
 0001:000076b0       ??0IUnknown@@QEAA@XZ       00000001800086b0 f i Scale.obj
 0001:000076c0       ??0ModuleLockHelper@ATL@@QEAA@XZ 00000001800086c0 f i Scale.obj
 0001:00007700       ??0OposVariant@@QEAA@XZ    0000000180008700 f i Scale.obj
 0001:00007720       ??0Wrapper@?$CSimpleArray@GV?$CSimpleArrayEqualHelper@G@ATL@@@ATL@@QEAA@AEBG@Z 0000000180008720 f i Scale.obj
 0001:00007750       ??0_ATL_MODULE70@ATL@@QEAA@XZ 0000000180008750 f i Scale.obj
 0001:00007790       ??0_ATL_MSG@ATL@@QEAA@PEAUHWND__@@I_K_JH@Z 0000000180008790 f i Scale.obj
 0001:00007820       ??0_U_MENUorID@ATL@@QEAA@I@Z 0000000180008820 f i Scale.obj
 0001:00007840       ??0_U_RECT@ATL@@QEAA@AEAUtagRECT@@@Z 0000000180008840 f i Scale.obj
 0001:00007860       ??0stringdispid@CComTypeInfoHolder@ATL@@QEAA@XZ 0000000180008860 f i Scale.obj
 0001:000078b0       ??1?$CAtlModuleT@VCComModule@ATL@@@ATL@@UEAA@XZ 00000001800088b0 f i Scale.obj
 0001:000078e0       ??1?$CAtlSafeAllocBufferManager@VCCRTAllocator@ATL@@@_ATL_SAFE_ALLOCA_IMPL@ATL@@QEAA@XZ 00000001800088e0 f i Scale.obj
 0001:00007940       ??1?$CAutoVectorPtr@_W@ATL@@QEAA@XZ 0000000180008940 f i Scale.obj
 0001:00007970       ??1?$CComAggObject@VCOPOSScale@@@ATL@@UEAA@XZ 0000000180008970 f i Scale.obj
 0001:000079f0       ??1?$CComContainedObject@VCOPOSScale@@@ATL@@UEAA@XZ 00000001800089f0 f i Scale.obj
 0001:00007a20       ??1?$CComCritSecLock@VCComCriticalSection@ATL@@@ATL@@QEAA@XZ 0000000180008a20 f i Scale.obj
 0001:00007a60       ??1?$CComEnum@UIEnumConnectionPoints@@$1?_GUID_b196b285_bab4_101a_b69c_00aa00341d07@@3U__s_GUID@@BPEAUIConnectionPoint@@V?$_CopyInterface@UIConnectionPoint@@@ATL@@VCComSingleThreadModel@6@@ATL@@UEAA@XZ 0000000180008a60 f i Scale.obj
 0001:00007aa0       ??1?$CComEnum@UIEnumConnections@@$1?_GUID_b196b287_bab4_101a_b69c_00aa00341d07@@3U__s_GUID@@BUtagCONNECTDATA@@V?$_Copy@UtagCONNECTDATA@@@ATL@@VCComSingleThreadModel@6@@ATL@@UEAA@XZ 0000000180008aa0 f i Scale.obj
 0001:00007ae0       ??1?$CComEnumImpl@UIEnumConnectionPoints@@$1?_GUID_b196b285_bab4_101a_b69c_00aa00341d07@@3U__s_GUID@@BPEAUIConnectionPoint@@V?$_CopyInterface@UIConnectionPoint@@@ATL@@@ATL@@UEAA@XZ 0000000180008ae0 f i Scale.obj
 0001:00007b80       ??1?$CComEnumImpl@UIEnumConnections@@$1?_GUID_b196b287_bab4_101a_b69c_00aa00341d07@@3U__s_GUID@@BUtagCONNECTDATA@@V?$_Copy@UtagCONNECTDATA@@@ATL@@@ATL@@UEAA@XZ 0000000180008b80 f i Scale.obj
 0001:00007c20       ??1?$CComObject@V?$CComEnum@UIEnumConnectionPoints@@$1?_GUID_b196b285_bab4_101a_b69c_00aa00341d07@@3U__s_GUID@@BPEAUIConnectionPoint@@V?$_CopyInterface@UIConnectionPoint@@@ATL@@VCComSingleThreadModel@6@@ATL@@@ATL@@UEAA@XZ 0000000180008c20 f i Scale.obj
 0001:00007c90       ??1?$CComObject@V?$CComEnum@UIEnumConnections@@$1?_GUID_b196b287_bab4_101a_b69c_00aa00341d07@@3U__s_GUID@@BUtagCONNECTDATA@@V?$_Copy@UtagCONNECTDATA@@@ATL@@VCComSingleThreadModel@6@@ATL@@@ATL@@UEAA@XZ 0000000180008c90 f i Scale.obj
 0001:00007d00       ??1?$CComObject@VCOPOSScale@@@ATL@@UEAA@XZ 0000000180008d00 f i Scale.obj
 0001:00007eb0       ??1?$CComObjectCached@VCComClassFactory@ATL@@@ATL@@UEAA@XZ 0000000180008eb0 f i Scale.obj
 0001:00007f10       ??1?$CComObjectRootEx@VCComMultiThreadModel@ATL@@@ATL@@QEAA@XZ 0000000180008f10 f i Scale.obj
 0001:00007f50       ??1?$CComObjectRootEx@VCComSingleThreadModel@ATL@@@ATL@@QEAA@XZ 0000000180008f50 f i Scale.obj
 0001:00007f80       ??1?$CComPtr@UIAdviseSink@@@ATL@@QEAA@XZ 0000000180008f80 f i Scale.obj
 0001:00007fb0       ??1?$CComPtr@UICatRegister@@@ATL@@QEAA@XZ 0000000180008fb0 f i Scale.obj
 0001:00007fe0       ??1?$CComPtr@UIConnectionPoint@@@ATL@@QEAA@XZ 0000000180008fe0 f i Scale.obj
 0001:00008010       ??1?$CComPtr@UIConnectionPointContainer@@@ATL@@QEAA@XZ 0000000180009010 f i Scale.obj
 0001:00008040       ??1?$CComPtr@UIDataObject@@@ATL@@QEAA@XZ 0000000180009040 f i Scale.obj
 0001:00008070       ??1?$CComPtr@UIDispatch@@@ATL@@QEAA@XZ 0000000180009070 f i Scale.obj
 0001:000080a0       ??1?$CComPtr@UIOleClientSite@@@ATL@@QEAA@XZ 00000001800090a0 f i Scale.obj
 0001:000080d0       ??1?$CComPtr@UIOleControlSite@@@ATL@@QEAA@XZ 00000001800090d0 f i Scale.obj
 0001:00008100       ??1?$CComPtr@UIOleInPlaceActiveObject@@@ATL@@QEAA@XZ 0000000180009100 f i Scale.obj
 0001:00008130       ??1?$CComPtr@UIOleInPlaceFrame@@@ATL@@QEAA@XZ 0000000180009130 f i Scale.obj
 0001:00008160       ??1?$CComPtr@UIOleInPlaceObject@@@ATL@@QEAA@XZ 0000000180009160 f i Scale.obj
 0001:00008190       ??1?$CComPtr@UIOleInPlaceUIWindow@@@ATL@@QEAA@XZ 0000000180009190 f i Scale.obj
 0001:000081c0       ??1?$CComPtr@UIOleObject@@@ATL@@QEAA@XZ 00000001800091c0 f i Scale.obj
 0001:000081f0       ??1?$CComPtr@UIPersistStream@@@ATL@@QEAA@XZ 00000001800091f0 f i Scale.obj
 0001:00008220       ??1?$CComPtr@UIPersistStreamInit@@@ATL@@QEAA@XZ 0000000180009220 f i Scale.obj
 0001:00008250       ??1?$CComPtr@UIPointerInactive@@@ATL@@QEAA@XZ 0000000180009250 f i Scale.obj
 0001:00008280       ??1?$CComPtr@UIProvideClassInfo2@@@ATL@@QEAA@XZ 0000000180009280 f i Scale.obj
 0001:000082b0       ??1?$CComPtr@UISpecifyPropertyPages@@@ATL@@QEAA@XZ 00000001800092b0 f i Scale.obj
 0001:000082e0       ??1?$CComPtr@UIStream@@@ATL@@QEAA@XZ 00000001800092e0 f i Scale.obj
 0001:00008310       ??1?$CComPtr@UITypeInfo2@@@ATL@@QEAA@XZ 0000000180009310 f i Scale.obj
 0001:00008340       ??1?$CComPtr@UITypeInfo@@@ATL@@QEAA@XZ 0000000180009340 f i Scale.obj
 0001:00008370       ??1?$CComPtr@UITypeLib@@@ATL@@QEAA@XZ 0000000180009370 f i Scale.obj
 0001:000083a0       ??1?$CComPtr@UIUnknown@@@ATL@@QEAA@XZ 00000001800093a0 f i Scale.obj
 0001:000083d0       ??1?$CComPtr@UIViewObjectEx@@@ATL@@QEAA@XZ 00000001800093d0 f i Scale.obj
 0001:00008400       ??1?$CComPtrBase@UIAdviseSink@@@ATL@@QEAA@XZ 0000000180009400 f i Scale.obj
 0001:00008450       ??1?$CComPtrBase@UICatRegister@@@ATL@@QEAA@XZ 0000000180009450 f i Scale.obj
 0001:000084a0       ??1?$CComPtrBase@UIConnectionPoint@@@ATL@@QEAA@XZ 00000001800094a0 f i Scale.obj
 0001:000084f0       ??1?$CComPtrBase@UIConnectionPointContainer@@@ATL@@QEAA@XZ 00000001800094f0 f i Scale.obj
 0001:00008540       ??1?$CComPtrBase@UIDataObject@@@ATL@@QEAA@XZ 0000000180009540 f i Scale.obj
 0001:00008590       ??1?$CComPtrBase@UIDispatch@@@ATL@@QEAA@XZ 0000000180009590 f i Scale.obj
 0001:000085e0       ??1?$CComPtrBase@UIOleClientSite@@@ATL@@QEAA@XZ 00000001800095e0 f i Scale.obj
 0001:00008630       ??1?$CComPtrBase@UIOleControlSite@@@ATL@@QEAA@XZ 0000000180009630 f i Scale.obj
 0001:00008680       ??1?$CComPtrBase@UIOleInPlaceActiveObject@@@ATL@@QEAA@XZ 0000000180009680 f i Scale.obj
 0001:000086d0       ??1?$CComPtrBase@UIOleInPlaceFrame@@@ATL@@QEAA@XZ 00000001800096d0 f i Scale.obj
 0001:00008720       ??1?$CComPtrBase@UIOleInPlaceObject@@@ATL@@QEAA@XZ 0000000180009720 f i Scale.obj
 0001:00008770       ??1?$CComPtrBase@UIOleInPlaceUIWindow@@@ATL@@QEAA@XZ 0000000180009770 f i Scale.obj
 0001:000087c0       ??1?$CComPtrBase@UIOleObject@@@ATL@@QEAA@XZ 00000001800097c0 f i Scale.obj
 0001:00008810       ??1?$CComPtrBase@UIPersistStream@@@ATL@@QEAA@XZ 0000000180009810 f i Scale.obj
 0001:00008860       ??1?$CComPtrBase@UIPersistStreamInit@@@ATL@@QEAA@XZ 0000000180009860 f i Scale.obj
 0001:000088b0       ??1?$CComPtrBase@UIPointerInactive@@@ATL@@QEAA@XZ 00000001800098b0 f i Scale.obj
 0001:00008900       ??1?$CComPtrBase@UIProvideClassInfo2@@@ATL@@QEAA@XZ 0000000180009900 f i Scale.obj
 0001:00008950       ??1?$CComPtrBase@UISpecifyPropertyPages@@@ATL@@QEAA@XZ 0000000180009950 f i Scale.obj
 0001:000089a0       ??1?$CComPtrBase@UIStream@@@ATL@@QEAA@XZ 00000001800099a0 f i Scale.obj
 0001:000089f0       ??1?$CComPtrBase@UITypeInfo2@@@ATL@@QEAA@XZ 00000001800099f0 f i Scale.obj
 0001:00008a40       ??1?$CComPtrBase@UITypeInfo@@@ATL@@QEAA@XZ 0000000180009a40 f i Scale.obj
 0001:00008a90       ??1?$CComPtrBase@UITypeLib@@@ATL@@QEAA@XZ 0000000180009a90 f i Scale.obj
 0001:00008ae0       ??1?$CComPtrBase@UIUnknown@@@ATL@@QEAA@XZ 0000000180009ae0 f i Scale.obj
 0001:00008b30       ??1?$CComPtrBase@UIViewObjectEx@@@ATL@@QEAA@XZ 0000000180009b30 f i Scale.obj
 0001:00008b80       ??1?$CComQIPtr@UIOleControlSite@@$1?_GUID_b196b289_bab4_101a_b69c_00aa00341d07@@3U__s_GUID@@B@ATL@@QEAA@XZ 0000000180009b80 f i Scale.obj
 0001:00008bb0       ??1?$CComQIPtr@UIOleObject@@$1?_GUID_00000112_0000_0000_c000_000000000046@@3U__s_GUID@@B@ATL@@QEAA@XZ 0000000180009bb0 f i Scale.obj
 0001:00008be0       ??1?$CComQIPtr@UISpecifyPropertyPages@@$1?_GUID_b196b28b_bab4_101a_b69c_00aa00341d07@@3U__s_GUID@@B@ATL@@QEAA@XZ 0000000180009be0 f i Scale.obj
 0001:00008c10       ??1?$CSimpleMap@PEA_WPEA_WVCExpansionVectorEqualHelper@ATL@@@ATL@@QEAA@XZ 0000000180009c10 f i Scale.obj
 0001:00008c40       ??1?$CTempBuffer@E$0BAA@VCCRTAllocator@ATL@@@ATL@@QEAA@XZ 0000000180009c40 f i Scale.obj
 0001:00008c90       ??1?$CTempBuffer@_W$0BAA@VCCRTAllocator@ATL@@@ATL@@QEAA@XZ 0000000180009c90 f i Scale.obj
 0001:00008ce0       ??1?$CTempBuffer@_W$0EAA@VCCRTAllocator@ATL@@@ATL@@QEAA@XZ 0000000180009ce0 f i Scale.obj
 0001:00008d30       ??1CAtlModule@ATL@@UEAA@XZ 0000000180009d30 f i Scale.obj
 0001:00008d70       ??1CComAutoDeleteCriticalSection@ATL@@QEAA@XZ 0000000180009d70 f i Scale.obj
 0001:00008da0       ??1CComClassFactory@ATL@@UEAA@XZ 0000000180009da0 f i Scale.obj
 0001:00008df0       ??1CComModule@ATL@@UEAA@XZ 0000000180009df0 f i Scale.obj
 0001:00008e30       ??1CComObjectRootBase@ATL@@QEAA@XZ 0000000180009e30 f i Scale.obj
 0001:00008e40       ??1CComSafeDeleteCriticalSection@ATL@@QEAA@XZ 0000000180009e40 f i Scale.obj
 0001:00008e90       ??1CComVariant@ATL@@QEAA@XZ 0000000180009e90 f i Scale.obj
 0001:00008f10       ??1CExpansionVector@ATL@@QEAA@XZ 0000000180009f10 f i Scale.obj
 0001:00008f50       ??1CParseBuffer@CRegParser@ATL@@QEAA@XZ 0000000180009f50 f i Scale.obj
 0001:00008f90       ??1CRegKey@ATL@@QEAA@XZ    0000000180009f90 f i Scale.obj
 0001:00008fc0       ??1CRegObject@ATL@@UEAA@XZ 0000000180009fc0 f i Scale.obj
 0001:00009010       ??1ModuleLockHelper@ATL@@QEAA@XZ 000000018000a010 f i Scale.obj
 0001:00009050       ??1OposVariant@@QEAA@XZ    000000018000a050 f i Scale.obj
 0001:00009090       ??1_ATL_MODULE70@ATL@@QEAA@XZ 000000018000a090 f i Scale.obj
 0001:000090d0       ??4?$CComPtr@UIAdviseSink@@@ATL@@QEAAPEAUIAdviseSink@@PEAU2@@Z 000000018000a0d0 f i Scale.obj
 0001:00009140       ??4?$CComPtr@UIOleClientSite@@@ATL@@QEAAPEAUIOleClientSite@@PEAU2@@Z 000000018000a140 f i Scale.obj
 0001:000091b0       ??4?$CComPtr@UIUnknown@@@ATL@@QEAAPEAUIUnknown@@PEAU2@@Z 000000018000a1b0 f i Scale.obj
 0001:00009220       ??4?$CComQIPtr@UIOleObject@@$1?_GUID_00000112_0000_0000_c000_000000000046@@3U__s_GUID@@B@ATL@@QEAAPEAUIOleObject@@PEAUIUnknown@@@Z 000000018000a220 f i Scale.obj
 0001:00009280       ??4?$CComQIPtr@UISpecifyPropertyPages@@$1?_GUID_b196b28b_bab4_101a_b69c_00aa00341d07@@3U__s_GUID@@B@ATL@@QEAAPEAUISpecifyPropertyPages@@PEAUIUnknown@@@Z 000000018000a280 f i Scale.obj
 0001:000092e0       ??7?$CComPtrBase@UIOleClientSite@@@ATL@@QEBA_NXZ 000000018000a2e0 f i Scale.obj
 0001:00009330       ??7?$CComPtrBase@UIOleInPlaceSiteWindowless@@@ATL@@QEBA_NXZ 000000018000a330 f i Scale.obj
 0001:00009380       ??7CComBSTR@ATL@@QEBA_NXZ  000000018000a380 f i Scale.obj
 0001:000093d0       ??8?$CComPtrBase@UIAdviseSink@@@ATL@@QEBA_NPEAUIAdviseSink@@@Z 000000018000a3d0 f i Scale.obj
 0001:00009420       ??8?$CComPtrBase@UIConnectionPointContainer@@@ATL@@QEBA_NPEAUIConnectionPointContainer@@@Z 000000018000a420 f i Scale.obj
 0001:00009470       ??8?$CComPtrBase@UIDataAdviseHolder@@@ATL@@QEBA_NPEAUIDataAdviseHolder@@@Z 000000018000a470 f i Scale.obj
 0001:000094c0       ??8?$CComPtrBase@UIOleAdviseHolder@@@ATL@@QEBA_NPEAUIOleAdviseHolder@@@Z 000000018000a4c0 f i Scale.obj
 0001:00009510       ??8?$CComPtrBase@UIOleClientSite@@@ATL@@QEBA_NPEAUIOleClientSite@@@Z 000000018000a510 f i Scale.obj
 0001:00009560       ??8?$CComPtrBase@UIOleControlSite@@@ATL@@QEBA_NPEAUIOleControlSite@@@Z 000000018000a560 f i Scale.obj
 0001:000095b0       ??8?$CComPtrBase@UIOleInPlaceObject@@@ATL@@QEBA_NPEAUIOleInPlaceObject@@@Z 000000018000a5b0 f i Scale.obj
 0001:00009600       ??8?$CComPtrBase@UIOleInPlaceSiteWindowless@@@ATL@@QEBA_NPEAUIOleInPlaceSiteWindowless@@@Z 000000018000a600 f i Scale.obj
 0001:00009650       ??8?$CComPtrBase@UIOleObject@@@ATL@@QEBA_NPEAUIOleObject@@@Z 000000018000a650 f i Scale.obj
 0001:000096a0       ??8?$CComPtrBase@UIPersistStream@@@ATL@@QEBA_NPEAUIPersistStream@@@Z 000000018000a6a0 f i Scale.obj
 0001:000096f0       ??8?$CComPtrBase@UIPersistStreamInit@@@ATL@@QEBA_NPEAUIPersistStreamInit@@@Z 000000018000a6f0 f i Scale.obj
 0001:00009740       ??8?$CComPtrBase@UIPointerInactive@@@ATL@@QEBA_NPEAUIPointerInactive@@@Z 000000018000a740 f i Scale.obj
 0001:00009790       ??8?$CComPtrBase@UIUnknown@@@ATL@@QEBA_NPEAUIUnknown@@@Z 000000018000a790 f i Scale.obj
 0001:000097e0       ??8?$CComPtrBase@UIViewObjectEx@@@ATL@@QEBA_NPEAUIViewObjectEx@@@Z 000000018000a7e0 f i Scale.obj
 0001:00009830       ??8CComBSTR@ATL@@QEBA_NH@Z 000000018000a830 f i Scale.obj
 0001:000098b0       ??9?$CComPtrBase@UIAdviseSink@@@ATL@@QEBA_NPEAUIAdviseSink@@@Z 000000018000a8b0 f i Scale.obj
 0001:00009910       ??9?$CComPtrBase@UIConnectionPointContainer@@@ATL@@QEBA_NPEAUIConnectionPointContainer@@@Z 000000018000a910 f i Scale.obj
 0001:00009970       ??9?$CComPtrBase@UIDataAdviseHolder@@@ATL@@QEBA_NPEAUIDataAdviseHolder@@@Z 000000018000a970 f i Scale.obj
 0001:000099d0       ??9?$CComPtrBase@UIOleAdviseHolder@@@ATL@@QEBA_NPEAUIOleAdviseHolder@@@Z 000000018000a9d0 f i Scale.obj
 0001:00009a30       ??9?$CComPtrBase@UIOleClientSite@@@ATL@@QEBA_NPEAUIOleClientSite@@@Z 000000018000aa30 f i Scale.obj
 0001:00009a90       ??9?$CComPtrBase@UIOleControlSite@@@ATL@@QEBA_NPEAUIOleControlSite@@@Z 000000018000aa90 f i Scale.obj
 0001:00009af0       ??9?$CComPtrBase@UIOleInPlaceObject@@@ATL@@QEBA_NPEAUIOleInPlaceObject@@@Z 000000018000aaf0 f i Scale.obj
 0001:00009b50       ??9?$CComPtrBase@UIOleInPlaceSiteWindowless@@@ATL@@QEBA_NPEAUIOleInPlaceSiteWindowless@@@Z 000000018000ab50 f i Scale.obj
 0001:00009bb0       ??9?$CComPtrBase@UIOleObject@@@ATL@@QEBA_NPEAUIOleObject@@@Z 000000018000abb0 f i Scale.obj
 0001:00009c10       ??9?$CComPtrBase@UIPersistStream@@@ATL@@QEBA_NPEAUIPersistStream@@@Z 000000018000ac10 f i Scale.obj
 0001:00009c70       ??9?$CComPtrBase@UIPersistStreamInit@@@ATL@@QEBA_NPEAUIPersistStreamInit@@@Z 000000018000ac70 f i Scale.obj
 0001:00009cd0       ??9?$CComPtrBase@UIPointerInactive@@@ATL@@QEBA_NPEAUIPointerInactive@@@Z 000000018000acd0 f i Scale.obj
 0001:00009d30       ??9?$CComPtrBase@UIUnknown@@@ATL@@QEBA_NPEAUIUnknown@@@Z 000000018000ad30 f i Scale.obj
 0001:00009d90       ??9?$CComPtrBase@UIViewObjectEx@@@ATL@@QEBA_NPEAUIViewObjectEx@@@Z 000000018000ad90 f i Scale.obj
 0001:00009df0       ??9CComBSTR@ATL@@QEBA_NH@Z 000000018000adf0 f i Scale.obj
 0001:00009e50       ??B?$CComPtrBase@UIAdviseSink@@@ATL@@QEBAPEAUIAdviseSink@@XZ 000000018000ae50 f i Scale.obj
 0001:00009e60       ??B?$CComPtrBase@UIDataAdviseHolder@@@ATL@@QEBAPEAUIDataAdviseHolder@@XZ 000000018000ae60 f i Scale.obj
 0001:00009e70       ??B?$CComPtrBase@UIDataObject@@@ATL@@QEBAPEAUIDataObject@@XZ 000000018000ae70 f i Scale.obj
 0001:00009e80       ??B?$CComPtrBase@UIOleAdviseHolder@@@ATL@@QEBAPEAUIOleAdviseHolder@@XZ 000000018000ae80 f i Scale.obj
 0001:00009e90       ??B?$CComPtrBase@UIOleClientSite@@@ATL@@QEBAPEAUIOleClientSite@@XZ 000000018000ae90 f i Scale.obj
 0001:00009ea0       ??B?$CComPtrBase@UIOleControlSite@@@ATL@@QEBAPEAUIOleControlSite@@XZ 000000018000aea0 f i Scale.obj
 0001:00009eb0       ??B?$CComPtrBase@UIOleInPlaceActiveObject@@@ATL@@QEBAPEAUIOleInPlaceActiveObject@@XZ 000000018000aeb0 f i Scale.obj
 0001:00009ec0       ??B?$CComPtrBase@UIOleInPlaceFrame@@@ATL@@QEBAPEAUIOleInPlaceFrame@@XZ 000000018000aec0 f i Scale.obj
 0001:00009ed0       ??B?$CComPtrBase@UIOleInPlaceSiteWindowless@@@ATL@@QEBAPEAUIOleInPlaceSiteWindowless@@XZ 000000018000aed0 f i Scale.obj
 0001:00009ee0       ??B?$CComPtrBase@UIOleInPlaceUIWindow@@@ATL@@QEBAPEAUIOleInPlaceUIWindow@@XZ 000000018000aee0 f i Scale.obj
 0001:00009ef0       ??B?$CComPtrBase@UIOleObject@@@ATL@@QEBAPEAUIOleObject@@XZ 000000018000aef0 f i Scale.obj
 0001:00009f00       ??B?$CComPtrBase@UIPersistStream@@@ATL@@QEBAPEAUIPersistStream@@XZ 000000018000af00 f i Scale.obj
 0001:00009f10       ??B?$CComPtrBase@UIProvideClassInfo2@@@ATL@@QEBAPEAUIProvideClassInfo2@@XZ 000000018000af10 f i Scale.obj
 0001:00009f20       ??B?$CComPtrBase@UISpecifyPropertyPages@@@ATL@@QEBAPEAUISpecifyPropertyPages@@XZ 000000018000af20 f i Scale.obj
 0001:00009f30       ??B?$CComPtrBase@UIStream@@@ATL@@QEBAPEAUIStream@@XZ 000000018000af30 f i Scale.obj
 0001:00009f40       ??B?$CComPtrBase@UITypeInfo2@@@ATL@@QEBAPEAUITypeInfo2@@XZ 000000018000af40 f i Scale.obj
 0001:00009f50       ??B?$CComPtrBase@UITypeInfo@@@ATL@@QEBAPEAUITypeInfo@@XZ 000000018000af50 f i Scale.obj
 0001:00009f60       ??B?$CComPtrBase@UITypeLib@@@ATL@@QEBAPEAUITypeLib@@XZ 000000018000af60 f i Scale.obj
 0001:00009f70       ??B?$CComPtrBase@UIUnknown@@@ATL@@QEBAPEAUIUnknown@@XZ 000000018000af70 f i Scale.obj
 0001:00009f80       ??B?$CTempBuffer@E$0BAA@VCCRTAllocator@ATL@@@ATL@@QEBAPEAEXZ 000000018000af80 f i Scale.obj
 0001:00009f90       ??B?$CTempBuffer@_W$0BAA@VCCRTAllocator@ATL@@@ATL@@QEBAPEA_WXZ 000000018000af90 f i Scale.obj
 0001:00009fa0       ??B?$CTempBuffer@_W$0EAA@VCCRTAllocator@ATL@@@ATL@@QEBAPEA_WXZ 000000018000afa0 f i Scale.obj
 0001:00009fb0       ??B?$CTraceCategoryEx@$00$0A@@ATL@@QEAAIXZ 000000018000afb0 f i Scale.obj
 0001:00009fc0       ??B?$CTraceCategoryEx@$07$0A@@ATL@@QEAAIXZ 000000018000afc0 f i Scale.obj
 0001:00009fd0       ??B?$CTraceCategoryEx@$0CAAA@$0A@@ATL@@QEAAIXZ 000000018000afd0 f i Scale.obj
 0001:00009fe0       ??B?$CTraceCategoryEx@$0EA@$0A@@ATL@@QEAAIXZ 000000018000afe0 f i Scale.obj
 0001:00009ff0       ??B?$CTraceCategoryEx@$0IAA@$0A@@ATL@@QEAAIXZ 000000018000aff0 f i Scale.obj
 0001:0000a000       ??BCComBSTR@ATL@@QEBAPEA_WXZ 000000018000b000 f i Scale.obj
 0001:0000a010       ??BCRegKey@ATL@@QEBAPEAUHKEY__@@XZ 000000018000b010 f i Scale.obj
 0001:0000a020       ??C?$CComPtrBase@UIAdviseSink@@@ATL@@QEBAPEAV?$_NoAddRefReleaseOnCComPtr@UIAdviseSink@@@1@XZ 000000018000b020 f i Scale.obj
 0001:0000a0a0       ??C?$CComPtrBase@UICatRegister@@@ATL@@QEBAPEAV?$_NoAddRefReleaseOnCComPtr@UICatRegister@@@1@XZ 000000018000b0a0 f i Scale.obj
 0001:0000a120       ??C?$CComPtrBase@UIConnectionPoint@@@ATL@@QEBAPEAV?$_NoAddRefReleaseOnCComPtr@UIConnectionPoint@@@1@XZ 000000018000b120 f i Scale.obj
 0001:0000a1a0       ??C?$CComPtrBase@UIConnectionPointContainer@@@ATL@@QEBAPEAV?$_NoAddRefReleaseOnCComPtr@UIConnectionPointContainer@@@1@XZ 000000018000b1a0 f i Scale.obj
 0001:0000a220       ??C?$CComPtrBase@UIDataAdviseHolder@@@ATL@@QEBAPEAV?$_NoAddRefReleaseOnCComPtr@UIDataAdviseHolder@@@1@XZ 000000018000b220 f i Scale.obj
 0001:0000a2a0       ??C?$CComPtrBase@UIOleAdviseHolder@@@ATL@@QEBAPEAV?$_NoAddRefReleaseOnCComPtr@UIOleAdviseHolder@@@1@XZ 000000018000b2a0 f i Scale.obj
 0001:0000a320       ??C?$CComPtrBase@UIOleClientSite@@@ATL@@QEBAPEAV?$_NoAddRefReleaseOnCComPtr@UIOleClientSite@@@1@XZ 000000018000b320 f i Scale.obj
 0001:0000a3a0       ??C?$CComPtrBase@UIOleControlSite@@@ATL@@QEBAPEAV?$_NoAddRefReleaseOnCComPtr@UIOleControlSite@@@1@XZ 000000018000b3a0 f i Scale.obj
 0001:0000a420       ??C?$CComPtrBase@UIOleInPlaceFrame@@@ATL@@QEBAPEAV?$_NoAddRefReleaseOnCComPtr@UIOleInPlaceFrame@@@1@XZ 000000018000b420 f i Scale.obj
 0001:0000a4a0       ??C?$CComPtrBase@UIOleInPlaceObject@@@ATL@@QEBAPEAV?$_NoAddRefReleaseOnCComPtr@UIOleInPlaceObject@@@1@XZ 000000018000b4a0 f i Scale.obj
 0001:0000a520       ??C?$CComPtrBase@UIOleInPlaceSiteWindowless@@@ATL@@QEBAPEAV?$_NoAddRefReleaseOnCComPtr@UIOleInPlaceSiteWindowless@@@1@XZ 000000018000b520 f i Scale.obj
 0001:0000a5a0       ??C?$CComPtrBase@UIOleInPlaceUIWindow@@@ATL@@QEBAPEAV?$_NoAddRefReleaseOnCComPtr@UIOleInPlaceUIWindow@@@1@XZ 000000018000b5a0 f i Scale.obj
 0001:0000a620       ??C?$CComPtrBase@UIOleObject@@@ATL@@QEBAPEAV?$_NoAddRefReleaseOnCComPtr@UIOleObject@@@1@XZ 000000018000b620 f i Scale.obj
 0001:0000a6a0       ??C?$CComPtrBase@UIPersistStream@@@ATL@@QEBAPEAV?$_NoAddRefReleaseOnCComPtr@UIPersistStream@@@1@XZ 000000018000b6a0 f i Scale.obj
 0001:0000a720       ??C?$CComPtrBase@UIPersistStreamInit@@@ATL@@QEBAPEAV?$_NoAddRefReleaseOnCComPtr@UIPersistStreamInit@@@1@XZ 000000018000b720 f i Scale.obj
 0001:0000a7a0       ??C?$CComPtrBase@UIPointerInactive@@@ATL@@QEBAPEAV?$_NoAddRefReleaseOnCComPtr@UIPointerInactive@@@1@XZ 000000018000b7a0 f i Scale.obj
 0001:0000a820       ??C?$CComPtrBase@UIProvideClassInfo2@@@ATL@@QEBAPEAV?$_NoAddRefReleaseOnCComPtr@UIProvideClassInfo2@@@1@XZ 000000018000b820 f i Scale.obj
 0001:0000a8a0       ??C?$CComPtrBase@UISpecifyPropertyPages@@@ATL@@QEBAPEAV?$_NoAddRefReleaseOnCComPtr@UISpecifyPropertyPages@@@1@XZ 000000018000b8a0 f i Scale.obj
 0001:0000a920       ??C?$CComPtrBase@UITypeInfo@@@ATL@@QEBAPEAV?$_NoAddRefReleaseOnCComPtr@UITypeInfo@@@1@XZ 000000018000b920 f i Scale.obj
 0001:0000a9a0       ??C?$CComPtrBase@UITypeLib@@@ATL@@QEBAPEAV?$_NoAddRefReleaseOnCComPtr@UITypeLib@@@1@XZ 000000018000b9a0 f i Scale.obj
 0001:0000aa20       ??C?$CComPtrBase@UIUnknown@@@ATL@@QEBAPEAV?$_NoAddRefReleaseOnCComPtr@UIUnknown@@@1@XZ 000000018000ba20 f i Scale.obj
 0001:0000aaa0       ??C?$CComPtrBase@UIViewObjectEx@@@ATL@@QEBAPEAV?$_NoAddRefReleaseOnCComPtr@UIViewObjectEx@@@1@XZ 000000018000baa0 f i Scale.obj
 0001:0000ab20       ??I?$CComPtrBase@UICatRegister@@@ATL@@QEAAPEAPEAUICatRegister@@XZ 000000018000bb20 f i Scale.obj
 0001:0000ab90       ??I?$CComPtrBase@UIConnectionPoint@@@ATL@@QEAAPEAPEAUIConnectionPoint@@XZ 000000018000bb90 f i Scale.obj
 0001:0000ac00       ??I?$CComPtrBase@UIConnectionPointContainer@@@ATL@@QEAAPEAPEAUIConnectionPointContainer@@XZ 000000018000bc00 f i Scale.obj
 0001:0000ac70       ??I?$CComPtrBase@UIDataAdviseHolder@@@ATL@@QEAAPEAPEAUIDataAdviseHolder@@XZ 000000018000bc70 f i Scale.obj
 0001:0000ace0       ??I?$CComPtrBase@UIDataObject@@@ATL@@QEAAPEAPEAUIDataObject@@XZ 000000018000bce0 f i Scale.obj
 0001:0000ad50       ??I?$CComPtrBase@UIDispatch@@@ATL@@QEAAPEAPEAUIDispatch@@XZ 000000018000bd50 f i Scale.obj
 0001:0000adc0       ??I?$CComPtrBase@UIOleAdviseHolder@@@ATL@@QEAAPEAPEAUIOleAdviseHolder@@XZ 000000018000bdc0 f i Scale.obj
 0001:0000ae30       ??I?$CComPtrBase@UIOleControlSite@@@ATL@@QEAAPEAPEAUIOleControlSite@@XZ 000000018000be30 f i Scale.obj
 0001:0000aea0       ??I?$CComPtrBase@UIOleInPlaceActiveObject@@@ATL@@QEAAPEAPEAUIOleInPlaceActiveObject@@XZ 000000018000bea0 f i Scale.obj
 0001:0000af10       ??I?$CComPtrBase@UIOleInPlaceFrame@@@ATL@@QEAAPEAPEAUIOleInPlaceFrame@@XZ 000000018000bf10 f i Scale.obj
 0001:0000af80       ??I?$CComPtrBase@UIOleInPlaceObject@@@ATL@@QEAAPEAPEAUIOleInPlaceObject@@XZ 000000018000bf80 f i Scale.obj
 0001:0000aff0       ??I?$CComPtrBase@UIOleInPlaceSiteWindowless@@@ATL@@QEAAPEAPEAUIOleInPlaceSiteWindowless@@XZ 000000018000bff0 f i Scale.obj
 0001:0000b060       ??I?$CComPtrBase@UIOleInPlaceUIWindow@@@ATL@@QEAAPEAPEAUIOleInPlaceUIWindow@@XZ 000000018000c060 f i Scale.obj
 0001:0000b0d0       ??I?$CComPtrBase@UIOleObject@@@ATL@@QEAAPEAPEAUIOleObject@@XZ 000000018000c0d0 f i Scale.obj
 0001:0000b140       ??I?$CComPtrBase@UIPersistStream@@@ATL@@QEAAPEAPEAUIPersistStream@@XZ 000000018000c140 f i Scale.obj
 0001:0000b1b0       ??I?$CComPtrBase@UIPointerInactive@@@ATL@@QEAAPEAPEAUIPointerInactive@@XZ 000000018000c1b0 f i Scale.obj
 0001:0000b220       ??I?$CComPtrBase@UIProvideClassInfo2@@@ATL@@QEAAPEAPEAUIProvideClassInfo2@@XZ 000000018000c220 f i Scale.obj
 0001:0000b290       ??I?$CComPtrBase@UIStream@@@ATL@@QEAAPEAPEAUIStream@@XZ 000000018000c290 f i Scale.obj
 0001:0000b300       ??I?$CComPtrBase@UITypeInfo2@@@ATL@@QEAAPEAPEAUITypeInfo2@@XZ 000000018000c300 f i Scale.obj
 0001:0000b370       ??I?$CComPtrBase@UITypeInfo@@@ATL@@QEAAPEAPEAUITypeInfo@@XZ 000000018000c370 f i Scale.obj
 0001:0000b3e0       ??I?$CComPtrBase@UITypeLib@@@ATL@@QEAAPEAPEAUITypeLib@@XZ 000000018000c3e0 f i Scale.obj
 0001:0000b450       ??I?$CComPtrBase@UIUnknown@@@ATL@@QEAAPEAPEAUIUnknown@@XZ 000000018000c450 f i Scale.obj
 0001:0000b4c0       ??I?$CComPtrBase@UIViewObjectEx@@@ATL@@QEAAPEAPEAUIViewObjectEx@@XZ 000000018000c4c0 f i Scale.obj
 0001:0000b530       ??ICComBSTR@ATL@@QEAAPEAPEA_WXZ 000000018000c530 f i Scale.obj
 0001:0000b540       ??_E?$CComContainedObject@VCOPOSScale@@@ATL@@W7EAAPEAXI@Z 000000018000c540 f i Scale.obj
 0001:0000b54c       ??_E?$CComContainedObject@VCOPOSScale@@@ATL@@WHA@EAAPEAXI@Z 000000018000c54c f i Scale.obj
 0001:0000b558       ??_E?$CComObject@VCOPOSScale@@@ATL@@W7EAAPEAXI@Z 000000018000c558 f i Scale.obj
 0001:0000b564       ??_E?$CComObject@VCOPOSScale@@@ATL@@WHA@EAAPEAXI@Z 000000018000c564 f i Scale.obj
 0001:0000b570       ??_E?$CComAggObject@VCOPOSScale@@@ATL@@UEAAPEAXI@Z 000000018000c570 f i Scale.obj
 0001:0000b570       ??_G?$CComAggObject@VCOPOSScale@@@ATL@@UEAAPEAXI@Z 000000018000c570 f i Scale.obj
 0001:0000b5d0       ??_G?$CComContainedObject@VCOPOSScale@@@ATL@@UEAAPEAXI@Z 000000018000c5d0 f i Scale.obj
 0001:0000b5d0       ??_E?$CComContainedObject@VCOPOSScale@@@ATL@@UEAAPEAXI@Z 000000018000c5d0 f i Scale.obj
 0001:0000b630       ??_E?$CComObject@V?$CComEnum@UIEnumConnectionPoints@@$1?_GUID_b196b285_bab4_101a_b69c_00aa00341d07@@3U__s_GUID@@BPEAUIConnectionPoint@@V?$_CopyInterface@UIConnectionPoint@@@ATL@@VCComSingleThreadModel@6@@ATL@@@ATL@@UEAAPEAXI@Z 000000018000c630 f i Scale.obj
 0001:0000b630       ??_G?$CComObject@V?$CComEnum@UIEnumConnectionPoints@@$1?_GUID_b196b285_bab4_101a_b69c_00aa00341d07@@3U__s_GUID@@BPEAUIConnectionPoint@@V?$_CopyInterface@UIConnectionPoint@@@ATL@@VCComSingleThreadModel@6@@ATL@@@ATL@@UEAAPEAXI@Z 000000018000c630 f i Scale.obj
 0001:0000b690       ??_G?$CComObject@V?$CComEnum@UIEnumConnections@@$1?_GUID_b196b287_bab4_101a_b69c_00aa00341d07@@3U__s_GUID@@BUtagCONNECTDATA@@V?$_Copy@UtagCONNECTDATA@@@ATL@@VCComSingleThreadModel@6@@ATL@@@ATL@@UEAAPEAXI@Z 000000018000c690 f i Scale.obj
 0001:0000b690       ??_E?$CComObject@V?$CComEnum@UIEnumConnections@@$1?_GUID_b196b287_bab4_101a_b69c_00aa00341d07@@3U__s_GUID@@BUtagCONNECTDATA@@V?$_Copy@UtagCONNECTDATA@@@ATL@@VCComSingleThreadModel@6@@ATL@@@ATL@@UEAAPEAXI@Z 000000018000c690 f i Scale.obj
 0001:0000b6f0       ??_G?$CComObject@VCOPOSScale@@@ATL@@UEAAPEAXI@Z 000000018000c6f0 f i Scale.obj
 0001:0000b6f0       ??_E?$CComObject@VCOPOSScale@@@ATL@@UEAAPEAXI@Z 000000018000c6f0 f i Scale.obj
 0001:0000b750       ??_G?$CComObjectCached@VCComClassFactory@ATL@@@ATL@@UEAAPEAXI@Z 000000018000c750 f i Scale.obj
 0001:0000b750       ??_E?$CComObjectCached@VCComClassFactory@ATL@@@ATL@@UEAAPEAXI@Z 000000018000c750 f i Scale.obj
 0001:0000b7b0       ??_ECComClassFactory@ATL@@UEAAPEAXI@Z 000000018000c7b0 f i Scale.obj
 0001:0000b7b0       ??_GCComClassFactory@ATL@@UEAAPEAXI@Z 000000018000c7b0 f i Scale.obj
 0001:0000b810       ??_ECComModule@ATL@@UEAAPEAXI@Z 000000018000c810 f i Scale.obj
 0001:0000b810       ??_GCComModule@ATL@@UEAAPEAXI@Z 000000018000c810 f i Scale.obj
 0001:0000b870       ??_ECRegObject@ATL@@UEAAPEAXI@Z 000000018000c870 f i Scale.obj
 0001:0000b870       ??_GCRegObject@ATL@@UEAAPEAXI@Z 000000018000c870 f i Scale.obj
 0001:0000b8d0       ?Add@?$CSimpleArray@GV?$CSimpleArrayEqualHelper@G@ATL@@@ATL@@QEAAHAEBG@Z 000000018000c8d0 f i Scale.obj
 0001:0000ba70       ?Add@?$CSimpleMap@PEA_WPEA_WVCExpansionVectorEqualHelper@ATL@@@ATL@@QEAAHAEBQEA_W0@Z 000000018000ca70 f i Scale.obj
 0001:0000bb60       ?Add@CComDynamicUnkArray@ATL@@QEAAKPEAUIUnknown@@@Z 000000018000cb60 f i Scale.obj
 0001:0000bd40       ?Add@CExpansionVector@ATL@@QEAAHPEB_W0@Z 000000018000cd40 f i Scale.obj
 0001:0000c070       ?AddChar@CParseBuffer@CRegParser@ATL@@QEAAHPEB_W@Z 000000018000d070 f i Scale.obj
 0001:0000c0c0       ?AddCommonRGSReplacements@?$CAtlModuleT@VCComModule@ATL@@@ATL@@UEAAJPEAUIRegistrarBase@@@Z 000000018000d0c0 f i Scale.obj
 0001:0000c120       ?AddCreateWndData@CAtlWinModule@ATL@@QEAAXPEAU_AtlCreateWndData@2@PEAX@Z 000000018000d120 f i Scale.obj
 0001:0000c170       ?AddRef@?$CComAggObject@VCOPOSScale@@@ATL@@UEAAKXZ 000000018000d170 f i Scale.obj
 0001:0000c1b0       ?AddRef@?$CComContainedObject@VCOPOSScale@@@ATL@@UEAAKXZ 000000018000d1b0 f i Scale.obj
 0001:0000c1e8       ?AddRef@?$CComContainedObject@VCOPOSScale@@@ATL@@WBAA@EAAKXZ 000000018000d1e8 f i Scale.obj
 0001:0000c1f4       ?AddRef@?$CComContainedObject@VCOPOSScale@@@ATL@@WBAI@EAAKXZ 000000018000d1f4 f i Scale.obj
 0001:0000c200       ?AddRef@?$CComContainedObject@VCOPOSScale@@@ATL@@WBBA@EAAKXZ 000000018000d200 f i Scale.obj
 0001:0000c20c       ?AddRef@?$CComContainedObject@VCOPOSScale@@@ATL@@WBBI@EAAKXZ 000000018000d20c f i Scale.obj
 0001:0000c218       ?AddRef@?$CComContainedObject@VCOPOSScale@@@ATL@@WBCI@EAAKXZ 000000018000d218 f i Scale.obj
 0001:0000c224       ?AddRef@?$CComContainedObject@VCOPOSScale@@@ATL@@WBEA@EAAKXZ 000000018000d224 f i Scale.obj
 0001:0000c230       ?AddRef@?$CComContainedObject@VCOPOSScale@@@ATL@@WLI@EAAKXZ 000000018000d230 f i Scale.obj
 0001:0000c23c       ?AddRef@?$CComContainedObject@VCOPOSScale@@@ATL@@WMA@EAAKXZ 000000018000d23c f i Scale.obj
 0001:0000c248       ?AddRef@?$CComContainedObject@VCOPOSScale@@@ATL@@WMI@EAAKXZ 000000018000d248 f i Scale.obj
 0001:0000c254       ?AddRef@?$CComContainedObject@VCOPOSScale@@@ATL@@WNA@EAAKXZ 000000018000d254 f i Scale.obj
 0001:0000c260       ?AddRef@?$CComContainedObject@VCOPOSScale@@@ATL@@WNI@EAAKXZ 000000018000d260 f i Scale.obj
 0001:0000c26c       ?AddRef@?$CComContainedObject@VCOPOSScale@@@ATL@@WOA@EAAKXZ 000000018000d26c f i Scale.obj
 0001:0000c278       ?AddRef@?$CComContainedObject@VCOPOSScale@@@ATL@@WOI@EAAKXZ 000000018000d278 f i Scale.obj
 0001:0000c284       ?AddRef@?$CComContainedObject@VCOPOSScale@@@ATL@@WPA@EAAKXZ 000000018000d284 f i Scale.obj
 0001:0000c290       ?AddRef@?$CComContainedObject@VCOPOSScale@@@ATL@@WPI@EAAKXZ 000000018000d290 f i Scale.obj
 0001:0000c2a0       ?AddRef@?$CComObject@V?$CComEnum@UIEnumConnectionPoints@@$1?_GUID_b196b285_bab4_101a_b69c_00aa00341d07@@3U__s_GUID@@BPEAUIConnectionPoint@@V?$_CopyInterface@UIConnectionPoint@@@ATL@@VCComSingleThreadModel@6@@ATL@@@ATL@@UEAAKXZ 000000018000d2a0 f i Scale.obj
 0001:0000c2e0       ?AddRef@?$CComObject@V?$CComEnum@UIEnumConnections@@$1?_GUID_b196b287_bab4_101a_b69c_00aa00341d07@@3U__s_GUID@@BUtagCONNECTDATA@@V?$_Copy@UtagCONNECTDATA@@@ATL@@VCComSingleThreadModel@6@@ATL@@@ATL@@UEAAKXZ 000000018000d2e0 f i Scale.obj
 0001:0000c320       ?AddRef@?$CComObject@VCOPOSScale@@@ATL@@UEAAKXZ 000000018000d320 f i Scale.obj
 0001:0000c358       ?AddRef@?$CComObject@VCOPOSScale@@@ATL@@WBAA@EAAKXZ 000000018000d358 f i Scale.obj
 0001:0000c364       ?AddRef@?$CComObject@VCOPOSScale@@@ATL@@WBAI@EAAKXZ 000000018000d364 f i Scale.obj
 0001:0000c370       ?AddRef@?$CComObject@VCOPOSScale@@@ATL@@WBBA@EAAKXZ 000000018000d370 f i Scale.obj
 0001:0000c37c       ?AddRef@?$CComObject@VCOPOSScale@@@ATL@@WBBI@EAAKXZ 000000018000d37c f i Scale.obj
 0001:0000c388       ?AddRef@?$CComObject@VCOPOSScale@@@ATL@@WBCI@EAAKXZ 000000018000d388 f i Scale.obj
 0001:0000c394       ?AddRef@?$CComObject@VCOPOSScale@@@ATL@@WBEA@EAAKXZ 000000018000d394 f i Scale.obj
 0001:0000c3a0       ?AddRef@?$CComObject@VCOPOSScale@@@ATL@@WLI@EAAKXZ 000000018000d3a0 f i Scale.obj
 0001:0000c3ac       ?AddRef@?$CComObject@VCOPOSScale@@@ATL@@WMA@EAAKXZ 000000018000d3ac f i Scale.obj
 0001:0000c3b8       ?AddRef@?$CComObject@VCOPOSScale@@@ATL@@WMI@EAAKXZ 000000018000d3b8 f i Scale.obj
 0001:0000c3c4       ?AddRef@?$CComObject@VCOPOSScale@@@ATL@@WNA@EAAKXZ 000000018000d3c4 f i Scale.obj
 0001:0000c3d0       ?AddRef@?$CComObject@VCOPOSScale@@@ATL@@WNI@EAAKXZ 000000018000d3d0 f i Scale.obj
 0001:0000c3dc       ?AddRef@?$CComObject@VCOPOSScale@@@ATL@@WOA@EAAKXZ 000000018000d3dc f i Scale.obj
 0001:0000c3e8       ?AddRef@?$CComObject@VCOPOSScale@@@ATL@@WOI@EAAKXZ 000000018000d3e8 f i Scale.obj
 0001:0000c3f4       ?AddRef@?$CComObject@VCOPOSScale@@@ATL@@WPA@EAAKXZ 000000018000d3f4 f i Scale.obj
 0001:0000c400       ?AddRef@?$CComObject@VCOPOSScale@@@ATL@@WPI@EAAKXZ 000000018000d400 f i Scale.obj
 0001:0000c410       ?AddRef@?$CComObjectCached@VCComClassFactory@ATL@@@ATL@@UEAAKXZ 000000018000d410 f i Scale.obj
 0001:0000c470       ?AddRef@CRegObject@ATL@@UEAAKXZ 000000018000d470 f i Scale.obj
 0001:0000c4e0       ?AddReplacement@CRegObject@ATL@@UEAAJPEB_W0@Z 000000018000d4e0 f i Scale.obj
 0001:0000c610       ?AddString@CParseBuffer@CRegParser@ATL@@QEAAHPEB_W@Z 000000018000d610 f i Scale.obj
 0001:0000c700       ?AddTermFunc@CAtlModule@ATL@@QEAAJP6AX_K@Z0@Z 000000018000d700 f i Scale.obj
 0001:0000c770       ?AddValue@CRegParser@ATL@@IEAAJAEAVCRegKey@2@PEB_WPEA_W@Z 000000018000d770 f i Scale.obj
 0001:0000d040       ?Advise@?$CProxy_IOPOSEvents@VCOPOSScale@@@@UEAAJPEAUIUnknown@@PEAK@Z 000000018000e040 f i Scale.obj
 0001:0000d0b0       ?Advise@?$IConnectionPointImpl@VCOPOSScale@@$1?DIID__IOPOSScaleEvents@@3U_GUID@@BVCComDynamicUnkArray@ATL@@@ATL@@UEAAJPEAUIUnknown@@PEAK@Z 000000018000e0b0 f i Scale.obj
 0001:0000d2b0       ?Advise@?$IConnectionPointImpl@VCOPOSScale@@$1?IID_IPropertyNotifySink@@3U_GUID@@BVCComDynamicUnkArray@ATL@@@ATL@@UEAAJPEAUIUnknown@@PEAK@Z 000000018000e2b0 f i Scale.obj
 0001:0000d4b0       ?Advise@?$IOleObjectImpl@VCOPOSScale@@@ATL@@UEAAJPEAUIAdviseSink@@PEAK@Z 000000018000e4b0 f i Scale.obj
 0001:0000d570       ?Allocate@?$CAtlSafeAllocBufferManager@VCCRTAllocator@ATL@@@_ATL_SAFE_ALLOCA_IMPL@ATL@@QEAAPEAX_K@Z 000000018000e570 f i Scale.obj
 0001:0000d5f0       ?Allocate@?$CTempBuffer@E$0BAA@VCCRTAllocator@ATL@@@ATL@@QEAAPEAE_K@Z 000000018000e5f0 f i Scale.obj
 0001:0000d640       ?Allocate@?$CTempBuffer@_W$0BAA@VCCRTAllocator@ATL@@@ATL@@QEAAPEA_W_K@Z 000000018000e640 f i Scale.obj
 0001:0000d690       ?Allocate@?$CTempBuffer@_W$0EAA@VCCRTAllocator@ATL@@@ATL@@QEAAPEA_W_K@Z 000000018000e690 f i Scale.obj
 0001:0000d6e0       ?AllocateBytes@?$CTempBuffer@E$0BAA@VCCRTAllocator@ATL@@@ATL@@QEAAPEAE_K@Z 000000018000e6e0 f i Scale.obj
 0001:0000d790       ?AllocateBytes@?$CTempBuffer@_W$0BAA@VCCRTAllocator@ATL@@@ATL@@QEAAPEA_W_K@Z 000000018000e790 f i Scale.obj
 0001:0000d840       ?AllocateBytes@?$CTempBuffer@_W$0EAA@VCCRTAllocator@ATL@@@ATL@@QEAAPEA_W_K@Z 000000018000e840 f i Scale.obj
 0001:0000d8f0       ?AllocateHeap@?$CTempBuffer@E$0BAA@VCCRTAllocator@ATL@@@ATL@@AEAAX_K@Z 000000018000e8f0 f i Scale.obj
 0001:0000d950       ?AllocateHeap@?$CTempBuffer@_W$0BAA@VCCRTAllocator@ATL@@@ATL@@AEAAX_K@Z 000000018000e950 f i Scale.obj
 0001:0000d9b0       ?AllocateHeap@?$CTempBuffer@_W$0EAA@VCCRTAllocator@ATL@@@ATL@@AEAAX_K@Z 000000018000e9b0 f i Scale.obj
 0001:0000da10       ?Append@CParseBuffer@CRegParser@ATL@@QEAAHPEB_WH@Z 000000018000ea10 f i Scale.obj
 0001:0000dc40       ?AtlCallTermFunc@ATL@@YAXPEAU_ATL_MODULE70@1@@Z 000000018000ec40 f i Scale.obj
 0001:0000dcf0       ?AtlCoTaskMemCAlloc@ATL@@YAPEAXKK@Z 000000018000ecf0 f i Scale.obj
 0001:0000dd70       ?AtlCoTaskMemRecalloc@ATL@@YAPEAXPEAXKK@Z 000000018000ed70 f i Scale.obj
 0001:0000ddf0       ?AtlComModuleGetClassObject@ATL@@YAJPEAU_ATL_COM_MODULE70@1@AEBU_GUID@@1PEAPEAX@Z 000000018000edf0 f i Scale.obj
 0001:0000e120       ?AtlComModuleRegisterServer@ATL@@YAJPEAU_ATL_COM_MODULE70@1@HPEBU_GUID@@@Z 000000018000f120 f i Scale.obj
 0001:0000e320       ?AtlComModuleUnregisterServer@ATL@@YAJPEAU_ATL_COM_MODULE70@1@HPEBU_GUID@@@Z 000000018000f320 f i Scale.obj
 0001:0000e480       ?AtlComQIPtrAssign2@ATL@@YAXPEAPEAUIUnknown@@PEAU2@AEBU_GUID@@@Z 000000018000f480 f i Scale.obj
 0001:0000e510       ?AtlCreateTargetDC@ATL@@YAPEAUHDC__@@PEAU2@PEAUtagDVTARGETDEVICE@@@Z 000000018000f510 f i Scale.obj
 0001:0000e740       ?AtlCrtErrorCheck@ATL@@YAHH@Z 000000018000f740 f i Scale.obj
 0001:0000e7c0       ?AtlGetPerUserRegistration@ATL@@YAJPEA_N@Z 000000018000f7c0 f i Scale.obj
 0001:0000e7f0       ?AtlHiMetricToPixel@ATL@@YAXPEBUtagSIZE@@PEAU2@@Z 000000018000f7f0 f i Scale.obj
 0001:0000e9f0       ?AtlHresultFromLastError@ATL@@YAJXZ 000000018000f9f0 f i Scale.obj
 0001:0000ea20       ?AtlHresultFromWin32@ATL@@YAJK@Z 000000018000fa20 f i Scale.obj
 0001:0000ea50       ?AtlIPersistStreamInit_Load@ATL@@YAJPEAUIStream@@PEBUATL_PROPMAP_ENTRY@1@PEAXPEAUIUnknown@@@Z 000000018000fa50 f i Scale.obj
 0001:0000f0c0       ?AtlIPersistStreamInit_Save@ATL@@YAJPEAUIStream@@HPEBUATL_PROPMAP_ENTRY@1@PEAXPEAUIUnknown@@@Z 00000001800100c0 f i Scale.obj
 0001:0000f650       ?AtlInternalOleLoadFromStream@ATL@@YAJPEAUIStream@@AEBU_GUID@@PEAPEAXTClassesAllowedInStream@1@K@Z 0000000180010650 f i Scale.obj
 0001:0000f990       ?AtlInternalQueryInterface@ATL@@YAJPEAXPEBU_ATL_INTMAP_ENTRY@1@AEBU_GUID@@PEAPEAX@Z 0000000180010990 f i Scale.obj
 0001:0000fc50       ?AtlLoadTypeLib@ATL@@YAJPEAUHINSTANCE__@@PEB_WPEAPEA_WPEAPEAUITypeLib@@@Z 0000000180010c50 f i Scale.obj
 0001:00010120       ?AtlModuleAddTermFunc@ATL@@YAJPEAU_ATL_MODULE70@1@P6AX_K@Z1@Z 0000000180011120 f i Scale.obj
 0001:000102f0       ?AtlRegisterClassCategoriesHelper@ATL@@YAJAEBU_GUID@@PEBU_ATL_CATMAP_ENTRY@1@H@Z 00000001800112f0 f i Scale.obj
 0001:00010ac0       ?AtlRegisterTypeLib@ATL@@YAJPEAUHINSTANCE__@@PEB_W@Z 0000000180011ac0 f i Scale.obj
 0001:00010e20       ?AtlThrowImpl@ATL@@YAXJ@Z  0000000180011e20 f i Scale.obj
 0001:00010f00       ?AtlUnRegisterTypeLib@ATL@@YAJPEAUHINSTANCE__@@PEB_W@Z 0000000180011f00 f i Scale.obj
 0001:00011130       ?AtlWinModuleAddCreateWndData@ATL@@YAXPEAU_ATL_WIN_MODULE70@1@PEAU_AtlCreateWndData@1@PEAX@Z 0000000180012130 f i Scale.obj
 0001:00011320       ?AtlWinModuleExtractCreateWndData@ATL@@YAPEAXPEAU_ATL_WIN_MODULE70@1@@Z 0000000180012320 f i Scale.obj
 0001:00011520       ?AtlWinModuleRegisterClassExW@ATL@@YAGPEAU_ATL_WIN_MODULE70@1@PEBUtagWNDCLASSEXW@@@Z 0000000180012520 f i Scale.obj
 0001:000115f0       ?AtlWinModuleRegisterWndClassInfoW@ATL@@YAGPEAU_ATL_WIN_MODULE70@1@PEAU_ATL_BASE_MODULE70@1@PEAU_ATL_WNDCLASSINFOW@1@PEAP6A_JPEAUHWND__@@I_K_J@Z@Z 00000001800125f0 f i Scale.obj
 0001:00011660       ?Attach@?$CAutoVectorPtr@_W@ATL@@QEAAXPEA_W@Z 0000000180012660 f i Scale.obj
 0001:000116f0       ?Attach@CComBSTR@ATL@@QEAAXPEA_W@Z 00000001800126f0 f i Scale.obj
 0001:00011750       ?Attach@CRegKey@ATL@@QEAAXPEAUHKEY__@@@Z 0000000180012750 f i Scale.obj
 0001:000117f0       ?CanForceRemoveKey@CRegParser@ATL@@IEAAHPEB_W@Z 00000001800127f0 f i Scale.obj
 0001:00011860       ?ChToByte@CRegParser@ATL@@KAE_W@Z 0000000180012860 f i Scale.obj
 0001:000119c0       ?ChangeType@CComVariant@ATL@@QEAAJGPEBUtagVARIANT@@@Z 00000001800129c0 f i Scale.obj
 0001:00011a30       ?Cleanup@CComTypeInfoHolder@ATL@@SAX_K@Z 0000000180012a30 f i Scale.obj
 0001:00011b20       ?Clear@CComVariant@ATL@@QEAAJXZ 0000000180012b20 f i Scale.obj
 0001:00011b50       ?ClearReplacements@CExpansionVector@ATL@@QEAAJXZ 0000000180012b50 f i Scale.obj
 0001:00011bf0       ?ClearReplacements@CRegObject@ATL@@UEAAJXZ 0000000180012bf0 f i Scale.obj
 0001:00011c50       ?Clone@?$CComEnumImpl@UIEnumConnectionPoints@@$1?_GUID_b196b285_bab4_101a_b69c_00aa00341d07@@3U__s_GUID@@BPEAUIConnectionPoint@@V?$_CopyInterface@UIConnectionPoint@@@ATL@@@ATL@@UEAAJPEAPEAUIEnumConnectionPoints@@@Z 0000000180012c50 f i Scale.obj
 0001:00011e40       ?Clone@?$CComEnumImpl@UIEnumConnections@@$1?_GUID_b196b287_bab4_101a_b69c_00aa00341d07@@3U__s_GUID@@BUtagCONNECTDATA@@V?$_Copy@UtagCONNECTDATA@@@ATL@@@ATL@@UEAAJPEAPEAUIEnumConnections@@@Z 0000000180012e40 f i Scale.obj
 0001:00012030       ?Close@?$IOleObjectImpl@VCOPOSScale@@@ATL@@UEAAJK@Z 0000000180013030 f i Scale.obj
 0001:000120e0       ?Close@CRegKey@ATL@@QEAAJXZ 00000001800130e0 f i Scale.obj
 0001:00012150       ?ContextSensitiveHelp@?$IOleInPlaceActiveObjectImpl@VCOPOSScale@@@ATL@@UEAAJH@Z 0000000180013150 f i Scale.obj
 0001:000121d0       ?ContextSensitiveHelp@?$IOleInPlaceObjectWindowlessImpl@VCOPOSScale@@@ATL@@UEAAJH@Z 00000001800131d0 f i Scale.obj
 0001:00012250       ?ControlQueryInterface@?$CComControl@VCOPOSScale@@V?$CWindowImpl@VCOPOSScale@@VCWindow@ATL@@V?$CWinTraits@$0FGAAAAAA@$0A@@3@@ATL@@@ATL@@UEAAJAEBU_GUID@@PEAPEAX@Z 0000000180013250 f i Scale.obj
 0001:000122e0       ?CreateControlWindow@?$CComControl@VCOPOSScale@@V?$CWindowImpl@VCOPOSScale@@VCWindow@ATL@@V?$CWinTraits@$0FGAAAAAA@$0A@@3@@ATL@@@ATL@@UEAAPEAUHWND__@@PEAU3@AEAUtagRECT@@@Z 00000001800132e0 f i Scale.obj
 0001:000123d0       ?CreateInstance@?$CComCreator@V?$CComAggObject@VCOPOSScale@@@ATL@@@ATL@@SAJPEAXAEBU_GUID@@PEAPEAX@Z 00000001800133d0 f i Scale.obj
 0001:000125b0       ?CreateInstance@?$CComCreator@V?$CComObject@VCOPOSScale@@@ATL@@@ATL@@SAJPEAXAEBU_GUID@@PEAPEAX@Z 00000001800135b0 f i Scale.obj
 0001:000127b0       ?CreateInstance@?$CComObject@V?$CComEnum@UIEnumConnectionPoints@@$1?_GUID_b196b285_bab4_101a_b69c_00aa00341d07@@3U__s_GUID@@BPEAUIConnectionPoint@@V?$_CopyInterface@UIConnectionPoint@@@ATL@@VCComSingleThreadModel@6@@ATL@@@ATL@@SAJPEAPEAV12@@Z 00000001800137b0 f i Scale.obj
 0001:00012970       ?CreateInstance@?$CComObject@V?$CComEnum@UIEnumConnections@@$1?_GUID_b196b287_bab4_101a_b69c_00aa00341d07@@3U__s_GUID@@BUtagCONNECTDATA@@V?$_Copy@UtagCONNECTDATA@@@ATL@@VCComSingleThreadModel@6@@ATL@@@ATL@@SAJPEAPEAV12@@Z 0000000180013970 f i Scale.obj
 0001:00012b30       ?CreateInstance@CComClassFactory@ATL@@UEAAJPEAUIUnknown@@AEBU_GUID@@PEAPEAX@Z 0000000180013b30 f i Scale.obj
 0001:00012c50       ?DAdvise@?$IDataObjectImpl@VCOPOSScale@@@ATL@@UEAAJPEAUtagFORMATETC@@KPEAUIAdviseSink@@PEAK@Z 0000000180013c50 f i Scale.obj
 0001:00012db0       ?DEVMODEOLE2T_EX@@YAPEAU_devicemodeW@@PEAU1@@Z 0000000180013db0 f i Scale.obj
 0001:00012dc0       ?DUnadvise@?$IDataObjectImpl@VCOPOSScale@@@ATL@@UEAAJK@Z 0000000180013dc0 f i Scale.obj
 0001:00012ec0       ?Decrement@CComMultiThreadModel@ATL@@SAKPEAJ@Z 0000000180013ec0 f i Scale.obj
 0001:00012ee0       ?Decrement@CComSingleThreadModel@ATL@@SAKPEAJ@Z 0000000180013ee0 f i Scale.obj
 0001:00012f00       ?DefWindowProcW@?$CWindowImplBaseT@VCWindow@ATL@@V?$CWinTraits@$0FGAAAAAA@$0A@@2@@ATL@@QEAA_JI_K_J@Z 0000000180013f00 f i Scale.obj
 0001:00012f60       ?DefaultReflectionHandler@?$CWindowImplRoot@VCWindow@ATL@@@ATL@@SAHPEAUHWND__@@I_K_JAEA_J@Z 0000000180013f60 f i Scale.obj
 0001:00013050       ?DeleteSubKey@CRegKey@ATL@@QEAAJPEB_W@Z 0000000180014050 f i Scale.obj
 0001:00013180       ?DeleteValue@CRegKey@ATL@@QEAAJPEB_W@Z 0000000180014180 f i Scale.obj
 0001:00013210       ?Detach@?$CAutoVectorPtr@_W@ATL@@QEAAPEA_WXZ 0000000180014210 f i Scale.obj
 0001:00013250       ?Detach@?$CComPtrBase@UIPersistStream@@@ATL@@QEAAPEAUIPersistStream@@XZ 0000000180014250 f i Scale.obj
 0001:00013290       ?Detach@?$CComPtrBase@UITypeInfo@@@ATL@@QEAAPEAUITypeInfo@@XZ 0000000180014290 f i Scale.obj
 0001:000132d0       ?Detach@?$CComPtrBase@UIUnknown@@@ATL@@QEAAPEAUIUnknown@@XZ 00000001800142d0 f i Scale.obj
 0001:00013310       ?Detach@CComBSTR@ATL@@QEAAPEA_WXZ 0000000180014310 f i Scale.obj
 0001:00013350       ?Detach@CParseBuffer@CRegParser@ATL@@QEAAPEA_WXZ 0000000180014350 f i Scale.obj
 0001:000133b0       ?Detach@CRegKey@ATL@@QEAAPEAUHKEY__@@XZ 00000001800143b0 f i Scale.obj
 0001:00013410       ?DoEvent@COPOSScale@@IEAAXI_K_J@Z 0000000180014410 f i Scale.obj
 0001:00013550       ?DoVerb@?$IOleObjectImpl@VCOPOSScale@@@ATL@@UEAAJJPEAUtagMSG@@PEAUIOleClientSite@@JPEAUHWND__@@PEBUtagRECT@@@Z 0000000180014550 f i Scale.obj
 0001:00013860       ?DoVerbDiscardUndo@?$IOleObjectImpl@VCOPOSScale@@@ATL@@QEAAJPEBUtagRECT@@PEAUHWND__@@@Z 0000000180014860 f i Scale.obj
 0001:00013900       ?DoVerbHide@?$IOleObjectImpl@VCOPOSScale@@@ATL@@QEAAJPEBUtagRECT@@PEAUHWND__@@@Z 0000000180014900 f i Scale.obj
 0001:000139e0       ?DoVerbInPlaceActivate@?$IOleObjectImpl@VCOPOSScale@@@ATL@@QEAAJPEBUtagRECT@@PEAUHWND__@@@Z 00000001800149e0 f i Scale.obj
 0001:00013ac0       ?DoVerbOpen@?$IOleObjectImpl@VCOPOSScale@@@ATL@@QEAAJPEBUtagRECT@@PEAUHWND__@@@Z 0000000180014ac0 f i Scale.obj
 0001:00013b60       ?DoVerbPrimary@?$IOleObjectImpl@VCOPOSScale@@@ATL@@QEAAJPEBUtagRECT@@PEAUHWND__@@@Z 0000000180014b60 f i Scale.obj
 0001:00013ca0       ?DoVerbProperties@CComControlBase@ATL@@QEAAJPEBUtagRECT@@PEAUHWND__@@@Z 0000000180014ca0 f i Scale.obj
 0001:00014050       ?DoVerbShow@?$IOleObjectImpl@VCOPOSScale@@@ATL@@QEAAJPEBUtagRECT@@PEAUHWND__@@@Z 0000000180015050 f i Scale.obj
 0001:00014110       ?DoVerbUIActivate@?$IOleObjectImpl@VCOPOSScale@@@ATL@@QEAAJPEBUtagRECT@@PEAUHWND__@@@Z 0000000180015110 f i Scale.obj
 0001:000141f0       ?DoesVerbActivate@CComControlBase@ATL@@QEAAHJ@Z 00000001800151f0 f i Scale.obj
 0001:00014250       ?DoesVerbUIActivate@CComControlBase@ATL@@QEAAHJ@Z 0000000180015250 f i Scale.obj
 0001:000142d0       ?Draw@?$IViewObjectExImpl@VCOPOSScale@@@ATL@@UEAAJKJPEAXPEAUtagDVTARGETDEVICE@@PEAUHDC__@@2PEBU_RECTL@@3P6AH_K@Z4@Z 00000001800152d0 f i Scale.obj
 0001:000143f0       ?Empty@CComBSTR@ATL@@QEAAXXZ 00000001800153f0 f i Scale.obj
 0001:00014430       ?EnableModeless@?$IOleInPlaceActiveObjectImpl@VCOPOSScale@@@ATL@@UEAAJH@Z 0000000180015430 f i Scale.obj
 0001:000144a0       ?EndOfVar@CRegParser@ATL@@IEAAHXZ 00000001800154a0 f i Scale.obj
 0001:00014500       ?EnsureTI@CComTypeInfoHolder@ATL@@QEAAJK@Z 0000000180015500 f i Scale.obj
 0001:00014560       ?EnumAdvise@?$IOleObjectImpl@VCOPOSScale@@@ATL@@UEAAJPEAPEAUIEnumSTATDATA@@@Z 0000000180015560 f i Scale.obj
 0001:000146c0       ?EnumConnectionPoints@?$IConnectionPointContainerImpl@VCOPOSScale@@@ATL@@UEAAJPEAPEAUIEnumConnectionPoints@@@Z 00000001800156c0 f i Scale.obj
 0001:00014bb0       ?EnumConnections@?$IConnectionPointImpl@VCOPOSScale@@$1?DIID__IOPOSScaleEvents@@3U_GUID@@BVCComDynamicUnkArray@ATL@@@ATL@@UEAAJPEAPEAUIEnumConnections@@@Z 0000000180015bb0 f i Scale.obj
 0001:00014f00       ?EnumConnections@?$IConnectionPointImpl@VCOPOSScale@@$1?IID_IPropertyNotifySink@@3U_GUID@@BVCComDynamicUnkArray@ATL@@@ATL@@UEAAJPEAPEAUIEnumConnections@@@Z 0000000180015f00 f i Scale.obj
 0001:00015250       ?EnumDAdvise@?$IDataObjectImpl@VCOPOSScale@@@ATL@@UEAAJPEAPEAUIEnumSTATDATA@@@Z 0000000180016250 f i Scale.obj
 0001:000153a0       ?EnumFormatEtc@?$IDataObjectImpl@VCOPOSScale@@@ATL@@UEAAJKPEAPEAUIEnumFORMATETC@@@Z 00000001800163a0 f i Scale.obj
 0001:00015430       ?EnumVerbs@?$IOleObjectImpl@VCOPOSScale@@@ATL@@UEAAJPEAPEAUIEnumOLEVERB@@@Z 0000000180016430 f i Scale.obj
 0001:00015500       ?EscapeSingleQuote@CAtlModule@ATL@@SAXPEA_W_KPEB_W@Z 0000000180016500 f i Scale.obj
 0001:00015600       ?ExtractCreateWndData@CAtlWinModule@ATL@@QEAAPEAXXZ 0000000180016600 f i Scale.obj
 0001:00015630       ?FAccessAllowed@?$IObjectSafetyImpl@VCOPOSScale@@$02@ATL@@MEAAHXZ 0000000180016630 f i Scale.obj
 0001:00015640       ?FinalConstruct@?$CComAggObject@VCOPOSScale@@@ATL@@QEAAJXZ 0000000180016640 f i Scale.obj
 0001:00015690       ?FinalConstruct@CComObjectRootBase@ATL@@QEAAJXZ 0000000180016690 f i Scale.obj
 0001:000156a0       ?FinalConstruct@CRegObject@ATL@@QEAAJXZ 00000001800166a0 f i Scale.obj
 0001:000156e0       ?FinalRelease@?$CComAggObject@VCOPOSScale@@@ATL@@QEAAXXZ 00000001800166e0 f i Scale.obj
 0001:00015730       ?FinalRelease@CComObjectRootBase@ATL@@QEAAXXZ 0000000180016730 f i Scale.obj
 0001:00015740       ?FindConnectionPoint@?$IConnectionPointContainerImpl@VCOPOSScale@@@ATL@@UEAAJAEBU_GUID@@PEAPEAUIConnectionPoint@@@Z 0000000180016740 f i Scale.obj
 0001:000158b0       ?FindKey@?$CSimpleMap@PEA_WPEA_WVCExpansionVectorEqualHelper@ATL@@@ATL@@QEBAHAEBQEA_W@Z 00000001800168b0 f i Scale.obj
 0001:00015930       ?FireTheEvent@?$CProxy_IOPOSEvents@VCOPOSScale@@@@IEAAXPEAUIUnknown@@PEAVOposVariant@@IAEAJPEB_WJ@Z 0000000180016930 f i Scale.obj
 0001:00015b10       ?FireViewChange@CComControlBase@ATL@@QEAAJXZ 0000000180016b10 f i Scale.obj
 0001:00015bf0       ?Fire_DataEvent@?$CProxy_IOPOSEvents@VCOPOSScale@@@@QEAAXJ@Z 0000000180016bf0 f i Scale.obj
 0001:00015de0       ?Fire_DirectIOEvent@?$CProxy_IOPOSEvents@VCOPOSScale@@@@QEAAXJPEAJPEAPEA_W@Z 0000000180016de0 f i Scale.obj
 0001:00016070       ?Fire_ErrorEvent@?$CProxy_IOPOSEvents@VCOPOSScale@@@@QEAAXJJJPEAJ@Z 0000000180017070 f i Scale.obj
 0001:00016320       ?Fire_StatusUpdateEvent@?$CProxy_IOPOSEvents@VCOPOSScale@@@@QEAAXJ@Z 0000000180017320 f i Scale.obj
 0001:00016510       ?FormatWindowClassName@AtlModuleRegisterWndClassInfoParamW@ATL@@SAXPEA_WKPEAX@Z 0000000180017510 f i Scale.obj
 0001:00016560       ?Free@?$CAutoVectorPtr@_W@ATL@@QEAAXXZ 0000000180017560 f i Scale.obj
 0001:000165b0       ?FreeHeap@?$CTempBuffer@E$0BAA@VCCRTAllocator@ATL@@@ATL@@AEAAXXZ 00000001800175b0 f i Scale.obj
 0001:000165f0       ?FreeHeap@?$CTempBuffer@_W$0BAA@VCCRTAllocator@ATL@@@ATL@@AEAAXXZ 00000001800175f0 f i Scale.obj
 0001:00016630       ?FreeHeap@?$CTempBuffer@_W$0EAA@VCCRTAllocator@ATL@@@ATL@@AEAAXXZ 0000000180017630 f i Scale.obj
 0001:00016670       ?Freeze@?$IViewObjectExImpl@VCOPOSScale@@@ATL@@UEAAJKJPEAXPEAK@Z 0000000180017670 f i Scale.obj
 0001:00016700       ?GenerateError@CRegParser@ATL@@IEAAJI@Z 0000000180017700 f i Scale.obj
 0001:00016720       ?GetAdvise@?$IViewObjectExImpl@VCOPOSScale@@@ATL@@UEAAJPEAK0PEAPEAUIAdviseSink@@@Z 0000000180017720 f i Scale.obj
 0001:00016870       ?GetAmbientLocaleID@CComControlBase@ATL@@QEAAJAEAK@Z 0000000180017870 f i Scale.obj
 0001:00016950       ?GetAmbientProperty@CComControlBase@ATL@@QEAAJJAEAUtagVARIANT@@@Z 0000000180017950 f i Scale.obj
 0001:000169c0       ?GetAmbientUserMode@CComControlBase@ATL@@QEAAJAEAH@Z 00000001800179c0 f i Scale.obj
 0001:00016ae0       ?GetAppId@?$CAtlModuleT@VCComModule@ATL@@@ATL@@SAPEB_WXZ 0000000180017ae0 f i Scale.obj
 0001:00016af0       ?GetAt@CComDynamicUnkArray@ATL@@QEAAPEAUIUnknown@@H@Z 0000000180017af0 f i Scale.obj
 0001:00016ba0       ?GetCanonicalFormatEtc@?$IDataObjectImpl@VCOPOSScale@@@ATL@@UEAAJPEAUtagFORMATETC@@0@Z 0000000180017ba0 f i Scale.obj
 0001:00016c30       ?GetClassID@?$IPersistStorageImpl@VCOPOSScale@@@ATL@@UEAAJPEAU_GUID@@@Z 0000000180017c30 f i Scale.obj
 0001:00016cd0       ?GetClassID@?$IPersistStreamInitImpl@VCOPOSScale@@@ATL@@UEAAJPEAU_GUID@@@Z 0000000180017cd0 f i Scale.obj
 0001:00016d70       ?GetClassInfoExW@AtlModuleRegisterWndClassInfoParamW@ATL@@SAHPEAUHINSTANCE__@@PEB_WPEAUtagWNDCLASSEXW@@@Z 0000000180017d70 f i Scale.obj
 0001:00016dc0       ?GetClassInfoW@?$IProvideClassInfo2Impl@$1?CLSID_OPOSScale@@3U_GUID@@B$1?DIID__IOPOSScaleEvents@@3U2@B$1?LIBID_OposScale_CCO@@3U2@B$00$0A@VCComTypeInfoHolder@ATL@@@ATL@@UEAAJPEAPEAUITypeInfo@@@Z 0000000180017dc0 f i Scale.obj
 0001:00016e00       ?GetClassObject@CComModule@ATL@@QEAAJAEBU_GUID@@0PEAPEAX@Z 0000000180017e00 f i Scale.obj
 0001:00017070       ?GetClientSite@?$IOleObjectImpl@VCOPOSScale@@@ATL@@UEAAJPEAPEAUIOleClientSite@@@Z 0000000180018070 f i Scale.obj
 0001:00017120       ?GetClipboardData@?$IOleObjectImpl@VCOPOSScale@@@ATL@@UEAAJKPEAPEAUIDataObject@@@Z 0000000180018120 f i Scale.obj
 0001:000171b0       ?GetCodeAddress@CDynamicStdCallThunk2@ATL@@QEAAPEAXXZ 00000001800181b0 f i Scale.obj
 0001:000171f0       ?GetColorSet@?$IViewObjectExImpl@VCOPOSScale@@@ATL@@UEAAJKJPEAXPEAUtagDVTARGETDEVICE@@PEAUHDC__@@PEAPEAUtagLOGPALETTE@@@Z 00000001800181f0 f i Scale.obj
 0001:00017280       ?GetConnMap@COPOSScale@@SAPEBU_ATL_CONNMAP_ENTRY@ATL@@PEAH@Z 0000000180018280 f i Scale.obj
 0001:000173e0       ?GetConnectionInterface@?$IConnectionPointImpl@VCOPOSScale@@$1?DIID__IOPOSScaleEvents@@3U_GUID@@BVCComDynamicUnkArray@ATL@@@ATL@@UEAAJPEAU_GUID@@@Z 00000001800183e0 f i Scale.obj
 0001:00017420       ?GetConnectionInterface@?$IConnectionPointImpl@VCOPOSScale@@$1?IID_IPropertyNotifySink@@3U_GUID@@BVCComDynamicUnkArray@ATL@@@ATL@@UEAAJPEAU_GUID@@@Z 0000000180018420 f i Scale.obj
 0001:00017460       ?GetConnectionPointContainer@?$IConnectionPointImpl@VCOPOSScale@@$1?DIID__IOPOSScaleEvents@@3U_GUID@@BVCComDynamicUnkArray@ATL@@@ATL@@UEAAJPEAPEAUIConnectionPointContainer@@@Z 0000000180018460 f i Scale.obj
 0001:000174e0       ?GetConnectionPointContainer@?$IConnectionPointImpl@VCOPOSScale@@$1?IID_IPropertyNotifySink@@3U_GUID@@BVCComDynamicUnkArray@ATL@@@ATL@@UEAAJPEAPEAUIConnectionPointContainer@@@Z 00000001800184e0 f i Scale.obj
 0001:00017560       ?GetContentExtent@?$IQuickActivateImpl@VCOPOSScale@@@ATL@@UEAAJPEAUtagSIZE@@@Z 0000000180018560 f i Scale.obj
 0001:00017620       ?GetControlInfo@?$IOleControlImpl@VCOPOSScale@@@ATL@@UEAAJPEAUtagCONTROLINFO@@@Z 0000000180018620 f i Scale.obj
 0001:000176b0       ?GetCookie@CComDynamicUnkArray@ATL@@QEAAKPEAPEAUIUnknown@@@Z 00000001800186b0 f i Scale.obj
 0001:000177a0       ?GetData@?$IDataObjectImpl@VCOPOSScale@@@ATL@@UEAAJPEAUtagFORMATETC@@PEAUtagSTGMEDIUM@@@Z 00000001800187a0 f i Scale.obj
 0001:00017860       ?GetData@CAtlSafeAllocBufferNode@?$CAtlSafeAllocBufferManager@VCCRTAllocator@ATL@@@_ATL_SAFE_ALLOCA_IMPL@ATL@@QEAAPEAXXZ 0000000180018860 f i Scale.obj
 0001:00017880       ?GetDataHere@?$IDataObjectImpl@VCOPOSScale@@@ATL@@UEAAJPEAUtagFORMATETC@@PEAUtagSTGMEDIUM@@@Z 0000000180018880 f i Scale.obj
 0001:00017910       ?GetDropTarget@?$IOleInPlaceObjectWindowlessImpl@VCOPOSScale@@@ATL@@UEAAJPEAPEAUIDropTarget@@@Z 0000000180018910 f i Scale.obj
 0001:000179a0       ?GetExtent@?$IOleObjectImpl@VCOPOSScale@@@ATL@@UEAAJKPEAUtagSIZE@@@Z 00000001800189a0 f i Scale.obj
 0001:00017a70       ?GetExtent@?$IViewObjectExImpl@VCOPOSScale@@@ATL@@UEAAJKJPEAUtagDVTARGETDEVICE@@PEAUtagSIZE@@@Z 0000000180018a70 f i Scale.obj
 0001:00017b80       ?GetGITPtr@CAtlModule@ATL@@UEAAJPEAPEAUIGlobalInterfaceTable@@@Z 0000000180018b80 f i Scale.obj
 0001:00017cc0       ?GetGUID@?$IProvideClassInfo2Impl@$1?CLSID_OPOSScale@@3U_GUID@@B$1?DIID__IOPOSScaleEvents@@3U2@B$1?LIBID_OposScale_CCO@@3U2@B$00$0A@VCComTypeInfoHolder@ATL@@@ATL@@UEAAJKPEAU_GUID@@@Z 0000000180018cc0 f i Scale.obj
 0001:00017d40       ?GetIDsOfNames@?$IDispatchImpl@UIOPOSScale@@$1?IID_IOPOSScale@@3U_GUID@@B$1?LIBID_OposScale_CCO@@3U3@B$00$0A@VCComTypeInfoHolder@ATL@@@ATL@@UEAAJAEBU_GUID@@PEAPEA_WIKPEAJ@Z 0000000180018d40 f i Scale.obj
 0001:00017da0       ?GetIDsOfNames@CComTypeInfoHolder@ATL@@QEAAJAEBU_GUID@@PEAPEA_WIKPEAJ@Z 0000000180018da0 f i Scale.obj
 0001:00017fc0       ?GetInterfaceSafetyOptions@?$IObjectSafetyImpl@VCOPOSScale@@$02@ATL@@UEAAJAEBU_GUID@@PEAK1@Z 0000000180018fc0 f i Scale.obj
 0001:00018160       ?GetKeyAt@?$CSimpleMap@PEA_WPEA_WVCExpansionVectorEqualHelper@ATL@@@ATL@@QEBAAEAPEA_WH@Z 0000000180019160 f i Scale.obj
 0001:00018210       ?GetLockCount@CAtlModule@ATL@@UEAAJXZ 0000000180019210 f i Scale.obj
 0001:00018220       ?GetMiscStatus@?$IOleObjectImpl@VCOPOSScale@@@ATL@@UEAAJKPEAK@Z 0000000180019220 f i Scale.obj
 0001:000182b0       ?GetMoniker@?$IOleObjectImpl@VCOPOSScale@@@ATL@@UEAAJKKPEAPEAUIMoniker@@@Z 00000001800192b0 f i Scale.obj
 0001:00018340       ?GetNaturalExtent@?$IViewObjectExImpl@VCOPOSScale@@@ATL@@UEAAJKJPEAUtagDVTARGETDEVICE@@PEAUHDC__@@PEAUtagExtentInfo@@PEAUtagSIZE@@@Z 0000000180019340 f i Scale.obj
 0001:000184d0       ?GetObjectCLSID@?$CComCoClass@VCOPOSScale@@$1?CLSID_OPOSScale@@3U_GUID@@B@ATL@@SAAEBU_GUID@@XZ 00000001800194d0 f i Scale.obj
 0001:000184e0       ?GetPages@?$ISpecifyPropertyPagesImpl@VCOPOSScale@@@ATL@@UEAAJPEAUtagCAUUID@@@Z 00000001800194e0 f i Scale.obj
 0001:00018570       ?GetPagesHelper@?$ISpecifyPropertyPagesImpl@VCOPOSScale@@@ATL@@IEAAJPEAUtagCAUUID@@PEBUATL_PROPMAP_ENTRY@2@@Z 0000000180019570 f i Scale.obj
 0001:000187e0       ?GetProperty@?$CComPtr@UIDispatch@@@ATL@@QEAAJJPEAUtagVARIANT@@@Z 00000001800197e0 f i Scale.obj
 0001:00018830       ?GetProperty@?$CComPtr@UIDispatch@@@ATL@@SAJPEAUIDispatch@@JPEAUtagVARIANT@@@Z 0000000180019830 f i Scale.obj
 0001:00018a00       ?GetPropertyMap@COPOSScale@@SAPEBUATL_PROPMAP_ENTRY@ATL@@XZ 0000000180019a00 f i Scale.obj
 0001:00018a10       ?GetRect@?$IViewObjectExImpl@VCOPOSScale@@@ATL@@UEAAJKPEAU_RECTL@@@Z 0000000180019a10 f i Scale.obj
 0001:00018aa0       ?GetSize@?$CSimpleMap@PEA_WPEA_WVCExpansionVectorEqualHelper@ATL@@@ATL@@QEBAHXZ 0000000180019aa0 f i Scale.obj
 0001:00018ab0       ?GetSize@CComDynamicUnkArray@ATL@@QEBAHXZ 0000000180019ab0 f i Scale.obj
 0001:00018ac0       ?GetSizeMax@?$IPersistStreamInitImpl@VCOPOSScale@@@ATL@@UEAAJPEAT_ULARGE_INTEGER@@@Z 0000000180019ac0 f i Scale.obj
 0001:00019250       ?GetSizeMax@CComVariant@ATL@@QEBAJPEAT_ULARGE_INTEGER@@@Z 000000018001a250 f i Scale.obj
 0001:00019680       ?GetStreamSize@CComBSTR@ATL@@SAKPEA_W@Z 000000018001a680 f i Scale.obj
 0001:000196e0       ?GetTI@CComTypeInfoHolder@ATL@@QEAAJK@Z 000000018001a6e0 f i Scale.obj
 0001:00019fb0       ?GetTI@CComTypeInfoHolder@ATL@@QEAAJKPEAPEAUITypeInfo@@@Z 000000018001afb0 f i Scale.obj
 0001:0001a0a0       ?GetTypeInfo@?$IDispatchImpl@UIOPOSScale@@$1?IID_IOPOSScale@@3U_GUID@@B$1?LIBID_OposScale_CCO@@3U3@B$00$0A@VCComTypeInfoHolder@ATL@@@ATL@@UEAAJIKPEAPEAUITypeInfo@@@Z 000000018001b0a0 f i Scale.obj
 0001:0001a0f0       ?GetTypeInfo@CComTypeInfoHolder@ATL@@QEAAJIKPEAPEAUITypeInfo@@@Z 000000018001b0f0 f i Scale.obj
 0001:0001a150       ?GetTypeInfoCount@?$IDispatchImpl@UIOPOSScale@@$1?IID_IOPOSScale@@3U_GUID@@B$1?LIBID_OposScale_CCO@@3U3@B$00$0A@VCComTypeInfoHolder@ATL@@@ATL@@UEAAJPEAI@Z 000000018001b150 f i Scale.obj
 0001:0001a180       ?GetUnknown@CComDynamicUnkArray@ATL@@QEAAPEAUIUnknown@@K@Z 000000018001b180 f i Scale.obj
 0001:0001a230       ?GetUnknown@COPOSScale@@QEAAPEAUIUnknown@@XZ 000000018001b230 f i Scale.obj
 0001:0001a260       ?GetUserClassID@?$IOleObjectImpl@VCOPOSScale@@@ATL@@UEAAJPEAU_GUID@@@Z 000000018001b260 f i Scale.obj
 0001:0001a340       ?GetUserType@?$IOleObjectImpl@VCOPOSScale@@@ATL@@UEAAJKPEAPEA_W@Z 000000018001b340 f i Scale.obj
 0001:0001a3d0       ?GetValueAt@?$CSimpleMap@PEA_WPEA_WVCExpansionVectorEqualHelper@ATL@@@ATL@@QEBAAEAPEA_WH@Z 000000018001b3d0 f i Scale.obj
 0001:0001a480       ?GetViewStatus@?$IViewObjectExImpl@VCOPOSScale@@@ATL@@UEAAJPEAK@Z 000000018001b480 f i Scale.obj
 0001:0001a580       ?GetWNDPROC@CWndProcThunk@ATL@@QEAAP6A_JPEAUHWND__@@I_K_J@ZXZ 000000018001b580 f i Scale.obj
 0001:0001a5c0       ?GetWindow@?$IOleInPlaceActiveObjectImpl@VCOPOSScale@@@ATL@@UEAAJPEAPEAUHWND__@@@Z 000000018001b5c0 f i Scale.obj
 0001:0001a6c0       ?GetWindow@?$IOleInPlaceObjectWindowlessImpl@VCOPOSScale@@@ATL@@UEAAJPEAPEAUHWND__@@@Z 000000018001b6c0 f i Scale.obj
 0001:0001a7c0       ?GetWindowProc@?$CWindowImplBaseT@VCWindow@ATL@@V?$CWinTraits@$0FGAAAAAA@$0A@@2@@ATL@@UEAAP6A_JPEAUHWND__@@I_K_J@ZXZ 000000018001b7c0 f i Scale.obj
 0001:0001a7d0       ?GetWndCaption@?$CWindowImpl@VCOPOSScale@@VCWindow@ATL@@V?$CWinTraits@$0FGAAAAAA@$0A@@3@@ATL@@SAPEB_WXZ 000000018001b7d0 f i Scale.obj
 0001:0001a7e0       ?GetWndClassInfo@?$CWindowImpl@VCOPOSScale@@VCWindow@ATL@@V?$CWinTraits@$0FGAAAAAA@$0A@@3@@ATL@@SAAEAU_ATL_WNDCLASSINFOW@2@XZ 000000018001b7e0 f i Scale.obj
 0001:0001a7f0       ?GetWndClassName@CWindow@ATL@@SAPEB_WXZ 000000018001b7f0 f i Scale.obj
 0001:0001a800       ?GetWndExStyle@?$CWinTraits@$0FGAAAAAA@$0A@@ATL@@SAKK@Z 000000018001b800 f i Scale.obj
 0001:0001a840       ?GetWndExStyle@?$CWindowImplBaseT@VCWindow@ATL@@V?$CWinTraits@$0FGAAAAAA@$0A@@2@@ATL@@SAKK@Z 000000018001b840 f i Scale.obj
 0001:0001a870       ?GetWndStyle@?$CWinTraits@$0FGAAAAAA@$0A@@ATL@@SAKK@Z 000000018001b870 f i Scale.obj
 0001:0001a8b0       ?GetWndStyle@?$CWindowImplBaseT@VCWindow@ATL@@V?$CWinTraits@$0FGAAAAAA@$0A@@2@@ATL@@SAKK@Z 000000018001b8b0 f i Scale.obj
 0001:0001a8e0       ?GetZoomInfo@CComControlBase@ATL@@QEAAXAEAUATL_DRAWINFO@@@Z 000000018001b8e0 f i Scale.obj
 0001:0001aa90       ?HKeyFromString@CRegParser@ATL@@KAPEAUHKEY__@@PEA_W@Z 000000018001ba90 f i Scale.obj
 0001:0001ab20       ?HandsOffStorage@?$IPersistStorageImpl@VCOPOSScale@@@ATL@@UEAAJXZ 000000018001bb20 f i Scale.obj
 0001:0001ab90       ?HasSubKeys@CRegParser@ATL@@IEAAHPEAUHKEY__@@@Z 000000018001bb90 f i Scale.obj
 0001:0001ad00       ?IDataObject_GetData@CComControlBase@ATL@@QEAAJPEAUtagFORMATETC@@PEAUtagSTGMEDIUM@@@Z 000000018001bd00 f i Scale.obj
 0001:0001b1b0       ?IOleInPlaceObject_InPlaceDeactivate@CComControlBase@ATL@@QEAAJXZ 000000018001c1b0 f i Scale.obj
 0001:0001b420       ?IOleInPlaceObject_SetObjectRects@CComControlBase@ATL@@QEAAJPEBUtagRECT@@0@Z 000000018001c420 f i Scale.obj
 0001:0001b600       ?IOleInPlaceObject_UIDeactivate@CComControlBase@ATL@@QEAAJXZ 000000018001c600 f i Scale.obj
 0001:0001b870       ?IOleObject_Advise@CComControlBase@ATL@@QEAAJPEAUIAdviseSink@@PEAK@Z 000000018001c870 f i Scale.obj
 0001:0001b920       ?IOleObject_Close@CComControlBase@ATL@@QEAAJK@Z 000000018001c920 f i Scale.obj
 0001:0001bc90       ?IOleObject_GetClientSite@CComControlBase@ATL@@QEAAJPEAPEAUIOleClientSite@@@Z 000000018001cc90 f i Scale.obj
 0001:0001bd60       ?IOleObject_SetClientSite@CComControlBase@ATL@@QEAAJPEAUIOleClientSite@@@Z 000000018001cd60 f i Scale.obj
 0001:0001be70       ?IOleObject_SetExtent@CComControlBase@ATL@@QEAAJKPEAUtagSIZE@@@Z 000000018001ce70 f i Scale.obj
 0001:0001bfe0       ?IPSI_GetIPersistStreamInit@?$IPersistStorageImpl@VCOPOSScale@@@ATL@@AEAAPEAUIPersistStreamInit@@XZ 000000018001cfe0 f i Scale.obj
 0001:0001c0a0       ?IPersistStreamInit_Load@?$IPersistStreamInitImpl@VCOPOSScale@@@ATL@@QEAAJPEAUIStream@@PEBUATL_PROPMAP_ENTRY@2@@Z 000000018001d0a0 f i Scale.obj
 0001:0001c140       ?IPersistStreamInit_Save@?$IPersistStreamInitImpl@VCOPOSScale@@@ATL@@QEAAJPEAUIStream@@HPEBUATL_PROPMAP_ENTRY@2@@Z 000000018001d140 f i Scale.obj
 0001:0001c200       ?IQuickActivate_QuickActivate@CComControlBase@ATL@@QEAAJPEAUtagQACONTAINER@@PEAUtagQACONTROL@@@Z 000000018001d200 f i Scale.obj
 0001:0001ca40       ?IViewObject_Draw@CComControlBase@ATL@@QEAAJKJPEAXPEAUtagDVTARGETDEVICE@@PEAUHDC__@@2PEBU_RECTL@@3@Z 000000018001da40 f i Scale.obj
 0001:0001ce90       ?InPlaceActivate@CComControlBase@ATL@@QEAAJJPEBUtagRECT@@@Z 000000018001de90 f i Scale.obj
 0001:0001da30       ?InPlaceDeactivate@?$IOleInPlaceObjectWindowlessImpl@VCOPOSScale@@@ATL@@UEAAJXZ 000000018001ea30 f i Scale.obj
 0001:0001dae0       ?Increment@CComMultiThreadModel@ATL@@SAKPEAJ@Z 000000018001eae0 f i Scale.obj
 0001:0001db00       ?Increment@CComSingleThreadModel@ATL@@SAKPEAJ@Z 000000018001eb00 f i Scale.obj
 0001:0001db20       ?Init@?$CComEnumImpl@UIEnumConnectionPoints@@$1?_GUID_b196b285_bab4_101a_b69c_00aa00341d07@@3U__s_GUID@@BPEAUIConnectionPoint@@V?$_CopyInterface@UIConnectionPoint@@@ATL@@@ATL@@QEAAJPEAPEAUIConnectionPoint@@0PEAUIUnknown@@W4CComEnumFlags@2@@Z 000000018001eb20 f i Scale.obj
 0001:0001de10       ?Init@?$CComEnumImpl@UIEnumConnections@@$1?_GUID_b196b287_bab4_101a_b69c_00aa00341d07@@3U__s_GUID@@BUtagCONNECTDATA@@V?$_Copy@UtagCONNECTDATA@@@ATL@@@ATL@@QEAAJPEAUtagCONNECTDATA@@0PEAUIUnknown@@W4CComEnumFlags@2@@Z 000000018001ee10 f i Scale.obj
 0001:0001e100       ?Init@CComFakeCriticalSection@ATL@@QEAAJXZ 000000018001f100 f i Scale.obj
 0001:0001e110       ?Init@CComModule@ATL@@QEAAJPEAU_ATL_OBJMAP_ENTRY30@2@PEAUHINSTANCE__@@PEBU_GUID@@@Z 000000018001f110 f i Scale.obj
 0001:0001e200       ?Init@CComSafeDeleteCriticalSection@ATL@@QEAAJXZ 000000018001f200 f i Scale.obj
 0001:0001e290       ?Init@CDynamicStdCallThunk2@ATL@@QEAAH_KPEAX@Z 000000018001f290 f i Scale.obj
 0001:0001e310       ?Init@CWndProcThunk@ATL@@QEAAHP6A_JPEAUHWND__@@I_K_J@ZPEAX@Z 000000018001f310 f i Scale.obj
 0001:0001e360       ?InitFromData@?$IOleObjectImpl@VCOPOSScale@@@ATL@@UEAAJPEAUIDataObject@@HK@Z 000000018001f360 f i Scale.obj
 0001:0001e3f0       ?InitLibId@?$CAtlModuleT@VCComModule@ATL@@@ATL@@SAXXZ 000000018001f3f0 f i Scale.obj
 0001:0001e400       ?InitNew@?$IPersistStorageImpl@VCOPOSScale@@@ATL@@UEAAJPEAUIStorage@@@Z 000000018001f400 f i Scale.obj
 0001:0001e4f0       ?InitNew@?$IPersistStreamInitImpl@VCOPOSScale@@@ATL@@UEAAJXZ 000000018001f4f0 f i Scale.obj
 0001:0001e5a0       ?InlineIsEqualUnknown@ATL@@YAHAEBU_GUID@@@Z 000000018001f5a0 f i Scale.obj
 0001:0001e630       ?InternalAddRef@?$CComObjectRootEx@VCComMultiThreadModel@ATL@@@ATL@@QEAAKXZ 000000018001f630 f i Scale.obj
 0001:0001e6b0       ?InternalAddRef@?$CComObjectRootEx@VCComSingleThreadModel@ATL@@@ATL@@QEAAKXZ 000000018001f6b0 f i Scale.obj
 0001:0001e730       ?InternalFinalConstructAddRef@CComObjectRootBase@ATL@@QEAAXXZ 000000018001f730 f i Scale.obj
 0001:0001e740       ?InternalFinalConstructAddRef@COPOSScale@@QEAAXXZ 000000018001f740 f i Scale.obj
 0001:0001e780       ?InternalFinalConstructRelease@CComObjectRootBase@ATL@@QEAAXXZ 000000018001f780 f i Scale.obj
 0001:0001e7f0       ?InternalFinalConstructRelease@COPOSScale@@QEAAXXZ 000000018001f7f0 f i Scale.obj
 0001:0001e830       ?InternalGetSite@CComControlBase@ATL@@QEAAJAEBU_GUID@@PEAPEAX@Z 000000018001f830 f i Scale.obj
 0001:0001e910       ?InternalQueryInterface@CComObjectRootBase@ATL@@SAJPEAXPEBU_ATL_INTMAP_ENTRY@2@AEBU_GUID@@PEAPEAX@Z 000000018001f910 f i Scale.obj
 0001:0001ea30       ?InternalRelease@?$CComObjectRootEx@VCComMultiThreadModel@ATL@@@ATL@@QEAAKXZ 000000018001fa30 f i Scale.obj
 0001:0001eab0       ?InternalRelease@?$CComObjectRootEx@VCComSingleThreadModel@ATL@@@ATL@@QEAAKXZ 000000018001fab0 f i Scale.obj
 0001:0001eb30       ?InternalSetAtIndex@?$CSimpleArray@GV?$CSimpleArrayEqualHelper@G@ATL@@@ATL@@QEAAXHAEBG@Z 000000018001fb30 f i Scale.obj
 0001:0001ebb0       ?InternalSetAtIndex@?$CSimpleMap@PEA_WPEA_WVCExpansionVectorEqualHelper@ATL@@@ATL@@QEAAXHAEBQEA_W0@Z 000000018001fbb0 f i Scale.obj
 0001:0001ec80       ?Invoke@?$IDispatchImpl@UIOPOSScale@@$1?IID_IOPOSScale@@3U_GUID@@B$1?LIBID_OposScale_CCO@@3U3@B$00$0A@VCComTypeInfoHolder@ATL@@@ATL@@UEAAJJAEBU_GUID@@KGPEAUtagDISPPARAMS@@PEAUtagVARIANT@@PEAUtagEXCEPINFO@@PEAI@Z 000000018001fc80 f i Scale.obj
 0001:0001ed20       ?Invoke@CComTypeInfoHolder@ATL@@QEAAJPEAUIDispatch@@JAEBU_GUID@@KGPEAUtagDISPPARAMS@@PEAUtagVARIANT@@PEAUtagEXCEPINFO@@PEAI@Z 000000018001fd20 f i Scale.obj
 0001:0001ede0       ?IsDirty@?$IPersistStorageImpl@VCOPOSScale@@@ATL@@UEAAJXZ 000000018001fde0 f i Scale.obj
 0001:0001eed0       ?IsDirty@?$IPersistStreamInitImpl@VCOPOSScale@@@ATL@@UEAAJXZ 000000018001fed0 f i Scale.obj
 0001:0001ef90       ?IsEqualKey@CExpansionVectorEqualHelper@ATL@@SA_NQEA_W0@Z 000000018001ff90 f i Scale.obj
 0001:0001efe0       ?IsEqualObject@?$CComPtrBase@UIOleClientSite@@@ATL@@QEAA_NPEAUIUnknown@@@Z 000000018001ffe0 f i Scale.obj
 0001:0001f130       ?IsEqualObject@?$CComPtrBase@UITypeInfo@@@ATL@@QEAA_NPEAUIUnknown@@@Z 0000000180020130 f i Scale.obj
 0001:0001f280       ?IsSpace@CRegParser@ATL@@IEAAH_W@Z 0000000180020280 f i Scale.obj
 0001:0001f2e0       ?IsUpToDate@?$IOleObjectImpl@VCOPOSScale@@@ATL@@UEAAJXZ 00000001800202e0 f i Scale.obj
 0001:0001f350       ?Length@CComBSTR@ATL@@QEBAIXZ 0000000180020350 f i Scale.obj
 0001:0001f390       ?Load@?$IPersistStorageImpl@VCOPOSScale@@@ATL@@UEAAJPEAUIStorage@@@Z 0000000180020390 f i Scale.obj
 0001:0001f540       ?Load@?$IPersistStreamInitImpl@VCOPOSScale@@@ATL@@UEAAJPEAUIStream@@@Z 0000000180020540 f i Scale.obj
 0001:0001f600       ?LoadCursorW@AtlModuleRegisterWndClassInfoParamW@ATL@@SAPEAUHICON__@@PEAUHINSTANCE__@@PEB_W@Z 0000000180020600 f i Scale.obj
 0001:0001f640       ?LoadNameCache@CComTypeInfoHolder@ATL@@QEAAJPEAUITypeInfo@@@Z 0000000180020640 f i Scale.obj
 0001:0001f980       ?Lock@?$CComCritSecLock@VCComCriticalSection@ATL@@@ATL@@QEAAJXZ 0000000180020980 f i Scale.obj
 0001:0001fa70       ?Lock@?$CComObjectRootEx@VCComSingleThreadModel@ATL@@@ATL@@QEAAXXZ 0000000180020a70 f i Scale.obj
 0001:0001fa80       ?Lock@CAtlModule@ATL@@UEAAJXZ 0000000180020a80 f i Scale.obj
 0001:0001fac0       ?Lock@CComCriticalSection@ATL@@QEAAJXZ 0000000180020ac0 f i Scale.obj
 0001:0001fb00       ?Lock@CComFakeCriticalSection@ATL@@QEAAJXZ 0000000180020b00 f i Scale.obj
 0001:0001fb10       ?LockServer@CComClassFactory@ATL@@UEAAJH@Z 0000000180020b10 f i Scale.obj
 0001:0001fb70       ?Lookup@?$CSimpleMap@PEA_WPEA_WVCExpansionVectorEqualHelper@ATL@@@ATL@@QEBAPEA_WAEBQEA_W@Z 0000000180020b70 f i Scale.obj
 0001:0001fbd0       ?Next@?$CComEnumImpl@UIEnumConnectionPoints@@$1?_GUID_b196b285_bab4_101a_b69c_00aa00341d07@@3U__s_GUID@@BPEAUIConnectionPoint@@V?$_CopyInterface@UIConnectionPoint@@@ATL@@@ATL@@UEAAJKPEAPEAUIConnectionPoint@@PEAK@Z 0000000180020bd0 f i Scale.obj
 0001:0001fd90       ?Next@?$CComEnumImpl@UIEnumConnections@@$1?_GUID_b196b287_bab4_101a_b69c_00aa00341d07@@3U__s_GUID@@BUtagCONNECTDATA@@V?$_Copy@UtagCONNECTDATA@@@ATL@@@ATL@@UEAAJKPEAUtagCONNECTDATA@@PEAK@Z 0000000180020d90 f i Scale.obj
 0001:0001ff50       ?NextToken@CRegParser@ATL@@IEAAJPEA_W@Z 0000000180020f50 f i Scale.obj
 0001:000202e0       ?OLE2CT_EX@@YAPEB_WPEB_WI@Z 00000001800212e0 f i Scale.obj
 0001:00020300       ?OLE2CT_EX_DEF@@YAPEB_WPEB_W@Z 0000000180021300 f i Scale.obj
 0001:00020310       ?OLE2T_EX@@YAPEA_WPEA_WI@Z 0000000180021310 f i Scale.obj
 0001:00020330       ?OnAmbientPropertyChange@?$IOleControlImpl@VCOPOSScale@@@ATL@@UEAAJJ@Z 0000000180021330 f i Scale.obj
 0001:000203f0       ?OnDocWindowActivate@?$IOleInPlaceActiveObjectImpl@VCOPOSScale@@@ATL@@UEAAJH@Z 00000001800213f0 f i Scale.obj
 0001:000204b0       ?OnDrawAdvanced@CComControlBase@ATL@@UEAAJAEAUATL_DRAWINFO@@@Z 00000001800214b0 f i Scale.obj
 0001:00020700       ?OnFinalMessage@?$CWindowImplBaseT@VCWindow@ATL@@V?$CWinTraits@$0FGAAAAAA@$0A@@2@@ATL@@UEAAXPEAUHWND__@@@Z 0000000180021700 f i Scale.obj
 0001:00020710       ?OnFrameWindowActivate@?$IOleInPlaceActiveObjectImpl@VCOPOSScale@@@ATL@@UEAAJH@Z 0000000180021710 f i Scale.obj
 0001:00020780       ?OnKillFocus@CComControlBase@ATL@@QEAA_JI_K_JAEAH@Z 0000000180021780 f i Scale.obj
 0001:00020870       ?OnMnemonic@?$IOleControlImpl@VCOPOSScale@@@ATL@@UEAAJPEAUtagMSG@@@Z 0000000180021870 f i Scale.obj
 0001:00020900       ?OnMouseActivate@CComControlBase@ATL@@QEAA_JI_K_JAEAH@Z 0000000180021900 f i Scale.obj
 0001:00020aa0       ?OnPaint@CComControlBase@ATL@@QEAA_JI_K_JAEAH@Z 0000000180021aa0 f i Scale.obj
 0001:00020c30       ?OnPostVerbDiscardUndo@?$IOleObjectImpl@VCOPOSScale@@@ATL@@QEAAJXZ 0000000180021c30 f i Scale.obj
 0001:00020c40       ?OnPostVerbHide@?$IOleObjectImpl@VCOPOSScale@@@ATL@@QEAAJXZ 0000000180021c40 f i Scale.obj
 0001:00020c50       ?OnPostVerbInPlaceActivate@?$IOleObjectImpl@VCOPOSScale@@@ATL@@QEAAJXZ 0000000180021c50 f i Scale.obj
 0001:00020c60       ?OnPostVerbOpen@?$IOleObjectImpl@VCOPOSScale@@@ATL@@QEAAJXZ 0000000180021c60 f i Scale.obj
 0001:00020c70       ?OnPostVerbShow@?$IOleObjectImpl@VCOPOSScale@@@ATL@@QEAAJXZ 0000000180021c70 f i Scale.obj
 0001:00020c80       ?OnPostVerbUIActivate@?$IOleObjectImpl@VCOPOSScale@@@ATL@@QEAAJXZ 0000000180021c80 f i Scale.obj
 0001:00020c90       ?OnPreVerbDiscardUndo@?$IOleObjectImpl@VCOPOSScale@@@ATL@@QEAAJXZ 0000000180021c90 f i Scale.obj
 0001:00020ca0       ?OnPreVerbHide@?$IOleObjectImpl@VCOPOSScale@@@ATL@@QEAAJXZ 0000000180021ca0 f i Scale.obj
 0001:00020cb0       ?OnPreVerbInPlaceActivate@?$IOleObjectImpl@VCOPOSScale@@@ATL@@QEAAJXZ 0000000180021cb0 f i Scale.obj
 0001:00020cc0       ?OnPreVerbOpen@?$IOleObjectImpl@VCOPOSScale@@@ATL@@QEAAJXZ 0000000180021cc0 f i Scale.obj
 0001:00020cd0       ?OnPreVerbShow@?$IOleObjectImpl@VCOPOSScale@@@ATL@@QEAAJXZ 0000000180021cd0 f i Scale.obj
 0001:00020ce0       ?OnPreVerbUIActivate@?$IOleObjectImpl@VCOPOSScale@@@ATL@@QEAAJXZ 0000000180021ce0 f i Scale.obj
 0001:00020cf0       ?OnSetFocus@CComControlBase@ATL@@QEAA_JI_K_JAEAH@Z 0000000180021cf0 f i Scale.obj
 0001:00020ef0       ?OnWindowMessage@?$IOleInPlaceObjectWindowlessImpl@VCOPOSScale@@@ATL@@UEAAJI_K_JPEA_J@Z 0000000180021ef0 f i Scale.obj
 0001:00021110       ?Open@CRegKey@ATL@@QEAAJPEAUHKEY__@@PEB_WK@Z 0000000180022110 f i Scale.obj
 0001:00021290       ?OuterAddRef@CComObjectRootBase@ATL@@QEAAKXZ 0000000180022290 f i Scale.obj
 0001:000212d0       ?OuterQueryInterface@CComObjectRootBase@ATL@@QEAAJAEBU_GUID@@PEAPEAX@Z 00000001800222d0 f i Scale.obj
 0001:00021320       ?OuterRelease@CComObjectRootBase@ATL@@QEAAKXZ 0000000180022320 f i Scale.obj
 0001:00021360       ?PreProcessBuffer@CRegParser@ATL@@QEAAJPEA_WPEAPEA_W@Z 0000000180022360 f i Scale.obj
 0001:00021a40       ?PreTranslateAccelerator@CComControlBase@ATL@@QEAAHPEAUtagMSG@@AEAJ@Z 0000000180022a40 f i Scale.obj
 0001:00021a60       ?ProcessWindowMessage@?$CComControl@VCOPOSScale@@V?$CWindowImpl@VCOPOSScale@@VCWindow@ATL@@V?$CWinTraits@$0FGAAAAAA@$0A@@3@@ATL@@@ATL@@UEAAHPEAUHWND__@@I_K_JAEA_JK@Z 0000000180022a60 f i Scale.obj
 0001:00021ce0       ?ProcessWindowMessage@COPOSScale@@UEAAHPEAUHWND__@@I_K_JAEA_JK@Z 0000000180022ce0 f i Scale.obj
 0001:00021e60       ?PutProperty@?$CComPtr@UIDispatch@@@ATL@@QEAAJJPEAUtagVARIANT@@@Z 0000000180022e60 f i Scale.obj
 0001:00021eb0       ?PutProperty@?$CComPtr@UIDispatch@@@ATL@@SAJPEAUIDispatch@@JPEAUtagVARIANT@@@Z 0000000180022eb0 f i Scale.obj
 0001:00022150       ?QueryGetData@?$IDataObjectImpl@VCOPOSScale@@@ATL@@UEAAJPEAUtagFORMATETC@@@Z 0000000180023150 f i Scale.obj
 0001:000221e0       ?QueryHitPoint@?$IViewObjectExImpl@VCOPOSScale@@@ATL@@UEAAJKPEBUtagRECT@@UtagPOINT@@JPEAK@Z 00000001800231e0 f i Scale.obj
 0001:00022350       ?QueryHitRect@?$IViewObjectExImpl@VCOPOSScale@@@ATL@@UEAAJKPEBUtagRECT@@0JPEAK@Z 0000000180023350 f i Scale.obj
 0001:00022520       ?QueryInterface@?$CComAggObject@VCOPOSScale@@@ATL@@UEAAJAEBU_GUID@@PEAPEAX@Z 0000000180023520 f i Scale.obj
 0001:00022610       ?QueryInterface@?$CComContainedObject@VCOPOSScale@@@ATL@@UEAAJAEBU_GUID@@PEAPEAX@Z 0000000180023610 f i Scale.obj
 0001:0002265c       ?QueryInterface@?$CComContainedObject@VCOPOSScale@@@ATL@@WBAA@EAAJAEBU_GUID@@PEAPEAX@Z 000000018002365c f i Scale.obj
 0001:00022668       ?QueryInterface@?$CComContainedObject@VCOPOSScale@@@ATL@@WBAI@EAAJAEBU_GUID@@PEAPEAX@Z 0000000180023668 f i Scale.obj
 0001:00022674       ?QueryInterface@?$CComContainedObject@VCOPOSScale@@@ATL@@WBBA@EAAJAEBU_GUID@@PEAPEAX@Z 0000000180023674 f i Scale.obj
 0001:00022680       ?QueryInterface@?$CComContainedObject@VCOPOSScale@@@ATL@@WBBI@EAAJAEBU_GUID@@PEAPEAX@Z 0000000180023680 f i Scale.obj
 0001:0002268c       ?QueryInterface@?$CComContainedObject@VCOPOSScale@@@ATL@@WLI@EAAJAEBU_GUID@@PEAPEAX@Z 000000018002368c f i Scale.obj
 0001:00022698       ?QueryInterface@?$CComContainedObject@VCOPOSScale@@@ATL@@WMA@EAAJAEBU_GUID@@PEAPEAX@Z 0000000180023698 f i Scale.obj
 0001:000226a4       ?QueryInterface@?$CComContainedObject@VCOPOSScale@@@ATL@@WMI@EAAJAEBU_GUID@@PEAPEAX@Z 00000001800236a4 f i Scale.obj
 0001:000226b0       ?QueryInterface@?$CComContainedObject@VCOPOSScale@@@ATL@@WNA@EAAJAEBU_GUID@@PEAPEAX@Z 00000001800236b0 f i Scale.obj
 0001:000226bc       ?QueryInterface@?$CComContainedObject@VCOPOSScale@@@ATL@@WNI@EAAJAEBU_GUID@@PEAPEAX@Z 00000001800236bc f i Scale.obj
 0001:000226c8       ?QueryInterface@?$CComContainedObject@VCOPOSScale@@@ATL@@WOA@EAAJAEBU_GUID@@PEAPEAX@Z 00000001800236c8 f i Scale.obj
 0001:000226d4       ?QueryInterface@?$CComContainedObject@VCOPOSScale@@@ATL@@WOI@EAAJAEBU_GUID@@PEAPEAX@Z 00000001800236d4 f i Scale.obj
 0001:000226e0       ?QueryInterface@?$CComContainedObject@VCOPOSScale@@@ATL@@WPA@EAAJAEBU_GUID@@PEAPEAX@Z 00000001800236e0 f i Scale.obj
 0001:000226ec       ?QueryInterface@?$CComContainedObject@VCOPOSScale@@@ATL@@WPI@EAAJAEBU_GUID@@PEAPEAX@Z 00000001800236ec f i Scale.obj
 0001:00022700       ?QueryInterface@?$CComObject@V?$CComEnum@UIEnumConnectionPoints@@$1?_GUID_b196b285_bab4_101a_b69c_00aa00341d07@@3U__s_GUID@@BPEAUIConnectionPoint@@V?$_CopyInterface@UIConnectionPoint@@@ATL@@VCComSingleThreadModel@6@@ATL@@@ATL@@UEAAJAEBU_GUID@@PEAPEAX@Z 0000000180023700 f i Scale.obj
 0001:00022750       ?QueryInterface@?$CComObject@V?$CComEnum@UIEnumConnections@@$1?_GUID_b196b287_bab4_101a_b69c_00aa00341d07@@3U__s_GUID@@BUtagCONNECTDATA@@V?$_Copy@UtagCONNECTDATA@@@ATL@@VCComSingleThreadModel@6@@ATL@@@ATL@@UEAAJAEBU_GUID@@PEAPEAX@Z 0000000180023750 f i Scale.obj
 0001:000227a0       ?QueryInterface@?$CComObject@VCOPOSScale@@@ATL@@UEAAJAEBU_GUID@@PEAPEAX@Z 00000001800237a0 f i Scale.obj
 0001:000227e4       ?QueryInterface@?$CComObject@VCOPOSScale@@@ATL@@WBAA@EAAJAEBU_GUID@@PEAPEAX@Z 00000001800237e4 f i Scale.obj
 0001:000227f0       ?QueryInterface@?$CComObject@VCOPOSScale@@@ATL@@WBAI@EAAJAEBU_GUID@@PEAPEAX@Z 00000001800237f0 f i Scale.obj
 0001:000227fc       ?QueryInterface@?$CComObject@VCOPOSScale@@@ATL@@WBBA@EAAJAEBU_GUID@@PEAPEAX@Z 00000001800237fc f i Scale.obj
 0001:00022808       ?QueryInterface@?$CComObject@VCOPOSScale@@@ATL@@WBBI@EAAJAEBU_GUID@@PEAPEAX@Z 0000000180023808 f i Scale.obj
 0001:00022814       ?QueryInterface@?$CComObject@VCOPOSScale@@@ATL@@WLI@EAAJAEBU_GUID@@PEAPEAX@Z 0000000180023814 f i Scale.obj
 0001:00022820       ?QueryInterface@?$CComObject@VCOPOSScale@@@ATL@@WMA@EAAJAEBU_GUID@@PEAPEAX@Z 0000000180023820 f i Scale.obj
 0001:0002282c       ?QueryInterface@?$CComObject@VCOPOSScale@@@ATL@@WMI@EAAJAEBU_GUID@@PEAPEAX@Z 000000018002382c f i Scale.obj
 0001:00022838       ?QueryInterface@?$CComObject@VCOPOSScale@@@ATL@@WNA@EAAJAEBU_GUID@@PEAPEAX@Z 0000000180023838 f i Scale.obj
 0001:00022844       ?QueryInterface@?$CComObject@VCOPOSScale@@@ATL@@WNI@EAAJAEBU_GUID@@PEAPEAX@Z 0000000180023844 f i Scale.obj
 0001:00022850       ?QueryInterface@?$CComObject@VCOPOSScale@@@ATL@@WOA@EAAJAEBU_GUID@@PEAPEAX@Z 0000000180023850 f i Scale.obj
 0001:0002285c       ?QueryInterface@?$CComObject@VCOPOSScale@@@ATL@@WOI@EAAJAEBU_GUID@@PEAPEAX@Z 000000018002385c f i Scale.obj
 0001:00022868       ?QueryInterface@?$CComObject@VCOPOSScale@@@ATL@@WPA@EAAJAEBU_GUID@@PEAPEAX@Z 0000000180023868 f i Scale.obj
 0001:00022874       ?QueryInterface@?$CComObject@VCOPOSScale@@@ATL@@WPI@EAAJAEBU_GUID@@PEAPEAX@Z 0000000180023874 f i Scale.obj
 0001:00022880       ?QueryInterface@?$CComObjectCached@VCComClassFactory@ATL@@@ATL@@UEAAJAEBU_GUID@@PEAPEAX@Z 0000000180023880 f i Scale.obj
 0001:000228d0       ?QueryInterface@CRegObject@ATL@@UEAAJAEBU_GUID@@PEAPEAX@Z 00000001800238d0 f i Scale.obj
 0001:00022950       ?QuickActivate@?$IQuickActivateImpl@VCOPOSScale@@@ATL@@UEAAJPEAUtagQACONTAINER@@PEAUtagQACONTROL@@@Z 0000000180023950 f i Scale.obj
 0001:00022a10       ?ReactivateAndUndo@?$IOleInPlaceObjectWindowlessImpl@VCOPOSScale@@@ATL@@UEAAJXZ 0000000180023a10 f i Scale.obj
 0001:00022a90       ?ReadFromStream@CComBSTR@ATL@@QEAAJPEAUIStream@@@Z 0000000180023a90 f i Scale.obj
 0001:00022f70       ?ReadFromStream@CComVariant@ATL@@QEAAJPEAUIStream@@GTClassesAllowedInStream@2@K@Z 0000000180023f70 f i Scale.obj
 0001:000233a0       ?RecurseDeleteKey@CRegKey@ATL@@QEAAJPEB_W@Z 00000001800243a0 f i Scale.obj
 0001:000235c0       ?RegCreateKeyExW@CAtlTransactionManager@ATL@@QEAAJPEAUHKEY__@@PEB_WKPEA_WKKQEAU_SECURITY_ATTRIBUTES@@PEAPEAU3@PEAK@Z 00000001800245c0 f i Scale.obj
 0001:00023790       ?RegDeleteKeyW@CAtlTransactionManager@ATL@@QEAAJPEAUHKEY__@@PEB_W@Z 0000000180024790 f i Scale.obj
 0001:000238a0       ?RegOpenKeyExW@CAtlTransactionManager@ATL@@QEAAJPEAUHKEY__@@PEB_WKKPEAPEAU3@@Z 00000001800248a0 f i Scale.obj
 0001:000239f0       ?Register@_ATL_WNDCLASSINFOW@ATL@@QEAAGPEAP6A_JPEAUHWND__@@I_K_J@Z@Z 00000001800249f0 f i Scale.obj
 0001:00023a40       ?RegisterBuffer@CRegParser@ATL@@QEAAJPEA_WH@Z 0000000180024a40 f i Scale.obj
 0001:00023e30       ?RegisterClassExW@AtlModuleRegisterWndClassInfoParamW@ATL@@SAGPEAU_ATL_WIN_MODULE70@2@PEBUtagWNDCLASSEXW@@@Z 0000000180024e30 f i Scale.obj
 0001:00023e70       ?RegisterFromResource@CRegObject@ATL@@IEAAJPEB_W00H@Z 0000000180024e70 f i Scale.obj
 0001:000242d0       ?RegisterServer@?$CAtlModuleT@VCComModule@ATL@@@ATL@@QEAAJHPEBU_GUID@@@Z 00000001800252d0 f i Scale.obj
 0001:00024350       ?RegisterServer@CAtlComModule@ATL@@QEAAJHPEBU_GUID@@@Z 0000000180025350 f i Scale.obj
 0001:00024390       ?RegisterServer@CComModule@ATL@@QEAAJHPEBU_GUID@@@Z 0000000180025390 f i Scale.obj
 0001:00024490       ?RegisterSubkeys@CRegParser@ATL@@IEAAJPEA_WPEAUHKEY__@@HH@Z 0000000180025490 f i Scale.obj
 0001:00025270       ?Release@?$CComAggObject@VCOPOSScale@@@ATL@@UEAAKXZ 0000000180026270 f i Scale.obj
 0001:00025320       ?Release@?$CComContainedObject@VCOPOSScale@@@ATL@@UEAAKXZ 0000000180026320 f i Scale.obj
 0001:00025358       ?Release@?$CComContainedObject@VCOPOSScale@@@ATL@@WBAA@EAAKXZ 0000000180026358 f i Scale.obj
 0001:00025364       ?Release@?$CComContainedObject@VCOPOSScale@@@ATL@@WBAI@EAAKXZ 0000000180026364 f i Scale.obj
 0001:00025370       ?Release@?$CComContainedObject@VCOPOSScale@@@ATL@@WBBA@EAAKXZ 0000000180026370 f i Scale.obj
 0001:0002537c       ?Release@?$CComContainedObject@VCOPOSScale@@@ATL@@WBBI@EAAKXZ 000000018002637c f i Scale.obj
 0001:00025388       ?Release@?$CComContainedObject@VCOPOSScale@@@ATL@@WBCI@EAAKXZ 0000000180026388 f i Scale.obj
 0001:00025394       ?Release@?$CComContainedObject@VCOPOSScale@@@ATL@@WBEA@EAAKXZ 0000000180026394 f i Scale.obj
 0001:000253a0       ?Release@?$CComContainedObject@VCOPOSScale@@@ATL@@WLI@EAAKXZ 00000001800263a0 f i Scale.obj
 0001:000253ac       ?Release@?$CComContainedObject@VCOPOSScale@@@ATL@@WMA@EAAKXZ 00000001800263ac f i Scale.obj
 0001:000253b8       ?Release@?$CComContainedObject@VCOPOSScale@@@ATL@@WMI@EAAKXZ 00000001800263b8 f i Scale.obj
 0001:000253c4       ?Release@?$CComContainedObject@VCOPOSScale@@@ATL@@WNA@EAAKXZ 00000001800263c4 f i Scale.obj
 0001:000253d0       ?Release@?$CComContainedObject@VCOPOSScale@@@ATL@@WNI@EAAKXZ 00000001800263d0 f i Scale.obj
 0001:000253dc       ?Release@?$CComContainedObject@VCOPOSScale@@@ATL@@WOA@EAAKXZ 00000001800263dc f i Scale.obj
 0001:000253e8       ?Release@?$CComContainedObject@VCOPOSScale@@@ATL@@WOI@EAAKXZ 00000001800263e8 f i Scale.obj
 0001:000253f4       ?Release@?$CComContainedObject@VCOPOSScale@@@ATL@@WPA@EAAKXZ 00000001800263f4 f i Scale.obj
 0001:00025400       ?Release@?$CComContainedObject@VCOPOSScale@@@ATL@@WPI@EAAKXZ 0000000180026400 f i Scale.obj
 0001:00025410       ?Release@?$CComObject@V?$CComEnum@UIEnumConnectionPoints@@$1?_GUID_b196b285_bab4_101a_b69c_00aa00341d07@@3U__s_GUID@@BPEAUIConnectionPoint@@V?$_CopyInterface@UIConnectionPoint@@@ATL@@VCComSingleThreadModel@6@@ATL@@@ATL@@UEAAKXZ 0000000180026410 f i Scale.obj
 0001:000254c0       ?Release@?$CComObject@V?$CComEnum@UIEnumConnections@@$1?_GUID_b196b287_bab4_101a_b69c_00aa00341d07@@3U__s_GUID@@BUtagCONNECTDATA@@V?$_Copy@UtagCONNECTDATA@@@ATL@@VCComSingleThreadModel@6@@ATL@@@ATL@@UEAAKXZ 00000001800264c0 f i Scale.obj
 0001:00025570       ?Release@?$CComObject@VCOPOSScale@@@ATL@@UEAAKXZ 0000000180026570 f i Scale.obj
 0001:00025628       ?Release@?$CComObject@VCOPOSScale@@@ATL@@WBAA@EAAKXZ 0000000180026628 f i Scale.obj
 0001:00025634       ?Release@?$CComObject@VCOPOSScale@@@ATL@@WBAI@EAAKXZ 0000000180026634 f i Scale.obj
 0001:00025640       ?Release@?$CComObject@VCOPOSScale@@@ATL@@WBBA@EAAKXZ 0000000180026640 f i Scale.obj
 0001:0002564c       ?Release@?$CComObject@VCOPOSScale@@@ATL@@WBBI@EAAKXZ 000000018002664c f i Scale.obj
 0001:00025658       ?Release@?$CComObject@VCOPOSScale@@@ATL@@WBCI@EAAKXZ 0000000180026658 f i Scale.obj
 0001:00025664       ?Release@?$CComObject@VCOPOSScale@@@ATL@@WBEA@EAAKXZ 0000000180026664 f i Scale.obj
 0001:00025670       ?Release@?$CComObject@VCOPOSScale@@@ATL@@WLI@EAAKXZ 0000000180026670 f i Scale.obj
 0001:0002567c       ?Release@?$CComObject@VCOPOSScale@@@ATL@@WMA@EAAKXZ 000000018002667c f i Scale.obj
 0001:00025688       ?Release@?$CComObject@VCOPOSScale@@@ATL@@WMI@EAAKXZ 0000000180026688 f i Scale.obj
 0001:00025694       ?Release@?$CComObject@VCOPOSScale@@@ATL@@WNA@EAAKXZ 0000000180026694 f i Scale.obj
 0001:000256a0       ?Release@?$CComObject@VCOPOSScale@@@ATL@@WNI@EAAKXZ 00000001800266a0 f i Scale.obj
 0001:000256ac       ?Release@?$CComObject@VCOPOSScale@@@ATL@@WOA@EAAKXZ 00000001800266ac f i Scale.obj
 0001:000256b8       ?Release@?$CComObject@VCOPOSScale@@@ATL@@WOI@EAAKXZ 00000001800266b8 f i Scale.obj
 0001:000256c4       ?Release@?$CComObject@VCOPOSScale@@@ATL@@WPA@EAAKXZ 00000001800266c4 f i Scale.obj
 0001:000256d0       ?Release@?$CComObject@VCOPOSScale@@@ATL@@WPI@EAAKXZ 00000001800266d0 f i Scale.obj
 0001:000256e0       ?Release@?$CComObjectCached@VCComClassFactory@ATL@@@ATL@@UEAAKXZ 00000001800266e0 f i Scale.obj
 0001:00025780       ?Release@?$CComPtrBase@UIAdviseSink@@@ATL@@QEAAXXZ 0000000180026780 f i Scale.obj
 0001:000257e0       ?Release@?$CComPtrBase@UIDispatch@@@ATL@@QEAAXXZ 00000001800267e0 f i Scale.obj
 0001:00025840       ?Release@?$CComPtrBase@UIOleInPlaceSiteWindowless@@@ATL@@QEAAXXZ 0000000180026840 f i Scale.obj
 0001:000258a0       ?Release@CRegObject@ATL@@UEAAKXZ 00000001800268a0 f i Scale.obj
 0001:00025910       ?Remove@CComDynamicUnkArray@ATL@@QEAAHK@Z 0000000180026910 f i Scale.obj
 0001:000259f0       ?RemoveAll@?$CSimpleMap@PEA_WPEA_WVCExpansionVectorEqualHelper@ATL@@@ATL@@QEAAXXZ 00000001800269f0 f i Scale.obj
 0001:00025a90       ?Reset@?$CComEnumImpl@UIEnumConnectionPoints@@$1?_GUID_b196b285_bab4_101a_b69c_00aa00341d07@@3U__s_GUID@@BPEAUIConnectionPoint@@V?$_CopyInterface@UIConnectionPoint@@@ATL@@@ATL@@UEAAJXZ 0000000180026a90 f i Scale.obj
 0001:00025ab0       ?Reset@?$CComEnumImpl@UIEnumConnections@@$1?_GUID_b196b287_bab4_101a_b69c_00aa00341d07@@3U__s_GUID@@BUtagCONNECTDATA@@V?$_Copy@UtagCONNECTDATA@@@ATL@@@ATL@@UEAAJXZ 0000000180026ab0 f i Scale.obj
 0001:00025ad0       ?ResizeBorder@?$IOleInPlaceActiveObjectImpl@VCOPOSScale@@@ATL@@UEAAJPEBUtagRECT@@PEAUIOleInPlaceUIWindow@@H@Z 0000000180026ad0 f i Scale.obj
 0001:00025b50       ?ResourceRegister@CRegObject@ATL@@QEAAJPEB_WI0@Z 0000000180026b50 f i Scale.obj
 0001:00025c30       ?ResourceRegisterSz@CRegObject@ATL@@QEAAJPEB_W00@Z 0000000180026c30 f i Scale.obj
 0001:00025d50       ?ResourceUnregister@CRegObject@ATL@@QEAAJPEB_WI0@Z 0000000180026d50 f i Scale.obj
 0001:00025e30       ?ResourceUnregisterSz@CRegObject@ATL@@QEAAJPEB_W00@Z 0000000180026e30 f i Scale.obj
 0001:00025f50       ?SOData@COPOSScale@@MEAAJJ@Z 0000000180026f50 f i Scale.obj
 0001:00025ff0       ?SODirectIO@COPOSScale@@MEAAJJPEAJPEAPEA_W@Z 0000000180026ff0 f i Scale.obj
 0001:00026230       ?SOError@COPOSScale@@MEAAJJJJPEAJ@Z 0000000180027230 f i Scale.obj
 0001:00026340       ?SOOutputCompleteDummy@COPOSScale@@MEAAJJ@Z 0000000180027340 f i Scale.obj
 0001:00026360       ?SOStatusUpdate@COPOSScale@@MEAAJJ@Z 0000000180027360 f i Scale.obj
 0001:00026400       ?Save@?$IPersistStorageImpl@VCOPOSScale@@@ATL@@UEAAJPEAUIStorage@@H@Z 0000000180027400 f i Scale.obj
 0001:000265c0       ?Save@?$IPersistStreamInitImpl@VCOPOSScale@@@ATL@@UEAAJPEAUIStream@@H@Z 00000001800275c0 f i Scale.obj
 0001:00026680       ?SaveCompleted@?$IPersistStorageImpl@VCOPOSScale@@@ATL@@UEAAJPEAUIStorage@@@Z 0000000180027680 f i Scale.obj
 0001:000266f0       ?SendOnDataChange@CComControlBase@ATL@@QEAAJK@Z 00000001800276f0 f i Scale.obj
 0001:000267e0       ?SendOnSave@CComControlBase@ATL@@QEAAJXZ 00000001800277e0 f i Scale.obj
 0001:00026850       ?SendOnViewChange@CComControlBase@ATL@@QEAAJKJ@Z 0000000180027850 f i Scale.obj
 0001:000268d0       ?SetAdvise@?$IViewObjectExImpl@VCOPOSScale@@@ATL@@UEAAJKKPEAUIAdviseSink@@@Z 00000001800278d0 f i Scale.obj
 0001:00026990       ?SetClientSite@?$IOleObjectImpl@VCOPOSScale@@@ATL@@UEAAJPEAUIOleClientSite@@@Z 0000000180027990 f i Scale.obj
 0001:00026a40       ?SetColorScheme@?$IOleObjectImpl@VCOPOSScale@@@ATL@@UEAAJPEAUtagLOGPALETTE@@@Z 0000000180027a40 f i Scale.obj
 0001:00026ad0       ?SetContentExtent@?$IQuickActivateImpl@VCOPOSScale@@@ATL@@UEAAJPEAUtagSIZE@@@Z 0000000180027ad0 f i Scale.obj
 0001:00026b90       ?SetControlFocus@CComControlBase@ATL@@QEAAHH@Z 0000000180027b90 f i Scale.obj
 0001:00026d20       ?SetDWORDValue@CRegKey@ATL@@QEAAJPEB_WK@Z 0000000180027d20 f i Scale.obj
 0001:00026dd0       ?SetData@?$IDataObjectImpl@VCOPOSScale@@@ATL@@UEAAJPEAUtagFORMATETC@@PEAUtagSTGMEDIUM@@H@Z 0000000180027dd0 f i Scale.obj
 0001:00026e60       ?SetExtent@?$IOleObjectImpl@VCOPOSScale@@@ATL@@UEAAJKPEAUtagSIZE@@@Z 0000000180027e60 f i Scale.obj
 0001:00026f20       ?SetHostNames@?$IOleObjectImpl@VCOPOSScale@@@ATL@@UEAAJPEB_W0@Z 0000000180027f20 f i Scale.obj
 0001:00026fa0       ?SetInterfaceSafetyOptions@?$IObjectSafetyImpl@VCOPOSScale@@$02@ATL@@UEAAJAEBU_GUID@@KK@Z 0000000180027fa0 f i Scale.obj
 0001:00027140       ?SetMoniker@?$IOleObjectImpl@VCOPOSScale@@@ATL@@UEAAJKPEAUIMoniker@@@Z 0000000180028140 f i Scale.obj
 0001:000271d0       ?SetMultiStringValue@CRegKey@ATL@@QEAAJPEB_W0@Z 00000001800281d0 f i Scale.obj
 0001:00027340       ?SetObjectRects@?$IOleInPlaceObjectWindowlessImpl@VCOPOSScale@@@ATL@@UEAAJPEBUtagRECT@@0@Z 0000000180028340 f i Scale.obj
 0001:00027400       ?SetStringValue@CRegKey@ATL@@QEAAJPEB_W0K@Z 0000000180028400 f i Scale.obj
 0001:00027580       ?SetVoid@CComClassFactory@ATL@@QEAAXPEAX@Z 0000000180028580 f i Scale.obj
 0001:000275a0       ?SetVoid@CComObjectRootBase@ATL@@QEAAXPEAX@Z 00000001800285a0 f i Scale.obj
 0001:000275b0       ?ShowWindow@CWindow@ATL@@QEAAHH@Z 00000001800285b0 f i Scale.obj
 0001:00027640       ?Skip@?$CComEnumImpl@UIEnumConnectionPoints@@$1?_GUID_b196b285_bab4_101a_b69c_00aa00341d07@@3U__s_GUID@@BPEAUIConnectionPoint@@V?$_CopyInterface@UIConnectionPoint@@@ATL@@@ATL@@UEAAJK@Z 0000000180028640 f i Scale.obj
 0001:000276e0       ?Skip@?$CComEnumImpl@UIEnumConnections@@$1?_GUID_b196b287_bab4_101a_b69c_00aa00341d07@@3U__s_GUID@@BUtagCONNECTDATA@@V?$_Copy@UtagCONNECTDATA@@@ATL@@@ATL@@UEAAJK@Z 00000001800286e0 f i Scale.obj
 0001:00027780       ?SkipAssignment@CRegParser@ATL@@IEAAJPEA_W@Z 0000000180028780 f i Scale.obj
 0001:00027880       ?SkipWhiteSpace@CRegParser@ATL@@IEAAXXZ 0000000180028880 f i Scale.obj
 0001:000278e0       ?StartWindowProc@?$CWindowImplBaseT@VCWindow@ATL@@V?$CWinTraits@$0FGAAAAAA@$0A@@2@@ATL@@SA_JPEAUHWND__@@I_K_J@Z 00000001800288e0 f i Scale.obj
 0001:00027a50       ?StrChrW@CRegParser@ATL@@KAPEA_WPEA_W_W@Z 0000000180028a50 f i Scale.obj
 0001:00027ad0       ?StrFromMap@CRegObject@ATL@@QEAAPEB_WPEA_W@Z 0000000180028ad0 f i Scale.obj
 0001:00027b90       ?Swap@?$CComPtrBase@UIAdviseSink@@@ATL@@IEAAXAEAV12@@Z 0000000180028b90 f i Scale.obj
 0001:00027bf0       ?Swap@?$CComPtrBase@UIOleClientSite@@@ATL@@IEAAXAEAV12@@Z 0000000180028bf0 f i Scale.obj
 0001:00027c50       ?Swap@?$CComPtrBase@UIUnknown@@@ATL@@IEAAXAEAV12@@Z 0000000180028c50 f i Scale.obj
 0001:00027cb0       ?T2COLE_EX@@YAPEB_WPEB_WI@Z 0000000180028cb0 f i Scale.obj
 0001:00027cd0       ?T2OLE_EX@@YAPEA_WPEA_WI@Z 0000000180028cd0 f i Scale.obj
 0001:00027cf0       ?Term@CAtlModule@ATL@@QEAAXXZ 0000000180028cf0 f i Scale.obj
 0001:00027db0       ?Term@CComModule@ATL@@QEAAXXZ 0000000180028db0 f i Scale.obj
 0001:00027ea0       ?TranslateAcceleratorW@?$IOleInPlaceActiveObjectImpl@VCOPOSScale@@@ATL@@UEAAJPEAUtagMSG@@@Z 0000000180028ea0 f i Scale.obj
 0001:00028110       ?UIDeactivate@?$IOleInPlaceObjectWindowlessImpl@VCOPOSScale@@@ATL@@UEAAJXZ 0000000180029110 f i Scale.obj
 0001:000281c0       ?Unadvise@?$CProxy_IOPOSEvents@VCOPOSScale@@@@UEAAJK@Z 00000001800291c0 f i Scale.obj
 0001:00028210       ?Unadvise@?$IConnectionPointImpl@VCOPOSScale@@$1?DIID__IOPOSScaleEvents@@3U_GUID@@BVCComDynamicUnkArray@ATL@@@ATL@@UEAAJK@Z 0000000180029210 f i Scale.obj
 0001:00028300       ?Unadvise@?$IConnectionPointImpl@VCOPOSScale@@$1?IID_IPropertyNotifySink@@3U_GUID@@BVCComDynamicUnkArray@ATL@@@ATL@@UEAAJK@Z 0000000180029300 f i Scale.obj
 0001:000283f0       ?Unadvise@?$IOleObjectImpl@VCOPOSScale@@@ATL@@UEAAJK@Z 00000001800293f0 f i Scale.obj
 0001:000284e0       ?Unfreeze@?$IViewObjectExImpl@VCOPOSScale@@@ATL@@UEAAJK@Z 00000001800294e0 f i Scale.obj
 0001:00028560       ?Unlock@?$CComCritSecLock@VCComCriticalSection@ATL@@@ATL@@QEAAXXZ 0000000180029560 f i Scale.obj
 0001:000285f0       ?Unlock@?$CComObjectRootEx@VCComSingleThreadModel@ATL@@@ATL@@QEAAXXZ 00000001800295f0 f i Scale.obj
 0001:00028600       ?Unlock@CAtlModule@ATL@@UEAAJXZ 0000000180029600 f i Scale.obj
 0001:00028640       ?Unlock@CComCriticalSection@ATL@@QEAAJXZ 0000000180029640 f i Scale.obj
 0001:00028680       ?Unlock@CComFakeCriticalSection@ATL@@QEAAJXZ 0000000180029680 f i Scale.obj
 0001:00028690       ?UnregisterServer@?$CAtlModuleT@VCComModule@ATL@@@ATL@@QEAAJHPEBU_GUID@@@Z 0000000180029690 f i Scale.obj
 0001:00028700       ?UnregisterServer@CAtlComModule@ATL@@QEAAJHPEBU_GUID@@@Z 0000000180029700 f i Scale.obj
 0001:00028740       ?UnregisterServer@CComModule@ATL@@QEAAJHPEBU_GUID@@@Z 0000000180029740 f i Scale.obj
 0001:00028830       ?Update@?$IOleObjectImpl@VCOPOSScale@@@ATL@@UEAAJXZ 0000000180029830 f i Scale.obj
 0001:000288a0       ?UpdateRegistryFromResource@CAtlModule@ATL@@QEAAJIHPEAU_ATL_REGMAP_ENTRY@2@@Z 00000001800298a0 f i Scale.obj
 0001:00028dd0       ?UpdateRegistryFromResource@CAtlModule@ATL@@QEAAJPEB_WHPEAU_ATL_REGMAP_ENTRY@2@@Z 0000000180029dd0 f i Scale.obj
 0001:00029320       ?UpdateRegistryFromResource@CComModule@ATL@@UEAAJIHPEAU_ATL_REGMAP_ENTRY@2@@Z 000000018002a320 f i Scale.obj
 0001:00029370       ?UpdateRegistryFromResource@CComModule@ATL@@UEAAJPEB_WHPEAU_ATL_REGMAP_ENTRY@2@@Z 000000018002a370 f i Scale.obj
 0001:000293c0       ?UpdateRegistryFromResourceD@CComModule@ATL@@UEAAJIHPEAU_ATL_REGMAP_ENTRY@2@@Z 000000018002a3c0 f i Scale.obj
 0001:000293e0       ?UpdateRegistryFromResourceD@CComModule@ATL@@UEAAJPEB_WHPEAU_ATL_REGMAP_ENTRY@2@@Z 000000018002a3e0 f i Scale.obj
 0001:00029400       ?VTFromRegType@CRegParser@ATL@@KAHPEB_WAEAG@Z 000000018002a400 f i Scale.obj
 0001:000294e0       ?WindowProc@?$CWindowImplBaseT@VCWindow@ATL@@V?$CWinTraits@$0FGAAAAAA@$0A@@2@@ATL@@SA_JPEAUHWND__@@I_K_J@Z 000000018002a4e0 f i Scale.obj
 0001:000297c0       ?WriteToStream@CComBSTR@ATL@@QEAAJPEAUIStream@@@Z 000000018002a7c0 f i Scale.obj
 0001:00029930       ?WriteToStream@CComVariant@ATL@@QEAAJPEAUIStream@@@Z 000000018002a930 f i Scale.obj
 0001:00029d40       ?WriteToStream@CComVariant@ATL@@QEAAJPEAUIStream@@G@Z 000000018002ad40 f i Scale.obj
 0001:00029e20       ?_AtlFinalConstruct@CComObjectRootBase@ATL@@QEAAJXZ 000000018002ae20 f i Scale.obj
 0001:00029e30       ?_AtlGetConversionACP@ATL@@YAIXZ 000000018002ae30 f i Scale.obj
 0001:00029e40       ?_AtlInitialConstruct@?$CComAggObject@VCOPOSScale@@@ATL@@QEAAJXZ 000000018002ae40 f i Scale.obj
 0001:00029ea0       ?_AtlInitialConstruct@?$CComObjectRootEx@VCComMultiThreadModel@ATL@@@ATL@@QEAAJXZ 000000018002aea0 f i Scale.obj
 0001:00029ee0       ?_AtlInitialConstruct@?$CComObjectRootEx@VCComSingleThreadModel@ATL@@@ATL@@QEAAJXZ 000000018002aee0 f i Scale.obj
 0001:00029ef0       ?_AtlVerifyStackAvailable@_ATL_SAFE_ALLOCA_IMPL@ATL@@YA_N_K@Z 000000018002aef0 f i Scale.obj
 0001:0002a050       ?_GetEntries@?$CComEnum@UIEnumConnectionPoints@@$1?_GUID_b196b285_bab4_101a_b69c_00aa00341d07@@3U__s_GUID@@BPEAUIConnectionPoint@@V?$_CopyInterface@UIConnectionPoint@@@ATL@@VCComSingleThreadModel@6@@ATL@@SAPEBU_ATL_INTMAP_ENTRY@2@XZ 000000018002b050 f i Scale.obj
 0001:0002a070       ?_GetEntries@?$CComEnum@UIEnumConnections@@$1?_GUID_b196b287_bab4_101a_b69c_00aa00341d07@@3U__s_GUID@@BUtagCONNECTDATA@@V?$_Copy@UtagCONNECTDATA@@@ATL@@VCComSingleThreadModel@6@@ATL@@SAPEBU_ATL_INTMAP_ENTRY@2@XZ 000000018002b070 f i Scale.obj
 0001:0002a090       ?_GetEntries@CComClassFactory@ATL@@SAPEBU_ATL_INTMAP_ENTRY@2@XZ 000000018002b090 f i Scale.obj
 0001:0002a0b0       ?_GetEntries@COPOSScale@@SAPEBU_ATL_INTMAP_ENTRY@ATL@@XZ 000000018002b0b0 f i Scale.obj
 0001:0002a0d0       ?_GetRawUnknown@COPOSScale@@QEAAPEAUIUnknown@@XZ 000000018002b0d0 f i Scale.obj
 0001:0002a160       ?_GetViewStatus@COPOSScale@@QEAAKXZ 000000018002b160 f i Scale.obj
 0001:0002a170       ?_InternalQueryInterface@?$CComEnum@UIEnumConnectionPoints@@$1?_GUID_b196b285_bab4_101a_b69c_00aa00341d07@@3U__s_GUID@@BPEAUIConnectionPoint@@V?$_CopyInterface@UIConnectionPoint@@@ATL@@VCComSingleThreadModel@6@@ATL@@QEAAJAEBU_GUID@@PEAPEAX@Z 000000018002b170 f i Scale.obj
 0001:0002a1c0       ?_InternalQueryInterface@?$CComEnum@UIEnumConnections@@$1?_GUID_b196b287_bab4_101a_b69c_00aa00341d07@@3U__s_GUID@@BUtagCONNECTDATA@@V?$_Copy@UtagCONNECTDATA@@@ATL@@VCComSingleThreadModel@6@@ATL@@QEAAJAEBU_GUID@@PEAPEAX@Z 000000018002b1c0 f i Scale.obj
 0001:0002a210       ?_InternalQueryInterface@CComClassFactory@ATL@@QEAAJAEBU_GUID@@PEAPEAX@Z 000000018002b210 f i Scale.obj
 0001:0002a260       ?_InternalQueryInterface@COPOSScale@@QEAAJAEBU_GUID@@PEAPEAX@Z 000000018002b260 f i Scale.obj
 0001:0002a2b0       ?_LocCPQueryInterface@?$IConnectionPointImpl@VCOPOSScale@@$1?DIID__IOPOSScaleEvents@@3U_GUID@@BVCComDynamicUnkArray@ATL@@@ATL@@UEAAJAEBU_GUID@@PEAPEAX@Z 000000018002b2b0 f i Scale.obj
 0001:0002a390       ?_LocCPQueryInterface@?$IConnectionPointImpl@VCOPOSScale@@$1?IID_IPropertyNotifySink@@3U_GUID@@BVCComDynamicUnkArray@ATL@@@ATL@@UEAAJAEBU_GUID@@PEAPEAX@Z 000000018002b390 f i Scale.obj
 0001:0002a470       ?atlCreate@?$CWindowImpl@VCOPOSScale@@VCWindow@ATL@@V?$CWinTraits@$0FGAAAAAA@$0A@@3@@ATL@@QEAAPEAUHWND__@@PEAU3@V_U_RECT@2@PEB_WKKV_U_MENUorID@2@PEAX@Z 000000018002b470 f i Scale.obj
 0001:0002a5a0       ?atlCreate@?$CWindowImplBaseT@VCWindow@ATL@@V?$CWinTraits@$0FGAAAAAA@$0A@@2@@ATL@@QEAAPEAUHWND__@@PEAU3@V_U_RECT@2@PEB_WKKV_U_MENUorID@2@GPEAX@Z 000000018002b5a0 f i Scale.obj
 0001:0002a800       ?atlCreate@CRegKey@ATL@@QEAAJPEAUHKEY__@@PEB_WPEA_WKKPEAU_SECURITY_ATTRIBUTES@@PEAK@Z 000000018002b800 f i Scale.obj
 0001:0002a9f0       ?begin@CComDynamicUnkArray@ATL@@QEAAPEAPEAUIUnknown@@XZ 000000018002b9f0 f i Scale.obj
 0001:0002aa00       ?copy@?$_Copy@UtagCONNECTDATA@@@ATL@@SAJPEAUtagCONNECTDATA@@PEBU3@@Z 000000018002ba00 f i Scale.obj
 0001:0002aaf0       ?copy@?$_CopyInterface@UIConnectionPoint@@@ATL@@SAJPEAPEAUIConnectionPoint@@PEBQEAU3@@Z 000000018002baf0 f i Scale.obj
 0001:0002abe0       ?destroy@?$_Copy@UtagCONNECTDATA@@@ATL@@SAXPEAUtagCONNECTDATA@@@Z 000000018002bbe0 f i Scale.obj
 0001:0002ac30       ?destroy@?$_CopyInterface@UIConnectionPoint@@@ATL@@SAXPEAPEAUIConnectionPoint@@@Z 000000018002bc30 f i Scale.obj
 0001:0002ac80       ?end@CComDynamicUnkArray@ATL@@QEAAPEAPEAUIUnknown@@XZ 000000018002bc80 f i Scale.obj
 0001:0002aca0       ?init@?$_Copy@UtagCONNECTDATA@@@ATL@@SAXPEAUtagCONNECTDATA@@@Z 000000018002bca0 f i Scale.obj
 0001:0002acb0       ?init@?$_CopyInterface@UIConnectionPoint@@@ATL@@SAXPEAPEAUIConnectionPoint@@@Z 000000018002bcb0 f i Scale.obj
 0001:0002acc0       ?memcpy_s@Checked@ATL@@YAXPEAX_KPEBX1@Z 000000018002bcc0 f i Scale.obj
 0001:0002ad20       ?ocscpy_s@@YA_NPEA_W_KPEB_W@Z 000000018002bd20 f i Scale.obj
 0001:0002ada0       ?ocslen@@YAHPEB_W@Z        000000018002bda0 f i Scale.obj
 0001:0002ade0       ?tcsncpy_s@Checked@ATL@@YAHPEA_W_KPEB_W1@Z 000000018002bde0 f i Scale.obj
 0001:0002ae40       ?wcscat_s@Checked@ATL@@YAXPEA_W_KPEB_W@Z 000000018002be40 f i Scale.obj
 0001:0002ae90       ?wcscpy_s@Checked@ATL@@YAXPEA_W_KPEB_W@Z 000000018002be90 f i Scale.obj
 0001:0002aee0       ?wcsncpy_s@Checked@ATL@@YAHPEA_W_KPEB_W1@Z 000000018002bee0 f i Scale.obj
 0001:0002af40       ?wcsstr@@YAPEA_WPEA_WPEB_W@Z 000000018002bf40 f i Scale.obj
 0001:0002af80       InlineIsEqualGUID          000000018002bf80 f i Scale.obj
 0001:0002b050       IsEqualGUID                000000018002c050 f i Scale.obj
 0001:0002b0b0       ??0COPOSScale@@QEAA@XZ     000000018002c0b0 f   ScaleImpl.obj
 0001:0002b230       ?FinalConstruct@COPOSScale@@QEAAJXZ 000000018002c230 f   ScaleImpl.obj
 0001:0002b320       ??1COPOSScale@@UEAA@XZ     000000018002c320 f   ScaleImpl.obj
 0001:0002b400       ?WriteTrace@COPOSScale@@QEAAXPEB_WZZ 000000018002c400 f   ScaleImpl.obj
 0001:0002b4c0       ?WriteTraceString@COPOSScale@@QEAAXPEB_WPEA_W@Z 000000018002c4c0 f   ScaleImpl.obj
 0001:0002b900       ?WriteTraceString@COPOSScale@@QEAAXPEAXHHHPEB_WZZ 000000018002c900 f   ScaleImpl.obj
 0001:0002bb90       ?WriteTraceError@COPOSScale@@QEAAXPEB_WK@Z 000000018002cb90 f   ScaleImpl.obj
 0001:0002bc90       ?WriteTraceMethods@COPOSScale@@QEAAXPEAJH@Z 000000018002cc90 f   ScaleImpl.obj
 0001:0002bd20       ?FormatCurrency@COPOSScale@@QEAAPEB_WTtagCY@@@Z 000000018002cd20 f   ScaleImpl.obj
 0001:0002be40       ?GetOposProp@COPOSScale@@IEAAJPEBDJPEAJJ@Z 000000018002ce40 f   ScaleImpl.obj
 0001:0002c160       ?SetOposProp@COPOSScale@@IEAAJPEBDJJJ@Z 000000018002d160 f   ScaleImpl.obj
 0001:0002c4c0       ?GetOposProp@COPOSScale@@IEAAJPEBDJPEAFJ@Z 000000018002d4c0 f   ScaleImpl.obj
 0001:0002c560       ?SetOposProp@COPOSScale@@IEAAJPEBDJFJ@Z 000000018002d560 f   ScaleImpl.obj
 0001:0002c5e0       ?GetOposProp@COPOSScale@@IEAAJPEBDJPEAPEA_WJ@Z 000000018002d5e0 f   ScaleImpl.obj
 0001:0002c900       ?SetOposProp@COPOSScale@@IEAAJPEBDJPEA_WJ@Z 000000018002d900 f   ScaleImpl.obj
 0001:0002cce0       ?DoInvoke@COPOSScale@@IEAAJPEBDJPEAVOposVariant@@IHPEAJ_N@Z 000000018002dce0 f   ScaleImpl.obj
 0001:0002d920       ?SetCOFreezeEvents@COPOSScale@@IEAAXF@Z 000000018002e920 f   ScaleImpl.obj
 0001:0002dab0       ?FreezeEvents@COPOSScale@@MEAAJH@Z 000000018002eab0 f   ScaleImpl.obj
 0001:0002dbe0       ?OnDraw@COPOSScale@@MEAAJAEAUATL_DRAWINFO@@@Z 000000018002ebe0 f   ScaleImpl.obj
 0001:0002ddb0       ?SOProcessID@COPOSScale@@UEAAJPEAJ@Z 000000018002edb0 f   ScaleImpl.obj
 0001:0002de10       ?get_OpenResult@COPOSScale@@UEAAJPEAJ@Z 000000018002ee10 f   ScaleImpl.obj
 0001:0002de70       ?get_CheckHealthText@COPOSScale@@UEAAJPEAPEA_W@Z 000000018002ee70 f   ScaleImpl.obj
 0001:0002ded0       ?get_Claimed@COPOSScale@@UEAAJPEAF@Z 000000018002eed0 f   ScaleImpl.obj
 0001:0002df30       ?get_DeviceEnabled@COPOSScale@@UEAAJPEAF@Z 000000018002ef30 f   ScaleImpl.obj
 0001:0002df90       ?put_DeviceEnabled@COPOSScale@@UEAAJF@Z 000000018002ef90 f   ScaleImpl.obj
 0001:0002dff0       ?get_FreezeEvents@COPOSScale@@UEAAJPEAF@Z 000000018002eff0 f   ScaleImpl.obj
 0001:0002e050       ?put_FreezeEvents@COPOSScale@@UEAAJF@Z 000000018002f050 f   ScaleImpl.obj
 0001:0002e130       ?get_ResultCode@COPOSScale@@UEAAJPEAJ@Z 000000018002f130 f   ScaleImpl.obj
 0001:0002e200       ?get_ResultCodeExtended@COPOSScale@@UEAAJPEAJ@Z 000000018002f200 f   ScaleImpl.obj
 0001:0002e260       ?get_State@COPOSScale@@UEAAJPEAJ@Z 000000018002f260 f   ScaleImpl.obj
 0001:0002e2f0       ?get_ControlObjectDescription@COPOSScale@@UEAAJPEAPEA_W@Z 000000018002f2f0 f   ScaleImpl.obj
 0001:0002e370       ?get_ControlObjectVersion@COPOSScale@@UEAAJPEAJ@Z 000000018002f370 f   ScaleImpl.obj
 0001:0002e3d0       ?get_ServiceObjectDescription@COPOSScale@@UEAAJPEAPEA_W@Z 000000018002f3d0 f   ScaleImpl.obj
 0001:0002e430       ?get_ServiceObjectVersion@COPOSScale@@UEAAJPEAJ@Z 000000018002f430 f   ScaleImpl.obj
 0001:0002e490       ?get_DeviceDescription@COPOSScale@@UEAAJPEAPEA_W@Z 000000018002f490 f   ScaleImpl.obj
 0001:0002e4f0       ?get_DeviceName@COPOSScale@@UEAAJPEAPEA_W@Z 000000018002f4f0 f   ScaleImpl.obj
 0001:0002e550       ?CheckHealth@COPOSScale@@UEAAJJPEAJ@Z 000000018002f550 f   ScaleImpl.obj
 0001:0002e610       ?ClaimDevice@COPOSScale@@UEAAJJPEAJ@Z 000000018002f610 f   ScaleImpl.obj
 0001:0002e730       ?Close@COPOSScale@@UEAAJPEAJ@Z 000000018002f730 f   ScaleImpl.obj
 0001:0002e840       ?DirectIO@COPOSScale@@UEAAJJPEAJPEAPEA_W0@Z 000000018002f840 f   ScaleImpl.obj
 0001:0002e9c0       ?Open@COPOSScale@@UEAAJPEA_WPEAJ@Z 000000018002f9c0 f   ScaleImpl.obj
 0001:0002fe90       ?ReleaseDevice@COPOSScale@@UEAAJPEAJ@Z 0000000180030e90 f   ScaleImpl.obj
 0001:0002ff40       ?get_MaximumWeight@COPOSScale@@UEAAJPEAJ@Z 0000000180030f40 f   ScaleImpl.obj
 0001:0002ffa0       ?get_WeightUnit@COPOSScale@@UEAAJPEAJ@Z 0000000180030fa0 f   ScaleImpl.obj
 0001:00030000       ?get_WeightUnits@COPOSScale@@UEAAJPEAJ@Z 0000000180031000 f   ScaleImpl.obj
 0001:00030060       ?ReadWeight@COPOSScale@@UEAAJPEAJJ0@Z 0000000180031060 f   ScaleImpl.obj
 0001:00030190       ?get_BinaryConversion@COPOSScale@@UEAAJPEAJ@Z 0000000180031190 f   ScaleImpl.obj
 0001:000301f0       ?put_BinaryConversion@COPOSScale@@UEAAJJ@Z 00000001800311f0 f   ScaleImpl.obj
 0001:00030260       ?get_CapDisplay@COPOSScale@@UEAAJPEAF@Z 0000000180031260 f   ScaleImpl.obj
 0001:000302c0       ?get_AutoDisable@COPOSScale@@UEAAJPEAF@Z 00000001800312c0 f   ScaleImpl.obj
 0001:00030320       ?put_AutoDisable@COPOSScale@@UEAAJF@Z 0000000180031320 f   ScaleImpl.obj
 0001:00030380       ?get_CapPowerReporting@COPOSScale@@UEAAJPEAJ@Z 0000000180031380 f   ScaleImpl.obj
 0001:000303e0       ?get_DataCount@COPOSScale@@UEAAJPEAJ@Z 00000001800313e0 f   ScaleImpl.obj
 0001:00030440       ?get_DataEventEnabled@COPOSScale@@UEAAJPEAF@Z 0000000180031440 f   ScaleImpl.obj
 0001:000304a0       ?put_DataEventEnabled@COPOSScale@@UEAAJF@Z 00000001800314a0 f   ScaleImpl.obj
 0001:00030500       ?get_PowerNotify@COPOSScale@@UEAAJPEAJ@Z 0000000180031500 f   ScaleImpl.obj
 0001:00030560       ?put_PowerNotify@COPOSScale@@UEAAJJ@Z 0000000180031560 f   ScaleImpl.obj
 0001:000305c0       ?get_PowerState@COPOSScale@@UEAAJPEAJ@Z 00000001800315c0 f   ScaleImpl.obj
 0001:00030620       ?ClearInput@COPOSScale@@UEAAJPEAJ@Z 0000000180031620 f   ScaleImpl.obj
 0001:00030690       ?get_AsyncMode@COPOSScale@@UEAAJPEAF@Z 0000000180031690 f   ScaleImpl.obj
 0001:000306f0       ?put_AsyncMode@COPOSScale@@UEAAJF@Z 00000001800316f0 f   ScaleImpl.obj
 0001:00030750       ?get_CapDisplayText@COPOSScale@@UEAAJPEAF@Z 0000000180031750 f   ScaleImpl.obj
 0001:000307b0       ?get_CapPriceCalculating@COPOSScale@@UEAAJPEAF@Z 00000001800317b0 f   ScaleImpl.obj
 0001:00030810       ?get_CapTareWeight@COPOSScale@@UEAAJPEAF@Z 0000000180031810 f   ScaleImpl.obj
 0001:00030870       ?get_CapZeroScale@COPOSScale@@UEAAJPEAF@Z 0000000180031870 f   ScaleImpl.obj
 0001:000308d0       ?get_MaxDisplayTextChars@COPOSScale@@UEAAJPEAJ@Z 00000001800318d0 f   ScaleImpl.obj
 0001:00030930       ?get_SalesPrice@COPOSScale@@UEAAJPEATtagCY@@@Z 0000000180031930 f   ScaleImpl.obj
 0001:00030bc0       ?get_TareWeight@COPOSScale@@UEAAJPEAJ@Z 0000000180031bc0 f   ScaleImpl.obj
 0001:00030c20       ?put_TareWeight@COPOSScale@@UEAAJJ@Z 0000000180031c20 f   ScaleImpl.obj
 0001:00030c80       ?get_UnitPrice@COPOSScale@@UEAAJPEATtagCY@@@Z 0000000180031c80 f   ScaleImpl.obj
 0001:00030f10       ?put_UnitPrice@COPOSScale@@UEAAJTtagCY@@@Z 0000000180031f10 f   ScaleImpl.obj
 0001:000311e0       ?DisplayText@COPOSScale@@UEAAJPEA_WPEAJ@Z 00000001800321e0 f   ScaleImpl.obj
 0001:000312c0       ?ZeroScale@COPOSScale@@UEAAJPEAJ@Z 00000001800322c0 f   ScaleImpl.obj
 0001:00031330       ?get_CapStatisticsReporting@COPOSScale@@UEAAJPEAF@Z 0000000180032330 f   ScaleImpl.obj
 0001:00031390       ?get_CapUpdateStatistics@COPOSScale@@UEAAJPEAF@Z 0000000180032390 f   ScaleImpl.obj
 0001:000313f0       ?ResetStatistics@COPOSScale@@UEAAJPEA_WPEAJ@Z 00000001800323f0 f   ScaleImpl.obj
 0001:000314d0       ?RetrieveStatistics@COPOSScale@@UEAAJPEAPEA_WPEAJ@Z 00000001800324d0 f   ScaleImpl.obj
 0001:000315b0       ?UpdateStatistics@COPOSScale@@UEAAJPEA_WPEAJ@Z 00000001800325b0 f   ScaleImpl.obj
 0001:00031690       ?get_CapCompareFirmwareVersion@COPOSScale@@UEAAJPEAF@Z 0000000180032690 f   ScaleImpl.obj
 0001:000316f0       ?get_CapUpdateFirmware@COPOSScale@@UEAAJPEAF@Z 00000001800326f0 f   ScaleImpl.obj
 0001:00031750       ?CompareFirmwareVersion@COPOSScale@@UEAAJPEA_WPEAJ1@Z 0000000180032750 f   ScaleImpl.obj
 0001:00031890       ?UpdateFirmware@COPOSScale@@UEAAJPEA_WPEAJ@Z 0000000180032890 f   ScaleImpl.obj
 0001:00031970       ?get_CapStatusUpdate@COPOSScale@@UEAAJPEAF@Z 0000000180032970 f   ScaleImpl.obj
 0001:000319d0       ?get_ScaleLiveWeight@COPOSScale@@UEAAJPEAJ@Z 00000001800329d0 f   ScaleImpl.obj
 0001:00031a30       ?get_StatusNotify@COPOSScale@@UEAAJPEAJ@Z 0000000180032a30 f   ScaleImpl.obj
 0001:00031a90       ?put_StatusNotify@COPOSScale@@UEAAJJ@Z 0000000180032a90 f   ScaleImpl.obj
 0001:00031af0       ?get_ZeroValid@COPOSScale@@UEAAJPEAF@Z 0000000180032af0 f   ScaleImpl.obj
 0001:00031b50       ?put_ZeroValid@COPOSScale@@UEAAJF@Z 0000000180032b50 f   ScaleImpl.obj
 0001:00031bb0       ?get_CapFreezeValue@COPOSScale@@UEAAJPEAF@Z 0000000180032bb0 f   ScaleImpl.obj
 0001:00031c10       ?get_CapReadLiveWeightWithTare@COPOSScale@@UEAAJPEAF@Z 0000000180032c10 f   ScaleImpl.obj
 0001:00031c70       ?get_CapSetPriceCalculationMode@COPOSScale@@UEAAJPEAF@Z 0000000180032c70 f   ScaleImpl.obj
 0001:00031cd0       ?get_CapSetUnitPriceWithWeightUnit@COPOSScale@@UEAAJPEAF@Z 0000000180032cd0 f   ScaleImpl.obj
 0001:00031d30       ?get_CapSpecialTare@COPOSScale@@UEAAJPEAF@Z 0000000180032d30 f   ScaleImpl.obj
 0001:00031d90       ?get_CapTarePriority@COPOSScale@@UEAAJPEAF@Z 0000000180032d90 f   ScaleImpl.obj
 0001:00031df0       ?get_MinimumWeight@COPOSScale@@UEAAJPEAJ@Z 0000000180032df0 f   ScaleImpl.obj
 0001:00031e50       ?DoPriceCalculating@COPOSScale@@UEAAJPEAJ0PEATtagCY@@10001J0@Z 0000000180032e50 f   ScaleImpl.obj
 0001:000320b0       ?FreezeValue@COPOSScale@@UEAAJJFPEAJ@Z 00000001800330b0 f   ScaleImpl.obj
 0001:000321d0       ?ReadLiveWeightWithTare@COPOSScale@@UEAAJPEAJ0J0@Z 00000001800331d0 f   ScaleImpl.obj
 0001:00032350       ?SetPriceCalculationMode@COPOSScale@@UEAAJJPEAJ@Z 0000000180033350 f   ScaleImpl.obj
 0001:00032410       ?SetSpecialTare@COPOSScale@@UEAAJJJPEAJ@Z 0000000180033410 f   ScaleImpl.obj
 0001:00032530       ?SetTarePriority@COPOSScale@@UEAAJJPEAJ@Z 0000000180033530 f   ScaleImpl.obj
 0001:000325f0       ?SetUnitPriceWithWeightUnit@COPOSScale@@UEAAJTtagCY@@JJJPEAJ@Z 00000001800335f0 f   ScaleImpl.obj
 0001:00032760       ??0?$CComControl@VCOPOSScale@@V?$CWindowImpl@VCOPOSScale@@VCWindow@ATL@@V?$CWinTraits@$0FGAAAAAA@$0A@@3@@ATL@@@ATL@@QEAA@XZ 0000000180033760 f i ScaleImpl.obj
 0001:000327b0       ??0?$CComPtr@UIAdviseSink@@@ATL@@QEAA@XZ 00000001800337b0 f i ScaleImpl.obj
 0001:000327f0       ??0?$CComPtr@UIDataAdviseHolder@@@ATL@@QEAA@XZ 00000001800337f0 f i ScaleImpl.obj
 0001:00032830       ??0?$CComPtr@UIOleAdviseHolder@@@ATL@@QEAA@XZ 0000000180033830 f i ScaleImpl.obj
 0001:00032870       ??0?$CComPtr@UIOleClientSite@@@ATL@@QEAA@XZ 0000000180033870 f i ScaleImpl.obj
 0001:000328b0       ??0?$CComPtr@UIOleInPlaceSiteWindowless@@@ATL@@QEAA@XZ 00000001800338b0 f i ScaleImpl.obj
 0001:000328f0       ??0?$CComPtrBase@UIAdviseSink@@@ATL@@IEAA@XZ 00000001800338f0 f i ScaleImpl.obj
 0001:00032910       ??0?$CComPtrBase@UIDataAdviseHolder@@@ATL@@IEAA@XZ 0000000180033910 f i ScaleImpl.obj
 0001:00032930       ??0?$CComPtrBase@UIOleAdviseHolder@@@ATL@@IEAA@XZ 0000000180033930 f i ScaleImpl.obj
 0001:00032950       ??0?$CComPtrBase@UIOleClientSite@@@ATL@@IEAA@XZ 0000000180033950 f i ScaleImpl.obj
 0001:00032970       ??0?$CComPtrBase@UIOleInPlaceSiteWindowless@@@ATL@@IEAA@XZ 0000000180033970 f i ScaleImpl.obj
 0001:00032990       ??0?$CComQIPtr@UIDispatch@@$1?_GUID_00020400_0000_0000_c000_000000000046@@3U__s_GUID@@B@ATL@@QEAA@XZ 0000000180033990 f i ScaleImpl.obj
 0001:000329d0       ??0?$CProxy_IOPOSEvents@VCOPOSScale@@@@QEAA@PEAVCOPOSScale@@@Z 00000001800339d0 f i ScaleImpl.obj
 0001:00032a60       ??0?$CWindowImpl@VCOPOSScale@@VCWindow@ATL@@V?$CWinTraits@$0FGAAAAAA@$0A@@3@@ATL@@QEAA@XZ 0000000180033a60 f i ScaleImpl.obj
 0001:00032aa0       ??0?$CWindowImplBaseT@VCWindow@ATL@@V?$CWinTraits@$0FGAAAAAA@$0A@@2@@ATL@@QEAA@XZ 0000000180033aa0 f i ScaleImpl.obj
 0001:00032af0       ??0?$CWindowImplRoot@VCWindow@ATL@@@ATL@@QEAA@XZ 0000000180033af0 f i ScaleImpl.obj
 0001:00032b60       ??0?$IConnectionPointContainerImpl@VCOPOSScale@@@ATL@@QEAA@XZ 0000000180033b60 f i ScaleImpl.obj
 0001:00032ba0       ??0?$IConnectionPointImpl@VCOPOSScale@@$1?DIID__IOPOSScaleEvents@@3U_GUID@@BVCComDynamicUnkArray@ATL@@@ATL@@QEAA@XZ 0000000180033ba0 f i ScaleImpl.obj
 0001:00032bf0       ??0?$IConnectionPointImpl@VCOPOSScale@@$1?IID_IPropertyNotifySink@@3U_GUID@@BVCComDynamicUnkArray@ATL@@@ATL@@QEAA@XZ 0000000180033bf0 f i ScaleImpl.obj
 0001:00032c40       ??0?$IDataObjectImpl@VCOPOSScale@@@ATL@@QEAA@XZ 0000000180033c40 f i ScaleImpl.obj
 0001:00032c80       ??0?$IDispatchImpl@UIOPOSScale@@$1?IID_IOPOSScale@@3U_GUID@@B$1?LIBID_OposScale_CCO@@3U3@B$00$0A@VCComTypeInfoHolder@ATL@@@ATL@@QEAA@XZ 0000000180033c80 f i ScaleImpl.obj
 0001:00032cc0       ??0?$IObjectSafetyImpl@VCOPOSScale@@$02@ATL@@QEAA@XZ 0000000180033cc0 f i ScaleImpl.obj
 0001:00032d00       ??0?$IOleControlImpl@VCOPOSScale@@@ATL@@QEAA@XZ 0000000180033d00 f i ScaleImpl.obj
 0001:00032d40       ??0?$IOleInPlaceActiveObjectImpl@VCOPOSScale@@@ATL@@QEAA@XZ 0000000180033d40 f i ScaleImpl.obj
 0001:00032d80       ??0?$IOleInPlaceObjectWindowlessImpl@VCOPOSScale@@@ATL@@QEAA@XZ 0000000180033d80 f i ScaleImpl.obj
 0001:00032dc0       ??0?$IOleObjectImpl@VCOPOSScale@@@ATL@@QEAA@XZ 0000000180033dc0 f i ScaleImpl.obj
 0001:00032e00       ??0?$IPersistStorageImpl@VCOPOSScale@@@ATL@@QEAA@XZ 0000000180033e00 f i ScaleImpl.obj
 0001:00032e40       ??0?$IPersistStreamInitImpl@VCOPOSScale@@@ATL@@QEAA@XZ 0000000180033e40 f i ScaleImpl.obj
 0001:00032e80       ??0?$IPropertyNotifySinkCP@VCOPOSScale@@VCComDynamicUnkArray@ATL@@@ATL@@QEAA@XZ 0000000180033e80 f i ScaleImpl.obj
 0001:00032ec0       ??0?$IProvideClassInfo2Impl@$1?CLSID_OPOSScale@@3U_GUID@@B$1?DIID__IOPOSScaleEvents@@3U2@B$1?LIBID_OposScale_CCO@@3U2@B$00$0A@VCComTypeInfoHolder@ATL@@@ATL@@QEAA@XZ 0000000180033ec0 f i ScaleImpl.obj
 0001:00032f00       ??0?$IQuickActivateImpl@VCOPOSScale@@@ATL@@QEAA@XZ 0000000180033f00 f i ScaleImpl.obj
 0001:00032f40       ??0?$ISpecifyPropertyPagesImpl@VCOPOSScale@@@ATL@@QEAA@XZ 0000000180033f40 f i ScaleImpl.obj
 0001:00032f80       ??0?$IViewObjectExImpl@VCOPOSScale@@@ATL@@QEAA@XZ 0000000180033f80 f i ScaleImpl.obj
 0001:00032fc0       ??0?$_ICPLocator@$1?DIID__IOPOSScaleEvents@@3U_GUID@@B@ATL@@QEAA@XZ 0000000180033fc0 f i ScaleImpl.obj
 0001:00032fd0       ??0?$_ICPLocator@$1?IID_IPropertyNotifySink@@3U_GUID@@B@ATL@@QEAA@XZ 0000000180033fd0 f i ScaleImpl.obj
 0001:00032fe0       ??0CComControlBase@ATL@@QEAA@AEAPEAUHWND__@@@Z 0000000180033fe0 f i ScaleImpl.obj
 0001:00033200       ??0CComDynamicUnkArray@ATL@@QEAA@XZ 0000000180034200 f i ScaleImpl.obj
 0001:00033230       ??0CDynamicStdCallThunk2@ATL@@QEAA@XZ 0000000180034230 f i ScaleImpl.obj
 0001:00033250       ??0CMessageMap@ATL@@QEAA@XZ 0000000180034250 f i ScaleImpl.obj
 0001:00033260       ??0CWindow@ATL@@QEAA@PEAUHWND__@@@Z 0000000180034260 f i ScaleImpl.obj
 0001:00033280       ??0CWndProcThunk@ATL@@QEAA@XZ 0000000180034280 f i ScaleImpl.obj
 0001:000332c0       ??0IConnectionPointContainer@@QEAA@XZ 00000001800342c0 f i ScaleImpl.obj
 0001:00033300       ??0IDataObject@@QEAA@XZ    0000000180034300 f i ScaleImpl.obj
 0001:00033340       ??0IDispatch@@QEAA@XZ      0000000180034340 f i ScaleImpl.obj
 0001:00033380       ??0IOPOSScale@@QEAA@XZ     0000000180034380 f i ScaleImpl.obj
 0001:000333c0       ??0IOPOSScale_1_13@@QEAA@XZ 00000001800343c0 f i ScaleImpl.obj
 0001:00033400       ??0IOPOSScale_1_14@@QEAA@XZ 0000000180034400 f i ScaleImpl.obj
 0001:00033440       ??0IOPOSScale_1_5@@QEAA@XZ 0000000180034440 f i ScaleImpl.obj
 0001:00033480       ??0IOPOSScale_1_8@@QEAA@XZ 0000000180034480 f i ScaleImpl.obj
 0001:000334c0       ??0IOPOSScale_1_9@@QEAA@XZ 00000001800344c0 f i ScaleImpl.obj
 0001:00033500       ??0IObjectSafety@@QEAA@XZ  0000000180034500 f i ScaleImpl.obj
 0001:00033540       ??0IOleControl@@QEAA@XZ    0000000180034540 f i ScaleImpl.obj
 0001:00033580       ??0IOleInPlaceActiveObject@@QEAA@XZ 0000000180034580 f i ScaleImpl.obj
 0001:000335c0       ??0IOleInPlaceObject@@QEAA@XZ 00000001800345c0 f i ScaleImpl.obj
 0001:00033600       ??0IOleInPlaceObjectWindowless@@QEAA@XZ 0000000180034600 f i ScaleImpl.obj
 0001:00033640       ??0IOleObject@@QEAA@XZ     0000000180034640 f i ScaleImpl.obj
 0001:00033680       ??0IOleWindow@@QEAA@XZ     0000000180034680 f i ScaleImpl.obj
 0001:000336c0       ??0IPersist@@QEAA@XZ       00000001800346c0 f i ScaleImpl.obj
 0001:00033700       ??0IPersistStorage@@QEAA@XZ 0000000180034700 f i ScaleImpl.obj
 0001:00033740       ??0IPersistStreamInit@@QEAA@XZ 0000000180034740 f i ScaleImpl.obj
 0001:00033780       ??0IProvideClassInfo2@@QEAA@XZ 0000000180034780 f i ScaleImpl.obj
 0001:000337c0       ??0IProvideClassInfo@@QEAA@XZ 00000001800347c0 f i ScaleImpl.obj
 0001:00033800       ??0IQuickActivate@@QEAA@XZ 0000000180034800 f i ScaleImpl.obj
 0001:00033840       ??0ISpecifyPropertyPages@@QEAA@XZ 0000000180034840 f i ScaleImpl.obj
 0001:00033880       ??0IViewObject2@@QEAA@XZ   0000000180034880 f i ScaleImpl.obj
 0001:000338c0       ??0IViewObject@@QEAA@XZ    00000001800348c0 f i ScaleImpl.obj
 0001:00033900       ??0IViewObjectEx@@QEAA@XZ  0000000180034900 f i ScaleImpl.obj
 0001:00033940       ??0OposVariantResult@@QEAA@XZ 0000000180034940 f i ScaleImpl.obj
 0001:00033980       ??0_CW@@QEAA@PEBD@Z        0000000180034980 f i ScaleImpl.obj
 0001:000339d0       ??0_CW@@QEAA@PEB_W@Z       00000001800349d0 f i ScaleImpl.obj
 0001:00033a20       ??0_CWNCC@@QEAA@PEBD@Z     0000000180034a20 f i ScaleImpl.obj
 0001:00033a60       ??1?$CComControl@VCOPOSScale@@V?$CWindowImpl@VCOPOSScale@@VCWindow@ATL@@V?$CWinTraits@$0FGAAAAAA@$0A@@3@@ATL@@@ATL@@UEAA@XZ 0000000180034a60 f i ScaleImpl.obj
 0001:00033aa0       ??1?$CComPtr@UIDataAdviseHolder@@@ATL@@QEAA@XZ 0000000180034aa0 f i ScaleImpl.obj
 0001:00033ad0       ??1?$CComPtr@UIOleAdviseHolder@@@ATL@@QEAA@XZ 0000000180034ad0 f i ScaleImpl.obj
 0001:00033b00       ??1?$CComPtr@UIOleInPlaceSiteWindowless@@@ATL@@QEAA@XZ 0000000180034b00 f i ScaleImpl.obj
 0001:00033b30       ??1?$CComPtrBase@UIDataAdviseHolder@@@ATL@@QEAA@XZ 0000000180034b30 f i ScaleImpl.obj
 0001:00033b80       ??1?$CComPtrBase@UIOleAdviseHolder@@@ATL@@QEAA@XZ 0000000180034b80 f i ScaleImpl.obj
 0001:00033bd0       ??1?$CComPtrBase@UIOleInPlaceSiteWindowless@@@ATL@@QEAA@XZ 0000000180034bd0 f i ScaleImpl.obj
 0001:00033c20       ??1?$CComQIPtr@UIDispatch@@$1?_GUID_00020400_0000_0000_c000_000000000046@@3U__s_GUID@@B@ATL@@QEAA@XZ 0000000180034c20 f i ScaleImpl.obj
 0001:00033c50       ??1?$CProxy_IOPOSEvents@VCOPOSScale@@@@QEAA@XZ 0000000180034c50 f i ScaleImpl.obj
 0001:00033c80       ??1?$CWindowImpl@VCOPOSScale@@VCWindow@ATL@@V?$CWinTraits@$0FGAAAAAA@$0A@@3@@ATL@@UEAA@XZ 0000000180034c80 f i ScaleImpl.obj
 0001:00033cb0       ??1?$CWindowImplBaseT@VCWindow@ATL@@V?$CWinTraits@$0FGAAAAAA@$0A@@2@@ATL@@UEAA@XZ 0000000180034cb0 f i ScaleImpl.obj
 0001:00033ce0       ??1?$CWindowImplRoot@VCWindow@ATL@@@ATL@@UEAA@XZ 0000000180034ce0 f i ScaleImpl.obj
 0001:00033da0       ??1?$IConnectionPointImpl@VCOPOSScale@@$1?DIID__IOPOSScaleEvents@@3U_GUID@@BVCComDynamicUnkArray@ATL@@@ATL@@QEAA@XZ 0000000180034da0 f i ScaleImpl.obj
 0001:00033e40       ??1?$IConnectionPointImpl@VCOPOSScale@@$1?IID_IPropertyNotifySink@@3U_GUID@@BVCComDynamicUnkArray@ATL@@@ATL@@QEAA@XZ 0000000180034e40 f i ScaleImpl.obj
 0001:00033ee0       ??1?$IPropertyNotifySinkCP@VCOPOSScale@@VCComDynamicUnkArray@ATL@@@ATL@@QEAA@XZ 0000000180034ee0 f i ScaleImpl.obj
 0001:00033f10       ??1CComControlBase@ATL@@UEAA@XZ 0000000180034f10 f i ScaleImpl.obj
 0001:00034000       ??1CComDynamicUnkArray@ATL@@QEAA@XZ 0000000180035000 f i ScaleImpl.obj
 0001:00034040       ??1CDynamicStdCallThunk2@ATL@@QEAA@XZ 0000000180035040 f i ScaleImpl.obj
 0001:00034080       ??1CWndProcThunk@ATL@@QEAA@XZ 0000000180035080 f i ScaleImpl.obj
 0001:000340c0       ??1OposVariantResult@@QEAA@XZ 00000001800350c0 f i ScaleImpl.obj
 0001:00034100       ??1_CW@@QEAA@XZ            0000000180035100 f i ScaleImpl.obj
 0001:00034180       ??1_CWNCC@@QEAA@XZ         0000000180035180 f i ScaleImpl.obj
 0001:000341b0       ??B_CW@@QEAAPEB_WXZ        00000001800351b0 f i ScaleImpl.obj
 0001:00034200       ??B_CWNCC@@QEAAPEA_WXZ     0000000180035200 f i ScaleImpl.obj
 0001:00034230       ??_EOposVariant@@QEAAPEAXI@Z 0000000180035230 f i ScaleImpl.obj
 0001:000342e0       ?EventClaim@COPOSScale@@IEAAXXZ 00000001800352e0 f i ScaleImpl.obj
 0001:00034330       ?EventClose@COPOSScale@@IEAAXXZ 0000000180035330 f i ScaleImpl.obj
 0001:000343d0       ?EventInit@COPOSScale@@IEAAJXZ 00000001800353d0 f i ScaleImpl.obj
 0001:00034680       ?EventOpen@COPOSScale@@IEAAXXZ 0000000180035680 f i ScaleImpl.obj
 0001:000346c0       ?EventPreCloseRelease@COPOSScale@@IEAAXXZ 00000001800356c0 f i ScaleImpl.obj
 0001:00034740       ?EventUninit@COPOSScale@@IEAAXXZ 0000000180035740 f i ScaleImpl.obj
 0001:00034870       ?EventWindowProc@COPOSScale@@IEAA_JI_K_J@Z 0000000180035870 f i ScaleImpl.obj
 0001:00034a40       ?FireEventCleanup@COPOSScale@@IEAAXXZ 0000000180035a40 f i ScaleImpl.obj
 0001:00034a90       ?FireEventSetup@COPOSScale@@IEAA_NXZ 0000000180035a90 f i ScaleImpl.obj
 0001:00034b10       ?GetModuleInstance@CComModule@ATL@@QEAAPEAUHINSTANCE__@@XZ 0000000180035b10 f i ScaleImpl.obj
 0001:00034b20       ?SetRC@COPOSScale@@IEAAJJ@Z 0000000180035b20 f i ScaleImpl.obj
 0001:00034b40       ?s_EventWindowProc@COPOSScale@@KA_JPEAUHWND__@@I_K_J@Z 0000000180035b40 f i ScaleImpl.obj
 0001:00034bf0       _snwprintf                 0000000180035bf0 f i ScaleImpl.obj
 0001:00034c80       _vfwprintf_l               0000000180035c80 f i ScaleImpl.obj
 0001:00034ce0       _vsnwprintf                0000000180035ce0 f i ScaleImpl.obj
 0001:00034d40       _vsnwprintf_l              0000000180035d40 f i ScaleImpl.obj
 0001:00034dd0       vfwprintf                  0000000180035dd0 f i ScaleImpl.obj
 0001:00034e15       DebugBreak                 0000000180035e15 f   kernel32:KERNEL32.dll
 0001:00034e1b       Sleep                      0000000180035e1b f   kernel32:KERNEL32.dll
 0001:00034e21       GetCurrentProcess          0000000180035e21 f   kernel32:KERNEL32.dll
 0001:00034e27       TerminateProcess           0000000180035e27 f   kernel32:KERNEL32.dll
 0001:00034e2d       MultiByteToWideChar        0000000180035e2d f   kernel32:KERNEL32.dll
 0001:00034e33       WideCharToMultiByte        0000000180035e33 f   kernel32:KERNEL32.dll
 0001:00034e39       DecodePointer              0000000180035e39 f   kernel32:KERNEL32.dll
 0001:00034e3f       RaiseException             0000000180035e3f f   kernel32:KERNEL32.dll
 0001:00034e45       GetLastError               0000000180035e45 f   kernel32:KERNEL32.dll
 0001:00034e4b       SetLastError               0000000180035e4b f   kernel32:KERNEL32.dll
 0001:00034e51       InitializeCriticalSectionEx 0000000180035e51 f   kernel32:KERNEL32.dll
 0001:00034e57       DeleteCriticalSection      0000000180035e57 f   kernel32:KERNEL32.dll
 0001:00034e5d       EncodePointer              0000000180035e5d f   kernel32:KERNEL32.dll
 0001:00034e63       EnterCriticalSection       0000000180035e63 f   kernel32:KERNEL32.dll
 0001:00034e69       LeaveCriticalSection       0000000180035e69 f   kernel32:KERNEL32.dll
 0001:00034e6f       ResetEvent                 0000000180035e6f f   kernel32:KERNEL32.dll
 0001:00034e75       ReleaseMutex               0000000180035e75 f   kernel32:KERNEL32.dll
 0001:00034e7b       WaitForSingleObject        0000000180035e7b f   kernel32:KERNEL32.dll
 0001:00034e81       GetCurrentThreadId         0000000180035e81 f   kernel32:KERNEL32.dll
 0001:00034e87       DisableThreadLibraryCalls  0000000180035e87 f   kernel32:KERNEL32.dll
 0001:00034e8d       FreeLibrary                0000000180035e8d f   kernel32:KERNEL32.dll
 0001:00034e93       GetModuleFileNameW         0000000180035e93 f   kernel32:KERNEL32.dll
 0001:00034e99       GetModuleHandleW           0000000180035e99 f   kernel32:KERNEL32.dll
 0001:00034e9f       GetProcAddress             0000000180035e9f f   kernel32:KERNEL32.dll
 0001:00034ea5       LoadLibraryExW             0000000180035ea5 f   kernel32:KERNEL32.dll
 0001:00034eab       LoadResource               0000000180035eab f   kernel32:KERNEL32.dll
 0001:00034eb1       SizeofResource             0000000180035eb1 f   kernel32:KERNEL32.dll
 0001:00034eb7       FindResourceW              0000000180035eb7 f   kernel32:KERNEL32.dll
 0001:00034ebd       GlobalAlloc                0000000180035ebd f   kernel32:KERNEL32.dll
 0001:00034ec3       GlobalUnlock               0000000180035ec3 f   kernel32:KERNEL32.dll
 0001:00034ec9       GlobalLock                 0000000180035ec9 f   kernel32:KERNEL32.dll
 0001:00034ecf       MulDiv                     0000000180035ecf f   kernel32:KERNEL32.dll
 0001:00034ed5       lstrcmpiW                  0000000180035ed5 f   kernel32:KERNEL32.dll
 0001:00034edb       DeleteFileW                0000000180035edb f   kernel32:KERNEL32.dll
 0001:00034ee1       CloseHandle                0000000180035ee1 f   kernel32:KERNEL32.dll
 0001:00034ee7       SetEvent                   0000000180035ee7 f   kernel32:KERNEL32.dll
 0001:00034eed       CreateMutexW               0000000180035eed f   kernel32:KERNEL32.dll
 0001:00034ef3       CreateEventW               0000000180035ef3 f   kernel32:KERNEL32.dll
 0001:00034ef9       GetCurrentProcessId        0000000180035ef9 f   kernel32:KERNEL32.dll
 0001:00034eff       LocalFree                  0000000180035eff f   kernel32:KERNEL32.dll
 0001:00034f05       FormatMessageW             0000000180035f05 f   kernel32:KERNEL32.dll
 0001:00034f0b       GetActiveWindow            0000000180035f0b f   user32:USER32.dll
 0001:00034f11       MessageBoxW                0000000180035f11 f   user32:USER32.dll
 0001:00034f17       UnregisterClassW           0000000180035f17 f   user32:USER32.dll
 0001:00034f1d       PostMessageW               0000000180035f1d f   user32:USER32.dll
 0001:00034f23       DefWindowProcW             0000000180035f23 f   user32:USER32.dll
 0001:00034f29       CallWindowProcW            0000000180035f29 f   user32:USER32.dll
 0001:00034f2f       RegisterClassExW           0000000180035f2f f   user32:USER32.dll
 0001:00034f35       GetClassInfoExW            0000000180035f35 f   user32:USER32.dll
 0001:00034f3b       CreateWindowExW            0000000180035f3b f   user32:USER32.dll
 0001:00034f41       IsWindow                   0000000180035f41 f   user32:USER32.dll
 0001:00034f47       IsChild                    0000000180035f47 f   user32:USER32.dll
 0001:00034f4d       DestroyWindow              0000000180035f4d f   user32:USER32.dll
 0001:00034f53       ShowWindow                 0000000180035f53 f   user32:USER32.dll
 0001:00034f59       SetWindowPos               0000000180035f59 f   user32:USER32.dll
 0001:00034f5f       CharNextW                  0000000180035f5f f   user32:USER32.dll
 0001:00034f65       SetFocus                   0000000180035f65 f   user32:USER32.dll
 0001:00034f6b       GetFocus                   0000000180035f6b f   user32:USER32.dll
 0001:00034f71       GetKeyState                0000000180035f71 f   user32:USER32.dll
 0001:00034f77       GetDC                      0000000180035f77 f   user32:USER32.dll
 0001:00034f7d       ReleaseDC                  0000000180035f7d f   user32:USER32.dll
 0001:00034f83       BeginPaint                 0000000180035f83 f   user32:USER32.dll
 0001:00034f89       EndPaint                   0000000180035f89 f   user32:USER32.dll
 0001:00034f8f       SetWindowRgn               0000000180035f8f f   user32:USER32.dll
 0001:00034f95       InvalidateRect             0000000180035f95 f   user32:USER32.dll
 0001:00034f9b       GetClientRect              0000000180035f9b f   user32:USER32.dll
 0001:00034fa1       IntersectRect              0000000180035fa1 f   user32:USER32.dll
 0001:00034fa7       UnionRect                  0000000180035fa7 f   user32:USER32.dll
 0001:00034fad       OffsetRect                 0000000180035fad f   user32:USER32.dll
 0001:00034fb3       EqualRect                  0000000180035fb3 f   user32:USER32.dll
 0001:00034fb9       PtInRect                   0000000180035fb9 f   user32:USER32.dll
 0001:00034fbf       GetWindowLongPtrW          0000000180035fbf f   user32:USER32.dll
 0001:00034fc5       SetWindowLongPtrW          0000000180035fc5 f   user32:USER32.dll
 0001:00034fcb       GetParent                  0000000180035fcb f   user32:USER32.dll
 0001:00034fd1       LoadCursorW                0000000180035fd1 f   user32:USER32.dll
 0001:00034fd7       PeekMessageW               0000000180035fd7 f   user32:USER32.dll
 0001:00034fdd       RegisterClassW             0000000180035fdd f   user32:USER32.dll
 0001:00034fe3       LoadBitmapW                0000000180035fe3 f   user32:USER32.dll
 0001:00034fe9       CloseMetaFile              0000000180035fe9 f   gdi32:GDI32.dll
 0001:00034fef       CreateDCW                  0000000180035fef f   gdi32:GDI32.dll
 0001:00034ff5       CreateMetaFileW            0000000180035ff5 f   gdi32:GDI32.dll
 0001:00034ffb       CreateRectRgnIndirect      0000000180035ffb f   gdi32:GDI32.dll
 0001:00035001       DeleteDC                   0000000180036001 f   gdi32:GDI32.dll
 0001:00035007       DeleteMetaFile             0000000180036007 f   gdi32:GDI32.dll
 0001:0003500d       GetDeviceCaps              000000018003600d f   gdi32:GDI32.dll
 0001:00035013       RestoreDC                  0000000180036013 f   gdi32:GDI32.dll
 0001:00035019       SaveDC                     0000000180036019 f   gdi32:GDI32.dll
 0001:0003501f       SetMapMode                 000000018003601f f   gdi32:GDI32.dll
 0001:00035025       LPtoDP                     0000000180036025 f   gdi32:GDI32.dll
 0001:0003502b       SetViewportOrgEx           000000018003602b f   gdi32:GDI32.dll
 0001:00035031       SetWindowExtEx             0000000180036031 f   gdi32:GDI32.dll
 0001:00035037       SetWindowOrgEx             0000000180036037 f   gdi32:GDI32.dll
 0001:0003503d       BitBlt                     000000018003603d f   gdi32:GDI32.dll
 0001:00035043       CreateCompatibleDC         0000000180036043 f   gdi32:GDI32.dll
 0001:00035049       DeleteObject               0000000180036049 f   gdi32:GDI32.dll
 0001:0003504f       SelectObject               000000018003604f f   gdi32:GDI32.dll
 0001:00035055       GetObjectW                 0000000180036055 f   gdi32:GDI32.dll
 0001:0003505b       RegCloseKey                000000018003605b f   advapi32:ADVAPI32.dll
 0001:00035061       RegCreateKeyExW            0000000180036061 f   advapi32:ADVAPI32.dll
 0001:00035067       RegDeleteKeyW              0000000180036067 f   advapi32:ADVAPI32.dll
 0001:0003506d       RegDeleteValueW            000000018003606d f   advapi32:ADVAPI32.dll
 0001:00035073       RegEnumKeyExW              0000000180036073 f   advapi32:ADVAPI32.dll
 0001:00035079       RegOpenKeyExW              0000000180036079 f   advapi32:ADVAPI32.dll
 0001:0003507f       RegQueryInfoKeyW           000000018003607f f   advapi32:ADVAPI32.dll
 0001:00035085       RegSetValueExW             0000000180036085 f   advapi32:ADVAPI32.dll
 0001:0003508b       RegQueryValueExW           000000018003608b f   advapi32:ADVAPI32.dll
 0001:00035091       CoCreateInstance           0000000180036091 f   ole32:ole32.dll
 0001:00035097       StringFromGUID2            0000000180036097 f   ole32:ole32.dll
 0001:0003509d       CoTaskMemAlloc             000000018003609d f   ole32:ole32.dll
 0001:000350a3       CoTaskMemRealloc           00000001800360a3 f   ole32:ole32.dll
 0001:000350a9       CoTaskMemFree              00000001800360a9 f   ole32:ole32.dll
 0001:000350af       ReadClassStm               00000001800360af f   ole32:ole32.dll
 0001:000350b5       WriteClassStm              00000001800360b5 f   ole32:ole32.dll
 0001:000350bb       CreateDataAdviseHolder     00000001800360bb f   ole32:ole32.dll
 0001:000350c1       OleSaveToStream            00000001800360c1 f   ole32:ole32.dll
 0001:000350c7       CreateOleAdviseHolder      00000001800360c7 f   ole32:ole32.dll
 0001:000350cd       OleRegGetUserType          00000001800360cd f   ole32:ole32.dll
 0001:000350d3       OleRegGetMiscStatus        00000001800360d3 f   ole32:ole32.dll
 0001:000350d9       OleRegEnumVerbs            00000001800360d9 f   ole32:ole32.dll
 0001:000350df       CLSIDFromProgID            00000001800360df f   ole32:ole32.dll
 0001:000350e5       SysAllocString             00000001800360e5 f   oleaut32:OLEAUT32.dll
 0001:000350eb       SysAllocStringLen          00000001800360eb f   oleaut32:OLEAUT32.dll
 0001:000350f1       SysFreeString              00000001800360f1 f   oleaut32:OLEAUT32.dll
 0001:000350f7       SysStringLen               00000001800360f7 f   oleaut32:OLEAUT32.dll
 0001:000350fd       VariantClear               00000001800360fd f   oleaut32:OLEAUT32.dll
 0001:00035103       VariantCopyInd             0000000180036103 f   oleaut32:OLEAUT32.dll
 0001:00035109       VariantChangeType          0000000180036109 f   oleaut32:OLEAUT32.dll
 0001:0003510f       SysStringByteLen           000000018003610f f   oleaut32:OLEAUT32.dll
 0001:00035115       SysAllocStringByteLen      0000000180036115 f   oleaut32:OLEAUT32.dll
 0001:0003511b       VariantInit                000000018003611b f   oleaut32:OLEAUT32.dll
 0001:00035121       VarUI4FromStr              0000000180036121 f   oleaut32:OLEAUT32.dll
 0001:00035127       LoadTypeLib                0000000180036127 f   oleaut32:OLEAUT32.dll
 0001:0003512d       LoadRegTypeLib             000000018003612d f   oleaut32:OLEAUT32.dll
 0001:00035133       RegisterTypeLib            0000000180036133 f   oleaut32:OLEAUT32.dll
 0001:00035139       UnRegisterTypeLib          0000000180036139 f   oleaut32:OLEAUT32.dll
 0001:0003513f       OleCreatePropertyFrame     000000018003613f f   oleaut32:OLEAUT32.dll
 0001:00035150       _RTC_AllocaHelper          0000000180036150 f   LIBCMTD:stack.obj
 0001:00035190       _RTC_CheckStackVars        0000000180036190 f   LIBCMTD:stack.obj
 0001:00035220       _RTC_CheckStackVars2       0000000180036220 f   LIBCMTD:stack.obj
 0001:00035330       _CRT_RTC_INIT              0000000180036330 f   LIBCMTD:init.obj
 0001:00035340       _CRT_RTC_INITW             0000000180036340 f   LIBCMTD:init.obj
 0001:00035350       _RTC_InitBase              0000000180036350 f   LIBCMTD:init.obj
 0001:00035390       _RTC_Shutdown              0000000180036390 f   LIBCMTD:init.obj
 0001:000353c0       __GSHandlerCheck           00000001800363c0 f   LIBCMTD:gshandler.obj
 0001:00035400       __GSHandlerCheckCommon     0000000180036400 f   LIBCMTD:gshandler.obj
 0001:00035510       __security_check_cookie    0000000180036510 f   LIBCMTD:amdsecgs.obj
 0001:00035540       ??_U@YAPEAX_K@Z            0000000180036540 f   LIBCMTD:new_array.obj
 0001:00035560       ??3@YAXPEAX_K@Z            0000000180036560 f   LIBCMTD:delete_scalar_size.obj
 0001:00035580       ??_V@YAXPEAX@Z             0000000180036580 f   LIBCMTD:delete_array.obj
 0001:000355a0       ??_V@YAXPEAX_K@Z           00000001800365a0 f   LIBCMTD:delete_array_size.obj
 0001:000355c0       ?configure_argv@__scrt_narrow_argv_policy@@SAHXZ 00000001800365c0 f i LIBCMTD:utility.obj
 0001:000356b0       ?initialize_environment@__scrt_narrow_environment_policy@@SAHXZ 00000001800366b0 f i LIBCMTD:utility.obj
 0001:00035750       NtCurrentTeb               0000000180036750 f i LIBCMTD:utility.obj
 0001:00035760       __scrt_acquire_startup_lock 0000000180036760 f   LIBCMTD:utility.obj
 0001:000357d0       __scrt_dllmain_after_initialize_c 00000001800367d0 f   LIBCMTD:utility.obj
 0001:00035800       __scrt_dllmain_before_initialize_c 0000000180036800 f   LIBCMTD:utility.obj
 0001:00035820       __scrt_dllmain_crt_thread_attach 0000000180036820 f   LIBCMTD:utility.obj
 0001:00035850       __scrt_dllmain_crt_thread_detach 0000000180036850 f   LIBCMTD:utility.obj
 0001:00035870       __scrt_dllmain_exception_filter 0000000180036870 f   LIBCMTD:utility.obj
 0001:000358e0       __scrt_dllmain_uninitialize_c 00000001800368e0 f   LIBCMTD:utility.obj
 0001:00035910       __scrt_dllmain_uninitialize_critical 0000000180036910 f   LIBCMTD:utility.obj
 0001:00035930       __scrt_initialize_crt      0000000180036930 f   LIBCMTD:utility.obj
 0001:00035980       __scrt_initialize_onexit_tables 0000000180036980 f   LIBCMTD:utility.obj
 0001:00035a90       __scrt_is_nonwritable_in_current_image 0000000180036a90 f   LIBCMTD:utility.obj
 0001:00035b20       __scrt_release_startup_lock 0000000180036b20 f   LIBCMTD:utility.obj
 0001:00035b50       __scrt_uninitialize_crt    0000000180036b50 f   LIBCMTD:utility.obj
 0001:00035b90       _onexit                    0000000180036b90 f   LIBCMTD:utility.obj
 0001:00035c10       at_quick_exit              0000000180036c10 f   LIBCMTD:utility.obj
 0001:00035c60       atexit                     0000000180036c60 f   LIBCMTD:utility.obj
 0001:00035ca0       ??3@YAXPEAX@Z              0000000180036ca0 f   LIBCMTD:delete_scalar.obj
 0001:00035cc0       __raise_securityfailure    0000000180036cc0 f   LIBCMTD:gs_report.obj
 0001:00035d00       __report_gsfailure         0000000180036d00 f   LIBCMTD:gs_report.obj
 0001:00035de0       __report_rangecheckfailure 0000000180036de0 f   LIBCMTD:gs_report.obj
 0001:00035e00       __report_securityfailure   0000000180036e00 f   LIBCMTD:gs_report.obj
 0001:00035ea0       __report_securityfailureEx 0000000180036ea0 f   LIBCMTD:gs_report.obj
 0001:00036260       _Init_thread_abort         0000000180037260 f   LIBCMTD:thread_safe_statics.obj
 0001:00036290       _Init_thread_footer        0000000180037290 f   LIBCMTD:thread_safe_statics.obj
 0001:000362f0       _Init_thread_header        00000001800372f0 f   LIBCMTD:thread_safe_statics.obj
 0001:00036380       _Init_thread_lock          0000000180037380 f   LIBCMTD:thread_safe_statics.obj
 0001:000363a0       _Init_thread_notify        00000001800373a0 f   LIBCMTD:thread_safe_statics.obj
 0001:00036400       _Init_thread_unlock        0000000180037400 f   LIBCMTD:thread_safe_statics.obj
 0001:00036420       _Init_thread_wait          0000000180037420 f   LIBCMTD:thread_safe_statics.obj
 0001:000364d0       ??2@YAPEAX_KAEBUnothrow_t@std@@@Z 00000001800374d0 f   LIBCMTD:new_scalar_nothrow.obj
 0001:00036510       ??_U@YAPEAX_KAEBUnothrow_t@std@@@Z 0000000180037510 f   LIBCMTD:new_array_nothrow.obj
 0001:00036540       __GSHandlerCheck_SEH       0000000180037540 f   LIBCMTD:gshandlerseh.obj
 0001:00036610       _alloca_probe              0000000180037610 f   LIBCMTD:chkstk.obj
 0001:00036610       __chkstk                   0000000180037610 f   LIBCMTD:chkstk.obj
 0001:00036a80       _CRT_INIT                  0000000180037a80 f   LIBCMTD:dll_dllmain.obj
 0001:00036ab0       _DllMainCRTStartup         0000000180037ab0 f   LIBCMTD:dll_dllmain.obj
 0001:00036b80       ?_RTC_AllocaFailure@@YAXPEAXPEAU_RTC_ALLOCA_NODE@@H@Z 0000000180037b80 f   LIBCMTD:error.obj
 0001:00036ce0       ?_RTC_Failure@@YAXPEAXH@Z  0000000180037ce0 f   LIBCMTD:error.obj
 0001:00036d30       ?_RTC_StackFailure@@YAXPEAXPEBD@Z 0000000180037d30 f   LIBCMTD:error.obj
 0001:00037160       _RTC_UninitUse             0000000180038160 f   LIBCMTD:error.obj
 0001:00037230       _vsprintf_s_l              0000000180038230 f i LIBCMTD:error.obj
 0001:000372a0       sprintf_s                  00000001800382a0 f i LIBCMTD:error.obj
 0001:000372d0       ?_RTC_GetErrorFunc@@YAP6AHHPEBDH00ZZPEBX@Z 00000001800382d0 f   LIBCMTD:userapi.obj
 0001:000372e0       ?_RTC_GetErrorFuncW@@YAP6AHHPEB_WH00ZZPEBX@Z 00000001800382e0 f   LIBCMTD:userapi.obj
 0001:000372f0       _RTC_GetErrDesc            00000001800382f0 f   LIBCMTD:userapi.obj
 0001:00037310       _RTC_NumErrors             0000000180038310 f   LIBCMTD:userapi.obj
 0001:00037320       _RTC_SetErrorFunc          0000000180038320 f   LIBCMTD:userapi.obj
 0001:00037340       _RTC_SetErrorFuncW         0000000180038340 f   LIBCMTD:userapi.obj
 0001:00037360       _RTC_SetErrorType          0000000180038360 f   LIBCMTD:userapi.obj
 0001:00037380       ??2@YAPEAX_K@Z             0000000180038380 f   LIBCMTD:new_scalar.obj
 0001:000373d0       __isa_available_init       00000001800383d0 f   LIBCMTD:cpu_disp.obj
 0001:00037770       _get_startup_argv_mode     0000000180038770 f   LIBCMTD:argv_mode.obj
 0001:00037780       __scrt_is_ucrt_dll_in_use  0000000180038780 f   LIBCMTD:ucrt_detection.obj
 0001:000377b0       __crt_debugger_hook        00000001800387b0 f   LIBCMTD:utility_desktop.obj
 0001:000377c0       __scrt_fastfail            00000001800387c0 f   LIBCMTD:utility_desktop.obj
 0001:00037960       __scrt_get_show_window_mode 0000000180038960 f   LIBCMTD:utility_desktop.obj
 0001:000379c0       __scrt_initialize_mta      00000001800389c0 f   LIBCMTD:utility_desktop.obj
 0001:000379d0       __scrt_initialize_winrt    00000001800389d0 f   LIBCMTD:utility_desktop.obj
 0001:000379e0       __scrt_is_managed_app      00000001800389e0 f   LIBCMTD:utility_desktop.obj
 0001:00037a90       __scrt_set_unhandled_exception_filter 0000000180038a90 f   LIBCMTD:utility_desktop.obj
 0001:00037ab0       __scrt_stub_for_initialize_mta 0000000180038ab0 f   LIBCMTD:utility_desktop.obj
 0001:00037ab0       __scrt_exe_initialize_mta  0000000180038ab0 f   LIBCMTD:utility_desktop.obj
 0001:00037ac0       __scrt_unhandled_exception_filter 0000000180038ac0 f   LIBCMTD:utility_desktop.obj
 0001:00037b60       _guard_check_icall_nop     0000000180038b60 f i LIBCMTD:guard_support.obj
 0001:00037b70       ReadNoFence64              0000000180038b70 f i LIBCMTD:guard_support.obj
 0001:00037b90       ReadPointerNoFence         0000000180038b90 f i LIBCMTD:guard_support.obj
 0001:00037bb0       _guard_icall_checks_enforced 0000000180038bb0 f i LIBCMTD:guard_support.obj
 0001:00037bf0       _guard_rf_checks_enforced  0000000180038bf0 f i LIBCMTD:guard_support.obj
 0001:00037cc0       __security_init_cookie     0000000180038cc0 f   LIBCMTD:gs_support.obj
 0001:00037d40       ?__scrt_initialize_type_info@@YAXXZ 0000000180038d40 f   LIBCMTD:tncleanup.obj
 0001:00037d60       ?__scrt_uninitialize_type_info@@YAXXZ 0000000180038d60 f   LIBCMTD:tncleanup.obj
 0001:00037d80       __local_stdio_scanf_options 0000000180038d80 f i LIBCMTD:default_local_stdio_options.obj
 0001:00037d90       __scrt_initialize_default_local_stdio_options 0000000180038d90 f   LIBCMTD:default_local_stdio_options.obj
 0001:00037de0       __scrt_get_dyn_tls_init_callback 0000000180038de0 f   LIBCMTD:dyn_tls_init.obj
 0001:00037df0       _RTC_Initialize            0000000180038df0 f   LIBCMTD:initsect.obj
 0001:00037e40       _RTC_Terminate             0000000180038e40 f   LIBCMTD:initsect.obj
 0001:000383a0       ?_RTC_GetSrcLine@@YAHPEAEPEA_WKPEAH1K@Z 00000001800393a0 f   LIBCMTD:pdblkup.obj
 0001:00038770       ??0bad_alloc@std@@AEAA@QEBD@Z 0000000180039770 f i LIBCMTD:throw_bad_alloc.obj
 0001:000387b0       ??0bad_alloc@std@@QEAA@AEBV01@@Z 00000001800397b0 f i LIBCMTD:throw_bad_alloc.obj
 0001:000387f0       ??0bad_alloc@std@@QEAA@XZ  00000001800397f0 f i LIBCMTD:throw_bad_alloc.obj
 0001:00038830       ??0bad_array_new_length@std@@QEAA@AEBV01@@Z 0000000180039830 f i LIBCMTD:throw_bad_alloc.obj
 0001:00038870       ??0bad_array_new_length@std@@QEAA@XZ 0000000180039870 f i LIBCMTD:throw_bad_alloc.obj
 0001:000388b0       ??0exception@std@@QEAA@AEBV01@@Z 00000001800398b0 f i LIBCMTD:throw_bad_alloc.obj
 0001:00038910       ??0exception@std@@QEAA@QEBDH@Z 0000000180039910 f i LIBCMTD:throw_bad_alloc.obj
 0001:00038960       ??1bad_alloc@std@@UEAA@XZ  0000000180039960 f i LIBCMTD:throw_bad_alloc.obj
 0001:00038980       ??1bad_array_new_length@std@@UEAA@XZ 0000000180039980 f i LIBCMTD:throw_bad_alloc.obj
 0001:000389a0       ??1exception@std@@UEAA@XZ  00000001800399a0 f i LIBCMTD:throw_bad_alloc.obj
 0001:000389d0       ??_Ebad_alloc@std@@UEAAPEAXI@Z 00000001800399d0 f i LIBCMTD:throw_bad_alloc.obj
 0001:000389d0       ??_Gbad_alloc@std@@UEAAPEAXI@Z 00000001800399d0 f i LIBCMTD:throw_bad_alloc.obj
 0001:00038a10       ??_Gbad_array_new_length@std@@UEAAPEAXI@Z 0000000180039a10 f i LIBCMTD:throw_bad_alloc.obj
 0001:00038a10       ??_Ebad_array_new_length@std@@UEAAPEAXI@Z 0000000180039a10 f i LIBCMTD:throw_bad_alloc.obj
 0001:00038a50       ??_Eexception@std@@UEAAPEAXI@Z 0000000180039a50 f i LIBCMTD:throw_bad_alloc.obj
 0001:00038a50       ??_Gexception@std@@UEAAPEAXI@Z 0000000180039a50 f i LIBCMTD:throw_bad_alloc.obj
 0001:00038a90       ?__scrt_throw_std_bad_alloc@@YAXXZ 0000000180039a90 f   LIBCMTD:throw_bad_alloc.obj
 0001:00038ac0       ?__scrt_throw_std_bad_array_new_length@@YAXXZ 0000000180039ac0 f   LIBCMTD:throw_bad_alloc.obj
 0001:00038af0       ?what@exception@std@@UEBAPEBDXZ 0000000180039af0 f i LIBCMTD:throw_bad_alloc.obj
 0001:00038b30       ??1type_info@@UEAA@XZ      0000000180039b30 f   LIBCMTD:std_type_info_static.obj
 0001:00038b50       ??_Gtype_info@@UEAAPEAXI@Z 0000000180039b50 f i LIBCMTD:std_type_info_static.obj
 0001:00038b50       ??_Etype_info@@UEAAPEAXI@Z 0000000180039b50 f i LIBCMTD:std_type_info_static.obj
 0001:00038b8c       ??$?2PEAUHINSTANCE__@@@Wrapper@?$CSimpleArray@PEAUHINSTANCE__@@V?$CSimpleArrayEqualHelper@PEAUHINSTANCE__@@@ATL@@@ATL@@SAPEAX_KPEAPEAUHINSTANCE__@@@Z 0000000180039b8c f i atls:atlbase.obj
 0001:00038b90       ??0?$CSimpleArray@PEAUHINSTANCE__@@V?$CSimpleArrayEqualHelper@PEAUHINSTANCE__@@@ATL@@@ATL@@QEAA@XZ 0000000180039b90 f i atls:atlbase.obj
 0001:00038ba0       ??0CAtlBaseModule@ATL@@QEAA@XZ 0000000180039ba0 f   atls:atlbase.obj
 0001:00038c48       ??0Wrapper@?$CSimpleArray@PEAUHINSTANCE__@@V?$CSimpleArrayEqualHelper@PEAUHINSTANCE__@@@ATL@@@ATL@@QEAA@AEBQEAUHINSTANCE__@@@Z 0000000180039c48 f i atls:atlbase.obj
 0001:00038c54       ??0_ATL_BASE_MODULE70@ATL@@QEAA@XZ 0000000180039c54 f i atls:atlbase.obj
 0001:00038c80       ??1?$CSimpleArray@PEAUHINSTANCE__@@V?$CSimpleArrayEqualHelper@PEAUHINSTANCE__@@@ATL@@@ATL@@QEAA@XZ 0000000180039c80 f i atls:atlbase.obj
 0001:00038ca8       ??1CAtlBaseModule@ATL@@QEAA@XZ 0000000180039ca8 f   atls:atlbase.obj
 0001:00038cdc       ??1_ATL_BASE_MODULE70@ATL@@QEAA@XZ 0000000180039cdc f i atls:atlbase.obj
 0001:00038d08       ??A?$CSimpleArray@PEAUHINSTANCE__@@V?$CSimpleArrayEqualHelper@PEAUHINSTANCE__@@@ATL@@@ATL@@QEAAAEAPEAUHINSTANCE__@@H@Z 0000000180039d08 f i atls:atlbase.obj
 0001:00038d34       ?Add@?$CSimpleArray@PEAUHINSTANCE__@@V?$CSimpleArrayEqualHelper@PEAUHINSTANCE__@@@ATL@@@ATL@@QEAAHAEBQEAUHINSTANCE__@@@Z 0000000180039d34 f i atls:atlbase.obj
 0001:00038de8       ?AddResourceInstance@CAtlBaseModule@ATL@@QEAA_NPEAUHINSTANCE__@@@Z 0000000180039de8 f   atls:atlbase.obj
 0001:00038e30       ?GetHInstanceAt@CAtlBaseModule@ATL@@QEAAPEAUHINSTANCE__@@H@Z 0000000180039e30 f   atls:atlbase.obj
 0001:00038ea8       ?GetSize@?$CSimpleArray@PEAUHINSTANCE__@@V?$CSimpleArrayEqualHelper@PEAUHINSTANCE__@@@ATL@@@ATL@@QEBAHXZ 0000000180039ea8 f i atls:atlbase.obj
 0001:00038eac       ?InternalSetAtIndex@?$CSimpleArray@PEAUHINSTANCE__@@V?$CSimpleArrayEqualHelper@PEAUHINSTANCE__@@@ATL@@@ATL@@QEAAXHAEBQEAUHINSTANCE__@@@Z 0000000180039eac f i atls:atlbase.obj
 0001:00038ec4       ?RemoveAll@?$CSimpleArray@PEAUHINSTANCE__@@V?$CSimpleArrayEqualHelper@PEAUHINSTANCE__@@@ATL@@@ATL@@QEAAXXZ 0000000180039ec4 f i atls:atlbase.obj
 0001:00038eec       ?RemoveAt@?$CSimpleArray@PEAUHINSTANCE__@@V?$CSimpleArrayEqualHelper@PEAUHINSTANCE__@@@ATL@@@ATL@@QEAAHH@Z 0000000180039eec f i atls:atlbase.obj
 0001:00038f90       ?RemoveResourceInstance@CAtlBaseModule@ATL@@QEAA_NPEAUHINSTANCE__@@@Z 0000000180039f90 f   atls:atlbase.obj
 0001:00039010       ?memmove_s@Checked@ATL@@YAXPEAX_KPEBX1@Z 000000018003a010 f i atls:atlbase.obj
 0001:000394b8       ?GetCodeAddress@_stdcallthunk@ATL@@QEAAPEAXXZ 000000018003a4b8 f i atls:atlthunk.obj
 0001:000394e4       ?Init@_stdcallthunk@ATL@@QEAAH_KPEAX@Z 000000018003a4e4 f i atls:atlthunk.obj
 0001:00039534       ?__AllocStdCallThunk@@YAPEAXXZ 000000018003a534 f   atls:atlthunk.obj
 0001:0003953c       ?__AllocStdCallThunk@ATL@@YAPEAXXZ 000000018003a53c f   atls:atlthunk.obj
 0001:00039544       ?__AllocStdCallThunk_cmn@@YAPEAXXZ 000000018003a544 f   atls:atlthunk.obj
 0001:0003961c       ?__FreeStdCallThunk@@YAXPEAX@Z 000000018003a61c f   atls:atlthunk.obj
 0001:0003963c       ?__FreeStdCallThunk@ATL@@YAXPEAX@Z 000000018003a63c f   atls:atlthunk.obj
 0001:0003965c       ?__FreeStdCallThunk_cmn@@YAXPEAX@Z 000000018003a65c f   atls:atlthunk.obj
 0001:000396fc       AtlThunk_AllocateData      000000018003a6fc f   atls:atlthunk.obj
 0001:00039778       AtlThunk_DataToCode        000000018003a778 f   atls:atlthunk.obj
 0001:000397cc       AtlThunk_FreeData          000000018003a7cc f   atls:atlthunk.obj
 0001:0003982c       AtlThunk_InitData          000000018003a82c f   atls:atlthunk.obj
 0001:000398f0       memset_repmovs             000000018003a8f0 f   libvcruntimed:memset.obj
 0001:00039910       memset                     000000018003a910 f   libvcruntimed:memset.obj
 0001:00039aa0       ??$__crt_interlocked_exchange_pointer@$$A6AXXZP6AXXZ@@YAP6AXXZPEDS6AXXZQ6AXXZ@Z 000000018003aaa0 f i libvcruntimed:purevirt.obj
 0001:00039ac0       ??$__crt_interlocked_read_pointer@$$A6AXXZ@@YAP6AXXZPEDS6AXXZ@Z 000000018003aac0 f i libvcruntimed:purevirt.obj
 0001:00039ae0       ?__crt_interlocked_read_64@@YA_JPED_J@Z 000000018003aae0 f i libvcruntimed:purevirt.obj
 0001:00039b00       _get_purecall_handler      000000018003ab00 f   libvcruntimed:purevirt.obj
 0001:00039b20       _purecall                  000000018003ab20 f   libvcruntimed:purevirt.obj
 0001:00039b60       _set_purecall_handler      000000018003ab60 f   libvcruntimed:purevirt.obj
 0001:00039b90       memcmp                     000000018003ab90 f   libvcruntimed:memcmp.obj
 0001:00039c70       memcpy_repmovs             000000018003ac70 f   libvcruntimed:memcpy.obj
 0001:00039c90       memmove                    000000018003ac90 f   libvcruntimed:memcpy.obj
 0001:00039c90       memcpy                     000000018003ac90 f   libvcruntimed:memcpy.obj
 0001:0003a070       wcsstr                     000000018003b070 f   libvcruntimed:wcsstr.obj
 0001:0003a6d0       __vcrt_initialize          000000018003b6d0 f   libvcruntimed:initialization.obj
 0001:0003a710       __vcrt_thread_attach       000000018003b710 f   libvcruntimed:initialization.obj
 0001:0003a730       __vcrt_thread_detach       000000018003b730 f   libvcruntimed:initialization.obj
 0001:0003a750       __vcrt_uninitialize        000000018003b750 f   libvcruntimed:initialization.obj
 0001:0003a770       __vcrt_uninitialize_critical 000000018003b770 f   libvcruntimed:initialization.obj
 0001:0003a790       __C_specific_handler       000000018003b790 f   libvcruntimed:riscchandler.obj
 0001:0003ac00       ??$?0AEAViterator@TryBlockMap4@FH4@@AEAV012@$0A@@?$pair@Viterator@TryBlockMap4@FH4@@V123@@std@@QEAA@AEAViterator@TryBlockMap4@FH4@@0@Z 000000018003bc00 f i libvcruntimed:risctrnsctrl.obj
 0001:0003ac60       ??$?0AEAViterator@TryBlockMap@__FrameHandler3@@AEAV012@$0A@@?$pair@Viterator@TryBlockMap@__FrameHandler3@@V123@@std@@QEAA@AEAViterator@TryBlockMap@__FrameHandler3@@0@Z 000000018003bc60 f i libvcruntimed:risctrnsctrl.obj
 0001:0003ae20       ??$_CallSETranslator@V__FrameHandler3@@@@YAHPEAUEHExceptionRecord@@PEA_KPEAU_CONTEXT@@PEAU_xDISPATCHER_CONTEXT@@PEBU_s_FuncInfo@@K1@Z 000000018003be20 f i libvcruntimed:risctrnsctrl.obj
 0001:0003aeb0       ??$_CallSETranslator@V__FrameHandler4@@@@YAHPEAUEHExceptionRecord@@PEA_KPEAU_CONTEXT@@PEAU_xDISPATCHER_CONTEXT@@PEAUFuncInfo4@FH4@@K1@Z 000000018003beb0 f i libvcruntimed:risctrnsctrl.obj
 0001:0003af40       ??$forward@AEAViterator@TryBlockMap4@FH4@@@std@@YAAEAViterator@TryBlockMap4@FH4@@AEAV123@@Z 000000018003bf40 f i libvcruntimed:risctrnsctrl.obj
 0001:0003af50       ??$forward@AEAViterator@TryBlockMap@__FrameHandler3@@@std@@YAAEAViterator@TryBlockMap@__FrameHandler3@@AEAV123@@Z 000000018003bf50 f i libvcruntimed:risctrnsctrl.obj
 0001:0003af60       ??0FuncInfo4@FH4@@QEAA@XZ  000000018003bf60 f i libvcruntimed:risctrnsctrl.obj
 0001:0003afd0       ??0FuncInfoHeader@FH4@@QEAA@XZ 000000018003bfd0 f i libvcruntimed:risctrnsctrl.obj
 0001:0003aff0       ??0iterator@TryBlockMap4@FH4@@QEAA@AEAV12@I@Z 000000018003bff0 f i libvcruntimed:risctrnsctrl.obj
 0001:0003b020       ??0iterator@TryBlockMap@__FrameHandler3@@QEAA@AEAV12@I@Z 000000018003c020 f i libvcruntimed:risctrnsctrl.obj
 0001:0003b050       ??4iterator@TryBlockMap4@FH4@@QEAAAEAV012@AEBV012@@Z 000000018003c050 f i libvcruntimed:risctrnsctrl.obj
 0001:0003b070       ??9iterator@TryBlockMap4@FH4@@QEBA_NAEBV012@@Z 000000018003c070 f i libvcruntimed:risctrnsctrl.obj
 0001:0003b0b0       ??Diterator@TryBlockMap4@FH4@@QEAA?AUTryBlockMapEntry4@2@XZ 000000018003c0b0 f i libvcruntimed:risctrnsctrl.obj
 0001:0003b0e0       ??Eiterator@TryBlockMap4@FH4@@QEAAAEAV012@XZ 000000018003c0e0 f i libvcruntimed:risctrnsctrl.obj
 0001:0003b120       ?CatchTryBlock@__FrameHandler3@@SAPEBU_s_TryBlockMapEntry@@PEBU_s_FuncInfo@@H@Z 000000018003c120 f   libvcruntimed:risctrnsctrl.obj
 0001:0003b1b0       ?DecompFuncInfo@FH4@@YA_JPEAEAEAUFuncInfo4@1@_KH@Z 000000018003c1b0 f i libvcruntimed:risctrnsctrl.obj
 0001:0003b1f0       ?DecompFuncInfo@FH4@@YA_JPEAEAEAUFuncInfo4@1@_KH_N@Z 000000018003c1f0 f i libvcruntimed:risctrnsctrl.obj
 0001:0003b3c0       ?DecompTryBlock@TryBlockMap4@FH4@@AEAAXXZ 000000018003c3c0 f i libvcruntimed:risctrnsctrl.obj
 0001:0003b440       ?ExecutionInCatch@__FrameHandler3@@SA_NPEAU_xDISPATCHER_CONTEXT@@PEBU_s_FuncInfo@@@Z 000000018003c440 f   libvcruntimed:risctrnsctrl.obj
 0001:0003b490       ?ExecutionInCatch@__FrameHandler4@@SA_NPEAU_xDISPATCHER_CONTEXT@@PEAUFuncInfo4@FH4@@@Z 000000018003c490 f   libvcruntimed:risctrnsctrl.obj
 0001:0003b4b0       ?FrameUnwindToEmptyState@__FrameHandler3@@SAXPEA_KPEAU_xDISPATCHER_CONTEXT@@PEBU_s_FuncInfo@@@Z 000000018003c4b0 f   libvcruntimed:risctrnsctrl.obj
 0001:0003b550       ?FrameUnwindToEmptyState@__FrameHandler4@@SAXPEA_KPEAU_xDISPATCHER_CONTEXT@@PEAUFuncInfo4@FH4@@@Z 000000018003c550 f   libvcruntimed:risctrnsctrl.obj
 0001:0003b5a0       ?GetEstablisherFrame@__FrameHandler3@@SAPEA_KPEA_KPEAU_xDISPATCHER_CONTEXT@@PEBU_s_FuncInfo@@0@Z 000000018003c5a0 f   libvcruntimed:risctrnsctrl.obj
 0001:0003b710       ?GetEstablisherFrame@__FrameHandler4@@SAPEA_KPEA_KPEAU_xDISPATCHER_CONTEXT@@PEAUFuncInfo4@FH4@@0@Z 000000018003c710 f   libvcruntimed:risctrnsctrl.obj
 0001:0003b780       ?GetRangeOfTrysToCheck@__FrameHandler3@@SA?AU?$pair@Viterator@TryBlockMap@__FrameHandler3@@V123@@std@@AEAVTryBlockMap@1@HPEAU_xDISPATCHER_CONTEXT@@PEBU_s_FuncInfo@@H@Z 000000018003c780 f   libvcruntimed:risctrnsctrl.obj
 0001:0003b9c0       ?GetRangeOfTrysToCheck@__FrameHandler4@@SA?AU?$pair@Viterator@TryBlockMap4@FH4@@V123@@std@@AEAVTryBlockMap4@FH4@@HPEAU_xDISPATCHER_CONTEXT@@PEAUFuncInfo4@5@H@Z 000000018003c9c0 f   libvcruntimed:risctrnsctrl.obj
 0001:0003bb70       ?ReadInt@FH4@@YAHPEAPEAE@Z 000000018003cb70 f i libvcruntimed:risctrnsctrl.obj
 0001:0003bbb0       ?ReadUnsigned@FH4@@YAIPEAPEAE@Z 000000018003cbb0 f i libvcruntimed:risctrnsctrl.obj
 0001:0003bc40       ?UnwindNestedFrames@__FrameHandler3@@SAXPEA_KPEAUEHExceptionRecord@@PEAU_CONTEXT@@0PEAXPEBU_s_FuncInfo@@HHPEBU_s_HandlerType@@PEAU_xDISPATCHER_CONTEXT@@E@Z 000000018003cc40 f   libvcruntimed:risctrnsctrl.obj
 0001:0003bdb0       ?UnwindNestedFrames@__FrameHandler4@@SAXPEA_KPEAUEHExceptionRecord@@PEAU_CONTEXT@@0PEAXPEAUFuncInfo4@FH4@@HHPEAUHandlerType4@5@PEAU_xDISPATCHER_CONTEXT@@E@Z 000000018003cdb0 f   libvcruntimed:risctrnsctrl.obj
 0001:0003bf80       ?begin@TryBlockMap4@FH4@@QEAA?AViterator@12@XZ 000000018003cf80 f i libvcruntimed:risctrnsctrl.obj
 0001:0003bfb0       ?end@TryBlockMap4@FH4@@QEAA?AViterator@12@XZ 000000018003cfb0 f i libvcruntimed:risctrnsctrl.obj
 0001:0003bfe0       ?imageRelToByteBuffer@FH4@@YAPEAE_KH@Z 000000018003cfe0 f i libvcruntimed:risctrnsctrl.obj
 0001:0003c000       ?incrementToSentinel@iterator@TryBlockMap4@FH4@@QEAAXXZ 000000018003d000 f i libvcruntimed:risctrnsctrl.obj
 0001:0003c020       ?setBuffer@TryBlockMap4@FH4@@QEAAXViterator@12@@Z 000000018003d020 f i libvcruntimed:risctrnsctrl.obj
 0001:0003c090       _CreateFrameInfo           000000018003d090 f   libvcruntimed:risctrnsctrl.obj
 0001:0003c100       _FindAndUnlinkFrame        000000018003d100 f   libvcruntimed:risctrnsctrl.obj
 0001:0003c180       _GetImageBase              000000018003d180 f   libvcruntimed:risctrnsctrl.obj
 0001:0003c1a0       _GetThrowImageBase         000000018003d1a0 f   libvcruntimed:risctrnsctrl.obj
 0001:0003c1c0       _SetImageBase              000000018003d1c0 f   libvcruntimed:risctrnsctrl.obj
 0001:0003c1e0       _SetThrowImageBase         000000018003d1e0 f   libvcruntimed:risctrnsctrl.obj
 0001:0003c200       __CxxFrameHandler          000000018003d200 f   libvcruntimed:risctrnsctrl.obj
 0001:0003c240       __CxxFrameHandler2         000000018003d240 f   libvcruntimed:risctrnsctrl.obj
 0001:0003c280       __CxxFrameHandler3         000000018003d280 f   libvcruntimed:risctrnsctrl.obj
 0001:0003c360       __CxxFrameHandler4         000000018003d360 f   libvcruntimed:risctrnsctrl.obj
 0001:0003c470       __C_specific_handler_noexcept 000000018003d470 f   libvcruntimed:chandler_noexcept.obj
 0001:0003c500       __DestructExceptionObject  000000018003d500 f   libvcruntimed:ehhelpers.obj
 0001:0003c600       ?_CallMemberFunction0@@YAXQEAX0@Z 000000018003d600 f i libvcruntimed:ehhelpers.obj
 0001:0003c6d0       ?raw_name@type_info@@QEBAPEBDXZ 000000018003d6d0 f i libvcruntimed:ehhelpers.obj
 0001:0003c6e0       _IsExceptionObjectToBeDestroyed 000000018003d6e0 f   libvcruntimed:ehhelpers.obj
 0001:0003c730       _SetWinRTOutOfMemoryExceptionCallback 000000018003d730 f   libvcruntimed:ehhelpers.obj
 0001:0003c750       __AdjustPointer            000000018003d750 f   libvcruntimed:ehhelpers.obj
 0001:0003c7d0       __FrameUnwindFilter        000000018003d7d0 f   libvcruntimed:ehhelpers.obj
 0001:0003c880       __GetPlatformExceptionInfo 000000018003d880 f   libvcruntimed:ehhelpers.obj
 0001:0003c930       __current_exception        000000018003d930 f   libvcruntimed:ehhelpers.obj
 0001:0003c950       __current_exception_context 000000018003d950 f   libvcruntimed:ehhelpers.obj
 0001:0003c970       __processing_throw         000000018003d970 f   libvcruntimed:ehhelpers.obj
 0001:0003c990       __std_terminate            000000018003d990 f   libvcruntimed:ehhelpers.obj
 0001:0003c9a0       _is_exception_typeof       000000018003d9a0 f   libvcruntimed:ehhelpers.obj
 0001:0003cb30       ??$?RD@__crt_internal_free_policy@@QEBAXQEBD@Z 000000018003db30 f i libvcruntimed:std_type_info.obj
 0001:0003cb60       ??$?RX@__crt_internal_free_policy@@QEBAXQEBX@Z 000000018003db60 f i libvcruntimed:std_type_info.obj
 0001:0003cb90       ??$__crt_interlocked_compare_exchange_pointer@$$CBDPEAD$$T@@YAPEBDPEDSEBDQEAD$$T@Z 000000018003db90 f i libvcruntimed:std_type_info.obj
 0001:0003cbd0       ??$__crt_interlocked_read_pointer@$$CBD@@YAPEBDPEDSEBD@Z 000000018003dbd0 f i libvcruntimed:std_type_info.obj
 0001:0003cbf0       ??0?$__crt_unique_heap_ptr@DU__crt_internal_free_policy@@@@QEAA@QEAD@Z 000000018003dbf0 f i libvcruntimed:std_type_info.obj
 0001:0003cc10       ??0?$__crt_unique_heap_ptr@XU__crt_internal_free_policy@@@@QEAA@QEAX@Z 000000018003dc10 f i libvcruntimed:std_type_info.obj
 0001:0003cc30       ??1?$__crt_unique_heap_ptr@DU__crt_internal_free_policy@@@@QEAA@XZ 000000018003dc30 f i libvcruntimed:std_type_info.obj
 0001:0003cc50       ??1?$__crt_unique_heap_ptr@XU__crt_internal_free_policy@@@@QEAA@XZ 000000018003dc50 f i libvcruntimed:std_type_info.obj
 0001:0003cc70       ??B?$__crt_unique_heap_ptr@DU__crt_internal_free_policy@@@@QEBA_NXZ 000000018003dc70 f i libvcruntimed:std_type_info.obj
 0001:0003cc90       ??B?$__crt_unique_heap_ptr@XU__crt_internal_free_policy@@@@QEBA_NXZ 000000018003dc90 f i libvcruntimed:std_type_info.obj
 0001:0003cd30       ?detach@?$__crt_unique_heap_ptr@XU__crt_internal_free_policy@@@@QEAAPEAXXZ 000000018003dd30 f i libvcruntimed:std_type_info.obj
 0001:0003cd60       ?get@?$__crt_unique_heap_ptr@DU__crt_internal_free_policy@@@@QEBAPEADXZ 000000018003dd60 f i libvcruntimed:std_type_info.obj
 0001:0003cd70       ?get@?$__crt_unique_heap_ptr@XU__crt_internal_free_policy@@@@QEBAPEAXXZ 000000018003dd70 f i libvcruntimed:std_type_info.obj
 0001:0003cd80       ?is_valid@?$__crt_unique_heap_ptr@DU__crt_internal_free_policy@@@@QEBA_NXZ 000000018003dd80 f i libvcruntimed:std_type_info.obj
 0001:0003cdb0       ?is_valid@?$__crt_unique_heap_ptr@XU__crt_internal_free_policy@@@@QEBA_NXZ 000000018003ddb0 f i libvcruntimed:std_type_info.obj
 0001:0003cde0       ?release@?$__crt_unique_heap_ptr@DU__crt_internal_free_policy@@@@QEAAXXZ 000000018003dde0 f i libvcruntimed:std_type_info.obj
 0001:0003ce10       ?release@?$__crt_unique_heap_ptr@XU__crt_internal_free_policy@@@@QEAAXXZ 000000018003de10 f i libvcruntimed:std_type_info.obj
 0001:0003ce40       __std_type_info_compare    000000018003de40 f   libvcruntimed:std_type_info.obj
 0001:0003ce80       __std_type_info_destroy_list 000000018003de80 f   libvcruntimed:std_type_info.obj
 0001:0003cee0       __std_type_info_hash       000000018003dee0 f   libvcruntimed:std_type_info.obj
 0001:0003cf90       __std_type_info_name       000000018003df90 f   libvcruntimed:std_type_info.obj
 0001:0003d240       __vcrt_GetModuleFileNameW  000000018003e240 f   libvcruntimed:winapi_thunks.obj
 0001:0003d270       __vcrt_GetModuleHandleW    000000018003e270 f   libvcruntimed:winapi_thunks.obj
 0001:0003d290       __vcrt_LoadLibraryExW      000000018003e290 f   libvcruntimed:winapi_thunks.obj
 0001:0003d2c0       ??$?RD@__crt_public_free_policy@@QEBAXQEBD@Z 000000018003e2c0 f i libvcruntimed:std_exception.obj
 0001:0003d2e0       ??0?$__crt_unique_heap_ptr@DU__crt_public_free_policy@@@@QEAA@QEAD@Z 000000018003e2e0 f i libvcruntimed:std_exception.obj
 0001:0003d300       ??1?$__crt_unique_heap_ptr@DU__crt_public_free_policy@@@@QEAA@XZ 000000018003e300 f i libvcruntimed:std_exception.obj
 0001:0003d320       ??B?$__crt_unique_heap_ptr@DU__crt_public_free_policy@@@@QEBA_NXZ 000000018003e320 f i libvcruntimed:std_exception.obj
 0001:0003d340       ?detach@?$__crt_unique_heap_ptr@DU__crt_public_free_policy@@@@QEAAPEADXZ 000000018003e340 f i libvcruntimed:std_exception.obj
 0001:0003d370       ?get@?$__crt_unique_heap_ptr@DU__crt_public_free_policy@@@@QEBAPEADXZ 000000018003e370 f i libvcruntimed:std_exception.obj
 0001:0003d380       ?is_valid@?$__crt_unique_heap_ptr@DU__crt_public_free_policy@@@@QEBA_NXZ 000000018003e380 f i libvcruntimed:std_exception.obj
 0001:0003d3b0       ?release@?$__crt_unique_heap_ptr@DU__crt_public_free_policy@@@@QEAAXXZ 000000018003e3b0 f i libvcruntimed:std_exception.obj
 0001:0003d3e0       __std_exception_copy       000000018003e3e0 f   libvcruntimed:std_exception.obj
 0001:0003d520       __std_exception_destroy    000000018003e520 f   libvcruntimed:std_exception.obj
 0001:0003d560       _CxxThrowException         000000018003e560 f   libvcruntimed:throw.obj
 0001:0003d690       ??$?RU__vcrt_ptd@@@__crt_internal_free_policy@@QEBAXQEBU__vcrt_ptd@@@Z 000000018003e690 f i libvcruntimed:per_thread_data.obj
 0001:0003d6c0       ??0?$__crt_unique_heap_ptr@U__vcrt_ptd@@U__crt_internal_free_policy@@@@QEAA@QEAU__vcrt_ptd@@@Z 000000018003e6c0 f i libvcruntimed:per_thread_data.obj
 0001:0003d700       ??1?$__crt_unique_heap_ptr@U__vcrt_ptd@@U__crt_internal_free_policy@@@@QEAA@XZ 000000018003e700 f i libvcruntimed:per_thread_data.obj
 0001:0003d740       ??B?$__crt_unique_heap_ptr@U__vcrt_ptd@@U__crt_internal_free_policy@@@@QEBA_NXZ 000000018003e740 f i libvcruntimed:per_thread_data.obj
 0001:0003d760       ?detach@?$__crt_unique_heap_ptr@U__vcrt_ptd@@U__crt_internal_free_policy@@@@QEAAPEAU__vcrt_ptd@@XZ 000000018003e760 f i libvcruntimed:per_thread_data.obj
 0001:0003d790       ?get@?$__crt_unique_heap_ptr@U__vcrt_ptd@@U__crt_internal_free_policy@@@@QEBAPEAU__vcrt_ptd@@XZ 000000018003e790 f i libvcruntimed:per_thread_data.obj
 0001:0003d7a0       ?is_valid@?$__crt_unique_heap_ptr@U__vcrt_ptd@@U__crt_internal_free_policy@@@@QEBA_NXZ 000000018003e7a0 f i libvcruntimed:per_thread_data.obj
 0001:0003d7d0       ?release@?$__crt_unique_heap_ptr@U__vcrt_ptd@@U__crt_internal_free_policy@@@@QEAAXXZ 000000018003e7d0 f i libvcruntimed:per_thread_data.obj
 0001:0003d840       __vcrt_freefls             000000018003e840 f   libvcruntimed:per_thread_data.obj
 0001:0003d880       __vcrt_freeptd             000000018003e880 f   libvcruntimed:per_thread_data.obj
 0001:0003d8e0       __vcrt_getptd              000000018003e8e0 f   libvcruntimed:per_thread_data.obj
 0001:0003d910       __vcrt_getptd_noexit       000000018003e910 f   libvcruntimed:per_thread_data.obj
 0001:0003dab0       __vcrt_getptd_noinit       000000018003eab0 f   libvcruntimed:per_thread_data.obj
 0001:0003db10       __vcrt_initialize_ptd      000000018003eb10 f   libvcruntimed:per_thread_data.obj
 0001:0003db60       __vcrt_uninitialize_ptd    000000018003eb60 f   libvcruntimed:per_thread_data.obj
 0001:0003db90       __vcrt_initialize_locks    000000018003eb90 f   libvcruntimed:locks.obj
 0001:0003dc00       __vcrt_lock                000000018003ec00 f   libvcruntimed:locks.obj
 0001:0003dc30       __vcrt_uninitialize_locks  000000018003ec30 f   libvcruntimed:locks.obj
 0001:0003dc90       __vcrt_unlock              000000018003ec90 f   libvcruntimed:locks.obj
 0001:0003dcd0       _NLG_Notify                000000018003ecd0 f   libvcruntimed:notify.obj
 0001:0003dcf0       __NLG_Dispatch2            000000018003ecf0 f   libvcruntimed:notify.obj
 0001:0003dd00       __NLG_Return2              000000018003ed00 f   libvcruntimed:notify.obj
 0001:0003dd20       __except_validate_context_record 000000018003ed20 f   libvcruntimed:jbcxrval.obj
 0001:0003dd80       __except_validate_jump_buffer 000000018003ed80 f   libvcruntimed:jbcxrval.obj
 0001:0003dda0       __except_validate_jump_buffer_common 000000018003eda0 f i libvcruntimed:jbcxrval.obj
 0001:0003de20       ?GetCurrentState@__FrameHandler3@@SAHPEA_KPEAU_xDISPATCHER_CONTEXT@@PEBU_s_FuncInfo@@@Z 000000018003ee20 f   libvcruntimed:ehstate.obj
 0001:0003de80       ?GetUnwindTryBlock@__FrameHandler3@@SAHPEA_KPEAU_xDISPATCHER_CONTEXT@@PEBU_s_FuncInfo@@@Z 000000018003ee80 f   libvcruntimed:ehstate.obj
 0001:0003ded0       ?SetState@__FrameHandler3@@SAXPEA_KPEBU_s_FuncInfo@@H@Z 000000018003eed0 f   libvcruntimed:ehstate.obj
 0001:0003df00       ?SetUnwindTryBlock@__FrameHandler3@@SAXPEA_KPEAU_xDISPATCHER_CONTEXT@@PEBU_s_FuncInfo@@H@Z 000000018003ef00 f   libvcruntimed:ehstate.obj
 0001:0003df70       ?StateFromControlPc@__FrameHandler3@@SAHPEBU_s_FuncInfo@@PEAU_xDISPATCHER_CONTEXT@@@Z 000000018003ef70 f   libvcruntimed:ehstate.obj
 0001:0003dfb0       ?StateFromControlPc@__FrameHandler4@@SAHPEAUFuncInfo4@FH4@@PEAU_xDISPATCHER_CONTEXT@@@Z 000000018003efb0 f   libvcruntimed:ehstate.obj
 0001:0003dff0       ?StateFromIp@__FrameHandler3@@SAHPEBU_s_FuncInfo@@PEAU_xDISPATCHER_CONTEXT@@_K@Z 000000018003eff0 f   libvcruntimed:ehstate.obj
 0001:0003e0e0       ?StateFromIp@__FrameHandler4@@SAHPEAUFuncInfo4@FH4@@PEAU_xDISPATCHER_CONTEXT@@_K@Z 000000018003f0e0 f   libvcruntimed:ehstate.obj
 0001:0003e1d0       ?__FuncRelToRealOffset@@YA_KPEAU_xDISPATCHER_CONTEXT@@I@Z 000000018003f1d0 f i libvcruntimed:ehstate.obj
 0001:0003e200       ?__RVAtoRealOffset@@YA_KPEAU_xDISPATCHER_CONTEXT@@H@Z 000000018003f200 f i libvcruntimed:ehstate.obj
 0001:00040470       ??$TypeMatchHelper@V__FrameHandler3@@@@YAHPEBU_s_HandlerType@@PEBU_s_CatchableType@@PEBU_s_ThrowInfo@@@Z 0000000180041470 f i libvcruntimed:frame.obj
 0001:00040670       ??$TypeMatchHelper@V__FrameHandler4@@@@YAHPEAUHandlerType4@FH4@@PEBU_s_CatchableType@@PEBU_s_ThrowInfo@@@Z 0000000180041670 f i libvcruntimed:frame.obj
 0001:00040880       ??$__InternalCxxFrameHandler@V__FrameHandler3@@@@YA?AW4_EXCEPTION_DISPOSITION@@PEAUEHExceptionRecord@@PEA_KPEAU_CONTEXT@@PEAU_xDISPATCHER_CONTEXT@@PEBU_s_FuncInfo@@H1E@Z 0000000180041880 f i libvcruntimed:frame.obj
 0001:00040cf0       ??$__InternalCxxFrameHandler@V__FrameHandler4@@@@YA?AW4_EXCEPTION_DISPOSITION@@PEAUEHExceptionRecord@@PEA_KPEAU_CONTEXT@@PEAU_xDISPATCHER_CONTEXT@@PEAUFuncInfo4@FH4@@H1E@Z 0000000180041cf0 f i libvcruntimed:frame.obj
 0001:00041180       ??0HandlerMap4@FH4@@QEAA@PEBUTryBlockMapEntry4@1@_KH@Z 0000000180042180 f i libvcruntimed:frame.obj
 0001:00041240       ??0HandlerMap@__FrameHandler3@@QEAA@PEBU_s_TryBlockMapEntry@@_KI@Z 0000000180042240 f i libvcruntimed:frame.obj
 0001:00041290       ??0HandlerType4@FH4@@QEAA@XZ 0000000180042290 f i libvcruntimed:frame.obj
 0001:000412b0       ??0TryBlockMap4@FH4@@QEAA@PEBUFuncInfo4@1@_K@Z 00000001800422b0 f i libvcruntimed:frame.obj
 0001:00041340       ??0TryBlockMap@__FrameHandler3@@QEAA@PEBU_s_FuncInfo@@_K@Z 0000000180042340 f i libvcruntimed:frame.obj
 0001:00041370       ??0UWMap4@FH4@@QEAA@PEBUFuncInfo4@1@_K@Z 0000000180042370 f i libvcruntimed:frame.obj
 0001:000413e0       ??0bad_exception@std@@QEAA@AEBV01@@Z 00000001800423e0 f i libvcruntimed:frame.obj
 0001:00041420       ??0bad_exception@std@@QEAA@XZ 0000000180042420 f i libvcruntimed:frame.obj
 0001:00041460       ??0iterator@HandlerMap4@FH4@@QEAA@AEAV12@I@Z 0000000180042460 f i libvcruntimed:frame.obj
 0001:00041490       ??0iterator@HandlerMap@__FrameHandler3@@QEAA@AEAV12@I@Z 0000000180042490 f i libvcruntimed:frame.obj
 0001:000414c0       ??0iterator@UWMap4@FH4@@QEAA@AEAV12@PEAE@Z 00000001800424c0 f i libvcruntimed:frame.obj
 0001:000414f0       ??1bad_exception@std@@UEAA@XZ 00000001800424f0 f i libvcruntimed:frame.obj
 0001:00041510       ??4iterator@UWMap4@FH4@@QEAAAEAV012@AEBV012@@Z 0000000180042510 f i libvcruntimed:frame.obj
 0001:00041560       ??8iterator@HandlerMap4@FH4@@QEBA_NAEBV012@@Z 0000000180042560 f i libvcruntimed:frame.obj
 0001:000415a0       ??8iterator@HandlerMap@__FrameHandler3@@QEBA_NAEBV012@@Z 00000001800425a0 f i libvcruntimed:frame.obj
 0001:000415e0       ??8type_info@@QEBA_NAEBV0@@Z 00000001800425e0 f i libvcruntimed:frame.obj
 0001:00041630       ??9iterator@HandlerMap4@FH4@@QEBA_NAEBV012@@Z 0000000180042630 f i libvcruntimed:frame.obj
 0001:00041670       ??9iterator@HandlerMap@__FrameHandler3@@QEBA_NAEBV012@@Z 0000000180042670 f i libvcruntimed:frame.obj
 0001:000416b0       ??Diterator@HandlerMap4@FH4@@QEAA?AUHandlerType4@2@XZ 00000001800426b0 f i libvcruntimed:frame.obj
 0001:000416e0       ??Diterator@HandlerMap@__FrameHandler3@@QEAA?BU_s_HandlerType@@XZ 00000001800426e0 f i libvcruntimed:frame.obj
 0001:00041720       ??Diterator@TryBlockMap@__FrameHandler3@@QEAA?BU_s_TryBlockMapEntry@@XZ 0000000180042720 f i libvcruntimed:frame.obj
 0001:00041770       ??Diterator@UWMap4@FH4@@QEAA?AUUnwindMapEntry4@2@XZ 0000000180042770 f i libvcruntimed:frame.obj
 0001:000417f0       ??Eiterator@HandlerMap4@FH4@@QEAAAEAV012@XZ 00000001800427f0 f i libvcruntimed:frame.obj
 0001:00041830       ??Eiterator@HandlerMap@__FrameHandler3@@QEAAAEAV012@XZ 0000000180042830 f i libvcruntimed:frame.obj
 0001:00041850       ??Eiterator@TryBlockMap@__FrameHandler3@@QEAAAEAV012@XZ 0000000180042850 f i libvcruntimed:frame.obj
 0001:00041870       ??Eiterator@UWMap4@FH4@@QEAAAEAV012@XZ 0000000180042870 f i libvcruntimed:frame.obj
 0001:000418b0       ??Giterator@UWMap4@FH4@@QEBA_JAEBV012@@Z 00000001800428b0 f i libvcruntimed:frame.obj
 0001:000418d0       ??Miterator@TryBlockMap4@FH4@@QEBA_NAEBV012@@Z 00000001800428d0 f i libvcruntimed:frame.obj
 0001:00041910       ??Miterator@TryBlockMap@__FrameHandler3@@QEBA_NAEBV012@@Z 0000000180042910 f i libvcruntimed:frame.obj
 0001:00041950       ??Oiterator@UWMap4@FH4@@QEBA_NAEBV012@@Z 0000000180042950 f i libvcruntimed:frame.obj
 0001:00041990       ??Piterator@UWMap4@FH4@@QEBA_NAEBV012@@Z 0000000180042990 f i libvcruntimed:frame.obj
 0001:000419d0       ??_Gbad_exception@std@@UEAAPEAXI@Z 00000001800429d0 f i libvcruntimed:frame.obj
 0001:000419d0       ??_Ebad_exception@std@@UEAAPEAXI@Z 00000001800429d0 f i libvcruntimed:frame.obj
 0001:00041a10       ?BuildCatchObject@__FrameHandler3@@SAXPEAUEHExceptionRecord@@PEAXPEBU_s_HandlerType@@PEBU_s_CatchableType@@@Z 0000000180042a10 f   libvcruntimed:frame.obj
 0001:00041a50       ?BuildCatchObject@__FrameHandler4@@SAXPEAUEHExceptionRecord@@PEAXPEAUHandlerType4@FH4@@PEBU_s_CatchableType@@@Z 0000000180042a50 f   libvcruntimed:frame.obj
 0001:00041a90       ?BuildCatchObjectHelper@__FrameHandler3@@SAHPEAUEHExceptionRecord@@PEAXPEBU_s_HandlerType@@PEBU_s_CatchableType@@@Z 0000000180042a90 f   libvcruntimed:frame.obj
 0001:00041ad0       ?BuildCatchObjectHelper@__FrameHandler4@@SAHPEAUEHExceptionRecord@@PEAXPEAUHandlerType4@FH4@@PEBU_s_CatchableType@@@Z 0000000180042ad0 f   libvcruntimed:frame.obj
 0001:00041b10       ?CxxCallCatchBlock@__FrameHandler3@@SAPEAXPEAU_EXCEPTION_RECORD@@@Z 0000000180042b10 f   libvcruntimed:frame.obj
 0001:00041d70       ?CxxCallCatchBlock@__FrameHandler4@@SAPEAXPEAU_EXCEPTION_RECORD@@@Z 0000000180042d70 f   libvcruntimed:frame.obj
 0001:000420a0       ?DecompHandler@HandlerMap4@FH4@@AEAAXXZ 00000001800430a0 f i libvcruntimed:frame.obj
 0001:00042470       ?FrameUnwindToState@__FrameHandler3@@SAXPEA_KPEAU_xDISPATCHER_CONTEXT@@PEBU_s_FuncInfo@@H@Z 0000000180043470 f   libvcruntimed:frame.obj
 0001:000426c0       ?FrameUnwindToState@__FrameHandler4@@SAXPEA_KPEAU_xDISPATCHER_CONTEXT@@PEAUFuncInfo4@FH4@@H@Z 00000001800436c0 f   libvcruntimed:frame.obj
 0001:00042a10       ?GetHandlerSearchState@__FrameHandler3@@SAHPEA_KPEAU_xDISPATCHER_CONTEXT@@PEBU_s_FuncInfo@@@Z 0000000180043a10 f i libvcruntimed:frame.obj
 0001:00042ac0       ?GetHandlerSearchState@__FrameHandler4@@SAHPEA_KPEAU_xDISPATCHER_CONTEXT@@PEAUFuncInfo4@FH4@@@Z 0000000180043ac0 f i libvcruntimed:frame.obj
 0001:00042b40       ?GetMaxState@__FrameHandler3@@SAHPEAU_xDISPATCHER_CONTEXT@@PEBU_s_FuncInfo@@@Z 0000000180043b40 f i libvcruntimed:frame.obj
 0001:00042b60       ?GetMaxState@__FrameHandler4@@SAHPEAU_xDISPATCHER_CONTEXT@@PEAUFuncInfo4@FH4@@@Z 0000000180043b60 f i libvcruntimed:frame.obj
 0001:00042d90       ?ReadEntry@UWMap4@FH4@@AEAAXPEAPEAE@Z 0000000180043d90 f i libvcruntimed:frame.obj
 0001:00042e40       ?TypeMatch@__FrameHandler3@@SAHPEBU_s_HandlerType@@PEBU_s_CatchableType@@PEBU_s_ThrowInfo@@@Z 0000000180043e40 f   libvcruntimed:frame.obj
 0001:00042e70       ?TypeMatch@__FrameHandler4@@SAHPEAUHandlerType4@FH4@@PEBU_s_CatchableType@@PEBU_s_ThrowInfo@@@Z 0000000180043e70 f   libvcruntimed:frame.obj
 0001:00042ea0       ?WalkBack@UWMap4@FH4@@AEAAXPEAPEAE@Z 0000000180043ea0 f i libvcruntimed:frame.obj
 0001:00042ef0       ?WalkBack@iterator@UWMap4@FH4@@QEAAXXZ 0000000180043ef0 f i libvcruntimed:frame.obj
 0001:00042f30       ?WalkForward@UWMap4@FH4@@AEAAXPEAPEAE@Z 0000000180043f30 f i libvcruntimed:frame.obj
 0001:00042f60       ?_CallMemberFunction1@@YAXQEAX00@Z 0000000180043f60 f i libvcruntimed:frame.obj
 0001:00042fa0       ?_CallMemberFunction2@@YAXQEAX00H@Z 0000000180043fa0 f i libvcruntimed:frame.obj
 0001:00043030       ?begin@HandlerMap4@FH4@@QEAA?AViterator@12@XZ 0000000180044030 f i libvcruntimed:frame.obj
 0001:00043060       ?begin@HandlerMap@__FrameHandler3@@QEAA?AViterator@12@XZ 0000000180044060 f i libvcruntimed:frame.obj
 0001:00043090       ?begin@UWMap4@FH4@@QEAA?AViterator@12@XZ 0000000180044090 f i libvcruntimed:frame.obj
 0001:000430c0       ?end@HandlerMap4@FH4@@QEAA?AViterator@12@XZ 00000001800440c0 f i libvcruntimed:frame.obj
 0001:000430f0       ?end@HandlerMap@__FrameHandler3@@QEAA?AViterator@12@XZ 00000001800440f0 f i libvcruntimed:frame.obj
 0001:00043120       ?getESTypes@__FrameHandler3@@SAPEBU_s_ESTypeList@@PEBU_s_FuncInfo@@@Z 0000000180044120 f i libvcruntimed:frame.obj
 0001:00043160       ?getESTypes@__FrameHandler4@@SAPEBU_s_ESTypeList@@PEAUFuncInfo4@FH4@@@Z 0000000180044160 f i libvcruntimed:frame.obj
 0001:00043170       ?getLastEntry@HandlerMap4@FH4@@QEAAPEAUHandlerType4@2@XZ 0000000180044170 f i libvcruntimed:frame.obj
 0001:000431b0       ?getLastEntry@HandlerMap@__FrameHandler3@@QEAAPEBU_s_HandlerType@@XZ 00000001800441b0 f i libvcruntimed:frame.obj
 0001:000431d0       ?getMagicNum@__FrameHandler3@@SAIPEBU_s_FuncInfo@@@Z 00000001800441d0 f i libvcruntimed:frame.obj
 0001:000431f0       ?getMagicNum@__FrameHandler4@@SAIPEAUFuncInfo4@FH4@@@Z 00000001800441f0 f i libvcruntimed:frame.obj
 0001:00043200       ?getNumTryBlocks@TryBlockMap4@FH4@@QEAAIXZ 0000000180044200 f i libvcruntimed:frame.obj
 0001:00043210       ?getNumTryBlocks@TryBlockMap@__FrameHandler3@@QEAAIXZ 0000000180044210 f i libvcruntimed:frame.obj
 0001:00043230       ?getStartStop@UWMap4@FH4@@QEAAXHHAEAViterator@12@0@Z 0000000180044230 f i libvcruntimed:frame.obj
 0001:00043350       ?getStateFromIterators@UWMap4@FH4@@SAHAEBViterator@12@H0H0@Z 0000000180044350 f i libvcruntimed:frame.obj
 0001:00043490       ?isEHs@__FrameHandler3@@SA_NPEBU_s_FuncInfo@@@Z 0000000180044490 f i libvcruntimed:frame.obj
 0001:000434d0       ?isEHs@__FrameHandler4@@SA_NPEAUFuncInfo4@FH4@@@Z 00000001800444d0 f i libvcruntimed:frame.obj
 0001:000434f0       ?isNoExcept@__FrameHandler3@@SA_NPEBU_s_FuncInfo@@@Z 00000001800444f0 f i libvcruntimed:frame.obj
 0001:00043530       ?isNoExcept@__FrameHandler4@@SA_NPEAUFuncInfo4@FH4@@@Z 0000000180044530 f i libvcruntimed:frame.obj
 0001:00043550       ?reset@HandlerType4@FH4@@QEAAXXZ 0000000180044550 f i libvcruntimed:frame.obj
 0001:000435b0       ?resetBuffer@HandlerMap4@FH4@@QEAAXXZ 00000001800445b0 f i libvcruntimed:frame.obj
 0001:000435d0       ?setBuffer@HandlerMap4@FH4@@QEAAXI@Z 00000001800445d0 f i libvcruntimed:frame.obj
 0001:00043630       __BuildCatchObject         0000000180044630 f   libvcruntimed:frame.obj
 0001:00043670       __BuildCatchObjectHelper   0000000180044670 f   libvcruntimed:frame.obj
 0001:000436b0       __TypeMatch                00000001800446b0 f   libvcruntimed:frame.obj
 0001:000436e0       __vcrt_EncodePointer       00000001800446e0 f i libvcruntimed:frame.obj
 0001:00043700       ??$?0$00@DName@@QEAA@PEBDU?$StringLifeSelector@$00@@@Z 0000000180044700 f i libvcruntimed:undname.obj
 0001:00043770       ??$?0$00@pcharNode@@QEAA@PEBDHU?$StringLifeSelector@$00@@@Z 0000000180044770 f i libvcruntimed:undname.obj
 0001:000437d0       ??$?0$01@DName@@QEAA@PEBDU?$StringLifeSelector@$01@@@Z 00000001800447d0 f i libvcruntimed:undname.obj
 0001:00043840       ??$?0$01@pcharNode@@QEAA@PEBDHU?$StringLifeSelector@$01@@@Z 0000000180044840 f i libvcruntimed:undname.obj
 0001:000438f0       ??$?0$0A@@DName@@QEAA@PEBDU?$StringLifeSelector@$0A@@@@Z 00000001800448f0 f i libvcruntimed:undname.obj
 0001:00043960       ??$?0$0A@@pcharNode@@QEAA@PEBDHU?$StringLifeSelector@$0A@@@@Z 0000000180044960 f i libvcruntimed:undname.obj
 0001:00043a10       ??$append@VDNameNode@@@DName@@AEAAXPEBVDNameNode@@@Z 0000000180044a10 f i libvcruntimed:undname.obj
 0001:00043ac0       ??$append@VDNameStatusNode@@@DName@@AEAAXPEBVDNameStatusNode@@@Z 0000000180044ac0 f i libvcruntimed:undname.obj
 0001:00043b70       ??$append@VcharNode@@@DName@@AEAAXPEBVcharNode@@@Z 0000000180044b70 f i libvcruntimed:undname.obj
 0001:00043c20       ??$append@VpDNameNode@@@DName@@AEAAXPEBVpDNameNode@@@Z 0000000180044c20 f i libvcruntimed:undname.obj
 0001:00043cd0       ??$append@VpcharNode@@@DName@@AEAAXPEBVpcharNode@@@Z 0000000180044cd0 f i libvcruntimed:undname.obj
 0001:00043d80       ??$doPchar@$00@DName@@AEAAXPEBDH@Z 0000000180044d80 f i libvcruntimed:undname.obj
 0001:00043ee0       ??$doPchar@$01@DName@@AEAAXPEBDH@Z 0000000180044ee0 f i libvcruntimed:undname.obj
 0001:00044040       ??$doPchar@$0A@@DName@@AEAAXPEBDH@Z 0000000180045040 f i libvcruntimed:undname.obj
 0001:000441a0       ??0Block@_HeapManager@@QEAA@XZ 00000001800451a0 f i libvcruntimed:undname.obj
 0001:000441c0       ??0DName@@QEAA@AEAPEBDD@Z  00000001800451c0 f   libvcruntimed:undname.obj
 0001:00044390       ??0DName@@QEAA@AEBUStringLiteral@@@Z 0000000180045390 f   libvcruntimed:undname.obj
 0001:000443f0       ??0DName@@QEAA@AEBV0@@Z    00000001800453f0 f i libvcruntimed:undname.obj
 0001:00044420       ??0DName@@QEAA@D@Z         0000000180045420 f   libvcruntimed:undname.obj
 0001:00044460       ??0DName@@QEAA@PEAV0@@Z    0000000180045460 f   libvcruntimed:undname.obj
 0001:00044540       ??0DName@@QEAA@W4DNameStatus@@@Z 0000000180045540 f   libvcruntimed:undname.obj
 0001:000445f0       ??0DName@@QEAA@XZ          00000001800455f0 f i libvcruntimed:undname.obj
 0001:00044620       ??0DName@@QEAA@_J@Z        0000000180045620 f   libvcruntimed:undname.obj
 0001:00044730       ??0DName@@QEAA@_K@Z        0000000180045730 f   libvcruntimed:undname.obj
 0001:00044800       ??0DNameNode@@IEAA@XZ      0000000180045800 f i libvcruntimed:undname.obj
 0001:00044820       ??0Replicator@@QEAA@XZ     0000000180045820 f i libvcruntimed:undname.obj
 0001:00044860       ??0UnDecorator@@QEAA@PEBDP6APEADJ@ZK@Z 0000000180045860 f i libvcruntimed:undname.obj
 0001:00044910       ??0charNode@@QEAA@D@Z      0000000180045910 f i libvcruntimed:undname.obj
 0001:00044950       ??0pDNameNode@@QEAA@PEAVDName@@@Z 0000000180045950 f   libvcruntimed:undname.obj
 0001:000449d0       ??0pairNode@@QEAA@PEBVDNameNode@@0@Z 00000001800459d0 f i libvcruntimed:undname.obj
 0001:00044a50       ??2@YAPEAX_KAEAV_HeapManager@@H@Z 0000000180045a50 f   libvcruntimed:undname.obj
 0001:00044ab0       ??4DName@@QEAAAEAV0@AEBUStringLiteral@@@Z 0000000180045ab0 f   libvcruntimed:undname.obj
 0001:00044b00       ??4DName@@QEAAAEAV0@AEBV0@@Z 0000000180045b00 f   libvcruntimed:undname.obj
 0001:00044b30       ??4DName@@QEAAAEAV0@D@Z    0000000180045b30 f i libvcruntimed:undname.obj
 0001:00044b70       ??4DName@@QEAAAEAV0@PEAV0@@Z 0000000180045b70 f   libvcruntimed:undname.obj
 0001:00044c40       ??4DName@@QEAAAEAV0@W4DNameStatus@@@Z 0000000180045c40 f   libvcruntimed:undname.obj
 0001:00044cd0       ??AReplicator@@QEBA?AVDName@@H@Z 0000000180045cd0 f   libvcruntimed:undname.obj
 0001:00044d60       ??H@YA?AVDName@@AEBUStringLiteral@@AEBV0@@Z 0000000180045d60 f i libvcruntimed:undname.obj
 0001:00044db0       ??H@YA?AVDName@@DAEBV0@@Z  0000000180045db0 f i libvcruntimed:undname.obj
 0001:00044e00       ??H@YA?AVDName@@W4DNameStatus@@AEBV0@@Z 0000000180045e00 f i libvcruntimed:undname.obj
 0001:00044e50       ??HDName@@QEBA?AV0@AEBUStringLiteral@@@Z 0000000180045e50 f   libvcruntimed:undname.obj
 0001:00044ea0       ??HDName@@QEBA?AV0@AEBV0@@Z 0000000180045ea0 f   libvcruntimed:undname.obj
 0001:00044ef0       ??HDName@@QEBA?AV0@D@Z     0000000180045ef0 f   libvcruntimed:undname.obj
 0001:00044f40       ??HDName@@QEBA?AV0@PEAV0@@Z 0000000180045f40 f   libvcruntimed:undname.obj
 0001:00044f90       ??HDName@@QEBA?AV0@W4DNameStatus@@@Z 0000000180045f90 f   libvcruntimed:undname.obj
 0001:00044fe0       ??HStringLiteral@@QEBA?AU0@H@Z 0000000180045fe0 f i libvcruntimed:undname.obj
 0001:00045020       ??YDName@@QEAAAEAV0@AEBUStringLiteral@@@Z 0000000180046020 f   libvcruntimed:undname.obj
 0001:000450f0       ??YDName@@QEAAAEAV0@AEBV0@@Z 00000001800460f0 f   libvcruntimed:undname.obj
 0001:000451b0       ??YDName@@QEAAAEAV0@D@Z    00000001800461b0 f   libvcruntimed:undname.obj
 0001:00045250       ??YDName@@QEAAAEAV0@PEAV0@@Z 0000000180046250 f   libvcruntimed:undname.obj
 0001:00045330       ??YDName@@QEAAAEAV0@W4DNameStatus@@@Z 0000000180046330 f   libvcruntimed:undname.obj
 0001:000453a0       ??YReplicator@@QEAAAEAV0@AEBVDName@@@Z 00000001800463a0 f   libvcruntimed:undname.obj
 0001:00045460       ??_5DName@@QEAAAEAV0@AEBV0@@Z 0000000180046460 f   libvcruntimed:undname.obj
 0001:000454d0       ??__K_l@@YA?AUStringLiteral@@PEBD_K@Z 00000001800464d0 f i libvcruntimed:undname.obj
 0001:00045520       ?Constructor@_HeapManager@@QEAAXP6APEAX_K@ZP6AXPEAX@Z@Z 0000000180046520 f i libvcruntimed:undname.obj
 0001:00045580       ?Destructor@_HeapManager@@QEAAXXZ 0000000180046580 f i libvcruntimed:undname.obj
 0001:00045620       ?UScore@UnDecorator@@SA?AUStringLiteral@@W4Tokens@@@Z 0000000180046620 f   libvcruntimed:undname.obj
 0001:000456b0       ?composeDeclaration@UnDecorator@@CA?AVDName@@AEBV2@@Z 00000001800466b0 f i libvcruntimed:undname.obj
 0001:00047bb0       ?dbGetString@DName@@QEBAPEADXZ 0000000180048bb0 f   libvcruntimed:undname.obj
 0001:00047be0       ?doAccessSpecifiers@UnDecorator@@SAHXZ 0000000180048be0 f i libvcruntimed:undname.obj
 0001:00047c10       ?doAllocationLanguage@UnDecorator@@SAHXZ 0000000180048c10 f i libvcruntimed:undname.obj
 0001:00047c40       ?doAllocationModel@UnDecorator@@SAHXZ 0000000180048c40 f i libvcruntimed:undname.obj
 0001:00047c70       ?doEcsu@UnDecorator@@SAHXZ 0000000180048c70 f i libvcruntimed:undname.obj
 0001:00047ca0       ?doEllipsis@UnDecorator@@SAHXZ 0000000180048ca0 f i libvcruntimed:undname.obj
 0001:00047cd0       ?doFunctionReturns@UnDecorator@@SAHXZ 0000000180048cd0 f i libvcruntimed:undname.obj
 0001:00047d00       ?doMSKeywords@UnDecorator@@SAHXZ 0000000180048d00 f i libvcruntimed:undname.obj
 0001:00047d30       ?doMemberTypes@UnDecorator@@SAHXZ 0000000180048d30 f i libvcruntimed:undname.obj
 0001:00047d60       ?doNameOnly@UnDecorator@@SAHXZ 0000000180048d60 f i libvcruntimed:undname.obj
 0001:00047d70       ?doNoIdentCharCheck@UnDecorator@@SAHXZ 0000000180048d70 f i libvcruntimed:undname.obj
 0001:00047d80       ?doPchar@DName@@AEAAXD@Z   0000000180048d80 f   libvcruntimed:undname.obj
 0001:00047e10       ?doPtr64@UnDecorator@@SAHXZ 0000000180048e10 f i libvcruntimed:undname.obj
 0001:00047e40       ?doRestrictionSpec@UnDecorator@@SAHXZ 0000000180048e40 f i libvcruntimed:undname.obj
 0001:00047e70       ?doThisTypes@UnDecorator@@SAHXZ 0000000180048e70 f i libvcruntimed:undname.obj
 0001:00047ea0       ?doThrowTypes@UnDecorator@@SAHXZ 0000000180048ea0 f i libvcruntimed:undname.obj
 0001:00047ed0       ?doTypeOnly@UnDecorator@@SAHXZ 0000000180048ed0 f i libvcruntimed:undname.obj
 0001:00047ee0       ?doUnderScore@UnDecorator@@SAHXZ 0000000180048ee0 f i libvcruntimed:undname.obj
 0001:00047f10       ?getArgumentList@UnDecorator@@CA?AVDName@@XZ 0000000180048f10 f   libvcruntimed:undname.obj
 0001:000480b0       ?getArgumentTypes@UnDecorator@@CA?AVDName@@XZ 00000001800490b0 f   libvcruntimed:undname.obj
 0001:00048410       ?getArrayType@UnDecorator@@CA?AVDName@@AEBV2@@Z 0000000180049410 f i libvcruntimed:undname.obj
 0001:000487d0       ?getBasedType@UnDecorator@@CA?AVDName@@XZ 00000001800497d0 f   libvcruntimed:undname.obj
 0001:00048940       ?getBasicDataType@UnDecorator@@CA?AVDName@@AEBV2@@Z 0000000180049940 f   libvcruntimed:undname.obj
 0001:00049610       ?getCHPEName@UnDecorator@@QEAAPEADPEADH@Z 000000018004a610 f i libvcruntimed:undname.obj
 0001:000497e0       ?getCallIndex@UnDecorator@@CA?AVDName@@XZ 000000018004a7e0 f i libvcruntimed:undname.obj
 0001:00049800       ?getCallingConvention@UnDecorator@@CA?AVDName@@XZ 000000018004a800 f   libvcruntimed:undname.obj
 0001:00049ba0       ?getDataIndirectType@UnDecorator@@CA?AVDName@@AEBV2@W4IndirectionKind@@0H@Z 000000018004aba0 f   libvcruntimed:undname.obj
 0001:0004a840       ?getDataIndirectType@UnDecorator@@CA?AVDName@@XZ 000000018004b840 f i libvcruntimed:undname.obj
 0001:0004a890       ?getDataType@UnDecorator@@CA?AVDName@@PEAV2@@Z 000000018004b890 f   libvcruntimed:undname.obj
 0001:0004aa70       ?getDecoratedName@UnDecorator@@CA?AVDName@@XZ 000000018004ba70 f   libvcruntimed:undname.obj
 0001:0004af70       ?getDimension@UnDecorator@@CA?AVDName@@_N@Z 000000018004bf70 f   libvcruntimed:undname.obj
 0001:0004b320       ?getDispatchTarget@UnDecorator@@CA?AVDName@@XZ 000000018004c320 f   libvcruntimed:undname.obj
 0001:0004b3f0       ?getDisplacement@UnDecorator@@CA?AVDName@@XZ 000000018004c3f0 f i libvcruntimed:undname.obj
 0001:0004b410       ?getECSUDataType@UnDecorator@@CA?AVDName@@XZ 000000018004c410 f   libvcruntimed:undname.obj
 0001:0004b780       ?getECSUName@UnDecorator@@CA?AVDName@@XZ 000000018004c780 f i libvcruntimed:undname.obj
 0001:0004b7a0       ?getEnumType@UnDecorator@@CA?AVDName@@XZ 000000018004c7a0 f i libvcruntimed:undname.obj
 0001:0004ba30       ?getExtendedDataIndirectType@UnDecorator@@CA?AVDName@@AEAW4IndirectionKind@@AEA_NH@Z 000000018004ca30 f   libvcruntimed:undname.obj
 0001:0004bd50       ?getExternalDataType@UnDecorator@@CA?AVDName@@AEBV2@@Z 000000018004cd50 f i libvcruntimed:undname.obj
 0001:0004be30       ?getFunctionIndirectType@UnDecorator@@CA?AVDName@@AEBV2@@Z 000000018004ce30 f   libvcruntimed:undname.obj
 0001:0004c460       ?getGuardNumber@UnDecorator@@CA?AVDName@@XZ 000000018004d460 f i libvcruntimed:undname.obj
 0001:0004c480       ?getLastChar@DName@@QEBADXZ 000000018004d480 f i libvcruntimed:undname.obj
 0001:0004c4d0       ?getLastChar@DNameStatusNode@@UEBADXZ 000000018004d4d0 f i libvcruntimed:undname.obj
 0001:0004c510       ?getLastChar@charNode@@UEBADXZ 000000018004d510 f i libvcruntimed:undname.obj
 0001:0004c520       ?getLastChar@pDNameNode@@UEBADXZ 000000018004d520 f i libvcruntimed:undname.obj
 0001:0004c560       ?getLastChar@pairNode@@UEBADXZ 000000018004d560 f i libvcruntimed:undname.obj
 0001:0004c5e0       ?getLastChar@pcharNode@@UEBADXZ 000000018004d5e0 f i libvcruntimed:undname.obj
 0001:0004c620       ?getLexicalFrame@UnDecorator@@CA?AVDName@@XZ 000000018004d620 f i libvcruntimed:undname.obj
 0001:0004c670       ?getMemoryWithBuffer@_HeapManager@@QEAAPEAX_K@Z 000000018004d670 f   libvcruntimed:undname.obj
 0001:0004c7c0       ?getMemoryWithoutBuffer@_HeapManager@@QEAAPEAX_K@Z 000000018004d7c0 f   libvcruntimed:undname.obj
 0001:0004c810       ?getNoexcept@UnDecorator@@CA?AVDName@@XZ 000000018004d810 f   libvcruntimed:undname.obj
 0001:0004c8c0       ?getNumberOfDimensions@UnDecorator@@CAHXZ 000000018004d8c0 f   libvcruntimed:undname.obj
 0001:0004c9e0       ?getOperatorName@UnDecorator@@CA?AVDName@@_NPEA_N@Z 000000018004d9e0 f i libvcruntimed:undname.obj
 0001:0004d890       ?getPointerType@UnDecorator@@CA?AVDName@@AEBV2@0@Z 000000018004e890 f i libvcruntimed:undname.obj
 0001:0004d8d0       ?getPointerTypeArray@UnDecorator@@CA?AVDName@@AEBV2@0@Z 000000018004e8d0 f i libvcruntimed:undname.obj
 0001:0004d910       ?getPrimaryDataType@UnDecorator@@CA?AVDName@@AEBV2@@Z 000000018004e910 f   libvcruntimed:undname.obj
 0001:0004df00       ?getPtrRefDataType@UnDecorator@@CA?AVDName@@AEBV2@H@Z 000000018004ef00 f   libvcruntimed:undname.obj
 0001:0004e2f0       ?getPtrRefType@UnDecorator@@CA?AVDName@@AEBV2@0W4IndirectionKind@@@Z 000000018004f2f0 f   libvcruntimed:undname.obj
 0001:0004e530       ?getReferenceType@UnDecorator@@CA?AVDName@@AEBV2@0W4IndirectionKind@@@Z 000000018004f530 f i libvcruntimed:undname.obj
 0001:0004e570       ?getRestrictionSpec@UnDecorator@@CA?AVDName@@XZ 000000018004f570 f   libvcruntimed:undname.obj
 0001:0004e800       ?getReturnType@UnDecorator@@CA?AVDName@@PEAV2@@Z 000000018004f800 f   libvcruntimed:undname.obj
 0001:0004e860       ?getScope@UnDecorator@@CA?AVDName@@XZ 000000018004f860 f   libvcruntimed:undname.obj
 0001:0004efb0       ?getScopedName@UnDecorator@@CA?AVDName@@XZ 000000018004ffb0 f   libvcruntimed:undname.obj
 0001:0004f1b0       ?getSignedDimension@UnDecorator@@CA?AVDName@@XZ 00000001800501b0 f   libvcruntimed:undname.obj
 0001:0004f240       ?getStorageConvention@UnDecorator@@CA?AVDName@@XZ 0000000180050240 f i libvcruntimed:undname.obj
 0001:0004f260       ?getString@DName@@QEBAPEADPEAD0@Z 0000000180050260 f i libvcruntimed:undname.obj
 0001:0004f2e0       ?getString@DName@@QEBAPEADPEADH@Z 00000001800502e0 f i libvcruntimed:undname.obj
 0001:0004f3a0       ?getString@DNameStatusNode@@UEBAPEADPEAD0@Z 00000001800503a0 f i libvcruntimed:undname.obj
 0001:0004f3f0       ?getString@charNode@@UEBAPEADPEAD0@Z 00000001800503f0 f i libvcruntimed:undname.obj
 0001:0004f430       ?getString@pDNameNode@@UEBAPEADPEAD0@Z 0000000180050430 f i libvcruntimed:undname.obj
 0001:0004f490       ?getString@pairNode@@UEBAPEADPEAD0@Z 0000000180050490 f i libvcruntimed:undname.obj
 0001:0004f560       ?getString@pcharNode@@UEBAPEADPEAD0@Z 0000000180050560 f i libvcruntimed:undname.obj
 0001:0004f5a0       ?getStringEncoding@UnDecorator@@CA?AVDName@@W4PrefixKind@@H@Z 00000001800505a0 f   libvcruntimed:undname.obj
 0001:0004f700       ?getStringHelper@@YAPEADPEADPEBD1H@Z 0000000180050700 f i libvcruntimed:undname.obj
 0001:0004f770       ?getSymbolName@UnDecorator@@CA?AVDName@@XZ 0000000180050770 f i libvcruntimed:undname.obj
 0001:0004f810       ?getTemplateArgumentList@UnDecorator@@CA?AVDName@@XZ 0000000180050810 f   libvcruntimed:undname.obj
 0001:0004fb20       ?getTemplateName@UnDecorator@@CA?AVDName@@_N@Z 0000000180050b20 f   libvcruntimed:undname.obj
 0001:0004fd60       ?getTemplateNonTypeArgument@UnDecorator@@CA?AVDName@@XZ 0000000180050d60 f   libvcruntimed:undname.obj
 0001:000505a0       ?getTemplateTypeArgument@UnDecorator@@CA?AVDName@@XZ 00000001800515a0 f   libvcruntimed:undname.obj
 0001:00050810       ?getThisType@UnDecorator@@CA?AVDName@@XZ 0000000180051810 f i libvcruntimed:undname.obj
 0001:00050860       ?getThrowTypes@UnDecorator@@CA?AVDName@@XZ 0000000180051860 f   libvcruntimed:undname.obj
 0001:000508b0       ?getTypeEncoding@UnDecorator@@CAHXZ 00000001800518b0 f i libvcruntimed:undname.obj
 0001:000514e0       ?getUndecoratedName@UnDecorator@@QEAAPEADPEADH@Z 00000001800524e0 f i libvcruntimed:undname.obj
 0001:000516d0       ?getVCallThunkType@UnDecorator@@CA?AVDName@@XZ 00000001800526d0 f i libvcruntimed:undname.obj
 0001:00051780       ?getVbTableType@UnDecorator@@CA?AVDName@@AEBV2@@Z 0000000180052780 f i libvcruntimed:undname.obj
 0001:000517b0       ?getVdispMapType@UnDecorator@@CA?AVDName@@AEBV2@@Z 00000001800527b0 f i libvcruntimed:undname.obj
 0001:00051870       ?getVfTableType@UnDecorator@@CA?AVDName@@AEBV2@@Z 0000000180052870 f i libvcruntimed:undname.obj
 0001:00051b10       ?getZName@UnDecorator@@CA?AVDName@@_N0@Z 0000000180052b10 f   libvcruntimed:undname.obj
 0001:00051fa0       ?haveTemplateParameters@UnDecorator@@SAHXZ 0000000180052fa0 f i libvcruntimed:undname.obj
 0001:00051fb0       ?isArray@DName@@QEBAHXZ    0000000180052fb0 f i libvcruntimed:undname.obj
 0001:00051fd0       ?isComArray@DName@@QEBAHXZ 0000000180052fd0 f i libvcruntimed:undname.obj
 0001:00051ff0       ?isEmpty@DName@@QEBAHXZ    0000000180052ff0 f i libvcruntimed:undname.obj
 0001:00052020       ?isFull@Replicator@@QEBAHXZ 0000000180053020 f i libvcruntimed:undname.obj
 0001:00052050       ?isNoTE@DName@@QEBAHXZ     0000000180053050 f i libvcruntimed:undname.obj
 0001:00052070       ?isPinPtr@DName@@QEBAHXZ   0000000180053070 f i libvcruntimed:undname.obj
 0001:00052090       ?isPtrRef@DName@@QEBAHXZ   0000000180053090 f i libvcruntimed:undname.obj
 0001:000520b0       ?isUDC@DName@@QEBAHXZ      00000001800530b0 f i libvcruntimed:undname.obj
 0001:00052100       ?isUDTThunk@DName@@QEBAHXZ 0000000180053100 f i libvcruntimed:undname.obj
 0001:00052150       ?isVCallThunk@DName@@QEBAHXZ 0000000180053150 f i libvcruntimed:undname.obj
 0001:00052170       ?isValid@DName@@QEBAHXZ    0000000180053170 f i libvcruntimed:undname.obj
 0001:000521b0       ?length@DName@@QEBAHXZ     00000001800531b0 f i libvcruntimed:undname.obj
 0001:00052200       ?length@DNameStatusNode@@UEBAHXZ 0000000180053200 f i libvcruntimed:undname.obj
 0001:00052210       ?length@charNode@@UEBAHXZ  0000000180053210 f i libvcruntimed:undname.obj
 0001:00052220       ?length@pDNameNode@@UEBAHXZ 0000000180053220 f i libvcruntimed:undname.obj
 0001:00052260       ?length@pairNode@@UEBAHXZ  0000000180053260 f i libvcruntimed:undname.obj
 0001:000522f0       ?length@pcharNode@@UEBAHXZ 00000001800532f0 f i libvcruntimed:undname.obj
 0001:00052300       ?make@DNameStatusNode@@SAPEBV1@W4DNameStatus@@@Z 0000000180053300 f i libvcruntimed:undname.obj
 0001:00052350       ?parseDecoratedName@UnDecorator@@CA?AVDName@@XZ 0000000180053350 f   libvcruntimed:undname.obj
 0001:00052540       ?raw_length@DNameStatusNode@@UEBAHXZ 0000000180053540 f i libvcruntimed:undname.obj
 0001:00052560       ?raw_length@charNode@@UEBAHXZ 0000000180053560 f i libvcruntimed:undname.obj
 0001:00052580       ?raw_length@pDNameNode@@UEBAHXZ 0000000180053580 f i libvcruntimed:undname.obj
 0001:00052590       ?raw_length@pairNode@@UEBAHXZ 0000000180053590 f i libvcruntimed:undname.obj
 0001:000525a0       ?raw_length@pcharNode@@UEBAHXZ 00000001800535a0 f i libvcruntimed:undname.obj
 0001:000525c0       ?setIsArray@DName@@QEAAXXZ 00000001800535c0 f i libvcruntimed:undname.obj
 0001:000525e0       ?setIsComArray@DName@@QEAAXXZ 00000001800535e0 f i libvcruntimed:undname.obj
 0001:00052600       ?setIsNoTE@DName@@QEAAXXZ  0000000180053600 f i libvcruntimed:undname.obj
 0001:00052620       ?setIsPinPtr@DName@@QEAAXXZ 0000000180053620 f i libvcruntimed:undname.obj
 0001:00052640       ?setIsUDC@DName@@QEAAXXZ   0000000180053640 f i libvcruntimed:undname.obj
 0001:00052670       ?setIsVCallThunk@DName@@QEAAXXZ 0000000180053670 f i libvcruntimed:undname.obj
 0001:00052690       ?setPtrRef@DName@@QEAAAEAV1@XZ 0000000180053690 f i libvcruntimed:undname.obj
 0001:000526b0       ?status@DName@@QEBA?AW4DNameStatus@@XZ 00000001800536b0 f i libvcruntimed:undname.obj
 0001:000527e0       __unDName                  00000001800537e0 f   libvcruntimed:undname.obj
 0001:00052840       __unDNameEx                0000000180053840 f   libvcruntimed:undname.obj
 0001:00052900       unDNameGenerateCHPE        0000000180053900 f   libvcruntimed:undname.obj
 0001:000529b0       ??$__crt_interlocked_exchange_pointer@UHINSTANCE__@@PEAU1@@@YAPEAUHINSTANCE__@@PEDSEAU0@QEAU0@@Z 00000001800539b0 f i libvcruntimed:winapi_downlevel.obj
 0001:000529d0       ??$__crt_interlocked_exchange_pointer@UHINSTANCE__@@PEAX@@YAPEAUHINSTANCE__@@PEDSEAU0@QEAX@Z 00000001800539d0 f i libvcruntimed:winapi_downlevel.obj
 0001:000529f0       ??$__crt_interlocked_exchange_pointer@XPEAX@@YAPEAXPEDSEAXQEAX@Z 00000001800539f0 f i libvcruntimed:winapi_downlevel.obj
 0001:00052a10       ??$__crt_interlocked_read_pointer@UHINSTANCE__@@@@YAPEAUHINSTANCE__@@PEDSEAU0@@Z 0000000180053a10 f i libvcruntimed:winapi_downlevel.obj
 0001:00052a30       ??$__crt_interlocked_read_pointer@X@@YAPEAXPEDSEAX@Z 0000000180053a30 f i libvcruntimed:winapi_downlevel.obj
 0001:00052f40       __vcrt_FlsAlloc            0000000180053f40 f   libvcruntimed:winapi_downlevel.obj
 0001:00052f90       __vcrt_FlsFree             0000000180053f90 f   libvcruntimed:winapi_downlevel.obj
 0001:00052fe0       __vcrt_FlsGetValue         0000000180053fe0 f   libvcruntimed:winapi_downlevel.obj
 0001:00053030       __vcrt_FlsSetValue         0000000180054030 f   libvcruntimed:winapi_downlevel.obj
 0001:00053090       __vcrt_InitializeCriticalSectionEx 0000000180054090 f   libvcruntimed:winapi_downlevel.obj
 0001:00053110       _CallSettingFrame          0000000180054110 f   libvcruntimed:handlers.obj
 0001:00053160       _CallSettingFrame_LookupContinuationIndex 0000000180054160 f   libvcruntimed:handlers.obj
 0001:00053190       _CallSettingFrame_NotifyContinuationAddr 0000000180054190 f   libvcruntimed:handlers.obj
 0001:000531c0       _CallSettingFrameEncoded   00000001800541c0 f   libvcruntimed:handlers.obj
 0001:00053210       ??$?0AEBV?$stream_output_adapter@D@__crt_stdio_output@@AEB_KAEBQEBDAEBQEAU__crt_locale_pointers@@AEBQEAD@?$format_validation_base@DV?$stream_output_adapter@D@__crt_stdio_output@@@__crt_stdio_output@@IEAA@AEBV?$stream_output_adapter@D@1@AEB_KAEBQEBDAEBQEAU__crt_locale_pointers@@AEBQEAD@Z 0000000180054210 f i libucrtd:output.obj
 0001:00053260       ??$?0AEBV?$stream_output_adapter@D@__crt_stdio_output@@AEB_KAEBQEBDAEBQEAU__crt_locale_pointers@@AEBQEAD@?$positional_parameter_base@DV?$stream_output_adapter@D@__crt_stdio_output@@@__crt_stdio_output@@IEAA@AEBV?$stream_output_adapter@D@1@AEB_KAEBQEBDAEBQEAU__crt_locale_pointers@@AEBQEAD@Z 0000000180054260 f i libucrtd:output.obj
 0001:00053300       ??$?0AEBV?$stream_output_adapter@D@__crt_stdio_output@@AEB_KAEBQEBDAEBQEAU__crt_locale_pointers@@AEBQEAD@?$standard_base@DV?$stream_output_adapter@D@__crt_stdio_output@@@__crt_stdio_output@@IEAA@AEBV?$stream_output_adapter@D@1@AEB_KAEBQEBDAEBQEAU__crt_locale_pointers@@AEBQEAD@Z 0000000180054300 f i libucrtd:output.obj
 0001:00053370       ??$?0AEBV?$stream_output_adapter@_W@__crt_stdio_output@@AEB_KAEBQEB_WAEBQEAU__crt_locale_pointers@@AEBQEAD@?$format_validation_base@_WV?$stream_output_adapter@_W@__crt_stdio_output@@@__crt_stdio_output@@IEAA@AEBV?$stream_output_adapter@_W@1@AEB_KAEBQEB_WAEBQEAU__crt_locale_pointers@@AEBQEAD@Z 0000000180054370 f i libucrtd:output.obj
 0001:000533c0       ??$?0AEBV?$stream_output_adapter@_W@__crt_stdio_output@@AEB_KAEBQEB_WAEBQEAU__crt_locale_pointers@@AEBQEAD@?$positional_parameter_base@_WV?$stream_output_adapter@_W@__crt_stdio_output@@@__crt_stdio_output@@IEAA@AEBV?$stream_output_adapter@_W@1@AEB_KAEBQEB_WAEBQEAU__crt_locale_pointers@@AEBQEAD@Z 00000001800543c0 f i libucrtd:output.obj
 0001:00053460       ??$?0AEBV?$stream_output_adapter@_W@__crt_stdio_output@@AEB_KAEBQEB_WAEBQEAU__crt_locale_pointers@@AEBQEAD@?$standard_base@_WV?$stream_output_adapter@_W@__crt_stdio_output@@@__crt_stdio_output@@IEAA@AEBV?$stream_output_adapter@_W@1@AEB_KAEBQEB_WAEBQEAU__crt_locale_pointers@@AEBQEAD@Z 0000000180054460 f i libucrtd:output.obj
 0001:000534d0       ??$?0AEBV?$string_output_adapter@D@__crt_stdio_output@@AEB_KAEBQEBDAEBQEAU__crt_locale_pointers@@AEBQEAD@?$format_validation_base@DV?$string_output_adapter@D@__crt_stdio_output@@@__crt_stdio_output@@IEAA@AEBV?$string_output_adapter@D@1@AEB_KAEBQEBDAEBQEAU__crt_locale_pointers@@AEBQEAD@Z 00000001800544d0 f i libucrtd:output.obj
 0001:00053520       ??$?0AEBV?$string_output_adapter@D@__crt_stdio_output@@AEB_KAEBQEBDAEBQEAU__crt_locale_pointers@@AEBQEAD@?$positional_parameter_base@DV?$string_output_adapter@D@__crt_stdio_output@@@__crt_stdio_output@@IEAA@AEBV?$string_output_adapter@D@1@AEB_KAEBQEBDAEBQEAU__crt_locale_pointers@@AEBQEAD@Z 0000000180054520 f i libucrtd:output.obj
 0001:000535c0       ??$?0AEBV?$string_output_adapter@D@__crt_stdio_output@@AEB_KAEBQEBDAEBQEAU__crt_locale_pointers@@AEBQEAD@?$standard_base@DV?$string_output_adapter@D@__crt_stdio_output@@@__crt_stdio_output@@IEAA@AEBV?$string_output_adapter@D@1@AEB_KAEBQEBDAEBQEAU__crt_locale_pointers@@AEBQEAD@Z 00000001800545c0 f i libucrtd:output.obj
 0001:00053630       ??$?0AEBV?$string_output_adapter@_W@__crt_stdio_output@@AEB_KAEBQEB_WAEBQEAU__crt_locale_pointers@@AEBQEAD@?$format_validation_base@_WV?$string_output_adapter@_W@__crt_stdio_output@@@__crt_stdio_output@@IEAA@AEBV?$string_output_adapter@_W@1@AEB_KAEBQEB_WAEBQEAU__crt_locale_pointers@@AEBQEAD@Z 0000000180054630 f i libucrtd:output.obj
 0001:00053680       ??$?0AEBV?$string_output_adapter@_W@__crt_stdio_output@@AEB_KAEBQEB_WAEBQEAU__crt_locale_pointers@@AEBQEAD@?$positional_parameter_base@_WV?$string_output_adapter@_W@__crt_stdio_output@@@__crt_stdio_output@@IEAA@AEBV?$string_output_adapter@_W@1@AEB_KAEBQEB_WAEBQEAU__crt_locale_pointers@@AEBQEAD@Z 0000000180054680 f i libucrtd:output.obj
 0001:00053720       ??$?0AEBV?$string_output_adapter@_W@__crt_stdio_output@@AEB_KAEBQEB_WAEBQEAU__crt_locale_pointers@@AEBQEAD@?$standard_base@_WV?$string_output_adapter@_W@__crt_stdio_output@@@__crt_stdio_output@@IEAA@AEBV?$string_output_adapter@_W@1@AEB_KAEBQEB_WAEBQEAU__crt_locale_pointers@@AEBQEAD@Z 0000000180054720 f i libucrtd:output.obj
 0001:00053b50       ??$__crt_interlocked_read@J@@YAJPEDJ@Z 0000000180054b50 f i libucrtd:output.obj
 0001:00057630       ??$count@D@formatting_buffer@__crt_stdio_output@@QEBA_KXZ 0000000180058630 f i libucrtd:output.obj
 0001:00057680       ??$count@_W@formatting_buffer@__crt_stdio_output@@QEBA_KXZ 0000000180058680 f i libucrtd:output.obj
 0001:000576d0       ??$data@D@formatting_buffer@__crt_stdio_output@@QEAAPEADXZ 00000001800586d0 f i libucrtd:output.obj
 0001:00057720       ??$data@_W@formatting_buffer@__crt_stdio_output@@QEAAPEA_WXZ 0000000180058720 f i libucrtd:output.obj
 0001:00057770       ??$ensure_buffer_is_big_enough@D@formatting_buffer@__crt_stdio_output@@QEAA_N_K@Z 0000000180058770 f i libucrtd:output.obj
 0001:000578a0       ??$ensure_buffer_is_big_enough@_W@formatting_buffer@__crt_stdio_output@@QEAA_N_K@Z 00000001800588a0 f i libucrtd:output.obj
 0001:000579d0       ??$extract_argument_from_va_list@C_J@?$positional_parameter_base@DV?$stream_output_adapter@D@__crt_stdio_output@@@__crt_stdio_output@@IEAA_NAEA_J@Z 00000001800589d0 f i libucrtd:output.obj
 0001:00057b50       ??$extract_argument_from_va_list@C_J@?$positional_parameter_base@DV?$string_output_adapter@D@__crt_stdio_output@@@__crt_stdio_output@@IEAA_NAEA_J@Z 0000000180058b50 f i libucrtd:output.obj
 0001:00057cd0       ??$extract_argument_from_va_list@C_J@?$positional_parameter_base@_WV?$stream_output_adapter@_W@__crt_stdio_output@@@__crt_stdio_output@@IEAA_NAEA_J@Z 0000000180058cd0 f i libucrtd:output.obj
 0001:00057e50       ??$extract_argument_from_va_list@C_J@?$positional_parameter_base@_WV?$string_output_adapter@_W@__crt_stdio_output@@@__crt_stdio_output@@IEAA_NAEA_J@Z 0000000180058e50 f i libucrtd:output.obj
 0001:00057fd0       ??$extract_argument_from_va_list@C_J@?$standard_base@DV?$stream_output_adapter@D@__crt_stdio_output@@@__crt_stdio_output@@IEAA_NAEA_J@Z 0000000180058fd0 f i libucrtd:output.obj
 0001:00058010       ??$extract_argument_from_va_list@C_J@?$standard_base@DV?$string_output_adapter@D@__crt_stdio_output@@@__crt_stdio_output@@IEAA_NAEA_J@Z 0000000180059010 f i libucrtd:output.obj
 0001:00058050       ??$extract_argument_from_va_list@C_J@?$standard_base@_WV?$stream_output_adapter@_W@__crt_stdio_output@@@__crt_stdio_output@@IEAA_NAEA_J@Z 0000000180059050 f i libucrtd:output.obj
 0001:00058090       ??$extract_argument_from_va_list@C_J@?$standard_base@_WV?$string_output_adapter@_W@__crt_stdio_output@@@__crt_stdio_output@@IEAA_NAEA_J@Z 0000000180059090 f i libucrtd:output.obj
 0001:000580d0       ??$extract_argument_from_va_list@E_J@?$positional_parameter_base@DV?$stream_output_adapter@D@__crt_stdio_output@@@__crt_stdio_output@@IEAA_NAEA_J@Z 00000001800590d0 f i libucrtd:output.obj
 0001:00058250       ??$extract_argument_from_va_list@E_J@?$positional_parameter_base@DV?$string_output_adapter@D@__crt_stdio_output@@@__crt_stdio_output@@IEAA_NAEA_J@Z 0000000180059250 f i libucrtd:output.obj
 0001:000583d0       ??$extract_argument_from_va_list@E_J@?$positional_parameter_base@_WV?$stream_output_adapter@_W@__crt_stdio_output@@@__crt_stdio_output@@IEAA_NAEA_J@Z 00000001800593d0 f i libucrtd:output.obj
 0001:00058550       ??$extract_argument_from_va_list@E_J@?$positional_parameter_base@_WV?$string_output_adapter@_W@__crt_stdio_output@@@__crt_stdio_output@@IEAA_NAEA_J@Z 0000000180059550 f i libucrtd:output.obj
 0001:000586d0       ??$extract_argument_from_va_list@E_J@?$standard_base@DV?$stream_output_adapter@D@__crt_stdio_output@@@__crt_stdio_output@@IEAA_NAEA_J@Z 00000001800596d0 f i libucrtd:output.obj
 0001:00058710       ??$extract_argument_from_va_list@E_J@?$standard_base@DV?$string_output_adapter@D@__crt_stdio_output@@@__crt_stdio_output@@IEAA_NAEA_J@Z 0000000180059710 f i libucrtd:output.obj
 0001:00058750       ??$extract_argument_from_va_list@E_J@?$standard_base@_WV?$stream_output_adapter@_W@__crt_stdio_output@@@__crt_stdio_output@@IEAA_NAEA_J@Z 0000000180059750 f i libucrtd:output.obj
 0001:00058790       ??$extract_argument_from_va_list@E_J@?$standard_base@_WV?$string_output_adapter@_W@__crt_stdio_output@@@__crt_stdio_output@@IEAA_NAEA_J@Z 0000000180059790 f i libucrtd:output.obj
 0001:000587d0       ??$extract_argument_from_va_list@F_J@?$positional_parameter_base@DV?$stream_output_adapter@D@__crt_stdio_output@@@__crt_stdio_output@@IEAA_NAEA_J@Z 00000001800597d0 f i libucrtd:output.obj
 0001:00058950       ??$extract_argument_from_va_list@F_J@?$positional_parameter_base@DV?$string_output_adapter@D@__crt_stdio_output@@@__crt_stdio_output@@IEAA_NAEA_J@Z 0000000180059950 f i libucrtd:output.obj
 0001:00058ad0       ??$extract_argument_from_va_list@F_J@?$positional_parameter_base@_WV?$stream_output_adapter@_W@__crt_stdio_output@@@__crt_stdio_output@@IEAA_NAEA_J@Z 0000000180059ad0 f i libucrtd:output.obj
 0001:00058c50       ??$extract_argument_from_va_list@F_J@?$positional_parameter_base@_WV?$string_output_adapter@_W@__crt_stdio_output@@@__crt_stdio_output@@IEAA_NAEA_J@Z 0000000180059c50 f i libucrtd:output.obj
 0001:00058dd0       ??$extract_argument_from_va_list@F_J@?$standard_base@DV?$stream_output_adapter@D@__crt_stdio_output@@@__crt_stdio_output@@IEAA_NAEA_J@Z 0000000180059dd0 f i libucrtd:output.obj
 0001:00058e10       ??$extract_argument_from_va_list@F_J@?$standard_base@DV?$string_output_adapter@D@__crt_stdio_output@@@__crt_stdio_output@@IEAA_NAEA_J@Z 0000000180059e10 f i libucrtd:output.obj
 0001:00058e50       ??$extract_argument_from_va_list@F_J@?$standard_base@_WV?$stream_output_adapter@_W@__crt_stdio_output@@@__crt_stdio_output@@IEAA_NAEA_J@Z 0000000180059e50 f i libucrtd:output.obj
 0001:00058e90       ??$extract_argument_from_va_list@F_J@?$standard_base@_WV?$string_output_adapter@_W@__crt_stdio_output@@@__crt_stdio_output@@IEAA_NAEA_J@Z 0000000180059e90 f i libucrtd:output.obj
 0001:00058ed0       ??$extract_argument_from_va_list@GD@?$positional_parameter_base@DV?$stream_output_adapter@D@__crt_stdio_output@@@__crt_stdio_output@@IEAA_NAEAD@Z 0000000180059ed0 f i libucrtd:output.obj
 0001:00059050       ??$extract_argument_from_va_list@GD@?$positional_parameter_base@DV?$string_output_adapter@D@__crt_stdio_output@@@__crt_stdio_output@@IEAA_NAEAD@Z 000000018005a050 f i libucrtd:output.obj
 0001:000591d0       ??$extract_argument_from_va_list@GD@?$standard_base@DV?$stream_output_adapter@D@__crt_stdio_output@@@__crt_stdio_output@@IEAA_NAEAD@Z 000000018005a1d0 f i libucrtd:output.obj
 0001:00059200       ??$extract_argument_from_va_list@GD@?$standard_base@DV?$string_output_adapter@D@__crt_stdio_output@@@__crt_stdio_output@@IEAA_NAEAD@Z 000000018005a200 f i libucrtd:output.obj
 0001:00059230       ??$extract_argument_from_va_list@G_J@?$positional_parameter_base@DV?$stream_output_adapter@D@__crt_stdio_output@@@__crt_stdio_output@@IEAA_NAEA_J@Z 000000018005a230 f i libucrtd:output.obj
 0001:000593b0       ??$extract_argument_from_va_list@G_J@?$positional_parameter_base@DV?$string_output_adapter@D@__crt_stdio_output@@@__crt_stdio_output@@IEAA_NAEA_J@Z 000000018005a3b0 f i libucrtd:output.obj
 0001:00059530       ??$extract_argument_from_va_list@G_J@?$positional_parameter_base@_WV?$stream_output_adapter@_W@__crt_stdio_output@@@__crt_stdio_output@@IEAA_NAEA_J@Z 000000018005a530 f i libucrtd:output.obj
 0001:000596b0       ??$extract_argument_from_va_list@G_J@?$positional_parameter_base@_WV?$string_output_adapter@_W@__crt_stdio_output@@@__crt_stdio_output@@IEAA_NAEA_J@Z 000000018005a6b0 f i libucrtd:output.obj
 0001:00059830       ??$extract_argument_from_va_list@G_J@?$standard_base@DV?$stream_output_adapter@D@__crt_stdio_output@@@__crt_stdio_output@@IEAA_NAEA_J@Z 000000018005a830 f i libucrtd:output.obj
 0001:00059870       ??$extract_argument_from_va_list@G_J@?$standard_base@DV?$string_output_adapter@D@__crt_stdio_output@@@__crt_stdio_output@@IEAA_NAEA_J@Z 000000018005a870 f i libucrtd:output.obj
 0001:000598b0       ??$extract_argument_from_va_list@G_J@?$standard_base@_WV?$stream_output_adapter@_W@__crt_stdio_output@@@__crt_stdio_output@@IEAA_NAEA_J@Z 000000018005a8b0 f i libucrtd:output.obj
 0001:000598f0       ??$extract_argument_from_va_list@G_J@?$standard_base@_WV?$string_output_adapter@_W@__crt_stdio_output@@@__crt_stdio_output@@IEAA_NAEA_J@Z 000000018005a8f0 f i libucrtd:output.obj
 0001:00059930       ??$extract_argument_from_va_list@H_J@?$positional_parameter_base@DV?$stream_output_adapter@D@__crt_stdio_output@@@__crt_stdio_output@@IEAA_NAEA_J@Z 000000018005a930 f i libucrtd:output.obj
 0001:00059ab0       ??$extract_argument_from_va_list@H_J@?$positional_parameter_base@DV?$string_output_adapter@D@__crt_stdio_output@@@__crt_stdio_output@@IEAA_NAEA_J@Z 000000018005aab0 f i libucrtd:output.obj
 0001:00059c30       ??$extract_argument_from_va_list@H_J@?$positional_parameter_base@_WV?$stream_output_adapter@_W@__crt_stdio_output@@@__crt_stdio_output@@IEAA_NAEA_J@Z 000000018005ac30 f i libucrtd:output.obj
 0001:00059db0       ??$extract_argument_from_va_list@H_J@?$positional_parameter_base@_WV?$string_output_adapter@_W@__crt_stdio_output@@@__crt_stdio_output@@IEAA_NAEA_J@Z 000000018005adb0 f i libucrtd:output.obj
 0001:00059f30       ??$extract_argument_from_va_list@H_J@?$standard_base@DV?$stream_output_adapter@D@__crt_stdio_output@@@__crt_stdio_output@@IEAA_NAEA_J@Z 000000018005af30 f i libucrtd:output.obj
 0001:00059f60       ??$extract_argument_from_va_list@H_J@?$standard_base@DV?$string_output_adapter@D@__crt_stdio_output@@@__crt_stdio_output@@IEAA_NAEA_J@Z 000000018005af60 f i libucrtd:output.obj
 0001:00059f90       ??$extract_argument_from_va_list@H_J@?$standard_base@_WV?$stream_output_adapter@_W@__crt_stdio_output@@@__crt_stdio_output@@IEAA_NAEA_J@Z 000000018005af90 f i libucrtd:output.obj
 0001:00059fc0       ??$extract_argument_from_va_list@H_J@?$standard_base@_WV?$string_output_adapter@_W@__crt_stdio_output@@@__crt_stdio_output@@IEAA_NAEA_J@Z 000000018005afc0 f i libucrtd:output.obj
 0001:00059ff0       ??$extract_argument_from_va_list@I_J@?$positional_parameter_base@DV?$stream_output_adapter@D@__crt_stdio_output@@@__crt_stdio_output@@IEAA_NAEA_J@Z 000000018005aff0 f i libucrtd:output.obj
 0001:0005a170       ??$extract_argument_from_va_list@I_J@?$positional_parameter_base@DV?$string_output_adapter@D@__crt_stdio_output@@@__crt_stdio_output@@IEAA_NAEA_J@Z 000000018005b170 f i libucrtd:output.obj
 0001:0005a2f0       ??$extract_argument_from_va_list@I_J@?$positional_parameter_base@_WV?$stream_output_adapter@_W@__crt_stdio_output@@@__crt_stdio_output@@IEAA_NAEA_J@Z 000000018005b2f0 f i libucrtd:output.obj
 0001:0005a470       ??$extract_argument_from_va_list@I_J@?$positional_parameter_base@_WV?$string_output_adapter@_W@__crt_stdio_output@@@__crt_stdio_output@@IEAA_NAEA_J@Z 000000018005b470 f i libucrtd:output.obj
 0001:0005a5f0       ??$extract_argument_from_va_list@I_J@?$standard_base@DV?$stream_output_adapter@D@__crt_stdio_output@@@__crt_stdio_output@@IEAA_NAEA_J@Z 000000018005b5f0 f i libucrtd:output.obj
 0001:0005a620       ??$extract_argument_from_va_list@I_J@?$standard_base@DV?$string_output_adapter@D@__crt_stdio_output@@@__crt_stdio_output@@IEAA_NAEA_J@Z 000000018005b620 f i libucrtd:output.obj
 0001:0005a650       ??$extract_argument_from_va_list@I_J@?$standard_base@_WV?$stream_output_adapter@_W@__crt_stdio_output@@@__crt_stdio_output@@IEAA_NAEA_J@Z 000000018005b650 f i libucrtd:output.obj
 0001:0005a680       ??$extract_argument_from_va_list@I_J@?$standard_base@_WV?$string_output_adapter@_W@__crt_stdio_output@@@__crt_stdio_output@@IEAA_NAEA_J@Z 000000018005b680 f i libucrtd:output.obj
 0001:0005a6b0       ??$extract_argument_from_va_list@PEADPEAD@?$positional_parameter_base@DV?$stream_output_adapter@D@__crt_stdio_output@@@__crt_stdio_output@@IEAA_NAEAPEAD@Z 000000018005b6b0 f i libucrtd:output.obj
 0001:0005a830       ??$extract_argument_from_va_list@PEADPEAD@?$positional_parameter_base@DV?$string_output_adapter@D@__crt_stdio_output@@@__crt_stdio_output@@IEAA_NAEAPEAD@Z 000000018005b830 f i libucrtd:output.obj
 0001:0005a9b0       ??$extract_argument_from_va_list@PEADPEAD@?$positional_parameter_base@_WV?$stream_output_adapter@_W@__crt_stdio_output@@@__crt_stdio_output@@IEAA_NAEAPEAD@Z 000000018005b9b0 f i libucrtd:output.obj
 0001:0005ab30       ??$extract_argument_from_va_list@PEADPEAD@?$positional_parameter_base@_WV?$string_output_adapter@_W@__crt_stdio_output@@@__crt_stdio_output@@IEAA_NAEAPEAD@Z 000000018005bb30 f i libucrtd:output.obj
 0001:0005acb0       ??$extract_argument_from_va_list@PEADPEAD@?$standard_base@DV?$stream_output_adapter@D@__crt_stdio_output@@@__crt_stdio_output@@IEAA_NAEAPEAD@Z 000000018005bcb0 f i libucrtd:output.obj
 0001:0005ace0       ??$extract_argument_from_va_list@PEADPEAD@?$standard_base@DV?$string_output_adapter@D@__crt_stdio_output@@@__crt_stdio_output@@IEAA_NAEAPEAD@Z 000000018005bce0 f i libucrtd:output.obj
 0001:0005ad10       ??$extract_argument_from_va_list@PEADPEAD@?$standard_base@_WV?$stream_output_adapter@_W@__crt_stdio_output@@@__crt_stdio_output@@IEAA_NAEAPEAD@Z 000000018005bd10 f i libucrtd:output.obj
 0001:0005ad40       ??$extract_argument_from_va_list@PEADPEAD@?$standard_base@_WV?$string_output_adapter@_W@__crt_stdio_output@@@__crt_stdio_output@@IEAA_NAEAPEAD@Z 000000018005bd40 f i libucrtd:output.obj
 0001:0005b5b0       ??$extract_argument_from_va_list@PEAXPEAX@?$positional_parameter_base@DV?$stream_output_adapter@D@__crt_stdio_output@@@__crt_stdio_output@@IEAA_NAEAPEAX@Z 000000018005c5b0 f i libucrtd:output.obj
 0001:0005b730       ??$extract_argument_from_va_list@PEAXPEAX@?$positional_parameter_base@DV?$string_output_adapter@D@__crt_stdio_output@@@__crt_stdio_output@@IEAA_NAEAPEAX@Z 000000018005c730 f i libucrtd:output.obj
 0001:0005b8b0       ??$extract_argument_from_va_list@PEAXPEAX@?$positional_parameter_base@_WV?$stream_output_adapter@_W@__crt_stdio_output@@@__crt_stdio_output@@IEAA_NAEAPEAX@Z 000000018005c8b0 f i libucrtd:output.obj
 0001:0005ba30       ??$extract_argument_from_va_list@PEAXPEAX@?$positional_parameter_base@_WV?$string_output_adapter@_W@__crt_stdio_output@@@__crt_stdio_output@@IEAA_NAEAPEAX@Z 000000018005ca30 f i libucrtd:output.obj
 0001:0005bbb0       ??$extract_argument_from_va_list@PEAXPEAX@?$standard_base@DV?$stream_output_adapter@D@__crt_stdio_output@@@__crt_stdio_output@@IEAA_NAEAPEAX@Z 000000018005cbb0 f i libucrtd:output.obj
 0001:0005bbe0       ??$extract_argument_from_va_list@PEAXPEAX@?$standard_base@DV?$string_output_adapter@D@__crt_stdio_output@@@__crt_stdio_output@@IEAA_NAEAPEAX@Z 000000018005cbe0 f i libucrtd:output.obj
 0001:0005bc10       ??$extract_argument_from_va_list@PEAXPEAX@?$standard_base@_WV?$stream_output_adapter@_W@__crt_stdio_output@@@__crt_stdio_output@@IEAA_NAEAPEAX@Z 000000018005cc10 f i libucrtd:output.obj
 0001:0005bc40       ??$extract_argument_from_va_list@PEAXPEAX@?$standard_base@_WV?$string_output_adapter@_W@__crt_stdio_output@@@__crt_stdio_output@@IEAA_NAEAPEAX@Z 000000018005cc40 f i libucrtd:output.obj
 0001:0005bc70       ??$extract_argument_from_va_list@U_CRT_DOUBLE@@U1@@?$positional_parameter_base@DV?$stream_output_adapter@D@__crt_stdio_output@@@__crt_stdio_output@@IEAA_NAEAU_CRT_DOUBLE@@@Z 000000018005cc70 f i libucrtd:output.obj
 0001:0005be10       ??$extract_argument_from_va_list@U_CRT_DOUBLE@@U1@@?$positional_parameter_base@DV?$string_output_adapter@D@__crt_stdio_output@@@__crt_stdio_output@@IEAA_NAEAU_CRT_DOUBLE@@@Z 000000018005ce10 f i libucrtd:output.obj
 0001:0005bfb0       ??$extract_argument_from_va_list@U_CRT_DOUBLE@@U1@@?$positional_parameter_base@_WV?$stream_output_adapter@_W@__crt_stdio_output@@@__crt_stdio_output@@IEAA_NAEAU_CRT_DOUBLE@@@Z 000000018005cfb0 f i libucrtd:output.obj
 0001:0005c150       ??$extract_argument_from_va_list@U_CRT_DOUBLE@@U1@@?$positional_parameter_base@_WV?$string_output_adapter@_W@__crt_stdio_output@@@__crt_stdio_output@@IEAA_NAEAU_CRT_DOUBLE@@@Z 000000018005d150 f i libucrtd:output.obj
 0001:0005c2f0       ??$extract_argument_from_va_list@U_CRT_DOUBLE@@U1@@?$standard_base@DV?$stream_output_adapter@D@__crt_stdio_output@@@__crt_stdio_output@@IEAA_NAEAU_CRT_DOUBLE@@@Z 000000018005d2f0 f i libucrtd:output.obj
 0001:0005c340       ??$extract_argument_from_va_list@U_CRT_DOUBLE@@U1@@?$standard_base@DV?$string_output_adapter@D@__crt_stdio_output@@@__crt_stdio_output@@IEAA_NAEAU_CRT_DOUBLE@@@Z 000000018005d340 f i libucrtd:output.obj
 0001:0005c390       ??$extract_argument_from_va_list@U_CRT_DOUBLE@@U1@@?$standard_base@_WV?$stream_output_adapter@_W@__crt_stdio_output@@@__crt_stdio_output@@IEAA_NAEAU_CRT_DOUBLE@@@Z 000000018005d390 f i libucrtd:output.obj
 0001:0005c3e0       ??$extract_argument_from_va_list@U_CRT_DOUBLE@@U1@@?$standard_base@_WV?$string_output_adapter@_W@__crt_stdio_output@@@__crt_stdio_output@@IEAA_NAEAU_CRT_DOUBLE@@@Z 000000018005d3e0 f i libucrtd:output.obj
 0001:0005c430       ??$extract_argument_from_va_list@_J_J@?$positional_parameter_base@DV?$stream_output_adapter@D@__crt_stdio_output@@@__crt_stdio_output@@IEAA_NAEA_J@Z 000000018005d430 f i libucrtd:output.obj
 0001:0005c5b0       ??$extract_argument_from_va_list@_J_J@?$positional_parameter_base@DV?$string_output_adapter@D@__crt_stdio_output@@@__crt_stdio_output@@IEAA_NAEA_J@Z 000000018005d5b0 f i libucrtd:output.obj
 0001:0005c730       ??$extract_argument_from_va_list@_J_J@?$positional_parameter_base@_WV?$stream_output_adapter@_W@__crt_stdio_output@@@__crt_stdio_output@@IEAA_NAEA_J@Z 000000018005d730 f i libucrtd:output.obj
 0001:0005c8b0       ??$extract_argument_from_va_list@_J_J@?$positional_parameter_base@_WV?$string_output_adapter@_W@__crt_stdio_output@@@__crt_stdio_output@@IEAA_NAEA_J@Z 000000018005d8b0 f i libucrtd:output.obj
 0001:0005ca30       ??$extract_argument_from_va_list@_J_J@?$standard_base@DV?$stream_output_adapter@D@__crt_stdio_output@@@__crt_stdio_output@@IEAA_NAEA_J@Z 000000018005da30 f i libucrtd:output.obj
 0001:0005ca60       ??$extract_argument_from_va_list@_J_J@?$standard_base@DV?$string_output_adapter@D@__crt_stdio_output@@@__crt_stdio_output@@IEAA_NAEA_J@Z 000000018005da60 f i libucrtd:output.obj
 0001:0005ca90       ??$extract_argument_from_va_list@_J_J@?$standard_base@_WV?$stream_output_adapter@_W@__crt_stdio_output@@@__crt_stdio_output@@IEAA_NAEA_J@Z 000000018005da90 f i libucrtd:output.obj
 0001:0005cac0       ??$extract_argument_from_va_list@_J_J@?$standard_base@_WV?$string_output_adapter@_W@__crt_stdio_output@@@__crt_stdio_output@@IEAA_NAEA_J@Z 000000018005dac0 f i libucrtd:output.obj
 0001:0005caf0       ??$extract_argument_from_va_list@_K_J@?$positional_parameter_base@DV?$stream_output_adapter@D@__crt_stdio_output@@@__crt_stdio_output@@IEAA_NAEA_J@Z 000000018005daf0 f i libucrtd:output.obj
 0001:0005cc70       ??$extract_argument_from_va_list@_K_J@?$positional_parameter_base@DV?$string_output_adapter@D@__crt_stdio_output@@@__crt_stdio_output@@IEAA_NAEA_J@Z 000000018005dc70 f i libucrtd:output.obj
 0001:0005cdf0       ??$extract_argument_from_va_list@_K_J@?$positional_parameter_base@_WV?$stream_output_adapter@_W@__crt_stdio_output@@@__crt_stdio_output@@IEAA_NAEA_J@Z 000000018005ddf0 f i libucrtd:output.obj
 0001:0005cf70       ??$extract_argument_from_va_list@_K_J@?$positional_parameter_base@_WV?$string_output_adapter@_W@__crt_stdio_output@@@__crt_stdio_output@@IEAA_NAEA_J@Z 000000018005df70 f i libucrtd:output.obj
 0001:0005d0f0       ??$extract_argument_from_va_list@_K_J@?$standard_base@DV?$stream_output_adapter@D@__crt_stdio_output@@@__crt_stdio_output@@IEAA_NAEA_J@Z 000000018005e0f0 f i libucrtd:output.obj
 0001:0005d120       ??$extract_argument_from_va_list@_K_J@?$standard_base@DV?$string_output_adapter@D@__crt_stdio_output@@@__crt_stdio_output@@IEAA_NAEA_J@Z 000000018005e120 f i libucrtd:output.obj
 0001:0005d150       ??$extract_argument_from_va_list@_K_J@?$standard_base@_WV?$stream_output_adapter@_W@__crt_stdio_output@@@__crt_stdio_output@@IEAA_NAEA_J@Z 000000018005e150 f i libucrtd:output.obj
 0001:0005d180       ??$extract_argument_from_va_list@_K_J@?$standard_base@_WV?$string_output_adapter@_W@__crt_stdio_output@@@__crt_stdio_output@@IEAA_NAEA_J@Z 000000018005e180 f i libucrtd:output.obj
 0001:0005d1b0       ??$extract_argument_from_va_list@_W_W@?$positional_parameter_base@DV?$stream_output_adapter@D@__crt_stdio_output@@@__crt_stdio_output@@IEAA_NAEA_W@Z 000000018005e1b0 f i libucrtd:output.obj
 0001:0005d330       ??$extract_argument_from_va_list@_W_W@?$positional_parameter_base@DV?$string_output_adapter@D@__crt_stdio_output@@@__crt_stdio_output@@IEAA_NAEA_W@Z 000000018005e330 f i libucrtd:output.obj
 0001:0005d4b0       ??$extract_argument_from_va_list@_W_W@?$positional_parameter_base@_WV?$stream_output_adapter@_W@__crt_stdio_output@@@__crt_stdio_output@@IEAA_NAEA_W@Z 000000018005e4b0 f i libucrtd:output.obj
 0001:0005d630       ??$extract_argument_from_va_list@_W_W@?$positional_parameter_base@_WV?$string_output_adapter@_W@__crt_stdio_output@@@__crt_stdio_output@@IEAA_NAEA_W@Z 000000018005e630 f i libucrtd:output.obj
 0001:0005d7b0       ??$extract_argument_from_va_list@_W_W@?$standard_base@DV?$stream_output_adapter@D@__crt_stdio_output@@@__crt_stdio_output@@IEAA_NAEA_W@Z 000000018005e7b0 f i libucrtd:output.obj
 0001:0005d7e0       ??$extract_argument_from_va_list@_W_W@?$standard_base@DV?$string_output_adapter@D@__crt_stdio_output@@@__crt_stdio_output@@IEAA_NAEA_W@Z 000000018005e7e0 f i libucrtd:output.obj
 0001:0005d810       ??$extract_argument_from_va_list@_W_W@?$standard_base@_WV?$stream_output_adapter@_W@__crt_stdio_output@@@__crt_stdio_output@@IEAA_NAEA_W@Z 000000018005e810 f i libucrtd:output.obj
 0001:0005d840       ??$extract_argument_from_va_list@_W_W@?$standard_base@_WV?$string_output_adapter@_W@__crt_stdio_output@@@__crt_stdio_output@@IEAA_NAEA_W@Z 000000018005e840 f i libucrtd:output.obj
 0001:0005d870       ??$get_parameter_type@D@?$positional_parameter_base@DV?$stream_output_adapter@D@__crt_stdio_output@@@__crt_stdio_output@@CA?AW4parameter_type@01@PEAD@Z 000000018005e870 f i libucrtd:output.obj
 0001:0005d880       ??$get_parameter_type@D@?$positional_parameter_base@DV?$string_output_adapter@D@__crt_stdio_output@@@__crt_stdio_output@@CA?AW4parameter_type@01@PEAD@Z 000000018005e880 f i libucrtd:output.obj
 0001:0005d890       ??$get_parameter_type@D@?$positional_parameter_base@_WV?$stream_output_adapter@_W@__crt_stdio_output@@@__crt_stdio_output@@CA?AW4parameter_type@01@PEAD@Z 000000018005e890 f i libucrtd:output.obj
 0001:0005d8a0       ??$get_parameter_type@D@?$positional_parameter_base@_WV?$string_output_adapter@_W@__crt_stdio_output@@@__crt_stdio_output@@CA?AW4parameter_type@01@PEAD@Z 000000018005e8a0 f i libucrtd:output.obj
 0001:0005d8f0       ??$get_parameter_type@X@?$positional_parameter_base@DV?$stream_output_adapter@D@__crt_stdio_output@@@__crt_stdio_output@@CA?AW4parameter_type@01@PEAX@Z 000000018005e8f0 f i libucrtd:output.obj
 0001:0005d900       ??$get_parameter_type@X@?$positional_parameter_base@DV?$string_output_adapter@D@__crt_stdio_output@@@__crt_stdio_output@@CA?AW4parameter_type@01@PEAX@Z 000000018005e900 f i libucrtd:output.obj
 0001:0005d910       ??$get_parameter_type@X@?$positional_parameter_base@_WV?$stream_output_adapter@_W@__crt_stdio_output@@@__crt_stdio_output@@CA?AW4parameter_type@01@PEAX@Z 000000018005e910 f i libucrtd:output.obj
 0001:0005d920       ??$get_parameter_type@X@?$positional_parameter_base@_WV?$string_output_adapter@_W@__crt_stdio_output@@@__crt_stdio_output@@CA?AW4parameter_type@01@PEAX@Z 000000018005e920 f i libucrtd:output.obj
 0001:0005d930       ??$is_character_specifier@D@?$positional_parameter_base@DV?$stream_output_adapter@D@__crt_stdio_output@@@__crt_stdio_output@@CA_ND@Z 000000018005e930 f i libucrtd:output.obj
 0001:0005d970       ??$is_character_specifier@D@?$positional_parameter_base@DV?$string_output_adapter@D@__crt_stdio_output@@@__crt_stdio_output@@CA_ND@Z 000000018005e970 f i libucrtd:output.obj
 0001:0005d9b0       ??$is_character_specifier@_W@?$positional_parameter_base@_WV?$stream_output_adapter@_W@__crt_stdio_output@@@__crt_stdio_output@@CA_N_W@Z 000000018005e9b0 f i libucrtd:output.obj
 0001:0005d9f0       ??$is_character_specifier@_W@?$positional_parameter_base@_WV?$string_output_adapter@_W@__crt_stdio_output@@@__crt_stdio_output@@CA_N_W@Z 000000018005e9f0 f i libucrtd:output.obj
 0001:0005da30       ??$is_integral_specifier@D@?$positional_parameter_base@DV?$stream_output_adapter@D@__crt_stdio_output@@@__crt_stdio_output@@CA_ND@Z 000000018005ea30 f i libucrtd:output.obj
 0001:0005daa0       ??$is_integral_specifier@D@?$positional_parameter_base@DV?$string_output_adapter@D@__crt_stdio_output@@@__crt_stdio_output@@CA_ND@Z 000000018005eaa0 f i libucrtd:output.obj
 0001:0005db10       ??$is_integral_specifier@_W@?$positional_parameter_base@_WV?$stream_output_adapter@_W@__crt_stdio_output@@@__crt_stdio_output@@CA_N_W@Z 000000018005eb10 f i libucrtd:output.obj
 0001:0005db80       ??$is_integral_specifier@_W@?$positional_parameter_base@_WV?$string_output_adapter@_W@__crt_stdio_output@@@__crt_stdio_output@@CA_N_W@Z 000000018005eb80 f i libucrtd:output.obj
 0001:0005dbf0       ??$is_pointer_specifier@D@?$positional_parameter_base@DV?$stream_output_adapter@D@__crt_stdio_output@@@__crt_stdio_output@@CA_ND@Z 000000018005ebf0 f i libucrtd:output.obj
 0001:0005dc20       ??$is_pointer_specifier@D@?$positional_parameter_base@DV?$string_output_adapter@D@__crt_stdio_output@@@__crt_stdio_output@@CA_ND@Z 000000018005ec20 f i libucrtd:output.obj
 0001:0005dc50       ??$is_pointer_specifier@_W@?$positional_parameter_base@_WV?$stream_output_adapter@_W@__crt_stdio_output@@@__crt_stdio_output@@CA_N_W@Z 000000018005ec50 f i libucrtd:output.obj
 0001:0005dc80       ??$is_pointer_specifier@_W@?$positional_parameter_base@_WV?$string_output_adapter@_W@__crt_stdio_output@@@__crt_stdio_output@@CA_N_W@Z 000000018005ec80 f i libucrtd:output.obj
 0001:0005dcb0       ??$is_string_specifier@D@?$positional_parameter_base@DV?$stream_output_adapter@D@__crt_stdio_output@@@__crt_stdio_output@@CA_ND@Z 000000018005ecb0 f i libucrtd:output.obj
 0001:0005dcf0       ??$is_string_specifier@D@?$positional_parameter_base@DV?$string_output_adapter@D@__crt_stdio_output@@@__crt_stdio_output@@CA_ND@Z 000000018005ecf0 f i libucrtd:output.obj
 0001:0005dd30       ??$is_string_specifier@_W@?$positional_parameter_base@_WV?$stream_output_adapter@_W@__crt_stdio_output@@@__crt_stdio_output@@CA_N_W@Z 000000018005ed30 f i libucrtd:output.obj
 0001:0005dd70       ??$is_string_specifier@_W@?$positional_parameter_base@_WV?$string_output_adapter@_W@__crt_stdio_output@@@__crt_stdio_output@@CA_N_W@Z 000000018005ed70 f i libucrtd:output.obj
 0001:0005ddb0       ??$is_wide_character_specifier@D@__crt_stdio_output@@YA_N_KDW4length_modifier@0@@Z 000000018005edb0 f i libucrtd:output.obj
 0001:0005de50       ??$is_wide_character_specifier@_W@__crt_stdio_output@@YA_N_K_WW4length_modifier@0@@Z 000000018005ee50 f i libucrtd:output.obj
 0001:0005df20       ??$peek_va_arg@C@__crt_stdio_output@@YACPEAD@Z 000000018005ef20 f i libucrtd:output.obj
 0001:0005df80       ??$peek_va_arg@E@__crt_stdio_output@@YAEPEAD@Z 000000018005ef80 f i libucrtd:output.obj
 0001:0005dfe0       ??$peek_va_arg@F@__crt_stdio_output@@YAFPEAD@Z 000000018005efe0 f i libucrtd:output.obj
 0001:0005e040       ??$peek_va_arg@G@__crt_stdio_output@@YAGPEAD@Z 000000018005f040 f i libucrtd:output.obj
 0001:0005e0a0       ??$peek_va_arg@H@__crt_stdio_output@@YAHPEAD@Z 000000018005f0a0 f i libucrtd:output.obj
 0001:0005e0f0       ??$peek_va_arg@I@__crt_stdio_output@@YAIPEAD@Z 000000018005f0f0 f i libucrtd:output.obj
 0001:0005e140       ??$peek_va_arg@PEAD@__crt_stdio_output@@YAPEADPEAD@Z 000000018005f140 f i libucrtd:output.obj
 0001:0005e320       ??$peek_va_arg@PEAX@__crt_stdio_output@@YAPEAXPEAD@Z 000000018005f320 f i libucrtd:output.obj
 0001:0005e380       ??$peek_va_arg@U_CRT_DOUBLE@@@__crt_stdio_output@@YA?AU_CRT_DOUBLE@@PEAD@Z 000000018005f380 f i libucrtd:output.obj
 0001:0005e3e0       ??$peek_va_arg@_J@__crt_stdio_output@@YA_JPEAD@Z 000000018005f3e0 f i libucrtd:output.obj
 0001:0005e440       ??$peek_va_arg@_K@__crt_stdio_output@@YA_KPEAD@Z 000000018005f440 f i libucrtd:output.obj
 0001:0005e4a0       ??$peek_va_arg@_W@__crt_stdio_output@@YA_WPEAD@Z 000000018005f4a0 f i libucrtd:output.obj
 0001:0005e500       ??$puttc_nolock@AEBDPEAU_iobuf@@@?$__crt_char_traits@D@@SAHAEBD$$QEAPEAU_iobuf@@@Z 000000018005f500 f i libucrtd:output.obj
 0001:0005e530       ??$puttc_nolock@AEB_WPEAU_iobuf@@@?$__crt_char_traits@_W@@SAGAEB_W$$QEAPEAU_iobuf@@@Z 000000018005f530 f i libucrtd:output.obj
 0001:0005e560       ??$read_va_arg@C@__crt_stdio_output@@YACAEAPEAD@Z 000000018005f560 f i libucrtd:output.obj
 0001:0005e5d0       ??$read_va_arg@E@__crt_stdio_output@@YAEAEAPEAD@Z 000000018005f5d0 f i libucrtd:output.obj
 0001:0005e640       ??$read_va_arg@F@__crt_stdio_output@@YAFAEAPEAD@Z 000000018005f640 f i libucrtd:output.obj
 0001:0005e6b0       ??$read_va_arg@G@__crt_stdio_output@@YAGAEAPEAD@Z 000000018005f6b0 f i libucrtd:output.obj
 0001:0005e720       ??$read_va_arg@H@__crt_stdio_output@@YAHAEAPEAD@Z 000000018005f720 f i libucrtd:output.obj
 0001:0005e780       ??$read_va_arg@I@__crt_stdio_output@@YAIAEAPEAD@Z 000000018005f780 f i libucrtd:output.obj
 0001:0005e7e0       ??$read_va_arg@PEAD@__crt_stdio_output@@YAPEADAEAPEAD@Z 000000018005f7e0 f i libucrtd:output.obj
 0001:0005ed90       ??$read_va_arg@PEAX@__crt_stdio_output@@YAPEAXAEAPEAD@Z 000000018005fd90 f i libucrtd:output.obj
 0001:0005ee00       ??$read_va_arg@U_CRT_DOUBLE@@@__crt_stdio_output@@YA?AU_CRT_DOUBLE@@AEAPEAD@Z 000000018005fe00 f i libucrtd:output.obj
 0001:0005ee70       ??$read_va_arg@_J@__crt_stdio_output@@YA_JAEAPEAD@Z 000000018005fe70 f i libucrtd:output.obj
 0001:0005eee0       ??$read_va_arg@_K@__crt_stdio_output@@YA_KAEAPEAD@Z 000000018005fee0 f i libucrtd:output.obj
 0001:0005ef50       ??$read_va_arg@_W@__crt_stdio_output@@YA_WAEAPEAD@Z 000000018005ff50 f i libucrtd:output.obj
 0001:0005efc0       ??$scratch_count@D@formatting_buffer@__crt_stdio_output@@QEBA_KXZ 000000018005ffc0 f i libucrtd:output.obj
 0001:0005efe0       ??$scratch_data@D@formatting_buffer@__crt_stdio_output@@QEAAPEADXZ 000000018005ffe0 f i libucrtd:output.obj
 0001:0005f050       ??$tcstol@AEAPEBDPEAPEADH@?$__crt_char_traits@D@@SAJAEAPEBD$$QEAPEAPEAD$$QEAH@Z 0000000180060050 f i libucrtd:output.obj
 0001:0005f090       ??$tcstol@AEAPEB_WPEAPEA_WH@?$__crt_char_traits@_W@@SAJAEAPEB_W$$QEAPEAPEA_W$$QEAH@Z 0000000180060090 f i libucrtd:output.obj
 0001:0005f0d0       ??$tcstol@PEBDPEAPEADH@?$__crt_char_traits@D@@SAJ$$QEAPEBD$$QEAPEAPEAD$$QEAH@Z 00000001800600d0 f i libucrtd:output.obj
 0001:0005f110       ??$tcstol@PEB_WPEAPEA_WH@?$__crt_char_traits@_W@@SAJ$$QEAPEB_W$$QEAPEAPEA_W$$QEAH@Z 0000000180060110 f i libucrtd:output.obj
 0001:0005f150       ??$type_case_integer_parse_into_buffer@I@?$output_processor@DV?$stream_output_adapter@D@__crt_stdio_output@@V?$format_validation_base@DV?$stream_output_adapter@D@__crt_stdio_output@@@2@@__crt_stdio_output@@AEAAXII_N@Z 0000000180060150 f i libucrtd:output.obj
 0001:0005f280       ??$type_case_integer_parse_into_buffer@I@?$output_processor@DV?$stream_output_adapter@D@__crt_stdio_output@@V?$positional_parameter_base@DV?$stream_output_adapter@D@__crt_stdio_output@@@2@@__crt_stdio_output@@AEAAXII_N@Z 0000000180060280 f i libucrtd:output.obj
 0001:0005f3b0       ??$type_case_integer_parse_into_buffer@I@?$output_processor@DV?$stream_output_adapter@D@__crt_stdio_output@@V?$standard_base@DV?$stream_output_adapter@D@__crt_stdio_output@@@2@@__crt_stdio_output@@AEAAXII_N@Z 00000001800603b0 f i libucrtd:output.obj
 0001:0005f4e0       ??$type_case_integer_parse_into_buffer@I@?$output_processor@DV?$string_output_adapter@D@__crt_stdio_output@@V?$format_validation_base@DV?$string_output_adapter@D@__crt_stdio_output@@@2@@__crt_stdio_output@@AEAAXII_N@Z 00000001800604e0 f i libucrtd:output.obj
 0001:0005f610       ??$type_case_integer_parse_into_buffer@I@?$output_processor@DV?$string_output_adapter@D@__crt_stdio_output@@V?$positional_parameter_base@DV?$string_output_adapter@D@__crt_stdio_output@@@2@@__crt_stdio_output@@AEAAXII_N@Z 0000000180060610 f i libucrtd:output.obj
 0001:0005f740       ??$type_case_integer_parse_into_buffer@I@?$output_processor@DV?$string_output_adapter@D@__crt_stdio_output@@V?$standard_base@DV?$string_output_adapter@D@__crt_stdio_output@@@2@@__crt_stdio_output@@AEAAXII_N@Z 0000000180060740 f i libucrtd:output.obj
 0001:0005f870       ??$type_case_integer_parse_into_buffer@I@?$output_processor@_WV?$stream_output_adapter@_W@__crt_stdio_output@@V?$format_validation_base@_WV?$stream_output_adapter@_W@__crt_stdio_output@@@2@@__crt_stdio_output@@AEAAXII_N@Z 0000000180060870 f i libucrtd:output.obj
 0001:0005f9b0       ??$type_case_integer_parse_into_buffer@I@?$output_processor@_WV?$stream_output_adapter@_W@__crt_stdio_output@@V?$positional_parameter_base@_WV?$stream_output_adapter@_W@__crt_stdio_output@@@2@@__crt_stdio_output@@AEAAXII_N@Z 00000001800609b0 f i libucrtd:output.obj
 0001:0005faf0       ??$type_case_integer_parse_into_buffer@I@?$output_processor@_WV?$stream_output_adapter@_W@__crt_stdio_output@@V?$standard_base@_WV?$stream_output_adapter@_W@__crt_stdio_output@@@2@@__crt_stdio_output@@AEAAXII_N@Z 0000000180060af0 f i libucrtd:output.obj
 0001:0005fc30       ??$type_case_integer_parse_into_buffer@I@?$output_processor@_WV?$string_output_adapter@_W@__crt_stdio_output@@V?$format_validation_base@_WV?$string_output_adapter@_W@__crt_stdio_output@@@2@@__crt_stdio_output@@AEAAXII_N@Z 0000000180060c30 f i libucrtd:output.obj
 0001:0005fd70       ??$type_case_integer_parse_into_buffer@I@?$output_processor@_WV?$string_output_adapter@_W@__crt_stdio_output@@V?$positional_parameter_base@_WV?$string_output_adapter@_W@__crt_stdio_output@@@2@@__crt_stdio_output@@AEAAXII_N@Z 0000000180060d70 f i libucrtd:output.obj
 0001:0005feb0       ??$type_case_integer_parse_into_buffer@I@?$output_processor@_WV?$string_output_adapter@_W@__crt_stdio_output@@V?$standard_base@_WV?$string_output_adapter@_W@__crt_stdio_output@@@2@@__crt_stdio_output@@AEAAXII_N@Z 0000000180060eb0 f i libucrtd:output.obj
 0001:0005fff0       ??$type_case_integer_parse_into_buffer@_K@?$output_processor@DV?$stream_output_adapter@D@__crt_stdio_output@@V?$format_validation_base@DV?$stream_output_adapter@D@__crt_stdio_output@@@2@@__crt_stdio_output@@AEAAX_KI_N@Z 0000000180060ff0 f i libucrtd:output.obj
 0001:00060140       ??$type_case_integer_parse_into_buffer@_K@?$output_processor@DV?$stream_output_adapter@D@__crt_stdio_output@@V?$positional_parameter_base@DV?$stream_output_adapter@D@__crt_stdio_output@@@2@@__crt_stdio_output@@AEAAX_KI_N@Z 0000000180061140 f i libucrtd:output.obj
 0001:00060290       ??$type_case_integer_parse_into_buffer@_K@?$output_processor@DV?$stream_output_adapter@D@__crt_stdio_output@@V?$standard_base@DV?$stream_output_adapter@D@__crt_stdio_output@@@2@@__crt_stdio_output@@AEAAX_KI_N@Z 0000000180061290 f i libucrtd:output.obj
 0001:000603e0       ??$type_case_integer_parse_into_buffer@_K@?$output_processor@DV?$string_output_adapter@D@__crt_stdio_output@@V?$format_validation_base@DV?$string_output_adapter@D@__crt_stdio_output@@@2@@__crt_stdio_output@@AEAAX_KI_N@Z 00000001800613e0 f i libucrtd:output.obj
 0001:00060530       ??$type_case_integer_parse_into_buffer@_K@?$output_processor@DV?$string_output_adapter@D@__crt_stdio_output@@V?$positional_parameter_base@DV?$string_output_adapter@D@__crt_stdio_output@@@2@@__crt_stdio_output@@AEAAX_KI_N@Z 0000000180061530 f i libucrtd:output.obj
 0001:00060680       ??$type_case_integer_parse_into_buffer@_K@?$output_processor@DV?$string_output_adapter@D@__crt_stdio_output@@V?$standard_base@DV?$string_output_adapter@D@__crt_stdio_output@@@2@@__crt_stdio_output@@AEAAX_KI_N@Z 0000000180061680 f i libucrtd:output.obj
 0001:000607d0       ??$type_case_integer_parse_into_buffer@_K@?$output_processor@_WV?$stream_output_adapter@_W@__crt_stdio_output@@V?$format_validation_base@_WV?$stream_output_adapter@_W@__crt_stdio_output@@@2@@__crt_stdio_output@@AEAAX_KI_N@Z 00000001800617d0 f i libucrtd:output.obj
 0001:00060930       ??$type_case_integer_parse_into_buffer@_K@?$output_processor@_WV?$stream_output_adapter@_W@__crt_stdio_output@@V?$positional_parameter_base@_WV?$stream_output_adapter@_W@__crt_stdio_output@@@2@@__crt_stdio_output@@AEAAX_KI_N@Z 0000000180061930 f i libucrtd:output.obj
 0001:00060a90       ??$type_case_integer_parse_into_buffer@_K@?$output_processor@_WV?$stream_output_adapter@_W@__crt_stdio_output@@V?$standard_base@_WV?$stream_output_adapter@_W@__crt_stdio_output@@@2@@__crt_stdio_output@@AEAAX_KI_N@Z 0000000180061a90 f i libucrtd:output.obj
 0001:00060bf0       ??$type_case_integer_parse_into_buffer@_K@?$output_processor@_WV?$string_output_adapter@_W@__crt_stdio_output@@V?$format_validation_base@_WV?$string_output_adapter@_W@__crt_stdio_output@@@2@@__crt_stdio_output@@AEAAX_KI_N@Z 0000000180061bf0 f i libucrtd:output.obj
 0001:00060d50       ??$type_case_integer_parse_into_buffer@_K@?$output_processor@_WV?$string_output_adapter@_W@__crt_stdio_output@@V?$positional_parameter_base@_WV?$string_output_adapter@_W@__crt_stdio_output@@@2@@__crt_stdio_output@@AEAAX_KI_N@Z 0000000180061d50 f i libucrtd:output.obj
 0001:00060eb0       ??$type_case_integer_parse_into_buffer@_K@?$output_processor@_WV?$string_output_adapter@_W@__crt_stdio_output@@V?$standard_base@_WV?$string_output_adapter@_W@__crt_stdio_output@@@2@@__crt_stdio_output@@AEAAX_KI_N@Z 0000000180061eb0 f i libucrtd:output.obj
 0001:00061010       ??$write_multiple_characters@V?$stream_output_adapter@D@__crt_stdio_output@@D@__crt_stdio_output@@YAXAEBV?$stream_output_adapter@D@0@DHQEAH@Z 0000000180062010 f i libucrtd:output.obj
 0001:00061070       ??$write_multiple_characters@V?$stream_output_adapter@_W@__crt_stdio_output@@D@__crt_stdio_output@@YAXAEBV?$stream_output_adapter@_W@0@DHQEAH@Z 0000000180062070 f i libucrtd:output.obj
 0001:000610d0       ??$write_multiple_characters@V?$string_output_adapter@D@__crt_stdio_output@@D@__crt_stdio_output@@YAXAEBV?$string_output_adapter@D@0@DHQEAH@Z 00000001800620d0 f i libucrtd:output.obj
 0001:00061130       ??$write_multiple_characters@V?$string_output_adapter@_W@__crt_stdio_output@@D@__crt_stdio_output@@YAXAEBV?$string_output_adapter@_W@0@DHQEAH@Z 0000000180062130 f i libucrtd:output.obj
 0001:00061550       ??0?$common_data@D@__crt_stdio_output@@IEAA@XZ 0000000180062550 f i libucrtd:output.obj
 0001:00061620       ??0?$common_data@_W@__crt_stdio_output@@IEAA@XZ 0000000180062620 f i libucrtd:output.obj
 0001:000616f0       ??0?$output_adapter_data@DV?$stream_output_adapter@D@__crt_stdio_output@@@__crt_stdio_output@@IEAA@AEBV?$stream_output_adapter@D@1@_KQEBDQEAU__crt_locale_pointers@@QEAD@Z 00000001800626f0 f i libucrtd:output.obj
 0001:00061770       ??0?$output_adapter_data@DV?$string_output_adapter@D@__crt_stdio_output@@@__crt_stdio_output@@IEAA@AEBV?$string_output_adapter@D@1@_KQEBDQEAU__crt_locale_pointers@@QEAD@Z 0000000180062770 f i libucrtd:output.obj
 0001:000617f0       ??0?$output_adapter_data@_WV?$stream_output_adapter@_W@__crt_stdio_output@@@__crt_stdio_output@@IEAA@AEBV?$stream_output_adapter@_W@1@_KQEB_WQEAU__crt_locale_pointers@@QEAD@Z 00000001800627f0 f i libucrtd:output.obj
 0001:00061870       ??0?$output_adapter_data@_WV?$string_output_adapter@_W@__crt_stdio_output@@@__crt_stdio_output@@IEAA@AEBV?$string_output_adapter@_W@1@_KQEB_WQEAU__crt_locale_pointers@@QEAD@Z 0000000180062870 f i libucrtd:output.obj
 0001:000618f0       ??0?$output_processor@DV?$stream_output_adapter@D@__crt_stdio_output@@V?$format_validation_base@DV?$stream_output_adapter@D@__crt_stdio_output@@@2@@__crt_stdio_output@@QEAA@AEBV?$stream_output_adapter@D@1@_KQEBDQEAU__crt_locale_pointers@@QEAD@Z 00000001800628f0 f i libucrtd:output.obj
 0001:00061940       ??0?$output_processor@DV?$stream_output_adapter@D@__crt_stdio_output@@V?$positional_parameter_base@DV?$stream_output_adapter@D@__crt_stdio_output@@@2@@__crt_stdio_output@@QEAA@AEBV?$stream_output_adapter@D@1@_KQEBDQEAU__crt_locale_pointers@@QEAD@Z 0000000180062940 f i libucrtd:output.obj
 0001:00061990       ??0?$output_processor@DV?$stream_output_adapter@D@__crt_stdio_output@@V?$standard_base@DV?$stream_output_adapter@D@__crt_stdio_output@@@2@@__crt_stdio_output@@QEAA@AEBV?$stream_output_adapter@D@1@_KQEBDQEAU__crt_locale_pointers@@QEAD@Z 0000000180062990 f i libucrtd:output.obj
 0001:000619e0       ??0?$output_processor@DV?$string_output_adapter@D@__crt_stdio_output@@V?$format_validation_base@DV?$string_output_adapter@D@__crt_stdio_output@@@2@@__crt_stdio_output@@QEAA@AEBV?$string_output_adapter@D@1@_KQEBDQEAU__crt_locale_pointers@@QEAD@Z 00000001800629e0 f i libucrtd:output.obj
 0001:00061a30       ??0?$output_processor@DV?$string_output_adapter@D@__crt_stdio_output@@V?$positional_parameter_base@DV?$string_output_adapter@D@__crt_stdio_output@@@2@@__crt_stdio_output@@QEAA@AEBV?$string_output_adapter@D@1@_KQEBDQEAU__crt_locale_pointers@@QEAD@Z 0000000180062a30 f i libucrtd:output.obj
 0001:00061a80       ??0?$output_processor@DV?$string_output_adapter@D@__crt_stdio_output@@V?$standard_base@DV?$string_output_adapter@D@__crt_stdio_output@@@2@@__crt_stdio_output@@QEAA@AEBV?$string_output_adapter@D@1@_KQEBDQEAU__crt_locale_pointers@@QEAD@Z 0000000180062a80 f i libucrtd:output.obj
 0001:00061ad0       ??0?$output_processor@_WV?$stream_output_adapter@_W@__crt_stdio_output@@V?$format_validation_base@_WV?$stream_output_adapter@_W@__crt_stdio_output@@@2@@__crt_stdio_output@@QEAA@AEBV?$stream_output_adapter@_W@1@_KQEB_WQEAU__crt_locale_pointers@@QEAD@Z 0000000180062ad0 f i libucrtd:output.obj
 0001:00061b20       ??0?$output_processor@_WV?$stream_output_adapter@_W@__crt_stdio_output@@V?$positional_parameter_base@_WV?$stream_output_adapter@_W@__crt_stdio_output@@@2@@__crt_stdio_output@@QEAA@AEBV?$stream_output_adapter@_W@1@_KQEB_WQEAU__crt_locale_pointers@@QEAD@Z 0000000180062b20 f i libucrtd:output.obj
 0001:00061b70       ??0?$output_processor@_WV?$stream_output_adapter@_W@__crt_stdio_output@@V?$standard_base@_WV?$stream_output_adapter@_W@__crt_stdio_output@@@2@@__crt_stdio_output@@QEAA@AEBV?$stream_output_adapter@_W@1@_KQEB_WQEAU__crt_locale_pointers@@QEAD@Z 0000000180062b70 f i libucrtd:output.obj
 0001:00061bc0       ??0?$output_processor@_WV?$string_output_adapter@_W@__crt_stdio_output@@V?$format_validation_base@_WV?$string_output_adapter@_W@__crt_stdio_output@@@2@@__crt_stdio_output@@QEAA@AEBV?$string_output_adapter@_W@1@_KQEB_WQEAU__crt_locale_pointers@@QEAD@Z 0000000180062bc0 f i libucrtd:output.obj
 0001:00061c10       ??0?$output_processor@_WV?$string_output_adapter@_W@__crt_stdio_output@@V?$positional_parameter_base@_WV?$string_output_adapter@_W@__crt_stdio_output@@@2@@__crt_stdio_output@@QEAA@AEBV?$string_output_adapter@_W@1@_KQEB_WQEAU__crt_locale_pointers@@QEAD@Z 0000000180062c10 f i libucrtd:output.obj
 0001:00061c60       ??0?$output_processor@_WV?$string_output_adapter@_W@__crt_stdio_output@@V?$standard_base@_WV?$string_output_adapter@_W@__crt_stdio_output@@@2@@__crt_stdio_output@@QEAA@AEBV?$string_output_adapter@_W@1@_KQEB_WQEAU__crt_locale_pointers@@QEAD@Z 0000000180062c60 f i libucrtd:output.obj
 0001:00061cb0       ??0?$stream_output_adapter@D@__crt_stdio_output@@QEAA@QEAU_iobuf@@@Z 0000000180062cb0 f i libucrtd:output.obj
 0001:00061ce0       ??0?$stream_output_adapter@_W@__crt_stdio_output@@QEAA@QEAU_iobuf@@@Z 0000000180062ce0 f i libucrtd:output.obj
 0001:00061d10       ??0?$string_output_adapter@D@__crt_stdio_output@@QEAA@QEAU?$string_output_adapter_context@D@1@@Z 0000000180062d10 f i libucrtd:output.obj
 0001:00061d30       ??0?$string_output_adapter@_W@__crt_stdio_output@@QEAA@QEAU?$string_output_adapter_context@_W@1@@Z 0000000180062d30 f i libucrtd:output.obj
 0001:00061d50       ??0_LocaleUpdate@@QEAA@QEAU__crt_locale_pointers@@@Z 0000000180062d50 f i libucrtd:output.obj
 0001:00061e70       ??0__acrt_stdio_temporary_buffering_guard@@QEAA@QEAU_iobuf@@@Z 0000000180062e70 f i libucrtd:output.obj
 0001:00061eb0       ??0__crt_deferred_errno_cache@@QEAA@XZ 0000000180062eb0 f i libucrtd:output.obj
 0001:00061ed0       ??0__crt_errno_guard@@QEAA@QEAH@Z 0000000180062ed0 f i libucrtd:output.obj
 0001:00061f10       ??0__crt_stdio_stream@@QEAA@QEAU_iobuf@@@Z 0000000180062f10 f i libucrtd:output.obj
 0001:00061f30       ??0formatting_buffer@__crt_stdio_output@@QEAA@XZ 0000000180062f30 f i libucrtd:output.obj
 0001:00061f70       ??1?$common_data@D@__crt_stdio_output@@QEAA@XZ 0000000180062f70 f i libucrtd:output.obj
 0001:00061f90       ??1?$common_data@_W@__crt_stdio_output@@QEAA@XZ 0000000180062f90 f i libucrtd:output.obj
 0001:00061fb0       ??1?$format_validation_base@DV?$stream_output_adapter@D@__crt_stdio_output@@@__crt_stdio_output@@QEAA@XZ 0000000180062fb0 f i libucrtd:output.obj
 0001:00061fd0       ??1?$format_validation_base@DV?$string_output_adapter@D@__crt_stdio_output@@@__crt_stdio_output@@QEAA@XZ 0000000180062fd0 f i libucrtd:output.obj
 0001:00061ff0       ??1?$format_validation_base@_WV?$stream_output_adapter@_W@__crt_stdio_output@@@__crt_stdio_output@@QEAA@XZ 0000000180062ff0 f i libucrtd:output.obj
 0001:00062010       ??1?$format_validation_base@_WV?$string_output_adapter@_W@__crt_stdio_output@@@__crt_stdio_output@@QEAA@XZ 0000000180063010 f i libucrtd:output.obj
 0001:00062030       ??1?$output_adapter_data@DV?$stream_output_adapter@D@__crt_stdio_output@@@__crt_stdio_output@@QEAA@XZ 0000000180063030 f i libucrtd:output.obj
 0001:00062050       ??1?$output_adapter_data@DV?$string_output_adapter@D@__crt_stdio_output@@@__crt_stdio_output@@QEAA@XZ 0000000180063050 f i libucrtd:output.obj
 0001:00062070       ??1?$output_adapter_data@_WV?$stream_output_adapter@_W@__crt_stdio_output@@@__crt_stdio_output@@QEAA@XZ 0000000180063070 f i libucrtd:output.obj
 0001:00062090       ??1?$output_adapter_data@_WV?$string_output_adapter@_W@__crt_stdio_output@@@__crt_stdio_output@@QEAA@XZ 0000000180063090 f i libucrtd:output.obj
 0001:000620b0       ??1?$output_processor@DV?$stream_output_adapter@D@__crt_stdio_output@@V?$format_validation_base@DV?$stream_output_adapter@D@__crt_stdio_output@@@2@@__crt_stdio_output@@QEAA@XZ 00000001800630b0 f i libucrtd:output.obj
 0001:000620d0       ??1?$output_processor@DV?$stream_output_adapter@D@__crt_stdio_output@@V?$positional_parameter_base@DV?$stream_output_adapter@D@__crt_stdio_output@@@2@@__crt_stdio_output@@QEAA@XZ 00000001800630d0 f i libucrtd:output.obj
 0001:000620f0       ??1?$output_processor@DV?$stream_output_adapter@D@__crt_stdio_output@@V?$standard_base@DV?$stream_output_adapter@D@__crt_stdio_output@@@2@@__crt_stdio_output@@QEAA@XZ 00000001800630f0 f i libucrtd:output.obj
 0001:00062110       ??1?$output_processor@DV?$string_output_adapter@D@__crt_stdio_output@@V?$format_validation_base@DV?$string_output_adapter@D@__crt_stdio_output@@@2@@__crt_stdio_output@@QEAA@XZ 0000000180063110 f i libucrtd:output.obj
 0001:00062130       ??1?$output_processor@DV?$string_output_adapter@D@__crt_stdio_output@@V?$positional_parameter_base@DV?$string_output_adapter@D@__crt_stdio_output@@@2@@__crt_stdio_output@@QEAA@XZ 0000000180063130 f i libucrtd:output.obj
 0001:00062150       ??1?$output_processor@DV?$string_output_adapter@D@__crt_stdio_output@@V?$standard_base@DV?$string_output_adapter@D@__crt_stdio_output@@@2@@__crt_stdio_output@@QEAA@XZ 0000000180063150 f i libucrtd:output.obj
 0001:00062170       ??1?$output_processor@_WV?$stream_output_adapter@_W@__crt_stdio_output@@V?$format_validation_base@_WV?$stream_output_adapter@_W@__crt_stdio_output@@@2@@__crt_stdio_output@@QEAA@XZ 0000000180063170 f i libucrtd:output.obj
 0001:00062190       ??1?$output_processor@_WV?$stream_output_adapter@_W@__crt_stdio_output@@V?$positional_parameter_base@_WV?$stream_output_adapter@_W@__crt_stdio_output@@@2@@__crt_stdio_output@@QEAA@XZ 0000000180063190 f i libucrtd:output.obj
 0001:000621b0       ??1?$output_processor@_WV?$stream_output_adapter@_W@__crt_stdio_output@@V?$standard_base@_WV?$stream_output_adapter@_W@__crt_stdio_output@@@2@@__crt_stdio_output@@QEAA@XZ 00000001800631b0 f i libucrtd:output.obj
 0001:000621d0       ??1?$output_processor@_WV?$string_output_adapter@_W@__crt_stdio_output@@V?$format_validation_base@_WV?$string_output_adapter@_W@__crt_stdio_output@@@2@@__crt_stdio_output@@QEAA@XZ 00000001800631d0 f i libucrtd:output.obj
 0001:000621f0       ??1?$output_processor@_WV?$string_output_adapter@_W@__crt_stdio_output@@V?$positional_parameter_base@_WV?$string_output_adapter@_W@__crt_stdio_output@@@2@@__crt_stdio_output@@QEAA@XZ 00000001800631f0 f i libucrtd:output.obj
 0001:00062210       ??1?$output_processor@_WV?$string_output_adapter@_W@__crt_stdio_output@@V?$standard_base@_WV?$string_output_adapter@_W@__crt_stdio_output@@@2@@__crt_stdio_output@@QEAA@XZ 0000000180063210 f i libucrtd:output.obj
 0001:00062230       ??1?$positional_parameter_base@DV?$stream_output_adapter@D@__crt_stdio_output@@@__crt_stdio_output@@QEAA@XZ 0000000180063230 f i libucrtd:output.obj
 0001:00062250       ??1?$positional_parameter_base@DV?$string_output_adapter@D@__crt_stdio_output@@@__crt_stdio_output@@QEAA@XZ 0000000180063250 f i libucrtd:output.obj
 0001:00062270       ??1?$positional_parameter_base@_WV?$stream_output_adapter@_W@__crt_stdio_output@@@__crt_stdio_output@@QEAA@XZ 0000000180063270 f i libucrtd:output.obj
 0001:00062290       ??1?$positional_parameter_base@_WV?$string_output_adapter@_W@__crt_stdio_output@@@__crt_stdio_output@@QEAA@XZ 0000000180063290 f i libucrtd:output.obj
 0001:000622b0       ??1?$standard_base@DV?$stream_output_adapter@D@__crt_stdio_output@@@__crt_stdio_output@@QEAA@XZ 00000001800632b0 f i libucrtd:output.obj
 0001:000622d0       ??1?$standard_base@DV?$string_output_adapter@D@__crt_stdio_output@@@__crt_stdio_output@@QEAA@XZ 00000001800632d0 f i libucrtd:output.obj
 0001:000622f0       ??1?$standard_base@_WV?$stream_output_adapter@_W@__crt_stdio_output@@@__crt_stdio_output@@QEAA@XZ 00000001800632f0 f i libucrtd:output.obj
 0001:00062310       ??1?$standard_base@_WV?$string_output_adapter@_W@__crt_stdio_output@@@__crt_stdio_output@@QEAA@XZ 0000000180063310 f i libucrtd:output.obj
 0001:00062330       ??1_LocaleUpdate@@QEAA@XZ  0000000180063330 f i libucrtd:output.obj
 0001:00062370       ??1__acrt_stdio_temporary_buffering_guard@@QEAA@XZ 0000000180063370 f i libucrtd:output.obj
 0001:000623a0       ??1__crt_errno_guard@@QEAA@XZ 00000001800633a0 f i libucrtd:output.obj
 0001:000623d0       ??1formatting_buffer@__crt_stdio_output@@QEAA@XZ 00000001800633d0 f i libucrtd:output.obj
 0001:00062400       ??4?$__crt_unique_heap_ptr@DU__crt_internal_free_policy@@@@QEAAAEAV0@$$QEAV0@@Z 0000000180063400 f i libucrtd:output.obj
 0001:00062440       ??C__crt_stdio_stream@@QEBAPEAU__crt_stdio_stream_data@@XZ 0000000180063440 f i libucrtd:output.obj
 0001:00062cf0       ?GetLocaleT@_LocaleUpdate@@QEAAPEAU__crt_locale_pointers@@XZ 0000000180063cf0 f i libucrtd:output.obj
 0001:00062d00       ?__crt_interlocked_read_32@@YAHPEDH@Z 0000000180063d00 f i libucrtd:output.obj
 0001:00062d20       ?adjust_hexit@?$output_processor@DV?$stream_output_adapter@D@__crt_stdio_output@@V?$format_validation_base@DV?$stream_output_adapter@D@__crt_stdio_output@@@2@@__crt_stdio_output@@CADH_N@Z 0000000180063d20 f i libucrtd:output.obj
 0001:00062d70       ?adjust_hexit@?$output_processor@DV?$stream_output_adapter@D@__crt_stdio_output@@V?$positional_parameter_base@DV?$stream_output_adapter@D@__crt_stdio_output@@@2@@__crt_stdio_output@@CADH_N@Z 0000000180063d70 f i libucrtd:output.obj
 0001:00062dc0       ?adjust_hexit@?$output_processor@DV?$stream_output_adapter@D@__crt_stdio_output@@V?$standard_base@DV?$stream_output_adapter@D@__crt_stdio_output@@@2@@__crt_stdio_output@@CADH_N@Z 0000000180063dc0 f i libucrtd:output.obj
 0001:00062e10       ?adjust_hexit@?$output_processor@DV?$string_output_adapter@D@__crt_stdio_output@@V?$format_validation_base@DV?$string_output_adapter@D@__crt_stdio_output@@@2@@__crt_stdio_output@@CADH_N@Z 0000000180063e10 f i libucrtd:output.obj
 0001:00062e60       ?adjust_hexit@?$output_processor@DV?$string_output_adapter@D@__crt_stdio_output@@V?$positional_parameter_base@DV?$string_output_adapter@D@__crt_stdio_output@@@2@@__crt_stdio_output@@CADH_N@Z 0000000180063e60 f i libucrtd:output.obj
 0001:00062eb0       ?adjust_hexit@?$output_processor@DV?$string_output_adapter@D@__crt_stdio_output@@V?$standard_base@DV?$string_output_adapter@D@__crt_stdio_output@@@2@@__crt_stdio_output@@CADH_N@Z 0000000180063eb0 f i libucrtd:output.obj
 0001:00062f00       ?adjust_hexit@?$output_processor@_WV?$stream_output_adapter@_W@__crt_stdio_output@@V?$format_validation_base@_WV?$stream_output_adapter@_W@__crt_stdio_output@@@2@@__crt_stdio_output@@CADH_N@Z 0000000180063f00 f i libucrtd:output.obj
 0001:00062f50       ?adjust_hexit@?$output_processor@_WV?$stream_output_adapter@_W@__crt_stdio_output@@V?$positional_parameter_base@_WV?$stream_output_adapter@_W@__crt_stdio_output@@@2@@__crt_stdio_output@@CADH_N@Z 0000000180063f50 f i libucrtd:output.obj
 0001:00062fa0       ?adjust_hexit@?$output_processor@_WV?$stream_output_adapter@_W@__crt_stdio_output@@V?$standard_base@_WV?$stream_output_adapter@_W@__crt_stdio_output@@@2@@__crt_stdio_output@@CADH_N@Z 0000000180063fa0 f i libucrtd:output.obj
 0001:00062ff0       ?adjust_hexit@?$output_processor@_WV?$string_output_adapter@_W@__crt_stdio_output@@V?$format_validation_base@_WV?$string_output_adapter@_W@__crt_stdio_output@@@2@@__crt_stdio_output@@CADH_N@Z 0000000180063ff0 f i libucrtd:output.obj
 0001:00063040       ?adjust_hexit@?$output_processor@_WV?$string_output_adapter@_W@__crt_stdio_output@@V?$positional_parameter_base@_WV?$string_output_adapter@_W@__crt_stdio_output@@@2@@__crt_stdio_output@@CADH_N@Z 0000000180064040 f i libucrtd:output.obj
 0001:00063090       ?adjust_hexit@?$output_processor@_WV?$string_output_adapter@_W@__crt_stdio_output@@V?$standard_base@_WV?$string_output_adapter@_W@__crt_stdio_output@@@2@@__crt_stdio_output@@CADH_N@Z 0000000180064090 f i libucrtd:output.obj
 0001:000630e0       ?advance_to_next_pass@?$positional_parameter_base@DV?$stream_output_adapter@D@__crt_stdio_output@@@__crt_stdio_output@@IEAA_NXZ 00000001800640e0 f i libucrtd:output.obj
 0001:00063190       ?advance_to_next_pass@?$positional_parameter_base@DV?$string_output_adapter@D@__crt_stdio_output@@@__crt_stdio_output@@IEAA_NXZ 0000000180064190 f i libucrtd:output.obj
 0001:00063240       ?advance_to_next_pass@?$positional_parameter_base@_WV?$stream_output_adapter@_W@__crt_stdio_output@@@__crt_stdio_output@@IEAA_NXZ 0000000180064240 f i libucrtd:output.obj
 0001:000632f0       ?advance_to_next_pass@?$positional_parameter_base@_WV?$string_output_adapter@_W@__crt_stdio_output@@@__crt_stdio_output@@IEAA_NXZ 00000001800642f0 f i libucrtd:output.obj
 0001:000633a0       ?advance_to_next_pass@?$standard_base@DV?$stream_output_adapter@D@__crt_stdio_output@@@__crt_stdio_output@@IEAA_NXZ 00000001800643a0 f i libucrtd:output.obj
 0001:000633f0       ?advance_to_next_pass@?$standard_base@DV?$string_output_adapter@D@__crt_stdio_output@@@__crt_stdio_output@@IEAA_NXZ 00000001800643f0 f i libucrtd:output.obj
 0001:00063440       ?advance_to_next_pass@?$standard_base@_WV?$stream_output_adapter@_W@__crt_stdio_output@@@__crt_stdio_output@@IEAA_NXZ 0000000180064440 f i libucrtd:output.obj
 0001:00063490       ?advance_to_next_pass@?$standard_base@_WV?$string_output_adapter@_W@__crt_stdio_output@@@__crt_stdio_output@@IEAA_NXZ 0000000180064490 f i libucrtd:output.obj
 0001:000634e0       ?crop_zeroes@__crt_stdio_output@@YAXPEADQEAU__crt_locale_pointers@@@Z 00000001800644e0 f i libucrtd:output.obj
 0001:00063620       ?find_next_state@?$output_processor@DV?$stream_output_adapter@D@__crt_stdio_output@@V?$format_validation_base@DV?$stream_output_adapter@D@__crt_stdio_output@@@2@@__crt_stdio_output@@AEBA?AW4state@2@DW432@@Z 0000000180064620 f i libucrtd:output.obj
 0001:000636c0       ?find_next_state@?$output_processor@DV?$stream_output_adapter@D@__crt_stdio_output@@V?$positional_parameter_base@DV?$stream_output_adapter@D@__crt_stdio_output@@@2@@__crt_stdio_output@@AEBA?AW4state@2@DW432@@Z 00000001800646c0 f i libucrtd:output.obj
 0001:00063760       ?find_next_state@?$output_processor@DV?$stream_output_adapter@D@__crt_stdio_output@@V?$standard_base@DV?$stream_output_adapter@D@__crt_stdio_output@@@2@@__crt_stdio_output@@AEBA?AW4state@2@DW432@@Z 0000000180064760 f i libucrtd:output.obj
 0001:00063800       ?find_next_state@?$output_processor@DV?$string_output_adapter@D@__crt_stdio_output@@V?$format_validation_base@DV?$string_output_adapter@D@__crt_stdio_output@@@2@@__crt_stdio_output@@AEBA?AW4state@2@DW432@@Z 0000000180064800 f i libucrtd:output.obj
 0001:000638a0       ?find_next_state@?$output_processor@DV?$string_output_adapter@D@__crt_stdio_output@@V?$positional_parameter_base@DV?$string_output_adapter@D@__crt_stdio_output@@@2@@__crt_stdio_output@@AEBA?AW4state@2@DW432@@Z 00000001800648a0 f i libucrtd:output.obj
 0001:00063940       ?find_next_state@?$output_processor@DV?$string_output_adapter@D@__crt_stdio_output@@V?$standard_base@DV?$string_output_adapter@D@__crt_stdio_output@@@2@@__crt_stdio_output@@AEBA?AW4state@2@DW432@@Z 0000000180064940 f i libucrtd:output.obj
 0001:000639e0       ?find_next_state@?$output_processor@_WV?$stream_output_adapter@_W@__crt_stdio_output@@V?$format_validation_base@_WV?$stream_output_adapter@_W@__crt_stdio_output@@@2@@__crt_stdio_output@@AEBA?AW4state@2@_WW432@@Z 00000001800649e0 f i libucrtd:output.obj
 0001:00063a80       ?find_next_state@?$output_processor@_WV?$stream_output_adapter@_W@__crt_stdio_output@@V?$positional_parameter_base@_WV?$stream_output_adapter@_W@__crt_stdio_output@@@2@@__crt_stdio_output@@AEBA?AW4state@2@_WW432@@Z 0000000180064a80 f i libucrtd:output.obj
 0001:00063b20       ?find_next_state@?$output_processor@_WV?$stream_output_adapter@_W@__crt_stdio_output@@V?$standard_base@_WV?$stream_output_adapter@_W@__crt_stdio_output@@@2@@__crt_stdio_output@@AEBA?AW4state@2@_WW432@@Z 0000000180064b20 f i libucrtd:output.obj
 0001:00063bc0       ?find_next_state@?$output_processor@_WV?$string_output_adapter@_W@__crt_stdio_output@@V?$format_validation_base@_WV?$string_output_adapter@_W@__crt_stdio_output@@@2@@__crt_stdio_output@@AEBA?AW4state@2@_WW432@@Z 0000000180064bc0 f i libucrtd:output.obj
 0001:00063c60       ?find_next_state@?$output_processor@_WV?$string_output_adapter@_W@__crt_stdio_output@@V?$positional_parameter_base@_WV?$string_output_adapter@_W@__crt_stdio_output@@@2@@__crt_stdio_output@@AEBA?AW4state@2@_WW432@@Z 0000000180064c60 f i libucrtd:output.obj
 0001:00063d00       ?find_next_state@?$output_processor@_WV?$string_output_adapter@_W@__crt_stdio_output@@V?$standard_base@_WV?$string_output_adapter@_W@__crt_stdio_output@@@2@@__crt_stdio_output@@AEBA?AW4state@2@_WW432@@Z 0000000180064d00 f i libucrtd:output.obj
 0001:00063da0       ?force_decimal_point@__crt_stdio_output@@YAXPEADQEAU__crt_locale_pointers@@@Z 0000000180064da0 f i libucrtd:output.obj
 0001:00063ea0       ?get@__crt_deferred_errno_cache@@QEAAAEAHXZ 0000000180064ea0 f i libucrtd:output.obj
 0001:00063ed0       ?get_flags@__crt_stdio_stream@@QEBAJXZ 0000000180064ed0 f i libucrtd:output.obj
 0001:00063f00       ?get_parameter_type@?$positional_parameter_base@DV?$stream_output_adapter@D@__crt_stdio_output@@@__crt_stdio_output@@CA?AW4parameter_type@12@F@Z 0000000180064f00 f i libucrtd:output.obj
 0001:00063f10       ?get_parameter_type@?$positional_parameter_base@DV?$stream_output_adapter@D@__crt_stdio_output@@@__crt_stdio_output@@CA?AW4parameter_type@12@G@Z 0000000180064f10 f i libucrtd:output.obj
 0001:00063f20       ?get_parameter_type@?$positional_parameter_base@DV?$stream_output_adapter@D@__crt_stdio_output@@@__crt_stdio_output@@CA?AW4parameter_type@12@H@Z 0000000180064f20 f i libucrtd:output.obj
 0001:00063f30       ?get_parameter_type@?$positional_parameter_base@DV?$stream_output_adapter@D@__crt_stdio_output@@@__crt_stdio_output@@CA?AW4parameter_type@12@I@Z 0000000180064f30 f i libucrtd:output.obj
 0001:00063f40       ?get_parameter_type@?$positional_parameter_base@DV?$stream_output_adapter@D@__crt_stdio_output@@@__crt_stdio_output@@CA?AW4parameter_type@12@U_CRT_DOUBLE@@@Z 0000000180064f40 f i libucrtd:output.obj
 0001:00063f50       ?get_parameter_type@?$positional_parameter_base@DV?$stream_output_adapter@D@__crt_stdio_output@@@__crt_stdio_output@@CA?AW4parameter_type@12@_J@Z 0000000180064f50 f i libucrtd:output.obj
 0001:00063f60       ?get_parameter_type@?$positional_parameter_base@DV?$stream_output_adapter@D@__crt_stdio_output@@@__crt_stdio_output@@CA?AW4parameter_type@12@_K@Z 0000000180064f60 f i libucrtd:output.obj
 0001:00063f70       ?get_parameter_type@?$positional_parameter_base@DV?$stream_output_adapter@D@__crt_stdio_output@@@__crt_stdio_output@@CA?AW4parameter_type@12@_W@Z 0000000180064f70 f i libucrtd:output.obj
 0001:00063f80       ?get_parameter_type@?$positional_parameter_base@DV?$string_output_adapter@D@__crt_stdio_output@@@__crt_stdio_output@@CA?AW4parameter_type@12@F@Z 0000000180064f80 f i libucrtd:output.obj
 0001:00063f90       ?get_parameter_type@?$positional_parameter_base@DV?$string_output_adapter@D@__crt_stdio_output@@@__crt_stdio_output@@CA?AW4parameter_type@12@G@Z 0000000180064f90 f i libucrtd:output.obj
 0001:00063fa0       ?get_parameter_type@?$positional_parameter_base@DV?$string_output_adapter@D@__crt_stdio_output@@@__crt_stdio_output@@CA?AW4parameter_type@12@H@Z 0000000180064fa0 f i libucrtd:output.obj
 0001:00063fb0       ?get_parameter_type@?$positional_parameter_base@DV?$string_output_adapter@D@__crt_stdio_output@@@__crt_stdio_output@@CA?AW4parameter_type@12@I@Z 0000000180064fb0 f i libucrtd:output.obj
 0001:00063fc0       ?get_parameter_type@?$positional_parameter_base@DV?$string_output_adapter@D@__crt_stdio_output@@@__crt_stdio_output@@CA?AW4parameter_type@12@U_CRT_DOUBLE@@@Z 0000000180064fc0 f i libucrtd:output.obj
 0001:00063fd0       ?get_parameter_type@?$positional_parameter_base@DV?$string_output_adapter@D@__crt_stdio_output@@@__crt_stdio_output@@CA?AW4parameter_type@12@_J@Z 0000000180064fd0 f i libucrtd:output.obj
 0001:00063fe0       ?get_parameter_type@?$positional_parameter_base@DV?$string_output_adapter@D@__crt_stdio_output@@@__crt_stdio_output@@CA?AW4parameter_type@12@_K@Z 0000000180064fe0 f i libucrtd:output.obj
 0001:00063ff0       ?get_parameter_type@?$positional_parameter_base@DV?$string_output_adapter@D@__crt_stdio_output@@@__crt_stdio_output@@CA?AW4parameter_type@12@_W@Z 0000000180064ff0 f i libucrtd:output.obj
 0001:00064000       ?get_parameter_type@?$positional_parameter_base@_WV?$stream_output_adapter@_W@__crt_stdio_output@@@__crt_stdio_output@@CA?AW4parameter_type@12@F@Z 0000000180065000 f i libucrtd:output.obj
 0001:00064010       ?get_parameter_type@?$positional_parameter_base@_WV?$stream_output_adapter@_W@__crt_stdio_output@@@__crt_stdio_output@@CA?AW4parameter_type@12@G@Z 0000000180065010 f i libucrtd:output.obj
 0001:00064020       ?get_parameter_type@?$positional_parameter_base@_WV?$stream_output_adapter@_W@__crt_stdio_output@@@__crt_stdio_output@@CA?AW4parameter_type@12@H@Z 0000000180065020 f i libucrtd:output.obj
 0001:00064030       ?get_parameter_type@?$positional_parameter_base@_WV?$stream_output_adapter@_W@__crt_stdio_output@@@__crt_stdio_output@@CA?AW4parameter_type@12@I@Z 0000000180065030 f i libucrtd:output.obj
 0001:00064040       ?get_parameter_type@?$positional_parameter_base@_WV?$stream_output_adapter@_W@__crt_stdio_output@@@__crt_stdio_output@@CA?AW4parameter_type@12@U_CRT_DOUBLE@@@Z 0000000180065040 f i libucrtd:output.obj
 0001:00064050       ?get_parameter_type@?$positional_parameter_base@_WV?$stream_output_adapter@_W@__crt_stdio_output@@@__crt_stdio_output@@CA?AW4parameter_type@12@_J@Z 0000000180065050 f i libucrtd:output.obj
 0001:00064060       ?get_parameter_type@?$positional_parameter_base@_WV?$stream_output_adapter@_W@__crt_stdio_output@@@__crt_stdio_output@@CA?AW4parameter_type@12@_K@Z 0000000180065060 f i libucrtd:output.obj
 0001:00064070       ?get_parameter_type@?$positional_parameter_base@_WV?$stream_output_adapter@_W@__crt_stdio_output@@@__crt_stdio_output@@CA?AW4parameter_type@12@_W@Z 0000000180065070 f i libucrtd:output.obj
 0001:00064080       ?get_parameter_type@?$positional_parameter_base@_WV?$string_output_adapter@_W@__crt_stdio_output@@@__crt_stdio_output@@CA?AW4parameter_type@12@F@Z 0000000180065080 f i libucrtd:output.obj
 0001:00064090       ?get_parameter_type@?$positional_parameter_base@_WV?$string_output_adapter@_W@__crt_stdio_output@@@__crt_stdio_output@@CA?AW4parameter_type@12@G@Z 0000000180065090 f i libucrtd:output.obj
 0001:000640a0       ?get_parameter_type@?$positional_parameter_base@_WV?$string_output_adapter@_W@__crt_stdio_output@@@__crt_stdio_output@@CA?AW4parameter_type@12@H@Z 00000001800650a0 f i libucrtd:output.obj
 0001:000640b0       ?get_parameter_type@?$positional_parameter_base@_WV?$string_output_adapter@_W@__crt_stdio_output@@@__crt_stdio_output@@CA?AW4parameter_type@12@I@Z 00000001800650b0 f i libucrtd:output.obj
 0001:000640c0       ?get_parameter_type@?$positional_parameter_base@_WV?$string_output_adapter@_W@__crt_stdio_output@@@__crt_stdio_output@@CA?AW4parameter_type@12@U_CRT_DOUBLE@@@Z 00000001800650c0 f i libucrtd:output.obj
 0001:000640d0       ?get_parameter_type@?$positional_parameter_base@_WV?$string_output_adapter@_W@__crt_stdio_output@@@__crt_stdio_output@@CA?AW4parameter_type@12@_J@Z 00000001800650d0 f i libucrtd:output.obj
 0001:000640e0       ?get_parameter_type@?$positional_parameter_base@_WV?$string_output_adapter@_W@__crt_stdio_output@@@__crt_stdio_output@@CA?AW4parameter_type@12@_K@Z 00000001800650e0 f i libucrtd:output.obj
 0001:000640f0       ?get_parameter_type@?$positional_parameter_base@_WV?$string_output_adapter@_W@__crt_stdio_output@@@__crt_stdio_output@@CA?AW4parameter_type@12@_W@Z 00000001800650f0 f i libucrtd:output.obj
 0001:00064100       ?has_flag@?$output_processor@DV?$stream_output_adapter@D@__crt_stdio_output@@V?$format_validation_base@DV?$stream_output_adapter@D@__crt_stdio_output@@@2@@__crt_stdio_output@@AEBA_NI@Z 0000000180065100 f i libucrtd:output.obj
 0001:00064140       ?has_flag@?$output_processor@DV?$stream_output_adapter@D@__crt_stdio_output@@V?$positional_parameter_base@DV?$stream_output_adapter@D@__crt_stdio_output@@@2@@__crt_stdio_output@@AEBA_NI@Z 0000000180065140 f i libucrtd:output.obj
 0001:00064180       ?has_flag@?$output_processor@DV?$stream_output_adapter@D@__crt_stdio_output@@V?$standard_base@DV?$stream_output_adapter@D@__crt_stdio_output@@@2@@__crt_stdio_output@@AEBA_NI@Z 0000000180065180 f i libucrtd:output.obj
 0001:000641c0       ?has_flag@?$output_processor@DV?$string_output_adapter@D@__crt_stdio_output@@V?$format_validation_base@DV?$string_output_adapter@D@__crt_stdio_output@@@2@@__crt_stdio_output@@AEBA_NI@Z 00000001800651c0 f i libucrtd:output.obj
 0001:00064200       ?has_flag@?$output_processor@DV?$string_output_adapter@D@__crt_stdio_output@@V?$positional_parameter_base@DV?$string_output_adapter@D@__crt_stdio_output@@@2@@__crt_stdio_output@@AEBA_NI@Z 0000000180065200 f i libucrtd:output.obj
 0001:00064240       ?has_flag@?$output_processor@DV?$string_output_adapter@D@__crt_stdio_output@@V?$standard_base@DV?$string_output_adapter@D@__crt_stdio_output@@@2@@__crt_stdio_output@@AEBA_NI@Z 0000000180065240 f i libucrtd:output.obj
 0001:00064280       ?has_flag@?$output_processor@_WV?$stream_output_adapter@_W@__crt_stdio_output@@V?$format_validation_base@_WV?$stream_output_adapter@_W@__crt_stdio_output@@@2@@__crt_stdio_output@@AEBA_NI@Z 0000000180065280 f i libucrtd:output.obj
 0001:000642c0       ?has_flag@?$output_processor@_WV?$stream_output_adapter@_W@__crt_stdio_output@@V?$positional_parameter_base@_WV?$stream_output_adapter@_W@__crt_stdio_output@@@2@@__crt_stdio_output@@AEBA_NI@Z 00000001800652c0 f i libucrtd:output.obj
 0001:00064300       ?has_flag@?$output_processor@_WV?$stream_output_adapter@_W@__crt_stdio_output@@V?$standard_base@_WV?$stream_output_adapter@_W@__crt_stdio_output@@@2@@__crt_stdio_output@@AEBA_NI@Z 0000000180065300 f i libucrtd:output.obj
 0001:00064340       ?has_flag@?$output_processor@_WV?$string_output_adapter@_W@__crt_stdio_output@@V?$format_validation_base@_WV?$string_output_adapter@_W@__crt_stdio_output@@@2@@__crt_stdio_output@@AEBA_NI@Z 0000000180065340 f i libucrtd:output.obj
 0001:00064380       ?has_flag@?$output_processor@_WV?$string_output_adapter@_W@__crt_stdio_output@@V?$positional_parameter_base@_WV?$string_output_adapter@_W@__crt_stdio_output@@@2@@__crt_stdio_output@@AEBA_NI@Z 0000000180065380 f i libucrtd:output.obj
 0001:000643c0       ?has_flag@?$output_processor@_WV?$string_output_adapter@_W@__crt_stdio_output@@V?$standard_base@_WV?$string_output_adapter@_W@__crt_stdio_output@@@2@@__crt_stdio_output@@AEBA_NI@Z 00000001800653c0 f i libucrtd:output.obj
 0001:00064400       ?is_positional_parameter_reappearance_consistent@?$positional_parameter_base@DV?$stream_output_adapter@D@__crt_stdio_output@@@__crt_stdio_output@@AEAA_NAEBUparameter_data@12@W4parameter_type@12@DW4length_modifier@2@@Z 0000000180065400 f i libucrtd:output.obj
 0001:00064660       ?is_positional_parameter_reappearance_consistent@?$positional_parameter_base@DV?$string_output_adapter@D@__crt_stdio_output@@@__crt_stdio_output@@AEAA_NAEBUparameter_data@12@W4parameter_type@12@DW4length_modifier@2@@Z 0000000180065660 f i libucrtd:output.obj
 0001:000648c0       ?is_positional_parameter_reappearance_consistent@?$positional_parameter_base@_WV?$stream_output_adapter@_W@__crt_stdio_output@@@__crt_stdio_output@@AEAA_NAEBUparameter_data@12@W4parameter_type@12@_WW4length_modifier@2@@Z 00000001800658c0 f i libucrtd:output.obj
 0001:00064b20       ?is_positional_parameter_reappearance_consistent@?$positional_parameter_base@_WV?$string_output_adapter@_W@__crt_stdio_output@@@__crt_stdio_output@@AEAA_NAEBUparameter_data@12@W4parameter_type@12@_WW4length_modifier@2@@Z 0000000180065b20 f i libucrtd:output.obj
 0001:00064d80       ?is_string_backed@__crt_stdio_stream@@QEBA_NXZ 0000000180065d80 f i libucrtd:output.obj
 0001:00064dc0       ?narrow_null_string@?$output_processor@DV?$stream_output_adapter@D@__crt_stdio_output@@V?$format_validation_base@DV?$stream_output_adapter@D@__crt_stdio_output@@@2@@__crt_stdio_output@@CAPEADXZ 0000000180065dc0 f i libucrtd:output.obj
 0001:00064dd0       ?narrow_null_string@?$output_processor@DV?$stream_output_adapter@D@__crt_stdio_output@@V?$positional_parameter_base@DV?$stream_output_adapter@D@__crt_stdio_output@@@2@@__crt_stdio_output@@CAPEADXZ 0000000180065dd0 f i libucrtd:output.obj
 0001:00064de0       ?narrow_null_string@?$output_processor@DV?$stream_output_adapter@D@__crt_stdio_output@@V?$standard_base@DV?$stream_output_adapter@D@__crt_stdio_output@@@2@@__crt_stdio_output@@CAPEADXZ 0000000180065de0 f i libucrtd:output.obj
 0001:00064df0       ?narrow_null_string@?$output_processor@DV?$string_output_adapter@D@__crt_stdio_output@@V?$format_validation_base@DV?$string_output_adapter@D@__crt_stdio_output@@@2@@__crt_stdio_output@@CAPEADXZ 0000000180065df0 f i libucrtd:output.obj
 0001:00064e00       ?narrow_null_string@?$output_processor@DV?$string_output_adapter@D@__crt_stdio_output@@V?$positional_parameter_base@DV?$string_output_adapter@D@__crt_stdio_output@@@2@@__crt_stdio_output@@CAPEADXZ 0000000180065e00 f i libucrtd:output.obj
 0001:00064e10       ?narrow_null_string@?$output_processor@DV?$string_output_adapter@D@__crt_stdio_output@@V?$standard_base@DV?$string_output_adapter@D@__crt_stdio_output@@@2@@__crt_stdio_output@@CAPEADXZ 0000000180065e10 f i libucrtd:output.obj
 0001:00064e20       ?narrow_null_string@?$output_processor@_WV?$stream_output_adapter@_W@__crt_stdio_output@@V?$format_validation_base@_WV?$stream_output_adapter@_W@__crt_stdio_output@@@2@@__crt_stdio_output@@CAPEADXZ 0000000180065e20 f i libucrtd:output.obj
 0001:00064e30       ?narrow_null_string@?$output_processor@_WV?$stream_output_adapter@_W@__crt_stdio_output@@V?$positional_parameter_base@_WV?$stream_output_adapter@_W@__crt_stdio_output@@@2@@__crt_stdio_output@@CAPEADXZ 0000000180065e30 f i libucrtd:output.obj
 0001:00064e40       ?narrow_null_string@?$output_processor@_WV?$stream_output_adapter@_W@__crt_stdio_output@@V?$standard_base@_WV?$stream_output_adapter@_W@__crt_stdio_output@@@2@@__crt_stdio_output@@CAPEADXZ 0000000180065e40 f i libucrtd:output.obj
 0001:00064e50       ?narrow_null_string@?$output_processor@_WV?$string_output_adapter@_W@__crt_stdio_output@@V?$format_validation_base@_WV?$string_output_adapter@_W@__crt_stdio_output@@@2@@__crt_stdio_output@@CAPEADXZ 0000000180065e50 f i libucrtd:output.obj
 0001:00064e60       ?narrow_null_string@?$output_processor@_WV?$string_output_adapter@_W@__crt_stdio_output@@V?$positional_parameter_base@_WV?$string_output_adapter@_W@__crt_stdio_output@@@2@@__crt_stdio_output@@CAPEADXZ 0000000180065e60 f i libucrtd:output.obj
 0001:00064e70       ?narrow_null_string@?$output_processor@_WV?$string_output_adapter@_W@__crt_stdio_output@@V?$standard_base@_WV?$string_output_adapter@_W@__crt_stdio_output@@@2@@__crt_stdio_output@@CAPEADXZ 0000000180065e70 f i libucrtd:output.obj
 0001:00064e80       ?parse_int_from_format_string@?$output_processor@DV?$stream_output_adapter@D@__crt_stdio_output@@V?$format_validation_base@DV?$stream_output_adapter@D@__crt_stdio_output@@@2@@__crt_stdio_output@@AEAA_NQEAH@Z 0000000180065e80 f i libucrtd:output.obj
 0001:00064f70       ?parse_int_from_format_string@?$output_processor@DV?$stream_output_adapter@D@__crt_stdio_output@@V?$positional_parameter_base@DV?$stream_output_adapter@D@__crt_stdio_output@@@2@@__crt_stdio_output@@AEAA_NQEAH@Z 0000000180065f70 f i libucrtd:output.obj
 0001:00065060       ?parse_int_from_format_string@?$output_processor@DV?$stream_output_adapter@D@__crt_stdio_output@@V?$standard_base@DV?$stream_output_adapter@D@__crt_stdio_output@@@2@@__crt_stdio_output@@AEAA_NQEAH@Z 0000000180066060 f i libucrtd:output.obj
 0001:00065150       ?parse_int_from_format_string@?$output_processor@DV?$string_output_adapter@D@__crt_stdio_output@@V?$format_validation_base@DV?$string_output_adapter@D@__crt_stdio_output@@@2@@__crt_stdio_output@@AEAA_NQEAH@Z 0000000180066150 f i libucrtd:output.obj
 0001:00065240       ?parse_int_from_format_string@?$output_processor@DV?$string_output_adapter@D@__crt_stdio_output@@V?$positional_parameter_base@DV?$string_output_adapter@D@__crt_stdio_output@@@2@@__crt_stdio_output@@AEAA_NQEAH@Z 0000000180066240 f i libucrtd:output.obj
 0001:00065330       ?parse_int_from_format_string@?$output_processor@DV?$string_output_adapter@D@__crt_stdio_output@@V?$standard_base@DV?$string_output_adapter@D@__crt_stdio_output@@@2@@__crt_stdio_output@@AEAA_NQEAH@Z 0000000180066330 f i libucrtd:output.obj
 0001:00065420       ?parse_int_from_format_string@?$output_processor@_WV?$stream_output_adapter@_W@__crt_stdio_output@@V?$format_validation_base@_WV?$stream_output_adapter@_W@__crt_stdio_output@@@2@@__crt_stdio_output@@AEAA_NQEAH@Z 0000000180066420 f i libucrtd:output.obj
 0001:00065510       ?parse_int_from_format_string@?$output_processor@_WV?$stream_output_adapter@_W@__crt_stdio_output@@V?$positional_parameter_base@_WV?$stream_output_adapter@_W@__crt_stdio_output@@@2@@__crt_stdio_output@@AEAA_NQEAH@Z 0000000180066510 f i libucrtd:output.obj
 0001:00065600       ?parse_int_from_format_string@?$output_processor@_WV?$stream_output_adapter@_W@__crt_stdio_output@@V?$standard_base@_WV?$stream_output_adapter@_W@__crt_stdio_output@@@2@@__crt_stdio_output@@AEAA_NQEAH@Z 0000000180066600 f i libucrtd:output.obj
 0001:000656f0       ?parse_int_from_format_string@?$output_processor@_WV?$string_output_adapter@_W@__crt_stdio_output@@V?$format_validation_base@_WV?$string_output_adapter@_W@__crt_stdio_output@@@2@@__crt_stdio_output@@AEAA_NQEAH@Z 00000001800666f0 f i libucrtd:output.obj
 0001:000657e0       ?parse_int_from_format_string@?$output_processor@_WV?$string_output_adapter@_W@__crt_stdio_output@@V?$positional_parameter_base@_WV?$string_output_adapter@_W@__crt_stdio_output@@@2@@__crt_stdio_output@@AEAA_NQEAH@Z 00000001800667e0 f i libucrtd:output.obj
 0001:000658d0       ?parse_int_from_format_string@?$output_processor@_WV?$string_output_adapter@_W@__crt_stdio_output@@V?$standard_base@_WV?$string_output_adapter@_W@__crt_stdio_output@@@2@@__crt_stdio_output@@AEAA_NQEAH@Z 00000001800668d0 f i libucrtd:output.obj
 0001:000659c0       ?process@?$output_processor@DV?$stream_output_adapter@D@__crt_stdio_output@@V?$format_validation_base@DV?$stream_output_adapter@D@__crt_stdio_output@@@2@@__crt_stdio_output@@QEAAHXZ 00000001800669c0 f i libucrtd:output.obj
 0001:00065d20       ?process@?$output_processor@DV?$stream_output_adapter@D@__crt_stdio_output@@V?$positional_parameter_base@DV?$stream_output_adapter@D@__crt_stdio_output@@@2@@__crt_stdio_output@@QEAAHXZ 0000000180066d20 f i libucrtd:output.obj
 0001:00066080       ?process@?$output_processor@DV?$stream_output_adapter@D@__crt_stdio_output@@V?$standard_base@DV?$stream_output_adapter@D@__crt_stdio_output@@@2@@__crt_stdio_output@@QEAAHXZ 0000000180067080 f i libucrtd:output.obj
 0001:000663e0       ?process@?$output_processor@DV?$string_output_adapter@D@__crt_stdio_output@@V?$format_validation_base@DV?$string_output_adapter@D@__crt_stdio_output@@@2@@__crt_stdio_output@@QEAAHXZ 00000001800673e0 f i libucrtd:output.obj
 0001:00066740       ?process@?$output_processor@DV?$string_output_adapter@D@__crt_stdio_output@@V?$positional_parameter_base@DV?$string_output_adapter@D@__crt_stdio_output@@@2@@__crt_stdio_output@@QEAAHXZ 0000000180067740 f i libucrtd:output.obj
 0001:00066aa0       ?process@?$output_processor@DV?$string_output_adapter@D@__crt_stdio_output@@V?$standard_base@DV?$string_output_adapter@D@__crt_stdio_output@@@2@@__crt_stdio_output@@QEAAHXZ 0000000180067aa0 f i libucrtd:output.obj
 0001:00066e00       ?process@?$output_processor@_WV?$stream_output_adapter@_W@__crt_stdio_output@@V?$format_validation_base@_WV?$stream_output_adapter@_W@__crt_stdio_output@@@2@@__crt_stdio_output@@QEAAHXZ 0000000180067e00 f i libucrtd:output.obj
 0001:00067160       ?process@?$output_processor@_WV?$stream_output_adapter@_W@__crt_stdio_output@@V?$positional_parameter_base@_WV?$stream_output_adapter@_W@__crt_stdio_output@@@2@@__crt_stdio_output@@QEAAHXZ 0000000180068160 f i libucrtd:output.obj
 0001:000674c0       ?process@?$output_processor@_WV?$stream_output_adapter@_W@__crt_stdio_output@@V?$standard_base@_WV?$stream_output_adapter@_W@__crt_stdio_output@@@2@@__crt_stdio_output@@QEAAHXZ 00000001800684c0 f i libucrtd:output.obj
 0001:00067820       ?process@?$output_processor@_WV?$string_output_adapter@_W@__crt_stdio_output@@V?$format_validation_base@_WV?$string_output_adapter@_W@__crt_stdio_output@@@2@@__crt_stdio_output@@QEAAHXZ 0000000180068820 f i libucrtd:output.obj
 0001:00067b80       ?process@?$output_processor@_WV?$string_output_adapter@_W@__crt_stdio_output@@V?$positional_parameter_base@_WV?$string_output_adapter@_W@__crt_stdio_output@@@2@@__crt_stdio_output@@QEAAHXZ 0000000180068b80 f i libucrtd:output.obj
 0001:00067ee0       ?process@?$output_processor@_WV?$string_output_adapter@_W@__crt_stdio_output@@V?$standard_base@_WV?$string_output_adapter@_W@__crt_stdio_output@@@2@@__crt_stdio_output@@QEAAHXZ 0000000180068ee0 f i libucrtd:output.obj
 0001:00068240       ?public_stream@__crt_stdio_stream@@QEBAPEAU_iobuf@@XZ 0000000180069240 f i libucrtd:output.obj
 0001:00068250       ?set_flag@?$output_processor@DV?$stream_output_adapter@D@__crt_stdio_output@@V?$format_validation_base@DV?$stream_output_adapter@D@__crt_stdio_output@@@2@@__crt_stdio_output@@AEAAXI@Z 0000000180069250 f i libucrtd:output.obj
 0001:00068270       ?set_flag@?$output_processor@DV?$stream_output_adapter@D@__crt_stdio_output@@V?$positional_parameter_base@DV?$stream_output_adapter@D@__crt_stdio_output@@@2@@__crt_stdio_output@@AEAAXI@Z 0000000180069270 f i libucrtd:output.obj
 0001:00068290       ?set_flag@?$output_processor@DV?$stream_output_adapter@D@__crt_stdio_output@@V?$standard_base@DV?$stream_output_adapter@D@__crt_stdio_output@@@2@@__crt_stdio_output@@AEAAXI@Z 0000000180069290 f i libucrtd:output.obj
 0001:000682b0       ?set_flag@?$output_processor@DV?$string_output_adapter@D@__crt_stdio_output@@V?$format_validation_base@DV?$string_output_adapter@D@__crt_stdio_output@@@2@@__crt_stdio_output@@AEAAXI@Z 00000001800692b0 f i libucrtd:output.obj
 0001:000682d0       ?set_flag@?$output_processor@DV?$string_output_adapter@D@__crt_stdio_output@@V?$positional_parameter_base@DV?$string_output_adapter@D@__crt_stdio_output@@@2@@__crt_stdio_output@@AEAAXI@Z 00000001800692d0 f i libucrtd:output.obj
 0001:000682f0       ?set_flag@?$output_processor@DV?$string_output_adapter@D@__crt_stdio_output@@V?$standard_base@DV?$string_output_adapter@D@__crt_stdio_output@@@2@@__crt_stdio_output@@AEAAXI@Z 00000001800692f0 f i libucrtd:output.obj
 0001:00068310       ?set_flag@?$output_processor@_WV?$stream_output_adapter@_W@__crt_stdio_output@@V?$format_validation_base@_WV?$stream_output_adapter@_W@__crt_stdio_output@@@2@@__crt_stdio_output@@AEAAXI@Z 0000000180069310 f i libucrtd:output.obj
 0001:00068330       ?set_flag@?$output_processor@_WV?$stream_output_adapter@_W@__crt_stdio_output@@V?$positional_parameter_base@_WV?$stream_output_adapter@_W@__crt_stdio_output@@@2@@__crt_stdio_output@@AEAAXI@Z 0000000180069330 f i libucrtd:output.obj
 0001:00068350       ?set_flag@?$output_processor@_WV?$stream_output_adapter@_W@__crt_stdio_output@@V?$standard_base@_WV?$stream_output_adapter@_W@__crt_stdio_output@@@2@@__crt_stdio_output@@AEAAXI@Z 0000000180069350 f i libucrtd:output.obj
 0001:00068370       ?set_flag@?$output_processor@_WV?$string_output_adapter@_W@__crt_stdio_output@@V?$format_validation_base@_WV?$string_output_adapter@_W@__crt_stdio_output@@@2@@__crt_stdio_output@@AEAAXI@Z 0000000180069370 f i libucrtd:output.obj
 0001:00068390       ?set_flag@?$output_processor@_WV?$string_output_adapter@_W@__crt_stdio_output@@V?$positional_parameter_base@_WV?$string_output_adapter@_W@__crt_stdio_output@@@2@@__crt_stdio_output@@AEAAXI@Z 0000000180069390 f i libucrtd:output.obj
 0001:000683b0       ?set_flag@?$output_processor@_WV?$string_output_adapter@_W@__crt_stdio_output@@V?$standard_base@_WV?$string_output_adapter@_W@__crt_stdio_output@@@2@@__crt_stdio_output@@AEAAXI@Z 00000001800693b0 f i libucrtd:output.obj
 0001:000683d0       ?should_format@?$positional_parameter_base@DV?$stream_output_adapter@D@__crt_stdio_output@@@__crt_stdio_output@@IEAA_NXZ 00000001800693d0 f i libucrtd:output.obj
 0001:00068410       ?should_format@?$positional_parameter_base@DV?$string_output_adapter@D@__crt_stdio_output@@@__crt_stdio_output@@IEAA_NXZ 0000000180069410 f i libucrtd:output.obj
 0001:00068450       ?should_format@?$positional_parameter_base@_WV?$stream_output_adapter@_W@__crt_stdio_output@@@__crt_stdio_output@@IEAA_NXZ 0000000180069450 f i libucrtd:output.obj
 0001:00068490       ?should_format@?$positional_parameter_base@_WV?$string_output_adapter@_W@__crt_stdio_output@@@__crt_stdio_output@@IEAA_NXZ 0000000180069490 f i libucrtd:output.obj
 0001:000684d0       ?should_format@?$standard_base@DV?$stream_output_adapter@D@__crt_stdio_output@@@__crt_stdio_output@@IEAA_NXZ 00000001800694d0 f i libucrtd:output.obj
 0001:000684e0       ?should_format@?$standard_base@DV?$string_output_adapter@D@__crt_stdio_output@@@__crt_stdio_output@@IEAA_NXZ 00000001800694e0 f i libucrtd:output.obj
 0001:000684f0       ?should_format@?$standard_base@_WV?$stream_output_adapter@_W@__crt_stdio_output@@@__crt_stdio_output@@IEAA_NXZ 00000001800694f0 f i libucrtd:output.obj
 0001:00068500       ?should_format@?$standard_base@_WV?$string_output_adapter@_W@__crt_stdio_output@@@__crt_stdio_output@@IEAA_NXZ 0000000180069500 f i libucrtd:output.obj
 0001:00068510       ?should_skip_normal_state_processing@?$positional_parameter_base@DV?$stream_output_adapter@D@__crt_stdio_output@@@__crt_stdio_output@@IEAA_NXZ 0000000180069510 f i libucrtd:output.obj
 0001:00068560       ?should_skip_normal_state_processing@?$positional_parameter_base@DV?$string_output_adapter@D@__crt_stdio_output@@@__crt_stdio_output@@IEAA_NXZ 0000000180069560 f i libucrtd:output.obj
 0001:000685b0       ?should_skip_normal_state_processing@?$positional_parameter_base@_WV?$stream_output_adapter@_W@__crt_stdio_output@@@__crt_stdio_output@@IEAA_NXZ 00000001800695b0 f i libucrtd:output.obj
 0001:00068600       ?should_skip_normal_state_processing@?$positional_parameter_base@_WV?$string_output_adapter@_W@__crt_stdio_output@@@__crt_stdio_output@@IEAA_NXZ 0000000180069600 f i libucrtd:output.obj
 0001:00068650       ?should_skip_normal_state_processing@?$standard_base@DV?$stream_output_adapter@D@__crt_stdio_output@@@__crt_stdio_output@@IEAA_NXZ 0000000180069650 f i libucrtd:output.obj
 0001:00068660       ?should_skip_normal_state_processing@?$standard_base@DV?$string_output_adapter@D@__crt_stdio_output@@@__crt_stdio_output@@IEAA_NXZ 0000000180069660 f i libucrtd:output.obj
 0001:00068670       ?should_skip_normal_state_processing@?$standard_base@_WV?$stream_output_adapter@_W@__crt_stdio_output@@@__crt_stdio_output@@IEAA_NXZ 0000000180069670 f i libucrtd:output.obj
 0001:00068680       ?should_skip_normal_state_processing@?$standard_base@_WV?$string_output_adapter@_W@__crt_stdio_output@@@__crt_stdio_output@@IEAA_NXZ 0000000180069680 f i libucrtd:output.obj
 0001:00068690       ?should_skip_type_state_output@?$positional_parameter_base@DV?$stream_output_adapter@D@__crt_stdio_output@@@__crt_stdio_output@@IEBA_NXZ 0000000180069690 f i libucrtd:output.obj
 0001:000686d0       ?should_skip_type_state_output@?$positional_parameter_base@DV?$string_output_adapter@D@__crt_stdio_output@@@__crt_stdio_output@@IEBA_NXZ 00000001800696d0 f i libucrtd:output.obj
 0001:00068710       ?should_skip_type_state_output@?$positional_parameter_base@_WV?$stream_output_adapter@_W@__crt_stdio_output@@@__crt_stdio_output@@IEBA_NXZ 0000000180069710 f i libucrtd:output.obj
 0001:00068750       ?should_skip_type_state_output@?$positional_parameter_base@_WV?$string_output_adapter@_W@__crt_stdio_output@@@__crt_stdio_output@@IEBA_NXZ 0000000180069750 f i libucrtd:output.obj
 0001:00068790       ?should_skip_type_state_output@?$standard_base@DV?$stream_output_adapter@D@__crt_stdio_output@@@__crt_stdio_output@@IEBA_NXZ 0000000180069790 f i libucrtd:output.obj
 0001:000687a0       ?should_skip_type_state_output@?$standard_base@DV?$string_output_adapter@D@__crt_stdio_output@@@__crt_stdio_output@@IEBA_NXZ 00000001800697a0 f i libucrtd:output.obj
 0001:000687b0       ?should_skip_type_state_output@?$standard_base@_WV?$stream_output_adapter@_W@__crt_stdio_output@@@__crt_stdio_output@@IEBA_NXZ 00000001800697b0 f i libucrtd:output.obj
 0001:000687c0       ?should_skip_type_state_output@?$standard_base@_WV?$string_output_adapter@_W@__crt_stdio_output@@@__crt_stdio_output@@IEBA_NXZ 00000001800697c0 f i libucrtd:output.obj
 0001:000687d0       ?state_case_dot@?$output_processor@DV?$stream_output_adapter@D@__crt_stdio_output@@V?$format_validation_base@DV?$stream_output_adapter@D@__crt_stdio_output@@@2@@__crt_stdio_output@@AEAA_NXZ 00000001800697d0 f i libucrtd:output.obj
 0001:000687f0       ?state_case_dot@?$output_processor@DV?$stream_output_adapter@D@__crt_stdio_output@@V?$positional_parameter_base@DV?$stream_output_adapter@D@__crt_stdio_output@@@2@@__crt_stdio_output@@AEAA_NXZ 00000001800697f0 f i libucrtd:output.obj
 0001:00068810       ?state_case_dot@?$output_processor@DV?$stream_output_adapter@D@__crt_stdio_output@@V?$standard_base@DV?$stream_output_adapter@D@__crt_stdio_output@@@2@@__crt_stdio_output@@AEAA_NXZ 0000000180069810 f i libucrtd:output.obj
 0001:00068830       ?state_case_dot@?$output_processor@DV?$string_output_adapter@D@__crt_stdio_output@@V?$format_validation_base@DV?$string_output_adapter@D@__crt_stdio_output@@@2@@__crt_stdio_output@@AEAA_NXZ 0000000180069830 f i libucrtd:output.obj
 0001:00068850       ?state_case_dot@?$output_processor@DV?$string_output_adapter@D@__crt_stdio_output@@V?$positional_parameter_base@DV?$string_output_adapter@D@__crt_stdio_output@@@2@@__crt_stdio_output@@AEAA_NXZ 0000000180069850 f i libucrtd:output.obj
 0001:00068870       ?state_case_dot@?$output_processor@DV?$string_output_adapter@D@__crt_stdio_output@@V?$standard_base@DV?$string_output_adapter@D@__crt_stdio_output@@@2@@__crt_stdio_output@@AEAA_NXZ 0000000180069870 f i libucrtd:output.obj
 0001:00068890       ?state_case_dot@?$output_processor@_WV?$stream_output_adapter@_W@__crt_stdio_output@@V?$format_validation_base@_WV?$stream_output_adapter@_W@__crt_stdio_output@@@2@@__crt_stdio_output@@AEAA_NXZ 0000000180069890 f i libucrtd:output.obj
 0001:000688b0       ?state_case_dot@?$output_processor@_WV?$stream_output_adapter@_W@__crt_stdio_output@@V?$positional_parameter_base@_WV?$stream_output_adapter@_W@__crt_stdio_output@@@2@@__crt_stdio_output@@AEAA_NXZ 00000001800698b0 f i libucrtd:output.obj
 0001:000688d0       ?state_case_dot@?$output_processor@_WV?$stream_output_adapter@_W@__crt_stdio_output@@V?$standard_base@_WV?$stream_output_adapter@_W@__crt_stdio_output@@@2@@__crt_stdio_output@@AEAA_NXZ 00000001800698d0 f i libucrtd:output.obj
 0001:000688f0       ?state_case_dot@?$output_processor@_WV?$string_output_adapter@_W@__crt_stdio_output@@V?$format_validation_base@_WV?$string_output_adapter@_W@__crt_stdio_output@@@2@@__crt_stdio_output@@AEAA_NXZ 00000001800698f0 f i libucrtd:output.obj
 0001:00068910       ?state_case_dot@?$output_processor@_WV?$string_output_adapter@_W@__crt_stdio_output@@V?$positional_parameter_base@_WV?$string_output_adapter@_W@__crt_stdio_output@@@2@@__crt_stdio_output@@AEAA_NXZ 0000000180069910 f i libucrtd:output.obj
 0001:00068930       ?state_case_dot@?$output_processor@_WV?$string_output_adapter@_W@__crt_stdio_output@@V?$standard_base@_WV?$string_output_adapter@_W@__crt_stdio_output@@@2@@__crt_stdio_output@@AEAA_NXZ 0000000180069930 f i libucrtd:output.obj
 0001:00068950       ?state_case_flag@?$output_processor@DV?$stream_output_adapter@D@__crt_stdio_output@@V?$format_validation_base@DV?$stream_output_adapter@D@__crt_stdio_output@@@2@@__crt_stdio_output@@AEAA_NXZ 0000000180069950 f i libucrtd:output.obj
 0001:000689f0       ?state_case_flag@?$output_processor@DV?$stream_output_adapter@D@__crt_stdio_output@@V?$positional_parameter_base@DV?$stream_output_adapter@D@__crt_stdio_output@@@2@@__crt_stdio_output@@AEAA_NXZ 00000001800699f0 f i libucrtd:output.obj
 0001:00068a90       ?state_case_flag@?$output_processor@DV?$stream_output_adapter@D@__crt_stdio_output@@V?$standard_base@DV?$stream_output_adapter@D@__crt_stdio_output@@@2@@__crt_stdio_output@@AEAA_NXZ 0000000180069a90 f i libucrtd:output.obj
 0001:00068b30       ?state_case_flag@?$output_processor@DV?$string_output_adapter@D@__crt_stdio_output@@V?$format_validation_base@DV?$string_output_adapter@D@__crt_stdio_output@@@2@@__crt_stdio_output@@AEAA_NXZ 0000000180069b30 f i libucrtd:output.obj
 0001:00068bd0       ?state_case_flag@?$output_processor@DV?$string_output_adapter@D@__crt_stdio_output@@V?$positional_parameter_base@DV?$string_output_adapter@D@__crt_stdio_output@@@2@@__crt_stdio_output@@AEAA_NXZ 0000000180069bd0 f i libucrtd:output.obj
 0001:00068c70       ?state_case_flag@?$output_processor@DV?$string_output_adapter@D@__crt_stdio_output@@V?$standard_base@DV?$string_output_adapter@D@__crt_stdio_output@@@2@@__crt_stdio_output@@AEAA_NXZ 0000000180069c70 f i libucrtd:output.obj
 0001:00068d10       ?state_case_flag@?$output_processor@_WV?$stream_output_adapter@_W@__crt_stdio_output@@V?$format_validation_base@_WV?$stream_output_adapter@_W@__crt_stdio_output@@@2@@__crt_stdio_output@@AEAA_NXZ 0000000180069d10 f i libucrtd:output.obj
 0001:00068db0       ?state_case_flag@?$output_processor@_WV?$stream_output_adapter@_W@__crt_stdio_output@@V?$positional_parameter_base@_WV?$stream_output_adapter@_W@__crt_stdio_output@@@2@@__crt_stdio_output@@AEAA_NXZ 0000000180069db0 f i libucrtd:output.obj
 0001:00068e50       ?state_case_flag@?$output_processor@_WV?$stream_output_adapter@_W@__crt_stdio_output@@V?$standard_base@_WV?$stream_output_adapter@_W@__crt_stdio_output@@@2@@__crt_stdio_output@@AEAA_NXZ 0000000180069e50 f i libucrtd:output.obj
 0001:00068ef0       ?state_case_flag@?$output_processor@_WV?$string_output_adapter@_W@__crt_stdio_output@@V?$format_validation_base@_WV?$string_output_adapter@_W@__crt_stdio_output@@@2@@__crt_stdio_output@@AEAA_NXZ 0000000180069ef0 f i libucrtd:output.obj
 0001:00068f90       ?state_case_flag@?$output_processor@_WV?$string_output_adapter@_W@__crt_stdio_output@@V?$positional_parameter_base@_WV?$string_output_adapter@_W@__crt_stdio_output@@@2@@__crt_stdio_output@@AEAA_NXZ 0000000180069f90 f i libucrtd:output.obj
 0001:00069030       ?state_case_flag@?$output_processor@_WV?$string_output_adapter@_W@__crt_stdio_output@@V?$standard_base@_WV?$string_output_adapter@_W@__crt_stdio_output@@@2@@__crt_stdio_output@@AEAA_NXZ 000000018006a030 f i libucrtd:output.obj
 0001:000690d0       ?state_case_normal@?$output_processor@DV?$stream_output_adapter@D@__crt_stdio_output@@V?$format_validation_base@DV?$stream_output_adapter@D@__crt_stdio_output@@@2@@__crt_stdio_output@@AEAA_NXZ 000000018006a0d0 f i libucrtd:output.obj
 0001:000691b0       ?state_case_normal@?$output_processor@DV?$stream_output_adapter@D@__crt_stdio_output@@V?$positional_parameter_base@DV?$stream_output_adapter@D@__crt_stdio_output@@@2@@__crt_stdio_output@@AEAA_NXZ 000000018006a1b0 f i libucrtd:output.obj
 0001:00069290       ?state_case_normal@?$output_processor@DV?$stream_output_adapter@D@__crt_stdio_output@@V?$standard_base@DV?$stream_output_adapter@D@__crt_stdio_output@@@2@@__crt_stdio_output@@AEAA_NXZ 000000018006a290 f i libucrtd:output.obj
 0001:00069370       ?state_case_normal@?$output_processor@DV?$string_output_adapter@D@__crt_stdio_output@@V?$format_validation_base@DV?$string_output_adapter@D@__crt_stdio_output@@@2@@__crt_stdio_output@@AEAA_NXZ 000000018006a370 f i libucrtd:output.obj
 0001:00069450       ?state_case_normal@?$output_processor@DV?$string_output_adapter@D@__crt_stdio_output@@V?$positional_parameter_base@DV?$string_output_adapter@D@__crt_stdio_output@@@2@@__crt_stdio_output@@AEAA_NXZ 000000018006a450 f i libucrtd:output.obj
 0001:00069530       ?state_case_normal@?$output_processor@DV?$string_output_adapter@D@__crt_stdio_output@@V?$standard_base@DV?$string_output_adapter@D@__crt_stdio_output@@@2@@__crt_stdio_output@@AEAA_NXZ 000000018006a530 f i libucrtd:output.obj
 0001:00069610       ?state_case_normal@?$output_processor@_WV?$stream_output_adapter@_W@__crt_stdio_output@@V?$format_validation_base@_WV?$stream_output_adapter@_W@__crt_stdio_output@@@2@@__crt_stdio_output@@AEAA_NXZ 000000018006a610 f i libucrtd:output.obj
 0001:000696f0       ?state_case_normal@?$output_processor@_WV?$stream_output_adapter@_W@__crt_stdio_output@@V?$positional_parameter_base@_WV?$stream_output_adapter@_W@__crt_stdio_output@@@2@@__crt_stdio_output@@AEAA_NXZ 000000018006a6f0 f i libucrtd:output.obj
 0001:000697d0       ?state_case_normal@?$output_processor@_WV?$stream_output_adapter@_W@__crt_stdio_output@@V?$standard_base@_WV?$stream_output_adapter@_W@__crt_stdio_output@@@2@@__crt_stdio_output@@AEAA_NXZ 000000018006a7d0 f i libucrtd:output.obj
 0001:000698b0       ?state_case_normal@?$output_processor@_WV?$string_output_adapter@_W@__crt_stdio_output@@V?$format_validation_base@_WV?$string_output_adapter@_W@__crt_stdio_output@@@2@@__crt_stdio_output@@AEAA_NXZ 000000018006a8b0 f i libucrtd:output.obj
 0001:00069990       ?state_case_normal@?$output_processor@_WV?$string_output_adapter@_W@__crt_stdio_output@@V?$positional_parameter_base@_WV?$string_output_adapter@_W@__crt_stdio_output@@@2@@__crt_stdio_output@@AEAA_NXZ 000000018006a990 f i libucrtd:output.obj
 0001:00069a70       ?state_case_normal@?$output_processor@_WV?$string_output_adapter@_W@__crt_stdio_output@@V?$standard_base@_WV?$string_output_adapter@_W@__crt_stdio_output@@@2@@__crt_stdio_output@@AEAA_NXZ 000000018006aa70 f i libucrtd:output.obj
 0001:00069b50       ?state_case_normal_common@?$output_processor@DV?$stream_output_adapter@D@__crt_stdio_output@@V?$format_validation_base@DV?$stream_output_adapter@D@__crt_stdio_output@@@2@@__crt_stdio_output@@AEAA_NXZ 000000018006ab50 f i libucrtd:output.obj
 0001:00069ba0       ?state_case_normal_common@?$output_processor@DV?$stream_output_adapter@D@__crt_stdio_output@@V?$positional_parameter_base@DV?$stream_output_adapter@D@__crt_stdio_output@@@2@@__crt_stdio_output@@AEAA_NXZ 000000018006aba0 f i libucrtd:output.obj
 0001:00069bf0       ?state_case_normal_common@?$output_processor@DV?$stream_output_adapter@D@__crt_stdio_output@@V?$standard_base@DV?$stream_output_adapter@D@__crt_stdio_output@@@2@@__crt_stdio_output@@AEAA_NXZ 000000018006abf0 f i libucrtd:output.obj
 0001:00069c40       ?state_case_normal_common@?$output_processor@DV?$string_output_adapter@D@__crt_stdio_output@@V?$format_validation_base@DV?$string_output_adapter@D@__crt_stdio_output@@@2@@__crt_stdio_output@@AEAA_NXZ 000000018006ac40 f i libucrtd:output.obj
 0001:00069c90       ?state_case_normal_common@?$output_processor@DV?$string_output_adapter@D@__crt_stdio_output@@V?$positional_parameter_base@DV?$string_output_adapter@D@__crt_stdio_output@@@2@@__crt_stdio_output@@AEAA_NXZ 000000018006ac90 f i libucrtd:output.obj
 0001:00069ce0       ?state_case_normal_common@?$output_processor@DV?$string_output_adapter@D@__crt_stdio_output@@V?$standard_base@DV?$string_output_adapter@D@__crt_stdio_output@@@2@@__crt_stdio_output@@AEAA_NXZ 000000018006ace0 f i libucrtd:output.obj
 0001:00069d30       ?state_case_normal_common@?$output_processor@_WV?$stream_output_adapter@_W@__crt_stdio_output@@V?$format_validation_base@_WV?$stream_output_adapter@_W@__crt_stdio_output@@@2@@__crt_stdio_output@@AEAA_NXZ 000000018006ad30 f i libucrtd:output.obj
 0001:00069d80       ?state_case_normal_common@?$output_processor@_WV?$stream_output_adapter@_W@__crt_stdio_output@@V?$positional_parameter_base@_WV?$stream_output_adapter@_W@__crt_stdio_output@@@2@@__crt_stdio_output@@AEAA_NXZ 000000018006ad80 f i libucrtd:output.obj
 0001:00069dd0       ?state_case_normal_common@?$output_processor@_WV?$stream_output_adapter@_W@__crt_stdio_output@@V?$standard_base@_WV?$stream_output_adapter@_W@__crt_stdio_output@@@2@@__crt_stdio_output@@AEAA_NXZ 000000018006add0 f i libucrtd:output.obj
 0001:00069e20       ?state_case_normal_common@?$output_processor@_WV?$string_output_adapter@_W@__crt_stdio_output@@V?$format_validation_base@_WV?$string_output_adapter@_W@__crt_stdio_output@@@2@@__crt_stdio_output@@AEAA_NXZ 000000018006ae20 f i libucrtd:output.obj
 0001:00069e70       ?state_case_normal_common@?$output_processor@_WV?$string_output_adapter@_W@__crt_stdio_output@@V?$positional_parameter_base@_WV?$string_output_adapter@_W@__crt_stdio_output@@@2@@__crt_stdio_output@@AEAA_NXZ 000000018006ae70 f i libucrtd:output.obj
 0001:00069ec0       ?state_case_normal_common@?$output_processor@_WV?$string_output_adapter@_W@__crt_stdio_output@@V?$standard_base@_WV?$string_output_adapter@_W@__crt_stdio_output@@@2@@__crt_stdio_output@@AEAA_NXZ 000000018006aec0 f i libucrtd:output.obj
 0001:00069f10       ?state_case_normal_tchar@?$output_processor@DV?$stream_output_adapter@D@__crt_stdio_output@@V?$format_validation_base@DV?$stream_output_adapter@D@__crt_stdio_output@@@2@@__crt_stdio_output@@AEAA_ND@Z 000000018006af10 f i libucrtd:output.obj
 0001:0006a050       ?state_case_normal_tchar@?$output_processor@DV?$stream_output_adapter@D@__crt_stdio_output@@V?$positional_parameter_base@DV?$stream_output_adapter@D@__crt_stdio_output@@@2@@__crt_stdio_output@@AEAA_ND@Z 000000018006b050 f i libucrtd:output.obj
 0001:0006a190       ?state_case_normal_tchar@?$output_processor@DV?$stream_output_adapter@D@__crt_stdio_output@@V?$standard_base@DV?$stream_output_adapter@D@__crt_stdio_output@@@2@@__crt_stdio_output@@AEAA_ND@Z 000000018006b190 f i libucrtd:output.obj
 0001:0006a2d0       ?state_case_normal_tchar@?$output_processor@DV?$string_output_adapter@D@__crt_stdio_output@@V?$format_validation_base@DV?$string_output_adapter@D@__crt_stdio_output@@@2@@__crt_stdio_output@@AEAA_ND@Z 000000018006b2d0 f i libucrtd:output.obj
 0001:0006a410       ?state_case_normal_tchar@?$output_processor@DV?$string_output_adapter@D@__crt_stdio_output@@V?$positional_parameter_base@DV?$string_output_adapter@D@__crt_stdio_output@@@2@@__crt_stdio_output@@AEAA_ND@Z 000000018006b410 f i libucrtd:output.obj
 0001:0006a550       ?state_case_normal_tchar@?$output_processor@DV?$string_output_adapter@D@__crt_stdio_output@@V?$standard_base@DV?$string_output_adapter@D@__crt_stdio_output@@@2@@__crt_stdio_output@@AEAA_ND@Z 000000018006b550 f i libucrtd:output.obj
 0001:0006a690       ?state_case_normal_tchar@?$output_processor@_WV?$stream_output_adapter@_W@__crt_stdio_output@@V?$format_validation_base@_WV?$stream_output_adapter@_W@__crt_stdio_output@@@2@@__crt_stdio_output@@AEAA_N_W@Z 000000018006b690 f i libucrtd:output.obj
 0001:0006a6b0       ?state_case_normal_tchar@?$output_processor@_WV?$stream_output_adapter@_W@__crt_stdio_output@@V?$positional_parameter_base@_WV?$stream_output_adapter@_W@__crt_stdio_output@@@2@@__crt_stdio_output@@AEAA_N_W@Z 000000018006b6b0 f i libucrtd:output.obj
 0001:0006a6d0       ?state_case_normal_tchar@?$output_processor@_WV?$stream_output_adapter@_W@__crt_stdio_output@@V?$standard_base@_WV?$stream_output_adapter@_W@__crt_stdio_output@@@2@@__crt_stdio_output@@AEAA_N_W@Z 000000018006b6d0 f i libucrtd:output.obj
 0001:0006a6f0       ?state_case_normal_tchar@?$output_processor@_WV?$string_output_adapter@_W@__crt_stdio_output@@V?$format_validation_base@_WV?$string_output_adapter@_W@__crt_stdio_output@@@2@@__crt_stdio_output@@AEAA_N_W@Z 000000018006b6f0 f i libucrtd:output.obj
 0001:0006a710       ?state_case_normal_tchar@?$output_processor@_WV?$string_output_adapter@_W@__crt_stdio_output@@V?$positional_parameter_base@_WV?$string_output_adapter@_W@__crt_stdio_output@@@2@@__crt_stdio_output@@AEAA_N_W@Z 000000018006b710 f i libucrtd:output.obj
 0001:0006a730       ?state_case_normal_tchar@?$output_processor@_WV?$string_output_adapter@_W@__crt_stdio_output@@V?$standard_base@_WV?$string_output_adapter@_W@__crt_stdio_output@@@2@@__crt_stdio_output@@AEAA_N_W@Z 000000018006b730 f i libucrtd:output.obj
 0001:0006a750       ?state_case_percent@?$output_processor@DV?$stream_output_adapter@D@__crt_stdio_output@@V?$format_validation_base@DV?$stream_output_adapter@D@__crt_stdio_output@@@2@@__crt_stdio_output@@AEAA_NXZ 000000018006b750 f i libucrtd:output.obj
 0001:0006a7a0       ?state_case_percent@?$output_processor@DV?$stream_output_adapter@D@__crt_stdio_output@@V?$positional_parameter_base@DV?$stream_output_adapter@D@__crt_stdio_output@@@2@@__crt_stdio_output@@AEAA_NXZ 000000018006b7a0 f i libucrtd:output.obj
 0001:0006a7f0       ?state_case_percent@?$output_processor@DV?$stream_output_adapter@D@__crt_stdio_output@@V?$standard_base@DV?$stream_output_adapter@D@__crt_stdio_output@@@2@@__crt_stdio_output@@AEAA_NXZ 000000018006b7f0 f i libucrtd:output.obj
 0001:0006a840       ?state_case_percent@?$output_processor@DV?$string_output_adapter@D@__crt_stdio_output@@V?$format_validation_base@DV?$string_output_adapter@D@__crt_stdio_output@@@2@@__crt_stdio_output@@AEAA_NXZ 000000018006b840 f i libucrtd:output.obj
 0001:0006a890       ?state_case_percent@?$output_processor@DV?$string_output_adapter@D@__crt_stdio_output@@V?$positional_parameter_base@DV?$string_output_adapter@D@__crt_stdio_output@@@2@@__crt_stdio_output@@AEAA_NXZ 000000018006b890 f i libucrtd:output.obj
 0001:0006a8e0       ?state_case_percent@?$output_processor@DV?$string_output_adapter@D@__crt_stdio_output@@V?$standard_base@DV?$string_output_adapter@D@__crt_stdio_output@@@2@@__crt_stdio_output@@AEAA_NXZ 000000018006b8e0 f i libucrtd:output.obj
 0001:0006a930       ?state_case_percent@?$output_processor@_WV?$stream_output_adapter@_W@__crt_stdio_output@@V?$format_validation_base@_WV?$stream_output_adapter@_W@__crt_stdio_output@@@2@@__crt_stdio_output@@AEAA_NXZ 000000018006b930 f i libucrtd:output.obj
 0001:0006a980       ?state_case_percent@?$output_processor@_WV?$stream_output_adapter@_W@__crt_stdio_output@@V?$positional_parameter_base@_WV?$stream_output_adapter@_W@__crt_stdio_output@@@2@@__crt_stdio_output@@AEAA_NXZ 000000018006b980 f i libucrtd:output.obj
 0001:0006a9d0       ?state_case_percent@?$output_processor@_WV?$stream_output_adapter@_W@__crt_stdio_output@@V?$standard_base@_WV?$stream_output_adapter@_W@__crt_stdio_output@@@2@@__crt_stdio_output@@AEAA_NXZ 000000018006b9d0 f i libucrtd:output.obj
 0001:0006aa20       ?state_case_percent@?$output_processor@_WV?$string_output_adapter@_W@__crt_stdio_output@@V?$format_validation_base@_WV?$string_output_adapter@_W@__crt_stdio_output@@@2@@__crt_stdio_output@@AEAA_NXZ 000000018006ba20 f i libucrtd:output.obj
 0001:0006aa70       ?state_case_percent@?$output_processor@_WV?$string_output_adapter@_W@__crt_stdio_output@@V?$positional_parameter_base@_WV?$string_output_adapter@_W@__crt_stdio_output@@@2@@__crt_stdio_output@@AEAA_NXZ 000000018006ba70 f i libucrtd:output.obj
 0001:0006aac0       ?state_case_percent@?$output_processor@_WV?$string_output_adapter@_W@__crt_stdio_output@@V?$standard_base@_WV?$string_output_adapter@_W@__crt_stdio_output@@@2@@__crt_stdio_output@@AEAA_NXZ 000000018006bac0 f i libucrtd:output.obj
 0001:0006ab10       ?state_case_precision@?$output_processor@DV?$stream_output_adapter@D@__crt_stdio_output@@V?$format_validation_base@DV?$stream_output_adapter@D@__crt_stdio_output@@@2@@__crt_stdio_output@@AEAA_NXZ 000000018006bb10 f i libucrtd:output.obj
 0001:0006ab90       ?state_case_precision@?$output_processor@DV?$stream_output_adapter@D@__crt_stdio_output@@V?$positional_parameter_base@DV?$stream_output_adapter@D@__crt_stdio_output@@@2@@__crt_stdio_output@@AEAA_NXZ 000000018006bb90 f i libucrtd:output.obj
 0001:0006ac10       ?state_case_precision@?$output_processor@DV?$stream_output_adapter@D@__crt_stdio_output@@V?$standard_base@DV?$stream_output_adapter@D@__crt_stdio_output@@@2@@__crt_stdio_output@@AEAA_NXZ 000000018006bc10 f i libucrtd:output.obj
 0001:0006ac90       ?state_case_precision@?$output_processor@DV?$string_output_adapter@D@__crt_stdio_output@@V?$format_validation_base@DV?$string_output_adapter@D@__crt_stdio_output@@@2@@__crt_stdio_output@@AEAA_NXZ 000000018006bc90 f i libucrtd:output.obj
 0001:0006ad10       ?state_case_precision@?$output_processor@DV?$string_output_adapter@D@__crt_stdio_output@@V?$positional_parameter_base@DV?$string_output_adapter@D@__crt_stdio_output@@@2@@__crt_stdio_output@@AEAA_NXZ 000000018006bd10 f i libucrtd:output.obj
 0001:0006ad90       ?state_case_precision@?$output_processor@DV?$string_output_adapter@D@__crt_stdio_output@@V?$standard_base@DV?$string_output_adapter@D@__crt_stdio_output@@@2@@__crt_stdio_output@@AEAA_NXZ 000000018006bd90 f i libucrtd:output.obj
 0001:0006ae10       ?state_case_precision@?$output_processor@_WV?$stream_output_adapter@_W@__crt_stdio_output@@V?$format_validation_base@_WV?$stream_output_adapter@_W@__crt_stdio_output@@@2@@__crt_stdio_output@@AEAA_NXZ 000000018006be10 f i libucrtd:output.obj
 0001:0006ae90       ?state_case_precision@?$output_processor@_WV?$stream_output_adapter@_W@__crt_stdio_output@@V?$positional_parameter_base@_WV?$stream_output_adapter@_W@__crt_stdio_output@@@2@@__crt_stdio_output@@AEAA_NXZ 000000018006be90 f i libucrtd:output.obj
 0001:0006af10       ?state_case_precision@?$output_processor@_WV?$stream_output_adapter@_W@__crt_stdio_output@@V?$standard_base@_WV?$stream_output_adapter@_W@__crt_stdio_output@@@2@@__crt_stdio_output@@AEAA_NXZ 000000018006bf10 f i libucrtd:output.obj
 0001:0006af90       ?state_case_precision@?$output_processor@_WV?$string_output_adapter@_W@__crt_stdio_output@@V?$format_validation_base@_WV?$string_output_adapter@_W@__crt_stdio_output@@@2@@__crt_stdio_output@@AEAA_NXZ 000000018006bf90 f i libucrtd:output.obj
 0001:0006b010       ?state_case_precision@?$output_processor@_WV?$string_output_adapter@_W@__crt_stdio_output@@V?$positional_parameter_base@_WV?$string_output_adapter@_W@__crt_stdio_output@@@2@@__crt_stdio_output@@AEAA_NXZ 000000018006c010 f i libucrtd:output.obj
 0001:0006b090       ?state_case_precision@?$output_processor@_WV?$string_output_adapter@_W@__crt_stdio_output@@V?$standard_base@_WV?$string_output_adapter@_W@__crt_stdio_output@@@2@@__crt_stdio_output@@AEAA_NXZ 000000018006c090 f i libucrtd:output.obj
 0001:0006b110       ?state_case_size@?$output_processor@DV?$stream_output_adapter@D@__crt_stdio_output@@V?$format_validation_base@DV?$stream_output_adapter@D@__crt_stdio_output@@@2@@__crt_stdio_output@@AEAA_NXZ 000000018006c110 f i libucrtd:output.obj
 0001:0006b590       ?state_case_size@?$output_processor@DV?$stream_output_adapter@D@__crt_stdio_output@@V?$positional_parameter_base@DV?$stream_output_adapter@D@__crt_stdio_output@@@2@@__crt_stdio_output@@AEAA_NXZ 000000018006c590 f i libucrtd:output.obj
 0001:0006ba10       ?state_case_size@?$output_processor@DV?$stream_output_adapter@D@__crt_stdio_output@@V?$standard_base@DV?$stream_output_adapter@D@__crt_stdio_output@@@2@@__crt_stdio_output@@AEAA_NXZ 000000018006ca10 f i libucrtd:output.obj
 0001:0006be90       ?state_case_size@?$output_processor@DV?$string_output_adapter@D@__crt_stdio_output@@V?$format_validation_base@DV?$string_output_adapter@D@__crt_stdio_output@@@2@@__crt_stdio_output@@AEAA_NXZ 000000018006ce90 f i libucrtd:output.obj
 0001:0006c310       ?state_case_size@?$output_processor@DV?$string_output_adapter@D@__crt_stdio_output@@V?$positional_parameter_base@DV?$string_output_adapter@D@__crt_stdio_output@@@2@@__crt_stdio_output@@AEAA_NXZ 000000018006d310 f i libucrtd:output.obj
 0001:0006c790       ?state_case_size@?$output_processor@DV?$string_output_adapter@D@__crt_stdio_output@@V?$standard_base@DV?$string_output_adapter@D@__crt_stdio_output@@@2@@__crt_stdio_output@@AEAA_NXZ 000000018006d790 f i libucrtd:output.obj
 0001:0006cc10       ?state_case_size@?$output_processor@_WV?$stream_output_adapter@_W@__crt_stdio_output@@V?$format_validation_base@_WV?$stream_output_adapter@_W@__crt_stdio_output@@@2@@__crt_stdio_output@@AEAA_NXZ 000000018006dc10 f i libucrtd:output.obj
 0001:0006d090       ?state_case_size@?$output_processor@_WV?$stream_output_adapter@_W@__crt_stdio_output@@V?$positional_parameter_base@_WV?$stream_output_adapter@_W@__crt_stdio_output@@@2@@__crt_stdio_output@@AEAA_NXZ 000000018006e090 f i libucrtd:output.obj
 0001:0006d510       ?state_case_size@?$output_processor@_WV?$stream_output_adapter@_W@__crt_stdio_output@@V?$standard_base@_WV?$stream_output_adapter@_W@__crt_stdio_output@@@2@@__crt_stdio_output@@AEAA_NXZ 000000018006e510 f i libucrtd:output.obj
 0001:0006d990       ?state_case_size@?$output_processor@_WV?$string_output_adapter@_W@__crt_stdio_output@@V?$format_validation_base@_WV?$string_output_adapter@_W@__crt_stdio_output@@@2@@__crt_stdio_output@@AEAA_NXZ 000000018006e990 f i libucrtd:output.obj
 0001:0006de10       ?state_case_size@?$output_processor@_WV?$string_output_adapter@_W@__crt_stdio_output@@V?$positional_parameter_base@_WV?$string_output_adapter@_W@__crt_stdio_output@@@2@@__crt_stdio_output@@AEAA_NXZ 000000018006ee10 f i libucrtd:output.obj
 0001:0006e290       ?state_case_size@?$output_processor@_WV?$string_output_adapter@_W@__crt_stdio_output@@V?$standard_base@_WV?$string_output_adapter@_W@__crt_stdio_output@@@2@@__crt_stdio_output@@AEAA_NXZ 000000018006f290 f i libucrtd:output.obj
 0001:0006e710       ?state_case_type@?$output_processor@DV?$stream_output_adapter@D@__crt_stdio_output@@V?$format_validation_base@DV?$stream_output_adapter@D@__crt_stdio_output@@@2@@__crt_stdio_output@@AEAA_NXZ 000000018006f710 f i libucrtd:output.obj
 0001:0006ebb0       ?state_case_type@?$output_processor@DV?$stream_output_adapter@D@__crt_stdio_output@@V?$positional_parameter_base@DV?$stream_output_adapter@D@__crt_stdio_output@@@2@@__crt_stdio_output@@AEAA_NXZ 000000018006fbb0 f i libucrtd:output.obj
 0001:0006f050       ?state_case_type@?$output_processor@DV?$stream_output_adapter@D@__crt_stdio_output@@V?$standard_base@DV?$stream_output_adapter@D@__crt_stdio_output@@@2@@__crt_stdio_output@@AEAA_NXZ 0000000180070050 f i libucrtd:output.obj
 0001:0006f4f0       ?state_case_type@?$output_processor@DV?$string_output_adapter@D@__crt_stdio_output@@V?$format_validation_base@DV?$string_output_adapter@D@__crt_stdio_output@@@2@@__crt_stdio_output@@AEAA_NXZ 00000001800704f0 f i libucrtd:output.obj
 0001:0006f990       ?state_case_type@?$output_processor@DV?$string_output_adapter@D@__crt_stdio_output@@V?$positional_parameter_base@DV?$string_output_adapter@D@__crt_stdio_output@@@2@@__crt_stdio_output@@AEAA_NXZ 0000000180070990 f i libucrtd:output.obj
 0001:0006fe30       ?state_case_type@?$output_processor@DV?$string_output_adapter@D@__crt_stdio_output@@V?$standard_base@DV?$string_output_adapter@D@__crt_stdio_output@@@2@@__crt_stdio_output@@AEAA_NXZ 0000000180070e30 f i libucrtd:output.obj
 0001:000702d0       ?state_case_type@?$output_processor@_WV?$stream_output_adapter@_W@__crt_stdio_output@@V?$format_validation_base@_WV?$stream_output_adapter@_W@__crt_stdio_output@@@2@@__crt_stdio_output@@AEAA_NXZ 00000001800712d0 f i libucrtd:output.obj
 0001:00070830       ?state_case_type@?$output_processor@_WV?$stream_output_adapter@_W@__crt_stdio_output@@V?$positional_parameter_base@_WV?$stream_output_adapter@_W@__crt_stdio_output@@@2@@__crt_stdio_output@@AEAA_NXZ 0000000180071830 f i libucrtd:output.obj
 0001:00070d90       ?state_case_type@?$output_processor@_WV?$stream_output_adapter@_W@__crt_stdio_output@@V?$standard_base@_WV?$stream_output_adapter@_W@__crt_stdio_output@@@2@@__crt_stdio_output@@AEAA_NXZ 0000000180071d90 f i libucrtd:output.obj
 0001:000712f0       ?state_case_type@?$output_processor@_WV?$string_output_adapter@_W@__crt_stdio_output@@V?$format_validation_base@_WV?$string_output_adapter@_W@__crt_stdio_output@@@2@@__crt_stdio_output@@AEAA_NXZ 00000001800722f0 f i libucrtd:output.obj
 0001:00071850       ?state_case_type@?$output_processor@_WV?$string_output_adapter@_W@__crt_stdio_output@@V?$positional_parameter_base@_WV?$string_output_adapter@_W@__crt_stdio_output@@@2@@__crt_stdio_output@@AEAA_NXZ 0000000180072850 f i libucrtd:output.obj
 0001:00071db0       ?state_case_type@?$output_processor@_WV?$string_output_adapter@_W@__crt_stdio_output@@V?$standard_base@_WV?$string_output_adapter@_W@__crt_stdio_output@@@2@@__crt_stdio_output@@AEAA_NXZ 0000000180072db0 f i libucrtd:output.obj
 0001:00072310       ?state_case_width@?$output_processor@DV?$stream_output_adapter@D@__crt_stdio_output@@V?$format_validation_base@DV?$stream_output_adapter@D@__crt_stdio_output@@@2@@__crt_stdio_output@@AEAA_NXZ 0000000180073310 f i libucrtd:output.obj
 0001:000723a0       ?state_case_width@?$output_processor@DV?$stream_output_adapter@D@__crt_stdio_output@@V?$positional_parameter_base@DV?$stream_output_adapter@D@__crt_stdio_output@@@2@@__crt_stdio_output@@AEAA_NXZ 00000001800733a0 f i libucrtd:output.obj
 0001:00072430       ?state_case_width@?$output_processor@DV?$stream_output_adapter@D@__crt_stdio_output@@V?$standard_base@DV?$stream_output_adapter@D@__crt_stdio_output@@@2@@__crt_stdio_output@@AEAA_NXZ 0000000180073430 f i libucrtd:output.obj
 0001:000724c0       ?state_case_width@?$output_processor@DV?$string_output_adapter@D@__crt_stdio_output@@V?$format_validation_base@DV?$string_output_adapter@D@__crt_stdio_output@@@2@@__crt_stdio_output@@AEAA_NXZ 00000001800734c0 f i libucrtd:output.obj
 0001:00072550       ?state_case_width@?$output_processor@DV?$string_output_adapter@D@__crt_stdio_output@@V?$positional_parameter_base@DV?$string_output_adapter@D@__crt_stdio_output@@@2@@__crt_stdio_output@@AEAA_NXZ 0000000180073550 f i libucrtd:output.obj
 0001:000725e0       ?state_case_width@?$output_processor@DV?$string_output_adapter@D@__crt_stdio_output@@V?$standard_base@DV?$string_output_adapter@D@__crt_stdio_output@@@2@@__crt_stdio_output@@AEAA_NXZ 00000001800735e0 f i libucrtd:output.obj
 0001:00072670       ?state_case_width@?$output_processor@_WV?$stream_output_adapter@_W@__crt_stdio_output@@V?$format_validation_base@_WV?$stream_output_adapter@_W@__crt_stdio_output@@@2@@__crt_stdio_output@@AEAA_NXZ 0000000180073670 f i libucrtd:output.obj
 0001:00072700       ?state_case_width@?$output_processor@_WV?$stream_output_adapter@_W@__crt_stdio_output@@V?$positional_parameter_base@_WV?$stream_output_adapter@_W@__crt_stdio_output@@@2@@__crt_stdio_output@@AEAA_NXZ 0000000180073700 f i libucrtd:output.obj
 0001:00072790       ?state_case_width@?$output_processor@_WV?$stream_output_adapter@_W@__crt_stdio_output@@V?$standard_base@_WV?$stream_output_adapter@_W@__crt_stdio_output@@@2@@__crt_stdio_output@@AEAA_NXZ 0000000180073790 f i libucrtd:output.obj
 0001:00072820       ?state_case_width@?$output_processor@_WV?$string_output_adapter@_W@__crt_stdio_output@@V?$format_validation_base@_WV?$string_output_adapter@_W@__crt_stdio_output@@@2@@__crt_stdio_output@@AEAA_NXZ 0000000180073820 f i libucrtd:output.obj
 0001:000728b0       ?state_case_width@?$output_processor@_WV?$string_output_adapter@_W@__crt_stdio_output@@V?$positional_parameter_base@_WV?$string_output_adapter@_W@__crt_stdio_output@@@2@@__crt_stdio_output@@AEAA_NXZ 00000001800738b0 f i libucrtd:output.obj
 0001:00072940       ?state_case_width@?$output_processor@_WV?$string_output_adapter@_W@__crt_stdio_output@@V?$standard_base@_WV?$string_output_adapter@_W@__crt_stdio_output@@@2@@__crt_stdio_output@@AEAA_NXZ 0000000180073940 f i libucrtd:output.obj
 0001:000729d0       ?state_count@?$format_validation_base@DV?$stream_output_adapter@D@__crt_stdio_output@@@__crt_stdio_output@@KAIXZ 00000001800739d0 f i libucrtd:output.obj
 0001:000729e0       ?state_count@?$format_validation_base@DV?$string_output_adapter@D@__crt_stdio_output@@@__crt_stdio_output@@KAIXZ 00000001800739e0 f i libucrtd:output.obj
 0001:000729f0       ?state_count@?$format_validation_base@_WV?$stream_output_adapter@_W@__crt_stdio_output@@@__crt_stdio_output@@KAIXZ 00000001800739f0 f i libucrtd:output.obj
 0001:00072a00       ?state_count@?$format_validation_base@_WV?$string_output_adapter@_W@__crt_stdio_output@@@__crt_stdio_output@@KAIXZ 0000000180073a00 f i libucrtd:output.obj
 0001:00072a10       ?state_count@?$standard_base@DV?$stream_output_adapter@D@__crt_stdio_output@@@__crt_stdio_output@@KAIXZ 0000000180073a10 f i libucrtd:output.obj
 0001:00072a20       ?state_count@?$standard_base@DV?$string_output_adapter@D@__crt_stdio_output@@@__crt_stdio_output@@KAIXZ 0000000180073a20 f i libucrtd:output.obj
 0001:00072a30       ?state_count@?$standard_base@_WV?$stream_output_adapter@_W@__crt_stdio_output@@@__crt_stdio_output@@KAIXZ 0000000180073a30 f i libucrtd:output.obj
 0001:00072a40       ?state_count@?$standard_base@_WV?$string_output_adapter@_W@__crt_stdio_output@@@__crt_stdio_output@@KAIXZ 0000000180073a40 f i libucrtd:output.obj
 0001:00072a50       ?state_transition_table@?$format_validation_base@DV?$stream_output_adapter@D@__crt_stdio_output@@@__crt_stdio_output@@KAPEBEXZ 0000000180073a50 f i libucrtd:output.obj
 0001:00072a60       ?state_transition_table@?$format_validation_base@DV?$string_output_adapter@D@__crt_stdio_output@@@__crt_stdio_output@@KAPEBEXZ 0000000180073a60 f i libucrtd:output.obj
 0001:00072a70       ?state_transition_table@?$format_validation_base@_WV?$stream_output_adapter@_W@__crt_stdio_output@@@__crt_stdio_output@@KAPEBEXZ 0000000180073a70 f i libucrtd:output.obj
 0001:00072a80       ?state_transition_table@?$format_validation_base@_WV?$string_output_adapter@_W@__crt_stdio_output@@@__crt_stdio_output@@KAPEBEXZ 0000000180073a80 f i libucrtd:output.obj
 0001:00072a90       ?state_transition_table@?$standard_base@DV?$stream_output_adapter@D@__crt_stdio_output@@@__crt_stdio_output@@KAPEBEXZ 0000000180073a90 f i libucrtd:output.obj
 0001:00072aa0       ?state_transition_table@?$standard_base@DV?$string_output_adapter@D@__crt_stdio_output@@@__crt_stdio_output@@KAPEBEXZ 0000000180073aa0 f i libucrtd:output.obj
 0001:00072ab0       ?state_transition_table@?$standard_base@_WV?$stream_output_adapter@_W@__crt_stdio_output@@@__crt_stdio_output@@KAPEBEXZ 0000000180073ab0 f i libucrtd:output.obj
 0001:00072ac0       ?state_transition_table@?$standard_base@_WV?$string_output_adapter@_W@__crt_stdio_output@@@__crt_stdio_output@@KAPEBEXZ 0000000180073ac0 f i libucrtd:output.obj
 0001:00072ad0       ?tchar_string@?$common_data@D@__crt_stdio_output@@IEAAAEAPEADD@Z 0000000180073ad0 f i libucrtd:output.obj
 0001:00072af0       ?tchar_string@?$common_data@D@__crt_stdio_output@@IEAAAEAPEADXZ 0000000180073af0 f i libucrtd:output.obj
 0001:00072b10       ?tchar_string@?$common_data@_W@__crt_stdio_output@@IEAAAEAPEA_WXZ 0000000180073b10 f i libucrtd:output.obj
 0001:00072b30       ?tchar_string@?$common_data@_W@__crt_stdio_output@@IEAAAEAPEA_W_W@Z 0000000180073b30 f i libucrtd:output.obj
 0001:00072b50       ?to_integer_size@__crt_stdio_output@@YA_KW4length_modifier@1@@Z 0000000180073b50 f i libucrtd:output.obj
 0001:00072c00       ?type_case_X@?$output_processor@DV?$stream_output_adapter@D@__crt_stdio_output@@V?$format_validation_base@DV?$stream_output_adapter@D@__crt_stdio_output@@@2@@__crt_stdio_output@@AEAA_NXZ 0000000180073c00 f i libucrtd:output.obj
 0001:00072c20       ?type_case_X@?$output_processor@DV?$stream_output_adapter@D@__crt_stdio_output@@V?$positional_parameter_base@DV?$stream_output_adapter@D@__crt_stdio_output@@@2@@__crt_stdio_output@@AEAA_NXZ 0000000180073c20 f i libucrtd:output.obj
 0001:00072c40       ?type_case_X@?$output_processor@DV?$stream_output_adapter@D@__crt_stdio_output@@V?$standard_base@DV?$stream_output_adapter@D@__crt_stdio_output@@@2@@__crt_stdio_output@@AEAA_NXZ 0000000180073c40 f i libucrtd:output.obj
 0001:00072c60       ?type_case_X@?$output_processor@DV?$string_output_adapter@D@__crt_stdio_output@@V?$format_validation_base@DV?$string_output_adapter@D@__crt_stdio_output@@@2@@__crt_stdio_output@@AEAA_NXZ 0000000180073c60 f i libucrtd:output.obj
 0001:00072c80       ?type_case_X@?$output_processor@DV?$string_output_adapter@D@__crt_stdio_output@@V?$positional_parameter_base@DV?$string_output_adapter@D@__crt_stdio_output@@@2@@__crt_stdio_output@@AEAA_NXZ 0000000180073c80 f i libucrtd:output.obj
 0001:00072ca0       ?type_case_X@?$output_processor@DV?$string_output_adapter@D@__crt_stdio_output@@V?$standard_base@DV?$string_output_adapter@D@__crt_stdio_output@@@2@@__crt_stdio_output@@AEAA_NXZ 0000000180073ca0 f i libucrtd:output.obj
 0001:00072cc0       ?type_case_X@?$output_processor@_WV?$stream_output_adapter@_W@__crt_stdio_output@@V?$format_validation_base@_WV?$stream_output_adapter@_W@__crt_stdio_output@@@2@@__crt_stdio_output@@AEAA_NXZ 0000000180073cc0 f i libucrtd:output.obj
 0001:00072ce0       ?type_case_X@?$output_processor@_WV?$stream_output_adapter@_W@__crt_stdio_output@@V?$positional_parameter_base@_WV?$stream_output_adapter@_W@__crt_stdio_output@@@2@@__crt_stdio_output@@AEAA_NXZ 0000000180073ce0 f i libucrtd:output.obj
 0001:00072d00       ?type_case_X@?$output_processor@_WV?$stream_output_adapter@_W@__crt_stdio_output@@V?$standard_base@_WV?$stream_output_adapter@_W@__crt_stdio_output@@@2@@__crt_stdio_output@@AEAA_NXZ 0000000180073d00 f i libucrtd:output.obj
 0001:00072d20       ?type_case_X@?$output_processor@_WV?$string_output_adapter@_W@__crt_stdio_output@@V?$format_validation_base@_WV?$string_output_adapter@_W@__crt_stdio_output@@@2@@__crt_stdio_output@@AEAA_NXZ 0000000180073d20 f i libucrtd:output.obj
 0001:00072d40       ?type_case_X@?$output_processor@_WV?$string_output_adapter@_W@__crt_stdio_output@@V?$positional_parameter_base@_WV?$string_output_adapter@_W@__crt_stdio_output@@@2@@__crt_stdio_output@@AEAA_NXZ 0000000180073d40 f i libucrtd:output.obj
 0001:00072d60       ?type_case_X@?$output_processor@_WV?$string_output_adapter@_W@__crt_stdio_output@@V?$standard_base@_WV?$string_output_adapter@_W@__crt_stdio_output@@@2@@__crt_stdio_output@@AEAA_NXZ 0000000180073d60 f i libucrtd:output.obj
 0001:00072d80       ?type_case_Z@?$output_processor@DV?$stream_output_adapter@D@__crt_stdio_output@@V?$format_validation_base@DV?$stream_output_adapter@D@__crt_stdio_output@@@2@@__crt_stdio_output@@AEAA_NXZ 0000000180073d80 f i libucrtd:output.obj
 0001:00072ea0       ?type_case_Z@?$output_processor@DV?$stream_output_adapter@D@__crt_stdio_output@@V?$positional_parameter_base@DV?$stream_output_adapter@D@__crt_stdio_output@@@2@@__crt_stdio_output@@AEAA_NXZ 0000000180073ea0 f i libucrtd:output.obj
 0001:00072fc0       ?type_case_Z@?$output_processor@DV?$stream_output_adapter@D@__crt_stdio_output@@V?$standard_base@DV?$stream_output_adapter@D@__crt_stdio_output@@@2@@__crt_stdio_output@@AEAA_NXZ 0000000180073fc0 f i libucrtd:output.obj
 0001:000730e0       ?type_case_Z@?$output_processor@DV?$string_output_adapter@D@__crt_stdio_output@@V?$format_validation_base@DV?$string_output_adapter@D@__crt_stdio_output@@@2@@__crt_stdio_output@@AEAA_NXZ 00000001800740e0 f i libucrtd:output.obj
 0001:00073200       ?type_case_Z@?$output_processor@DV?$string_output_adapter@D@__crt_stdio_output@@V?$positional_parameter_base@DV?$string_output_adapter@D@__crt_stdio_output@@@2@@__crt_stdio_output@@AEAA_NXZ 0000000180074200 f i libucrtd:output.obj
 0001:00073320       ?type_case_Z@?$output_processor@DV?$string_output_adapter@D@__crt_stdio_output@@V?$standard_base@DV?$string_output_adapter@D@__crt_stdio_output@@@2@@__crt_stdio_output@@AEAA_NXZ 0000000180074320 f i libucrtd:output.obj
 0001:00073440       ?type_case_Z@?$output_processor@_WV?$stream_output_adapter@_W@__crt_stdio_output@@V?$format_validation_base@_WV?$stream_output_adapter@_W@__crt_stdio_output@@@2@@__crt_stdio_output@@AEAA_NXZ 0000000180074440 f i libucrtd:output.obj
 0001:00073560       ?type_case_Z@?$output_processor@_WV?$stream_output_adapter@_W@__crt_stdio_output@@V?$positional_parameter_base@_WV?$stream_output_adapter@_W@__crt_stdio_output@@@2@@__crt_stdio_output@@AEAA_NXZ 0000000180074560 f i libucrtd:output.obj
 0001:00073680       ?type_case_Z@?$output_processor@_WV?$stream_output_adapter@_W@__crt_stdio_output@@V?$standard_base@_WV?$stream_output_adapter@_W@__crt_stdio_output@@@2@@__crt_stdio_output@@AEAA_NXZ 0000000180074680 f i libucrtd:output.obj
 0001:000737a0       ?type_case_Z@?$output_processor@_WV?$string_output_adapter@_W@__crt_stdio_output@@V?$format_validation_base@_WV?$string_output_adapter@_W@__crt_stdio_output@@@2@@__crt_stdio_output@@AEAA_NXZ 00000001800747a0 f i libucrtd:output.obj
 0001:000738c0       ?type_case_Z@?$output_processor@_WV?$string_output_adapter@_W@__crt_stdio_output@@V?$positional_parameter_base@_WV?$string_output_adapter@_W@__crt_stdio_output@@@2@@__crt_stdio_output@@AEAA_NXZ 00000001800748c0 f i libucrtd:output.obj
 0001:000739e0       ?type_case_Z@?$output_processor@_WV?$string_output_adapter@_W@__crt_stdio_output@@V?$standard_base@_WV?$string_output_adapter@_W@__crt_stdio_output@@@2@@__crt_stdio_output@@AEAA_NXZ 00000001800749e0 f i libucrtd:output.obj
 0001:00073b00       ?type_case_a@?$output_processor@DV?$stream_output_adapter@D@__crt_stdio_output@@V?$format_validation_base@DV?$stream_output_adapter@D@__crt_stdio_output@@@2@@__crt_stdio_output@@AEAA_NXZ 0000000180074b00 f i libucrtd:output.obj
 0001:00073ec0       ?type_case_a@?$output_processor@DV?$stream_output_adapter@D@__crt_stdio_output@@V?$positional_parameter_base@DV?$stream_output_adapter@D@__crt_stdio_output@@@2@@__crt_stdio_output@@AEAA_NXZ 0000000180074ec0 f i libucrtd:output.obj
 0001:00074280       ?type_case_a@?$output_processor@DV?$stream_output_adapter@D@__crt_stdio_output@@V?$standard_base@DV?$stream_output_adapter@D@__crt_stdio_output@@@2@@__crt_stdio_output@@AEAA_NXZ 0000000180075280 f i libucrtd:output.obj
 0001:00074640       ?type_case_a@?$output_processor@DV?$string_output_adapter@D@__crt_stdio_output@@V?$format_validation_base@DV?$string_output_adapter@D@__crt_stdio_output@@@2@@__crt_stdio_output@@AEAA_NXZ 0000000180075640 f i libucrtd:output.obj
 0001:00074a00       ?type_case_a@?$output_processor@DV?$string_output_adapter@D@__crt_stdio_output@@V?$positional_parameter_base@DV?$string_output_adapter@D@__crt_stdio_output@@@2@@__crt_stdio_output@@AEAA_NXZ 0000000180075a00 f i libucrtd:output.obj
 0001:00074dc0       ?type_case_a@?$output_processor@DV?$string_output_adapter@D@__crt_stdio_output@@V?$standard_base@DV?$string_output_adapter@D@__crt_stdio_output@@@2@@__crt_stdio_output@@AEAA_NXZ 0000000180075dc0 f i libucrtd:output.obj
 0001:00075180       ?type_case_a@?$output_processor@_WV?$stream_output_adapter@_W@__crt_stdio_output@@V?$format_validation_base@_WV?$stream_output_adapter@_W@__crt_stdio_output@@@2@@__crt_stdio_output@@AEAA_NXZ 0000000180076180 f i libucrtd:output.obj
 0001:00075550       ?type_case_a@?$output_processor@_WV?$stream_output_adapter@_W@__crt_stdio_output@@V?$positional_parameter_base@_WV?$stream_output_adapter@_W@__crt_stdio_output@@@2@@__crt_stdio_output@@AEAA_NXZ 0000000180076550 f i libucrtd:output.obj
 0001:00075920       ?type_case_a@?$output_processor@_WV?$stream_output_adapter@_W@__crt_stdio_output@@V?$standard_base@_WV?$stream_output_adapter@_W@__crt_stdio_output@@@2@@__crt_stdio_output@@AEAA_NXZ 0000000180076920 f i libucrtd:output.obj
 0001:00075cf0       ?type_case_a@?$output_processor@_WV?$string_output_adapter@_W@__crt_stdio_output@@V?$format_validation_base@_WV?$string_output_adapter@_W@__crt_stdio_output@@@2@@__crt_stdio_output@@AEAA_NXZ 0000000180076cf0 f i libucrtd:output.obj
 0001:000760c0       ?type_case_a@?$output_processor@_WV?$string_output_adapter@_W@__crt_stdio_output@@V?$positional_parameter_base@_WV?$string_output_adapter@_W@__crt_stdio_output@@@2@@__crt_stdio_output@@AEAA_NXZ 00000001800770c0 f i libucrtd:output.obj
 0001:00076490       ?type_case_a@?$output_processor@_WV?$string_output_adapter@_W@__crt_stdio_output@@V?$standard_base@_WV?$string_output_adapter@_W@__crt_stdio_output@@@2@@__crt_stdio_output@@AEAA_NXZ 0000000180077490 f i libucrtd:output.obj
 0001:00076860       ?type_case_c@?$output_processor@DV?$stream_output_adapter@D@__crt_stdio_output@@V?$format_validation_base@DV?$stream_output_adapter@D@__crt_stdio_output@@@2@@__crt_stdio_output@@AEAA_NXZ 0000000180077860 f i libucrtd:output.obj
 0001:00076880       ?type_case_c@?$output_processor@DV?$stream_output_adapter@D@__crt_stdio_output@@V?$positional_parameter_base@DV?$stream_output_adapter@D@__crt_stdio_output@@@2@@__crt_stdio_output@@AEAA_NXZ 0000000180077880 f i libucrtd:output.obj
 0001:000768a0       ?type_case_c@?$output_processor@DV?$stream_output_adapter@D@__crt_stdio_output@@V?$standard_base@DV?$stream_output_adapter@D@__crt_stdio_output@@@2@@__crt_stdio_output@@AEAA_NXZ 00000001800778a0 f i libucrtd:output.obj
 0001:000768c0       ?type_case_c@?$output_processor@DV?$string_output_adapter@D@__crt_stdio_output@@V?$format_validation_base@DV?$string_output_adapter@D@__crt_stdio_output@@@2@@__crt_stdio_output@@AEAA_NXZ 00000001800778c0 f i libucrtd:output.obj
 0001:000768e0       ?type_case_c@?$output_processor@DV?$string_output_adapter@D@__crt_stdio_output@@V?$positional_parameter_base@DV?$string_output_adapter@D@__crt_stdio_output@@@2@@__crt_stdio_output@@AEAA_NXZ 00000001800778e0 f i libucrtd:output.obj
 0001:00076900       ?type_case_c@?$output_processor@DV?$string_output_adapter@D@__crt_stdio_output@@V?$standard_base@DV?$string_output_adapter@D@__crt_stdio_output@@@2@@__crt_stdio_output@@AEAA_NXZ 0000000180077900 f i libucrtd:output.obj
 0001:00076920       ?type_case_c@?$output_processor@_WV?$stream_output_adapter@_W@__crt_stdio_output@@V?$format_validation_base@_WV?$stream_output_adapter@_W@__crt_stdio_output@@@2@@__crt_stdio_output@@AEAA_NXZ 0000000180077920 f i libucrtd:output.obj
 0001:00076940       ?type_case_c@?$output_processor@_WV?$stream_output_adapter@_W@__crt_stdio_output@@V?$positional_parameter_base@_WV?$stream_output_adapter@_W@__crt_stdio_output@@@2@@__crt_stdio_output@@AEAA_NXZ 0000000180077940 f i libucrtd:output.obj
 0001:00076960       ?type_case_c@?$output_processor@_WV?$stream_output_adapter@_W@__crt_stdio_output@@V?$standard_base@_WV?$stream_output_adapter@_W@__crt_stdio_output@@@2@@__crt_stdio_output@@AEAA_NXZ 0000000180077960 f i libucrtd:output.obj
 0001:00076980       ?type_case_c@?$output_processor@_WV?$string_output_adapter@_W@__crt_stdio_output@@V?$format_validation_base@_WV?$string_output_adapter@_W@__crt_stdio_output@@@2@@__crt_stdio_output@@AEAA_NXZ 0000000180077980 f i libucrtd:output.obj
 0001:000769a0       ?type_case_c@?$output_processor@_WV?$string_output_adapter@_W@__crt_stdio_output@@V?$positional_parameter_base@_WV?$string_output_adapter@_W@__crt_stdio_output@@@2@@__crt_stdio_output@@AEAA_NXZ 00000001800779a0 f i libucrtd:output.obj
 0001:000769c0       ?type_case_c@?$output_processor@_WV?$string_output_adapter@_W@__crt_stdio_output@@V?$standard_base@_WV?$string_output_adapter@_W@__crt_stdio_output@@@2@@__crt_stdio_output@@AEAA_NXZ 00000001800779c0 f i libucrtd:output.obj
 0001:000769e0       ?type_case_c_tchar@?$output_processor@DV?$stream_output_adapter@D@__crt_stdio_output@@V?$format_validation_base@DV?$stream_output_adapter@D@__crt_stdio_output@@@2@@__crt_stdio_output@@AEAA_ND@Z 00000001800779e0 f i libucrtd:output.obj
 0001:00076b30       ?type_case_c_tchar@?$output_processor@DV?$stream_output_adapter@D@__crt_stdio_output@@V?$positional_parameter_base@DV?$stream_output_adapter@D@__crt_stdio_output@@@2@@__crt_stdio_output@@AEAA_ND@Z 0000000180077b30 f i libucrtd:output.obj
 0001:00076c80       ?type_case_c_tchar@?$output_processor@DV?$stream_output_adapter@D@__crt_stdio_output@@V?$standard_base@DV?$stream_output_adapter@D@__crt_stdio_output@@@2@@__crt_stdio_output@@AEAA_ND@Z 0000000180077c80 f i libucrtd:output.obj
 0001:00076dd0       ?type_case_c_tchar@?$output_processor@DV?$string_output_adapter@D@__crt_stdio_output@@V?$format_validation_base@DV?$string_output_adapter@D@__crt_stdio_output@@@2@@__crt_stdio_output@@AEAA_ND@Z 0000000180077dd0 f i libucrtd:output.obj
 0001:00076f20       ?type_case_c_tchar@?$output_processor@DV?$string_output_adapter@D@__crt_stdio_output@@V?$positional_parameter_base@DV?$string_output_adapter@D@__crt_stdio_output@@@2@@__crt_stdio_output@@AEAA_ND@Z 0000000180077f20 f i libucrtd:output.obj
 0001:00077070       ?type_case_c_tchar@?$output_processor@DV?$string_output_adapter@D@__crt_stdio_output@@V?$standard_base@DV?$string_output_adapter@D@__crt_stdio_output@@@2@@__crt_stdio_output@@AEAA_ND@Z 0000000180078070 f i libucrtd:output.obj
 0001:000771c0       ?type_case_c_tchar@?$output_processor@_WV?$stream_output_adapter@_W@__crt_stdio_output@@V?$format_validation_base@_WV?$stream_output_adapter@_W@__crt_stdio_output@@@2@@__crt_stdio_output@@AEAA_N_W@Z 00000001800781c0 f i libucrtd:output.obj
 0001:000772f0       ?type_case_c_tchar@?$output_processor@_WV?$stream_output_adapter@_W@__crt_stdio_output@@V?$positional_parameter_base@_WV?$stream_output_adapter@_W@__crt_stdio_output@@@2@@__crt_stdio_output@@AEAA_N_W@Z 00000001800782f0 f i libucrtd:output.obj
 0001:00077420       ?type_case_c_tchar@?$output_processor@_WV?$stream_output_adapter@_W@__crt_stdio_output@@V?$standard_base@_WV?$stream_output_adapter@_W@__crt_stdio_output@@@2@@__crt_stdio_output@@AEAA_N_W@Z 0000000180078420 f i libucrtd:output.obj
 0001:00077550       ?type_case_c_tchar@?$output_processor@_WV?$string_output_adapter@_W@__crt_stdio_output@@V?$format_validation_base@_WV?$string_output_adapter@_W@__crt_stdio_output@@@2@@__crt_stdio_output@@AEAA_N_W@Z 0000000180078550 f i libucrtd:output.obj
 0001:00077680       ?type_case_c_tchar@?$output_processor@_WV?$string_output_adapter@_W@__crt_stdio_output@@V?$positional_parameter_base@_WV?$string_output_adapter@_W@__crt_stdio_output@@@2@@__crt_stdio_output@@AEAA_N_W@Z 0000000180078680 f i libucrtd:output.obj
 0001:000777b0       ?type_case_c_tchar@?$output_processor@_WV?$string_output_adapter@_W@__crt_stdio_output@@V?$standard_base@_WV?$string_output_adapter@_W@__crt_stdio_output@@@2@@__crt_stdio_output@@AEAA_N_W@Z 00000001800787b0 f i libucrtd:output.obj
 0001:000778e0       ?type_case_d@?$output_processor@DV?$stream_output_adapter@D@__crt_stdio_output@@V?$format_validation_base@DV?$stream_output_adapter@D@__crt_stdio_output@@@2@@__crt_stdio_output@@AEAA_NXZ 00000001800788e0 f i libucrtd:output.obj
 0001:00077910       ?type_case_d@?$output_processor@DV?$stream_output_adapter@D@__crt_stdio_output@@V?$positional_parameter_base@DV?$stream_output_adapter@D@__crt_stdio_output@@@2@@__crt_stdio_output@@AEAA_NXZ 0000000180078910 f i libucrtd:output.obj
 0001:00077940       ?type_case_d@?$output_processor@DV?$stream_output_adapter@D@__crt_stdio_output@@V?$standard_base@DV?$stream_output_adapter@D@__crt_stdio_output@@@2@@__crt_stdio_output@@AEAA_NXZ 0000000180078940 f i libucrtd:output.obj
 0001:00077970       ?type_case_d@?$output_processor@DV?$string_output_adapter@D@__crt_stdio_output@@V?$format_validation_base@DV?$string_output_adapter@D@__crt_stdio_output@@@2@@__crt_stdio_output@@AEAA_NXZ 0000000180078970 f i libucrtd:output.obj
 0001:000779a0       ?type_case_d@?$output_processor@DV?$string_output_adapter@D@__crt_stdio_output@@V?$positional_parameter_base@DV?$string_output_adapter@D@__crt_stdio_output@@@2@@__crt_stdio_output@@AEAA_NXZ 00000001800789a0 f i libucrtd:output.obj
 0001:000779d0       ?type_case_d@?$output_processor@DV?$string_output_adapter@D@__crt_stdio_output@@V?$standard_base@DV?$string_output_adapter@D@__crt_stdio_output@@@2@@__crt_stdio_output@@AEAA_NXZ 00000001800789d0 f i libucrtd:output.obj
 0001:00077a00       ?type_case_d@?$output_processor@_WV?$stream_output_adapter@_W@__crt_stdio_output@@V?$format_validation_base@_WV?$stream_output_adapter@_W@__crt_stdio_output@@@2@@__crt_stdio_output@@AEAA_NXZ 0000000180078a00 f i libucrtd:output.obj
 0001:00077a30       ?type_case_d@?$output_processor@_WV?$stream_output_adapter@_W@__crt_stdio_output@@V?$positional_parameter_base@_WV?$stream_output_adapter@_W@__crt_stdio_output@@@2@@__crt_stdio_output@@AEAA_NXZ 0000000180078a30 f i libucrtd:output.obj
 0001:00077a60       ?type_case_d@?$output_processor@_WV?$stream_output_adapter@_W@__crt_stdio_output@@V?$standard_base@_WV?$stream_output_adapter@_W@__crt_stdio_output@@@2@@__crt_stdio_output@@AEAA_NXZ 0000000180078a60 f i libucrtd:output.obj
 0001:00077a90       ?type_case_d@?$output_processor@_WV?$string_output_adapter@_W@__crt_stdio_output@@V?$format_validation_base@_WV?$string_output_adapter@_W@__crt_stdio_output@@@2@@__crt_stdio_output@@AEAA_NXZ 0000000180078a90 f i libucrtd:output.obj
 0001:00077ac0       ?type_case_d@?$output_processor@_WV?$string_output_adapter@_W@__crt_stdio_output@@V?$positional_parameter_base@_WV?$string_output_adapter@_W@__crt_stdio_output@@@2@@__crt_stdio_output@@AEAA_NXZ 0000000180078ac0 f i libucrtd:output.obj
 0001:00077af0       ?type_case_d@?$output_processor@_WV?$string_output_adapter@_W@__crt_stdio_output@@V?$standard_base@_WV?$string_output_adapter@_W@__crt_stdio_output@@@2@@__crt_stdio_output@@AEAA_NXZ 0000000180078af0 f i libucrtd:output.obj
 0001:00077b20       ?type_case_integer@?$output_processor@DV?$stream_output_adapter@D@__crt_stdio_output@@V?$format_validation_base@DV?$stream_output_adapter@D@__crt_stdio_output@@@2@@__crt_stdio_output@@AEAA_NI_N@Z 0000000180078b20 f i libucrtd:output.obj
 0001:00077f70       ?type_case_integer@?$output_processor@DV?$stream_output_adapter@D@__crt_stdio_output@@V?$positional_parameter_base@DV?$stream_output_adapter@D@__crt_stdio_output@@@2@@__crt_stdio_output@@AEAA_NI_N@Z 0000000180078f70 f i libucrtd:output.obj
 0001:000783c0       ?type_case_integer@?$output_processor@DV?$stream_output_adapter@D@__crt_stdio_output@@V?$standard_base@DV?$stream_output_adapter@D@__crt_stdio_output@@@2@@__crt_stdio_output@@AEAA_NI_N@Z 00000001800793c0 f i libucrtd:output.obj
 0001:00078810       ?type_case_integer@?$output_processor@DV?$string_output_adapter@D@__crt_stdio_output@@V?$format_validation_base@DV?$string_output_adapter@D@__crt_stdio_output@@@2@@__crt_stdio_output@@AEAA_NI_N@Z 0000000180079810 f i libucrtd:output.obj
 0001:00078c60       ?type_case_integer@?$output_processor@DV?$string_output_adapter@D@__crt_stdio_output@@V?$positional_parameter_base@DV?$string_output_adapter@D@__crt_stdio_output@@@2@@__crt_stdio_output@@AEAA_NI_N@Z 0000000180079c60 f i libucrtd:output.obj
 0001:000790b0       ?type_case_integer@?$output_processor@DV?$string_output_adapter@D@__crt_stdio_output@@V?$standard_base@DV?$string_output_adapter@D@__crt_stdio_output@@@2@@__crt_stdio_output@@AEAA_NI_N@Z 000000018007a0b0 f i libucrtd:output.obj
 0001:00079500       ?type_case_integer@?$output_processor@_WV?$stream_output_adapter@_W@__crt_stdio_output@@V?$format_validation_base@_WV?$stream_output_adapter@_W@__crt_stdio_output@@@2@@__crt_stdio_output@@AEAA_NI_N@Z 000000018007a500 f i libucrtd:output.obj
 0001:00079950       ?type_case_integer@?$output_processor@_WV?$stream_output_adapter@_W@__crt_stdio_output@@V?$positional_parameter_base@_WV?$stream_output_adapter@_W@__crt_stdio_output@@@2@@__crt_stdio_output@@AEAA_NI_N@Z 000000018007a950 f i libucrtd:output.obj
 0001:00079da0       ?type_case_integer@?$output_processor@_WV?$stream_output_adapter@_W@__crt_stdio_output@@V?$standard_base@_WV?$stream_output_adapter@_W@__crt_stdio_output@@@2@@__crt_stdio_output@@AEAA_NI_N@Z 000000018007ada0 f i libucrtd:output.obj
 0001:0007a1f0       ?type_case_integer@?$output_processor@_WV?$string_output_adapter@_W@__crt_stdio_output@@V?$format_validation_base@_WV?$string_output_adapter@_W@__crt_stdio_output@@@2@@__crt_stdio_output@@AEAA_NI_N@Z 000000018007b1f0 f i libucrtd:output.obj
 0001:0007a640       ?type_case_integer@?$output_processor@_WV?$string_output_adapter@_W@__crt_stdio_output@@V?$positional_parameter_base@_WV?$string_output_adapter@_W@__crt_stdio_output@@@2@@__crt_stdio_output@@AEAA_NI_N@Z 000000018007b640 f i libucrtd:output.obj
 0001:0007aa90       ?type_case_integer@?$output_processor@_WV?$string_output_adapter@_W@__crt_stdio_output@@V?$standard_base@_WV?$string_output_adapter@_W@__crt_stdio_output@@@2@@__crt_stdio_output@@AEAA_NI_N@Z 000000018007ba90 f i libucrtd:output.obj
 0001:0007aee0       ?type_case_n@?$output_processor@DV?$stream_output_adapter@D@__crt_stdio_output@@V?$format_validation_base@DV?$stream_output_adapter@D@__crt_stdio_output@@@2@@__crt_stdio_output@@AEAA_NXZ 000000018007bee0 f i libucrtd:output.obj
 0001:0007b120       ?type_case_n@?$output_processor@DV?$stream_output_adapter@D@__crt_stdio_output@@V?$positional_parameter_base@DV?$stream_output_adapter@D@__crt_stdio_output@@@2@@__crt_stdio_output@@AEAA_NXZ 000000018007c120 f i libucrtd:output.obj
 0001:0007b360       ?type_case_n@?$output_processor@DV?$stream_output_adapter@D@__crt_stdio_output@@V?$standard_base@DV?$stream_output_adapter@D@__crt_stdio_output@@@2@@__crt_stdio_output@@AEAA_NXZ 000000018007c360 f i libucrtd:output.obj
 0001:0007b5a0       ?type_case_n@?$output_processor@DV?$string_output_adapter@D@__crt_stdio_output@@V?$format_validation_base@DV?$string_output_adapter@D@__crt_stdio_output@@@2@@__crt_stdio_output@@AEAA_NXZ 000000018007c5a0 f i libucrtd:output.obj
 0001:0007b7e0       ?type_case_n@?$output_processor@DV?$string_output_adapter@D@__crt_stdio_output@@V?$positional_parameter_base@DV?$string_output_adapter@D@__crt_stdio_output@@@2@@__crt_stdio_output@@AEAA_NXZ 000000018007c7e0 f i libucrtd:output.obj
 0001:0007ba20       ?type_case_n@?$output_processor@DV?$string_output_adapter@D@__crt_stdio_output@@V?$standard_base@DV?$string_output_adapter@D@__crt_stdio_output@@@2@@__crt_stdio_output@@AEAA_NXZ 000000018007ca20 f i libucrtd:output.obj
 0001:0007bc60       ?type_case_n@?$output_processor@_WV?$stream_output_adapter@_W@__crt_stdio_output@@V?$format_validation_base@_WV?$stream_output_adapter@_W@__crt_stdio_output@@@2@@__crt_stdio_output@@AEAA_NXZ 000000018007cc60 f i libucrtd:output.obj
 0001:0007bea0       ?type_case_n@?$output_processor@_WV?$stream_output_adapter@_W@__crt_stdio_output@@V?$positional_parameter_base@_WV?$stream_output_adapter@_W@__crt_stdio_output@@@2@@__crt_stdio_output@@AEAA_NXZ 000000018007cea0 f i libucrtd:output.obj
 0001:0007c0e0       ?type_case_n@?$output_processor@_WV?$stream_output_adapter@_W@__crt_stdio_output@@V?$standard_base@_WV?$stream_output_adapter@_W@__crt_stdio_output@@@2@@__crt_stdio_output@@AEAA_NXZ 000000018007d0e0 f i libucrtd:output.obj
 0001:0007c320       ?type_case_n@?$output_processor@_WV?$string_output_adapter@_W@__crt_stdio_output@@V?$format_validation_base@_WV?$string_output_adapter@_W@__crt_stdio_output@@@2@@__crt_stdio_output@@AEAA_NXZ 000000018007d320 f i libucrtd:output.obj
 0001:0007c560       ?type_case_n@?$output_processor@_WV?$string_output_adapter@_W@__crt_stdio_output@@V?$positional_parameter_base@_WV?$string_output_adapter@_W@__crt_stdio_output@@@2@@__crt_stdio_output@@AEAA_NXZ 000000018007d560 f i libucrtd:output.obj
 0001:0007c7a0       ?type_case_n@?$output_processor@_WV?$string_output_adapter@_W@__crt_stdio_output@@V?$standard_base@_WV?$string_output_adapter@_W@__crt_stdio_output@@@2@@__crt_stdio_output@@AEAA_NXZ 000000018007d7a0 f i libucrtd:output.obj
 0001:0007c9e0       ?type_case_o@?$output_processor@DV?$stream_output_adapter@D@__crt_stdio_output@@V?$format_validation_base@DV?$stream_output_adapter@D@__crt_stdio_output@@@2@@__crt_stdio_output@@AEAA_NXZ 000000018007d9e0 f i libucrtd:output.obj
 0001:0007ca30       ?type_case_o@?$output_processor@DV?$stream_output_adapter@D@__crt_stdio_output@@V?$positional_parameter_base@DV?$stream_output_adapter@D@__crt_stdio_output@@@2@@__crt_stdio_output@@AEAA_NXZ 000000018007da30 f i libucrtd:output.obj
 0001:0007ca80       ?type_case_o@?$output_processor@DV?$stream_output_adapter@D@__crt_stdio_output@@V?$standard_base@DV?$stream_output_adapter@D@__crt_stdio_output@@@2@@__crt_stdio_output@@AEAA_NXZ 000000018007da80 f i libucrtd:output.obj
 0001:0007cad0       ?type_case_o@?$output_processor@DV?$string_output_adapter@D@__crt_stdio_output@@V?$format_validation_base@DV?$string_output_adapter@D@__crt_stdio_output@@@2@@__crt_stdio_output@@AEAA_NXZ 000000018007dad0 f i libucrtd:output.obj
 0001:0007cb20       ?type_case_o@?$output_processor@DV?$string_output_adapter@D@__crt_stdio_output@@V?$positional_parameter_base@DV?$string_output_adapter@D@__crt_stdio_output@@@2@@__crt_stdio_output@@AEAA_NXZ 000000018007db20 f i libucrtd:output.obj
 0001:0007cb70       ?type_case_o@?$output_processor@DV?$string_output_adapter@D@__crt_stdio_output@@V?$standard_base@DV?$string_output_adapter@D@__crt_stdio_output@@@2@@__crt_stdio_output@@AEAA_NXZ 000000018007db70 f i libucrtd:output.obj
 0001:0007cbc0       ?type_case_o@?$output_processor@_WV?$stream_output_adapter@_W@__crt_stdio_output@@V?$format_validation_base@_WV?$stream_output_adapter@_W@__crt_stdio_output@@@2@@__crt_stdio_output@@AEAA_NXZ 000000018007dbc0 f i libucrtd:output.obj
 0001:0007cc10       ?type_case_o@?$output_processor@_WV?$stream_output_adapter@_W@__crt_stdio_output@@V?$positional_parameter_base@_WV?$stream_output_adapter@_W@__crt_stdio_output@@@2@@__crt_stdio_output@@AEAA_NXZ 000000018007dc10 f i libucrtd:output.obj
 0001:0007cc60       ?type_case_o@?$output_processor@_WV?$stream_output_adapter@_W@__crt_stdio_output@@V?$standard_base@_WV?$stream_output_adapter@_W@__crt_stdio_output@@@2@@__crt_stdio_output@@AEAA_NXZ 000000018007dc60 f i libucrtd:output.obj
 0001:0007ccb0       ?type_case_o@?$output_processor@_WV?$string_output_adapter@_W@__crt_stdio_output@@V?$format_validation_base@_WV?$string_output_adapter@_W@__crt_stdio_output@@@2@@__crt_stdio_output@@AEAA_NXZ 000000018007dcb0 f i libucrtd:output.obj
 0001:0007cd00       ?type_case_o@?$output_processor@_WV?$string_output_adapter@_W@__crt_stdio_output@@V?$positional_parameter_base@_WV?$string_output_adapter@_W@__crt_stdio_output@@@2@@__crt_stdio_output@@AEAA_NXZ 000000018007dd00 f i libucrtd:output.obj
 0001:0007cd50       ?type_case_o@?$output_processor@_WV?$string_output_adapter@_W@__crt_stdio_output@@V?$standard_base@_WV?$string_output_adapter@_W@__crt_stdio_output@@@2@@__crt_stdio_output@@AEAA_NXZ 000000018007dd50 f i libucrtd:output.obj
 0001:0007cda0       ?type_case_p@?$output_processor@DV?$stream_output_adapter@D@__crt_stdio_output@@V?$format_validation_base@DV?$stream_output_adapter@D@__crt_stdio_output@@@2@@__crt_stdio_output@@AEAA_NXZ 000000018007dda0 f i libucrtd:output.obj
 0001:0007cde0       ?type_case_p@?$output_processor@DV?$stream_output_adapter@D@__crt_stdio_output@@V?$positional_parameter_base@DV?$stream_output_adapter@D@__crt_stdio_output@@@2@@__crt_stdio_output@@AEAA_NXZ 000000018007dde0 f i libucrtd:output.obj
 0001:0007ce20       ?type_case_p@?$output_processor@DV?$stream_output_adapter@D@__crt_stdio_output@@V?$standard_base@DV?$stream_output_adapter@D@__crt_stdio_output@@@2@@__crt_stdio_output@@AEAA_NXZ 000000018007de20 f i libucrtd:output.obj
 0001:0007ce60       ?type_case_p@?$output_processor@DV?$string_output_adapter@D@__crt_stdio_output@@V?$format_validation_base@DV?$string_output_adapter@D@__crt_stdio_output@@@2@@__crt_stdio_output@@AEAA_NXZ 000000018007de60 f i libucrtd:output.obj
 0001:0007cea0       ?type_case_p@?$output_processor@DV?$string_output_adapter@D@__crt_stdio_output@@V?$positional_parameter_base@DV?$string_output_adapter@D@__crt_stdio_output@@@2@@__crt_stdio_output@@AEAA_NXZ 000000018007dea0 f i libucrtd:output.obj
 0001:0007cee0       ?type_case_p@?$output_processor@DV?$string_output_adapter@D@__crt_stdio_output@@V?$standard_base@DV?$string_output_adapter@D@__crt_stdio_output@@@2@@__crt_stdio_output@@AEAA_NXZ 000000018007dee0 f i libucrtd:output.obj
 0001:0007cf20       ?type_case_p@?$output_processor@_WV?$stream_output_adapter@_W@__crt_stdio_output@@V?$format_validation_base@_WV?$stream_output_adapter@_W@__crt_stdio_output@@@2@@__crt_stdio_output@@AEAA_NXZ 000000018007df20 f i libucrtd:output.obj
 0001:0007cf60       ?type_case_p@?$output_processor@_WV?$stream_output_adapter@_W@__crt_stdio_output@@V?$positional_parameter_base@_WV?$stream_output_adapter@_W@__crt_stdio_output@@@2@@__crt_stdio_output@@AEAA_NXZ 000000018007df60 f i libucrtd:output.obj
 0001:0007cfa0       ?type_case_p@?$output_processor@_WV?$stream_output_adapter@_W@__crt_stdio_output@@V?$standard_base@_WV?$stream_output_adapter@_W@__crt_stdio_output@@@2@@__crt_stdio_output@@AEAA_NXZ 000000018007dfa0 f i libucrtd:output.obj
 0001:0007cfe0       ?type_case_p@?$output_processor@_WV?$string_output_adapter@_W@__crt_stdio_output@@V?$format_validation_base@_WV?$string_output_adapter@_W@__crt_stdio_output@@@2@@__crt_stdio_output@@AEAA_NXZ 000000018007dfe0 f i libucrtd:output.obj
 0001:0007d020       ?type_case_p@?$output_processor@_WV?$string_output_adapter@_W@__crt_stdio_output@@V?$positional_parameter_base@_WV?$string_output_adapter@_W@__crt_stdio_output@@@2@@__crt_stdio_output@@AEAA_NXZ 000000018007e020 f i libucrtd:output.obj
 0001:0007d060       ?type_case_p@?$output_processor@_WV?$string_output_adapter@_W@__crt_stdio_output@@V?$standard_base@_WV?$string_output_adapter@_W@__crt_stdio_output@@@2@@__crt_stdio_output@@AEAA_NXZ 000000018007e060 f i libucrtd:output.obj
 0001:0007d0a0       ?type_case_s@?$output_processor@DV?$stream_output_adapter@D@__crt_stdio_output@@V?$format_validation_base@DV?$stream_output_adapter@D@__crt_stdio_output@@@2@@__crt_stdio_output@@AEAA_NXZ 000000018007e0a0 f i libucrtd:output.obj
 0001:0007d1c0       ?type_case_s@?$output_processor@DV?$stream_output_adapter@D@__crt_stdio_output@@V?$positional_parameter_base@DV?$stream_output_adapter@D@__crt_stdio_output@@@2@@__crt_stdio_output@@AEAA_NXZ 000000018007e1c0 f i libucrtd:output.obj
 0001:0007d2e0       ?type_case_s@?$output_processor@DV?$stream_output_adapter@D@__crt_stdio_output@@V?$standard_base@DV?$stream_output_adapter@D@__crt_stdio_output@@@2@@__crt_stdio_output@@AEAA_NXZ 000000018007e2e0 f i libucrtd:output.obj
 0001:0007d400       ?type_case_s@?$output_processor@DV?$string_output_adapter@D@__crt_stdio_output@@V?$format_validation_base@DV?$string_output_adapter@D@__crt_stdio_output@@@2@@__crt_stdio_output@@AEAA_NXZ 000000018007e400 f i libucrtd:output.obj
 0001:0007d520       ?type_case_s@?$output_processor@DV?$string_output_adapter@D@__crt_stdio_output@@V?$positional_parameter_base@DV?$string_output_adapter@D@__crt_stdio_output@@@2@@__crt_stdio_output@@AEAA_NXZ 000000018007e520 f i libucrtd:output.obj
 0001:0007d640       ?type_case_s@?$output_processor@DV?$string_output_adapter@D@__crt_stdio_output@@V?$standard_base@DV?$string_output_adapter@D@__crt_stdio_output@@@2@@__crt_stdio_output@@AEAA_NXZ 000000018007e640 f i libucrtd:output.obj
 0001:0007d760       ?type_case_s@?$output_processor@_WV?$stream_output_adapter@_W@__crt_stdio_output@@V?$format_validation_base@_WV?$stream_output_adapter@_W@__crt_stdio_output@@@2@@__crt_stdio_output@@AEAA_NXZ 000000018007e760 f i libucrtd:output.obj
 0001:0007d880       ?type_case_s@?$output_processor@_WV?$stream_output_adapter@_W@__crt_stdio_output@@V?$positional_parameter_base@_WV?$stream_output_adapter@_W@__crt_stdio_output@@@2@@__crt_stdio_output@@AEAA_NXZ 000000018007e880 f i libucrtd:output.obj
 0001:0007d9a0       ?type_case_s@?$output_processor@_WV?$stream_output_adapter@_W@__crt_stdio_output@@V?$standard_base@_WV?$stream_output_adapter@_W@__crt_stdio_output@@@2@@__crt_stdio_output@@AEAA_NXZ 000000018007e9a0 f i libucrtd:output.obj
 0001:0007dac0       ?type_case_s@?$output_processor@_WV?$string_output_adapter@_W@__crt_stdio_output@@V?$format_validation_base@_WV?$string_output_adapter@_W@__crt_stdio_output@@@2@@__crt_stdio_output@@AEAA_NXZ 000000018007eac0 f i libucrtd:output.obj
 0001:0007dbe0       ?type_case_s@?$output_processor@_WV?$string_output_adapter@_W@__crt_stdio_output@@V?$positional_parameter_base@_WV?$string_output_adapter@_W@__crt_stdio_output@@@2@@__crt_stdio_output@@AEAA_NXZ 000000018007ebe0 f i libucrtd:output.obj
 0001:0007dd00       ?type_case_s@?$output_processor@_WV?$string_output_adapter@_W@__crt_stdio_output@@V?$standard_base@_WV?$string_output_adapter@_W@__crt_stdio_output@@@2@@__crt_stdio_output@@AEAA_NXZ 000000018007ed00 f i libucrtd:output.obj
 0001:0007de20       ?type_case_s_compute_narrow_string_length@?$output_processor@DV?$stream_output_adapter@D@__crt_stdio_output@@V?$format_validation_base@DV?$stream_output_adapter@D@__crt_stdio_output@@@2@@__crt_stdio_output@@AEBAHHD@Z 000000018007ee20 f i libucrtd:output.obj
 0001:0007de50       ?type_case_s_compute_narrow_string_length@?$output_processor@DV?$stream_output_adapter@D@__crt_stdio_output@@V?$positional_parameter_base@DV?$stream_output_adapter@D@__crt_stdio_output@@@2@@__crt_stdio_output@@AEBAHHD@Z 000000018007ee50 f i libucrtd:output.obj
 0001:0007de80       ?type_case_s_compute_narrow_string_length@?$output_processor@DV?$stream_output_adapter@D@__crt_stdio_output@@V?$standard_base@DV?$stream_output_adapter@D@__crt_stdio_output@@@2@@__crt_stdio_output@@AEBAHHD@Z 000000018007ee80 f i libucrtd:output.obj
 0001:0007deb0       ?type_case_s_compute_narrow_string_length@?$output_processor@DV?$string_output_adapter@D@__crt_stdio_output@@V?$format_validation_base@DV?$string_output_adapter@D@__crt_stdio_output@@@2@@__crt_stdio_output@@AEBAHHD@Z 000000018007eeb0 f i libucrtd:output.obj
 0001:0007dee0       ?type_case_s_compute_narrow_string_length@?$output_processor@DV?$string_output_adapter@D@__crt_stdio_output@@V?$positional_parameter_base@DV?$string_output_adapter@D@__crt_stdio_output@@@2@@__crt_stdio_output@@AEBAHHD@Z 000000018007eee0 f i libucrtd:output.obj
 0001:0007df10       ?type_case_s_compute_narrow_string_length@?$output_processor@DV?$string_output_adapter@D@__crt_stdio_output@@V?$standard_base@DV?$string_output_adapter@D@__crt_stdio_output@@@2@@__crt_stdio_output@@AEBAHHD@Z 000000018007ef10 f i libucrtd:output.obj
 0001:0007df40       ?type_case_s_compute_narrow_string_length@?$output_processor@_WV?$stream_output_adapter@_W@__crt_stdio_output@@V?$format_validation_base@_WV?$stream_output_adapter@_W@__crt_stdio_output@@@2@@__crt_stdio_output@@AEBAHH_W@Z 000000018007ef40 f i libucrtd:output.obj
 0001:0007dfd0       ?type_case_s_compute_narrow_string_length@?$output_processor@_WV?$stream_output_adapter@_W@__crt_stdio_output@@V?$positional_parameter_base@_WV?$stream_output_adapter@_W@__crt_stdio_output@@@2@@__crt_stdio_output@@AEBAHH_W@Z 000000018007efd0 f i libucrtd:output.obj
 0001:0007e060       ?type_case_s_compute_narrow_string_length@?$output_processor@_WV?$stream_output_adapter@_W@__crt_stdio_output@@V?$standard_base@_WV?$stream_output_adapter@_W@__crt_stdio_output@@@2@@__crt_stdio_output@@AEBAHH_W@Z 000000018007f060 f i libucrtd:output.obj
 0001:0007e0f0       ?type_case_s_compute_narrow_string_length@?$output_processor@_WV?$string_output_adapter@_W@__crt_stdio_output@@V?$format_validation_base@_WV?$string_output_adapter@_W@__crt_stdio_output@@@2@@__crt_stdio_output@@AEBAHH_W@Z 000000018007f0f0 f i libucrtd:output.obj
 0001:0007e180       ?type_case_s_compute_narrow_string_length@?$output_processor@_WV?$string_output_adapter@_W@__crt_stdio_output@@V?$positional_parameter_base@_WV?$string_output_adapter@_W@__crt_stdio_output@@@2@@__crt_stdio_output@@AEBAHH_W@Z 000000018007f180 f i libucrtd:output.obj
 0001:0007e210       ?type_case_s_compute_narrow_string_length@?$output_processor@_WV?$string_output_adapter@_W@__crt_stdio_output@@V?$standard_base@_WV?$string_output_adapter@_W@__crt_stdio_output@@@2@@__crt_stdio_output@@AEBAHH_W@Z 000000018007f210 f i libucrtd:output.obj
 0001:0007e2a0       ?type_case_u@?$output_processor@DV?$stream_output_adapter@D@__crt_stdio_output@@V?$format_validation_base@DV?$stream_output_adapter@D@__crt_stdio_output@@@2@@__crt_stdio_output@@AEAA_NXZ 000000018007f2a0 f i libucrtd:output.obj
 0001:0007e2c0       ?type_case_u@?$output_processor@DV?$stream_output_adapter@D@__crt_stdio_output@@V?$positional_parameter_base@DV?$stream_output_adapter@D@__crt_stdio_output@@@2@@__crt_stdio_output@@AEAA_NXZ 000000018007f2c0 f i libucrtd:output.obj
 0001:0007e2e0       ?type_case_u@?$output_processor@DV?$stream_output_adapter@D@__crt_stdio_output@@V?$standard_base@DV?$stream_output_adapter@D@__crt_stdio_output@@@2@@__crt_stdio_output@@AEAA_NXZ 000000018007f2e0 f i libucrtd:output.obj
 0001:0007e300       ?type_case_u@?$output_processor@DV?$string_output_adapter@D@__crt_stdio_output@@V?$format_validation_base@DV?$string_output_adapter@D@__crt_stdio_output@@@2@@__crt_stdio_output@@AEAA_NXZ 000000018007f300 f i libucrtd:output.obj
 0001:0007e320       ?type_case_u@?$output_processor@DV?$string_output_adapter@D@__crt_stdio_output@@V?$positional_parameter_base@DV?$string_output_adapter@D@__crt_stdio_output@@@2@@__crt_stdio_output@@AEAA_NXZ 000000018007f320 f i libucrtd:output.obj
 0001:0007e340       ?type_case_u@?$output_processor@DV?$string_output_adapter@D@__crt_stdio_output@@V?$standard_base@DV?$string_output_adapter@D@__crt_stdio_output@@@2@@__crt_stdio_output@@AEAA_NXZ 000000018007f340 f i libucrtd:output.obj
 0001:0007e360       ?type_case_u@?$output_processor@_WV?$stream_output_adapter@_W@__crt_stdio_output@@V?$format_validation_base@_WV?$stream_output_adapter@_W@__crt_stdio_output@@@2@@__crt_stdio_output@@AEAA_NXZ 000000018007f360 f i libucrtd:output.obj
 0001:0007e380       ?type_case_u@?$output_processor@_WV?$stream_output_adapter@_W@__crt_stdio_output@@V?$positional_parameter_base@_WV?$stream_output_adapter@_W@__crt_stdio_output@@@2@@__crt_stdio_output@@AEAA_NXZ 000000018007f380 f i libucrtd:output.obj
 0001:0007e3a0       ?type_case_u@?$output_processor@_WV?$stream_output_adapter@_W@__crt_stdio_output@@V?$standard_base@_WV?$stream_output_adapter@_W@__crt_stdio_output@@@2@@__crt_stdio_output@@AEAA_NXZ 000000018007f3a0 f i libucrtd:output.obj
 0001:0007e3c0       ?type_case_u@?$output_processor@_WV?$string_output_adapter@_W@__crt_stdio_output@@V?$format_validation_base@_WV?$string_output_adapter@_W@__crt_stdio_output@@@2@@__crt_stdio_output@@AEAA_NXZ 000000018007f3c0 f i libucrtd:output.obj
 0001:0007e3e0       ?type_case_u@?$output_processor@_WV?$string_output_adapter@_W@__crt_stdio_output@@V?$positional_parameter_base@_WV?$string_output_adapter@_W@__crt_stdio_output@@@2@@__crt_stdio_output@@AEAA_NXZ 000000018007f3e0 f i libucrtd:output.obj
 0001:0007e400       ?type_case_u@?$output_processor@_WV?$string_output_adapter@_W@__crt_stdio_output@@V?$standard_base@_WV?$string_output_adapter@_W@__crt_stdio_output@@@2@@__crt_stdio_output@@AEAA_NXZ 000000018007f400 f i libucrtd:output.obj
 0001:0007e420       ?type_case_x@?$output_processor@DV?$stream_output_adapter@D@__crt_stdio_output@@V?$format_validation_base@DV?$stream_output_adapter@D@__crt_stdio_output@@@2@@__crt_stdio_output@@AEAA_NXZ 000000018007f420 f i libucrtd:output.obj
 0001:0007e440       ?type_case_x@?$output_processor@DV?$stream_output_adapter@D@__crt_stdio_output@@V?$positional_parameter_base@DV?$stream_output_adapter@D@__crt_stdio_output@@@2@@__crt_stdio_output@@AEAA_NXZ 000000018007f440 f i libucrtd:output.obj
 0001:0007e460       ?type_case_x@?$output_processor@DV?$stream_output_adapter@D@__crt_stdio_output@@V?$standard_base@DV?$stream_output_adapter@D@__crt_stdio_output@@@2@@__crt_stdio_output@@AEAA_NXZ 000000018007f460 f i libucrtd:output.obj
 0001:0007e480       ?type_case_x@?$output_processor@DV?$string_output_adapter@D@__crt_stdio_output@@V?$format_validation_base@DV?$string_output_adapter@D@__crt_stdio_output@@@2@@__crt_stdio_output@@AEAA_NXZ 000000018007f480 f i libucrtd:output.obj
 0001:0007e4a0       ?type_case_x@?$output_processor@DV?$string_output_adapter@D@__crt_stdio_output@@V?$positional_parameter_base@DV?$string_output_adapter@D@__crt_stdio_output@@@2@@__crt_stdio_output@@AEAA_NXZ 000000018007f4a0 f i libucrtd:output.obj
 0001:0007e4c0       ?type_case_x@?$output_processor@DV?$string_output_adapter@D@__crt_stdio_output@@V?$standard_base@DV?$string_output_adapter@D@__crt_stdio_output@@@2@@__crt_stdio_output@@AEAA_NXZ 000000018007f4c0 f i libucrtd:output.obj
 0001:0007e4e0       ?type_case_x@?$output_processor@_WV?$stream_output_adapter@_W@__crt_stdio_output@@V?$format_validation_base@_WV?$stream_output_adapter@_W@__crt_stdio_output@@@2@@__crt_stdio_output@@AEAA_NXZ 000000018007f4e0 f i libucrtd:output.obj
 0001:0007e500       ?type_case_x@?$output_processor@_WV?$stream_output_adapter@_W@__crt_stdio_output@@V?$positional_parameter_base@_WV?$stream_output_adapter@_W@__crt_stdio_output@@@2@@__crt_stdio_output@@AEAA_NXZ 000000018007f500 f i libucrtd:output.obj
 0001:0007e520       ?type_case_x@?$output_processor@_WV?$stream_output_adapter@_W@__crt_stdio_output@@V?$standard_base@_WV?$stream_output_adapter@_W@__crt_stdio_output@@@2@@__crt_stdio_output@@AEAA_NXZ 000000018007f520 f i libucrtd:output.obj
 0001:0007e540       ?type_case_x@?$output_processor@_WV?$string_output_adapter@_W@__crt_stdio_output@@V?$format_validation_base@_WV?$string_output_adapter@_W@__crt_stdio_output@@@2@@__crt_stdio_output@@AEAA_NXZ 000000018007f540 f i libucrtd:output.obj
 0001:0007e560       ?type_case_x@?$output_processor@_WV?$string_output_adapter@_W@__crt_stdio_output@@V?$positional_parameter_base@_WV?$string_output_adapter@_W@__crt_stdio_output@@@2@@__crt_stdio_output@@AEAA_NXZ 000000018007f560 f i libucrtd:output.obj
 0001:0007e580       ?type_case_x@?$output_processor@_WV?$string_output_adapter@_W@__crt_stdio_output@@V?$standard_base@_WV?$string_output_adapter@_W@__crt_stdio_output@@@2@@__crt_stdio_output@@AEAA_NXZ 000000018007f580 f i libucrtd:output.obj
 0001:0007e5a0       ?unset_flag@?$output_processor@DV?$stream_output_adapter@D@__crt_stdio_output@@V?$format_validation_base@DV?$stream_output_adapter@D@__crt_stdio_output@@@2@@__crt_stdio_output@@AEAAXI@Z 000000018007f5a0 f i libucrtd:output.obj
 0001:0007e5d0       ?unset_flag@?$output_processor@DV?$stream_output_adapter@D@__crt_stdio_output@@V?$positional_parameter_base@DV?$stream_output_adapter@D@__crt_stdio_output@@@2@@__crt_stdio_output@@AEAAXI@Z 000000018007f5d0 f i libucrtd:output.obj
 0001:0007e600       ?unset_flag@?$output_processor@DV?$stream_output_adapter@D@__crt_stdio_output@@V?$standard_base@DV?$stream_output_adapter@D@__crt_stdio_output@@@2@@__crt_stdio_output@@AEAAXI@Z 000000018007f600 f i libucrtd:output.obj
 0001:0007e630       ?unset_flag@?$output_processor@DV?$string_output_adapter@D@__crt_stdio_output@@V?$format_validation_base@DV?$string_output_adapter@D@__crt_stdio_output@@@2@@__crt_stdio_output@@AEAAXI@Z 000000018007f630 f i libucrtd:output.obj
 0001:0007e660       ?unset_flag@?$output_processor@DV?$string_output_adapter@D@__crt_stdio_output@@V?$positional_parameter_base@DV?$string_output_adapter@D@__crt_stdio_output@@@2@@__crt_stdio_output@@AEAAXI@Z 000000018007f660 f i libucrtd:output.obj
 0001:0007e690       ?unset_flag@?$output_processor@DV?$string_output_adapter@D@__crt_stdio_output@@V?$standard_base@DV?$string_output_adapter@D@__crt_stdio_output@@@2@@__crt_stdio_output@@AEAAXI@Z 000000018007f690 f i libucrtd:output.obj
 0001:0007e6c0       ?unset_flag@?$output_processor@_WV?$stream_output_adapter@_W@__crt_stdio_output@@V?$format_validation_base@_WV?$stream_output_adapter@_W@__crt_stdio_output@@@2@@__crt_stdio_output@@AEAAXI@Z 000000018007f6c0 f i libucrtd:output.obj
 0001:0007e6f0       ?unset_flag@?$output_processor@_WV?$stream_output_adapter@_W@__crt_stdio_output@@V?$positional_parameter_base@_WV?$stream_output_adapter@_W@__crt_stdio_output@@@2@@__crt_stdio_output@@AEAAXI@Z 000000018007f6f0 f i libucrtd:output.obj
 0001:0007e720       ?unset_flag@?$output_processor@_WV?$stream_output_adapter@_W@__crt_stdio_output@@V?$standard_base@_WV?$stream_output_adapter@_W@__crt_stdio_output@@@2@@__crt_stdio_output@@AEAAXI@Z 000000018007f720 f i libucrtd:output.obj
 0001:0007e750       ?unset_flag@?$output_processor@_WV?$string_output_adapter@_W@__crt_stdio_output@@V?$format_validation_base@_WV?$string_output_adapter@_W@__crt_stdio_output@@@2@@__crt_stdio_output@@AEAAXI@Z 000000018007f750 f i libucrtd:output.obj
 0001:0007e780       ?unset_flag@?$output_processor@_WV?$string_output_adapter@_W@__crt_stdio_output@@V?$positional_parameter_base@_WV?$string_output_adapter@_W@__crt_stdio_output@@@2@@__crt_stdio_output@@AEAAXI@Z 000000018007f780 f i libucrtd:output.obj
 0001:0007e7b0       ?unset_flag@?$output_processor@_WV?$string_output_adapter@_W@__crt_stdio_output@@V?$standard_base@_WV?$string_output_adapter@_W@__crt_stdio_output@@@2@@__crt_stdio_output@@AEAAXI@Z 000000018007f7b0 f i libucrtd:output.obj
 0001:0007e7e0       ?update_field_width@?$positional_parameter_base@DV?$stream_output_adapter@D@__crt_stdio_output@@@__crt_stdio_output@@IEAA_NXZ 000000018007f7e0 f i libucrtd:output.obj
 0001:0007e9d0       ?update_field_width@?$positional_parameter_base@DV?$string_output_adapter@D@__crt_stdio_output@@@__crt_stdio_output@@IEAA_NXZ 000000018007f9d0 f i libucrtd:output.obj
 0001:0007ebc0       ?update_field_width@?$positional_parameter_base@_WV?$stream_output_adapter@_W@__crt_stdio_output@@@__crt_stdio_output@@IEAA_NXZ 000000018007fbc0 f i libucrtd:output.obj
 0001:0007edb0       ?update_field_width@?$positional_parameter_base@_WV?$string_output_adapter@_W@__crt_stdio_output@@@__crt_stdio_output@@IEAA_NXZ 000000018007fdb0 f i libucrtd:output.obj
 0001:0007efa0       ?update_field_width@?$standard_base@DV?$stream_output_adapter@D@__crt_stdio_output@@@__crt_stdio_output@@IEAA_NXZ 000000018007ffa0 f i libucrtd:output.obj
 0001:0007efd0       ?update_field_width@?$standard_base@DV?$string_output_adapter@D@__crt_stdio_output@@@__crt_stdio_output@@IEAA_NXZ 000000018007ffd0 f i libucrtd:output.obj
 0001:0007f000       ?update_field_width@?$standard_base@_WV?$stream_output_adapter@_W@__crt_stdio_output@@@__crt_stdio_output@@IEAA_NXZ 0000000180080000 f i libucrtd:output.obj
 0001:0007f030       ?update_field_width@?$standard_base@_WV?$string_output_adapter@_W@__crt_stdio_output@@@__crt_stdio_output@@IEAA_NXZ 0000000180080030 f i libucrtd:output.obj
 0001:0007f060       ?update_precision@?$positional_parameter_base@DV?$stream_output_adapter@D@__crt_stdio_output@@@__crt_stdio_output@@IEAA_NXZ 0000000180080060 f i libucrtd:output.obj
 0001:0007f250       ?update_precision@?$positional_parameter_base@DV?$string_output_adapter@D@__crt_stdio_output@@@__crt_stdio_output@@IEAA_NXZ 0000000180080250 f i libucrtd:output.obj
 0001:0007f440       ?update_precision@?$positional_parameter_base@_WV?$stream_output_adapter@_W@__crt_stdio_output@@@__crt_stdio_output@@IEAA_NXZ 0000000180080440 f i libucrtd:output.obj
 0001:0007f630       ?update_precision@?$positional_parameter_base@_WV?$string_output_adapter@_W@__crt_stdio_output@@@__crt_stdio_output@@IEAA_NXZ 0000000180080630 f i libucrtd:output.obj
 0001:0007f820       ?update_precision@?$standard_base@DV?$stream_output_adapter@D@__crt_stdio_output@@@__crt_stdio_output@@IEAA_NXZ 0000000180080820 f i libucrtd:output.obj
 0001:0007f850       ?update_precision@?$standard_base@DV?$string_output_adapter@D@__crt_stdio_output@@@__crt_stdio_output@@IEAA_NXZ 0000000180080850 f i libucrtd:output.obj
 0001:0007f880       ?update_precision@?$standard_base@_WV?$stream_output_adapter@_W@__crt_stdio_output@@@__crt_stdio_output@@IEAA_NXZ 0000000180080880 f i libucrtd:output.obj
 0001:0007f8b0       ?update_precision@?$standard_base@_WV?$string_output_adapter@_W@__crt_stdio_output@@@__crt_stdio_output@@IEAA_NXZ 00000001800808b0 f i libucrtd:output.obj
 0001:0007f8e0       ?valid@__crt_stdio_stream@@QEBA_NXZ 00000001800808e0 f i libucrtd:output.obj
 0001:0007f910       ?validate@?$stream_output_adapter@D@__crt_stdio_output@@QEBA_NXZ 0000000180080910 f i libucrtd:output.obj
 0001:0007f9f0       ?validate@?$stream_output_adapter@_W@__crt_stdio_output@@QEBA_NXZ 00000001800809f0 f i libucrtd:output.obj
 0001:0007fad0       ?validate@?$string_output_adapter@D@__crt_stdio_output@@QEBA_NXZ 0000000180080ad0 f i libucrtd:output.obj
 0001:0007fb90       ?validate@?$string_output_adapter@_W@__crt_stdio_output@@QEBA_NXZ 0000000180080b90 f i libucrtd:output.obj
 0001:0007fc50       ?validate_and_store_parameter_data@?$positional_parameter_base@DV?$stream_output_adapter@D@__crt_stdio_output@@@__crt_stdio_output@@AEAA_NAEAUparameter_data@12@W4parameter_type@12@DW4length_modifier@2@@Z 0000000180080c50 f i libucrtd:output.obj
 0001:0007fd70       ?validate_and_store_parameter_data@?$positional_parameter_base@DV?$string_output_adapter@D@__crt_stdio_output@@@__crt_stdio_output@@AEAA_NAEAUparameter_data@12@W4parameter_type@12@DW4length_modifier@2@@Z 0000000180080d70 f i libucrtd:output.obj
 0001:0007fe90       ?validate_and_store_parameter_data@?$positional_parameter_base@_WV?$stream_output_adapter@_W@__crt_stdio_output@@@__crt_stdio_output@@AEAA_NAEAUparameter_data@12@W4parameter_type@12@_WW4length_modifier@2@@Z 0000000180080e90 f i libucrtd:output.obj
 0001:0007ffb0       ?validate_and_store_parameter_data@?$positional_parameter_base@_WV?$string_output_adapter@_W@__crt_stdio_output@@@__crt_stdio_output@@AEAA_NAEAUparameter_data@12@W4parameter_type@12@_WW4length_modifier@2@@Z 0000000180080fb0 f i libucrtd:output.obj
 0001:000800d0       ?validate_and_update_state_at_beginning_of_format_character@?$positional_parameter_base@DV?$stream_output_adapter@D@__crt_stdio_output@@@__crt_stdio_output@@IEAA_NXZ 00000001800810d0 f i libucrtd:output.obj
 0001:000803b0       ?validate_and_update_state_at_beginning_of_format_character@?$positional_parameter_base@DV?$string_output_adapter@D@__crt_stdio_output@@@__crt_stdio_output@@IEAA_NXZ 00000001800813b0 f i libucrtd:output.obj
 0001:00080690       ?validate_and_update_state_at_beginning_of_format_character@?$positional_parameter_base@_WV?$stream_output_adapter@_W@__crt_stdio_output@@@__crt_stdio_output@@IEAA_NXZ 0000000180081690 f i libucrtd:output.obj
 0001:00080970       ?validate_and_update_state_at_beginning_of_format_character@?$positional_parameter_base@_WV?$string_output_adapter@_W@__crt_stdio_output@@@__crt_stdio_output@@IEAA_NXZ 0000000180081970 f i libucrtd:output.obj
 0001:00080c50       ?validate_and_update_state_at_beginning_of_format_character@?$standard_base@DV?$stream_output_adapter@D@__crt_stdio_output@@@__crt_stdio_output@@IEAA_NXZ 0000000180081c50 f i libucrtd:output.obj
 0001:00080c60       ?validate_and_update_state_at_beginning_of_format_character@?$standard_base@DV?$string_output_adapter@D@__crt_stdio_output@@@__crt_stdio_output@@IEAA_NXZ 0000000180081c60 f i libucrtd:output.obj
 0001:00080c70       ?validate_and_update_state_at_beginning_of_format_character@?$standard_base@_WV?$stream_output_adapter@_W@__crt_stdio_output@@@__crt_stdio_output@@IEAA_NXZ 0000000180081c70 f i libucrtd:output.obj
 0001:00080c80       ?validate_and_update_state_at_beginning_of_format_character@?$standard_base@_WV?$string_output_adapter@_W@__crt_stdio_output@@@__crt_stdio_output@@IEAA_NXZ 0000000180081c80 f i libucrtd:output.obj
 0001:00080c90       ?validate_and_update_state_at_end_of_format_string@?$format_validation_base@DV?$stream_output_adapter@D@__crt_stdio_output@@@__crt_stdio_output@@IEBA_NXZ 0000000180081c90 f i libucrtd:output.obj
 0001:00080d50       ?validate_and_update_state_at_end_of_format_string@?$format_validation_base@DV?$string_output_adapter@D@__crt_stdio_output@@@__crt_stdio_output@@IEBA_NXZ 0000000180081d50 f i libucrtd:output.obj
 0001:00080e10       ?validate_and_update_state_at_end_of_format_string@?$format_validation_base@_WV?$stream_output_adapter@_W@__crt_stdio_output@@@__crt_stdio_output@@IEBA_NXZ 0000000180081e10 f i libucrtd:output.obj
 0001:00080ed0       ?validate_and_update_state_at_end_of_format_string@?$format_validation_base@_WV?$string_output_adapter@_W@__crt_stdio_output@@@__crt_stdio_output@@IEBA_NXZ 0000000180081ed0 f i libucrtd:output.obj
 0001:00080f90       ?validate_and_update_state_at_end_of_format_string@?$positional_parameter_base@DV?$stream_output_adapter@D@__crt_stdio_output@@@__crt_stdio_output@@IEAA_NXZ 0000000180081f90 f i libucrtd:output.obj
 0001:00081180       ?validate_and_update_state_at_end_of_format_string@?$positional_parameter_base@DV?$string_output_adapter@D@__crt_stdio_output@@@__crt_stdio_output@@IEAA_NXZ 0000000180082180 f i libucrtd:output.obj
 0001:00081370       ?validate_and_update_state_at_end_of_format_string@?$positional_parameter_base@_WV?$stream_output_adapter@_W@__crt_stdio_output@@@__crt_stdio_output@@IEAA_NXZ 0000000180082370 f i libucrtd:output.obj
 0001:00081560       ?validate_and_update_state_at_end_of_format_string@?$positional_parameter_base@_WV?$string_output_adapter@_W@__crt_stdio_output@@@__crt_stdio_output@@IEAA_NXZ 0000000180082560 f i libucrtd:output.obj
 0001:00081750       ?validate_and_update_state_at_end_of_format_string@?$standard_base@DV?$stream_output_adapter@D@__crt_stdio_output@@@__crt_stdio_output@@IEBA_NXZ 0000000180082750 f i libucrtd:output.obj
 0001:00081760       ?validate_and_update_state_at_end_of_format_string@?$standard_base@DV?$string_output_adapter@D@__crt_stdio_output@@@__crt_stdio_output@@IEBA_NXZ 0000000180082760 f i libucrtd:output.obj
 0001:00081770       ?validate_and_update_state_at_end_of_format_string@?$standard_base@_WV?$stream_output_adapter@_W@__crt_stdio_output@@@__crt_stdio_output@@IEBA_NXZ 0000000180082770 f i libucrtd:output.obj
 0001:00081780       ?validate_and_update_state_at_end_of_format_string@?$standard_base@_WV?$string_output_adapter@_W@__crt_stdio_output@@@__crt_stdio_output@@IEBA_NXZ 0000000180082780 f i libucrtd:output.obj
 0001:00081790       ?validate_state_for_type_case_a@?$positional_parameter_base@DV?$stream_output_adapter@D@__crt_stdio_output@@@__crt_stdio_output@@IEAA_NXZ 0000000180082790 f i libucrtd:output.obj
 0001:000818d0       ?validate_state_for_type_case_a@?$positional_parameter_base@DV?$string_output_adapter@D@__crt_stdio_output@@@__crt_stdio_output@@IEAA_NXZ 00000001800828d0 f i libucrtd:output.obj
 0001:00081a10       ?validate_state_for_type_case_a@?$positional_parameter_base@_WV?$stream_output_adapter@_W@__crt_stdio_output@@@__crt_stdio_output@@IEAA_NXZ 0000000180082a10 f i libucrtd:output.obj
 0001:00081b50       ?validate_state_for_type_case_a@?$positional_parameter_base@_WV?$string_output_adapter@_W@__crt_stdio_output@@@__crt_stdio_output@@IEAA_NXZ 0000000180082b50 f i libucrtd:output.obj
 0001:00081c90       ?validate_state_for_type_case_a@?$standard_base@DV?$stream_output_adapter@D@__crt_stdio_output@@@__crt_stdio_output@@IEBA_NXZ 0000000180082c90 f i libucrtd:output.obj
 0001:00081ca0       ?validate_state_for_type_case_a@?$standard_base@DV?$string_output_adapter@D@__crt_stdio_output@@@__crt_stdio_output@@IEBA_NXZ 0000000180082ca0 f i libucrtd:output.obj
 0001:00081cb0       ?validate_state_for_type_case_a@?$standard_base@_WV?$stream_output_adapter@_W@__crt_stdio_output@@@__crt_stdio_output@@IEBA_NXZ 0000000180082cb0 f i libucrtd:output.obj
 0001:00081cc0       ?validate_state_for_type_case_a@?$standard_base@_WV?$string_output_adapter@_W@__crt_stdio_output@@@__crt_stdio_output@@IEBA_NXZ 0000000180082cc0 f i libucrtd:output.obj
 0001:00081cd0       ?validate_stream_is_ansi_if_required@?$__acrt_stdio_char_traits@D@@SA_NQEAU_iobuf@@@Z 0000000180082cd0 f i libucrtd:output.obj
 0001:00081e60       ?validate_stream_is_ansi_if_required@?$__acrt_stdio_char_traits@_W@@SA_NQEAU_iobuf@@@Z 0000000180082e60 f i libucrtd:output.obj
 0001:00081e70       ?wide_null_string@?$output_processor@DV?$stream_output_adapter@D@__crt_stdio_output@@V?$format_validation_base@DV?$stream_output_adapter@D@__crt_stdio_output@@@2@@__crt_stdio_output@@CAPEA_WXZ 0000000180082e70 f i libucrtd:output.obj
 0001:00081e80       ?wide_null_string@?$output_processor@DV?$stream_output_adapter@D@__crt_stdio_output@@V?$positional_parameter_base@DV?$stream_output_adapter@D@__crt_stdio_output@@@2@@__crt_stdio_output@@CAPEA_WXZ 0000000180082e80 f i libucrtd:output.obj
 0001:00081e90       ?wide_null_string@?$output_processor@DV?$stream_output_adapter@D@__crt_stdio_output@@V?$standard_base@DV?$stream_output_adapter@D@__crt_stdio_output@@@2@@__crt_stdio_output@@CAPEA_WXZ 0000000180082e90 f i libucrtd:output.obj
 0001:00081ea0       ?wide_null_string@?$output_processor@DV?$string_output_adapter@D@__crt_stdio_output@@V?$format_validation_base@DV?$string_output_adapter@D@__crt_stdio_output@@@2@@__crt_stdio_output@@CAPEA_WXZ 0000000180082ea0 f i libucrtd:output.obj
 0001:00081eb0       ?wide_null_string@?$output_processor@DV?$string_output_adapter@D@__crt_stdio_output@@V?$positional_parameter_base@DV?$string_output_adapter@D@__crt_stdio_output@@@2@@__crt_stdio_output@@CAPEA_WXZ 0000000180082eb0 f i libucrtd:output.obj
 0001:00081ec0       ?wide_null_string@?$output_processor@DV?$string_output_adapter@D@__crt_stdio_output@@V?$standard_base@DV?$string_output_adapter@D@__crt_stdio_output@@@2@@__crt_stdio_output@@CAPEA_WXZ 0000000180082ec0 f i libucrtd:output.obj
 0001:00081ed0       ?wide_null_string@?$output_processor@_WV?$stream_output_adapter@_W@__crt_stdio_output@@V?$format_validation_base@_WV?$stream_output_adapter@_W@__crt_stdio_output@@@2@@__crt_stdio_output@@CAPEA_WXZ 0000000180082ed0 f i libucrtd:output.obj
 0001:00081ee0       ?wide_null_string@?$output_processor@_WV?$stream_output_adapter@_W@__crt_stdio_output@@V?$positional_parameter_base@_WV?$stream_output_adapter@_W@__crt_stdio_output@@@2@@__crt_stdio_output@@CAPEA_WXZ 0000000180082ee0 f i libucrtd:output.obj
 0001:00081ef0       ?wide_null_string@?$output_processor@_WV?$stream_output_adapter@_W@__crt_stdio_output@@V?$standard_base@_WV?$stream_output_adapter@_W@__crt_stdio_output@@@2@@__crt_stdio_output@@CAPEA_WXZ 0000000180082ef0 f i libucrtd:output.obj
 0001:00081f00       ?wide_null_string@?$output_processor@_WV?$string_output_adapter@_W@__crt_stdio_output@@V?$format_validation_base@_WV?$string_output_adapter@_W@__crt_stdio_output@@@2@@__crt_stdio_output@@CAPEA_WXZ 0000000180082f00 f i libucrtd:output.obj
 0001:00081f10       ?wide_null_string@?$output_processor@_WV?$string_output_adapter@_W@__crt_stdio_output@@V?$positional_parameter_base@_WV?$string_output_adapter@_W@__crt_stdio_output@@@2@@__crt_stdio_output@@CAPEA_WXZ 0000000180082f10 f i libucrtd:output.obj
 0001:00081f20       ?wide_null_string@?$output_processor@_WV?$string_output_adapter@_W@__crt_stdio_output@@V?$standard_base@_WV?$string_output_adapter@_W@__crt_stdio_output@@@2@@__crt_stdio_output@@CAPEA_WXZ 0000000180082f20 f i libucrtd:output.obj
 0001:00081f30       ?write_character@?$output_adapter_common@DV?$stream_output_adapter@D@__crt_stdio_output@@@__crt_stdio_output@@QEBAXDQEAH@Z 0000000180082f30 f i libucrtd:output.obj
 0001:00081f80       ?write_character@?$output_adapter_common@_WV?$stream_output_adapter@_W@__crt_stdio_output@@@__crt_stdio_output@@QEBAX_WQEAH@Z 0000000180082f80 f i libucrtd:output.obj
 0001:00081fd0       ?write_character@?$string_output_adapter@D@__crt_stdio_output@@QEBA_NDQEAH@Z 0000000180082fd0 f i libucrtd:output.obj
 0001:00082090       ?write_character@?$string_output_adapter@_W@__crt_stdio_output@@QEBA_N_WQEAH@Z 0000000180083090 f i libucrtd:output.obj
 0001:00082150       ?write_character_without_count_update@?$stream_output_adapter@D@__crt_stdio_output@@QEBA_ND@Z 0000000180083150 f i libucrtd:output.obj
 0001:000821d0       ?write_character_without_count_update@?$stream_output_adapter@_W@__crt_stdio_output@@QEBA_N_W@Z 00000001800831d0 f i libucrtd:output.obj
 0001:00082260       ?write_stored_string_tchar@?$output_processor@DV?$stream_output_adapter@D@__crt_stdio_output@@V?$format_validation_base@DV?$stream_output_adapter@D@__crt_stdio_output@@@2@@__crt_stdio_output@@AEAA_ND@Z 0000000180083260 f i libucrtd:output.obj
 0001:00082410       ?write_stored_string_tchar@?$output_processor@DV?$stream_output_adapter@D@__crt_stdio_output@@V?$positional_parameter_base@DV?$stream_output_adapter@D@__crt_stdio_output@@@2@@__crt_stdio_output@@AEAA_ND@Z 0000000180083410 f i libucrtd:output.obj
 0001:000825c0       ?write_stored_string_tchar@?$output_processor@DV?$stream_output_adapter@D@__crt_stdio_output@@V?$standard_base@DV?$stream_output_adapter@D@__crt_stdio_output@@@2@@__crt_stdio_output@@AEAA_ND@Z 00000001800835c0 f i libucrtd:output.obj
 0001:00082770       ?write_stored_string_tchar@?$output_processor@DV?$string_output_adapter@D@__crt_stdio_output@@V?$format_validation_base@DV?$string_output_adapter@D@__crt_stdio_output@@@2@@__crt_stdio_output@@AEAA_ND@Z 0000000180083770 f i libucrtd:output.obj
 0001:00082920       ?write_stored_string_tchar@?$output_processor@DV?$string_output_adapter@D@__crt_stdio_output@@V?$positional_parameter_base@DV?$string_output_adapter@D@__crt_stdio_output@@@2@@__crt_stdio_output@@AEAA_ND@Z 0000000180083920 f i libucrtd:output.obj
 0001:00082ad0       ?write_stored_string_tchar@?$output_processor@DV?$string_output_adapter@D@__crt_stdio_output@@V?$standard_base@DV?$string_output_adapter@D@__crt_stdio_output@@@2@@__crt_stdio_output@@AEAA_ND@Z 0000000180083ad0 f i libucrtd:output.obj
 0001:00082c80       ?write_stored_string_tchar@?$output_processor@_WV?$stream_output_adapter@_W@__crt_stdio_output@@V?$format_validation_base@_WV?$stream_output_adapter@_W@__crt_stdio_output@@@2@@__crt_stdio_output@@AEAA_N_W@Z 0000000180083c80 f i libucrtd:output.obj
 0001:00082dd0       ?write_stored_string_tchar@?$output_processor@_WV?$stream_output_adapter@_W@__crt_stdio_output@@V?$positional_parameter_base@_WV?$stream_output_adapter@_W@__crt_stdio_output@@@2@@__crt_stdio_output@@AEAA_N_W@Z 0000000180083dd0 f i libucrtd:output.obj
 0001:00082f20       ?write_stored_string_tchar@?$output_processor@_WV?$stream_output_adapter@_W@__crt_stdio_output@@V?$standard_base@_WV?$stream_output_adapter@_W@__crt_stdio_output@@@2@@__crt_stdio_output@@AEAA_N_W@Z 0000000180083f20 f i libucrtd:output.obj
 0001:00083070       ?write_stored_string_tchar@?$output_processor@_WV?$string_output_adapter@_W@__crt_stdio_output@@V?$format_validation_base@_WV?$string_output_adapter@_W@__crt_stdio_output@@@2@@__crt_stdio_output@@AEAA_N_W@Z 0000000180084070 f i libucrtd:output.obj
 0001:000831c0       ?write_stored_string_tchar@?$output_processor@_WV?$string_output_adapter@_W@__crt_stdio_output@@V?$positional_parameter_base@_WV?$string_output_adapter@_W@__crt_stdio_output@@@2@@__crt_stdio_output@@AEAA_N_W@Z 00000001800841c0 f i libucrtd:output.obj
 0001:00083310       ?write_stored_string_tchar@?$output_processor@_WV?$string_output_adapter@_W@__crt_stdio_output@@V?$standard_base@_WV?$string_output_adapter@_W@__crt_stdio_output@@@2@@__crt_stdio_output@@AEAA_N_W@Z 0000000180084310 f i libucrtd:output.obj
 0001:00083460       ?write_string@?$stream_output_adapter@D@__crt_stdio_output@@QEBAXQEBDHQEAHAEAV__crt_deferred_errno_cache@@@Z 0000000180084460 f i libucrtd:output.obj
 0001:000834e0       ?write_string@?$stream_output_adapter@_W@__crt_stdio_output@@QEBAXQEB_WHQEAHAEAV__crt_deferred_errno_cache@@@Z 00000001800844e0 f i libucrtd:output.obj
 0001:00083560       ?write_string@?$string_output_adapter@D@__crt_stdio_output@@QEBAXQEBDHQEAHAEAV__crt_deferred_errno_cache@@@Z 0000000180084560 f i libucrtd:output.obj
 0001:000836d0       ?write_string@?$string_output_adapter@_W@__crt_stdio_output@@QEBAXQEB_WHQEAHAEAV__crt_deferred_errno_cache@@@Z 00000001800846d0 f i libucrtd:output.obj
 0001:00083840       ?write_string_impl@?$output_adapter_common@DV?$stream_output_adapter@D@__crt_stdio_output@@@__crt_stdio_output@@IEBAXQEBDHQEAHAEAV__crt_deferred_errno_cache@@@Z 0000000180084840 f i libucrtd:output.obj
 0001:00083920       ?write_string_impl@?$output_adapter_common@_WV?$stream_output_adapter@_W@__crt_stdio_output@@@__crt_stdio_output@@IEBAXQEB_WHQEAHAEAV__crt_deferred_errno_cache@@@Z 0000000180084920 f i libucrtd:output.obj
 0001:00083a00       __acrt_isleadbyte_l_noupdate 0000000180084a00 f i libucrtd:output.obj
 0001:00083a30       __acrt_locale_changed      0000000180084a30 f i libucrtd:output.obj
 0001:00083a60       __acrt_locale_get_ctype_array_value 0000000180084a60 f i libucrtd:output.obj
 0001:00083aa0       __stdio_common_vfprintf    0000000180084aa0 f   libucrtd:output.obj
 0001:00083ae0       __stdio_common_vfprintf_p  0000000180084ae0 f   libucrtd:output.obj
 0001:00083b20       __stdio_common_vfprintf_s  0000000180084b20 f   libucrtd:output.obj
 0001:00083b60       __stdio_common_vfwprintf   0000000180084b60 f   libucrtd:output.obj
 0001:00083ba0       __stdio_common_vfwprintf_p 0000000180084ba0 f   libucrtd:output.obj
 0001:00083be0       __stdio_common_vfwprintf_s 0000000180084be0 f   libucrtd:output.obj
 0001:00083c20       __stdio_common_vsnprintf_s 0000000180084c20 f   libucrtd:output.obj
 0001:00083c80       __stdio_common_vsnwprintf_s 0000000180084c80 f   libucrtd:output.obj
 0001:00083ce0       __stdio_common_vsprintf    0000000180084ce0 f   libucrtd:output.obj
 0001:00083d30       __stdio_common_vsprintf_p  0000000180084d30 f   libucrtd:output.obj
 0001:00083d80       __stdio_common_vsprintf_s  0000000180084d80 f   libucrtd:output.obj
 0001:00083dd0       __stdio_common_vswprintf   0000000180084dd0 f   libucrtd:output.obj
 0001:00083e20       __stdio_common_vswprintf_p 0000000180084e20 f   libucrtd:output.obj
 0001:00083e70       __stdio_common_vswprintf_s 0000000180084e70 f   libucrtd:output.obj
 0001:00083ec0       _ctype_fast_check_internal 0000000180084ec0 f i libucrtd:output.obj
 0001:00083ef0       _isdigit_fast_internal     0000000180084ef0 f i libucrtd:output.obj
 0001:00083f20       _tolower_fast_internal     0000000180084f20 f i libucrtd:output.obj
 0001:00083f50       free                       0000000180084f50 f   libucrtd:free.obj
 0001:00083f80       malloc                     0000000180084f80 f   libucrtd:malloc.obj
 0001:00083fb0       ??$?RU?$__crt_report_hook_node@D@@@__crt_internal_free_policy@@QEBAXQEBU?$__crt_report_hook_node@D@@@Z 0000000180084fb0 f i libucrtd:dbgrpt.obj
 0001:00083fe0       ??$?RU?$__crt_report_hook_node@_W@@@__crt_internal_free_policy@@QEBAXQEBU?$__crt_report_hook_node@_W@@@Z 0000000180084fe0 f i libucrtd:dbgrpt.obj
 0001:00085220       ??$get_module_file_name@AEAPEAUHINSTANCE__@@AEAY0BAF@DK@?$__crt_char_traits@D@@SAKAEAPEAUHINSTANCE__@@AEAY0BAF@D$$QEAK@Z 0000000180086220 f i libucrtd:dbgrpt.obj
 0001:00085260       ??$get_module_file_name@AEAPEAUHINSTANCE__@@AEAY0BAF@_WK@?$__crt_char_traits@_W@@SAKAEAPEAUHINSTANCE__@@AEAY0BAF@_W$$QEAK@Z 0000000180086260 f i libucrtd:dbgrpt.obj
 0001:000852a0       ??$tcscpy_s@AEAY0BAF@D_KPEBD@?$__crt_char_traits@D@@SAHAEAY0BAF@D$$QEA_K$$QEAPEBD@Z 00000001800862a0 f i libucrtd:dbgrpt.obj
 0001:000852e0       ??$tcscpy_s@AEAY0BAF@_W_KPEB_W@?$__crt_char_traits@_W@@SAHAEAY0BAF@_W$$QEA_K$$QEAPEB_W@Z 00000001800862e0 f i libucrtd:dbgrpt.obj
 0001:00085320       ??$tcslen@AEAY0BAF@D@?$__crt_char_traits@D@@SA_KAEAY0BAF@D@Z 0000000180086320 f i libucrtd:dbgrpt.obj
 0001:00085340       ??$tcslen@AEAY0BAF@_W@?$__crt_char_traits@_W@@SA_KAEAY0BAF@_W@Z 0000000180086340 f i libucrtd:dbgrpt.obj
 0001:00085360       ??$tcslen@AEBQEBD@?$__crt_char_traits@D@@SA_KAEBQEBD@Z 0000000180086360 f i libucrtd:dbgrpt.obj
 0001:00085380       ??$tcslen@AEBQEB_W@?$__crt_char_traits@_W@@SA_KAEBQEB_W@Z 0000000180086380 f i libucrtd:dbgrpt.obj
 0001:00085480       ??0?$__crt_unique_heap_ptr@U?$__crt_report_hook_node@D@@U__crt_internal_free_policy@@@@QEAA@QEAU?$__crt_report_hook_node@D@@@Z 0000000180086480 f i libucrtd:dbgrpt.obj
 0001:000854a0       ??0?$__crt_unique_heap_ptr@U?$__crt_report_hook_node@_W@@U__crt_internal_free_policy@@@@QEAA@QEAU?$__crt_report_hook_node@_W@@@Z 00000001800864a0 f i libucrtd:dbgrpt.obj
 0001:000854c0       ??1?$__crt_unique_heap_ptr@U?$__crt_report_hook_node@D@@U__crt_internal_free_policy@@@@QEAA@XZ 00000001800864c0 f i libucrtd:dbgrpt.obj
 0001:000854e0       ??1?$__crt_unique_heap_ptr@U?$__crt_report_hook_node@_W@@U__crt_internal_free_policy@@@@QEAA@XZ 00000001800864e0 f i libucrtd:dbgrpt.obj
 0001:00085500       ??B?$__crt_unique_heap_ptr@U?$__crt_report_hook_node@D@@U__crt_internal_free_policy@@@@QEBA_NXZ 0000000180086500 f i libucrtd:dbgrpt.obj
 0001:00085520       ??B?$__crt_unique_heap_ptr@U?$__crt_report_hook_node@_W@@U__crt_internal_free_policy@@@@QEBA_NXZ 0000000180086520 f i libucrtd:dbgrpt.obj
 0001:00085c00       ?detach@?$__crt_unique_heap_ptr@U?$__crt_report_hook_node@D@@U__crt_internal_free_policy@@@@QEAAPEAU?$__crt_report_hook_node@D@@XZ 0000000180086c00 f i libucrtd:dbgrpt.obj
 0001:00085c30       ?detach@?$__crt_unique_heap_ptr@U?$__crt_report_hook_node@_W@@U__crt_internal_free_policy@@@@QEAAPEAU?$__crt_report_hook_node@_W@@XZ 0000000180086c30 f i libucrtd:dbgrpt.obj
 0001:00085c60       ?get@?$__crt_unique_heap_ptr@U?$__crt_report_hook_node@D@@U__crt_internal_free_policy@@@@QEBAPEAU?$__crt_report_hook_node@D@@XZ 0000000180086c60 f i libucrtd:dbgrpt.obj
 0001:00085c70       ?get@?$__crt_unique_heap_ptr@U?$__crt_report_hook_node@_W@@U__crt_internal_free_policy@@@@QEBAPEAU?$__crt_report_hook_node@_W@@XZ 0000000180086c70 f i libucrtd:dbgrpt.obj
 0001:00085ce0       ?is_valid@?$__crt_unique_heap_ptr@U?$__crt_report_hook_node@D@@U__crt_internal_free_policy@@@@QEBA_NXZ 0000000180086ce0 f i libucrtd:dbgrpt.obj
 0001:00085d10       ?is_valid@?$__crt_unique_heap_ptr@U?$__crt_report_hook_node@_W@@U__crt_internal_free_policy@@@@QEBA_NXZ 0000000180086d10 f i libucrtd:dbgrpt.obj
 0001:00085d40       ?release@?$__crt_unique_heap_ptr@U?$__crt_report_hook_node@D@@U__crt_internal_free_policy@@@@QEAAXXZ 0000000180086d40 f i libucrtd:dbgrpt.obj
 0001:00085d70       ?release@?$__crt_unique_heap_ptr@U?$__crt_report_hook_node@_W@@U__crt_internal_free_policy@@@@QEAAXXZ 0000000180086d70 f i libucrtd:dbgrpt.obj
 0001:00085da0       _CrtDbgReport              0000000180086da0 f   libucrtd:dbgrpt.obj
 0001:00085e20       _CrtDbgReportW             0000000180086e20 f   libucrtd:dbgrpt.obj
 0001:00085ea0       _CrtSetReportHook2         0000000180086ea0 f   libucrtd:dbgrpt.obj
 0001:00085ec0       _CrtSetReportHookW2        0000000180086ec0 f   libucrtd:dbgrpt.obj
 0001:00085ee0       __acrt_MessageWindowA      0000000180086ee0 f   libucrtd:dbgrpt.obj
 0001:00085f30       __acrt_MessageWindowW      0000000180086f30 f   libucrtd:dbgrpt.obj
 0001:00085f80       _invoke_watson_if_error    0000000180086f80 f i libucrtd:dbgrpt.obj
 0001:00085fd0       _invoke_watson_if_oneof    0000000180086fd0 f i libucrtd:dbgrpt.obj
 0001:00086030       _snwprintf_s               0000000180087030 f i libucrtd:dbgrpt.obj
 0001:000860a0       _vsnwprintf_s_l            00000001800870a0 f i libucrtd:dbgrpt.obj
 0001:00086600       wcscpy_s                   0000000180087600 f   libucrtd:wcscpy_s.obj
 0001:00087990       ??1?$__crt_simd_cleanup_guard@$00@@QEAA@XZ 0000000180088990 f i libucrtd:strnlen.obj
 0001:000879a0       ??1?$__crt_simd_cleanup_guard@$0A@@@QEAA@XZ 00000001800889a0 f i libucrtd:strnlen.obj
 0001:000879b0       ?compare_equals@?$__crt_simd_traits@$00E@@SA?AT__m256i@@T2@0@Z 00000001800889b0 f i libucrtd:strnlen.obj
 0001:000879f0       ?compare_equals@?$__crt_simd_traits@$00G@@SA?AT__m256i@@T2@0@Z 00000001800889f0 f i libucrtd:strnlen.obj
 0001:00087a30       ?compare_equals@?$__crt_simd_traits@$0A@E@@SA?AT__m128i@@T2@0@Z 0000000180088a30 f i libucrtd:strnlen.obj
 0001:00087a60       ?compare_equals@?$__crt_simd_traits@$0A@G@@SA?AT__m128i@@T2@0@Z 0000000180088a60 f i libucrtd:strnlen.obj
 0001:00087a90       ?compute_byte_mask@?$__crt_simd_pack_traits@$00@@SAHT__m256i@@@Z 0000000180088a90 f i libucrtd:strnlen.obj
 0001:00087ab0       ?compute_byte_mask@?$__crt_simd_pack_traits@$0A@@@SAHT__m128i@@@Z 0000000180088ab0 f i libucrtd:strnlen.obj
 0001:00087ad0       ?get_zero_pack@?$__crt_simd_pack_traits@$00@@SA?AT__m256i@@XZ 0000000180088ad0 f i libucrtd:strnlen.obj
 0001:00087b00       ?get_zero_pack@?$__crt_simd_pack_traits@$0A@@@SA?AT__m128i@@XZ 0000000180088b00 f i libucrtd:strnlen.obj
 0001:00087b20       strnlen                    0000000180088b20 f   libucrtd:strnlen.obj
 0001:00087b50       wcslen                     0000000180088b50 f   libucrtd:strnlen.obj
 0001:00087b70       wcsnlen                    0000000180088b70 f   libucrtd:strnlen.obj
 0001:00087ba0       ??$__crt_fast_decode_pointer@P6AXPEB_W00I_K@Z@@YAP6AXPEB_W00I_K@ZQ6AX000I1@Z@Z 0000000180088ba0 f i libucrtd:invalid_parameter.obj
 0001:00087be0       ??$__crt_fast_encode_pointer@P6AXPEB_W00I_K@Z@@YAP6AXPEB_W00I_K@ZQ6AX000I1@Z@Z 0000000180088be0 f i libucrtd:invalid_parameter.obj
 0001:00087c20       ??$initialize_from_array@$$BY00Q6AXPEB_W00I_K@Z@?$dual_state_global@P6AXPEB_W00I_K@Z@__crt_state_management@@QEAAXAEAY00Q6AXPEB_W00I_K@Z@Z 0000000180088c20 f i libucrtd:invalid_parameter.obj
 0001:00087c80       ?__crt_rotate_pointer_value@@YA_K_KH@Z 0000000180088c80 f i libucrtd:invalid_parameter.obj
 0001:00087d40       ?dangerous_get_state_array@?$dual_state_global@P6AXPEB_W00I_K@Z@__crt_state_management@@QEAAPEAP6AXPEB_W00I_K@ZXZ 0000000180088d40 f i libucrtd:invalid_parameter.obj
 0001:00087d50       ?get_current_state_index@__crt_state_management@@YA_KXZ 0000000180088d50 f i libucrtd:invalid_parameter.obj
 0001:00087d60       ?value@?$dual_state_global@P6AXPEB_W00I_K@Z@__crt_state_management@@QEAAAEAP6AXPEB_W00I_K@ZXZ 0000000180088d60 f i libucrtd:invalid_parameter.obj
 0001:00087d80       __acrt_call_reportfault    0000000180088d80 f   libucrtd:invalid_parameter.obj
 0001:00087eb0       __acrt_initialize_invalid_parameter_handler 0000000180088eb0 f   libucrtd:invalid_parameter.obj
 0001:00087ee0       _get_invalid_parameter_handler 0000000180088ee0 f   libucrtd:invalid_parameter.obj
 0001:00087f00       _get_thread_local_invalid_parameter_handler 0000000180088f00 f   libucrtd:invalid_parameter.obj
 0001:00087f30       _invalid_parameter         0000000180088f30 f   libucrtd:invalid_parameter.obj
 0001:00088030       _invalid_parameter_noinfo  0000000180089030 f   libucrtd:invalid_parameter.obj
 0001:00088060       _invalid_parameter_noinfo_noreturn 0000000180089060 f   libucrtd:invalid_parameter.obj
 0001:000880a0       _invoke_watson             00000001800890a0 f   libucrtd:invalid_parameter.obj
 0001:00088100       _set_invalid_parameter_handler 0000000180089100 f   libucrtd:invalid_parameter.obj
 0001:00088150       _set_thread_local_invalid_parameter_handler 0000000180089150 f   libucrtd:invalid_parameter.obj
 0001:00088190       __acrt_errno_from_os_error 0000000180089190 f   libucrtd:errno.obj
 0001:00088220       __acrt_errno_map_os_error  0000000180089220 f   libucrtd:errno.obj
 0001:00088250       __doserrno                 0000000180089250 f   libucrtd:errno.obj
 0001:00088280       _errno                     0000000180089280 f   libucrtd:errno.obj
 0001:000882b0       _get_doserrno              00000001800892b0 f   libucrtd:errno.obj
 0001:00088370       _get_errno                 0000000180089370 f   libucrtd:errno.obj
 0001:00088430       _set_doserrno              0000000180089430 f   libucrtd:errno.obj
 0001:00088470       _set_errno                 0000000180089470 f   libucrtd:errno.obj
 0001:000884b0       calloc                     00000001800894b0 f   libucrtd:calloc.obj
 0001:000884f0       _recalloc                  00000001800894f0 f   libucrtd:recalloc.obj
 0001:00088540       _recalloc_base             0000000180089540 f   libucrtd:recalloc.obj
 0001:0008861c       _resetstkoflw              000000018008961c f   libucrtd:resetstk.obj
 0001:00088dd0       wcscat_s                   0000000180089dd0 f   libucrtd:wcscat_s.obj
 0001:000894a0       wcsncpy_s                  000000018008a4a0 f   libucrtd:wcsncpy_s.obj
 0001:00089500       __acrt_get_locale_data_prefix 000000018008a500 f i libucrtd:_ctype.obj
 0001:00089520       __isascii                  000000018008a520 f i libucrtd:_ctype.obj
 0001:00089550       __iscsym                   000000018008a550 f i libucrtd:_ctype.obj
 0001:00089590       __iscsymf                  000000018008a590 f i libucrtd:_ctype.obj
 0001:000895d0       __toascii                  000000018008a5d0 f i libucrtd:_ctype.obj
 0001:000895e0       _chvalidchk_l              000000018008a5e0 f i libucrtd:_ctype.obj
 0001:00089610       _isalnum_l                 000000018008a610 f i libucrtd:_ctype.obj
 0001:00089660       _isalpha_l                 000000018008a660 f i libucrtd:_ctype.obj
 0001:000896b0       _isblank_l                 000000018008a6b0 f i libucrtd:_ctype.obj
 0001:00089720       _ischartype_l              000000018008a720 f i libucrtd:_ctype.obj
 0001:000897b0       _iscntrl_l                 000000018008a7b0 f i libucrtd:_ctype.obj
 0001:00089800       _iscsym_l                  000000018008a800 f i libucrtd:_ctype.obj
 0001:00089850       _iscsymf_l                 000000018008a850 f i libucrtd:_ctype.obj
 0001:000898a0       _isdigit_l                 000000018008a8a0 f i libucrtd:_ctype.obj
 0001:000898f0       _isgraph_l                 000000018008a8f0 f i libucrtd:_ctype.obj
 0001:00089940       _islower_l                 000000018008a940 f i libucrtd:_ctype.obj
 0001:00089990       _isprint_l                 000000018008a990 f i libucrtd:_ctype.obj
 0001:000899e0       _ispunct_l                 000000018008a9e0 f i libucrtd:_ctype.obj
 0001:00089a30       _isspace_l                 000000018008aa30 f i libucrtd:_ctype.obj
 0001:00089a80       _isupper_l                 000000018008aa80 f i libucrtd:_ctype.obj
 0001:00089ad0       _isxdigit_l                000000018008aad0 f i libucrtd:_ctype.obj
 0001:00089b20       isalnum                    000000018008ab20 f i libucrtd:_ctype.obj
 0001:00089b60       isalpha                    000000018008ab60 f i libucrtd:_ctype.obj
 0001:00089ba0       isblank                    000000018008aba0 f i libucrtd:_ctype.obj
 0001:00089c00       iscntrl                    000000018008ac00 f i libucrtd:_ctype.obj
 0001:00089c40       isdigit                    000000018008ac40 f i libucrtd:_ctype.obj
 0001:00089c80       isgraph                    000000018008ac80 f i libucrtd:_ctype.obj
 0001:00089cc0       islower                    000000018008acc0 f i libucrtd:_ctype.obj
 0001:00089d00       isprint                    000000018008ad00 f i libucrtd:_ctype.obj
 0001:00089d40       ispunct                    000000018008ad40 f i libucrtd:_ctype.obj
 0001:00089d80       isspace                    000000018008ad80 f i libucrtd:_ctype.obj
 0001:00089dc0       isupper                    000000018008adc0 f i libucrtd:_ctype.obj
 0001:00089e00       isxdigit                   000000018008ae00 f i libucrtd:_ctype.obj
 0001:00089e40       wcscat                     000000018008ae40 f   libucrtd:wcscat.obj
 0001:00089ec0       wcscpy                     000000018008aec0 f   libucrtd:wcscpy.obj
 0001:0008a670       ??$open_file@AEBQEBDAEBQEBDAEBHPEAU_iobuf@@@?$__crt_char_traits@D@@SAPEAU_iobuf@@AEBQEBD0AEBH$$QEAPEAU1@@Z 000000018008b670 f i libucrtd:fopen.obj
 0001:0008a6c0       ??$open_file@AEBQEB_WAEBQEB_WAEBHPEAU_iobuf@@@?$__crt_char_traits@_W@@SAPEAU_iobuf@@AEBQEB_W0AEBH$$QEAPEAU1@@Z 000000018008b6c0 f i libucrtd:fopen.obj
 0001:0008a710       ?unlock@__crt_stdio_stream@@QEBAXXZ 000000018008b710 f i libucrtd:fopen.obj
 0001:0008a730       _fsopen                    000000018008b730 f   libucrtd:fopen.obj
 0001:0008a760       _wfopen                    000000018008b760 f   libucrtd:fopen.obj
 0001:0008a790       _wfopen_s                  000000018008b790 f   libucrtd:fopen.obj
 0001:0008a7c0       _wfsopen                   000000018008b7c0 f   libucrtd:fopen.obj
 0001:0008a7f0       fopen                      000000018008b7f0 f   libucrtd:fopen.obj
 0001:0008a820       fopen_s                    000000018008b820 f   libucrtd:fopen.obj
 0001:0008a850       ?is_in_use@__crt_stdio_stream@@QEBA_NXZ 000000018008b850 f i libucrtd:fclose.obj
 0001:0008a890       _fclose_nolock             000000018008b890 f   libucrtd:fclose.obj
 0001:0008aa20       fclose                     000000018008ba20 f   libucrtd:fclose.obj
 0001:0008ab60       _fputc_nolock              000000018008bb60 f   libucrtd:fputc.obj
 0001:0008ac10       _fputchar                  000000018008bc10 f   libucrtd:fputc.obj
 0001:0008ac40       _putc_nolock               000000018008bc40 f   libucrtd:fputc.obj
 0001:0008ac60       fputc                      000000018008bc60 f   libucrtd:fputc.obj
 0001:0008af00       putc                       000000018008bf00 f   libucrtd:fputc.obj
 0001:0008af20       putchar                    000000018008bf20 f   libucrtd:fputc.obj
 0001:0008afb0       _seh_filter_dll            000000018008bfb0 f   libucrtd:exception_filter.obj
 0001:0008afe0       _seh_filter_exe            000000018008bfe0 f   libucrtd:exception_filter.obj
 0001:0008b280       ??$?B$$A6AXPEAXK0@Z@__crt_fast_encoded_nullptr_t@@QEBAP6AXPEAXK0@ZXZ 000000018008c280 f i libucrtd:exit.obj
 0001:0008b330       ??$__crt_fast_decode_pointer@P6AXPEAXK0@Z@@YAP6AXPEAXK0@ZQ6AX0K0@Z@Z 000000018008c330 f i libucrtd:exit.obj
 0001:0008b370       ??$__crt_fast_encode_pointer@P6AXPEAXK0@Z@@YAP6AXPEAXK0@ZQ6AX0K0@Z@Z 000000018008c370 f i libucrtd:exit.obj
 0001:0008b3b0       ??$__crt_get_proc_address@P6AXI@Z@@YAP6AXI@ZQEAUHINSTANCE__@@QEBD@Z 000000018008c3b0 f i libucrtd:exit.obj
 0001:0008b470       ??0?$__crt_unique_handle_t@U__crt_hmodule_traits@@@@QEAA@QEAUHINSTANCE__@@@Z 000000018008c470 f i libucrtd:exit.obj
 0001:0008b490       ??1?$__crt_unique_handle_t@U__crt_hmodule_traits@@@@QEAA@XZ 000000018008c490 f i libucrtd:exit.obj
 0001:0008b5f0       ?__acrt_select_exit_lock@@YA?AW4__acrt_lock_id@@XZ 000000018008c5f0 f i libucrtd:exit.obj
 0001:0008b600       ?__crt_fast_encode_pointer@@YA?AU__crt_fast_encoded_nullptr_t@@$$T@Z 000000018008c600 f i libucrtd:exit.obj
 0001:0008b640       ?close@?$__crt_unique_handle_t@U__crt_hmodule_traits@@@@QEAAXXZ 000000018008c640 f i libucrtd:exit.obj
 0001:0008b680       ?close@__crt_hmodule_traits@@SA_NPEAUHINSTANCE__@@@Z 000000018008c680 f i libucrtd:exit.obj
 0001:0008b790       ?get@?$__crt_unique_handle_t@U__crt_hmodule_traits@@@@QEBAPEAUHINSTANCE__@@XZ 000000018008c790 f i libucrtd:exit.obj
 0001:0008b7a0       ?get_address_of@?$__crt_unique_handle_t@U__crt_hmodule_traits@@@@QEAAPEAPEAUHINSTANCE__@@XZ 000000018008c7a0 f i libucrtd:exit.obj
 0001:0008b7b0       ?get_invalid_value@__crt_hmodule_traits@@SAPEAUHINSTANCE__@@XZ 000000018008c7b0 f i libucrtd:exit.obj
 0001:0008b970       _Exit                      000000018008c970 f   libucrtd:exit.obj
 0001:0008b990       __acrt_initialize_thread_local_exit_callback 000000018008c990 f   libucrtd:exit.obj
 0001:0008b9b0       _c_exit                    000000018008c9b0 f   libucrtd:exit.obj
 0001:0008b9d0       _cexit                     000000018008c9d0 f   libucrtd:exit.obj
 0001:0008b9f0       _exit                      000000018008c9f0 f   libucrtd:exit.obj
 0001:0008ba10       _is_c_termination_complete 000000018008ca10 f   libucrtd:exit.obj
 0001:0008ba30       _register_thread_local_exe_atexit_callback 000000018008ca30 f   libucrtd:exit.obj
 0001:0008ba80       exit                       000000018008ca80 f   libucrtd:exit.obj
 0001:0008baa0       quick_exit                 000000018008caa0 f   libucrtd:exit.obj
 0001:0008bac0       ??$?RE@__crt_internal_free_policy@@QEBAXQEBE@Z 000000018008cac0 f i libucrtd:argv_parsing.obj
 0001:0008baf0       ??$?RPEAD@__crt_internal_free_policy@@QEBAXQEBQEAD@Z 000000018008caf0 f i libucrtd:argv_parsing.obj
 0001:0008bb20       ??$?RPEA_W@__crt_internal_free_policy@@QEBAXQEBQEA_W@Z 000000018008cb20 f i libucrtd:argv_parsing.obj
 0001:0008c270       ??$get_module_file_name@$$TAEAY0BAF@DH@?$__crt_char_traits@D@@SAK$$QEA$$TAEAY0BAF@D$$QEAH@Z 000000018008d270 f i libucrtd:argv_parsing.obj
 0001:0008c2b0       ??$get_module_file_name@$$TAEAY0BAF@_WH@?$__crt_char_traits@_W@@SAK$$QEA$$TAEAY0BAF@_W$$QEAH@Z 000000018008d2b0 f i libucrtd:argv_parsing.obj
 0001:0008cc60       ??$set_program_name@PEAD@?$__crt_char_traits@D@@SAX$$QEAPEAD@Z 000000018008dc60 f i libucrtd:argv_parsing.obj
 0001:0008cc80       ??$set_program_name@PEA_W@?$__crt_char_traits@_W@@SAX$$QEAPEA_W@Z 000000018008dc80 f i libucrtd:argv_parsing.obj
 0001:0008cce0       ??0?$__crt_unique_heap_ptr@EU__crt_internal_free_policy@@@@QEAA@QEAE@Z 000000018008dce0 f i libucrtd:argv_parsing.obj
 0001:0008cd00       ??0?$__crt_unique_heap_ptr@PEADU__crt_internal_free_policy@@@@QEAA@QEAPEAD@Z 000000018008dd00 f i libucrtd:argv_parsing.obj
 0001:0008cd20       ??0?$__crt_unique_heap_ptr@PEA_WU__crt_internal_free_policy@@@@QEAA@QEAPEA_W@Z 000000018008dd20 f i libucrtd:argv_parsing.obj
 0001:0008cd40       ??1?$__crt_unique_heap_ptr@EU__crt_internal_free_policy@@@@QEAA@XZ 000000018008dd40 f i libucrtd:argv_parsing.obj
 0001:0008cd60       ??1?$__crt_unique_heap_ptr@PEADU__crt_internal_free_policy@@@@QEAA@XZ 000000018008dd60 f i libucrtd:argv_parsing.obj
 0001:0008cd80       ??1?$__crt_unique_heap_ptr@PEA_WU__crt_internal_free_policy@@@@QEAA@XZ 000000018008dd80 f i libucrtd:argv_parsing.obj
 0001:0008cda0       ??B?$__crt_unique_heap_ptr@EU__crt_internal_free_policy@@@@QEBA_NXZ 000000018008dda0 f i libucrtd:argv_parsing.obj
 0001:0008ce80       ?detach@?$__crt_unique_heap_ptr@EU__crt_internal_free_policy@@@@QEAAPEAEXZ 000000018008de80 f i libucrtd:argv_parsing.obj
 0001:0008ceb0       ?detach@?$__crt_unique_heap_ptr@PEADU__crt_internal_free_policy@@@@QEAAPEAPEADXZ 000000018008deb0 f i libucrtd:argv_parsing.obj
 0001:0008cee0       ?detach@?$__crt_unique_heap_ptr@PEA_WU__crt_internal_free_policy@@@@QEAAPEAPEA_WXZ 000000018008dee0 f i libucrtd:argv_parsing.obj
 0001:0008cfa0       ?get@?$__crt_unique_heap_ptr@EU__crt_internal_free_policy@@@@QEBAPEAEXZ 000000018008dfa0 f i libucrtd:argv_parsing.obj
 0001:0008cfb0       ?get@?$__crt_unique_heap_ptr@PEADU__crt_internal_free_policy@@@@QEBAPEAPEADXZ 000000018008dfb0 f i libucrtd:argv_parsing.obj
 0001:0008cfc0       ?get@?$__crt_unique_heap_ptr@PEA_WU__crt_internal_free_policy@@@@QEBAPEAPEA_WXZ 000000018008dfc0 f i libucrtd:argv_parsing.obj
 0001:0008cfd0       ?get_address_of@?$__crt_unique_heap_ptr@PEADU__crt_internal_free_policy@@@@QEAAPEAPEAPEADXZ 000000018008dfd0 f i libucrtd:argv_parsing.obj
 0001:0008cfe0       ?get_address_of@?$__crt_unique_heap_ptr@PEA_WU__crt_internal_free_policy@@@@QEAAPEAPEAPEA_WXZ 000000018008dfe0 f i libucrtd:argv_parsing.obj
 0001:0008d030       ?is_valid@?$__crt_unique_heap_ptr@EU__crt_internal_free_policy@@@@QEBA_NXZ 000000018008e030 f i libucrtd:argv_parsing.obj
 0001:0008d060       ?release@?$__crt_unique_heap_ptr@EU__crt_internal_free_policy@@@@QEAAXXZ 000000018008e060 f i libucrtd:argv_parsing.obj
 0001:0008d090       ?release@?$__crt_unique_heap_ptr@PEADU__crt_internal_free_policy@@@@QEAAXXZ 000000018008e090 f i libucrtd:argv_parsing.obj
 0001:0008d0c0       ?release@?$__crt_unique_heap_ptr@PEA_WU__crt_internal_free_policy@@@@QEAAXXZ 000000018008e0c0 f i libucrtd:argv_parsing.obj
 0001:0008d140       __acrt_allocate_buffer_for_argv 000000018008e140 f   libucrtd:argv_parsing.obj
 0001:0008d260       _configure_narrow_argv     000000018008e260 f   libucrtd:argv_parsing.obj
 0001:0008d280       _configure_wide_argv       000000018008e280 f   libucrtd:argv_parsing.obj
 0001:0008d2a0       _set_pgmptr                000000018008e2a0 f i libucrtd:argv_parsing.obj
 0001:0008d2c0       _set_wpgmptr               000000018008e2c0 f i libucrtd:argv_parsing.obj
 0001:0008d2d4       ??$?R_W@__crt_internal_free_policy@@QEBAXQEB_W@Z 000000018008e2d4 f i libucrtd:environment_initialization.obj
 0001:0008d8ac       ??$get_environment_from_os@$$V@?$__crt_char_traits@D@@SAPEADXZ 000000018008e8ac f i libucrtd:environment_initialization.obj
 0001:0008d8b4       ??$get_environment_from_os@$$V@?$__crt_char_traits@_W@@SAPEA_WXZ 000000018008e8b4 f i libucrtd:environment_initialization.obj
 0001:0008da84       ??$set_variable_in_environment_nolock@PEADH@?$__crt_char_traits@D@@SAH$$QEAPEAD$$QEAH@Z 000000018008ea84 f i libucrtd:environment_initialization.obj
 0001:0008da90       ??$set_variable_in_environment_nolock@PEA_WH@?$__crt_char_traits@_W@@SAH$$QEAPEA_W$$QEAH@Z 000000018008ea90 f i libucrtd:environment_initialization.obj
 0001:0008da9c       ??$tcscpy_s@PEADAEB_KAEAPEAD@?$__crt_char_traits@D@@SAH$$QEAPEADAEB_KAEAPEAD@Z 000000018008ea9c f i libucrtd:environment_initialization.obj
 0001:0008daac       ??$tcscpy_s@PEA_WAEB_KAEAPEA_W@?$__crt_char_traits@_W@@SAH$$QEAPEA_WAEB_KAEAPEA_W@Z 000000018008eaac f i libucrtd:environment_initialization.obj
 0001:0008dabc       ??$tcslen@AEAPEAD@?$__crt_char_traits@D@@SA_KAEAPEAD@Z 000000018008eabc f i libucrtd:environment_initialization.obj
 0001:0008dad0       ??$tcslen@AEAPEA_W@?$__crt_char_traits@_W@@SA_KAEAPEA_W@Z 000000018008ead0 f i libucrtd:environment_initialization.obj
 0001:0008dae4       ??$uninitialize@A6AXAEAPEAPEAD@Z@?$dual_state_global@PEAPEAD@__crt_state_management@@QEAAXA6AXAEAPEAPEAD@Z@Z 000000018008eae4 f i libucrtd:environment_initialization.obj
 0001:0008db28       ??$uninitialize@A6AXAEAPEAPEA_W@Z@?$dual_state_global@PEAPEA_W@__crt_state_management@@QEAAXA6AXAEAPEAPEA_W@Z@Z 000000018008eb28 f i libucrtd:environment_initialization.obj
 0001:0008dba4       ??0?$__crt_unique_heap_ptr@_WU__crt_internal_free_policy@@@@QEAA@QEA_W@Z 000000018008eba4 f i libucrtd:environment_initialization.obj
 0001:0008dbac       ??1?$__crt_unique_heap_ptr@_WU__crt_internal_free_policy@@@@QEAA@XZ 000000018008ebac f i libucrtd:environment_initialization.obj
 0001:0008dbcc       ??B?$__crt_unique_heap_ptr@PEADU__crt_internal_free_policy@@@@QEBA_NXZ 000000018008ebcc f i libucrtd:environment_initialization.obj
 0001:0008dbd4       ??B?$__crt_unique_heap_ptr@PEA_WU__crt_internal_free_policy@@@@QEBA_NXZ 000000018008ebd4 f i libucrtd:environment_initialization.obj
 0001:0008dbdc       ??B?$__crt_unique_heap_ptr@_WU__crt_internal_free_policy@@@@QEBA_NXZ 000000018008ebdc f i libucrtd:environment_initialization.obj
 0001:0008dbe4       ?__crt_compute_required_transform_buffer_count@@YA_KIQEBD@Z 000000018008ebe4 f i libucrtd:environment_initialization.obj
 0001:0008dc08       ?__crt_compute_required_transform_buffer_count@@YA_KIQEB_W@Z 000000018008ec08 f i libucrtd:environment_initialization.obj
 0001:0008dc38       ?__crt_transform_string@@YA_KIQEBDQEA_W_K@Z 000000018008ec38 f i libucrtd:environment_initialization.obj
 0001:0008dc5c       ?__crt_transform_string@@YA_KIQEB_WQEAD_K@Z 000000018008ec5c f i libucrtd:environment_initialization.obj
 0001:0008dc8c       ?detach@?$__crt_unique_heap_ptr@DU__crt_internal_free_policy@@@@QEAAPEADXZ 000000018008ec8c f i libucrtd:environment_initialization.obj
 0001:0008dc94       ?detach@?$__crt_unique_heap_ptr@_WU__crt_internal_free_policy@@@@QEAAPEA_WXZ 000000018008ec94 f i libucrtd:environment_initialization.obj
 0001:0008dc9c       ?get@?$__crt_unique_heap_ptr@_WU__crt_internal_free_policy@@@@QEBAPEA_WXZ 000000018008ec9c f i libucrtd:environment_initialization.obj
 0001:0008dcd0       ?initialize@?$dual_state_global@PEAPEAD@__crt_state_management@@QEAAXQEAPEAD@Z 000000018008ecd0 f i libucrtd:environment_initialization.obj
 0001:0008dcf8       ?initialize@?$dual_state_global@PEAPEA_W@__crt_state_management@@QEAAXQEAPEA_W@Z 000000018008ecf8 f i libucrtd:environment_initialization.obj
 0001:0008dd20       ?is_valid@?$__crt_unique_heap_ptr@PEADU__crt_internal_free_policy@@@@QEBA_NXZ 000000018008ed20 f i libucrtd:environment_initialization.obj
 0001:0008dd28       ?is_valid@?$__crt_unique_heap_ptr@PEA_WU__crt_internal_free_policy@@@@QEBA_NXZ 000000018008ed28 f i libucrtd:environment_initialization.obj
 0001:0008dd30       ?is_valid@?$__crt_unique_heap_ptr@_WU__crt_internal_free_policy@@@@QEBA_NXZ 000000018008ed30 f i libucrtd:environment_initialization.obj
 0001:0008dd44       ?release@?$__crt_unique_heap_ptr@_WU__crt_internal_free_policy@@@@QEAAXXZ 000000018008ed44 f i libucrtd:environment_initialization.obj
 0001:0008dd64       ?value@?$dual_state_global@PEAPEAD@__crt_state_management@@QEAAAEAPEAPEADXZ 000000018008ed64 f i libucrtd:environment_initialization.obj
 0001:0008dd68       ?value@?$dual_state_global@PEAPEA_W@__crt_state_management@@QEAAAEAPEAPEA_WXZ 000000018008ed68 f i libucrtd:environment_initialization.obj
 0001:0008dd6c       __dcrt_get_or_create_narrow_environment_nolock 000000018008ed6c f   libucrtd:environment_initialization.obj
 0001:0008dda8       __dcrt_get_or_create_wide_environment_nolock 000000018008eda8 f   libucrtd:environment_initialization.obj
 0001:0008dde4       __dcrt_uninitialize_environments_nolock 000000018008ede4 f   libucrtd:environment_initialization.obj
 0001:0008de1c       __p__environ               000000018008ee1c f   libucrtd:environment_initialization.obj
 0001:0008de24       __p__wenviron              000000018008ee24 f   libucrtd:environment_initialization.obj
 0001:0008de2c       _get_initial_narrow_environment 000000018008ee2c f   libucrtd:environment_initialization.obj
 0001:0008de7c       _get_initial_wide_environment 000000018008ee7c f   libucrtd:environment_initialization.obj
 0001:0008decc       _initialize_narrow_environment 000000018008eecc f   libucrtd:environment_initialization.obj
 0001:0008ded4       _initialize_wide_environment 000000018008eed4 f   libucrtd:environment_initialization.obj
 0001:0008dee0       ??$?B$$A6AXXZ@__crt_fast_encoded_nullptr_t@@QEBAP6AXXZXZ 000000018008eee0 f i libucrtd:onexit.obj
 0001:0008df00       ??$?BP6AXXZ@__crt_fast_encoded_nullptr_t@@QEBAPEAP6AXXZXZ 000000018008ef00 f i libucrtd:onexit.obj
 0001:0008df20       ??$?RP6AXXZ@__crt_internal_free_policy@@QEBAXQEBQ6AXXZ@Z 000000018008ef20 f i libucrtd:onexit.obj
 0001:0008e090       ??$__crt_fast_decode_pointer@P6AXXZ@@YAP6AXXZQ6AXXZ@Z 000000018008f090 f i libucrtd:onexit.obj
 0001:0008e0d0       ??$__crt_fast_decode_pointer@PEAP6AXXZ@@YAPEAP6AXXZQEAP6AXXZ@Z 000000018008f0d0 f i libucrtd:onexit.obj
 0001:0008e110       ??$__crt_fast_encode_pointer@P6AHXZ@@YAP6AHXZQ6AHXZ@Z 000000018008f110 f i libucrtd:onexit.obj
 0001:0008e150       ??$__crt_fast_encode_pointer@P6AXXZ@@YAP6AXXZQ6AXXZ@Z 000000018008f150 f i libucrtd:onexit.obj
 0001:0008e190       ??$__crt_fast_encode_pointer@PEAP6AXXZ@@YAPEAP6AXXZQEAP6AXXZ@Z 000000018008f190 f i libucrtd:onexit.obj
 0001:0008e2a0       ??0?$__crt_unique_heap_ptr@P6AXXZU__crt_internal_free_policy@@@@QEAA@QEAP6AXXZ@Z 000000018008f2a0 f i libucrtd:onexit.obj
 0001:0008e2c0       ??1?$__crt_unique_heap_ptr@P6AXXZU__crt_internal_free_policy@@@@QEAA@XZ 000000018008f2c0 f i libucrtd:onexit.obj
 0001:0008e2e0       ??1scoped_global_state_reset@__crt_state_management@@QEAA@XZ 000000018008f2e0 f i libucrtd:onexit.obj
 0001:0008e8b0       ?detach@?$__crt_unique_heap_ptr@P6AXXZU__crt_internal_free_policy@@@@QEAAPEAP6AXXZXZ 000000018008f8b0 f i libucrtd:onexit.obj
 0001:0008e8e0       ?release@?$__crt_unique_heap_ptr@P6AXXZU__crt_internal_free_policy@@@@QEAAXXZ 000000018008f8e0 f i libucrtd:onexit.obj
 0001:0008e910       _crt_at_quick_exit         000000018008f910 f   libucrtd:onexit.obj
 0001:0008e930       _crt_atexit                000000018008f930 f   libucrtd:onexit.obj
 0001:0008e950       _execute_onexit_table      000000018008f950 f   libucrtd:onexit.obj
 0001:0008e990       _initialize_onexit_table   000000018008f990 f   libucrtd:onexit.obj
 0001:0008ea10       _register_onexit_function  000000018008fa10 f   libucrtd:onexit.obj
 0001:0008ec80       ??$?BX@__crt_fast_encoded_nullptr_t@@QEBAPEAXXZ 000000018008fc80 f i libucrtd:initialization.obj
 0001:0008eca0       ??$__crt_fast_encode_pointer@PEAX@@YAPEAXQEAX@Z 000000018008fca0 f i libucrtd:initialization.obj
 0001:0008ed90       ?initialize@?$dual_state_global@PEAU__crt_locale_data@@@__crt_state_management@@QEAAXQEAU__crt_locale_data@@@Z 000000018008fd90 f i libucrtd:initialization.obj
 0001:0008ede0       __acrt_initialize          000000018008fde0 f   libucrtd:initialization.obj
 0001:0008ee10       __acrt_thread_attach       000000018008fe10 f   libucrtd:initialization.obj
 0001:0008ee30       __acrt_thread_detach       000000018008fe30 f   libucrtd:initialization.obj
 0001:0008ee40       __acrt_uninitialize        000000018008fe40 f   libucrtd:initialization.obj
 0001:0008ee70       __acrt_uninitialize_critical 000000018008fe70 f   libucrtd:initialization.obj
 0001:00090e60       _CrtCheckMemory            0000000180091e60 f   libucrtd:debug_heap.obj
 0001:00090ff0       _CrtDoForAllClientObjects  0000000180091ff0 f   libucrtd:debug_heap.obj
 0001:00091120       _CrtDumpMemoryLeaks        0000000180092120 f   libucrtd:debug_heap.obj
 0001:000911e0       _CrtGetAllocHook           00000001800921e0 f   libucrtd:debug_heap.obj
 0001:000911f0       _CrtGetDumpClient          00000001800921f0 f   libucrtd:debug_heap.obj
 0001:00091200       _CrtIsMemoryBlock          0000000180092200 f   libucrtd:debug_heap.obj
 0001:00091340       _CrtIsValidHeapPointer     0000000180092340 f   libucrtd:debug_heap.obj
 0001:00091380       _CrtIsValidPointer         0000000180092380 f   libucrtd:debug_heap.obj
 0001:000913c0       _CrtMemCheckpoint          00000001800923c0 f   libucrtd:debug_heap.obj
 0001:00091640       _CrtMemDifference          0000000180092640 f   libucrtd:debug_heap.obj
 0001:000919a0       _CrtMemDumpAllObjectsSince 00000001800929a0 f   libucrtd:debug_heap.obj
 0001:00091a00       _CrtMemDumpStatistics      0000000180092a00 f   libucrtd:debug_heap.obj
 0001:00091ba0       _CrtReportBlockType        0000000180092ba0 f   libucrtd:debug_heap.obj
 0001:00091bd0       _CrtSetAllocHook           0000000180092bd0 f   libucrtd:debug_heap.obj
 0001:00091c00       _CrtSetBreakAlloc          0000000180092c00 f   libucrtd:debug_heap.obj
 0001:00091c30       _CrtSetDbgBlockType        0000000180092c30 f   libucrtd:debug_heap.obj
 0001:00091cd0       _CrtSetDbgFlag             0000000180092cd0 f   libucrtd:debug_heap.obj
 0001:00091e30       _CrtSetDumpClient          0000000180092e30 f   libucrtd:debug_heap.obj
 0001:00091e60       __p__crtBreakAlloc         0000000180092e60 f   libucrtd:debug_heap.obj
 0001:00091e70       __p__crtDbgFlag            0000000180092e70 f   libucrtd:debug_heap.obj
 0001:00091e80       _aligned_free_dbg          0000000180092e80 f   libucrtd:debug_heap.obj
 0001:00091f70       _aligned_malloc_dbg        0000000180092f70 f   libucrtd:debug_heap.obj
 0001:00091fb0       _aligned_msize_dbg         0000000180092fb0 f   libucrtd:debug_heap.obj
 0001:00092180       _aligned_offset_malloc_dbg 0000000180093180 f   libucrtd:debug_heap.obj
 0001:00092470       _aligned_offset_realloc_dbg 0000000180093470 f   libucrtd:debug_heap.obj
 0001:00092920       _aligned_offset_recalloc_dbg 0000000180093920 f   libucrtd:debug_heap.obj
 0001:00092a40       _aligned_realloc_dbg       0000000180093a40 f   libucrtd:debug_heap.obj
 0001:00092a90       _aligned_recalloc_dbg      0000000180093a90 f   libucrtd:debug_heap.obj
 0001:00092af0       _calloc_dbg                0000000180093af0 f   libucrtd:debug_heap.obj
 0001:00092b90       _expand_dbg                0000000180093b90 f   libucrtd:debug_heap.obj
 0001:00092cc0       _free_dbg                  0000000180093cc0 f   libucrtd:debug_heap.obj
 0001:00092d30       _malloc_dbg                0000000180093d30 f   libucrtd:debug_heap.obj
 0001:00092d70       _msize_dbg                 0000000180093d70 f   libucrtd:debug_heap.obj
 0001:00092f10       _realloc_dbg               0000000180093f10 f   libucrtd:debug_heap.obj
 0001:00092f80       _recalloc_dbg              0000000180093f80 f   libucrtd:debug_heap.obj
 0001:00093080       _initterm                  0000000180094080 f   libucrtd:initterm.obj
 0001:000930e0       _initterm_e                00000001800940e0 f   libucrtd:initterm.obj
 0001:00093630       strcpy_s                   0000000180094630 f   libucrtd:strcpy_s.obj
 0001:00093cd0       strcat_s                   0000000180094cd0 f   libucrtd:strcat_s.obj
 0001:00093d00       ??$?B$$A6AH_K@Z@__crt_fast_encoded_nullptr_t@@QEBAP6AH_K@ZXZ 0000000180094d00 f i libucrtd:new_handler.obj
 0001:00093d20       ??$__crt_fast_decode_pointer@P6AH_K@Z@@YAP6AH_K@ZQ6AH0@Z@Z 0000000180094d20 f i libucrtd:new_handler.obj
 0001:00093d60       ??$__crt_fast_encode_pointer@P6AH_K@Z@@YAP6AH_K@ZQ6AH0@Z@Z 0000000180094d60 f i libucrtd:new_handler.obj
 0001:00093da0       ?_set_new_handler@@YAP6AH_K@ZH@Z 0000000180094da0 f   libucrtd:new_handler.obj
 0001:00093e10       ?initialize@?$dual_state_global@P6AH_K@Z@__crt_state_management@@QEAAXQ6AH_K@Z@Z 0000000180094e10 f i libucrtd:new_handler.obj
 0001:00093e60       ?value@?$dual_state_global@P6AH_K@Z@__crt_state_management@@QEAAAEAP6AH_K@ZXZ 0000000180094e60 f i libucrtd:new_handler.obj
 0001:00093e80       __acrt_initialize_new_handler 0000000180094e80 f   libucrtd:new_handler.obj
 0001:00093ea0       _callnewh                  0000000180094ea0 f   libucrtd:new_handler.obj
 0001:00093ef0       _query_new_handler         0000000180094ef0 f   libucrtd:new_handler.obj
 0001:00093f30       _set_new_handler           0000000180094f30 f   libucrtd:new_handler.obj
 0001:00093fe0       _get_terminate             0000000180094fe0 f   libucrtd:terminate.obj
 0001:00094000       set_terminate              0000000180095000 f   libucrtd:terminate.obj
 0001:00094040       terminate                  0000000180095040 f   libucrtd:terminate.obj
 0001:00094e40       _makepath                  0000000180095e40 f   libucrtd:makepath.obj
 0001:00094e90       _makepath_s                0000000180095e90 f   libucrtd:makepath.obj
 0001:00094ee0       _wmakepath                 0000000180095ee0 f   libucrtd:makepath.obj
 0001:00094f30       _wmakepath_s               0000000180095f30 f   libucrtd:makepath.obj
 0001:00097560       ??$tcsncpy_s@AEAPEAD_KAEAPEBDAEB_K@?$__crt_char_traits@D@@SAHAEAPEAD$$QEA_KAEAPEBDAEB_K@Z 0000000180098560 f i libucrtd:splitpath.obj
 0001:000975b0       ??$tcsncpy_s@AEAPEAD_KAEAPEBDH@?$__crt_char_traits@D@@SAHAEAPEAD$$QEA_KAEAPEBD$$QEAH@Z 00000001800985b0 f i libucrtd:splitpath.obj
 0001:00097600       ??$tcsncpy_s@AEAPEA_W_KAEAPEB_WAEB_K@?$__crt_char_traits@_W@@SAHAEAPEA_W$$QEA_KAEAPEB_WAEB_K@Z 0000000180098600 f i libucrtd:splitpath.obj
 0001:00097650       ??$tcsncpy_s@AEAPEA_W_KAEAPEB_WH@?$__crt_char_traits@_W@@SAHAEAPEA_W$$QEA_KAEAPEB_W$$QEAH@Z 0000000180098650 f i libucrtd:splitpath.obj
 0001:00097900       _splitpath                 0000000180098900 f   libucrtd:splitpath.obj
 0001:00097940       _splitpath_s               0000000180098940 f   libucrtd:splitpath.obj
 0001:000979e0       _wsplitpath                00000001800989e0 f   libucrtd:splitpath.obj
 0001:00097a20       _wsplitpath_s              0000000180098a20 f   libucrtd:splitpath.obj
 0001:00097ac0       _set_abort_behavior        0000000180098ac0 f   libucrtd:abort.obj
 0001:00097b00       abort                      0000000180098b00 f   libucrtd:abort.obj
 0001:00097b90       strcmp                     0000000180098b90 f   libucrtd:strcmp.obj
 0001:00097c10       strlen                     0000000180098c10 f   libucrtd:strlen.obj
 0001:00097cc0       ??$is_overflow_condition@K@__crt_strtox@@YA_NIK@Z 0000000180098cc0 f i libucrtd:atox.obj
 0001:00097d30       ??$is_overflow_condition@_K@__crt_strtox@@YA_NI_K@Z 0000000180098d30 f i libucrtd:atox.obj
 0001:00097da0       ??$make_c_string_character_source@D$$T@__crt_strtox@@YA?AV?$c_string_character_source@D@0@QEBD$$T@Z 0000000180098da0 f i libucrtd:atox.obj
 0001:00097de0       ??$make_c_string_character_source@_W$$T@__crt_strtox@@YA?AV?$c_string_character_source@_W@0@QEB_W$$T@Z 0000000180098de0 f i libucrtd:atox.obj
 0001:00097e20       ??$parse_integer@KV?$c_string_character_source@D@__crt_strtox@@@__crt_strtox@@YAKQEAU__crt_locale_pointers@@V?$c_string_character_source@D@0@H_N@Z 0000000180098e20 f i libucrtd:atox.obj
 0001:000982b0       ??$parse_integer@KV?$c_string_character_source@_W@__crt_strtox@@@__crt_strtox@@YAKQEAU__crt_locale_pointers@@V?$c_string_character_source@_W@0@H_N@Z 00000001800992b0 f i libucrtd:atox.obj
 0001:00098760       ??$parse_integer@_KV?$c_string_character_source@D@__crt_strtox@@@__crt_strtox@@YA_KQEAU__crt_locale_pointers@@V?$c_string_character_source@D@0@H_N@Z 0000000180099760 f i libucrtd:atox.obj
 0001:00098c80       ??$parse_integer@_KV?$c_string_character_source@_W@__crt_strtox@@@__crt_strtox@@YA_KQEAU__crt_locale_pointers@@V?$c_string_character_source@_W@0@H_N@Z 0000000180099c80 f i libucrtd:atox.obj
 0001:000991a0       ??$parse_integer_from_string@JD$$T@__crt_strtox@@YAJQEBD$$THQEAU__crt_locale_pointers@@@Z 000000018009a1a0 f i libucrtd:atox.obj
 0001:000991f0       ??$parse_integer_from_string@J_W$$T@__crt_strtox@@YAJQEB_W$$THQEAU__crt_locale_pointers@@@Z 000000018009a1f0 f i libucrtd:atox.obj
 0001:00099240       ??$parse_integer_from_string@_JD$$T@__crt_strtox@@YA_JQEBD$$THQEAU__crt_locale_pointers@@@Z 000000018009a240 f i libucrtd:atox.obj
 0001:00099290       ??$parse_integer_from_string@_J_W$$T@__crt_strtox@@YA_JQEB_W$$THQEAU__crt_locale_pointers@@@Z 000000018009a290 f i libucrtd:atox.obj
 0001:000992e0       ??0?$c_string_character_source@D@__crt_strtox@@QEAA@QEBDQEAPEBD@Z 000000018009a2e0 f i libucrtd:atox.obj
 0001:00099330       ??0?$c_string_character_source@_W@__crt_strtox@@QEAA@QEB_WQEAPEB_W@Z 000000018009a330 f i libucrtd:atox.obj
 0001:00099380       ??1?$c_string_character_source@D@__crt_strtox@@QEAA@XZ 000000018009a380 f i libucrtd:atox.obj
 0001:000993b0       ??1?$c_string_character_source@_W@__crt_strtox@@QEAA@XZ 000000018009a3b0 f i libucrtd:atox.obj
 0001:000993e0       ?get@?$c_string_character_source@D@__crt_strtox@@QEAADXZ 000000018009a3e0 f i libucrtd:atox.obj
 0001:00099420       ?get@?$c_string_character_source@_W@__crt_strtox@@QEAA_WXZ 000000018009a420 f i libucrtd:atox.obj
 0001:00099460       ?is_space@__crt_strtox@@YA_NDQEAU__crt_locale_pointers@@@Z 000000018009a460 f i libucrtd:atox.obj
 0001:000994b0       ?is_space@__crt_strtox@@YA_N_WPEAU__crt_locale_pointers@@@Z 000000018009a4b0 f i libucrtd:atox.obj
 0001:000994f0       ?maximum_signed_value@__crt_strtox@@YAJK@Z 000000018009a4f0 f i libucrtd:atox.obj
 0001:00099500       ?maximum_signed_value@__crt_strtox@@YA_J_K@Z 000000018009a500 f i libucrtd:atox.obj
 0001:00099510       ?minimum_signed_value@__crt_strtox@@YAJK@Z 000000018009a510 f i libucrtd:atox.obj
 0001:00099520       ?minimum_signed_value@__crt_strtox@@YA_J_K@Z 000000018009a520 f i libucrtd:atox.obj
 0001:00099530       ?parse_digit@__crt_strtox@@YAID@Z 000000018009a530 f i libucrtd:atox.obj
 0001:000995a0       ?parse_digit@__crt_strtox@@YAI_W@Z 000000018009a5a0 f i libucrtd:atox.obj
 0001:000995f0       ?restore_state@?$c_string_character_source@D@__crt_strtox@@QEAA_NQEBD@Z 000000018009a5f0 f i libucrtd:atox.obj
 0001:00099610       ?restore_state@?$c_string_character_source@_W@__crt_strtox@@QEAA_NQEB_W@Z 000000018009a610 f i libucrtd:atox.obj
 0001:00099630       ?save_state@?$c_string_character_source@D@__crt_strtox@@QEBAPEBDXZ 000000018009a630 f i libucrtd:atox.obj
 0001:00099640       ?save_state@?$c_string_character_source@_W@__crt_strtox@@QEBAPEB_WXZ 000000018009a640 f i libucrtd:atox.obj
 0001:00099650       ?unget@?$c_string_character_source@D@__crt_strtox@@QEAAXD@Z 000000018009a650 f i libucrtd:atox.obj
 0001:00099730       ?unget@?$c_string_character_source@_W@__crt_strtox@@QEAAX_W@Z 000000018009a730 f i libucrtd:atox.obj
 0001:00099810       ?validate@?$c_string_character_source@D@__crt_strtox@@QEBA_NXZ 000000018009a810 f i libucrtd:atox.obj
 0001:000998d0       ?validate@?$c_string_character_source@_W@__crt_strtox@@QEBA_NXZ 000000018009a8d0 f i libucrtd:atox.obj
 0001:00099990       ?wide_character_to_digit@__crt_strtox@@YAH_W@Z 000000018009a990 f i libucrtd:atox.obj
 0001:00099d00       __ascii_iswalpha           000000018009ad00 f i libucrtd:atox.obj
 0001:00099d40       __ascii_toupper            000000018009ad40 f i libucrtd:atox.obj
 0001:00099d60       __ascii_towupper           000000018009ad60 f i libucrtd:atox.obj
 0001:00099d80       _atoi64                    000000018009ad80 f   libucrtd:atox.obj
 0001:00099db0       _atoi64_l                  000000018009adb0 f   libucrtd:atox.obj
 0001:00099de0       _atoi_l                    000000018009ade0 f   libucrtd:atox.obj
 0001:00099e10       _atol_l                    000000018009ae10 f   libucrtd:atox.obj
 0001:00099e40       _atoll_l                   000000018009ae40 f   libucrtd:atox.obj
 0001:00099e70       _wtoi                      000000018009ae70 f   libucrtd:atox.obj
 0001:00099ea0       _wtoi64                    000000018009aea0 f   libucrtd:atox.obj
 0001:00099ed0       _wtoi64_l                  000000018009aed0 f   libucrtd:atox.obj
 0001:00099f00       _wtoi_l                    000000018009af00 f   libucrtd:atox.obj
 0001:00099f30       _wtol                      000000018009af30 f   libucrtd:atox.obj
 0001:00099f60       _wtol_l                    000000018009af60 f   libucrtd:atox.obj
 0001:00099f90       _wtoll                     000000018009af90 f   libucrtd:atox.obj
 0001:00099fc0       _wtoll_l                   000000018009afc0 f   libucrtd:atox.obj
 0001:00099ff0       atoi                       000000018009aff0 f   libucrtd:atox.obj
 0001:0009a020       atol                       000000018009b020 f   libucrtd:atox.obj
 0001:0009a050       atoll                      000000018009b050 f   libucrtd:atox.obj
 0001:0009a090       strncmp                    000000018009b090 f   libucrtd:strncmp.obj
 0001:0009a110       wcsncmp                    000000018009b110 f   libucrtd:wcsncmp.obj
 0001:0009a1a0       _CrtGetDebugFillThreshold  000000018009b1a0 f   libucrtd:debug_fill_threshold.obj
 0001:0009a1b0       _CrtSetDebugFillThreshold  000000018009b1b0 f   libucrtd:debug_fill_threshold.obj
 0001:0009a1e0       ??$make_c_string_character_source@DPEAPEAD@__crt_strtox@@YA?AV?$c_string_character_source@D@0@QEBDQEAPEAD@Z 000000018009b1e0 f i libucrtd:strtox.obj
 0001:0009a220       ??$make_c_string_character_source@_WPEAPEA_W@__crt_strtox@@YA?AV?$c_string_character_source@_W@0@QEB_WQEAPEA_W@Z 000000018009b220 f i libucrtd:strtox.obj
 0001:0009a260       ??$parse_integer_from_string@JDPEAPEAD@__crt_strtox@@YAJQEBDQEAPEADHQEAU__crt_locale_pointers@@@Z 000000018009b260 f i libucrtd:strtox.obj
 0001:0009a2b0       ??$parse_integer_from_string@J_WPEAPEA_W@__crt_strtox@@YAJQEB_WQEAPEA_WHQEAU__crt_locale_pointers@@@Z 000000018009b2b0 f i libucrtd:strtox.obj
 0001:0009a300       ??$parse_integer_from_string@KDPEAPEAD@__crt_strtox@@YAKQEBDQEAPEADHQEAU__crt_locale_pointers@@@Z 000000018009b300 f i libucrtd:strtox.obj
 0001:0009a350       ??$parse_integer_from_string@K_WPEAPEA_W@__crt_strtox@@YAKQEB_WQEAPEA_WHQEAU__crt_locale_pointers@@@Z 000000018009b350 f i libucrtd:strtox.obj
 0001:0009a3a0       ??$parse_integer_from_string@_JDPEAPEAD@__crt_strtox@@YA_JQEBDQEAPEADHQEAU__crt_locale_pointers@@@Z 000000018009b3a0 f i libucrtd:strtox.obj
 0001:0009a3f0       ??$parse_integer_from_string@_J_WPEAPEA_W@__crt_strtox@@YA_JQEB_WQEAPEA_WHQEAU__crt_locale_pointers@@@Z 000000018009b3f0 f i libucrtd:strtox.obj
 0001:0009a440       ??$parse_integer_from_string@_KDPEAPEAD@__crt_strtox@@YA_KQEBDQEAPEADHQEAU__crt_locale_pointers@@@Z 000000018009b440 f i libucrtd:strtox.obj
 0001:0009a490       ??$parse_integer_from_string@_K_WPEAPEA_W@__crt_strtox@@YA_KQEB_WQEAPEA_WHQEAU__crt_locale_pointers@@@Z 000000018009b490 f i libucrtd:strtox.obj
 0001:0009a4e0       _strtoi64                  000000018009b4e0 f   libucrtd:strtox.obj
 0001:0009a510       _strtoi64_l                000000018009b510 f   libucrtd:strtox.obj
 0001:0009a550       _strtoimax_l               000000018009b550 f   libucrtd:strtox.obj
 0001:0009a590       _strtol_l                  000000018009b590 f   libucrtd:strtox.obj
 0001:0009a5d0       _strtoll_l                 000000018009b5d0 f   libucrtd:strtox.obj
 0001:0009a610       _strtoui64                 000000018009b610 f   libucrtd:strtox.obj
 0001:0009a640       _strtoui64_l               000000018009b640 f   libucrtd:strtox.obj
 0001:0009a680       _strtoul_l                 000000018009b680 f   libucrtd:strtox.obj
 0001:0009a6c0       _strtoull_l                000000018009b6c0 f   libucrtd:strtox.obj
 0001:0009a700       _strtoumax_l               000000018009b700 f   libucrtd:strtox.obj
 0001:0009a740       _wcstoi64                  000000018009b740 f   libucrtd:strtox.obj
 0001:0009a770       _wcstoi64_l                000000018009b770 f   libucrtd:strtox.obj
 0001:0009a7b0       _wcstoimax_l               000000018009b7b0 f   libucrtd:strtox.obj
 0001:0009a7f0       _wcstol_l                  000000018009b7f0 f   libucrtd:strtox.obj
 0001:0009a830       _wcstoll_l                 000000018009b830 f   libucrtd:strtox.obj
 0001:0009a870       _wcstoui64                 000000018009b870 f   libucrtd:strtox.obj
 0001:0009a8a0       _wcstoui64_l               000000018009b8a0 f   libucrtd:strtox.obj
 0001:0009a8e0       _wcstoul_l                 000000018009b8e0 f   libucrtd:strtox.obj
 0001:0009a920       _wcstoull_l                000000018009b920 f   libucrtd:strtox.obj
 0001:0009a960       _wcstoumax_l               000000018009b960 f   libucrtd:strtox.obj
 0001:0009a9a0       strtoimax                  000000018009b9a0 f   libucrtd:strtox.obj
 0001:0009a9d0       strtol                     000000018009b9d0 f   libucrtd:strtox.obj
 0001:0009aa00       strtoll                    000000018009ba00 f   libucrtd:strtox.obj
 0001:0009aa30       strtoul                    000000018009ba30 f   libucrtd:strtox.obj
 0001:0009aa60       strtoull                   000000018009ba60 f   libucrtd:strtox.obj
 0001:0009aa90       strtoumax                  000000018009ba90 f   libucrtd:strtox.obj
 0001:0009aac0       wcstoimax                  000000018009bac0 f   libucrtd:strtox.obj
 0001:0009aaf0       wcstol                     000000018009baf0 f   libucrtd:strtox.obj
 0001:0009ab20       wcstoll                    000000018009bb20 f   libucrtd:strtox.obj
 0001:0009ab50       wcstoul                    000000018009bb50 f   libucrtd:strtox.obj
 0001:0009ab80       wcstoull                   000000018009bb80 f   libucrtd:strtox.obj
 0001:0009abb0       wcstoumax                  000000018009bbb0 f   libucrtd:strtox.obj
 0001:0009abe0       _mbtowc_l                  000000018009bbe0 f   libucrtd:mbtowc.obj
 0001:0009b040       mbtowc                     000000018009c040 f   libucrtd:mbtowc.obj
 0001:0009b070       _wctomb_l                  000000018009c070 f   libucrtd:wctomb.obj
 0001:0009b130       _wctomb_s_l                000000018009c130 f   libucrtd:wctomb.obj
 0001:0009b6b0       wctomb                     000000018009c6b0 f   libucrtd:wctomb.obj
 0001:0009b710       wctomb_s                   000000018009c710 f   libucrtd:wctomb.obj
 0001:0009b760       ??$?RU__acrt_ptd@@@__crt_internal_free_policy@@QEBAXQEBU__acrt_ptd@@@Z 000000018009c760 f i libucrtd:per_thread_data.obj
 0001:0009bb60       ??0?$__crt_unique_heap_ptr@U__acrt_ptd@@U__crt_internal_free_policy@@@@QEAA@QEAU__acrt_ptd@@@Z 000000018009cb60 f i libucrtd:per_thread_data.obj
 0001:0009bb80       ??0__crt_scoped_get_last_error_reset@@QEAA@XZ 000000018009cb80 f i libucrtd:per_thread_data.obj
 0001:0009bba0       ??1?$__crt_unique_heap_ptr@U__acrt_ptd@@U__crt_internal_free_policy@@@@QEAA@XZ 000000018009cba0 f i libucrtd:per_thread_data.obj
 0001:0009bbc0       ??1__crt_scoped_get_last_error_reset@@QEAA@XZ 000000018009cbc0 f i libucrtd:per_thread_data.obj
 0001:0009bbe0       ??B?$__crt_unique_heap_ptr@U__acrt_ptd@@U__crt_internal_free_policy@@@@QEBA_NXZ 000000018009cbe0 f i libucrtd:per_thread_data.obj
 0001:0009bf30       ?dangerous_get_state_array@?$dual_state_global@PEAU__crt_locale_data@@@__crt_state_management@@QEAAPEAPEAU__crt_locale_data@@XZ 000000018009cf30 f i libucrtd:per_thread_data.obj
 0001:0009c0f0       ?detach@?$__crt_unique_heap_ptr@U__acrt_ptd@@U__crt_internal_free_policy@@@@QEAAPEAU__acrt_ptd@@XZ 000000018009d0f0 f i libucrtd:per_thread_data.obj
 0001:0009c120       ?get@?$__crt_unique_heap_ptr@U__acrt_ptd@@U__crt_internal_free_policy@@@@QEBAPEAU__acrt_ptd@@XZ 000000018009d120 f i libucrtd:per_thread_data.obj
 0001:0009c130       ?get_current_state_index@__crt_state_management@@YA_KAEBV__crt_scoped_get_last_error_reset@@@Z 000000018009d130 f i libucrtd:per_thread_data.obj
 0001:0009c2e0       ?is_valid@?$__crt_unique_heap_ptr@U__acrt_ptd@@U__crt_internal_free_policy@@@@QEBA_NXZ 000000018009d2e0 f i libucrtd:per_thread_data.obj
 0001:0009c310       ?release@?$__crt_unique_heap_ptr@U__acrt_ptd@@U__crt_internal_free_policy@@@@QEAAXXZ 000000018009d310 f i libucrtd:per_thread_data.obj
 0001:0009c440       ?value@?$dual_state_global@PEAU__crt_locale_data@@@__crt_state_management@@QEAAAEAPEAU__crt_locale_data@@XZ 000000018009d440 f i libucrtd:per_thread_data.obj
 0001:0009c460       __acrt_freeptd             000000018009d460 f   libucrtd:per_thread_data.obj
 0001:0009c4a0       __acrt_getptd              000000018009d4a0 f   libucrtd:per_thread_data.obj
 0001:0009c4d0       __acrt_getptd_head         000000018009d4d0 f   libucrtd:per_thread_data.obj
 0001:0009c500       __acrt_getptd_noexit       000000018009d500 f   libucrtd:per_thread_data.obj
 0001:0009c510       __acrt_initialize_ptd      000000018009d510 f   libucrtd:per_thread_data.obj
 0001:0009c550       __acrt_uninitialize_ptd    000000018009d550 f   libucrtd:per_thread_data.obj
 0001:0009c580       __threadhandle             000000018009d580 f   libucrtd:per_thread_data.obj
 0001:0009c590       __threadid                 000000018009d590 f   libucrtd:per_thread_data.obj
 0001:0009c5a0       ?value@?$dual_state_global@PEAU__crt_multibyte_data@@@__crt_state_management@@QEAAAEAPEAU__crt_multibyte_data@@XZ 000000018009d5a0 f i libucrtd:locale_update.obj
 0001:0009c5c0       __acrt_update_locale_info  000000018009d5c0 f   libucrtd:locale_update.obj
 0001:0009c610       __acrt_update_multibyte_info 000000018009d610 f   libucrtd:locale_update.obj
 0001:0009c660       ?__acrt_fp_classify@@YA?AW4__acrt_fp_class@@AEBN@Z 000000018009d660 f i libucrtd:cvt.obj
 0001:0009c760       ?__acrt_fp_is_negative@@YA_NAEBN@Z 000000018009d760 f i libucrtd:cvt.obj
 0001:0009de10       ?strrchr@@YAPEADQEADH@Z    000000018009ee10 f i libucrtd:cvt.obj
 0001:0009de30       __acrt_fp_format           000000018009ee30 f   libucrtd:cvt.obj
 0001:0009e4a0       _fputwc_nolock             000000018009f4a0 f   libucrtd:fputwc.obj
 0001:0009e710       _fputwchar                 000000018009f710 f   libucrtd:fputwc.obj
 0001:0009e740       _putwc_nolock              000000018009f740 f   libucrtd:fputwc.obj
 0001:0009e770       fputwc                     000000018009f770 f   libucrtd:fputwc.obj
 0001:0009e860       putwc                      000000018009f860 f   libucrtd:fputwc.obj
 0001:0009e890       putwchar                   000000018009f890 f   libucrtd:fputwc.obj
 0001:0009e8b0       ?lowio_handle@__crt_stdio_stream@@QEBAHXZ 000000018009f8b0 f i libucrtd:fileno.obj
 0001:0009e8e0       _fileno                    000000018009f8e0 f   libucrtd:fileno.obj
 0001:0009e9c0       ??$?RPEAU__crt_stdio_stream_data@@@__crt_internal_free_policy@@QEBAXQEBQEAU__crt_stdio_stream_data@@@Z 000000018009f9c0 f i libucrtd:_file.obj
 0001:0009e9f0       ??0?$__crt_unique_heap_ptr@PEAU__crt_stdio_stream_data@@U__crt_internal_free_policy@@@@QEAA@QEAPEAU__crt_stdio_stream_data@@@Z 000000018009f9f0 f i libucrtd:_file.obj
 0001:0009ea10       ??1?$__crt_unique_heap_ptr@PEAU__crt_stdio_stream_data@@U__crt_internal_free_policy@@@@QEAA@XZ 000000018009fa10 f i libucrtd:_file.obj
 0001:0009ea30       ?detach@?$__crt_unique_heap_ptr@PEAU__crt_stdio_stream_data@@U__crt_internal_free_policy@@@@QEAAPEAPEAU__crt_stdio_stream_data@@XZ 000000018009fa30 f i libucrtd:_file.obj
 0001:0009ea60       ?release@?$__crt_unique_heap_ptr@PEAU__crt_stdio_stream_data@@U__crt_internal_free_policy@@@@QEAAXXZ 000000018009fa60 f i libucrtd:_file.obj
 0001:0009ea90       __acrt_initialize_stdio    000000018009fa90 f   libucrtd:_file.obj
 0001:0009ec80       __acrt_iob_func            000000018009fc80 f   libucrtd:_file.obj
 0001:0009eca0       __acrt_uninitialize_stdio  000000018009fca0 f   libucrtd:_file.obj
 0001:0009ed30       _get_stream_buffer_pointers 000000018009fd30 f   libucrtd:_file.obj
 0001:0009ee60       _lock_file                 000000018009fe60 f   libucrtd:_file.obj
 0001:0009eea0       _unlock_file               000000018009fea0 f   libucrtd:_file.obj
 0001:0009eee0       _get_printf_count_output   000000018009fee0 f   libucrtd:printf_count_output.obj
 0001:0009ef10       _set_printf_count_output   000000018009ff10 f   libucrtd:printf_count_output.obj
 0001:0009ef80       ?has_any_buffer@__crt_stdio_stream@@QEBA_NXZ 000000018009ff80 f i libucrtd:_sftbuf.obj
 0001:0009efa0       ?has_any_of@__crt_stdio_stream@@QEBA_NJ@Z 000000018009ffa0 f i libucrtd:_sftbuf.obj
 0001:0009efe0       ?has_temporary_buffer@__crt_stdio_stream@@QEBA_NXZ 000000018009ffe0 f i libucrtd:_sftbuf.obj
 0001:0009f000       ?set_flags@__crt_stdio_stream@@QEBA_NJ@Z 00000001800a0000 f i libucrtd:_sftbuf.obj
 0001:0009f070       ?unset_flags@__crt_stdio_stream@@QEBA_NJ@Z 00000001800a0070 f i libucrtd:_sftbuf.obj
 0001:0009f0d0       __acrt_stdio_begin_temporary_buffering_nolock 00000001800a00d0 f   libucrtd:_sftbuf.obj
 0001:0009f310       __acrt_stdio_end_temporary_buffering_nolock 00000001800a0310 f   libucrtd:_sftbuf.obj
 0001:0009f3c0       ??$?RU__crt_locale_data@@@__crt_internal_free_policy@@QEBAXQEBU__crt_locale_data@@@Z 00000001800a03c0 f i libucrtd:wsetlocale.obj
 0001:0009f3f0       ??$?RU__crt_locale_pointers@@@__crt_internal_free_policy@@QEBAXQEBU__crt_locale_pointers@@@Z 00000001800a03f0 f i libucrtd:wsetlocale.obj
 0001:0009f420       ??$?RU__crt_multibyte_data@@@__crt_internal_free_policy@@QEBAXQEBU__crt_multibyte_data@@@Z 00000001800a0420 f i libucrtd:wsetlocale.obj
 0001:0009f980       ??0?$__crt_unique_heap_ptr@U__crt_locale_data@@U__crt_internal_free_policy@@@@QEAA@QEAU__crt_locale_data@@@Z 00000001800a0980 f i libucrtd:wsetlocale.obj
 0001:0009f9a0       ??0?$__crt_unique_heap_ptr@U__crt_locale_pointers@@U__crt_internal_free_policy@@@@QEAA@QEAU__crt_locale_pointers@@@Z 00000001800a09a0 f i libucrtd:wsetlocale.obj
 0001:0009f9c0       ??0?$__crt_unique_heap_ptr@U__crt_multibyte_data@@U__crt_internal_free_policy@@@@QEAA@QEAU__crt_multibyte_data@@@Z 00000001800a09c0 f i libucrtd:wsetlocale.obj
 0001:0009f9e0       ??0_expandlocale_locale_name_cache@@QEAA@QEA_W_KQEAU__crt_qualified_locale_data@@@Z 00000001800a09e0 f i libucrtd:wsetlocale.obj
 0001:0009fa90       ??1?$__crt_unique_heap_ptr@U__crt_locale_data@@U__crt_internal_free_policy@@@@QEAA@XZ 00000001800a0a90 f i libucrtd:wsetlocale.obj
 0001:0009fab0       ??1?$__crt_unique_heap_ptr@U__crt_locale_pointers@@U__crt_internal_free_policy@@@@QEAA@XZ 00000001800a0ab0 f i libucrtd:wsetlocale.obj
 0001:0009fad0       ??1?$__crt_unique_heap_ptr@U__crt_multibyte_data@@U__crt_internal_free_policy@@@@QEAA@XZ 00000001800a0ad0 f i libucrtd:wsetlocale.obj
 0001:0009faf0       ??1_expandlocale_locale_name_cache@@QEAA@XZ 00000001800a0af0 f i libucrtd:wsetlocale.obj
 0001:0009fb70       ??B?$__crt_unique_heap_ptr@U__crt_locale_data@@U__crt_internal_free_policy@@@@QEBA_NXZ 00000001800a0b70 f i libucrtd:wsetlocale.obj
 0001:0009fb90       ??B?$__crt_unique_heap_ptr@U__crt_locale_pointers@@U__crt_internal_free_policy@@@@QEBA_NXZ 00000001800a0b90 f i libucrtd:wsetlocale.obj
 0001:0009fbb0       ??B?$__crt_unique_heap_ptr@U__crt_multibyte_data@@U__crt_internal_free_policy@@@@QEBA_NXZ 00000001800a0bb0 f i libucrtd:wsetlocale.obj
 0001:000a0060       ?commit_locale_name@_expandlocale_locale_name_cache@@QEAAXQEB_W_K@Z 00000001800a1060 f i libucrtd:wsetlocale.obj
 0001:000a00e0       ?commit_locale_name_cache_already_updated@_expandlocale_locale_name_cache@@QEAAXQEB_W_K@Z 00000001800a10e0 f i libucrtd:wsetlocale.obj
 0001:000a0150       ?detach@?$__crt_unique_heap_ptr@U__crt_locale_data@@U__crt_internal_free_policy@@@@QEAAPEAU__crt_locale_data@@XZ 00000001800a1150 f i libucrtd:wsetlocale.obj
 0001:000a0180       ?detach@?$__crt_unique_heap_ptr@U__crt_locale_pointers@@U__crt_internal_free_policy@@@@QEAAPEAU__crt_locale_pointers@@XZ 00000001800a1180 f i libucrtd:wsetlocale.obj
 0001:000a01b0       ?detach@?$__crt_unique_heap_ptr@U__crt_multibyte_data@@U__crt_internal_free_policy@@@@QEAAPEAU__crt_multibyte_data@@XZ 00000001800a11b0 f i libucrtd:wsetlocale.obj
 0001:000a01e0       ?get@?$__crt_unique_heap_ptr@U__crt_locale_data@@U__crt_internal_free_policy@@@@QEBAPEAU__crt_locale_data@@XZ 00000001800a11e0 f i libucrtd:wsetlocale.obj
 0001:000a01f0       ?get@?$__crt_unique_heap_ptr@U__crt_locale_pointers@@U__crt_internal_free_policy@@@@QEBAPEAU__crt_locale_pointers@@XZ 00000001800a11f0 f i libucrtd:wsetlocale.obj
 0001:000a0200       ?get@?$__crt_unique_heap_ptr@U__crt_multibyte_data@@U__crt_internal_free_policy@@@@QEBAPEAU__crt_multibyte_data@@XZ 00000001800a1200 f i libucrtd:wsetlocale.obj
 0001:000a0210       ?is_valid@?$__crt_unique_heap_ptr@U__crt_locale_data@@U__crt_internal_free_policy@@@@QEBA_NXZ 00000001800a1210 f i libucrtd:wsetlocale.obj
 0001:000a0240       ?is_valid@?$__crt_unique_heap_ptr@U__crt_locale_pointers@@U__crt_internal_free_policy@@@@QEBA_NXZ 00000001800a1240 f i libucrtd:wsetlocale.obj
 0001:000a0270       ?is_valid@?$__crt_unique_heap_ptr@U__crt_multibyte_data@@U__crt_internal_free_policy@@@@QEBA_NXZ 00000001800a1270 f i libucrtd:wsetlocale.obj
 0001:000a02a0       ?release@?$__crt_unique_heap_ptr@U__crt_locale_data@@U__crt_internal_free_policy@@@@QEAAXXZ 00000001800a12a0 f i libucrtd:wsetlocale.obj
 0001:000a02d0       ?release@?$__crt_unique_heap_ptr@U__crt_locale_pointers@@U__crt_internal_free_policy@@@@QEAAXXZ 00000001800a12d0 f i libucrtd:wsetlocale.obj
 0001:000a0300       ?release@?$__crt_unique_heap_ptr@U__crt_multibyte_data@@U__crt_internal_free_policy@@@@QEAAXXZ 00000001800a1300 f i libucrtd:wsetlocale.obj
 0001:000a0330       __acrt_copy_locale_name    00000001800a1330 f   libucrtd:wsetlocale.obj
 0001:000a0400       __acrt_set_locale_changed  00000001800a1400 f   libucrtd:wsetlocale.obj
 0001:000a0410       __acrt_uninitialize_locale 00000001800a1410 f   libucrtd:wsetlocale.obj
 0001:000a0440       __ascii_tolower            00000001800a1440 f i libucrtd:wsetlocale.obj
 0001:000a0460       __ascii_towlower           00000001800a1460 f i libucrtd:wsetlocale.obj
 0001:000a0480       __lc_lctowcs               00000001800a1480 f   libucrtd:wsetlocale.obj
 0001:000a0570       __lc_wcstolc               00000001800a1570 f   libucrtd:wsetlocale.obj
 0001:000a0830       _configthreadlocale        00000001800a1830 f   libucrtd:wsetlocale.obj
 0001:000a09f0       _create_locale             00000001800a19f0 f   libucrtd:wsetlocale.obj
 0001:000a10f0       _free_locale               00000001800a20f0 f   libucrtd:wsetlocale.obj
 0001:000a11e0       _get_current_locale        00000001800a21e0 f   libucrtd:wsetlocale.obj
 0001:000a12f0       _wcreate_locale            00000001800a22f0 f   libucrtd:wsetlocale.obj
 0001:000a15e0       _wcscats                   00000001800a25e0 f   libucrtd:wsetlocale.obj
 0001:000a16c0       _wsetlocale                00000001800a26c0 f   libucrtd:wsetlocale.obj
 0001:000a32e0       __p___mb_cur_max           00000001800a42e0 f   libucrtd:nlsdata.obj
 0001:000a36c0       __acrt_initialize_lowio    00000001800a46c0 f   libucrtd:ioinit.obj
 0001:000a3710       __acrt_uninitialize_lowio  00000001800a4710 f   libucrtd:ioinit.obj
 0001:000a3790       _CrtGetReportHook          00000001800a4790 f   libucrtd:dbgrptt.obj
 0001:000a37a0       _CrtSetReportFile          00000001800a47a0 f   libucrtd:dbgrptt.obj
 0001:000a3900       _CrtSetReportHook          00000001800a4900 f   libucrtd:dbgrptt.obj
 0001:000a3930       _CrtSetReportMode          00000001800a4930 f   libucrtd:dbgrptt.obj
 0001:000a3ae0       _VCrtDbgReportA            00000001800a4ae0 f   libucrtd:dbgrptt.obj
 0001:000a44c0       _VCrtDbgReportW            00000001800a54c0 f   libucrtd:dbgrptt.obj
 0001:000a5040       _snprintf_s                00000001800a6040 f i libucrtd:dbgrptt.obj
 0001:000a50b0       _vsnprintf_s               00000001800a60b0 f i libucrtd:dbgrptt.obj
 0001:000a5100       _vsnprintf_s_l             00000001800a6100 f i libucrtd:dbgrptt.obj
 0001:000a5320       ??$__acrt_wcs_to_mbs_cp@U__crt_win32_buffer_no_resizing@@@@YAHQEB_WAEAV?$__crt_win32_buffer@DU__crt_win32_buffer_no_resizing@@@@I@Z 00000001800a6320 f i libucrtd:getmodulefilenamea.obj
 0001:000a5370       ??0?$__crt_win32_buffer@DU__crt_win32_buffer_no_resizing@@@@QEAA@QEAD_K@Z 00000001800a6370 f i libucrtd:getmodulefilenamea.obj
 0001:000a53e0       ??1?$__crt_win32_buffer@DU__crt_win32_buffer_no_resizing@@@@QEAA@XZ 00000001800a63e0 f i libucrtd:getmodulefilenamea.obj
 0001:000a5470       ?__acrt_get_utf8_acp_compatibility_codepage@@YAIXZ 00000001800a6470 f i libucrtd:getmodulefilenamea.obj
 0001:000a5510       ?_deallocate@?$__crt_win32_buffer@DU__crt_win32_buffer_no_resizing@@@@AEAAXXZ 00000001800a6510 f i libucrtd:getmodulefilenamea.obj
 0001:000a5550       ?allocate@?$__crt_win32_buffer@DU__crt_win32_buffer_no_resizing@@@@QEAAH_K@Z 00000001800a6550 f i libucrtd:getmodulefilenamea.obj
 0001:000a55d0       ?allocate@__crt_win32_buffer_no_resizing@@SAHQEAPEAX_KAEBV__crt_win32_buffer_empty_debug_info@@@Z 00000001800a65d0 f i libucrtd:getmodulefilenamea.obj
 0001:000a5600       ?capacity@?$__crt_win32_buffer@DU__crt_win32_buffer_no_resizing@@@@QEBA_KXZ 00000001800a6600 f i libucrtd:getmodulefilenamea.obj
 0001:000a5610       ?data@?$__crt_win32_buffer@DU__crt_win32_buffer_no_resizing@@@@QEAAPEADXZ 00000001800a6610 f i libucrtd:getmodulefilenamea.obj
 0001:000a5620       ?deallocate@__crt_win32_buffer_no_resizing@@SAXQEAXAEBV__crt_win32_buffer_empty_debug_info@@@Z 00000001800a6620 f i libucrtd:getmodulefilenamea.obj
 0001:000a5630       ?debug_info@?$__crt_win32_buffer@DU__crt_win32_buffer_no_resizing@@@@QEBAAEBV__crt_win32_buffer_empty_debug_info@@XZ 00000001800a6630 f i libucrtd:getmodulefilenamea.obj
 0001:000a5640       ?set_to_nullptr@?$__crt_win32_buffer@DU__crt_win32_buffer_no_resizing@@@@QEAAXXZ 00000001800a6640 f i libucrtd:getmodulefilenamea.obj
 0001:000a5680       ?size@?$__crt_win32_buffer@DU__crt_win32_buffer_no_resizing@@@@QEAAX_K@Z 00000001800a6680 f i libucrtd:getmodulefilenamea.obj
 0001:000a56a0       ?size@?$__crt_win32_buffer@DU__crt_win32_buffer_no_resizing@@@@QEBA_KXZ 00000001800a66a0 f i libucrtd:getmodulefilenamea.obj
 0001:000a56b0       __acrt_GetModuleFileNameA  00000001800a66b0 f   libucrtd:getmodulefilenamea.obj
 0001:000a5a10       ??$message_box@$$TAEBQEBDAEBQEBDK@?$__crt_char_traits@D@@SAH$$QEA$$TAEBQEBD1$$QEAK@Z 00000001800a6a10 f i libucrtd:crtmbox.obj
 0001:000a5a60       ??$message_box@$$TAEBQEB_WAEBQEB_WK@?$__crt_char_traits@_W@@SAH$$QEA$$TAEBQEB_W1$$QEAK@Z 00000001800a6a60 f i libucrtd:crtmbox.obj
 0001:000a5ab0       ??$message_box@PEAUHWND__@@AEBQEBDAEBQEBDAEBI@?$__crt_char_traits@D@@SAH$$QEAPEAUHWND__@@AEBQEBD1AEBI@Z 00000001800a6ab0 f i libucrtd:crtmbox.obj
 0001:000a5b00       ??$message_box@PEAUHWND__@@AEBQEB_WAEBQEB_WAEBI@?$__crt_char_traits@_W@@SAH$$QEAPEAUHWND__@@AEBQEB_W1AEBI@Z 00000001800a6b00 f i libucrtd:crtmbox.obj
 0001:000a5b50       ??$output_debug_string@AEBQEBD@?$__crt_char_traits@D@@SAXAEBQEBD@Z 00000001800a6b50 f i libucrtd:crtmbox.obj
 0001:000a5b70       ??$output_debug_string@AEBQEB_W@?$__crt_char_traits@_W@@SAXAEBQEB_W@Z 00000001800a6b70 f i libucrtd:crtmbox.obj
 0001:000a5b90       __acrt_show_narrow_message_box 00000001800a6b90 f   libucrtd:crtmbox.obj
 0001:000a5bc0       __acrt_show_wide_message_box 00000001800a6bc0 f   libucrtd:crtmbox.obj
 0001:000a5bf0       __acrt_initialize_locks    00000001800a6bf0 f   libucrtd:locks.obj
 0001:000a5c60       __acrt_lock                00000001800a6c60 f   libucrtd:locks.obj
 0001:000a5c90       __acrt_uninitialize_locks  00000001800a6c90 f   libucrtd:locks.obj
 0001:000a5cf0       __acrt_unlock              00000001800a6cf0 f   libucrtd:locks.obj
 0001:000a5d20       _lock_locales              00000001800a6d20 f   libucrtd:locks.obj
 0001:000a5d40       _unlock_locales            00000001800a6d40 f   libucrtd:locks.obj
 0001:000a5d60       ??$?B$$A6AXH@Z@__crt_fast_encoded_nullptr_t@@QEBAP6AXH@ZXZ 00000001800a6d60 f i libucrtd:signal.obj
 0001:000a5e20       ??$__crt_fast_decode_pointer@P6AXH@Z@@YAP6AXH@ZQ6AXH@Z@Z 00000001800a6e20 f i libucrtd:signal.obj
 0001:000a5e60       ??$__crt_fast_encode_pointer@P6AXH@Z@@YAP6AXH@ZQ6AXH@Z@Z 00000001800a6e60 f i libucrtd:signal.obj
 0001:000a60e0       ?initialize@?$dual_state_global@P6AXH@Z@__crt_state_management@@QEAAXQ6AXH@Z@Z 00000001800a70e0 f i libucrtd:signal.obj
 0001:000a6260       ?value@?$dual_state_global@P6AXH@Z@__crt_state_management@@QEAAAEAP6AXH@ZXZ 00000001800a7260 f i libucrtd:signal.obj
 0001:000a6280       __acrt_get_sigabrt_handler 00000001800a7280 f   libucrtd:signal.obj
 0001:000a62b0       __acrt_initialize_signal_handlers 00000001800a72b0 f   libucrtd:signal.obj
 0001:000a6310       __fpecode                  00000001800a7310 f   libucrtd:signal.obj
 0001:000a6330       __pxcptinfoptrs            00000001800a7330 f   libucrtd:signal.obj
 0001:000a6350       raise                      00000001800a7350 f   libucrtd:signal.obj
 0001:000a6810       signal                     00000001800a7810 f   libucrtd:signal.obj
 0001:000a6ae0       _msize                     00000001800a7ae0 f   libucrtd:msize.obj
 0001:000a6b00       _msize_base                00000001800a7b00 f   libucrtd:msize.obj
 0001:000a6bd0       _realloc_base              00000001800a7bd0 f   libucrtd:realloc_base.obj
 0001:000a6ca0       ??$?B$$A6AHPEA_WK_J@Z@__crt_fast_encoded_nullptr_t@@QEBAP6AHPEA_WK_J@ZXZ 00000001800a7ca0 f i libucrtd:winapi_thunks.obj
 0001:000a6d60       ??$__crt_fast_decode_pointer@P6AHPEA_WK_J@Z@@YAP6AHPEA_WK_J@ZQ6AH0K1@Z@Z 00000001800a7d60 f i libucrtd:winapi_thunks.obj
 0001:000a6da0       ??$__crt_fast_decode_pointer@PEAX@@YAPEAXQEAX@Z 00000001800a7da0 f i libucrtd:winapi_thunks.obj
 0001:000a6de0       ??$__crt_fast_encode_pointer@P6AHPEA_WK_J@Z@@YAP6AHPEA_WK_J@ZQ6AH0K1@Z@Z 00000001800a7de0 f i libucrtd:winapi_thunks.obj
 0001:000a7a50       GetCurrentThreadEffectiveToken 00000001800a8a50 f i libucrtd:winapi_thunks.obj
 0001:000a7a60       __acrt_AppPolicyGetProcessTerminationMethodInternal 00000001800a8a60 f   libucrtd:winapi_thunks.obj
 0001:000a7ab0       __acrt_AppPolicyGetShowDeveloperDiagnosticInternal 00000001800a8ab0 f   libucrtd:winapi_thunks.obj
 0001:000a7b00       __acrt_AppPolicyGetThreadInitializationTypeInternal 00000001800a8b00 f   libucrtd:winapi_thunks.obj
 0001:000a7b50       __acrt_AppPolicyGetWindowingModelInternal 00000001800a8b50 f   libucrtd:winapi_thunks.obj
 0001:000a7ba0       __acrt_AreFileApisANSI     00000001800a8ba0 f   libucrtd:winapi_thunks.obj
 0001:000a7be0       __acrt_CompareStringEx     00000001800a8be0 f   libucrtd:winapi_thunks.obj
 0001:000a7cc0       __acrt_EnumSystemLocalesEx 00000001800a8cc0 f   libucrtd:winapi_thunks.obj
 0001:000a7d40       __acrt_FlsAlloc            00000001800a8d40 f   libucrtd:winapi_thunks.obj
 0001:000a7d90       __acrt_FlsFree             00000001800a8d90 f   libucrtd:winapi_thunks.obj
 0001:000a7de0       __acrt_FlsGetValue         00000001800a8de0 f   libucrtd:winapi_thunks.obj
 0001:000a7e30       __acrt_FlsSetValue         00000001800a8e30 f   libucrtd:winapi_thunks.obj
 0001:000a7e90       __acrt_GetDateFormatEx     00000001800a8e90 f   libucrtd:winapi_thunks.obj
 0001:000a7f50       __acrt_GetEnabledXStateFeatures 00000001800a8f50 f   libucrtd:winapi_thunks.obj
 0001:000a7f90       __acrt_GetLocaleInfoEx     00000001800a8f90 f   libucrtd:winapi_thunks.obj
 0001:000a8010       __acrt_GetSystemTimePreciseAsFileTime 00000001800a9010 f   libucrtd:winapi_thunks.obj
 0001:000a8060       __acrt_GetTimeFormatEx     00000001800a9060 f   libucrtd:winapi_thunks.obj
 0001:000a8110       __acrt_GetUserDefaultLocaleName 00000001800a9110 f   libucrtd:winapi_thunks.obj
 0001:000a8170       __acrt_GetXStateFeaturesMask 00000001800a9170 f   libucrtd:winapi_thunks.obj
 0001:000a81c0       __acrt_InitializeCriticalSectionEx 00000001800a91c0 f   libucrtd:winapi_thunks.obj
 0001:000a8220       __acrt_IsValidLocaleName   00000001800a9220 f   libucrtd:winapi_thunks.obj
 0001:000a8280       __acrt_LCIDToLocaleName    00000001800a9280 f   libucrtd:winapi_thunks.obj
 0001:000a82f0       __acrt_LCMapStringEx       00000001800a92f0 f   libucrtd:winapi_thunks.obj
 0001:000a83d0       __acrt_LocaleNameToLCID    00000001800a93d0 f   libucrtd:winapi_thunks.obj
 0001:000a8420       __acrt_LocateXStateFeature 00000001800a9420 f   libucrtd:winapi_thunks.obj
 0001:000a8480       __acrt_MessageBoxA         00000001800a9480 f   libucrtd:winapi_thunks.obj
 0001:000a84e0       __acrt_MessageBoxW         00000001800a94e0 f   libucrtd:winapi_thunks.obj
 0001:000a8540       __acrt_RoInitialize        00000001800a9540 f   libucrtd:winapi_thunks.obj
 0001:000a8580       __acrt_RoUninitialize      00000001800a9580 f   libucrtd:winapi_thunks.obj
 0001:000a85b0       __acrt_RtlGenRandom        00000001800a95b0 f   libucrtd:winapi_thunks.obj
 0001:000a8600       __acrt_SetThreadStackGuarantee 00000001800a9600 f   libucrtd:winapi_thunks.obj
 0001:000a8640       __acrt_can_show_message_box 00000001800a9640 f   libucrtd:winapi_thunks.obj
 0001:000a8680       __acrt_can_use_vista_locale_apis 00000001800a9680 f   libucrtd:winapi_thunks.obj
 0001:000a86b0       __acrt_can_use_xstate_apis 00000001800a96b0 f   libucrtd:winapi_thunks.obj
 0001:000a86e0       __acrt_eagerly_load_locale_apis 00000001800a96e0 f   libucrtd:winapi_thunks.obj
 0001:000a8720       __acrt_get_parent_window   00000001800a9720 f   libucrtd:winapi_thunks.obj
 0001:000a87a0       __acrt_initialize_winapi_thunks 00000001800a97a0 f   libucrtd:winapi_thunks.obj
 0001:000a8820       __acrt_is_interactive      00000001800a9820 f   libucrtd:winapi_thunks.obj
 0001:000a8900       __acrt_uninitialize_winapi_thunks 00000001800a9900 f   libucrtd:winapi_thunks.obj
 0001:000a89a0       _chvalidator               00000001800a99a0 f   libucrtd:isctype.obj
 0001:000a8a10       _chvalidator_l             00000001800a9a10 f   libucrtd:isctype.obj
 0001:000a8ac0       _isctype                   00000001800a9ac0 f   libucrtd:isctype.obj
 0001:000a8b10       _isctype_l                 00000001800a9b10 f   libucrtd:isctype.obj
 0001:000a8d40       _isleadbyte_fast_internal  00000001800a9d40 f i libucrtd:isctype.obj
 0001:000a8d70       ??$?RU__crt_stdio_stream_data@@@__crt_internal_free_policy@@QEBAXQEBU__crt_stdio_stream_data@@@Z 00000001800a9d70 f i libucrtd:stream.obj
 0001:000a8da0       ??0?$__crt_unique_heap_ptr@U__crt_stdio_stream_data@@U__crt_internal_free_policy@@@@QEAA@QEAU__crt_stdio_stream_data@@@Z 00000001800a9da0 f i libucrtd:stream.obj
 0001:000a8dc0       ??0__crt_stdio_stream@@QEAA@QEAU__crt_stdio_stream_data@@@Z 00000001800a9dc0 f i libucrtd:stream.obj
 0001:000a8de0       ??0__crt_stdio_stream@@QEAA@XZ 00000001800a9de0 f i libucrtd:stream.obj
 0001:000a8e00       ??1?$__crt_unique_heap_ptr@U__crt_stdio_stream_data@@U__crt_internal_free_policy@@@@QEAA@XZ 00000001800a9e00 f i libucrtd:stream.obj
 0001:000a8e20       ?__acrt_stdio_allocate_stream@@YA?AV__crt_stdio_stream@@XZ 00000001800a9e20 f   libucrtd:stream.obj
 0001:000a8ee0       ?__acrt_stdio_free_stream@@YAXV__crt_stdio_stream@@@Z 00000001800a9ee0 f   libucrtd:stream.obj
 0001:000a8f80       ?deallocate@__crt_stdio_stream@@QEAAXXZ 00000001800a9f80 f i libucrtd:stream.obj
 0001:000a8fa0       ?detach@?$__crt_unique_heap_ptr@U__crt_stdio_stream_data@@U__crt_internal_free_policy@@@@QEAAPEAU__crt_stdio_stream_data@@XZ 00000001800a9fa0 f i libucrtd:stream.obj
 0001:000a9180       ?lock@__crt_stdio_stream@@QEBAXXZ 00000001800aa180 f i libucrtd:stream.obj
 0001:000a91a0       ?release@?$__crt_unique_heap_ptr@U__crt_stdio_stream_data@@U__crt_internal_free_policy@@@@QEAAXXZ 00000001800aa1a0 f i libucrtd:stream.obj
 0001:000a91d0       ?try_allocate@__crt_stdio_stream@@QEAA_NXZ 00000001800aa1d0 f i libucrtd:stream.obj
 0001:000a9240       ??$__acrt_stdio_parse_mode@D@@YA?AU__acrt_stdio_stream_mode@@QEBD@Z 00000001800aa240 f i libucrtd:openfile.obj
 0001:000a9d50       ??$__acrt_stdio_parse_mode@_W@@YA?AU__acrt_stdio_stream_mode@@QEB_W@Z 00000001800aad50 f i libucrtd:openfile.obj
 0001:000aacf0       ??$tcsncmp@AEAPEBDAEAY02$$CBD_K@?$__crt_char_traits@D@@SAHAEAPEBDAEAY02$$CBD$$QEA_K@Z 00000001800abcf0 f i libucrtd:openfile.obj
 0001:000aad30       ??$tcsncmp@AEAPEB_WAEAY02$$CB_W_K@?$__crt_char_traits@_W@@SAHAEAPEB_WAEAY02$$CB_W$$QEA_K@Z 00000001800abd30 f i libucrtd:openfile.obj
 0001:000aad70       ??$tcsnicmp@AEAPEBDAEAY04$$CBD_K@?$__crt_char_traits@D@@SAHAEAPEBDAEAY04$$CBD$$QEA_K@Z 00000001800abd70 f i libucrtd:openfile.obj
 0001:000aadb0       ??$tcsnicmp@AEAPEBDAEAY06$$CBD_K@?$__crt_char_traits@D@@SAHAEAPEBDAEAY06$$CBD$$QEA_K@Z 00000001800abdb0 f i libucrtd:openfile.obj
 0001:000aadf0       ??$tcsnicmp@AEAPEBDAEAY07$$CBD_K@?$__crt_char_traits@D@@SAHAEAPEBDAEAY07$$CBD$$QEA_K@Z 00000001800abdf0 f i libucrtd:openfile.obj
 0001:000aae30       ??$tcsnicmp@AEAPEB_WAEAY04$$CB_W_K@?$__crt_char_traits@_W@@SAHAEAPEB_WAEAY04$$CB_W$$QEA_K@Z 00000001800abe30 f i libucrtd:openfile.obj
 0001:000aae70       ??$tcsnicmp@AEAPEB_WAEAY06$$CB_W_K@?$__crt_char_traits@_W@@SAHAEAPEB_WAEAY06$$CB_W$$QEA_K@Z 00000001800abe70 f i libucrtd:openfile.obj
 0001:000aaeb0       ??$tcsnicmp@AEAPEB_WAEAY07$$CB_W_K@?$__crt_char_traits@_W@@SAHAEAPEB_WAEAY07$$CB_W$$QEA_K@Z 00000001800abeb0 f i libucrtd:openfile.obj
 0001:000aaef0       ??$tsopen_s@PEAHAEBQEBDAEBHAEBHH@?$__crt_char_traits@D@@SAH$$QEAPEAHAEBQEBDAEBH2$$QEAH@Z 00000001800abef0 f i libucrtd:openfile.obj
 0001:000aaf40       ??$tsopen_s@PEAHAEBQEB_WAEBHAEBHH@?$__crt_char_traits@_W@@SAH$$QEAPEAHAEBQEB_WAEBH2$$QEAH@Z 00000001800abf40 f i libucrtd:openfile.obj
 0001:000aaf90       ?__acrt_stdio_parse_mode_D@@YA_NAEAU__acrt_stdio_stream_mode@@@Z 00000001800abf90 f i libucrtd:openfile.obj
 0001:000aafc0       ?__acrt_stdio_parse_mode_N@@YA_NAEAU__acrt_stdio_stream_mode@@@Z 00000001800abfc0 f i libucrtd:openfile.obj
 0001:000aafe0       ?__acrt_stdio_parse_mode_R@@YA_NAEAU__acrt_stdio_stream_mode@@AEA_N@Z 00000001800abfe0 f i libucrtd:openfile.obj
 0001:000ab020       ?__acrt_stdio_parse_mode_S@@YA_NAEAU__acrt_stdio_stream_mode@@AEA_N@Z 00000001800ac020 f i libucrtd:openfile.obj
 0001:000ab060       ?__acrt_stdio_parse_mode_T@@YA_NAEAU__acrt_stdio_stream_mode@@@Z 00000001800ac060 f i libucrtd:openfile.obj
 0001:000ab090       ?__acrt_stdio_parse_mode_b@@YA_NAEAU__acrt_stdio_stream_mode@@@Z 00000001800ac090 f i libucrtd:openfile.obj
 0001:000ab0c0       ?__acrt_stdio_parse_mode_c@@YA_NAEAU__acrt_stdio_stream_mode@@AEA_N@Z 00000001800ac0c0 f i libucrtd:openfile.obj
 0001:000ab100       ?__acrt_stdio_parse_mode_n@@YA_NAEAU__acrt_stdio_stream_mode@@AEA_N@Z 00000001800ac100 f i libucrtd:openfile.obj
 0001:000ab140       ?__acrt_stdio_parse_mode_plus@@YA_NAEAU__acrt_stdio_stream_mode@@AEA_N@Z 00000001800ac140 f i libucrtd:openfile.obj
 0001:000ab1c0       ?__acrt_stdio_parse_mode_t@@YA_NAEAU__acrt_stdio_stream_mode@@@Z 00000001800ac1c0 f i libucrtd:openfile.obj
 0001:000ab1f0       ?__acrt_stdio_parse_mode_x@@YA_NAEAU__acrt_stdio_stream_mode@@@Z 00000001800ac1f0 f i libucrtd:openfile.obj
 0001:000ab220       _openfile                  00000001800ac220 f   libucrtd:openfile.obj
 0001:000ab270       _wopenfile                 00000001800ac270 f   libucrtd:openfile.obj
 0001:000ab590       _close                     00000001800ac590 f   libucrtd:close.obj
 0001:000ab780       _close_nolock              00000001800ac780 f   libucrtd:close.obj
 0001:000ab7f0       ?has_crt_buffer@__crt_stdio_stream@@QEBA_NXZ 00000001800ac7f0 f i libucrtd:_freebuf.obj
 0001:000ab810       __acrt_stdio_free_buffer_nolock 00000001800ac810 f   libucrtd:_freebuf.obj
 0001:000abec0       ?__acrt_stdio_reset_buffer@@YAXV__crt_stdio_stream@@@Z 00000001800acec0 f i libucrtd:fflush.obj
 0001:000abff0       ?has_all_of@__crt_stdio_stream@@QEBA_NJ@Z 00000001800acff0 f i libucrtd:fflush.obj
 0001:000ac0d0       __acrt_stdio_flush_nolock  00000001800ad0d0 f   libucrtd:fflush.obj
 0001:000ac1e0       _fflush_nolock             00000001800ad1e0 f   libucrtd:fflush.obj
 0001:000ac270       _flushall                  00000001800ad270 f   libucrtd:fflush.obj
 0001:000ac280       fflush                     00000001800ad280 f   libucrtd:fflush.obj
 0001:000acce0       ?has_big_buffer@__crt_stdio_stream@@QEBA_NXZ 00000001800adce0 f i libucrtd:_flsbuf.obj
 0001:000ace00       __acrt_stdio_flush_and_write_narrow_nolock 00000001800ade00 f   libucrtd:_flsbuf.obj
 0001:000ace30       __acrt_stdio_flush_and_write_wide_nolock 00000001800ade30 f   libucrtd:_flsbuf.obj
 0001:000ad250       __acrt_get_begin_thread_init_policy 00000001800ae250 f   libucrtd:win_policies.obj
 0001:000ad260       __acrt_get_developer_information_policy 00000001800ae260 f   libucrtd:win_policies.obj
 0001:000ad280       __acrt_get_process_end_policy 00000001800ae280 f   libucrtd:win_policies.obj
 0001:000ad290       __acrt_get_windowing_model_policy 00000001800ae290 f   libucrtd:win_policies.obj
 0001:000ad650       ??$__acrt_mbs_to_wcs_cp@U__crt_win32_buffer_internal_dynamic_resizing@@@@YAHQEBDAEAV?$__crt_win32_buffer@_WU__crt_win32_buffer_internal_dynamic_resizing@@@@I@Z 00000001800ae650 f i libucrtd:argv_wildcards.obj
