 OPOSLights

 Timestamp is 5d429e87 (Thu Aug  1 17:10:47 2019)

 Preferred load address is 0000000180000000

 Start         Length     Name                   Class
 0001:00000000 00001400H .text$di                CODE
 0001:00001400 000d1340H .text$mn                CODE
 0001:000d2740 00000020H .text$mn$00             CODE
 0001:000d2760 00001360H .text$x                 CODE
 0001:000d3ac0 000001b4H .text$yd                CODE
 0002:00000000 000006d8H .idata$5                DATA
 0002:000006d8 00000010H .00cfg                  DATA
 0002:000006e8 00000008H .CRT$XCA                DATA
 0002:000006f0 00000008H .CRT$XCL                DATA
 0002:000006f8 000000d8H .CRT$XCU                DATA
 0002:000007d0 00000008H .CRT$XCZ                DATA
 0002:000007d8 00000008H .CRT$XIA                DATA
 0002:000007e0 00000020H .CRT$XIC                DATA
 0002:00000800 00000008H .CRT$XIZ                DATA
 0002:00000808 00000008H .CRT$XLA                DATA
 0002:00000810 00000008H .CRT$XLZ                DATA
 0002:00000818 00000008H .CRT$XPA                DATA
 0002:00000820 00000010H .CRT$XPX                DATA
 0002:00000830 00000008H .CRT$XPXA               DATA
 0002:00000838 00000008H .CRT$XPZ                DATA
 0002:00000840 00000008H .CRT$XTA                DATA
 0002:00000848 00000008H .CRT$XTZ                DATA
 0002:00000850 00000000H .gfids$y                DATA
 0002:00000850 0003a768H .rdata                  DATA
 0002:0003afb8 00000028H .rdata$T                DATA
 0002:0003afe0 0000056cH .rdata$r                DATA
 0002:0003b54c 0000042cH .rdata$zzzdbg           DATA
 0002:0003b978 00000008H .rtc$IAA                DATA
 0002:0003b980 00000030H .rtc$IMZ                DATA
 0002:0003b9b0 00000008H .rtc$IZZ                DATA
 0002:0003b9b8 00000008H .rtc$TAA                DATA
 0002:0003b9c0 00000030H .rtc$TMZ                DATA
 0002:0003b9f0 00000008H .rtc$TZZ                DATA
 0002:0003b9f8 00000004H .tls                    DATA
 0002:0003b9fc 00000004H .tls$                   DATA
 0002:0003ba00 00000010H .tls$ZZZ                DATA
 0002:0003ba10 000095e8H .xdata                  DATA
 0002:00044ff8 00000150H .xdata$x                DATA
 0002:00045148 00000008H ATL$__a                 DATA
 0002:00045150 00000010H ATL$__z                 DATA
 0002:00045160 000000a8H .edata                  DATA
 0002:00045208 00000078H .idata$2                DATA
 0002:00045280 00000018H .idata$3                DATA
 0002:00045298 000006d8H .idata$4                DATA
 0002:00045970 00000db8H .idata$6                DATA
 0003:00000000 00000e78H .data                   DATA
 0003:00000e78 00000198H .data$r                 DATA
 0003:00001010 00003e9cH .bss                    DATA
 0004:00000000 0000be98H .pdata                  DATA
 0005:00000000 00000094H _RDATA                  DATA
 0006:00000000 00000220H .rsrc$01                DATA
 0006:00000220 00003648H .rsrc$02                DATA

  Address         Publics by Value              Rva+Base               Lib:Object

 0000:00000000       __guard_fids_table         0000000000000000     <absolute>
 0000:00000000       __volatile_metadata        0000000000000000     <absolute>
 0000:00000000       ___safe_se_handler_table   0000000000000000     <absolute>
 0000:00000000       __enclave_config           0000000000000000     <absolute>
 0000:00000000       __hybrid_auxiliary_iat     0000000000000000     <absolute>
 0000:00000000       __hybrid_code_map_count    0000000000000000     <absolute>
 0000:00000000       __guard_iat_table          0000000000000000     <absolute>
 0000:00000000       __guard_iat_count          0000000000000000     <absolute>
 0000:00000000       ___safe_se_handler_count   0000000000000000     <absolute>
 0000:00000000       __dynamic_value_reloc_table 0000000000000000     <absolute>
 0000:00000000       __hybrid_code_map          0000000000000000     <absolute>
 0000:00000000       __AbsoluteZero             0000000000000000     <absolute>
 0000:00000000       __guard_longjmp_table      0000000000000000     <absolute>
 0000:00000000       __guard_fids_count         0000000000000000     <absolute>
 0000:00000000       __guard_longjmp_count      0000000000000000     <absolute>
 0000:00000100       __guard_flags              0000000000000100     <absolute>
 0000:00000000       __ImageBase                0000000180000000     <linker-defined>
 0001:00001400       ?_assert@@YAXPEB_W0I@Z     0000000180002400 f   Assert.obj
 0001:00001500       __local_stdio_printf_options 0000000180002500 f i Assert.obj
 0001:00001510       __vswprintf_l              0000000180002510 f i Assert.obj
 0001:00001570       _swprintf                  0000000180002570 f i Assert.obj
 0001:000015f0       _vswprintf_c_l             00000001800025f0 f i Assert.obj
 0001:00001680       _vswprintf_l               0000000180002680 f i Assert.obj
 0001:000016e0       ?cw_memcpy@@YAHPEADPEB_WH@Z 00000001800026e0 f   CWString.obj
 0001:00001770       ?cw_memcpy@@YAHPEA_WPEBDH@Z 0000000180002770 f   CWString.obj
 0001:000017f0       ?cw_memcpy@@YAHPEADPEBDH@Z 00000001800027f0 f   CWString.obj
 0001:00001890       ?cw_memcpy@@YAHPEA_WPEB_WH@Z 0000000180002890 f   CWString.obj
 0001:00001900       ?cw_memset@@YAXPEADDH@Z    0000000180002900 f   CWString.obj
 0001:00001970       ?cw_memset@@YAXPEA_W_WH@Z  0000000180002970 f   CWString.obj
 0001:00001a10       ?cw_strlen@@YAHPEBD@Z      0000000180002a10 f   CWString.obj
 0001:00001a80       ?cw_strlen@@YAHPEB_W@Z     0000000180002a80 f   CWString.obj
 0001:00001af0       ?cw_strcpy@@YAHPEADPEB_W@Z 0000000180002af0 f   CWString.obj
 0001:00001b40       ?cw_strcpy@@YAHPEA_WPEBD@Z 0000000180002b40 f   CWString.obj
 0001:00001b90       ?cw_strcpy@@YAHPEADPEBD@Z  0000000180002b90 f   CWString.obj
 0001:00001be0       ?cw_strcpy@@YAHPEA_WPEB_W@Z 0000000180002be0 f   CWString.obj
 0001:00001c30       ?cw_strcat@@YAHPEADPEB_W@Z 0000000180002c30 f   CWString.obj
 0001:00001c90       ?cw_strcat@@YAHPEA_WPEBD@Z 0000000180002c90 f   CWString.obj
 0001:00001cf0       ?cw_strcat@@YAHPEADPEBD@Z  0000000180002cf0 f   CWString.obj
 0001:00001d50       ?cw_strcat@@YAHPEA_WPEB_W@Z 0000000180002d50 f   CWString.obj
 0001:00001db0       ?cw_dup@@YAXPEBDAEAHAEAPEA_W1@Z 0000000180002db0 f   CWString.obj
 0001:00001ec0       ?cw_dup@@YAXPEB_WAEAHAEAPEAD1@Z 0000000180002ec0 f   CWString.obj
 0001:00001fb0       ?DupChar@_CW@@AEAAXXZ      0000000180002fb0 f   CWString.obj
 0001:00002010       ?DupWide@_CW@@AEAAXXZ      0000000180003010 f   CWString.obj
 0001:00002080       ?GetCharsMbcs@_CW@@QEAAHXZ 0000000180003080 f   CWString.obj
 0001:000020f0       ?GetCharsWide@_CW@@QEAAHXZ 00000001800030f0 f   CWString.obj
 0001:00002160       ?SetVARIANT_BOOL@OposVariant@@QEAAXF@Z 0000000180003160 f   OposVariant.obj
 0001:000021d0       ?SetVARIANT_BOOL_Ptr@OposVariant@@QEAAXPEAFAEAJ@Z 00000001800031d0 f   OposVariant.obj
 0001:00002240       ?GetLONG@OposVariant@@QEAAJXZ 0000000180003240 f   OposVariant.obj
 0001:000022a0       ?ChangeLONG@OposVariant@@QEAAXPEAJAEAJ@Z 00000001800032a0 f   OposVariant.obj
 0001:00002350       ?SetLONG@OposVariant@@QEAAXJ@Z 0000000180003350 f   OposVariant.obj
 0001:000023b0       ?SetLONG_Ptr@OposVariant@@QEAAXPEAJAEAJ@Z 00000001800033b0 f   OposVariant.obj
 0001:00002420       ?ChangeCURRENCY@OposVariant@@QEAAXPEATtagCY@@AEAJ@Z 0000000180003420 f   OposVariant.obj
 0001:000024d0       ?SetCURRENCY@OposVariant@@QEAAXTtagCY@@@Z 00000001800034d0 f   OposVariant.obj
 0001:00002530       ?SetCURRENCY_Ptr@OposVariant@@QEAAXPEATtagCY@@AEAJ@Z 0000000180003530 f   OposVariant.obj
 0001:000025a0       ?ChangeBSTR@OposVariant@@QEAAXPEAPEA_WAEAJ@Z 00000001800035a0 f   OposVariant.obj
 0001:00002650       ?SetBSTR@OposVariant@@QEAAXPEA_WAEAJ@Z 0000000180003650 f   OposVariant.obj
 0001:000026d0       ?SetBSTR_Copy@OposVariant@@QEAAXPEA_WAEAJ@Z 00000001800036d0 f   OposVariant.obj
 0001:00002780       ?SetBSTR_OutPtr@OposVariant@@QEAA_NPEAPEA_WAEAJ@Z 0000000180003780 f   OposVariant.obj
 0001:000027f0       ?SetBSTR_InOutPtr@OposVariant@@QEAA_NPEAPEA_WAEAJ@Z 00000001800037f0 f   OposVariant.obj
 0001:00002870       ?SetVARIANT@OposVariant@@QEAAXAEAUtagVARIANT@@GAEAJ@Z 0000000180003870 f   OposVariant.obj
 0001:00002910       ?SetVARIANT_Ptr@OposVariant@@QEAAXAEAPEAUtagVARIANT@@GAEAJ@Z 0000000180003910 f   OposVariant.obj
 0001:000029c0       ?SetString@OposVariant@@QEAAXPEB_WAEAJ@Z 00000001800039c0 f   OposVariant.obj
 0001:00002a70       ?SetDispatch_Ptr@OposVariant@@QEAAXPEAUIDispatch@@AEAJ@Z 0000000180003a70 f   OposVariant.obj
 0001:00002b00       ??0OposDispParms@@QEAA@PEAVOposVariant@@H@Z 0000000180003b00 f   OposVariant.obj
 0001:00002c10       ??1OposDispParms@@QEAA@XZ  0000000180003c10 f   OposVariant.obj
 0001:00002c60       ??$AtlMultiply@_K@ATL@@YAJPEA_K_K1@Z 0000000180003c60 f i OposVariant.obj
 0001:00002ce0       ??0?$CHeapPtr@_WVCCRTAllocator@ATL@@@ATL@@QEAA@XZ 0000000180003ce0 f i OposVariant.obj
 0001:00002d20       ??0?$CHeapPtrBase@_WVCCRTAllocator@ATL@@@ATL@@IEAA@XZ 0000000180003d20 f i OposVariant.obj
 0001:00002d40       ??0?$CSimpleArray@GV?$CSimpleArrayEqualHelper@G@ATL@@@ATL@@QEAA@XZ 0000000180003d40 f i OposVariant.obj
 0001:00002d80       ??0?$CTraceCategoryEx@$00$0A@@ATL@@QEAA@PEB_W@Z 0000000180003d80 f i OposVariant.obj
 0001:00002dc0       ??0?$CTraceCategoryEx@$01$0A@@ATL@@QEAA@PEB_W@Z 0000000180003dc0 f i OposVariant.obj
 0001:00002e00       ??0?$CTraceCategoryEx@$03$0A@@ATL@@QEAA@PEB_W@Z 0000000180003e00 f i OposVariant.obj
 0001:00002e40       ??0?$CTraceCategoryEx@$07$0A@@ATL@@QEAA@PEB_W@Z 0000000180003e40 f i OposVariant.obj
 0001:00002e80       ??0?$CTraceCategoryEx@$0BA@$0A@@ATL@@QEAA@PEB_W@Z 0000000180003e80 f i OposVariant.obj
 0001:00002ec0       ??0?$CTraceCategoryEx@$0BAA@$0A@@ATL@@QEAA@PEB_W@Z 0000000180003ec0 f i OposVariant.obj
 0001:00002f00       ??0?$CTraceCategoryEx@$0BAAA@$0A@@ATL@@QEAA@PEB_W@Z 0000000180003f00 f i OposVariant.obj
 0001:00002f40       ??0?$CTraceCategoryEx@$0BAAAA@$0A@@ATL@@QEAA@PEB_W@Z 0000000180003f40 f i OposVariant.obj
 0001:00002f80       ??0?$CTraceCategoryEx@$0BAAAAA@$0A@@ATL@@QEAA@PEB_W@Z 0000000180003f80 f i OposVariant.obj
 0001:00002fc0       ??0?$CTraceCategoryEx@$0CA@$0A@@ATL@@QEAA@PEB_W@Z 0000000180003fc0 f i OposVariant.obj
 0001:00003000       ??0?$CTraceCategoryEx@$0CAA@$0A@@ATL@@QEAA@PEB_W@Z 0000000180004000 f i OposVariant.obj
 0001:00003040       ??0?$CTraceCategoryEx@$0CAAA@$0A@@ATL@@QEAA@PEB_W@Z 0000000180004040 f i OposVariant.obj
 0001:00003080       ??0?$CTraceCategoryEx@$0CAAAA@$0A@@ATL@@QEAA@PEB_W@Z 0000000180004080 f i OposVariant.obj
 0001:000030c0       ??0?$CTraceCategoryEx@$0CAAAAA@$0A@@ATL@@QEAA@PEB_W@Z 00000001800040c0 f i OposVariant.obj
 0001:00003100       ??0?$CTraceCategoryEx@$0EA@$0A@@ATL@@QEAA@PEB_W@Z 0000000180004100 f i OposVariant.obj
 0001:00003140       ??0?$CTraceCategoryEx@$0EAA@$0A@@ATL@@QEAA@PEB_W@Z 0000000180004140 f i OposVariant.obj
 0001:00003180       ??0?$CTraceCategoryEx@$0EAAA@$0A@@ATL@@QEAA@PEB_W@Z 0000000180004180 f i OposVariant.obj
 0001:000031c0       ??0?$CTraceCategoryEx@$0EAAAA@$0A@@ATL@@QEAA@PEB_W@Z 00000001800041c0 f i OposVariant.obj
 0001:00003200       ??0?$CTraceCategoryEx@$0EAAAAA@$0A@@ATL@@QEAA@PEB_W@Z 0000000180004200 f i OposVariant.obj
 0001:00003240       ??0?$CTraceCategoryEx@$0IA@$0A@@ATL@@QEAA@PEB_W@Z 0000000180004240 f i OposVariant.obj
 0001:00003280       ??0?$CTraceCategoryEx@$0IAA@$0A@@ATL@@QEAA@PEB_W@Z 0000000180004280 f i OposVariant.obj
 0001:000032c0       ??0?$CTraceCategoryEx@$0IAAA@$0A@@ATL@@QEAA@PEB_W@Z 00000001800042c0 f i OposVariant.obj
 0001:00003300       ??0?$CTraceCategoryEx@$0IAAAA@$0A@@ATL@@QEAA@PEB_W@Z 0000000180004300 f i OposVariant.obj
 0001:00003340       ??0CAtlComModule@ATL@@QEAA@XZ 0000000180004340 f i OposVariant.obj
 0001:00003460       ??0CAtlWinModule@ATL@@QEAA@XZ 0000000180004460 f i OposVariant.obj
 0001:00003510       ??0CComCriticalSection@ATL@@QEAA@XZ 0000000180004510 f i OposVariant.obj
 0001:00003550       ??0CPreserveLastError@ATL@@QEAA@XZ 0000000180004550 f i OposVariant.obj
 0001:00003590       ??0CTraceFileAndLineInfo@ATL@@QEAA@PEBDH@Z 0000000180004590 f i OposVariant.obj
 0001:000035c0       ??0_ATL_COM_MODULE70@ATL@@QEAA@XZ 00000001800045c0 f i OposVariant.obj
 0001:00003600       ??0_ATL_WIN_MODULE70@ATL@@QEAA@XZ 0000000180004600 f i OposVariant.obj
 0001:00003650       ??1?$CHeapPtr@_WVCCRTAllocator@ATL@@@ATL@@QEAA@XZ 0000000180004650 f i OposVariant.obj
 0001:00003680       ??1?$CHeapPtrBase@_WVCCRTAllocator@ATL@@@ATL@@QEAA@XZ 0000000180004680 f i OposVariant.obj
 0001:000036b0       ??1?$CSimpleArray@GV?$CSimpleArrayEqualHelper@G@ATL@@@ATL@@QEAA@XZ 00000001800046b0 f i OposVariant.obj
 0001:000036e0       ??1CAtlComModule@ATL@@QEAA@XZ 00000001800046e0 f i OposVariant.obj
 0001:00003720       ??1CAtlWinModule@ATL@@QEAA@XZ 0000000180004720 f i OposVariant.obj
 0001:00003760       ??1CComBSTR@ATL@@QEAA@XZ   0000000180004760 f i OposVariant.obj
 0001:000037a0       ??1CComCriticalSection@ATL@@QEAA@XZ 00000001800047a0 f i OposVariant.obj
 0001:000037b0       ??1CPreserveLastError@ATL@@QEAA@XZ 00000001800047b0 f i OposVariant.obj
 0001:000037f0       ??1_ATL_COM_MODULE70@ATL@@QEAA@XZ 00000001800047f0 f i OposVariant.obj
 0001:00003830       ??1_ATL_WIN_MODULE70@ATL@@QEAA@XZ 0000000180004830 f i OposVariant.obj
 0001:00003880       ??1stringdispid@CComTypeInfoHolder@ATL@@QEAA@XZ 0000000180004880 f i OposVariant.obj
 0001:000038c0       ??A?$CSimpleArray@GV?$CSimpleArrayEqualHelper@G@ATL@@@ATL@@QEAAAEAGH@Z 00000001800048c0 f i OposVariant.obj
 0001:00003970       ??B?$CHeapPtrBase@_WVCCRTAllocator@ATL@@@ATL@@QEBAPEA_WXZ 0000000180004970 f i OposVariant.obj
 0001:00003980       ??B?$CTraceCategoryEx@$01$0A@@ATL@@QEAAIXZ 0000000180004980 f i OposVariant.obj
 0001:00003990       ??B?$CTraceCategoryEx@$0CA@$0A@@ATL@@QEAAIXZ 0000000180004990 f i OposVariant.obj
 0001:000039a0       ??RCTraceFileAndLineInfo@ATL@@QEBAXHIPEB_WZZ 00000001800049a0 f i OposVariant.obj
 0001:00003a50       ??_Estringdispid@CComTypeInfoHolder@ATL@@QEAAPEAXI@Z 0000000180004a50 f i OposVariant.obj
 0001:00003b00       ??_H@YAXPEAX_K1P6APEAX0@Z@Z 0000000180004b00 f i OposVariant.obj
 0001:00003b90       ??_I@YAXPEAX_K1P6AX0@Z@Z   0000000180004b90 f i OposVariant.obj
 0001:00003c40       ?Allocate@?$CHeapPtr@_WVCCRTAllocator@ATL@@@ATL@@QEAA_N_K@Z 0000000180004c40 f i OposVariant.obj
 0001:00003cc0       ?Allocate@CCRTAllocator@ATL@@SAPEAX_K@Z 0000000180004cc0 f i OposVariant.obj
 0001:00003cf0       ?AllocateBytes@?$CHeapPtrBase@_WVCCRTAllocator@ATL@@@ATL@@QEAA_N_K@Z 0000000180004cf0 f i OposVariant.obj
 0001:00003d90       ?AtlWinModuleInit@ATL@@YAJPEAU_ATL_WIN_MODULE70@1@@Z 0000000180004d90 f i OposVariant.obj
 0001:00003e90       ?AtlWinModuleTerm@ATL@@YAJPEAU_ATL_WIN_MODULE70@1@PEAUHINSTANCE__@@@Z 0000000180004e90 f i OposVariant.obj
 0001:00003f80       ?Clear@OposVariant@@QEAAJXZ 0000000180004f80 f i OposVariant.obj
 0001:00003fc0       ?Free@?$CHeapPtrBase@_WVCCRTAllocator@ATL@@@ATL@@QEAAXXZ 0000000180004fc0 f i OposVariant.obj
 0001:00004000       ?Free@CCRTAllocator@ATL@@SAXPEAX@Z 0000000180005000 f i OposVariant.obj
 0001:00004030       ?GetCategoryName@CTrace@ATL@@CAPEA_WI@Z 0000000180005030 f i OposVariant.obj
 0001:000040b0       ?GetModuleInstance@CAtlBaseModule@ATL@@QEAAPEAUHINSTANCE__@@XZ 00000001800050b0 f i OposVariant.obj
 0001:000040d0       ?GetSize@?$CSimpleArray@GV?$CSimpleArrayEqualHelper@G@ATL@@@ATL@@QEBAHXZ 00000001800050d0 f i OposVariant.obj
 0001:000040e0       ?Init@CComCriticalSection@ATL@@QEAAJXZ 00000001800050e0 f i OposVariant.obj
 0001:00004140       ?RegisterCategory@CTrace@ATL@@SAXPEB_WI@Z 0000000180005140 f i OposVariant.obj
 0001:00004220       ?RemoveAll@?$CSimpleArray@GV?$CSimpleArrayEqualHelper@G@ATL@@@ATL@@QEAAXXZ 0000000180005220 f i OposVariant.obj
 0001:000042b0       ?Term@CAtlComModule@ATL@@QEAAXXZ 00000001800052b0 f i OposVariant.obj
 0001:00004390       ?Term@CAtlWinModule@ATL@@QEAAXXZ 0000000180005390 f i OposVariant.obj
 0001:000043d0       ?Term@CComCriticalSection@ATL@@QEAAJXZ 00000001800053d0 f i OposVariant.obj
 0001:00004410       ?TraceV@CTrace@ATL@@CAXPEBDHIIPEB_W@Z 0000000180005410 f i OposVariant.obj
 0001:000046c0       ?TraceV@CTrace@ATL@@SAXPEBDHIIPEB_WPEAD@Z 00000001800056c0 f i OposVariant.obj
 0001:00004870       ?_AtlInitializeCriticalSectionEx@ATL@@YAHPEAU_RTL_CRITICAL_SECTION@@KK@Z 0000000180005870 f i OposVariant.obj
 0001:000048c0       ?_AtlRaiseException@ATL@@YAXKK@Z 00000001800058c0 f i OposVariant.obj
 0001:00004900       HRESULT_FROM_WIN32         0000000180005900 f i OposVariant.obj
 0001:00004950       _vswprintf_s_l             0000000180005950 f i OposVariant.obj
 0001:000049e0       swprintf_s                 00000001800059e0 f i OposVariant.obj
 0001:00004a70       ?GetObjectDescription@?$CComCoClass@VCOPOSLights@@$1?CLSID_OPOSLights@@3U_GUID@@B@ATL@@SAPEB_WXZ 0000000180005a70 f i Lights.obj
 0001:00004a80       ?UpdateRegistry@COPOSLights@@SAJH@Z 0000000180005a80 f i Lights.obj
 0001:00004ac0       ?CreateInstance@?$CComCreator@V?$CComObjectCached@VCComClassFactory@ATL@@@ATL@@@ATL@@SAJPEAXAEBU_GUID@@PEAPEAX@Z 0000000180005ac0 f i Lights.obj
 0001:00004cb0       ?CreateInstance@?$CComCreator2@V?$CComCreator@V?$CComObject@VCOPOSLights@@@ATL@@@ATL@@V?$CComCreator@V?$CComAggObject@VCOPOSLights@@@ATL@@@2@@ATL@@SAJPEAXAEBU_GUID@@PEAPEAX@Z 0000000180005cb0 f i Lights.obj
 0001:00004d60       ?ObjectMain@CComObjectRootBase@ATL@@SAX_N@Z 0000000180005d60 f i Lights.obj
 0001:00004d70       ?GetCategoryMap@CComObjectRootBase@ATL@@SAPEBU_ATL_CATMAP_ENTRY@2@XZ 0000000180005d70 f i Lights.obj
 0001:00004ee0       DllGetClassObject          0000000180005ee0 f   Lights.obj
 0001:00004f30       DllCanUnloadNow            0000000180005f30 f   Lights.obj
 0001:00004f80       DllRegisterServer          0000000180005f80 f   Lights.obj
 0001:00004fc0       DllUnregisterServer        0000000180005fc0 f   Lights.obj
 0001:000051c0       DllMain                    00000001800061c0 f   Lights.obj
 0001:00005240       ??$?2G@Wrapper@?$CSimpleArray@GV?$CSimpleArrayEqualHelper@G@ATL@@@ATL@@SAPEAX_KPEAG@Z 0000000180006240 f i Lights.obj
 0001:00005260       ??$?2PEA_W@?$Wrapper@PEA_W@?$CSimpleMap@PEA_WPEA_WVCExpansionVectorEqualHelper@ATL@@@ATL@@SAPEAX_KPEAPEA_W@Z 0000000180006260 f i Lights.obj
 0001:00005280       ??$?4UITypeInfo2@@@?$CComPtr@UITypeInfo@@@ATL@@QEAAPEAUITypeInfo@@AEBV?$CComPtr@UITypeInfo2@@@1@@Z 0000000180006280 f i Lights.obj
 0001:000052f0       ??$AtlAdd@_K@ATL@@YAJPEA_K_K1@Z 00000001800062f0 f i Lights.obj
 0001:00005360       ??$AtlAddThrow@_K@ATL@@YA_K_K0@Z 0000000180006360 f i Lights.obj
 0001:000053d0       ??$AtlModuleRegisterWndClassInfoT@VAtlModuleRegisterWndClassInfoParamW@ATL@@@ATL@@YAGPEAU_ATL_BASE_MODULE70@0@PEAU_ATL_WIN_MODULE70@0@PEAU_ATL_WNDCLASSINFOW@0@PEAP6A_JPEAUHWND__@@I_K_J@ZVAtlModuleRegisterWndClassInfoParamW@0@@Z 00000001800063d0 f i Lights.obj
 0001:000059a0       ??$AtlMultiply@H@ATL@@YAJPEAHHH@Z 00000001800069a0 f i Lights.obj
 0001:00005a10       ??$AtlMultiply@K@ATL@@YAJPEAKKK@Z 0000000180006a10 f i Lights.obj
 0001:00005a80       ??$AtlMultiplyThrow@_K@ATL@@YA_K_K0@Z 0000000180006a80 f i Lights.obj
 0001:00005af0       ??$QueryInterface@UIPersistStream@@@IUnknown@@QEAAJPEAPEAUIPersistStream@@@Z 0000000180006af0 f i Lights.obj
 0001:00005b40       ??$QueryInterface@UITypeInfo2@@@IUnknown@@QEAAJPEAPEAUITypeInfo2@@@Z 0000000180006b40 f i Lights.obj
 0001:00005b90       ??0?$CAtlModuleT@VCComModule@ATL@@@ATL@@QEAA@XZ 0000000180006b90 f i Lights.obj
 0001:00005bd0       ??0?$CAtlSafeAllocBufferManager@VCCRTAllocator@ATL@@@_ATL_SAFE_ALLOCA_IMPL@ATL@@QEAA@XZ 0000000180006bd0 f i Lights.obj
 0001:00005bf0       ??0?$CAutoVectorPtr@_W@ATL@@QEAA@XZ 0000000180006bf0 f i Lights.obj
 0001:00005c10       ??0?$CComAggObject@VCOPOSLights@@@ATL@@QEAA@PEAX@Z 0000000180006c10 f i Lights.obj
 0001:00005ca0       ??0?$CComContainedObject@VCOPOSLights@@@ATL@@QEAA@PEAX@Z 0000000180006ca0 f i Lights.obj
 0001:00005e40       ??0?$CComCritSecLock@VCComCriticalSection@ATL@@@ATL@@QEAA@AEAVCComCriticalSection@1@_N@Z 0000000180006e40 f i Lights.obj
 0001:00005eb0       ??0?$CComEnum@UIEnumConnectionPoints@@$1?_GUID_b196b285_bab4_101a_b69c_00aa00341d07@@3U__s_GUID@@BPEAUIConnectionPoint@@V?$_CopyInterface@UIConnectionPoint@@@ATL@@VCComSingleThreadModel@6@@ATL@@QEAA@XZ 0000000180006eb0 f i Lights.obj
 0001:00005f00       ??0?$CComEnum@UIEnumConnections@@$1?_GUID_b196b287_bab4_101a_b69c_00aa00341d07@@3U__s_GUID@@BUtagCONNECTDATA@@V?$_Copy@UtagCONNECTDATA@@@ATL@@VCComSingleThreadModel@6@@ATL@@QEAA@XZ 0000000180006f00 f i Lights.obj
 0001:00005f50       ??0?$CComEnumImpl@UIEnumConnectionPoints@@$1?_GUID_b196b285_bab4_101a_b69c_00aa00341d07@@3U__s_GUID@@BPEAUIConnectionPoint@@V?$_CopyInterface@UIConnectionPoint@@@ATL@@@ATL@@QEAA@XZ 0000000180006f50 f i Lights.obj
 0001:00005fd0       ??0?$CComEnumImpl@UIEnumConnections@@$1?_GUID_b196b287_bab4_101a_b69c_00aa00341d07@@3U__s_GUID@@BUtagCONNECTDATA@@V?$_Copy@UtagCONNECTDATA@@@ATL@@@ATL@@QEAA@XZ 0000000180006fd0 f i Lights.obj
 0001:00006050       ??0?$CComObject@V?$CComEnum@UIEnumConnectionPoints@@$1?_GUID_b196b285_bab4_101a_b69c_00aa00341d07@@3U__s_GUID@@BPEAUIConnectionPoint@@V?$_CopyInterface@UIConnectionPoint@@@ATL@@VCComSingleThreadModel@6@@ATL@@@ATL@@QEAA@PEAX@Z 0000000180007050 f i Lights.obj
 0001:000060b0       ??0?$CComObject@V?$CComEnum@UIEnumConnections@@$1?_GUID_b196b287_bab4_101a_b69c_00aa00341d07@@3U__s_GUID@@BUtagCONNECTDATA@@V?$_Copy@UtagCONNECTDATA@@@ATL@@VCComSingleThreadModel@6@@ATL@@@ATL@@QEAA@PEAX@Z 00000001800070b0 f i Lights.obj
 0001:00006110       ??0?$CComObject@VCOPOSLights@@@ATL@@QEAA@PEAX@Z 0000000180007110 f i Lights.obj
 0001:000062b0       ??0?$CComObjectCached@VCComClassFactory@ATL@@@ATL@@QEAA@PEAX@Z 00000001800072b0 f i Lights.obj
 0001:00006300       ??0?$CComObjectRootEx@VCComMultiThreadModel@ATL@@@ATL@@QEAA@XZ 0000000180007300 f i Lights.obj
 0001:00006350       ??0?$CComObjectRootEx@VCComSingleThreadModel@ATL@@@ATL@@QEAA@XZ 0000000180007350 f i Lights.obj
 0001:00006390       ??0?$CComPtr@UIAdviseSink@@@ATL@@QEAA@PEAUIAdviseSink@@@Z 0000000180007390 f i Lights.obj
 0001:000063d0       ??0?$CComPtr@UICatRegister@@@ATL@@QEAA@XZ 00000001800073d0 f i Lights.obj
 0001:00006410       ??0?$CComPtr@UIConnectionPoint@@@ATL@@QEAA@XZ 0000000180007410 f i Lights.obj
 0001:00006450       ??0?$CComPtr@UIConnectionPointContainer@@@ATL@@QEAA@XZ 0000000180007450 f i Lights.obj
 0001:00006490       ??0?$CComPtr@UIDataObject@@@ATL@@QEAA@XZ 0000000180007490 f i Lights.obj
 0001:000064d0       ??0?$CComPtr@UIDispatch@@@ATL@@QEAA@XZ 00000001800074d0 f i Lights.obj
 0001:00006510       ??0?$CComPtr@UIOleClientSite@@@ATL@@QEAA@PEAUIOleClientSite@@@Z 0000000180007510 f i Lights.obj
 0001:00006550       ??0?$CComPtr@UIOleControlSite@@@ATL@@QEAA@XZ 0000000180007550 f i Lights.obj
 0001:00006590       ??0?$CComPtr@UIOleInPlaceActiveObject@@@ATL@@QEAA@XZ 0000000180007590 f i Lights.obj
 0001:000065d0       ??0?$CComPtr@UIOleInPlaceFrame@@@ATL@@QEAA@XZ 00000001800075d0 f i Lights.obj
 0001:00006610       ??0?$CComPtr@UIOleInPlaceObject@@@ATL@@QEAA@XZ 0000000180007610 f i Lights.obj
 0001:00006650       ??0?$CComPtr@UIOleInPlaceUIWindow@@@ATL@@QEAA@XZ 0000000180007650 f i Lights.obj
 0001:00006690       ??0?$CComPtr@UIOleObject@@@ATL@@QEAA@XZ 0000000180007690 f i Lights.obj
 0001:000066d0       ??0?$CComPtr@UIPersistStream@@@ATL@@QEAA@XZ 00000001800076d0 f i Lights.obj
 0001:00006710       ??0?$CComPtr@UIPersistStreamInit@@@ATL@@QEAA@XZ 0000000180007710 f i Lights.obj
 0001:00006750       ??0?$CComPtr@UIPointerInactive@@@ATL@@QEAA@XZ 0000000180007750 f i Lights.obj
 0001:00006790       ??0?$CComPtr@UIProvideClassInfo2@@@ATL@@QEAA@XZ 0000000180007790 f i Lights.obj
 0001:000067d0       ??0?$CComPtr@UISpecifyPropertyPages@@@ATL@@QEAA@XZ 00000001800077d0 f i Lights.obj
 0001:00006810       ??0?$CComPtr@UIStream@@@ATL@@QEAA@XZ 0000000180007810 f i Lights.obj
 0001:00006850       ??0?$CComPtr@UITypeInfo2@@@ATL@@QEAA@XZ 0000000180007850 f i Lights.obj
 0001:00006890       ??0?$CComPtr@UITypeInfo@@@ATL@@QEAA@AEBV01@@Z 0000000180007890 f i Lights.obj
 0001:000068d0       ??0?$CComPtr@UITypeInfo@@@ATL@@QEAA@XZ 00000001800078d0 f i Lights.obj
 0001:00006910       ??0?$CComPtr@UITypeLib@@@ATL@@QEAA@XZ 0000000180007910 f i Lights.obj
 0001:00006950       ??0?$CComPtr@UIUnknown@@@ATL@@QEAA@AEBV01@@Z 0000000180007950 f i Lights.obj
 0001:00006990       ??0?$CComPtr@UIUnknown@@@ATL@@QEAA@PEAUIUnknown@@@Z 0000000180007990 f i Lights.obj
 0001:000069d0       ??0?$CComPtr@UIUnknown@@@ATL@@QEAA@XZ 00000001800079d0 f i Lights.obj
 0001:00006a10       ??0?$CComPtr@UIViewObjectEx@@@ATL@@QEAA@XZ 0000000180007a10 f i Lights.obj
 0001:00006a50       ??0?$CComPtrBase@UIAdviseSink@@@ATL@@IEAA@PEAUIAdviseSink@@@Z 0000000180007a50 f i Lights.obj
 0001:00006ab0       ??0?$CComPtrBase@UICatRegister@@@ATL@@IEAA@XZ 0000000180007ab0 f i Lights.obj
 0001:00006ad0       ??0?$CComPtrBase@UIConnectionPoint@@@ATL@@IEAA@XZ 0000000180007ad0 f i Lights.obj
 0001:00006af0       ??0?$CComPtrBase@UIConnectionPointContainer@@@ATL@@IEAA@XZ 0000000180007af0 f i Lights.obj
 0001:00006b10       ??0?$CComPtrBase@UIDataObject@@@ATL@@IEAA@XZ 0000000180007b10 f i Lights.obj
 0001:00006b30       ??0?$CComPtrBase@UIDispatch@@@ATL@@IEAA@XZ 0000000180007b30 f i Lights.obj
 0001:00006b50       ??0?$CComPtrBase@UIOleClientSite@@@ATL@@IEAA@PEAUIOleClientSite@@@Z 0000000180007b50 f i Lights.obj
 0001:00006bb0       ??0?$CComPtrBase@UIOleControlSite@@@ATL@@IEAA@XZ 0000000180007bb0 f i Lights.obj
 0001:00006bd0       ??0?$CComPtrBase@UIOleInPlaceActiveObject@@@ATL@@IEAA@XZ 0000000180007bd0 f i Lights.obj
 0001:00006bf0       ??0?$CComPtrBase@UIOleInPlaceFrame@@@ATL@@IEAA@XZ 0000000180007bf0 f i Lights.obj
 0001:00006c10       ??0?$CComPtrBase@UIOleInPlaceObject@@@ATL@@IEAA@XZ 0000000180007c10 f i Lights.obj
 0001:00006c30       ??0?$CComPtrBase@UIOleInPlaceUIWindow@@@ATL@@IEAA@XZ 0000000180007c30 f i Lights.obj
 0001:00006c50       ??0?$CComPtrBase@UIOleObject@@@ATL@@IEAA@XZ 0000000180007c50 f i Lights.obj
 0001:00006c70       ??0?$CComPtrBase@UIPersistStream@@@ATL@@IEAA@XZ 0000000180007c70 f i Lights.obj
 0001:00006c90       ??0?$CComPtrBase@UIPersistStreamInit@@@ATL@@IEAA@XZ 0000000180007c90 f i Lights.obj
 0001:00006cb0       ??0?$CComPtrBase@UIPointerInactive@@@ATL@@IEAA@XZ 0000000180007cb0 f i Lights.obj
 0001:00006cd0       ??0?$CComPtrBase@UIProvideClassInfo2@@@ATL@@IEAA@XZ 0000000180007cd0 f i Lights.obj
 0001:00006cf0       ??0?$CComPtrBase@UISpecifyPropertyPages@@@ATL@@IEAA@XZ 0000000180007cf0 f i Lights.obj
 0001:00006d10       ??0?$CComPtrBase@UIStream@@@ATL@@IEAA@XZ 0000000180007d10 f i Lights.obj
 0001:00006d30       ??0?$CComPtrBase@UITypeInfo2@@@ATL@@IEAA@XZ 0000000180007d30 f i Lights.obj
 0001:00006d50       ??0?$CComPtrBase@UITypeInfo@@@ATL@@IEAA@PEAUITypeInfo@@@Z 0000000180007d50 f i Lights.obj
 0001:00006db0       ??0?$CComPtrBase@UITypeInfo@@@ATL@@IEAA@XZ 0000000180007db0 f i Lights.obj
 0001:00006dd0       ??0?$CComPtrBase@UITypeLib@@@ATL@@IEAA@XZ 0000000180007dd0 f i Lights.obj
 0001:00006df0       ??0?$CComPtrBase@UIUnknown@@@ATL@@IEAA@PEAUIUnknown@@@Z 0000000180007df0 f i Lights.obj
 0001:00006e50       ??0?$CComPtrBase@UIUnknown@@@ATL@@IEAA@XZ 0000000180007e50 f i Lights.obj
 0001:00006e70       ??0?$CComPtrBase@UIViewObjectEx@@@ATL@@IEAA@XZ 0000000180007e70 f i Lights.obj
 0001:00006e90       ??0?$CComQIPtr@UIOleControlSite@@$1?_GUID_b196b289_bab4_101a_b69c_00aa00341d07@@3U__s_GUID@@B@ATL@@QEAA@PEAUIUnknown@@@Z 0000000180007e90 f i Lights.obj
 0001:00006f00       ??0?$CComQIPtr@UIOleObject@@$1?_GUID_00000112_0000_0000_c000_000000000046@@3U__s_GUID@@B@ATL@@QEAA@XZ 0000000180007f00 f i Lights.obj
 0001:00006f40       ??0?$CComQIPtr@UISpecifyPropertyPages@@$1?_GUID_b196b28b_bab4_101a_b69c_00aa00341d07@@3U__s_GUID@@B@ATL@@QEAA@XZ 0000000180007f40 f i Lights.obj
 0001:00006f80       ??0?$CSimpleMap@PEA_WPEA_WVCExpansionVectorEqualHelper@ATL@@@ATL@@QEAA@XZ 0000000180007f80 f i Lights.obj
 0001:00006fc0       ??0?$CTempBuffer@E$0BAA@VCCRTAllocator@ATL@@@ATL@@QEAA@XZ 0000000180007fc0 f i Lights.obj
 0001:00006fe0       ??0?$CTempBuffer@_W$0BAA@VCCRTAllocator@ATL@@@ATL@@QEAA@XZ 0000000180007fe0 f i Lights.obj
 0001:00007000       ??0?$CTempBuffer@_W$0EAA@VCCRTAllocator@ATL@@@ATL@@QEAA@XZ 0000000180008000 f i Lights.obj
 0001:00007020       ??0?$Wrapper@PEA_W@?$CSimpleMap@PEA_WPEA_WVCExpansionVectorEqualHelper@ATL@@@ATL@@QEAA@AEBQEA_W@Z 0000000180008020 f i Lights.obj
 0001:00007050       ??0CAtlModule@ATL@@QEAA@XZ 0000000180008050 f i Lights.obj
 0001:000071c0       ??0CComAutoDeleteCriticalSection@ATL@@QEAA@XZ 00000001800081c0 f i Lights.obj
 0001:00007200       ??0CComBSTR@ATL@@QEAA@XZ   0000000180008200 f i Lights.obj
 0001:00007220       ??0CComClassFactory@ATL@@QEAA@XZ 0000000180008220 f i Lights.obj
 0001:00007280       ??0CComModule@ATL@@QEAA@XZ 0000000180008280 f i Lights.obj
 0001:00007320       ??0CComObjectRootBase@ATL@@QEAA@XZ 0000000180008320 f i Lights.obj
 0001:00007340       ??0CComSafeDeleteCriticalSection@ATL@@QEAA@XZ 0000000180008340 f i Lights.obj
 0001:00007380       ??0CComVariant@ATL@@QEAA@XZ 0000000180008380 f i Lights.obj
 0001:000073d0       ??0CExpansionVector@ATL@@QEAA@XZ 00000001800083d0 f i Lights.obj
 0001:00007410       ??0CParseBuffer@CRegParser@ATL@@QEAA@H@Z 0000000180008410 f i Lights.obj
 0001:000074a0       ??0CRegKey@ATL@@QEAA@PEAUHKEY__@@@Z 00000001800084a0 f i Lights.obj
 0001:000074e0       ??0CRegKey@ATL@@QEAA@PEAVCAtlTransactionManager@1@@Z 00000001800084e0 f i Lights.obj
 0001:00007520       ??0CRegObject@ATL@@QEAA@XZ 0000000180008520 f i Lights.obj
 0001:00007580       ??0CRegParser@ATL@@QEAA@PEAVCRegObject@1@@Z 0000000180008580 f i Lights.obj
 0001:000075b0       ??0IClassFactory@@QEAA@XZ  00000001800085b0 f i Lights.obj
 0001:000075f0       ??0IEnumConnectionPoints@@QEAA@XZ 00000001800085f0 f i Lights.obj
 0001:00007630       ??0IEnumConnections@@QEAA@XZ 0000000180008630 f i Lights.obj
 0001:00007670       ??0IRegistrarBase@@QEAA@XZ 0000000180008670 f i Lights.obj
 0001:000076b0       ??0IUnknown@@QEAA@XZ       00000001800086b0 f i Lights.obj
 0001:000076c0       ??0ModuleLockHelper@ATL@@QEAA@XZ 00000001800086c0 f i Lights.obj
 0001:00007700       ??0OposVariant@@QEAA@XZ    0000000180008700 f i Lights.obj
 0001:00007720       ??0Wrapper@?$CSimpleArray@GV?$CSimpleArrayEqualHelper@G@ATL@@@ATL@@QEAA@AEBG@Z 0000000180008720 f i Lights.obj
 0001:00007750       ??0_ATL_MODULE70@ATL@@QEAA@XZ 0000000180008750 f i Lights.obj
 0001:00007790       ??0_ATL_MSG@ATL@@QEAA@PEAUHWND__@@I_K_JH@Z 0000000180008790 f i Lights.obj
 0001:00007820       ??0_U_MENUorID@ATL@@QEAA@I@Z 0000000180008820 f i Lights.obj
 0001:00007840       ??0_U_RECT@ATL@@QEAA@AEAUtagRECT@@@Z 0000000180008840 f i Lights.obj
 0001:00007860       ??0stringdispid@CComTypeInfoHolder@ATL@@QEAA@XZ 0000000180008860 f i Lights.obj
 0001:000078b0       ??1?$CAtlModuleT@VCComModule@ATL@@@ATL@@UEAA@XZ 00000001800088b0 f i Lights.obj
 0001:000078e0       ??1?$CAtlSafeAllocBufferManager@VCCRTAllocator@ATL@@@_ATL_SAFE_ALLOCA_IMPL@ATL@@QEAA@XZ 00000001800088e0 f i Lights.obj
 0001:00007940       ??1?$CAutoVectorPtr@_W@ATL@@QEAA@XZ 0000000180008940 f i Lights.obj
 0001:00007970       ??1?$CComAggObject@VCOPOSLights@@@ATL@@UEAA@XZ 0000000180008970 f i Lights.obj
 0001:000079f0       ??1?$CComContainedObject@VCOPOSLights@@@ATL@@UEAA@XZ 00000001800089f0 f i Lights.obj
 0001:00007a20       ??1?$CComCritSecLock@VCComCriticalSection@ATL@@@ATL@@QEAA@XZ 0000000180008a20 f i Lights.obj
 0001:00007a60       ??1?$CComEnum@UIEnumConnectionPoints@@$1?_GUID_b196b285_bab4_101a_b69c_00aa00341d07@@3U__s_GUID@@BPEAUIConnectionPoint@@V?$_CopyInterface@UIConnectionPoint@@@ATL@@VCComSingleThreadModel@6@@ATL@@UEAA@XZ 0000000180008a60 f i Lights.obj
 0001:00007aa0       ??1?$CComEnum@UIEnumConnections@@$1?_GUID_b196b287_bab4_101a_b69c_00aa00341d07@@3U__s_GUID@@BUtagCONNECTDATA@@V?$_Copy@UtagCONNECTDATA@@@ATL@@VCComSingleThreadModel@6@@ATL@@UEAA@XZ 0000000180008aa0 f i Lights.obj
 0001:00007ae0       ??1?$CComEnumImpl@UIEnumConnectionPoints@@$1?_GUID_b196b285_bab4_101a_b69c_00aa00341d07@@3U__s_GUID@@BPEAUIConnectionPoint@@V?$_CopyInterface@UIConnectionPoint@@@ATL@@@ATL@@UEAA@XZ 0000000180008ae0 f i Lights.obj
 0001:00007b80       ??1?$CComEnumImpl@UIEnumConnections@@$1?_GUID_b196b287_bab4_101a_b69c_00aa00341d07@@3U__s_GUID@@BUtagCONNECTDATA@@V?$_Copy@UtagCONNECTDATA@@@ATL@@@ATL@@UEAA@XZ 0000000180008b80 f i Lights.obj
 0001:00007c20       ??1?$CComObject@V?$CComEnum@UIEnumConnectionPoints@@$1?_GUID_b196b285_bab4_101a_b69c_00aa00341d07@@3U__s_GUID@@BPEAUIConnectionPoint@@V?$_CopyInterface@UIConnectionPoint@@@ATL@@VCComSingleThreadModel@6@@ATL@@@ATL@@UEAA@XZ 0000000180008c20 f i Lights.obj
 0001:00007c90       ??1?$CComObject@V?$CComEnum@UIEnumConnections@@$1?_GUID_b196b287_bab4_101a_b69c_00aa00341d07@@3U__s_GUID@@BUtagCONNECTDATA@@V?$_Copy@UtagCONNECTDATA@@@ATL@@VCComSingleThreadModel@6@@ATL@@@ATL@@UEAA@XZ 0000000180008c90 f i Lights.obj
 0001:00007d00       ??1?$CComObject@VCOPOSLights@@@ATL@@UEAA@XZ 0000000180008d00 f i Lights.obj
 0001:00007eb0       ??1?$CComObjectCached@VCComClassFactory@ATL@@@ATL@@UEAA@XZ 0000000180008eb0 f i Lights.obj
 0001:00007f10       ??1?$CComObjectRootEx@VCComMultiThreadModel@ATL@@@ATL@@QEAA@XZ 0000000180008f10 f i Lights.obj
 0001:00007f50       ??1?$CComObjectRootEx@VCComSingleThreadModel@ATL@@@ATL@@QEAA@XZ 0000000180008f50 f i Lights.obj
 0001:00007f80       ??1?$CComPtr@UIAdviseSink@@@ATL@@QEAA@XZ 0000000180008f80 f i Lights.obj
 0001:00007fb0       ??1?$CComPtr@UICatRegister@@@ATL@@QEAA@XZ 0000000180008fb0 f i Lights.obj
 0001:00007fe0       ??1?$CComPtr@UIConnectionPoint@@@ATL@@QEAA@XZ 0000000180008fe0 f i Lights.obj
 0001:00008010       ??1?$CComPtr@UIConnectionPointContainer@@@ATL@@QEAA@XZ 0000000180009010 f i Lights.obj
 0001:00008040       ??1?$CComPtr@UIDataObject@@@ATL@@QEAA@XZ 0000000180009040 f i Lights.obj
 0001:00008070       ??1?$CComPtr@UIDispatch@@@ATL@@QEAA@XZ 0000000180009070 f i Lights.obj
 0001:000080a0       ??1?$CComPtr@UIOleClientSite@@@ATL@@QEAA@XZ 00000001800090a0 f i Lights.obj
 0001:000080d0       ??1?$CComPtr@UIOleControlSite@@@ATL@@QEAA@XZ 00000001800090d0 f i Lights.obj
 0001:00008100       ??1?$CComPtr@UIOleInPlaceActiveObject@@@ATL@@QEAA@XZ 0000000180009100 f i Lights.obj
 0001:00008130       ??1?$CComPtr@UIOleInPlaceFrame@@@ATL@@QEAA@XZ 0000000180009130 f i Lights.obj
 0001:00008160       ??1?$CComPtr@UIOleInPlaceObject@@@ATL@@QEAA@XZ 0000000180009160 f i Lights.obj
 0001:00008190       ??1?$CComPtr@UIOleInPlaceUIWindow@@@ATL@@QEAA@XZ 0000000180009190 f i Lights.obj
 0001:000081c0       ??1?$CComPtr@UIOleObject@@@ATL@@QEAA@XZ 00000001800091c0 f i Lights.obj
 0001:000081f0       ??1?$CComPtr@UIPersistStream@@@ATL@@QEAA@XZ 00000001800091f0 f i Lights.obj
 0001:00008220       ??1?$CComPtr@UIPersistStreamInit@@@ATL@@QEAA@XZ 0000000180009220 f i Lights.obj
 0001:00008250       ??1?$CComPtr@UIPointerInactive@@@ATL@@QEAA@XZ 0000000180009250 f i Lights.obj
 0001:00008280       ??1?$CComPtr@UIProvideClassInfo2@@@ATL@@QEAA@XZ 0000000180009280 f i Lights.obj
 0001:000082b0       ??1?$CComPtr@UISpecifyPropertyPages@@@ATL@@QEAA@XZ 00000001800092b0 f i Lights.obj
 0001:000082e0       ??1?$CComPtr@UIStream@@@ATL@@QEAA@XZ 00000001800092e0 f i Lights.obj
 0001:00008310       ??1?$CComPtr@UITypeInfo2@@@ATL@@QEAA@XZ 0000000180009310 f i Lights.obj
 0001:00008340       ??1?$CComPtr@UITypeInfo@@@ATL@@QEAA@XZ 0000000180009340 f i Lights.obj
 0001:00008370       ??1?$CComPtr@UITypeLib@@@ATL@@QEAA@XZ 0000000180009370 f i Lights.obj
 0001:000083a0       ??1?$CComPtr@UIUnknown@@@ATL@@QEAA@XZ 00000001800093a0 f i Lights.obj
 0001:000083d0       ??1?$CComPtr@UIViewObjectEx@@@ATL@@QEAA@XZ 00000001800093d0 f i Lights.obj
 0001:00008400       ??1?$CComPtrBase@UIAdviseSink@@@ATL@@QEAA@XZ 0000000180009400 f i Lights.obj
 0001:00008450       ??1?$CComPtrBase@UICatRegister@@@ATL@@QEAA@XZ 0000000180009450 f i Lights.obj
 0001:000084a0       ??1?$CComPtrBase@UIConnectionPoint@@@ATL@@QEAA@XZ 00000001800094a0 f i Lights.obj
 0001:000084f0       ??1?$CComPtrBase@UIConnectionPointContainer@@@ATL@@QEAA@XZ 00000001800094f0 f i Lights.obj
 0001:00008540       ??1?$CComPtrBase@UIDataObject@@@ATL@@QEAA@XZ 0000000180009540 f i Lights.obj
 0001:00008590       ??1?$CComPtrBase@UIDispatch@@@ATL@@QEAA@XZ 0000000180009590 f i Lights.obj
 0001:000085e0       ??1?$CComPtrBase@UIOleClientSite@@@ATL@@QEAA@XZ 00000001800095e0 f i Lights.obj
 0001:00008630       ??1?$CComPtrBase@UIOleControlSite@@@ATL@@QEAA@XZ 0000000180009630 f i Lights.obj
 0001:00008680       ??1?$CComPtrBase@UIOleInPlaceActiveObject@@@ATL@@QEAA@XZ 0000000180009680 f i Lights.obj
 0001:000086d0       ??1?$CComPtrBase@UIOleInPlaceFrame@@@ATL@@QEAA@XZ 00000001800096d0 f i Lights.obj
 0001:00008720       ??1?$CComPtrBase@UIOleInPlaceObject@@@ATL@@QEAA@XZ 0000000180009720 f i Lights.obj
 0001:00008770       ??1?$CComPtrBase@UIOleInPlaceUIWindow@@@ATL@@QEAA@XZ 0000000180009770 f i Lights.obj
 0001:000087c0       ??1?$CComPtrBase@UIOleObject@@@ATL@@QEAA@XZ 00000001800097c0 f i Lights.obj
 0001:00008810       ??1?$CComPtrBase@UIPersistStream@@@ATL@@QEAA@XZ 0000000180009810 f i Lights.obj
 0001:00008860       ??1?$CComPtrBase@UIPersistStreamInit@@@ATL@@QEAA@XZ 0000000180009860 f i Lights.obj
 0001:000088b0       ??1?$CComPtrBase@UIPointerInactive@@@ATL@@QEAA@XZ 00000001800098b0 f i Lights.obj
 0001:00008900       ??1?$CComPtrBase@UIProvideClassInfo2@@@ATL@@QEAA@XZ 0000000180009900 f i Lights.obj
 0001:00008950       ??1?$CComPtrBase@UISpecifyPropertyPages@@@ATL@@QEAA@XZ 0000000180009950 f i Lights.obj
 0001:000089a0       ??1?$CComPtrBase@UIStream@@@ATL@@QEAA@XZ 00000001800099a0 f i Lights.obj
 0001:000089f0       ??1?$CComPtrBase@UITypeInfo2@@@ATL@@QEAA@XZ 00000001800099f0 f i Lights.obj
 0001:00008a40       ??1?$CComPtrBase@UITypeInfo@@@ATL@@QEAA@XZ 0000000180009a40 f i Lights.obj
 0001:00008a90       ??1?$CComPtrBase@UITypeLib@@@ATL@@QEAA@XZ 0000000180009a90 f i Lights.obj
 0001:00008ae0       ??1?$CComPtrBase@UIUnknown@@@ATL@@QEAA@XZ 0000000180009ae0 f i Lights.obj
 0001:00008b30       ??1?$CComPtrBase@UIViewObjectEx@@@ATL@@QEAA@XZ 0000000180009b30 f i Lights.obj
 0001:00008b80       ??1?$CComQIPtr@UIOleControlSite@@$1?_GUID_b196b289_bab4_101a_b69c_00aa00341d07@@3U__s_GUID@@B@ATL@@QEAA@XZ 0000000180009b80 f i Lights.obj
 0001:00008bb0       ??1?$CComQIPtr@UIOleObject@@$1?_GUID_00000112_0000_0000_c000_000000000046@@3U__s_GUID@@B@ATL@@QEAA@XZ 0000000180009bb0 f i Lights.obj
 0001:00008be0       ??1?$CComQIPtr@UISpecifyPropertyPages@@$1?_GUID_b196b28b_bab4_101a_b69c_00aa00341d07@@3U__s_GUID@@B@ATL@@QEAA@XZ 0000000180009be0 f i Lights.obj
 0001:00008c10       ??1?$CSimpleMap@PEA_WPEA_WVCExpansionVectorEqualHelper@ATL@@@ATL@@QEAA@XZ 0000000180009c10 f i Lights.obj
 0001:00008c40       ??1?$CTempBuffer@E$0BAA@VCCRTAllocator@ATL@@@ATL@@QEAA@XZ 0000000180009c40 f i Lights.obj
 0001:00008c90       ??1?$CTempBuffer@_W$0BAA@VCCRTAllocator@ATL@@@ATL@@QEAA@XZ 0000000180009c90 f i Lights.obj
 0001:00008ce0       ??1?$CTempBuffer@_W$0EAA@VCCRTAllocator@ATL@@@ATL@@QEAA@XZ 0000000180009ce0 f i Lights.obj
 0001:00008d30       ??1CAtlModule@ATL@@UEAA@XZ 0000000180009d30 f i Lights.obj
 0001:00008d70       ??1CComAutoDeleteCriticalSection@ATL@@QEAA@XZ 0000000180009d70 f i Lights.obj
 0001:00008da0       ??1CComClassFactory@ATL@@UEAA@XZ 0000000180009da0 f i Lights.obj
 0001:00008df0       ??1CComModule@ATL@@UEAA@XZ 0000000180009df0 f i Lights.obj
 0001:00008e30       ??1CComObjectRootBase@ATL@@QEAA@XZ 0000000180009e30 f i Lights.obj
 0001:00008e40       ??1CComSafeDeleteCriticalSection@ATL@@QEAA@XZ 0000000180009e40 f i Lights.obj
 0001:00008e90       ??1CComVariant@ATL@@QEAA@XZ 0000000180009e90 f i Lights.obj
 0001:00008f10       ??1CExpansionVector@ATL@@QEAA@XZ 0000000180009f10 f i Lights.obj
 0001:00008f50       ??1CParseBuffer@CRegParser@ATL@@QEAA@XZ 0000000180009f50 f i Lights.obj
 0001:00008f90       ??1CRegKey@ATL@@QEAA@XZ    0000000180009f90 f i Lights.obj
 0001:00008fc0       ??1CRegObject@ATL@@UEAA@XZ 0000000180009fc0 f i Lights.obj
 0001:00009010       ??1ModuleLockHelper@ATL@@QEAA@XZ 000000018000a010 f i Lights.obj
 0001:00009050       ??1OposVariant@@QEAA@XZ    000000018000a050 f i Lights.obj
 0001:00009090       ??1_ATL_MODULE70@ATL@@QEAA@XZ 000000018000a090 f i Lights.obj
 0001:000090d0       ??4?$CComPtr@UIAdviseSink@@@ATL@@QEAAPEAUIAdviseSink@@PEAU2@@Z 000000018000a0d0 f i Lights.obj
 0001:00009140       ??4?$CComPtr@UIOleClientSite@@@ATL@@QEAAPEAUIOleClientSite@@PEAU2@@Z 000000018000a140 f i Lights.obj
 0001:000091b0       ??4?$CComPtr@UIUnknown@@@ATL@@QEAAPEAUIUnknown@@PEAU2@@Z 000000018000a1b0 f i Lights.obj
 0001:00009220       ??4?$CComQIPtr@UIOleObject@@$1?_GUID_00000112_0000_0000_c000_000000000046@@3U__s_GUID@@B@ATL@@QEAAPEAUIOleObject@@PEAUIUnknown@@@Z 000000018000a220 f i Lights.obj
 0001:00009280       ??4?$CComQIPtr@UISpecifyPropertyPages@@$1?_GUID_b196b28b_bab4_101a_b69c_00aa00341d07@@3U__s_GUID@@B@ATL@@QEAAPEAUISpecifyPropertyPages@@PEAUIUnknown@@@Z 000000018000a280 f i Lights.obj
 0001:000092e0       ??7?$CComPtrBase@UIOleClientSite@@@ATL@@QEBA_NXZ 000000018000a2e0 f i Lights.obj
 0001:00009330       ??7?$CComPtrBase@UIOleInPlaceSiteWindowless@@@ATL@@QEBA_NXZ 000000018000a330 f i Lights.obj
 0001:00009380       ??7CComBSTR@ATL@@QEBA_NXZ  000000018000a380 f i Lights.obj
 0001:000093d0       ??8?$CComPtrBase@UIAdviseSink@@@ATL@@QEBA_NPEAUIAdviseSink@@@Z 000000018000a3d0 f i Lights.obj
 0001:00009420       ??8?$CComPtrBase@UIConnectionPointContainer@@@ATL@@QEBA_NPEAUIConnectionPointContainer@@@Z 000000018000a420 f i Lights.obj
 0001:00009470       ??8?$CComPtrBase@UIDataAdviseHolder@@@ATL@@QEBA_NPEAUIDataAdviseHolder@@@Z 000000018000a470 f i Lights.obj
 0001:000094c0       ??8?$CComPtrBase@UIOleAdviseHolder@@@ATL@@QEBA_NPEAUIOleAdviseHolder@@@Z 000000018000a4c0 f i Lights.obj
 0001:00009510       ??8?$CComPtrBase@UIOleClientSite@@@ATL@@QEBA_NPEAUIOleClientSite@@@Z 000000018000a510 f i Lights.obj
 0001:00009560       ??8?$CComPtrBase@UIOleControlSite@@@ATL@@QEBA_NPEAUIOleControlSite@@@Z 000000018000a560 f i Lights.obj
 0001:000095b0       ??8?$CComPtrBase@UIOleInPlaceObject@@@ATL@@QEBA_NPEAUIOleInPlaceObject@@@Z 000000018000a5b0 f i Lights.obj
 0001:00009600       ??8?$CComPtrBase@UIOleInPlaceSiteWindowless@@@ATL@@QEBA_NPEAUIOleInPlaceSiteWindowless@@@Z 000000018000a600 f i Lights.obj
 0001:00009650       ??8?$CComPtrBase@UIOleObject@@@ATL@@QEBA_NPEAUIOleObject@@@Z 000000018000a650 f i Lights.obj
 0001:000096a0       ??8?$CComPtrBase@UIPersistStream@@@ATL@@QEBA_NPEAUIPersistStream@@@Z 000000018000a6a0 f i Lights.obj
 0001:000096f0       ??8?$CComPtrBase@UIPersistStreamInit@@@ATL@@QEBA_NPEAUIPersistStreamInit@@@Z 000000018000a6f0 f i Lights.obj
 0001:00009740       ??8?$CComPtrBase@UIPointerInactive@@@ATL@@QEBA_NPEAUIPointerInactive@@@Z 000000018000a740 f i Lights.obj
 0001:00009790       ??8?$CComPtrBase@UIUnknown@@@ATL@@QEBA_NPEAUIUnknown@@@Z 000000018000a790 f i Lights.obj
 0001:000097e0       ??8?$CComPtrBase@UIViewObjectEx@@@ATL@@QEBA_NPEAUIViewObjectEx@@@Z 000000018000a7e0 f i Lights.obj
 0001:00009830       ??8CComBSTR@ATL@@QEBA_NH@Z 000000018000a830 f i Lights.obj
 0001:000098b0       ??9?$CComPtrBase@UIAdviseSink@@@ATL@@QEBA_NPEAUIAdviseSink@@@Z 000000018000a8b0 f i Lights.obj
 0001:00009910       ??9?$CComPtrBase@UIConnectionPointContainer@@@ATL@@QEBA_NPEAUIConnectionPointContainer@@@Z 000000018000a910 f i Lights.obj
 0001:00009970       ??9?$CComPtrBase@UIDataAdviseHolder@@@ATL@@QEBA_NPEAUIDataAdviseHolder@@@Z 000000018000a970 f i Lights.obj
 0001:000099d0       ??9?$CComPtrBase@UIOleAdviseHolder@@@ATL@@QEBA_NPEAUIOleAdviseHolder@@@Z 000000018000a9d0 f i Lights.obj
 0001:00009a30       ??9?$CComPtrBase@UIOleClientSite@@@ATL@@QEBA_NPEAUIOleClientSite@@@Z 000000018000aa30 f i Lights.obj
 0001:00009a90       ??9?$CComPtrBase@UIOleControlSite@@@ATL@@QEBA_NPEAUIOleControlSite@@@Z 000000018000aa90 f i Lights.obj
 0001:00009af0       ??9?$CComPtrBase@UIOleInPlaceObject@@@ATL@@QEBA_NPEAUIOleInPlaceObject@@@Z 000000018000aaf0 f i Lights.obj
 0001:00009b50       ??9?$CComPtrBase@UIOleInPlaceSiteWindowless@@@ATL@@QEBA_NPEAUIOleInPlaceSiteWindowless@@@Z 000000018000ab50 f i Lights.obj
 0001:00009bb0       ??9?$CComPtrBase@UIOleObject@@@ATL@@QEBA_NPEAUIOleObject@@@Z 000000018000abb0 f i Lights.obj
 0001:00009c10       ??9?$CComPtrBase@UIPersistStream@@@ATL@@QEBA_NPEAUIPersistStream@@@Z 000000018000ac10 f i Lights.obj
 0001:00009c70       ??9?$CComPtrBase@UIPersistStreamInit@@@ATL@@QEBA_NPEAUIPersistStreamInit@@@Z 000000018000ac70 f i Lights.obj
 0001:00009cd0       ??9?$CComPtrBase@UIPointerInactive@@@ATL@@QEBA_NPEAUIPointerInactive@@@Z 000000018000acd0 f i Lights.obj
 0001:00009d30       ??9?$CComPtrBase@UIUnknown@@@ATL@@QEBA_NPEAUIUnknown@@@Z 000000018000ad30 f i Lights.obj
 0001:00009d90       ??9?$CComPtrBase@UIViewObjectEx@@@ATL@@QEBA_NPEAUIViewObjectEx@@@Z 000000018000ad90 f i Lights.obj
 0001:00009df0       ??9CComBSTR@ATL@@QEBA_NH@Z 000000018000adf0 f i Lights.obj
 0001:00009e50       ??B?$CComPtrBase@UIAdviseSink@@@ATL@@QEBAPEAUIAdviseSink@@XZ 000000018000ae50 f i Lights.obj
 0001:00009e60       ??B?$CComPtrBase@UIDataAdviseHolder@@@ATL@@QEBAPEAUIDataAdviseHolder@@XZ 000000018000ae60 f i Lights.obj
 0001:00009e70       ??B?$CComPtrBase@UIDataObject@@@ATL@@QEBAPEAUIDataObject@@XZ 000000018000ae70 f i Lights.obj
 0001:00009e80       ??B?$CComPtrBase@UIOleAdviseHolder@@@ATL@@QEBAPEAUIOleAdviseHolder@@XZ 000000018000ae80 f i Lights.obj
 0001:00009e90       ??B?$CComPtrBase@UIOleClientSite@@@ATL@@QEBAPEAUIOleClientSite@@XZ 000000018000ae90 f i Lights.obj
 0001:00009ea0       ??B?$CComPtrBase@UIOleControlSite@@@ATL@@QEBAPEAUIOleControlSite@@XZ 000000018000aea0 f i Lights.obj
 0001:00009eb0       ??B?$CComPtrBase@UIOleInPlaceActiveObject@@@ATL@@QEBAPEAUIOleInPlaceActiveObject@@XZ 000000018000aeb0 f i Lights.obj
 0001:00009ec0       ??B?$CComPtrBase@UIOleInPlaceFrame@@@ATL@@QEBAPEAUIOleInPlaceFrame@@XZ 000000018000aec0 f i Lights.obj
 0001:00009ed0       ??B?$CComPtrBase@UIOleInPlaceSiteWindowless@@@ATL@@QEBAPEAUIOleInPlaceSiteWindowless@@XZ 000000018000aed0 f i Lights.obj
 0001:00009ee0       ??B?$CComPtrBase@UIOleInPlaceUIWindow@@@ATL@@QEBAPEAUIOleInPlaceUIWindow@@XZ 000000018000aee0 f i Lights.obj
 0001:00009ef0       ??B?$CComPtrBase@UIOleObject@@@ATL@@QEBAPEAUIOleObject@@XZ 000000018000aef0 f i Lights.obj
 0001:00009f00       ??B?$CComPtrBase@UIPersistStream@@@ATL@@QEBAPEAUIPersistStream@@XZ 000000018000af00 f i Lights.obj
 0001:00009f10       ??B?$CComPtrBase@UIProvideClassInfo2@@@ATL@@QEBAPEAUIProvideClassInfo2@@XZ 000000018000af10 f i Lights.obj
 0001:00009f20       ??B?$CComPtrBase@UISpecifyPropertyPages@@@ATL@@QEBAPEAUISpecifyPropertyPages@@XZ 000000018000af20 f i Lights.obj
 0001:00009f30       ??B?$CComPtrBase@UIStream@@@ATL@@QEBAPEAUIStream@@XZ 000000018000af30 f i Lights.obj
 0001:00009f40       ??B?$CComPtrBase@UITypeInfo2@@@ATL@@QEBAPEAUITypeInfo2@@XZ 000000018000af40 f i Lights.obj
 0001:00009f50       ??B?$CComPtrBase@UITypeInfo@@@ATL@@QEBAPEAUITypeInfo@@XZ 000000018000af50 f i Lights.obj
 0001:00009f60       ??B?$CComPtrBase@UITypeLib@@@ATL@@QEBAPEAUITypeLib@@XZ 000000018000af60 f i Lights.obj
 0001:00009f70       ??B?$CComPtrBase@UIUnknown@@@ATL@@QEBAPEAUIUnknown@@XZ 000000018000af70 f i Lights.obj
 0001:00009f80       ??B?$CTempBuffer@E$0BAA@VCCRTAllocator@ATL@@@ATL@@QEBAPEAEXZ 000000018000af80 f i Lights.obj
 0001:00009f90       ??B?$CTempBuffer@_W$0BAA@VCCRTAllocator@ATL@@@ATL@@QEBAPEA_WXZ 000000018000af90 f i Lights.obj
 0001:00009fa0       ??B?$CTempBuffer@_W$0EAA@VCCRTAllocator@ATL@@@ATL@@QEBAPEA_WXZ 000000018000afa0 f i Lights.obj
 0001:00009fb0       ??B?$CTraceCategoryEx@$00$0A@@ATL@@QEAAIXZ 000000018000afb0 f i Lights.obj
 0001:00009fc0       ??B?$CTraceCategoryEx@$07$0A@@ATL@@QEAAIXZ 000000018000afc0 f i Lights.obj
 0001:00009fd0       ??B?$CTraceCategoryEx@$0CAAA@$0A@@ATL@@QEAAIXZ 000000018000afd0 f i Lights.obj
 0001:00009fe0       ??B?$CTraceCategoryEx@$0EA@$0A@@ATL@@QEAAIXZ 000000018000afe0 f i Lights.obj
 0001:00009ff0       ??B?$CTraceCategoryEx@$0IAA@$0A@@ATL@@QEAAIXZ 000000018000aff0 f i Lights.obj
 0001:0000a000       ??BCComBSTR@ATL@@QEBAPEA_WXZ 000000018000b000 f i Lights.obj
 0001:0000a010       ??BCRegKey@ATL@@QEBAPEAUHKEY__@@XZ 000000018000b010 f i Lights.obj
 0001:0000a020       ??C?$CComPtrBase@UIAdviseSink@@@ATL@@QEBAPEAV?$_NoAddRefReleaseOnCComPtr@UIAdviseSink@@@1@XZ 000000018000b020 f i Lights.obj
 0001:0000a0a0       ??C?$CComPtrBase@UICatRegister@@@ATL@@QEBAPEAV?$_NoAddRefReleaseOnCComPtr@UICatRegister@@@1@XZ 000000018000b0a0 f i Lights.obj
 0001:0000a120       ??C?$CComPtrBase@UIConnectionPoint@@@ATL@@QEBAPEAV?$_NoAddRefReleaseOnCComPtr@UIConnectionPoint@@@1@XZ 000000018000b120 f i Lights.obj
 0001:0000a1a0       ??C?$CComPtrBase@UIConnectionPointContainer@@@ATL@@QEBAPEAV?$_NoAddRefReleaseOnCComPtr@UIConnectionPointContainer@@@1@XZ 000000018000b1a0 f i Lights.obj
 0001:0000a220       ??C?$CComPtrBase@UIDataAdviseHolder@@@ATL@@QEBAPEAV?$_NoAddRefReleaseOnCComPtr@UIDataAdviseHolder@@@1@XZ 000000018000b220 f i Lights.obj
 0001:0000a2a0       ??C?$CComPtrBase@UIOleAdviseHolder@@@ATL@@QEBAPEAV?$_NoAddRefReleaseOnCComPtr@UIOleAdviseHolder@@@1@XZ 000000018000b2a0 f i Lights.obj
 0001:0000a320       ??C?$CComPtrBase@UIOleClientSite@@@ATL@@QEBAPEAV?$_NoAddRefReleaseOnCComPtr@UIOleClientSite@@@1@XZ 000000018000b320 f i Lights.obj
 0001:0000a3a0       ??C?$CComPtrBase@UIOleControlSite@@@ATL@@QEBAPEAV?$_NoAddRefReleaseOnCComPtr@UIOleControlSite@@@1@XZ 000000018000b3a0 f i Lights.obj
 0001:0000a420       ??C?$CComPtrBase@UIOleInPlaceFrame@@@ATL@@QEBAPEAV?$_NoAddRefReleaseOnCComPtr@UIOleInPlaceFrame@@@1@XZ 000000018000b420 f i Lights.obj
 0001:0000a4a0       ??C?$CComPtrBase@UIOleInPlaceObject@@@ATL@@QEBAPEAV?$_NoAddRefReleaseOnCComPtr@UIOleInPlaceObject@@@1@XZ 000000018000b4a0 f i Lights.obj
 0001:0000a520       ??C?$CComPtrBase@UIOleInPlaceSiteWindowless@@@ATL@@QEBAPEAV?$_NoAddRefReleaseOnCComPtr@UIOleInPlaceSiteWindowless@@@1@XZ 000000018000b520 f i Lights.obj
 0001:0000a5a0       ??C?$CComPtrBase@UIOleInPlaceUIWindow@@@ATL@@QEBAPEAV?$_NoAddRefReleaseOnCComPtr@UIOleInPlaceUIWindow@@@1@XZ 000000018000b5a0 f i Lights.obj
 0001:0000a620       ??C?$CComPtrBase@UIOleObject@@@ATL@@QEBAPEAV?$_NoAddRefReleaseOnCComPtr@UIOleObject@@@1@XZ 000000018000b620 f i Lights.obj
 0001:0000a6a0       ??C?$CComPtrBase@UIPersistStream@@@ATL@@QEBAPEAV?$_NoAddRefReleaseOnCComPtr@UIPersistStream@@@1@XZ 000000018000b6a0 f i Lights.obj
 0001:0000a720       ??C?$CComPtrBase@UIPersistStreamInit@@@ATL@@QEBAPEAV?$_NoAddRefReleaseOnCComPtr@UIPersistStreamInit@@@1@XZ 000000018000b720 f i Lights.obj
 0001:0000a7a0       ??C?$CComPtrBase@UIPointerInactive@@@ATL@@QEBAPEAV?$_NoAddRefReleaseOnCComPtr@UIPointerInactive@@@1@XZ 000000018000b7a0 f i Lights.obj
 0001:0000a820       ??C?$CComPtrBase@UIProvideClassInfo2@@@ATL@@QEBAPEAV?$_NoAddRefReleaseOnCComPtr@UIProvideClassInfo2@@@1@XZ 000000018000b820 f i Lights.obj
 0001:0000a8a0       ??C?$CComPtrBase@UISpecifyPropertyPages@@@ATL@@QEBAPEAV?$_NoAddRefReleaseOnCComPtr@UISpecifyPropertyPages@@@1@XZ 000000018000b8a0 f i Lights.obj
 0001:0000a920       ??C?$CComPtrBase@UITypeInfo@@@ATL@@QEBAPEAV?$_NoAddRefReleaseOnCComPtr@UITypeInfo@@@1@XZ 000000018000b920 f i Lights.obj
 0001:0000a9a0       ??C?$CComPtrBase@UITypeLib@@@ATL@@QEBAPEAV?$_NoAddRefReleaseOnCComPtr@UITypeLib@@@1@XZ 000000018000b9a0 f i Lights.obj
 0001:0000aa20       ??C?$CComPtrBase@UIUnknown@@@ATL@@QEBAPEAV?$_NoAddRefReleaseOnCComPtr@UIUnknown@@@1@XZ 000000018000ba20 f i Lights.obj
 0001:0000aaa0       ??C?$CComPtrBase@UIViewObjectEx@@@ATL@@QEBAPEAV?$_NoAddRefReleaseOnCComPtr@UIViewObjectEx@@@1@XZ 000000018000baa0 f i Lights.obj
 0001:0000ab20       ??I?$CComPtrBase@UICatRegister@@@ATL@@QEAAPEAPEAUICatRegister@@XZ 000000018000bb20 f i Lights.obj
 0001:0000ab90       ??I?$CComPtrBase@UIConnectionPoint@@@ATL@@QEAAPEAPEAUIConnectionPoint@@XZ 000000018000bb90 f i Lights.obj
 0001:0000ac00       ??I?$CComPtrBase@UIConnectionPointContainer@@@ATL@@QEAAPEAPEAUIConnectionPointContainer@@XZ 000000018000bc00 f i Lights.obj
 0001:0000ac70       ??I?$CComPtrBase@UIDataAdviseHolder@@@ATL@@QEAAPEAPEAUIDataAdviseHolder@@XZ 000000018000bc70 f i Lights.obj
 0001:0000ace0       ??I?$CComPtrBase@UIDataObject@@@ATL@@QEAAPEAPEAUIDataObject@@XZ 000000018000bce0 f i Lights.obj
 0001:0000ad50       ??I?$CComPtrBase@UIDispatch@@@ATL@@QEAAPEAPEAUIDispatch@@XZ 000000018000bd50 f i Lights.obj
 0001:0000adc0       ??I?$CComPtrBase@UIOleAdviseHolder@@@ATL@@QEAAPEAPEAUIOleAdviseHolder@@XZ 000000018000bdc0 f i Lights.obj
 0001:0000ae30       ??I?$CComPtrBase@UIOleControlSite@@@ATL@@QEAAPEAPEAUIOleControlSite@@XZ 000000018000be30 f i Lights.obj
 0001:0000aea0       ??I?$CComPtrBase@UIOleInPlaceActiveObject@@@ATL@@QEAAPEAPEAUIOleInPlaceActiveObject@@XZ 000000018000bea0 f i Lights.obj
 0001:0000af10       ??I?$CComPtrBase@UIOleInPlaceFrame@@@ATL@@QEAAPEAPEAUIOleInPlaceFrame@@XZ 000000018000bf10 f i Lights.obj
 0001:0000af80       ??I?$CComPtrBase@UIOleInPlaceObject@@@ATL@@QEAAPEAPEAUIOleInPlaceObject@@XZ 000000018000bf80 f i Lights.obj
 0001:0000aff0       ??I?$CComPtrBase@UIOleInPlaceSiteWindowless@@@ATL@@QEAAPEAPEAUIOleInPlaceSiteWindowless@@XZ 000000018000bff0 f i Lights.obj
 0001:0000b060       ??I?$CComPtrBase@UIOleInPlaceUIWindow@@@ATL@@QEAAPEAPEAUIOleInPlaceUIWindow@@XZ 000000018000c060 f i Lights.obj
 0001:0000b0d0       ??I?$CComPtrBase@UIOleObject@@@ATL@@QEAAPEAPEAUIOleObject@@XZ 000000018000c0d0 f i Lights.obj
 0001:0000b140       ??I?$CComPtrBase@UIPersistStream@@@ATL@@QEAAPEAPEAUIPersistStream@@XZ 000000018000c140 f i Lights.obj
 0001:0000b1b0       ??I?$CComPtrBase@UIPointerInactive@@@ATL@@QEAAPEAPEAUIPointerInactive@@XZ 000000018000c1b0 f i Lights.obj
 0001:0000b220       ??I?$CComPtrBase@UIProvideClassInfo2@@@ATL@@QEAAPEAPEAUIProvideClassInfo2@@XZ 000000018000c220 f i Lights.obj
 0001:0000b290       ??I?$CComPtrBase@UIStream@@@ATL@@QEAAPEAPEAUIStream@@XZ 000000018000c290 f i Lights.obj
 0001:0000b300       ??I?$CComPtrBase@UITypeInfo2@@@ATL@@QEAAPEAPEAUITypeInfo2@@XZ 000000018000c300 f i Lights.obj
 0001:0000b370       ??I?$CComPtrBase@UITypeInfo@@@ATL@@QEAAPEAPEAUITypeInfo@@XZ 000000018000c370 f i Lights.obj
 0001:0000b3e0       ??I?$CComPtrBase@UITypeLib@@@ATL@@QEAAPEAPEAUITypeLib@@XZ 000000018000c3e0 f i Lights.obj
 0001:0000b450       ??I?$CComPtrBase@UIUnknown@@@ATL@@QEAAPEAPEAUIUnknown@@XZ 000000018000c450 f i Lights.obj
 0001:0000b4c0       ??I?$CComPtrBase@UIViewObjectEx@@@ATL@@QEAAPEAPEAUIViewObjectEx@@XZ 000000018000c4c0 f i Lights.obj
 0001:0000b530       ??ICComBSTR@ATL@@QEAAPEAPEA_WXZ 000000018000c530 f i Lights.obj
 0001:0000b540       ??_E?$CComContainedObject@VCOPOSLights@@@ATL@@W7EAAPEAXI@Z 000000018000c540 f i Lights.obj
 0001:0000b54c       ??_E?$CComContainedObject@VCOPOSLights@@@ATL@@WHA@EAAPEAXI@Z 000000018000c54c f i Lights.obj
 0001:0000b558       ??_E?$CComObject@VCOPOSLights@@@ATL@@W7EAAPEAXI@Z 000000018000c558 f i Lights.obj
 0001:0000b564       ??_E?$CComObject@VCOPOSLights@@@ATL@@WHA@EAAPEAXI@Z 000000018000c564 f i Lights.obj
 0001:0000b570       ??_E?$CComAggObject@VCOPOSLights@@@ATL@@UEAAPEAXI@Z 000000018000c570 f i Lights.obj
 0001:0000b570       ??_G?$CComAggObject@VCOPOSLights@@@ATL@@UEAAPEAXI@Z 000000018000c570 f i Lights.obj
 0001:0000b5d0       ??_E?$CComContainedObject@VCOPOSLights@@@ATL@@UEAAPEAXI@Z 000000018000c5d0 f i Lights.obj
 0001:0000b5d0       ??_G?$CComContainedObject@VCOPOSLights@@@ATL@@UEAAPEAXI@Z 000000018000c5d0 f i Lights.obj
 0001:0000b630       ??_E?$CComObject@V?$CComEnum@UIEnumConnectionPoints@@$1?_GUID_b196b285_bab4_101a_b69c_00aa00341d07@@3U__s_GUID@@BPEAUIConnectionPoint@@V?$_CopyInterface@UIConnectionPoint@@@ATL@@VCComSingleThreadModel@6@@ATL@@@ATL@@UEAAPEAXI@Z 000000018000c630 f i Lights.obj
 0001:0000b630       ??_G?$CComObject@V?$CComEnum@UIEnumConnectionPoints@@$1?_GUID_b196b285_bab4_101a_b69c_00aa00341d07@@3U__s_GUID@@BPEAUIConnectionPoint@@V?$_CopyInterface@UIConnectionPoint@@@ATL@@VCComSingleThreadModel@6@@ATL@@@ATL@@UEAAPEAXI@Z 000000018000c630 f i Lights.obj
 0001:0000b690       ??_E?$CComObject@V?$CComEnum@UIEnumConnections@@$1?_GUID_b196b287_bab4_101a_b69c_00aa00341d07@@3U__s_GUID@@BUtagCONNECTDATA@@V?$_Copy@UtagCONNECTDATA@@@ATL@@VCComSingleThreadModel@6@@ATL@@@ATL@@UEAAPEAXI@Z 000000018000c690 f i Lights.obj
 0001:0000b690       ??_G?$CComObject@V?$CComEnum@UIEnumConnections@@$1?_GUID_b196b287_bab4_101a_b69c_00aa00341d07@@3U__s_GUID@@BUtagCONNECTDATA@@V?$_Copy@UtagCONNECTDATA@@@ATL@@VCComSingleThreadModel@6@@ATL@@@ATL@@UEAAPEAXI@Z 000000018000c690 f i Lights.obj
 0001:0000b6f0       ??_E?$CComObject@VCOPOSLights@@@ATL@@UEAAPEAXI@Z 000000018000c6f0 f i Lights.obj
 0001:0000b6f0       ??_G?$CComObject@VCOPOSLights@@@ATL@@UEAAPEAXI@Z 000000018000c6f0 f i Lights.obj
 0001:0000b750       ??_G?$CComObjectCached@VCComClassFactory@ATL@@@ATL@@UEAAPEAXI@Z 000000018000c750 f i Lights.obj
 0001:0000b750       ??_E?$CComObjectCached@VCComClassFactory@ATL@@@ATL@@UEAAPEAXI@Z 000000018000c750 f i Lights.obj
 0001:0000b7b0       ??_GCComClassFactory@ATL@@UEAAPEAXI@Z 000000018000c7b0 f i Lights.obj
 0001:0000b7b0       ??_ECComClassFactory@ATL@@UEAAPEAXI@Z 000000018000c7b0 f i Lights.obj
 0001:0000b810       ??_ECComModule@ATL@@UEAAPEAXI@Z 000000018000c810 f i Lights.obj
 0001:0000b810       ??_GCComModule@ATL@@UEAAPEAXI@Z 000000018000c810 f i Lights.obj
 0001:0000b870       ??_ECRegObject@ATL@@UEAAPEAXI@Z 000000018000c870 f i Lights.obj
 0001:0000b870       ??_GCRegObject@ATL@@UEAAPEAXI@Z 000000018000c870 f i Lights.obj
 0001:0000b8d0       ?Add@?$CSimpleArray@GV?$CSimpleArrayEqualHelper@G@ATL@@@ATL@@QEAAHAEBG@Z 000000018000c8d0 f i Lights.obj
 0001:0000ba70       ?Add@?$CSimpleMap@PEA_WPEA_WVCExpansionVectorEqualHelper@ATL@@@ATL@@QEAAHAEBQEA_W0@Z 000000018000ca70 f i Lights.obj
 0001:0000bb60       ?Add@CComDynamicUnkArray@ATL@@QEAAKPEAUIUnknown@@@Z 000000018000cb60 f i Lights.obj
 0001:0000bd40       ?Add@CExpansionVector@ATL@@QEAAHPEB_W0@Z 000000018000cd40 f i Lights.obj
 0001:0000c070       ?AddChar@CParseBuffer@CRegParser@ATL@@QEAAHPEB_W@Z 000000018000d070 f i Lights.obj
 0001:0000c0c0       ?AddCommonRGSReplacements@?$CAtlModuleT@VCComModule@ATL@@@ATL@@UEAAJPEAUIRegistrarBase@@@Z 000000018000d0c0 f i Lights.obj
 0001:0000c120       ?AddCreateWndData@CAtlWinModule@ATL@@QEAAXPEAU_AtlCreateWndData@2@PEAX@Z 000000018000d120 f i Lights.obj
 0001:0000c170       ?AddRef@?$CComAggObject@VCOPOSLights@@@ATL@@UEAAKXZ 000000018000d170 f i Lights.obj
 0001:0000c1b0       ?AddRef@?$CComContainedObject@VCOPOSLights@@@ATL@@UEAAKXZ 000000018000d1b0 f i Lights.obj
 0001:0000c1e8       ?AddRef@?$CComContainedObject@VCOPOSLights@@@ATL@@WBAA@EAAKXZ 000000018000d1e8 f i Lights.obj
 0001:0000c1f4       ?AddRef@?$CComContainedObject@VCOPOSLights@@@ATL@@WBAI@EAAKXZ 000000018000d1f4 f i Lights.obj
 0001:0000c200       ?AddRef@?$CComContainedObject@VCOPOSLights@@@ATL@@WBBA@EAAKXZ 000000018000d200 f i Lights.obj
 0001:0000c20c       ?AddRef@?$CComContainedObject@VCOPOSLights@@@ATL@@WBBI@EAAKXZ 000000018000d20c f i Lights.obj
 0001:0000c218       ?AddRef@?$CComContainedObject@VCOPOSLights@@@ATL@@WBCI@EAAKXZ 000000018000d218 f i Lights.obj
 0001:0000c224       ?AddRef@?$CComContainedObject@VCOPOSLights@@@ATL@@WBEA@EAAKXZ 000000018000d224 f i Lights.obj
 0001:0000c230       ?AddRef@?$CComContainedObject@VCOPOSLights@@@ATL@@WLI@EAAKXZ 000000018000d230 f i Lights.obj
 0001:0000c23c       ?AddRef@?$CComContainedObject@VCOPOSLights@@@ATL@@WMA@EAAKXZ 000000018000d23c f i Lights.obj
 0001:0000c248       ?AddRef@?$CComContainedObject@VCOPOSLights@@@ATL@@WMI@EAAKXZ 000000018000d248 f i Lights.obj
 0001:0000c254       ?AddRef@?$CComContainedObject@VCOPOSLights@@@ATL@@WNA@EAAKXZ 000000018000d254 f i Lights.obj
 0001:0000c260       ?AddRef@?$CComContainedObject@VCOPOSLights@@@ATL@@WNI@EAAKXZ 000000018000d260 f i Lights.obj
 0001:0000c26c       ?AddRef@?$CComContainedObject@VCOPOSLights@@@ATL@@WOA@EAAKXZ 000000018000d26c f i Lights.obj
 0001:0000c278       ?AddRef@?$CComContainedObject@VCOPOSLights@@@ATL@@WOI@EAAKXZ 000000018000d278 f i Lights.obj
 0001:0000c284       ?AddRef@?$CComContainedObject@VCOPOSLights@@@ATL@@WPA@EAAKXZ 000000018000d284 f i Lights.obj
 0001:0000c290       ?AddRef@?$CComContainedObject@VCOPOSLights@@@ATL@@WPI@EAAKXZ 000000018000d290 f i Lights.obj
 0001:0000c2a0       ?AddRef@?$CComObject@V?$CComEnum@UIEnumConnectionPoints@@$1?_GUID_b196b285_bab4_101a_b69c_00aa00341d07@@3U__s_GUID@@BPEAUIConnectionPoint@@V?$_CopyInterface@UIConnectionPoint@@@ATL@@VCComSingleThreadModel@6@@ATL@@@ATL@@UEAAKXZ 000000018000d2a0 f i Lights.obj
 0001:0000c2e0       ?AddRef@?$CComObject@V?$CComEnum@UIEnumConnections@@$1?_GUID_b196b287_bab4_101a_b69c_00aa00341d07@@3U__s_GUID@@BUtagCONNECTDATA@@V?$_Copy@UtagCONNECTDATA@@@ATL@@VCComSingleThreadModel@6@@ATL@@@ATL@@UEAAKXZ 000000018000d2e0 f i Lights.obj
 0001:0000c320       ?AddRef@?$CComObject@VCOPOSLights@@@ATL@@UEAAKXZ 000000018000d320 f i Lights.obj
 0001:0000c358       ?AddRef@?$CComObject@VCOPOSLights@@@ATL@@WBAA@EAAKXZ 000000018000d358 f i Lights.obj
 0001:0000c364       ?AddRef@?$CComObject@VCOPOSLights@@@ATL@@WBAI@EAAKXZ 000000018000d364 f i Lights.obj
 0001:0000c370       ?AddRef@?$CComObject@VCOPOSLights@@@ATL@@WBBA@EAAKXZ 000000018000d370 f i Lights.obj
 0001:0000c37c       ?AddRef@?$CComObject@VCOPOSLights@@@ATL@@WBBI@EAAKXZ 000000018000d37c f i Lights.obj
 0001:0000c388       ?AddRef@?$CComObject@VCOPOSLights@@@ATL@@WBCI@EAAKXZ 000000018000d388 f i Lights.obj
 0001:0000c394       ?AddRef@?$CComObject@VCOPOSLights@@@ATL@@WBEA@EAAKXZ 000000018000d394 f i Lights.obj
 0001:0000c3a0       ?AddRef@?$CComObject@VCOPOSLights@@@ATL@@WLI@EAAKXZ 000000018000d3a0 f i Lights.obj
 0001:0000c3ac       ?AddRef@?$CComObject@VCOPOSLights@@@ATL@@WMA@EAAKXZ 000000018000d3ac f i Lights.obj
 0001:0000c3b8       ?AddRef@?$CComObject@VCOPOSLights@@@ATL@@WMI@EAAKXZ 000000018000d3b8 f i Lights.obj
 0001:0000c3c4       ?AddRef@?$CComObject@VCOPOSLights@@@ATL@@WNA@EAAKXZ 000000018000d3c4 f i Lights.obj
 0001:0000c3d0       ?AddRef@?$CComObject@VCOPOSLights@@@ATL@@WNI@EAAKXZ 000000018000d3d0 f i Lights.obj
 0001:0000c3dc       ?AddRef@?$CComObject@VCOPOSLights@@@ATL@@WOA@EAAKXZ 000000018000d3dc f i Lights.obj
 0001:0000c3e8       ?AddRef@?$CComObject@VCOPOSLights@@@ATL@@WOI@EAAKXZ 000000018000d3e8 f i Lights.obj
 0001:0000c3f4       ?AddRef@?$CComObject@VCOPOSLights@@@ATL@@WPA@EAAKXZ 000000018000d3f4 f i Lights.obj
 0001:0000c400       ?AddRef@?$CComObject@VCOPOSLights@@@ATL@@WPI@EAAKXZ 000000018000d400 f i Lights.obj
 0001:0000c410       ?AddRef@?$CComObjectCached@VCComClassFactory@ATL@@@ATL@@UEAAKXZ 000000018000d410 f i Lights.obj
 0001:0000c470       ?AddRef@CRegObject@ATL@@UEAAKXZ 000000018000d470 f i Lights.obj
 0001:0000c4e0       ?AddReplacement@CRegObject@ATL@@UEAAJPEB_W0@Z 000000018000d4e0 f i Lights.obj
 0001:0000c610       ?AddString@CParseBuffer@CRegParser@ATL@@QEAAHPEB_W@Z 000000018000d610 f i Lights.obj
 0001:0000c700       ?AddTermFunc@CAtlModule@ATL@@QEAAJP6AX_K@Z0@Z 000000018000d700 f i Lights.obj
 0001:0000c770       ?AddValue@CRegParser@ATL@@IEAAJAEAVCRegKey@2@PEB_WPEA_W@Z 000000018000d770 f i Lights.obj
 0001:0000d040       ?Advise@?$CProxy_IOPOSEvents@VCOPOSLights@@@@UEAAJPEAUIUnknown@@PEAK@Z 000000018000e040 f i Lights.obj
 0001:0000d0b0       ?Advise@?$IConnectionPointImpl@VCOPOSLights@@$1?DIID__IOPOSLightsEvents@@3U_GUID@@BVCComDynamicUnkArray@ATL@@@ATL@@UEAAJPEAUIUnknown@@PEAK@Z 000000018000e0b0 f i Lights.obj
 0001:0000d2b0       ?Advise@?$IConnectionPointImpl@VCOPOSLights@@$1?IID_IPropertyNotifySink@@3U_GUID@@BVCComDynamicUnkArray@ATL@@@ATL@@UEAAJPEAUIUnknown@@PEAK@Z 000000018000e2b0 f i Lights.obj
 0001:0000d4b0       ?Advise@?$IOleObjectImpl@VCOPOSLights@@@ATL@@UEAAJPEAUIAdviseSink@@PEAK@Z 000000018000e4b0 f i Lights.obj
 0001:0000d570       ?Allocate@?$CAtlSafeAllocBufferManager@VCCRTAllocator@ATL@@@_ATL_SAFE_ALLOCA_IMPL@ATL@@QEAAPEAX_K@Z 000000018000e570 f i Lights.obj
 0001:0000d5f0       ?Allocate@?$CTempBuffer@E$0BAA@VCCRTAllocator@ATL@@@ATL@@QEAAPEAE_K@Z 000000018000e5f0 f i Lights.obj
 0001:0000d640       ?Allocate@?$CTempBuffer@_W$0BAA@VCCRTAllocator@ATL@@@ATL@@QEAAPEA_W_K@Z 000000018000e640 f i Lights.obj
 0001:0000d690       ?Allocate@?$CTempBuffer@_W$0EAA@VCCRTAllocator@ATL@@@ATL@@QEAAPEA_W_K@Z 000000018000e690 f i Lights.obj
 0001:0000d6e0       ?AllocateBytes@?$CTempBuffer@E$0BAA@VCCRTAllocator@ATL@@@ATL@@QEAAPEAE_K@Z 000000018000e6e0 f i Lights.obj
 0001:0000d790       ?AllocateBytes@?$CTempBuffer@_W$0BAA@VCCRTAllocator@ATL@@@ATL@@QEAAPEA_W_K@Z 000000018000e790 f i Lights.obj
 0001:0000d840       ?AllocateBytes@?$CTempBuffer@_W$0EAA@VCCRTAllocator@ATL@@@ATL@@QEAAPEA_W_K@Z 000000018000e840 f i Lights.obj
 0001:0000d8f0       ?AllocateHeap@?$CTempBuffer@E$0BAA@VCCRTAllocator@ATL@@@ATL@@AEAAX_K@Z 000000018000e8f0 f i Lights.obj
 0001:0000d950       ?AllocateHeap@?$CTempBuffer@_W$0BAA@VCCRTAllocator@ATL@@@ATL@@AEAAX_K@Z 000000018000e950 f i Lights.obj
 0001:0000d9b0       ?AllocateHeap@?$CTempBuffer@_W$0EAA@VCCRTAllocator@ATL@@@ATL@@AEAAX_K@Z 000000018000e9b0 f i Lights.obj
 0001:0000da10       ?Append@CParseBuffer@CRegParser@ATL@@QEAAHPEB_WH@Z 000000018000ea10 f i Lights.obj
 0001:0000dc40       ?AtlCallTermFunc@ATL@@YAXPEAU_ATL_MODULE70@1@@Z 000000018000ec40 f i Lights.obj
 0001:0000dcf0       ?AtlCoTaskMemCAlloc@ATL@@YAPEAXKK@Z 000000018000ecf0 f i Lights.obj
 0001:0000dd70       ?AtlCoTaskMemRecalloc@ATL@@YAPEAXPEAXKK@Z 000000018000ed70 f i Lights.obj
 0001:0000ddf0       ?AtlComModuleGetClassObject@ATL@@YAJPEAU_ATL_COM_MODULE70@1@AEBU_GUID@@1PEAPEAX@Z 000000018000edf0 f i Lights.obj
 0001:0000e120       ?AtlComModuleRegisterServer@ATL@@YAJPEAU_ATL_COM_MODULE70@1@HPEBU_GUID@@@Z 000000018000f120 f i Lights.obj
 0001:0000e320       ?AtlComModuleUnregisterServer@ATL@@YAJPEAU_ATL_COM_MODULE70@1@HPEBU_GUID@@@Z 000000018000f320 f i Lights.obj
 0001:0000e480       ?AtlComQIPtrAssign2@ATL@@YAXPEAPEAUIUnknown@@PEAU2@AEBU_GUID@@@Z 000000018000f480 f i Lights.obj
 0001:0000e510       ?AtlCreateTargetDC@ATL@@YAPEAUHDC__@@PEAU2@PEAUtagDVTARGETDEVICE@@@Z 000000018000f510 f i Lights.obj
 0001:0000e740       ?AtlCrtErrorCheck@ATL@@YAHH@Z 000000018000f740 f i Lights.obj
 0001:0000e7c0       ?AtlGetPerUserRegistration@ATL@@YAJPEA_N@Z 000000018000f7c0 f i Lights.obj
 0001:0000e7f0       ?AtlHiMetricToPixel@ATL@@YAXPEBUtagSIZE@@PEAU2@@Z 000000018000f7f0 f i Lights.obj
 0001:0000e9f0       ?AtlHresultFromLastError@ATL@@YAJXZ 000000018000f9f0 f i Lights.obj
 0001:0000ea20       ?AtlHresultFromWin32@ATL@@YAJK@Z 000000018000fa20 f i Lights.obj
 0001:0000ea50       ?AtlIPersistStreamInit_Load@ATL@@YAJPEAUIStream@@PEBUATL_PROPMAP_ENTRY@1@PEAXPEAUIUnknown@@@Z 000000018000fa50 f i Lights.obj
 0001:0000f0c0       ?AtlIPersistStreamInit_Save@ATL@@YAJPEAUIStream@@HPEBUATL_PROPMAP_ENTRY@1@PEAXPEAUIUnknown@@@Z 00000001800100c0 f i Lights.obj
 0001:0000f650       ?AtlInternalOleLoadFromStream@ATL@@YAJPEAUIStream@@AEBU_GUID@@PEAPEAXTClassesAllowedInStream@1@K@Z 0000000180010650 f i Lights.obj
 0001:0000f990       ?AtlInternalQueryInterface@ATL@@YAJPEAXPEBU_ATL_INTMAP_ENTRY@1@AEBU_GUID@@PEAPEAX@Z 0000000180010990 f i Lights.obj
 0001:0000fc50       ?AtlLoadTypeLib@ATL@@YAJPEAUHINSTANCE__@@PEB_WPEAPEA_WPEAPEAUITypeLib@@@Z 0000000180010c50 f i Lights.obj
 0001:00010120       ?AtlModuleAddTermFunc@ATL@@YAJPEAU_ATL_MODULE70@1@P6AX_K@Z1@Z 0000000180011120 f i Lights.obj
 0001:000102f0       ?AtlRegisterClassCategoriesHelper@ATL@@YAJAEBU_GUID@@PEBU_ATL_CATMAP_ENTRY@1@H@Z 00000001800112f0 f i Lights.obj
 0001:00010ac0       ?AtlRegisterTypeLib@ATL@@YAJPEAUHINSTANCE__@@PEB_W@Z 0000000180011ac0 f i Lights.obj
 0001:00010e20       ?AtlThrowImpl@ATL@@YAXJ@Z  0000000180011e20 f i Lights.obj
 0001:00010f00       ?AtlUnRegisterTypeLib@ATL@@YAJPEAUHINSTANCE__@@PEB_W@Z 0000000180011f00 f i Lights.obj
 0001:00011130       ?AtlWinModuleAddCreateWndData@ATL@@YAXPEAU_ATL_WIN_MODULE70@1@PEAU_AtlCreateWndData@1@PEAX@Z 0000000180012130 f i Lights.obj
 0001:00011320       ?AtlWinModuleExtractCreateWndData@ATL@@YAPEAXPEAU_ATL_WIN_MODULE70@1@@Z 0000000180012320 f i Lights.obj
 0001:00011520       ?AtlWinModuleRegisterClassExW@ATL@@YAGPEAU_ATL_WIN_MODULE70@1@PEBUtagWNDCLASSEXW@@@Z 0000000180012520 f i Lights.obj
 0001:000115f0       ?AtlWinModuleRegisterWndClassInfoW@ATL@@YAGPEAU_ATL_WIN_MODULE70@1@PEAU_ATL_BASE_MODULE70@1@PEAU_ATL_WNDCLASSINFOW@1@PEAP6A_JPEAUHWND__@@I_K_J@Z@Z 00000001800125f0 f i Lights.obj
 0001:00011660       ?Attach@?$CAutoVectorPtr@_W@ATL@@QEAAXPEA_W@Z 0000000180012660 f i Lights.obj
 0001:000116f0       ?Attach@CComBSTR@ATL@@QEAAXPEA_W@Z 00000001800126f0 f i Lights.obj
 0001:00011750       ?Attach@CRegKey@ATL@@QEAAXPEAUHKEY__@@@Z 0000000180012750 f i Lights.obj
 0001:000117f0       ?CanForceRemoveKey@CRegParser@ATL@@IEAAHPEB_W@Z 00000001800127f0 f i Lights.obj
 0001:00011860       ?ChToByte@CRegParser@ATL@@KAE_W@Z 0000000180012860 f i Lights.obj
 0001:000119c0       ?ChangeType@CComVariant@ATL@@QEAAJGPEBUtagVARIANT@@@Z 00000001800129c0 f i Lights.obj
 0001:00011a30       ?Cleanup@CComTypeInfoHolder@ATL@@SAX_K@Z 0000000180012a30 f i Lights.obj
 0001:00011b20       ?Clear@CComVariant@ATL@@QEAAJXZ 0000000180012b20 f i Lights.obj
 0001:00011b50       ?ClearReplacements@CExpansionVector@ATL@@QEAAJXZ 0000000180012b50 f i Lights.obj
 0001:00011bf0       ?ClearReplacements@CRegObject@ATL@@UEAAJXZ 0000000180012bf0 f i Lights.obj
 0001:00011c50       ?Clone@?$CComEnumImpl@UIEnumConnectionPoints@@$1?_GUID_b196b285_bab4_101a_b69c_00aa00341d07@@3U__s_GUID@@BPEAUIConnectionPoint@@V?$_CopyInterface@UIConnectionPoint@@@ATL@@@ATL@@UEAAJPEAPEAUIEnumConnectionPoints@@@Z 0000000180012c50 f i Lights.obj
 0001:00011e40       ?Clone@?$CComEnumImpl@UIEnumConnections@@$1?_GUID_b196b287_bab4_101a_b69c_00aa00341d07@@3U__s_GUID@@BUtagCONNECTDATA@@V?$_Copy@UtagCONNECTDATA@@@ATL@@@ATL@@UEAAJPEAPEAUIEnumConnections@@@Z 0000000180012e40 f i Lights.obj
 0001:00012030       ?Close@?$IOleObjectImpl@VCOPOSLights@@@ATL@@UEAAJK@Z 0000000180013030 f i Lights.obj
 0001:000120e0       ?Close@CRegKey@ATL@@QEAAJXZ 00000001800130e0 f i Lights.obj
 0001:00012150       ?ContextSensitiveHelp@?$IOleInPlaceActiveObjectImpl@VCOPOSLights@@@ATL@@UEAAJH@Z 0000000180013150 f i Lights.obj
 0001:000121d0       ?ContextSensitiveHelp@?$IOleInPlaceObjectWindowlessImpl@VCOPOSLights@@@ATL@@UEAAJH@Z 00000001800131d0 f i Lights.obj
 0001:00012250       ?ControlQueryInterface@?$CComControl@VCOPOSLights@@V?$CWindowImpl@VCOPOSLights@@VCWindow@ATL@@V?$CWinTraits@$0FGAAAAAA@$0A@@3@@ATL@@@ATL@@UEAAJAEBU_GUID@@PEAPEAX@Z 0000000180013250 f i Lights.obj
 0001:000122e0       ?CreateControlWindow@?$CComControl@VCOPOSLights@@V?$CWindowImpl@VCOPOSLights@@VCWindow@ATL@@V?$CWinTraits@$0FGAAAAAA@$0A@@3@@ATL@@@ATL@@UEAAPEAUHWND__@@PEAU3@AEAUtagRECT@@@Z 00000001800132e0 f i Lights.obj
 0001:000123d0       ?CreateInstance@?$CComCreator@V?$CComAggObject@VCOPOSLights@@@ATL@@@ATL@@SAJPEAXAEBU_GUID@@PEAPEAX@Z 00000001800133d0 f i Lights.obj
 0001:000125b0       ?CreateInstance@?$CComCreator@V?$CComObject@VCOPOSLights@@@ATL@@@ATL@@SAJPEAXAEBU_GUID@@PEAPEAX@Z 00000001800135b0 f i Lights.obj
 0001:000127b0       ?CreateInstance@?$CComObject@V?$CComEnum@UIEnumConnectionPoints@@$1?_GUID_b196b285_bab4_101a_b69c_00aa00341d07@@3U__s_GUID@@BPEAUIConnectionPoint@@V?$_CopyInterface@UIConnectionPoint@@@ATL@@VCComSingleThreadModel@6@@ATL@@@ATL@@SAJPEAPEAV12@@Z 00000001800137b0 f i Lights.obj
 0001:00012970       ?CreateInstance@?$CComObject@V?$CComEnum@UIEnumConnections@@$1?_GUID_b196b287_bab4_101a_b69c_00aa00341d07@@3U__s_GUID@@BUtagCONNECTDATA@@V?$_Copy@UtagCONNECTDATA@@@ATL@@VCComSingleThreadModel@6@@ATL@@@ATL@@SAJPEAPEAV12@@Z 0000000180013970 f i Lights.obj
 0001:00012b30       ?CreateInstance@CComClassFactory@ATL@@UEAAJPEAUIUnknown@@AEBU_GUID@@PEAPEAX@Z 0000000180013b30 f i Lights.obj
 0001:00012c50       ?DAdvise@?$IDataObjectImpl@VCOPOSLights@@@ATL@@UEAAJPEAUtagFORMATETC@@KPEAUIAdviseSink@@PEAK@Z 0000000180013c50 f i Lights.obj
 0001:00012db0       ?DEVMODEOLE2T_EX@@YAPEAU_devicemodeW@@PEAU1@@Z 0000000180013db0 f i Lights.obj
 0001:00012dc0       ?DUnadvise@?$IDataObjectImpl@VCOPOSLights@@@ATL@@UEAAJK@Z 0000000180013dc0 f i Lights.obj
 0001:00012ec0       ?Decrement@CComMultiThreadModel@ATL@@SAKPEAJ@Z 0000000180013ec0 f i Lights.obj
 0001:00012ee0       ?Decrement@CComSingleThreadModel@ATL@@SAKPEAJ@Z 0000000180013ee0 f i Lights.obj
 0001:00012f00       ?DefWindowProcW@?$CWindowImplBaseT@VCWindow@ATL@@V?$CWinTraits@$0FGAAAAAA@$0A@@2@@ATL@@QEAA_JI_K_J@Z 0000000180013f00 f i Lights.obj
 0001:00012f60       ?DefaultReflectionHandler@?$CWindowImplRoot@VCWindow@ATL@@@ATL@@SAHPEAUHWND__@@I_K_JAEA_J@Z 0000000180013f60 f i Lights.obj
 0001:00013050       ?DeleteSubKey@CRegKey@ATL@@QEAAJPEB_W@Z 0000000180014050 f i Lights.obj
 0001:00013180       ?DeleteValue@CRegKey@ATL@@QEAAJPEB_W@Z 0000000180014180 f i Lights.obj
 0001:00013210       ?Detach@?$CAutoVectorPtr@_W@ATL@@QEAAPEA_WXZ 0000000180014210 f i Lights.obj
 0001:00013250       ?Detach@?$CComPtrBase@UIPersistStream@@@ATL@@QEAAPEAUIPersistStream@@XZ 0000000180014250 f i Lights.obj
 0001:00013290       ?Detach@?$CComPtrBase@UITypeInfo@@@ATL@@QEAAPEAUITypeInfo@@XZ 0000000180014290 f i Lights.obj
 0001:000132d0       ?Detach@?$CComPtrBase@UIUnknown@@@ATL@@QEAAPEAUIUnknown@@XZ 00000001800142d0 f i Lights.obj
 0001:00013310       ?Detach@CComBSTR@ATL@@QEAAPEA_WXZ 0000000180014310 f i Lights.obj
 0001:00013350       ?Detach@CParseBuffer@CRegParser@ATL@@QEAAPEA_WXZ 0000000180014350 f i Lights.obj
 0001:000133b0       ?Detach@CRegKey@ATL@@QEAAPEAUHKEY__@@XZ 00000001800143b0 f i Lights.obj
 0001:00013410       ?DoEvent@COPOSLights@@IEAAXI_K_J@Z 0000000180014410 f i Lights.obj
 0001:00013550       ?DoVerb@?$IOleObjectImpl@VCOPOSLights@@@ATL@@UEAAJJPEAUtagMSG@@PEAUIOleClientSite@@JPEAUHWND__@@PEBUtagRECT@@@Z 0000000180014550 f i Lights.obj
 0001:00013860       ?DoVerbDiscardUndo@?$IOleObjectImpl@VCOPOSLights@@@ATL@@QEAAJPEBUtagRECT@@PEAUHWND__@@@Z 0000000180014860 f i Lights.obj
 0001:00013900       ?DoVerbHide@?$IOleObjectImpl@VCOPOSLights@@@ATL@@QEAAJPEBUtagRECT@@PEAUHWND__@@@Z 0000000180014900 f i Lights.obj
 0001:000139e0       ?DoVerbInPlaceActivate@?$IOleObjectImpl@VCOPOSLights@@@ATL@@QEAAJPEBUtagRECT@@PEAUHWND__@@@Z 00000001800149e0 f i Lights.obj
 0001:00013ac0       ?DoVerbOpen@?$IOleObjectImpl@VCOPOSLights@@@ATL@@QEAAJPEBUtagRECT@@PEAUHWND__@@@Z 0000000180014ac0 f i Lights.obj
 0001:00013b60       ?DoVerbPrimary@?$IOleObjectImpl@VCOPOSLights@@@ATL@@QEAAJPEBUtagRECT@@PEAUHWND__@@@Z 0000000180014b60 f i Lights.obj
 0001:00013ca0       ?DoVerbProperties@CComControlBase@ATL@@QEAAJPEBUtagRECT@@PEAUHWND__@@@Z 0000000180014ca0 f i Lights.obj
 0001:00014050       ?DoVerbShow@?$IOleObjectImpl@VCOPOSLights@@@ATL@@QEAAJPEBUtagRECT@@PEAUHWND__@@@Z 0000000180015050 f i Lights.obj
 0001:00014110       ?DoVerbUIActivate@?$IOleObjectImpl@VCOPOSLights@@@ATL@@QEAAJPEBUtagRECT@@PEAUHWND__@@@Z 0000000180015110 f i Lights.obj
 0001:000141f0       ?DoesVerbActivate@CComControlBase@ATL@@QEAAHJ@Z 00000001800151f0 f i Lights.obj
 0001:00014250       ?DoesVerbUIActivate@CComControlBase@ATL@@QEAAHJ@Z 0000000180015250 f i Lights.obj
 0001:000142d0       ?Draw@?$IViewObjectExImpl@VCOPOSLights@@@ATL@@UEAAJKJPEAXPEAUtagDVTARGETDEVICE@@PEAUHDC__@@2PEBU_RECTL@@3P6AH_K@Z4@Z 00000001800152d0 f i Lights.obj
 0001:000143f0       ?Empty@CComBSTR@ATL@@QEAAXXZ 00000001800153f0 f i Lights.obj
 0001:00014430       ?EnableModeless@?$IOleInPlaceActiveObjectImpl@VCOPOSLights@@@ATL@@UEAAJH@Z 0000000180015430 f i Lights.obj
 0001:000144a0       ?EndOfVar@CRegParser@ATL@@IEAAHXZ 00000001800154a0 f i Lights.obj
 0001:00014500       ?EnsureTI@CComTypeInfoHolder@ATL@@QEAAJK@Z 0000000180015500 f i Lights.obj
 0001:00014560       ?EnumAdvise@?$IOleObjectImpl@VCOPOSLights@@@ATL@@UEAAJPEAPEAUIEnumSTATDATA@@@Z 0000000180015560 f i Lights.obj
 0001:000146c0       ?EnumConnectionPoints@?$IConnectionPointContainerImpl@VCOPOSLights@@@ATL@@UEAAJPEAPEAUIEnumConnectionPoints@@@Z 00000001800156c0 f i Lights.obj
 0001:00014bb0       ?EnumConnections@?$IConnectionPointImpl@VCOPOSLights@@$1?DIID__IOPOSLightsEvents@@3U_GUID@@BVCComDynamicUnkArray@ATL@@@ATL@@UEAAJPEAPEAUIEnumConnections@@@Z 0000000180015bb0 f i Lights.obj
 0001:00014f00       ?EnumConnections@?$IConnectionPointImpl@VCOPOSLights@@$1?IID_IPropertyNotifySink@@3U_GUID@@BVCComDynamicUnkArray@ATL@@@ATL@@UEAAJPEAPEAUIEnumConnections@@@Z 0000000180015f00 f i Lights.obj
 0001:00015250       ?EnumDAdvise@?$IDataObjectImpl@VCOPOSLights@@@ATL@@UEAAJPEAPEAUIEnumSTATDATA@@@Z 0000000180016250 f i Lights.obj
 0001:000153a0       ?EnumFormatEtc@?$IDataObjectImpl@VCOPOSLights@@@ATL@@UEAAJKPEAPEAUIEnumFORMATETC@@@Z 00000001800163a0 f i Lights.obj
 0001:00015430       ?EnumVerbs@?$IOleObjectImpl@VCOPOSLights@@@ATL@@UEAAJPEAPEAUIEnumOLEVERB@@@Z 0000000180016430 f i Lights.obj
 0001:00015500       ?EscapeSingleQuote@CAtlModule@ATL@@SAXPEA_W_KPEB_W@Z 0000000180016500 f i Lights.obj
 0001:00015600       ?ExtractCreateWndData@CAtlWinModule@ATL@@QEAAPEAXXZ 0000000180016600 f i Lights.obj
 0001:00015630       ?FAccessAllowed@?$IObjectSafetyImpl@VCOPOSLights@@$02@ATL@@MEAAHXZ 0000000180016630 f i Lights.obj
 0001:00015640       ?FinalConstruct@?$CComAggObject@VCOPOSLights@@@ATL@@QEAAJXZ 0000000180016640 f i Lights.obj
 0001:00015690       ?FinalConstruct@CComObjectRootBase@ATL@@QEAAJXZ 0000000180016690 f i Lights.obj
 0001:000156a0       ?FinalConstruct@CRegObject@ATL@@QEAAJXZ 00000001800166a0 f i Lights.obj
 0001:000156e0       ?FinalRelease@?$CComAggObject@VCOPOSLights@@@ATL@@QEAAXXZ 00000001800166e0 f i Lights.obj
 0001:00015730       ?FinalRelease@CComObjectRootBase@ATL@@QEAAXXZ 0000000180016730 f i Lights.obj
 0001:00015740       ?FindConnectionPoint@?$IConnectionPointContainerImpl@VCOPOSLights@@@ATL@@UEAAJAEBU_GUID@@PEAPEAUIConnectionPoint@@@Z 0000000180016740 f i Lights.obj
 0001:000158b0       ?FindKey@?$CSimpleMap@PEA_WPEA_WVCExpansionVectorEqualHelper@ATL@@@ATL@@QEBAHAEBQEA_W@Z 00000001800168b0 f i Lights.obj
 0001:00015930       ?FireTheEvent@?$CProxy_IOPOSEvents@VCOPOSLights@@@@IEAAXPEAUIUnknown@@PEAVOposVariant@@IAEAJPEB_WJ@Z 0000000180016930 f i Lights.obj
 0001:00015b10       ?FireViewChange@CComControlBase@ATL@@QEAAJXZ 0000000180016b10 f i Lights.obj
 0001:00015bf0       ?Fire_DirectIOEvent@?$CProxy_IOPOSEvents@VCOPOSLights@@@@QEAAXJPEAJPEAPEA_W@Z 0000000180016bf0 f i Lights.obj
 0001:00015e80       ?Fire_StatusUpdateEvent@?$CProxy_IOPOSEvents@VCOPOSLights@@@@QEAAXJ@Z 0000000180016e80 f i Lights.obj
 0001:00016070       ?FormatWindowClassName@AtlModuleRegisterWndClassInfoParamW@ATL@@SAXPEA_WKPEAX@Z 0000000180017070 f i Lights.obj
 0001:000160c0       ?Free@?$CAutoVectorPtr@_W@ATL@@QEAAXXZ 00000001800170c0 f i Lights.obj
 0001:00016110       ?FreeHeap@?$CTempBuffer@E$0BAA@VCCRTAllocator@ATL@@@ATL@@AEAAXXZ 0000000180017110 f i Lights.obj
 0001:00016150       ?FreeHeap@?$CTempBuffer@_W$0BAA@VCCRTAllocator@ATL@@@ATL@@AEAAXXZ 0000000180017150 f i Lights.obj
 0001:00016190       ?FreeHeap@?$CTempBuffer@_W$0EAA@VCCRTAllocator@ATL@@@ATL@@AEAAXXZ 0000000180017190 f i Lights.obj
 0001:000161d0       ?Freeze@?$IViewObjectExImpl@VCOPOSLights@@@ATL@@UEAAJKJPEAXPEAK@Z 00000001800171d0 f i Lights.obj
 0001:00016260       ?GenerateError@CRegParser@ATL@@IEAAJI@Z 0000000180017260 f i Lights.obj
 0001:00016280       ?GetAdvise@?$IViewObjectExImpl@VCOPOSLights@@@ATL@@UEAAJPEAK0PEAPEAUIAdviseSink@@@Z 0000000180017280 f i Lights.obj
 0001:000163d0       ?GetAmbientLocaleID@CComControlBase@ATL@@QEAAJAEAK@Z 00000001800173d0 f i Lights.obj
 0001:000164b0       ?GetAmbientProperty@CComControlBase@ATL@@QEAAJJAEAUtagVARIANT@@@Z 00000001800174b0 f i Lights.obj
 0001:00016520       ?GetAmbientUserMode@CComControlBase@ATL@@QEAAJAEAH@Z 0000000180017520 f i Lights.obj
 0001:00016640       ?GetAppId@?$CAtlModuleT@VCComModule@ATL@@@ATL@@SAPEB_WXZ 0000000180017640 f i Lights.obj
 0001:00016650       ?GetAt@CComDynamicUnkArray@ATL@@QEAAPEAUIUnknown@@H@Z 0000000180017650 f i Lights.obj
 0001:00016700       ?GetCanonicalFormatEtc@?$IDataObjectImpl@VCOPOSLights@@@ATL@@UEAAJPEAUtagFORMATETC@@0@Z 0000000180017700 f i Lights.obj
 0001:00016790       ?GetClassID@?$IPersistStorageImpl@VCOPOSLights@@@ATL@@UEAAJPEAU_GUID@@@Z 0000000180017790 f i Lights.obj
 0001:00016830       ?GetClassID@?$IPersistStreamInitImpl@VCOPOSLights@@@ATL@@UEAAJPEAU_GUID@@@Z 0000000180017830 f i Lights.obj
 0001:000168d0       ?GetClassInfoExW@AtlModuleRegisterWndClassInfoParamW@ATL@@SAHPEAUHINSTANCE__@@PEB_WPEAUtagWNDCLASSEXW@@@Z 00000001800178d0 f i Lights.obj
 0001:00016920       ?GetClassInfoW@?$IProvideClassInfo2Impl@$1?CLSID_OPOSLights@@3U_GUID@@B$1?DIID__IOPOSLightsEvents@@3U2@B$1?LIBID_OposLights_CCO@@3U2@B$00$0A@VCComTypeInfoHolder@ATL@@@ATL@@UEAAJPEAPEAUITypeInfo@@@Z 0000000180017920 f i Lights.obj
 0001:00016960       ?GetClassObject@CComModule@ATL@@QEAAJAEBU_GUID@@0PEAPEAX@Z 0000000180017960 f i Lights.obj
 0001:00016bd0       ?GetClientSite@?$IOleObjectImpl@VCOPOSLights@@@ATL@@UEAAJPEAPEAUIOleClientSite@@@Z 0000000180017bd0 f i Lights.obj
 0001:00016c80       ?GetClipboardData@?$IOleObjectImpl@VCOPOSLights@@@ATL@@UEAAJKPEAPEAUIDataObject@@@Z 0000000180017c80 f i Lights.obj
 0001:00016d10       ?GetCodeAddress@CDynamicStdCallThunk2@ATL@@QEAAPEAXXZ 0000000180017d10 f i Lights.obj
 0001:00016d50       ?GetColorSet@?$IViewObjectExImpl@VCOPOSLights@@@ATL@@UEAAJKJPEAXPEAUtagDVTARGETDEVICE@@PEAUHDC__@@PEAPEAUtagLOGPALETTE@@@Z 0000000180017d50 f i Lights.obj
 0001:00016de0       ?GetConnMap@COPOSLights@@SAPEBU_ATL_CONNMAP_ENTRY@ATL@@PEAH@Z 0000000180017de0 f i Lights.obj
 0001:00016f40       ?GetConnectionInterface@?$IConnectionPointImpl@VCOPOSLights@@$1?DIID__IOPOSLightsEvents@@3U_GUID@@BVCComDynamicUnkArray@ATL@@@ATL@@UEAAJPEAU_GUID@@@Z 0000000180017f40 f i Lights.obj
 0001:00016f80       ?GetConnectionInterface@?$IConnectionPointImpl@VCOPOSLights@@$1?IID_IPropertyNotifySink@@3U_GUID@@BVCComDynamicUnkArray@ATL@@@ATL@@UEAAJPEAU_GUID@@@Z 0000000180017f80 f i Lights.obj
 0001:00016fc0       ?GetConnectionPointContainer@?$IConnectionPointImpl@VCOPOSLights@@$1?DIID__IOPOSLightsEvents@@3U_GUID@@BVCComDynamicUnkArray@ATL@@@ATL@@UEAAJPEAPEAUIConnectionPointContainer@@@Z 0000000180017fc0 f i Lights.obj
 0001:00017040       ?GetConnectionPointContainer@?$IConnectionPointImpl@VCOPOSLights@@$1?IID_IPropertyNotifySink@@3U_GUID@@BVCComDynamicUnkArray@ATL@@@ATL@@UEAAJPEAPEAUIConnectionPointContainer@@@Z 0000000180018040 f i Lights.obj
 0001:000170c0       ?GetContentExtent@?$IQuickActivateImpl@VCOPOSLights@@@ATL@@UEAAJPEAUtagSIZE@@@Z 00000001800180c0 f i Lights.obj
 0001:00017180       ?GetControlInfo@?$IOleControlImpl@VCOPOSLights@@@ATL@@UEAAJPEAUtagCONTROLINFO@@@Z 0000000180018180 f i Lights.obj
 0001:00017210       ?GetCookie@CComDynamicUnkArray@ATL@@QEAAKPEAPEAUIUnknown@@@Z 0000000180018210 f i Lights.obj
 0001:00017300       ?GetData@?$IDataObjectImpl@VCOPOSLights@@@ATL@@UEAAJPEAUtagFORMATETC@@PEAUtagSTGMEDIUM@@@Z 0000000180018300 f i Lights.obj
 0001:000173c0       ?GetData@CAtlSafeAllocBufferNode@?$CAtlSafeAllocBufferManager@VCCRTAllocator@ATL@@@_ATL_SAFE_ALLOCA_IMPL@ATL@@QEAAPEAXXZ 00000001800183c0 f i Lights.obj
 0001:000173e0       ?GetDataHere@?$IDataObjectImpl@VCOPOSLights@@@ATL@@UEAAJPEAUtagFORMATETC@@PEAUtagSTGMEDIUM@@@Z 00000001800183e0 f i Lights.obj
 0001:00017470       ?GetDropTarget@?$IOleInPlaceObjectWindowlessImpl@VCOPOSLights@@@ATL@@UEAAJPEAPEAUIDropTarget@@@Z 0000000180018470 f i Lights.obj
 0001:00017500       ?GetExtent@?$IOleObjectImpl@VCOPOSLights@@@ATL@@UEAAJKPEAUtagSIZE@@@Z 0000000180018500 f i Lights.obj
 0001:000175d0       ?GetExtent@?$IViewObjectExImpl@VCOPOSLights@@@ATL@@UEAAJKJPEAUtagDVTARGETDEVICE@@PEAUtagSIZE@@@Z 00000001800185d0 f i Lights.obj
 0001:000176e0       ?GetGITPtr@CAtlModule@ATL@@UEAAJPEAPEAUIGlobalInterfaceTable@@@Z 00000001800186e0 f i Lights.obj
 0001:00017820       ?GetGUID@?$IProvideClassInfo2Impl@$1?CLSID_OPOSLights@@3U_GUID@@B$1?DIID__IOPOSLightsEvents@@3U2@B$1?LIBID_OposLights_CCO@@3U2@B$00$0A@VCComTypeInfoHolder@ATL@@@ATL@@UEAAJKPEAU_GUID@@@Z 0000000180018820 f i Lights.obj
 0001:000178a0       ?GetIDsOfNames@?$IDispatchImpl@UIOPOSLights@@$1?IID_IOPOSLights@@3U_GUID@@B$1?LIBID_OposLights_CCO@@3U3@B$00$0A@VCComTypeInfoHolder@ATL@@@ATL@@UEAAJAEBU_GUID@@PEAPEA_WIKPEAJ@Z 00000001800188a0 f i Lights.obj
 0001:00017900       ?GetIDsOfNames@CComTypeInfoHolder@ATL@@QEAAJAEBU_GUID@@PEAPEA_WIKPEAJ@Z 0000000180018900 f i Lights.obj
 0001:00017b20       ?GetInterfaceSafetyOptions@?$IObjectSafetyImpl@VCOPOSLights@@$02@ATL@@UEAAJAEBU_GUID@@PEAK1@Z 0000000180018b20 f i Lights.obj
 0001:00017cc0       ?GetKeyAt@?$CSimpleMap@PEA_WPEA_WVCExpansionVectorEqualHelper@ATL@@@ATL@@QEBAAEAPEA_WH@Z 0000000180018cc0 f i Lights.obj
 0001:00017d70       ?GetLockCount@CAtlModule@ATL@@UEAAJXZ 0000000180018d70 f i Lights.obj
 0001:00017d80       ?GetMiscStatus@?$IOleObjectImpl@VCOPOSLights@@@ATL@@UEAAJKPEAK@Z 0000000180018d80 f i Lights.obj
 0001:00017e10       ?GetMoniker@?$IOleObjectImpl@VCOPOSLights@@@ATL@@UEAAJKKPEAPEAUIMoniker@@@Z 0000000180018e10 f i Lights.obj
 0001:00017ea0       ?GetNaturalExtent@?$IViewObjectExImpl@VCOPOSLights@@@ATL@@UEAAJKJPEAUtagDVTARGETDEVICE@@PEAUHDC__@@PEAUtagExtentInfo@@PEAUtagSIZE@@@Z 0000000180018ea0 f i Lights.obj
 0001:00018030       ?GetObjectCLSID@?$CComCoClass@VCOPOSLights@@$1?CLSID_OPOSLights@@3U_GUID@@B@ATL@@SAAEBU_GUID@@XZ 0000000180019030 f i Lights.obj
 0001:00018040       ?GetPages@?$ISpecifyPropertyPagesImpl@VCOPOSLights@@@ATL@@UEAAJPEAUtagCAUUID@@@Z 0000000180019040 f i Lights.obj
 0001:000180d0       ?GetPagesHelper@?$ISpecifyPropertyPagesImpl@VCOPOSLights@@@ATL@@IEAAJPEAUtagCAUUID@@PEBUATL_PROPMAP_ENTRY@2@@Z 00000001800190d0 f i Lights.obj
 0001:00018340       ?GetProperty@?$CComPtr@UIDispatch@@@ATL@@QEAAJJPEAUtagVARIANT@@@Z 0000000180019340 f i Lights.obj
 0001:00018390       ?GetProperty@?$CComPtr@UIDispatch@@@ATL@@SAJPEAUIDispatch@@JPEAUtagVARIANT@@@Z 0000000180019390 f i Lights.obj
 0001:00018560       ?GetPropertyMap@COPOSLights@@SAPEBUATL_PROPMAP_ENTRY@ATL@@XZ 0000000180019560 f i Lights.obj
 0001:00018570       ?GetRect@?$IViewObjectExImpl@VCOPOSLights@@@ATL@@UEAAJKPEAU_RECTL@@@Z 0000000180019570 f i Lights.obj
 0001:00018600       ?GetSize@?$CSimpleMap@PEA_WPEA_WVCExpansionVectorEqualHelper@ATL@@@ATL@@QEBAHXZ 0000000180019600 f i Lights.obj
 0001:00018610       ?GetSize@CComDynamicUnkArray@ATL@@QEBAHXZ 0000000180019610 f i Lights.obj
 0001:00018620       ?GetSizeMax@?$IPersistStreamInitImpl@VCOPOSLights@@@ATL@@UEAAJPEAT_ULARGE_INTEGER@@@Z 0000000180019620 f i Lights.obj
 0001:00018db0       ?GetSizeMax@CComVariant@ATL@@QEBAJPEAT_ULARGE_INTEGER@@@Z 0000000180019db0 f i Lights.obj
 0001:000191e0       ?GetStreamSize@CComBSTR@ATL@@SAKPEA_W@Z 000000018001a1e0 f i Lights.obj
 0001:00019240       ?GetTI@CComTypeInfoHolder@ATL@@QEAAJK@Z 000000018001a240 f i Lights.obj
 0001:00019b10       ?GetTI@CComTypeInfoHolder@ATL@@QEAAJKPEAPEAUITypeInfo@@@Z 000000018001ab10 f i Lights.obj
 0001:00019c00       ?GetTypeInfo@?$IDispatchImpl@UIOPOSLights@@$1?IID_IOPOSLights@@3U_GUID@@B$1?LIBID_OposLights_CCO@@3U3@B$00$0A@VCComTypeInfoHolder@ATL@@@ATL@@UEAAJIKPEAPEAUITypeInfo@@@Z 000000018001ac00 f i Lights.obj
 0001:00019c50       ?GetTypeInfo@CComTypeInfoHolder@ATL@@QEAAJIKPEAPEAUITypeInfo@@@Z 000000018001ac50 f i Lights.obj
 0001:00019cb0       ?GetTypeInfoCount@?$IDispatchImpl@UIOPOSLights@@$1?IID_IOPOSLights@@3U_GUID@@B$1?LIBID_OposLights_CCO@@3U3@B$00$0A@VCComTypeInfoHolder@ATL@@@ATL@@UEAAJPEAI@Z 000000018001acb0 f i Lights.obj
 0001:00019ce0       ?GetUnknown@CComDynamicUnkArray@ATL@@QEAAPEAUIUnknown@@K@Z 000000018001ace0 f i Lights.obj
 0001:00019d90       ?GetUnknown@COPOSLights@@QEAAPEAUIUnknown@@XZ 000000018001ad90 f i Lights.obj
 0001:00019dc0       ?GetUserClassID@?$IOleObjectImpl@VCOPOSLights@@@ATL@@UEAAJPEAU_GUID@@@Z 000000018001adc0 f i Lights.obj
 0001:00019ea0       ?GetUserType@?$IOleObjectImpl@VCOPOSLights@@@ATL@@UEAAJKPEAPEA_W@Z 000000018001aea0 f i Lights.obj
 0001:00019f30       ?GetValueAt@?$CSimpleMap@PEA_WPEA_WVCExpansionVectorEqualHelper@ATL@@@ATL@@QEBAAEAPEA_WH@Z 000000018001af30 f i Lights.obj
 0001:00019fe0       ?GetViewStatus@?$IViewObjectExImpl@VCOPOSLights@@@ATL@@UEAAJPEAK@Z 000000018001afe0 f i Lights.obj
 0001:0001a0e0       ?GetWNDPROC@CWndProcThunk@ATL@@QEAAP6A_JPEAUHWND__@@I_K_J@ZXZ 000000018001b0e0 f i Lights.obj
 0001:0001a120       ?GetWindow@?$IOleInPlaceActiveObjectImpl@VCOPOSLights@@@ATL@@UEAAJPEAPEAUHWND__@@@Z 000000018001b120 f i Lights.obj
 0001:0001a220       ?GetWindow@?$IOleInPlaceObjectWindowlessImpl@VCOPOSLights@@@ATL@@UEAAJPEAPEAUHWND__@@@Z 000000018001b220 f i Lights.obj
 0001:0001a320       ?GetWindowProc@?$CWindowImplBaseT@VCWindow@ATL@@V?$CWinTraits@$0FGAAAAAA@$0A@@2@@ATL@@UEAAP6A_JPEAUHWND__@@I_K_J@ZXZ 000000018001b320 f i Lights.obj
 0001:0001a330       ?GetWndCaption@?$CWindowImpl@VCOPOSLights@@VCWindow@ATL@@V?$CWinTraits@$0FGAAAAAA@$0A@@3@@ATL@@SAPEB_WXZ 000000018001b330 f i Lights.obj
 0001:0001a340       ?GetWndClassInfo@?$CWindowImpl@VCOPOSLights@@VCWindow@ATL@@V?$CWinTraits@$0FGAAAAAA@$0A@@3@@ATL@@SAAEAU_ATL_WNDCLASSINFOW@2@XZ 000000018001b340 f i Lights.obj
 0001:0001a350       ?GetWndClassName@CWindow@ATL@@SAPEB_WXZ 000000018001b350 f i Lights.obj
 0001:0001a360       ?GetWndExStyle@?$CWinTraits@$0FGAAAAAA@$0A@@ATL@@SAKK@Z 000000018001b360 f i Lights.obj
 0001:0001a3a0       ?GetWndExStyle@?$CWindowImplBaseT@VCWindow@ATL@@V?$CWinTraits@$0FGAAAAAA@$0A@@2@@ATL@@SAKK@Z 000000018001b3a0 f i Lights.obj
 0001:0001a3d0       ?GetWndStyle@?$CWinTraits@$0FGAAAAAA@$0A@@ATL@@SAKK@Z 000000018001b3d0 f i Lights.obj
 0001:0001a410       ?GetWndStyle@?$CWindowImplBaseT@VCWindow@ATL@@V?$CWinTraits@$0FGAAAAAA@$0A@@2@@ATL@@SAKK@Z 000000018001b410 f i Lights.obj
 0001:0001a440       ?GetZoomInfo@CComControlBase@ATL@@QEAAXAEAUATL_DRAWINFO@@@Z 000000018001b440 f i Lights.obj
 0001:0001a5f0       ?HKeyFromString@CRegParser@ATL@@KAPEAUHKEY__@@PEA_W@Z 000000018001b5f0 f i Lights.obj
 0001:0001a680       ?HandsOffStorage@?$IPersistStorageImpl@VCOPOSLights@@@ATL@@UEAAJXZ 000000018001b680 f i Lights.obj
 0001:0001a6f0       ?HasSubKeys@CRegParser@ATL@@IEAAHPEAUHKEY__@@@Z 000000018001b6f0 f i Lights.obj
 0001:0001a860       ?IDataObject_GetData@CComControlBase@ATL@@QEAAJPEAUtagFORMATETC@@PEAUtagSTGMEDIUM@@@Z 000000018001b860 f i Lights.obj
 0001:0001ad10       ?IOleInPlaceObject_InPlaceDeactivate@CComControlBase@ATL@@QEAAJXZ 000000018001bd10 f i Lights.obj
 0001:0001af80       ?IOleInPlaceObject_SetObjectRects@CComControlBase@ATL@@QEAAJPEBUtagRECT@@0@Z 000000018001bf80 f i Lights.obj
 0001:0001b160       ?IOleInPlaceObject_UIDeactivate@CComControlBase@ATL@@QEAAJXZ 000000018001c160 f i Lights.obj
 0001:0001b3d0       ?IOleObject_Advise@CComControlBase@ATL@@QEAAJPEAUIAdviseSink@@PEAK@Z 000000018001c3d0 f i Lights.obj
 0001:0001b480       ?IOleObject_Close@CComControlBase@ATL@@QEAAJK@Z 000000018001c480 f i Lights.obj
 0001:0001b7f0       ?IOleObject_GetClientSite@CComControlBase@ATL@@QEAAJPEAPEAUIOleClientSite@@@Z 000000018001c7f0 f i Lights.obj
 0001:0001b8c0       ?IOleObject_SetClientSite@CComControlBase@ATL@@QEAAJPEAUIOleClientSite@@@Z 000000018001c8c0 f i Lights.obj
 0001:0001b9d0       ?IOleObject_SetExtent@CComControlBase@ATL@@QEAAJKPEAUtagSIZE@@@Z 000000018001c9d0 f i Lights.obj
 0001:0001bb40       ?IPSI_GetIPersistStreamInit@?$IPersistStorageImpl@VCOPOSLights@@@ATL@@AEAAPEAUIPersistStreamInit@@XZ 000000018001cb40 f i Lights.obj
 0001:0001bc00       ?IPersistStreamInit_Load@?$IPersistStreamInitImpl@VCOPOSLights@@@ATL@@QEAAJPEAUIStream@@PEBUATL_PROPMAP_ENTRY@2@@Z 000000018001cc00 f i Lights.obj
 0001:0001bca0       ?IPersistStreamInit_Save@?$IPersistStreamInitImpl@VCOPOSLights@@@ATL@@QEAAJPEAUIStream@@HPEBUATL_PROPMAP_ENTRY@2@@Z 000000018001cca0 f i Lights.obj
 0001:0001bd60       ?IQuickActivate_QuickActivate@CComControlBase@ATL@@QEAAJPEAUtagQACONTAINER@@PEAUtagQACONTROL@@@Z 000000018001cd60 f i Lights.obj
 0001:0001c5a0       ?IViewObject_Draw@CComControlBase@ATL@@QEAAJKJPEAXPEAUtagDVTARGETDEVICE@@PEAUHDC__@@2PEBU_RECTL@@3@Z 000000018001d5a0 f i Lights.obj
 0001:0001c9f0       ?InPlaceActivate@CComControlBase@ATL@@QEAAJJPEBUtagRECT@@@Z 000000018001d9f0 f i Lights.obj
 0001:0001d590       ?InPlaceDeactivate@?$IOleInPlaceObjectWindowlessImpl@VCOPOSLights@@@ATL@@UEAAJXZ 000000018001e590 f i Lights.obj
 0001:0001d640       ?Increment@CComMultiThreadModel@ATL@@SAKPEAJ@Z 000000018001e640 f i Lights.obj
 0001:0001d660       ?Increment@CComSingleThreadModel@ATL@@SAKPEAJ@Z 000000018001e660 f i Lights.obj
 0001:0001d680       ?Init@?$CComEnumImpl@UIEnumConnectionPoints@@$1?_GUID_b196b285_bab4_101a_b69c_00aa00341d07@@3U__s_GUID@@BPEAUIConnectionPoint@@V?$_CopyInterface@UIConnectionPoint@@@ATL@@@ATL@@QEAAJPEAPEAUIConnectionPoint@@0PEAUIUnknown@@W4CComEnumFlags@2@@Z 000000018001e680 f i Lights.obj
 0001:0001d970       ?Init@?$CComEnumImpl@UIEnumConnections@@$1?_GUID_b196b287_bab4_101a_b69c_00aa00341d07@@3U__s_GUID@@BUtagCONNECTDATA@@V?$_Copy@UtagCONNECTDATA@@@ATL@@@ATL@@QEAAJPEAUtagCONNECTDATA@@0PEAUIUnknown@@W4CComEnumFlags@2@@Z 000000018001e970 f i Lights.obj
 0001:0001dc60       ?Init@CComFakeCriticalSection@ATL@@QEAAJXZ 000000018001ec60 f i Lights.obj
 0001:0001dc70       ?Init@CComModule@ATL@@QEAAJPEAU_ATL_OBJMAP_ENTRY30@2@PEAUHINSTANCE__@@PEBU_GUID@@@Z 000000018001ec70 f i Lights.obj
 0001:0001dd60       ?Init@CComSafeDeleteCriticalSection@ATL@@QEAAJXZ 000000018001ed60 f i Lights.obj
 0001:0001ddf0       ?Init@CDynamicStdCallThunk2@ATL@@QEAAH_KPEAX@Z 000000018001edf0 f i Lights.obj
 0001:0001de70       ?Init@CWndProcThunk@ATL@@QEAAHP6A_JPEAUHWND__@@I_K_J@ZPEAX@Z 000000018001ee70 f i Lights.obj
 0001:0001dec0       ?InitFromData@?$IOleObjectImpl@VCOPOSLights@@@ATL@@UEAAJPEAUIDataObject@@HK@Z 000000018001eec0 f i Lights.obj
 0001:0001df50       ?InitLibId@?$CAtlModuleT@VCComModule@ATL@@@ATL@@SAXXZ 000000018001ef50 f i Lights.obj
 0001:0001df60       ?InitNew@?$IPersistStorageImpl@VCOPOSLights@@@ATL@@UEAAJPEAUIStorage@@@Z 000000018001ef60 f i Lights.obj
 0001:0001e050       ?InitNew@?$IPersistStreamInitImpl@VCOPOSLights@@@ATL@@UEAAJXZ 000000018001f050 f i Lights.obj
 0001:0001e100       ?InlineIsEqualUnknown@ATL@@YAHAEBU_GUID@@@Z 000000018001f100 f i Lights.obj
 0001:0001e190       ?InternalAddRef@?$CComObjectRootEx@VCComMultiThreadModel@ATL@@@ATL@@QEAAKXZ 000000018001f190 f i Lights.obj
 0001:0001e210       ?InternalAddRef@?$CComObjectRootEx@VCComSingleThreadModel@ATL@@@ATL@@QEAAKXZ 000000018001f210 f i Lights.obj
 0001:0001e290       ?InternalFinalConstructAddRef@CComObjectRootBase@ATL@@QEAAXXZ 000000018001f290 f i Lights.obj
 0001:0001e2a0       ?InternalFinalConstructAddRef@COPOSLights@@QEAAXXZ 000000018001f2a0 f i Lights.obj
 0001:0001e2e0       ?InternalFinalConstructRelease@CComObjectRootBase@ATL@@QEAAXXZ 000000018001f2e0 f i Lights.obj
 0001:0001e350       ?InternalFinalConstructRelease@COPOSLights@@QEAAXXZ 000000018001f350 f i Lights.obj
 0001:0001e390       ?InternalGetSite@CComControlBase@ATL@@QEAAJAEBU_GUID@@PEAPEAX@Z 000000018001f390 f i Lights.obj
 0001:0001e470       ?InternalQueryInterface@CComObjectRootBase@ATL@@SAJPEAXPEBU_ATL_INTMAP_ENTRY@2@AEBU_GUID@@PEAPEAX@Z 000000018001f470 f i Lights.obj
 0001:0001e590       ?InternalRelease@?$CComObjectRootEx@VCComMultiThreadModel@ATL@@@ATL@@QEAAKXZ 000000018001f590 f i Lights.obj
 0001:0001e610       ?InternalRelease@?$CComObjectRootEx@VCComSingleThreadModel@ATL@@@ATL@@QEAAKXZ 000000018001f610 f i Lights.obj
 0001:0001e690       ?InternalSetAtIndex@?$CSimpleArray@GV?$CSimpleArrayEqualHelper@G@ATL@@@ATL@@QEAAXHAEBG@Z 000000018001f690 f i Lights.obj
 0001:0001e710       ?InternalSetAtIndex@?$CSimpleMap@PEA_WPEA_WVCExpansionVectorEqualHelper@ATL@@@ATL@@QEAAXHAEBQEA_W0@Z 000000018001f710 f i Lights.obj
 0001:0001e7e0       ?Invoke@?$IDispatchImpl@UIOPOSLights@@$1?IID_IOPOSLights@@3U_GUID@@B$1?LIBID_OposLights_CCO@@3U3@B$00$0A@VCComTypeInfoHolder@ATL@@@ATL@@UEAAJJAEBU_GUID@@KGPEAUtagDISPPARAMS@@PEAUtagVARIANT@@PEAUtagEXCEPINFO@@PEAI@Z 000000018001f7e0 f i Lights.obj
 0001:0001e880       ?Invoke@CComTypeInfoHolder@ATL@@QEAAJPEAUIDispatch@@JAEBU_GUID@@KGPEAUtagDISPPARAMS@@PEAUtagVARIANT@@PEAUtagEXCEPINFO@@PEAI@Z 000000018001f880 f i Lights.obj
 0001:0001e940       ?IsDirty@?$IPersistStorageImpl@VCOPOSLights@@@ATL@@UEAAJXZ 000000018001f940 f i Lights.obj
 0001:0001ea30       ?IsDirty@?$IPersistStreamInitImpl@VCOPOSLights@@@ATL@@UEAAJXZ 000000018001fa30 f i Lights.obj
 0001:0001eaf0       ?IsEqualKey@CExpansionVectorEqualHelper@ATL@@SA_NQEA_W0@Z 000000018001faf0 f i Lights.obj
 0001:0001eb40       ?IsEqualObject@?$CComPtrBase@UIOleClientSite@@@ATL@@QEAA_NPEAUIUnknown@@@Z 000000018001fb40 f i Lights.obj
 0001:0001ec90       ?IsEqualObject@?$CComPtrBase@UITypeInfo@@@ATL@@QEAA_NPEAUIUnknown@@@Z 000000018001fc90 f i Lights.obj
 0001:0001ede0       ?IsSpace@CRegParser@ATL@@IEAAH_W@Z 000000018001fde0 f i Lights.obj
 0001:0001ee40       ?IsUpToDate@?$IOleObjectImpl@VCOPOSLights@@@ATL@@UEAAJXZ 000000018001fe40 f i Lights.obj
 0001:0001eeb0       ?Length@CComBSTR@ATL@@QEBAIXZ 000000018001feb0 f i Lights.obj
 0001:0001eef0       ?Load@?$IPersistStorageImpl@VCOPOSLights@@@ATL@@UEAAJPEAUIStorage@@@Z 000000018001fef0 f i Lights.obj
 0001:0001f0a0       ?Load@?$IPersistStreamInitImpl@VCOPOSLights@@@ATL@@UEAAJPEAUIStream@@@Z 00000001800200a0 f i Lights.obj
 0001:0001f160       ?LoadCursorW@AtlModuleRegisterWndClassInfoParamW@ATL@@SAPEAUHICON__@@PEAUHINSTANCE__@@PEB_W@Z 0000000180020160 f i Lights.obj
 0001:0001f1a0       ?LoadNameCache@CComTypeInfoHolder@ATL@@QEAAJPEAUITypeInfo@@@Z 00000001800201a0 f i Lights.obj
 0001:0001f4e0       ?Lock@?$CComCritSecLock@VCComCriticalSection@ATL@@@ATL@@QEAAJXZ 00000001800204e0 f i Lights.obj
 0001:0001f5d0       ?Lock@?$CComObjectRootEx@VCComSingleThreadModel@ATL@@@ATL@@QEAAXXZ 00000001800205d0 f i Lights.obj
 0001:0001f5e0       ?Lock@CAtlModule@ATL@@UEAAJXZ 00000001800205e0 f i Lights.obj
 0001:0001f620       ?Lock@CComCriticalSection@ATL@@QEAAJXZ 0000000180020620 f i Lights.obj
 0001:0001f660       ?Lock@CComFakeCriticalSection@ATL@@QEAAJXZ 0000000180020660 f i Lights.obj
 0001:0001f670       ?LockServer@CComClassFactory@ATL@@UEAAJH@Z 0000000180020670 f i Lights.obj
 0001:0001f6d0       ?Lookup@?$CSimpleMap@PEA_WPEA_WVCExpansionVectorEqualHelper@ATL@@@ATL@@QEBAPEA_WAEBQEA_W@Z 00000001800206d0 f i Lights.obj
 0001:0001f730       ?Next@?$CComEnumImpl@UIEnumConnectionPoints@@$1?_GUID_b196b285_bab4_101a_b69c_00aa00341d07@@3U__s_GUID@@BPEAUIConnectionPoint@@V?$_CopyInterface@UIConnectionPoint@@@ATL@@@ATL@@UEAAJKPEAPEAUIConnectionPoint@@PEAK@Z 0000000180020730 f i Lights.obj
 0001:0001f8f0       ?Next@?$CComEnumImpl@UIEnumConnections@@$1?_GUID_b196b287_bab4_101a_b69c_00aa00341d07@@3U__s_GUID@@BUtagCONNECTDATA@@V?$_Copy@UtagCONNECTDATA@@@ATL@@@ATL@@UEAAJKPEAUtagCONNECTDATA@@PEAK@Z 00000001800208f0 f i Lights.obj
 0001:0001fab0       ?NextToken@CRegParser@ATL@@IEAAJPEA_W@Z 0000000180020ab0 f i Lights.obj
 0001:0001fe40       ?OLE2CT_EX@@YAPEB_WPEB_WI@Z 0000000180020e40 f i Lights.obj
 0001:0001fe60       ?OLE2CT_EX_DEF@@YAPEB_WPEB_W@Z 0000000180020e60 f i Lights.obj
 0001:0001fe70       ?OLE2T_EX@@YAPEA_WPEA_WI@Z 0000000180020e70 f i Lights.obj
 0001:0001fe90       ?OnAmbientPropertyChange@?$IOleControlImpl@VCOPOSLights@@@ATL@@UEAAJJ@Z 0000000180020e90 f i Lights.obj
 0001:0001ff50       ?OnDocWindowActivate@?$IOleInPlaceActiveObjectImpl@VCOPOSLights@@@ATL@@UEAAJH@Z 0000000180020f50 f i Lights.obj
 0001:00020010       ?OnDrawAdvanced@CComControlBase@ATL@@UEAAJAEAUATL_DRAWINFO@@@Z 0000000180021010 f i Lights.obj
 0001:00020260       ?OnFinalMessage@?$CWindowImplBaseT@VCWindow@ATL@@V?$CWinTraits@$0FGAAAAAA@$0A@@2@@ATL@@UEAAXPEAUHWND__@@@Z 0000000180021260 f i Lights.obj
 0001:00020270       ?OnFrameWindowActivate@?$IOleInPlaceActiveObjectImpl@VCOPOSLights@@@ATL@@UEAAJH@Z 0000000180021270 f i Lights.obj
 0001:000202e0       ?OnKillFocus@CComControlBase@ATL@@QEAA_JI_K_JAEAH@Z 00000001800212e0 f i Lights.obj
 0001:000203d0       ?OnMnemonic@?$IOleControlImpl@VCOPOSLights@@@ATL@@UEAAJPEAUtagMSG@@@Z 00000001800213d0 f i Lights.obj
 0001:00020460       ?OnMouseActivate@CComControlBase@ATL@@QEAA_JI_K_JAEAH@Z 0000000180021460 f i Lights.obj
 0001:00020600       ?OnPaint@CComControlBase@ATL@@QEAA_JI_K_JAEAH@Z 0000000180021600 f i Lights.obj
 0001:00020790       ?OnPostVerbDiscardUndo@?$IOleObjectImpl@VCOPOSLights@@@ATL@@QEAAJXZ 0000000180021790 f i Lights.obj
 0001:000207a0       ?OnPostVerbHide@?$IOleObjectImpl@VCOPOSLights@@@ATL@@QEAAJXZ 00000001800217a0 f i Lights.obj
 0001:000207b0       ?OnPostVerbInPlaceActivate@?$IOleObjectImpl@VCOPOSLights@@@ATL@@QEAAJXZ 00000001800217b0 f i Lights.obj
 0001:000207c0       ?OnPostVerbOpen@?$IOleObjectImpl@VCOPOSLights@@@ATL@@QEAAJXZ 00000001800217c0 f i Lights.obj
 0001:000207d0       ?OnPostVerbShow@?$IOleObjectImpl@VCOPOSLights@@@ATL@@QEAAJXZ 00000001800217d0 f i Lights.obj
 0001:000207e0       ?OnPostVerbUIActivate@?$IOleObjectImpl@VCOPOSLights@@@ATL@@QEAAJXZ 00000001800217e0 f i Lights.obj
 0001:000207f0       ?OnPreVerbDiscardUndo@?$IOleObjectImpl@VCOPOSLights@@@ATL@@QEAAJXZ 00000001800217f0 f i Lights.obj
 0001:00020800       ?OnPreVerbHide@?$IOleObjectImpl@VCOPOSLights@@@ATL@@QEAAJXZ 0000000180021800 f i Lights.obj
 0001:00020810       ?OnPreVerbInPlaceActivate@?$IOleObjectImpl@VCOPOSLights@@@ATL@@QEAAJXZ 0000000180021810 f i Lights.obj
 0001:00020820       ?OnPreVerbOpen@?$IOleObjectImpl@VCOPOSLights@@@ATL@@QEAAJXZ 0000000180021820 f i Lights.obj
 0001:00020830       ?OnPreVerbShow@?$IOleObjectImpl@VCOPOSLights@@@ATL@@QEAAJXZ 0000000180021830 f i Lights.obj
 0001:00020840       ?OnPreVerbUIActivate@?$IOleObjectImpl@VCOPOSLights@@@ATL@@QEAAJXZ 0000000180021840 f i Lights.obj
 0001:00020850       ?OnSetFocus@CComControlBase@ATL@@QEAA_JI_K_JAEAH@Z 0000000180021850 f i Lights.obj
 0001:00020a50       ?OnWindowMessage@?$IOleInPlaceObjectWindowlessImpl@VCOPOSLights@@@ATL@@UEAAJI_K_JPEA_J@Z 0000000180021a50 f i Lights.obj
 0001:00020c70       ?Open@CRegKey@ATL@@QEAAJPEAUHKEY__@@PEB_WK@Z 0000000180021c70 f i Lights.obj
 0001:00020df0       ?OuterAddRef@CComObjectRootBase@ATL@@QEAAKXZ 0000000180021df0 f i Lights.obj
 0001:00020e30       ?OuterQueryInterface@CComObjectRootBase@ATL@@QEAAJAEBU_GUID@@PEAPEAX@Z 0000000180021e30 f i Lights.obj
 0001:00020e80       ?OuterRelease@CComObjectRootBase@ATL@@QEAAKXZ 0000000180021e80 f i Lights.obj
 0001:00020ec0       ?PreProcessBuffer@CRegParser@ATL@@QEAAJPEA_WPEAPEA_W@Z 0000000180021ec0 f i Lights.obj
 0001:000215a0       ?PreTranslateAccelerator@CComControlBase@ATL@@QEAAHPEAUtagMSG@@AEAJ@Z 00000001800225a0 f i Lights.obj
 0001:000215c0       ?ProcessWindowMessage@?$CComControl@VCOPOSLights@@V?$CWindowImpl@VCOPOSLights@@VCWindow@ATL@@V?$CWinTraits@$0FGAAAAAA@$0A@@3@@ATL@@@ATL@@UEAAHPEAUHWND__@@I_K_JAEA_JK@Z 00000001800225c0 f i Lights.obj
 0001:00021840       ?ProcessWindowMessage@COPOSLights@@UEAAHPEAUHWND__@@I_K_JAEA_JK@Z 0000000180022840 f i Lights.obj
 0001:000219c0       ?PutProperty@?$CComPtr@UIDispatch@@@ATL@@QEAAJJPEAUtagVARIANT@@@Z 00000001800229c0 f i Lights.obj
 0001:00021a10       ?PutProperty@?$CComPtr@UIDispatch@@@ATL@@SAJPEAUIDispatch@@JPEAUtagVARIANT@@@Z 0000000180022a10 f i Lights.obj
 0001:00021cb0       ?QueryGetData@?$IDataObjectImpl@VCOPOSLights@@@ATL@@UEAAJPEAUtagFORMATETC@@@Z 0000000180022cb0 f i Lights.obj
 0001:00021d40       ?QueryHitPoint@?$IViewObjectExImpl@VCOPOSLights@@@ATL@@UEAAJKPEBUtagRECT@@UtagPOINT@@JPEAK@Z 0000000180022d40 f i Lights.obj
 0001:00021eb0       ?QueryHitRect@?$IViewObjectExImpl@VCOPOSLights@@@ATL@@UEAAJKPEBUtagRECT@@0JPEAK@Z 0000000180022eb0 f i Lights.obj
 0001:00022080       ?QueryInterface@?$CComAggObject@VCOPOSLights@@@ATL@@UEAAJAEBU_GUID@@PEAPEAX@Z 0000000180023080 f i Lights.obj
 0001:00022170       ?QueryInterface@?$CComContainedObject@VCOPOSLights@@@ATL@@UEAAJAEBU_GUID@@PEAPEAX@Z 0000000180023170 f i Lights.obj
 0001:000221bc       ?QueryInterface@?$CComContainedObject@VCOPOSLights@@@ATL@@WBAA@EAAJAEBU_GUID@@PEAPEAX@Z 00000001800231bc f i Lights.obj
 0001:000221c8       ?QueryInterface@?$CComContainedObject@VCOPOSLights@@@ATL@@WBAI@EAAJAEBU_GUID@@PEAPEAX@Z 00000001800231c8 f i Lights.obj
 0001:000221d4       ?QueryInterface@?$CComContainedObject@VCOPOSLights@@@ATL@@WBBA@EAAJAEBU_GUID@@PEAPEAX@Z 00000001800231d4 f i Lights.obj
 0001:000221e0       ?QueryInterface@?$CComContainedObject@VCOPOSLights@@@ATL@@WBBI@EAAJAEBU_GUID@@PEAPEAX@Z 00000001800231e0 f i Lights.obj
 0001:000221ec       ?QueryInterface@?$CComContainedObject@VCOPOSLights@@@ATL@@WLI@EAAJAEBU_GUID@@PEAPEAX@Z 00000001800231ec f i Lights.obj
 0001:000221f8       ?QueryInterface@?$CComContainedObject@VCOPOSLights@@@ATL@@WMA@EAAJAEBU_GUID@@PEAPEAX@Z 00000001800231f8 f i Lights.obj
 0001:00022204       ?QueryInterface@?$CComContainedObject@VCOPOSLights@@@ATL@@WMI@EAAJAEBU_GUID@@PEAPEAX@Z 0000000180023204 f i Lights.obj
 0001:00022210       ?QueryInterface@?$CComContainedObject@VCOPOSLights@@@ATL@@WNA@EAAJAEBU_GUID@@PEAPEAX@Z 0000000180023210 f i Lights.obj
 0001:0002221c       ?QueryInterface@?$CComContainedObject@VCOPOSLights@@@ATL@@WNI@EAAJAEBU_GUID@@PEAPEAX@Z 000000018002321c f i Lights.obj
 0001:00022228       ?QueryInterface@?$CComContainedObject@VCOPOSLights@@@ATL@@WOA@EAAJAEBU_GUID@@PEAPEAX@Z 0000000180023228 f i Lights.obj
 0001:00022234       ?QueryInterface@?$CComContainedObject@VCOPOSLights@@@ATL@@WOI@EAAJAEBU_GUID@@PEAPEAX@Z 0000000180023234 f i Lights.obj
 0001:00022240       ?QueryInterface@?$CComContainedObject@VCOPOSLights@@@ATL@@WPA@EAAJAEBU_GUID@@PEAPEAX@Z 0000000180023240 f i Lights.obj
 0001:0002224c       ?QueryInterface@?$CComContainedObject@VCOPOSLights@@@ATL@@WPI@EAAJAEBU_GUID@@PEAPEAX@Z 000000018002324c f i Lights.obj
 0001:00022260       ?QueryInterface@?$CComObject@V?$CComEnum@UIEnumConnectionPoints@@$1?_GUID_b196b285_bab4_101a_b69c_00aa00341d07@@3U__s_GUID@@BPEAUIConnectionPoint@@V?$_CopyInterface@UIConnectionPoint@@@ATL@@VCComSingleThreadModel@6@@ATL@@@ATL@@UEAAJAEBU_GUID@@PEAPEAX@Z 0000000180023260 f i Lights.obj
 0001:000222b0       ?QueryInterface@?$CComObject@V?$CComEnum@UIEnumConnections@@$1?_GUID_b196b287_bab4_101a_b69c_00aa00341d07@@3U__s_GUID@@BUtagCONNECTDATA@@V?$_Copy@UtagCONNECTDATA@@@ATL@@VCComSingleThreadModel@6@@ATL@@@ATL@@UEAAJAEBU_GUID@@PEAPEAX@Z 00000001800232b0 f i Lights.obj
 0001:00022300       ?QueryInterface@?$CComObject@VCOPOSLights@@@ATL@@UEAAJAEBU_GUID@@PEAPEAX@Z 0000000180023300 f i Lights.obj
 0001:00022344       ?QueryInterface@?$CComObject@VCOPOSLights@@@ATL@@WBAA@EAAJAEBU_GUID@@PEAPEAX@Z 0000000180023344 f i Lights.obj
 0001:00022350       ?QueryInterface@?$CComObject@VCOPOSLights@@@ATL@@WBAI@EAAJAEBU_GUID@@PEAPEAX@Z 0000000180023350 f i Lights.obj
 0001:0002235c       ?QueryInterface@?$CComObject@VCOPOSLights@@@ATL@@WBBA@EAAJAEBU_GUID@@PEAPEAX@Z 000000018002335c f i Lights.obj
 0001:00022368       ?QueryInterface@?$CComObject@VCOPOSLights@@@ATL@@WBBI@EAAJAEBU_GUID@@PEAPEAX@Z 0000000180023368 f i Lights.obj
 0001:00022374       ?QueryInterface@?$CComObject@VCOPOSLights@@@ATL@@WLI@EAAJAEBU_GUID@@PEAPEAX@Z 0000000180023374 f i Lights.obj
 0001:00022380       ?QueryInterface@?$CComObject@VCOPOSLights@@@ATL@@WMA@EAAJAEBU_GUID@@PEAPEAX@Z 0000000180023380 f i Lights.obj
 0001:0002238c       ?QueryInterface@?$CComObject@VCOPOSLights@@@ATL@@WMI@EAAJAEBU_GUID@@PEAPEAX@Z 000000018002338c f i Lights.obj
 0001:00022398       ?QueryInterface@?$CComObject@VCOPOSLights@@@ATL@@WNA@EAAJAEBU_GUID@@PEAPEAX@Z 0000000180023398 f i Lights.obj
 0001:000223a4       ?QueryInterface@?$CComObject@VCOPOSLights@@@ATL@@WNI@EAAJAEBU_GUID@@PEAPEAX@Z 00000001800233a4 f i Lights.obj
 0001:000223b0       ?QueryInterface@?$CComObject@VCOPOSLights@@@ATL@@WOA@EAAJAEBU_GUID@@PEAPEAX@Z 00000001800233b0 f i Lights.obj
 0001:000223bc       ?QueryInterface@?$CComObject@VCOPOSLights@@@ATL@@WOI@EAAJAEBU_GUID@@PEAPEAX@Z 00000001800233bc f i Lights.obj
 0001:000223c8       ?QueryInterface@?$CComObject@VCOPOSLights@@@ATL@@WPA@EAAJAEBU_GUID@@PEAPEAX@Z 00000001800233c8 f i Lights.obj
 0001:000223d4       ?QueryInterface@?$CComObject@VCOPOSLights@@@ATL@@WPI@EAAJAEBU_GUID@@PEAPEAX@Z 00000001800233d4 f i Lights.obj
 0001:000223e0       ?QueryInterface@?$CComObjectCached@VCComClassFactory@ATL@@@ATL@@UEAAJAEBU_GUID@@PEAPEAX@Z 00000001800233e0 f i Lights.obj
 0001:00022430       ?QueryInterface@CRegObject@ATL@@UEAAJAEBU_GUID@@PEAPEAX@Z 0000000180023430 f i Lights.obj
 0001:000224b0       ?QuickActivate@?$IQuickActivateImpl@VCOPOSLights@@@ATL@@UEAAJPEAUtagQACONTAINER@@PEAUtagQACONTROL@@@Z 00000001800234b0 f i Lights.obj
 0001:00022570       ?ReactivateAndUndo@?$IOleInPlaceObjectWindowlessImpl@VCOPOSLights@@@ATL@@UEAAJXZ 0000000180023570 f i Lights.obj
 0001:000225f0       ?ReadFromStream@CComBSTR@ATL@@QEAAJPEAUIStream@@@Z 00000001800235f0 f i Lights.obj
 0001:00022ad0       ?ReadFromStream@CComVariant@ATL@@QEAAJPEAUIStream@@GTClassesAllowedInStream@2@K@Z 0000000180023ad0 f i Lights.obj
 0001:00022f00       ?RecurseDeleteKey@CRegKey@ATL@@QEAAJPEB_W@Z 0000000180023f00 f i Lights.obj
 0001:00023120       ?RegCreateKeyExW@CAtlTransactionManager@ATL@@QEAAJPEAUHKEY__@@PEB_WKPEA_WKKQEAU_SECURITY_ATTRIBUTES@@PEAPEAU3@PEAK@Z 0000000180024120 f i Lights.obj
 0001:000232f0       ?RegDeleteKeyW@CAtlTransactionManager@ATL@@QEAAJPEAUHKEY__@@PEB_W@Z 00000001800242f0 f i Lights.obj
 0001:00023400       ?RegOpenKeyExW@CAtlTransactionManager@ATL@@QEAAJPEAUHKEY__@@PEB_WKKPEAPEAU3@@Z 0000000180024400 f i Lights.obj
 0001:00023550       ?Register@_ATL_WNDCLASSINFOW@ATL@@QEAAGPEAP6A_JPEAUHWND__@@I_K_J@Z@Z 0000000180024550 f i Lights.obj
 0001:000235a0       ?RegisterBuffer@CRegParser@ATL@@QEAAJPEA_WH@Z 00000001800245a0 f i Lights.obj
 0001:00023990       ?RegisterClassExW@AtlModuleRegisterWndClassInfoParamW@ATL@@SAGPEAU_ATL_WIN_MODULE70@2@PEBUtagWNDCLASSEXW@@@Z 0000000180024990 f i Lights.obj
 0001:000239d0       ?RegisterFromResource@CRegObject@ATL@@IEAAJPEB_W00H@Z 00000001800249d0 f i Lights.obj
 0001:00023e30       ?RegisterServer@?$CAtlModuleT@VCComModule@ATL@@@ATL@@QEAAJHPEBU_GUID@@@Z 0000000180024e30 f i Lights.obj
 0001:00023eb0       ?RegisterServer@CAtlComModule@ATL@@QEAAJHPEBU_GUID@@@Z 0000000180024eb0 f i Lights.obj
 0001:00023ef0       ?RegisterServer@CComModule@ATL@@QEAAJHPEBU_GUID@@@Z 0000000180024ef0 f i Lights.obj
 0001:00023ff0       ?RegisterSubkeys@CRegParser@ATL@@IEAAJPEA_WPEAUHKEY__@@HH@Z 0000000180024ff0 f i Lights.obj
 0001:00024dd0       ?Release@?$CComAggObject@VCOPOSLights@@@ATL@@UEAAKXZ 0000000180025dd0 f i Lights.obj
 0001:00024e80       ?Release@?$CComContainedObject@VCOPOSLights@@@ATL@@UEAAKXZ 0000000180025e80 f i Lights.obj
 0001:00024eb8       ?Release@?$CComContainedObject@VCOPOSLights@@@ATL@@WBAA@EAAKXZ 0000000180025eb8 f i Lights.obj
 0001:00024ec4       ?Release@?$CComContainedObject@VCOPOSLights@@@ATL@@WBAI@EAAKXZ 0000000180025ec4 f i Lights.obj
 0001:00024ed0       ?Release@?$CComContainedObject@VCOPOSLights@@@ATL@@WBBA@EAAKXZ 0000000180025ed0 f i Lights.obj
 0001:00024edc       ?Release@?$CComContainedObject@VCOPOSLights@@@ATL@@WBBI@EAAKXZ 0000000180025edc f i Lights.obj
 0001:00024ee8       ?Release@?$CComContainedObject@VCOPOSLights@@@ATL@@WBCI@EAAKXZ 0000000180025ee8 f i Lights.obj
 0001:00024ef4       ?Release@?$CComContainedObject@VCOPOSLights@@@ATL@@WBEA@EAAKXZ 0000000180025ef4 f i Lights.obj
 0001:00024f00       ?Release@?$CComContainedObject@VCOPOSLights@@@ATL@@WLI@EAAKXZ 0000000180025f00 f i Lights.obj
 0001:00024f0c       ?Release@?$CComContainedObject@VCOPOSLights@@@ATL@@WMA@EAAKXZ 0000000180025f0c f i Lights.obj
 0001:00024f18       ?Release@?$CComContainedObject@VCOPOSLights@@@ATL@@WMI@EAAKXZ 0000000180025f18 f i Lights.obj
 0001:00024f24       ?Release@?$CComContainedObject@VCOPOSLights@@@ATL@@WNA@EAAKXZ 0000000180025f24 f i Lights.obj
 0001:00024f30       ?Release@?$CComContainedObject@VCOPOSLights@@@ATL@@WNI@EAAKXZ 0000000180025f30 f i Lights.obj
 0001:00024f3c       ?Release@?$CComContainedObject@VCOPOSLights@@@ATL@@WOA@EAAKXZ 0000000180025f3c f i Lights.obj
 0001:00024f48       ?Release@?$CComContainedObject@VCOPOSLights@@@ATL@@WOI@EAAKXZ 0000000180025f48 f i Lights.obj
 0001:00024f54       ?Release@?$CComContainedObject@VCOPOSLights@@@ATL@@WPA@EAAKXZ 0000000180025f54 f i Lights.obj
 0001:00024f60       ?Release@?$CComContainedObject@VCOPOSLights@@@ATL@@WPI@EAAKXZ 0000000180025f60 f i Lights.obj
 0001:00024f70       ?Release@?$CComObject@V?$CComEnum@UIEnumConnectionPoints@@$1?_GUID_b196b285_bab4_101a_b69c_00aa00341d07@@3U__s_GUID@@BPEAUIConnectionPoint@@V?$_CopyInterface@UIConnectionPoint@@@ATL@@VCComSingleThreadModel@6@@ATL@@@ATL@@UEAAKXZ 0000000180025f70 f i Lights.obj
 0001:00025020       ?Release@?$CComObject@V?$CComEnum@UIEnumConnections@@$1?_GUID_b196b287_bab4_101a_b69c_00aa00341d07@@3U__s_GUID@@BUtagCONNECTDATA@@V?$_Copy@UtagCONNECTDATA@@@ATL@@VCComSingleThreadModel@6@@ATL@@@ATL@@UEAAKXZ 0000000180026020 f i Lights.obj
 0001:000250d0       ?Release@?$CComObject@VCOPOSLights@@@ATL@@UEAAKXZ 00000001800260d0 f i Lights.obj
 0001:00025188       ?Release@?$CComObject@VCOPOSLights@@@ATL@@WBAA@EAAKXZ 0000000180026188 f i Lights.obj
 0001:00025194       ?Release@?$CComObject@VCOPOSLights@@@ATL@@WBAI@EAAKXZ 0000000180026194 f i Lights.obj
 0001:000251a0       ?Release@?$CComObject@VCOPOSLights@@@ATL@@WBBA@EAAKXZ 00000001800261a0 f i Lights.obj
 0001:000251ac       ?Release@?$CComObject@VCOPOSLights@@@ATL@@WBBI@EAAKXZ 00000001800261ac f i Lights.obj
 0001:000251b8       ?Release@?$CComObject@VCOPOSLights@@@ATL@@WBCI@EAAKXZ 00000001800261b8 f i Lights.obj
 0001:000251c4       ?Release@?$CComObject@VCOPOSLights@@@ATL@@WBEA@EAAKXZ 00000001800261c4 f i Lights.obj
 0001:000251d0       ?Release@?$CComObject@VCOPOSLights@@@ATL@@WLI@EAAKXZ 00000001800261d0 f i Lights.obj
 0001:000251dc       ?Release@?$CComObject@VCOPOSLights@@@ATL@@WMA@EAAKXZ 00000001800261dc f i Lights.obj
 0001:000251e8       ?Release@?$CComObject@VCOPOSLights@@@ATL@@WMI@EAAKXZ 00000001800261e8 f i Lights.obj
 0001:000251f4       ?Release@?$CComObject@VCOPOSLights@@@ATL@@WNA@EAAKXZ 00000001800261f4 f i Lights.obj
 0001:00025200       ?Release@?$CComObject@VCOPOSLights@@@ATL@@WNI@EAAKXZ 0000000180026200 f i Lights.obj
 0001:0002520c       ?Release@?$CComObject@VCOPOSLights@@@ATL@@WOA@EAAKXZ 000000018002620c f i Lights.obj
 0001:00025218       ?Release@?$CComObject@VCOPOSLights@@@ATL@@WOI@EAAKXZ 0000000180026218 f i Lights.obj
 0001:00025224       ?Release@?$CComObject@VCOPOSLights@@@ATL@@WPA@EAAKXZ 0000000180026224 f i Lights.obj
 0001:00025230       ?Release@?$CComObject@VCOPOSLights@@@ATL@@WPI@EAAKXZ 0000000180026230 f i Lights.obj
 0001:00025240       ?Release@?$CComObjectCached@VCComClassFactory@ATL@@@ATL@@UEAAKXZ 0000000180026240 f i Lights.obj
 0001:000252e0       ?Release@?$CComPtrBase@UIAdviseSink@@@ATL@@QEAAXXZ 00000001800262e0 f i Lights.obj
 0001:00025340       ?Release@?$CComPtrBase@UIDispatch@@@ATL@@QEAAXXZ 0000000180026340 f i Lights.obj
 0001:000253a0       ?Release@?$CComPtrBase@UIOleInPlaceSiteWindowless@@@ATL@@QEAAXXZ 00000001800263a0 f i Lights.obj
 0001:00025400       ?Release@CRegObject@ATL@@UEAAKXZ 0000000180026400 f i Lights.obj
 0001:00025470       ?Remove@CComDynamicUnkArray@ATL@@QEAAHK@Z 0000000180026470 f i Lights.obj
 0001:00025550       ?RemoveAll@?$CSimpleMap@PEA_WPEA_WVCExpansionVectorEqualHelper@ATL@@@ATL@@QEAAXXZ 0000000180026550 f i Lights.obj
 0001:000255f0       ?Reset@?$CComEnumImpl@UIEnumConnectionPoints@@$1?_GUID_b196b285_bab4_101a_b69c_00aa00341d07@@3U__s_GUID@@BPEAUIConnectionPoint@@V?$_CopyInterface@UIConnectionPoint@@@ATL@@@ATL@@UEAAJXZ 00000001800265f0 f i Lights.obj
 0001:00025610       ?Reset@?$CComEnumImpl@UIEnumConnections@@$1?_GUID_b196b287_bab4_101a_b69c_00aa00341d07@@3U__s_GUID@@BUtagCONNECTDATA@@V?$_Copy@UtagCONNECTDATA@@@ATL@@@ATL@@UEAAJXZ 0000000180026610 f i Lights.obj
 0001:00025630       ?ResizeBorder@?$IOleInPlaceActiveObjectImpl@VCOPOSLights@@@ATL@@UEAAJPEBUtagRECT@@PEAUIOleInPlaceUIWindow@@H@Z 0000000180026630 f i Lights.obj
 0001:000256b0       ?ResourceRegister@CRegObject@ATL@@QEAAJPEB_WI0@Z 00000001800266b0 f i Lights.obj
 0001:00025790       ?ResourceRegisterSz@CRegObject@ATL@@QEAAJPEB_W00@Z 0000000180026790 f i Lights.obj
 0001:000258b0       ?ResourceUnregister@CRegObject@ATL@@QEAAJPEB_WI0@Z 00000001800268b0 f i Lights.obj
 0001:00025990       ?ResourceUnregisterSz@CRegObject@ATL@@QEAAJPEB_W00@Z 0000000180026990 f i Lights.obj
 0001:00025ab0       ?SODataDummy@COPOSLights@@MEAAJJ@Z 0000000180026ab0 f i Lights.obj
 0001:00025ad0       ?SODirectIO@COPOSLights@@MEAAJJPEAJPEAPEA_W@Z 0000000180026ad0 f i Lights.obj
 0001:00025d10       ?SOErrorDummy@COPOSLights@@MEAAJJJJPEAJ@Z 0000000180026d10 f i Lights.obj
 0001:00025d30       ?SOOutputCompleteDummy@COPOSLights@@MEAAJJ@Z 0000000180026d30 f i Lights.obj
 0001:00025d50       ?SOStatusUpdate@COPOSLights@@MEAAJJ@Z 0000000180026d50 f i Lights.obj
 0001:00025df0       ?Save@?$IPersistStorageImpl@VCOPOSLights@@@ATL@@UEAAJPEAUIStorage@@H@Z 0000000180026df0 f i Lights.obj
 0001:00025fb0       ?Save@?$IPersistStreamInitImpl@VCOPOSLights@@@ATL@@UEAAJPEAUIStream@@H@Z 0000000180026fb0 f i Lights.obj
 0001:00026070       ?SaveCompleted@?$IPersistStorageImpl@VCOPOSLights@@@ATL@@UEAAJPEAUIStorage@@@Z 0000000180027070 f i Lights.obj
 0001:000260e0       ?SendOnDataChange@CComControlBase@ATL@@QEAAJK@Z 00000001800270e0 f i Lights.obj
 0001:000261d0       ?SendOnSave@CComControlBase@ATL@@QEAAJXZ 00000001800271d0 f i Lights.obj
 0001:00026240       ?SendOnViewChange@CComControlBase@ATL@@QEAAJKJ@Z 0000000180027240 f i Lights.obj
 0001:000262c0       ?SetAdvise@?$IViewObjectExImpl@VCOPOSLights@@@ATL@@UEAAJKKPEAUIAdviseSink@@@Z 00000001800272c0 f i Lights.obj
 0001:00026380       ?SetClientSite@?$IOleObjectImpl@VCOPOSLights@@@ATL@@UEAAJPEAUIOleClientSite@@@Z 0000000180027380 f i Lights.obj
 0001:00026430       ?SetColorScheme@?$IOleObjectImpl@VCOPOSLights@@@ATL@@UEAAJPEAUtagLOGPALETTE@@@Z 0000000180027430 f i Lights.obj
 0001:000264c0       ?SetContentExtent@?$IQuickActivateImpl@VCOPOSLights@@@ATL@@UEAAJPEAUtagSIZE@@@Z 00000001800274c0 f i Lights.obj
 0001:00026580       ?SetControlFocus@CComControlBase@ATL@@QEAAHH@Z 0000000180027580 f i Lights.obj
 0001:00026710       ?SetDWORDValue@CRegKey@ATL@@QEAAJPEB_WK@Z 0000000180027710 f i Lights.obj
 0001:000267c0       ?SetData@?$IDataObjectImpl@VCOPOSLights@@@ATL@@UEAAJPEAUtagFORMATETC@@PEAUtagSTGMEDIUM@@H@Z 00000001800277c0 f i Lights.obj
 0001:00026850       ?SetExtent@?$IOleObjectImpl@VCOPOSLights@@@ATL@@UEAAJKPEAUtagSIZE@@@Z 0000000180027850 f i Lights.obj
 0001:00026910       ?SetHostNames@?$IOleObjectImpl@VCOPOSLights@@@ATL@@UEAAJPEB_W0@Z 0000000180027910 f i Lights.obj
 0001:00026990       ?SetInterfaceSafetyOptions@?$IObjectSafetyImpl@VCOPOSLights@@$02@ATL@@UEAAJAEBU_GUID@@KK@Z 0000000180027990 f i Lights.obj
 0001:00026b30       ?SetMoniker@?$IOleObjectImpl@VCOPOSLights@@@ATL@@UEAAJKPEAUIMoniker@@@Z 0000000180027b30 f i Lights.obj
 0001:00026bc0       ?SetMultiStringValue@CRegKey@ATL@@QEAAJPEB_W0@Z 0000000180027bc0 f i Lights.obj
 0001:00026d30       ?SetObjectRects@?$IOleInPlaceObjectWindowlessImpl@VCOPOSLights@@@ATL@@UEAAJPEBUtagRECT@@0@Z 0000000180027d30 f i Lights.obj
 0001:00026df0       ?SetStringValue@CRegKey@ATL@@QEAAJPEB_W0K@Z 0000000180027df0 f i Lights.obj
 0001:00026f70       ?SetVoid@CComClassFactory@ATL@@QEAAXPEAX@Z 0000000180027f70 f i Lights.obj
 0001:00026f90       ?SetVoid@CComObjectRootBase@ATL@@QEAAXPEAX@Z 0000000180027f90 f i Lights.obj
 0001:00026fa0       ?ShowWindow@CWindow@ATL@@QEAAHH@Z 0000000180027fa0 f i Lights.obj
 0001:00027030       ?Skip@?$CComEnumImpl@UIEnumConnectionPoints@@$1?_GUID_b196b285_bab4_101a_b69c_00aa00341d07@@3U__s_GUID@@BPEAUIConnectionPoint@@V?$_CopyInterface@UIConnectionPoint@@@ATL@@@ATL@@UEAAJK@Z 0000000180028030 f i Lights.obj
 0001:000270d0       ?Skip@?$CComEnumImpl@UIEnumConnections@@$1?_GUID_b196b287_bab4_101a_b69c_00aa00341d07@@3U__s_GUID@@BUtagCONNECTDATA@@V?$_Copy@UtagCONNECTDATA@@@ATL@@@ATL@@UEAAJK@Z 00000001800280d0 f i Lights.obj
 0001:00027170       ?SkipAssignment@CRegParser@ATL@@IEAAJPEA_W@Z 0000000180028170 f i Lights.obj
 0001:00027270       ?SkipWhiteSpace@CRegParser@ATL@@IEAAXXZ 0000000180028270 f i Lights.obj
 0001:000272d0       ?StartWindowProc@?$CWindowImplBaseT@VCWindow@ATL@@V?$CWinTraits@$0FGAAAAAA@$0A@@2@@ATL@@SA_JPEAUHWND__@@I_K_J@Z 00000001800282d0 f i Lights.obj
 0001:00027440       ?StrChrW@CRegParser@ATL@@KAPEA_WPEA_W_W@Z 0000000180028440 f i Lights.obj
 0001:000274c0       ?StrFromMap@CRegObject@ATL@@QEAAPEB_WPEA_W@Z 00000001800284c0 f i Lights.obj
 0001:00027580       ?Swap@?$CComPtrBase@UIAdviseSink@@@ATL@@IEAAXAEAV12@@Z 0000000180028580 f i Lights.obj
 0001:000275e0       ?Swap@?$CComPtrBase@UIOleClientSite@@@ATL@@IEAAXAEAV12@@Z 00000001800285e0 f i Lights.obj
 0001:00027640       ?Swap@?$CComPtrBase@UIUnknown@@@ATL@@IEAAXAEAV12@@Z 0000000180028640 f i Lights.obj
 0001:000276a0       ?T2COLE_EX@@YAPEB_WPEB_WI@Z 00000001800286a0 f i Lights.obj
 0001:000276c0       ?T2OLE_EX@@YAPEA_WPEA_WI@Z 00000001800286c0 f i Lights.obj
 0001:000276e0       ?Term@CAtlModule@ATL@@QEAAXXZ 00000001800286e0 f i Lights.obj
 0001:000277a0       ?Term@CComModule@ATL@@QEAAXXZ 00000001800287a0 f i Lights.obj
 0001:00027890       ?TranslateAcceleratorW@?$IOleInPlaceActiveObjectImpl@VCOPOSLights@@@ATL@@UEAAJPEAUtagMSG@@@Z 0000000180028890 f i Lights.obj
 0001:00027b00       ?UIDeactivate@?$IOleInPlaceObjectWindowlessImpl@VCOPOSLights@@@ATL@@UEAAJXZ 0000000180028b00 f i Lights.obj
 0001:00027bb0       ?Unadvise@?$CProxy_IOPOSEvents@VCOPOSLights@@@@UEAAJK@Z 0000000180028bb0 f i Lights.obj
 0001:00027c00       ?Unadvise@?$IConnectionPointImpl@VCOPOSLights@@$1?DIID__IOPOSLightsEvents@@3U_GUID@@BVCComDynamicUnkArray@ATL@@@ATL@@UEAAJK@Z 0000000180028c00 f i Lights.obj
 0001:00027cf0       ?Unadvise@?$IConnectionPointImpl@VCOPOSLights@@$1?IID_IPropertyNotifySink@@3U_GUID@@BVCComDynamicUnkArray@ATL@@@ATL@@UEAAJK@Z 0000000180028cf0 f i Lights.obj
 0001:00027de0       ?Unadvise@?$IOleObjectImpl@VCOPOSLights@@@ATL@@UEAAJK@Z 0000000180028de0 f i Lights.obj
 0001:00027ed0       ?Unfreeze@?$IViewObjectExImpl@VCOPOSLights@@@ATL@@UEAAJK@Z 0000000180028ed0 f i Lights.obj
 0001:00027f50       ?Unlock@?$CComCritSecLock@VCComCriticalSection@ATL@@@ATL@@QEAAXXZ 0000000180028f50 f i Lights.obj
 0001:00027fe0       ?Unlock@?$CComObjectRootEx@VCComSingleThreadModel@ATL@@@ATL@@QEAAXXZ 0000000180028fe0 f i Lights.obj
 0001:00027ff0       ?Unlock@CAtlModule@ATL@@UEAAJXZ 0000000180028ff0 f i Lights.obj
 0001:00028030       ?Unlock@CComCriticalSection@ATL@@QEAAJXZ 0000000180029030 f i Lights.obj
 0001:00028070       ?Unlock@CComFakeCriticalSection@ATL@@QEAAJXZ 0000000180029070 f i Lights.obj
 0001:00028080       ?UnregisterServer@?$CAtlModuleT@VCComModule@ATL@@@ATL@@QEAAJHPEBU_GUID@@@Z 0000000180029080 f i Lights.obj
 0001:000280f0       ?UnregisterServer@CAtlComModule@ATL@@QEAAJHPEBU_GUID@@@Z 00000001800290f0 f i Lights.obj
 0001:00028130       ?UnregisterServer@CComModule@ATL@@QEAAJHPEBU_GUID@@@Z 0000000180029130 f i Lights.obj
 0001:00028220       ?Update@?$IOleObjectImpl@VCOPOSLights@@@ATL@@UEAAJXZ 0000000180029220 f i Lights.obj
 0001:00028290       ?UpdateRegistryFromResource@CAtlModule@ATL@@QEAAJIHPEAU_ATL_REGMAP_ENTRY@2@@Z 0000000180029290 f i Lights.obj
 0001:000287c0       ?UpdateRegistryFromResource@CAtlModule@ATL@@QEAAJPEB_WHPEAU_ATL_REGMAP_ENTRY@2@@Z 00000001800297c0 f i Lights.obj
 0001:00028d10       ?UpdateRegistryFromResource@CComModule@ATL@@UEAAJIHPEAU_ATL_REGMAP_ENTRY@2@@Z 0000000180029d10 f i Lights.obj
 0001:00028d60       ?UpdateRegistryFromResource@CComModule@ATL@@UEAAJPEB_WHPEAU_ATL_REGMAP_ENTRY@2@@Z 0000000180029d60 f i Lights.obj
 0001:00028db0       ?UpdateRegistryFromResourceD@CComModule@ATL@@UEAAJIHPEAU_ATL_REGMAP_ENTRY@2@@Z 0000000180029db0 f i Lights.obj
 0001:00028dd0       ?UpdateRegistryFromResourceD@CComModule@ATL@@UEAAJPEB_WHPEAU_ATL_REGMAP_ENTRY@2@@Z 0000000180029dd0 f i Lights.obj
 0001:00028df0       ?VTFromRegType@CRegParser@ATL@@KAHPEB_WAEAG@Z 0000000180029df0 f i Lights.obj
 0001:00028ed0       ?WindowProc@?$CWindowImplBaseT@VCWindow@ATL@@V?$CWinTraits@$0FGAAAAAA@$0A@@2@@ATL@@SA_JPEAUHWND__@@I_K_J@Z 0000000180029ed0 f i Lights.obj
 0001:000291b0       ?WriteToStream@CComBSTR@ATL@@QEAAJPEAUIStream@@@Z 000000018002a1b0 f i Lights.obj
 0001:00029320       ?WriteToStream@CComVariant@ATL@@QEAAJPEAUIStream@@@Z 000000018002a320 f i Lights.obj
 0001:00029730       ?WriteToStream@CComVariant@ATL@@QEAAJPEAUIStream@@G@Z 000000018002a730 f i Lights.obj
 0001:00029810       ?_AtlFinalConstruct@CComObjectRootBase@ATL@@QEAAJXZ 000000018002a810 f i Lights.obj
 0001:00029820       ?_AtlGetConversionACP@ATL@@YAIXZ 000000018002a820 f i Lights.obj
 0001:00029830       ?_AtlInitialConstruct@?$CComAggObject@VCOPOSLights@@@ATL@@QEAAJXZ 000000018002a830 f i Lights.obj
 0001:00029890       ?_AtlInitialConstruct@?$CComObjectRootEx@VCComMultiThreadModel@ATL@@@ATL@@QEAAJXZ 000000018002a890 f i Lights.obj
 0001:000298d0       ?_AtlInitialConstruct@?$CComObjectRootEx@VCComSingleThreadModel@ATL@@@ATL@@QEAAJXZ 000000018002a8d0 f i Lights.obj
 0001:000298e0       ?_AtlVerifyStackAvailable@_ATL_SAFE_ALLOCA_IMPL@ATL@@YA_N_K@Z 000000018002a8e0 f i Lights.obj
 0001:00029a40       ?_GetEntries@?$CComEnum@UIEnumConnectionPoints@@$1?_GUID_b196b285_bab4_101a_b69c_00aa00341d07@@3U__s_GUID@@BPEAUIConnectionPoint@@V?$_CopyInterface@UIConnectionPoint@@@ATL@@VCComSingleThreadModel@6@@ATL@@SAPEBU_ATL_INTMAP_ENTRY@2@XZ 000000018002aa40 f i Lights.obj
 0001:00029a60       ?_GetEntries@?$CComEnum@UIEnumConnections@@$1?_GUID_b196b287_bab4_101a_b69c_00aa00341d07@@3U__s_GUID@@BUtagCONNECTDATA@@V?$_Copy@UtagCONNECTDATA@@@ATL@@VCComSingleThreadModel@6@@ATL@@SAPEBU_ATL_INTMAP_ENTRY@2@XZ 000000018002aa60 f i Lights.obj
 0001:00029a80       ?_GetEntries@CComClassFactory@ATL@@SAPEBU_ATL_INTMAP_ENTRY@2@XZ 000000018002aa80 f i Lights.obj
 0001:00029aa0       ?_GetEntries@COPOSLights@@SAPEBU_ATL_INTMAP_ENTRY@ATL@@XZ 000000018002aaa0 f i Lights.obj
 0001:00029ac0       ?_GetRawUnknown@COPOSLights@@QEAAPEAUIUnknown@@XZ 000000018002aac0 f i Lights.obj
 0001:00029b50       ?_GetViewStatus@COPOSLights@@QEAAKXZ 000000018002ab50 f i Lights.obj
 0001:00029b60       ?_InternalQueryInterface@?$CComEnum@UIEnumConnectionPoints@@$1?_GUID_b196b285_bab4_101a_b69c_00aa00341d07@@3U__s_GUID@@BPEAUIConnectionPoint@@V?$_CopyInterface@UIConnectionPoint@@@ATL@@VCComSingleThreadModel@6@@ATL@@QEAAJAEBU_GUID@@PEAPEAX@Z 000000018002ab60 f i Lights.obj
 0001:00029bb0       ?_InternalQueryInterface@?$CComEnum@UIEnumConnections@@$1?_GUID_b196b287_bab4_101a_b69c_00aa00341d07@@3U__s_GUID@@BUtagCONNECTDATA@@V?$_Copy@UtagCONNECTDATA@@@ATL@@VCComSingleThreadModel@6@@ATL@@QEAAJAEBU_GUID@@PEAPEAX@Z 000000018002abb0 f i Lights.obj
 0001:00029c00       ?_InternalQueryInterface@CComClassFactory@ATL@@QEAAJAEBU_GUID@@PEAPEAX@Z 000000018002ac00 f i Lights.obj
 0001:00029c50       ?_InternalQueryInterface@COPOSLights@@QEAAJAEBU_GUID@@PEAPEAX@Z 000000018002ac50 f i Lights.obj
 0001:00029ca0       ?_LocCPQueryInterface@?$IConnectionPointImpl@VCOPOSLights@@$1?DIID__IOPOSLightsEvents@@3U_GUID@@BVCComDynamicUnkArray@ATL@@@ATL@@UEAAJAEBU_GUID@@PEAPEAX@Z 000000018002aca0 f i Lights.obj
 0001:00029d80       ?_LocCPQueryInterface@?$IConnectionPointImpl@VCOPOSLights@@$1?IID_IPropertyNotifySink@@3U_GUID@@BVCComDynamicUnkArray@ATL@@@ATL@@UEAAJAEBU_GUID@@PEAPEAX@Z 000000018002ad80 f i Lights.obj
 0001:00029e60       ?atlCreate@?$CWindowImpl@VCOPOSLights@@VCWindow@ATL@@V?$CWinTraits@$0FGAAAAAA@$0A@@3@@ATL@@QEAAPEAUHWND__@@PEAU3@V_U_RECT@2@PEB_WKKV_U_MENUorID@2@PEAX@Z 000000018002ae60 f i Lights.obj
 0001:00029f90       ?atlCreate@?$CWindowImplBaseT@VCWindow@ATL@@V?$CWinTraits@$0FGAAAAAA@$0A@@2@@ATL@@QEAAPEAUHWND__@@PEAU3@V_U_RECT@2@PEB_WKKV_U_MENUorID@2@GPEAX@Z 000000018002af90 f i Lights.obj
 0001:0002a1f0       ?atlCreate@CRegKey@ATL@@QEAAJPEAUHKEY__@@PEB_WPEA_WKKPEAU_SECURITY_ATTRIBUTES@@PEAK@Z 000000018002b1f0 f i Lights.obj
 0001:0002a3e0       ?begin@CComDynamicUnkArray@ATL@@QEAAPEAPEAUIUnknown@@XZ 000000018002b3e0 f i Lights.obj
 0001:0002a3f0       ?copy@?$_Copy@UtagCONNECTDATA@@@ATL@@SAJPEAUtagCONNECTDATA@@PEBU3@@Z 000000018002b3f0 f i Lights.obj
 0001:0002a4e0       ?copy@?$_CopyInterface@UIConnectionPoint@@@ATL@@SAJPEAPEAUIConnectionPoint@@PEBQEAU3@@Z 000000018002b4e0 f i Lights.obj
 0001:0002a5d0       ?destroy@?$_Copy@UtagCONNECTDATA@@@ATL@@SAXPEAUtagCONNECTDATA@@@Z 000000018002b5d0 f i Lights.obj
 0001:0002a620       ?destroy@?$_CopyInterface@UIConnectionPoint@@@ATL@@SAXPEAPEAUIConnectionPoint@@@Z 000000018002b620 f i Lights.obj
 0001:0002a670       ?end@CComDynamicUnkArray@ATL@@QEAAPEAPEAUIUnknown@@XZ 000000018002b670 f i Lights.obj
 0001:0002a690       ?init@?$_Copy@UtagCONNECTDATA@@@ATL@@SAXPEAUtagCONNECTDATA@@@Z 000000018002b690 f i Lights.obj
 0001:0002a6a0       ?init@?$_CopyInterface@UIConnectionPoint@@@ATL@@SAXPEAPEAUIConnectionPoint@@@Z 000000018002b6a0 f i Lights.obj
 0001:0002a6b0       ?memcpy_s@Checked@ATL@@YAXPEAX_KPEBX1@Z 000000018002b6b0 f i Lights.obj
 0001:0002a710       ?ocscpy_s@@YA_NPEA_W_KPEB_W@Z 000000018002b710 f i Lights.obj
 0001:0002a790       ?ocslen@@YAHPEB_W@Z        000000018002b790 f i Lights.obj
 0001:0002a7d0       ?tcsncpy_s@Checked@ATL@@YAHPEA_W_KPEB_W1@Z 000000018002b7d0 f i Lights.obj
 0001:0002a830       ?wcscat_s@Checked@ATL@@YAXPEA_W_KPEB_W@Z 000000018002b830 f i Lights.obj
 0001:0002a880       ?wcscpy_s@Checked@ATL@@YAXPEA_W_KPEB_W@Z 000000018002b880 f i Lights.obj
 0001:0002a8d0       ?wcsncpy_s@Checked@ATL@@YAHPEA_W_KPEB_W1@Z 000000018002b8d0 f i Lights.obj
 0001:0002a930       ?wcsstr@@YAPEA_WPEA_WPEB_W@Z 000000018002b930 f i Lights.obj
 0001:0002a970       InlineIsEqualGUID          000000018002b970 f i Lights.obj
 0001:0002aa40       IsEqualGUID                000000018002ba40 f i Lights.obj
 0001:0002aaa0       ??0COPOSLights@@QEAA@XZ    000000018002baa0 f   LightsImpl.obj
 0001:0002ac20       ?FinalConstruct@COPOSLights@@QEAAJXZ 000000018002bc20 f   LightsImpl.obj
 0001:0002ad10       ??1COPOSLights@@UEAA@XZ    000000018002bd10 f   LightsImpl.obj
 0001:0002adf0       ?WriteTrace@COPOSLights@@QEAAXPEB_WZZ 000000018002bdf0 f   LightsImpl.obj
 0001:0002aeb0       ?WriteTraceString@COPOSLights@@QEAAXPEB_WPEA_W@Z 000000018002beb0 f   LightsImpl.obj
 0001:0002b2f0       ?WriteTraceString@COPOSLights@@QEAAXPEAXHHHPEB_WZZ 000000018002c2f0 f   LightsImpl.obj
 0001:0002b580       ?WriteTraceError@COPOSLights@@QEAAXPEB_WK@Z 000000018002c580 f   LightsImpl.obj
 0001:0002b680       ?WriteTraceMethods@COPOSLights@@QEAAXPEAJH@Z 000000018002c680 f   LightsImpl.obj
 0001:0002b710       ?GetOposProp@COPOSLights@@IEAAJPEBDJPEAJJ@Z 000000018002c710 f   LightsImpl.obj
 0001:0002ba30       ?SetOposProp@COPOSLights@@IEAAJPEBDJJJ@Z 000000018002ca30 f   LightsImpl.obj
 0001:0002bd90       ?GetOposProp@COPOSLights@@IEAAJPEBDJPEAFJ@Z 000000018002cd90 f   LightsImpl.obj
 0001:0002be30       ?SetOposProp@COPOSLights@@IEAAJPEBDJFJ@Z 000000018002ce30 f   LightsImpl.obj
 0001:0002beb0       ?GetOposProp@COPOSLights@@IEAAJPEBDJPEAPEA_WJ@Z 000000018002ceb0 f   LightsImpl.obj
 0001:0002c1d0       ?SetOposProp@COPOSLights@@IEAAJPEBDJPEA_WJ@Z 000000018002d1d0 f   LightsImpl.obj
 0001:0002c5b0       ?DoInvoke@COPOSLights@@IEAAJPEBDJPEAVOposVariant@@IHPEAJ_N@Z 000000018002d5b0 f   LightsImpl.obj
 0001:0002d100       ?SetCOFreezeEvents@COPOSLights@@IEAAXF@Z 000000018002e100 f   LightsImpl.obj
 0001:0002d290       ?FreezeEvents@COPOSLights@@MEAAJH@Z 000000018002e290 f   LightsImpl.obj
 0001:0002d3c0       ?OnDraw@COPOSLights@@MEAAJAEAUATL_DRAWINFO@@@Z 000000018002e3c0 f   LightsImpl.obj
 0001:0002d590       ?SOProcessID@COPOSLights@@UEAAJPEAJ@Z 000000018002e590 f   LightsImpl.obj
 0001:0002d5f0       ?get_OpenResult@COPOSLights@@UEAAJPEAJ@Z 000000018002e5f0 f   LightsImpl.obj
 0001:0002d650       ?get_BinaryConversion@COPOSLights@@UEAAJPEAJ@Z 000000018002e650 f   LightsImpl.obj
 0001:0002d6b0       ?put_BinaryConversion@COPOSLights@@UEAAJJ@Z 000000018002e6b0 f   LightsImpl.obj
 0001:0002d720       ?get_CapPowerReporting@COPOSLights@@UEAAJPEAJ@Z 000000018002e720 f   LightsImpl.obj
 0001:0002d780       ?get_CheckHealthText@COPOSLights@@UEAAJPEAPEA_W@Z 000000018002e780 f   LightsImpl.obj
 0001:0002d7e0       ?get_Claimed@COPOSLights@@UEAAJPEAF@Z 000000018002e7e0 f   LightsImpl.obj
 0001:0002d840       ?get_DeviceEnabled@COPOSLights@@UEAAJPEAF@Z 000000018002e840 f   LightsImpl.obj
 0001:0002d8a0       ?put_DeviceEnabled@COPOSLights@@UEAAJF@Z 000000018002e8a0 f   LightsImpl.obj
 0001:0002d900       ?get_FreezeEvents@COPOSLights@@UEAAJPEAF@Z 000000018002e900 f   LightsImpl.obj
 0001:0002d960       ?put_FreezeEvents@COPOSLights@@UEAAJF@Z 000000018002e960 f   LightsImpl.obj
 0001:0002da40       ?get_PowerNotify@COPOSLights@@UEAAJPEAJ@Z 000000018002ea40 f   LightsImpl.obj
 0001:0002daa0       ?put_PowerNotify@COPOSLights@@UEAAJJ@Z 000000018002eaa0 f   LightsImpl.obj
 0001:0002db00       ?get_PowerState@COPOSLights@@UEAAJPEAJ@Z 000000018002eb00 f   LightsImpl.obj
 0001:0002db60       ?get_ResultCode@COPOSLights@@UEAAJPEAJ@Z 000000018002eb60 f   LightsImpl.obj
 0001:0002dc30       ?get_ResultCodeExtended@COPOSLights@@UEAAJPEAJ@Z 000000018002ec30 f   LightsImpl.obj
 0001:0002dc90       ?get_State@COPOSLights@@UEAAJPEAJ@Z 000000018002ec90 f   LightsImpl.obj
 0001:0002dd20       ?get_ControlObjectDescription@COPOSLights@@UEAAJPEAPEA_W@Z 000000018002ed20 f   LightsImpl.obj
 0001:0002dda0       ?get_ControlObjectVersion@COPOSLights@@UEAAJPEAJ@Z 000000018002eda0 f   LightsImpl.obj
 0001:0002de00       ?get_ServiceObjectDescription@COPOSLights@@UEAAJPEAPEA_W@Z 000000018002ee00 f   LightsImpl.obj
 0001:0002de60       ?get_ServiceObjectVersion@COPOSLights@@UEAAJPEAJ@Z 000000018002ee60 f   LightsImpl.obj
 0001:0002dec0       ?get_DeviceDescription@COPOSLights@@UEAAJPEAPEA_W@Z 000000018002eec0 f   LightsImpl.obj
 0001:0002df20       ?get_DeviceName@COPOSLights@@UEAAJPEAPEA_W@Z 000000018002ef20 f   LightsImpl.obj
 0001:0002df80       ?get_CapStatisticsReporting@COPOSLights@@UEAAJPEAF@Z 000000018002ef80 f   LightsImpl.obj
 0001:0002dfe0       ?get_CapUpdateStatistics@COPOSLights@@UEAAJPEAF@Z 000000018002efe0 f   LightsImpl.obj
 0001:0002e040       ?get_CapCompareFirmwareVersion@COPOSLights@@UEAAJPEAF@Z 000000018002f040 f   LightsImpl.obj
 0001:0002e0a0       ?get_CapUpdateFirmware@COPOSLights@@UEAAJPEAF@Z 000000018002f0a0 f   LightsImpl.obj
 0001:0002e100       ?CheckHealth@COPOSLights@@UEAAJJPEAJ@Z 000000018002f100 f   LightsImpl.obj
 0001:0002e1c0       ?ClaimDevice@COPOSLights@@UEAAJJPEAJ@Z 000000018002f1c0 f   LightsImpl.obj
 0001:0002e2e0       ?Close@COPOSLights@@UEAAJPEAJ@Z 000000018002f2e0 f   LightsImpl.obj
 0001:0002e3f0       ?DirectIO@COPOSLights@@UEAAJJPEAJPEAPEA_W0@Z 000000018002f3f0 f   LightsImpl.obj
 0001:0002e570       ?Open@COPOSLights@@UEAAJPEA_WPEAJ@Z 000000018002f570 f   LightsImpl.obj
 0001:0002fa50       ?ReleaseDevice@COPOSLights@@UEAAJPEAJ@Z 0000000180030a50 f   LightsImpl.obj
 0001:0002fb00       ?ResetStatistics@COPOSLights@@UEAAJPEA_WPEAJ@Z 0000000180030b00 f   LightsImpl.obj
 0001:0002fbe0       ?RetrieveStatistics@COPOSLights@@UEAAJPEAPEA_WPEAJ@Z 0000000180030be0 f   LightsImpl.obj
 0001:0002fcc0       ?UpdateStatistics@COPOSLights@@UEAAJPEA_WPEAJ@Z 0000000180030cc0 f   LightsImpl.obj
 0001:0002fda0       ?CompareFirmwareVersion@COPOSLights@@UEAAJPEA_WPEAJ1@Z 0000000180030da0 f   LightsImpl.obj
 0001:0002fee0       ?UpdateFirmware@COPOSLights@@UEAAJPEA_WPEAJ@Z 0000000180030ee0 f   LightsImpl.obj
 0001:0002ffc0       ?get_CapAlarm@COPOSLights@@UEAAJPEAJ@Z 0000000180030fc0 f   LightsImpl.obj
 0001:00030020       ?get_CapBlink@COPOSLights@@UEAAJPEAF@Z 0000000180031020 f   LightsImpl.obj
 0001:00030080       ?get_CapColor@COPOSLights@@UEAAJPEAJ@Z 0000000180031080 f   LightsImpl.obj
 0001:000300e0       ?get_MaxLights@COPOSLights@@UEAAJPEAJ@Z 00000001800310e0 f   LightsImpl.obj
 0001:00030140       ?SwitchOff@COPOSLights@@UEAAJJPEAJ@Z 0000000180031140 f   LightsImpl.obj
 0001:00030200       ?SwitchOn@COPOSLights@@UEAAJJJJJJPEAJ@Z 0000000180031200 f   LightsImpl.obj
 0001:00030390       ??0?$CComControl@VCOPOSLights@@V?$CWindowImpl@VCOPOSLights@@VCWindow@ATL@@V?$CWinTraits@$0FGAAAAAA@$0A@@3@@ATL@@@ATL@@QEAA@XZ 0000000180031390 f i LightsImpl.obj
 0001:000303e0       ??0?$CComPtr@UIAdviseSink@@@ATL@@QEAA@XZ 00000001800313e0 f i LightsImpl.obj
 0001:00030420       ??0?$CComPtr@UIDataAdviseHolder@@@ATL@@QEAA@XZ 0000000180031420 f i LightsImpl.obj
 0001:00030460       ??0?$CComPtr@UIOleAdviseHolder@@@ATL@@QEAA@XZ 0000000180031460 f i LightsImpl.obj
 0001:000304a0       ??0?$CComPtr@UIOleClientSite@@@ATL@@QEAA@XZ 00000001800314a0 f i LightsImpl.obj
 0001:000304e0       ??0?$CComPtr@UIOleInPlaceSiteWindowless@@@ATL@@QEAA@XZ 00000001800314e0 f i LightsImpl.obj
 0001:00030520       ??0?$CComPtrBase@UIAdviseSink@@@ATL@@IEAA@XZ 0000000180031520 f i LightsImpl.obj
 0001:00030540       ??0?$CComPtrBase@UIDataAdviseHolder@@@ATL@@IEAA@XZ 0000000180031540 f i LightsImpl.obj
 0001:00030560       ??0?$CComPtrBase@UIOleAdviseHolder@@@ATL@@IEAA@XZ 0000000180031560 f i LightsImpl.obj
 0001:00030580       ??0?$CComPtrBase@UIOleClientSite@@@ATL@@IEAA@XZ 0000000180031580 f i LightsImpl.obj
 0001:000305a0       ??0?$CComPtrBase@UIOleInPlaceSiteWindowless@@@ATL@@IEAA@XZ 00000001800315a0 f i LightsImpl.obj
 0001:000305c0       ??0?$CComQIPtr@UIDispatch@@$1?_GUID_00020400_0000_0000_c000_000000000046@@3U__s_GUID@@B@ATL@@QEAA@XZ 00000001800315c0 f i LightsImpl.obj
 0001:00030600       ??0?$CProxy_IOPOSEvents@VCOPOSLights@@@@QEAA@PEAVCOPOSLights@@@Z 0000000180031600 f i LightsImpl.obj
 0001:00030670       ??0?$CWindowImpl@VCOPOSLights@@VCWindow@ATL@@V?$CWinTraits@$0FGAAAAAA@$0A@@3@@ATL@@QEAA@XZ 0000000180031670 f i LightsImpl.obj
 0001:000306b0       ??0?$CWindowImplBaseT@VCWindow@ATL@@V?$CWinTraits@$0FGAAAAAA@$0A@@2@@ATL@@QEAA@XZ 00000001800316b0 f i LightsImpl.obj
 0001:00030700       ??0?$CWindowImplRoot@VCWindow@ATL@@@ATL@@QEAA@XZ 0000000180031700 f i LightsImpl.obj
 0001:00030770       ??0?$IConnectionPointContainerImpl@VCOPOSLights@@@ATL@@QEAA@XZ 0000000180031770 f i LightsImpl.obj
 0001:000307b0       ??0?$IConnectionPointImpl@VCOPOSLights@@$1?DIID__IOPOSLightsEvents@@3U_GUID@@BVCComDynamicUnkArray@ATL@@@ATL@@QEAA@XZ 00000001800317b0 f i LightsImpl.obj
 0001:00030800       ??0?$IConnectionPointImpl@VCOPOSLights@@$1?IID_IPropertyNotifySink@@3U_GUID@@BVCComDynamicUnkArray@ATL@@@ATL@@QEAA@XZ 0000000180031800 f i LightsImpl.obj
 0001:00030850       ??0?$IDataObjectImpl@VCOPOSLights@@@ATL@@QEAA@XZ 0000000180031850 f i LightsImpl.obj
 0001:00030890       ??0?$IDispatchImpl@UIOPOSLights@@$1?IID_IOPOSLights@@3U_GUID@@B$1?LIBID_OposLights_CCO@@3U3@B$00$0A@VCComTypeInfoHolder@ATL@@@ATL@@QEAA@XZ 0000000180031890 f i LightsImpl.obj
 0001:000308d0       ??0?$IObjectSafetyImpl@VCOPOSLights@@$02@ATL@@QEAA@XZ 00000001800318d0 f i LightsImpl.obj
 0001:00030910       ??0?$IOleControlImpl@VCOPOSLights@@@ATL@@QEAA@XZ 0000000180031910 f i LightsImpl.obj
 0001:00030950       ??0?$IOleInPlaceActiveObjectImpl@VCOPOSLights@@@ATL@@QEAA@XZ 0000000180031950 f i LightsImpl.obj
 0001:00030990       ??0?$IOleInPlaceObjectWindowlessImpl@VCOPOSLights@@@ATL@@QEAA@XZ 0000000180031990 f i LightsImpl.obj
 0001:000309d0       ??0?$IOleObjectImpl@VCOPOSLights@@@ATL@@QEAA@XZ 00000001800319d0 f i LightsImpl.obj
 0001:00030a10       ??0?$IPersistStorageImpl@VCOPOSLights@@@ATL@@QEAA@XZ 0000000180031a10 f i LightsImpl.obj
 0001:00030a50       ??0?$IPersistStreamInitImpl@VCOPOSLights@@@ATL@@QEAA@XZ 0000000180031a50 f i LightsImpl.obj
 0001:00030a90       ??0?$IPropertyNotifySinkCP@VCOPOSLights@@VCComDynamicUnkArray@ATL@@@ATL@@QEAA@XZ 0000000180031a90 f i LightsImpl.obj
 0001:00030ad0       ??0?$IProvideClassInfo2Impl@$1?CLSID_OPOSLights@@3U_GUID@@B$1?DIID__IOPOSLightsEvents@@3U2@B$1?LIBID_OposLights_CCO@@3U2@B$00$0A@VCComTypeInfoHolder@ATL@@@ATL@@QEAA@XZ 0000000180031ad0 f i LightsImpl.obj
 0001:00030b10       ??0?$IQuickActivateImpl@VCOPOSLights@@@ATL@@QEAA@XZ 0000000180031b10 f i LightsImpl.obj
 0001:00030b50       ??0?$ISpecifyPropertyPagesImpl@VCOPOSLights@@@ATL@@QEAA@XZ 0000000180031b50 f i LightsImpl.obj
 0001:00030b90       ??0?$IViewObjectExImpl@VCOPOSLights@@@ATL@@QEAA@XZ 0000000180031b90 f i LightsImpl.obj
 0001:00030bd0       ??0?$_ICPLocator@$1?DIID__IOPOSLightsEvents@@3U_GUID@@B@ATL@@QEAA@XZ 0000000180031bd0 f i LightsImpl.obj
 0001:00030be0       ??0?$_ICPLocator@$1?IID_IPropertyNotifySink@@3U_GUID@@B@ATL@@QEAA@XZ 0000000180031be0 f i LightsImpl.obj
 0001:00030bf0       ??0CComControlBase@ATL@@QEAA@AEAPEAUHWND__@@@Z 0000000180031bf0 f i LightsImpl.obj
 0001:00030e10       ??0CComDynamicUnkArray@ATL@@QEAA@XZ 0000000180031e10 f i LightsImpl.obj
 0001:00030e40       ??0CDynamicStdCallThunk2@ATL@@QEAA@XZ 0000000180031e40 f i LightsImpl.obj
 0001:00030e60       ??0CMessageMap@ATL@@QEAA@XZ 0000000180031e60 f i LightsImpl.obj
 0001:00030e70       ??0CWindow@ATL@@QEAA@PEAUHWND__@@@Z 0000000180031e70 f i LightsImpl.obj
 0001:00030e90       ??0CWndProcThunk@ATL@@QEAA@XZ 0000000180031e90 f i LightsImpl.obj
 0001:00030ed0       ??0IConnectionPointContainer@@QEAA@XZ 0000000180031ed0 f i LightsImpl.obj
 0001:00030f10       ??0IDataObject@@QEAA@XZ    0000000180031f10 f i LightsImpl.obj
 0001:00030f50       ??0IDispatch@@QEAA@XZ      0000000180031f50 f i LightsImpl.obj
 0001:00030f90       ??0IOPOSLights@@QEAA@XZ    0000000180031f90 f i LightsImpl.obj
 0001:00030fd0       ??0IOPOSLights_1_12@@QEAA@XZ 0000000180031fd0 f i LightsImpl.obj
 0001:00031010       ??0IObjectSafety@@QEAA@XZ  0000000180032010 f i LightsImpl.obj
 0001:00031050       ??0IOleControl@@QEAA@XZ    0000000180032050 f i LightsImpl.obj
 0001:00031090       ??0IOleInPlaceActiveObject@@QEAA@XZ 0000000180032090 f i LightsImpl.obj
 0001:000310d0       ??0IOleInPlaceObject@@QEAA@XZ 00000001800320d0 f i LightsImpl.obj
 0001:00031110       ??0IOleInPlaceObjectWindowless@@QEAA@XZ 0000000180032110 f i LightsImpl.obj
 0001:00031150       ??0IOleObject@@QEAA@XZ     0000000180032150 f i LightsImpl.obj
 0001:00031190       ??0IOleWindow@@QEAA@XZ     0000000180032190 f i LightsImpl.obj
 0001:000311d0       ??0IPersist@@QEAA@XZ       00000001800321d0 f i LightsImpl.obj
 0001:00031210       ??0IPersistStorage@@QEAA@XZ 0000000180032210 f i LightsImpl.obj
 0001:00031250       ??0IPersistStreamInit@@QEAA@XZ 0000000180032250 f i LightsImpl.obj
 0001:00031290       ??0IProvideClassInfo2@@QEAA@XZ 0000000180032290 f i LightsImpl.obj
 0001:000312d0       ??0IProvideClassInfo@@QEAA@XZ 00000001800322d0 f i LightsImpl.obj
 0001:00031310       ??0IQuickActivate@@QEAA@XZ 0000000180032310 f i LightsImpl.obj
 0001:00031350       ??0ISpecifyPropertyPages@@QEAA@XZ 0000000180032350 f i LightsImpl.obj
 0001:00031390       ??0IViewObject2@@QEAA@XZ   0000000180032390 f i LightsImpl.obj
 0001:000313d0       ??0IViewObject@@QEAA@XZ    00000001800323d0 f i LightsImpl.obj
 0001:00031410       ??0IViewObjectEx@@QEAA@XZ  0000000180032410 f i LightsImpl.obj
 0001:00031450       ??0OposVariantResult@@QEAA@XZ 0000000180032450 f i LightsImpl.obj
 0001:00031490       ??0_CW@@QEAA@PEBD@Z        0000000180032490 f i LightsImpl.obj
 0001:000314e0       ??0_CW@@QEAA@PEB_W@Z       00000001800324e0 f i LightsImpl.obj
 0001:00031530       ??0_CWNCC@@QEAA@PEBD@Z     0000000180032530 f i LightsImpl.obj
 0001:00031570       ??1?$CComControl@VCOPOSLights@@V?$CWindowImpl@VCOPOSLights@@VCWindow@ATL@@V?$CWinTraits@$0FGAAAAAA@$0A@@3@@ATL@@@ATL@@UEAA@XZ 0000000180032570 f i LightsImpl.obj
 0001:000315b0       ??1?$CComPtr@UIDataAdviseHolder@@@ATL@@QEAA@XZ 00000001800325b0 f i LightsImpl.obj
 0001:000315e0       ??1?$CComPtr@UIOleAdviseHolder@@@ATL@@QEAA@XZ 00000001800325e0 f i LightsImpl.obj
 0001:00031610       ??1?$CComPtr@UIOleInPlaceSiteWindowless@@@ATL@@QEAA@XZ 0000000180032610 f i LightsImpl.obj
 0001:00031640       ??1?$CComPtrBase@UIDataAdviseHolder@@@ATL@@QEAA@XZ 0000000180032640 f i LightsImpl.obj
 0001:00031690       ??1?$CComPtrBase@UIOleAdviseHolder@@@ATL@@QEAA@XZ 0000000180032690 f i LightsImpl.obj
 0001:000316e0       ??1?$CComPtrBase@UIOleInPlaceSiteWindowless@@@ATL@@QEAA@XZ 00000001800326e0 f i LightsImpl.obj
 0001:00031730       ??1?$CComQIPtr@UIDispatch@@$1?_GUID_00020400_0000_0000_c000_000000000046@@3U__s_GUID@@B@ATL@@QEAA@XZ 0000000180032730 f i LightsImpl.obj
 0001:00031760       ??1?$CProxy_IOPOSEvents@VCOPOSLights@@@@QEAA@XZ 0000000180032760 f i LightsImpl.obj
 0001:00031790       ??1?$CWindowImpl@VCOPOSLights@@VCWindow@ATL@@V?$CWinTraits@$0FGAAAAAA@$0A@@3@@ATL@@UEAA@XZ 0000000180032790 f i LightsImpl.obj
 0001:000317c0       ??1?$CWindowImplBaseT@VCWindow@ATL@@V?$CWinTraits@$0FGAAAAAA@$0A@@2@@ATL@@UEAA@XZ 00000001800327c0 f i LightsImpl.obj
 0001:000317f0       ??1?$CWindowImplRoot@VCWindow@ATL@@@ATL@@UEAA@XZ 00000001800327f0 f i LightsImpl.obj
 0001:000318b0       ??1?$IConnectionPointImpl@VCOPOSLights@@$1?DIID__IOPOSLightsEvents@@3U_GUID@@BVCComDynamicUnkArray@ATL@@@ATL@@QEAA@XZ 00000001800328b0 f i LightsImpl.obj
 0001:00031950       ??1?$IConnectionPointImpl@VCOPOSLights@@$1?IID_IPropertyNotifySink@@3U_GUID@@BVCComDynamicUnkArray@ATL@@@ATL@@QEAA@XZ 0000000180032950 f i LightsImpl.obj
 0001:000319f0       ??1?$IPropertyNotifySinkCP@VCOPOSLights@@VCComDynamicUnkArray@ATL@@@ATL@@QEAA@XZ 00000001800329f0 f i LightsImpl.obj
 0001:00031a20       ??1CComControlBase@ATL@@UEAA@XZ 0000000180032a20 f i LightsImpl.obj
 0001:00031b10       ??1CComDynamicUnkArray@ATL@@QEAA@XZ 0000000180032b10 f i LightsImpl.obj
 0001:00031b50       ??1CDynamicStdCallThunk2@ATL@@QEAA@XZ 0000000180032b50 f i LightsImpl.obj
 0001:00031b90       ??1CWndProcThunk@ATL@@QEAA@XZ 0000000180032b90 f i LightsImpl.obj
 0001:00031bd0       ??1OposVariantResult@@QEAA@XZ 0000000180032bd0 f i LightsImpl.obj
 0001:00031c10       ??1_CW@@QEAA@XZ            0000000180032c10 f i LightsImpl.obj
 0001:00031c90       ??1_CWNCC@@QEAA@XZ         0000000180032c90 f i LightsImpl.obj
 0001:00031cc0       ??B_CW@@QEAAPEB_WXZ        0000000180032cc0 f i LightsImpl.obj
 0001:00031d10       ??B_CWNCC@@QEAAPEA_WXZ     0000000180032d10 f i LightsImpl.obj
 0001:00031d40       ??_EOposVariant@@QEAAPEAXI@Z 0000000180032d40 f i LightsImpl.obj
 0001:00031df0       ?EventClaim@COPOSLights@@IEAAXXZ 0000000180032df0 f i LightsImpl.obj
 0001:00031e40       ?EventClose@COPOSLights@@IEAAXXZ 0000000180032e40 f i LightsImpl.obj
 0001:00031ee0       ?EventInit@COPOSLights@@IEAAJXZ 0000000180032ee0 f i LightsImpl.obj
 0001:00032190       ?EventOpen@COPOSLights@@IEAAXXZ 0000000180033190 f i LightsImpl.obj
 0001:000321d0       ?EventPreCloseRelease@COPOSLights@@IEAAXXZ 00000001800331d0 f i LightsImpl.obj
 0001:00032250       ?EventUninit@COPOSLights@@IEAAXXZ 0000000180033250 f i LightsImpl.obj
 0001:00032380       ?EventWindowProc@COPOSLights@@IEAA_JI_K_J@Z 0000000180033380 f i LightsImpl.obj
 0001:00032480       ?FireEventCleanup@COPOSLights@@IEAAXXZ 0000000180033480 f i LightsImpl.obj
 0001:000324d0       ?FireEventSetup@COPOSLights@@IEAA_NXZ 00000001800334d0 f i LightsImpl.obj
 0001:00032550       ?GetModuleInstance@CComModule@ATL@@QEAAPEAUHINSTANCE__@@XZ 0000000180033550 f i LightsImpl.obj
 0001:00032560       ?SetRC@COPOSLights@@IEAAJJ@Z 0000000180033560 f i LightsImpl.obj
 0001:00032580       ?s_EventWindowProc@COPOSLights@@KA_JPEAUHWND__@@I_K_J@Z 0000000180033580 f i LightsImpl.obj
 0001:00032630       _snwprintf                 0000000180033630 f i LightsImpl.obj
 0001:000326c0       _vfwprintf_l               00000001800336c0 f i LightsImpl.obj
 0001:00032720       _vsnwprintf                0000000180033720 f i LightsImpl.obj
 0001:00032780       _vsnwprintf_l              0000000180033780 f i LightsImpl.obj
 0001:00032810       vfwprintf                  0000000180033810 f i LightsImpl.obj
 0001:00032855       DebugBreak                 0000000180033855 f   kernel32:KERNEL32.dll
 0001:0003285b       Sleep                      000000018003385b f   kernel32:KERNEL32.dll
 0001:00032861       GetCurrentProcess          0000000180033861 f   kernel32:KERNEL32.dll
 0001:00032867       TerminateProcess           0000000180033867 f   kernel32:KERNEL32.dll
 0001:0003286d       MultiByteToWideChar        000000018003386d f   kernel32:KERNEL32.dll
 0001:00032873       WideCharToMultiByte        0000000180033873 f   kernel32:KERNEL32.dll
 0001:00032879       DecodePointer              0000000180033879 f   kernel32:KERNEL32.dll
 0001:0003287f       RaiseException             000000018003387f f   kernel32:KERNEL32.dll
 0001:00032885       GetLastError               0000000180033885 f   kernel32:KERNEL32.dll
 0001:0003288b       SetLastError               000000018003388b f   kernel32:KERNEL32.dll
 0001:00032891       InitializeCriticalSectionEx 0000000180033891 f   kernel32:KERNEL32.dll
 0001:00032897       DeleteCriticalSection      0000000180033897 f   kernel32:KERNEL32.dll
 0001:0003289d       EncodePointer              000000018003389d f   kernel32:KERNEL32.dll
 0001:000328a3       EnterCriticalSection       00000001800338a3 f   kernel32:KERNEL32.dll
 0001:000328a9       LeaveCriticalSection       00000001800338a9 f   kernel32:KERNEL32.dll
 0001:000328af       ResetEvent                 00000001800338af f   kernel32:KERNEL32.dll
 0001:000328b5       ReleaseMutex               00000001800338b5 f   kernel32:KERNEL32.dll
 0001:000328bb       WaitForSingleObject        00000001800338bb f   kernel32:KERNEL32.dll
 0001:000328c1       GetCurrentThreadId         00000001800338c1 f   kernel32:KERNEL32.dll
 0001:000328c7       DisableThreadLibraryCalls  00000001800338c7 f   kernel32:KERNEL32.dll
 0001:000328cd       FreeLibrary                00000001800338cd f   kernel32:KERNEL32.dll
 0001:000328d3       GetModuleFileNameW         00000001800338d3 f   kernel32:KERNEL32.dll
 0001:000328d9       GetModuleHandleW           00000001800338d9 f   kernel32:KERNEL32.dll
 0001:000328df       GetProcAddress             00000001800338df f   kernel32:KERNEL32.dll
 0001:000328e5       LoadLibraryExW             00000001800338e5 f   kernel32:KERNEL32.dll
 0001:000328eb       LoadResource               00000001800338eb f   kernel32:KERNEL32.dll
 0001:000328f1       SizeofResource             00000001800338f1 f   kernel32:KERNEL32.dll
 0001:000328f7       FindResourceW              00000001800338f7 f   kernel32:KERNEL32.dll
 0001:000328fd       GlobalAlloc                00000001800338fd f   kernel32:KERNEL32.dll
 0001:00032903       GlobalUnlock               0000000180033903 f   kernel32:KERNEL32.dll
 0001:00032909       GlobalLock                 0000000180033909 f   kernel32:KERNEL32.dll
 0001:0003290f       MulDiv                     000000018003390f f   kernel32:KERNEL32.dll
 0001:00032915       lstrcmpiW                  0000000180033915 f   kernel32:KERNEL32.dll
 0001:0003291b       DeleteFileW                000000018003391b f   kernel32:KERNEL32.dll
 0001:00032921       CloseHandle                0000000180033921 f   kernel32:KERNEL32.dll
 0001:00032927       SetEvent                   0000000180033927 f   kernel32:KERNEL32.dll
 0001:0003292d       CreateMutexW               000000018003392d f   kernel32:KERNEL32.dll
 0001:00032933       CreateEventW               0000000180033933 f   kernel32:KERNEL32.dll
 0001:00032939       GetCurrentProcessId        0000000180033939 f   kernel32:KERNEL32.dll
 0001:0003293f       LocalFree                  000000018003393f f   kernel32:KERNEL32.dll
 0001:00032945       FormatMessageW             0000000180033945 f   kernel32:KERNEL32.dll
 0001:0003294b       GetActiveWindow            000000018003394b f   user32:USER32.dll
 0001:00032951       MessageBoxW                0000000180033951 f   user32:USER32.dll
 0001:00032957       UnregisterClassW           0000000180033957 f   user32:USER32.dll
 0001:0003295d       PostMessageW               000000018003395d f   user32:USER32.dll
 0001:00032963       DefWindowProcW             0000000180033963 f   user32:USER32.dll
 0001:00032969       CallWindowProcW            0000000180033969 f   user32:USER32.dll
 0001:0003296f       RegisterClassExW           000000018003396f f   user32:USER32.dll
 0001:00032975       GetClassInfoExW            0000000180033975 f   user32:USER32.dll
 0001:0003297b       CreateWindowExW            000000018003397b f   user32:USER32.dll
 0001:00032981       IsWindow                   0000000180033981 f   user32:USER32.dll
 0001:00032987       IsChild                    0000000180033987 f   user32:USER32.dll
 0001:0003298d       DestroyWindow              000000018003398d f   user32:USER32.dll
 0001:00032993       ShowWindow                 0000000180033993 f   user32:USER32.dll
 0001:00032999       SetWindowPos               0000000180033999 f   user32:USER32.dll
 0001:0003299f       CharNextW                  000000018003399f f   user32:USER32.dll
 0001:000329a5       SetFocus                   00000001800339a5 f   user32:USER32.dll
 0001:000329ab       GetFocus                   00000001800339ab f   user32:USER32.dll
 0001:000329b1       GetKeyState                00000001800339b1 f   user32:USER32.dll
 0001:000329b7       GetDC                      00000001800339b7 f   user32:USER32.dll
 0001:000329bd       ReleaseDC                  00000001800339bd f   user32:USER32.dll
 0001:000329c3       BeginPaint                 00000001800339c3 f   user32:USER32.dll
 0001:000329c9       EndPaint                   00000001800339c9 f   user32:USER32.dll
 0001:000329cf       SetWindowRgn               00000001800339cf f   user32:USER32.dll
 0001:000329d5       InvalidateRect             00000001800339d5 f   user32:USER32.dll
 0001:000329db       GetClientRect              00000001800339db f   user32:USER32.dll
 0001:000329e1       IntersectRect              00000001800339e1 f   user32:USER32.dll
 0001:000329e7       UnionRect                  00000001800339e7 f   user32:USER32.dll
 0001:000329ed       OffsetRect                 00000001800339ed f   user32:USER32.dll
 0001:000329f3       EqualRect                  00000001800339f3 f   user32:USER32.dll
 0001:000329f9       PtInRect                   00000001800339f9 f   user32:USER32.dll
 0001:000329ff       GetWindowLongPtrW          00000001800339ff f   user32:USER32.dll
 0001:00032a05       SetWindowLongPtrW          0000000180033a05 f   user32:USER32.dll
 0001:00032a0b       GetParent                  0000000180033a0b f   user32:USER32.dll
 0001:00032a11       LoadCursorW                0000000180033a11 f   user32:USER32.dll
 0001:00032a17       PeekMessageW               0000000180033a17 f   user32:USER32.dll
 0001:00032a1d       RegisterClassW             0000000180033a1d f   user32:USER32.dll
 0001:00032a23       LoadBitmapW                0000000180033a23 f   user32:USER32.dll
 0001:00032a29       CloseMetaFile              0000000180033a29 f   gdi32:GDI32.dll
 0001:00032a2f       CreateDCW                  0000000180033a2f f   gdi32:GDI32.dll
 0001:00032a35       CreateMetaFileW            0000000180033a35 f   gdi32:GDI32.dll
 0001:00032a3b       CreateRectRgnIndirect      0000000180033a3b f   gdi32:GDI32.dll
 0001:00032a41       DeleteDC                   0000000180033a41 f   gdi32:GDI32.dll
 0001:00032a47       DeleteMetaFile             0000000180033a47 f   gdi32:GDI32.dll
 0001:00032a4d       GetDeviceCaps              0000000180033a4d f   gdi32:GDI32.dll
 0001:00032a53       RestoreDC                  0000000180033a53 f   gdi32:GDI32.dll
 0001:00032a59       SaveDC                     0000000180033a59 f   gdi32:GDI32.dll
 0001:00032a5f       SetMapMode                 0000000180033a5f f   gdi32:GDI32.dll
 0001:00032a65       LPtoDP                     0000000180033a65 f   gdi32:GDI32.dll
 0001:00032a6b       SetViewportOrgEx           0000000180033a6b f   gdi32:GDI32.dll
 0001:00032a71       SetWindowExtEx             0000000180033a71 f   gdi32:GDI32.dll
 0001:00032a77       SetWindowOrgEx             0000000180033a77 f   gdi32:GDI32.dll
 0001:00032a7d       BitBlt                     0000000180033a7d f   gdi32:GDI32.dll
 0001:00032a83       CreateCompatibleDC         0000000180033a83 f   gdi32:GDI32.dll
 0001:00032a89       DeleteObject               0000000180033a89 f   gdi32:GDI32.dll
 0001:00032a8f       SelectObject               0000000180033a8f f   gdi32:GDI32.dll
 0001:00032a95       GetObjectW                 0000000180033a95 f   gdi32:GDI32.dll
 0001:00032a9b       RegCloseKey                0000000180033a9b f   advapi32:ADVAPI32.dll
 0001:00032aa1       RegCreateKeyExW            0000000180033aa1 f   advapi32:ADVAPI32.dll
 0001:00032aa7       RegDeleteKeyW              0000000180033aa7 f   advapi32:ADVAPI32.dll
 0001:00032aad       RegDeleteValueW            0000000180033aad f   advapi32:ADVAPI32.dll
 0001:00032ab3       RegEnumKeyExW              0000000180033ab3 f   advapi32:ADVAPI32.dll
 0001:00032ab9       RegOpenKeyExW              0000000180033ab9 f   advapi32:ADVAPI32.dll
 0001:00032abf       RegQueryInfoKeyW           0000000180033abf f   advapi32:ADVAPI32.dll
 0001:00032ac5       RegSetValueExW             0000000180033ac5 f   advapi32:ADVAPI32.dll
 0001:00032acb       RegQueryValueExW           0000000180033acb f   advapi32:ADVAPI32.dll
 0001:00032ad1       CoCreateInstance           0000000180033ad1 f   ole32:ole32.dll
 0001:00032ad7       StringFromGUID2            0000000180033ad7 f   ole32:ole32.dll
 0001:00032add       CoTaskMemAlloc             0000000180033add f   ole32:ole32.dll
 0001:00032ae3       CoTaskMemRealloc           0000000180033ae3 f   ole32:ole32.dll
 0001:00032ae9       CoTaskMemFree              0000000180033ae9 f   ole32:ole32.dll
 0001:00032aef       ReadClassStm               0000000180033aef f   ole32:ole32.dll
 0001:00032af5       WriteClassStm              0000000180033af5 f   ole32:ole32.dll
 0001:00032afb       CreateDataAdviseHolder     0000000180033afb f   ole32:ole32.dll
 0001:00032b01       OleSaveToStream            0000000180033b01 f   ole32:ole32.dll
 0001:00032b07       CreateOleAdviseHolder      0000000180033b07 f   ole32:ole32.dll
 0001:00032b0d       OleRegGetUserType          0000000180033b0d f   ole32:ole32.dll
 0001:00032b13       OleRegGetMiscStatus        0000000180033b13 f   ole32:ole32.dll
 0001:00032b19       OleRegEnumVerbs            0000000180033b19 f   ole32:ole32.dll
 0001:00032b1f       CLSIDFromProgID            0000000180033b1f f   ole32:ole32.dll
 0001:00032b25       SysAllocString             0000000180033b25 f   oleaut32:OLEAUT32.dll
 0001:00032b2b       SysAllocStringLen          0000000180033b2b f   oleaut32:OLEAUT32.dll
 0001:00032b31       SysFreeString              0000000180033b31 f   oleaut32:OLEAUT32.dll
 0001:00032b37       SysStringLen               0000000180033b37 f   oleaut32:OLEAUT32.dll
 0001:00032b3d       VariantClear               0000000180033b3d f   oleaut32:OLEAUT32.dll
 0001:00032b43       VariantCopyInd             0000000180033b43 f   oleaut32:OLEAUT32.dll
 0001:00032b49       VariantChangeType          0000000180033b49 f   oleaut32:OLEAUT32.dll
 0001:00032b4f       SysStringByteLen           0000000180033b4f f   oleaut32:OLEAUT32.dll
 0001:00032b55       SysAllocStringByteLen      0000000180033b55 f   oleaut32:OLEAUT32.dll
 0001:00032b5b       VariantInit                0000000180033b5b f   oleaut32:OLEAUT32.dll
 0001:00032b61       VarUI4FromStr              0000000180033b61 f   oleaut32:OLEAUT32.dll
 0001:00032b67       LoadTypeLib                0000000180033b67 f   oleaut32:OLEAUT32.dll
 0001:00032b6d       LoadRegTypeLib             0000000180033b6d f   oleaut32:OLEAUT32.dll
 0001:00032b73       RegisterTypeLib            0000000180033b73 f   oleaut32:OLEAUT32.dll
 0001:00032b79       UnRegisterTypeLib          0000000180033b79 f   oleaut32:OLEAUT32.dll
 0001:00032b7f       OleCreatePropertyFrame     0000000180033b7f f   oleaut32:OLEAUT32.dll
 0001:00032b90       _RTC_AllocaHelper          0000000180033b90 f   LIBCMTD:stack.obj
 0001:00032bd0       _RTC_CheckStackVars        0000000180033bd0 f   LIBCMTD:stack.obj
 0001:00032c60       _RTC_CheckStackVars2       0000000180033c60 f   LIBCMTD:stack.obj
 0001:00032d70       _CRT_RTC_INIT              0000000180033d70 f   LIBCMTD:init.obj
 0001:00032d80       _CRT_RTC_INITW             0000000180033d80 f   LIBCMTD:init.obj
 0001:00032d90       _RTC_InitBase              0000000180033d90 f   LIBCMTD:init.obj
 0001:00032dd0       _RTC_Shutdown              0000000180033dd0 f   LIBCMTD:init.obj
 0001:00032e00       __GSHandlerCheck           0000000180033e00 f   LIBCMTD:gshandler.obj
 0001:00032e40       __GSHandlerCheckCommon     0000000180033e40 f   LIBCMTD:gshandler.obj
 0001:00032f50       __security_check_cookie    0000000180033f50 f   LIBCMTD:amdsecgs.obj
 0001:00032f80       ??_U@YAPEAX_K@Z            0000000180033f80 f   LIBCMTD:new_array.obj
 0001:00032fa0       ??3@YAXPEAX_K@Z            0000000180033fa0 f   LIBCMTD:delete_scalar_size.obj
 0001:00032fc0       ??_V@YAXPEAX@Z             0000000180033fc0 f   LIBCMTD:delete_array.obj
 0001:00032fe0       ??_V@YAXPEAX_K@Z           0000000180033fe0 f   LIBCMTD:delete_array_size.obj
 0001:00033000       ?configure_argv@__scrt_narrow_argv_policy@@SAHXZ 0000000180034000 f i LIBCMTD:utility.obj
 0001:000330f0       ?initialize_environment@__scrt_narrow_environment_policy@@SAHXZ 00000001800340f0 f i LIBCMTD:utility.obj
 0001:00033190       NtCurrentTeb               0000000180034190 f i LIBCMTD:utility.obj
 0001:000331a0       __scrt_acquire_startup_lock 00000001800341a0 f   LIBCMTD:utility.obj
 0001:00033210       __scrt_dllmain_after_initialize_c 0000000180034210 f   LIBCMTD:utility.obj
 0001:00033240       __scrt_dllmain_before_initialize_c 0000000180034240 f   LIBCMTD:utility.obj
 0001:00033260       __scrt_dllmain_crt_thread_attach 0000000180034260 f   LIBCMTD:utility.obj
 0001:00033290       __scrt_dllmain_crt_thread_detach 0000000180034290 f   LIBCMTD:utility.obj
 0001:000332b0       __scrt_dllmain_exception_filter 00000001800342b0 f   LIBCMTD:utility.obj
 0001:00033320       __scrt_dllmain_uninitialize_c 0000000180034320 f   LIBCMTD:utility.obj
 0001:00033350       __scrt_dllmain_uninitialize_critical 0000000180034350 f   LIBCMTD:utility.obj
 0001:00033370       __scrt_initialize_crt      0000000180034370 f   LIBCMTD:utility.obj
 0001:000333c0       __scrt_initialize_onexit_tables 00000001800343c0 f   LIBCMTD:utility.obj
 0001:000334d0       __scrt_is_nonwritable_in_current_image 00000001800344d0 f   LIBCMTD:utility.obj
 0001:00033560       __scrt_release_startup_lock 0000000180034560 f   LIBCMTD:utility.obj
 0001:00033590       __scrt_uninitialize_crt    0000000180034590 f   LIBCMTD:utility.obj
 0001:000335d0       _onexit                    00000001800345d0 f   LIBCMTD:utility.obj
 0001:00033650       at_quick_exit              0000000180034650 f   LIBCMTD:utility.obj
 0001:000336a0       atexit                     00000001800346a0 f   LIBCMTD:utility.obj
 0001:000336e0       ??3@YAXPEAX@Z              00000001800346e0 f   LIBCMTD:delete_scalar.obj
 0001:00033700       __raise_securityfailure    0000000180034700 f   LIBCMTD:gs_report.obj
 0001:00033740       __report_gsfailure         0000000180034740 f   LIBCMTD:gs_report.obj
 0001:00033820       __report_rangecheckfailure 0000000180034820 f   LIBCMTD:gs_report.obj
 0001:00033840       __report_securityfailure   0000000180034840 f   LIBCMTD:gs_report.obj
 0001:000338e0       __report_securityfailureEx 00000001800348e0 f   LIBCMTD:gs_report.obj
 0001:00033ca0       _Init_thread_abort         0000000180034ca0 f   LIBCMTD:thread_safe_statics.obj
 0001:00033cd0       _Init_thread_footer        0000000180034cd0 f   LIBCMTD:thread_safe_statics.obj
 0001:00033d30       _Init_thread_header        0000000180034d30 f   LIBCMTD:thread_safe_statics.obj
 0001:00033dc0       _Init_thread_lock          0000000180034dc0 f   LIBCMTD:thread_safe_statics.obj
 0001:00033de0       _Init_thread_notify        0000000180034de0 f   LIBCMTD:thread_safe_statics.obj
 0001:00033e40       _Init_thread_unlock        0000000180034e40 f   LIBCMTD:thread_safe_statics.obj
 0001:00033e60       _Init_thread_wait          0000000180034e60 f   LIBCMTD:thread_safe_statics.obj
 0001:00033f10       ??2@YAPEAX_KAEBUnothrow_t@std@@@Z 0000000180034f10 f   LIBCMTD:new_scalar_nothrow.obj
 0001:00033f50       ??_U@YAPEAX_KAEBUnothrow_t@std@@@Z 0000000180034f50 f   LIBCMTD:new_array_nothrow.obj
 0001:00033f80       __GSHandlerCheck_SEH       0000000180034f80 f   LIBCMTD:gshandlerseh.obj
 0001:00034050       _alloca_probe              0000000180035050 f   LIBCMTD:chkstk.obj
 0001:00034050       __chkstk                   0000000180035050 f   LIBCMTD:chkstk.obj
 0001:000344b0       _CRT_INIT                  00000001800354b0 f   LIBCMTD:dll_dllmain.obj
 0001:000344e0       _DllMainCRTStartup         00000001800354e0 f   LIBCMTD:dll_dllmain.obj
 0001:000345b0       ?_RTC_AllocaFailure@@YAXPEAXPEAU_RTC_ALLOCA_NODE@@H@Z 00000001800355b0 f   LIBCMTD:error.obj
 0001:00034710       ?_RTC_Failure@@YAXPEAXH@Z  0000000180035710 f   LIBCMTD:error.obj
 0001:00034760       ?_RTC_StackFailure@@YAXPEAXPEBD@Z 0000000180035760 f   LIBCMTD:error.obj
 0001:00034b90       _RTC_UninitUse             0000000180035b90 f   LIBCMTD:error.obj
 0001:00034c60       _vsprintf_s_l              0000000180035c60 f i LIBCMTD:error.obj
 0001:00034cd0       sprintf_s                  0000000180035cd0 f i LIBCMTD:error.obj
 0001:00034d00       ?_RTC_GetErrorFunc@@YAP6AHHPEBDH00ZZPEBX@Z 0000000180035d00 f   LIBCMTD:userapi.obj
 0001:00034d10       ?_RTC_GetErrorFuncW@@YAP6AHHPEB_WH00ZZPEBX@Z 0000000180035d10 f   LIBCMTD:userapi.obj
 0001:00034d20       _RTC_GetErrDesc            0000000180035d20 f   LIBCMTD:userapi.obj
 0001:00034d40       _RTC_NumErrors             0000000180035d40 f   LIBCMTD:userapi.obj
 0001:00034d50       _RTC_SetErrorFunc          0000000180035d50 f   LIBCMTD:userapi.obj
 0001:00034d70       _RTC_SetErrorFuncW         0000000180035d70 f   LIBCMTD:userapi.obj
 0001:00034d90       _RTC_SetErrorType          0000000180035d90 f   LIBCMTD:userapi.obj
 0001:00034db0       ??2@YAPEAX_K@Z             0000000180035db0 f   LIBCMTD:new_scalar.obj
 0001:00034e00       __isa_available_init       0000000180035e00 f   LIBCMTD:cpu_disp.obj
 0001:00035150       _get_startup_argv_mode     0000000180036150 f   LIBCMTD:argv_mode.obj
 0001:00035160       __scrt_is_ucrt_dll_in_use  0000000180036160 f   LIBCMTD:ucrt_detection.obj
 0001:00035190       __crt_debugger_hook        0000000180036190 f   LIBCMTD:utility_desktop.obj
 0001:000351a0       __scrt_fastfail            00000001800361a0 f   LIBCMTD:utility_desktop.obj
 0001:00035340       __scrt_get_show_window_mode 0000000180036340 f   LIBCMTD:utility_desktop.obj
 0001:000353a0       __scrt_initialize_mta      00000001800363a0 f   LIBCMTD:utility_desktop.obj
 0001:000353b0       __scrt_initialize_winrt    00000001800363b0 f   LIBCMTD:utility_desktop.obj
 0001:000353c0       __scrt_is_managed_app      00000001800363c0 f   LIBCMTD:utility_desktop.obj
 0001:00035470       __scrt_set_unhandled_exception_filter 0000000180036470 f   LIBCMTD:utility_desktop.obj
 0001:00035490       __scrt_stub_for_initialize_mta 0000000180036490 f   LIBCMTD:utility_desktop.obj
 0001:00035490       __scrt_exe_initialize_mta  0000000180036490 f   LIBCMTD:utility_desktop.obj
 0001:000354a0       __scrt_unhandled_exception_filter 00000001800364a0 f   LIBCMTD:utility_desktop.obj
 0001:00035520       _guard_check_icall_nop     0000000180036520 f i LIBCMTD:guard_support.obj
 0001:00035530       ReadNoFence64              0000000180036530 f i LIBCMTD:guard_support.obj
 0001:00035550       ReadPointerNoFence         0000000180036550 f i LIBCMTD:guard_support.obj
 0001:00035570       _guard_icall_checks_enforced 0000000180036570 f i LIBCMTD:guard_support.obj
 0001:000355b0       _guard_rf_checks_enforced  00000001800365b0 f i LIBCMTD:guard_support.obj
 0001:00035680       __security_init_cookie     0000000180036680 f   LIBCMTD:gs_support.obj
 0001:00035700       ?__scrt_initialize_type_info@@YAXXZ 0000000180036700 f   LIBCMTD:tncleanup.obj
 0001:00035720       ?__scrt_uninitialize_type_info@@YAXXZ 0000000180036720 f   LIBCMTD:tncleanup.obj
 0001:00035740       __local_stdio_scanf_options 0000000180036740 f i LIBCMTD:default_local_stdio_options.obj
 0001:00035750       __scrt_initialize_default_local_stdio_options 0000000180036750 f   LIBCMTD:default_local_stdio_options.obj
 0001:000357a0       __scrt_get_dyn_tls_init_callback 00000001800367a0 f   LIBCMTD:dyn_tls_init.obj
 0001:000357b0       _RTC_Initialize            00000001800367b0 f   LIBCMTD:initsect.obj
 0001:00035800       _RTC_Terminate             0000000180036800 f   LIBCMTD:initsect.obj
 0001:00035d60       ?_RTC_GetSrcLine@@YAHPEAEPEA_WKPEAH1K@Z 0000000180036d60 f   LIBCMTD:pdblkup.obj
 0001:00036130       ??0bad_alloc@std@@AEAA@QEBD@Z 0000000180037130 f i LIBCMTD:throw_bad_alloc.obj
 0001:00036170       ??0bad_alloc@std@@QEAA@AEBV01@@Z 0000000180037170 f i LIBCMTD:throw_bad_alloc.obj
 0001:000361b0       ??0bad_alloc@std@@QEAA@XZ  00000001800371b0 f i LIBCMTD:throw_bad_alloc.obj
 0001:000361f0       ??0bad_array_new_length@std@@QEAA@AEBV01@@Z 00000001800371f0 f i LIBCMTD:throw_bad_alloc.obj
 0001:00036230       ??0bad_array_new_length@std@@QEAA@XZ 0000000180037230 f i LIBCMTD:throw_bad_alloc.obj
 0001:00036270       ??0exception@std@@QEAA@AEBV01@@Z 0000000180037270 f i LIBCMTD:throw_bad_alloc.obj
 0001:000362d0       ??0exception@std@@QEAA@QEBDH@Z 00000001800372d0 f i LIBCMTD:throw_bad_alloc.obj
 0001:00036320       ??1bad_alloc@std@@UEAA@XZ  0000000180037320 f i LIBCMTD:throw_bad_alloc.obj
 0001:00036340       ??1bad_array_new_length@std@@UEAA@XZ 0000000180037340 f i LIBCMTD:throw_bad_alloc.obj
 0001:00036360       ??1exception@std@@UEAA@XZ  0000000180037360 f i LIBCMTD:throw_bad_alloc.obj
 0001:00036390       ??_Gbad_alloc@std@@UEAAPEAXI@Z 0000000180037390 f i LIBCMTD:throw_bad_alloc.obj
 0001:00036390       ??_Ebad_alloc@std@@UEAAPEAXI@Z 0000000180037390 f i LIBCMTD:throw_bad_alloc.obj
 0001:000363d0       ??_Gbad_array_new_length@std@@UEAAPEAXI@Z 00000001800373d0 f i LIBCMTD:throw_bad_alloc.obj
 0001:000363d0       ??_Ebad_array_new_length@std@@UEAAPEAXI@Z 00000001800373d0 f i LIBCMTD:throw_bad_alloc.obj
 0001:00036410       ??_Eexception@std@@UEAAPEAXI@Z 0000000180037410 f i LIBCMTD:throw_bad_alloc.obj
 0001:00036410       ??_Gexception@std@@UEAAPEAXI@Z 0000000180037410 f i LIBCMTD:throw_bad_alloc.obj
 0001:00036450       ?__scrt_throw_std_bad_alloc@@YAXXZ 0000000180037450 f   LIBCMTD:throw_bad_alloc.obj
 0001:00036480       ?__scrt_throw_std_bad_array_new_length@@YAXXZ 0000000180037480 f   LIBCMTD:throw_bad_alloc.obj
 0001:000364b0       ?what@exception@std@@UEBAPEBDXZ 00000001800374b0 f i LIBCMTD:throw_bad_alloc.obj
 0001:000364f0       ??1type_info@@UEAA@XZ      00000001800374f0 f   LIBCMTD:std_type_info_static.obj
 0001:00036510       ??_Gtype_info@@UEAAPEAXI@Z 0000000180037510 f i LIBCMTD:std_type_info_static.obj
 0001:00036510       ??_Etype_info@@UEAAPEAXI@Z 0000000180037510 f i LIBCMTD:std_type_info_static.obj
 0001:0003654c       ??$?2PEAUHINSTANCE__@@@Wrapper@?$CSimpleArray@PEAUHINSTANCE__@@V?$CSimpleArrayEqualHelper@PEAUHINSTANCE__@@@ATL@@@ATL@@SAPEAX_KPEAPEAUHINSTANCE__@@@Z 000000018003754c f i atls:atlbase.obj
 0001:00036550       ??0?$CSimpleArray@PEAUHINSTANCE__@@V?$CSimpleArrayEqualHelper@PEAUHINSTANCE__@@@ATL@@@ATL@@QEAA@XZ 0000000180037550 f i atls:atlbase.obj
 0001:00036560       ??0CAtlBaseModule@ATL@@QEAA@XZ 0000000180037560 f   atls:atlbase.obj
 0001:00036608       ??0Wrapper@?$CSimpleArray@PEAUHINSTANCE__@@V?$CSimpleArrayEqualHelper@PEAUHINSTANCE__@@@ATL@@@ATL@@QEAA@AEBQEAUHINSTANCE__@@@Z 0000000180037608 f i atls:atlbase.obj
 0001:00036614       ??0_ATL_BASE_MODULE70@ATL@@QEAA@XZ 0000000180037614 f i atls:atlbase.obj
 0001:00036640       ??1?$CSimpleArray@PEAUHINSTANCE__@@V?$CSimpleArrayEqualHelper@PEAUHINSTANCE__@@@ATL@@@ATL@@QEAA@XZ 0000000180037640 f i atls:atlbase.obj
 0001:00036668       ??1CAtlBaseModule@ATL@@QEAA@XZ 0000000180037668 f   atls:atlbase.obj
 0001:0003669c       ??1_ATL_BASE_MODULE70@ATL@@QEAA@XZ 000000018003769c f i atls:atlbase.obj
 0001:000366c8       ??A?$CSimpleArray@PEAUHINSTANCE__@@V?$CSimpleArrayEqualHelper@PEAUHINSTANCE__@@@ATL@@@ATL@@QEAAAEAPEAUHINSTANCE__@@H@Z 00000001800376c8 f i atls:atlbase.obj
 0001:000366f4       ?Add@?$CSimpleArray@PEAUHINSTANCE__@@V?$CSimpleArrayEqualHelper@PEAUHINSTANCE__@@@ATL@@@ATL@@QEAAHAEBQEAUHINSTANCE__@@@Z 00000001800376f4 f i atls:atlbase.obj
 0001:000367a8       ?AddResourceInstance@CAtlBaseModule@ATL@@QEAA_NPEAUHINSTANCE__@@@Z 00000001800377a8 f   atls:atlbase.obj
 0001:000367f0       ?GetHInstanceAt@CAtlBaseModule@ATL@@QEAAPEAUHINSTANCE__@@H@Z 00000001800377f0 f   atls:atlbase.obj
 0001:00036868       ?GetSize@?$CSimpleArray@PEAUHINSTANCE__@@V?$CSimpleArrayEqualHelper@PEAUHINSTANCE__@@@ATL@@@ATL@@QEBAHXZ 0000000180037868 f i atls:atlbase.obj
 0001:0003686c       ?InternalSetAtIndex@?$CSimpleArray@PEAUHINSTANCE__@@V?$CSimpleArrayEqualHelper@PEAUHINSTANCE__@@@ATL@@@ATL@@QEAAXHAEBQEAUHINSTANCE__@@@Z 000000018003786c f i atls:atlbase.obj
 0001:00036884       ?RemoveAll@?$CSimpleArray@PEAUHINSTANCE__@@V?$CSimpleArrayEqualHelper@PEAUHINSTANCE__@@@ATL@@@ATL@@QEAAXXZ 0000000180037884 f i atls:atlbase.obj
 0001:000368ac       ?RemoveAt@?$CSimpleArray@PEAUHINSTANCE__@@V?$CSimpleArrayEqualHelper@PEAUHINSTANCE__@@@ATL@@@ATL@@QEAAHH@Z 00000001800378ac f i atls:atlbase.obj
 0001:00036950       ?RemoveResourceInstance@CAtlBaseModule@ATL@@QEAA_NPEAUHINSTANCE__@@@Z 0000000180037950 f   atls:atlbase.obj
 0001:000369d0       ?memmove_s@Checked@ATL@@YAXPEAX_KPEBX1@Z 00000001800379d0 f i atls:atlbase.obj
 0001:00036e78       ?GetCodeAddress@_stdcallthunk@ATL@@QEAAPEAXXZ 0000000180037e78 f i atls:atlthunk.obj
 0001:00036ea4       ?Init@_stdcallthunk@ATL@@QEAAH_KPEAX@Z 0000000180037ea4 f i atls:atlthunk.obj
 0001:00036ef4       ?__AllocStdCallThunk@@YAPEAXXZ 0000000180037ef4 f   atls:atlthunk.obj
 0001:00036efc       ?__AllocStdCallThunk@ATL@@YAPEAXXZ 0000000180037efc f   atls:atlthunk.obj
 0001:00036f04       ?__AllocStdCallThunk_cmn@@YAPEAXXZ 0000000180037f04 f   atls:atlthunk.obj
 0001:00036fdc       ?__FreeStdCallThunk@@YAXPEAX@Z 0000000180037fdc f   atls:atlthunk.obj
 0001:00036ffc       ?__FreeStdCallThunk@ATL@@YAXPEAX@Z 0000000180037ffc f   atls:atlthunk.obj
 0001:0003701c       ?__FreeStdCallThunk_cmn@@YAXPEAX@Z 000000018003801c f   atls:atlthunk.obj
 0001:000370bc       AtlThunk_AllocateData      00000001800380bc f   atls:atlthunk.obj
 0001:00037138       AtlThunk_DataToCode        0000000180038138 f   atls:atlthunk.obj
 0001:0003718c       AtlThunk_FreeData          000000018003818c f   atls:atlthunk.obj
 0001:000371ec       AtlThunk_InitData          00000001800381ec f   atls:atlthunk.obj
 0001:000372b0       memset_repmovs             00000001800382b0 f   libvcruntimed:memset.obj
 0001:000372d0       memset                     00000001800382d0 f   libvcruntimed:memset.obj
 0001:00037460       ??$__crt_interlocked_exchange_pointer@$$A6AXXZP6AXXZ@@YAP6AXXZPEDS6AXXZQ6AXXZ@Z 0000000180038460 f i libvcruntimed:purevirt.obj
 0001:00037480       ??$__crt_interlocked_read_pointer@$$A6AXXZ@@YAP6AXXZPEDS6AXXZ@Z 0000000180038480 f i libvcruntimed:purevirt.obj
 0001:000374a0       ?__crt_interlocked_read_64@@YA_JPED_J@Z 00000001800384a0 f i libvcruntimed:purevirt.obj
 0001:000374c0       _get_purecall_handler      00000001800384c0 f   libvcruntimed:purevirt.obj
 0001:000374e0       _purecall                  00000001800384e0 f   libvcruntimed:purevirt.obj
 0001:00037520       _set_purecall_handler      0000000180038520 f   libvcruntimed:purevirt.obj
 0001:00037550       memcmp                     0000000180038550 f   libvcruntimed:memcmp.obj
 0001:00037630       memcpy_repmovs             0000000180038630 f   libvcruntimed:memcpy.obj
 0001:00037650       memcpy                     0000000180038650 f   libvcruntimed:memcpy.obj
 0001:00037650       memmove                    0000000180038650 f   libvcruntimed:memcpy.obj
 0001:00037a30       wcsstr                     0000000180038a30 f   libvcruntimed:wcsstr.obj
 0001:00038090       __vcrt_initialize          0000000180039090 f   libvcruntimed:initialization.obj
 0001:000380d0       __vcrt_thread_attach       00000001800390d0 f   libvcruntimed:initialization.obj
 0001:000380f0       __vcrt_thread_detach       00000001800390f0 f   libvcruntimed:initialization.obj
 0001:00038110       __vcrt_uninitialize        0000000180039110 f   libvcruntimed:initialization.obj
 0001:00038130       __vcrt_uninitialize_critical 0000000180039130 f   libvcruntimed:initialization.obj
 0001:00038150       __C_specific_handler       0000000180039150 f   libvcruntimed:riscchandler.obj
 0001:000385c0       ??$?0AEAViterator@TryBlockMap4@FH4@@AEAV012@$0A@@?$pair@Viterator@TryBlockMap4@FH4@@V123@@std@@QEAA@AEAViterator@TryBlockMap4@FH4@@0@Z 00000001800395c0 f i libvcruntimed:risctrnsctrl.obj
 0001:00038620       ??$?0AEAViterator@TryBlockMap@__FrameHandler3@@AEAV012@$0A@@?$pair@Viterator@TryBlockMap@__FrameHandler3@@V123@@std@@QEAA@AEAViterator@TryBlockMap@__FrameHandler3@@0@Z 0000000180039620 f i libvcruntimed:risctrnsctrl.obj
 0001:000387e0       ??$_CallSETranslator@V__FrameHandler3@@@@YAHPEAUEHExceptionRecord@@PEA_KPEAU_CONTEXT@@PEAU_xDISPATCHER_CONTEXT@@PEBU_s_FuncInfo@@K1@Z 00000001800397e0 f i libvcruntimed:risctrnsctrl.obj
 0001:00038870       ??$_CallSETranslator@V__FrameHandler4@@@@YAHPEAUEHExceptionRecord@@PEA_KPEAU_CONTEXT@@PEAU_xDISPATCHER_CONTEXT@@PEAUFuncInfo4@FH4@@K1@Z 0000000180039870 f i libvcruntimed:risctrnsctrl.obj
 0001:00038900       ??$forward@AEAViterator@TryBlockMap4@FH4@@@std@@YAAEAViterator@TryBlockMap4@FH4@@AEAV123@@Z 0000000180039900 f i libvcruntimed:risctrnsctrl.obj
 0001:00038910       ??$forward@AEAViterator@TryBlockMap@__FrameHandler3@@@std@@YAAEAViterator@TryBlockMap@__FrameHandler3@@AEAV123@@Z 0000000180039910 f i libvcruntimed:risctrnsctrl.obj
 0001:00038920       ??0FuncInfo4@FH4@@QEAA@XZ  0000000180039920 f i libvcruntimed:risctrnsctrl.obj
 0001:00038990       ??0FuncInfoHeader@FH4@@QEAA@XZ 0000000180039990 f i libvcruntimed:risctrnsctrl.obj
 0001:000389b0       ??0iterator@TryBlockMap4@FH4@@QEAA@AEAV12@I@Z 00000001800399b0 f i libvcruntimed:risctrnsctrl.obj
 0001:000389e0       ??0iterator@TryBlockMap@__FrameHandler3@@QEAA@AEAV12@I@Z 00000001800399e0 f i libvcruntimed:risctrnsctrl.obj
 0001:00038a10       ??4iterator@TryBlockMap4@FH4@@QEAAAEAV012@AEBV012@@Z 0000000180039a10 f i libvcruntimed:risctrnsctrl.obj
 0001:00038a30       ??9iterator@TryBlockMap4@FH4@@QEBA_NAEBV012@@Z 0000000180039a30 f i libvcruntimed:risctrnsctrl.obj
 0001:00038a70       ??Diterator@TryBlockMap4@FH4@@QEAA?AUTryBlockMapEntry4@2@XZ 0000000180039a70 f i libvcruntimed:risctrnsctrl.obj
 0001:00038aa0       ??Eiterator@TryBlockMap4@FH4@@QEAAAEAV012@XZ 0000000180039aa0 f i libvcruntimed:risctrnsctrl.obj
 0001:00038ae0       ?CatchTryBlock@__FrameHandler3@@SAPEBU_s_TryBlockMapEntry@@PEBU_s_FuncInfo@@H@Z 0000000180039ae0 f   libvcruntimed:risctrnsctrl.obj
 0001:00038b70       ?DecompFuncInfo@FH4@@YA_JPEAEAEAUFuncInfo4@1@_KH@Z 0000000180039b70 f i libvcruntimed:risctrnsctrl.obj
 0001:00038bb0       ?DecompFuncInfo@FH4@@YA_JPEAEAEAUFuncInfo4@1@_KH_N@Z 0000000180039bb0 f i libvcruntimed:risctrnsctrl.obj
 0001:00038d80       ?DecompTryBlock@TryBlockMap4@FH4@@AEAAXXZ 0000000180039d80 f i libvcruntimed:risctrnsctrl.obj
 0001:00038e00       ?ExecutionInCatch@__FrameHandler3@@SA_NPEAU_xDISPATCHER_CONTEXT@@PEBU_s_FuncInfo@@@Z 0000000180039e00 f   libvcruntimed:risctrnsctrl.obj
 0001:00038e50       ?ExecutionInCatch@__FrameHandler4@@SA_NPEAU_xDISPATCHER_CONTEXT@@PEAUFuncInfo4@FH4@@@Z 0000000180039e50 f   libvcruntimed:risctrnsctrl.obj
 0001:00038e70       ?FrameUnwindToEmptyState@__FrameHandler3@@SAXPEA_KPEAU_xDISPATCHER_CONTEXT@@PEBU_s_FuncInfo@@@Z 0000000180039e70 f   libvcruntimed:risctrnsctrl.obj
 0001:00038f10       ?FrameUnwindToEmptyState@__FrameHandler4@@SAXPEA_KPEAU_xDISPATCHER_CONTEXT@@PEAUFuncInfo4@FH4@@@Z 0000000180039f10 f   libvcruntimed:risctrnsctrl.obj
 0001:00038f60       ?GetEstablisherFrame@__FrameHandler3@@SAPEA_KPEA_KPEAU_xDISPATCHER_CONTEXT@@PEBU_s_FuncInfo@@0@Z 0000000180039f60 f   libvcruntimed:risctrnsctrl.obj
 0001:000390d0       ?GetEstablisherFrame@__FrameHandler4@@SAPEA_KPEA_KPEAU_xDISPATCHER_CONTEXT@@PEAUFuncInfo4@FH4@@0@Z 000000018003a0d0 f   libvcruntimed:risctrnsctrl.obj
 0001:00039140       ?GetRangeOfTrysToCheck@__FrameHandler3@@SA?AU?$pair@Viterator@TryBlockMap@__FrameHandler3@@V123@@std@@AEAVTryBlockMap@1@HPEAU_xDISPATCHER_CONTEXT@@PEBU_s_FuncInfo@@H@Z 000000018003a140 f   libvcruntimed:risctrnsctrl.obj
 0001:00039380       ?GetRangeOfTrysToCheck@__FrameHandler4@@SA?AU?$pair@Viterator@TryBlockMap4@FH4@@V123@@std@@AEAVTryBlockMap4@FH4@@HPEAU_xDISPATCHER_CONTEXT@@PEAUFuncInfo4@5@H@Z 000000018003a380 f   libvcruntimed:risctrnsctrl.obj
 0001:00039530       ?ReadInt@FH4@@YAHPEAPEAE@Z 000000018003a530 f i libvcruntimed:risctrnsctrl.obj
 0001:00039570       ?ReadUnsigned@FH4@@YAIPEAPEAE@Z 000000018003a570 f i libvcruntimed:risctrnsctrl.obj
 0001:00039600       ?UnwindNestedFrames@__FrameHandler3@@SAXPEA_KPEAUEHExceptionRecord@@PEAU_CONTEXT@@0PEAXPEBU_s_FuncInfo@@HHPEBU_s_HandlerType@@PEAU_xDISPATCHER_CONTEXT@@E@Z 000000018003a600 f   libvcruntimed:risctrnsctrl.obj
 0001:00039770       ?UnwindNestedFrames@__FrameHandler4@@SAXPEA_KPEAUEHExceptionRecord@@PEAU_CONTEXT@@0PEAXPEAUFuncInfo4@FH4@@HHPEAUHandlerType4@5@PEAU_xDISPATCHER_CONTEXT@@E@Z 000000018003a770 f   libvcruntimed:risctrnsctrl.obj
 0001:00039940       ?begin@TryBlockMap4@FH4@@QEAA?AViterator@12@XZ 000000018003a940 f i libvcruntimed:risctrnsctrl.obj
 0001:00039970       ?end@TryBlockMap4@FH4@@QEAA?AViterator@12@XZ 000000018003a970 f i libvcruntimed:risctrnsctrl.obj
 0001:000399a0       ?imageRelToByteBuffer@FH4@@YAPEAE_KH@Z 000000018003a9a0 f i libvcruntimed:risctrnsctrl.obj
 0001:000399c0       ?incrementToSentinel@iterator@TryBlockMap4@FH4@@QEAAXXZ 000000018003a9c0 f i libvcruntimed:risctrnsctrl.obj
 0001:000399e0       ?setBuffer@TryBlockMap4@FH4@@QEAAXViterator@12@@Z 000000018003a9e0 f i libvcruntimed:risctrnsctrl.obj
 0001:00039a50       _CreateFrameInfo           000000018003aa50 f   libvcruntimed:risctrnsctrl.obj
 0001:00039ac0       _FindAndUnlinkFrame        000000018003aac0 f   libvcruntimed:risctrnsctrl.obj
 0001:00039b50       _GetImageBase              000000018003ab50 f   libvcruntimed:risctrnsctrl.obj
 0001:00039b70       _GetThrowImageBase         000000018003ab70 f   libvcruntimed:risctrnsctrl.obj
 0001:00039b90       _SetImageBase              000000018003ab90 f   libvcruntimed:risctrnsctrl.obj
 0001:00039bb0       _SetThrowImageBase         000000018003abb0 f   libvcruntimed:risctrnsctrl.obj
 0001:00039bd0       __CxxFrameHandler          000000018003abd0 f   libvcruntimed:risctrnsctrl.obj
 0001:00039c10       __CxxFrameHandler2         000000018003ac10 f   libvcruntimed:risctrnsctrl.obj
 0001:00039c50       __CxxFrameHandler3         000000018003ac50 f   libvcruntimed:risctrnsctrl.obj
 0001:00039d30       __CxxFrameHandler4         000000018003ad30 f   libvcruntimed:risctrnsctrl.obj
 0001:00039e40       __C_specific_handler_noexcept 000000018003ae40 f   libvcruntimed:chandler_noexcept.obj
 0001:00039eb0       ?<lambda_invoker_cdecl>@_Closure_wrapper_b75ec0ea_1@@CAPEAX_K@Z 000000018003aeb0 f i libvcruntimed:std_type_info.obj
 0001:00039ed0       ?<lambda_invoker_cdecl>@_Closure_wrapper_b75ec0ea_2@@CAXQEAX@Z 000000018003aed0 f i libvcruntimed:std_type_info.obj
 0001:00039ef0       ??$?RD@__crt_internal_free_policy@@QEBAXQEBD@Z 000000018003aef0 f i libvcruntimed:std_type_info.obj
 0001:00039f20       ??$?RX@__crt_internal_free_policy@@QEBAXQEBX@Z 000000018003af20 f i libvcruntimed:std_type_info.obj
 0001:00039f50       ??$__crt_interlocked_compare_exchange_pointer@$$CBDPEAD$$T@@YAPEBDPEDSEBDQEAD$$T@Z 000000018003af50 f i libvcruntimed:std_type_info.obj
 0001:00039f90       ??$__crt_interlocked_read_pointer@$$CBD@@YAPEBDPEDSEBD@Z 000000018003af90 f i libvcruntimed:std_type_info.obj
 0001:00039fb0       ??0?$__crt_unique_heap_ptr@DU__crt_internal_free_policy@@@@QEAA@QEAD@Z 000000018003afb0 f i libvcruntimed:std_type_info.obj
 0001:00039fd0       ??0?$__crt_unique_heap_ptr@XU__crt_internal_free_policy@@@@QEAA@QEAX@Z 000000018003afd0 f i libvcruntimed:std_type_info.obj
 0001:00039ff0       ??1?$__crt_unique_heap_ptr@DU__crt_internal_free_policy@@@@QEAA@XZ 000000018003aff0 f i libvcruntimed:std_type_info.obj
 0001:0003a010       ??1?$__crt_unique_heap_ptr@XU__crt_internal_free_policy@@@@QEAA@XZ 000000018003b010 f i libvcruntimed:std_type_info.obj
 0001:0003a030       ??B?$__crt_unique_heap_ptr@DU__crt_internal_free_policy@@@@QEBA_NXZ 000000018003b030 f i libvcruntimed:std_type_info.obj
 0001:0003a050       ??B?$__crt_unique_heap_ptr@XU__crt_internal_free_policy@@@@QEBA_NXZ 000000018003b050 f i libvcruntimed:std_type_info.obj
 0001:0003a070       ??B_Closure_wrapper_b75ec0ea_1@@QEBAP6APEAX_K@ZXZ 000000018003b070 f i libvcruntimed:std_type_info.obj
 0001:0003a080       ??B_Closure_wrapper_b75ec0ea_2@@QEBAP6AXQEAX@ZXZ 000000018003b080 f i libvcruntimed:std_type_info.obj
 0001:0003a0f0       ?detach@?$__crt_unique_heap_ptr@XU__crt_internal_free_policy@@@@QEAAPEAXXZ 000000018003b0f0 f i libvcruntimed:std_type_info.obj
 0001:0003a120       ?get@?$__crt_unique_heap_ptr@DU__crt_internal_free_policy@@@@QEBAPEADXZ 000000018003b120 f i libvcruntimed:std_type_info.obj
 0001:0003a130       ?get@?$__crt_unique_heap_ptr@XU__crt_internal_free_policy@@@@QEBAPEAXXZ 000000018003b130 f i libvcruntimed:std_type_info.obj
 0001:0003a140       ?is_valid@?$__crt_unique_heap_ptr@DU__crt_internal_free_policy@@@@QEBA_NXZ 000000018003b140 f i libvcruntimed:std_type_info.obj
 0001:0003a170       ?is_valid@?$__crt_unique_heap_ptr@XU__crt_internal_free_policy@@@@QEBA_NXZ 000000018003b170 f i libvcruntimed:std_type_info.obj
 0001:0003a1a0       ?release@?$__crt_unique_heap_ptr@DU__crt_internal_free_policy@@@@QEAAXXZ 000000018003b1a0 f i libvcruntimed:std_type_info.obj
 0001:0003a1d0       ?release@?$__crt_unique_heap_ptr@XU__crt_internal_free_policy@@@@QEAAXXZ 000000018003b1d0 f i libvcruntimed:std_type_info.obj
 0001:0003a200       __std_type_info_compare    000000018003b200 f   libvcruntimed:std_type_info.obj
 0001:0003a240       __std_type_info_destroy_list 000000018003b240 f   libvcruntimed:std_type_info.obj
 0001:0003a2a0       __std_type_info_hash       000000018003b2a0 f   libvcruntimed:std_type_info.obj
 0001:0003a350       __std_type_info_name       000000018003b350 f   libvcruntimed:std_type_info.obj
 0001:0003a600       __vcrt_GetModuleFileNameW  000000018003b600 f   libvcruntimed:winapi_thunks.obj
 0001:0003a630       __vcrt_GetModuleHandleW    000000018003b630 f   libvcruntimed:winapi_thunks.obj
 0001:0003a650       __vcrt_LoadLibraryExW      000000018003b650 f   libvcruntimed:winapi_thunks.obj
 0001:0003a680       ??$?RD@__crt_public_free_policy@@QEBAXQEBD@Z 000000018003b680 f i libvcruntimed:std_exception.obj
 0001:0003a6a0       ??0?$__crt_unique_heap_ptr@DU__crt_public_free_policy@@@@QEAA@QEAD@Z 000000018003b6a0 f i libvcruntimed:std_exception.obj
 0001:0003a6c0       ??1?$__crt_unique_heap_ptr@DU__crt_public_free_policy@@@@QEAA@XZ 000000018003b6c0 f i libvcruntimed:std_exception.obj
 0001:0003a6e0       ??B?$__crt_unique_heap_ptr@DU__crt_public_free_policy@@@@QEBA_NXZ 000000018003b6e0 f i libvcruntimed:std_exception.obj
 0001:0003a700       ?detach@?$__crt_unique_heap_ptr@DU__crt_public_free_policy@@@@QEAAPEADXZ 000000018003b700 f i libvcruntimed:std_exception.obj
 0001:0003a730       ?get@?$__crt_unique_heap_ptr@DU__crt_public_free_policy@@@@QEBAPEADXZ 000000018003b730 f i libvcruntimed:std_exception.obj
 0001:0003a740       ?is_valid@?$__crt_unique_heap_ptr@DU__crt_public_free_policy@@@@QEBA_NXZ 000000018003b740 f i libvcruntimed:std_exception.obj
 0001:0003a770       ?release@?$__crt_unique_heap_ptr@DU__crt_public_free_policy@@@@QEAAXXZ 000000018003b770 f i libvcruntimed:std_exception.obj
 0001:0003a7a0       __std_exception_copy       000000018003b7a0 f   libvcruntimed:std_exception.obj
 0001:0003a8e0       __std_exception_destroy    000000018003b8e0 f   libvcruntimed:std_exception.obj
 0001:0003a920       _CxxThrowException         000000018003b920 f   libvcruntimed:throw.obj
 0001:0003aa70       ??$?RU__vcrt_ptd@@@__crt_internal_free_policy@@QEBAXQEBU__vcrt_ptd@@@Z 000000018003ba70 f i libvcruntimed:per_thread_data.obj
 0001:0003aaa0       ??0?$__crt_unique_heap_ptr@U__vcrt_ptd@@U__crt_internal_free_policy@@@@QEAA@QEAU__vcrt_ptd@@@Z 000000018003baa0 f i libvcruntimed:per_thread_data.obj
 0001:0003aae0       ??1?$__crt_unique_heap_ptr@U__vcrt_ptd@@U__crt_internal_free_policy@@@@QEAA@XZ 000000018003bae0 f i libvcruntimed:per_thread_data.obj
 0001:0003ab20       ??B?$__crt_unique_heap_ptr@U__vcrt_ptd@@U__crt_internal_free_policy@@@@QEBA_NXZ 000000018003bb20 f i libvcruntimed:per_thread_data.obj
 0001:0003ab40       ?detach@?$__crt_unique_heap_ptr@U__vcrt_ptd@@U__crt_internal_free_policy@@@@QEAAPEAU__vcrt_ptd@@XZ 000000018003bb40 f i libvcruntimed:per_thread_data.obj
 0001:0003ab70       ?get@?$__crt_unique_heap_ptr@U__vcrt_ptd@@U__crt_internal_free_policy@@@@QEBAPEAU__vcrt_ptd@@XZ 000000018003bb70 f i libvcruntimed:per_thread_data.obj
 0001:0003ab80       ?is_valid@?$__crt_unique_heap_ptr@U__vcrt_ptd@@U__crt_internal_free_policy@@@@QEBA_NXZ 000000018003bb80 f i libvcruntimed:per_thread_data.obj
 0001:0003abb0       ?release@?$__crt_unique_heap_ptr@U__vcrt_ptd@@U__crt_internal_free_policy@@@@QEAAXXZ 000000018003bbb0 f i libvcruntimed:per_thread_data.obj
 0001:0003ac20       __vcrt_freefls             000000018003bc20 f   libvcruntimed:per_thread_data.obj
 0001:0003ac60       __vcrt_freeptd             000000018003bc60 f   libvcruntimed:per_thread_data.obj
 0001:0003acc0       __vcrt_getptd              000000018003bcc0 f   libvcruntimed:per_thread_data.obj
 0001:0003acf0       __vcrt_getptd_noexit       000000018003bcf0 f   libvcruntimed:per_thread_data.obj
 0001:0003ae90       __vcrt_getptd_noinit       000000018003be90 f   libvcruntimed:per_thread_data.obj
 0001:0003aef0       __vcrt_initialize_ptd      000000018003bef0 f   libvcruntimed:per_thread_data.obj
 0001:0003af40       __vcrt_uninitialize_ptd    000000018003bf40 f   libvcruntimed:per_thread_data.obj
 0001:0003af70       __vcrt_initialize_locks    000000018003bf70 f   libvcruntimed:locks.obj
 0001:0003afe0       __vcrt_lock                000000018003bfe0 f   libvcruntimed:locks.obj
 0001:0003b010       __vcrt_uninitialize_locks  000000018003c010 f   libvcruntimed:locks.obj
 0001:0003b070       __vcrt_unlock              000000018003c070 f   libvcruntimed:locks.obj
 0001:0003b0b0       _NLG_Notify                000000018003c0b0 f   libvcruntimed:notify.obj
 0001:0003b0d0       __NLG_Dispatch2            000000018003c0d0 f   libvcruntimed:notify.obj
 0001:0003b0e0       __NLG_Return2              000000018003c0e0 f   libvcruntimed:notify.obj
 0001:0003b100       __except_validate_context_record 000000018003c100 f   libvcruntimed:jbcxrval.obj
 0001:0003b160       __except_validate_jump_buffer 000000018003c160 f   libvcruntimed:jbcxrval.obj
 0001:0003b180       __except_validate_jump_buffer_common 000000018003c180 f i libvcruntimed:jbcxrval.obj
 0001:0003b200       __DestructExceptionObject  000000018003c200 f   libvcruntimed:ehhelpers.obj
 0001:0003b300       ?_CallMemberFunction0@@YAXQEAX0@Z 000000018003c300 f i libvcruntimed:ehhelpers.obj
 0001:0003b330       ?raw_name@type_info@@QEBAPEBDXZ 000000018003c330 f i libvcruntimed:ehhelpers.obj
 0001:0003b340       _IsExceptionObjectToBeDestroyed 000000018003c340 f   libvcruntimed:ehhelpers.obj
 0001:0003b390       _SetWinRTOutOfMemoryExceptionCallback 000000018003c390 f   libvcruntimed:ehhelpers.obj
 0001:0003b3b0       __AdjustPointer            000000018003c3b0 f   libvcruntimed:ehhelpers.obj
 0001:0003b430       __FrameUnwindFilter        000000018003c430 f   libvcruntimed:ehhelpers.obj
 0001:0003b4c0       __GetPlatformExceptionInfo 000000018003c4c0 f   libvcruntimed:ehhelpers.obj
 0001:0003b570       __current_exception        000000018003c570 f   libvcruntimed:ehhelpers.obj
 0001:0003b590       __current_exception_context 000000018003c590 f   libvcruntimed:ehhelpers.obj
 0001:0003b5b0       __processing_throw         000000018003c5b0 f   libvcruntimed:ehhelpers.obj
 0001:0003b5d0       __std_terminate            000000018003c5d0 f   libvcruntimed:ehhelpers.obj
 0001:0003b5e0       _is_exception_typeof       000000018003c5e0 f   libvcruntimed:ehhelpers.obj
 0001:0003b730       ?GetCurrentState@__FrameHandler3@@SAHPEA_KPEAU_xDISPATCHER_CONTEXT@@PEBU_s_FuncInfo@@@Z 000000018003c730 f   libvcruntimed:ehstate.obj
 0001:0003b790       ?GetUnwindTryBlock@__FrameHandler3@@SAHPEA_KPEAU_xDISPATCHER_CONTEXT@@PEBU_s_FuncInfo@@@Z 000000018003c790 f   libvcruntimed:ehstate.obj
 0001:0003b7e0       ?SetState@__FrameHandler3@@SAXPEA_KPEBU_s_FuncInfo@@H@Z 000000018003c7e0 f   libvcruntimed:ehstate.obj
 0001:0003b810       ?SetUnwindTryBlock@__FrameHandler3@@SAXPEA_KPEAU_xDISPATCHER_CONTEXT@@PEBU_s_FuncInfo@@H@Z 000000018003c810 f   libvcruntimed:ehstate.obj
 0001:0003b880       ?StateFromControlPc@__FrameHandler3@@SAHPEBU_s_FuncInfo@@PEAU_xDISPATCHER_CONTEXT@@@Z 000000018003c880 f   libvcruntimed:ehstate.obj
 0001:0003b8c0       ?StateFromControlPc@__FrameHandler4@@SAHPEAUFuncInfo4@FH4@@PEAU_xDISPATCHER_CONTEXT@@@Z 000000018003c8c0 f   libvcruntimed:ehstate.obj
 0001:0003b900       ?StateFromIp@__FrameHandler3@@SAHPEBU_s_FuncInfo@@PEAU_xDISPATCHER_CONTEXT@@_K@Z 000000018003c900 f   libvcruntimed:ehstate.obj
 0001:0003b9f0       ?StateFromIp@__FrameHandler4@@SAHPEAUFuncInfo4@FH4@@PEAU_xDISPATCHER_CONTEXT@@_K@Z 000000018003c9f0 f   libvcruntimed:ehstate.obj
 0001:0003bae0       ?__FuncRelToRealOffset@@YA_KPEAU_xDISPATCHER_CONTEXT@@I@Z 000000018003cae0 f i libvcruntimed:ehstate.obj
 0001:0003bb10       ?__RVAtoRealOffset@@YA_KPEAU_xDISPATCHER_CONTEXT@@H@Z 000000018003cb10 f i libvcruntimed:ehstate.obj
 0001:0003dea0       ??$TypeMatchHelper@V__FrameHandler3@@@@YAHPEBU_s_HandlerType@@PEBU_s_CatchableType@@PEBU_s_ThrowInfo@@@Z 000000018003eea0 f i libvcruntimed:frame.obj
 0001:0003e0a0       ??$TypeMatchHelper@V__FrameHandler4@@@@YAHPEAUHandlerType4@FH4@@PEBU_s_CatchableType@@PEBU_s_ThrowInfo@@@Z 000000018003f0a0 f i libvcruntimed:frame.obj
 0001:0003e2b0       ??$__InternalCxxFrameHandler@V__FrameHandler3@@@@YA?AW4_EXCEPTION_DISPOSITION@@PEAUEHExceptionRecord@@PEA_KPEAU_CONTEXT@@PEAU_xDISPATCHER_CONTEXT@@PEBU_s_FuncInfo@@H1E@Z 000000018003f2b0 f i libvcruntimed:frame.obj
 0001:0003e750       ??$__InternalCxxFrameHandler@V__FrameHandler4@@@@YA?AW4_EXCEPTION_DISPOSITION@@PEAUEHExceptionRecord@@PEA_KPEAU_CONTEXT@@PEAU_xDISPATCHER_CONTEXT@@PEAUFuncInfo4@FH4@@H1E@Z 000000018003f750 f i libvcruntimed:frame.obj
 0001:0003ec10       ??0HandlerMap4@FH4@@QEAA@PEBUTryBlockMapEntry4@1@_KH@Z 000000018003fc10 f i libvcruntimed:frame.obj
 0001:0003ecd0       ??0HandlerMap@__FrameHandler3@@QEAA@PEBU_s_TryBlockMapEntry@@_KI@Z 000000018003fcd0 f i libvcruntimed:frame.obj
 0001:0003ed20       ??0HandlerType4@FH4@@QEAA@XZ 000000018003fd20 f i libvcruntimed:frame.obj
 0001:0003ed40       ??0TryBlockMap4@FH4@@QEAA@PEBUFuncInfo4@1@_K@Z 000000018003fd40 f i libvcruntimed:frame.obj
 0001:0003edd0       ??0TryBlockMap@__FrameHandler3@@QEAA@PEBU_s_FuncInfo@@_K@Z 000000018003fdd0 f i libvcruntimed:frame.obj
 0001:0003ee00       ??0UWMap4@FH4@@QEAA@PEBUFuncInfo4@1@_K@Z 000000018003fe00 f i libvcruntimed:frame.obj
 0001:0003ee70       ??0bad_exception@std@@QEAA@AEBV01@@Z 000000018003fe70 f i libvcruntimed:frame.obj
 0001:0003eeb0       ??0bad_exception@std@@QEAA@XZ 000000018003feb0 f i libvcruntimed:frame.obj
 0001:0003eef0       ??0iterator@HandlerMap4@FH4@@QEAA@AEAV12@I@Z 000000018003fef0 f i libvcruntimed:frame.obj
 0001:0003ef20       ??0iterator@HandlerMap@__FrameHandler3@@QEAA@AEAV12@I@Z 000000018003ff20 f i libvcruntimed:frame.obj
 0001:0003ef50       ??0iterator@UWMap4@FH4@@QEAA@AEAV12@PEAE@Z 000000018003ff50 f i libvcruntimed:frame.obj
 0001:0003ef80       ??1bad_exception@std@@UEAA@XZ 000000018003ff80 f i libvcruntimed:frame.obj
 0001:0003efa0       ??4iterator@UWMap4@FH4@@QEAAAEAV012@AEBV012@@Z 000000018003ffa0 f i libvcruntimed:frame.obj
 0001:0003eff0       ??8iterator@HandlerMap4@FH4@@QEBA_NAEBV012@@Z 000000018003fff0 f i libvcruntimed:frame.obj
 0001:0003f030       ??8iterator@HandlerMap@__FrameHandler3@@QEBA_NAEBV012@@Z 0000000180040030 f i libvcruntimed:frame.obj
 0001:0003f070       ??8type_info@@QEBA_NAEBV0@@Z 0000000180040070 f i libvcruntimed:frame.obj
 0001:0003f0c0       ??9iterator@HandlerMap4@FH4@@QEBA_NAEBV012@@Z 00000001800400c0 f i libvcruntimed:frame.obj
 0001:0003f100       ??9iterator@HandlerMap@__FrameHandler3@@QEBA_NAEBV012@@Z 0000000180040100 f i libvcruntimed:frame.obj
 0001:0003f140       ??Diterator@HandlerMap4@FH4@@QEAA?AUHandlerType4@2@XZ 0000000180040140 f i libvcruntimed:frame.obj
 0001:0003f170       ??Diterator@HandlerMap@__FrameHandler3@@QEAA?BU_s_HandlerType@@XZ 0000000180040170 f i libvcruntimed:frame.obj
 0001:0003f1b0       ??Diterator@TryBlockMap@__FrameHandler3@@QEAA?BU_s_TryBlockMapEntry@@XZ 00000001800401b0 f i libvcruntimed:frame.obj
 0001:0003f200       ??Diterator@UWMap4@FH4@@QEAA?AUUnwindMapEntry4@2@XZ 0000000180040200 f i libvcruntimed:frame.obj
 0001:0003f280       ??Eiterator@HandlerMap4@FH4@@QEAAAEAV012@XZ 0000000180040280 f i libvcruntimed:frame.obj
 0001:0003f2c0       ??Eiterator@HandlerMap@__FrameHandler3@@QEAAAEAV012@XZ 00000001800402c0 f i libvcruntimed:frame.obj
 0001:0003f2e0       ??Eiterator@TryBlockMap@__FrameHandler3@@QEAAAEAV012@XZ 00000001800402e0 f i libvcruntimed:frame.obj
 0001:0003f300       ??Eiterator@UWMap4@FH4@@QEAAAEAV012@XZ 0000000180040300 f i libvcruntimed:frame.obj
 0001:0003f340       ??Giterator@UWMap4@FH4@@QEBA_JAEBV012@@Z 0000000180040340 f i libvcruntimed:frame.obj
 0001:0003f360       ??Miterator@TryBlockMap4@FH4@@QEBA_NAEBV012@@Z 0000000180040360 f i libvcruntimed:frame.obj
 0001:0003f3a0       ??Miterator@TryBlockMap@__FrameHandler3@@QEBA_NAEBV012@@Z 00000001800403a0 f i libvcruntimed:frame.obj
 0001:0003f3e0       ??Oiterator@UWMap4@FH4@@QEBA_NAEBV012@@Z 00000001800403e0 f i libvcruntimed:frame.obj
 0001:0003f420       ??Piterator@UWMap4@FH4@@QEBA_NAEBV012@@Z 0000000180040420 f i libvcruntimed:frame.obj
 0001:0003f460       ??_Gbad_exception@std@@UEAAPEAXI@Z 0000000180040460 f i libvcruntimed:frame.obj
 0001:0003f460       ??_Ebad_exception@std@@UEAAPEAXI@Z 0000000180040460 f i libvcruntimed:frame.obj
 0001:0003f4a0       ?BuildCatchObject@__FrameHandler3@@SAXPEAUEHExceptionRecord@@PEAXPEBU_s_HandlerType@@PEBU_s_CatchableType@@@Z 00000001800404a0 f   libvcruntimed:frame.obj
 0001:0003f4e0       ?BuildCatchObject@__FrameHandler4@@SAXPEAUEHExceptionRecord@@PEAXPEAUHandlerType4@FH4@@PEBU_s_CatchableType@@@Z 00000001800404e0 f   libvcruntimed:frame.obj
 0001:0003f520       ?BuildCatchObjectHelper@__FrameHandler3@@SAHPEAUEHExceptionRecord@@PEAXPEBU_s_HandlerType@@PEBU_s_CatchableType@@@Z 0000000180040520 f   libvcruntimed:frame.obj
 0001:0003f560       ?BuildCatchObjectHelper@__FrameHandler4@@SAHPEAUEHExceptionRecord@@PEAXPEAUHandlerType4@FH4@@PEBU_s_CatchableType@@@Z 0000000180040560 f   libvcruntimed:frame.obj
 0001:0003f5a0       ?CxxCallCatchBlock@__FrameHandler3@@SAPEAXPEAU_EXCEPTION_RECORD@@@Z 00000001800405a0 f   libvcruntimed:frame.obj
 0001:0003f800       ?CxxCallCatchBlock@__FrameHandler4@@SAPEAXPEAU_EXCEPTION_RECORD@@@Z 0000000180040800 f   libvcruntimed:frame.obj
 0001:0003fb30       ?DecompHandler@HandlerMap4@FH4@@AEAAXXZ 0000000180040b30 f i libvcruntimed:frame.obj
 0001:0003ff00       ?FrameUnwindToState@__FrameHandler3@@SAXPEA_KPEAU_xDISPATCHER_CONTEXT@@PEBU_s_FuncInfo@@H@Z 0000000180040f00 f   libvcruntimed:frame.obj
 0001:00040150       ?FrameUnwindToState@__FrameHandler4@@SAXPEA_KPEAU_xDISPATCHER_CONTEXT@@PEAUFuncInfo4@FH4@@H@Z 0000000180041150 f   libvcruntimed:frame.obj
 0001:000404a0       ?GetHandlerSearchState@__FrameHandler3@@SAHPEA_KPEAU_xDISPATCHER_CONTEXT@@PEBU_s_FuncInfo@@@Z 00000001800414a0 f i libvcruntimed:frame.obj
 0001:00040550       ?GetHandlerSearchState@__FrameHandler4@@SAHPEA_KPEAU_xDISPATCHER_CONTEXT@@PEAUFuncInfo4@FH4@@@Z 0000000180041550 f i libvcruntimed:frame.obj
 0001:000405d0       ?GetMaxState@__FrameHandler3@@SAHPEAU_xDISPATCHER_CONTEXT@@PEBU_s_FuncInfo@@@Z 00000001800415d0 f i libvcruntimed:frame.obj
 0001:000405f0       ?GetMaxState@__FrameHandler4@@SAHPEAU_xDISPATCHER_CONTEXT@@PEAUFuncInfo4@FH4@@@Z 00000001800415f0 f i libvcruntimed:frame.obj
 0001:00040830       ?ReadEntry@UWMap4@FH4@@AEAAXPEAPEAE@Z 0000000180041830 f i libvcruntimed:frame.obj
 0001:000408e0       ?TypeMatch@__FrameHandler3@@SAHPEBU_s_HandlerType@@PEBU_s_CatchableType@@PEBU_s_ThrowInfo@@@Z 00000001800418e0 f   libvcruntimed:frame.obj
 0001:00040910       ?TypeMatch@__FrameHandler4@@SAHPEAUHandlerType4@FH4@@PEBU_s_CatchableType@@PEBU_s_ThrowInfo@@@Z 0000000180041910 f   libvcruntimed:frame.obj
 0001:00040940       ?WalkBack@UWMap4@FH4@@AEAAXPEAPEAE@Z 0000000180041940 f i libvcruntimed:frame.obj
 0001:00040990       ?WalkBack@iterator@UWMap4@FH4@@QEAAXXZ 0000000180041990 f i libvcruntimed:frame.obj
 0001:000409d0       ?WalkForward@UWMap4@FH4@@AEAAXPEAPEAE@Z 00000001800419d0 f i libvcruntimed:frame.obj
 0001:00040a00       ?_CallMemberFunction1@@YAXQEAX00@Z 0000000180041a00 f i libvcruntimed:frame.obj
 0001:00040a40       ?_CallMemberFunction2@@YAXQEAX00H@Z 0000000180041a40 f i libvcruntimed:frame.obj
 0001:00040a90       ?_ValidateExecute@@YA_NP6A_JXZ@Z 0000000180041a90 f i libvcruntimed:frame.obj
 0001:00040ab0       ?_ValidateRead@@YA_NPEBXI@Z 0000000180041ab0 f i libvcruntimed:frame.obj
 0001:00040ad0       ?_ValidateWrite@@YA_NPEAXI@Z 0000000180041ad0 f i libvcruntimed:frame.obj
 0001:00040b30       ?begin@HandlerMap4@FH4@@QEAA?AViterator@12@XZ 0000000180041b30 f i libvcruntimed:frame.obj
 0001:00040b60       ?begin@HandlerMap@__FrameHandler3@@QEAA?AViterator@12@XZ 0000000180041b60 f i libvcruntimed:frame.obj
 0001:00040b90       ?begin@UWMap4@FH4@@QEAA?AViterator@12@XZ 0000000180041b90 f i libvcruntimed:frame.obj
 0001:00040bc0       ?end@HandlerMap4@FH4@@QEAA?AViterator@12@XZ 0000000180041bc0 f i libvcruntimed:frame.obj
 0001:00040bf0       ?end@HandlerMap@__FrameHandler3@@QEAA?AViterator@12@XZ 0000000180041bf0 f i libvcruntimed:frame.obj
 0001:00040c20       ?getESTypes@__FrameHandler3@@SAPEBU_s_ESTypeList@@PEBU_s_FuncInfo@@@Z 0000000180041c20 f i libvcruntimed:frame.obj
 0001:00040c60       ?getESTypes@__FrameHandler4@@SAPEBU_s_ESTypeList@@PEAUFuncInfo4@FH4@@@Z 0000000180041c60 f i libvcruntimed:frame.obj
 0001:00040c70       ?getLastEntry@HandlerMap4@FH4@@QEAAPEAUHandlerType4@2@XZ 0000000180041c70 f i libvcruntimed:frame.obj
 0001:00040cb0       ?getLastEntry@HandlerMap@__FrameHandler3@@QEAAPEBU_s_HandlerType@@XZ 0000000180041cb0 f i libvcruntimed:frame.obj
 0001:00040cd0       ?getMagicNum@__FrameHandler3@@SAIPEBU_s_FuncInfo@@@Z 0000000180041cd0 f i libvcruntimed:frame.obj
 0001:00040cf0       ?getMagicNum@__FrameHandler4@@SAIPEAUFuncInfo4@FH4@@@Z 0000000180041cf0 f i libvcruntimed:frame.obj
 0001:00040d00       ?getNumTryBlocks@TryBlockMap4@FH4@@QEAAIXZ 0000000180041d00 f i libvcruntimed:frame.obj
 0001:00040d10       ?getNumTryBlocks@TryBlockMap@__FrameHandler3@@QEAAIXZ 0000000180041d10 f i libvcruntimed:frame.obj
 0001:00040d30       ?getStartStop@UWMap4@FH4@@QEAAXHHAEAViterator@12@0@Z 0000000180041d30 f i libvcruntimed:frame.obj
 0001:00040e50       ?getStateFromIterators@UWMap4@FH4@@SAHAEBViterator@12@H0H0@Z 0000000180041e50 f i libvcruntimed:frame.obj
 0001:00040f90       ?isEHs@__FrameHandler3@@SA_NPEBU_s_FuncInfo@@@Z 0000000180041f90 f i libvcruntimed:frame.obj
 0001:00040fd0       ?isEHs@__FrameHandler4@@SA_NPEAUFuncInfo4@FH4@@@Z 0000000180041fd0 f i libvcruntimed:frame.obj
 0001:00040ff0       ?isNoExcept@__FrameHandler3@@SA_NPEBU_s_FuncInfo@@@Z 0000000180041ff0 f i libvcruntimed:frame.obj
 0001:00041030       ?isNoExcept@__FrameHandler4@@SA_NPEAUFuncInfo4@FH4@@@Z 0000000180042030 f i libvcruntimed:frame.obj
 0001:00041050       ?reset@HandlerType4@FH4@@QEAAXXZ 0000000180042050 f i libvcruntimed:frame.obj
 0001:000410b0       ?resetBuffer@HandlerMap4@FH4@@QEAAXXZ 00000001800420b0 f i libvcruntimed:frame.obj
 0001:000410d0       ?setBuffer@HandlerMap4@FH4@@QEAAXI@Z 00000001800420d0 f i libvcruntimed:frame.obj
 0001:00041130       __BuildCatchObject         0000000180042130 f   libvcruntimed:frame.obj
 0001:00041170       __BuildCatchObjectHelper   0000000180042170 f   libvcruntimed:frame.obj
 0001:000411b0       __TypeMatch                00000001800421b0 f   libvcruntimed:frame.obj
 0001:000411e0       __vcrt_EncodePointer       00000001800421e0 f i libvcruntimed:frame.obj
 0001:00041200       ??0Block@_HeapManager@@QEAA@XZ 0000000180042200 f i libvcruntimed:undname.obj
 0001:00041220       ??0DName@@QEAA@AEAPEBDD@Z  0000000180042220 f   libvcruntimed:undname.obj
 0001:000414d0       ??0DName@@QEAA@AEBV0@@Z    00000001800424d0 f i libvcruntimed:undname.obj
 0001:00041500       ??0DName@@QEAA@D@Z         0000000180042500 f   libvcruntimed:undname.obj
 0001:00041550       ??0DName@@QEAA@PEAV0@@Z    0000000180042550 f   libvcruntimed:undname.obj
 0001:00041630       ??0DName@@QEAA@PEBD@Z      0000000180042630 f   libvcruntimed:undname.obj
 0001:000416a0       ??0DName@@QEAA@W4DNameStatus@@@Z 00000001800426a0 f   libvcruntimed:undname.obj
 0001:00041750       ??0DName@@QEAA@XZ          0000000180042750 f i libvcruntimed:undname.obj
 0001:00041780       ??0DName@@QEAA@_J@Z        0000000180042780 f   libvcruntimed:undname.obj
 0001:00041890       ??0DName@@QEAA@_K@Z        0000000180042890 f   libvcruntimed:undname.obj
 0001:00041960       ??0DNameNode@@IEAA@XZ      0000000180042960 f i libvcruntimed:undname.obj
 0001:00041980       ??0Replicator@@QEAA@XZ     0000000180042980 f i libvcruntimed:undname.obj
 0001:000419c0       ??0UnDecorator@@QEAA@PEBDP6APEADJ@ZK@Z 00000001800429c0 f i libvcruntimed:undname.obj
 0001:00041a70       ??0charNode@@QEAA@D@Z      0000000180042a70 f i libvcruntimed:undname.obj
 0001:00041ab0       ??0pDNameNode@@QEAA@PEAVDName@@@Z 0000000180042ab0 f   libvcruntimed:undname.obj
 0001:00041b30       ??0pairNode@@QEAA@PEBVDNameNode@@0@Z 0000000180042b30 f i libvcruntimed:undname.obj
 0001:00041b90       ??0pcharNode@@QEAA@PEBDH@Z 0000000180042b90 f   libvcruntimed:undname.obj
 0001:00041c80       ??2@YAPEAX_KAEAV_HeapManager@@H@Z 0000000180042c80 f i libvcruntimed:undname.obj
 0001:00041cb0       ??4DName@@QEAAAEAV0@AEBV0@@Z 0000000180042cb0 f   libvcruntimed:undname.obj
 0001:00041ce0       ??4DName@@QEAAAEAV0@D@Z    0000000180042ce0 f i libvcruntimed:undname.obj
 0001:00041d30       ??4DName@@QEAAAEAV0@PEAV0@@Z 0000000180042d30 f   libvcruntimed:undname.obj
 0001:00041e00       ??4DName@@QEAAAEAV0@PEBD@Z 0000000180042e00 f   libvcruntimed:undname.obj
 0001:00041e50       ??4DName@@QEAAAEAV0@W4DNameStatus@@@Z 0000000180042e50 f   libvcruntimed:undname.obj
 0001:00041ee0       ??AReplicator@@QEBA?AVDName@@H@Z 0000000180042ee0 f   libvcruntimed:undname.obj
 0001:00041f70       ??H@YA?AVDName@@DAEBV0@@Z  0000000180042f70 f i libvcruntimed:undname.obj
 0001:00041fc0       ??H@YA?AVDName@@PEBDAEBV0@@Z 0000000180042fc0 f i libvcruntimed:undname.obj
 0001:00042010       ??H@YA?AVDName@@W4DNameStatus@@AEBV0@@Z 0000000180043010 f i libvcruntimed:undname.obj
 0001:00042060       ??HDName@@QEBA?AV0@AEBV0@@Z 0000000180043060 f   libvcruntimed:undname.obj
 0001:000420b0       ??HDName@@QEBA?AV0@D@Z     00000001800430b0 f   libvcruntimed:undname.obj
 0001:00042100       ??HDName@@QEBA?AV0@PEAV0@@Z 0000000180043100 f   libvcruntimed:undname.obj
 0001:00042150       ??HDName@@QEBA?AV0@PEBD@Z  0000000180043150 f   libvcruntimed:undname.obj
 0001:000421a0       ??HDName@@QEBA?AV0@W4DNameStatus@@@Z 00000001800431a0 f   libvcruntimed:undname.obj
 0001:000421f0       ??YDName@@QEAAAEAV0@AEBV0@@Z 00000001800431f0 f   libvcruntimed:undname.obj
 0001:00042270       ??YDName@@QEAAAEAV0@D@Z    0000000180043270 f   libvcruntimed:undname.obj
 0001:00042310       ??YDName@@QEAAAEAV0@PEAV0@@Z 0000000180043310 f   libvcruntimed:undname.obj
 0001:000423f0       ??YDName@@QEAAAEAV0@PEBD@Z 00000001800433f0 f   libvcruntimed:undname.obj
 0001:000424c0       ??YDName@@QEAAAEAV0@W4DNameStatus@@@Z 00000001800434c0 f   libvcruntimed:undname.obj
 0001:00042530       ??YReplicator@@QEAAAEAV0@AEBVDName@@@Z 0000000180043530 f   libvcruntimed:undname.obj
 0001:000425f0       ??_5DName@@QEAAAEAV0@AEBV0@@Z 00000001800435f0 f   libvcruntimed:undname.obj
 0001:00042660       ?Constructor@_HeapManager@@QEAAXP6APEAX_K@ZP6AXPEAX@Z@Z 0000000180043660 f i libvcruntimed:undname.obj
 0001:000426c0       ?Destructor@_HeapManager@@QEAAXXZ 00000001800436c0 f i libvcruntimed:undname.obj
 0001:00042740       ?UScore@UnDecorator@@SAPEBDW4Tokens@@@Z 0000000180043740 f   libvcruntimed:undname.obj
 0001:00042780       ?append@DName@@AEAAXPEBVDNameNode@@@Z 0000000180043780 f   libvcruntimed:undname.obj
 0001:00042830       ?composeDeclaration@UnDecorator@@CA?AVDName@@AEBV2@@Z 0000000180043830 f i libvcruntimed:undname.obj
 0001:00044a00       ?dbGetString@DName@@QEBAPEADXZ 0000000180045a00 f   libvcruntimed:undname.obj
 0001:00044a30       ?doAccessSpecifiers@UnDecorator@@SAHXZ 0000000180045a30 f i libvcruntimed:undname.obj
 0001:00044a60       ?doAllocationLanguage@UnDecorator@@SAHXZ 0000000180045a60 f i libvcruntimed:undname.obj
 0001:00044a90       ?doAllocationModel@UnDecorator@@SAHXZ 0000000180045a90 f i libvcruntimed:undname.obj
 0001:00044ac0       ?doEcsu@UnDecorator@@SAHXZ 0000000180045ac0 f i libvcruntimed:undname.obj
 0001:00044af0       ?doEllipsis@UnDecorator@@SAHXZ 0000000180045af0 f i libvcruntimed:undname.obj
 0001:00044b20       ?doFunctionReturns@UnDecorator@@SAHXZ 0000000180045b20 f i libvcruntimed:undname.obj
 0001:00044b50       ?doMSKeywords@UnDecorator@@SAHXZ 0000000180045b50 f i libvcruntimed:undname.obj
 0001:00044b80       ?doMemberTypes@UnDecorator@@SAHXZ 0000000180045b80 f i libvcruntimed:undname.obj
 0001:00044bb0       ?doNameOnly@UnDecorator@@SAHXZ 0000000180045bb0 f i libvcruntimed:undname.obj
 0001:00044bc0       ?doNoIdentCharCheck@UnDecorator@@SAHXZ 0000000180045bc0 f i libvcruntimed:undname.obj
 0001:00044bd0       ?doPchar@DName@@AEAAXPEBDH@Z 0000000180045bd0 f   libvcruntimed:undname.obj
 0001:00044d60       ?doPtr64@UnDecorator@@SAHXZ 0000000180045d60 f i libvcruntimed:undname.obj
 0001:00044d90       ?doRestrictionSpec@UnDecorator@@SAHXZ 0000000180045d90 f i libvcruntimed:undname.obj
 0001:00044dc0       ?doThisTypes@UnDecorator@@SAHXZ 0000000180045dc0 f i libvcruntimed:undname.obj
 0001:00044df0       ?doThrowTypes@UnDecorator@@SAHXZ 0000000180045df0 f i libvcruntimed:undname.obj
 0001:00044e20       ?doTypeOnly@UnDecorator@@SAHXZ 0000000180045e20 f i libvcruntimed:undname.obj
 0001:00044e30       ?doUnderScore@UnDecorator@@SAHXZ 0000000180045e30 f i libvcruntimed:undname.obj
 0001:00044e60       ?getArgumentList@UnDecorator@@CA?AVDName@@XZ 0000000180045e60 f   libvcruntimed:undname.obj
 0001:00045000       ?getArgumentTypes@UnDecorator@@CA?AVDName@@XZ 0000000180046000 f   libvcruntimed:undname.obj
 0001:000451b0       ?getArrayType@UnDecorator@@CA?AVDName@@AEBV2@@Z 00000001800461b0 f i libvcruntimed:undname.obj
 0001:00045510       ?getBasedType@UnDecorator@@CA?AVDName@@XZ 0000000180046510 f   libvcruntimed:undname.obj
 0001:00045600       ?getBasicDataType@UnDecorator@@CA?AVDName@@AEBV2@@Z 0000000180046600 f   libvcruntimed:undname.obj
 0001:00045d70       ?getCHPEName@UnDecorator@@QEAAPEADPEADH@Z 0000000180046d70 f i libvcruntimed:undname.obj
 0001:00045f40       ?getCallIndex@UnDecorator@@CA?AVDName@@XZ 0000000180046f40 f i libvcruntimed:undname.obj
 0001:00045f60       ?getCallingConvention@UnDecorator@@CA?AVDName@@XZ 0000000180046f60 f   libvcruntimed:undname.obj
 0001:000461a0       ?getDataIndirectType@UnDecorator@@CA?AVDName@@AEBV2@PEBD0H@Z 00000001800471a0 f   libvcruntimed:undname.obj
 0001:00046c70       ?getDataIndirectType@UnDecorator@@CA?AVDName@@XZ 0000000180047c70 f i libvcruntimed:undname.obj
 0001:00046ce0       ?getDataType@UnDecorator@@CA?AVDName@@PEAV2@@Z 0000000180047ce0 f   libvcruntimed:undname.obj
 0001:00046e70       ?getDecoratedName@UnDecorator@@CA?AVDName@@XZ 0000000180047e70 f   libvcruntimed:undname.obj
 0001:00047310       ?getDimension@UnDecorator@@CA?AVDName@@_N@Z 0000000180048310 f   libvcruntimed:undname.obj
 0001:00047670       ?getDispatchTarget@UnDecorator@@CA?AVDName@@XZ 0000000180048670 f   libvcruntimed:undname.obj
 0001:00047740       ?getDisplacement@UnDecorator@@CA?AVDName@@XZ 0000000180048740 f i libvcruntimed:undname.obj
 0001:00047760       ?getECSUDataType@UnDecorator@@CA?AVDName@@XZ 0000000180048760 f   libvcruntimed:undname.obj
 0001:000479a0       ?getECSUName@UnDecorator@@CA?AVDName@@XZ 00000001800489a0 f i libvcruntimed:undname.obj
 0001:000479c0       ?getEnumType@UnDecorator@@CA?AVDName@@XZ 00000001800489c0 f i libvcruntimed:undname.obj
 0001:00047b40       ?getExtendedDataIndirectType@UnDecorator@@CA?AVDName@@AEAPEBDAEA_NH@Z 0000000180048b40 f   libvcruntimed:undname.obj
 0001:00047e60       ?getExternalDataType@UnDecorator@@CA?AVDName@@AEBV2@@Z 0000000180048e60 f i libvcruntimed:undname.obj
 0001:00047f40       ?getFunctionIndirectType@UnDecorator@@CA?AVDName@@AEBV2@@Z 0000000180048f40 f   libvcruntimed:undname.obj
 0001:00048540       ?getGuardNumber@UnDecorator@@CA?AVDName@@XZ 0000000180049540 f i libvcruntimed:undname.obj
 0001:00048560       ?getLastChar@DName@@QEBADXZ 0000000180049560 f i libvcruntimed:undname.obj
 0001:000485b0       ?getLastChar@DNameStatusNode@@UEBADXZ 00000001800495b0 f i libvcruntimed:undname.obj
 0001:000485f0       ?getLastChar@charNode@@UEBADXZ 00000001800495f0 f i libvcruntimed:undname.obj
 0001:00048600       ?getLastChar@pDNameNode@@UEBADXZ 0000000180049600 f i libvcruntimed:undname.obj
 0001:00048640       ?getLastChar@pairNode@@UEBADXZ 0000000180049640 f i libvcruntimed:undname.obj
 0001:000486c0       ?getLastChar@pcharNode@@UEBADXZ 00000001800496c0 f i libvcruntimed:undname.obj
 0001:00048700       ?getLexicalFrame@UnDecorator@@CA?AVDName@@XZ 0000000180049700 f i libvcruntimed:undname.obj
 0001:00048750       ?getMemory@_HeapManager@@QEAAPEAX_KH@Z 0000000180049750 f   libvcruntimed:undname.obj
 0001:000488d0       ?getNoexcept@UnDecorator@@CA?AVDName@@XZ 00000001800498d0 f   libvcruntimed:undname.obj
 0001:00048960       ?getNumberOfDimensions@UnDecorator@@CAHXZ 0000000180049960 f   libvcruntimed:undname.obj
 0001:00048a80       ?getOperatorName@UnDecorator@@CA?AVDName@@_NPEA_N@Z 0000000180049a80 f i libvcruntimed:undname.obj
 0001:00049860       ?getPointerType@UnDecorator@@CA?AVDName@@AEBV2@0@Z 000000018004a860 f i libvcruntimed:undname.obj
 0001:000498b0       ?getPointerTypeArray@UnDecorator@@CA?AVDName@@AEBV2@0@Z 000000018004a8b0 f i libvcruntimed:undname.obj
 0001:00049900       ?getPrimaryDataType@UnDecorator@@CA?AVDName@@AEBV2@@Z 000000018004a900 f   libvcruntimed:undname.obj
 0001:00049df0       ?getPtrRefDataType@UnDecorator@@CA?AVDName@@AEBV2@H@Z 000000018004adf0 f   libvcruntimed:undname.obj
 0001:0004a080       ?getPtrRefType@UnDecorator@@CA?AVDName@@AEBV2@0PEBD@Z 000000018004b080 f   libvcruntimed:undname.obj
 0001:0004a290       ?getReferenceType@UnDecorator@@CA?AVDName@@AEBV2@0PEBD@Z 000000018004b290 f i libvcruntimed:undname.obj
 0001:0004a2d0       ?getRestrictionSpec@UnDecorator@@CA?AVDName@@XZ 000000018004b2d0 f   libvcruntimed:undname.obj
 0001:0004a4a0       ?getReturnType@UnDecorator@@CA?AVDName@@PEAV2@@Z 000000018004b4a0 f   libvcruntimed:undname.obj
 0001:0004a500       ?getScope@UnDecorator@@CA?AVDName@@XZ 000000018004b500 f   libvcruntimed:undname.obj
 0001:0004ab80       ?getScopedName@UnDecorator@@CA?AVDName@@XZ 000000018004bb80 f   libvcruntimed:undname.obj
 0001:0004ad10       ?getSignedDimension@UnDecorator@@CA?AVDName@@XZ 000000018004bd10 f   libvcruntimed:undname.obj
 0001:0004ada0       ?getStorageConvention@UnDecorator@@CA?AVDName@@XZ 000000018004bda0 f i libvcruntimed:undname.obj
 0001:0004adc0       ?getString@DName@@QEBAPEADPEAD0@Z 000000018004bdc0 f i libvcruntimed:undname.obj
 0001:0004ae40       ?getString@DName@@QEBAPEADPEADH@Z 000000018004be40 f i libvcruntimed:undname.obj
 0001:0004af00       ?getString@DNameStatusNode@@UEBAPEADPEAD0@Z 000000018004bf00 f i libvcruntimed:undname.obj
 0001:0004af50       ?getString@charNode@@UEBAPEADPEAD0@Z 000000018004bf50 f i libvcruntimed:undname.obj
 0001:0004af90       ?getString@pDNameNode@@UEBAPEADPEAD0@Z 000000018004bf90 f i libvcruntimed:undname.obj
 0001:0004aff0       ?getString@pairNode@@UEBAPEADPEAD0@Z 000000018004bff0 f i libvcruntimed:undname.obj
 0001:0004b0c0       ?getString@pcharNode@@UEBAPEADPEAD0@Z 000000018004c0c0 f i libvcruntimed:undname.obj
 0001:0004b100       ?getStringEncoding@UnDecorator@@CA?AVDName@@PEBDH@Z 000000018004c100 f   libvcruntimed:undname.obj
 0001:0004b240       ?getStringHelper@@YAPEADPEADPEBD1H@Z 000000018004c240 f i libvcruntimed:undname.obj
 0001:0004b2b0       ?getSymbolName@UnDecorator@@CA?AVDName@@XZ 000000018004c2b0 f i libvcruntimed:undname.obj
 0001:0004b350       ?getTemplateArgumentList@UnDecorator@@CA?AVDName@@XZ 000000018004c350 f   libvcruntimed:undname.obj
 0001:0004b630       ?getTemplateName@UnDecorator@@CA?AVDName@@_N@Z 000000018004c630 f   libvcruntimed:undname.obj
 0001:0004b870       ?getTemplateNonTypeArgument@UnDecorator@@CA?AVDName@@XZ 000000018004c870 f   libvcruntimed:undname.obj
 0001:0004bfa0       ?getTemplateTypeArgument@UnDecorator@@CA?AVDName@@XZ 000000018004cfa0 f   libvcruntimed:undname.obj
 0001:0004c170       ?getThisType@UnDecorator@@CA?AVDName@@XZ 000000018004d170 f i libvcruntimed:undname.obj
 0001:0004c1e0       ?getThrowTypes@UnDecorator@@CA?AVDName@@XZ 000000018004d1e0 f   libvcruntimed:undname.obj
 0001:0004c230       ?getTypeEncoding@UnDecorator@@CAHXZ 000000018004d230 f i libvcruntimed:undname.obj
 0001:0004ce30       ?getUndecoratedName@UnDecorator@@QEAAPEADPEADH@Z 000000018004de30 f i libvcruntimed:undname.obj
 0001:0004cff0       ?getVCallThunkType@UnDecorator@@CA?AVDName@@XZ 000000018004dff0 f i libvcruntimed:undname.obj
 0001:0004d070       ?getVbTableType@UnDecorator@@CA?AVDName@@AEBV2@@Z 000000018004e070 f i libvcruntimed:undname.obj
 0001:0004d0a0       ?getVdispMapType@UnDecorator@@CA?AVDName@@AEBV2@@Z 000000018004e0a0 f i libvcruntimed:undname.obj
 0001:0004d130       ?getVfTableType@UnDecorator@@CA?AVDName@@AEBV2@@Z 000000018004e130 f i libvcruntimed:undname.obj
 0001:0004d370       ?getZName@UnDecorator@@CA?AVDName@@_N0@Z 000000018004e370 f   libvcruntimed:undname.obj
 0001:0004d730       ?haveTemplateParameters@UnDecorator@@SAHXZ 000000018004e730 f i libvcruntimed:undname.obj
 0001:0004d740       ?isArray@DName@@QEBAHXZ    000000018004e740 f i libvcruntimed:undname.obj
 0001:0004d760       ?isComArray@DName@@QEBAHXZ 000000018004e760 f i libvcruntimed:undname.obj
 0001:0004d780       ?isEmpty@DName@@QEBAHXZ    000000018004e780 f i libvcruntimed:undname.obj
 0001:0004d7b0       ?isFull@Replicator@@QEBAHXZ 000000018004e7b0 f i libvcruntimed:undname.obj
 0001:0004d7e0       ?isNoTE@DName@@QEBAHXZ     000000018004e7e0 f i libvcruntimed:undname.obj
 0001:0004d800       ?isPinPtr@DName@@QEBAHXZ   000000018004e800 f i libvcruntimed:undname.obj
 0001:0004d820       ?isPtrRef@DName@@QEBAHXZ   000000018004e820 f i libvcruntimed:undname.obj
 0001:0004d840       ?isUDC@DName@@QEBAHXZ      000000018004e840 f i libvcruntimed:undname.obj
 0001:0004d890       ?isUDTThunk@DName@@QEBAHXZ 000000018004e890 f i libvcruntimed:undname.obj
 0001:0004d8e0       ?isVCallThunk@DName@@QEBAHXZ 000000018004e8e0 f i libvcruntimed:undname.obj
 0001:0004d900       ?isValid@DName@@QEBAHXZ    000000018004e900 f i libvcruntimed:undname.obj
 0001:0004d940       ?length@DName@@QEBAHXZ     000000018004e940 f i libvcruntimed:undname.obj
 0001:0004d990       ?length@DNameStatusNode@@UEBAHXZ 000000018004e990 f i libvcruntimed:undname.obj
 0001:0004d9a0       ?length@charNode@@UEBAHXZ  000000018004e9a0 f i libvcruntimed:undname.obj
 0001:0004d9b0       ?length@pDNameNode@@UEBAHXZ 000000018004e9b0 f i libvcruntimed:undname.obj
 0001:0004d9f0       ?length@pairNode@@UEBAHXZ  000000018004e9f0 f i libvcruntimed:undname.obj
 0001:0004da80       ?length@pcharNode@@UEBAHXZ 000000018004ea80 f i libvcruntimed:undname.obj
 0001:0004da90       ?make@DNameStatusNode@@SAPEBV1@W4DNameStatus@@@Z 000000018004ea90 f i libvcruntimed:undname.obj
 0001:0004dae0       ?parseDecoratedName@UnDecorator@@CA?AVDName@@XZ 000000018004eae0 f   libvcruntimed:undname.obj
 0001:0004dca0       ?setIsArray@DName@@QEAAXXZ 000000018004eca0 f i libvcruntimed:undname.obj
 0001:0004dcc0       ?setIsComArray@DName@@QEAAXXZ 000000018004ecc0 f i libvcruntimed:undname.obj
 0001:0004dce0       ?setIsNoTE@DName@@QEAAXXZ  000000018004ece0 f i libvcruntimed:undname.obj
 0001:0004dd00       ?setIsPinPtr@DName@@QEAAXXZ 000000018004ed00 f i libvcruntimed:undname.obj
 0001:0004dd20       ?setIsUDC@DName@@QEAAXXZ   000000018004ed20 f i libvcruntimed:undname.obj
 0001:0004dd50       ?setIsVCallThunk@DName@@QEAAXXZ 000000018004ed50 f i libvcruntimed:undname.obj
 0001:0004dd70       ?setPtrRef@DName@@QEAAAEAV1@XZ 000000018004ed70 f i libvcruntimed:undname.obj
 0001:0004dd90       ?status@DName@@QEBA?AW4DNameStatus@@XZ 000000018004ed90 f i libvcruntimed:undname.obj
 0001:0004dec0       __unDName                  000000018004eec0 f   libvcruntimed:undname.obj
 0001:0004df20       __unDNameEx                000000018004ef20 f   libvcruntimed:undname.obj
 0001:0004dfe0       unDNameGenerateCHPE        000000018004efe0 f   libvcruntimed:undname.obj
 0001:0004e090       ??$__crt_interlocked_exchange_pointer@UHINSTANCE__@@PEAU1@@@YAPEAUHINSTANCE__@@PEDSEAU0@QEAU0@@Z 000000018004f090 f i libvcruntimed:winapi_downlevel.obj
 0001:0004e0b0       ??$__crt_interlocked_exchange_pointer@UHINSTANCE__@@PEAX@@YAPEAUHINSTANCE__@@PEDSEAU0@QEAX@Z 000000018004f0b0 f i libvcruntimed:winapi_downlevel.obj
 0001:0004e0d0       ??$__crt_interlocked_exchange_pointer@XPEAX@@YAPEAXPEDSEAXQEAX@Z 000000018004f0d0 f i libvcruntimed:winapi_downlevel.obj
 0001:0004e0f0       ??$__crt_interlocked_read_pointer@UHINSTANCE__@@@@YAPEAUHINSTANCE__@@PEDSEAU0@@Z 000000018004f0f0 f i libvcruntimed:winapi_downlevel.obj
 0001:0004e110       ??$__crt_interlocked_read_pointer@X@@YAPEAXPEDSEAX@Z 000000018004f110 f i libvcruntimed:winapi_downlevel.obj
 0001:0004e620       __vcrt_FlsAlloc            000000018004f620 f   libvcruntimed:winapi_downlevel.obj
 0001:0004e670       __vcrt_FlsFree             000000018004f670 f   libvcruntimed:winapi_downlevel.obj
 0001:0004e6c0       __vcrt_FlsGetValue         000000018004f6c0 f   libvcruntimed:winapi_downlevel.obj
 0001:0004e710       __vcrt_FlsSetValue         000000018004f710 f   libvcruntimed:winapi_downlevel.obj
 0001:0004e770       __vcrt_InitializeCriticalSectionEx 000000018004f770 f   libvcruntimed:winapi_downlevel.obj
 0001:0004e7f0       _CallSettingFrame          000000018004f7f0 f   libvcruntimed:handlers.obj
 0001:0004e840       _CallSettingFrame_LookupContinuationIndex 000000018004f840 f   libvcruntimed:handlers.obj
 0001:0004e870       _CallSettingFrame_NotifyContinuationAddr 000000018004f870 f   libvcruntimed:handlers.obj
 0001:0004e8a0       _CallSettingFrameEncoded   000000018004f8a0 f   libvcruntimed:handlers.obj
 0001:0004e8f0       ??$?0AEBV?$stream_output_adapter@D@__crt_stdio_output@@AEB_KAEBQEBDAEBQEAU__crt_locale_pointers@@AEBQEAD@?$format_validation_base@DV?$stream_output_adapter@D@__crt_stdio_output@@@__crt_stdio_output@@IEAA@AEBV?$stream_output_adapter@D@1@AEB_KAEBQEBDAEBQEAU__crt_locale_pointers@@AEBQEAD@Z 000000018004f8f0 f i libucrtd:output.obj
 0001:0004e940       ??$?0AEBV?$stream_output_adapter@D@__crt_stdio_output@@AEB_KAEBQEBDAEBQEAU__crt_locale_pointers@@AEBQEAD@?$positional_parameter_base@DV?$stream_output_adapter@D@__crt_stdio_output@@@__crt_stdio_output@@IEAA@AEBV?$stream_output_adapter@D@1@AEB_KAEBQEBDAEBQEAU__crt_locale_pointers@@AEBQEAD@Z 000000018004f940 f i libucrtd:output.obj
 0001:0004e9e0       ??$?0AEBV?$stream_output_adapter@D@__crt_stdio_output@@AEB_KAEBQEBDAEBQEAU__crt_locale_pointers@@AEBQEAD@?$standard_base@DV?$stream_output_adapter@D@__crt_stdio_output@@@__crt_stdio_output@@IEAA@AEBV?$stream_output_adapter@D@1@AEB_KAEBQEBDAEBQEAU__crt_locale_pointers@@AEBQEAD@Z 000000018004f9e0 f i libucrtd:output.obj
 0001:0004ea50       ??$?0AEBV?$stream_output_adapter@_W@__crt_stdio_output@@AEB_KAEBQEB_WAEBQEAU__crt_locale_pointers@@AEBQEAD@?$format_validation_base@_WV?$stream_output_adapter@_W@__crt_stdio_output@@@__crt_stdio_output@@IEAA@AEBV?$stream_output_adapter@_W@1@AEB_KAEBQEB_WAEBQEAU__crt_locale_pointers@@AEBQEAD@Z 000000018004fa50 f i libucrtd:output.obj
 0001:0004eaa0       ??$?0AEBV?$stream_output_adapter@_W@__crt_stdio_output@@AEB_KAEBQEB_WAEBQEAU__crt_locale_pointers@@AEBQEAD@?$positional_parameter_base@_WV?$stream_output_adapter@_W@__crt_stdio_output@@@__crt_stdio_output@@IEAA@AEBV?$stream_output_adapter@_W@1@AEB_KAEBQEB_WAEBQEAU__crt_locale_pointers@@AEBQEAD@Z 000000018004faa0 f i libucrtd:output.obj
 0001:0004eb40       ??$?0AEBV?$stream_output_adapter@_W@__crt_stdio_output@@AEB_KAEBQEB_WAEBQEAU__crt_locale_pointers@@AEBQEAD@?$standard_base@_WV?$stream_output_adapter@_W@__crt_stdio_output@@@__crt_stdio_output@@IEAA@AEBV?$stream_output_adapter@_W@1@AEB_KAEBQEB_WAEBQEAU__crt_locale_pointers@@AEBQEAD@Z 000000018004fb40 f i libucrtd:output.obj
 0001:0004ebb0       ??$?0AEBV?$string_output_adapter@D@__crt_stdio_output@@AEB_KAEBQEBDAEBQEAU__crt_locale_pointers@@AEBQEAD@?$format_validation_base@DV?$string_output_adapter@D@__crt_stdio_output@@@__crt_stdio_output@@IEAA@AEBV?$string_output_adapter@D@1@AEB_KAEBQEBDAEBQEAU__crt_locale_pointers@@AEBQEAD@Z 000000018004fbb0 f i libucrtd:output.obj
 0001:0004ec00       ??$?0AEBV?$string_output_adapter@D@__crt_stdio_output@@AEB_KAEBQEBDAEBQEAU__crt_locale_pointers@@AEBQEAD@?$positional_parameter_base@DV?$string_output_adapter@D@__crt_stdio_output@@@__crt_stdio_output@@IEAA@AEBV?$string_output_adapter@D@1@AEB_KAEBQEBDAEBQEAU__crt_locale_pointers@@AEBQEAD@Z 000000018004fc00 f i libucrtd:output.obj
 0001:0004eca0       ??$?0AEBV?$string_output_adapter@D@__crt_stdio_output@@AEB_KAEBQEBDAEBQEAU__crt_locale_pointers@@AEBQEAD@?$standard_base@DV?$string_output_adapter@D@__crt_stdio_output@@@__crt_stdio_output@@IEAA@AEBV?$string_output_adapter@D@1@AEB_KAEBQEBDAEBQEAU__crt_locale_pointers@@AEBQEAD@Z 000000018004fca0 f i libucrtd:output.obj
 0001:0004ed10       ??$?0AEBV?$string_output_adapter@_W@__crt_stdio_output@@AEB_KAEBQEB_WAEBQEAU__crt_locale_pointers@@AEBQEAD@?$format_validation_base@_WV?$string_output_adapter@_W@__crt_stdio_output@@@__crt_stdio_output@@IEAA@AEBV?$string_output_adapter@_W@1@AEB_KAEBQEB_WAEBQEAU__crt_locale_pointers@@AEBQEAD@Z 000000018004fd10 f i libucrtd:output.obj
 0001:0004ed60       ??$?0AEBV?$string_output_adapter@_W@__crt_stdio_output@@AEB_KAEBQEB_WAEBQEAU__crt_locale_pointers@@AEBQEAD@?$positional_parameter_base@_WV?$string_output_adapter@_W@__crt_stdio_output@@@__crt_stdio_output@@IEAA@AEBV?$string_output_adapter@_W@1@AEB_KAEBQEB_WAEBQEAU__crt_locale_pointers@@AEBQEAD@Z 000000018004fd60 f i libucrtd:output.obj
 0001:0004ee00       ??$?0AEBV?$string_output_adapter@_W@__crt_stdio_output@@AEB_KAEBQEB_WAEBQEAU__crt_locale_pointers@@AEBQEAD@?$standard_base@_WV?$string_output_adapter@_W@__crt_stdio_output@@@__crt_stdio_output@@IEAA@AEBV?$string_output_adapter@_W@1@AEB_KAEBQEB_WAEBQEAU__crt_locale_pointers@@AEBQEAD@Z 000000018004fe00 f i libucrtd:output.obj
 0001:0004f230       ??$__crt_interlocked_read@J@@YAJPEDJ@Z 0000000180050230 f i libucrtd:output.obj
 0001:00052d10       ??$count@D@formatting_buffer@__crt_stdio_output@@QEBA_KXZ 0000000180053d10 f i libucrtd:output.obj
 0001:00052d60       ??$count@_W@formatting_buffer@__crt_stdio_output@@QEBA_KXZ 0000000180053d60 f i libucrtd:output.obj
 0001:00052db0       ??$data@D@formatting_buffer@__crt_stdio_output@@QEAAPEADXZ 0000000180053db0 f i libucrtd:output.obj
 0001:00052e00       ??$data@_W@formatting_buffer@__crt_stdio_output@@QEAAPEA_WXZ 0000000180053e00 f i libucrtd:output.obj
 0001:00052e50       ??$ensure_buffer_is_big_enough@D@formatting_buffer@__crt_stdio_output@@QEAA_N_K@Z 0000000180053e50 f i libucrtd:output.obj
 0001:00052f80       ??$ensure_buffer_is_big_enough@_W@formatting_buffer@__crt_stdio_output@@QEAA_N_K@Z 0000000180053f80 f i libucrtd:output.obj
 0001:000530b0       ??$extract_argument_from_va_list@C_J@?$positional_parameter_base@DV?$stream_output_adapter@D@__crt_stdio_output@@@__crt_stdio_output@@IEAA_NAEA_J@Z 00000001800540b0 f i libucrtd:output.obj
 0001:00053230       ??$extract_argument_from_va_list@C_J@?$positional_parameter_base@DV?$string_output_adapter@D@__crt_stdio_output@@@__crt_stdio_output@@IEAA_NAEA_J@Z 0000000180054230 f i libucrtd:output.obj
 0001:000533b0       ??$extract_argument_from_va_list@C_J@?$positional_parameter_base@_WV?$stream_output_adapter@_W@__crt_stdio_output@@@__crt_stdio_output@@IEAA_NAEA_J@Z 00000001800543b0 f i libucrtd:output.obj
 0001:00053530       ??$extract_argument_from_va_list@C_J@?$positional_parameter_base@_WV?$string_output_adapter@_W@__crt_stdio_output@@@__crt_stdio_output@@IEAA_NAEA_J@Z 0000000180054530 f i libucrtd:output.obj
 0001:000536b0       ??$extract_argument_from_va_list@C_J@?$standard_base@DV?$stream_output_adapter@D@__crt_stdio_output@@@__crt_stdio_output@@IEAA_NAEA_J@Z 00000001800546b0 f i libucrtd:output.obj
 0001:000536f0       ??$extract_argument_from_va_list@C_J@?$standard_base@DV?$string_output_adapter@D@__crt_stdio_output@@@__crt_stdio_output@@IEAA_NAEA_J@Z 00000001800546f0 f i libucrtd:output.obj
 0001:00053730       ??$extract_argument_from_va_list@C_J@?$standard_base@_WV?$stream_output_adapter@_W@__crt_stdio_output@@@__crt_stdio_output@@IEAA_NAEA_J@Z 0000000180054730 f i libucrtd:output.obj
 0001:00053770       ??$extract_argument_from_va_list@C_J@?$standard_base@_WV?$string_output_adapter@_W@__crt_stdio_output@@@__crt_stdio_output@@IEAA_NAEA_J@Z 0000000180054770 f i libucrtd:output.obj
 0001:000537b0       ??$extract_argument_from_va_list@E_J@?$positional_parameter_base@DV?$stream_output_adapter@D@__crt_stdio_output@@@__crt_stdio_output@@IEAA_NAEA_J@Z 00000001800547b0 f i libucrtd:output.obj
 0001:00053930       ??$extract_argument_from_va_list@E_J@?$positional_parameter_base@DV?$string_output_adapter@D@__crt_stdio_output@@@__crt_stdio_output@@IEAA_NAEA_J@Z 0000000180054930 f i libucrtd:output.obj
 0001:00053ab0       ??$extract_argument_from_va_list@E_J@?$positional_parameter_base@_WV?$stream_output_adapter@_W@__crt_stdio_output@@@__crt_stdio_output@@IEAA_NAEA_J@Z 0000000180054ab0 f i libucrtd:output.obj
 0001:00053c30       ??$extract_argument_from_va_list@E_J@?$positional_parameter_base@_WV?$string_output_adapter@_W@__crt_stdio_output@@@__crt_stdio_output@@IEAA_NAEA_J@Z 0000000180054c30 f i libucrtd:output.obj
 0001:00053db0       ??$extract_argument_from_va_list@E_J@?$standard_base@DV?$stream_output_adapter@D@__crt_stdio_output@@@__crt_stdio_output@@IEAA_NAEA_J@Z 0000000180054db0 f i libucrtd:output.obj
 0001:00053df0       ??$extract_argument_from_va_list@E_J@?$standard_base@DV?$string_output_adapter@D@__crt_stdio_output@@@__crt_stdio_output@@IEAA_NAEA_J@Z 0000000180054df0 f i libucrtd:output.obj
 0001:00053e30       ??$extract_argument_from_va_list@E_J@?$standard_base@_WV?$stream_output_adapter@_W@__crt_stdio_output@@@__crt_stdio_output@@IEAA_NAEA_J@Z 0000000180054e30 f i libucrtd:output.obj
 0001:00053e70       ??$extract_argument_from_va_list@E_J@?$standard_base@_WV?$string_output_adapter@_W@__crt_stdio_output@@@__crt_stdio_output@@IEAA_NAEA_J@Z 0000000180054e70 f i libucrtd:output.obj
 0001:00053eb0       ??$extract_argument_from_va_list@F_J@?$positional_parameter_base@DV?$stream_output_adapter@D@__crt_stdio_output@@@__crt_stdio_output@@IEAA_NAEA_J@Z 0000000180054eb0 f i libucrtd:output.obj
 0001:00054030       ??$extract_argument_from_va_list@F_J@?$positional_parameter_base@DV?$string_output_adapter@D@__crt_stdio_output@@@__crt_stdio_output@@IEAA_NAEA_J@Z 0000000180055030 f i libucrtd:output.obj
 0001:000541b0       ??$extract_argument_from_va_list@F_J@?$positional_parameter_base@_WV?$stream_output_adapter@_W@__crt_stdio_output@@@__crt_stdio_output@@IEAA_NAEA_J@Z 00000001800551b0 f i libucrtd:output.obj
 0001:00054330       ??$extract_argument_from_va_list@F_J@?$positional_parameter_base@_WV?$string_output_adapter@_W@__crt_stdio_output@@@__crt_stdio_output@@IEAA_NAEA_J@Z 0000000180055330 f i libucrtd:output.obj
 0001:000544b0       ??$extract_argument_from_va_list@F_J@?$standard_base@DV?$stream_output_adapter@D@__crt_stdio_output@@@__crt_stdio_output@@IEAA_NAEA_J@Z 00000001800554b0 f i libucrtd:output.obj
 0001:000544f0       ??$extract_argument_from_va_list@F_J@?$standard_base@DV?$string_output_adapter@D@__crt_stdio_output@@@__crt_stdio_output@@IEAA_NAEA_J@Z 00000001800554f0 f i libucrtd:output.obj
 0001:00054530       ??$extract_argument_from_va_list@F_J@?$standard_base@_WV?$stream_output_adapter@_W@__crt_stdio_output@@@__crt_stdio_output@@IEAA_NAEA_J@Z 0000000180055530 f i libucrtd:output.obj
 0001:00054570       ??$extract_argument_from_va_list@F_J@?$standard_base@_WV?$string_output_adapter@_W@__crt_stdio_output@@@__crt_stdio_output@@IEAA_NAEA_J@Z 0000000180055570 f i libucrtd:output.obj
 0001:000545b0       ??$extract_argument_from_va_list@GD@?$positional_parameter_base@DV?$stream_output_adapter@D@__crt_stdio_output@@@__crt_stdio_output@@IEAA_NAEAD@Z 00000001800555b0 f i libucrtd:output.obj
 0001:00054730       ??$extract_argument_from_va_list@GD@?$positional_parameter_base@DV?$string_output_adapter@D@__crt_stdio_output@@@__crt_stdio_output@@IEAA_NAEAD@Z 0000000180055730 f i libucrtd:output.obj
 0001:000548b0       ??$extract_argument_from_va_list@GD@?$standard_base@DV?$stream_output_adapter@D@__crt_stdio_output@@@__crt_stdio_output@@IEAA_NAEAD@Z 00000001800558b0 f i libucrtd:output.obj
 0001:000548e0       ??$extract_argument_from_va_list@GD@?$standard_base@DV?$string_output_adapter@D@__crt_stdio_output@@@__crt_stdio_output@@IEAA_NAEAD@Z 00000001800558e0 f i libucrtd:output.obj
 0001:00054910       ??$extract_argument_from_va_list@G_J@?$positional_parameter_base@DV?$stream_output_adapter@D@__crt_stdio_output@@@__crt_stdio_output@@IEAA_NAEA_J@Z 0000000180055910 f i libucrtd:output.obj
 0001:00054a90       ??$extract_argument_from_va_list@G_J@?$positional_parameter_base@DV?$string_output_adapter@D@__crt_stdio_output@@@__crt_stdio_output@@IEAA_NAEA_J@Z 0000000180055a90 f i libucrtd:output.obj
 0001:00054c10       ??$extract_argument_from_va_list@G_J@?$positional_parameter_base@_WV?$stream_output_adapter@_W@__crt_stdio_output@@@__crt_stdio_output@@IEAA_NAEA_J@Z 0000000180055c10 f i libucrtd:output.obj
 0001:00054d90       ??$extract_argument_from_va_list@G_J@?$positional_parameter_base@_WV?$string_output_adapter@_W@__crt_stdio_output@@@__crt_stdio_output@@IEAA_NAEA_J@Z 0000000180055d90 f i libucrtd:output.obj
 0001:00054f10       ??$extract_argument_from_va_list@G_J@?$standard_base@DV?$stream_output_adapter@D@__crt_stdio_output@@@__crt_stdio_output@@IEAA_NAEA_J@Z 0000000180055f10 f i libucrtd:output.obj
 0001:00054f50       ??$extract_argument_from_va_list@G_J@?$standard_base@DV?$string_output_adapter@D@__crt_stdio_output@@@__crt_stdio_output@@IEAA_NAEA_J@Z 0000000180055f50 f i libucrtd:output.obj
 0001:00054f90       ??$extract_argument_from_va_list@G_J@?$standard_base@_WV?$stream_output_adapter@_W@__crt_stdio_output@@@__crt_stdio_output@@IEAA_NAEA_J@Z 0000000180055f90 f i libucrtd:output.obj
 0001:00054fd0       ??$extract_argument_from_va_list@G_J@?$standard_base@_WV?$string_output_adapter@_W@__crt_stdio_output@@@__crt_stdio_output@@IEAA_NAEA_J@Z 0000000180055fd0 f i libucrtd:output.obj
 0001:00055010       ??$extract_argument_from_va_list@H_J@?$positional_parameter_base@DV?$stream_output_adapter@D@__crt_stdio_output@@@__crt_stdio_output@@IEAA_NAEA_J@Z 0000000180056010 f i libucrtd:output.obj
 0001:00055190       ??$extract_argument_from_va_list@H_J@?$positional_parameter_base@DV?$string_output_adapter@D@__crt_stdio_output@@@__crt_stdio_output@@IEAA_NAEA_J@Z 0000000180056190 f i libucrtd:output.obj
 0001:00055310       ??$extract_argument_from_va_list@H_J@?$positional_parameter_base@_WV?$stream_output_adapter@_W@__crt_stdio_output@@@__crt_stdio_output@@IEAA_NAEA_J@Z 0000000180056310 f i libucrtd:output.obj
 0001:00055490       ??$extract_argument_from_va_list@H_J@?$positional_parameter_base@_WV?$string_output_adapter@_W@__crt_stdio_output@@@__crt_stdio_output@@IEAA_NAEA_J@Z 0000000180056490 f i libucrtd:output.obj
 0001:00055610       ??$extract_argument_from_va_list@H_J@?$standard_base@DV?$stream_output_adapter@D@__crt_stdio_output@@@__crt_stdio_output@@IEAA_NAEA_J@Z 0000000180056610 f i libucrtd:output.obj
 0001:00055640       ??$extract_argument_from_va_list@H_J@?$standard_base@DV?$string_output_adapter@D@__crt_stdio_output@@@__crt_stdio_output@@IEAA_NAEA_J@Z 0000000180056640 f i libucrtd:output.obj
 0001:00055670       ??$extract_argument_from_va_list@H_J@?$standard_base@_WV?$stream_output_adapter@_W@__crt_stdio_output@@@__crt_stdio_output@@IEAA_NAEA_J@Z 0000000180056670 f i libucrtd:output.obj
 0001:000556a0       ??$extract_argument_from_va_list@H_J@?$standard_base@_WV?$string_output_adapter@_W@__crt_stdio_output@@@__crt_stdio_output@@IEAA_NAEA_J@Z 00000001800566a0 f i libucrtd:output.obj
 0001:000556d0       ??$extract_argument_from_va_list@I_J@?$positional_parameter_base@DV?$stream_output_adapter@D@__crt_stdio_output@@@__crt_stdio_output@@IEAA_NAEA_J@Z 00000001800566d0 f i libucrtd:output.obj
 0001:00055850       ??$extract_argument_from_va_list@I_J@?$positional_parameter_base@DV?$string_output_adapter@D@__crt_stdio_output@@@__crt_stdio_output@@IEAA_NAEA_J@Z 0000000180056850 f i libucrtd:output.obj
 0001:000559d0       ??$extract_argument_from_va_list@I_J@?$positional_parameter_base@_WV?$stream_output_adapter@_W@__crt_stdio_output@@@__crt_stdio_output@@IEAA_NAEA_J@Z 00000001800569d0 f i libucrtd:output.obj
 0001:00055b50       ??$extract_argument_from_va_list@I_J@?$positional_parameter_base@_WV?$string_output_adapter@_W@__crt_stdio_output@@@__crt_stdio_output@@IEAA_NAEA_J@Z 0000000180056b50 f i libucrtd:output.obj
 0001:00055cd0       ??$extract_argument_from_va_list@I_J@?$standard_base@DV?$stream_output_adapter@D@__crt_stdio_output@@@__crt_stdio_output@@IEAA_NAEA_J@Z 0000000180056cd0 f i libucrtd:output.obj
 0001:00055d00       ??$extract_argument_from_va_list@I_J@?$standard_base@DV?$string_output_adapter@D@__crt_stdio_output@@@__crt_stdio_output@@IEAA_NAEA_J@Z 0000000180056d00 f i libucrtd:output.obj
 0001:00055d30       ??$extract_argument_from_va_list@I_J@?$standard_base@_WV?$stream_output_adapter@_W@__crt_stdio_output@@@__crt_stdio_output@@IEAA_NAEA_J@Z 0000000180056d30 f i libucrtd:output.obj
 0001:00055d60       ??$extract_argument_from_va_list@I_J@?$standard_base@_WV?$string_output_adapter@_W@__crt_stdio_output@@@__crt_stdio_output@@IEAA_NAEA_J@Z 0000000180056d60 f i libucrtd:output.obj
 0001:00055d90       ??$extract_argument_from_va_list@PEADPEAD@?$positional_parameter_base@DV?$stream_output_adapter@D@__crt_stdio_output@@@__crt_stdio_output@@IEAA_NAEAPEAD@Z 0000000180056d90 f i libucrtd:output.obj
 0001:00055f10       ??$extract_argument_from_va_list@PEADPEAD@?$positional_parameter_base@DV?$string_output_adapter@D@__crt_stdio_output@@@__crt_stdio_output@@IEAA_NAEAPEAD@Z 0000000180056f10 f i libucrtd:output.obj
 0001:00056090       ??$extract_argument_from_va_list@PEADPEAD@?$positional_parameter_base@_WV?$stream_output_adapter@_W@__crt_stdio_output@@@__crt_stdio_output@@IEAA_NAEAPEAD@Z 0000000180057090 f i libucrtd:output.obj
 0001:00056210       ??$extract_argument_from_va_list@PEADPEAD@?$positional_parameter_base@_WV?$string_output_adapter@_W@__crt_stdio_output@@@__crt_stdio_output@@IEAA_NAEAPEAD@Z 0000000180057210 f i libucrtd:output.obj
 0001:00056390       ??$extract_argument_from_va_list@PEADPEAD@?$standard_base@DV?$stream_output_adapter@D@__crt_stdio_output@@@__crt_stdio_output@@IEAA_NAEAPEAD@Z 0000000180057390 f i libucrtd:output.obj
 0001:000563c0       ??$extract_argument_from_va_list@PEADPEAD@?$standard_base@DV?$string_output_adapter@D@__crt_stdio_output@@@__crt_stdio_output@@IEAA_NAEAPEAD@Z 00000001800573c0 f i libucrtd:output.obj
 0001:000563f0       ??$extract_argument_from_va_list@PEADPEAD@?$standard_base@_WV?$stream_output_adapter@_W@__crt_stdio_output@@@__crt_stdio_output@@IEAA_NAEAPEAD@Z 00000001800573f0 f i libucrtd:output.obj
 0001:00056420       ??$extract_argument_from_va_list@PEADPEAD@?$standard_base@_WV?$string_output_adapter@_W@__crt_stdio_output@@@__crt_stdio_output@@IEAA_NAEAPEAD@Z 0000000180057420 f i libucrtd:output.obj
 0001:00056c90       ??$extract_argument_from_va_list@PEAXPEAX@?$positional_parameter_base@DV?$stream_output_adapter@D@__crt_stdio_output@@@__crt_stdio_output@@IEAA_NAEAPEAX@Z 0000000180057c90 f i libucrtd:output.obj
 0001:00056e10       ??$extract_argument_from_va_list@PEAXPEAX@?$positional_parameter_base@DV?$string_output_adapter@D@__crt_stdio_output@@@__crt_stdio_output@@IEAA_NAEAPEAX@Z 0000000180057e10 f i libucrtd:output.obj
 0001:00056f90       ??$extract_argument_from_va_list@PEAXPEAX@?$positional_parameter_base@_WV?$stream_output_adapter@_W@__crt_stdio_output@@@__crt_stdio_output@@IEAA_NAEAPEAX@Z 0000000180057f90 f i libucrtd:output.obj
 0001:00057110       ??$extract_argument_from_va_list@PEAXPEAX@?$positional_parameter_base@_WV?$string_output_adapter@_W@__crt_stdio_output@@@__crt_stdio_output@@IEAA_NAEAPEAX@Z 0000000180058110 f i libucrtd:output.obj
 0001:00057290       ??$extract_argument_from_va_list@PEAXPEAX@?$standard_base@DV?$stream_output_adapter@D@__crt_stdio_output@@@__crt_stdio_output@@IEAA_NAEAPEAX@Z 0000000180058290 f i libucrtd:output.obj
 0001:000572c0       ??$extract_argument_from_va_list@PEAXPEAX@?$standard_base@DV?$string_output_adapter@D@__crt_stdio_output@@@__crt_stdio_output@@IEAA_NAEAPEAX@Z 00000001800582c0 f i libucrtd:output.obj
 0001:000572f0       ??$extract_argument_from_va_list@PEAXPEAX@?$standard_base@_WV?$stream_output_adapter@_W@__crt_stdio_output@@@__crt_stdio_output@@IEAA_NAEAPEAX@Z 00000001800582f0 f i libucrtd:output.obj
 0001:00057320       ??$extract_argument_from_va_list@PEAXPEAX@?$standard_base@_WV?$string_output_adapter@_W@__crt_stdio_output@@@__crt_stdio_output@@IEAA_NAEAPEAX@Z 0000000180058320 f i libucrtd:output.obj
 0001:00057350       ??$extract_argument_from_va_list@U_CRT_DOUBLE@@U1@@?$positional_parameter_base@DV?$stream_output_adapter@D@__crt_stdio_output@@@__crt_stdio_output@@IEAA_NAEAU_CRT_DOUBLE@@@Z 0000000180058350 f i libucrtd:output.obj
 0001:000574f0       ??$extract_argument_from_va_list@U_CRT_DOUBLE@@U1@@?$positional_parameter_base@DV?$string_output_adapter@D@__crt_stdio_output@@@__crt_stdio_output@@IEAA_NAEAU_CRT_DOUBLE@@@Z 00000001800584f0 f i libucrtd:output.obj
 0001:00057690       ??$extract_argument_from_va_list@U_CRT_DOUBLE@@U1@@?$positional_parameter_base@_WV?$stream_output_adapter@_W@__crt_stdio_output@@@__crt_stdio_output@@IEAA_NAEAU_CRT_DOUBLE@@@Z 0000000180058690 f i libucrtd:output.obj
 0001:00057830       ??$extract_argument_from_va_list@U_CRT_DOUBLE@@U1@@?$positional_parameter_base@_WV?$string_output_adapter@_W@__crt_stdio_output@@@__crt_stdio_output@@IEAA_NAEAU_CRT_DOUBLE@@@Z 0000000180058830 f i libucrtd:output.obj
 0001:000579d0       ??$extract_argument_from_va_list@U_CRT_DOUBLE@@U1@@?$standard_base@DV?$stream_output_adapter@D@__crt_stdio_output@@@__crt_stdio_output@@IEAA_NAEAU_CRT_DOUBLE@@@Z 00000001800589d0 f i libucrtd:output.obj
 0001:00057a20       ??$extract_argument_from_va_list@U_CRT_DOUBLE@@U1@@?$standard_base@DV?$string_output_adapter@D@__crt_stdio_output@@@__crt_stdio_output@@IEAA_NAEAU_CRT_DOUBLE@@@Z 0000000180058a20 f i libucrtd:output.obj
 0001:00057a70       ??$extract_argument_from_va_list@U_CRT_DOUBLE@@U1@@?$standard_base@_WV?$stream_output_adapter@_W@__crt_stdio_output@@@__crt_stdio_output@@IEAA_NAEAU_CRT_DOUBLE@@@Z 0000000180058a70 f i libucrtd:output.obj
 0001:00057ac0       ??$extract_argument_from_va_list@U_CRT_DOUBLE@@U1@@?$standard_base@_WV?$string_output_adapter@_W@__crt_stdio_output@@@__crt_stdio_output@@IEAA_NAEAU_CRT_DOUBLE@@@Z 0000000180058ac0 f i libucrtd:output.obj
 0001:00057b10       ??$extract_argument_from_va_list@_J_J@?$positional_parameter_base@DV?$stream_output_adapter@D@__crt_stdio_output@@@__crt_stdio_output@@IEAA_NAEA_J@Z 0000000180058b10 f i libucrtd:output.obj
 0001:00057c90       ??$extract_argument_from_va_list@_J_J@?$positional_parameter_base@DV?$string_output_adapter@D@__crt_stdio_output@@@__crt_stdio_output@@IEAA_NAEA_J@Z 0000000180058c90 f i libucrtd:output.obj
 0001:00057e10       ??$extract_argument_from_va_list@_J_J@?$positional_parameter_base@_WV?$stream_output_adapter@_W@__crt_stdio_output@@@__crt_stdio_output@@IEAA_NAEA_J@Z 0000000180058e10 f i libucrtd:output.obj
 0001:00057f90       ??$extract_argument_from_va_list@_J_J@?$positional_parameter_base@_WV?$string_output_adapter@_W@__crt_stdio_output@@@__crt_stdio_output@@IEAA_NAEA_J@Z 0000000180058f90 f i libucrtd:output.obj
 0001:00058110       ??$extract_argument_from_va_list@_J_J@?$standard_base@DV?$stream_output_adapter@D@__crt_stdio_output@@@__crt_stdio_output@@IEAA_NAEA_J@Z 0000000180059110 f i libucrtd:output.obj
 0001:00058140       ??$extract_argument_from_va_list@_J_J@?$standard_base@DV?$string_output_adapter@D@__crt_stdio_output@@@__crt_stdio_output@@IEAA_NAEA_J@Z 0000000180059140 f i libucrtd:output.obj
 0001:00058170       ??$extract_argument_from_va_list@_J_J@?$standard_base@_WV?$stream_output_adapter@_W@__crt_stdio_output@@@__crt_stdio_output@@IEAA_NAEA_J@Z 0000000180059170 f i libucrtd:output.obj
 0001:000581a0       ??$extract_argument_from_va_list@_J_J@?$standard_base@_WV?$string_output_adapter@_W@__crt_stdio_output@@@__crt_stdio_output@@IEAA_NAEA_J@Z 00000001800591a0 f i libucrtd:output.obj
 0001:000581d0       ??$extract_argument_from_va_list@_K_J@?$positional_parameter_base@DV?$stream_output_adapter@D@__crt_stdio_output@@@__crt_stdio_output@@IEAA_NAEA_J@Z 00000001800591d0 f i libucrtd:output.obj
 0001:00058350       ??$extract_argument_from_va_list@_K_J@?$positional_parameter_base@DV?$string_output_adapter@D@__crt_stdio_output@@@__crt_stdio_output@@IEAA_NAEA_J@Z 0000000180059350 f i libucrtd:output.obj
 0001:000584d0       ??$extract_argument_from_va_list@_K_J@?$positional_parameter_base@_WV?$stream_output_adapter@_W@__crt_stdio_output@@@__crt_stdio_output@@IEAA_NAEA_J@Z 00000001800594d0 f i libucrtd:output.obj
 0001:00058650       ??$extract_argument_from_va_list@_K_J@?$positional_parameter_base@_WV?$string_output_adapter@_W@__crt_stdio_output@@@__crt_stdio_output@@IEAA_NAEA_J@Z 0000000180059650 f i libucrtd:output.obj
 0001:000587d0       ??$extract_argument_from_va_list@_K_J@?$standard_base@DV?$stream_output_adapter@D@__crt_stdio_output@@@__crt_stdio_output@@IEAA_NAEA_J@Z 00000001800597d0 f i libucrtd:output.obj
 0001:00058800       ??$extract_argument_from_va_list@_K_J@?$standard_base@DV?$string_output_adapter@D@__crt_stdio_output@@@__crt_stdio_output@@IEAA_NAEA_J@Z 0000000180059800 f i libucrtd:output.obj
 0001:00058830       ??$extract_argument_from_va_list@_K_J@?$standard_base@_WV?$stream_output_adapter@_W@__crt_stdio_output@@@__crt_stdio_output@@IEAA_NAEA_J@Z 0000000180059830 f i libucrtd:output.obj
 0001:00058860       ??$extract_argument_from_va_list@_K_J@?$standard_base@_WV?$string_output_adapter@_W@__crt_stdio_output@@@__crt_stdio_output@@IEAA_NAEA_J@Z 0000000180059860 f i libucrtd:output.obj
 0001:00058890       ??$extract_argument_from_va_list@_W_W@?$positional_parameter_base@DV?$stream_output_adapter@D@__crt_stdio_output@@@__crt_stdio_output@@IEAA_NAEA_W@Z 0000000180059890 f i libucrtd:output.obj
 0001:00058a10       ??$extract_argument_from_va_list@_W_W@?$positional_parameter_base@DV?$string_output_adapter@D@__crt_stdio_output@@@__crt_stdio_output@@IEAA_NAEA_W@Z 0000000180059a10 f i libucrtd:output.obj
 0001:00058b90       ??$extract_argument_from_va_list@_W_W@?$positional_parameter_base@_WV?$stream_output_adapter@_W@__crt_stdio_output@@@__crt_stdio_output@@IEAA_NAEA_W@Z 0000000180059b90 f i libucrtd:output.obj
 0001:00058d10       ??$extract_argument_from_va_list@_W_W@?$positional_parameter_base@_WV?$string_output_adapter@_W@__crt_stdio_output@@@__crt_stdio_output@@IEAA_NAEA_W@Z 0000000180059d10 f i libucrtd:output.obj
 0001:00058e90       ??$extract_argument_from_va_list@_W_W@?$standard_base@DV?$stream_output_adapter@D@__crt_stdio_output@@@__crt_stdio_output@@IEAA_NAEA_W@Z 0000000180059e90 f i libucrtd:output.obj
 0001:00058ec0       ??$extract_argument_from_va_list@_W_W@?$standard_base@DV?$string_output_adapter@D@__crt_stdio_output@@@__crt_stdio_output@@IEAA_NAEA_W@Z 0000000180059ec0 f i libucrtd:output.obj
 0001:00058ef0       ??$extract_argument_from_va_list@_W_W@?$standard_base@_WV?$stream_output_adapter@_W@__crt_stdio_output@@@__crt_stdio_output@@IEAA_NAEA_W@Z 0000000180059ef0 f i libucrtd:output.obj
 0001:00058f20       ??$extract_argument_from_va_list@_W_W@?$standard_base@_WV?$string_output_adapter@_W@__crt_stdio_output@@@__crt_stdio_output@@IEAA_NAEA_W@Z 0000000180059f20 f i libucrtd:output.obj
 0001:00058f50       ??$get_parameter_type@D@?$positional_parameter_base@DV?$stream_output_adapter@D@__crt_stdio_output@@@__crt_stdio_output@@CA?AW4parameter_type@01@PEAD@Z 0000000180059f50 f i libucrtd:output.obj
 0001:00058f60       ??$get_parameter_type@D@?$positional_parameter_base@DV?$string_output_adapter@D@__crt_stdio_output@@@__crt_stdio_output@@CA?AW4parameter_type@01@PEAD@Z 0000000180059f60 f i libucrtd:output.obj
 0001:00058f70       ??$get_parameter_type@D@?$positional_parameter_base@_WV?$stream_output_adapter@_W@__crt_stdio_output@@@__crt_stdio_output@@CA?AW4parameter_type@01@PEAD@Z 0000000180059f70 f i libucrtd:output.obj
 0001:00058f80       ??$get_parameter_type@D@?$positional_parameter_base@_WV?$string_output_adapter@_W@__crt_stdio_output@@@__crt_stdio_output@@CA?AW4parameter_type@01@PEAD@Z 0000000180059f80 f i libucrtd:output.obj
 0001:00058fd0       ??$get_parameter_type@X@?$positional_parameter_base@DV?$stream_output_adapter@D@__crt_stdio_output@@@__crt_stdio_output@@CA?AW4parameter_type@01@PEAX@Z 0000000180059fd0 f i libucrtd:output.obj
 0001:00058fe0       ??$get_parameter_type@X@?$positional_parameter_base@DV?$string_output_adapter@D@__crt_stdio_output@@@__crt_stdio_output@@CA?AW4parameter_type@01@PEAX@Z 0000000180059fe0 f i libucrtd:output.obj
 0001:00058ff0       ??$get_parameter_type@X@?$positional_parameter_base@_WV?$stream_output_adapter@_W@__crt_stdio_output@@@__crt_stdio_output@@CA?AW4parameter_type@01@PEAX@Z 0000000180059ff0 f i libucrtd:output.obj
 0001:00059000       ??$get_parameter_type@X@?$positional_parameter_base@_WV?$string_output_adapter@_W@__crt_stdio_output@@@__crt_stdio_output@@CA?AW4parameter_type@01@PEAX@Z 000000018005a000 f i libucrtd:output.obj
 0001:00059010       ??$is_character_specifier@D@?$positional_parameter_base@DV?$stream_output_adapter@D@__crt_stdio_output@@@__crt_stdio_output@@CA_ND@Z 000000018005a010 f i libucrtd:output.obj
 0001:00059050       ??$is_character_specifier@D@?$positional_parameter_base@DV?$string_output_adapter@D@__crt_stdio_output@@@__crt_stdio_output@@CA_ND@Z 000000018005a050 f i libucrtd:output.obj
 0001:00059090       ??$is_character_specifier@_W@?$positional_parameter_base@_WV?$stream_output_adapter@_W@__crt_stdio_output@@@__crt_stdio_output@@CA_N_W@Z 000000018005a090 f i libucrtd:output.obj
 0001:000590d0       ??$is_character_specifier@_W@?$positional_parameter_base@_WV?$string_output_adapter@_W@__crt_stdio_output@@@__crt_stdio_output@@CA_N_W@Z 000000018005a0d0 f i libucrtd:output.obj
 0001:00059110       ??$is_integral_specifier@D@?$positional_parameter_base@DV?$stream_output_adapter@D@__crt_stdio_output@@@__crt_stdio_output@@CA_ND@Z 000000018005a110 f i libucrtd:output.obj
 0001:00059180       ??$is_integral_specifier@D@?$positional_parameter_base@DV?$string_output_adapter@D@__crt_stdio_output@@@__crt_stdio_output@@CA_ND@Z 000000018005a180 f i libucrtd:output.obj
 0001:000591f0       ??$is_integral_specifier@_W@?$positional_parameter_base@_WV?$stream_output_adapter@_W@__crt_stdio_output@@@__crt_stdio_output@@CA_N_W@Z 000000018005a1f0 f i libucrtd:output.obj
 0001:00059260       ??$is_integral_specifier@_W@?$positional_parameter_base@_WV?$string_output_adapter@_W@__crt_stdio_output@@@__crt_stdio_output@@CA_N_W@Z 000000018005a260 f i libucrtd:output.obj
 0001:000592d0       ??$is_pointer_specifier@D@?$positional_parameter_base@DV?$stream_output_adapter@D@__crt_stdio_output@@@__crt_stdio_output@@CA_ND@Z 000000018005a2d0 f i libucrtd:output.obj
 0001:00059300       ??$is_pointer_specifier@D@?$positional_parameter_base@DV?$string_output_adapter@D@__crt_stdio_output@@@__crt_stdio_output@@CA_ND@Z 000000018005a300 f i libucrtd:output.obj
 0001:00059330       ??$is_pointer_specifier@_W@?$positional_parameter_base@_WV?$stream_output_adapter@_W@__crt_stdio_output@@@__crt_stdio_output@@CA_N_W@Z 000000018005a330 f i libucrtd:output.obj
 0001:00059360       ??$is_pointer_specifier@_W@?$positional_parameter_base@_WV?$string_output_adapter@_W@__crt_stdio_output@@@__crt_stdio_output@@CA_N_W@Z 000000018005a360 f i libucrtd:output.obj
 0001:00059390       ??$is_string_specifier@D@?$positional_parameter_base@DV?$stream_output_adapter@D@__crt_stdio_output@@@__crt_stdio_output@@CA_ND@Z 000000018005a390 f i libucrtd:output.obj
 0001:000593d0       ??$is_string_specifier@D@?$positional_parameter_base@DV?$string_output_adapter@D@__crt_stdio_output@@@__crt_stdio_output@@CA_ND@Z 000000018005a3d0 f i libucrtd:output.obj
 0001:00059410       ??$is_string_specifier@_W@?$positional_parameter_base@_WV?$stream_output_adapter@_W@__crt_stdio_output@@@__crt_stdio_output@@CA_N_W@Z 000000018005a410 f i libucrtd:output.obj
 0001:00059450       ??$is_string_specifier@_W@?$positional_parameter_base@_WV?$string_output_adapter@_W@__crt_stdio_output@@@__crt_stdio_output@@CA_N_W@Z 000000018005a450 f i libucrtd:output.obj
 0001:00059490       ??$is_wide_character_specifier@D@__crt_stdio_output@@YA_N_KDW4length_modifier@0@@Z 000000018005a490 f i libucrtd:output.obj
 0001:00059530       ??$is_wide_character_specifier@_W@__crt_stdio_output@@YA_N_K_WW4length_modifier@0@@Z 000000018005a530 f i libucrtd:output.obj
 0001:00059600       ??$peek_va_arg@C@__crt_stdio_output@@YACPEAD@Z 000000018005a600 f i libucrtd:output.obj
 0001:00059660       ??$peek_va_arg@E@__crt_stdio_output@@YAEPEAD@Z 000000018005a660 f i libucrtd:output.obj
 0001:000596c0       ??$peek_va_arg@F@__crt_stdio_output@@YAFPEAD@Z 000000018005a6c0 f i libucrtd:output.obj
 0001:00059720       ??$peek_va_arg@G@__crt_stdio_output@@YAGPEAD@Z 000000018005a720 f i libucrtd:output.obj
 0001:00059780       ??$peek_va_arg@H@__crt_stdio_output@@YAHPEAD@Z 000000018005a780 f i libucrtd:output.obj
 0001:000597d0       ??$peek_va_arg@I@__crt_stdio_output@@YAIPEAD@Z 000000018005a7d0 f i libucrtd:output.obj
 0001:00059820       ??$peek_va_arg@PEAD@__crt_stdio_output@@YAPEADPEAD@Z 000000018005a820 f i libucrtd:output.obj
 0001:00059a00       ??$peek_va_arg@PEAX@__crt_stdio_output@@YAPEAXPEAD@Z 000000018005aa00 f i libucrtd:output.obj
 0001:00059a60       ??$peek_va_arg@U_CRT_DOUBLE@@@__crt_stdio_output@@YA?AU_CRT_DOUBLE@@PEAD@Z 000000018005aa60 f i libucrtd:output.obj
 0001:00059ac0       ??$peek_va_arg@_J@__crt_stdio_output@@YA_JPEAD@Z 000000018005aac0 f i libucrtd:output.obj
 0001:00059b20       ??$peek_va_arg@_K@__crt_stdio_output@@YA_KPEAD@Z 000000018005ab20 f i libucrtd:output.obj
 0001:00059b80       ??$peek_va_arg@_W@__crt_stdio_output@@YA_WPEAD@Z 000000018005ab80 f i libucrtd:output.obj
 0001:00059be0       ??$puttc_nolock@AEBDPEAU_iobuf@@@?$__crt_char_traits@D@@SAHAEBD$$QEAPEAU_iobuf@@@Z 000000018005abe0 f i libucrtd:output.obj
 0001:00059c10       ??$puttc_nolock@AEB_WPEAU_iobuf@@@?$__crt_char_traits@_W@@SAGAEB_W$$QEAPEAU_iobuf@@@Z 000000018005ac10 f i libucrtd:output.obj
 0001:00059c40       ??$read_va_arg@C@__crt_stdio_output@@YACAEAPEAD@Z 000000018005ac40 f i libucrtd:output.obj
 0001:00059cb0       ??$read_va_arg@E@__crt_stdio_output@@YAEAEAPEAD@Z 000000018005acb0 f i libucrtd:output.obj
 0001:00059d20       ??$read_va_arg@F@__crt_stdio_output@@YAFAEAPEAD@Z 000000018005ad20 f i libucrtd:output.obj
 0001:00059d90       ??$read_va_arg@G@__crt_stdio_output@@YAGAEAPEAD@Z 000000018005ad90 f i libucrtd:output.obj
 0001:00059e00       ??$read_va_arg@H@__crt_stdio_output@@YAHAEAPEAD@Z 000000018005ae00 f i libucrtd:output.obj
 0001:00059e60       ??$read_va_arg@I@__crt_stdio_output@@YAIAEAPEAD@Z 000000018005ae60 f i libucrtd:output.obj
 0001:00059ec0       ??$read_va_arg@PEAD@__crt_stdio_output@@YAPEADAEAPEAD@Z 000000018005aec0 f i libucrtd:output.obj
 0001:0005a470       ??$read_va_arg@PEAX@__crt_stdio_output@@YAPEAXAEAPEAD@Z 000000018005b470 f i libucrtd:output.obj
 0001:0005a4e0       ??$read_va_arg@U_CRT_DOUBLE@@@__crt_stdio_output@@YA?AU_CRT_DOUBLE@@AEAPEAD@Z 000000018005b4e0 f i libucrtd:output.obj
 0001:0005a550       ??$read_va_arg@_J@__crt_stdio_output@@YA_JAEAPEAD@Z 000000018005b550 f i libucrtd:output.obj
 0001:0005a5c0       ??$read_va_arg@_K@__crt_stdio_output@@YA_KAEAPEAD@Z 000000018005b5c0 f i libucrtd:output.obj
 0001:0005a630       ??$read_va_arg@_W@__crt_stdio_output@@YA_WAEAPEAD@Z 000000018005b630 f i libucrtd:output.obj
 0001:0005a6a0       ??$scratch_count@D@formatting_buffer@__crt_stdio_output@@QEBA_KXZ 000000018005b6a0 f i libucrtd:output.obj
 0001:0005a6c0       ??$scratch_data@D@formatting_buffer@__crt_stdio_output@@QEAAPEADXZ 000000018005b6c0 f i libucrtd:output.obj
 0001:0005a730       ??$tcstol@AEAPEBDPEAPEADH@?$__crt_char_traits@D@@SAJAEAPEBD$$QEAPEAPEAD$$QEAH@Z 000000018005b730 f i libucrtd:output.obj
 0001:0005a770       ??$tcstol@AEAPEB_WPEAPEA_WH@?$__crt_char_traits@_W@@SAJAEAPEB_W$$QEAPEAPEA_W$$QEAH@Z 000000018005b770 f i libucrtd:output.obj
 0001:0005a7b0       ??$tcstol@PEBDPEAPEADH@?$__crt_char_traits@D@@SAJ$$QEAPEBD$$QEAPEAPEAD$$QEAH@Z 000000018005b7b0 f i libucrtd:output.obj
 0001:0005a7f0       ??$tcstol@PEB_WPEAPEA_WH@?$__crt_char_traits@_W@@SAJ$$QEAPEB_W$$QEAPEAPEA_W$$QEAH@Z 000000018005b7f0 f i libucrtd:output.obj
 0001:0005a830       ??$type_case_integer_parse_into_buffer@I@?$output_processor@DV?$stream_output_adapter@D@__crt_stdio_output@@V?$format_validation_base@DV?$stream_output_adapter@D@__crt_stdio_output@@@2@@__crt_stdio_output@@AEAAXII_N@Z 000000018005b830 f i libucrtd:output.obj
 0001:0005a960       ??$type_case_integer_parse_into_buffer@I@?$output_processor@DV?$stream_output_adapter@D@__crt_stdio_output@@V?$positional_parameter_base@DV?$stream_output_adapter@D@__crt_stdio_output@@@2@@__crt_stdio_output@@AEAAXII_N@Z 000000018005b960 f i libucrtd:output.obj
 0001:0005aa90       ??$type_case_integer_parse_into_buffer@I@?$output_processor@DV?$stream_output_adapter@D@__crt_stdio_output@@V?$standard_base@DV?$stream_output_adapter@D@__crt_stdio_output@@@2@@__crt_stdio_output@@AEAAXII_N@Z 000000018005ba90 f i libucrtd:output.obj
 0001:0005abc0       ??$type_case_integer_parse_into_buffer@I@?$output_processor@DV?$string_output_adapter@D@__crt_stdio_output@@V?$format_validation_base@DV?$string_output_adapter@D@__crt_stdio_output@@@2@@__crt_stdio_output@@AEAAXII_N@Z 000000018005bbc0 f i libucrtd:output.obj
 0001:0005acf0       ??$type_case_integer_parse_into_buffer@I@?$output_processor@DV?$string_output_adapter@D@__crt_stdio_output@@V?$positional_parameter_base@DV?$string_output_adapter@D@__crt_stdio_output@@@2@@__crt_stdio_output@@AEAAXII_N@Z 000000018005bcf0 f i libucrtd:output.obj
 0001:0005ae20       ??$type_case_integer_parse_into_buffer@I@?$output_processor@DV?$string_output_adapter@D@__crt_stdio_output@@V?$standard_base@DV?$string_output_adapter@D@__crt_stdio_output@@@2@@__crt_stdio_output@@AEAAXII_N@Z 000000018005be20 f i libucrtd:output.obj
 0001:0005af50       ??$type_case_integer_parse_into_buffer@I@?$output_processor@_WV?$stream_output_adapter@_W@__crt_stdio_output@@V?$format_validation_base@_WV?$stream_output_adapter@_W@__crt_stdio_output@@@2@@__crt_stdio_output@@AEAAXII_N@Z 000000018005bf50 f i libucrtd:output.obj
 0001:0005b090       ??$type_case_integer_parse_into_buffer@I@?$output_processor@_WV?$stream_output_adapter@_W@__crt_stdio_output@@V?$positional_parameter_base@_WV?$stream_output_adapter@_W@__crt_stdio_output@@@2@@__crt_stdio_output@@AEAAXII_N@Z 000000018005c090 f i libucrtd:output.obj
 0001:0005b1d0       ??$type_case_integer_parse_into_buffer@I@?$output_processor@_WV?$stream_output_adapter@_W@__crt_stdio_output@@V?$standard_base@_WV?$stream_output_adapter@_W@__crt_stdio_output@@@2@@__crt_stdio_output@@AEAAXII_N@Z 000000018005c1d0 f i libucrtd:output.obj
 0001:0005b310       ??$type_case_integer_parse_into_buffer@I@?$output_processor@_WV?$string_output_adapter@_W@__crt_stdio_output@@V?$format_validation_base@_WV?$string_output_adapter@_W@__crt_stdio_output@@@2@@__crt_stdio_output@@AEAAXII_N@Z 000000018005c310 f i libucrtd:output.obj
 0001:0005b450       ??$type_case_integer_parse_into_buffer@I@?$output_processor@_WV?$string_output_adapter@_W@__crt_stdio_output@@V?$positional_parameter_base@_WV?$string_output_adapter@_W@__crt_stdio_output@@@2@@__crt_stdio_output@@AEAAXII_N@Z 000000018005c450 f i libucrtd:output.obj
 0001:0005b590       ??$type_case_integer_parse_into_buffer@I@?$output_processor@_WV?$string_output_adapter@_W@__crt_stdio_output@@V?$standard_base@_WV?$string_output_adapter@_W@__crt_stdio_output@@@2@@__crt_stdio_output@@AEAAXII_N@Z 000000018005c590 f i libucrtd:output.obj
 0001:0005b6d0       ??$type_case_integer_parse_into_buffer@_K@?$output_processor@DV?$stream_output_adapter@D@__crt_stdio_output@@V?$format_validation_base@DV?$stream_output_adapter@D@__crt_stdio_output@@@2@@__crt_stdio_output@@AEAAX_KI_N@Z 000000018005c6d0 f i libucrtd:output.obj
 0001:0005b820       ??$type_case_integer_parse_into_buffer@_K@?$output_processor@DV?$stream_output_adapter@D@__crt_stdio_output@@V?$positional_parameter_base@DV?$stream_output_adapter@D@__crt_stdio_output@@@2@@__crt_stdio_output@@AEAAX_KI_N@Z 000000018005c820 f i libucrtd:output.obj
 0001:0005b970       ??$type_case_integer_parse_into_buffer@_K@?$output_processor@DV?$stream_output_adapter@D@__crt_stdio_output@@V?$standard_base@DV?$stream_output_adapter@D@__crt_stdio_output@@@2@@__crt_stdio_output@@AEAAX_KI_N@Z 000000018005c970 f i libucrtd:output.obj
 0001:0005bac0       ??$type_case_integer_parse_into_buffer@_K@?$output_processor@DV?$string_output_adapter@D@__crt_stdio_output@@V?$format_validation_base@DV?$string_output_adapter@D@__crt_stdio_output@@@2@@__crt_stdio_output@@AEAAX_KI_N@Z 000000018005cac0 f i libucrtd:output.obj
 0001:0005bc10       ??$type_case_integer_parse_into_buffer@_K@?$output_processor@DV?$string_output_adapter@D@__crt_stdio_output@@V?$positional_parameter_base@DV?$string_output_adapter@D@__crt_stdio_output@@@2@@__crt_stdio_output@@AEAAX_KI_N@Z 000000018005cc10 f i libucrtd:output.obj
 0001:0005bd60       ??$type_case_integer_parse_into_buffer@_K@?$output_processor@DV?$string_output_adapter@D@__crt_stdio_output@@V?$standard_base@DV?$string_output_adapter@D@__crt_stdio_output@@@2@@__crt_stdio_output@@AEAAX_KI_N@Z 000000018005cd60 f i libucrtd:output.obj
 0001:0005beb0       ??$type_case_integer_parse_into_buffer@_K@?$output_processor@_WV?$stream_output_adapter@_W@__crt_stdio_output@@V?$format_validation_base@_WV?$stream_output_adapter@_W@__crt_stdio_output@@@2@@__crt_stdio_output@@AEAAX_KI_N@Z 000000018005ceb0 f i libucrtd:output.obj
 0001:0005c010       ??$type_case_integer_parse_into_buffer@_K@?$output_processor@_WV?$stream_output_adapter@_W@__crt_stdio_output@@V?$positional_parameter_base@_WV?$stream_output_adapter@_W@__crt_stdio_output@@@2@@__crt_stdio_output@@AEAAX_KI_N@Z 000000018005d010 f i libucrtd:output.obj
 0001:0005c170       ??$type_case_integer_parse_into_buffer@_K@?$output_processor@_WV?$stream_output_adapter@_W@__crt_stdio_output@@V?$standard_base@_WV?$stream_output_adapter@_W@__crt_stdio_output@@@2@@__crt_stdio_output@@AEAAX_KI_N@Z 000000018005d170 f i libucrtd:output.obj
 0001:0005c2d0       ??$type_case_integer_parse_into_buffer@_K@?$output_processor@_WV?$string_output_adapter@_W@__crt_stdio_output@@V?$format_validation_base@_WV?$string_output_adapter@_W@__crt_stdio_output@@@2@@__crt_stdio_output@@AEAAX_KI_N@Z 000000018005d2d0 f i libucrtd:output.obj
 0001:0005c430       ??$type_case_integer_parse_into_buffer@_K@?$output_processor@_WV?$string_output_adapter@_W@__crt_stdio_output@@V?$positional_parameter_base@_WV?$string_output_adapter@_W@__crt_stdio_output@@@2@@__crt_stdio_output@@AEAAX_KI_N@Z 000000018005d430 f i libucrtd:output.obj
 0001:0005c590       ??$type_case_integer_parse_into_buffer@_K@?$output_processor@_WV?$string_output_adapter@_W@__crt_stdio_output@@V?$standard_base@_WV?$string_output_adapter@_W@__crt_stdio_output@@@2@@__crt_stdio_output@@AEAAX_KI_N@Z 000000018005d590 f i libucrtd:output.obj
 0001:0005c6f0       ??$write_multiple_characters@V?$stream_output_adapter@D@__crt_stdio_output@@D@__crt_stdio_output@@YAXAEBV?$stream_output_adapter@D@0@DHQEAH@Z 000000018005d6f0 f i libucrtd:output.obj
 0001:0005c750       ??$write_multiple_characters@V?$stream_output_adapter@_W@__crt_stdio_output@@D@__crt_stdio_output@@YAXAEBV?$stream_output_adapter@_W@0@DHQEAH@Z 000000018005d750 f i libucrtd:output.obj
 0001:0005c7b0       ??$write_multiple_characters@V?$string_output_adapter@D@__crt_stdio_output@@D@__crt_stdio_output@@YAXAEBV?$string_output_adapter@D@0@DHQEAH@Z 000000018005d7b0 f i libucrtd:output.obj
 0001:0005c810       ??$write_multiple_characters@V?$string_output_adapter@_W@__crt_stdio_output@@D@__crt_stdio_output@@YAXAEBV?$string_output_adapter@_W@0@DHQEAH@Z 000000018005d810 f i libucrtd:output.obj
 0001:0005cc30       ??0?$common_data@D@__crt_stdio_output@@IEAA@XZ 000000018005dc30 f i libucrtd:output.obj
 0001:0005cd00       ??0?$common_data@_W@__crt_stdio_output@@IEAA@XZ 000000018005dd00 f i libucrtd:output.obj
 0001:0005cdd0       ??0?$output_adapter_data@DV?$stream_output_adapter@D@__crt_stdio_output@@@__crt_stdio_output@@IEAA@AEBV?$stream_output_adapter@D@1@_KQEBDQEAU__crt_locale_pointers@@QEAD@Z 000000018005ddd0 f i libucrtd:output.obj
 0001:0005ce50       ??0?$output_adapter_data@DV?$string_output_adapter@D@__crt_stdio_output@@@__crt_stdio_output@@IEAA@AEBV?$string_output_adapter@D@1@_KQEBDQEAU__crt_locale_pointers@@QEAD@Z 000000018005de50 f i libucrtd:output.obj
 0001:0005ced0       ??0?$output_adapter_data@_WV?$stream_output_adapter@_W@__crt_stdio_output@@@__crt_stdio_output@@IEAA@AEBV?$stream_output_adapter@_W@1@_KQEB_WQEAU__crt_locale_pointers@@QEAD@Z 000000018005ded0 f i libucrtd:output.obj
 0001:0005cf50       ??0?$output_adapter_data@_WV?$string_output_adapter@_W@__crt_stdio_output@@@__crt_stdio_output@@IEAA@AEBV?$string_output_adapter@_W@1@_KQEB_WQEAU__crt_locale_pointers@@QEAD@Z 000000018005df50 f i libucrtd:output.obj
 0001:0005cfd0       ??0?$output_processor@DV?$stream_output_adapter@D@__crt_stdio_output@@V?$format_validation_base@DV?$stream_output_adapter@D@__crt_stdio_output@@@2@@__crt_stdio_output@@QEAA@AEBV?$stream_output_adapter@D@1@_KQEBDQEAU__crt_locale_pointers@@QEAD@Z 000000018005dfd0 f i libucrtd:output.obj
 0001:0005d020       ??0?$output_processor@DV?$stream_output_adapter@D@__crt_stdio_output@@V?$positional_parameter_base@DV?$stream_output_adapter@D@__crt_stdio_output@@@2@@__crt_stdio_output@@QEAA@AEBV?$stream_output_adapter@D@1@_KQEBDQEAU__crt_locale_pointers@@QEAD@Z 000000018005e020 f i libucrtd:output.obj
 0001:0005d070       ??0?$output_processor@DV?$stream_output_adapter@D@__crt_stdio_output@@V?$standard_base@DV?$stream_output_adapter@D@__crt_stdio_output@@@2@@__crt_stdio_output@@QEAA@AEBV?$stream_output_adapter@D@1@_KQEBDQEAU__crt_locale_pointers@@QEAD@Z 000000018005e070 f i libucrtd:output.obj
 0001:0005d0c0       ??0?$output_processor@DV?$string_output_adapter@D@__crt_stdio_output@@V?$format_validation_base@DV?$string_output_adapter@D@__crt_stdio_output@@@2@@__crt_stdio_output@@QEAA@AEBV?$string_output_adapter@D@1@_KQEBDQEAU__crt_locale_pointers@@QEAD@Z 000000018005e0c0 f i libucrtd:output.obj
 0001:0005d110       ??0?$output_processor@DV?$string_output_adapter@D@__crt_stdio_output@@V?$positional_parameter_base@DV?$string_output_adapter@D@__crt_stdio_output@@@2@@__crt_stdio_output@@QEAA@AEBV?$string_output_adapter@D@1@_KQEBDQEAU__crt_locale_pointers@@QEAD@Z 000000018005e110 f i libucrtd:output.obj
 0001:0005d160       ??0?$output_processor@DV?$string_output_adapter@D@__crt_stdio_output@@V?$standard_base@DV?$string_output_adapter@D@__crt_stdio_output@@@2@@__crt_stdio_output@@QEAA@AEBV?$string_output_adapter@D@1@_KQEBDQEAU__crt_locale_pointers@@QEAD@Z 000000018005e160 f i libucrtd:output.obj
 0001:0005d1b0       ??0?$output_processor@_WV?$stream_output_adapter@_W@__crt_stdio_output@@V?$format_validation_base@_WV?$stream_output_adapter@_W@__crt_stdio_output@@@2@@__crt_stdio_output@@QEAA@AEBV?$stream_output_adapter@_W@1@_KQEB_WQEAU__crt_locale_pointers@@QEAD@Z 000000018005e1b0 f i libucrtd:output.obj
 0001:0005d200       ??0?$output_processor@_WV?$stream_output_adapter@_W@__crt_stdio_output@@V?$positional_parameter_base@_WV?$stream_output_adapter@_W@__crt_stdio_output@@@2@@__crt_stdio_output@@QEAA@AEBV?$stream_output_adapter@_W@1@_KQEB_WQEAU__crt_locale_pointers@@QEAD@Z 000000018005e200 f i libucrtd:output.obj
 0001:0005d250       ??0?$output_processor@_WV?$stream_output_adapter@_W@__crt_stdio_output@@V?$standard_base@_WV?$stream_output_adapter@_W@__crt_stdio_output@@@2@@__crt_stdio_output@@QEAA@AEBV?$stream_output_adapter@_W@1@_KQEB_WQEAU__crt_locale_pointers@@QEAD@Z 000000018005e250 f i libucrtd:output.obj
 0001:0005d2a0       ??0?$output_processor@_WV?$string_output_adapter@_W@__crt_stdio_output@@V?$format_validation_base@_WV?$string_output_adapter@_W@__crt_stdio_output@@@2@@__crt_stdio_output@@QEAA@AEBV?$string_output_adapter@_W@1@_KQEB_WQEAU__crt_locale_pointers@@QEAD@Z 000000018005e2a0 f i libucrtd:output.obj
 0001:0005d2f0       ??0?$output_processor@_WV?$string_output_adapter@_W@__crt_stdio_output@@V?$positional_parameter_base@_WV?$string_output_adapter@_W@__crt_stdio_output@@@2@@__crt_stdio_output@@QEAA@AEBV?$string_output_adapter@_W@1@_KQEB_WQEAU__crt_locale_pointers@@QEAD@Z 000000018005e2f0 f i libucrtd:output.obj
 0001:0005d340       ??0?$output_processor@_WV?$string_output_adapter@_W@__crt_stdio_output@@V?$standard_base@_WV?$string_output_adapter@_W@__crt_stdio_output@@@2@@__crt_stdio_output@@QEAA@AEBV?$string_output_adapter@_W@1@_KQEB_WQEAU__crt_locale_pointers@@QEAD@Z 000000018005e340 f i libucrtd:output.obj
 0001:0005d390       ??0?$stream_output_adapter@D@__crt_stdio_output@@QEAA@QEAU_iobuf@@@Z 000000018005e390 f i libucrtd:output.obj
 0001:0005d3c0       ??0?$stream_output_adapter@_W@__crt_stdio_output@@QEAA@QEAU_iobuf@@@Z 000000018005e3c0 f i libucrtd:output.obj
 0001:0005d3f0       ??0?$string_output_adapter@D@__crt_stdio_output@@QEAA@QEAU?$string_output_adapter_context@D@1@@Z 000000018005e3f0 f i libucrtd:output.obj
 0001:0005d410       ??0?$string_output_adapter@_W@__crt_stdio_output@@QEAA@QEAU?$string_output_adapter_context@_W@1@@Z 000000018005e410 f i libucrtd:output.obj
 0001:0005d430       ??0_LocaleUpdate@@QEAA@QEAU__crt_locale_pointers@@@Z 000000018005e430 f i libucrtd:output.obj
 0001:0005d550       ??0__acrt_stdio_temporary_buffering_guard@@QEAA@QEAU_iobuf@@@Z 000000018005e550 f i libucrtd:output.obj
 0001:0005d590       ??0__crt_deferred_errno_cache@@QEAA@XZ 000000018005e590 f i libucrtd:output.obj
 0001:0005d5b0       ??0__crt_errno_guard@@QEAA@QEAH@Z 000000018005e5b0 f i libucrtd:output.obj
 0001:0005d5f0       ??0__crt_stdio_stream@@QEAA@QEAU_iobuf@@@Z 000000018005e5f0 f i libucrtd:output.obj
 0001:0005d610       ??0formatting_buffer@__crt_stdio_output@@QEAA@XZ 000000018005e610 f i libucrtd:output.obj
 0001:0005d650       ??1?$common_data@D@__crt_stdio_output@@QEAA@XZ 000000018005e650 f i libucrtd:output.obj
 0001:0005d670       ??1?$common_data@_W@__crt_stdio_output@@QEAA@XZ 000000018005e670 f i libucrtd:output.obj
 0001:0005d690       ??1?$format_validation_base@DV?$stream_output_adapter@D@__crt_stdio_output@@@__crt_stdio_output@@QEAA@XZ 000000018005e690 f i libucrtd:output.obj
 0001:0005d6b0       ??1?$format_validation_base@DV?$string_output_adapter@D@__crt_stdio_output@@@__crt_stdio_output@@QEAA@XZ 000000018005e6b0 f i libucrtd:output.obj
 0001:0005d6d0       ??1?$format_validation_base@_WV?$stream_output_adapter@_W@__crt_stdio_output@@@__crt_stdio_output@@QEAA@XZ 000000018005e6d0 f i libucrtd:output.obj
 0001:0005d6f0       ??1?$format_validation_base@_WV?$string_output_adapter@_W@__crt_stdio_output@@@__crt_stdio_output@@QEAA@XZ 000000018005e6f0 f i libucrtd:output.obj
 0001:0005d710       ??1?$output_adapter_data@DV?$stream_output_adapter@D@__crt_stdio_output@@@__crt_stdio_output@@QEAA@XZ 000000018005e710 f i libucrtd:output.obj
 0001:0005d730       ??1?$output_adapter_data@DV?$string_output_adapter@D@__crt_stdio_output@@@__crt_stdio_output@@QEAA@XZ 000000018005e730 f i libucrtd:output.obj
 0001:0005d750       ??1?$output_adapter_data@_WV?$stream_output_adapter@_W@__crt_stdio_output@@@__crt_stdio_output@@QEAA@XZ 000000018005e750 f i libucrtd:output.obj
 0001:0005d770       ??1?$output_adapter_data@_WV?$string_output_adapter@_W@__crt_stdio_output@@@__crt_stdio_output@@QEAA@XZ 000000018005e770 f i libucrtd:output.obj
 0001:0005d790       ??1?$output_processor@DV?$stream_output_adapter@D@__crt_stdio_output@@V?$format_validation_base@DV?$stream_output_adapter@D@__crt_stdio_output@@@2@@__crt_stdio_output@@QEAA@XZ 000000018005e790 f i libucrtd:output.obj
 0001:0005d7b0       ??1?$output_processor@DV?$stream_output_adapter@D@__crt_stdio_output@@V?$positional_parameter_base@DV?$stream_output_adapter@D@__crt_stdio_output@@@2@@__crt_stdio_output@@QEAA@XZ 000000018005e7b0 f i libucrtd:output.obj
 0001:0005d7d0       ??1?$output_processor@DV?$stream_output_adapter@D@__crt_stdio_output@@V?$standard_base@DV?$stream_output_adapter@D@__crt_stdio_output@@@2@@__crt_stdio_output@@QEAA@XZ 000000018005e7d0 f i libucrtd:output.obj
 0001:0005d7f0       ??1?$output_processor@DV?$string_output_adapter@D@__crt_stdio_output@@V?$format_validation_base@DV?$string_output_adapter@D@__crt_stdio_output@@@2@@__crt_stdio_output@@QEAA@XZ 000000018005e7f0 f i libucrtd:output.obj
 0001:0005d810       ??1?$output_processor@DV?$string_output_adapter@D@__crt_stdio_output@@V?$positional_parameter_base@DV?$string_output_adapter@D@__crt_stdio_output@@@2@@__crt_stdio_output@@QEAA@XZ 000000018005e810 f i libucrtd:output.obj
 0001:0005d830       ??1?$output_processor@DV?$string_output_adapter@D@__crt_stdio_output@@V?$standard_base@DV?$string_output_adapter@D@__crt_stdio_output@@@2@@__crt_stdio_output@@QEAA@XZ 000000018005e830 f i libucrtd:output.obj
 0001:0005d850       ??1?$output_processor@_WV?$stream_output_adapter@_W@__crt_stdio_output@@V?$format_validation_base@_WV?$stream_output_adapter@_W@__crt_stdio_output@@@2@@__crt_stdio_output@@QEAA@XZ 000000018005e850 f i libucrtd:output.obj
 0001:0005d870       ??1?$output_processor@_WV?$stream_output_adapter@_W@__crt_stdio_output@@V?$positional_parameter_base@_WV?$stream_output_adapter@_W@__crt_stdio_output@@@2@@__crt_stdio_output@@QEAA@XZ 000000018005e870 f i libucrtd:output.obj
 0001:0005d890       ??1?$output_processor@_WV?$stream_output_adapter@_W@__crt_stdio_output@@V?$standard_base@_WV?$stream_output_adapter@_W@__crt_stdio_output@@@2@@__crt_stdio_output@@QEAA@XZ 000000018005e890 f i libucrtd:output.obj
 0001:0005d8b0       ??1?$output_processor@_WV?$string_output_adapter@_W@__crt_stdio_output@@V?$format_validation_base@_WV?$string_output_adapter@_W@__crt_stdio_output@@@2@@__crt_stdio_output@@QEAA@XZ 000000018005e8b0 f i libucrtd:output.obj
 0001:0005d8d0       ??1?$output_processor@_WV?$string_output_adapter@_W@__crt_stdio_output@@V?$positional_parameter_base@_WV?$string_output_adapter@_W@__crt_stdio_output@@@2@@__crt_stdio_output@@QEAA@XZ 000000018005e8d0 f i libucrtd:output.obj
 0001:0005d8f0       ??1?$output_processor@_WV?$string_output_adapter@_W@__crt_stdio_output@@V?$standard_base@_WV?$string_output_adapter@_W@__crt_stdio_output@@@2@@__crt_stdio_output@@QEAA@XZ 000000018005e8f0 f i libucrtd:output.obj
 0001:0005d910       ??1?$positional_parameter_base@DV?$stream_output_adapter@D@__crt_stdio_output@@@__crt_stdio_output@@QEAA@XZ 000000018005e910 f i libucrtd:output.obj
 0001:0005d930       ??1?$positional_parameter_base@DV?$string_output_adapter@D@__crt_stdio_output@@@__crt_stdio_output@@QEAA@XZ 000000018005e930 f i libucrtd:output.obj
 0001:0005d950       ??1?$positional_parameter_base@_WV?$stream_output_adapter@_W@__crt_stdio_output@@@__crt_stdio_output@@QEAA@XZ 000000018005e950 f i libucrtd:output.obj
 0001:0005d970       ??1?$positional_parameter_base@_WV?$string_output_adapter@_W@__crt_stdio_output@@@__crt_stdio_output@@QEAA@XZ 000000018005e970 f i libucrtd:output.obj
 0001:0005d990       ??1?$standard_base@DV?$stream_output_adapter@D@__crt_stdio_output@@@__crt_stdio_output@@QEAA@XZ 000000018005e990 f i libucrtd:output.obj
 0001:0005d9b0       ??1?$standard_base@DV?$string_output_adapter@D@__crt_stdio_output@@@__crt_stdio_output@@QEAA@XZ 000000018005e9b0 f i libucrtd:output.obj
 0001:0005d9d0       ??1?$standard_base@_WV?$stream_output_adapter@_W@__crt_stdio_output@@@__crt_stdio_output@@QEAA@XZ 000000018005e9d0 f i libucrtd:output.obj
 0001:0005d9f0       ??1?$standard_base@_WV?$string_output_adapter@_W@__crt_stdio_output@@@__crt_stdio_output@@QEAA@XZ 000000018005e9f0 f i libucrtd:output.obj
 0001:0005da10       ??1_LocaleUpdate@@QEAA@XZ  000000018005ea10 f i libucrtd:output.obj
 0001:0005da50       ??1__acrt_stdio_temporary_buffering_guard@@QEAA@XZ 000000018005ea50 f i libucrtd:output.obj
 0001:0005da80       ??1__crt_errno_guard@@QEAA@XZ 000000018005ea80 f i libucrtd:output.obj
 0001:0005dab0       ??1formatting_buffer@__crt_stdio_output@@QEAA@XZ 000000018005eab0 f i libucrtd:output.obj
 0001:0005dae0       ??4?$__crt_unique_heap_ptr@DU__crt_internal_free_policy@@@@QEAAAEAV0@$$QEAV0@@Z 000000018005eae0 f i libucrtd:output.obj
 0001:0005db20       ??C__crt_stdio_stream@@QEBAPEAU__crt_stdio_stream_data@@XZ 000000018005eb20 f i libucrtd:output.obj
 0001:0005e3d0       ?GetLocaleT@_LocaleUpdate@@QEAAPEAU__crt_locale_pointers@@XZ 000000018005f3d0 f i libucrtd:output.obj
 0001:0005e3e0       ?__crt_interlocked_read_32@@YAHPEDH@Z 000000018005f3e0 f i libucrtd:output.obj
 0001:0005e400       ?adjust_hexit@?$output_processor@DV?$stream_output_adapter@D@__crt_stdio_output@@V?$format_validation_base@DV?$stream_output_adapter@D@__crt_stdio_output@@@2@@__crt_stdio_output@@CADH_N@Z 000000018005f400 f i libucrtd:output.obj
 0001:0005e450       ?adjust_hexit@?$output_processor@DV?$stream_output_adapter@D@__crt_stdio_output@@V?$positional_parameter_base@DV?$stream_output_adapter@D@__crt_stdio_output@@@2@@__crt_stdio_output@@CADH_N@Z 000000018005f450 f i libucrtd:output.obj
 0001:0005e4a0       ?adjust_hexit@?$output_processor@DV?$stream_output_adapter@D@__crt_stdio_output@@V?$standard_base@DV?$stream_output_adapter@D@__crt_stdio_output@@@2@@__crt_stdio_output@@CADH_N@Z 000000018005f4a0 f i libucrtd:output.obj
 0001:0005e4f0       ?adjust_hexit@?$output_processor@DV?$string_output_adapter@D@__crt_stdio_output@@V?$format_validation_base@DV?$string_output_adapter@D@__crt_stdio_output@@@2@@__crt_stdio_output@@CADH_N@Z 000000018005f4f0 f i libucrtd:output.obj
 0001:0005e540       ?adjust_hexit@?$output_processor@DV?$string_output_adapter@D@__crt_stdio_output@@V?$positional_parameter_base@DV?$string_output_adapter@D@__crt_stdio_output@@@2@@__crt_stdio_output@@CADH_N@Z 000000018005f540 f i libucrtd:output.obj
 0001:0005e590       ?adjust_hexit@?$output_processor@DV?$string_output_adapter@D@__crt_stdio_output@@V?$standard_base@DV?$string_output_adapter@D@__crt_stdio_output@@@2@@__crt_stdio_output@@CADH_N@Z 000000018005f590 f i libucrtd:output.obj
 0001:0005e5e0       ?adjust_hexit@?$output_processor@_WV?$stream_output_adapter@_W@__crt_stdio_output@@V?$format_validation_base@_WV?$stream_output_adapter@_W@__crt_stdio_output@@@2@@__crt_stdio_output@@CADH_N@Z 000000018005f5e0 f i libucrtd:output.obj
 0001:0005e630       ?adjust_hexit@?$output_processor@_WV?$stream_output_adapter@_W@__crt_stdio_output@@V?$positional_parameter_base@_WV?$stream_output_adapter@_W@__crt_stdio_output@@@2@@__crt_stdio_output@@CADH_N@Z 000000018005f630 f i libucrtd:output.obj
 0001:0005e680       ?adjust_hexit@?$output_processor@_WV?$stream_output_adapter@_W@__crt_stdio_output@@V?$standard_base@_WV?$stream_output_adapter@_W@__crt_stdio_output@@@2@@__crt_stdio_output@@CADH_N@Z 000000018005f680 f i libucrtd:output.obj
 0001:0005e6d0       ?adjust_hexit@?$output_processor@_WV?$string_output_adapter@_W@__crt_stdio_output@@V?$format_validation_base@_WV?$string_output_adapter@_W@__crt_stdio_output@@@2@@__crt_stdio_output@@CADH_N@Z 000000018005f6d0 f i libucrtd:output.obj
 0001:0005e720       ?adjust_hexit@?$output_processor@_WV?$string_output_adapter@_W@__crt_stdio_output@@V?$positional_parameter_base@_WV?$string_output_adapter@_W@__crt_stdio_output@@@2@@__crt_stdio_output@@CADH_N@Z 000000018005f720 f i libucrtd:output.obj
 0001:0005e770       ?adjust_hexit@?$output_processor@_WV?$string_output_adapter@_W@__crt_stdio_output@@V?$standard_base@_WV?$string_output_adapter@_W@__crt_stdio_output@@@2@@__crt_stdio_output@@CADH_N@Z 000000018005f770 f i libucrtd:output.obj
 0001:0005e7c0       ?advance_to_next_pass@?$positional_parameter_base@DV?$stream_output_adapter@D@__crt_stdio_output@@@__crt_stdio_output@@IEAA_NXZ 000000018005f7c0 f i libucrtd:output.obj
 0001:0005e870       ?advance_to_next_pass@?$positional_parameter_base@DV?$string_output_adapter@D@__crt_stdio_output@@@__crt_stdio_output@@IEAA_NXZ 000000018005f870 f i libucrtd:output.obj
 0001:0005e920       ?advance_to_next_pass@?$positional_parameter_base@_WV?$stream_output_adapter@_W@__crt_stdio_output@@@__crt_stdio_output@@IEAA_NXZ 000000018005f920 f i libucrtd:output.obj
 0001:0005e9d0       ?advance_to_next_pass@?$positional_parameter_base@_WV?$string_output_adapter@_W@__crt_stdio_output@@@__crt_stdio_output@@IEAA_NXZ 000000018005f9d0 f i libucrtd:output.obj
 0001:0005ea80       ?advance_to_next_pass@?$standard_base@DV?$stream_output_adapter@D@__crt_stdio_output@@@__crt_stdio_output@@IEAA_NXZ 000000018005fa80 f i libucrtd:output.obj
 0001:0005ead0       ?advance_to_next_pass@?$standard_base@DV?$string_output_adapter@D@__crt_stdio_output@@@__crt_stdio_output@@IEAA_NXZ 000000018005fad0 f i libucrtd:output.obj
 0001:0005eb20       ?advance_to_next_pass@?$standard_base@_WV?$stream_output_adapter@_W@__crt_stdio_output@@@__crt_stdio_output@@IEAA_NXZ 000000018005fb20 f i libucrtd:output.obj
 0001:0005eb70       ?advance_to_next_pass@?$standard_base@_WV?$string_output_adapter@_W@__crt_stdio_output@@@__crt_stdio_output@@IEAA_NXZ 000000018005fb70 f i libucrtd:output.obj
 0001:0005ebc0       ?crop_zeroes@__crt_stdio_output@@YAXPEADQEAU__crt_locale_pointers@@@Z 000000018005fbc0 f i libucrtd:output.obj
 0001:0005ed00       ?find_next_state@?$output_processor@DV?$stream_output_adapter@D@__crt_stdio_output@@V?$format_validation_base@DV?$stream_output_adapter@D@__crt_stdio_output@@@2@@__crt_stdio_output@@AEBA?AW4state@2@DW432@@Z 000000018005fd00 f i libucrtd:output.obj
 0001:0005eda0       ?find_next_state@?$output_processor@DV?$stream_output_adapter@D@__crt_stdio_output@@V?$positional_parameter_base@DV?$stream_output_adapter@D@__crt_stdio_output@@@2@@__crt_stdio_output@@AEBA?AW4state@2@DW432@@Z 000000018005fda0 f i libucrtd:output.obj
 0001:0005ee40       ?find_next_state@?$output_processor@DV?$stream_output_adapter@D@__crt_stdio_output@@V?$standard_base@DV?$stream_output_adapter@D@__crt_stdio_output@@@2@@__crt_stdio_output@@AEBA?AW4state@2@DW432@@Z 000000018005fe40 f i libucrtd:output.obj
 0001:0005eee0       ?find_next_state@?$output_processor@DV?$string_output_adapter@D@__crt_stdio_output@@V?$format_validation_base@DV?$string_output_adapter@D@__crt_stdio_output@@@2@@__crt_stdio_output@@AEBA?AW4state@2@DW432@@Z 000000018005fee0 f i libucrtd:output.obj
 0001:0005ef80       ?find_next_state@?$output_processor@DV?$string_output_adapter@D@__crt_stdio_output@@V?$positional_parameter_base@DV?$string_output_adapter@D@__crt_stdio_output@@@2@@__crt_stdio_output@@AEBA?AW4state@2@DW432@@Z 000000018005ff80 f i libucrtd:output.obj
 0001:0005f020       ?find_next_state@?$output_processor@DV?$string_output_adapter@D@__crt_stdio_output@@V?$standard_base@DV?$string_output_adapter@D@__crt_stdio_output@@@2@@__crt_stdio_output@@AEBA?AW4state@2@DW432@@Z 0000000180060020 f i libucrtd:output.obj
 0001:0005f0c0       ?find_next_state@?$output_processor@_WV?$stream_output_adapter@_W@__crt_stdio_output@@V?$format_validation_base@_WV?$stream_output_adapter@_W@__crt_stdio_output@@@2@@__crt_stdio_output@@AEBA?AW4state@2@_WW432@@Z 00000001800600c0 f i libucrtd:output.obj
 0001:0005f160       ?find_next_state@?$output_processor@_WV?$stream_output_adapter@_W@__crt_stdio_output@@V?$positional_parameter_base@_WV?$stream_output_adapter@_W@__crt_stdio_output@@@2@@__crt_stdio_output@@AEBA?AW4state@2@_WW432@@Z 0000000180060160 f i libucrtd:output.obj
 0001:0005f200       ?find_next_state@?$output_processor@_WV?$stream_output_adapter@_W@__crt_stdio_output@@V?$standard_base@_WV?$stream_output_adapter@_W@__crt_stdio_output@@@2@@__crt_stdio_output@@AEBA?AW4state@2@_WW432@@Z 0000000180060200 f i libucrtd:output.obj
 0001:0005f2a0       ?find_next_state@?$output_processor@_WV?$string_output_adapter@_W@__crt_stdio_output@@V?$format_validation_base@_WV?$string_output_adapter@_W@__crt_stdio_output@@@2@@__crt_stdio_output@@AEBA?AW4state@2@_WW432@@Z 00000001800602a0 f i libucrtd:output.obj
 0001:0005f340       ?find_next_state@?$output_processor@_WV?$string_output_adapter@_W@__crt_stdio_output@@V?$positional_parameter_base@_WV?$string_output_adapter@_W@__crt_stdio_output@@@2@@__crt_stdio_output@@AEBA?AW4state@2@_WW432@@Z 0000000180060340 f i libucrtd:output.obj
 0001:0005f3e0       ?find_next_state@?$output_processor@_WV?$string_output_adapter@_W@__crt_stdio_output@@V?$standard_base@_WV?$string_output_adapter@_W@__crt_stdio_output@@@2@@__crt_stdio_output@@AEBA?AW4state@2@_WW432@@Z 00000001800603e0 f i libucrtd:output.obj
 0001:0005f480       ?force_decimal_point@__crt_stdio_output@@YAXPEADQEAU__crt_locale_pointers@@@Z 0000000180060480 f i libucrtd:output.obj
 0001:0005f580       ?get@__crt_deferred_errno_cache@@QEAAAEAHXZ 0000000180060580 f i libucrtd:output.obj
 0001:0005f5b0       ?get_flags@__crt_stdio_stream@@QEBAJXZ 00000001800605b0 f i libucrtd:output.obj
 0001:0005f5e0       ?get_parameter_type@?$positional_parameter_base@DV?$stream_output_adapter@D@__crt_stdio_output@@@__crt_stdio_output@@CA?AW4parameter_type@12@F@Z 00000001800605e0 f i libucrtd:output.obj
 0001:0005f5f0       ?get_parameter_type@?$positional_parameter_base@DV?$stream_output_adapter@D@__crt_stdio_output@@@__crt_stdio_output@@CA?AW4parameter_type@12@G@Z 00000001800605f0 f i libucrtd:output.obj
 0001:0005f600       ?get_parameter_type@?$positional_parameter_base@DV?$stream_output_adapter@D@__crt_stdio_output@@@__crt_stdio_output@@CA?AW4parameter_type@12@H@Z 0000000180060600 f i libucrtd:output.obj
 0001:0005f610       ?get_parameter_type@?$positional_parameter_base@DV?$stream_output_adapter@D@__crt_stdio_output@@@__crt_stdio_output@@CA?AW4parameter_type@12@I@Z 0000000180060610 f i libucrtd:output.obj
 0001:0005f620       ?get_parameter_type@?$positional_parameter_base@DV?$stream_output_adapter@D@__crt_stdio_output@@@__crt_stdio_output@@CA?AW4parameter_type@12@U_CRT_DOUBLE@@@Z 0000000180060620 f i libucrtd:output.obj
 0001:0005f630       ?get_parameter_type@?$positional_parameter_base@DV?$stream_output_adapter@D@__crt_stdio_output@@@__crt_stdio_output@@CA?AW4parameter_type@12@_J@Z 0000000180060630 f i libucrtd:output.obj
 0001:0005f640       ?get_parameter_type@?$positional_parameter_base@DV?$stream_output_adapter@D@__crt_stdio_output@@@__crt_stdio_output@@CA?AW4parameter_type@12@_K@Z 0000000180060640 f i libucrtd:output.obj
 0001:0005f650       ?get_parameter_type@?$positional_parameter_base@DV?$stream_output_adapter@D@__crt_stdio_output@@@__crt_stdio_output@@CA?AW4parameter_type@12@_W@Z 0000000180060650 f i libucrtd:output.obj
 0001:0005f660       ?get_parameter_type@?$positional_parameter_base@DV?$string_output_adapter@D@__crt_stdio_output@@@__crt_stdio_output@@CA?AW4parameter_type@12@F@Z 0000000180060660 f i libucrtd:output.obj
 0001:0005f670       ?get_parameter_type@?$positional_parameter_base@DV?$string_output_adapter@D@__crt_stdio_output@@@__crt_stdio_output@@CA?AW4parameter_type@12@G@Z 0000000180060670 f i libucrtd:output.obj
 0001:0005f680       ?get_parameter_type@?$positional_parameter_base@DV?$string_output_adapter@D@__crt_stdio_output@@@__crt_stdio_output@@CA?AW4parameter_type@12@H@Z 0000000180060680 f i libucrtd:output.obj
 0001:0005f690       ?get_parameter_type@?$positional_parameter_base@DV?$string_output_adapter@D@__crt_stdio_output@@@__crt_stdio_output@@CA?AW4parameter_type@12@I@Z 0000000180060690 f i libucrtd:output.obj
 0001:0005f6a0       ?get_parameter_type@?$positional_parameter_base@DV?$string_output_adapter@D@__crt_stdio_output@@@__crt_stdio_output@@CA?AW4parameter_type@12@U_CRT_DOUBLE@@@Z 00000001800606a0 f i libucrtd:output.obj
 0001:0005f6b0       ?get_parameter_type@?$positional_parameter_base@DV?$string_output_adapter@D@__crt_stdio_output@@@__crt_stdio_output@@CA?AW4parameter_type@12@_J@Z 00000001800606b0 f i libucrtd:output.obj
 0001:0005f6c0       ?get_parameter_type@?$positional_parameter_base@DV?$string_output_adapter@D@__crt_stdio_output@@@__crt_stdio_output@@CA?AW4parameter_type@12@_K@Z 00000001800606c0 f i libucrtd:output.obj
 0001:0005f6d0       ?get_parameter_type@?$positional_parameter_base@DV?$string_output_adapter@D@__crt_stdio_output@@@__crt_stdio_output@@CA?AW4parameter_type@12@_W@Z 00000001800606d0 f i libucrtd:output.obj
 0001:0005f6e0       ?get_parameter_type@?$positional_parameter_base@_WV?$stream_output_adapter@_W@__crt_stdio_output@@@__crt_stdio_output@@CA?AW4parameter_type@12@F@Z 00000001800606e0 f i libucrtd:output.obj
 0001:0005f6f0       ?get_parameter_type@?$positional_parameter_base@_WV?$stream_output_adapter@_W@__crt_stdio_output@@@__crt_stdio_output@@CA?AW4parameter_type@12@G@Z 00000001800606f0 f i libucrtd:output.obj
 0001:0005f700       ?get_parameter_type@?$positional_parameter_base@_WV?$stream_output_adapter@_W@__crt_stdio_output@@@__crt_stdio_output@@CA?AW4parameter_type@12@H@Z 0000000180060700 f i libucrtd:output.obj
 0001:0005f710       ?get_parameter_type@?$positional_parameter_base@_WV?$stream_output_adapter@_W@__crt_stdio_output@@@__crt_stdio_output@@CA?AW4parameter_type@12@I@Z 0000000180060710 f i libucrtd:output.obj
 0001:0005f720       ?get_parameter_type@?$positional_parameter_base@_WV?$stream_output_adapter@_W@__crt_stdio_output@@@__crt_stdio_output@@CA?AW4parameter_type@12@U_CRT_DOUBLE@@@Z 0000000180060720 f i libucrtd:output.obj
 0001:0005f730       ?get_parameter_type@?$positional_parameter_base@_WV?$stream_output_adapter@_W@__crt_stdio_output@@@__crt_stdio_output@@CA?AW4parameter_type@12@_J@Z 0000000180060730 f i libucrtd:output.obj
 0001:0005f740       ?get_parameter_type@?$positional_parameter_base@_WV?$stream_output_adapter@_W@__crt_stdio_output@@@__crt_stdio_output@@CA?AW4parameter_type@12@_K@Z 0000000180060740 f i libucrtd:output.obj
 0001:0005f750       ?get_parameter_type@?$positional_parameter_base@_WV?$stream_output_adapter@_W@__crt_stdio_output@@@__crt_stdio_output@@CA?AW4parameter_type@12@_W@Z 0000000180060750 f i libucrtd:output.obj
 0001:0005f760       ?get_parameter_type@?$positional_parameter_base@_WV?$string_output_adapter@_W@__crt_stdio_output@@@__crt_stdio_output@@CA?AW4parameter_type@12@F@Z 0000000180060760 f i libucrtd:output.obj
 0001:0005f770       ?get_parameter_type@?$positional_parameter_base@_WV?$string_output_adapter@_W@__crt_stdio_output@@@__crt_stdio_output@@CA?AW4parameter_type@12@G@Z 0000000180060770 f i libucrtd:output.obj
 0001:0005f780       ?get_parameter_type@?$positional_parameter_base@_WV?$string_output_adapter@_W@__crt_stdio_output@@@__crt_stdio_output@@CA?AW4parameter_type@12@H@Z 0000000180060780 f i libucrtd:output.obj
 0001:0005f790       ?get_parameter_type@?$positional_parameter_base@_WV?$string_output_adapter@_W@__crt_stdio_output@@@__crt_stdio_output@@CA?AW4parameter_type@12@I@Z 0000000180060790 f i libucrtd:output.obj
 0001:0005f7a0       ?get_parameter_type@?$positional_parameter_base@_WV?$string_output_adapter@_W@__crt_stdio_output@@@__crt_stdio_output@@CA?AW4parameter_type@12@U_CRT_DOUBLE@@@Z 00000001800607a0 f i libucrtd:output.obj
 0001:0005f7b0       ?get_parameter_type@?$positional_parameter_base@_WV?$string_output_adapter@_W@__crt_stdio_output@@@__crt_stdio_output@@CA?AW4parameter_type@12@_J@Z 00000001800607b0 f i libucrtd:output.obj
 0001:0005f7c0       ?get_parameter_type@?$positional_parameter_base@_WV?$string_output_adapter@_W@__crt_stdio_output@@@__crt_stdio_output@@CA?AW4parameter_type@12@_K@Z 00000001800607c0 f i libucrtd:output.obj
 0001:0005f7d0       ?get_parameter_type@?$positional_parameter_base@_WV?$string_output_adapter@_W@__crt_stdio_output@@@__crt_stdio_output@@CA?AW4parameter_type@12@_W@Z 00000001800607d0 f i libucrtd:output.obj
 0001:0005f7e0       ?has_flag@?$output_processor@DV?$stream_output_adapter@D@__crt_stdio_output@@V?$format_validation_base@DV?$stream_output_adapter@D@__crt_stdio_output@@@2@@__crt_stdio_output@@AEBA_NI@Z 00000001800607e0 f i libucrtd:output.obj
 0001:0005f820       ?has_flag@?$output_processor@DV?$stream_output_adapter@D@__crt_stdio_output@@V?$positional_parameter_base@DV?$stream_output_adapter@D@__crt_stdio_output@@@2@@__crt_stdio_output@@AEBA_NI@Z 0000000180060820 f i libucrtd:output.obj
 0001:0005f860       ?has_flag@?$output_processor@DV?$stream_output_adapter@D@__crt_stdio_output@@V?$standard_base@DV?$stream_output_adapter@D@__crt_stdio_output@@@2@@__crt_stdio_output@@AEBA_NI@Z 0000000180060860 f i libucrtd:output.obj
 0001:0005f8a0       ?has_flag@?$output_processor@DV?$string_output_adapter@D@__crt_stdio_output@@V?$format_validation_base@DV?$string_output_adapter@D@__crt_stdio_output@@@2@@__crt_stdio_output@@AEBA_NI@Z 00000001800608a0 f i libucrtd:output.obj
 0001:0005f8e0       ?has_flag@?$output_processor@DV?$string_output_adapter@D@__crt_stdio_output@@V?$positional_parameter_base@DV?$string_output_adapter@D@__crt_stdio_output@@@2@@__crt_stdio_output@@AEBA_NI@Z 00000001800608e0 f i libucrtd:output.obj
 0001:0005f920       ?has_flag@?$output_processor@DV?$string_output_adapter@D@__crt_stdio_output@@V?$standard_base@DV?$string_output_adapter@D@__crt_stdio_output@@@2@@__crt_stdio_output@@AEBA_NI@Z 0000000180060920 f i libucrtd:output.obj
 0001:0005f960       ?has_flag@?$output_processor@_WV?$stream_output_adapter@_W@__crt_stdio_output@@V?$format_validation_base@_WV?$stream_output_adapter@_W@__crt_stdio_output@@@2@@__crt_stdio_output@@AEBA_NI@Z 0000000180060960 f i libucrtd:output.obj
 0001:0005f9a0       ?has_flag@?$output_processor@_WV?$stream_output_adapter@_W@__crt_stdio_output@@V?$positional_parameter_base@_WV?$stream_output_adapter@_W@__crt_stdio_output@@@2@@__crt_stdio_output@@AEBA_NI@Z 00000001800609a0 f i libucrtd:output.obj
 0001:0005f9e0       ?has_flag@?$output_processor@_WV?$stream_output_adapter@_W@__crt_stdio_output@@V?$standard_base@_WV?$stream_output_adapter@_W@__crt_stdio_output@@@2@@__crt_stdio_output@@AEBA_NI@Z 00000001800609e0 f i libucrtd:output.obj
 0001:0005fa20       ?has_flag@?$output_processor@_WV?$string_output_adapter@_W@__crt_stdio_output@@V?$format_validation_base@_WV?$string_output_adapter@_W@__crt_stdio_output@@@2@@__crt_stdio_output@@AEBA_NI@Z 0000000180060a20 f i libucrtd:output.obj
 0001:0005fa60       ?has_flag@?$output_processor@_WV?$string_output_adapter@_W@__crt_stdio_output@@V?$positional_parameter_base@_WV?$string_output_adapter@_W@__crt_stdio_output@@@2@@__crt_stdio_output@@AEBA_NI@Z 0000000180060a60 f i libucrtd:output.obj
 0001:0005faa0       ?has_flag@?$output_processor@_WV?$string_output_adapter@_W@__crt_stdio_output@@V?$standard_base@_WV?$string_output_adapter@_W@__crt_stdio_output@@@2@@__crt_stdio_output@@AEBA_NI@Z 0000000180060aa0 f i libucrtd:output.obj
 0001:0005fae0       ?is_positional_parameter_reappearance_consistent@?$positional_parameter_base@DV?$stream_output_adapter@D@__crt_stdio_output@@@__crt_stdio_output@@AEAA_NAEBUparameter_data@12@W4parameter_type@12@DW4length_modifier@2@@Z 0000000180060ae0 f i libucrtd:output.obj
 0001:0005fd40       ?is_positional_parameter_reappearance_consistent@?$positional_parameter_base@DV?$string_output_adapter@D@__crt_stdio_output@@@__crt_stdio_output@@AEAA_NAEBUparameter_data@12@W4parameter_type@12@DW4length_modifier@2@@Z 0000000180060d40 f i libucrtd:output.obj
 0001:0005ffa0       ?is_positional_parameter_reappearance_consistent@?$positional_parameter_base@_WV?$stream_output_adapter@_W@__crt_stdio_output@@@__crt_stdio_output@@AEAA_NAEBUparameter_data@12@W4parameter_type@12@_WW4length_modifier@2@@Z 0000000180060fa0 f i libucrtd:output.obj
 0001:00060200       ?is_positional_parameter_reappearance_consistent@?$positional_parameter_base@_WV?$string_output_adapter@_W@__crt_stdio_output@@@__crt_stdio_output@@AEAA_NAEBUparameter_data@12@W4parameter_type@12@_WW4length_modifier@2@@Z 0000000180061200 f i libucrtd:output.obj
 0001:00060460       ?is_string_backed@__crt_stdio_stream@@QEBA_NXZ 0000000180061460 f i libucrtd:output.obj
 0001:000604a0       ?narrow_null_string@?$output_processor@DV?$stream_output_adapter@D@__crt_stdio_output@@V?$format_validation_base@DV?$stream_output_adapter@D@__crt_stdio_output@@@2@@__crt_stdio_output@@CAPEADXZ 00000001800614a0 f i libucrtd:output.obj
 0001:000604b0       ?narrow_null_string@?$output_processor@DV?$stream_output_adapter@D@__crt_stdio_output@@V?$positional_parameter_base@DV?$stream_output_adapter@D@__crt_stdio_output@@@2@@__crt_stdio_output@@CAPEADXZ 00000001800614b0 f i libucrtd:output.obj
 0001:000604c0       ?narrow_null_string@?$output_processor@DV?$stream_output_adapter@D@__crt_stdio_output@@V?$standard_base@DV?$stream_output_adapter@D@__crt_stdio_output@@@2@@__crt_stdio_output@@CAPEADXZ 00000001800614c0 f i libucrtd:output.obj
 0001:000604d0       ?narrow_null_string@?$output_processor@DV?$string_output_adapter@D@__crt_stdio_output@@V?$format_validation_base@DV?$string_output_adapter@D@__crt_stdio_output@@@2@@__crt_stdio_output@@CAPEADXZ 00000001800614d0 f i libucrtd:output.obj
 0001:000604e0       ?narrow_null_string@?$output_processor@DV?$string_output_adapter@D@__crt_stdio_output@@V?$positional_parameter_base@DV?$string_output_adapter@D@__crt_stdio_output@@@2@@__crt_stdio_output@@CAPEADXZ 00000001800614e0 f i libucrtd:output.obj
 0001:000604f0       ?narrow_null_string@?$output_processor@DV?$string_output_adapter@D@__crt_stdio_output@@V?$standard_base@DV?$string_output_adapter@D@__crt_stdio_output@@@2@@__crt_stdio_output@@CAPEADXZ 00000001800614f0 f i libucrtd:output.obj
 0001:00060500       ?narrow_null_string@?$output_processor@_WV?$stream_output_adapter@_W@__crt_stdio_output@@V?$format_validation_base@_WV?$stream_output_adapter@_W@__crt_stdio_output@@@2@@__crt_stdio_output@@CAPEADXZ 0000000180061500 f i libucrtd:output.obj
 0001:00060510       ?narrow_null_string@?$output_processor@_WV?$stream_output_adapter@_W@__crt_stdio_output@@V?$positional_parameter_base@_WV?$stream_output_adapter@_W@__crt_stdio_output@@@2@@__crt_stdio_output@@CAPEADXZ 0000000180061510 f i libucrtd:output.obj
 0001:00060520       ?narrow_null_string@?$output_processor@_WV?$stream_output_adapter@_W@__crt_stdio_output@@V?$standard_base@_WV?$stream_output_adapter@_W@__crt_stdio_output@@@2@@__crt_stdio_output@@CAPEADXZ 0000000180061520 f i libucrtd:output.obj
 0001:00060530       ?narrow_null_string@?$output_processor@_WV?$string_output_adapter@_W@__crt_stdio_output@@V?$format_validation_base@_WV?$string_output_adapter@_W@__crt_stdio_output@@@2@@__crt_stdio_output@@CAPEADXZ 0000000180061530 f i libucrtd:output.obj
 0001:00060540       ?narrow_null_string@?$output_processor@_WV?$string_output_adapter@_W@__crt_stdio_output@@V?$positional_parameter_base@_WV?$string_output_adapter@_W@__crt_stdio_output@@@2@@__crt_stdio_output@@CAPEADXZ 0000000180061540 f i libucrtd:output.obj
 0001:00060550       ?narrow_null_string@?$output_processor@_WV?$string_output_adapter@_W@__crt_stdio_output@@V?$standard_base@_WV?$string_output_adapter@_W@__crt_stdio_output@@@2@@__crt_stdio_output@@CAPEADXZ 0000000180061550 f i libucrtd:output.obj
 0001:00060560       ?parse_int_from_format_string@?$output_processor@DV?$stream_output_adapter@D@__crt_stdio_output@@V?$format_validation_base@DV?$stream_output_adapter@D@__crt_stdio_output@@@2@@__crt_stdio_output@@AEAA_NQEAH@Z 0000000180061560 f i libucrtd:output.obj
 0001:00060650       ?parse_int_from_format_string@?$output_processor@DV?$stream_output_adapter@D@__crt_stdio_output@@V?$positional_parameter_base@DV?$stream_output_adapter@D@__crt_stdio_output@@@2@@__crt_stdio_output@@AEAA_NQEAH@Z 0000000180061650 f i libucrtd:output.obj
 0001:00060740       ?parse_int_from_format_string@?$output_processor@DV?$stream_output_adapter@D@__crt_stdio_output@@V?$standard_base@DV?$stream_output_adapter@D@__crt_stdio_output@@@2@@__crt_stdio_output@@AEAA_NQEAH@Z 0000000180061740 f i libucrtd:output.obj
 0001:00060830       ?parse_int_from_format_string@?$output_processor@DV?$string_output_adapter@D@__crt_stdio_output@@V?$format_validation_base@DV?$string_output_adapter@D@__crt_stdio_output@@@2@@__crt_stdio_output@@AEAA_NQEAH@Z 0000000180061830 f i libucrtd:output.obj
 0001:00060920       ?parse_int_from_format_string@?$output_processor@DV?$string_output_adapter@D@__crt_stdio_output@@V?$positional_parameter_base@DV?$string_output_adapter@D@__crt_stdio_output@@@2@@__crt_stdio_output@@AEAA_NQEAH@Z 0000000180061920 f i libucrtd:output.obj
 0001:00060a10       ?parse_int_from_format_string@?$output_processor@DV?$string_output_adapter@D@__crt_stdio_output@@V?$standard_base@DV?$string_output_adapter@D@__crt_stdio_output@@@2@@__crt_stdio_output@@AEAA_NQEAH@Z 0000000180061a10 f i libucrtd:output.obj
 0001:00060b00       ?parse_int_from_format_string@?$output_processor@_WV?$stream_output_adapter@_W@__crt_stdio_output@@V?$format_validation_base@_WV?$stream_output_adapter@_W@__crt_stdio_output@@@2@@__crt_stdio_output@@AEAA_NQEAH@Z 0000000180061b00 f i libucrtd:output.obj
 0001:00060bf0       ?parse_int_from_format_string@?$output_processor@_WV?$stream_output_adapter@_W@__crt_stdio_output@@V?$positional_parameter_base@_WV?$stream_output_adapter@_W@__crt_stdio_output@@@2@@__crt_stdio_output@@AEAA_NQEAH@Z 0000000180061bf0 f i libucrtd:output.obj
 0001:00060ce0       ?parse_int_from_format_string@?$output_processor@_WV?$stream_output_adapter@_W@__crt_stdio_output@@V?$standard_base@_WV?$stream_output_adapter@_W@__crt_stdio_output@@@2@@__crt_stdio_output@@AEAA_NQEAH@Z 0000000180061ce0 f i libucrtd:output.obj
 0001:00060dd0       ?parse_int_from_format_string@?$output_processor@_WV?$string_output_adapter@_W@__crt_stdio_output@@V?$format_validation_base@_WV?$string_output_adapter@_W@__crt_stdio_output@@@2@@__crt_stdio_output@@AEAA_NQEAH@Z 0000000180061dd0 f i libucrtd:output.obj
 0001:00060ec0       ?parse_int_from_format_string@?$output_processor@_WV?$string_output_adapter@_W@__crt_stdio_output@@V?$positional_parameter_base@_WV?$string_output_adapter@_W@__crt_stdio_output@@@2@@__crt_stdio_output@@AEAA_NQEAH@Z 0000000180061ec0 f i libucrtd:output.obj
 0001:00060fb0       ?parse_int_from_format_string@?$output_processor@_WV?$string_output_adapter@_W@__crt_stdio_output@@V?$standard_base@_WV?$string_output_adapter@_W@__crt_stdio_output@@@2@@__crt_stdio_output@@AEAA_NQEAH@Z 0000000180061fb0 f i libucrtd:output.obj
 0001:000610a0       ?process@?$output_processor@DV?$stream_output_adapter@D@__crt_stdio_output@@V?$format_validation_base@DV?$stream_output_adapter@D@__crt_stdio_output@@@2@@__crt_stdio_output@@QEAAHXZ 00000001800620a0 f i libucrtd:output.obj
 0001:00061400       ?process@?$output_processor@DV?$stream_output_adapter@D@__crt_stdio_output@@V?$positional_parameter_base@DV?$stream_output_adapter@D@__crt_stdio_output@@@2@@__crt_stdio_output@@QEAAHXZ 0000000180062400 f i libucrtd:output.obj
 0001:00061760       ?process@?$output_processor@DV?$stream_output_adapter@D@__crt_stdio_output@@V?$standard_base@DV?$stream_output_adapter@D@__crt_stdio_output@@@2@@__crt_stdio_output@@QEAAHXZ 0000000180062760 f i libucrtd:output.obj
 0001:00061ac0       ?process@?$output_processor@DV?$string_output_adapter@D@__crt_stdio_output@@V?$format_validation_base@DV?$string_output_adapter@D@__crt_stdio_output@@@2@@__crt_stdio_output@@QEAAHXZ 0000000180062ac0 f i libucrtd:output.obj
 0001:00061e20       ?process@?$output_processor@DV?$string_output_adapter@D@__crt_stdio_output@@V?$positional_parameter_base@DV?$string_output_adapter@D@__crt_stdio_output@@@2@@__crt_stdio_output@@QEAAHXZ 0000000180062e20 f i libucrtd:output.obj
 0001:00062180       ?process@?$output_processor@DV?$string_output_adapter@D@__crt_stdio_output@@V?$standard_base@DV?$string_output_adapter@D@__crt_stdio_output@@@2@@__crt_stdio_output@@QEAAHXZ 0000000180063180 f i libucrtd:output.obj
 0001:000624e0       ?process@?$output_processor@_WV?$stream_output_adapter@_W@__crt_stdio_output@@V?$format_validation_base@_WV?$stream_output_adapter@_W@__crt_stdio_output@@@2@@__crt_stdio_output@@QEAAHXZ 00000001800634e0 f i libucrtd:output.obj
 0001:00062840       ?process@?$output_processor@_WV?$stream_output_adapter@_W@__crt_stdio_output@@V?$positional_parameter_base@_WV?$stream_output_adapter@_W@__crt_stdio_output@@@2@@__crt_stdio_output@@QEAAHXZ 0000000180063840 f i libucrtd:output.obj
 0001:00062ba0       ?process@?$output_processor@_WV?$stream_output_adapter@_W@__crt_stdio_output@@V?$standard_base@_WV?$stream_output_adapter@_W@__crt_stdio_output@@@2@@__crt_stdio_output@@QEAAHXZ 0000000180063ba0 f i libucrtd:output.obj
 0001:00062f00       ?process@?$output_processor@_WV?$string_output_adapter@_W@__crt_stdio_output@@V?$format_validation_base@_WV?$string_output_adapter@_W@__crt_stdio_output@@@2@@__crt_stdio_output@@QEAAHXZ 0000000180063f00 f i libucrtd:output.obj
 0001:00063260       ?process@?$output_processor@_WV?$string_output_adapter@_W@__crt_stdio_output@@V?$positional_parameter_base@_WV?$string_output_adapter@_W@__crt_stdio_output@@@2@@__crt_stdio_output@@QEAAHXZ 0000000180064260 f i libucrtd:output.obj
 0001:000635c0       ?process@?$output_processor@_WV?$string_output_adapter@_W@__crt_stdio_output@@V?$standard_base@_WV?$string_output_adapter@_W@__crt_stdio_output@@@2@@__crt_stdio_output@@QEAAHXZ 00000001800645c0 f i libucrtd:output.obj
 0001:00063920       ?public_stream@__crt_stdio_stream@@QEBAPEAU_iobuf@@XZ 0000000180064920 f i libucrtd:output.obj
 0001:00063930       ?set_flag@?$output_processor@DV?$stream_output_adapter@D@__crt_stdio_output@@V?$format_validation_base@DV?$stream_output_adapter@D@__crt_stdio_output@@@2@@__crt_stdio_output@@AEAAXI@Z 0000000180064930 f i libucrtd:output.obj
 0001:00063950       ?set_flag@?$output_processor@DV?$stream_output_adapter@D@__crt_stdio_output@@V?$positional_parameter_base@DV?$stream_output_adapter@D@__crt_stdio_output@@@2@@__crt_stdio_output@@AEAAXI@Z 0000000180064950 f i libucrtd:output.obj
 0001:00063970       ?set_flag@?$output_processor@DV?$stream_output_adapter@D@__crt_stdio_output@@V?$standard_base@DV?$stream_output_adapter@D@__crt_stdio_output@@@2@@__crt_stdio_output@@AEAAXI@Z 0000000180064970 f i libucrtd:output.obj
 0001:00063990       ?set_flag@?$output_processor@DV?$string_output_adapter@D@__crt_stdio_output@@V?$format_validation_base@DV?$string_output_adapter@D@__crt_stdio_output@@@2@@__crt_stdio_output@@AEAAXI@Z 0000000180064990 f i libucrtd:output.obj
 0001:000639b0       ?set_flag@?$output_processor@DV?$string_output_adapter@D@__crt_stdio_output@@V?$positional_parameter_base@DV?$string_output_adapter@D@__crt_stdio_output@@@2@@__crt_stdio_output@@AEAAXI@Z 00000001800649b0 f i libucrtd:output.obj
 0001:000639d0       ?set_flag@?$output_processor@DV?$string_output_adapter@D@__crt_stdio_output@@V?$standard_base@DV?$string_output_adapter@D@__crt_stdio_output@@@2@@__crt_stdio_output@@AEAAXI@Z 00000001800649d0 f i libucrtd:output.obj
 0001:000639f0       ?set_flag@?$output_processor@_WV?$stream_output_adapter@_W@__crt_stdio_output@@V?$format_validation_base@_WV?$stream_output_adapter@_W@__crt_stdio_output@@@2@@__crt_stdio_output@@AEAAXI@Z 00000001800649f0 f i libucrtd:output.obj
 0001:00063a10       ?set_flag@?$output_processor@_WV?$stream_output_adapter@_W@__crt_stdio_output@@V?$positional_parameter_base@_WV?$stream_output_adapter@_W@__crt_stdio_output@@@2@@__crt_stdio_output@@AEAAXI@Z 0000000180064a10 f i libucrtd:output.obj
 0001:00063a30       ?set_flag@?$output_processor@_WV?$stream_output_adapter@_W@__crt_stdio_output@@V?$standard_base@_WV?$stream_output_adapter@_W@__crt_stdio_output@@@2@@__crt_stdio_output@@AEAAXI@Z 0000000180064a30 f i libucrtd:output.obj
 0001:00063a50       ?set_flag@?$output_processor@_WV?$string_output_adapter@_W@__crt_stdio_output@@V?$format_validation_base@_WV?$string_output_adapter@_W@__crt_stdio_output@@@2@@__crt_stdio_output@@AEAAXI@Z 0000000180064a50 f i libucrtd:output.obj
 0001:00063a70       ?set_flag@?$output_processor@_WV?$string_output_adapter@_W@__crt_stdio_output@@V?$positional_parameter_base@_WV?$string_output_adapter@_W@__crt_stdio_output@@@2@@__crt_stdio_output@@AEAAXI@Z 0000000180064a70 f i libucrtd:output.obj
 0001:00063a90       ?set_flag@?$output_processor@_WV?$string_output_adapter@_W@__crt_stdio_output@@V?$standard_base@_WV?$string_output_adapter@_W@__crt_stdio_output@@@2@@__crt_stdio_output@@AEAAXI@Z 0000000180064a90 f i libucrtd:output.obj
 0001:00063ab0       ?should_format@?$positional_parameter_base@DV?$stream_output_adapter@D@__crt_stdio_output@@@__crt_stdio_output@@IEAA_NXZ 0000000180064ab0 f i libucrtd:output.obj
 0001:00063af0       ?should_format@?$positional_parameter_base@DV?$string_output_adapter@D@__crt_stdio_output@@@__crt_stdio_output@@IEAA_NXZ 0000000180064af0 f i libucrtd:output.obj
 0001:00063b30       ?should_format@?$positional_parameter_base@_WV?$stream_output_adapter@_W@__crt_stdio_output@@@__crt_stdio_output@@IEAA_NXZ 0000000180064b30 f i libucrtd:output.obj
 0001:00063b70       ?should_format@?$positional_parameter_base@_WV?$string_output_adapter@_W@__crt_stdio_output@@@__crt_stdio_output@@IEAA_NXZ 0000000180064b70 f i libucrtd:output.obj
 0001:00063bb0       ?should_format@?$standard_base@DV?$stream_output_adapter@D@__crt_stdio_output@@@__crt_stdio_output@@IEAA_NXZ 0000000180064bb0 f i libucrtd:output.obj
 0001:00063bc0       ?should_format@?$standard_base@DV?$string_output_adapter@D@__crt_stdio_output@@@__crt_stdio_output@@IEAA_NXZ 0000000180064bc0 f i libucrtd:output.obj
 0001:00063bd0       ?should_format@?$standard_base@_WV?$stream_output_adapter@_W@__crt_stdio_output@@@__crt_stdio_output@@IEAA_NXZ 0000000180064bd0 f i libucrtd:output.obj
 0001:00063be0       ?should_format@?$standard_base@_WV?$string_output_adapter@_W@__crt_stdio_output@@@__crt_stdio_output@@IEAA_NXZ 0000000180064be0 f i libucrtd:output.obj
 0001:00063bf0       ?should_skip_normal_state_processing@?$positional_parameter_base@DV?$stream_output_adapter@D@__crt_stdio_output@@@__crt_stdio_output@@IEAA_NXZ 0000000180064bf0 f i libucrtd:output.obj
 0001:00063c40       ?should_skip_normal_state_processing@?$positional_parameter_base@DV?$string_output_adapter@D@__crt_stdio_output@@@__crt_stdio_output@@IEAA_NXZ 0000000180064c40 f i libucrtd:output.obj
 0001:00063c90       ?should_skip_normal_state_processing@?$positional_parameter_base@_WV?$stream_output_adapter@_W@__crt_stdio_output@@@__crt_stdio_output@@IEAA_NXZ 0000000180064c90 f i libucrtd:output.obj
 0001:00063ce0       ?should_skip_normal_state_processing@?$positional_parameter_base@_WV?$string_output_adapter@_W@__crt_stdio_output@@@__crt_stdio_output@@IEAA_NXZ 0000000180064ce0 f i libucrtd:output.obj
 0001:00063d30       ?should_skip_normal_state_processing@?$standard_base@DV?$stream_output_adapter@D@__crt_stdio_output@@@__crt_stdio_output@@IEAA_NXZ 0000000180064d30 f i libucrtd:output.obj
 0001:00063d40       ?should_skip_normal_state_processing@?$standard_base@DV?$string_output_adapter@D@__crt_stdio_output@@@__crt_stdio_output@@IEAA_NXZ 0000000180064d40 f i libucrtd:output.obj
 0001:00063d50       ?should_skip_normal_state_processing@?$standard_base@_WV?$stream_output_adapter@_W@__crt_stdio_output@@@__crt_stdio_output@@IEAA_NXZ 0000000180064d50 f i libucrtd:output.obj
 0001:00063d60       ?should_skip_normal_state_processing@?$standard_base@_WV?$string_output_adapter@_W@__crt_stdio_output@@@__crt_stdio_output@@IEAA_NXZ 0000000180064d60 f i libucrtd:output.obj
 0001:00063d70       ?should_skip_type_state_output@?$positional_parameter_base@DV?$stream_output_adapter@D@__crt_stdio_output@@@__crt_stdio_output@@IEBA_NXZ 0000000180064d70 f i libucrtd:output.obj
 0001:00063db0       ?should_skip_type_state_output@?$positional_parameter_base@DV?$string_output_adapter@D@__crt_stdio_output@@@__crt_stdio_output@@IEBA_NXZ 0000000180064db0 f i libucrtd:output.obj
 0001:00063df0       ?should_skip_type_state_output@?$positional_parameter_base@_WV?$stream_output_adapter@_W@__crt_stdio_output@@@__crt_stdio_output@@IEBA_NXZ 0000000180064df0 f i libucrtd:output.obj
 0001:00063e30       ?should_skip_type_state_output@?$positional_parameter_base@_WV?$string_output_adapter@_W@__crt_stdio_output@@@__crt_stdio_output@@IEBA_NXZ 0000000180064e30 f i libucrtd:output.obj
 0001:00063e70       ?should_skip_type_state_output@?$standard_base@DV?$stream_output_adapter@D@__crt_stdio_output@@@__crt_stdio_output@@IEBA_NXZ 0000000180064e70 f i libucrtd:output.obj
 0001:00063e80       ?should_skip_type_state_output@?$standard_base@DV?$string_output_adapter@D@__crt_stdio_output@@@__crt_stdio_output@@IEBA_NXZ 0000000180064e80 f i libucrtd:output.obj
 0001:00063e90       ?should_skip_type_state_output@?$standard_base@_WV?$stream_output_adapter@_W@__crt_stdio_output@@@__crt_stdio_output@@IEBA_NXZ 0000000180064e90 f i libucrtd:output.obj
 0001:00063ea0       ?should_skip_type_state_output@?$standard_base@_WV?$string_output_adapter@_W@__crt_stdio_output@@@__crt_stdio_output@@IEBA_NXZ 0000000180064ea0 f i libucrtd:output.obj
 0001:00063eb0       ?state_case_dot@?$output_processor@DV?$stream_output_adapter@D@__crt_stdio_output@@V?$format_validation_base@DV?$stream_output_adapter@D@__crt_stdio_output@@@2@@__crt_stdio_output@@AEAA_NXZ 0000000180064eb0 f i libucrtd:output.obj
 0001:00063ed0       ?state_case_dot@?$output_processor@DV?$stream_output_adapter@D@__crt_stdio_output@@V?$positional_parameter_base@DV?$stream_output_adapter@D@__crt_stdio_output@@@2@@__crt_stdio_output@@AEAA_NXZ 0000000180064ed0 f i libucrtd:output.obj
 0001:00063ef0       ?state_case_dot@?$output_processor@DV?$stream_output_adapter@D@__crt_stdio_output@@V?$standard_base@DV?$stream_output_adapter@D@__crt_stdio_output@@@2@@__crt_stdio_output@@AEAA_NXZ 0000000180064ef0 f i libucrtd:output.obj
 0001:00063f10       ?state_case_dot@?$output_processor@DV?$string_output_adapter@D@__crt_stdio_output@@V?$format_validation_base@DV?$string_output_adapter@D@__crt_stdio_output@@@2@@__crt_stdio_output@@AEAA_NXZ 0000000180064f10 f i libucrtd:output.obj
 0001:00063f30       ?state_case_dot@?$output_processor@DV?$string_output_adapter@D@__crt_stdio_output@@V?$positional_parameter_base@DV?$string_output_adapter@D@__crt_stdio_output@@@2@@__crt_stdio_output@@AEAA_NXZ 0000000180064f30 f i libucrtd:output.obj
 0001:00063f50       ?state_case_dot@?$output_processor@DV?$string_output_adapter@D@__crt_stdio_output@@V?$standard_base@DV?$string_output_adapter@D@__crt_stdio_output@@@2@@__crt_stdio_output@@AEAA_NXZ 0000000180064f50 f i libucrtd:output.obj
 0001:00063f70       ?state_case_dot@?$output_processor@_WV?$stream_output_adapter@_W@__crt_stdio_output@@V?$format_validation_base@_WV?$stream_output_adapter@_W@__crt_stdio_output@@@2@@__crt_stdio_output@@AEAA_NXZ 0000000180064f70 f i libucrtd:output.obj
 0001:00063f90       ?state_case_dot@?$output_processor@_WV?$stream_output_adapter@_W@__crt_stdio_output@@V?$positional_parameter_base@_WV?$stream_output_adapter@_W@__crt_stdio_output@@@2@@__crt_stdio_output@@AEAA_NXZ 0000000180064f90 f i libucrtd:output.obj
 0001:00063fb0       ?state_case_dot@?$output_processor@_WV?$stream_output_adapter@_W@__crt_stdio_output@@V?$standard_base@_WV?$stream_output_adapter@_W@__crt_stdio_output@@@2@@__crt_stdio_output@@AEAA_NXZ 0000000180064fb0 f i libucrtd:output.obj
 0001:00063fd0       ?state_case_dot@?$output_processor@_WV?$string_output_adapter@_W@__crt_stdio_output@@V?$format_validation_base@_WV?$string_output_adapter@_W@__crt_stdio_output@@@2@@__crt_stdio_output@@AEAA_NXZ 0000000180064fd0 f i libucrtd:output.obj
 0001:00063ff0       ?state_case_dot@?$output_processor@_WV?$string_output_adapter@_W@__crt_stdio_output@@V?$positional_parameter_base@_WV?$string_output_adapter@_W@__crt_stdio_output@@@2@@__crt_stdio_output@@AEAA_NXZ 0000000180064ff0 f i libucrtd:output.obj
 0001:00064010       ?state_case_dot@?$output_processor@_WV?$string_output_adapter@_W@__crt_stdio_output@@V?$standard_base@_WV?$string_output_adapter@_W@__crt_stdio_output@@@2@@__crt_stdio_output@@AEAA_NXZ 0000000180065010 f i libucrtd:output.obj
 0001:00064030       ?state_case_flag@?$output_processor@DV?$stream_output_adapter@D@__crt_stdio_output@@V?$format_validation_base@DV?$stream_output_adapter@D@__crt_stdio_output@@@2@@__crt_stdio_output@@AEAA_NXZ 0000000180065030 f i libucrtd:output.obj
 0001:000640d0       ?state_case_flag@?$output_processor@DV?$stream_output_adapter@D@__crt_stdio_output@@V?$positional_parameter_base@DV?$stream_output_adapter@D@__crt_stdio_output@@@2@@__crt_stdio_output@@AEAA_NXZ 00000001800650d0 f i libucrtd:output.obj
 0001:00064170       ?state_case_flag@?$output_processor@DV?$stream_output_adapter@D@__crt_stdio_output@@V?$standard_base@DV?$stream_output_adapter@D@__crt_stdio_output@@@2@@__crt_stdio_output@@AEAA_NXZ 0000000180065170 f i libucrtd:output.obj
 0001:00064210       ?state_case_flag@?$output_processor@DV?$string_output_adapter@D@__crt_stdio_output@@V?$format_validation_base@DV?$string_output_adapter@D@__crt_stdio_output@@@2@@__crt_stdio_output@@AEAA_NXZ 0000000180065210 f i libucrtd:output.obj
 0001:000642b0       ?state_case_flag@?$output_processor@DV?$string_output_adapter@D@__crt_stdio_output@@V?$positional_parameter_base@DV?$string_output_adapter@D@__crt_stdio_output@@@2@@__crt_stdio_output@@AEAA_NXZ 00000001800652b0 f i libucrtd:output.obj
 0001:00064350       ?state_case_flag@?$output_processor@DV?$string_output_adapter@D@__crt_stdio_output@@V?$standard_base@DV?$string_output_adapter@D@__crt_stdio_output@@@2@@__crt_stdio_output@@AEAA_NXZ 0000000180065350 f i libucrtd:output.obj
 0001:000643f0       ?state_case_flag@?$output_processor@_WV?$stream_output_adapter@_W@__crt_stdio_output@@V?$format_validation_base@_WV?$stream_output_adapter@_W@__crt_stdio_output@@@2@@__crt_stdio_output@@AEAA_NXZ 00000001800653f0 f i libucrtd:output.obj
 0001:00064490       ?state_case_flag@?$output_processor@_WV?$stream_output_adapter@_W@__crt_stdio_output@@V?$positional_parameter_base@_WV?$stream_output_adapter@_W@__crt_stdio_output@@@2@@__crt_stdio_output@@AEAA_NXZ 0000000180065490 f i libucrtd:output.obj
 0001:00064530       ?state_case_flag@?$output_processor@_WV?$stream_output_adapter@_W@__crt_stdio_output@@V?$standard_base@_WV?$stream_output_adapter@_W@__crt_stdio_output@@@2@@__crt_stdio_output@@AEAA_NXZ 0000000180065530 f i libucrtd:output.obj
 0001:000645d0       ?state_case_flag@?$output_processor@_WV?$string_output_adapter@_W@__crt_stdio_output@@V?$format_validation_base@_WV?$string_output_adapter@_W@__crt_stdio_output@@@2@@__crt_stdio_output@@AEAA_NXZ 00000001800655d0 f i libucrtd:output.obj
 0001:00064670       ?state_case_flag@?$output_processor@_WV?$string_output_adapter@_W@__crt_stdio_output@@V?$positional_parameter_base@_WV?$string_output_adapter@_W@__crt_stdio_output@@@2@@__crt_stdio_output@@AEAA_NXZ 0000000180065670 f i libucrtd:output.obj
 0001:00064710       ?state_case_flag@?$output_processor@_WV?$string_output_adapter@_W@__crt_stdio_output@@V?$standard_base@_WV?$string_output_adapter@_W@__crt_stdio_output@@@2@@__crt_stdio_output@@AEAA_NXZ 0000000180065710 f i libucrtd:output.obj
 0001:000647b0       ?state_case_normal@?$output_processor@DV?$stream_output_adapter@D@__crt_stdio_output@@V?$format_validation_base@DV?$stream_output_adapter@D@__crt_stdio_output@@@2@@__crt_stdio_output@@AEAA_NXZ 00000001800657b0 f i libucrtd:output.obj
 0001:00064890       ?state_case_normal@?$output_processor@DV?$stream_output_adapter@D@__crt_stdio_output@@V?$positional_parameter_base@DV?$stream_output_adapter@D@__crt_stdio_output@@@2@@__crt_stdio_output@@AEAA_NXZ 0000000180065890 f i libucrtd:output.obj
 0001:00064970       ?state_case_normal@?$output_processor@DV?$stream_output_adapter@D@__crt_stdio_output@@V?$standard_base@DV?$stream_output_adapter@D@__crt_stdio_output@@@2@@__crt_stdio_output@@AEAA_NXZ 0000000180065970 f i libucrtd:output.obj
 0001:00064a50       ?state_case_normal@?$output_processor@DV?$string_output_adapter@D@__crt_stdio_output@@V?$format_validation_base@DV?$string_output_adapter@D@__crt_stdio_output@@@2@@__crt_stdio_output@@AEAA_NXZ 0000000180065a50 f i libucrtd:output.obj
 0001:00064b30       ?state_case_normal@?$output_processor@DV?$string_output_adapter@D@__crt_stdio_output@@V?$positional_parameter_base@DV?$string_output_adapter@D@__crt_stdio_output@@@2@@__crt_stdio_output@@AEAA_NXZ 0000000180065b30 f i libucrtd:output.obj
 0001:00064c10       ?state_case_normal@?$output_processor@DV?$string_output_adapter@D@__crt_stdio_output@@V?$standard_base@DV?$string_output_adapter@D@__crt_stdio_output@@@2@@__crt_stdio_output@@AEAA_NXZ 0000000180065c10 f i libucrtd:output.obj
 0001:00064cf0       ?state_case_normal@?$output_processor@_WV?$stream_output_adapter@_W@__crt_stdio_output@@V?$format_validation_base@_WV?$stream_output_adapter@_W@__crt_stdio_output@@@2@@__crt_stdio_output@@AEAA_NXZ 0000000180065cf0 f i libucrtd:output.obj
 0001:00064dd0       ?state_case_normal@?$output_processor@_WV?$stream_output_adapter@_W@__crt_stdio_output@@V?$positional_parameter_base@_WV?$stream_output_adapter@_W@__crt_stdio_output@@@2@@__crt_stdio_output@@AEAA_NXZ 0000000180065dd0 f i libucrtd:output.obj
 0001:00064eb0       ?state_case_normal@?$output_processor@_WV?$stream_output_adapter@_W@__crt_stdio_output@@V?$standard_base@_WV?$stream_output_adapter@_W@__crt_stdio_output@@@2@@__crt_stdio_output@@AEAA_NXZ 0000000180065eb0 f i libucrtd:output.obj
 0001:00064f90       ?state_case_normal@?$output_processor@_WV?$string_output_adapter@_W@__crt_stdio_output@@V?$format_validation_base@_WV?$string_output_adapter@_W@__crt_stdio_output@@@2@@__crt_stdio_output@@AEAA_NXZ 0000000180065f90 f i libucrtd:output.obj
 0001:00065070       ?state_case_normal@?$output_processor@_WV?$string_output_adapter@_W@__crt_stdio_output@@V?$positional_parameter_base@_WV?$string_output_adapter@_W@__crt_stdio_output@@@2@@__crt_stdio_output@@AEAA_NXZ 0000000180066070 f i libucrtd:output.obj
 0001:00065150       ?state_case_normal@?$output_processor@_WV?$string_output_adapter@_W@__crt_stdio_output@@V?$standard_base@_WV?$string_output_adapter@_W@__crt_stdio_output@@@2@@__crt_stdio_output@@AEAA_NXZ 0000000180066150 f i libucrtd:output.obj
 0001:00065230       ?state_case_normal_common@?$output_processor@DV?$stream_output_adapter@D@__crt_stdio_output@@V?$format_validation_base@DV?$stream_output_adapter@D@__crt_stdio_output@@@2@@__crt_stdio_output@@AEAA_NXZ 0000000180066230 f i libucrtd:output.obj
 0001:00065280       ?state_case_normal_common@?$output_processor@DV?$stream_output_adapter@D@__crt_stdio_output@@V?$positional_parameter_base@DV?$stream_output_adapter@D@__crt_stdio_output@@@2@@__crt_stdio_output@@AEAA_NXZ 0000000180066280 f i libucrtd:output.obj
 0001:000652d0       ?state_case_normal_common@?$output_processor@DV?$stream_output_adapter@D@__crt_stdio_output@@V?$standard_base@DV?$stream_output_adapter@D@__crt_stdio_output@@@2@@__crt_stdio_output@@AEAA_NXZ 00000001800662d0 f i libucrtd:output.obj
 0001:00065320       ?state_case_normal_common@?$output_processor@DV?$string_output_adapter@D@__crt_stdio_output@@V?$format_validation_base@DV?$string_output_adapter@D@__crt_stdio_output@@@2@@__crt_stdio_output@@AEAA_NXZ 0000000180066320 f i libucrtd:output.obj
 0001:00065370       ?state_case_normal_common@?$output_processor@DV?$string_output_adapter@D@__crt_stdio_output@@V?$positional_parameter_base@DV?$string_output_adapter@D@__crt_stdio_output@@@2@@__crt_stdio_output@@AEAA_NXZ 0000000180066370 f i libucrtd:output.obj
 0001:000653c0       ?state_case_normal_common@?$output_processor@DV?$string_output_adapter@D@__crt_stdio_output@@V?$standard_base@DV?$string_output_adapter@D@__crt_stdio_output@@@2@@__crt_stdio_output@@AEAA_NXZ 00000001800663c0 f i libucrtd:output.obj
 0001:00065410       ?state_case_normal_common@?$output_processor@_WV?$stream_output_adapter@_W@__crt_stdio_output@@V?$format_validation_base@_WV?$stream_output_adapter@_W@__crt_stdio_output@@@2@@__crt_stdio_output@@AEAA_NXZ 0000000180066410 f i libucrtd:output.obj
 0001:00065460       ?state_case_normal_common@?$output_processor@_WV?$stream_output_adapter@_W@__crt_stdio_output@@V?$positional_parameter_base@_WV?$stream_output_adapter@_W@__crt_stdio_output@@@2@@__crt_stdio_output@@AEAA_NXZ 0000000180066460 f i libucrtd:output.obj
 0001:000654b0       ?state_case_normal_common@?$output_processor@_WV?$stream_output_adapter@_W@__crt_stdio_output@@V?$standard_base@_WV?$stream_output_adapter@_W@__crt_stdio_output@@@2@@__crt_stdio_output@@AEAA_NXZ 00000001800664b0 f i libucrtd:output.obj
 0001:00065500       ?state_case_normal_common@?$output_processor@_WV?$string_output_adapter@_W@__crt_stdio_output@@V?$format_validation_base@_WV?$string_output_adapter@_W@__crt_stdio_output@@@2@@__crt_stdio_output@@AEAA_NXZ 0000000180066500 f i libucrtd:output.obj
 0001:00065550       ?state_case_normal_common@?$output_processor@_WV?$string_output_adapter@_W@__crt_stdio_output@@V?$positional_parameter_base@_WV?$string_output_adapter@_W@__crt_stdio_output@@@2@@__crt_stdio_output@@AEAA_NXZ 0000000180066550 f i libucrtd:output.obj
 0001:000655a0       ?state_case_normal_common@?$output_processor@_WV?$string_output_adapter@_W@__crt_stdio_output@@V?$standard_base@_WV?$string_output_adapter@_W@__crt_stdio_output@@@2@@__crt_stdio_output@@AEAA_NXZ 00000001800665a0 f i libucrtd:output.obj
 0001:000655f0       ?state_case_normal_tchar@?$output_processor@DV?$stream_output_adapter@D@__crt_stdio_output@@V?$format_validation_base@DV?$stream_output_adapter@D@__crt_stdio_output@@@2@@__crt_stdio_output@@AEAA_ND@Z 00000001800665f0 f i libucrtd:output.obj
 0001:00065730       ?state_case_normal_tchar@?$output_processor@DV?$stream_output_adapter@D@__crt_stdio_output@@V?$positional_parameter_base@DV?$stream_output_adapter@D@__crt_stdio_output@@@2@@__crt_stdio_output@@AEAA_ND@Z 0000000180066730 f i libucrtd:output.obj
 0001:00065870       ?state_case_normal_tchar@?$output_processor@DV?$stream_output_adapter@D@__crt_stdio_output@@V?$standard_base@DV?$stream_output_adapter@D@__crt_stdio_output@@@2@@__crt_stdio_output@@AEAA_ND@Z 0000000180066870 f i libucrtd:output.obj
 0001:000659b0       ?state_case_normal_tchar@?$output_processor@DV?$string_output_adapter@D@__crt_stdio_output@@V?$format_validation_base@DV?$string_output_adapter@D@__crt_stdio_output@@@2@@__crt_stdio_output@@AEAA_ND@Z 00000001800669b0 f i libucrtd:output.obj
 0001:00065af0       ?state_case_normal_tchar@?$output_processor@DV?$string_output_adapter@D@__crt_stdio_output@@V?$positional_parameter_base@DV?$string_output_adapter@D@__crt_stdio_output@@@2@@__crt_stdio_output@@AEAA_ND@Z 0000000180066af0 f i libucrtd:output.obj
 0001:00065c30       ?state_case_normal_tchar@?$output_processor@DV?$string_output_adapter@D@__crt_stdio_output@@V?$standard_base@DV?$string_output_adapter@D@__crt_stdio_output@@@2@@__crt_stdio_output@@AEAA_ND@Z 0000000180066c30 f i libucrtd:output.obj
 0001:00065d70       ?state_case_normal_tchar@?$output_processor@_WV?$stream_output_adapter@_W@__crt_stdio_output@@V?$format_validation_base@_WV?$stream_output_adapter@_W@__crt_stdio_output@@@2@@__crt_stdio_output@@AEAA_N_W@Z 0000000180066d70 f i libucrtd:output.obj
 0001:00065d90       ?state_case_normal_tchar@?$output_processor@_WV?$stream_output_adapter@_W@__crt_stdio_output@@V?$positional_parameter_base@_WV?$stream_output_adapter@_W@__crt_stdio_output@@@2@@__crt_stdio_output@@AEAA_N_W@Z 0000000180066d90 f i libucrtd:output.obj
 0001:00065db0       ?state_case_normal_tchar@?$output_processor@_WV?$stream_output_adapter@_W@__crt_stdio_output@@V?$standard_base@_WV?$stream_output_adapter@_W@__crt_stdio_output@@@2@@__crt_stdio_output@@AEAA_N_W@Z 0000000180066db0 f i libucrtd:output.obj
 0001:00065dd0       ?state_case_normal_tchar@?$output_processor@_WV?$string_output_adapter@_W@__crt_stdio_output@@V?$format_validation_base@_WV?$string_output_adapter@_W@__crt_stdio_output@@@2@@__crt_stdio_output@@AEAA_N_W@Z 0000000180066dd0 f i libucrtd:output.obj
 0001:00065df0       ?state_case_normal_tchar@?$output_processor@_WV?$string_output_adapter@_W@__crt_stdio_output@@V?$positional_parameter_base@_WV?$string_output_adapter@_W@__crt_stdio_output@@@2@@__crt_stdio_output@@AEAA_N_W@Z 0000000180066df0 f i libucrtd:output.obj
 0001:00065e10       ?state_case_normal_tchar@?$output_processor@_WV?$string_output_adapter@_W@__crt_stdio_output@@V?$standard_base@_WV?$string_output_adapter@_W@__crt_stdio_output@@@2@@__crt_stdio_output@@AEAA_N_W@Z 0000000180066e10 f i libucrtd:output.obj
 0001:00065e30       ?state_case_percent@?$output_processor@DV?$stream_output_adapter@D@__crt_stdio_output@@V?$format_validation_base@DV?$stream_output_adapter@D@__crt_stdio_output@@@2@@__crt_stdio_output@@AEAA_NXZ 0000000180066e30 f i libucrtd:output.obj
 0001:00065e80       ?state_case_percent@?$output_processor@DV?$stream_output_adapter@D@__crt_stdio_output@@V?$positional_parameter_base@DV?$stream_output_adapter@D@__crt_stdio_output@@@2@@__crt_stdio_output@@AEAA_NXZ 0000000180066e80 f i libucrtd:output.obj
 0001:00065ed0       ?state_case_percent@?$output_processor@DV?$stream_output_adapter@D@__crt_stdio_output@@V?$standard_base@DV?$stream_output_adapter@D@__crt_stdio_output@@@2@@__crt_stdio_output@@AEAA_NXZ 0000000180066ed0 f i libucrtd:output.obj
 0001:00065f20       ?state_case_percent@?$output_processor@DV?$string_output_adapter@D@__crt_stdio_output@@V?$format_validation_base@DV?$string_output_adapter@D@__crt_stdio_output@@@2@@__crt_stdio_output@@AEAA_NXZ 0000000180066f20 f i libucrtd:output.obj
 0001:00065f70       ?state_case_percent@?$output_processor@DV?$string_output_adapter@D@__crt_stdio_output@@V?$positional_parameter_base@DV?$string_output_adapter@D@__crt_stdio_output@@@2@@__crt_stdio_output@@AEAA_NXZ 0000000180066f70 f i libucrtd:output.obj
 0001:00065fc0       ?state_case_percent@?$output_processor@DV?$string_output_adapter@D@__crt_stdio_output@@V?$standard_base@DV?$string_output_adapter@D@__crt_stdio_output@@@2@@__crt_stdio_output@@AEAA_NXZ 0000000180066fc0 f i libucrtd:output.obj
 0001:00066010       ?state_case_percent@?$output_processor@_WV?$stream_output_adapter@_W@__crt_stdio_output@@V?$format_validation_base@_WV?$stream_output_adapter@_W@__crt_stdio_output@@@2@@__crt_stdio_output@@AEAA_NXZ 0000000180067010 f i libucrtd:output.obj
 0001:00066060       ?state_case_percent@?$output_processor@_WV?$stream_output_adapter@_W@__crt_stdio_output@@V?$positional_parameter_base@_WV?$stream_output_adapter@_W@__crt_stdio_output@@@2@@__crt_stdio_output@@AEAA_NXZ 0000000180067060 f i libucrtd:output.obj
 0001:000660b0       ?state_case_percent@?$output_processor@_WV?$stream_output_adapter@_W@__crt_stdio_output@@V?$standard_base@_WV?$stream_output_adapter@_W@__crt_stdio_output@@@2@@__crt_stdio_output@@AEAA_NXZ 00000001800670b0 f i libucrtd:output.obj
 0001:00066100       ?state_case_percent@?$output_processor@_WV?$string_output_adapter@_W@__crt_stdio_output@@V?$format_validation_base@_WV?$string_output_adapter@_W@__crt_stdio_output@@@2@@__crt_stdio_output@@AEAA_NXZ 0000000180067100 f i libucrtd:output.obj
 0001:00066150       ?state_case_percent@?$output_processor@_WV?$string_output_adapter@_W@__crt_stdio_output@@V?$positional_parameter_base@_WV?$string_output_adapter@_W@__crt_stdio_output@@@2@@__crt_stdio_output@@AEAA_NXZ 0000000180067150 f i libucrtd:output.obj
 0001:000661a0       ?state_case_percent@?$output_processor@_WV?$string_output_adapter@_W@__crt_stdio_output@@V?$standard_base@_WV?$string_output_adapter@_W@__crt_stdio_output@@@2@@__crt_stdio_output@@AEAA_NXZ 00000001800671a0 f i libucrtd:output.obj
 0001:000661f0       ?state_case_precision@?$output_processor@DV?$stream_output_adapter@D@__crt_stdio_output@@V?$format_validation_base@DV?$stream_output_adapter@D@__crt_stdio_output@@@2@@__crt_stdio_output@@AEAA_NXZ 00000001800671f0 f i libucrtd:output.obj
 0001:00066270       ?state_case_precision@?$output_processor@DV?$stream_output_adapter@D@__crt_stdio_output@@V?$positional_parameter_base@DV?$stream_output_adapter@D@__crt_stdio_output@@@2@@__crt_stdio_output@@AEAA_NXZ 0000000180067270 f i libucrtd:output.obj
 0001:000662f0       ?state_case_precision@?$output_processor@DV?$stream_output_adapter@D@__crt_stdio_output@@V?$standard_base@DV?$stream_output_adapter@D@__crt_stdio_output@@@2@@__crt_stdio_output@@AEAA_NXZ 00000001800672f0 f i libucrtd:output.obj
 0001:00066370       ?state_case_precision@?$output_processor@DV?$string_output_adapter@D@__crt_stdio_output@@V?$format_validation_base@DV?$string_output_adapter@D@__crt_stdio_output@@@2@@__crt_stdio_output@@AEAA_NXZ 0000000180067370 f i libucrtd:output.obj
 0001:000663f0       ?state_case_precision@?$output_processor@DV?$string_output_adapter@D@__crt_stdio_output@@V?$positional_parameter_base@DV?$string_output_adapter@D@__crt_stdio_output@@@2@@__crt_stdio_output@@AEAA_NXZ 00000001800673f0 f i libucrtd:output.obj
 0001:00066470       ?state_case_precision@?$output_processor@DV?$string_output_adapter@D@__crt_stdio_output@@V?$standard_base@DV?$string_output_adapter@D@__crt_stdio_output@@@2@@__crt_stdio_output@@AEAA_NXZ 0000000180067470 f i libucrtd:output.obj
 0001:000664f0       ?state_case_precision@?$output_processor@_WV?$stream_output_adapter@_W@__crt_stdio_output@@V?$format_validation_base@_WV?$stream_output_adapter@_W@__crt_stdio_output@@@2@@__crt_stdio_output@@AEAA_NXZ 00000001800674f0 f i libucrtd:output.obj
 0001:00066570       ?state_case_precision@?$output_processor@_WV?$stream_output_adapter@_W@__crt_stdio_output@@V?$positional_parameter_base@_WV?$stream_output_adapter@_W@__crt_stdio_output@@@2@@__crt_stdio_output@@AEAA_NXZ 0000000180067570 f i libucrtd:output.obj
 0001:000665f0       ?state_case_precision@?$output_processor@_WV?$stream_output_adapter@_W@__crt_stdio_output@@V?$standard_base@_WV?$stream_output_adapter@_W@__crt_stdio_output@@@2@@__crt_stdio_output@@AEAA_NXZ 00000001800675f0 f i libucrtd:output.obj
 0001:00066670       ?state_case_precision@?$output_processor@_WV?$string_output_adapter@_W@__crt_stdio_output@@V?$format_validation_base@_WV?$string_output_adapter@_W@__crt_stdio_output@@@2@@__crt_stdio_output@@AEAA_NXZ 0000000180067670 f i libucrtd:output.obj
 0001:000666f0       ?state_case_precision@?$output_processor@_WV?$string_output_adapter@_W@__crt_stdio_output@@V?$positional_parameter_base@_WV?$string_output_adapter@_W@__crt_stdio_output@@@2@@__crt_stdio_output@@AEAA_NXZ 00000001800676f0 f i libucrtd:output.obj
 0001:00066770       ?state_case_precision@?$output_processor@_WV?$string_output_adapter@_W@__crt_stdio_output@@V?$standard_base@_WV?$string_output_adapter@_W@__crt_stdio_output@@@2@@__crt_stdio_output@@AEAA_NXZ 0000000180067770 f i libucrtd:output.obj
 0001:000667f0       ?state_case_size@?$output_processor@DV?$stream_output_adapter@D@__crt_stdio_output@@V?$format_validation_base@DV?$stream_output_adapter@D@__crt_stdio_output@@@2@@__crt_stdio_output@@AEAA_NXZ 00000001800677f0 f i libucrtd:output.obj
 0001:00066c70       ?state_case_size@?$output_processor@DV?$stream_output_adapter@D@__crt_stdio_output@@V?$positional_parameter_base@DV?$stream_output_adapter@D@__crt_stdio_output@@@2@@__crt_stdio_output@@AEAA_NXZ 0000000180067c70 f i libucrtd:output.obj
 0001:000670f0       ?state_case_size@?$output_processor@DV?$stream_output_adapter@D@__crt_stdio_output@@V?$standard_base@DV?$stream_output_adapter@D@__crt_stdio_output@@@2@@__crt_stdio_output@@AEAA_NXZ 00000001800680f0 f i libucrtd:output.obj
 0001:00067570       ?state_case_size@?$output_processor@DV?$string_output_adapter@D@__crt_stdio_output@@V?$format_validation_base@DV?$string_output_adapter@D@__crt_stdio_output@@@2@@__crt_stdio_output@@AEAA_NXZ 0000000180068570 f i libucrtd:output.obj
 0001:000679f0       ?state_case_size@?$output_processor@DV?$string_output_adapter@D@__crt_stdio_output@@V?$positional_parameter_base@DV?$string_output_adapter@D@__crt_stdio_output@@@2@@__crt_stdio_output@@AEAA_NXZ 00000001800689f0 f i libucrtd:output.obj
 0001:00067e70       ?state_case_size@?$output_processor@DV?$string_output_adapter@D@__crt_stdio_output@@V?$standard_base@DV?$string_output_adapter@D@__crt_stdio_output@@@2@@__crt_stdio_output@@AEAA_NXZ 0000000180068e70 f i libucrtd:output.obj
 0001:000682f0       ?state_case_size@?$output_processor@_WV?$stream_output_adapter@_W@__crt_stdio_output@@V?$format_validation_base@_WV?$stream_output_adapter@_W@__crt_stdio_output@@@2@@__crt_stdio_output@@AEAA_NXZ 00000001800692f0 f i libucrtd:output.obj
 0001:00068770       ?state_case_size@?$output_processor@_WV?$stream_output_adapter@_W@__crt_stdio_output@@V?$positional_parameter_base@_WV?$stream_output_adapter@_W@__crt_stdio_output@@@2@@__crt_stdio_output@@AEAA_NXZ 0000000180069770 f i libucrtd:output.obj
 0001:00068bf0       ?state_case_size@?$output_processor@_WV?$stream_output_adapter@_W@__crt_stdio_output@@V?$standard_base@_WV?$stream_output_adapter@_W@__crt_stdio_output@@@2@@__crt_stdio_output@@AEAA_NXZ 0000000180069bf0 f i libucrtd:output.obj
 0001:00069070       ?state_case_size@?$output_processor@_WV?$string_output_adapter@_W@__crt_stdio_output@@V?$format_validation_base@_WV?$string_output_adapter@_W@__crt_stdio_output@@@2@@__crt_stdio_output@@AEAA_NXZ 000000018006a070 f i libucrtd:output.obj
 0001:000694f0       ?state_case_size@?$output_processor@_WV?$string_output_adapter@_W@__crt_stdio_output@@V?$positional_parameter_base@_WV?$string_output_adapter@_W@__crt_stdio_output@@@2@@__crt_stdio_output@@AEAA_NXZ 000000018006a4f0 f i libucrtd:output.obj
 0001:00069970       ?state_case_size@?$output_processor@_WV?$string_output_adapter@_W@__crt_stdio_output@@V?$standard_base@_WV?$string_output_adapter@_W@__crt_stdio_output@@@2@@__crt_stdio_output@@AEAA_NXZ 000000018006a970 f i libucrtd:output.obj
 0001:00069df0       ?state_case_type@?$output_processor@DV?$stream_output_adapter@D@__crt_stdio_output@@V?$format_validation_base@DV?$stream_output_adapter@D@__crt_stdio_output@@@2@@__crt_stdio_output@@AEAA_NXZ 000000018006adf0 f i libucrtd:output.obj
 0001:0006a290       ?state_case_type@?$output_processor@DV?$stream_output_adapter@D@__crt_stdio_output@@V?$positional_parameter_base@DV?$stream_output_adapter@D@__crt_stdio_output@@@2@@__crt_stdio_output@@AEAA_NXZ 000000018006b290 f i libucrtd:output.obj
 0001:0006a730       ?state_case_type@?$output_processor@DV?$stream_output_adapter@D@__crt_stdio_output@@V?$standard_base@DV?$stream_output_adapter@D@__crt_stdio_output@@@2@@__crt_stdio_output@@AEAA_NXZ 000000018006b730 f i libucrtd:output.obj
 0001:0006abd0       ?state_case_type@?$output_processor@DV?$string_output_adapter@D@__crt_stdio_output@@V?$format_validation_base@DV?$string_output_adapter@D@__crt_stdio_output@@@2@@__crt_stdio_output@@AEAA_NXZ 000000018006bbd0 f i libucrtd:output.obj
 0001:0006b070       ?state_case_type@?$output_processor@DV?$string_output_adapter@D@__crt_stdio_output@@V?$positional_parameter_base@DV?$string_output_adapter@D@__crt_stdio_output@@@2@@__crt_stdio_output@@AEAA_NXZ 000000018006c070 f i libucrtd:output.obj
 0001:0006b510       ?state_case_type@?$output_processor@DV?$string_output_adapter@D@__crt_stdio_output@@V?$standard_base@DV?$string_output_adapter@D@__crt_stdio_output@@@2@@__crt_stdio_output@@AEAA_NXZ 000000018006c510 f i libucrtd:output.obj
 0001:0006b9b0       ?state_case_type@?$output_processor@_WV?$stream_output_adapter@_W@__crt_stdio_output@@V?$format_validation_base@_WV?$stream_output_adapter@_W@__crt_stdio_output@@@2@@__crt_stdio_output@@AEAA_NXZ 000000018006c9b0 f i libucrtd:output.obj
 0001:0006bf10       ?state_case_type@?$output_processor@_WV?$stream_output_adapter@_W@__crt_stdio_output@@V?$positional_parameter_base@_WV?$stream_output_adapter@_W@__crt_stdio_output@@@2@@__crt_stdio_output@@AEAA_NXZ 000000018006cf10 f i libucrtd:output.obj
 0001:0006c470       ?state_case_type@?$output_processor@_WV?$stream_output_adapter@_W@__crt_stdio_output@@V?$standard_base@_WV?$stream_output_adapter@_W@__crt_stdio_output@@@2@@__crt_stdio_output@@AEAA_NXZ 000000018006d470 f i libucrtd:output.obj
 0001:0006c9d0       ?state_case_type@?$output_processor@_WV?$string_output_adapter@_W@__crt_stdio_output@@V?$format_validation_base@_WV?$string_output_adapter@_W@__crt_stdio_output@@@2@@__crt_stdio_output@@AEAA_NXZ 000000018006d9d0 f i libucrtd:output.obj
 0001:0006cf30       ?state_case_type@?$output_processor@_WV?$string_output_adapter@_W@__crt_stdio_output@@V?$positional_parameter_base@_WV?$string_output_adapter@_W@__crt_stdio_output@@@2@@__crt_stdio_output@@AEAA_NXZ 000000018006df30 f i libucrtd:output.obj
 0001:0006d490       ?state_case_type@?$output_processor@_WV?$string_output_adapter@_W@__crt_stdio_output@@V?$standard_base@_WV?$string_output_adapter@_W@__crt_stdio_output@@@2@@__crt_stdio_output@@AEAA_NXZ 000000018006e490 f i libucrtd:output.obj
 0001:0006d9f0       ?state_case_width@?$output_processor@DV?$stream_output_adapter@D@__crt_stdio_output@@V?$format_validation_base@DV?$stream_output_adapter@D@__crt_stdio_output@@@2@@__crt_stdio_output@@AEAA_NXZ 000000018006e9f0 f i libucrtd:output.obj
 0001:0006da80       ?state_case_width@?$output_processor@DV?$stream_output_adapter@D@__crt_stdio_output@@V?$positional_parameter_base@DV?$stream_output_adapter@D@__crt_stdio_output@@@2@@__crt_stdio_output@@AEAA_NXZ 000000018006ea80 f i libucrtd:output.obj
 0001:0006db10       ?state_case_width@?$output_processor@DV?$stream_output_adapter@D@__crt_stdio_output@@V?$standard_base@DV?$stream_output_adapter@D@__crt_stdio_output@@@2@@__crt_stdio_output@@AEAA_NXZ 000000018006eb10 f i libucrtd:output.obj
 0001:0006dba0       ?state_case_width@?$output_processor@DV?$string_output_adapter@D@__crt_stdio_output@@V?$format_validation_base@DV?$string_output_adapter@D@__crt_stdio_output@@@2@@__crt_stdio_output@@AEAA_NXZ 000000018006eba0 f i libucrtd:output.obj
 0001:0006dc30       ?state_case_width@?$output_processor@DV?$string_output_adapter@D@__crt_stdio_output@@V?$positional_parameter_base@DV?$string_output_adapter@D@__crt_stdio_output@@@2@@__crt_stdio_output@@AEAA_NXZ 000000018006ec30 f i libucrtd:output.obj
 0001:0006dcc0       ?state_case_width@?$output_processor@DV?$string_output_adapter@D@__crt_stdio_output@@V?$standard_base@DV?$string_output_adapter@D@__crt_stdio_output@@@2@@__crt_stdio_output@@AEAA_NXZ 000000018006ecc0 f i libucrtd:output.obj
 0001:0006dd50       ?state_case_width@?$output_processor@_WV?$stream_output_adapter@_W@__crt_stdio_output@@V?$format_validation_base@_WV?$stream_output_adapter@_W@__crt_stdio_output@@@2@@__crt_stdio_output@@AEAA_NXZ 000000018006ed50 f i libucrtd:output.obj
 0001:0006dde0       ?state_case_width@?$output_processor@_WV?$stream_output_adapter@_W@__crt_stdio_output@@V?$positional_parameter_base@_WV?$stream_output_adapter@_W@__crt_stdio_output@@@2@@__crt_stdio_output@@AEAA_NXZ 000000018006ede0 f i libucrtd:output.obj
 0001:0006de70       ?state_case_width@?$output_processor@_WV?$stream_output_adapter@_W@__crt_stdio_output@@V?$standard_base@_WV?$stream_output_adapter@_W@__crt_stdio_output@@@2@@__crt_stdio_output@@AEAA_NXZ 000000018006ee70 f i libucrtd:output.obj
 0001:0006df00       ?state_case_width@?$output_processor@_WV?$string_output_adapter@_W@__crt_stdio_output@@V?$format_validation_base@_WV?$string_output_adapter@_W@__crt_stdio_output@@@2@@__crt_stdio_output@@AEAA_NXZ 000000018006ef00 f i libucrtd:output.obj
 0001:0006df90       ?state_case_width@?$output_processor@_WV?$string_output_adapter@_W@__crt_stdio_output@@V?$positional_parameter_base@_WV?$string_output_adapter@_W@__crt_stdio_output@@@2@@__crt_stdio_output@@AEAA_NXZ 000000018006ef90 f i libucrtd:output.obj
 0001:0006e020       ?state_case_width@?$output_processor@_WV?$string_output_adapter@_W@__crt_stdio_output@@V?$standard_base@_WV?$string_output_adapter@_W@__crt_stdio_output@@@2@@__crt_stdio_output@@AEAA_NXZ 000000018006f020 f i libucrtd:output.obj
 0001:0006e0b0       ?state_count@?$format_validation_base@DV?$stream_output_adapter@D@__crt_stdio_output@@@__crt_stdio_output@@KAIXZ 000000018006f0b0 f i libucrtd:output.obj
 0001:0006e0c0       ?state_count@?$format_validation_base@DV?$string_output_adapter@D@__crt_stdio_output@@@__crt_stdio_output@@KAIXZ 000000018006f0c0 f i libucrtd:output.obj
 0001:0006e0d0       ?state_count@?$format_validation_base@_WV?$stream_output_adapter@_W@__crt_stdio_output@@@__crt_stdio_output@@KAIXZ 000000018006f0d0 f i libucrtd:output.obj
 0001:0006e0e0       ?state_count@?$format_validation_base@_WV?$string_output_adapter@_W@__crt_stdio_output@@@__crt_stdio_output@@KAIXZ 000000018006f0e0 f i libucrtd:output.obj
 0001:0006e0f0       ?state_count@?$standard_base@DV?$stream_output_adapter@D@__crt_stdio_output@@@__crt_stdio_output@@KAIXZ 000000018006f0f0 f i libucrtd:output.obj
 0001:0006e100       ?state_count@?$standard_base@DV?$string_output_adapter@D@__crt_stdio_output@@@__crt_stdio_output@@KAIXZ 000000018006f100 f i libucrtd:output.obj
 0001:0006e110       ?state_count@?$standard_base@_WV?$stream_output_adapter@_W@__crt_stdio_output@@@__crt_stdio_output@@KAIXZ 000000018006f110 f i libucrtd:output.obj
 0001:0006e120       ?state_count@?$standard_base@_WV?$string_output_adapter@_W@__crt_stdio_output@@@__crt_stdio_output@@KAIXZ 000000018006f120 f i libucrtd:output.obj
 0001:0006e130       ?state_transition_table@?$format_validation_base@DV?$stream_output_adapter@D@__crt_stdio_output@@@__crt_stdio_output@@KAPEBEXZ 000000018006f130 f i libucrtd:output.obj
 0001:0006e140       ?state_transition_table@?$format_validation_base@DV?$string_output_adapter@D@__crt_stdio_output@@@__crt_stdio_output@@KAPEBEXZ 000000018006f140 f i libucrtd:output.obj
 0001:0006e150       ?state_transition_table@?$format_validation_base@_WV?$stream_output_adapter@_W@__crt_stdio_output@@@__crt_stdio_output@@KAPEBEXZ 000000018006f150 f i libucrtd:output.obj
 0001:0006e160       ?state_transition_table@?$format_validation_base@_WV?$string_output_adapter@_W@__crt_stdio_output@@@__crt_stdio_output@@KAPEBEXZ 000000018006f160 f i libucrtd:output.obj
 0001:0006e170       ?state_transition_table@?$standard_base@DV?$stream_output_adapter@D@__crt_stdio_output@@@__crt_stdio_output@@KAPEBEXZ 000000018006f170 f i libucrtd:output.obj
 0001:0006e180       ?state_transition_table@?$standard_base@DV?$string_output_adapter@D@__crt_stdio_output@@@__crt_stdio_output@@KAPEBEXZ 000000018006f180 f i libucrtd:output.obj
 0001:0006e190       ?state_transition_table@?$standard_base@_WV?$stream_output_adapter@_W@__crt_stdio_output@@@__crt_stdio_output@@KAPEBEXZ 000000018006f190 f i libucrtd:output.obj
 0001:0006e1a0       ?state_transition_table@?$standard_base@_WV?$string_output_adapter@_W@__crt_stdio_output@@@__crt_stdio_output@@KAPEBEXZ 000000018006f1a0 f i libucrtd:output.obj
 0001:0006e1b0       ?tchar_string@?$common_data@D@__crt_stdio_output@@IEAAAEAPEADD@Z 000000018006f1b0 f i libucrtd:output.obj
 0001:0006e1d0       ?tchar_string@?$common_data@D@__crt_stdio_output@@IEAAAEAPEADXZ 000000018006f1d0 f i libucrtd:output.obj
 0001:0006e1f0       ?tchar_string@?$common_data@_W@__crt_stdio_output@@IEAAAEAPEA_WXZ 000000018006f1f0 f i libucrtd:output.obj
 0001:0006e210       ?tchar_string@?$common_data@_W@__crt_stdio_output@@IEAAAEAPEA_W_W@Z 000000018006f210 f i libucrtd:output.obj
 0001:0006e230       ?to_integer_size@__crt_stdio_output@@YA_KW4length_modifier@1@@Z 000000018006f230 f i libucrtd:output.obj
 0001:0006e2e0       ?type_case_X@?$output_processor@DV?$stream_output_adapter@D@__crt_stdio_output@@V?$format_validation_base@DV?$stream_output_adapter@D@__crt_stdio_output@@@2@@__crt_stdio_output@@AEAA_NXZ 000000018006f2e0 f i libucrtd:output.obj
 0001:0006e300       ?type_case_X@?$output_processor@DV?$stream_output_adapter@D@__crt_stdio_output@@V?$positional_parameter_base@DV?$stream_output_adapter@D@__crt_stdio_output@@@2@@__crt_stdio_output@@AEAA_NXZ 000000018006f300 f i libucrtd:output.obj
 0001:0006e320       ?type_case_X@?$output_processor@DV?$stream_output_adapter@D@__crt_stdio_output@@V?$standard_base@DV?$stream_output_adapter@D@__crt_stdio_output@@@2@@__crt_stdio_output@@AEAA_NXZ 000000018006f320 f i libucrtd:output.obj
 0001:0006e340       ?type_case_X@?$output_processor@DV?$string_output_adapter@D@__crt_stdio_output@@V?$format_validation_base@DV?$string_output_adapter@D@__crt_stdio_output@@@2@@__crt_stdio_output@@AEAA_NXZ 000000018006f340 f i libucrtd:output.obj
 0001:0006e360       ?type_case_X@?$output_processor@DV?$string_output_adapter@D@__crt_stdio_output@@V?$positional_parameter_base@DV?$string_output_adapter@D@__crt_stdio_output@@@2@@__crt_stdio_output@@AEAA_NXZ 000000018006f360 f i libucrtd:output.obj
 0001:0006e380       ?type_case_X@?$output_processor@DV?$string_output_adapter@D@__crt_stdio_output@@V?$standard_base@DV?$string_output_adapter@D@__crt_stdio_output@@@2@@__crt_stdio_output@@AEAA_NXZ 000000018006f380 f i libucrtd:output.obj
 0001:0006e3a0       ?type_case_X@?$output_processor@_WV?$stream_output_adapter@_W@__crt_stdio_output@@V?$format_validation_base@_WV?$stream_output_adapter@_W@__crt_stdio_output@@@2@@__crt_stdio_output@@AEAA_NXZ 000000018006f3a0 f i libucrtd:output.obj
 0001:0006e3c0       ?type_case_X@?$output_processor@_WV?$stream_output_adapter@_W@__crt_stdio_output@@V?$positional_parameter_base@_WV?$stream_output_adapter@_W@__crt_stdio_output@@@2@@__crt_stdio_output@@AEAA_NXZ 000000018006f3c0 f i libucrtd:output.obj
 0001:0006e3e0       ?type_case_X@?$output_processor@_WV?$stream_output_adapter@_W@__crt_stdio_output@@V?$standard_base@_WV?$stream_output_adapter@_W@__crt_stdio_output@@@2@@__crt_stdio_output@@AEAA_NXZ 000000018006f3e0 f i libucrtd:output.obj
 0001:0006e400       ?type_case_X@?$output_processor@_WV?$string_output_adapter@_W@__crt_stdio_output@@V?$format_validation_base@_WV?$string_output_adapter@_W@__crt_stdio_output@@@2@@__crt_stdio_output@@AEAA_NXZ 000000018006f400 f i libucrtd:output.obj
 0001:0006e420       ?type_case_X@?$output_processor@_WV?$string_output_adapter@_W@__crt_stdio_output@@V?$positional_parameter_base@_WV?$string_output_adapter@_W@__crt_stdio_output@@@2@@__crt_stdio_output@@AEAA_NXZ 000000018006f420 f i libucrtd:output.obj
 0001:0006e440       ?type_case_X@?$output_processor@_WV?$string_output_adapter@_W@__crt_stdio_output@@V?$standard_base@_WV?$string_output_adapter@_W@__crt_stdio_output@@@2@@__crt_stdio_output@@AEAA_NXZ 000000018006f440 f i libucrtd:output.obj
 0001:0006e460       ?type_case_Z@?$output_processor@DV?$stream_output_adapter@D@__crt_stdio_output@@V?$format_validation_base@DV?$stream_output_adapter@D@__crt_stdio_output@@@2@@__crt_stdio_output@@AEAA_NXZ 000000018006f460 f i libucrtd:output.obj
 0001:0006e580       ?type_case_Z@?$output_processor@DV?$stream_output_adapter@D@__crt_stdio_output@@V?$positional_parameter_base@DV?$stream_output_adapter@D@__crt_stdio_output@@@2@@__crt_stdio_output@@AEAA_NXZ 000000018006f580 f i libucrtd:output.obj
 0001:0006e6a0       ?type_case_Z@?$output_processor@DV?$stream_output_adapter@D@__crt_stdio_output@@V?$standard_base@DV?$stream_output_adapter@D@__crt_stdio_output@@@2@@__crt_stdio_output@@AEAA_NXZ 000000018006f6a0 f i libucrtd:output.obj
 0001:0006e7c0       ?type_case_Z@?$output_processor@DV?$string_output_adapter@D@__crt_stdio_output@@V?$format_validation_base@DV?$string_output_adapter@D@__crt_stdio_output@@@2@@__crt_stdio_output@@AEAA_NXZ 000000018006f7c0 f i libucrtd:output.obj
 0001:0006e8e0       ?type_case_Z@?$output_processor@DV?$string_output_adapter@D@__crt_stdio_output@@V?$positional_parameter_base@DV?$string_output_adapter@D@__crt_stdio_output@@@2@@__crt_stdio_output@@AEAA_NXZ 000000018006f8e0 f i libucrtd:output.obj
 0001:0006ea00       ?type_case_Z@?$output_processor@DV?$string_output_adapter@D@__crt_stdio_output@@V?$standard_base@DV?$string_output_adapter@D@__crt_stdio_output@@@2@@__crt_stdio_output@@AEAA_NXZ 000000018006fa00 f i libucrtd:output.obj
 0001:0006eb20       ?type_case_Z@?$output_processor@_WV?$stream_output_adapter@_W@__crt_stdio_output@@V?$format_validation_base@_WV?$stream_output_adapter@_W@__crt_stdio_output@@@2@@__crt_stdio_output@@AEAA_NXZ 000000018006fb20 f i libucrtd:output.obj
 0001:0006ec40       ?type_case_Z@?$output_processor@_WV?$stream_output_adapter@_W@__crt_stdio_output@@V?$positional_parameter_base@_WV?$stream_output_adapter@_W@__crt_stdio_output@@@2@@__crt_stdio_output@@AEAA_NXZ 000000018006fc40 f i libucrtd:output.obj
 0001:0006ed60       ?type_case_Z@?$output_processor@_WV?$stream_output_adapter@_W@__crt_stdio_output@@V?$standard_base@_WV?$stream_output_adapter@_W@__crt_stdio_output@@@2@@__crt_stdio_output@@AEAA_NXZ 000000018006fd60 f i libucrtd:output.obj
 0001:0006ee80       ?type_case_Z@?$output_processor@_WV?$string_output_adapter@_W@__crt_stdio_output@@V?$format_validation_base@_WV?$string_output_adapter@_W@__crt_stdio_output@@@2@@__crt_stdio_output@@AEAA_NXZ 000000018006fe80 f i libucrtd:output.obj
 0001:0006efa0       ?type_case_Z@?$output_processor@_WV?$string_output_adapter@_W@__crt_stdio_output@@V?$positional_parameter_base@_WV?$string_output_adapter@_W@__crt_stdio_output@@@2@@__crt_stdio_output@@AEAA_NXZ 000000018006ffa0 f i libucrtd:output.obj
 0001:0006f0c0       ?type_case_Z@?$output_processor@_WV?$string_output_adapter@_W@__crt_stdio_output@@V?$standard_base@_WV?$string_output_adapter@_W@__crt_stdio_output@@@2@@__crt_stdio_output@@AEAA_NXZ 00000001800700c0 f i libucrtd:output.obj
 0001:0006f1e0       ?type_case_a@?$output_processor@DV?$stream_output_adapter@D@__crt_stdio_output@@V?$format_validation_base@DV?$stream_output_adapter@D@__crt_stdio_output@@@2@@__crt_stdio_output@@AEAA_NXZ 00000001800701e0 f i libucrtd:output.obj
 0001:0006f5a0       ?type_case_a@?$output_processor@DV?$stream_output_adapter@D@__crt_stdio_output@@V?$positional_parameter_base@DV?$stream_output_adapter@D@__crt_stdio_output@@@2@@__crt_stdio_output@@AEAA_NXZ 00000001800705a0 f i libucrtd:output.obj
 0001:0006f960       ?type_case_a@?$output_processor@DV?$stream_output_adapter@D@__crt_stdio_output@@V?$standard_base@DV?$stream_output_adapter@D@__crt_stdio_output@@@2@@__crt_stdio_output@@AEAA_NXZ 0000000180070960 f i libucrtd:output.obj
 0001:0006fd20       ?type_case_a@?$output_processor@DV?$string_output_adapter@D@__crt_stdio_output@@V?$format_validation_base@DV?$string_output_adapter@D@__crt_stdio_output@@@2@@__crt_stdio_output@@AEAA_NXZ 0000000180070d20 f i libucrtd:output.obj
 0001:000700e0       ?type_case_a@?$output_processor@DV?$string_output_adapter@D@__crt_stdio_output@@V?$positional_parameter_base@DV?$string_output_adapter@D@__crt_stdio_output@@@2@@__crt_stdio_output@@AEAA_NXZ 00000001800710e0 f i libucrtd:output.obj
 0001:000704a0       ?type_case_a@?$output_processor@DV?$string_output_adapter@D@__crt_stdio_output@@V?$standard_base@DV?$string_output_adapter@D@__crt_stdio_output@@@2@@__crt_stdio_output@@AEAA_NXZ 00000001800714a0 f i libucrtd:output.obj
 0001:00070860       ?type_case_a@?$output_processor@_WV?$stream_output_adapter@_W@__crt_stdio_output@@V?$format_validation_base@_WV?$stream_output_adapter@_W@__crt_stdio_output@@@2@@__crt_stdio_output@@AEAA_NXZ 0000000180071860 f i libucrtd:output.obj
 0001:00070c30       ?type_case_a@?$output_processor@_WV?$stream_output_adapter@_W@__crt_stdio_output@@V?$positional_parameter_base@_WV?$stream_output_adapter@_W@__crt_stdio_output@@@2@@__crt_stdio_output@@AEAA_NXZ 0000000180071c30 f i libucrtd:output.obj
 0001:00071000       ?type_case_a@?$output_processor@_WV?$stream_output_adapter@_W@__crt_stdio_output@@V?$standard_base@_WV?$stream_output_adapter@_W@__crt_stdio_output@@@2@@__crt_stdio_output@@AEAA_NXZ 0000000180072000 f i libucrtd:output.obj
 0001:000713d0       ?type_case_a@?$output_processor@_WV?$string_output_adapter@_W@__crt_stdio_output@@V?$format_validation_base@_WV?$string_output_adapter@_W@__crt_stdio_output@@@2@@__crt_stdio_output@@AEAA_NXZ 00000001800723d0 f i libucrtd:output.obj
 0001:000717a0       ?type_case_a@?$output_processor@_WV?$string_output_adapter@_W@__crt_stdio_output@@V?$positional_parameter_base@_WV?$string_output_adapter@_W@__crt_stdio_output@@@2@@__crt_stdio_output@@AEAA_NXZ 00000001800727a0 f i libucrtd:output.obj
 0001:00071b70       ?type_case_a@?$output_processor@_WV?$string_output_adapter@_W@__crt_stdio_output@@V?$standard_base@_WV?$string_output_adapter@_W@__crt_stdio_output@@@2@@__crt_stdio_output@@AEAA_NXZ 0000000180072b70 f i libucrtd:output.obj
 0001:00071f40       ?type_case_c@?$output_processor@DV?$stream_output_adapter@D@__crt_stdio_output@@V?$format_validation_base@DV?$stream_output_adapter@D@__crt_stdio_output@@@2@@__crt_stdio_output@@AEAA_NXZ 0000000180072f40 f i libucrtd:output.obj
 0001:00071f60       ?type_case_c@?$output_processor@DV?$stream_output_adapter@D@__crt_stdio_output@@V?$positional_parameter_base@DV?$stream_output_adapter@D@__crt_stdio_output@@@2@@__crt_stdio_output@@AEAA_NXZ 0000000180072f60 f i libucrtd:output.obj
 0001:00071f80       ?type_case_c@?$output_processor@DV?$stream_output_adapter@D@__crt_stdio_output@@V?$standard_base@DV?$stream_output_adapter@D@__crt_stdio_output@@@2@@__crt_stdio_output@@AEAA_NXZ 0000000180072f80 f i libucrtd:output.obj
 0001:00071fa0       ?type_case_c@?$output_processor@DV?$string_output_adapter@D@__crt_stdio_output@@V?$format_validation_base@DV?$string_output_adapter@D@__crt_stdio_output@@@2@@__crt_stdio_output@@AEAA_NXZ 0000000180072fa0 f i libucrtd:output.obj
 0001:00071fc0       ?type_case_c@?$output_processor@DV?$string_output_adapter@D@__crt_stdio_output@@V?$positional_parameter_base@DV?$string_output_adapter@D@__crt_stdio_output@@@2@@__crt_stdio_output@@AEAA_NXZ 0000000180072fc0 f i libucrtd:output.obj
 0001:00071fe0       ?type_case_c@?$output_processor@DV?$string_output_adapter@D@__crt_stdio_output@@V?$standard_base@DV?$string_output_adapter@D@__crt_stdio_output@@@2@@__crt_stdio_output@@AEAA_NXZ 0000000180072fe0 f i libucrtd:output.obj
 0001:00072000       ?type_case_c@?$output_processor@_WV?$stream_output_adapter@_W@__crt_stdio_output@@V?$format_validation_base@_WV?$stream_output_adapter@_W@__crt_stdio_output@@@2@@__crt_stdio_output@@AEAA_NXZ 0000000180073000 f i libucrtd:output.obj
 0001:00072020       ?type_case_c@?$output_processor@_WV?$stream_output_adapter@_W@__crt_stdio_output@@V?$positional_parameter_base@_WV?$stream_output_adapter@_W@__crt_stdio_output@@@2@@__crt_stdio_output@@AEAA_NXZ 0000000180073020 f i libucrtd:output.obj
 0001:00072040       ?type_case_c@?$output_processor@_WV?$stream_output_adapter@_W@__crt_stdio_output@@V?$standard_base@_WV?$stream_output_adapter@_W@__crt_stdio_output@@@2@@__crt_stdio_output@@AEAA_NXZ 0000000180073040 f i libucrtd:output.obj
 0001:00072060       ?type_case_c@?$output_processor@_WV?$string_output_adapter@_W@__crt_stdio_output@@V?$format_validation_base@_WV?$string_output_adapter@_W@__crt_stdio_output@@@2@@__crt_stdio_output@@AEAA_NXZ 0000000180073060 f i libucrtd:output.obj
 0001:00072080       ?type_case_c@?$output_processor@_WV?$string_output_adapter@_W@__crt_stdio_output@@V?$positional_parameter_base@_WV?$string_output_adapter@_W@__crt_stdio_output@@@2@@__crt_stdio_output@@AEAA_NXZ 0000000180073080 f i libucrtd:output.obj
 0001:000720a0       ?type_case_c@?$output_processor@_WV?$string_output_adapter@_W@__crt_stdio_output@@V?$standard_base@_WV?$string_output_adapter@_W@__crt_stdio_output@@@2@@__crt_stdio_output@@AEAA_NXZ 00000001800730a0 f i libucrtd:output.obj
 0001:000720c0       ?type_case_c_tchar@?$output_processor@DV?$stream_output_adapter@D@__crt_stdio_output@@V?$format_validation_base@DV?$stream_output_adapter@D@__crt_stdio_output@@@2@@__crt_stdio_output@@AEAA_ND@Z 00000001800730c0 f i libucrtd:output.obj
 0001:00072210       ?type_case_c_tchar@?$output_processor@DV?$stream_output_adapter@D@__crt_stdio_output@@V?$positional_parameter_base@DV?$stream_output_adapter@D@__crt_stdio_output@@@2@@__crt_stdio_output@@AEAA_ND@Z 0000000180073210 f i libucrtd:output.obj
 0001:00072360       ?type_case_c_tchar@?$output_processor@DV?$stream_output_adapter@D@__crt_stdio_output@@V?$standard_base@DV?$stream_output_adapter@D@__crt_stdio_output@@@2@@__crt_stdio_output@@AEAA_ND@Z 0000000180073360 f i libucrtd:output.obj
 0001:000724b0       ?type_case_c_tchar@?$output_processor@DV?$string_output_adapter@D@__crt_stdio_output@@V?$format_validation_base@DV?$string_output_adapter@D@__crt_stdio_output@@@2@@__crt_stdio_output@@AEAA_ND@Z 00000001800734b0 f i libucrtd:output.obj
 0001:00072600       ?type_case_c_tchar@?$output_processor@DV?$string_output_adapter@D@__crt_stdio_output@@V?$positional_parameter_base@DV?$string_output_adapter@D@__crt_stdio_output@@@2@@__crt_stdio_output@@AEAA_ND@Z 0000000180073600 f i libucrtd:output.obj
 0001:00072750       ?type_case_c_tchar@?$output_processor@DV?$string_output_adapter@D@__crt_stdio_output@@V?$standard_base@DV?$string_output_adapter@D@__crt_stdio_output@@@2@@__crt_stdio_output@@AEAA_ND@Z 0000000180073750 f i libucrtd:output.obj
 0001:000728a0       ?type_case_c_tchar@?$output_processor@_WV?$stream_output_adapter@_W@__crt_stdio_output@@V?$format_validation_base@_WV?$stream_output_adapter@_W@__crt_stdio_output@@@2@@__crt_stdio_output@@AEAA_N_W@Z 00000001800738a0 f i libucrtd:output.obj
 0001:000729d0       ?type_case_c_tchar@?$output_processor@_WV?$stream_output_adapter@_W@__crt_stdio_output@@V?$positional_parameter_base@_WV?$stream_output_adapter@_W@__crt_stdio_output@@@2@@__crt_stdio_output@@AEAA_N_W@Z 00000001800739d0 f i libucrtd:output.obj
 0001:00072b00       ?type_case_c_tchar@?$output_processor@_WV?$stream_output_adapter@_W@__crt_stdio_output@@V?$standard_base@_WV?$stream_output_adapter@_W@__crt_stdio_output@@@2@@__crt_stdio_output@@AEAA_N_W@Z 0000000180073b00 f i libucrtd:output.obj
 0001:00072c30       ?type_case_c_tchar@?$output_processor@_WV?$string_output_adapter@_W@__crt_stdio_output@@V?$format_validation_base@_WV?$string_output_adapter@_W@__crt_stdio_output@@@2@@__crt_stdio_output@@AEAA_N_W@Z 0000000180073c30 f i libucrtd:output.obj
 0001:00072d60       ?type_case_c_tchar@?$output_processor@_WV?$string_output_adapter@_W@__crt_stdio_output@@V?$positional_parameter_base@_WV?$string_output_adapter@_W@__crt_stdio_output@@@2@@__crt_stdio_output@@AEAA_N_W@Z 0000000180073d60 f i libucrtd:output.obj
 0001:00072e90       ?type_case_c_tchar@?$output_processor@_WV?$string_output_adapter@_W@__crt_stdio_output@@V?$standard_base@_WV?$string_output_adapter@_W@__crt_stdio_output@@@2@@__crt_stdio_output@@AEAA_N_W@Z 0000000180073e90 f i libucrtd:output.obj
 0001:00072fc0       ?type_case_d@?$output_processor@DV?$stream_output_adapter@D@__crt_stdio_output@@V?$format_validation_base@DV?$stream_output_adapter@D@__crt_stdio_output@@@2@@__crt_stdio_output@@AEAA_NXZ 0000000180073fc0 f i libucrtd:output.obj
 0001:00072ff0       ?type_case_d@?$output_processor@DV?$stream_output_adapter@D@__crt_stdio_output@@V?$positional_parameter_base@DV?$stream_output_adapter@D@__crt_stdio_output@@@2@@__crt_stdio_output@@AEAA_NXZ 0000000180073ff0 f i libucrtd:output.obj
 0001:00073020       ?type_case_d@?$output_processor@DV?$stream_output_adapter@D@__crt_stdio_output@@V?$standard_base@DV?$stream_output_adapter@D@__crt_stdio_output@@@2@@__crt_stdio_output@@AEAA_NXZ 0000000180074020 f i libucrtd:output.obj
 0001:00073050       ?type_case_d@?$output_processor@DV?$string_output_adapter@D@__crt_stdio_output@@V?$format_validation_base@DV?$string_output_adapter@D@__crt_stdio_output@@@2@@__crt_stdio_output@@AEAA_NXZ 0000000180074050 f i libucrtd:output.obj
 0001:00073080       ?type_case_d@?$output_processor@DV?$string_output_adapter@D@__crt_stdio_output@@V?$positional_parameter_base@DV?$string_output_adapter@D@__crt_stdio_output@@@2@@__crt_stdio_output@@AEAA_NXZ 0000000180074080 f i libucrtd:output.obj
 0001:000730b0       ?type_case_d@?$output_processor@DV?$string_output_adapter@D@__crt_stdio_output@@V?$standard_base@DV?$string_output_adapter@D@__crt_stdio_output@@@2@@__crt_stdio_output@@AEAA_NXZ 00000001800740b0 f i libucrtd:output.obj
 0001:000730e0       ?type_case_d@?$output_processor@_WV?$stream_output_adapter@_W@__crt_stdio_output@@V?$format_validation_base@_WV?$stream_output_adapter@_W@__crt_stdio_output@@@2@@__crt_stdio_output@@AEAA_NXZ 00000001800740e0 f i libucrtd:output.obj
 0001:00073110       ?type_case_d@?$output_processor@_WV?$stream_output_adapter@_W@__crt_stdio_output@@V?$positional_parameter_base@_WV?$stream_output_adapter@_W@__crt_stdio_output@@@2@@__crt_stdio_output@@AEAA_NXZ 0000000180074110 f i libucrtd:output.obj
 0001:00073140       ?type_case_d@?$output_processor@_WV?$stream_output_adapter@_W@__crt_stdio_output@@V?$standard_base@_WV?$stream_output_adapter@_W@__crt_stdio_output@@@2@@__crt_stdio_output@@AEAA_NXZ 0000000180074140 f i libucrtd:output.obj
 0001:00073170       ?type_case_d@?$output_processor@_WV?$string_output_adapter@_W@__crt_stdio_output@@V?$format_validation_base@_WV?$string_output_adapter@_W@__crt_stdio_output@@@2@@__crt_stdio_output@@AEAA_NXZ 0000000180074170 f i libucrtd:output.obj
 0001:000731a0       ?type_case_d@?$output_processor@_WV?$string_output_adapter@_W@__crt_stdio_output@@V?$positional_parameter_base@_WV?$string_output_adapter@_W@__crt_stdio_output@@@2@@__crt_stdio_output@@AEAA_NXZ 00000001800741a0 f i libucrtd:output.obj
 0001:000731d0       ?type_case_d@?$output_processor@_WV?$string_output_adapter@_W@__crt_stdio_output@@V?$standard_base@_WV?$string_output_adapter@_W@__crt_stdio_output@@@2@@__crt_stdio_output@@AEAA_NXZ 00000001800741d0 f i libucrtd:output.obj
 0001:00073200       ?type_case_integer@?$output_processor@DV?$stream_output_adapter@D@__crt_stdio_output@@V?$format_validation_base@DV?$stream_output_adapter@D@__crt_stdio_output@@@2@@__crt_stdio_output@@AEAA_NI_N@Z 0000000180074200 f i libucrtd:output.obj
 0001:00073650       ?type_case_integer@?$output_processor@DV?$stream_output_adapter@D@__crt_stdio_output@@V?$positional_parameter_base@DV?$stream_output_adapter@D@__crt_stdio_output@@@2@@__crt_stdio_output@@AEAA_NI_N@Z 0000000180074650 f i libucrtd:output.obj
 0001:00073aa0       ?type_case_integer@?$output_processor@DV?$stream_output_adapter@D@__crt_stdio_output@@V?$standard_base@DV?$stream_output_adapter@D@__crt_stdio_output@@@2@@__crt_stdio_output@@AEAA_NI_N@Z 0000000180074aa0 f i libucrtd:output.obj
 0001:00073ef0       ?type_case_integer@?$output_processor@DV?$string_output_adapter@D@__crt_stdio_output@@V?$format_validation_base@DV?$string_output_adapter@D@__crt_stdio_output@@@2@@__crt_stdio_output@@AEAA_NI_N@Z 0000000180074ef0 f i libucrtd:output.obj
 0001:00074340       ?type_case_integer@?$output_processor@DV?$string_output_adapter@D@__crt_stdio_output@@V?$positional_parameter_base@DV?$string_output_adapter@D@__crt_stdio_output@@@2@@__crt_stdio_output@@AEAA_NI_N@Z 0000000180075340 f i libucrtd:output.obj
 0001:00074790       ?type_case_integer@?$output_processor@DV?$string_output_adapter@D@__crt_stdio_output@@V?$standard_base@DV?$string_output_adapter@D@__crt_stdio_output@@@2@@__crt_stdio_output@@AEAA_NI_N@Z 0000000180075790 f i libucrtd:output.obj
 0001:00074be0       ?type_case_integer@?$output_processor@_WV?$stream_output_adapter@_W@__crt_stdio_output@@V?$format_validation_base@_WV?$stream_output_adapter@_W@__crt_stdio_output@@@2@@__crt_stdio_output@@AEAA_NI_N@Z 0000000180075be0 f i libucrtd:output.obj
 0001:00075030       ?type_case_integer@?$output_processor@_WV?$stream_output_adapter@_W@__crt_stdio_output@@V?$positional_parameter_base@_WV?$stream_output_adapter@_W@__crt_stdio_output@@@2@@__crt_stdio_output@@AEAA_NI_N@Z 0000000180076030 f i libucrtd:output.obj
 0001:00075480       ?type_case_integer@?$output_processor@_WV?$stream_output_adapter@_W@__crt_stdio_output@@V?$standard_base@_WV?$stream_output_adapter@_W@__crt_stdio_output@@@2@@__crt_stdio_output@@AEAA_NI_N@Z 0000000180076480 f i libucrtd:output.obj
 0001:000758d0       ?type_case_integer@?$output_processor@_WV?$string_output_adapter@_W@__crt_stdio_output@@V?$format_validation_base@_WV?$string_output_adapter@_W@__crt_stdio_output@@@2@@__crt_stdio_output@@AEAA_NI_N@Z 00000001800768d0 f i libucrtd:output.obj
 0001:00075d20       ?type_case_integer@?$output_processor@_WV?$string_output_adapter@_W@__crt_stdio_output@@V?$positional_parameter_base@_WV?$string_output_adapter@_W@__crt_stdio_output@@@2@@__crt_stdio_output@@AEAA_NI_N@Z 0000000180076d20 f i libucrtd:output.obj
 0001:00076170       ?type_case_integer@?$output_processor@_WV?$string_output_adapter@_W@__crt_stdio_output@@V?$standard_base@_WV?$string_output_adapter@_W@__crt_stdio_output@@@2@@__crt_stdio_output@@AEAA_NI_N@Z 0000000180077170 f i libucrtd:output.obj
 0001:000765c0       ?type_case_n@?$output_processor@DV?$stream_output_adapter@D@__crt_stdio_output@@V?$format_validation_base@DV?$stream_output_adapter@D@__crt_stdio_output@@@2@@__crt_stdio_output@@AEAA_NXZ 00000001800775c0 f i libucrtd:output.obj
 0001:00076800       ?type_case_n@?$output_processor@DV?$stream_output_adapter@D@__crt_stdio_output@@V?$positional_parameter_base@DV?$stream_output_adapter@D@__crt_stdio_output@@@2@@__crt_stdio_output@@AEAA_NXZ 0000000180077800 f i libucrtd:output.obj
 0001:00076a40       ?type_case_n@?$output_processor@DV?$stream_output_adapter@D@__crt_stdio_output@@V?$standard_base@DV?$stream_output_adapter@D@__crt_stdio_output@@@2@@__crt_stdio_output@@AEAA_NXZ 0000000180077a40 f i libucrtd:output.obj
 0001:00076c80       ?type_case_n@?$output_processor@DV?$string_output_adapter@D@__crt_stdio_output@@V?$format_validation_base@DV?$string_output_adapter@D@__crt_stdio_output@@@2@@__crt_stdio_output@@AEAA_NXZ 0000000180077c80 f i libucrtd:output.obj
 0001:00076ec0       ?type_case_n@?$output_processor@DV?$string_output_adapter@D@__crt_stdio_output@@V?$positional_parameter_base@DV?$string_output_adapter@D@__crt_stdio_output@@@2@@__crt_stdio_output@@AEAA_NXZ 0000000180077ec0 f i libucrtd:output.obj
 0001:00077100       ?type_case_n@?$output_processor@DV?$string_output_adapter@D@__crt_stdio_output@@V?$standard_base@DV?$string_output_adapter@D@__crt_stdio_output@@@2@@__crt_stdio_output@@AEAA_NXZ 0000000180078100 f i libucrtd:output.obj
 0001:00077340       ?type_case_n@?$output_processor@_WV?$stream_output_adapter@_W@__crt_stdio_output@@V?$format_validation_base@_WV?$stream_output_adapter@_W@__crt_stdio_output@@@2@@__crt_stdio_output@@AEAA_NXZ 0000000180078340 f i libucrtd:output.obj
 0001:00077580       ?type_case_n@?$output_processor@_WV?$stream_output_adapter@_W@__crt_stdio_output@@V?$positional_parameter_base@_WV?$stream_output_adapter@_W@__crt_stdio_output@@@2@@__crt_stdio_output@@AEAA_NXZ 0000000180078580 f i libucrtd:output.obj
 0001:000777c0       ?type_case_n@?$output_processor@_WV?$stream_output_adapter@_W@__crt_stdio_output@@V?$standard_base@_WV?$stream_output_adapter@_W@__crt_stdio_output@@@2@@__crt_stdio_output@@AEAA_NXZ 00000001800787c0 f i libucrtd:output.obj
 0001:00077a00       ?type_case_n@?$output_processor@_WV?$string_output_adapter@_W@__crt_stdio_output@@V?$format_validation_base@_WV?$string_output_adapter@_W@__crt_stdio_output@@@2@@__crt_stdio_output@@AEAA_NXZ 0000000180078a00 f i libucrtd:output.obj
 0001:00077c40       ?type_case_n@?$output_processor@_WV?$string_output_adapter@_W@__crt_stdio_output@@V?$positional_parameter_base@_WV?$string_output_adapter@_W@__crt_stdio_output@@@2@@__crt_stdio_output@@AEAA_NXZ 0000000180078c40 f i libucrtd:output.obj
 0001:00077e80       ?type_case_n@?$output_processor@_WV?$string_output_adapter@_W@__crt_stdio_output@@V?$standard_base@_WV?$string_output_adapter@_W@__crt_stdio_output@@@2@@__crt_stdio_output@@AEAA_NXZ 0000000180078e80 f i libucrtd:output.obj
 0001:000780c0       ?type_case_o@?$output_processor@DV?$stream_output_adapter@D@__crt_stdio_output@@V?$format_validation_base@DV?$stream_output_adapter@D@__crt_stdio_output@@@2@@__crt_stdio_output@@AEAA_NXZ 00000001800790c0 f i libucrtd:output.obj
 0001:00078110       ?type_case_o@?$output_processor@DV?$stream_output_adapter@D@__crt_stdio_output@@V?$positional_parameter_base@DV?$stream_output_adapter@D@__crt_stdio_output@@@2@@__crt_stdio_output@@AEAA_NXZ 0000000180079110 f i libucrtd:output.obj
 0001:00078160       ?type_case_o@?$output_processor@DV?$stream_output_adapter@D@__crt_stdio_output@@V?$standard_base@DV?$stream_output_adapter@D@__crt_stdio_output@@@2@@__crt_stdio_output@@AEAA_NXZ 0000000180079160 f i libucrtd:output.obj
 0001:000781b0       ?type_case_o@?$output_processor@DV?$string_output_adapter@D@__crt_stdio_output@@V?$format_validation_base@DV?$string_output_adapter@D@__crt_stdio_output@@@2@@__crt_stdio_output@@AEAA_NXZ 00000001800791b0 f i libucrtd:output.obj
 0001:00078200       ?type_case_o@?$output_processor@DV?$string_output_adapter@D@__crt_stdio_output@@V?$positional_parameter_base@DV?$string_output_adapter@D@__crt_stdio_output@@@2@@__crt_stdio_output@@AEAA_NXZ 0000000180079200 f i libucrtd:output.obj
 0001:00078250       ?type_case_o@?$output_processor@DV?$string_output_adapter@D@__crt_stdio_output@@V?$standard_base@DV?$string_output_adapter@D@__crt_stdio_output@@@2@@__crt_stdio_output@@AEAA_NXZ 0000000180079250 f i libucrtd:output.obj
 0001:000782a0       ?type_case_o@?$output_processor@_WV?$stream_output_adapter@_W@__crt_stdio_output@@V?$format_validation_base@_WV?$stream_output_adapter@_W@__crt_stdio_output@@@2@@__crt_stdio_output@@AEAA_NXZ 00000001800792a0 f i libucrtd:output.obj
 0001:000782f0       ?type_case_o@?$output_processor@_WV?$stream_output_adapter@_W@__crt_stdio_output@@V?$positional_parameter_base@_WV?$stream_output_adapter@_W@__crt_stdio_output@@@2@@__crt_stdio_output@@AEAA_NXZ 00000001800792f0 f i libucrtd:output.obj
 0001:00078340       ?type_case_o@?$output_processor@_WV?$stream_output_adapter@_W@__crt_stdio_output@@V?$standard_base@_WV?$stream_output_adapter@_W@__crt_stdio_output@@@2@@__crt_stdio_output@@AEAA_NXZ 0000000180079340 f i libucrtd:output.obj
 0001:00078390       ?type_case_o@?$output_processor@_WV?$string_output_adapter@_W@__crt_stdio_output@@V?$format_validation_base@_WV?$string_output_adapter@_W@__crt_stdio_output@@@2@@__crt_stdio_output@@AEAA_NXZ 0000000180079390 f i libucrtd:output.obj
 0001:000783e0       ?type_case_o@?$output_processor@_WV?$string_output_adapter@_W@__crt_stdio_output@@V?$positional_parameter_base@_WV?$string_output_adapter@_W@__crt_stdio_output@@@2@@__crt_stdio_output@@AEAA_NXZ 00000001800793e0 f i libucrtd:output.obj
 0001:00078430       ?type_case_o@?$output_processor@_WV?$string_output_adapter@_W@__crt_stdio_output@@V?$standard_base@_WV?$string_output_adapter@_W@__crt_stdio_output@@@2@@__crt_stdio_output@@AEAA_NXZ 0000000180079430 f i libucrtd:output.obj
 0001:00078480       ?type_case_p@?$output_processor@DV?$stream_output_adapter@D@__crt_stdio_output@@V?$format_validation_base@DV?$stream_output_adapter@D@__crt_stdio_output@@@2@@__crt_stdio_output@@AEAA_NXZ 0000000180079480 f i libucrtd:output.obj
 0001:000784c0       ?type_case_p@?$output_processor@DV?$stream_output_adapter@D@__crt_stdio_output@@V?$positional_parameter_base@DV?$stream_output_adapter@D@__crt_stdio_output@@@2@@__crt_stdio_output@@AEAA_NXZ 00000001800794c0 f i libucrtd:output.obj
 0001:00078500       ?type_case_p@?$output_processor@DV?$stream_output_adapter@D@__crt_stdio_output@@V?$standard_base@DV?$stream_output_adapter@D@__crt_stdio_output@@@2@@__crt_stdio_output@@AEAA_NXZ 0000000180079500 f i libucrtd:output.obj
 0001:00078540       ?type_case_p@?$output_processor@DV?$string_output_adapter@D@__crt_stdio_output@@V?$format_validation_base@DV?$string_output_adapter@D@__crt_stdio_output@@@2@@__crt_stdio_output@@AEAA_NXZ 0000000180079540 f i libucrtd:output.obj
 0001:00078580       ?type_case_p@?$output_processor@DV?$string_output_adapter@D@__crt_stdio_output@@V?$positional_parameter_base@DV?$string_output_adapter@D@__crt_stdio_output@@@2@@__crt_stdio_output@@AEAA_NXZ 0000000180079580 f i libucrtd:output.obj
 0001:000785c0       ?type_case_p@?$output_processor@DV?$string_output_adapter@D@__crt_stdio_output@@V?$standard_base@DV?$string_output_adapter@D@__crt_stdio_output@@@2@@__crt_stdio_output@@AEAA_NXZ 00000001800795c0 f i libucrtd:output.obj
 0001:00078600       ?type_case_p@?$output_processor@_WV?$stream_output_adapter@_W@__crt_stdio_output@@V?$format_validation_base@_WV?$stream_output_adapter@_W@__crt_stdio_output@@@2@@__crt_stdio_output@@AEAA_NXZ 0000000180079600 f i libucrtd:output.obj
 0001:00078640       ?type_case_p@?$output_processor@_WV?$stream_output_adapter@_W@__crt_stdio_output@@V?$positional_parameter_base@_WV?$stream_output_adapter@_W@__crt_stdio_output@@@2@@__crt_stdio_output@@AEAA_NXZ 0000000180079640 f i libucrtd:output.obj
 0001:00078680       ?type_case_p@?$output_processor@_WV?$stream_output_adapter@_W@__crt_stdio_output@@V?$standard_base@_WV?$stream_output_adapter@_W@__crt_stdio_output@@@2@@__crt_stdio_output@@AEAA_NXZ 0000000180079680 f i libucrtd:output.obj
 0001:000786c0       ?type_case_p@?$output_processor@_WV?$string_output_adapter@_W@__crt_stdio_output@@V?$format_validation_base@_WV?$string_output_adapter@_W@__crt_stdio_output@@@2@@__crt_stdio_output@@AEAA_NXZ 00000001800796c0 f i libucrtd:output.obj
 0001:00078700       ?type_case_p@?$output_processor@_WV?$string_output_adapter@_W@__crt_stdio_output@@V?$positional_parameter_base@_WV?$string_output_adapter@_W@__crt_stdio_output@@@2@@__crt_stdio_output@@AEAA_NXZ 0000000180079700 f i libucrtd:output.obj
 0001:00078740       ?type_case_p@?$output_processor@_WV?$string_output_adapter@_W@__crt_stdio_output@@V?$standard_base@_WV?$string_output_adapter@_W@__crt_stdio_output@@@2@@__crt_stdio_output@@AEAA_NXZ 0000000180079740 f i libucrtd:output.obj
 0001:00078780       ?type_case_s@?$output_processor@DV?$stream_output_adapter@D@__crt_stdio_output@@V?$format_validation_base@DV?$stream_output_adapter@D@__crt_stdio_output@@@2@@__crt_stdio_output@@AEAA_NXZ 0000000180079780 f i libucrtd:output.obj
 0001:000788a0       ?type_case_s@?$output_processor@DV?$stream_output_adapter@D@__crt_stdio_output@@V?$positional_parameter_base@DV?$stream_output_adapter@D@__crt_stdio_output@@@2@@__crt_stdio_output@@AEAA_NXZ 00000001800798a0 f i libucrtd:output.obj
 0001:000789c0       ?type_case_s@?$output_processor@DV?$stream_output_adapter@D@__crt_stdio_output@@V?$standard_base@DV?$stream_output_adapter@D@__crt_stdio_output@@@2@@__crt_stdio_output@@AEAA_NXZ 00000001800799c0 f i libucrtd:output.obj
 0001:00078ae0       ?type_case_s@?$output_processor@DV?$string_output_adapter@D@__crt_stdio_output@@V?$format_validation_base@DV?$string_output_adapter@D@__crt_stdio_output@@@2@@__crt_stdio_output@@AEAA_NXZ 0000000180079ae0 f i libucrtd:output.obj
 0001:00078c00       ?type_case_s@?$output_processor@DV?$string_output_adapter@D@__crt_stdio_output@@V?$positional_parameter_base@DV?$string_output_adapter@D@__crt_stdio_output@@@2@@__crt_stdio_output@@AEAA_NXZ 0000000180079c00 f i libucrtd:output.obj
 0001:00078d20       ?type_case_s@?$output_processor@DV?$string_output_adapter@D@__crt_stdio_output@@V?$standard_base@DV?$string_output_adapter@D@__crt_stdio_output@@@2@@__crt_stdio_output@@AEAA_NXZ 0000000180079d20 f i libucrtd:output.obj
 0001:00078e40       ?type_case_s@?$output_processor@_WV?$stream_output_adapter@_W@__crt_stdio_output@@V?$format_validation_base@_WV?$stream_output_adapter@_W@__crt_stdio_output@@@2@@__crt_stdio_output@@AEAA_NXZ 0000000180079e40 f i libucrtd:output.obj
 0001:00078f60       ?type_case_s@?$output_processor@_WV?$stream_output_adapter@_W@__crt_stdio_output@@V?$positional_parameter_base@_WV?$stream_output_adapter@_W@__crt_stdio_output@@@2@@__crt_stdio_output@@AEAA_NXZ 0000000180079f60 f i libucrtd:output.obj
 0001:00079080       ?type_case_s@?$output_processor@_WV?$stream_output_adapter@_W@__crt_stdio_output@@V?$standard_base@_WV?$stream_output_adapter@_W@__crt_stdio_output@@@2@@__crt_stdio_output@@AEAA_NXZ 000000018007a080 f i libucrtd:output.obj
 0001:000791a0       ?type_case_s@?$output_processor@_WV?$string_output_adapter@_W@__crt_stdio_output@@V?$format_validation_base@_WV?$string_output_adapter@_W@__crt_stdio_output@@@2@@__crt_stdio_output@@AEAA_NXZ 000000018007a1a0 f i libucrtd:output.obj
 0001:000792c0       ?type_case_s@?$output_processor@_WV?$string_output_adapter@_W@__crt_stdio_output@@V?$positional_parameter_base@_WV?$string_output_adapter@_W@__crt_stdio_output@@@2@@__crt_stdio_output@@AEAA_NXZ 000000018007a2c0 f i libucrtd:output.obj
 0001:000793e0       ?type_case_s@?$output_processor@_WV?$string_output_adapter@_W@__crt_stdio_output@@V?$standard_base@_WV?$string_output_adapter@_W@__crt_stdio_output@@@2@@__crt_stdio_output@@AEAA_NXZ 000000018007a3e0 f i libucrtd:output.obj
 0001:00079500       ?type_case_s_compute_narrow_string_length@?$output_processor@DV?$stream_output_adapter@D@__crt_stdio_output@@V?$format_validation_base@DV?$stream_output_adapter@D@__crt_stdio_output@@@2@@__crt_stdio_output@@AEBAHHD@Z 000000018007a500 f i libucrtd:output.obj
 0001:00079530       ?type_case_s_compute_narrow_string_length@?$output_processor@DV?$stream_output_adapter@D@__crt_stdio_output@@V?$positional_parameter_base@DV?$stream_output_adapter@D@__crt_stdio_output@@@2@@__crt_stdio_output@@AEBAHHD@Z 000000018007a530 f i libucrtd:output.obj
 0001:00079560       ?type_case_s_compute_narrow_string_length@?$output_processor@DV?$stream_output_adapter@D@__crt_stdio_output@@V?$standard_base@DV?$stream_output_adapter@D@__crt_stdio_output@@@2@@__crt_stdio_output@@AEBAHHD@Z 000000018007a560 f i libucrtd:output.obj
 0001:00079590       ?type_case_s_compute_narrow_string_length@?$output_processor@DV?$string_output_adapter@D@__crt_stdio_output@@V?$format_validation_base@DV?$string_output_adapter@D@__crt_stdio_output@@@2@@__crt_stdio_output@@AEBAHHD@Z 000000018007a590 f i libucrtd:output.obj
 0001:000795c0       ?type_case_s_compute_narrow_string_length@?$output_processor@DV?$string_output_adapter@D@__crt_stdio_output@@V?$positional_parameter_base@DV?$string_output_adapter@D@__crt_stdio_output@@@2@@__crt_stdio_output@@AEBAHHD@Z 000000018007a5c0 f i libucrtd:output.obj
 0001:000795f0       ?type_case_s_compute_narrow_string_length@?$output_processor@DV?$string_output_adapter@D@__crt_stdio_output@@V?$standard_base@DV?$string_output_adapter@D@__crt_stdio_output@@@2@@__crt_stdio_output@@AEBAHHD@Z 000000018007a5f0 f i libucrtd:output.obj
 0001:00079620       ?type_case_s_compute_narrow_string_length@?$output_processor@_WV?$stream_output_adapter@_W@__crt_stdio_output@@V?$format_validation_base@_WV?$stream_output_adapter@_W@__crt_stdio_output@@@2@@__crt_stdio_output@@AEBAHH_W@Z 000000018007a620 f i libucrtd:output.obj
 0001:000796b0       ?type_case_s_compute_narrow_string_length@?$output_processor@_WV?$stream_output_adapter@_W@__crt_stdio_output@@V?$positional_parameter_base@_WV?$stream_output_adapter@_W@__crt_stdio_output@@@2@@__crt_stdio_output@@AEBAHH_W@Z 000000018007a6b0 f i libucrtd:output.obj
 0001:00079740       ?type_case_s_compute_narrow_string_length@?$output_processor@_WV?$stream_output_adapter@_W@__crt_stdio_output@@V?$standard_base@_WV?$stream_output_adapter@_W@__crt_stdio_output@@@2@@__crt_stdio_output@@AEBAHH_W@Z 000000018007a740 f i libucrtd:output.obj
 0001:000797d0       ?type_case_s_compute_narrow_string_length@?$output_processor@_WV?$string_output_adapter@_W@__crt_stdio_output@@V?$format_validation_base@_WV?$string_output_adapter@_W@__crt_stdio_output@@@2@@__crt_stdio_output@@AEBAHH_W@Z 000000018007a7d0 f i libucrtd:output.obj
 0001:00079860       ?type_case_s_compute_narrow_string_length@?$output_processor@_WV?$string_output_adapter@_W@__crt_stdio_output@@V?$positional_parameter_base@_WV?$string_output_adapter@_W@__crt_stdio_output@@@2@@__crt_stdio_output@@AEBAHH_W@Z 000000018007a860 f i libucrtd:output.obj
 0001:000798f0       ?type_case_s_compute_narrow_string_length@?$output_processor@_WV?$string_output_adapter@_W@__crt_stdio_output@@V?$standard_base@_WV?$string_output_adapter@_W@__crt_stdio_output@@@2@@__crt_stdio_output@@AEBAHH_W@Z 000000018007a8f0 f i libucrtd:output.obj
 0001:00079980       ?type_case_u@?$output_processor@DV?$stream_output_adapter@D@__crt_stdio_output@@V?$format_validation_base@DV?$stream_output_adapter@D@__crt_stdio_output@@@2@@__crt_stdio_output@@AEAA_NXZ 000000018007a980 f i libucrtd:output.obj
 0001:000799a0       ?type_case_u@?$output_processor@DV?$stream_output_adapter@D@__crt_stdio_output@@V?$positional_parameter_base@DV?$stream_output_adapter@D@__crt_stdio_output@@@2@@__crt_stdio_output@@AEAA_NXZ 000000018007a9a0 f i libucrtd:output.obj
 0001:000799c0       ?type_case_u@?$output_processor@DV?$stream_output_adapter@D@__crt_stdio_output@@V?$standard_base@DV?$stream_output_adapter@D@__crt_stdio_output@@@2@@__crt_stdio_output@@AEAA_NXZ 000000018007a9c0 f i libucrtd:output.obj
 0001:000799e0       ?type_case_u@?$output_processor@DV?$string_output_adapter@D@__crt_stdio_output@@V?$format_validation_base@DV?$string_output_adapter@D@__crt_stdio_output@@@2@@__crt_stdio_output@@AEAA_NXZ 000000018007a9e0 f i libucrtd:output.obj
 0001:00079a00       ?type_case_u@?$output_processor@DV?$string_output_adapter@D@__crt_stdio_output@@V?$positional_parameter_base@DV?$string_output_adapter@D@__crt_stdio_output@@@2@@__crt_stdio_output@@AEAA_NXZ 000000018007aa00 f i libucrtd:output.obj
 0001:00079a20       ?type_case_u@?$output_processor@DV?$string_output_adapter@D@__crt_stdio_output@@V?$standard_base@DV?$string_output_adapter@D@__crt_stdio_output@@@2@@__crt_stdio_output@@AEAA_NXZ 000000018007aa20 f i libucrtd:output.obj
 0001:00079a40       ?type_case_u@?$output_processor@_WV?$stream_output_adapter@_W@__crt_stdio_output@@V?$format_validation_base@_WV?$stream_output_adapter@_W@__crt_stdio_output@@@2@@__crt_stdio_output@@AEAA_NXZ 000000018007aa40 f i libucrtd:output.obj
 0001:00079a60       ?type_case_u@?$output_processor@_WV?$stream_output_adapter@_W@__crt_stdio_output@@V?$positional_parameter_base@_WV?$stream_output_adapter@_W@__crt_stdio_output@@@2@@__crt_stdio_output@@AEAA_NXZ 000000018007aa60 f i libucrtd:output.obj
 0001:00079a80       ?type_case_u@?$output_processor@_WV?$stream_output_adapter@_W@__crt_stdio_output@@V?$standard_base@_WV?$stream_output_adapter@_W@__crt_stdio_output@@@2@@__crt_stdio_output@@AEAA_NXZ 000000018007aa80 f i libucrtd:output.obj
 0001:00079aa0       ?type_case_u@?$output_processor@_WV?$string_output_adapter@_W@__crt_stdio_output@@V?$format_validation_base@_WV?$string_output_adapter@_W@__crt_stdio_output@@@2@@__crt_stdio_output@@AEAA_NXZ 000000018007aaa0 f i libucrtd:output.obj
 0001:00079ac0       ?type_case_u@?$output_processor@_WV?$string_output_adapter@_W@__crt_stdio_output@@V?$positional_parameter_base@_WV?$string_output_adapter@_W@__crt_stdio_output@@@2@@__crt_stdio_output@@AEAA_NXZ 000000018007aac0 f i libucrtd:output.obj
 0001:00079ae0       ?type_case_u@?$output_processor@_WV?$string_output_adapter@_W@__crt_stdio_output@@V?$standard_base@_WV?$string_output_adapter@_W@__crt_stdio_output@@@2@@__crt_stdio_output@@AEAA_NXZ 000000018007aae0 f i libucrtd:output.obj
 0001:00079b00       ?type_case_x@?$output_processor@DV?$stream_output_adapter@D@__crt_stdio_output@@V?$format_validation_base@DV?$stream_output_adapter@D@__crt_stdio_output@@@2@@__crt_stdio_output@@AEAA_NXZ 000000018007ab00 f i libucrtd:output.obj
 0001:00079b20       ?type_case_x@?$output_processor@DV?$stream_output_adapter@D@__crt_stdio_output@@V?$positional_parameter_base@DV?$stream_output_adapter@D@__crt_stdio_output@@@2@@__crt_stdio_output@@AEAA_NXZ 000000018007ab20 f i libucrtd:output.obj
 0001:00079b40       ?type_case_x@?$output_processor@DV?$stream_output_adapter@D@__crt_stdio_output@@V?$standard_base@DV?$stream_output_adapter@D@__crt_stdio_output@@@2@@__crt_stdio_output@@AEAA_NXZ 000000018007ab40 f i libucrtd:output.obj
 0001:00079b60       ?type_case_x@?$output_processor@DV?$string_output_adapter@D@__crt_stdio_output@@V?$format_validation_base@DV?$string_output_adapter@D@__crt_stdio_output@@@2@@__crt_stdio_output@@AEAA_NXZ 000000018007ab60 f i libucrtd:output.obj
 0001:00079b80       ?type_case_x@?$output_processor@DV?$string_output_adapter@D@__crt_stdio_output@@V?$positional_parameter_base@DV?$string_output_adapter@D@__crt_stdio_output@@@2@@__crt_stdio_output@@AEAA_NXZ 000000018007ab80 f i libucrtd:output.obj
 0001:00079ba0       ?type_case_x@?$output_processor@DV?$string_output_adapter@D@__crt_stdio_output@@V?$standard_base@DV?$string_output_adapter@D@__crt_stdio_output@@@2@@__crt_stdio_output@@AEAA_NXZ 000000018007aba0 f i libucrtd:output.obj
 0001:00079bc0       ?type_case_x@?$output_processor@_WV?$stream_output_adapter@_W@__crt_stdio_output@@V?$format_validation_base@_WV?$stream_output_adapter@_W@__crt_stdio_output@@@2@@__crt_stdio_output@@AEAA_NXZ 000000018007abc0 f i libucrtd:output.obj
 0001:00079be0       ?type_case_x@?$output_processor@_WV?$stream_output_adapter@_W@__crt_stdio_output@@V?$positional_parameter_base@_WV?$stream_output_adapter@_W@__crt_stdio_output@@@2@@__crt_stdio_output@@AEAA_NXZ 000000018007abe0 f i libucrtd:output.obj
 0001:00079c00       ?type_case_x@?$output_processor@_WV?$stream_output_adapter@_W@__crt_stdio_output@@V?$standard_base@_WV?$stream_output_adapter@_W@__crt_stdio_output@@@2@@__crt_stdio_output@@AEAA_NXZ 000000018007ac00 f i libucrtd:output.obj
 0001:00079c20       ?type_case_x@?$output_processor@_WV?$string_output_adapter@_W@__crt_stdio_output@@V?$format_validation_base@_WV?$string_output_adapter@_W@__crt_stdio_output@@@2@@__crt_stdio_output@@AEAA_NXZ 000000018007ac20 f i libucrtd:output.obj
 0001:00079c40       ?type_case_x@?$output_processor@_WV?$string_output_adapter@_W@__crt_stdio_output@@V?$positional_parameter_base@_WV?$string_output_adapter@_W@__crt_stdio_output@@@2@@__crt_stdio_output@@AEAA_NXZ 000000018007ac40 f i libucrtd:output.obj
 0001:00079c60       ?type_case_x@?$output_processor@_WV?$string_output_adapter@_W@__crt_stdio_output@@V?$standard_base@_WV?$string_output_adapter@_W@__crt_stdio_output@@@2@@__crt_stdio_output@@AEAA_NXZ 000000018007ac60 f i libucrtd:output.obj
 0001:00079c80       ?unset_flag@?$output_processor@DV?$stream_output_adapter@D@__crt_stdio_output@@V?$format_validation_base@DV?$stream_output_adapter@D@__crt_stdio_output@@@2@@__crt_stdio_output@@AEAAXI@Z 000000018007ac80 f i libucrtd:output.obj
 0001:00079cb0       ?unset_flag@?$output_processor@DV?$stream_output_adapter@D@__crt_stdio_output@@V?$positional_parameter_base@DV?$stream_output_adapter@D@__crt_stdio_output@@@2@@__crt_stdio_output@@AEAAXI@Z 000000018007acb0 f i libucrtd:output.obj
 0001:00079ce0       ?unset_flag@?$output_processor@DV?$stream_output_adapter@D@__crt_stdio_output@@V?$standard_base@DV?$stream_output_adapter@D@__crt_stdio_output@@@2@@__crt_stdio_output@@AEAAXI@Z 000000018007ace0 f i libucrtd:output.obj
 0001:00079d10       ?unset_flag@?$output_processor@DV?$string_output_adapter@D@__crt_stdio_output@@V?$format_validation_base@DV?$string_output_adapter@D@__crt_stdio_output@@@2@@__crt_stdio_output@@AEAAXI@Z 000000018007ad10 f i libucrtd:output.obj
 0001:00079d40       ?unset_flag@?$output_processor@DV?$string_output_adapter@D@__crt_stdio_output@@V?$positional_parameter_base@DV?$string_output_adapter@D@__crt_stdio_output@@@2@@__crt_stdio_output@@AEAAXI@Z 000000018007ad40 f i libucrtd:output.obj
 0001:00079d70       ?unset_flag@?$output_processor@DV?$string_output_adapter@D@__crt_stdio_output@@V?$standard_base@DV?$string_output_adapter@D@__crt_stdio_output@@@2@@__crt_stdio_output@@AEAAXI@Z 000000018007ad70 f i libucrtd:output.obj
 0001:00079da0       ?unset_flag@?$output_processor@_WV?$stream_output_adapter@_W@__crt_stdio_output@@V?$format_validation_base@_WV?$stream_output_adapter@_W@__crt_stdio_output@@@2@@__crt_stdio_output@@AEAAXI@Z 000000018007ada0 f i libucrtd:output.obj
 0001:00079dd0       ?unset_flag@?$output_processor@_WV?$stream_output_adapter@_W@__crt_stdio_output@@V?$positional_parameter_base@_WV?$stream_output_adapter@_W@__crt_stdio_output@@@2@@__crt_stdio_output@@AEAAXI@Z 000000018007add0 f i libucrtd:output.obj
 0001:00079e00       ?unset_flag@?$output_processor@_WV?$stream_output_adapter@_W@__crt_stdio_output@@V?$standard_base@_WV?$stream_output_adapter@_W@__crt_stdio_output@@@2@@__crt_stdio_output@@AEAAXI@Z 000000018007ae00 f i libucrtd:output.obj
 0001:00079e30       ?unset_flag@?$output_processor@_WV?$string_output_adapter@_W@__crt_stdio_output@@V?$format_validation_base@_WV?$string_output_adapter@_W@__crt_stdio_output@@@2@@__crt_stdio_output@@AEAAXI@Z 000000018007ae30 f i libucrtd:output.obj
 0001:00079e60       ?unset_flag@?$output_processor@_WV?$string_output_adapter@_W@__crt_stdio_output@@V?$positional_parameter_base@_WV?$string_output_adapter@_W@__crt_stdio_output@@@2@@__crt_stdio_output@@AEAAXI@Z 000000018007ae60 f i libucrtd:output.obj
 0001:00079e90       ?unset_flag@?$output_processor@_WV?$string_output_adapter@_W@__crt_stdio_output@@V?$standard_base@_WV?$string_output_adapter@_W@__crt_stdio_output@@@2@@__crt_stdio_output@@AEAAXI@Z 000000018007ae90 f i libucrtd:output.obj
 0001:00079ec0       ?update_field_width@?$positional_parameter_base@DV?$stream_output_adapter@D@__crt_stdio_output@@@__crt_stdio_output@@IEAA_NXZ 000000018007aec0 f i libucrtd:output.obj
 0001:0007a0b0       ?update_field_width@?$positional_parameter_base@DV?$string_output_adapter@D@__crt_stdio_output@@@__crt_stdio_output@@IEAA_NXZ 000000018007b0b0 f i libucrtd:output.obj
 0001:0007a2a0       ?update_field_width@?$positional_parameter_base@_WV?$stream_output_adapter@_W@__crt_stdio_output@@@__crt_stdio_output@@IEAA_NXZ 000000018007b2a0 f i libucrtd:output.obj
 0001:0007a490       ?update_field_width@?$positional_parameter_base@_WV?$string_output_adapter@_W@__crt_stdio_output@@@__crt_stdio_output@@IEAA_NXZ 000000018007b490 f i libucrtd:output.obj
 0001:0007a680       ?update_field_width@?$standard_base@DV?$stream_output_adapter@D@__crt_stdio_output@@@__crt_stdio_output@@IEAA_NXZ 000000018007b680 f i libucrtd:output.obj
 0001:0007a6b0       ?update_field_width@?$standard_base@DV?$string_output_adapter@D@__crt_stdio_output@@@__crt_stdio_output@@IEAA_NXZ 000000018007b6b0 f i libucrtd:output.obj
 0001:0007a6e0       ?update_field_width@?$standard_base@_WV?$stream_output_adapter@_W@__crt_stdio_output@@@__crt_stdio_output@@IEAA_NXZ 000000018007b6e0 f i libucrtd:output.obj
 0001:0007a710       ?update_field_width@?$standard_base@_WV?$string_output_adapter@_W@__crt_stdio_output@@@__crt_stdio_output@@IEAA_NXZ 000000018007b710 f i libucrtd:output.obj
 0001:0007a740       ?update_precision@?$positional_parameter_base@DV?$stream_output_adapter@D@__crt_stdio_output@@@__crt_stdio_output@@IEAA_NXZ 000000018007b740 f i libucrtd:output.obj
 0001:0007a930       ?update_precision@?$positional_parameter_base@DV?$string_output_adapter@D@__crt_stdio_output@@@__crt_stdio_output@@IEAA_NXZ 000000018007b930 f i libucrtd:output.obj
 0001:0007ab20       ?update_precision@?$positional_parameter_base@_WV?$stream_output_adapter@_W@__crt_stdio_output@@@__crt_stdio_output@@IEAA_NXZ 000000018007bb20 f i libucrtd:output.obj
 0001:0007ad10       ?update_precision@?$positional_parameter_base@_WV?$string_output_adapter@_W@__crt_stdio_output@@@__crt_stdio_output@@IEAA_NXZ 000000018007bd10 f i libucrtd:output.obj
 0001:0007af00       ?update_precision@?$standard_base@DV?$stream_output_adapter@D@__crt_stdio_output@@@__crt_stdio_output@@IEAA_NXZ 000000018007bf00 f i libucrtd:output.obj
 0001:0007af30       ?update_precision@?$standard_base@DV?$string_output_adapter@D@__crt_stdio_output@@@__crt_stdio_output@@IEAA_NXZ 000000018007bf30 f i libucrtd:output.obj
 0001:0007af60       ?update_precision@?$standard_base@_WV?$stream_output_adapter@_W@__crt_stdio_output@@@__crt_stdio_output@@IEAA_NXZ 000000018007bf60 f i libucrtd:output.obj
 0001:0007af90       ?update_precision@?$standard_base@_WV?$string_output_adapter@_W@__crt_stdio_output@@@__crt_stdio_output@@IEAA_NXZ 000000018007bf90 f i libucrtd:output.obj
 0001:0007afc0       ?valid@__crt_stdio_stream@@QEBA_NXZ 000000018007bfc0 f i libucrtd:output.obj
 0001:0007aff0       ?validate@?$stream_output_adapter@D@__crt_stdio_output@@QEBA_NXZ 000000018007bff0 f i libucrtd:output.obj
 0001:0007b0d0       ?validate@?$stream_output_adapter@_W@__crt_stdio_output@@QEBA_NXZ 000000018007c0d0 f i libucrtd:output.obj
 0001:0007b1b0       ?validate@?$string_output_adapter@D@__crt_stdio_output@@QEBA_NXZ 000000018007c1b0 f i libucrtd:output.obj
 0001:0007b270       ?validate@?$string_output_adapter@_W@__crt_stdio_output@@QEBA_NXZ 000000018007c270 f i libucrtd:output.obj
 0001:0007b330       ?validate_and_store_parameter_data@?$positional_parameter_base@DV?$stream_output_adapter@D@__crt_stdio_output@@@__crt_stdio_output@@AEAA_NAEAUparameter_data@12@W4parameter_type@12@DW4length_modifier@2@@Z 000000018007c330 f i libucrtd:output.obj
 0001:0007b450       ?validate_and_store_parameter_data@?$positional_parameter_base@DV?$string_output_adapter@D@__crt_stdio_output@@@__crt_stdio_output@@AEAA_NAEAUparameter_data@12@W4parameter_type@12@DW4length_modifier@2@@Z 000000018007c450 f i libucrtd:output.obj
 0001:0007b570       ?validate_and_store_parameter_data@?$positional_parameter_base@_WV?$stream_output_adapter@_W@__crt_stdio_output@@@__crt_stdio_output@@AEAA_NAEAUparameter_data@12@W4parameter_type@12@_WW4length_modifier@2@@Z 000000018007c570 f i libucrtd:output.obj
 0001:0007b690       ?validate_and_store_parameter_data@?$positional_parameter_base@_WV?$string_output_adapter@_W@__crt_stdio_output@@@__crt_stdio_output@@AEAA_NAEAUparameter_data@12@W4parameter_type@12@_WW4length_modifier@2@@Z 000000018007c690 f i libucrtd:output.obj
 0001:0007b7b0       ?validate_and_update_state_at_beginning_of_format_character@?$positional_parameter_base@DV?$stream_output_adapter@D@__crt_stdio_output@@@__crt_stdio_output@@IEAA_NXZ 000000018007c7b0 f i libucrtd:output.obj
 0001:0007ba90       ?validate_and_update_state_at_beginning_of_format_character@?$positional_parameter_base@DV?$string_output_adapter@D@__crt_stdio_output@@@__crt_stdio_output@@IEAA_NXZ 000000018007ca90 f i libucrtd:output.obj
 0001:0007bd70       ?validate_and_update_state_at_beginning_of_format_character@?$positional_parameter_base@_WV?$stream_output_adapter@_W@__crt_stdio_output@@@__crt_stdio_output@@IEAA_NXZ 000000018007cd70 f i libucrtd:output.obj
 0001:0007c050       ?validate_and_update_state_at_beginning_of_format_character@?$positional_parameter_base@_WV?$string_output_adapter@_W@__crt_stdio_output@@@__crt_stdio_output@@IEAA_NXZ 000000018007d050 f i libucrtd:output.obj
 0001:0007c330       ?validate_and_update_state_at_beginning_of_format_character@?$standard_base@DV?$stream_output_adapter@D@__crt_stdio_output@@@__crt_stdio_output@@IEAA_NXZ 000000018007d330 f i libucrtd:output.obj
 0001:0007c340       ?validate_and_update_state_at_beginning_of_format_character@?$standard_base@DV?$string_output_adapter@D@__crt_stdio_output@@@__crt_stdio_output@@IEAA_NXZ 000000018007d340 f i libucrtd:output.obj
 0001:0007c350       ?validate_and_update_state_at_beginning_of_format_character@?$standard_base@_WV?$stream_output_adapter@_W@__crt_stdio_output@@@__crt_stdio_output@@IEAA_NXZ 000000018007d350 f i libucrtd:output.obj
 0001:0007c360       ?validate_and_update_state_at_beginning_of_format_character@?$standard_base@_WV?$string_output_adapter@_W@__crt_stdio_output@@@__crt_stdio_output@@IEAA_NXZ 000000018007d360 f i libucrtd:output.obj
 0001:0007c370       ?validate_and_update_state_at_end_of_format_string@?$format_validation_base@DV?$stream_output_adapter@D@__crt_stdio_output@@@__crt_stdio_output@@IEBA_NXZ 000000018007d370 f i libucrtd:output.obj
 0001:0007c430       ?validate_and_update_state_at_end_of_format_string@?$format_validation_base@DV?$string_output_adapter@D@__crt_stdio_output@@@__crt_stdio_output@@IEBA_NXZ 000000018007d430 f i libucrtd:output.obj
 0001:0007c4f0       ?validate_and_update_state_at_end_of_format_string@?$format_validation_base@_WV?$stream_output_adapter@_W@__crt_stdio_output@@@__crt_stdio_output@@IEBA_NXZ 000000018007d4f0 f i libucrtd:output.obj
 0001:0007c5b0       ?validate_and_update_state_at_end_of_format_string@?$format_validation_base@_WV?$string_output_adapter@_W@__crt_stdio_output@@@__crt_stdio_output@@IEBA_NXZ 000000018007d5b0 f i libucrtd:output.obj
 0001:0007c670       ?validate_and_update_state_at_end_of_format_string@?$positional_parameter_base@DV?$stream_output_adapter@D@__crt_stdio_output@@@__crt_stdio_output@@IEAA_NXZ 000000018007d670 f i libucrtd:output.obj
 0001:0007c860       ?validate_and_update_state_at_end_of_format_string@?$positional_parameter_base@DV?$string_output_adapter@D@__crt_stdio_output@@@__crt_stdio_output@@IEAA_NXZ 000000018007d860 f i libucrtd:output.obj
 0001:0007ca50       ?validate_and_update_state_at_end_of_format_string@?$positional_parameter_base@_WV?$stream_output_adapter@_W@__crt_stdio_output@@@__crt_stdio_output@@IEAA_NXZ 000000018007da50 f i libucrtd:output.obj
 0001:0007cc40       ?validate_and_update_state_at_end_of_format_string@?$positional_parameter_base@_WV?$string_output_adapter@_W@__crt_stdio_output@@@__crt_stdio_output@@IEAA_NXZ 000000018007dc40 f i libucrtd:output.obj
 0001:0007ce30       ?validate_and_update_state_at_end_of_format_string@?$standard_base@DV?$stream_output_adapter@D@__crt_stdio_output@@@__crt_stdio_output@@IEBA_NXZ 000000018007de30 f i libucrtd:output.obj
 0001:0007ce40       ?validate_and_update_state_at_end_of_format_string@?$standard_base@DV?$string_output_adapter@D@__crt_stdio_output@@@__crt_stdio_output@@IEBA_NXZ 000000018007de40 f i libucrtd:output.obj
 0001:0007ce50       ?validate_and_update_state_at_end_of_format_string@?$standard_base@_WV?$stream_output_adapter@_W@__crt_stdio_output@@@__crt_stdio_output@@IEBA_NXZ 000000018007de50 f i libucrtd:output.obj
 0001:0007ce60       ?validate_and_update_state_at_end_of_format_string@?$standard_base@_WV?$string_output_adapter@_W@__crt_stdio_output@@@__crt_stdio_output@@IEBA_NXZ 000000018007de60 f i libucrtd:output.obj
 0001:0007ce70       ?validate_state_for_type_case_a@?$positional_parameter_base@DV?$stream_output_adapter@D@__crt_stdio_output@@@__crt_stdio_output@@IEAA_NXZ 000000018007de70 f i libucrtd:output.obj
 0001:0007cfb0       ?validate_state_for_type_case_a@?$positional_parameter_base@DV?$string_output_adapter@D@__crt_stdio_output@@@__crt_stdio_output@@IEAA_NXZ 000000018007dfb0 f i libucrtd:output.obj
 0001:0007d0f0       ?validate_state_for_type_case_a@?$positional_parameter_base@_WV?$stream_output_adapter@_W@__crt_stdio_output@@@__crt_stdio_output@@IEAA_NXZ 000000018007e0f0 f i libucrtd:output.obj
 0001:0007d230       ?validate_state_for_type_case_a@?$positional_parameter_base@_WV?$string_output_adapter@_W@__crt_stdio_output@@@__crt_stdio_output@@IEAA_NXZ 000000018007e230 f i libucrtd:output.obj
 0001:0007d370       ?validate_state_for_type_case_a@?$standard_base@DV?$stream_output_adapter@D@__crt_stdio_output@@@__crt_stdio_output@@IEBA_NXZ 000000018007e370 f i libucrtd:output.obj
 0001:0007d380       ?validate_state_for_type_case_a@?$standard_base@DV?$string_output_adapter@D@__crt_stdio_output@@@__crt_stdio_output@@IEBA_NXZ 000000018007e380 f i libucrtd:output.obj
 0001:0007d390       ?validate_state_for_type_case_a@?$standard_base@_WV?$stream_output_adapter@_W@__crt_stdio_output@@@__crt_stdio_output@@IEBA_NXZ 000000018007e390 f i libucrtd:output.obj
 0001:0007d3a0       ?validate_state_for_type_case_a@?$standard_base@_WV?$string_output_adapter@_W@__crt_stdio_output@@@__crt_stdio_output@@IEBA_NXZ 000000018007e3a0 f i libucrtd:output.obj
 0001:0007d3b0       ?validate_stream_is_ansi_if_required@?$__acrt_stdio_char_traits@D@@SA_NQEAU_iobuf@@@Z 000000018007e3b0 f i libucrtd:output.obj
 0001:0007d540       ?validate_stream_is_ansi_if_required@?$__acrt_stdio_char_traits@_W@@SA_NQEAU_iobuf@@@Z 000000018007e540 f i libucrtd:output.obj
 0001:0007d550       ?wide_null_string@?$output_processor@DV?$stream_output_adapter@D@__crt_stdio_output@@V?$format_validation_base@DV?$stream_output_adapter@D@__crt_stdio_output@@@2@@__crt_stdio_output@@CAPEA_WXZ 000000018007e550 f i libucrtd:output.obj
 0001:0007d560       ?wide_null_string@?$output_processor@DV?$stream_output_adapter@D@__crt_stdio_output@@V?$positional_parameter_base@DV?$stream_output_adapter@D@__crt_stdio_output@@@2@@__crt_stdio_output@@CAPEA_WXZ 000000018007e560 f i libucrtd:output.obj
 0001:0007d570       ?wide_null_string@?$output_processor@DV?$stream_output_adapter@D@__crt_stdio_output@@V?$standard_base@DV?$stream_output_adapter@D@__crt_stdio_output@@@2@@__crt_stdio_output@@CAPEA_WXZ 000000018007e570 f i libucrtd:output.obj
 0001:0007d580       ?wide_null_string@?$output_processor@DV?$string_output_adapter@D@__crt_stdio_output@@V?$format_validation_base@DV?$string_output_adapter@D@__crt_stdio_output@@@2@@__crt_stdio_output@@CAPEA_WXZ 000000018007e580 f i libucrtd:output.obj
 0001:0007d590       ?wide_null_string@?$output_processor@DV?$string_output_adapter@D@__crt_stdio_output@@V?$positional_parameter_base@DV?$string_output_adapter@D@__crt_stdio_output@@@2@@__crt_stdio_output@@CAPEA_WXZ 000000018007e590 f i libucrtd:output.obj
 0001:0007d5a0       ?wide_null_string@?$output_processor@DV?$string_output_adapter@D@__crt_stdio_output@@V?$standard_base@DV?$string_output_adapter@D@__crt_stdio_output@@@2@@__crt_stdio_output@@CAPEA_WXZ 000000018007e5a0 f i libucrtd:output.obj
 0001:0007d5b0       ?wide_null_string@?$output_processor@_WV?$stream_output_adapter@_W@__crt_stdio_output@@V?$format_validation_base@_WV?$stream_output_adapter@_W@__crt_stdio_output@@@2@@__crt_stdio_output@@CAPEA_WXZ 000000018007e5b0 f i libucrtd:output.obj
 0001:0007d5c0       ?wide_null_string@?$output_processor@_WV?$stream_output_adapter@_W@__crt_stdio_output@@V?$positional_parameter_base@_WV?$stream_output_adapter@_W@__crt_stdio_output@@@2@@__crt_stdio_output@@CAPEA_WXZ 000000018007e5c0 f i libucrtd:output.obj
 0001:0007d5d0       ?wide_null_string@?$output_processor@_WV?$stream_output_adapter@_W@__crt_stdio_output@@V?$standard_base@_WV?$stream_output_adapter@_W@__crt_stdio_output@@@2@@__crt_stdio_output@@CAPEA_WXZ 000000018007e5d0 f i libucrtd:output.obj
 0001:0007d5e0       ?wide_null_string@?$output_processor@_WV?$string_output_adapter@_W@__crt_stdio_output@@V?$format_validation_base@_WV?$string_output_adapter@_W@__crt_stdio_output@@@2@@__crt_stdio_output@@CAPEA_WXZ 000000018007e5e0 f i libucrtd:output.obj
 0001:0007d5f0       ?wide_null_string@?$output_processor@_WV?$string_output_adapter@_W@__crt_stdio_output@@V?$positional_parameter_base@_WV?$string_output_adapter@_W@__crt_stdio_output@@@2@@__crt_stdio_output@@CAPEA_WXZ 000000018007e5f0 f i libucrtd:output.obj
 0001:0007d600       ?wide_null_string@?$output_processor@_WV?$string_output_adapter@_W@__crt_stdio_output@@V?$standard_base@_WV?$string_output_adapter@_W@__crt_stdio_output@@@2@@__crt_stdio_output@@CAPEA_WXZ 000000018007e600 f i libucrtd:output.obj
 0001:0007d610       ?write_character@?$output_adapter_common@DV?$stream_output_adapter@D@__crt_stdio_output@@@__crt_stdio_output@@QEBAXDQEAH@Z 000000018007e610 f i libucrtd:output.obj
 0001:0007d660       ?write_character@?$output_adapter_common@_WV?$stream_output_adapter@_W@__crt_stdio_output@@@__crt_stdio_output@@QEBAX_WQEAH@Z 000000018007e660 f i libucrtd:output.obj
 0001:0007d6b0       ?write_character@?$string_output_adapter@D@__crt_stdio_output@@QEBA_NDQEAH@Z 000000018007e6b0 f i libucrtd:output.obj
 0001:0007d770       ?write_character@?$string_output_adapter@_W@__crt_stdio_output@@QEBA_N_WQEAH@Z 000000018007e770 f i libucrtd:output.obj
 0001:0007d830       ?write_character_without_count_update@?$stream_output_adapter@D@__crt_stdio_output@@QEBA_ND@Z 000000018007e830 f i libucrtd:output.obj
 0001:0007d8b0       ?write_character_without_count_update@?$stream_output_adapter@_W@__crt_stdio_output@@QEBA_N_W@Z 000000018007e8b0 f i libucrtd:output.obj
 0001:0007d940       ?write_stored_string_tchar@?$output_processor@DV?$stream_output_adapter@D@__crt_stdio_output@@V?$format_validation_base@DV?$stream_output_adapter@D@__crt_stdio_output@@@2@@__crt_stdio_output@@AEAA_ND@Z 000000018007e940 f i libucrtd:output.obj
 0001:0007daf0       ?write_stored_string_tchar@?$output_processor@DV?$stream_output_adapter@D@__crt_stdio_output@@V?$positional_parameter_base@DV?$stream_output_adapter@D@__crt_stdio_output@@@2@@__crt_stdio_output@@AEAA_ND@Z 000000018007eaf0 f i libucrtd:output.obj
 0001:0007dca0       ?write_stored_string_tchar@?$output_processor@DV?$stream_output_adapter@D@__crt_stdio_output@@V?$standard_base@DV?$stream_output_adapter@D@__crt_stdio_output@@@2@@__crt_stdio_output@@AEAA_ND@Z 000000018007eca0 f i libucrtd:output.obj
 0001:0007de50       ?write_stored_string_tchar@?$output_processor@DV?$string_output_adapter@D@__crt_stdio_output@@V?$format_validation_base@DV?$string_output_adapter@D@__crt_stdio_output@@@2@@__crt_stdio_output@@AEAA_ND@Z 000000018007ee50 f i libucrtd:output.obj
 0001:0007e000       ?write_stored_string_tchar@?$output_processor@DV?$string_output_adapter@D@__crt_stdio_output@@V?$positional_parameter_base@DV?$string_output_adapter@D@__crt_stdio_output@@@2@@__crt_stdio_output@@AEAA_ND@Z 000000018007f000 f i libucrtd:output.obj
 0001:0007e1b0       ?write_stored_string_tchar@?$output_processor@DV?$string_output_adapter@D@__crt_stdio_output@@V?$standard_base@DV?$string_output_adapter@D@__crt_stdio_output@@@2@@__crt_stdio_output@@AEAA_ND@Z 000000018007f1b0 f i libucrtd:output.obj
 0001:0007e360       ?write_stored_string_tchar@?$output_processor@_WV?$stream_output_adapter@_W@__crt_stdio_output@@V?$format_validation_base@_WV?$stream_output_adapter@_W@__crt_stdio_output@@@2@@__crt_stdio_output@@AEAA_N_W@Z 000000018007f360 f i libucrtd:output.obj
 0001:0007e4b0       ?write_stored_string_tchar@?$output_processor@_WV?$stream_output_adapter@_W@__crt_stdio_output@@V?$positional_parameter_base@_WV?$stream_output_adapter@_W@__crt_stdio_output@@@2@@__crt_stdio_output@@AEAA_N_W@Z 000000018007f4b0 f i libucrtd:output.obj
 0001:0007e600       ?write_stored_string_tchar@?$output_processor@_WV?$stream_output_adapter@_W@__crt_stdio_output@@V?$standard_base@_WV?$stream_output_adapter@_W@__crt_stdio_output@@@2@@__crt_stdio_output@@AEAA_N_W@Z 000000018007f600 f i libucrtd:output.obj
 0001:0007e750       ?write_stored_string_tchar@?$output_processor@_WV?$string_output_adapter@_W@__crt_stdio_output@@V?$format_validation_base@_WV?$string_output_adapter@_W@__crt_stdio_output@@@2@@__crt_stdio_output@@AEAA_N_W@Z 000000018007f750 f i libucrtd:output.obj
 0001:0007e8a0       ?write_stored_string_tchar@?$output_processor@_WV?$string_output_adapter@_W@__crt_stdio_output@@V?$positional_parameter_base@_WV?$string_output_adapter@_W@__crt_stdio_output@@@2@@__crt_stdio_output@@AEAA_N_W@Z 000000018007f8a0 f i libucrtd:output.obj
 0001:0007e9f0       ?write_stored_string_tchar@?$output_processor@_WV?$string_output_adapter@_W@__crt_stdio_output@@V?$standard_base@_WV?$string_output_adapter@_W@__crt_stdio_output@@@2@@__crt_stdio_output@@AEAA_N_W@Z 000000018007f9f0 f i libucrtd:output.obj
 0001:0007eb40       ?write_string@?$stream_output_adapter@D@__crt_stdio_output@@QEBAXQEBDHQEAHAEAV__crt_deferred_errno_cache@@@Z 000000018007fb40 f i libucrtd:output.obj
 0001:0007ebc0       ?write_string@?$stream_output_adapter@_W@__crt_stdio_output@@QEBAXQEB_WHQEAHAEAV__crt_deferred_errno_cache@@@Z 000000018007fbc0 f i libucrtd:output.obj
 0001:0007ec40       ?write_string@?$string_output_adapter@D@__crt_stdio_output@@QEBAXQEBDHQEAHAEAV__crt_deferred_errno_cache@@@Z 000000018007fc40 f i libucrtd:output.obj
 0001:0007edb0       ?write_string@?$string_output_adapter@_W@__crt_stdio_output@@QEBAXQEB_WHQEAHAEAV__crt_deferred_errno_cache@@@Z 000000018007fdb0 f i libucrtd:output.obj
 0001:0007ef20       ?write_string_impl@?$output_adapter_common@DV?$stream_output_adapter@D@__crt_stdio_output@@@__crt_stdio_output@@IEBAXQEBDHQEAHAEAV__crt_deferred_errno_cache@@@Z 000000018007ff20 f i libucrtd:output.obj
 0001:0007f000       ?write_string_impl@?$output_adapter_common@_WV?$stream_output_adapter@_W@__crt_stdio_output@@@__crt_stdio_output@@IEBAXQEB_WHQEAHAEAV__crt_deferred_errno_cache@@@Z 0000000180080000 f i libucrtd:output.obj
 0001:0007f0e0       __acrt_isleadbyte_l_noupdate 00000001800800e0 f i libucrtd:output.obj
 0001:0007f110       __acrt_locale_changed      0000000180080110 f i libucrtd:output.obj
 0001:0007f140       __acrt_locale_get_ctype_array_value 0000000180080140 f i libucrtd:output.obj
 0001:0007f180       __stdio_common_vfprintf    0000000180080180 f   libucrtd:output.obj
 0001:0007f1c0       __stdio_common_vfprintf_p  00000001800801c0 f   libucrtd:output.obj
 0001:0007f200       __stdio_common_vfprintf_s  0000000180080200 f   libucrtd:output.obj
 0001:0007f240       __stdio_common_vfwprintf   0000000180080240 f   libucrtd:output.obj
 0001:0007f280       __stdio_common_vfwprintf_p 0000000180080280 f   libucrtd:output.obj
 0001:0007f2c0       __stdio_common_vfwprintf_s 00000001800802c0 f   libucrtd:output.obj
 0001:0007f300       __stdio_common_vsnprintf_s 0000000180080300 f   libucrtd:output.obj
 0001:0007f360       __stdio_common_vsnwprintf_s 0000000180080360 f   libucrtd:output.obj
 0001:0007f3c0       __stdio_common_vsprintf    00000001800803c0 f   libucrtd:output.obj
 0001:0007f410       __stdio_common_vsprintf_p  0000000180080410 f   libucrtd:output.obj
 0001:0007f460       __stdio_common_vsprintf_s  0000000180080460 f   libucrtd:output.obj
 0001:0007f4b0       __stdio_common_vswprintf   00000001800804b0 f   libucrtd:output.obj
 0001:0007f500       __stdio_common_vswprintf_p 0000000180080500 f   libucrtd:output.obj
 0001:0007f550       __stdio_common_vswprintf_s 0000000180080550 f   libucrtd:output.obj
 0001:0007f5a0       _ctype_fast_check_internal 00000001800805a0 f i libucrtd:output.obj
 0001:0007f5d0       _isdigit_fast_internal     00000001800805d0 f i libucrtd:output.obj
 0001:0007f600       _tolower_fast_internal     0000000180080600 f i libucrtd:output.obj
 0001:0007f630       free                       0000000180080630 f   libucrtd:free.obj
 0001:0007f660       malloc                     0000000180080660 f   libucrtd:malloc.obj
 0001:0007f690       ??$?RU?$__crt_report_hook_node@D@@@__crt_internal_free_policy@@QEBAXQEBU?$__crt_report_hook_node@D@@@Z 0000000180080690 f i libucrtd:dbgrpt.obj
 0001:0007f6c0       ??$?RU?$__crt_report_hook_node@_W@@@__crt_internal_free_policy@@QEBAXQEBU?$__crt_report_hook_node@_W@@@Z 00000001800806c0 f i libucrtd:dbgrpt.obj
 0001:00080900       ??$get_module_file_name@AEAPEAUHINSTANCE__@@AEAY0BAF@DK@?$__crt_char_traits@D@@SAKAEAPEAUHINSTANCE__@@AEAY0BAF@D$$QEAK@Z 0000000180081900 f i libucrtd:dbgrpt.obj
 0001:00080940       ??$get_module_file_name@AEAPEAUHINSTANCE__@@AEAY0BAF@_WK@?$__crt_char_traits@_W@@SAKAEAPEAUHINSTANCE__@@AEAY0BAF@_W$$QEAK@Z 0000000180081940 f i libucrtd:dbgrpt.obj
 0001:00080980       ??$tcscpy_s@AEAY0BAF@D_KPEBD@?$__crt_char_traits@D@@SAHAEAY0BAF@D$$QEA_K$$QEAPEBD@Z 0000000180081980 f i libucrtd:dbgrpt.obj
 0001:000809c0       ??$tcscpy_s@AEAY0BAF@_W_KPEB_W@?$__crt_char_traits@_W@@SAHAEAY0BAF@_W$$QEA_K$$QEAPEB_W@Z 00000001800819c0 f i libucrtd:dbgrpt.obj
 0001:00080a00       ??$tcslen@AEAY0BAF@D@?$__crt_char_traits@D@@SA_KAEAY0BAF@D@Z 0000000180081a00 f i libucrtd:dbgrpt.obj
 0001:00080a20       ??$tcslen@AEAY0BAF@_W@?$__crt_char_traits@_W@@SA_KAEAY0BAF@_W@Z 0000000180081a20 f i libucrtd:dbgrpt.obj
 0001:00080a40       ??$tcslen@AEBQEBD@?$__crt_char_traits@D@@SA_KAEBQEBD@Z 0000000180081a40 f i libucrtd:dbgrpt.obj
 0001:00080a60       ??$tcslen@AEBQEB_W@?$__crt_char_traits@_W@@SA_KAEBQEB_W@Z 0000000180081a60 f i libucrtd:dbgrpt.obj
 0001:00080b60       ??0?$__crt_unique_heap_ptr@U?$__crt_report_hook_node@D@@U__crt_internal_free_policy@@@@QEAA@QEAU?$__crt_report_hook_node@D@@@Z 0000000180081b60 f i libucrtd:dbgrpt.obj
 0001:00080b80       ??0?$__crt_unique_heap_ptr@U?$__crt_report_hook_node@_W@@U__crt_internal_free_policy@@@@QEAA@QEAU?$__crt_report_hook_node@_W@@@Z 0000000180081b80 f i libucrtd:dbgrpt.obj
 0001:00080ba0       ??1?$__crt_unique_heap_ptr@U?$__crt_report_hook_node@D@@U__crt_internal_free_policy@@@@QEAA@XZ 0000000180081ba0 f i libucrtd:dbgrpt.obj
 0001:00080bc0       ??1?$__crt_unique_heap_ptr@U?$__crt_report_hook_node@_W@@U__crt_internal_free_policy@@@@QEAA@XZ 0000000180081bc0 f i libucrtd:dbgrpt.obj
 0001:00080be0       ??B?$__crt_unique_heap_ptr@U?$__crt_report_hook_node@D@@U__crt_internal_free_policy@@@@QEBA_NXZ 0000000180081be0 f i libucrtd:dbgrpt.obj
 0001:00080c00       ??B?$__crt_unique_heap_ptr@U?$__crt_report_hook_node@_W@@U__crt_internal_free_policy@@@@QEBA_NXZ 0000000180081c00 f i libucrtd:dbgrpt.obj
 0001:000812e0       ?detach@?$__crt_unique_heap_ptr@U?$__crt_report_hook_node@D@@U__crt_internal_free_policy@@@@QEAAPEAU?$__crt_report_hook_node@D@@XZ 00000001800822e0 f i libucrtd:dbgrpt.obj
 0001:00081310       ?detach@?$__crt_unique_heap_ptr@U?$__crt_report_hook_node@_W@@U__crt_internal_free_policy@@@@QEAAPEAU?$__crt_report_hook_node@_W@@XZ 0000000180082310 f i libucrtd:dbgrpt.obj
 0001:00081340       ?get@?$__crt_unique_heap_ptr@U?$__crt_report_hook_node@D@@U__crt_internal_free_policy@@@@QEBAPEAU?$__crt_report_hook_node@D@@XZ 0000000180082340 f i libucrtd:dbgrpt.obj
 0001:00081350       ?get@?$__crt_unique_heap_ptr@U?$__crt_report_hook_node@_W@@U__crt_internal_free_policy@@@@QEBAPEAU?$__crt_report_hook_node@_W@@XZ 0000000180082350 f i libucrtd:dbgrpt.obj
 0001:000813c0       ?is_valid@?$__crt_unique_heap_ptr@U?$__crt_report_hook_node@D@@U__crt_internal_free_policy@@@@QEBA_NXZ 00000001800823c0 f i libucrtd:dbgrpt.obj
 0001:000813f0       ?is_valid@?$__crt_unique_heap_ptr@U?$__crt_report_hook_node@_W@@U__crt_internal_free_policy@@@@QEBA_NXZ 00000001800823f0 f i libucrtd:dbgrpt.obj
 0001:00081420       ?release@?$__crt_unique_heap_ptr@U?$__crt_report_hook_node@D@@U__crt_internal_free_policy@@@@QEAAXXZ 0000000180082420 f i libucrtd:dbgrpt.obj
 0001:00081450       ?release@?$__crt_unique_heap_ptr@U?$__crt_report_hook_node@_W@@U__crt_internal_free_policy@@@@QEAAXXZ 0000000180082450 f i libucrtd:dbgrpt.obj
 0001:00081480       _CrtDbgReport              0000000180082480 f   libucrtd:dbgrpt.obj
 0001:00081500       _CrtDbgReportW             0000000180082500 f   libucrtd:dbgrpt.obj
 0001:00081580       _CrtSetReportHook2         0000000180082580 f   libucrtd:dbgrpt.obj
 0001:000815a0       _CrtSetReportHookW2        00000001800825a0 f   libucrtd:dbgrpt.obj
 0001:000815c0       __acrt_MessageWindowA      00000001800825c0 f   libucrtd:dbgrpt.obj
 0001:00081610       __acrt_MessageWindowW      0000000180082610 f   libucrtd:dbgrpt.obj
 0001:00081660       _invoke_watson_if_error    0000000180082660 f i libucrtd:dbgrpt.obj
 0001:000816b0       _invoke_watson_if_oneof    00000001800826b0 f i libucrtd:dbgrpt.obj
 0001:00081710       _snwprintf_s               0000000180082710 f i libucrtd:dbgrpt.obj
 0001:00081780       _vsnwprintf_s_l            0000000180082780 f i libucrtd:dbgrpt.obj
 0001:00081ce0       wcscpy_s                   0000000180082ce0 f   libucrtd:wcscpy_s.obj
 0001:00083070       ??1?$__crt_simd_cleanup_guard@$00@@QEAA@XZ 0000000180084070 f i libucrtd:strnlen.obj
 0001:00083080       ??1?$__crt_simd_cleanup_guard@$0A@@@QEAA@XZ 0000000180084080 f i libucrtd:strnlen.obj
 0001:00083090       ?compare_equals@?$__crt_simd_traits@$00E@@SA?AT__m256i@@T2@0@Z 0000000180084090 f i libucrtd:strnlen.obj
 0001:000830d0       ?compare_equals@?$__crt_simd_traits@$00G@@SA?AT__m256i@@T2@0@Z 00000001800840d0 f i libucrtd:strnlen.obj
 0001:00083110       ?compare_equals@?$__crt_simd_traits@$0A@E@@SA?AT__m128i@@T2@0@Z 0000000180084110 f i libucrtd:strnlen.obj
 0001:00083140       ?compare_equals@?$__crt_simd_traits@$0A@G@@SA?AT__m128i@@T2@0@Z 0000000180084140 f i libucrtd:strnlen.obj
 0001:00083170       ?compute_byte_mask@?$__crt_simd_pack_traits@$00@@SAHT__m256i@@@Z 0000000180084170 f i libucrtd:strnlen.obj
 0001:00083190       ?compute_byte_mask@?$__crt_simd_pack_traits@$0A@@@SAHT__m128i@@@Z 0000000180084190 f i libucrtd:strnlen.obj
 0001:000831b0       ?get_zero_pack@?$__crt_simd_pack_traits@$00@@SA?AT__m256i@@XZ 00000001800841b0 f i libucrtd:strnlen.obj
 0001:000831e0       ?get_zero_pack@?$__crt_simd_pack_traits@$0A@@@SA?AT__m128i@@XZ 00000001800841e0 f i libucrtd:strnlen.obj
 0001:00083200       strnlen                    0000000180084200 f   libucrtd:strnlen.obj
 0001:00083230       wcslen                     0000000180084230 f   libucrtd:strnlen.obj
 0001:00083250       wcsnlen                    0000000180084250 f   libucrtd:strnlen.obj
 0001:00083280       ??$__crt_fast_decode_pointer@P6AXPEB_W00I_K@Z@@YAP6AXPEB_W00I_K@ZQ6AX000I1@Z@Z 0000000180084280 f i libucrtd:invalid_parameter.obj
 0001:000832c0       ??$__crt_fast_encode_pointer@P6AXPEB_W00I_K@Z@@YAP6AXPEB_W00I_K@ZQ6AX000I1@Z@Z 00000001800842c0 f i libucrtd:invalid_parameter.obj
 0001:00083300       ??$initialize_from_array@$$BY00Q6AXPEB_W00I_K@Z@?$dual_state_global@P6AXPEB_W00I_K@Z@__crt_state_management@@QEAAXAEAY00Q6AXPEB_W00I_K@Z@Z 0000000180084300 f i libucrtd:invalid_parameter.obj
 0001:00083360       ?__crt_rotate_pointer_value@@YA_K_KH@Z 0000000180084360 f i libucrtd:invalid_parameter.obj
 0001:00083420       ?dangerous_get_state_array@?$dual_state_global@P6AXPEB_W00I_K@Z@__crt_state_management@@QEAAPEAP6AXPEB_W00I_K@ZXZ 0000000180084420 f i libucrtd:invalid_parameter.obj
 0001:00083430       ?get_current_state_index@__crt_state_management@@YA_KXZ 0000000180084430 f i libucrtd:invalid_parameter.obj
 0001:00083440       ?value@?$dual_state_global@P6AXPEB_W00I_K@Z@__crt_state_management@@QEAAAEAP6AXPEB_W00I_K@ZXZ 0000000180084440 f i libucrtd:invalid_parameter.obj
 0001:00083460       __acrt_call_reportfault    0000000180084460 f   libucrtd:invalid_parameter.obj
 0001:00083590       __acrt_initialize_invalid_parameter_handler 0000000180084590 f   libucrtd:invalid_parameter.obj
 0001:000835c0       _get_invalid_parameter_handler 00000001800845c0 f   libucrtd:invalid_parameter.obj
 0001:000835e0       _get_thread_local_invalid_parameter_handler 00000001800845e0 f   libucrtd:invalid_parameter.obj
 0001:00083610       _invalid_parameter         0000000180084610 f   libucrtd:invalid_parameter.obj
 0001:00083710       _invalid_parameter_noinfo  0000000180084710 f   libucrtd:invalid_parameter.obj
 0001:00083740       _invalid_parameter_noinfo_noreturn 0000000180084740 f   libucrtd:invalid_parameter.obj
 0001:00083780       _invoke_watson             0000000180084780 f   libucrtd:invalid_parameter.obj
 0001:000837e0       _set_invalid_parameter_handler 00000001800847e0 f   libucrtd:invalid_parameter.obj
 0001:00083830       _set_thread_local_invalid_parameter_handler 0000000180084830 f   libucrtd:invalid_parameter.obj
 0001:00083870       __acrt_errno_from_os_error 0000000180084870 f   libucrtd:errno.obj
 0001:00083900       __acrt_errno_map_os_error  0000000180084900 f   libucrtd:errno.obj
 0001:00083930       __doserrno                 0000000180084930 f   libucrtd:errno.obj
 0001:00083960       _errno                     0000000180084960 f   libucrtd:errno.obj
 0001:00083990       _get_doserrno              0000000180084990 f   libucrtd:errno.obj
 0001:00083a50       _get_errno                 0000000180084a50 f   libucrtd:errno.obj
 0001:00083b10       _set_doserrno              0000000180084b10 f   libucrtd:errno.obj
 0001:00083b50       _set_errno                 0000000180084b50 f   libucrtd:errno.obj
 0001:00083b90       calloc                     0000000180084b90 f   libucrtd:calloc.obj
 0001:00083bd0       _recalloc                  0000000180084bd0 f   libucrtd:recalloc.obj
 0001:00083c20       _recalloc_base             0000000180084c20 f   libucrtd:recalloc.obj
 0001:00083cfc       _resetstkoflw              0000000180084cfc f   libucrtd:resetstk.obj
 0001:000844b0       wcscat_s                   00000001800854b0 f   libucrtd:wcscat_s.obj
 0001:00084b80       wcsncpy_s                  0000000180085b80 f   libucrtd:wcsncpy_s.obj
 0001:00084be0       __acrt_get_locale_data_prefix 0000000180085be0 f i libucrtd:_ctype.obj
 0001:00084c00       __isascii                  0000000180085c00 f i libucrtd:_ctype.obj
 0001:00084c30       __iscsym                   0000000180085c30 f i libucrtd:_ctype.obj
 0001:00084c70       __iscsymf                  0000000180085c70 f i libucrtd:_ctype.obj
 0001:00084cb0       __toascii                  0000000180085cb0 f i libucrtd:_ctype.obj
 0001:00084cc0       _chvalidchk_l              0000000180085cc0 f i libucrtd:_ctype.obj
 0001:00084cf0       _isalnum_l                 0000000180085cf0 f i libucrtd:_ctype.obj
 0001:00084d40       _isalpha_l                 0000000180085d40 f i libucrtd:_ctype.obj
 0001:00084d90       _isblank_l                 0000000180085d90 f i libucrtd:_ctype.obj
 0001:00084e00       _ischartype_l              0000000180085e00 f i libucrtd:_ctype.obj
 0001:00084e90       _iscntrl_l                 0000000180085e90 f i libucrtd:_ctype.obj
 0001:00084ee0       _iscsym_l                  0000000180085ee0 f i libucrtd:_ctype.obj
 0001:00084f30       _iscsymf_l                 0000000180085f30 f i libucrtd:_ctype.obj
 0001:00084f80       _isdigit_l                 0000000180085f80 f i libucrtd:_ctype.obj
 0001:00084fd0       _isgraph_l                 0000000180085fd0 f i libucrtd:_ctype.obj
 0001:00085020       _islower_l                 0000000180086020 f i libucrtd:_ctype.obj
 0001:00085070       _isprint_l                 0000000180086070 f i libucrtd:_ctype.obj
 0001:000850c0       _ispunct_l                 00000001800860c0 f i libucrtd:_ctype.obj
 0001:00085110       _isspace_l                 0000000180086110 f i libucrtd:_ctype.obj
 0001:00085160       _isupper_l                 0000000180086160 f i libucrtd:_ctype.obj
 0001:000851b0       _isxdigit_l                00000001800861b0 f i libucrtd:_ctype.obj
 0001:00085200       isalnum                    0000000180086200 f i libucrtd:_ctype.obj
 0001:00085240       isalpha                    0000000180086240 f i libucrtd:_ctype.obj
 0001:00085280       isblank                    0000000180086280 f i libucrtd:_ctype.obj
 0001:000852e0       iscntrl                    00000001800862e0 f i libucrtd:_ctype.obj
 0001:00085320       isdigit                    0000000180086320 f i libucrtd:_ctype.obj
 0001:00085360       isgraph                    0000000180086360 f i libucrtd:_ctype.obj
 0001:000853a0       islower                    00000001800863a0 f i libucrtd:_ctype.obj
 0001:000853e0       isprint                    00000001800863e0 f i libucrtd:_ctype.obj
 0001:00085420       ispunct                    0000000180086420 f i libucrtd:_ctype.obj
 0001:00085460       isspace                    0000000180086460 f i libucrtd:_ctype.obj
 0001:000854a0       isupper                    00000001800864a0 f i libucrtd:_ctype.obj
 0001:000854e0       isxdigit                   00000001800864e0 f i libucrtd:_ctype.obj
 0001:00085520       wcscat                     0000000180086520 f   libucrtd:wcscat.obj
 0001:000855a0       wcscpy                     00000001800865a0 f   libucrtd:wcscpy.obj
 0001:00085d50       ??$open_file@AEBQEBDAEBQEBDAEBHPEAU_iobuf@@@?$__crt_char_traits@D@@SAPEAU_iobuf@@AEBQEBD0AEBH$$QEAPEAU1@@Z 0000000180086d50 f i libucrtd:fopen.obj
 0001:00085da0       ??$open_file@AEBQEB_WAEBQEB_WAEBHPEAU_iobuf@@@?$__crt_char_traits@_W@@SAPEAU_iobuf@@AEBQEB_W0AEBH$$QEAPEAU1@@Z 0000000180086da0 f i libucrtd:fopen.obj
 0001:00085df0       ?unlock@__crt_stdio_stream@@QEBAXXZ 0000000180086df0 f i libucrtd:fopen.obj
 0001:00085e10       _fsopen                    0000000180086e10 f   libucrtd:fopen.obj
 0001:00085e40       _wfopen                    0000000180086e40 f   libucrtd:fopen.obj
 0001:00085e70       _wfopen_s                  0000000180086e70 f   libucrtd:fopen.obj
 0001:00085ea0       _wfsopen                   0000000180086ea0 f   libucrtd:fopen.obj
 0001:00085ed0       fopen                      0000000180086ed0 f   libucrtd:fopen.obj
 0001:00085f00       fopen_s                    0000000180086f00 f   libucrtd:fopen.obj
 0001:00085f30       ?is_in_use@__crt_stdio_stream@@QEBA_NXZ 0000000180086f30 f i libucrtd:fclose.obj
 0001:00085f70       _fclose_nolock             0000000180086f70 f   libucrtd:fclose.obj
 0001:00086100       fclose                     0000000180087100 f   libucrtd:fclose.obj
 0001:00086240       _fputc_nolock              0000000180087240 f   libucrtd:fputc.obj
 0001:000862f0       _fputchar                  00000001800872f0 f   libucrtd:fputc.obj
 0001:00086320       _putc_nolock               0000000180087320 f   libucrtd:fputc.obj
 0001:00086340       fputc                      0000000180087340 f   libucrtd:fputc.obj
 0001:000865e0       putc                       00000001800875e0 f   libucrtd:fputc.obj
 0001:00086600       putchar                    0000000180087600 f   libucrtd:fputc.obj
 0001:00086690       _seh_filter_dll            0000000180087690 f   libucrtd:exception_filter.obj
 0001:000866c0       _seh_filter_exe            00000001800876c0 f   libucrtd:exception_filter.obj
 0001:00086960       ??$?B$$A6AXPEAXK0@Z@__crt_fast_encoded_nullptr_t@@QEBAP6AXPEAXK0@ZXZ 0000000180087960 f i libucrtd:exit.obj
 0001:00086a10       ??$__crt_fast_decode_pointer@P6AXPEAXK0@Z@@YAP6AXPEAXK0@ZQ6AX0K0@Z@Z 0000000180087a10 f i libucrtd:exit.obj
 0001:00086a50       ??$__crt_fast_encode_pointer@P6AXPEAXK0@Z@@YAP6AXPEAXK0@ZQ6AX0K0@Z@Z 0000000180087a50 f i libucrtd:exit.obj
 0001:00086a90       ??$__crt_get_proc_address@P6AXI@Z@@YAP6AXI@ZQEAUHINSTANCE__@@QEBD@Z 0000000180087a90 f i libucrtd:exit.obj
 0001:00086b50       ??0?$__crt_unique_handle_t@U__crt_hmodule_traits@@@@QEAA@QEAUHINSTANCE__@@@Z 0000000180087b50 f i libucrtd:exit.obj
 0001:00086b70       ??1?$__crt_unique_handle_t@U__crt_hmodule_traits@@@@QEAA@XZ 0000000180087b70 f i libucrtd:exit.obj
 0001:00086cd0       ?__acrt_select_exit_lock@@YA?AW4__acrt_lock_id@@XZ 0000000180087cd0 f i libucrtd:exit.obj
 0001:00086ce0       ?__crt_fast_encode_pointer@@YA?AU__crt_fast_encoded_nullptr_t@@$$T@Z 0000000180087ce0 f i libucrtd:exit.obj
 0001:00086d20       ?close@?$__crt_unique_handle_t@U__crt_hmodule_traits@@@@QEAAXXZ 0000000180087d20 f i libucrtd:exit.obj
 0001:00086d60       ?close@__crt_hmodule_traits@@SA_NPEAUHINSTANCE__@@@Z 0000000180087d60 f i libucrtd:exit.obj
 0001:00086e70       ?get@?$__crt_unique_handle_t@U__crt_hmodule_traits@@@@QEBAPEAUHINSTANCE__@@XZ 0000000180087e70 f i libucrtd:exit.obj
 0001:00086e80       ?get_address_of@?$__crt_unique_handle_t@U__crt_hmodule_traits@@@@QEAAPEAPEAUHINSTANCE__@@XZ 0000000180087e80 f i libucrtd:exit.obj
 0001:00086e90       ?get_invalid_value@__crt_hmodule_traits@@SAPEAUHINSTANCE__@@XZ 0000000180087e90 f i libucrtd:exit.obj
 0001:00087050       _Exit                      0000000180088050 f   libucrtd:exit.obj
 0001:00087070       __acrt_initialize_thread_local_exit_callback 0000000180088070 f   libucrtd:exit.obj
 0001:00087090       _c_exit                    0000000180088090 f   libucrtd:exit.obj
 0001:000870b0       _cexit                     00000001800880b0 f   libucrtd:exit.obj
 0001:000870d0       _exit                      00000001800880d0 f   libucrtd:exit.obj
 0001:000870f0       _is_c_termination_complete 00000001800880f0 f   libucrtd:exit.obj
 0001:00087110       _register_thread_local_exe_atexit_callback 0000000180088110 f   libucrtd:exit.obj
 0001:00087160       exit                       0000000180088160 f   libucrtd:exit.obj
 0001:00087180       quick_exit                 0000000180088180 f   libucrtd:exit.obj
 0001:000871a0       ??$?RE@__crt_internal_free_policy@@QEBAXQEBE@Z 00000001800881a0 f i libucrtd:argv_parsing.obj
 0001:000871d0       ??$?RPEAD@__crt_internal_free_policy@@QEBAXQEBQEAD@Z 00000001800881d0 f i libucrtd:argv_parsing.obj
 0001:00087200       ??$?RPEA_W@__crt_internal_free_policy@@QEBAXQEBQEA_W@Z 0000000180088200 f i libucrtd:argv_parsing.obj
 0001:00087950       ??$get_module_file_name@$$TAEAY0BAF@DH@?$__crt_char_traits@D@@SAK$$QEA$$TAEAY0BAF@D$$QEAH@Z 0000000180088950 f i libucrtd:argv_parsing.obj
 0001:00087990       ??$get_module_file_name@$$TAEAY0BAF@_WH@?$__crt_char_traits@_W@@SAK$$QEA$$TAEAY0BAF@_W$$QEAH@Z 0000000180088990 f i libucrtd:argv_parsing.obj
 0001:00088340       ??$set_program_name@PEAD@?$__crt_char_traits@D@@SAX$$QEAPEAD@Z 0000000180089340 f i libucrtd:argv_parsing.obj
 0001:00088360       ??$set_program_name@PEA_W@?$__crt_char_traits@_W@@SAX$$QEAPEA_W@Z 0000000180089360 f i libucrtd:argv_parsing.obj
 0001:000883c0       ??0?$__crt_unique_heap_ptr@EU__crt_internal_free_policy@@@@QEAA@QEAE@Z 00000001800893c0 f i libucrtd:argv_parsing.obj
 0001:000883e0       ??0?$__crt_unique_heap_ptr@PEADU__crt_internal_free_policy@@@@QEAA@QEAPEAD@Z 00000001800893e0 f i libucrtd:argv_parsing.obj
 0001:00088400       ??0?$__crt_unique_heap_ptr@PEA_WU__crt_internal_free_policy@@@@QEAA@QEAPEA_W@Z 0000000180089400 f i libucrtd:argv_parsing.obj
 0001:00088420       ??1?$__crt_unique_heap_ptr@EU__crt_internal_free_policy@@@@QEAA@XZ 0000000180089420 f i libucrtd:argv_parsing.obj
 0001:00088440       ??1?$__crt_unique_heap_ptr@PEADU__crt_internal_free_policy@@@@QEAA@XZ 0000000180089440 f i libucrtd:argv_parsing.obj
 0001:00088460       ??1?$__crt_unique_heap_ptr@PEA_WU__crt_internal_free_policy@@@@QEAA@XZ 0000000180089460 f i libucrtd:argv_parsing.obj
 0001:00088480       ??B?$__crt_unique_heap_ptr@EU__crt_internal_free_policy@@@@QEBA_NXZ 0000000180089480 f i libucrtd:argv_parsing.obj
 0001:00088560       ?detach@?$__crt_unique_heap_ptr@EU__crt_internal_free_policy@@@@QEAAPEAEXZ 0000000180089560 f i libucrtd:argv_parsing.obj
 0001:00088590       ?detach@?$__crt_unique_heap_ptr@PEADU__crt_internal_free_policy@@@@QEAAPEAPEADXZ 0000000180089590 f i libucrtd:argv_parsing.obj
 0001:000885c0       ?detach@?$__crt_unique_heap_ptr@PEA_WU__crt_internal_free_policy@@@@QEAAPEAPEA_WXZ 00000001800895c0 f i libucrtd:argv_parsing.obj
 0001:00088680       ?get@?$__crt_unique_heap_ptr@EU__crt_internal_free_policy@@@@QEBAPEAEXZ 0000000180089680 f i libucrtd:argv_parsing.obj
 0001:00088690       ?get@?$__crt_unique_heap_ptr@PEADU__crt_internal_free_policy@@@@QEBAPEAPEADXZ 0000000180089690 f i libucrtd:argv_parsing.obj
 0001:000886a0       ?get@?$__crt_unique_heap_ptr@PEA_WU__crt_internal_free_policy@@@@QEBAPEAPEA_WXZ 00000001800896a0 f i libucrtd:argv_parsing.obj
 0001:000886b0       ?get_address_of@?$__crt_unique_heap_ptr@PEADU__crt_internal_free_policy@@@@QEAAPEAPEAPEADXZ 00000001800896b0 f i libucrtd:argv_parsing.obj
 0001:000886c0       ?get_address_of@?$__crt_unique_heap_ptr@PEA_WU__crt_internal_free_policy@@@@QEAAPEAPEAPEA_WXZ 00000001800896c0 f i libucrtd:argv_parsing.obj
 0001:00088710       ?is_valid@?$__crt_unique_heap_ptr@EU__crt_internal_free_policy@@@@QEBA_NXZ 0000000180089710 f i libucrtd:argv_parsing.obj
 0001:00088740       ?release@?$__crt_unique_heap_ptr@EU__crt_internal_free_policy@@@@QEAAXXZ 0000000180089740 f i libucrtd:argv_parsing.obj
 0001:00088770       ?release@?$__crt_unique_heap_ptr@PEADU__crt_internal_free_policy@@@@QEAAXXZ 0000000180089770 f i libucrtd:argv_parsing.obj
 0001:000887a0       ?release@?$__crt_unique_heap_ptr@PEA_WU__crt_internal_free_policy@@@@QEAAXXZ 00000001800897a0 f i libucrtd:argv_parsing.obj
 0001:00088820       __acrt_allocate_buffer_for_argv 0000000180089820 f   libucrtd:argv_parsing.obj
 0001:00088940       _configure_narrow_argv     0000000180089940 f   libucrtd:argv_parsing.obj
 0001:00088960       _configure_wide_argv       0000000180089960 f   libucrtd:argv_parsing.obj
 0001:00088980       _set_pgmptr                0000000180089980 f i libucrtd:argv_parsing.obj
 0001:000889a0       _set_wpgmptr               00000001800899a0 f i libucrtd:argv_parsing.obj
 0001:000889b4       ??$?R_W@__crt_internal_free_policy@@QEBAXQEB_W@Z 00000001800899b4 f i libucrtd:environment_initialization.obj
 0001:00088f8c       ??$get_environment_from_os@$$V@?$__crt_char_traits@D@@SAPEADXZ 0000000180089f8c f i libucrtd:environment_initialization.obj
 0001:00088f94       ??$get_environment_from_os@$$V@?$__crt_char_traits@_W@@SAPEA_WXZ 0000000180089f94 f i libucrtd:environment_initialization.obj
 0001:00089164       ??$set_variable_in_environment_nolock@PEADH@?$__crt_char_traits@D@@SAH$$QEAPEAD$$QEAH@Z 000000018008a164 f i libucrtd:environment_initialization.obj
 0001:00089170       ??$set_variable_in_environment_nolock@PEA_WH@?$__crt_char_traits@_W@@SAH$$QEAPEA_W$$QEAH@Z 000000018008a170 f i libucrtd:environment_initialization.obj
 0001:0008917c       ??$tcscpy_s@PEADAEB_KAEAPEAD@?$__crt_char_traits@D@@SAH$$QEAPEADAEB_KAEAPEAD@Z 000000018008a17c f i libucrtd:environment_initialization.obj
 0001:0008918c       ??$tcscpy_s@PEA_WAEB_KAEAPEA_W@?$__crt_char_traits@_W@@SAH$$QEAPEA_WAEB_KAEAPEA_W@Z 000000018008a18c f i libucrtd:environment_initialization.obj
 0001:0008919c       ??$tcslen@AEAPEAD@?$__crt_char_traits@D@@SA_KAEAPEAD@Z 000000018008a19c f i libucrtd:environment_initialization.obj
 0001:000891b0       ??$tcslen@AEAPEA_W@?$__crt_char_traits@_W@@SA_KAEAPEA_W@Z 000000018008a1b0 f i libucrtd:environment_initialization.obj
 0001:000891c4       ??$uninitialize@A6AXAEAPEAPEAD@Z@?$dual_state_global@PEAPEAD@__crt_state_management@@QEAAXA6AXAEAPEAPEAD@Z@Z 000000018008a1c4 f i libucrtd:environment_initialization.obj
 0001:00089208       ??$uninitialize@A6AXAEAPEAPEA_W@Z@?$dual_state_global@PEAPEA_W@__crt_state_management@@QEAAXA6AXAEAPEAPEA_W@Z@Z 000000018008a208 f i libucrtd:environment_initialization.obj
 0001:00089284       ??0?$__crt_unique_heap_ptr@_WU__crt_internal_free_policy@@@@QEAA@QEA_W@Z 000000018008a284 f i libucrtd:environment_initialization.obj
 0001:0008928c       ??1?$__crt_unique_heap_ptr@_WU__crt_internal_free_policy@@@@QEAA@XZ 000000018008a28c f i libucrtd:environment_initialization.obj
 0001:000892ac       ??B?$__crt_unique_heap_ptr@PEADU__crt_internal_free_policy@@@@QEBA_NXZ 000000018008a2ac f i libucrtd:environment_initialization.obj
 0001:000892b4       ??B?$__crt_unique_heap_ptr@PEA_WU__crt_internal_free_policy@@@@QEBA_NXZ 000000018008a2b4 f i libucrtd:environment_initialization.obj
 0001:000892bc       ??B?$__crt_unique_heap_ptr@_WU__crt_internal_free_policy@@@@QEBA_NXZ 000000018008a2bc f i libucrtd:environment_initialization.obj
 0001:000892c4       ?__crt_compute_required_transform_buffer_count@@YA_KIQEBD@Z 000000018008a2c4 f i libucrtd:environment_initialization.obj
 0001:000892e8       ?__crt_compute_required_transform_buffer_count@@YA_KIQEB_W@Z 000000018008a2e8 f i libucrtd:environment_initialization.obj
 0001:00089318       ?__crt_transform_string@@YA_KIQEBDQEA_W_K@Z 000000018008a318 f i libucrtd:environment_initialization.obj
 0001:0008933c       ?__crt_transform_string@@YA_KIQEB_WQEAD_K@Z 000000018008a33c f i libucrtd:environment_initialization.obj
 0001:0008936c       ?detach@?$__crt_unique_heap_ptr@DU__crt_internal_free_policy@@@@QEAAPEADXZ 000000018008a36c f i libucrtd:environment_initialization.obj
 0001:00089374       ?detach@?$__crt_unique_heap_ptr@_WU__crt_internal_free_policy@@@@QEAAPEA_WXZ 000000018008a374 f i libucrtd:environment_initialization.obj
 0001:0008937c       ?get@?$__crt_unique_heap_ptr@_WU__crt_internal_free_policy@@@@QEBAPEA_WXZ 000000018008a37c f i libucrtd:environment_initialization.obj
 0001:000893b0       ?initialize@?$dual_state_global@PEAPEAD@__crt_state_management@@QEAAXQEAPEAD@Z 000000018008a3b0 f i libucrtd:environment_initialization.obj
 0001:000893d8       ?initialize@?$dual_state_global@PEAPEA_W@__crt_state_management@@QEAAXQEAPEA_W@Z 000000018008a3d8 f i libucrtd:environment_initialization.obj
 0001:00089400       ?is_valid@?$__crt_unique_heap_ptr@PEADU__crt_internal_free_policy@@@@QEBA_NXZ 000000018008a400 f i libucrtd:environment_initialization.obj
 0001:00089408       ?is_valid@?$__crt_unique_heap_ptr@PEA_WU__crt_internal_free_policy@@@@QEBA_NXZ 000000018008a408 f i libucrtd:environment_initialization.obj
 0001:00089410       ?is_valid@?$__crt_unique_heap_ptr@_WU__crt_internal_free_policy@@@@QEBA_NXZ 000000018008a410 f i libucrtd:environment_initialization.obj
 0001:00089424       ?release@?$__crt_unique_heap_ptr@_WU__crt_internal_free_policy@@@@QEAAXXZ 000000018008a424 f i libucrtd:environment_initialization.obj
 0001:00089444       ?value@?$dual_state_global@PEAPEAD@__crt_state_management@@QEAAAEAPEAPEADXZ 000000018008a444 f i libucrtd:environment_initialization.obj
 0001:00089448       ?value@?$dual_state_global@PEAPEA_W@__crt_state_management@@QEAAAEAPEAPEA_WXZ 000000018008a448 f i libucrtd:environment_initialization.obj
 0001:0008944c       __dcrt_get_or_create_narrow_environment_nolock 000000018008a44c f   libucrtd:environment_initialization.obj
 0001:00089488       __dcrt_get_or_create_wide_environment_nolock 000000018008a488 f   libucrtd:environment_initialization.obj
 0001:000894c4       __dcrt_uninitialize_environments_nolock 000000018008a4c4 f   libucrtd:environment_initialization.obj
 0001:000894fc       __p__environ               000000018008a4fc f   libucrtd:environment_initialization.obj
 0001:00089504       __p__wenviron              000000018008a504 f   libucrtd:environment_initialization.obj
 0001:0008950c       _get_initial_narrow_environment 000000018008a50c f   libucrtd:environment_initialization.obj
 0001:0008955c       _get_initial_wide_environment 000000018008a55c f   libucrtd:environment_initialization.obj
 0001:000895ac       _initialize_narrow_environment 000000018008a5ac f   libucrtd:environment_initialization.obj
 0001:000895b4       _initialize_wide_environment 000000018008a5b4 f   libucrtd:environment_initialization.obj
 0001:000895c0       ??$?B$$A6AXXZ@__crt_fast_encoded_nullptr_t@@QEBAP6AXXZXZ 000000018008a5c0 f i libucrtd:onexit.obj
 0001:000895e0       ??$?BP6AXXZ@__crt_fast_encoded_nullptr_t@@QEBAPEAP6AXXZXZ 000000018008a5e0 f i libucrtd:onexit.obj
 0001:00089600       ??$?RP6AXXZ@__crt_internal_free_policy@@QEBAXQEBQ6AXXZ@Z 000000018008a600 f i libucrtd:onexit.obj
 0001:00089770       ??$__crt_fast_decode_pointer@P6AXXZ@@YAP6AXXZQ6AXXZ@Z 000000018008a770 f i libucrtd:onexit.obj
 0001:000897b0       ??$__crt_fast_decode_pointer@PEAP6AXXZ@@YAPEAP6AXXZQEAP6AXXZ@Z 000000018008a7b0 f i libucrtd:onexit.obj
 0001:000897f0       ??$__crt_fast_encode_pointer@P6AHXZ@@YAP6AHXZQ6AHXZ@Z 000000018008a7f0 f i libucrtd:onexit.obj
 0001:00089830       ??$__crt_fast_encode_pointer@P6AXXZ@@YAP6AXXZQ6AXXZ@Z 000000018008a830 f i libucrtd:onexit.obj
 0001:00089870       ??$__crt_fast_encode_pointer@PEAP6AXXZ@@YAPEAP6AXXZQEAP6AXXZ@Z 000000018008a870 f i libucrtd:onexit.obj
 0001:00089980       ??0?$__crt_unique_heap_ptr@P6AXXZU__crt_internal_free_policy@@@@QEAA@QEAP6AXXZ@Z 000000018008a980 f i libucrtd:onexit.obj
 0001:000899a0       ??1?$__crt_unique_heap_ptr@P6AXXZU__crt_internal_free_policy@@@@QEAA@XZ 000000018008a9a0 f i libucrtd:onexit.obj
 0001:000899c0       ??1scoped_global_state_reset@__crt_state_management@@QEAA@XZ 000000018008a9c0 f i libucrtd:onexit.obj
 0001:00089f90       ?detach@?$__crt_unique_heap_ptr@P6AXXZU__crt_internal_free_policy@@@@QEAAPEAP6AXXZXZ 000000018008af90 f i libucrtd:onexit.obj
 0001:00089fc0       ?release@?$__crt_unique_heap_ptr@P6AXXZU__crt_internal_free_policy@@@@QEAAXXZ 000000018008afc0 f i libucrtd:onexit.obj
 0001:00089ff0       _crt_at_quick_exit         000000018008aff0 f   libucrtd:onexit.obj
 0001:0008a010       _crt_atexit                000000018008b010 f   libucrtd:onexit.obj
 0001:0008a030       _execute_onexit_table      000000018008b030 f   libucrtd:onexit.obj
 0001:0008a070       _initialize_onexit_table   000000018008b070 f   libucrtd:onexit.obj
 0001:0008a0f0       _register_onexit_function  000000018008b0f0 f   libucrtd:onexit.obj
 0001:0008a360       ??$?BX@__crt_fast_encoded_nullptr_t@@QEBAPEAXXZ 000000018008b360 f i libucrtd:initialization.obj
 0001:0008a380       ??$__crt_fast_encode_pointer@PEAX@@YAPEAXQEAX@Z 000000018008b380 f i libucrtd:initialization.obj
 0001:0008a470       ?initialize@?$dual_state_global@PEAU__crt_locale_data@@@__crt_state_management@@QEAAXQEAU__crt_locale_data@@@Z 000000018008b470 f i libucrtd:initialization.obj
 0001:0008a4c0       __acrt_initialize          000000018008b4c0 f   libucrtd:initialization.obj
 0001:0008a4f0       __acrt_thread_attach       000000018008b4f0 f   libucrtd:initialization.obj
 0001:0008a510       __acrt_thread_detach       000000018008b510 f   libucrtd:initialization.obj
 0001:0008a520       __acrt_uninitialize        000000018008b520 f   libucrtd:initialization.obj
 0001:0008a550       __acrt_uninitialize_critical 000000018008b550 f   libucrtd:initialization.obj
 0001:0008c540       _CrtCheckMemory            000000018008d540 f   libucrtd:debug_heap.obj
 0001:0008c6d0       _CrtDoForAllClientObjects  000000018008d6d0 f   libucrtd:debug_heap.obj
 0001:0008c800       _CrtDumpMemoryLeaks        000000018008d800 f   libucrtd:debug_heap.obj
 0001:0008c8c0       _CrtGetAllocHook           000000018008d8c0 f   libucrtd:debug_heap.obj
 0001:0008c8d0       _CrtGetDumpClient          000000018008d8d0 f   libucrtd:debug_heap.obj
 0001:0008c8e0       _CrtIsMemoryBlock          000000018008d8e0 f   libucrtd:debug_heap.obj
 0001:0008ca20       _CrtIsValidHeapPointer     000000018008da20 f   libucrtd:debug_heap.obj
 0001:0008ca60       _CrtIsValidPointer         000000018008da60 f   libucrtd:debug_heap.obj
 0001:0008caa0       _CrtMemCheckpoint          000000018008daa0 f   libucrtd:debug_heap.obj
 0001:0008cd20       _CrtMemDifference          000000018008dd20 f   libucrtd:debug_heap.obj
 0001:0008d080       _CrtMemDumpAllObjectsSince 000000018008e080 f   libucrtd:debug_heap.obj
 0001:0008d0e0       _CrtMemDumpStatistics      000000018008e0e0 f   libucrtd:debug_heap.obj
 0001:0008d280       _CrtReportBlockType        000000018008e280 f   libucrtd:debug_heap.obj
 0001:0008d2b0       _CrtSetAllocHook           000000018008e2b0 f   libucrtd:debug_heap.obj
 0001:0008d2e0       _CrtSetBreakAlloc          000000018008e2e0 f   libucrtd:debug_heap.obj
 0001:0008d310       _CrtSetDbgBlockType        000000018008e310 f   libucrtd:debug_heap.obj
 0001:0008d3b0       _CrtSetDbgFlag             000000018008e3b0 f   libucrtd:debug_heap.obj
 0001:0008d510       _CrtSetDumpClient          000000018008e510 f   libucrtd:debug_heap.obj
 0001:0008d540       __p__crtBreakAlloc         000000018008e540 f   libucrtd:debug_heap.obj
 0001:0008d550       __p__crtDbgFlag            000000018008e550 f   libucrtd:debug_heap.obj
 0001:0008d560       _aligned_free_dbg          000000018008e560 f   libucrtd:debug_heap.obj
 0001:0008d650       _aligned_malloc_dbg        000000018008e650 f   libucrtd:debug_heap.obj
 0001:0008d690       _aligned_msize_dbg         000000018008e690 f   libucrtd:debug_heap.obj
 0001:0008d860       _aligned_offset_malloc_dbg 000000018008e860 f   libucrtd:debug_heap.obj
 0001:0008db50       _aligned_offset_realloc_dbg 000000018008eb50 f   libucrtd:debug_heap.obj
 0001:0008e000       _aligned_offset_recalloc_dbg 000000018008f000 f   libucrtd:debug_heap.obj
 0001:0008e120       _aligned_realloc_dbg       000000018008f120 f   libucrtd:debug_heap.obj
 0001:0008e170       _aligned_recalloc_dbg      000000018008f170 f   libucrtd:debug_heap.obj
 0001:0008e1d0       _calloc_dbg                000000018008f1d0 f   libucrtd:debug_heap.obj
 0001:0008e270       _expand_dbg                000000018008f270 f   libucrtd:debug_heap.obj
 0001:0008e3a0       _free_dbg                  000000018008f3a0 f   libucrtd:debug_heap.obj
 0001:0008e410       _malloc_dbg                000000018008f410 f   libucrtd:debug_heap.obj
 0001:0008e450       _msize_dbg                 000000018008f450 f   libucrtd:debug_heap.obj
 0001:0008e5f0       _realloc_dbg               000000018008f5f0 f   libucrtd:debug_heap.obj
 0001:0008e660       _recalloc_dbg              000000018008f660 f   libucrtd:debug_heap.obj
 0001:0008e760       _initterm                  000000018008f760 f   libucrtd:initterm.obj
 0001:0008e7c0       _initterm_e                000000018008f7c0 f   libucrtd:initterm.obj
 0001:0008ed10       strcpy_s                   000000018008fd10 f   libucrtd:strcpy_s.obj
 0001:0008f3b0       strcat_s                   00000001800903b0 f   libucrtd:strcat_s.obj
 0001:0008f3e0       ??$?B$$A6AH_K@Z@__crt_fast_encoded_nullptr_t@@QEBAP6AH_K@ZXZ 00000001800903e0 f i libucrtd:new_handler.obj
 0001:0008f400       ??$__crt_fast_decode_pointer@P6AH_K@Z@@YAP6AH_K@ZQ6AH0@Z@Z 0000000180090400 f i libucrtd:new_handler.obj
 0001:0008f440       ??$__crt_fast_encode_pointer@P6AH_K@Z@@YAP6AH_K@ZQ6AH0@Z@Z 0000000180090440 f i libucrtd:new_handler.obj
 0001:0008f480       ?_set_new_handler@@YAP6AH_K@ZH@Z 0000000180090480 f   libucrtd:new_handler.obj
 0001:0008f4f0       ?initialize@?$dual_state_global@P6AH_K@Z@__crt_state_management@@QEAAXQ6AH_K@Z@Z 00000001800904f0 f i libucrtd:new_handler.obj
 0001:0008f540       ?value@?$dual_state_global@P6AH_K@Z@__crt_state_management@@QEAAAEAP6AH_K@ZXZ 0000000180090540 f i libucrtd:new_handler.obj
 0001:0008f560       __acrt_initialize_new_handler 0000000180090560 f   libucrtd:new_handler.obj
 0001:0008f580       _callnewh                  0000000180090580 f   libucrtd:new_handler.obj
 0001:0008f5d0       _query_new_handler         00000001800905d0 f   libucrtd:new_handler.obj
 0001:0008f610       _set_new_handler           0000000180090610 f   libucrtd:new_handler.obj
 0001:0008f6c0       _get_terminate             00000001800906c0 f   libucrtd:terminate.obj
 0001:0008f6e0       set_terminate              00000001800906e0 f   libucrtd:terminate.obj
 0001:0008f720       terminate                  0000000180090720 f   libucrtd:terminate.obj
 0001:00090520       _makepath                  0000000180091520 f   libucrtd:makepath.obj
 0001:00090570       _makepath_s                0000000180091570 f   libucrtd:makepath.obj
 0001:000905c0       _wmakepath                 00000001800915c0 f   libucrtd:makepath.obj
 0001:00090610       _wmakepath_s               0000000180091610 f   libucrtd:makepath.obj
 0001:00092c40       ??$tcsncpy_s@AEAPEAD_KAEAPEBDAEB_K@?$__crt_char_traits@D@@SAHAEAPEAD$$QEA_KAEAPEBDAEB_K@Z 0000000180093c40 f i libucrtd:splitpath.obj
 0001:00092c90       ??$tcsncpy_s@AEAPEAD_KAEAPEBDH@?$__crt_char_traits@D@@SAHAEAPEAD$$QEA_KAEAPEBD$$QEAH@Z 0000000180093c90 f i libucrtd:splitpath.obj
 0001:00092ce0       ??$tcsncpy_s@AEAPEA_W_KAEAPEB_WAEB_K@?$__crt_char_traits@_W@@SAHAEAPEA_W$$QEA_KAEAPEB_WAEB_K@Z 0000000180093ce0 f i libucrtd:splitpath.obj
 0001:00092d30       ??$tcsncpy_s@AEAPEA_W_KAEAPEB_WH@?$__crt_char_traits@_W@@SAHAEAPEA_W$$QEA_KAEAPEB_W$$QEAH@Z 0000000180093d30 f i libucrtd:splitpath.obj
 0001:00092fe0       _splitpath                 0000000180093fe0 f   libucrtd:splitpath.obj
 0001:00093020       _splitpath_s               0000000180094020 f   libucrtd:splitpath.obj
 0001:000930c0       _wsplitpath                00000001800940c0 f   libucrtd:splitpath.obj
 0001:00093100       _wsplitpath_s              0000000180094100 f   libucrtd:splitpath.obj
 0001:000931a0       _set_abort_behavior        00000001800941a0 f   libucrtd:abort.obj
 0001:000931e0       abort                      00000001800941e0 f   libucrtd:abort.obj
 0001:00093270       strcmp                     0000000180094270 f   libucrtd:strcmp.obj
 0001:000932f0       strlen                     00000001800942f0 f   libucrtd:strlen.obj
 0001:000933a0       ??$is_overflow_condition@K@__crt_strtox@@YA_NIK@Z 00000001800943a0 f i libucrtd:atox.obj
 0001:00093410       ??$is_overflow_condition@_K@__crt_strtox@@YA_NI_K@Z 0000000180094410 f i libucrtd:atox.obj
 0001:00093480       ??$make_c_string_character_source@D$$T@__crt_strtox@@YA?AV?$c_string_character_source@D@0@QEBD$$T@Z 0000000180094480 f i libucrtd:atox.obj
 0001:000934c0       ??$make_c_string_character_source@_W$$T@__crt_strtox@@YA?AV?$c_string_character_source@_W@0@QEB_W$$T@Z 00000001800944c0 f i libucrtd:atox.obj
 0001:00093500       ??$parse_integer@KV?$c_string_character_source@D@__crt_strtox@@@__crt_strtox@@YAKQEAU__crt_locale_pointers@@V?$c_string_character_source@D@0@H_N@Z 0000000180094500 f i libucrtd:atox.obj
 0001:00093990       ??$parse_integer@KV?$c_string_character_source@_W@__crt_strtox@@@__crt_strtox@@YAKQEAU__crt_locale_pointers@@V?$c_string_character_source@_W@0@H_N@Z 0000000180094990 f i libucrtd:atox.obj
 0001:00093e40       ??$parse_integer@_KV?$c_string_character_source@D@__crt_strtox@@@__crt_strtox@@YA_KQEAU__crt_locale_pointers@@V?$c_string_character_source@D@0@H_N@Z 0000000180094e40 f i libucrtd:atox.obj
 0001:00094360       ??$parse_integer@_KV?$c_string_character_source@_W@__crt_strtox@@@__crt_strtox@@YA_KQEAU__crt_locale_pointers@@V?$c_string_character_source@_W@0@H_N@Z 0000000180095360 f i libucrtd:atox.obj
 0001:00094880       ??$parse_integer_from_string@JD$$T@__crt_strtox@@YAJQEBD$$THQEAU__crt_locale_pointers@@@Z 0000000180095880 f i libucrtd:atox.obj
 0001:000948d0       ??$parse_integer_from_string@J_W$$T@__crt_strtox@@YAJQEB_W$$THQEAU__crt_locale_pointers@@@Z 00000001800958d0 f i libucrtd:atox.obj
 0001:00094920       ??$parse_integer_from_string@_JD$$T@__crt_strtox@@YA_JQEBD$$THQEAU__crt_locale_pointers@@@Z 0000000180095920 f i libucrtd:atox.obj
 0001:00094970       ??$parse_integer_from_string@_J_W$$T@__crt_strtox@@YA_JQEB_W$$THQEAU__crt_locale_pointers@@@Z 0000000180095970 f i libucrtd:atox.obj
 0001:000949c0       ??0?$c_string_character_source@D@__crt_strtox@@QEAA@QEBDQEAPEBD@Z 00000001800959c0 f i libucrtd:atox.obj
 0001:00094a10       ??0?$c_string_character_source@_W@__crt_strtox@@QEAA@QEB_WQEAPEB_W@Z 0000000180095a10 f i libucrtd:atox.obj
 0001:00094a60       ??1?$c_string_character_source@D@__crt_strtox@@QEAA@XZ 0000000180095a60 f i libucrtd:atox.obj
 0001:00094a90       ??1?$c_string_character_source@_W@__crt_strtox@@QEAA@XZ 0000000180095a90 f i libucrtd:atox.obj
 0001:00094ac0       ?get@?$c_string_character_source@D@__crt_strtox@@QEAADXZ 0000000180095ac0 f i libucrtd:atox.obj
 0001:00094b00       ?get@?$c_string_character_source@_W@__crt_strtox@@QEAA_WXZ 0000000180095b00 f i libucrtd:atox.obj
 0001:00094b40       ?is_space@__crt_strtox@@YA_NDQEAU__crt_locale_pointers@@@Z 0000000180095b40 f i libucrtd:atox.obj
 0001:00094b90       ?is_space@__crt_strtox@@YA_N_WPEAU__crt_locale_pointers@@@Z 0000000180095b90 f i libucrtd:atox.obj
 0001:00094bd0       ?maximum_signed_value@__crt_strtox@@YAJK@Z 0000000180095bd0 f i libucrtd:atox.obj
 0001:00094be0       ?maximum_signed_value@__crt_strtox@@YA_J_K@Z 0000000180095be0 f i libucrtd:atox.obj
 0001:00094bf0       ?minimum_signed_value@__crt_strtox@@YAJK@Z 0000000180095bf0 f i libucrtd:atox.obj
 0001:00094c00       ?minimum_signed_value@__crt_strtox@@YA_J_K@Z 0000000180095c00 f i libucrtd:atox.obj
 0001:00094c10       ?parse_digit@__crt_strtox@@YAID@Z 0000000180095c10 f i libucrtd:atox.obj
 0001:00094c80       ?parse_digit@__crt_strtox@@YAI_W@Z 0000000180095c80 f i libucrtd:atox.obj
 0001:00094cd0       ?restore_state@?$c_string_character_source@D@__crt_strtox@@QEAA_NQEBD@Z 0000000180095cd0 f i libucrtd:atox.obj
 0001:00094cf0       ?restore_state@?$c_string_character_source@_W@__crt_strtox@@QEAA_NQEB_W@Z 0000000180095cf0 f i libucrtd:atox.obj
 0001:00094d10       ?save_state@?$c_string_character_source@D@__crt_strtox@@QEBAPEBDXZ 0000000180095d10 f i libucrtd:atox.obj
 0001:00094d20       ?save_state@?$c_string_character_source@_W@__crt_strtox@@QEBAPEB_WXZ 0000000180095d20 f i libucrtd:atox.obj
 0001:00094d30       ?unget@?$c_string_character_source@D@__crt_strtox@@QEAAXD@Z 0000000180095d30 f i libucrtd:atox.obj
 0001:00094e10       ?unget@?$c_string_character_source@_W@__crt_strtox@@QEAAX_W@Z 0000000180095e10 f i libucrtd:atox.obj
 0001:00094ef0       ?validate@?$c_string_character_source@D@__crt_strtox@@QEBA_NXZ 0000000180095ef0 f i libucrtd:atox.obj
 0001:00094fb0       ?validate@?$c_string_character_source@_W@__crt_strtox@@QEBA_NXZ 0000000180095fb0 f i libucrtd:atox.obj
 0001:00095070       ?wide_character_to_digit@__crt_strtox@@YAH_W@Z 0000000180096070 f i libucrtd:atox.obj
 0001:000953e0       __ascii_iswalpha           00000001800963e0 f i libucrtd:atox.obj
 0001:00095420       __ascii_toupper            0000000180096420 f i libucrtd:atox.obj
 0001:00095440       __ascii_towupper           0000000180096440 f i libucrtd:atox.obj
 0001:00095460       _atoi64                    0000000180096460 f   libucrtd:atox.obj
 0001:00095490       _atoi64_l                  0000000180096490 f   libucrtd:atox.obj
 0001:000954c0       _atoi_l                    00000001800964c0 f   libucrtd:atox.obj
 0001:000954f0       _atol_l                    00000001800964f0 f   libucrtd:atox.obj
 0001:00095520       _atoll_l                   0000000180096520 f   libucrtd:atox.obj
 0001:00095550       _wtoi                      0000000180096550 f   libucrtd:atox.obj
 0001:00095580       _wtoi64                    0000000180096580 f   libucrtd:atox.obj
 0001:000955b0       _wtoi64_l                  00000001800965b0 f   libucrtd:atox.obj
 0001:000955e0       _wtoi_l                    00000001800965e0 f   libucrtd:atox.obj
 0001:00095610       _wtol                      0000000180096610 f   libucrtd:atox.obj
 0001:00095640       _wtol_l                    0000000180096640 f   libucrtd:atox.obj
 0001:00095670       _wtoll                     0000000180096670 f   libucrtd:atox.obj
 0001:000956a0       _wtoll_l                   00000001800966a0 f   libucrtd:atox.obj
 0001:000956d0       atoi                       00000001800966d0 f   libucrtd:atox.obj
 0001:00095700       atol                       0000000180096700 f   libucrtd:atox.obj
 0001:00095730       atoll                      0000000180096730 f   libucrtd:atox.obj
 0001:00095770       strncmp                    0000000180096770 f   libucrtd:strncmp.obj
 0001:000957f0       wcsncmp                    00000001800967f0 f   libucrtd:wcsncmp.obj
 0001:00095880       _CrtGetDebugFillThreshold  0000000180096880 f   libucrtd:debug_fill_threshold.obj
 0001:00095890       _CrtSetDebugFillThreshold  0000000180096890 f   libucrtd:debug_fill_threshold.obj
 0001:000958c0       ??$make_c_string_character_source@DPEAPEAD@__crt_strtox@@YA?AV?$c_string_character_source@D@0@QEBDQEAPEAD@Z 00000001800968c0 f i libucrtd:strtox.obj
 0001:00095900       ??$make_c_string_character_source@_WPEAPEA_W@__crt_strtox@@YA?AV?$c_string_character_source@_W@0@QEB_WQEAPEA_W@Z 0000000180096900 f i libucrtd:strtox.obj
 0001:00095940       ??$parse_integer_from_string@JDPEAPEAD@__crt_strtox@@YAJQEBDQEAPEADHQEAU__crt_locale_pointers@@@Z 0000000180096940 f i libucrtd:strtox.obj
 0001:00095990       ??$parse_integer_from_string@J_WPEAPEA_W@__crt_strtox@@YAJQEB_WQEAPEA_WHQEAU__crt_locale_pointers@@@Z 0000000180096990 f i libucrtd:strtox.obj
 0001:000959e0       ??$parse_integer_from_string@KDPEAPEAD@__crt_strtox@@YAKQEBDQEAPEADHQEAU__crt_locale_pointers@@@Z 00000001800969e0 f i libucrtd:strtox.obj
 0001:00095a30       ??$parse_integer_from_string@K_WPEAPEA_W@__crt_strtox@@YAKQEB_WQEAPEA_WHQEAU__crt_locale_pointers@@@Z 0000000180096a30 f i libucrtd:strtox.obj
 0001:00095a80       ??$parse_integer_from_string@_JDPEAPEAD@__crt_strtox@@YA_JQEBDQEAPEADHQEAU__crt_locale_pointers@@@Z 0000000180096a80 f i libucrtd:strtox.obj
 0001:00095ad0       ??$parse_integer_from_string@_J_WPEAPEA_W@__crt_strtox@@YA_JQEB_WQEAPEA_WHQEAU__crt_locale_pointers@@@Z 0000000180096ad0 f i libucrtd:strtox.obj
 0001:00095b20       ??$parse_integer_from_string@_KDPEAPEAD@__crt_strtox@@YA_KQEBDQEAPEADHQEAU__crt_locale_pointers@@@Z 0000000180096b20 f i libucrtd:strtox.obj
 0001:00095b70       ??$parse_integer_from_string@_K_WPEAPEA_W@__crt_strtox@@YA_KQEB_WQEAPEA_WHQEAU__crt_locale_pointers@@@Z 0000000180096b70 f i libucrtd:strtox.obj
 0001:00095bc0       _strtoi64                  0000000180096bc0 f   libucrtd:strtox.obj
 0001:00095bf0       _strtoi64_l                0000000180096bf0 f   libucrtd:strtox.obj
 0001:00095c30       _strtoimax_l               0000000180096c30 f   libucrtd:strtox.obj
 0001:00095c70       _strtol_l                  0000000180096c70 f   libucrtd:strtox.obj
 0001:00095cb0       _strtoll_l                 0000000180096cb0 f   libucrtd:strtox.obj
 0001:00095cf0       _strtoui64                 0000000180096cf0 f   libucrtd:strtox.obj
 0001:00095d20       _strtoui64_l               0000000180096d20 f   libucrtd:strtox.obj
 0001:00095d60       _strtoul_l                 0000000180096d60 f   libucrtd:strtox.obj
 0001:00095da0       _strtoull_l                0000000180096da0 f   libucrtd:strtox.obj
 0001:00095de0       _strtoumax_l               0000000180096de0 f   libucrtd:strtox.obj
 0001:00095e20       _wcstoi64                  0000000180096e20 f   libucrtd:strtox.obj
 0001:00095e50       _wcstoi64_l                0000000180096e50 f   libucrtd:strtox.obj
 0001:00095e90       _wcstoimax_l               0000000180096e90 f   libucrtd:strtox.obj
 0001:00095ed0       _wcstol_l                  0000000180096ed0 f   libucrtd:strtox.obj
 0001:00095f10       _wcstoll_l                 0000000180096f10 f   libucrtd:strtox.obj
 0001:00095f50       _wcstoui64                 0000000180096f50 f   libucrtd:strtox.obj
 0001:00095f80       _wcstoui64_l               0000000180096f80 f   libucrtd:strtox.obj
 0001:00095fc0       _wcstoul_l                 0000000180096fc0 f   libucrtd:strtox.obj
 0001:00096000       _wcstoull_l                0000000180097000 f   libucrtd:strtox.obj
 0001:00096040       _wcstoumax_l               0000000180097040 f   libucrtd:strtox.obj
 0001:00096080       strtoimax                  0000000180097080 f   libucrtd:strtox.obj
 0001:000960b0       strtol                     00000001800970b0 f   libucrtd:strtox.obj
 0001:000960e0       strtoll                    00000001800970e0 f   libucrtd:strtox.obj
 0001:00096110       strtoul                    0000000180097110 f   libucrtd:strtox.obj
 0001:00096140       strtoull                   0000000180097140 f   libucrtd:strtox.obj
 0001:00096170       strtoumax                  0000000180097170 f   libucrtd:strtox.obj
 0001:000961a0       wcstoimax                  00000001800971a0 f   libucrtd:strtox.obj
 0001:000961d0       wcstol                     00000001800971d0 f   libucrtd:strtox.obj
 0001:00096200       wcstoll                    0000000180097200 f   libucrtd:strtox.obj
 0001:00096230       wcstoul                    0000000180097230 f   libucrtd:strtox.obj
 0001:00096260       wcstoull                   0000000180097260 f   libucrtd:strtox.obj
 0001:00096290       wcstoumax                  0000000180097290 f   libucrtd:strtox.obj
 0001:000962c0       _mbtowc_l                  00000001800972c0 f   libucrtd:mbtowc.obj
 0001:00096720       mbtowc                     0000000180097720 f   libucrtd:mbtowc.obj
 0001:00096750       _wctomb_l                  0000000180097750 f   libucrtd:wctomb.obj
 0001:00096810       _wctomb_s_l                0000000180097810 f   libucrtd:wctomb.obj
 0001:00096d90       wctomb                     0000000180097d90 f   libucrtd:wctomb.obj
 0001:00096df0       wctomb_s                   0000000180097df0 f   libucrtd:wctomb.obj
 0001:00096e40       ??$?RU__acrt_ptd@@@__crt_internal_free_policy@@QEBAXQEBU__acrt_ptd@@@Z 0000000180097e40 f i libucrtd:per_thread_data.obj
 0001:00097240       ??0?$__crt_unique_heap_ptr@U__acrt_ptd@@U__crt_internal_free_policy@@@@QEAA@QEAU__acrt_ptd@@@Z 0000000180098240 f i libucrtd:per_thread_data.obj
 0001:00097260       ??0__crt_scoped_get_last_error_reset@@QEAA@XZ 0000000180098260 f i libucrtd:per_thread_data.obj
 0001:00097280       ??1?$__crt_unique_heap_ptr@U__acrt_ptd@@U__crt_internal_free_policy@@@@QEAA@XZ 0000000180098280 f i libucrtd:per_thread_data.obj
 0001:000972a0       ??1__crt_scoped_get_last_error_reset@@QEAA@XZ 00000001800982a0 f i libucrtd:per_thread_data.obj
 0001:000972c0       ??B?$__crt_unique_heap_ptr@U__acrt_ptd@@U__crt_internal_free_policy@@@@QEBA_NXZ 00000001800982c0 f i libucrtd:per_thread_data.obj
 0001:00097610       ?dangerous_get_state_array@?$dual_state_global@PEAU__crt_locale_data@@@__crt_state_management@@QEAAPEAPEAU__crt_locale_data@@XZ 0000000180098610 f i libucrtd:per_thread_data.obj
 0001:000977d0       ?detach@?$__crt_unique_heap_ptr@U__acrt_ptd@@U__crt_internal_free_policy@@@@QEAAPEAU__acrt_ptd@@XZ 00000001800987d0 f i libucrtd:per_thread_data.obj
 0001:00097800       ?get@?$__crt_unique_heap_ptr@U__acrt_ptd@@U__crt_internal_free_policy@@@@QEBAPEAU__acrt_ptd@@XZ 0000000180098800 f i libucrtd:per_thread_data.obj
 0001:00097810       ?get_current_state_index@__crt_state_management@@YA_KAEBV__crt_scoped_get_last_error_reset@@@Z 0000000180098810 f i libucrtd:per_thread_data.obj
 0001:000979c0       ?is_valid@?$__crt_unique_heap_ptr@U__acrt_ptd@@U__crt_internal_free_policy@@@@QEBA_NXZ 00000001800989c0 f i libucrtd:per_thread_data.obj
 0001:000979f0       ?release@?$__crt_unique_heap_ptr@U__acrt_ptd@@U__crt_internal_free_policy@@@@QEAAXXZ 00000001800989f0 f i libucrtd:per_thread_data.obj
 0001:00097b20       ?value@?$dual_state_global@PEAU__crt_locale_data@@@__crt_state_management@@QEAAAEAPEAU__crt_locale_data@@XZ 0000000180098b20 f i libucrtd:per_thread_data.obj
 0001:00097b40       __acrt_freeptd             0000000180098b40 f   libucrtd:per_thread_data.obj
 0001:00097b80       __acrt_getptd              0000000180098b80 f   libucrtd:per_thread_data.obj
 0001:00097bb0       __acrt_getptd_head         0000000180098bb0 f   libucrtd:per_thread_data.obj
 0001:00097be0       __acrt_getptd_noexit       0000000180098be0 f   libucrtd:per_thread_data.obj
 0001:00097bf0       __acrt_initialize_ptd      0000000180098bf0 f   libucrtd:per_thread_data.obj
 0001:00097c30       __acrt_uninitialize_ptd    0000000180098c30 f   libucrtd:per_thread_data.obj
 0001:00097c60       __threadhandle             0000000180098c60 f   libucrtd:per_thread_data.obj
 0001:00097c70       __threadid                 0000000180098c70 f   libucrtd:per_thread_data.obj
 0001:00097c80       ?value@?$dual_state_global@PEAU__crt_multibyte_data@@@__crt_state_management@@QEAAAEAPEAU__crt_multibyte_data@@XZ 0000000180098c80 f i libucrtd:locale_update.obj
 0001:00097ca0       __acrt_update_locale_info  0000000180098ca0 f   libucrtd:locale_update.obj
 0001:00097cf0       __acrt_update_multibyte_info 0000000180098cf0 f   libucrtd:locale_update.obj
 0001:00097d40       ?__acrt_fp_classify@@YA?AW4__acrt_fp_class@@AEBN@Z 0000000180098d40 f i libucrtd:cvt.obj
 0001:00097e40       ?__acrt_fp_is_negative@@YA_NAEBN@Z 0000000180098e40 f i libucrtd:cvt.obj
 0001:000994f0       ?strrchr@@YAPEADQEADH@Z    000000018009a4f0 f i libucrtd:cvt.obj
 0001:00099510       __acrt_fp_format           000000018009a510 f   libucrtd:cvt.obj
 0001:00099b80       _fputwc_nolock             000000018009ab80 f   libucrtd:fputwc.obj
 0001:00099df0       _fputwchar                 000000018009adf0 f   libucrtd:fputwc.obj
 0001:00099e20       _putwc_nolock              000000018009ae20 f   libucrtd:fputwc.obj
 0001:00099e50       fputwc                     000000018009ae50 f   libucrtd:fputwc.obj
 0001:00099f40       putwc                      000000018009af40 f   libucrtd:fputwc.obj
 0001:00099f70       putwchar                   000000018009af70 f   libucrtd:fputwc.obj
 0001:00099f90       ?lowio_handle@__crt_stdio_stream@@QEBAHXZ 000000018009af90 f i libucrtd:fileno.obj
 0001:00099fc0       _fileno                    000000018009afc0 f   libucrtd:fileno.obj
 0001:0009a0a0       ??$?RPEAU__crt_stdio_stream_data@@@__crt_internal_free_policy@@QEBAXQEBQEAU__crt_stdio_stream_data@@@Z 000000018009b0a0 f i libucrtd:_file.obj
 0001:0009a0d0       ??0?$__crt_unique_heap_ptr@PEAU__crt_stdio_stream_data@@U__crt_internal_free_policy@@@@QEAA@QEAPEAU__crt_stdio_stream_data@@@Z 000000018009b0d0 f i libucrtd:_file.obj
 0001:0009a0f0       ??1?$__crt_unique_heap_ptr@PEAU__crt_stdio_stream_data@@U__crt_internal_free_policy@@@@QEAA@XZ 000000018009b0f0 f i libucrtd:_file.obj
 0001:0009a110       ?detach@?$__crt_unique_heap_ptr@PEAU__crt_stdio_stream_data@@U__crt_internal_free_policy@@@@QEAAPEAPEAU__crt_stdio_stream_data@@XZ 000000018009b110 f i libucrtd:_file.obj
 0001:0009a140       ?release@?$__crt_unique_heap_ptr@PEAU__crt_stdio_stream_data@@U__crt_internal_free_policy@@@@QEAAXXZ 000000018009b140 f i libucrtd:_file.obj
 0001:0009a170       __acrt_initialize_stdio    000000018009b170 f   libucrtd:_file.obj
 0001:0009a360       __acrt_iob_func            000000018009b360 f   libucrtd:_file.obj
 0001:0009a380       __acrt_uninitialize_stdio  000000018009b380 f   libucrtd:_file.obj
 0001:0009a410       _get_stream_buffer_pointers 000000018009b410 f   libucrtd:_file.obj
 0001:0009a540       _lock_file                 000000018009b540 f   libucrtd:_file.obj
 0001:0009a580       _unlock_file               000000018009b580 f   libucrtd:_file.obj
 0001:0009a5c0       _get_printf_count_output   000000018009b5c0 f   libucrtd:printf_count_output.obj
 0001:0009a5f0       _set_printf_count_output   000000018009b5f0 f   libucrtd:printf_count_output.obj
 0001:0009a660       ?has_any_buffer@__crt_stdio_stream@@QEBA_NXZ 000000018009b660 f i libucrtd:_sftbuf.obj
 0001:0009a680       ?has_any_of@__crt_stdio_stream@@QEBA_NJ@Z 000000018009b680 f i libucrtd:_sftbuf.obj
 0001:0009a6c0       ?has_temporary_buffer@__crt_stdio_stream@@QEBA_NXZ 000000018009b6c0 f i libucrtd:_sftbuf.obj
 0001:0009a6e0       ?set_flags@__crt_stdio_stream@@QEBA_NJ@Z 000000018009b6e0 f i libucrtd:_sftbuf.obj
 0001:0009a750       ?unset_flags@__crt_stdio_stream@@QEBA_NJ@Z 000000018009b750 f i libucrtd:_sftbuf.obj
 0001:0009a7b0       __acrt_stdio_begin_temporary_buffering_nolock 000000018009b7b0 f   libucrtd:_sftbuf.obj
 0001:0009a9f0       __acrt_stdio_end_temporary_buffering_nolock 000000018009b9f0 f   libucrtd:_sftbuf.obj
 0001:0009aaa0       ??$?RU__crt_locale_data@@@__crt_internal_free_policy@@QEBAXQEBU__crt_locale_data@@@Z 000000018009baa0 f i libucrtd:wsetlocale.obj
 0001:0009aad0       ??$?RU__crt_locale_pointers@@@__crt_internal_free_policy@@QEBAXQEBU__crt_locale_pointers@@@Z 000000018009bad0 f i libucrtd:wsetlocale.obj
 0001:0009ab00       ??$?RU__crt_multibyte_data@@@__crt_internal_free_policy@@QEBAXQEBU__crt_multibyte_data@@@Z 000000018009bb00 f i libucrtd:wsetlocale.obj
 0001:0009b060       ??0?$__crt_unique_heap_ptr@U__crt_locale_data@@U__crt_internal_free_policy@@@@QEAA@QEAU__crt_locale_data@@@Z 000000018009c060 f i libucrtd:wsetlocale.obj
 0001:0009b080       ??0?$__crt_unique_heap_ptr@U__crt_locale_pointers@@U__crt_internal_free_policy@@@@QEAA@QEAU__crt_locale_pointers@@@Z 000000018009c080 f i libucrtd:wsetlocale.obj
 0001:0009b0a0       ??0?$__crt_unique_heap_ptr@U__crt_multibyte_data@@U__crt_internal_free_policy@@@@QEAA@QEAU__crt_multibyte_data@@@Z 000000018009c0a0 f i libucrtd:wsetlocale.obj
 0001:0009b0c0       ??0_expandlocale_locale_name_cache@@QEAA@QEA_W_KQEAU__crt_qualified_locale_data@@@Z 000000018009c0c0 f i libucrtd:wsetlocale.obj
 0001:0009b170       ??1?$__crt_unique_heap_ptr@U__crt_locale_data@@U__crt_internal_free_policy@@@@QEAA@XZ 000000018009c170 f i libucrtd:wsetlocale.obj
 0001:0009b190       ??1?$__crt_unique_heap_ptr@U__crt_locale_pointers@@U__crt_internal_free_policy@@@@QEAA@XZ 000000018009c190 f i libucrtd:wsetlocale.obj
 0001:0009b1b0       ??1?$__crt_unique_heap_ptr@U__crt_multibyte_data@@U__crt_internal_free_policy@@@@QEAA@XZ 000000018009c1b0 f i libucrtd:wsetlocale.obj
 0001:0009b1d0       ??1_expandlocale_locale_name_cache@@QEAA@XZ 000000018009c1d0 f i libucrtd:wsetlocale.obj
 0001:0009b250       ??B?$__crt_unique_heap_ptr@U__crt_locale_data@@U__crt_internal_free_policy@@@@QEBA_NXZ 000000018009c250 f i libucrtd:wsetlocale.obj
 0001:0009b270       ??B?$__crt_unique_heap_ptr@U__crt_locale_pointers@@U__crt_internal_free_policy@@@@QEBA_NXZ 000000018009c270 f i libucrtd:wsetlocale.obj
 0001:0009b290       ??B?$__crt_unique_heap_ptr@U__crt_multibyte_data@@U__crt_internal_free_policy@@@@QEBA_NXZ 000000018009c290 f i libucrtd:wsetlocale.obj
 0001:0009b740       ?commit_locale_name@_expandlocale_locale_name_cache@@QEAAXQEB_W_K@Z 000000018009c740 f i libucrtd:wsetlocale.obj
 0001:0009b7c0       ?commit_locale_name_cache_already_updated@_expandlocale_locale_name_cache@@QEAAXQEB_W_K@Z 000000018009c7c0 f i libucrtd:wsetlocale.obj
 0001:0009b830       ?detach@?$__crt_unique_heap_ptr@U__crt_locale_data@@U__crt_internal_free_policy@@@@QEAAPEAU__crt_locale_data@@XZ 000000018009c830 f i libucrtd:wsetlocale.obj
 0001:0009b860       ?detach@?$__crt_unique_heap_ptr@U__crt_locale_pointers@@U__crt_internal_free_policy@@@@QEAAPEAU__crt_locale_pointers@@XZ 000000018009c860 f i libucrtd:wsetlocale.obj
 0001:0009b890       ?detach@?$__crt_unique_heap_ptr@U__crt_multibyte_data@@U__crt_internal_free_policy@@@@QEAAPEAU__crt_multibyte_data@@XZ 000000018009c890 f i libucrtd:wsetlocale.obj
 0001:0009b8c0       ?get@?$__crt_unique_heap_ptr@U__crt_locale_data@@U__crt_internal_free_policy@@@@QEBAPEAU__crt_locale_data@@XZ 000000018009c8c0 f i libucrtd:wsetlocale.obj
 0001:0009b8d0       ?get@?$__crt_unique_heap_ptr@U__crt_locale_pointers@@U__crt_internal_free_policy@@@@QEBAPEAU__crt_locale_pointers@@XZ 000000018009c8d0 f i libucrtd:wsetlocale.obj
 0001:0009b8e0       ?get@?$__crt_unique_heap_ptr@U__crt_multibyte_data@@U__crt_internal_free_policy@@@@QEBAPEAU__crt_multibyte_data@@XZ 000000018009c8e0 f i libucrtd:wsetlocale.obj
 0001:0009b8f0       ?is_valid@?$__crt_unique_heap_ptr@U__crt_locale_data@@U__crt_internal_free_policy@@@@QEBA_NXZ 000000018009c8f0 f i libucrtd:wsetlocale.obj
 0001:0009b920       ?is_valid@?$__crt_unique_heap_ptr@U__crt_locale_pointers@@U__crt_internal_free_policy@@@@QEBA_NXZ 000000018009c920 f i libucrtd:wsetlocale.obj
 0001:0009b950       ?is_valid@?$__crt_unique_heap_ptr@U__crt_multibyte_data@@U__crt_internal_free_policy@@@@QEBA_NXZ 000000018009c950 f i libucrtd:wsetlocale.obj
 0001:0009b980       ?release@?$__crt_unique_heap_ptr@U__crt_locale_data@@U__crt_internal_free_policy@@@@QEAAXXZ 000000018009c980 f i libucrtd:wsetlocale.obj
 0001:0009b9b0       ?release@?$__crt_unique_heap_ptr@U__crt_locale_pointers@@U__crt_internal_free_policy@@@@QEAAXXZ 000000018009c9b0 f i libucrtd:wsetlocale.obj
 0001:0009b9e0       ?release@?$__crt_unique_heap_ptr@U__crt_multibyte_data@@U__crt_internal_free_policy@@@@QEAAXXZ 000000018009c9e0 f i libucrtd:wsetlocale.obj
 0001:0009ba10       __acrt_copy_locale_name    000000018009ca10 f   libucrtd:wsetlocale.obj
 0001:0009bae0       __acrt_set_locale_changed  000000018009cae0 f   libucrtd:wsetlocale.obj
 0001:0009baf0       __acrt_uninitialize_locale 000000018009caf0 f   libucrtd:wsetlocale.obj
 0001:0009bb20       __ascii_tolower            000000018009cb20 f i libucrtd:wsetlocale.obj
 0001:0009bb40       __ascii_towlower           000000018009cb40 f i libucrtd:wsetlocale.obj
 0001:0009bb60       __lc_lctowcs               000000018009cb60 f   libucrtd:wsetlocale.obj
 0001:0009bc50       __lc_wcstolc               000000018009cc50 f   libucrtd:wsetlocale.obj
 0001:0009bf10       _configthreadlocale        000000018009cf10 f   libucrtd:wsetlocale.obj
 0001:0009c0d0       _create_locale             000000018009d0d0 f   libucrtd:wsetlocale.obj
 0001:0009c7d0       _free_locale               000000018009d7d0 f   libucrtd:wsetlocale.obj
 0001:0009c8c0       _get_current_locale        000000018009d8c0 f   libucrtd:wsetlocale.obj
 0001:0009c9d0       _wcreate_locale            000000018009d9d0 f   libucrtd:wsetlocale.obj
 0001:0009ccc0       _wcscats                   000000018009dcc0 f   libucrtd:wsetlocale.obj
 0001:0009cda0       _wsetlocale                000000018009dda0 f   libucrtd:wsetlocale.obj
 0001:0009e9c0       __p___mb_cur_max           000000018009f9c0 f   libucrtd:nlsdata.obj
 0001:0009eda0       __acrt_initialize_lowio    000000018009fda0 f   libucrtd:ioinit.obj
 0001:0009edf0       __acrt_uninitialize_lowio  000000018009fdf0 f   libucrtd:ioinit.obj
 0001:0009ee70       _CrtGetReportHook          000000018009fe70 f   libucrtd:dbgrptt.obj
 0001:0009ee80       _CrtSetReportFile          000000018009fe80 f   libucrtd:dbgrptt.obj
 0001:0009efe0       _CrtSetReportHook          000000018009ffe0 f   libucrtd:dbgrptt.obj
 0001:0009f010       _CrtSetReportMode          00000001800a0010 f   libucrtd:dbgrptt.obj
 0001:0009f1c0       _VCrtDbgReportA            00000001800a01c0 f   libucrtd:dbgrptt.obj
 0001:0009fba0       _VCrtDbgReportW            00000001800a0ba0 f   libucrtd:dbgrptt.obj
 0001:000a0720       _snprintf_s                00000001800a1720 f i libucrtd:dbgrptt.obj
 0001:000a0790       _vsnprintf_s               00000001800a1790 f i libucrtd:dbgrptt.obj
 0001:000a07e0       _vsnprintf_s_l             00000001800a17e0 f i libucrtd:dbgrptt.obj
 0001:000a0a00       ??$__acrt_wcs_to_mbs_cp@U__crt_win32_buffer_no_resizing@@@@YAHQEB_WAEAV?$__crt_win32_buffer@DU__crt_win32_buffer_no_resizing@@@@I@Z 00000001800a1a00 f i libucrtd:getmodulefilenamea.obj
 0001:000a0a50       ??0?$__crt_win32_buffer@DU__crt_win32_buffer_no_resizing@@@@QEAA@QEAD_K@Z 00000001800a1a50 f i libucrtd:getmodulefilenamea.obj
 0001:000a0ac0       ??1?$__crt_win32_buffer@DU__crt_win32_buffer_no_resizing@@@@QEAA@XZ 00000001800a1ac0 f i libucrtd:getmodulefilenamea.obj
 0001:000a0b50       ?__acrt_get_utf8_acp_compatibility_codepage@@YAIXZ 00000001800a1b50 f i libucrtd:getmodulefilenamea.obj
 0001:000a0bf0       ?_deallocate@?$__crt_win32_buffer@DU__crt_win32_buffer_no_resizing@@@@AEAAXXZ 00000001800a1bf0 f i libucrtd:getmodulefilenamea.obj
 0001:000a0c30       ?allocate@?$__crt_win32_buffer@DU__crt_win32_buffer_no_resizing@@@@QEAAH_K@Z 00000001800a1c30 f i libucrtd:getmodulefilenamea.obj
 0001:000a0cb0       ?allocate@__crt_win32_buffer_no_resizing@@SAHQEAPEAX_KAEBV__crt_win32_buffer_empty_debug_info@@@Z 00000001800a1cb0 f i libucrtd:getmodulefilenamea.obj
 0001:000a0ce0       ?capacity@?$__crt_win32_buffer@DU__crt_win32_buffer_no_resizing@@@@QEBA_KXZ 00000001800a1ce0 f i libucrtd:getmodulefilenamea.obj
 0001:000a0cf0       ?data@?$__crt_win32_buffer@DU__crt_win32_buffer_no_resizing@@@@QEAAPEADXZ 00000001800a1cf0 f i libucrtd:getmodulefilenamea.obj
 0001:000a0d00       ?deallocate@__crt_win32_buffer_no_resizing@@SAXQEAXAEBV__crt_win32_buffer_empty_debug_info@@@Z 00000001800a1d00 f i libucrtd:getmodulefilenamea.obj
 0001:000a0d10       ?debug_info@?$__crt_win32_buffer@DU__crt_win32_buffer_no_resizing@@@@QEBAAEBV__crt_win32_buffer_empty_debug_info@@XZ 00000001800a1d10 f i libucrtd:getmodulefilenamea.obj
 0001:000a0d20       ?set_to_nullptr@?$__crt_win32_buffer@DU__crt_win32_buffer_no_resizing@@@@QEAAXXZ 00000001800a1d20 f i libucrtd:getmodulefilenamea.obj
 0001:000a0d60       ?size@?$__crt_win32_buffer@DU__crt_win32_buffer_no_resizing@@@@QEAAX_K@Z 00000001800a1d60 f i libucrtd:getmodulefilenamea.obj
 0001:000a0d80       ?size@?$__crt_win32_buffer@DU__crt_win32_buffer_no_resizing@@@@QEBA_KXZ 00000001800a1d80 f i libucrtd:getmodulefilenamea.obj
 0001:000a0d90       __acrt_GetModuleFileNameA  00000001800a1d90 f   libucrtd:getmodulefilenamea.obj
 0001:000a10f0       ??$message_box@$$TAEBQEBDAEBQEBDK@?$__crt_char_traits@D@@SAH$$QEA$$TAEBQEBD1$$QEAK@Z 00000001800a20f0 f i libucrtd:crtmbox.obj
 0001:000a1140       ??$message_box@$$TAEBQEB_WAEBQEB_WK@?$__crt_char_traits@_W@@SAH$$QEA$$TAEBQEB_W1$$QEAK@Z 00000001800a2140 f i libucrtd:crtmbox.obj
 0001:000a1190       ??$message_box@PEAUHWND__@@AEBQEBDAEBQEBDAEBI@?$__crt_char_traits@D@@SAH$$QEAPEAUHWND__@@AEBQEBD1AEBI@Z 00000001800a2190 f i libucrtd:crtmbox.obj
 0001:000a11e0       ??$message_box@PEAUHWND__@@AEBQEB_WAEBQEB_WAEBI@?$__crt_char_traits@_W@@SAH$$QEAPEAUHWND__@@AEBQEB_W1AEBI@Z 00000001800a21e0 f i libucrtd:crtmbox.obj
 0001:000a1230       ??$output_debug_string@AEBQEBD@?$__crt_char_traits@D@@SAXAEBQEBD@Z 00000001800a2230 f i libucrtd:crtmbox.obj
 0001:000a1250       ??$output_debug_string@AEBQEB_W@?$__crt_char_traits@_W@@SAXAEBQEB_W@Z 00000001800a2250 f i libucrtd:crtmbox.obj
 0001:000a1270       __acrt_show_narrow_message_box 00000001800a2270 f   libucrtd:crtmbox.obj
 0001:000a12a0       __acrt_show_wide_message_box 00000001800a22a0 f   libucrtd:crtmbox.obj
 0001:000a12d0       __acrt_initialize_locks    00000001800a22d0 f   libucrtd:locks.obj
 0001:000a1340       __acrt_lock                00000001800a2340 f   libucrtd:locks.obj
 0001:000a1370       __acrt_uninitialize_locks  00000001800a2370 f   libucrtd:locks.obj
 0001:000a13d0       __acrt_unlock              00000001800a23d0 f   libucrtd:locks.obj
 0001:000a1400       _lock_locales              00000001800a2400 f   libucrtd:locks.obj
 0001:000a1420       _unlock_locales            00000001800a2420 f   libucrtd:locks.obj
 0001:000a1440       ??$?B$$A6AXH@Z@__crt_fast_encoded_nullptr_t@@QEBAP6AXH@ZXZ 00000001800a2440 f i libucrtd:signal.obj
 0001:000a1500       ??$__crt_fast_decode_pointer@P6AXH@Z@@YAP6AXH@ZQ6AXH@Z@Z 00000001800a2500 f i libucrtd:signal.obj
 0001:000a1540       ??$__crt_fast_encode_pointer@P6AXH@Z@@YAP6AXH@ZQ6AXH@Z@Z 00000001800a2540 f i libucrtd:signal.obj
 0001:000a17c0       ?initialize@?$dual_state_global@P6AXH@Z@__crt_state_management@@QEAAXQ6AXH@Z@Z 00000001800a27c0 f i libucrtd:signal.obj
 0001:000a1940       ?value@?$dual_state_global@P6AXH@Z@__crt_state_management@@QEAAAEAP6AXH@ZXZ 00000001800a2940 f i libucrtd:signal.obj
 0001:000a1960       __acrt_get_sigabrt_handler 00000001800a2960 f   libucrtd:signal.obj
 0001:000a1990       __acrt_initialize_signal_handlers 00000001800a2990 f   libucrtd:signal.obj
 0001:000a19f0       __fpecode                  00000001800a29f0 f   libucrtd:signal.obj
 0001:000a1a10       __pxcptinfoptrs            00000001800a2a10 f   libucrtd:signal.obj
 0001:000a1a30       raise                      00000001800a2a30 f   libucrtd:signal.obj
 0001:000a1ef0       signal                     00000001800a2ef0 f   libucrtd:signal.obj
 0001:000a21c0       _msize                     00000001800a31c0 f   libucrtd:msize.obj
 0001:000a21e0       _msize_base                00000001800a31e0 f   libucrtd:msize.obj
 0001:000a22b0       _realloc_base              00000001800a32b0 f   libucrtd:realloc_base.obj
 0001:000a2380       ??$?B$$A6AHPEA_WK_J@Z@__crt_fast_encoded_nullptr_t@@QEBAP6AHPEA_WK_J@ZXZ 00000001800a3380 f i libucrtd:winapi_thunks.obj
 0001:000a2440       ??$__crt_fast_decode_pointer@P6AHPEA_WK_J@Z@@YAP6AHPEA_WK_J@ZQ6AH0K1@Z@Z 00000001800a3440 f i libucrtd:winapi_thunks.obj
 0001:000a2480       ??$__crt_fast_decode_pointer@PEAX@@YAPEAXQEAX@Z 00000001800a3480 f i libucrtd:winapi_thunks.obj
 0001:000a24c0       ??$__crt_fast_encode_pointer@P6AHPEA_WK_J@Z@@YAP6AHPEA_WK_J@ZQ6AH0K1@Z@Z 00000001800a34c0 f i libucrtd:winapi_thunks.obj
 0001:000a3130       GetCurrentThreadEffectiveToken 00000001800a4130 f i libucrtd:winapi_thunks.obj
 0001:000a3140       __acrt_AppPolicyGetProcessTerminationMethodInternal 00000001800a4140 f   libucrtd:winapi_thunks.obj
 0001:000a3190       __acrt_AppPolicyGetShowDeveloperDiagnosticInternal 00000001800a4190 f   libucrtd:winapi_thunks.obj
 0001:000a31e0       __acrt_AppPolicyGetThreadInitializationTypeInternal 00000001800a41e0 f   libucrtd:winapi_thunks.obj
 0001:000a3230       __acrt_AppPolicyGetWindowingModelInternal 00000001800a4230 f   libucrtd:winapi_thunks.obj
 0001:000a3280       __acrt_AreFileApisANSI     00000001800a4280 f   libucrtd:winapi_thunks.obj
 0001:000a32c0       __acrt_CompareStringEx     00000001800a42c0 f   libucrtd:winapi_thunks.obj
 0001:000a33a0       __acrt_EnumSystemLocalesEx 00000001800a43a0 f   libucrtd:winapi_thunks.obj
 0001:000a3420       __acrt_FlsAlloc            00000001800a4420 f   libucrtd:winapi_thunks.obj
 0001:000a3470       __acrt_FlsFree             00000001800a4470 f   libucrtd:winapi_thunks.obj
 0001:000a34c0       __acrt_FlsGetValue         00000001800a44c0 f   libucrtd:winapi_thunks.obj
 0001:000a3510       __acrt_FlsSetValue         00000001800a4510 f   libucrtd:winapi_thunks.obj
 0001:000a3570       __acrt_GetDateFormatEx     00000001800a4570 f   libucrtd:winapi_thunks.obj
 0001:000a3630       __acrt_GetEnabledXStateFeatures 00000001800a4630 f   libucrtd:winapi_thunks.obj
 0001:000a3670       __acrt_GetLocaleInfoEx     00000001800a4670 f   libucrtd:winapi_thunks.obj
 0001:000a36f0       __acrt_GetSystemTimePreciseAsFileTime 00000001800a46f0 f   libucrtd:winapi_thunks.obj
 0001:000a3740       __acrt_GetTimeFormatEx     00000001800a4740 f   libucrtd:winapi_thunks.obj
 0001:000a37f0       __acrt_GetUserDefaultLocaleName 00000001800a47f0 f   libucrtd:winapi_thunks.obj
 0001:000a3850       __acrt_GetXStateFeaturesMask 00000001800a4850 f   libucrtd:winapi_thunks.obj
 0001:000a38a0       __acrt_InitializeCriticalSectionEx 00000001800a48a0 f   libucrtd:winapi_thunks.obj
 0001:000a3900       __acrt_IsValidLocaleName   00000001800a4900 f   libucrtd:winapi_thunks.obj
 0001:000a3960       __acrt_LCIDToLocaleName    00000001800a4960 f   libucrtd:winapi_thunks.obj
 0001:000a39d0       __acrt_LCMapStringEx       00000001800a49d0 f   libucrtd:winapi_thunks.obj
 0001:000a3ab0       __acrt_LocaleNameToLCID    00000001800a4ab0 f   libucrtd:winapi_thunks.obj
 0001:000a3b00       __acrt_LocateXStateFeature 00000001800a4b00 f   libucrtd:winapi_thunks.obj
 0001:000a3b60       __acrt_MessageBoxA         00000001800a4b60 f   libucrtd:winapi_thunks.obj
 0001:000a3bc0       __acrt_MessageBoxW         00000001800a4bc0 f   libucrtd:winapi_thunks.obj
 0001:000a3c20       __acrt_RoInitialize        00000001800a4c20 f   libucrtd:winapi_thunks.obj
 0001:000a3c60       __acrt_RoUninitialize      00000001800a4c60 f   libucrtd:winapi_thunks.obj
 0001:000a3c90       __acrt_RtlGenRandom        00000001800a4c90 f   libucrtd:winapi_thunks.obj
 0001:000a3ce0       __acrt_SetThreadStackGuarantee 00000001800a4ce0 f   libucrtd:winapi_thunks.obj
 0001:000a3d20       __acrt_can_show_message_box 00000001800a4d20 f   libucrtd:winapi_thunks.obj
 0001:000a3d60       __acrt_can_use_vista_locale_apis 00000001800a4d60 f   libucrtd:winapi_thunks.obj
 0001:000a3d90       __acrt_can_use_xstate_apis 00000001800a4d90 f   libucrtd:winapi_thunks.obj
 0001:000a3dc0       __acrt_eagerly_load_locale_apis 00000001800a4dc0 f   libucrtd:winapi_thunks.obj
 0001:000a3e00       __acrt_get_parent_window   00000001800a4e00 f   libucrtd:winapi_thunks.obj
 0001:000a3e80       __acrt_initialize_winapi_thunks 00000001800a4e80 f   libucrtd:winapi_thunks.obj
 0001:000a3f00       __acrt_is_interactive      00000001800a4f00 f   libucrtd:winapi_thunks.obj
 0001:000a3fe0       __acrt_uninitialize_winapi_thunks 00000001800a4fe0 f   libucrtd:winapi_thunks.obj
 0001:000a4080       _chvalidator               00000001800a5080 f   libucrtd:isctype.obj
 0001:000a40f0       _chvalidator_l             00000001800a50f0 f   libucrtd:isctype.obj
 0001:000a41a0       _isctype                   00000001800a51a0 f   libucrtd:isctype.obj
 0001:000a41f0       _isctype_l                 00000001800a51f0 f   libucrtd:isctype.obj
 0001:000a4420       _isleadbyte_fast_internal  00000001800a5420 f i libucrtd:isctype.obj
 0001:000a4450       ??$?RU__crt_stdio_stream_data@@@__crt_internal_free_policy@@QEBAXQEBU__crt_stdio_stream_data@@@Z 00000001800a5450 f i libucrtd:stream.obj
 0001:000a4480       ??0?$__crt_unique_heap_ptr@U__crt_stdio_stream_data@@U__crt_internal_free_policy@@@@QEAA@QEAU__crt_stdio_stream_data@@@Z 00000001800a5480 f i libucrtd:stream.obj
 0001:000a44a0       ??0__crt_stdio_stream@@QEAA@QEAU__crt_stdio_stream_data@@@Z 00000001800a54a0 f i libucrtd:stream.obj
 0001:000a44c0       ??0__crt_stdio_stream@@QEAA@XZ 00000001800a54c0 f i libucrtd:stream.obj
 0001:000a44e0       ??1?$__crt_unique_heap_ptr@U__crt_stdio_stream_data@@U__crt_internal_free_policy@@@@QEAA@XZ 00000001800a54e0 f i libucrtd:stream.obj
 0001:000a4500       ?__acrt_stdio_allocate_stream@@YA?AV__crt_stdio_stream@@XZ 00000001800a5500 f   libucrtd:stream.obj
 0001:000a45c0       ?__acrt_stdio_free_stream@@YAXV__crt_stdio_stream@@@Z 00000001800a55c0 f   libucrtd:stream.obj
 0001:000a4660       ?deallocate@__crt_stdio_stream@@QEAAXXZ 00000001800a5660 f i libucrtd:stream.obj
 0001:000a4680       ?detach@?$__crt_unique_heap_ptr@U__crt_stdio_stream_data@@U__crt_internal_free_policy@@@@QEAAPEAU__crt_stdio_stream_data@@XZ 00000001800a5680 f i libucrtd:stream.obj
 0001:000a4860       ?lock@__crt_stdio_stream@@QEBAXXZ 00000001800a5860 f i libucrtd:stream.obj
 0001:000a4880       ?release@?$__crt_unique_heap_ptr@U__crt_stdio_stream_data@@U__crt_internal_free_policy@@@@QEAAXXZ 00000001800a5880 f i libucrtd:stream.obj
 0001:000a48b0       ?try_allocate@__crt_stdio_stream@@QEAA_NXZ 00000001800a58b0 f i libucrtd:stream.obj
 0001:000a4920       ??$__acrt_stdio_parse_mode@D@@YA?AU__acrt_stdio_stream_mode@@QEBD@Z 00000001800a5920 f i libucrtd:openfile.obj
 0001:000a5430       ??$__acrt_stdio_parse_mode@_W@@YA?AU__acrt_stdio_stream_mode@@QEB_W@Z 00000001800a6430 f i libucrtd:openfile.obj
 0001:000a63d0       ??$tcsncmp@AEAPEBDAEAY02$$CBD_K@?$__crt_char_traits@D@@SAHAEAPEBDAEAY02$$CBD$$QEA_K@Z 00000001800a73d0 f i libucrtd:openfile.obj
 0001:000a6410       ??$tcsncmp@AEAPEB_WAEAY02$$CB_W_K@?$__crt_char_traits@_W@@SAHAEAPEB_WAEAY02$$CB_W$$QEA_K@Z 00000001800a7410 f i libucrtd:openfile.obj
 0001:000a6450       ??$tcsnicmp@AEAPEBDAEAY04$$CBD_K@?$__crt_char_traits@D@@SAHAEAPEBDAEAY04$$CBD$$QEA_K@Z 00000001800a7450 f i libucrtd:openfile.obj
 0001:000a6490       ??$tcsnicmp@AEAPEBDAEAY06$$CBD_K@?$__crt_char_traits@D@@SAHAEAPEBDAEAY06$$CBD$$QEA_K@Z 00000001800a7490 f i libucrtd:openfile.obj
 0001:000a64d0       ??$tcsnicmp@AEAPEBDAEAY07$$CBD_K@?$__crt_char_traits@D@@SAHAEAPEBDAEAY07$$CBD$$QEA_K@Z 00000001800a74d0 f i libucrtd:openfile.obj
 0001:000a6510       ??$tcsnicmp@AEAPEB_WAEAY04$$CB_W_K@?$__crt_char_traits@_W@@SAHAEAPEB_WAEAY04$$CB_W$$QEA_K@Z 00000001800a7510 f i libucrtd:openfile.obj
 0001:000a6550       ??$tcsnicmp@AEAPEB_WAEAY06$$CB_W_K@?$__crt_char_traits@_W@@SAHAEAPEB_WAEAY06$$CB_W$$QEA_K@Z 00000001800a7550 f i libucrtd:openfile.obj
 0001:000a6590       ??$tcsnicmp@AEAPEB_WAEAY07$$CB_W_K@?$__crt_char_traits@_W@@SAHAEAPEB_WAEAY07$$CB_W$$QEA_K@Z 00000001800a7590 f i libucrtd:openfile.obj
 0001:000a65d0       ??$tsopen_s@PEAHAEBQEBDAEBHAEBHH@?$__crt_char_traits@D@@SAH$$QEAPEAHAEBQEBDAEBH2$$QEAH@Z 00000001800a75d0 f i libucrtd:openfile.obj
 0001:000a6620       ??$tsopen_s@PEAHAEBQEB_WAEBHAEBHH@?$__crt_char_traits@_W@@SAH$$QEAPEAHAEBQEB_WAEBH2$$QEAH@Z 00000001800a7620 f i libucrtd:openfile.obj
 0001:000a6670       ?__acrt_stdio_parse_mode_D@@YA_NAEAU__acrt_stdio_stream_mode@@@Z 00000001800a7670 f i libucrtd:openfile.obj
 0001:000a66a0       ?__acrt_stdio_parse_mode_N@@YA_NAEAU__acrt_stdio_stream_mode@@@Z 00000001800a76a0 f i libucrtd:openfile.obj
 0001:000a66c0       ?__acrt_stdio_parse_mode_R@@YA_NAEAU__acrt_stdio_stream_mode@@AEA_N@Z 00000001800a76c0 f i libucrtd:openfile.obj
 0001:000a6700       ?__acrt_stdio_parse_mode_S@@YA_NAEAU__acrt_stdio_stream_mode@@AEA_N@Z 00000001800a7700 f i libucrtd:openfile.obj
 0001:000a6740       ?__acrt_stdio_parse_mode_T@@YA_NAEAU__acrt_stdio_stream_mode@@@Z 00000001800a7740 f i libucrtd:openfile.obj
 0001:000a6770       ?__acrt_stdio_parse_mode_b@@YA_NAEAU__acrt_stdio_stream_mode@@@Z 00000001800a7770 f i libucrtd:openfile.obj
 0001:000a67a0       ?__acrt_stdio_parse_mode_c@@YA_NAEAU__acrt_stdio_stream_mode@@AEA_N@Z 00000001800a77a0 f i libucrtd:openfile.obj
 0001:000a67e0       ?__acrt_stdio_parse_mode_n@@YA_NAEAU__acrt_stdio_stream_mode@@AEA_N@Z 00000001800a77e0 f i libucrtd:openfile.obj
 0001:000a6820       ?__acrt_stdio_parse_mode_plus@@YA_NAEAU__acrt_stdio_stream_mode@@AEA_N@Z 00000001800a7820 f i libucrtd:openfile.obj
 0001:000a68a0       ?__acrt_stdio_parse_mode_t@@YA_NAEAU__acrt_stdio_stream_mode@@@Z 00000001800a78a0 f i libucrtd:openfile.obj
 0001:000a68d0       ?__acrt_stdio_parse_mode_x@@YA_NAEAU__acrt_stdio_stream_mode@@@Z 00000001800a78d0 f i libucrtd:openfile.obj
 0001:000a6900       _openfile                  00000001800a7900 f   libucrtd:openfile.obj
 0001:000a6950       _wopenfile                 00000001800a7950 f   libucrtd:openfile.obj
 0001:000a6c70       _close                     00000001800a7c70 f   libucrtd:close.obj
 0001:000a6e60       _close_nolock              00000001800a7e60 f   libucrtd:close.obj
 0001:000a6ed0       ?has_crt_buffer@__crt_stdio_stream@@QEBA_NXZ 00000001800a7ed0 f i libucrtd:_freebuf.obj
 0001:000a6ef0       __acrt_stdio_free_buffer_nolock 00000001800a7ef0 f   libucrtd:_freebuf.obj
 0001:000a75a0       ?__acrt_stdio_reset_buffer@@YAXV__crt_stdio_stream@@@Z 00000001800a85a0 f i libucrtd:fflush.obj
 0001:000a76d0       ?has_all_of@__crt_stdio_stream@@QEBA_NJ@Z 00000001800a86d0 f i libucrtd:fflush.obj
 0001:000a77b0       __acrt_stdio_flush_nolock  00000001800a87b0 f   libucrtd:fflush.obj
 0001:000a78c0       _fflush_nolock             00000001800a88c0 f   libucrtd:fflush.obj
 0001:000a7950       _flushall                  00000001800a8950 f   libucrtd:fflush.obj
 0001:000a7960       fflush                     00000001800a8960 f   libucrtd:fflush.obj
 0001:000a83c0       ?has_big_buffer@__crt_stdio_stream@@QEBA_NXZ 00000001800a93c0 f i libucrtd:_flsbuf.obj
 0001:000a84e0       __acrt_stdio_flush_and_write_narrow_nolock 00000001800a94e0 f   libucrtd:_flsbuf.obj
 0001:000a8510       __acrt_stdio_flush_and_write_wide_nolock 00000001800a9510 f   libucrtd:_flsbuf.obj
 0001:000a8930       __acrt_get_begin_thread_init_policy 00000001800a9930 f   libucrtd:win_policies.obj
 0001:000a8940       __acrt_get_developer_information_policy 00000001800a9940 f   libucrtd:win_policies.obj
 0001:000a8960       __acrt_get_process_end_policy 00000001800a9960 f   libucrtd:win_policies.obj
 0001:000a8970       __acrt_get_windowing_model_policy 00000001800a9970 f   libucrtd:win_policies.obj
 0001:000a8d30       ??$__acrt_mbs_to_wcs_cp@U__crt_win32_buffer_internal_dynamic_resizing@@@@YAHQEBDAEAV?$__crt_win32_buffer@_WU__crt_win32_buffer_internal_dynamic_resizing@@@@I@Z 00000001800a9d30 f i libucrtd:argv_wildcards.obj
 0001:000a8d80       ??$__acrt_wcs_to_mbs_cp@U__crt_win32_buffer_internal_dynamic_resizing@@@@YAHQEB_WAEAV?$__crt_win32_buffer@DU__crt_win32_buffer_internal_dynamic_resizing@@@@I@Z 00000001800a9d80 f i libucrtd:argv_wildcards.obj
 0001:000aa200       ??$tcsncpy_s@AEAPEAD_KAEAPEADAEB_K@?$__crt_char_traits@D@@SAHAEAPEAD$$QEA_K0AEB_K@Z 00000001800ab200 f i libucrtd:argv_wildcards.obj
 0001:000aa250       ??$tcsncpy_s@AEAPEA_W_KAEAPEA_WAEB_K@?$__crt_char_traits@_W@@SAHAEAPEA_W$$QEA_K0AEB_K@Z 00000001800ab250 f i libucrtd:argv_wildcards.obj
 0001:000aa2a0       ??$tcsncpy_s@PEADAEB_KAEBQEBDAEB_K@?$__crt_char_traits@D@@SAH$$QEAPEADAEB_KAEBQEBD1@Z 00000001800ab2a0 f i libucrtd:argv_wildcards.obj
 0001:000aa2f0       ??$tcsncpy_s@PEAD_KAEBQEBDAEB_K@?$__crt_char_traits@D@@SAH$$QEAPEAD$$QEA_KAEBQEBDAEB_K@Z 00000001800ab2f0 f i libucrtd:argv_wildcards.obj
 0001:000aa340       ??$tcsncpy_s@PEA_WAEB_KAEBQEB_WAEB_K@?$__crt_char_traits@_W@@SAH$$QEAPEA_WAEB_KAEBQEB_W1@Z 00000001800ab340 f i libucrtd:argv_wildcards.obj
 0001:000aa390       ??$tcsncpy_s@PEA_W_KAEBQEB_WAEB_K@?$__crt_char_traits@_W@@SAH$$QEAPEA_W$$QEA_KAEBQEB_WAEB_K@Z 00000001800ab390 f i libucrtd:argv_wildcards.obj
 0001:000aa3e0       ??$tcspbrk@AEAPEADAEAY02$$CBD@?$__crt_char_traits@D@@SAPEADAEAPEADAEAY02$$CBD@Z 00000001800ab3e0 f i libucrtd:argv_wildcards.obj
 0001:000aa410       ??$tcspbrk@AEAPEA_WAEAY02$$CB_W@?$__crt_char_traits@_W@@SAPEA_WAEAPEA_WAEAY02$$CB_W@Z 00000001800ab410 f i libucrtd:argv_wildcards.obj
 0001:000aa440       ??0?$__crt_unique_handle_t@U__crt_findfile_traits@@@@QEAA@QEAX@Z 00000001800ab440 f i libucrtd:argv_wildcards.obj
 0001:000aa460       ??0?$__crt_win32_buffer@DU__crt_win32_buffer_internal_dynamic_resizing@@@@QEAA@XZ 00000001800ab460 f i libucrtd:argv_wildcards.obj
 0001:000aa4c0       ??0?$__crt_win32_buffer@_WU__crt_win32_buffer_internal_dynamic_resizing@@@@QEAA@XZ 00000001800ab4c0 f i libucrtd:argv_wildcards.obj
 0001:000aa5a0       ??1?$__crt_unique_handle_t@U__crt_findfile_traits@@@@QEAA@XZ 00000001800ab5a0 f i libucrtd:argv_wildcards.obj
 0001:000aa5c0       ??1?$__crt_win32_buffer@DU__crt_win32_buffer_internal_dynamic_resizing@@@@QEAA@XZ 00000001800ab5c0 f i libucrtd:argv_wildcards.obj
 0001:000aa5f0       ??1?$__crt_win32_buffer@_WU__crt_win32_buffer_internal_dynamic_resizing@@@@QEAA@XZ 00000001800ab5f0 f i libucrtd:argv_wildcards.obj
 0001:000aa8f0       ?_deallocate@?$__crt_win32_buffer@DU__crt_win32_buffer_internal_dynamic_resizing@@@@AEAAXXZ 00000001800ab8f0 f i libucrtd:argv_wildcards.obj
 0001:000aa930       ?_deallocate@?$__crt_win32_buffer@_WU__crt_win32_buffer_internal_dynamic_resizing@@@@AEAAXXZ 00000001800ab930 f i libucrtd:argv_wildcards.obj
 0001:000aa970       ?allocate@?$__crt_win32_buffer@DU__crt_win32_buffer_internal_dynamic_resizing@@@@QEAAH_K@Z 00000001800ab970 f i libucrtd:argv_wildcards.obj
 0001:000aa9f0       ?allocate@?$__crt_win32_buffer@_WU__crt_win32_buffer_internal_dynamic_resizing@@@@QEAAH_K@Z 00000001800ab9f0 f i libucrtd:argv_wildcards.obj
 0001:000aaa80       ?allocate@__crt_win32_buffer_internal_dynamic_resizing@@SAHQEAPEAX_KAEBV__crt_win32_buffer_empty_debug_info@@@Z 00000001800aba80 f i libucrtd:argv_wildcards.obj
 0001:000aabe0       ?capacity@?$__crt_win32_buffer@DU__crt_win32_buffer_internal_dynamic_resizing@@@@QEBA_KXZ 00000001800abbe0 f i libucrtd:argv_wildcards.obj
 0001:000aabf0       ?capacity@?$__crt_win32_buffer@_WU__crt_win32_buffer_internal_dynamic_resizing@@@@QEBA_KXZ 00000001800abbf0 f i libucrtd:argv_wildcards.obj
 0001:000aac00       ?close@?$__crt_unique_handle_t@U__crt_findfile_traits@@@@QEAAXXZ 00000001800abc00 f i libucrtd:argv_wildcards.obj
 0001:000aac40       ?close@__crt_findfile_traits@@SA_NPEAX@Z 00000001800abc40 f i libucrtd:argv_wildcards.obj
 0001:000aac80       ?data@?$__crt_win32_buffer@DU__crt_win32_buffer_internal_dynamic_resizing@@@@QEAAPEADXZ 00000001800abc80 f i libucrtd:argv_wildcards.obj
 0001:000aac90       ?data@?$__crt_win32_buffer@_WU__crt_win32_buffer_internal_dynamic_resizing@@@@QEAAPEA_WXZ 00000001800abc90 f i libucrtd:argv_wildcards.obj
 0001:000aaca0       ?deallocate@__crt_win32_buffer_internal_dynamic_resizing@@SAXQEAXAEBV__crt_win32_buffer_empty_debug_info@@@Z 00000001800abca0 f i libucrtd:argv_wildcards.obj
 0001:000aacd0       ?debug_info@?$__crt_win32_buffer@DU__crt_win32_buffer_internal_dynamic_resizing@@@@QEBAAEBV__crt_win32_buffer_empty_debug_info@@XZ 00000001800abcd0 f i libucrtd:argv_wildcards.obj
 0001:000aace0       ?debug_info@?$__crt_win32_buffer@_WU__crt_win32_buffer_internal_dynamic_resizing@@@@QEBAAEBV__crt_win32_buffer_empty_debug_info@@XZ 00000001800abce0 f i libucrtd:argv_wildcards.obj
 0001:000ab0d0       ?get@?$__crt_unique_handle_t@U__crt_findfile_traits@@@@QEBAPEAXXZ 00000001800ac0d0 f i libucrtd:argv_wildcards.obj
 0001:000ab140       ?get_invalid_value@__crt_findfile_traits@@SAPEAXXZ 00000001800ac140 f i libucrtd:argv_wildcards.obj
