 OPOSPINPad

 Timestamp is 61a75992 (Wed Dec  1 20:16:34 2021)

 Preferred load address is 0000000180000000

 Start         Length     Name                   Class
 0001:00000000 00000d90H .text$di                CODE
 0001:00000d90 000e4f80H .text$mn                CODE
 0001:000e5d10 00000040H .text$mn$00             CODE
 0001:000e5d50 00001330H .text$x                 CODE
 0001:000e7080 00000124H .text$yd                CODE
 0002:00000000 000006f8H .idata$5                DATA
 0002:000006f8 00000030H .00cfg                  DATA
 0002:00000728 00000008H .CRT$XCA                DATA
 0002:00000730 00000008H .CRT$XCL                DATA
 0002:00000738 000000d8H .CRT$XCU                DATA
 0002:00000810 00000008H .CRT$XCZ                DATA
 0002:00000818 00000008H .CRT$XIA                DATA
 0002:00000820 00000028H .CRT$XIC                DATA
 0002:00000848 00000008H .CRT$XIZ                DATA
 0002:00000850 00000008H .CRT$XLA                DATA
 0002:00000858 00000008H .CRT$XLZ                DATA
 0002:00000860 00000008H .CRT$XPA                DATA
 0002:00000868 00000010H .CRT$XPX                DATA
 0002:00000878 00000008H .CRT$XPXA               DATA
 0002:00000880 00000008H .CRT$XPZ                DATA
 0002:00000888 00000008H .CRT$XTA                DATA
 0002:00000890 00000010H .CRT$XTZ                DATA
 0002:00000898 00000000H .gehcont$y              DATA
 0002:00000898 00000000H .gfids$y                DATA
 0002:000008a0 0003c8e0H .rdata                  DATA
 0002:0003d180 00000080H .rdata$CastGuardVftablesA DATA
 0002:0003d200 00000080H .rdata$CastGuardVftablesC DATA
 0002:0003d280 00000028H .rdata$T                DATA
 0002:0003d2a8 0000056cH .rdata$r                DATA
 0002:0003d814 00000190H .rdata$voltmd           DATA
 0002:0003d9a4 000004a4H .rdata$zzzdbg           DATA
 0002:0003de48 00000008H .rtc$IAA                DATA
 0002:0003de50 00000030H .rtc$IMZ                DATA
 0002:0003de80 00000008H .rtc$IZZ                DATA
 0002:0003de88 00000008H .rtc$TAA                DATA
 0002:0003de90 00000030H .rtc$TMZ                DATA
 0002:0003dec0 00000008H .rtc$TZZ                DATA
 0002:0003dec8 00000004H .tls                    DATA
 0002:0003decc 00000004H .tls$                   DATA
 0002:0003ded0 00000008H .tls$ZZZ                DATA
 0002:0003ded8 0000a018H .xdata                  DATA
 0002:00047ef0 00000150H .xdata$x                DATA
 0002:00048040 00000008H ATL$__a                 DATA
 0002:00048048 00000008H ATL$__z                 DATA
 0002:00048050 000000a8H .edata                  DATA
 0002:000480f8 00000078H .idata$2                DATA
 0002:00048170 00000018H .idata$3                DATA
 0002:00048188 000006f8H .idata$4                DATA
 0002:00048880 00000df0H .idata$6                DATA
 0003:00000000 00000ef8H .data                   DATA
 0003:00000ef8 000000a8H .data$r                 DATA
 0003:00000fa0 000000f0H .data$rs                DATA
 0003:00001090 00003eacH .bss                    DATA
 0004:00000000 0000c90cH .pdata                  DATA
 0005:00000000 000000fcH _RDATA                  DATA
 0006:00000000 00000220H .rsrc$01                DATA
 0006:00000220 00004bb8H .rsrc$02                DATA

  Address         Publics by Value              Rva+Base               Lib:Object

 0000:00000000       __arm64x_redirection_metadata 0000000000000000     <absolute>
 0000:00000000       __arm64x_extra_rfe_table   0000000000000000     <absolute>
 0000:00000000       __guard_iat_table          0000000000000000     <absolute>
 0000:00000000       __arm64x_native_entrypoint 0000000000000000     <absolute>
 0000:00000000       __guard_fids_table         0000000000000000     <absolute>
 0000:00000000       __guard_check_icall_a64n_fptr 0000000000000000     <absolute>
 0000:00000000       __guard_longjmp_count      0000000000000000     <absolute>
 0000:00000000       __enclave_config           0000000000000000     <absolute>
 0000:00000000       __guard_eh_cont_count      0000000000000000     <absolute>
 0000:00000000       __hybrid_auxiliary_iat     0000000000000000     <absolute>
 0000:00000000       __hybrid_code_map          0000000000000000     <absolute>
 0000:00000000       __guard_iat_count          0000000000000000     <absolute>
 0000:00000000       __dynamic_value_reloc_table 0000000000000000     <absolute>
 0000:00000000       __x64_code_ranges_to_entry_points 0000000000000000     <absolute>
 0000:00000000       __guard_fids_count         0000000000000000     <absolute>
 0000:00000000       __x64_code_ranges_to_entry_points_count 0000000000000000     <absolute>
 0000:00000000       __AbsoluteZero             0000000000000000     <absolute>
 0000:00000000       __arm64x_extra_rfe_table_size 0000000000000000     <absolute>
 0000:00000000       ___safe_se_handler_table   0000000000000000     <absolute>
 0000:00000000       ___safe_se_handler_count   0000000000000000     <absolute>
 0000:00000000       __arm64x_redirection_metadata_count 0000000000000000     <absolute>
 0000:00000000       __guard_longjmp_table      0000000000000000     <absolute>
 0000:00000000       __hybrid_code_map_count    0000000000000000     <absolute>
 0000:00000000       __hybrid_auxiliary_iat_copy 0000000000000000     <absolute>
 0000:00000000       __guard_eh_cont_table      0000000000000000     <absolute>
 0000:00000100       __guard_flags              0000000000000100     <absolute>
 0000:00000000       __ImageBase                0000000180000000     <linker-defined>
 0001:00000d90       ?_assert@@YAXPEB_W0I@Z     0000000180001d90 f   Assert.obj
 0001:00000e90       __local_stdio_printf_options 0000000180001e90 f i Assert.obj
 0001:00000ea0       __vswprintf_l              0000000180001ea0 f i Assert.obj
 0001:00000ef0       _swprintf                  0000000180001ef0 f i Assert.obj
 0001:00000f70       _vswprintf_c_l             0000000180001f70 f i Assert.obj
 0001:00000fe0       _vswprintf_l               0000000180001fe0 f i Assert.obj
 0001:00001030       ?cw_memcpy@@YAHPEADPEB_WH@Z 0000000180002030 f   CWString.obj
 0001:000010b0       ?cw_memcpy@@YAHPEA_WPEBDH@Z 00000001800020b0 f   CWString.obj
 0001:00001120       ?cw_memcpy@@YAHPEADPEBDH@Z 0000000180002120 f   CWString.obj
 0001:000011b0       ?cw_memcpy@@YAHPEA_WPEB_WH@Z 00000001800021b0 f   CWString.obj
 0001:00001210       ?cw_memset@@YAXPEADDH@Z    0000000180002210 f   CWString.obj
 0001:00001270       ?cw_memset@@YAXPEA_W_WH@Z  0000000180002270 f   CWString.obj
 0001:00001300       ?cw_strlen@@YAHPEBD@Z      0000000180002300 f   CWString.obj
 0001:00001360       ?cw_strlen@@YAHPEB_W@Z     0000000180002360 f   CWString.obj
 0001:000013c0       ?cw_strcpy@@YAHPEADPEB_W@Z 00000001800023c0 f   CWString.obj
 0001:00001400       ?cw_strcpy@@YAHPEA_WPEBD@Z 0000000180002400 f   CWString.obj
 0001:00001440       ?cw_strcpy@@YAHPEADPEBD@Z  0000000180002440 f   CWString.obj
 0001:00001480       ?cw_strcpy@@YAHPEA_WPEB_W@Z 0000000180002480 f   CWString.obj
 0001:000014c0       ?cw_strcat@@YAHPEADPEB_W@Z 00000001800024c0 f   CWString.obj
 0001:00001510       ?cw_strcat@@YAHPEA_WPEBD@Z 0000000180002510 f   CWString.obj
 0001:00001560       ?cw_strcat@@YAHPEADPEBD@Z  0000000180002560 f   CWString.obj
 0001:000015b0       ?cw_strcat@@YAHPEA_WPEB_W@Z 00000001800025b0 f   CWString.obj
 0001:00001600       ?cw_dup@@YAXPEBDAEAHAEAPEA_W1@Z 0000000180002600 f   CWString.obj
 0001:00001700       ?cw_dup@@YAXPEB_WAEAHAEAPEAD1@Z 0000000180002700 f   CWString.obj
 0001:000017e0       ?DupChar@_CW@@AEAAXXZ      00000001800027e0 f   CWString.obj
 0001:00001830       ?DupWide@_CW@@AEAAXXZ      0000000180002830 f   CWString.obj
 0001:00001880       ?GetCharsMbcs@_CW@@QEAAHXZ 0000000180002880 f   CWString.obj
 0001:000018e0       ?GetCharsWide@_CW@@QEAAHXZ 00000001800028e0 f   CWString.obj
 0001:00001940       ?SetVARIANT_BOOL@OposVariant@@QEAAXF@Z 0000000180002940 f   OposVariant.obj
 0001:000019a0       ?SetVARIANT_BOOL_Ptr@OposVariant@@QEAAXPEAFAEAJ@Z 00000001800029a0 f   OposVariant.obj
 0001:00001a00       ?GetLONG@OposVariant@@QEAAJXZ 0000000180002a00 f   OposVariant.obj
 0001:00001a60       ?ChangeLONG@OposVariant@@QEAAXPEAJAEAJ@Z 0000000180002a60 f   OposVariant.obj
 0001:00001b10       ?SetLONG@OposVariant@@QEAAXJ@Z 0000000180002b10 f   OposVariant.obj
 0001:00001b50       ?SetLONG_Ptr@OposVariant@@QEAAXPEAJAEAJ@Z 0000000180002b50 f   OposVariant.obj
 0001:00001bb0       ?ChangeCURRENCY@OposVariant@@QEAAXPEATtagCY@@AEAJ@Z 0000000180002bb0 f   OposVariant.obj
 0001:00001c60       ?SetCURRENCY@OposVariant@@QEAAXTtagCY@@@Z 0000000180002c60 f   OposVariant.obj
 0001:00001ca0       ?SetCURRENCY_Ptr@OposVariant@@QEAAXPEATtagCY@@AEAJ@Z 0000000180002ca0 f   OposVariant.obj
 0001:00001d00       ?ChangeBSTR@OposVariant@@QEAAXPEAPEA_WAEAJ@Z 0000000180002d00 f   OposVariant.obj
 0001:00001db0       ?SetBSTR@OposVariant@@QEAAXPEA_WAEAJ@Z 0000000180002db0 f   OposVariant.obj
 0001:00001e10       ?SetBSTR_Copy@OposVariant@@QEAAXPEA_WAEAJ@Z 0000000180002e10 f   OposVariant.obj
 0001:00001eb0       ?SetBSTR_OutPtr@OposVariant@@QEAA_NPEAPEA_WAEAJ@Z 0000000180002eb0 f   OposVariant.obj
 0001:00001f10       ?SetBSTR_InOutPtr@OposVariant@@QEAA_NPEAPEA_WAEAJ@Z 0000000180002f10 f   OposVariant.obj
 0001:00001f70       ?SetVARIANT@OposVariant@@QEAAXAEAUtagVARIANT@@GAEAJ@Z 0000000180002f70 f   OposVariant.obj
 0001:00002000       ?SetVARIANT_Ptr@OposVariant@@QEAAXAEAPEAUtagVARIANT@@GAEAJ@Z 0000000180003000 f   OposVariant.obj
 0001:000020a0       ?SetString@OposVariant@@QEAAXPEB_WAEAJ@Z 00000001800030a0 f   OposVariant.obj
 0001:00002130       ?SetDispatch_Ptr@OposVariant@@QEAAXPEAUIDispatch@@AEAJ@Z 0000000180003130 f   OposVariant.obj
 0001:000021b0       ??0OposDispParms@@QEAA@PEAVOposVariant@@H@Z 00000001800031b0 f   OposVariant.obj
 0001:000022b0       ??1OposDispParms@@QEAA@XZ  00000001800032b0 f   OposVariant.obj
 0001:000022f0       ??$AtlMultiply@_K@ATL@@YAJPEA_K_K1@Z 00000001800032f0 f i OposVariant.obj
 0001:00002360       ??0?$CHeapPtr@_WVCCRTAllocator@ATL@@@ATL@@QEAA@XZ 0000000180003360 f i OposVariant.obj
 0001:00002380       ??0?$CHeapPtrBase@_WVCCRTAllocator@ATL@@@ATL@@IEAA@XZ 0000000180003380 f i OposVariant.obj
 0001:000023a0       ??0?$CSimpleArray@GV?$CSimpleArrayEqualHelper@G@ATL@@@ATL@@QEAA@XZ 00000001800033a0 f i OposVariant.obj
 0001:000023e0       ??0?$CTraceCategoryEx@$00$0A@@ATL@@QEAA@PEB_W@Z 00000001800033e0 f i OposVariant.obj
 0001:00002410       ??0?$CTraceCategoryEx@$01$0A@@ATL@@QEAA@PEB_W@Z 0000000180003410 f i OposVariant.obj
 0001:00002440       ??0?$CTraceCategoryEx@$03$0A@@ATL@@QEAA@PEB_W@Z 0000000180003440 f i OposVariant.obj
 0001:00002470       ??0?$CTraceCategoryEx@$07$0A@@ATL@@QEAA@PEB_W@Z 0000000180003470 f i OposVariant.obj
 0001:000024a0       ??0?$CTraceCategoryEx@$0BA@$0A@@ATL@@QEAA@PEB_W@Z 00000001800034a0 f i OposVariant.obj
 0001:000024d0       ??0?$CTraceCategoryEx@$0BAA@$0A@@ATL@@QEAA@PEB_W@Z 00000001800034d0 f i OposVariant.obj
 0001:00002500       ??0?$CTraceCategoryEx@$0BAAA@$0A@@ATL@@QEAA@PEB_W@Z 0000000180003500 f i OposVariant.obj
 0001:00002530       ??0?$CTraceCategoryEx@$0BAAAA@$0A@@ATL@@QEAA@PEB_W@Z 0000000180003530 f i OposVariant.obj
 0001:00002560       ??0?$CTraceCategoryEx@$0BAAAAA@$0A@@ATL@@QEAA@PEB_W@Z 0000000180003560 f i OposVariant.obj
 0001:00002590       ??0?$CTraceCategoryEx@$0CA@$0A@@ATL@@QEAA@PEB_W@Z 0000000180003590 f i OposVariant.obj
 0001:000025c0       ??0?$CTraceCategoryEx@$0CAA@$0A@@ATL@@QEAA@PEB_W@Z 00000001800035c0 f i OposVariant.obj
 0001:000025f0       ??0?$CTraceCategoryEx@$0CAAA@$0A@@ATL@@QEAA@PEB_W@Z 00000001800035f0 f i OposVariant.obj
 0001:00002620       ??0?$CTraceCategoryEx@$0CAAAA@$0A@@ATL@@QEAA@PEB_W@Z 0000000180003620 f i OposVariant.obj
 0001:00002650       ??0?$CTraceCategoryEx@$0CAAAAA@$0A@@ATL@@QEAA@PEB_W@Z 0000000180003650 f i OposVariant.obj
 0001:00002680       ??0?$CTraceCategoryEx@$0EA@$0A@@ATL@@QEAA@PEB_W@Z 0000000180003680 f i OposVariant.obj
 0001:000026b0       ??0?$CTraceCategoryEx@$0EAA@$0A@@ATL@@QEAA@PEB_W@Z 00000001800036b0 f i OposVariant.obj
 0001:000026e0       ??0?$CTraceCategoryEx@$0EAAA@$0A@@ATL@@QEAA@PEB_W@Z 00000001800036e0 f i OposVariant.obj
 0001:00002710       ??0?$CTraceCategoryEx@$0EAAAA@$0A@@ATL@@QEAA@PEB_W@Z 0000000180003710 f i OposVariant.obj
 0001:00002740       ??0?$CTraceCategoryEx@$0EAAAAA@$0A@@ATL@@QEAA@PEB_W@Z 0000000180003740 f i OposVariant.obj
 0001:00002770       ??0?$CTraceCategoryEx@$0IA@$0A@@ATL@@QEAA@PEB_W@Z 0000000180003770 f i OposVariant.obj
 0001:000027a0       ??0?$CTraceCategoryEx@$0IAA@$0A@@ATL@@QEAA@PEB_W@Z 00000001800037a0 f i OposVariant.obj
 0001:000027d0       ??0?$CTraceCategoryEx@$0IAAA@$0A@@ATL@@QEAA@PEB_W@Z 00000001800037d0 f i OposVariant.obj
 0001:00002800       ??0?$CTraceCategoryEx@$0IAAAA@$0A@@ATL@@QEAA@PEB_W@Z 0000000180003800 f i OposVariant.obj
 0001:00002830       ??0CAtlComModule@ATL@@QEAA@XZ 0000000180003830 f i OposVariant.obj
 0001:00002940       ??0CAtlWinModule@ATL@@QEAA@XZ 0000000180003940 f i OposVariant.obj
 0001:000029e0       ??0CComCriticalSection@ATL@@QEAA@XZ 00000001800039e0 f i OposVariant.obj
 0001:00002a10       ??0CPreserveLastError@ATL@@QEAA@XZ 0000000180003a10 f i OposVariant.obj
 0001:00002a40       ??0CTraceFileAndLineInfo@ATL@@QEAA@PEBDH@Z 0000000180003a40 f i OposVariant.obj
 0001:00002a70       ??0_ATL_COM_MODULE70@ATL@@QEAA@XZ 0000000180003a70 f i OposVariant.obj
 0001:00002aa0       ??0_ATL_WIN_MODULE70@ATL@@QEAA@XZ 0000000180003aa0 f i OposVariant.obj
 0001:00002ae0       ??1?$CHeapPtr@_WVCCRTAllocator@ATL@@@ATL@@QEAA@XZ 0000000180003ae0 f i OposVariant.obj
 0001:00002b00       ??1?$CHeapPtrBase@_WVCCRTAllocator@ATL@@@ATL@@QEAA@XZ 0000000180003b00 f i OposVariant.obj
 0001:00002b20       ??1?$CSimpleArray@GV?$CSimpleArrayEqualHelper@G@ATL@@@ATL@@QEAA@XZ 0000000180003b20 f i OposVariant.obj
 0001:00002b40       ??1CAtlComModule@ATL@@QEAA@XZ 0000000180003b40 f i OposVariant.obj
 0001:00002b70       ??1CAtlWinModule@ATL@@QEAA@XZ 0000000180003b70 f i OposVariant.obj
 0001:00002ba0       ??1CComBSTR@ATL@@QEAA@XZ   0000000180003ba0 f i OposVariant.obj
 0001:00002bc0       ??1CComCriticalSection@ATL@@QEAA@XZ 0000000180003bc0 f i OposVariant.obj
 0001:00002bd0       ??1CPreserveLastError@ATL@@QEAA@XZ 0000000180003bd0 f i OposVariant.obj
 0001:00002bf0       ??1_ATL_COM_MODULE70@ATL@@QEAA@XZ 0000000180003bf0 f i OposVariant.obj
 0001:00002c20       ??1_ATL_WIN_MODULE70@ATL@@QEAA@XZ 0000000180003c20 f i OposVariant.obj
 0001:00002c60       ??1stringdispid@CComTypeInfoHolder@ATL@@QEAA@XZ 0000000180003c60 f i OposVariant.obj
 0001:00002c80       ??A?$CSimpleArray@GV?$CSimpleArrayEqualHelper@G@ATL@@@ATL@@QEAAAEAGH@Z 0000000180003c80 f i OposVariant.obj
 0001:00002d20       ??B?$CHeapPtrBase@_WVCCRTAllocator@ATL@@@ATL@@QEBAPEA_WXZ 0000000180003d20 f i OposVariant.obj
 0001:00002d30       ??B?$CTraceCategoryEx@$01$0A@@ATL@@QEAAIXZ 0000000180003d30 f i OposVariant.obj
 0001:00002d40       ??B?$CTraceCategoryEx@$0CA@$0A@@ATL@@QEAAIXZ 0000000180003d40 f i OposVariant.obj
 0001:00002d50       ??RCTraceFileAndLineInfo@ATL@@QEBAXHIPEB_WZZ 0000000180003d50 f i OposVariant.obj
 0001:00002e10       ??_Estringdispid@CComTypeInfoHolder@ATL@@QEAAPEAXI@Z 0000000180003e10 f i OposVariant.obj
 0001:00002eb0       ??_H@YAXPEAX_K1P6APEAX0@Z@Z 0000000180003eb0 f i OposVariant.obj
 0001:00002f30       ??_I@YAXPEAX_K1P6AX0@Z@Z   0000000180003f30 f i OposVariant.obj
 0001:00002fd0       ?Allocate@?$CHeapPtr@_WVCCRTAllocator@ATL@@@ATL@@QEAA_N_K@Z 0000000180003fd0 f i OposVariant.obj
 0001:00003050       ?Allocate@CCRTAllocator@ATL@@SAPEAX_K@Z 0000000180004050 f i OposVariant.obj
 0001:00003070       ?AllocateBytes@?$CHeapPtrBase@_WVCCRTAllocator@ATL@@@ATL@@QEAA_N_K@Z 0000000180004070 f i OposVariant.obj
 0001:000030f0       ?AtlWinModuleInit@ATL@@YAJPEAU_ATL_WIN_MODULE70@1@@Z 00000001800040f0 f i OposVariant.obj
 0001:000031e0       ?AtlWinModuleTerm@ATL@@YAJPEAU_ATL_WIN_MODULE70@1@PEAUHINSTANCE__@@@Z 00000001800041e0 f i OposVariant.obj
 0001:000032b0       ?Clear@OposVariant@@QEAAJXZ 00000001800042b0 f i OposVariant.obj
 0001:000032e0       ?Free@?$CHeapPtrBase@_WVCCRTAllocator@ATL@@@ATL@@QEAAXXZ 00000001800042e0 f i OposVariant.obj
 0001:00003310       ?Free@CCRTAllocator@ATL@@SAXPEAX@Z 0000000180004310 f i OposVariant.obj
 0001:00003330       ?GetCategoryName@CTrace@ATL@@CAPEA_WI@Z 0000000180004330 f i OposVariant.obj
 0001:000033a0       ?GetModuleInstance@CAtlBaseModule@ATL@@QEAAPEAUHINSTANCE__@@XZ 00000001800043a0 f i OposVariant.obj
 0001:000033c0       ?GetSize@?$CSimpleArray@GV?$CSimpleArrayEqualHelper@G@ATL@@@ATL@@QEBAHXZ 00000001800043c0 f i OposVariant.obj
 0001:000033d0       ?Init@CComCriticalSection@ATL@@QEAAJXZ 00000001800043d0 f i OposVariant.obj
 0001:00003420       ?RegisterCategory@CTrace@ATL@@SAXPEB_WI@Z 0000000180004420 f i OposVariant.obj
 0001:000034e0       ?RemoveAll@?$CSimpleArray@GV?$CSimpleArrayEqualHelper@G@ATL@@@ATL@@QEAAXXZ 00000001800044e0 f i OposVariant.obj
 0001:00003550       ?Term@CAtlComModule@ATL@@QEAAXXZ 0000000180004550 f i OposVariant.obj
 0001:00003620       ?Term@CAtlWinModule@ATL@@QEAAXXZ 0000000180004620 f i OposVariant.obj
 0001:00003650       ?Term@CComCriticalSection@ATL@@QEAAJXZ 0000000180004650 f i OposVariant.obj
 0001:00003670       ?TraceV@CTrace@ATL@@CAXPEBDHIIPEB_W@Z 0000000180004670 f i OposVariant.obj
 0001:00003920       ?TraceV@CTrace@ATL@@SAXPEBDHIIPEB_WPEAD@Z 0000000180004920 f i OposVariant.obj
 0001:00003ad0       ?_AtlInitializeCriticalSectionEx@ATL@@YAHPEAU_RTL_CRITICAL_SECTION@@KK@Z 0000000180004ad0 f i OposVariant.obj
 0001:00003b00       ?_AtlRaiseException@ATL@@YAXKK@Z 0000000180004b00 f i OposVariant.obj
 0001:00003b30       HRESULT_FROM_WIN32         0000000180004b30 f i OposVariant.obj
 0001:00003b70       _vswprintf_s_l             0000000180004b70 f i OposVariant.obj
 0001:00003be0       swprintf_s                 0000000180004be0 f i OposVariant.obj
 0001:00003c70       ?ObjectMain@CComObjectRootBase@ATL@@SAX_N@Z 0000000180004c70 f i PINPad.obj
 0001:00003c80       ?GetCategoryMap@CComObjectRootBase@ATL@@SAPEBU_ATL_CATMAP_ENTRY@2@XZ 0000000180004c80 f i PINPad.obj
 0001:00003c90       ?GetObjectDescription@?$CComCoClass@VCOPOSPINPad@@$1?CLSID_OPOSPINPad@@3U_GUID@@B@ATL@@SAPEB_WXZ 0000000180004c90 f i PINPad.obj
 0001:00003ca0       ?UpdateRegistry@COPOSPINPad@@SAJH@Z 0000000180004ca0 f i PINPad.obj
 0001:00003cd0       ?CreateInstance@?$CComCreator@V?$CComObjectCached@VCComClassFactory@ATL@@@ATL@@@ATL@@SAJPEAXAEBU_GUID@@PEAPEAX@Z 0000000180004cd0 f i PINPad.obj
 0001:00003ea0       ?CreateInstance@?$CComCreator2@V?$CComCreator@V?$CComObject@VCOPOSPINPad@@@ATL@@@ATL@@V?$CComCreator@V?$CComAggObject@VCOPOSPINPad@@@ATL@@@2@@ATL@@SAJPEAXAEBU_GUID@@PEAPEAX@Z 0000000180004ea0 f i PINPad.obj
 0001:00004090       DllGetClassObject          0000000180005090 f   PINPad.obj
 0001:000040d0       DllCanUnloadNow            00000001800050d0 f   PINPad.obj
 0001:00004110       DllRegisterServer          0000000180005110 f   PINPad.obj
 0001:00004140       DllUnregisterServer        0000000180005140 f   PINPad.obj
 0001:00004300       DllMain                    0000000180005300 f   PINPad.obj
 0001:00004370       ??$?2G@Wrapper@?$CSimpleArray@GV?$CSimpleArrayEqualHelper@G@ATL@@@ATL@@SAPEAX_KPEAG@Z 0000000180005370 f i PINPad.obj
 0001:00004390       ??$?2PEA_W@?$Wrapper@PEA_W@?$CSimpleMap@PEA_WPEA_WVCExpansionVectorEqualHelper@ATL@@@ATL@@SAPEAX_KPEAPEA_W@Z 0000000180005390 f i PINPad.obj
 0001:000043b0       ??$?4UITypeInfo2@@@?$CComPtr@UITypeInfo@@@ATL@@QEAAPEAUITypeInfo@@AEBV?$CComPtr@UITypeInfo2@@@1@@Z 00000001800053b0 f i PINPad.obj
 0001:00004410       ??$AtlAdd@_K@ATL@@YAJPEA_K_K1@Z 0000000180005410 f i PINPad.obj
 0001:00004470       ??$AtlAddThrow@_K@ATL@@YA_K_K0@Z 0000000180005470 f i PINPad.obj
 0001:000044e0       ??$AtlModuleRegisterWndClassInfoT@VAtlModuleRegisterWndClassInfoParamW@ATL@@@ATL@@YAGPEAU_ATL_BASE_MODULE70@0@PEAU_ATL_WIN_MODULE70@0@PEAU_ATL_WNDCLASSINFOW@0@PEAP6A_JPEAUHWND__@@I_K_J@ZVAtlModuleRegisterWndClassInfoParamW@0@@Z 00000001800054e0 f i PINPad.obj
 0001:00004ab0       ??$AtlMultiply@H@ATL@@YAJPEAHHH@Z 0000000180005ab0 f i PINPad.obj
 0001:00004b10       ??$AtlMultiply@K@ATL@@YAJPEAKKK@Z 0000000180005b10 f i PINPad.obj
 0001:00004b60       ??$AtlMultiplyThrow@_K@ATL@@YA_K_K0@Z 0000000180005b60 f i PINPad.obj
 0001:00004bd0       ??$QueryInterface@UIPersistStream@@@IUnknown@@QEAAJPEAPEAUIPersistStream@@@Z 0000000180005bd0 f i PINPad.obj
 0001:00004c00       ??$QueryInterface@UITypeInfo2@@@IUnknown@@QEAAJPEAPEAUITypeInfo2@@@Z 0000000180005c00 f i PINPad.obj
 0001:00004c30       ??0?$CAtlModuleT@VCComModule@ATL@@@ATL@@QEAA@XZ 0000000180005c30 f i PINPad.obj
 0001:00004c60       ??0?$CAtlSafeAllocBufferManager@VCCRTAllocator@ATL@@@_ATL_SAFE_ALLOCA_IMPL@ATL@@QEAA@XZ 0000000180005c60 f i PINPad.obj
 0001:00004c80       ??0?$CAutoVectorPtr@_W@ATL@@QEAA@XZ 0000000180005c80 f i PINPad.obj
 0001:00004ca0       ??0?$CComAggObject@VCOPOSPINPad@@@ATL@@QEAA@PEAX@Z 0000000180005ca0 f i PINPad.obj
 0001:00004d10       ??0?$CComContainedObject@VCOPOSPINPad@@@ATL@@QEAA@PEAX@Z 0000000180005d10 f i PINPad.obj
 0001:00004ea0       ??0?$CComCritSecLock@VCComCriticalSection@ATL@@@ATL@@QEAA@AEAVCComCriticalSection@1@_N@Z 0000000180005ea0 f i PINPad.obj
 0001:00004f00       ??0?$CComEnum@UIEnumConnectionPoints@@$1?_GUID_b196b285_bab4_101a_b69c_00aa00341d07@@3U__s_GUID@@BPEAUIConnectionPoint@@V?$_CopyInterface@UIConnectionPoint@@@ATL@@VCComSingleThreadModel@6@@ATL@@QEAA@XZ 0000000180005f00 f i PINPad.obj
 0001:00004f30       ??0?$CComEnum@UIEnumConnections@@$1?_GUID_b196b287_bab4_101a_b69c_00aa00341d07@@3U__s_GUID@@BUtagCONNECTDATA@@V?$_Copy@UtagCONNECTDATA@@@ATL@@VCComSingleThreadModel@6@@ATL@@QEAA@XZ 0000000180005f30 f i PINPad.obj
 0001:00004f60       ??0?$CComEnumImpl@UIEnumConnectionPoints@@$1?_GUID_b196b285_bab4_101a_b69c_00aa00341d07@@3U__s_GUID@@BPEAUIConnectionPoint@@V?$_CopyInterface@UIConnectionPoint@@@ATL@@@ATL@@QEAA@XZ 0000000180005f60 f i PINPad.obj
 0001:00004fd0       ??0?$CComEnumImpl@UIEnumConnections@@$1?_GUID_b196b287_bab4_101a_b69c_00aa00341d07@@3U__s_GUID@@BUtagCONNECTDATA@@V?$_Copy@UtagCONNECTDATA@@@ATL@@@ATL@@QEAA@XZ 0000000180005fd0 f i PINPad.obj
 0001:00005040       ??0?$CComObject@V?$CComEnum@UIEnumConnectionPoints@@$1?_GUID_b196b285_bab4_101a_b69c_00aa00341d07@@3U__s_GUID@@BPEAUIConnectionPoint@@V?$_CopyInterface@UIConnectionPoint@@@ATL@@VCComSingleThreadModel@6@@ATL@@@ATL@@QEAA@PEAX@Z 0000000180006040 f i PINPad.obj
 0001:00005090       ??0?$CComObject@V?$CComEnum@UIEnumConnections@@$1?_GUID_b196b287_bab4_101a_b69c_00aa00341d07@@3U__s_GUID@@BUtagCONNECTDATA@@V?$_Copy@UtagCONNECTDATA@@@ATL@@VCComSingleThreadModel@6@@ATL@@@ATL@@QEAA@PEAX@Z 0000000180006090 f i PINPad.obj
 0001:000050e0       ??0?$CComObject@VCOPOSPINPad@@@ATL@@QEAA@PEAX@Z 00000001800060e0 f i PINPad.obj
 0001:00005270       ??0?$CComObjectCached@VCComClassFactory@ATL@@@ATL@@QEAA@PEAX@Z 0000000180006270 f i PINPad.obj
 0001:000052b0       ??0?$CComObjectRootEx@VCComMultiThreadModel@ATL@@@ATL@@QEAA@XZ 00000001800062b0 f i PINPad.obj
 0001:000052e0       ??0?$CComObjectRootEx@VCComSingleThreadModel@ATL@@@ATL@@QEAA@XZ 00000001800062e0 f i PINPad.obj
 0001:00005300       ??0?$CComPtr@UIAdviseSink@@@ATL@@QEAA@PEAUIAdviseSink@@@Z 0000000180006300 f i PINPad.obj
 0001:00005330       ??0?$CComPtr@UICatRegister@@@ATL@@QEAA@XZ 0000000180006330 f i PINPad.obj
 0001:00005350       ??0?$CComPtr@UIConnectionPoint@@@ATL@@QEAA@XZ 0000000180006350 f i PINPad.obj
 0001:00005370       ??0?$CComPtr@UIConnectionPointContainer@@@ATL@@QEAA@XZ 0000000180006370 f i PINPad.obj
 0001:00005390       ??0?$CComPtr@UIDataObject@@@ATL@@QEAA@XZ 0000000180006390 f i PINPad.obj
 0001:000053b0       ??0?$CComPtr@UIDispatch@@@ATL@@QEAA@XZ 00000001800063b0 f i PINPad.obj
 0001:000053d0       ??0?$CComPtr@UIOleClientSite@@@ATL@@QEAA@PEAUIOleClientSite@@@Z 00000001800063d0 f i PINPad.obj
 0001:00005400       ??0?$CComPtr@UIOleControlSite@@@ATL@@QEAA@XZ 0000000180006400 f i PINPad.obj
 0001:00005420       ??0?$CComPtr@UIOleInPlaceActiveObject@@@ATL@@QEAA@XZ 0000000180006420 f i PINPad.obj
 0001:00005440       ??0?$CComPtr@UIOleInPlaceFrame@@@ATL@@QEAA@XZ 0000000180006440 f i PINPad.obj
 0001:00005460       ??0?$CComPtr@UIOleInPlaceObject@@@ATL@@QEAA@XZ 0000000180006460 f i PINPad.obj
 0001:00005480       ??0?$CComPtr@UIOleInPlaceUIWindow@@@ATL@@QEAA@XZ 0000000180006480 f i PINPad.obj
 0001:000054a0       ??0?$CComPtr@UIOleObject@@@ATL@@QEAA@XZ 00000001800064a0 f i PINPad.obj
 0001:000054c0       ??0?$CComPtr@UIPersistStream@@@ATL@@QEAA@XZ 00000001800064c0 f i PINPad.obj
 0001:000054e0       ??0?$CComPtr@UIPersistStreamInit@@@ATL@@QEAA@XZ 00000001800064e0 f i PINPad.obj
 0001:00005500       ??0?$CComPtr@UIPointerInactive@@@ATL@@QEAA@XZ 0000000180006500 f i PINPad.obj
 0001:00005520       ??0?$CComPtr@UIProvideClassInfo2@@@ATL@@QEAA@XZ 0000000180006520 f i PINPad.obj
 0001:00005540       ??0?$CComPtr@UISpecifyPropertyPages@@@ATL@@QEAA@XZ 0000000180006540 f i PINPad.obj
 0001:00005560       ??0?$CComPtr@UIStream@@@ATL@@QEAA@XZ 0000000180006560 f i PINPad.obj
 0001:00005580       ??0?$CComPtr@UITypeInfo2@@@ATL@@QEAA@XZ 0000000180006580 f i PINPad.obj
 0001:000055a0       ??0?$CComPtr@UITypeInfo@@@ATL@@QEAA@AEBV01@@Z 00000001800065a0 f i PINPad.obj
 0001:000055d0       ??0?$CComPtr@UITypeInfo@@@ATL@@QEAA@XZ 00000001800065d0 f i PINPad.obj
 0001:000055f0       ??0?$CComPtr@UITypeLib@@@ATL@@QEAA@XZ 00000001800065f0 f i PINPad.obj
 0001:00005610       ??0?$CComPtr@UIUnknown@@@ATL@@QEAA@AEBV01@@Z 0000000180006610 f i PINPad.obj
 0001:00005640       ??0?$CComPtr@UIUnknown@@@ATL@@QEAA@PEAUIUnknown@@@Z 0000000180006640 f i PINPad.obj
 0001:00005670       ??0?$CComPtr@UIUnknown@@@ATL@@QEAA@XZ 0000000180006670 f i PINPad.obj
 0001:00005690       ??0?$CComPtr@UIViewObjectEx@@@ATL@@QEAA@XZ 0000000180006690 f i PINPad.obj
 0001:000056b0       ??0?$CComPtrBase@UIAdviseSink@@@ATL@@IEAA@PEAUIAdviseSink@@@Z 00000001800066b0 f i PINPad.obj
 0001:00005700       ??0?$CComPtrBase@UICatRegister@@@ATL@@IEAA@XZ 0000000180006700 f i PINPad.obj
 0001:00005720       ??0?$CComPtrBase@UIConnectionPoint@@@ATL@@IEAA@XZ 0000000180006720 f i PINPad.obj
 0001:00005740       ??0?$CComPtrBase@UIConnectionPointContainer@@@ATL@@IEAA@XZ 0000000180006740 f i PINPad.obj
 0001:00005760       ??0?$CComPtrBase@UIDataObject@@@ATL@@IEAA@XZ 0000000180006760 f i PINPad.obj
 0001:00005780       ??0?$CComPtrBase@UIDispatch@@@ATL@@IEAA@XZ 0000000180006780 f i PINPad.obj
 0001:000057a0       ??0?$CComPtrBase@UIOleClientSite@@@ATL@@IEAA@PEAUIOleClientSite@@@Z 00000001800067a0 f i PINPad.obj
 0001:000057f0       ??0?$CComPtrBase@UIOleControlSite@@@ATL@@IEAA@XZ 00000001800067f0 f i PINPad.obj
 0001:00005810       ??0?$CComPtrBase@UIOleInPlaceActiveObject@@@ATL@@IEAA@XZ 0000000180006810 f i PINPad.obj
 0001:00005830       ??0?$CComPtrBase@UIOleInPlaceFrame@@@ATL@@IEAA@XZ 0000000180006830 f i PINPad.obj
 0001:00005850       ??0?$CComPtrBase@UIOleInPlaceObject@@@ATL@@IEAA@XZ 0000000180006850 f i PINPad.obj
 0001:00005870       ??0?$CComPtrBase@UIOleInPlaceUIWindow@@@ATL@@IEAA@XZ 0000000180006870 f i PINPad.obj
 0001:00005890       ??0?$CComPtrBase@UIOleObject@@@ATL@@IEAA@XZ 0000000180006890 f i PINPad.obj
 0001:000058b0       ??0?$CComPtrBase@UIPersistStream@@@ATL@@IEAA@XZ 00000001800068b0 f i PINPad.obj
 0001:000058d0       ??0?$CComPtrBase@UIPersistStreamInit@@@ATL@@IEAA@XZ 00000001800068d0 f i PINPad.obj
 0001:000058f0       ??0?$CComPtrBase@UIPointerInactive@@@ATL@@IEAA@XZ 00000001800068f0 f i PINPad.obj
 0001:00005910       ??0?$CComPtrBase@UIProvideClassInfo2@@@ATL@@IEAA@XZ 0000000180006910 f i PINPad.obj
 0001:00005930       ??0?$CComPtrBase@UISpecifyPropertyPages@@@ATL@@IEAA@XZ 0000000180006930 f i PINPad.obj
 0001:00005950       ??0?$CComPtrBase@UIStream@@@ATL@@IEAA@XZ 0000000180006950 f i PINPad.obj
 0001:00005970       ??0?$CComPtrBase@UITypeInfo2@@@ATL@@IEAA@XZ 0000000180006970 f i PINPad.obj
 0001:00005990       ??0?$CComPtrBase@UITypeInfo@@@ATL@@IEAA@PEAUITypeInfo@@@Z 0000000180006990 f i PINPad.obj
 0001:000059e0       ??0?$CComPtrBase@UITypeInfo@@@ATL@@IEAA@XZ 00000001800069e0 f i PINPad.obj
 0001:00005a00       ??0?$CComPtrBase@UITypeLib@@@ATL@@IEAA@XZ 0000000180006a00 f i PINPad.obj
 0001:00005a20       ??0?$CComPtrBase@UIUnknown@@@ATL@@IEAA@PEAUIUnknown@@@Z 0000000180006a20 f i PINPad.obj
 0001:00005a70       ??0?$CComPtrBase@UIUnknown@@@ATL@@IEAA@XZ 0000000180006a70 f i PINPad.obj
 0001:00005a90       ??0?$CComPtrBase@UIViewObjectEx@@@ATL@@IEAA@XZ 0000000180006a90 f i PINPad.obj
 0001:00005ab0       ??0?$CComQIPtr@UIOleControlSite@@$1?_GUID_b196b289_bab4_101a_b69c_00aa00341d07@@3U__s_GUID@@B@ATL@@QEAA@PEAUIUnknown@@@Z 0000000180006ab0 f i PINPad.obj
 0001:00005b10       ??0?$CComQIPtr@UIOleObject@@$1?_GUID_00000112_0000_0000_c000_000000000046@@3U__s_GUID@@B@ATL@@QEAA@XZ 0000000180006b10 f i PINPad.obj
 0001:00005b30       ??0?$CComQIPtr@UISpecifyPropertyPages@@$1?_GUID_b196b28b_bab4_101a_b69c_00aa00341d07@@3U__s_GUID@@B@ATL@@QEAA@XZ 0000000180006b30 f i PINPad.obj
 0001:00005b50       ??0?$CSimpleMap@PEA_WPEA_WVCExpansionVectorEqualHelper@ATL@@@ATL@@QEAA@XZ 0000000180006b50 f i PINPad.obj
 0001:00005b90       ??0?$CTempBuffer@E$0BAA@VCCRTAllocator@ATL@@@ATL@@QEAA@XZ 0000000180006b90 f i PINPad.obj
 0001:00005bb0       ??0?$CTempBuffer@_W$0BAA@VCCRTAllocator@ATL@@@ATL@@QEAA@XZ 0000000180006bb0 f i PINPad.obj
 0001:00005bd0       ??0?$CTempBuffer@_W$0EAA@VCCRTAllocator@ATL@@@ATL@@QEAA@XZ 0000000180006bd0 f i PINPad.obj
 0001:00005bf0       ??0?$Wrapper@PEA_W@?$CSimpleMap@PEA_WPEA_WVCExpansionVectorEqualHelper@ATL@@@ATL@@QEAA@AEBQEA_W@Z 0000000180006bf0 f i PINPad.obj
 0001:00005c20       ??0CAtlModule@ATL@@QEAA@XZ 0000000180006c20 f i PINPad.obj
 0001:00005d80       ??0CComAutoDeleteCriticalSection@ATL@@QEAA@XZ 0000000180006d80 f i PINPad.obj
 0001:00005da0       ??0CComBSTR@ATL@@QEAA@XZ   0000000180006da0 f i PINPad.obj
 0001:00005dc0       ??0CComClassFactory@ATL@@QEAA@XZ 0000000180006dc0 f i PINPad.obj
 0001:00005e00       ??0CComModule@ATL@@QEAA@XZ 0000000180006e00 f i PINPad.obj
 0001:00005e80       ??0CComObjectRootBase@ATL@@QEAA@XZ 0000000180006e80 f i PINPad.obj
 0001:00005ea0       ??0CComSafeDeleteCriticalSection@ATL@@QEAA@XZ 0000000180006ea0 f i PINPad.obj
 0001:00005ed0       ??0CComVariant@ATL@@QEAA@XZ 0000000180006ed0 f i PINPad.obj
 0001:00005f10       ??0CExpansionVector@ATL@@QEAA@XZ 0000000180006f10 f i PINPad.obj
 0001:00005f30       ??0CParseBuffer@CRegParser@ATL@@QEAA@H@Z 0000000180006f30 f i PINPad.obj
 0001:00005fb0       ??0CRegKey@ATL@@QEAA@PEAUHKEY__@@@Z 0000000180006fb0 f i PINPad.obj
 0001:00005ff0       ??0CRegKey@ATL@@QEAA@PEAVCAtlTransactionManager@1@@Z 0000000180006ff0 f i PINPad.obj
 0001:00006030       ??0CRegObject@ATL@@QEAA@XZ 0000000180007030 f i PINPad.obj
 0001:00006070       ??0CRegParser@ATL@@QEAA@PEAVCRegObject@1@@Z 0000000180007070 f i PINPad.obj
 0001:000060a0       ??0IClassFactory@@QEAA@XZ  00000001800070a0 f i PINPad.obj
 0001:000060c0       ??0IEnumConnectionPoints@@QEAA@XZ 00000001800070c0 f i PINPad.obj
 0001:000060e0       ??0IEnumConnections@@QEAA@XZ 00000001800070e0 f i PINPad.obj
 0001:00006100       ??0IRegistrarBase@@QEAA@XZ 0000000180007100 f i PINPad.obj
 0001:00006120       ??0IUnknown@@QEAA@XZ       0000000180007120 f i PINPad.obj
 0001:00006130       ??0ModuleLockHelper@ATL@@QEAA@XZ 0000000180007130 f i PINPad.obj
 0001:00006160       ??0OposVariant@@QEAA@XZ    0000000180007160 f i PINPad.obj
 0001:00006180       ??0Wrapper@?$CSimpleArray@GV?$CSimpleArrayEqualHelper@G@ATL@@@ATL@@QEAA@AEBG@Z 0000000180007180 f i PINPad.obj
 0001:000061b0       ??0_ATL_MODULE70@ATL@@QEAA@XZ 00000001800071b0 f i PINPad.obj
 0001:000061e0       ??0_ATL_MSG@ATL@@QEAA@PEAUHWND__@@I_K_JH@Z 00000001800071e0 f i PINPad.obj
 0001:00006270       ??0_U_MENUorID@ATL@@QEAA@I@Z 0000000180007270 f i PINPad.obj
 0001:00006290       ??0_U_RECT@ATL@@QEAA@AEAUtagRECT@@@Z 0000000180007290 f i PINPad.obj
 0001:000062b0       ??0stringdispid@CComTypeInfoHolder@ATL@@QEAA@XZ 00000001800072b0 f i PINPad.obj
 0001:000062f0       ??1?$CAtlModuleT@VCComModule@ATL@@@ATL@@UEAA@XZ 00000001800072f0 f i PINPad.obj
 0001:00006310       ??1?$CAtlSafeAllocBufferManager@VCCRTAllocator@ATL@@@_ATL_SAFE_ALLOCA_IMPL@ATL@@QEAA@XZ 0000000180007310 f i PINPad.obj
 0001:00006360       ??1?$CAutoVectorPtr@_W@ATL@@QEAA@XZ 0000000180007360 f i PINPad.obj
 0001:00006380       ??1?$CComAggObject@VCOPOSPINPad@@@ATL@@UEAA@XZ 0000000180007380 f i PINPad.obj
 0001:000063f0       ??1?$CComContainedObject@VCOPOSPINPad@@@ATL@@UEAA@XZ 00000001800073f0 f i PINPad.obj
 0001:00006410       ??1?$CComCritSecLock@VCComCriticalSection@ATL@@@ATL@@QEAA@XZ 0000000180007410 f i PINPad.obj
 0001:00006440       ??1?$CComEnum@UIEnumConnectionPoints@@$1?_GUID_b196b285_bab4_101a_b69c_00aa00341d07@@3U__s_GUID@@BPEAUIConnectionPoint@@V?$_CopyInterface@UIConnectionPoint@@@ATL@@VCComSingleThreadModel@6@@ATL@@UEAA@XZ 0000000180007440 f i PINPad.obj
 0001:00006470       ??1?$CComEnum@UIEnumConnections@@$1?_GUID_b196b287_bab4_101a_b69c_00aa00341d07@@3U__s_GUID@@BUtagCONNECTDATA@@V?$_Copy@UtagCONNECTDATA@@@ATL@@VCComSingleThreadModel@6@@ATL@@UEAA@XZ 0000000180007470 f i PINPad.obj
 0001:000064a0       ??1?$CComEnumImpl@UIEnumConnectionPoints@@$1?_GUID_b196b285_bab4_101a_b69c_00aa00341d07@@3U__s_GUID@@BPEAUIConnectionPoint@@V?$_CopyInterface@UIConnectionPoint@@@ATL@@@ATL@@UEAA@XZ 00000001800074a0 f i PINPad.obj
 0001:00006530       ??1?$CComEnumImpl@UIEnumConnections@@$1?_GUID_b196b287_bab4_101a_b69c_00aa00341d07@@3U__s_GUID@@BUtagCONNECTDATA@@V?$_Copy@UtagCONNECTDATA@@@ATL@@@ATL@@UEAA@XZ 0000000180007530 f i PINPad.obj
 0001:000065c0       ??1?$CComObject@V?$CComEnum@UIEnumConnectionPoints@@$1?_GUID_b196b285_bab4_101a_b69c_00aa00341d07@@3U__s_GUID@@BPEAUIConnectionPoint@@V?$_CopyInterface@UIConnectionPoint@@@ATL@@VCComSingleThreadModel@6@@ATL@@@ATL@@UEAA@XZ 00000001800075c0 f i PINPad.obj
 0001:00006620       ??1?$CComObject@V?$CComEnum@UIEnumConnections@@$1?_GUID_b196b287_bab4_101a_b69c_00aa00341d07@@3U__s_GUID@@BUtagCONNECTDATA@@V?$_Copy@UtagCONNECTDATA@@@ATL@@VCComSingleThreadModel@6@@ATL@@@ATL@@UEAA@XZ 0000000180007620 f i PINPad.obj
 0001:00006680       ??1?$CComObject@VCOPOSPINPad@@@ATL@@UEAA@XZ 0000000180007680 f i PINPad.obj
 0001:00006820       ??1?$CComObjectCached@VCComClassFactory@ATL@@@ATL@@UEAA@XZ 0000000180007820 f i PINPad.obj
 0001:00006870       ??1?$CComObjectRootEx@VCComMultiThreadModel@ATL@@@ATL@@QEAA@XZ 0000000180007870 f i PINPad.obj
 0001:000068a0       ??1?$CComObjectRootEx@VCComSingleThreadModel@ATL@@@ATL@@QEAA@XZ 00000001800078a0 f i PINPad.obj
 0001:000068c0       ??1?$CComPtr@UIAdviseSink@@@ATL@@QEAA@XZ 00000001800078c0 f i PINPad.obj
 0001:000068e0       ??1?$CComPtr@UICatRegister@@@ATL@@QEAA@XZ 00000001800078e0 f i PINPad.obj
 0001:00006900       ??1?$CComPtr@UIConnectionPoint@@@ATL@@QEAA@XZ 0000000180007900 f i PINPad.obj
 0001:00006920       ??1?$CComPtr@UIConnectionPointContainer@@@ATL@@QEAA@XZ 0000000180007920 f i PINPad.obj
 0001:00006940       ??1?$CComPtr@UIDataObject@@@ATL@@QEAA@XZ 0000000180007940 f i PINPad.obj
 0001:00006960       ??1?$CComPtr@UIDispatch@@@ATL@@QEAA@XZ 0000000180007960 f i PINPad.obj
 0001:00006980       ??1?$CComPtr@UIOleClientSite@@@ATL@@QEAA@XZ 0000000180007980 f i PINPad.obj
 0001:000069a0       ??1?$CComPtr@UIOleControlSite@@@ATL@@QEAA@XZ 00000001800079a0 f i PINPad.obj
 0001:000069c0       ??1?$CComPtr@UIOleInPlaceActiveObject@@@ATL@@QEAA@XZ 00000001800079c0 f i PINPad.obj
 0001:000069e0       ??1?$CComPtr@UIOleInPlaceFrame@@@ATL@@QEAA@XZ 00000001800079e0 f i PINPad.obj
 0001:00006a00       ??1?$CComPtr@UIOleInPlaceObject@@@ATL@@QEAA@XZ 0000000180007a00 f i PINPad.obj
 0001:00006a20       ??1?$CComPtr@UIOleInPlaceUIWindow@@@ATL@@QEAA@XZ 0000000180007a20 f i PINPad.obj
 0001:00006a40       ??1?$CComPtr@UIOleObject@@@ATL@@QEAA@XZ 0000000180007a40 f i PINPad.obj
 0001:00006a60       ??1?$CComPtr@UIPersistStream@@@ATL@@QEAA@XZ 0000000180007a60 f i PINPad.obj
 0001:00006a80       ??1?$CComPtr@UIPersistStreamInit@@@ATL@@QEAA@XZ 0000000180007a80 f i PINPad.obj
 0001:00006aa0       ??1?$CComPtr@UIPointerInactive@@@ATL@@QEAA@XZ 0000000180007aa0 f i PINPad.obj
 0001:00006ac0       ??1?$CComPtr@UIProvideClassInfo2@@@ATL@@QEAA@XZ 0000000180007ac0 f i PINPad.obj
 0001:00006ae0       ??1?$CComPtr@UISpecifyPropertyPages@@@ATL@@QEAA@XZ 0000000180007ae0 f i PINPad.obj
 0001:00006b00       ??1?$CComPtr@UIStream@@@ATL@@QEAA@XZ 0000000180007b00 f i PINPad.obj
 0001:00006b20       ??1?$CComPtr@UITypeInfo2@@@ATL@@QEAA@XZ 0000000180007b20 f i PINPad.obj
 0001:00006b40       ??1?$CComPtr@UITypeInfo@@@ATL@@QEAA@XZ 0000000180007b40 f i PINPad.obj
 0001:00006b60       ??1?$CComPtr@UITypeLib@@@ATL@@QEAA@XZ 0000000180007b60 f i PINPad.obj
 0001:00006b80       ??1?$CComPtr@UIUnknown@@@ATL@@QEAA@XZ 0000000180007b80 f i PINPad.obj
 0001:00006ba0       ??1?$CComPtr@UIViewObjectEx@@@ATL@@QEAA@XZ 0000000180007ba0 f i PINPad.obj
 0001:00006bc0       ??1?$CComPtrBase@UIAdviseSink@@@ATL@@QEAA@XZ 0000000180007bc0 f i PINPad.obj
 0001:00006c00       ??1?$CComPtrBase@UICatRegister@@@ATL@@QEAA@XZ 0000000180007c00 f i PINPad.obj
 0001:00006c40       ??1?$CComPtrBase@UIConnectionPoint@@@ATL@@QEAA@XZ 0000000180007c40 f i PINPad.obj
 0001:00006c80       ??1?$CComPtrBase@UIConnectionPointContainer@@@ATL@@QEAA@XZ 0000000180007c80 f i PINPad.obj
 0001:00006cc0       ??1?$CComPtrBase@UIDataObject@@@ATL@@QEAA@XZ 0000000180007cc0 f i PINPad.obj
 0001:00006d00       ??1?$CComPtrBase@UIDispatch@@@ATL@@QEAA@XZ 0000000180007d00 f i PINPad.obj
 0001:00006d40       ??1?$CComPtrBase@UIOleClientSite@@@ATL@@QEAA@XZ 0000000180007d40 f i PINPad.obj
 0001:00006d80       ??1?$CComPtrBase@UIOleControlSite@@@ATL@@QEAA@XZ 0000000180007d80 f i PINPad.obj
 0001:00006dc0       ??1?$CComPtrBase@UIOleInPlaceActiveObject@@@ATL@@QEAA@XZ 0000000180007dc0 f i PINPad.obj
 0001:00006e00       ??1?$CComPtrBase@UIOleInPlaceFrame@@@ATL@@QEAA@XZ 0000000180007e00 f i PINPad.obj
 0001:00006e40       ??1?$CComPtrBase@UIOleInPlaceObject@@@ATL@@QEAA@XZ 0000000180007e40 f i PINPad.obj
 0001:00006e80       ??1?$CComPtrBase@UIOleInPlaceUIWindow@@@ATL@@QEAA@XZ 0000000180007e80 f i PINPad.obj
 0001:00006ec0       ??1?$CComPtrBase@UIOleObject@@@ATL@@QEAA@XZ 0000000180007ec0 f i PINPad.obj
 0001:00006f00       ??1?$CComPtrBase@UIPersistStream@@@ATL@@QEAA@XZ 0000000180007f00 f i PINPad.obj
 0001:00006f40       ??1?$CComPtrBase@UIPersistStreamInit@@@ATL@@QEAA@XZ 0000000180007f40 f i PINPad.obj
 0001:00006f80       ??1?$CComPtrBase@UIPointerInactive@@@ATL@@QEAA@XZ 0000000180007f80 f i PINPad.obj
 0001:00006fc0       ??1?$CComPtrBase@UIProvideClassInfo2@@@ATL@@QEAA@XZ 0000000180007fc0 f i PINPad.obj
 0001:00007000       ??1?$CComPtrBase@UISpecifyPropertyPages@@@ATL@@QEAA@XZ 0000000180008000 f i PINPad.obj
 0001:00007040       ??1?$CComPtrBase@UIStream@@@ATL@@QEAA@XZ 0000000180008040 f i PINPad.obj
 0001:00007080       ??1?$CComPtrBase@UITypeInfo2@@@ATL@@QEAA@XZ 0000000180008080 f i PINPad.obj
 0001:000070c0       ??1?$CComPtrBase@UITypeInfo@@@ATL@@QEAA@XZ 00000001800080c0 f i PINPad.obj
 0001:00007100       ??1?$CComPtrBase@UITypeLib@@@ATL@@QEAA@XZ 0000000180008100 f i PINPad.obj
 0001:00007140       ??1?$CComPtrBase@UIUnknown@@@ATL@@QEAA@XZ 0000000180008140 f i PINPad.obj
 0001:00007180       ??1?$CComPtrBase@UIViewObjectEx@@@ATL@@QEAA@XZ 0000000180008180 f i PINPad.obj
 0001:000071c0       ??1?$CComQIPtr@UIOleControlSite@@$1?_GUID_b196b289_bab4_101a_b69c_00aa00341d07@@3U__s_GUID@@B@ATL@@QEAA@XZ 00000001800081c0 f i PINPad.obj
 0001:000071e0       ??1?$CComQIPtr@UIOleObject@@$1?_GUID_00000112_0000_0000_c000_000000000046@@3U__s_GUID@@B@ATL@@QEAA@XZ 00000001800081e0 f i PINPad.obj
 0001:00007200       ??1?$CComQIPtr@UISpecifyPropertyPages@@$1?_GUID_b196b28b_bab4_101a_b69c_00aa00341d07@@3U__s_GUID@@B@ATL@@QEAA@XZ 0000000180008200 f i PINPad.obj
 0001:00007220       ??1?$CSimpleMap@PEA_WPEA_WVCExpansionVectorEqualHelper@ATL@@@ATL@@QEAA@XZ 0000000180008220 f i PINPad.obj
 0001:00007240       ??1?$CTempBuffer@E$0BAA@VCCRTAllocator@ATL@@@ATL@@QEAA@XZ 0000000180008240 f i PINPad.obj
 0001:00007270       ??1?$CTempBuffer@_W$0BAA@VCCRTAllocator@ATL@@@ATL@@QEAA@XZ 0000000180008270 f i PINPad.obj
 0001:000072a0       ??1?$CTempBuffer@_W$0EAA@VCCRTAllocator@ATL@@@ATL@@QEAA@XZ 00000001800082a0 f i PINPad.obj
 0001:000072d0       ??1CAtlModule@ATL@@UEAA@XZ 00000001800082d0 f i PINPad.obj
 0001:00007300       ??1CComAutoDeleteCriticalSection@ATL@@QEAA@XZ 0000000180008300 f i PINPad.obj
 0001:00007320       ??1CComClassFactory@ATL@@UEAA@XZ 0000000180008320 f i PINPad.obj
 0001:00007350       ??1CComModule@ATL@@UEAA@XZ 0000000180008350 f i PINPad.obj
 0001:00007380       ??1CComObjectRootBase@ATL@@QEAA@XZ 0000000180008380 f i PINPad.obj
 0001:00007390       ??1CComSafeDeleteCriticalSection@ATL@@QEAA@XZ 0000000180008390 f i PINPad.obj
 0001:000073d0       ??1CComVariant@ATL@@QEAA@XZ 00000001800083d0 f i PINPad.obj
 0001:00007430       ??1CExpansionVector@ATL@@QEAA@XZ 0000000180008430 f i PINPad.obj
 0001:00007460       ??1CParseBuffer@CRegParser@ATL@@QEAA@XZ 0000000180008460 f i PINPad.obj
 0001:00007480       ??1CRegKey@ATL@@QEAA@XZ    0000000180008480 f i PINPad.obj
 0001:000074a0       ??1CRegObject@ATL@@UEAA@XZ 00000001800084a0 f i PINPad.obj
 0001:000074e0       ??1ModuleLockHelper@ATL@@QEAA@XZ 00000001800084e0 f i PINPad.obj
 0001:00007510       ??1OposVariant@@QEAA@XZ    0000000180008510 f i PINPad.obj
 0001:00007540       ??1_ATL_MODULE70@ATL@@QEAA@XZ 0000000180008540 f i PINPad.obj
 0001:00007570       ??4?$CComPtr@UIAdviseSink@@@ATL@@QEAAPEAUIAdviseSink@@PEAU2@@Z 0000000180008570 f i PINPad.obj
 0001:000075d0       ??4?$CComPtr@UIOleClientSite@@@ATL@@QEAAPEAUIOleClientSite@@PEAU2@@Z 00000001800085d0 f i PINPad.obj
 0001:00007630       ??4?$CComPtr@UIUnknown@@@ATL@@QEAAPEAUIUnknown@@PEAU2@@Z 0000000180008630 f i PINPad.obj
 0001:00007690       ??4?$CComQIPtr@UIOleObject@@$1?_GUID_00000112_0000_0000_c000_000000000046@@3U__s_GUID@@B@ATL@@QEAAPEAUIOleObject@@PEAUIUnknown@@@Z 0000000180008690 f i PINPad.obj
 0001:000076e0       ??4?$CComQIPtr@UISpecifyPropertyPages@@$1?_GUID_b196b28b_bab4_101a_b69c_00aa00341d07@@3U__s_GUID@@B@ATL@@QEAAPEAUISpecifyPropertyPages@@PEAUIUnknown@@@Z 00000001800086e0 f i PINPad.obj
 0001:00007730       ??7?$CComPtrBase@UIOleClientSite@@@ATL@@QEBA_NXZ 0000000180008730 f i PINPad.obj
 0001:00007760       ??7?$CComPtrBase@UIOleInPlaceSiteWindowless@@@ATL@@QEBA_NXZ 0000000180008760 f i PINPad.obj
 0001:00007790       ??7CComBSTR@ATL@@QEBA_NXZ  0000000180008790 f i PINPad.obj
 0001:000077c0       ??8?$CComPtrBase@UIConnectionPointContainer@@@ATL@@QEBA_NPEAUIConnectionPointContainer@@@Z 00000001800087c0 f i PINPad.obj
 0001:00007800       ??8?$CComPtrBase@UIDataAdviseHolder@@@ATL@@QEBA_NPEAUIDataAdviseHolder@@@Z 0000000180008800 f i PINPad.obj
 0001:00007840       ??8?$CComPtrBase@UIOleAdviseHolder@@@ATL@@QEBA_NPEAUIOleAdviseHolder@@@Z 0000000180008840 f i PINPad.obj
 0001:00007880       ??8?$CComPtrBase@UIOleClientSite@@@ATL@@QEBA_NPEAUIOleClientSite@@@Z 0000000180008880 f i PINPad.obj
 0001:000078c0       ??8?$CComPtrBase@UIOleControlSite@@@ATL@@QEBA_NPEAUIOleControlSite@@@Z 00000001800088c0 f i PINPad.obj
 0001:00007900       ??8?$CComPtrBase@UIOleInPlaceObject@@@ATL@@QEBA_NPEAUIOleInPlaceObject@@@Z 0000000180008900 f i PINPad.obj
 0001:00007940       ??8?$CComPtrBase@UIOleInPlaceSiteWindowless@@@ATL@@QEBA_NPEAUIOleInPlaceSiteWindowless@@@Z 0000000180008940 f i PINPad.obj
 0001:00007980       ??8?$CComPtrBase@UIOleObject@@@ATL@@QEBA_NPEAUIOleObject@@@Z 0000000180008980 f i PINPad.obj
 0001:000079c0       ??8?$CComPtrBase@UIPersistStream@@@ATL@@QEBA_NPEAUIPersistStream@@@Z 00000001800089c0 f i PINPad.obj
 0001:00007a00       ??8?$CComPtrBase@UIPersistStreamInit@@@ATL@@QEBA_NPEAUIPersistStreamInit@@@Z 0000000180008a00 f i PINPad.obj
 0001:00007a40       ??8?$CComPtrBase@UIPointerInactive@@@ATL@@QEBA_NPEAUIPointerInactive@@@Z 0000000180008a40 f i PINPad.obj
 0001:00007a80       ??8?$CComPtrBase@UIUnknown@@@ATL@@QEBA_NPEAUIUnknown@@@Z 0000000180008a80 f i PINPad.obj
 0001:00007ac0       ??8?$CComPtrBase@UIViewObjectEx@@@ATL@@QEBA_NPEAUIViewObjectEx@@@Z 0000000180008ac0 f i PINPad.obj
 0001:00007b00       ??8CComBSTR@ATL@@QEBA_NH@Z 0000000180008b00 f i PINPad.obj
 0001:00007b60       ??9?$CComPtrBase@UIConnectionPointContainer@@@ATL@@QEBA_NPEAUIConnectionPointContainer@@@Z 0000000180008b60 f i PINPad.obj
 0001:00007bb0       ??9?$CComPtrBase@UIDataAdviseHolder@@@ATL@@QEBA_NPEAUIDataAdviseHolder@@@Z 0000000180008bb0 f i PINPad.obj
 0001:00007c00       ??9?$CComPtrBase@UIOleAdviseHolder@@@ATL@@QEBA_NPEAUIOleAdviseHolder@@@Z 0000000180008c00 f i PINPad.obj
 0001:00007c50       ??9?$CComPtrBase@UIOleClientSite@@@ATL@@QEBA_NPEAUIOleClientSite@@@Z 0000000180008c50 f i PINPad.obj
 0001:00007ca0       ??9?$CComPtrBase@UIOleControlSite@@@ATL@@QEBA_NPEAUIOleControlSite@@@Z 0000000180008ca0 f i PINPad.obj
 0001:00007cf0       ??9?$CComPtrBase@UIOleInPlaceObject@@@ATL@@QEBA_NPEAUIOleInPlaceObject@@@Z 0000000180008cf0 f i PINPad.obj
 0001:00007d40       ??9?$CComPtrBase@UIOleInPlaceSiteWindowless@@@ATL@@QEBA_NPEAUIOleInPlaceSiteWindowless@@@Z 0000000180008d40 f i PINPad.obj
 0001:00007d90       ??9?$CComPtrBase@UIOleObject@@@ATL@@QEBA_NPEAUIOleObject@@@Z 0000000180008d90 f i PINPad.obj
 0001:00007de0       ??9?$CComPtrBase@UIPersistStream@@@ATL@@QEBA_NPEAUIPersistStream@@@Z 0000000180008de0 f i PINPad.obj
 0001:00007e30       ??9?$CComPtrBase@UIPersistStreamInit@@@ATL@@QEBA_NPEAUIPersistStreamInit@@@Z 0000000180008e30 f i PINPad.obj
 0001:00007e80       ??9?$CComPtrBase@UIPointerInactive@@@ATL@@QEBA_NPEAUIPointerInactive@@@Z 0000000180008e80 f i PINPad.obj
 0001:00007ed0       ??9?$CComPtrBase@UIUnknown@@@ATL@@QEBA_NPEAUIUnknown@@@Z 0000000180008ed0 f i PINPad.obj
 0001:00007f20       ??9?$CComPtrBase@UIViewObjectEx@@@ATL@@QEBA_NPEAUIViewObjectEx@@@Z 0000000180008f20 f i PINPad.obj
 0001:00007f70       ??9CComBSTR@ATL@@QEBA_NH@Z 0000000180008f70 f i PINPad.obj
 0001:00007fb0       ??B?$CComPtrBase@UIAdviseSink@@@ATL@@QEBAPEAUIAdviseSink@@XZ 0000000180008fb0 f i PINPad.obj
 0001:00007fc0       ??B?$CComPtrBase@UIDataAdviseHolder@@@ATL@@QEBAPEAUIDataAdviseHolder@@XZ 0000000180008fc0 f i PINPad.obj
 0001:00007fd0       ??B?$CComPtrBase@UIDataObject@@@ATL@@QEBAPEAUIDataObject@@XZ 0000000180008fd0 f i PINPad.obj
 0001:00007fe0       ??B?$CComPtrBase@UIOleAdviseHolder@@@ATL@@QEBAPEAUIOleAdviseHolder@@XZ 0000000180008fe0 f i PINPad.obj
 0001:00007ff0       ??B?$CComPtrBase@UIOleClientSite@@@ATL@@QEBAPEAUIOleClientSite@@XZ 0000000180008ff0 f i PINPad.obj
 0001:00008000       ??B?$CComPtrBase@UIOleControlSite@@@ATL@@QEBAPEAUIOleControlSite@@XZ 0000000180009000 f i PINPad.obj
 0001:00008010       ??B?$CComPtrBase@UIOleInPlaceActiveObject@@@ATL@@QEBAPEAUIOleInPlaceActiveObject@@XZ 0000000180009010 f i PINPad.obj
 0001:00008020       ??B?$CComPtrBase@UIOleInPlaceFrame@@@ATL@@QEBAPEAUIOleInPlaceFrame@@XZ 0000000180009020 f i PINPad.obj
 0001:00008030       ??B?$CComPtrBase@UIOleInPlaceSiteWindowless@@@ATL@@QEBAPEAUIOleInPlaceSiteWindowless@@XZ 0000000180009030 f i PINPad.obj
 0001:00008040       ??B?$CComPtrBase@UIOleInPlaceUIWindow@@@ATL@@QEBAPEAUIOleInPlaceUIWindow@@XZ 0000000180009040 f i PINPad.obj
 0001:00008050       ??B?$CComPtrBase@UIOleObject@@@ATL@@QEBAPEAUIOleObject@@XZ 0000000180009050 f i PINPad.obj
 0001:00008060       ??B?$CComPtrBase@UIPersistStream@@@ATL@@QEBAPEAUIPersistStream@@XZ 0000000180009060 f i PINPad.obj
 0001:00008070       ??B?$CComPtrBase@UIProvideClassInfo2@@@ATL@@QEBAPEAUIProvideClassInfo2@@XZ 0000000180009070 f i PINPad.obj
 0001:00008080       ??B?$CComPtrBase@UISpecifyPropertyPages@@@ATL@@QEBAPEAUISpecifyPropertyPages@@XZ 0000000180009080 f i PINPad.obj
 0001:00008090       ??B?$CComPtrBase@UIStream@@@ATL@@QEBAPEAUIStream@@XZ 0000000180009090 f i PINPad.obj
 0001:000080a0       ??B?$CComPtrBase@UITypeInfo2@@@ATL@@QEBAPEAUITypeInfo2@@XZ 00000001800090a0 f i PINPad.obj
 0001:000080b0       ??B?$CComPtrBase@UITypeInfo@@@ATL@@QEBAPEAUITypeInfo@@XZ 00000001800090b0 f i PINPad.obj
 0001:000080c0       ??B?$CComPtrBase@UITypeLib@@@ATL@@QEBAPEAUITypeLib@@XZ 00000001800090c0 f i PINPad.obj
 0001:000080d0       ??B?$CComPtrBase@UIUnknown@@@ATL@@QEBAPEAUIUnknown@@XZ 00000001800090d0 f i PINPad.obj
 0001:000080e0       ??B?$CTempBuffer@E$0BAA@VCCRTAllocator@ATL@@@ATL@@QEBAPEAEXZ 00000001800090e0 f i PINPad.obj
 0001:000080f0       ??B?$CTempBuffer@_W$0BAA@VCCRTAllocator@ATL@@@ATL@@QEBAPEA_WXZ 00000001800090f0 f i PINPad.obj
 0001:00008100       ??B?$CTempBuffer@_W$0EAA@VCCRTAllocator@ATL@@@ATL@@QEBAPEA_WXZ 0000000180009100 f i PINPad.obj
 0001:00008110       ??B?$CTraceCategoryEx@$00$0A@@ATL@@QEAAIXZ 0000000180009110 f i PINPad.obj
 0001:00008120       ??B?$CTraceCategoryEx@$07$0A@@ATL@@QEAAIXZ 0000000180009120 f i PINPad.obj
 0001:00008130       ??B?$CTraceCategoryEx@$0CAAA@$0A@@ATL@@QEAAIXZ 0000000180009130 f i PINPad.obj
 0001:00008140       ??B?$CTraceCategoryEx@$0EA@$0A@@ATL@@QEAAIXZ 0000000180009140 f i PINPad.obj
 0001:00008150       ??B?$CTraceCategoryEx@$0IAA@$0A@@ATL@@QEAAIXZ 0000000180009150 f i PINPad.obj
 0001:00008160       ??BCComBSTR@ATL@@QEBAPEA_WXZ 0000000180009160 f i PINPad.obj
 0001:00008170       ??BCRegKey@ATL@@QEBAPEAUHKEY__@@XZ 0000000180009170 f i PINPad.obj
 0001:00008180       ??C?$CComPtrBase@UIAdviseSink@@@ATL@@QEBAPEAV?$_NoAddRefReleaseOnCComPtr@UIAdviseSink@@@1@XZ 0000000180009180 f i PINPad.obj
 0001:000081e0       ??C?$CComPtrBase@UICatRegister@@@ATL@@QEBAPEAV?$_NoAddRefReleaseOnCComPtr@UICatRegister@@@1@XZ 00000001800091e0 f i PINPad.obj
 0001:00008240       ??C?$CComPtrBase@UIConnectionPoint@@@ATL@@QEBAPEAV?$_NoAddRefReleaseOnCComPtr@UIConnectionPoint@@@1@XZ 0000000180009240 f i PINPad.obj
 0001:000082a0       ??C?$CComPtrBase@UIConnectionPointContainer@@@ATL@@QEBAPEAV?$_NoAddRefReleaseOnCComPtr@UIConnectionPointContainer@@@1@XZ 00000001800092a0 f i PINPad.obj
 0001:00008300       ??C?$CComPtrBase@UIDataAdviseHolder@@@ATL@@QEBAPEAV?$_NoAddRefReleaseOnCComPtr@UIDataAdviseHolder@@@1@XZ 0000000180009300 f i PINPad.obj
 0001:00008360       ??C?$CComPtrBase@UIOleAdviseHolder@@@ATL@@QEBAPEAV?$_NoAddRefReleaseOnCComPtr@UIOleAdviseHolder@@@1@XZ 0000000180009360 f i PINPad.obj
 0001:000083c0       ??C?$CComPtrBase@UIOleClientSite@@@ATL@@QEBAPEAV?$_NoAddRefReleaseOnCComPtr@UIOleClientSite@@@1@XZ 00000001800093c0 f i PINPad.obj
 0001:00008420       ??C?$CComPtrBase@UIOleControlSite@@@ATL@@QEBAPEAV?$_NoAddRefReleaseOnCComPtr@UIOleControlSite@@@1@XZ 0000000180009420 f i PINPad.obj
 0001:00008480       ??C?$CComPtrBase@UIOleInPlaceFrame@@@ATL@@QEBAPEAV?$_NoAddRefReleaseOnCComPtr@UIOleInPlaceFrame@@@1@XZ 0000000180009480 f i PINPad.obj
 0001:000084e0       ??C?$CComPtrBase@UIOleInPlaceObject@@@ATL@@QEBAPEAV?$_NoAddRefReleaseOnCComPtr@UIOleInPlaceObject@@@1@XZ 00000001800094e0 f i PINPad.obj
 0001:00008540       ??C?$CComPtrBase@UIOleInPlaceSiteWindowless@@@ATL@@QEBAPEAV?$_NoAddRefReleaseOnCComPtr@UIOleInPlaceSiteWindowless@@@1@XZ 0000000180009540 f i PINPad.obj
 0001:000085a0       ??C?$CComPtrBase@UIOleInPlaceUIWindow@@@ATL@@QEBAPEAV?$_NoAddRefReleaseOnCComPtr@UIOleInPlaceUIWindow@@@1@XZ 00000001800095a0 f i PINPad.obj
 0001:00008600       ??C?$CComPtrBase@UIOleObject@@@ATL@@QEBAPEAV?$_NoAddRefReleaseOnCComPtr@UIOleObject@@@1@XZ 0000000180009600 f i PINPad.obj
 0001:00008660       ??C?$CComPtrBase@UIPersistStream@@@ATL@@QEBAPEAV?$_NoAddRefReleaseOnCComPtr@UIPersistStream@@@1@XZ 0000000180009660 f i PINPad.obj
 0001:000086c0       ??C?$CComPtrBase@UIPersistStreamInit@@@ATL@@QEBAPEAV?$_NoAddRefReleaseOnCComPtr@UIPersistStreamInit@@@1@XZ 00000001800096c0 f i PINPad.obj
 0001:00008720       ??C?$CComPtrBase@UIPointerInactive@@@ATL@@QEBAPEAV?$_NoAddRefReleaseOnCComPtr@UIPointerInactive@@@1@XZ 0000000180009720 f i PINPad.obj
 0001:00008780       ??C?$CComPtrBase@UIProvideClassInfo2@@@ATL@@QEBAPEAV?$_NoAddRefReleaseOnCComPtr@UIProvideClassInfo2@@@1@XZ 0000000180009780 f i PINPad.obj
 0001:000087e0       ??C?$CComPtrBase@UISpecifyPropertyPages@@@ATL@@QEBAPEAV?$_NoAddRefReleaseOnCComPtr@UISpecifyPropertyPages@@@1@XZ 00000001800097e0 f i PINPad.obj
 0001:00008840       ??C?$CComPtrBase@UITypeInfo@@@ATL@@QEBAPEAV?$_NoAddRefReleaseOnCComPtr@UITypeInfo@@@1@XZ 0000000180009840 f i PINPad.obj
 0001:000088a0       ??C?$CComPtrBase@UITypeLib@@@ATL@@QEBAPEAV?$_NoAddRefReleaseOnCComPtr@UITypeLib@@@1@XZ 00000001800098a0 f i PINPad.obj
 0001:00008900       ??C?$CComPtrBase@UIUnknown@@@ATL@@QEBAPEAV?$_NoAddRefReleaseOnCComPtr@UIUnknown@@@1@XZ 0000000180009900 f i PINPad.obj
 0001:00008960       ??C?$CComPtrBase@UIViewObjectEx@@@ATL@@QEBAPEAV?$_NoAddRefReleaseOnCComPtr@UIViewObjectEx@@@1@XZ 0000000180009960 f i PINPad.obj
 0001:000089c0       ??I?$CComPtrBase@UICatRegister@@@ATL@@QEAAPEAPEAUICatRegister@@XZ 00000001800099c0 f i PINPad.obj
 0001:00008a20       ??I?$CComPtrBase@UIConnectionPoint@@@ATL@@QEAAPEAPEAUIConnectionPoint@@XZ 0000000180009a20 f i PINPad.obj
 0001:00008a80       ??I?$CComPtrBase@UIConnectionPointContainer@@@ATL@@QEAAPEAPEAUIConnectionPointContainer@@XZ 0000000180009a80 f i PINPad.obj
 0001:00008ae0       ??I?$CComPtrBase@UIDataAdviseHolder@@@ATL@@QEAAPEAPEAUIDataAdviseHolder@@XZ 0000000180009ae0 f i PINPad.obj
 0001:00008b40       ??I?$CComPtrBase@UIDataObject@@@ATL@@QEAAPEAPEAUIDataObject@@XZ 0000000180009b40 f i PINPad.obj
 0001:00008ba0       ??I?$CComPtrBase@UIDispatch@@@ATL@@QEAAPEAPEAUIDispatch@@XZ 0000000180009ba0 f i PINPad.obj
 0001:00008c00       ??I?$CComPtrBase@UIOleAdviseHolder@@@ATL@@QEAAPEAPEAUIOleAdviseHolder@@XZ 0000000180009c00 f i PINPad.obj
 0001:00008c60       ??I?$CComPtrBase@UIOleControlSite@@@ATL@@QEAAPEAPEAUIOleControlSite@@XZ 0000000180009c60 f i PINPad.obj
 0001:00008cc0       ??I?$CComPtrBase@UIOleInPlaceActiveObject@@@ATL@@QEAAPEAPEAUIOleInPlaceActiveObject@@XZ 0000000180009cc0 f i PINPad.obj
 0001:00008d20       ??I?$CComPtrBase@UIOleInPlaceFrame@@@ATL@@QEAAPEAPEAUIOleInPlaceFrame@@XZ 0000000180009d20 f i PINPad.obj
 0001:00008d80       ??I?$CComPtrBase@UIOleInPlaceObject@@@ATL@@QEAAPEAPEAUIOleInPlaceObject@@XZ 0000000180009d80 f i PINPad.obj
 0001:00008de0       ??I?$CComPtrBase@UIOleInPlaceSiteWindowless@@@ATL@@QEAAPEAPEAUIOleInPlaceSiteWindowless@@XZ 0000000180009de0 f i PINPad.obj
 0001:00008e40       ??I?$CComPtrBase@UIOleInPlaceUIWindow@@@ATL@@QEAAPEAPEAUIOleInPlaceUIWindow@@XZ 0000000180009e40 f i PINPad.obj
 0001:00008ea0       ??I?$CComPtrBase@UIOleObject@@@ATL@@QEAAPEAPEAUIOleObject@@XZ 0000000180009ea0 f i PINPad.obj
 0001:00008f00       ??I?$CComPtrBase@UIPersistStream@@@ATL@@QEAAPEAPEAUIPersistStream@@XZ 0000000180009f00 f i PINPad.obj
 0001:00008f60       ??I?$CComPtrBase@UIPointerInactive@@@ATL@@QEAAPEAPEAUIPointerInactive@@XZ 0000000180009f60 f i PINPad.obj
 0001:00008fc0       ??I?$CComPtrBase@UIProvideClassInfo2@@@ATL@@QEAAPEAPEAUIProvideClassInfo2@@XZ 0000000180009fc0 f i PINPad.obj
 0001:00009020       ??I?$CComPtrBase@UIStream@@@ATL@@QEAAPEAPEAUIStream@@XZ 000000018000a020 f i PINPad.obj
 0001:00009080       ??I?$CComPtrBase@UITypeInfo2@@@ATL@@QEAAPEAPEAUITypeInfo2@@XZ 000000018000a080 f i PINPad.obj
 0001:000090e0       ??I?$CComPtrBase@UITypeInfo@@@ATL@@QEAAPEAPEAUITypeInfo@@XZ 000000018000a0e0 f i PINPad.obj
 0001:00009140       ??I?$CComPtrBase@UITypeLib@@@ATL@@QEAAPEAPEAUITypeLib@@XZ 000000018000a140 f i PINPad.obj
 0001:000091a0       ??I?$CComPtrBase@UIUnknown@@@ATL@@QEAAPEAPEAUIUnknown@@XZ 000000018000a1a0 f i PINPad.obj
 0001:00009200       ??I?$CComPtrBase@UIViewObjectEx@@@ATL@@QEAAPEAPEAUIViewObjectEx@@XZ 000000018000a200 f i PINPad.obj
 0001:00009260       ??ICComBSTR@ATL@@QEAAPEAPEA_WXZ 000000018000a260 f i PINPad.obj
 0001:00009270       ??_E?$CComContainedObject@VCOPOSPINPad@@@ATL@@W7EAAPEAXI@Z 000000018000a270 f i PINPad.obj
 0001:0000927c       ??_E?$CComContainedObject@VCOPOSPINPad@@@ATL@@WHA@EAAPEAXI@Z 000000018000a27c f i PINPad.obj
 0001:00009288       ??_E?$CComObject@VCOPOSPINPad@@@ATL@@W7EAAPEAXI@Z 000000018000a288 f i PINPad.obj
 0001:00009294       ??_E?$CComObject@VCOPOSPINPad@@@ATL@@WHA@EAAPEAXI@Z 000000018000a294 f i PINPad.obj
 0001:000092a0       ??_G?$CComAggObject@VCOPOSPINPad@@@ATL@@UEAAPEAXI@Z 000000018000a2a0 f i PINPad.obj
 0001:000092a0       ??_E?$CComAggObject@VCOPOSPINPad@@@ATL@@UEAAPEAXI@Z 000000018000a2a0 f i PINPad.obj
 0001:000092e0       ??_G?$CComContainedObject@VCOPOSPINPad@@@ATL@@UEAAPEAXI@Z 000000018000a2e0 f i PINPad.obj
 0001:000092e0       ??_E?$CComContainedObject@VCOPOSPINPad@@@ATL@@UEAAPEAXI@Z 000000018000a2e0 f i PINPad.obj
 0001:00009320       ??_E?$CComObject@V?$CComEnum@UIEnumConnectionPoints@@$1?_GUID_b196b285_bab4_101a_b69c_00aa00341d07@@3U__s_GUID@@BPEAUIConnectionPoint@@V?$_CopyInterface@UIConnectionPoint@@@ATL@@VCComSingleThreadModel@6@@ATL@@@ATL@@UEAAPEAXI@Z 000000018000a320 f i PINPad.obj
 0001:00009320       ??_G?$CComObject@V?$CComEnum@UIEnumConnectionPoints@@$1?_GUID_b196b285_bab4_101a_b69c_00aa00341d07@@3U__s_GUID@@BPEAUIConnectionPoint@@V?$_CopyInterface@UIConnectionPoint@@@ATL@@VCComSingleThreadModel@6@@ATL@@@ATL@@UEAAPEAXI@Z 000000018000a320 f i PINPad.obj
 0001:00009360       ??_E?$CComObject@V?$CComEnum@UIEnumConnections@@$1?_GUID_b196b287_bab4_101a_b69c_00aa00341d07@@3U__s_GUID@@BUtagCONNECTDATA@@V?$_Copy@UtagCONNECTDATA@@@ATL@@VCComSingleThreadModel@6@@ATL@@@ATL@@UEAAPEAXI@Z 000000018000a360 f i PINPad.obj
 0001:00009360       ??_G?$CComObject@V?$CComEnum@UIEnumConnections@@$1?_GUID_b196b287_bab4_101a_b69c_00aa00341d07@@3U__s_GUID@@BUtagCONNECTDATA@@V?$_Copy@UtagCONNECTDATA@@@ATL@@VCComSingleThreadModel@6@@ATL@@@ATL@@UEAAPEAXI@Z 000000018000a360 f i PINPad.obj
 0001:000093a0       ??_G?$CComObject@VCOPOSPINPad@@@ATL@@UEAAPEAXI@Z 000000018000a3a0 f i PINPad.obj
 0001:000093a0       ??_E?$CComObject@VCOPOSPINPad@@@ATL@@UEAAPEAXI@Z 000000018000a3a0 f i PINPad.obj
 0001:000093e0       ??_G?$CComObjectCached@VCComClassFactory@ATL@@@ATL@@UEAAPEAXI@Z 000000018000a3e0 f i PINPad.obj
 0001:000093e0       ??_E?$CComObjectCached@VCComClassFactory@ATL@@@ATL@@UEAAPEAXI@Z 000000018000a3e0 f i PINPad.obj
 0001:00009420       ??_ECComClassFactory@ATL@@UEAAPEAXI@Z 000000018000a420 f i PINPad.obj
 0001:00009420       ??_GCComClassFactory@ATL@@UEAAPEAXI@Z 000000018000a420 f i PINPad.obj
 0001:00009460       ??_GCComModule@ATL@@UEAAPEAXI@Z 000000018000a460 f i PINPad.obj
 0001:00009460       ??_ECComModule@ATL@@UEAAPEAXI@Z 000000018000a460 f i PINPad.obj
 0001:000094a0       ??_GCRegObject@ATL@@UEAAPEAXI@Z 000000018000a4a0 f i PINPad.obj
 0001:000094a0       ??_ECRegObject@ATL@@UEAAPEAXI@Z 000000018000a4a0 f i PINPad.obj
 0001:000094e0       ?Add@?$CSimpleArray@GV?$CSimpleArrayEqualHelper@G@ATL@@@ATL@@QEAAHAEBG@Z 000000018000a4e0 f i PINPad.obj
 0001:00009670       ?Add@?$CSimpleMap@PEA_WPEA_WVCExpansionVectorEqualHelper@ATL@@@ATL@@QEAAHAEBQEA_W0@Z 000000018000a670 f i PINPad.obj
 0001:00009750       ?Add@CComDynamicUnkArray@ATL@@QEAAKPEAUIUnknown@@@Z 000000018000a750 f i PINPad.obj
 0001:00009930       ?Add@CExpansionVector@ATL@@QEAAHPEB_W0@Z 000000018000a930 f i PINPad.obj
 0001:00009c70       ?AddChar@CParseBuffer@CRegParser@ATL@@QEAAHPEB_W@Z 000000018000ac70 f i PINPad.obj
 0001:00009cb0       ?AddCommonRGSReplacements@?$CAtlModuleT@VCComModule@ATL@@@ATL@@UEAAJPEAUIRegistrarBase@@@Z 000000018000acb0 f i PINPad.obj
 0001:00009cf0       ?AddCreateWndData@CAtlWinModule@ATL@@QEAAXPEAU_AtlCreateWndData@2@PEAX@Z 000000018000acf0 f i PINPad.obj
 0001:00009d20       ?AddRef@?$CComAggObject@VCOPOSPINPad@@@ATL@@UEAAKXZ 000000018000ad20 f i PINPad.obj
 0001:00009d50       ?AddRef@?$CComContainedObject@VCOPOSPINPad@@@ATL@@UEAAKXZ 000000018000ad50 f i PINPad.obj
 0001:00009d74       ?AddRef@?$CComContainedObject@VCOPOSPINPad@@@ATL@@WBAA@EAAKXZ 000000018000ad74 f i PINPad.obj
 0001:00009d80       ?AddRef@?$CComContainedObject@VCOPOSPINPad@@@ATL@@WBAI@EAAKXZ 000000018000ad80 f i PINPad.obj
 0001:00009d8c       ?AddRef@?$CComContainedObject@VCOPOSPINPad@@@ATL@@WBBA@EAAKXZ 000000018000ad8c f i PINPad.obj
 0001:00009d98       ?AddRef@?$CComContainedObject@VCOPOSPINPad@@@ATL@@WBBI@EAAKXZ 000000018000ad98 f i PINPad.obj
 0001:00009da4       ?AddRef@?$CComContainedObject@VCOPOSPINPad@@@ATL@@WBCI@EAAKXZ 000000018000ada4 f i PINPad.obj
 0001:00009db0       ?AddRef@?$CComContainedObject@VCOPOSPINPad@@@ATL@@WBEA@EAAKXZ 000000018000adb0 f i PINPad.obj
 0001:00009dbc       ?AddRef@?$CComContainedObject@VCOPOSPINPad@@@ATL@@WLI@EAAKXZ 000000018000adbc f i PINPad.obj
 0001:00009dc8       ?AddRef@?$CComContainedObject@VCOPOSPINPad@@@ATL@@WMA@EAAKXZ 000000018000adc8 f i PINPad.obj
 0001:00009dd4       ?AddRef@?$CComContainedObject@VCOPOSPINPad@@@ATL@@WMI@EAAKXZ 000000018000add4 f i PINPad.obj
 0001:00009de0       ?AddRef@?$CComContainedObject@VCOPOSPINPad@@@ATL@@WNA@EAAKXZ 000000018000ade0 f i PINPad.obj
 0001:00009dec       ?AddRef@?$CComContainedObject@VCOPOSPINPad@@@ATL@@WNI@EAAKXZ 000000018000adec f i PINPad.obj
 0001:00009df8       ?AddRef@?$CComContainedObject@VCOPOSPINPad@@@ATL@@WOA@EAAKXZ 000000018000adf8 f i PINPad.obj
 0001:00009e04       ?AddRef@?$CComContainedObject@VCOPOSPINPad@@@ATL@@WOI@EAAKXZ 000000018000ae04 f i PINPad.obj
 0001:00009e10       ?AddRef@?$CComContainedObject@VCOPOSPINPad@@@ATL@@WPA@EAAKXZ 000000018000ae10 f i PINPad.obj
 0001:00009e1c       ?AddRef@?$CComContainedObject@VCOPOSPINPad@@@ATL@@WPI@EAAKXZ 000000018000ae1c f i PINPad.obj
 0001:00009e30       ?AddRef@?$CComObject@V?$CComEnum@UIEnumConnectionPoints@@$1?_GUID_b196b285_bab4_101a_b69c_00aa00341d07@@3U__s_GUID@@BPEAUIConnectionPoint@@V?$_CopyInterface@UIConnectionPoint@@@ATL@@VCComSingleThreadModel@6@@ATL@@@ATL@@UEAAKXZ 000000018000ae30 f i PINPad.obj
 0001:00009e60       ?AddRef@?$CComObject@V?$CComEnum@UIEnumConnections@@$1?_GUID_b196b287_bab4_101a_b69c_00aa00341d07@@3U__s_GUID@@BUtagCONNECTDATA@@V?$_Copy@UtagCONNECTDATA@@@ATL@@VCComSingleThreadModel@6@@ATL@@@ATL@@UEAAKXZ 000000018000ae60 f i PINPad.obj
 0001:00009e90       ?AddRef@?$CComObject@VCOPOSPINPad@@@ATL@@UEAAKXZ 000000018000ae90 f i PINPad.obj
 0001:00009eb4       ?AddRef@?$CComObject@VCOPOSPINPad@@@ATL@@WBAA@EAAKXZ 000000018000aeb4 f i PINPad.obj
 0001:00009ec0       ?AddRef@?$CComObject@VCOPOSPINPad@@@ATL@@WBAI@EAAKXZ 000000018000aec0 f i PINPad.obj
 0001:00009ecc       ?AddRef@?$CComObject@VCOPOSPINPad@@@ATL@@WBBA@EAAKXZ 000000018000aecc f i PINPad.obj
 0001:00009ed8       ?AddRef@?$CComObject@VCOPOSPINPad@@@ATL@@WBBI@EAAKXZ 000000018000aed8 f i PINPad.obj
 0001:00009ee4       ?AddRef@?$CComObject@VCOPOSPINPad@@@ATL@@WBCI@EAAKXZ 000000018000aee4 f i PINPad.obj
 0001:00009ef0       ?AddRef@?$CComObject@VCOPOSPINPad@@@ATL@@WBEA@EAAKXZ 000000018000aef0 f i PINPad.obj
 0001:00009efc       ?AddRef@?$CComObject@VCOPOSPINPad@@@ATL@@WLI@EAAKXZ 000000018000aefc f i PINPad.obj
 0001:00009f08       ?AddRef@?$CComObject@VCOPOSPINPad@@@ATL@@WMA@EAAKXZ 000000018000af08 f i PINPad.obj
 0001:00009f14       ?AddRef@?$CComObject@VCOPOSPINPad@@@ATL@@WMI@EAAKXZ 000000018000af14 f i PINPad.obj
 0001:00009f20       ?AddRef@?$CComObject@VCOPOSPINPad@@@ATL@@WNA@EAAKXZ 000000018000af20 f i PINPad.obj
 0001:00009f2c       ?AddRef@?$CComObject@VCOPOSPINPad@@@ATL@@WNI@EAAKXZ 000000018000af2c f i PINPad.obj
 0001:00009f38       ?AddRef@?$CComObject@VCOPOSPINPad@@@ATL@@WOA@EAAKXZ 000000018000af38 f i PINPad.obj
 0001:00009f44       ?AddRef@?$CComObject@VCOPOSPINPad@@@ATL@@WOI@EAAKXZ 000000018000af44 f i PINPad.obj
 0001:00009f50       ?AddRef@?$CComObject@VCOPOSPINPad@@@ATL@@WPA@EAAKXZ 000000018000af50 f i PINPad.obj
 0001:00009f5c       ?AddRef@?$CComObject@VCOPOSPINPad@@@ATL@@WPI@EAAKXZ 000000018000af5c f i PINPad.obj
 0001:00009f70       ?AddRef@?$CComObjectCached@VCComClassFactory@ATL@@@ATL@@UEAAKXZ 000000018000af70 f i PINPad.obj
 0001:00009fc0       ?AddRef@CRegObject@ATL@@UEAAKXZ 000000018000afc0 f i PINPad.obj
 0001:0000a020       ?AddReplacement@CRegObject@ATL@@UEAAJPEB_W0@Z 000000018000b020 f i PINPad.obj
 0001:0000a150       ?AddString@CParseBuffer@CRegParser@ATL@@QEAAHPEB_W@Z 000000018000b150 f i PINPad.obj
 0001:0000a240       ?AddTermFunc@CAtlModule@ATL@@QEAAJP6AX_K@Z0@Z 000000018000b240 f i PINPad.obj
 0001:0000a290       ?AddValue@CRegParser@ATL@@IEAAJAEAVCRegKey@2@PEB_WPEA_W@Z 000000018000b290 f i PINPad.obj
 0001:0000ab60       ?Advise@?$CProxy_IOPOSEvents@VCOPOSPINPad@@@@UEAAJPEAUIUnknown@@PEAK@Z 000000018000bb60 f i PINPad.obj
 0001:0000abc0       ?Advise@?$IConnectionPointImpl@VCOPOSPINPad@@$1?DIID__IOPOSPINPadEvents@@3U_GUID@@BVCComDynamicUnkArray@ATL@@@ATL@@UEAAJPEAUIUnknown@@PEAK@Z 000000018000bbc0 f i PINPad.obj
 0001:0000adc0       ?Advise@?$IConnectionPointImpl@VCOPOSPINPad@@$1?IID_IPropertyNotifySink@@3U_GUID@@BVCComDynamicUnkArray@ATL@@@ATL@@UEAAJPEAUIUnknown@@PEAK@Z 000000018000bdc0 f i PINPad.obj
 0001:0000afc0       ?Advise@?$IOleObjectImpl@VCOPOSPINPad@@@ATL@@UEAAJPEAUIAdviseSink@@PEAK@Z 000000018000bfc0 f i PINPad.obj
 0001:0000b070       ?Allocate@?$CAtlSafeAllocBufferManager@VCCRTAllocator@ATL@@@_ATL_SAFE_ALLOCA_IMPL@ATL@@QEAAPEAX_K@Z 000000018000c070 f i PINPad.obj
 0001:0000b0e0       ?Allocate@?$CTempBuffer@E$0BAA@VCCRTAllocator@ATL@@@ATL@@QEAAPEAE_K@Z 000000018000c0e0 f i PINPad.obj
 0001:0000b120       ?Allocate@?$CTempBuffer@_W$0BAA@VCCRTAllocator@ATL@@@ATL@@QEAAPEA_W_K@Z 000000018000c120 f i PINPad.obj
 0001:0000b160       ?Allocate@?$CTempBuffer@_W$0EAA@VCCRTAllocator@ATL@@@ATL@@QEAAPEA_W_K@Z 000000018000c160 f i PINPad.obj
 0001:0000b1a0       ?AllocateBytes@?$CTempBuffer@E$0BAA@VCCRTAllocator@ATL@@@ATL@@QEAAPEAE_K@Z 000000018000c1a0 f i PINPad.obj
 0001:0000b230       ?AllocateBytes@?$CTempBuffer@_W$0BAA@VCCRTAllocator@ATL@@@ATL@@QEAAPEA_W_K@Z 000000018000c230 f i PINPad.obj
 0001:0000b2c0       ?AllocateBytes@?$CTempBuffer@_W$0EAA@VCCRTAllocator@ATL@@@ATL@@QEAAPEA_W_K@Z 000000018000c2c0 f i PINPad.obj
 0001:0000b350       ?AllocateHeap@?$CTempBuffer@E$0BAA@VCCRTAllocator@ATL@@@ATL@@AEAAX_K@Z 000000018000c350 f i PINPad.obj
 0001:0000b3a0       ?AllocateHeap@?$CTempBuffer@_W$0BAA@VCCRTAllocator@ATL@@@ATL@@AEAAX_K@Z 000000018000c3a0 f i PINPad.obj
 0001:0000b3f0       ?AllocateHeap@?$CTempBuffer@_W$0EAA@VCCRTAllocator@ATL@@@ATL@@AEAAX_K@Z 000000018000c3f0 f i PINPad.obj
 0001:0000b440       ?Append@CParseBuffer@CRegParser@ATL@@QEAAHPEB_WH@Z 000000018000c440 f i PINPad.obj
 0001:0000b660       ?AtlCallTermFunc@ATL@@YAXPEAU_ATL_MODULE70@1@@Z 000000018000c660 f i PINPad.obj
 0001:0000b700       ?AtlCoTaskMemCAlloc@ATL@@YAPEAXKK@Z 000000018000c700 f i PINPad.obj
 0001:0000b780       ?AtlCoTaskMemRecalloc@ATL@@YAPEAXPEAXKK@Z 000000018000c780 f i PINPad.obj
 0001:0000b800       ?AtlComModuleGetClassObject@ATL@@YAJPEAU_ATL_COM_MODULE70@1@AEBU_GUID@@1PEAPEAX@Z 000000018000c800 f i PINPad.obj
 0001:0000bb30       ?AtlComModuleRegisterServer@ATL@@YAJPEAU_ATL_COM_MODULE70@1@HPEBU_GUID@@@Z 000000018000cb30 f i PINPad.obj
 0001:0000bd20       ?AtlComModuleUnregisterServer@ATL@@YAJPEAU_ATL_COM_MODULE70@1@HPEBU_GUID@@@Z 000000018000cd20 f i PINPad.obj
 0001:0000be70       ?AtlComQIPtrAssign2@ATL@@YAXPEAPEAUIUnknown@@PEAU2@AEBU_GUID@@@Z 000000018000ce70 f i PINPad.obj
 0001:0000bee0       ?AtlCreateTargetDC@ATL@@YAPEAUHDC__@@PEAU2@PEAUtagDVTARGETDEVICE@@@Z 000000018000cee0 f i PINPad.obj
 0001:0000c110       ?AtlCrtErrorCheck@ATL@@YAHH@Z 000000018000d110 f i PINPad.obj
 0001:0000c180       ?AtlGetPerUserRegistration@ATL@@YAJPEA_N@Z 000000018000d180 f i PINPad.obj
 0001:0000c1b0       ?AtlHiMetricToPixel@ATL@@YAXPEBUtagSIZE@@PEAU2@@Z 000000018000d1b0 f i PINPad.obj
 0001:0000c390       ?AtlHresultFromLastError@ATL@@YAJXZ 000000018000d390 f i PINPad.obj
 0001:0000c3b0       ?AtlHresultFromWin32@ATL@@YAJK@Z 000000018000d3b0 f i PINPad.obj
 0001:0000c3d0       ?AtlIPersistStreamInit_Load@ATL@@YAJPEAUIStream@@PEBUATL_PROPMAP_ENTRY@1@PEAXPEAUIUnknown@@@Z 000000018000d3d0 f i PINPad.obj
 0001:0000ca50       ?AtlIPersistStreamInit_Save@ATL@@YAJPEAUIStream@@HPEBUATL_PROPMAP_ENTRY@1@PEAXPEAUIUnknown@@@Z 000000018000da50 f i PINPad.obj
 0001:0000cfe0       ?AtlInternalOleLoadFromStream@ATL@@YAJPEAUIStream@@AEBU_GUID@@PEAPEAXTClassesAllowedInStream@1@K@Z 000000018000dfe0 f i PINPad.obj
 0001:0000d320       ?AtlInternalQueryInterface@ATL@@YAJPEAXPEBU_ATL_INTMAP_ENTRY@1@AEBU_GUID@@PEAPEAX@Z 000000018000e320 f i PINPad.obj
 0001:0000d5d0       ?AtlLoadTypeLib@ATL@@YAJPEAUHINSTANCE__@@PEB_WPEAPEA_WPEAPEAUITypeLib@@@Z 000000018000e5d0 f i PINPad.obj
 0001:0000daa0       ?AtlModuleAddTermFunc@ATL@@YAJPEAU_ATL_MODULE70@1@P6AX_K@Z1@Z 000000018000eaa0 f i PINPad.obj
 0001:0000dc70       ?AtlRegisterClassCategoriesHelper@ATL@@YAJAEBU_GUID@@PEBU_ATL_CATMAP_ENTRY@1@H@Z 000000018000ec70 f i PINPad.obj
 0001:0000e440       ?AtlRegisterTypeLib@ATL@@YAJPEAUHINSTANCE__@@PEB_W@Z 000000018000f440 f i PINPad.obj
 0001:0000e7a0       ?AtlThrowImpl@ATL@@YAXJ@Z  000000018000f7a0 f i PINPad.obj
 0001:0000e870       ?AtlUnRegisterTypeLib@ATL@@YAJPEAUHINSTANCE__@@PEB_W@Z 000000018000f870 f i PINPad.obj
 0001:0000eaa0       ?AtlWinModuleAddCreateWndData@ATL@@YAXPEAU_ATL_WIN_MODULE70@1@PEAU_AtlCreateWndData@1@PEAX@Z 000000018000faa0 f i PINPad.obj
 0001:0000ec90       ?AtlWinModuleExtractCreateWndData@ATL@@YAPEAXPEAU_ATL_WIN_MODULE70@1@@Z 000000018000fc90 f i PINPad.obj
 0001:0000ee90       ?AtlWinModuleRegisterClassExW@ATL@@YAGPEAU_ATL_WIN_MODULE70@1@PEBUtagWNDCLASSEXW@@@Z 000000018000fe90 f i PINPad.obj
 0001:0000ef60       ?AtlWinModuleRegisterWndClassInfoW@ATL@@YAGPEAU_ATL_WIN_MODULE70@1@PEAU_ATL_BASE_MODULE70@1@PEAU_ATL_WNDCLASSINFOW@1@PEAP6A_JPEAUHWND__@@I_K_J@Z@Z 000000018000ff60 f i PINPad.obj
 0001:0000efd0       ?Attach@?$CAutoVectorPtr@_W@ATL@@QEAAXPEA_W@Z 000000018000ffd0 f i PINPad.obj
 0001:0000f040       ?Attach@CComBSTR@ATL@@QEAAXPEA_W@Z 0000000180010040 f i PINPad.obj
 0001:0000f080       ?Attach@CRegKey@ATL@@QEAAXPEAUHKEY__@@@Z 0000000180010080 f i PINPad.obj
 0001:0000f110       ?CanForceRemoveKey@CRegParser@ATL@@IEAAHPEB_W@Z 0000000180010110 f i PINPad.obj
 0001:0000f170       ?ChToByte@CRegParser@ATL@@KAE_W@Z 0000000180010170 f i PINPad.obj
 0001:0000f310       ?ChangeType@CComVariant@ATL@@QEAAJGPEBUtagVARIANT@@@Z 0000000180010310 f i PINPad.obj
 0001:0000f360       ?Cleanup@CComTypeInfoHolder@ATL@@SAX_K@Z 0000000180010360 f i PINPad.obj
 0001:0000f440       ?Clear@CComVariant@ATL@@QEAAJXZ 0000000180010440 f i PINPad.obj
 0001:0000f460       ?ClearReplacements@CExpansionVector@ATL@@QEAAJXZ 0000000180010460 f i PINPad.obj
 0001:0000f4f0       ?ClearReplacements@CRegObject@ATL@@UEAAJXZ 00000001800104f0 f i PINPad.obj
 0001:0000f540       ?Clone@?$CComEnumImpl@UIEnumConnectionPoints@@$1?_GUID_b196b285_bab4_101a_b69c_00aa00341d07@@3U__s_GUID@@BPEAUIConnectionPoint@@V?$_CopyInterface@UIConnectionPoint@@@ATL@@@ATL@@UEAAJPEAPEAUIEnumConnectionPoints@@@Z 0000000180010540 f i PINPad.obj
 0001:0000f730       ?Clone@?$CComEnumImpl@UIEnumConnections@@$1?_GUID_b196b287_bab4_101a_b69c_00aa00341d07@@3U__s_GUID@@BUtagCONNECTDATA@@V?$_Copy@UtagCONNECTDATA@@@ATL@@@ATL@@UEAAJPEAPEAUIEnumConnections@@@Z 0000000180010730 f i PINPad.obj
 0001:0000f920       ?Close@?$IOleObjectImpl@VCOPOSPINPad@@@ATL@@UEAAJK@Z 0000000180010920 f i PINPad.obj
 0001:0000f9c0       ?Close@CRegKey@ATL@@QEAAJXZ 00000001800109c0 f i PINPad.obj
 0001:0000fa20       ?ContextSensitiveHelp@?$IOleInPlaceActiveObjectImpl@VCOPOSPINPad@@@ATL@@UEAAJH@Z 0000000180010a20 f i PINPad.obj
 0001:0000fa90       ?ContextSensitiveHelp@?$IOleInPlaceObjectWindowlessImpl@VCOPOSPINPad@@@ATL@@UEAAJH@Z 0000000180010a90 f i PINPad.obj
 0001:0000fb00       ?ControlQueryInterface@?$CComControl@VCOPOSPINPad@@V?$CWindowImpl@VCOPOSPINPad@@VCWindow@ATL@@V?$CWinTraits@$0FGAAAAAA@$0A@@3@@ATL@@@ATL@@UEAAJAEBU_GUID@@PEAPEAX@Z 0000000180010b00 f i PINPad.obj
 0001:0000fb70       ?CreateControlWindow@?$CComControl@VCOPOSPINPad@@V?$CWindowImpl@VCOPOSPINPad@@VCWindow@ATL@@V?$CWinTraits@$0FGAAAAAA@$0A@@3@@ATL@@@ATL@@UEAAPEAUHWND__@@PEAU3@AEAUtagRECT@@@Z 0000000180010b70 f i PINPad.obj
 0001:0000fc40       ?CreateInstance@?$CComCreator@V?$CComAggObject@VCOPOSPINPad@@@ATL@@@ATL@@SAJPEAXAEBU_GUID@@PEAPEAX@Z 0000000180010c40 f i PINPad.obj
 0001:0000fe10       ?CreateInstance@?$CComCreator@V?$CComObject@VCOPOSPINPad@@@ATL@@@ATL@@SAJPEAXAEBU_GUID@@PEAPEAX@Z 0000000180010e10 f i PINPad.obj
 0001:0000fff0       ?CreateInstance@?$CComObject@V?$CComEnum@UIEnumConnectionPoints@@$1?_GUID_b196b285_bab4_101a_b69c_00aa00341d07@@3U__s_GUID@@BPEAUIConnectionPoint@@V?$_CopyInterface@UIConnectionPoint@@@ATL@@VCComSingleThreadModel@6@@ATL@@@ATL@@SAJPEAPEAV12@@Z 0000000180010ff0 f i PINPad.obj
 0001:000101a0       ?CreateInstance@?$CComObject@V?$CComEnum@UIEnumConnections@@$1?_GUID_b196b287_bab4_101a_b69c_00aa00341d07@@3U__s_GUID@@BUtagCONNECTDATA@@V?$_Copy@UtagCONNECTDATA@@@ATL@@VCComSingleThreadModel@6@@ATL@@@ATL@@SAJPEAPEAV12@@Z 00000001800111a0 f i PINPad.obj
 0001:00010350       ?CreateInstance@CComClassFactory@ATL@@UEAAJPEAUIUnknown@@AEBU_GUID@@PEAPEAX@Z 0000000180011350 f i PINPad.obj
 0001:00010460       ?DAdvise@?$IDataObjectImpl@VCOPOSPINPad@@@ATL@@UEAAJPEAUtagFORMATETC@@KPEAUIAdviseSink@@PEAK@Z 0000000180011460 f i PINPad.obj
 0001:000105a0       ?DEVMODEOLE2T_EX@@YAPEAU_devicemodeW@@PEAU1@@Z 00000001800115a0 f i PINPad.obj
 0001:000105b0       ?DUnadvise@?$IDataObjectImpl@VCOPOSPINPad@@@ATL@@UEAAJK@Z 00000001800115b0 f i PINPad.obj
 0001:000106a0       ?Decrement@CComMultiThreadModel@ATL@@SAKPEAJ@Z 00000001800116a0 f i PINPad.obj
 0001:000106c0       ?Decrement@CComSingleThreadModel@ATL@@SAKPEAJ@Z 00000001800116c0 f i PINPad.obj
 0001:000106e0       ?DefWindowProcW@?$CWindowImplBaseT@VCWindow@ATL@@V?$CWinTraits@$0FGAAAAAA@$0A@@2@@ATL@@QEAA_JI_K_J@Z 00000001800116e0 f i PINPad.obj
 0001:00010730       ?DefaultReflectionHandler@?$CWindowImplRoot@VCWindow@ATL@@@ATL@@SAHPEAUHWND__@@I_K_JAEA_J@Z 0000000180011730 f i PINPad.obj
 0001:00010a30       ?DeleteSubKey@CRegKey@ATL@@QEAAJPEB_W@Z 0000000180011a30 f i PINPad.obj
 0001:00010b40       ?DeleteValue@CRegKey@ATL@@QEAAJPEB_W@Z 0000000180011b40 f i PINPad.obj
 0001:00010bc0       ?Detach@?$CAutoVectorPtr@_W@ATL@@QEAAPEA_WXZ 0000000180011bc0 f i PINPad.obj
 0001:00010bf0       ?Detach@?$CComPtrBase@UIPersistStream@@@ATL@@QEAAPEAUIPersistStream@@XZ 0000000180011bf0 f i PINPad.obj
 0001:00010c20       ?Detach@?$CComPtrBase@UITypeInfo@@@ATL@@QEAAPEAUITypeInfo@@XZ 0000000180011c20 f i PINPad.obj
 0001:00010c50       ?Detach@?$CComPtrBase@UIUnknown@@@ATL@@QEAAPEAUIUnknown@@XZ 0000000180011c50 f i PINPad.obj
 0001:00010c80       ?Detach@CComBSTR@ATL@@QEAAPEA_WXZ 0000000180011c80 f i PINPad.obj
 0001:00010cb0       ?Detach@CParseBuffer@CRegParser@ATL@@QEAAPEA_WXZ 0000000180011cb0 f i PINPad.obj
 0001:00010d00       ?Detach@CRegKey@ATL@@QEAAPEAUHKEY__@@XZ 0000000180011d00 f i PINPad.obj
 0001:00010d50       ?DoEvent@COPOSPINPad@@IEAAXI_K_J@Z 0000000180011d50 f i PINPad.obj
 0001:00010e70       ?DoVerb@?$IOleObjectImpl@VCOPOSPINPad@@@ATL@@UEAAJJPEAUtagMSG@@PEAUIOleClientSite@@JPEAUHWND__@@PEBUtagRECT@@@Z 0000000180011e70 f i PINPad.obj
 0001:00011170       ?DoVerbDiscardUndo@?$IOleObjectImpl@VCOPOSPINPad@@@ATL@@QEAAJPEBUtagRECT@@PEAUHWND__@@@Z 0000000180012170 f i PINPad.obj
 0001:000111f0       ?DoVerbHide@?$IOleObjectImpl@VCOPOSPINPad@@@ATL@@QEAAJPEBUtagRECT@@PEAUHWND__@@@Z 00000001800121f0 f i PINPad.obj
 0001:000112c0       ?DoVerbInPlaceActivate@?$IOleObjectImpl@VCOPOSPINPad@@@ATL@@QEAAJPEBUtagRECT@@PEAUHWND__@@@Z 00000001800122c0 f i PINPad.obj
 0001:00011380       ?DoVerbOpen@?$IOleObjectImpl@VCOPOSPINPad@@@ATL@@QEAAJPEBUtagRECT@@PEAUHWND__@@@Z 0000000180012380 f i PINPad.obj
 0001:00011400       ?DoVerbPrimary@?$IOleObjectImpl@VCOPOSPINPad@@@ATL@@QEAAJPEBUtagRECT@@PEAUHWND__@@@Z 0000000180012400 f i PINPad.obj
 0001:00011540       ?DoVerbProperties@CComControlBase@ATL@@QEAAJPEBUtagRECT@@PEAUHWND__@@@Z 0000000180012540 f i PINPad.obj
 0001:000118f0       ?DoVerbShow@?$IOleObjectImpl@VCOPOSPINPad@@@ATL@@QEAAJPEBUtagRECT@@PEAUHWND__@@@Z 00000001800128f0 f i PINPad.obj
 0001:000119a0       ?DoVerbUIActivate@?$IOleObjectImpl@VCOPOSPINPad@@@ATL@@QEAAJPEBUtagRECT@@PEAUHWND__@@@Z 00000001800129a0 f i PINPad.obj
 0001:00011a60       ?DoesVerbActivate@CComControlBase@ATL@@QEAAHJ@Z 0000000180012a60 f i PINPad.obj
 0001:00011ab0       ?DoesVerbUIActivate@CComControlBase@ATL@@QEAAHJ@Z 0000000180012ab0 f i PINPad.obj
 0001:00011b20       ?Draw@?$IViewObjectExImpl@VCOPOSPINPad@@@ATL@@UEAAJKJPEAXPEAUtagDVTARGETDEVICE@@PEAUHDC__@@2PEBU_RECTL@@3P6AH_K@Z4@Z 0000000180012b20 f i PINPad.obj
 0001:00011c30       ?Empty@CComBSTR@ATL@@QEAAXXZ 0000000180012c30 f i PINPad.obj
 0001:00011c60       ?EnableModeless@?$IOleInPlaceActiveObjectImpl@VCOPOSPINPad@@@ATL@@UEAAJH@Z 0000000180012c60 f i PINPad.obj
 0001:00011cc0       ?EndOfVar@CRegParser@ATL@@IEAAHXZ 0000000180012cc0 f i PINPad.obj
 0001:00011d10       ?EnsureTI@CComTypeInfoHolder@ATL@@QEAAJK@Z 0000000180012d10 f i PINPad.obj
 0001:00011d60       ?EnumAdvise@?$IOleObjectImpl@VCOPOSPINPad@@@ATL@@UEAAJPEAPEAUIEnumSTATDATA@@@Z 0000000180012d60 f i PINPad.obj
 0001:00011eb0       ?EnumConnectionPoints@?$IConnectionPointContainerImpl@VCOPOSPINPad@@@ATL@@UEAAJPEAPEAUIEnumConnectionPoints@@@Z 0000000180012eb0 f i PINPad.obj
 0001:000123a0       ?EnumConnections@?$IConnectionPointImpl@VCOPOSPINPad@@$1?DIID__IOPOSPINPadEvents@@3U_GUID@@BVCComDynamicUnkArray@ATL@@@ATL@@UEAAJPEAPEAUIEnumConnections@@@Z 00000001800133a0 f i PINPad.obj
 0001:000126d0       ?EnumConnections@?$IConnectionPointImpl@VCOPOSPINPad@@$1?IID_IPropertyNotifySink@@3U_GUID@@BVCComDynamicUnkArray@ATL@@@ATL@@UEAAJPEAPEAUIEnumConnections@@@Z 00000001800136d0 f i PINPad.obj
 0001:00012a00       ?EnumDAdvise@?$IDataObjectImpl@VCOPOSPINPad@@@ATL@@UEAAJPEAPEAUIEnumSTATDATA@@@Z 0000000180013a00 f i PINPad.obj
 0001:00012b30       ?EnumFormatEtc@?$IDataObjectImpl@VCOPOSPINPad@@@ATL@@UEAAJKPEAPEAUIEnumFORMATETC@@@Z 0000000180013b30 f i PINPad.obj
 0001:00012bb0       ?EnumVerbs@?$IOleObjectImpl@VCOPOSPINPad@@@ATL@@UEAAJPEAPEAUIEnumOLEVERB@@@Z 0000000180013bb0 f i PINPad.obj
 0001:00012c70       ?EscapeSingleQuote@CAtlModule@ATL@@SAXPEA_W_KPEB_W@Z 0000000180013c70 f i PINPad.obj
 0001:00012d50       ?ExtractCreateWndData@CAtlWinModule@ATL@@QEAAPEAXXZ 0000000180013d50 f i PINPad.obj
 0001:00012d70       ?FAccessAllowed@?$IObjectSafetyImpl@VCOPOSPINPad@@$02@ATL@@MEAAHXZ 0000000180013d70 f i PINPad.obj
 0001:00012d80       ?FinalConstruct@?$CComAggObject@VCOPOSPINPad@@@ATL@@QEAAJXZ 0000000180013d80 f i PINPad.obj
 0001:00012dc0       ?FinalConstruct@CComObjectRootBase@ATL@@QEAAJXZ 0000000180013dc0 f i PINPad.obj
 0001:00012dd0       ?FinalConstruct@CRegObject@ATL@@QEAAJXZ 0000000180013dd0 f i PINPad.obj
 0001:00012e00       ?FinalRelease@?$CComAggObject@VCOPOSPINPad@@@ATL@@QEAAXXZ 0000000180013e00 f i PINPad.obj
 0001:00012e40       ?FinalRelease@CComObjectRootBase@ATL@@QEAAXXZ 0000000180013e40 f i PINPad.obj
 0001:00012e50       ?FindConnectionPoint@?$IConnectionPointContainerImpl@VCOPOSPINPad@@@ATL@@UEAAJAEBU_GUID@@PEAPEAUIConnectionPoint@@@Z 0000000180013e50 f i PINPad.obj
 0001:00012fc0       ?FindKey@?$CSimpleMap@PEA_WPEA_WVCExpansionVectorEqualHelper@ATL@@@ATL@@QEBAHAEBQEA_W@Z 0000000180013fc0 f i PINPad.obj
 0001:00013030       ?FireTheEvent@?$CProxy_IOPOSEvents@VCOPOSPINPad@@@@IEAAXPEAUIUnknown@@PEAVOposVariant@@IAEAJPEB_WJ@Z 0000000180014030 f i PINPad.obj
 0001:00013210       ?FireViewChange@CComControlBase@ATL@@QEAAJXZ 0000000180014210 f i PINPad.obj
 0001:000132e0       ?Fire_DataEvent@?$CProxy_IOPOSEvents@VCOPOSPINPad@@@@QEAAXJ@Z 00000001800142e0 f i PINPad.obj
 0001:000134d0       ?Fire_DirectIOEvent@?$CProxy_IOPOSEvents@VCOPOSPINPad@@@@QEAAXJPEAJPEAPEA_W@Z 00000001800144d0 f i PINPad.obj
 0001:00013770       ?Fire_ErrorEvent@?$CProxy_IOPOSEvents@VCOPOSPINPad@@@@QEAAXJJJPEAJ@Z 0000000180014770 f i PINPad.obj
 0001:00013a20       ?Fire_StatusUpdateEvent@?$CProxy_IOPOSEvents@VCOPOSPINPad@@@@QEAAXJ@Z 0000000180014a20 f i PINPad.obj
 0001:00013c10       ?FormatWindowClassName@AtlModuleRegisterWndClassInfoParamW@ATL@@SAXPEA_WKPEAX@Z 0000000180014c10 f i PINPad.obj
 0001:00013c50       ?Free@?$CAutoVectorPtr@_W@ATL@@QEAAXXZ 0000000180014c50 f i PINPad.obj
 0001:00013c90       ?FreeHeap@?$CTempBuffer@E$0BAA@VCCRTAllocator@ATL@@@ATL@@AEAAXXZ 0000000180014c90 f i PINPad.obj
 0001:00013cb0       ?FreeHeap@?$CTempBuffer@_W$0BAA@VCCRTAllocator@ATL@@@ATL@@AEAAXXZ 0000000180014cb0 f i PINPad.obj
 0001:00013cd0       ?FreeHeap@?$CTempBuffer@_W$0EAA@VCCRTAllocator@ATL@@@ATL@@AEAAXXZ 0000000180014cd0 f i PINPad.obj
 0001:00013cf0       ?Freeze@?$IViewObjectExImpl@VCOPOSPINPad@@@ATL@@UEAAJKJPEAXPEAK@Z 0000000180014cf0 f i PINPad.obj
 0001:00013d70       ?GenerateError@CRegParser@ATL@@IEAAJI@Z 0000000180014d70 f i PINPad.obj
 0001:00013d90       ?GetAdvise@?$IViewObjectExImpl@VCOPOSPINPad@@@ATL@@UEAAJPEAK0PEAPEAUIAdviseSink@@@Z 0000000180014d90 f i PINPad.obj
 0001:00013ed0       ?GetAmbientLocaleID@CComControlBase@ATL@@QEAAJAEAK@Z 0000000180014ed0 f i PINPad.obj
 0001:00013fb0       ?GetAmbientProperty@CComControlBase@ATL@@QEAAJJAEAUtagVARIANT@@@Z 0000000180014fb0 f i PINPad.obj
 0001:00014000       ?GetAmbientUserMode@CComControlBase@ATL@@QEAAJAEAH@Z 0000000180015000 f i PINPad.obj
 0001:00014120       ?GetAppId@?$CAtlModuleT@VCComModule@ATL@@@ATL@@SAPEB_WXZ 0000000180015120 f i PINPad.obj
 0001:00014130       ?GetAt@CComDynamicUnkArray@ATL@@QEAAPEAUIUnknown@@H@Z 0000000180015130 f i PINPad.obj
 0001:000141c0       ?GetCanonicalFormatEtc@?$IDataObjectImpl@VCOPOSPINPad@@@ATL@@UEAAJPEAUtagFORMATETC@@0@Z 00000001800151c0 f i PINPad.obj
 0001:00014240       ?GetClassID@?$IPersistStorageImpl@VCOPOSPINPad@@@ATL@@UEAAJPEAU_GUID@@@Z 0000000180015240 f i PINPad.obj
 0001:000142c0       ?GetClassID@?$IPersistStreamInitImpl@VCOPOSPINPad@@@ATL@@UEAAJPEAU_GUID@@@Z 00000001800152c0 f i PINPad.obj
 0001:00014340       ?GetClassInfoExW@AtlModuleRegisterWndClassInfoParamW@ATL@@SAHPEAUHINSTANCE__@@PEB_WPEAUtagWNDCLASSEXW@@@Z 0000000180015340 f i PINPad.obj
 0001:00014370       ?GetClassInfoW@?$IProvideClassInfo2Impl@$1?CLSID_OPOSPINPad@@3U_GUID@@B$1?DIID__IOPOSPINPadEvents@@3U2@B$1?LIBID_OposPINPad_CCO@@3U2@B$00$0A@VCComTypeInfoHolder@ATL@@@ATL@@UEAAJPEAPEAUITypeInfo@@@Z 0000000180015370 f i PINPad.obj
 0001:000143a0       ?GetClassObject@CComModule@ATL@@QEAAJAEBU_GUID@@0PEAPEAX@Z 00000001800153a0 f i PINPad.obj
 0001:00014610       ?GetClientSite@?$IOleObjectImpl@VCOPOSPINPad@@@ATL@@UEAAJPEAPEAUIOleClientSite@@@Z 0000000180015610 f i PINPad.obj
 0001:000146b0       ?GetClipboardData@?$IOleObjectImpl@VCOPOSPINPad@@@ATL@@UEAAJKPEAPEAUIDataObject@@@Z 00000001800156b0 f i PINPad.obj
 0001:00014730       ?GetCodeAddress@CDynamicStdCallThunk2@ATL@@QEAAPEAXXZ 0000000180015730 f i PINPad.obj
 0001:00014750       ?GetColorSet@?$IViewObjectExImpl@VCOPOSPINPad@@@ATL@@UEAAJKJPEAXPEAUtagDVTARGETDEVICE@@PEAUHDC__@@PEAPEAUtagLOGPALETTE@@@Z 0000000180015750 f i PINPad.obj
 0001:000147d0       ?GetConnMap@COPOSPINPad@@SAPEBU_ATL_CONNMAP_ENTRY@ATL@@PEAH@Z 00000001800157d0 f i PINPad.obj
 0001:00014920       ?GetConnectionInterface@?$IConnectionPointImpl@VCOPOSPINPad@@$1?DIID__IOPOSPINPadEvents@@3U_GUID@@BVCComDynamicUnkArray@ATL@@@ATL@@UEAAJPEAU_GUID@@@Z 0000000180015920 f i PINPad.obj
 0001:00014960       ?GetConnectionInterface@?$IConnectionPointImpl@VCOPOSPINPad@@$1?IID_IPropertyNotifySink@@3U_GUID@@BVCComDynamicUnkArray@ATL@@@ATL@@UEAAJPEAU_GUID@@@Z 0000000180015960 f i PINPad.obj
 0001:000149a0       ?GetConnectionPointContainer@?$IConnectionPointImpl@VCOPOSPINPad@@$1?DIID__IOPOSPINPadEvents@@3U_GUID@@BVCComDynamicUnkArray@ATL@@@ATL@@UEAAJPEAPEAUIConnectionPointContainer@@@Z 00000001800159a0 f i PINPad.obj
 0001:00014a00       ?GetConnectionPointContainer@?$IConnectionPointImpl@VCOPOSPINPad@@$1?IID_IPropertyNotifySink@@3U_GUID@@BVCComDynamicUnkArray@ATL@@@ATL@@UEAAJPEAPEAUIConnectionPointContainer@@@Z 0000000180015a00 f i PINPad.obj
 0001:00014a60       ?GetContentExtent@?$IQuickActivateImpl@VCOPOSPINPad@@@ATL@@UEAAJPEAUtagSIZE@@@Z 0000000180015a60 f i PINPad.obj
 0001:00014b10       ?GetControlInfo@?$IOleControlImpl@VCOPOSPINPad@@@ATL@@UEAAJPEAUtagCONTROLINFO@@@Z 0000000180015b10 f i PINPad.obj
 0001:00014b80       ?GetCookie@CComDynamicUnkArray@ATL@@QEAAKPEAPEAUIUnknown@@@Z 0000000180015b80 f i PINPad.obj
 0001:00014c60       ?GetData@?$IDataObjectImpl@VCOPOSPINPad@@@ATL@@UEAAJPEAUtagFORMATETC@@PEAUtagSTGMEDIUM@@@Z 0000000180015c60 f i PINPad.obj
 0001:00014d10       ?GetData@CAtlSafeAllocBufferNode@?$CAtlSafeAllocBufferManager@VCCRTAllocator@ATL@@@_ATL_SAFE_ALLOCA_IMPL@ATL@@QEAAPEAXXZ 0000000180015d10 f i PINPad.obj
 0001:00014d30       ?GetDataHere@?$IDataObjectImpl@VCOPOSPINPad@@@ATL@@UEAAJPEAUtagFORMATETC@@PEAUtagSTGMEDIUM@@@Z 0000000180015d30 f i PINPad.obj
 0001:00014db0       ?GetDropTarget@?$IOleInPlaceObjectWindowlessImpl@VCOPOSPINPad@@@ATL@@UEAAJPEAPEAUIDropTarget@@@Z 0000000180015db0 f i PINPad.obj
 0001:00014e20       ?GetExtent@?$IOleObjectImpl@VCOPOSPINPad@@@ATL@@UEAAJKPEAUtagSIZE@@@Z 0000000180015e20 f i PINPad.obj
 0001:00014ee0       ?GetExtent@?$IViewObjectExImpl@VCOPOSPINPad@@@ATL@@UEAAJKJPEAUtagDVTARGETDEVICE@@PEAUtagSIZE@@@Z 0000000180015ee0 f i PINPad.obj
 0001:00014fe0       ?GetGITPtr@CAtlModule@ATL@@UEAAJPEAPEAUIGlobalInterfaceTable@@@Z 0000000180015fe0 f i PINPad.obj
 0001:00015110       ?GetGUID@?$IProvideClassInfo2Impl@$1?CLSID_OPOSPINPad@@3U_GUID@@B$1?DIID__IOPOSPINPadEvents@@3U2@B$1?LIBID_OposPINPad_CCO@@3U2@B$00$0A@VCComTypeInfoHolder@ATL@@@ATL@@UEAAJKPEAU_GUID@@@Z 0000000180016110 f i PINPad.obj
 0001:00015190       ?GetIDsOfNames@?$IDispatchImpl@UIOPOSPINPad@@$1?IID_IOPOSPINPad@@3U_GUID@@B$1?LIBID_OposPINPad_CCO@@3U3@B$00$0A@VCComTypeInfoHolder@ATL@@@ATL@@UEAAJAEBU_GUID@@PEAPEA_WIKPEAJ@Z 0000000180016190 f i PINPad.obj
 0001:000151e0       ?GetIDsOfNames@CComTypeInfoHolder@ATL@@QEAAJAEBU_GUID@@PEAPEA_WIKPEAJ@Z 00000001800161e0 f i PINPad.obj
 0001:000153f0       ?GetInterfaceSafetyOptions@?$IObjectSafetyImpl@VCOPOSPINPad@@$02@ATL@@UEAAJAEBU_GUID@@PEAK1@Z 00000001800163f0 f i PINPad.obj
 0001:00015590       ?GetKeyAt@?$CSimpleMap@PEA_WPEA_WVCExpansionVectorEqualHelper@ATL@@@ATL@@QEBAAEAPEA_WH@Z 0000000180016590 f i PINPad.obj
 0001:00015630       ?GetLockCount@CAtlModule@ATL@@UEAAJXZ 0000000180016630 f i PINPad.obj
 0001:00015640       ?GetMiscStatus@?$IOleObjectImpl@VCOPOSPINPad@@@ATL@@UEAAJKPEAK@Z 0000000180016640 f i PINPad.obj
 0001:000156c0       ?GetMoniker@?$IOleObjectImpl@VCOPOSPINPad@@@ATL@@UEAAJKKPEAPEAUIMoniker@@@Z 00000001800166c0 f i PINPad.obj
 0001:00015740       ?GetNaturalExtent@?$IViewObjectExImpl@VCOPOSPINPad@@@ATL@@UEAAJKJPEAUtagDVTARGETDEVICE@@PEAUHDC__@@PEAUtagExtentInfo@@PEAUtagSIZE@@@Z 0000000180016740 f i PINPad.obj
 0001:000158c0       ?GetObjectCLSID@?$CComCoClass@VCOPOSPINPad@@$1?CLSID_OPOSPINPad@@3U_GUID@@B@ATL@@SAAEBU_GUID@@XZ 00000001800168c0 f i PINPad.obj
 0001:000158d0       ?GetPages@?$ISpecifyPropertyPagesImpl@VCOPOSPINPad@@@ATL@@UEAAJPEAUtagCAUUID@@@Z 00000001800168d0 f i PINPad.obj
 0001:00015950       ?GetPagesHelper@?$ISpecifyPropertyPagesImpl@VCOPOSPINPad@@@ATL@@IEAAJPEAUtagCAUUID@@PEBUATL_PROPMAP_ENTRY@2@@Z 0000000180016950 f i PINPad.obj
 0001:00015bb0       ?GetProperty@?$CComPtr@UIDispatch@@@ATL@@QEAAJJPEAUtagVARIANT@@@Z 0000000180016bb0 f i PINPad.obj
 0001:00015be0       ?GetProperty@?$CComPtr@UIDispatch@@@ATL@@SAJPEAUIDispatch@@JPEAUtagVARIANT@@@Z 0000000180016be0 f i PINPad.obj
 0001:00015db0       ?GetPropertyMap@COPOSPINPad@@SAPEBUATL_PROPMAP_ENTRY@ATL@@XZ 0000000180016db0 f i PINPad.obj
 0001:00015dc0       ?GetRect@?$IViewObjectExImpl@VCOPOSPINPad@@@ATL@@UEAAJKPEAU_RECTL@@@Z 0000000180016dc0 f i PINPad.obj
 0001:00015e40       ?GetSize@?$CSimpleMap@PEA_WPEA_WVCExpansionVectorEqualHelper@ATL@@@ATL@@QEBAHXZ 0000000180016e40 f i PINPad.obj
 0001:00015e50       ?GetSize@CComDynamicUnkArray@ATL@@QEBAHXZ 0000000180016e50 f i PINPad.obj
 0001:00015e60       ?GetSizeMax@?$IPersistStreamInitImpl@VCOPOSPINPad@@@ATL@@UEAAJPEAT_ULARGE_INTEGER@@@Z 0000000180016e60 f i PINPad.obj
 0001:00016600       ?GetSizeMax@CComVariant@ATL@@QEBAJPEAT_ULARGE_INTEGER@@@Z 0000000180017600 f i PINPad.obj
 0001:00016a50       ?GetStreamSize@CComBSTR@ATL@@SAKPEA_W@Z 0000000180017a50 f i PINPad.obj
 0001:00016a90       ?GetTI@CComTypeInfoHolder@ATL@@QEAAJK@Z 0000000180017a90 f i PINPad.obj
 0001:00017360       ?GetTI@CComTypeInfoHolder@ATL@@QEAAJKPEAPEAUITypeInfo@@@Z 0000000180018360 f i PINPad.obj
 0001:00017440       ?GetTypeInfo@?$IDispatchImpl@UIOPOSPINPad@@$1?IID_IOPOSPINPad@@3U_GUID@@B$1?LIBID_OposPINPad_CCO@@3U3@B$00$0A@VCComTypeInfoHolder@ATL@@@ATL@@UEAAJIKPEAPEAUITypeInfo@@@Z 0000000180018440 f i PINPad.obj
 0001:00017480       ?GetTypeInfo@CComTypeInfoHolder@ATL@@QEAAJIKPEAPEAUITypeInfo@@@Z 0000000180018480 f i PINPad.obj
 0001:000174c0       ?GetTypeInfoCount@?$IDispatchImpl@UIOPOSPINPad@@$1?IID_IOPOSPINPad@@3U_GUID@@B$1?LIBID_OposPINPad_CCO@@3U3@B$00$0A@VCComTypeInfoHolder@ATL@@@ATL@@UEAAJPEAI@Z 00000001800184c0 f i PINPad.obj
 0001:000174f0       ?GetUnknown@CComDynamicUnkArray@ATL@@QEAAPEAUIUnknown@@K@Z 00000001800184f0 f i PINPad.obj
 0001:00017580       ?GetUnknown@COPOSPINPad@@QEAAPEAUIUnknown@@XZ 0000000180018580 f i PINPad.obj
 0001:000175a0       ?GetUserClassID@?$IOleObjectImpl@VCOPOSPINPad@@@ATL@@UEAAJPEAU_GUID@@@Z 00000001800185a0 f i PINPad.obj
 0001:00017660       ?GetUserType@?$IOleObjectImpl@VCOPOSPINPad@@@ATL@@UEAAJKPEAPEA_W@Z 0000000180018660 f i PINPad.obj
 0001:000176e0       ?GetValueAt@?$CSimpleMap@PEA_WPEA_WVCExpansionVectorEqualHelper@ATL@@@ATL@@QEBAAEAPEA_WH@Z 00000001800186e0 f i PINPad.obj
 0001:00017780       ?GetViewStatus@?$IViewObjectExImpl@VCOPOSPINPad@@@ATL@@UEAAJPEAK@Z 0000000180018780 f i PINPad.obj
 0001:00017870       ?GetWNDPROC@CWndProcThunk@ATL@@QEAAP6A_JPEAUHWND__@@I_K_J@ZXZ 0000000180018870 f i PINPad.obj
 0001:000178a0       ?GetWindow@?$IOleInPlaceActiveObjectImpl@VCOPOSPINPad@@@ATL@@UEAAJPEAPEAUHWND__@@@Z 00000001800188a0 f i PINPad.obj
 0001:00017990       ?GetWindow@?$IOleInPlaceObjectWindowlessImpl@VCOPOSPINPad@@@ATL@@UEAAJPEAPEAUHWND__@@@Z 0000000180018990 f i PINPad.obj
 0001:00017a80       ?GetWindowProc@?$CWindowImplBaseT@VCWindow@ATL@@V?$CWinTraits@$0FGAAAAAA@$0A@@2@@ATL@@UEAAP6A_JPEAUHWND__@@I_K_J@ZXZ 0000000180018a80 f i PINPad.obj
 0001:00017a90       ?GetWndCaption@?$CWindowImpl@VCOPOSPINPad@@VCWindow@ATL@@V?$CWinTraits@$0FGAAAAAA@$0A@@3@@ATL@@SAPEB_WXZ 0000000180018a90 f i PINPad.obj
 0001:00017aa0       ?GetWndClassInfo@?$CWindowImpl@VCOPOSPINPad@@VCWindow@ATL@@V?$CWinTraits@$0FGAAAAAA@$0A@@3@@ATL@@SAAEAU_ATL_WNDCLASSINFOW@2@XZ 0000000180018aa0 f i PINPad.obj
 0001:00017ab0       ?GetWndClassName@CWindow@ATL@@SAPEB_WXZ 0000000180018ab0 f i PINPad.obj
 0001:00017ac0       ?GetWndExStyle@?$CWinTraits@$0FGAAAAAA@$0A@@ATL@@SAKK@Z 0000000180018ac0 f i PINPad.obj
 0001:00017af0       ?GetWndExStyle@?$CWindowImplBaseT@VCWindow@ATL@@V?$CWinTraits@$0FGAAAAAA@$0A@@2@@ATL@@SAKK@Z 0000000180018af0 f i PINPad.obj
 0001:00017b10       ?GetWndStyle@?$CWinTraits@$0FGAAAAAA@$0A@@ATL@@SAKK@Z 0000000180018b10 f i PINPad.obj
 0001:00017b40       ?GetWndStyle@?$CWindowImplBaseT@VCWindow@ATL@@V?$CWinTraits@$0FGAAAAAA@$0A@@2@@ATL@@SAKK@Z 0000000180018b40 f i PINPad.obj
 0001:00017b60       ?GetZoomInfo@CComControlBase@ATL@@QEAAXAEAUATL_DRAWINFO@@@Z 0000000180018b60 f i PINPad.obj
 0001:00017d10       ?HKeyFromString@CRegParser@ATL@@KAPEAUHKEY__@@PEA_W@Z 0000000180018d10 f i PINPad.obj
 0001:00017d80       ?HandsOffStorage@?$IPersistStorageImpl@VCOPOSPINPad@@@ATL@@UEAAJXZ 0000000180018d80 f i PINPad.obj
 0001:00017de0       ?HasSubKeys@CRegParser@ATL@@IEAAHPEAUHKEY__@@@Z 0000000180018de0 f i PINPad.obj
 0001:00017f50       ?IDataObject_GetData@CComControlBase@ATL@@QEAAJPEAUtagFORMATETC@@PEAUtagSTGMEDIUM@@@Z 0000000180018f50 f i PINPad.obj
 0001:00018400       ?IOleInPlaceObject_InPlaceDeactivate@CComControlBase@ATL@@QEAAJXZ 0000000180019400 f i PINPad.obj
 0001:00018670       ?IOleInPlaceObject_SetObjectRects@CComControlBase@ATL@@QEAAJPEBUtagRECT@@0@Z 0000000180019670 f i PINPad.obj
 0001:00018860       ?IOleInPlaceObject_UIDeactivate@CComControlBase@ATL@@QEAAJXZ 0000000180019860 f i PINPad.obj
 0001:00018ad0       ?IOleObject_Advise@CComControlBase@ATL@@QEAAJPEAUIAdviseSink@@PEAK@Z 0000000180019ad0 f i PINPad.obj
 0001:00018b70       ?IOleObject_Close@CComControlBase@ATL@@QEAAJK@Z 0000000180019b70 f i PINPad.obj
 0001:00018ee0       ?IOleObject_GetClientSite@CComControlBase@ATL@@QEAAJPEAPEAUIOleClientSite@@@Z 0000000180019ee0 f i PINPad.obj
 0001:00018fa0       ?IOleObject_SetClientSite@CComControlBase@ATL@@QEAAJPEAUIOleClientSite@@@Z 0000000180019fa0 f i PINPad.obj
 0001:000190a0       ?IOleObject_SetExtent@CComControlBase@ATL@@QEAAJKPEAUtagSIZE@@@Z 000000018001a0a0 f i PINPad.obj
 0001:000191f0       ?IPSI_GetIPersistStreamInit@?$IPersistStorageImpl@VCOPOSPINPad@@@ATL@@AEAAPEAUIPersistStreamInit@@XZ 000000018001a1f0 f i PINPad.obj
 0001:000192b0       ?IPersistStreamInit_Load@?$IPersistStreamInitImpl@VCOPOSPINPad@@@ATL@@QEAAJPEAUIStream@@PEBUATL_PROPMAP_ENTRY@2@@Z 000000018001a2b0 f i PINPad.obj
 0001:00019340       ?IPersistStreamInit_Save@?$IPersistStreamInitImpl@VCOPOSPINPad@@@ATL@@QEAAJPEAUIStream@@HPEBUATL_PROPMAP_ENTRY@2@@Z 000000018001a340 f i PINPad.obj
 0001:000193e0       ?IQuickActivate_QuickActivate@CComControlBase@ATL@@QEAAJPEAUtagQACONTAINER@@PEAUtagQACONTROL@@@Z 000000018001a3e0 f i PINPad.obj
 0001:00019c20       ?IViewObject_Draw@CComControlBase@ATL@@QEAAJKJPEAXPEAUtagDVTARGETDEVICE@@PEAUHDC__@@2PEBU_RECTL@@3@Z 000000018001ac20 f i PINPad.obj
 0001:0001a070       ?InPlaceActivate@CComControlBase@ATL@@QEAAJJPEBUtagRECT@@@Z 000000018001b070 f i PINPad.obj
 0001:0001ac10       ?InPlaceDeactivate@?$IOleInPlaceObjectWindowlessImpl@VCOPOSPINPad@@@ATL@@UEAAJXZ 000000018001bc10 f i PINPad.obj
 0001:0001aca0       ?Increment@CComMultiThreadModel@ATL@@SAKPEAJ@Z 000000018001bca0 f i PINPad.obj
 0001:0001acc0       ?Increment@CComSingleThreadModel@ATL@@SAKPEAJ@Z 000000018001bcc0 f i PINPad.obj
 0001:0001ace0       ?Init@?$CComEnumImpl@UIEnumConnectionPoints@@$1?_GUID_b196b285_bab4_101a_b69c_00aa00341d07@@3U__s_GUID@@BPEAUIConnectionPoint@@V?$_CopyInterface@UIConnectionPoint@@@ATL@@@ATL@@QEAAJPEAPEAUIConnectionPoint@@0PEAUIUnknown@@W4CComEnumFlags@2@@Z 000000018001bce0 f i PINPad.obj
 0001:0001afc0       ?Init@?$CComEnumImpl@UIEnumConnections@@$1?_GUID_b196b287_bab4_101a_b69c_00aa00341d07@@3U__s_GUID@@BUtagCONNECTDATA@@V?$_Copy@UtagCONNECTDATA@@@ATL@@@ATL@@QEAAJPEAUtagCONNECTDATA@@0PEAUIUnknown@@W4CComEnumFlags@2@@Z 000000018001bfc0 f i PINPad.obj
 0001:0001b2a0       ?Init@CComFakeCriticalSection@ATL@@QEAAJXZ 000000018001c2a0 f i PINPad.obj
 0001:0001b2b0       ?Init@CComModule@ATL@@QEAAJPEAU_ATL_OBJMAP_ENTRY30@2@PEAUHINSTANCE__@@PEBU_GUID@@@Z 000000018001c2b0 f i PINPad.obj
 0001:0001b390       ?Init@CComSafeDeleteCriticalSection@ATL@@QEAAJXZ 000000018001c390 f i PINPad.obj
 0001:0001b410       ?Init@CDynamicStdCallThunk2@ATL@@QEAAH_KPEAX@Z 000000018001c410 f i PINPad.obj
 0001:0001b470       ?Init@CWndProcThunk@ATL@@QEAAHP6A_JPEAUHWND__@@I_K_J@ZPEAX@Z 000000018001c470 f i PINPad.obj
 0001:0001b4b0       ?InitFromData@?$IOleObjectImpl@VCOPOSPINPad@@@ATL@@UEAAJPEAUIDataObject@@HK@Z 000000018001c4b0 f i PINPad.obj
 0001:0001b530       ?InitLibId@?$CAtlModuleT@VCComModule@ATL@@@ATL@@SAXXZ 000000018001c530 f i PINPad.obj
 0001:0001b540       ?InitNew@?$IPersistStorageImpl@VCOPOSPINPad@@@ATL@@UEAAJPEAUIStorage@@@Z 000000018001c540 f i PINPad.obj
 0001:0001b630       ?InitNew@?$IPersistStreamInitImpl@VCOPOSPINPad@@@ATL@@UEAAJXZ 000000018001c630 f i PINPad.obj
 0001:0001b6d0       ?InlineIsEqualUnknown@ATL@@YAHAEBU_GUID@@@Z 000000018001c6d0 f i PINPad.obj
 0001:0001b750       ?InternalAddRef@?$CComObjectRootEx@VCComMultiThreadModel@ATL@@@ATL@@QEAAKXZ 000000018001c750 f i PINPad.obj
 0001:0001b7c0       ?InternalAddRef@?$CComObjectRootEx@VCComSingleThreadModel@ATL@@@ATL@@QEAAKXZ 000000018001c7c0 f i PINPad.obj
 0001:0001b830       ?InternalFinalConstructAddRef@CComObjectRootBase@ATL@@QEAAXXZ 000000018001c830 f i PINPad.obj
 0001:0001b840       ?InternalFinalConstructAddRef@COPOSPINPad@@QEAAXXZ 000000018001c840 f i PINPad.obj
 0001:0001b870       ?InternalFinalConstructRelease@CComObjectRootBase@ATL@@QEAAXXZ 000000018001c870 f i PINPad.obj
 0001:0001b8d0       ?InternalFinalConstructRelease@COPOSPINPad@@QEAAXXZ 000000018001c8d0 f i PINPad.obj
 0001:0001b900       ?InternalGetSite@CComControlBase@ATL@@QEAAJAEBU_GUID@@PEAPEAX@Z 000000018001c900 f i PINPad.obj
 0001:0001b9d0       ?InternalQueryInterface@CComObjectRootBase@ATL@@SAJPEAXPEBU_ATL_INTMAP_ENTRY@2@AEBU_GUID@@PEAPEAX@Z 000000018001c9d0 f i PINPad.obj
 0001:0001bae0       ?InternalRelease@?$CComObjectRootEx@VCComMultiThreadModel@ATL@@@ATL@@QEAAKXZ 000000018001cae0 f i PINPad.obj
 0001:0001bb50       ?InternalRelease@?$CComObjectRootEx@VCComSingleThreadModel@ATL@@@ATL@@QEAAKXZ 000000018001cb50 f i PINPad.obj
 0001:0001bbc0       ?InternalSetAtIndex@?$CSimpleArray@GV?$CSimpleArrayEqualHelper@G@ATL@@@ATL@@QEAAXHAEBG@Z 000000018001cbc0 f i PINPad.obj
 0001:0001bc30       ?InternalSetAtIndex@?$CSimpleMap@PEA_WPEA_WVCExpansionVectorEqualHelper@ATL@@@ATL@@QEAAXHAEBQEA_W0@Z 000000018001cc30 f i PINPad.obj
 0001:0001bcf0       ?Invoke@?$IDispatchImpl@UIOPOSPINPad@@$1?IID_IOPOSPINPad@@3U_GUID@@B$1?LIBID_OposPINPad_CCO@@3U3@B$00$0A@VCComTypeInfoHolder@ATL@@@ATL@@UEAAJJAEBU_GUID@@KGPEAUtagDISPPARAMS@@PEAUtagVARIANT@@PEAUtagEXCEPINFO@@PEAI@Z 000000018001ccf0 f i PINPad.obj
 0001:0001bd80       ?Invoke@CComTypeInfoHolder@ATL@@QEAAJPEAUIDispatch@@JAEBU_GUID@@KGPEAUtagDISPPARAMS@@PEAUtagVARIANT@@PEAUtagEXCEPINFO@@PEAI@Z 000000018001cd80 f i PINPad.obj
 0001:0001be30       ?IsDirty@?$IPersistStorageImpl@VCOPOSPINPad@@@ATL@@UEAAJXZ 000000018001ce30 f i PINPad.obj
 0001:0001bf20       ?IsDirty@?$IPersistStreamInitImpl@VCOPOSPINPad@@@ATL@@UEAAJXZ 000000018001cf20 f i PINPad.obj
 0001:0001bfd0       ?IsEqualKey@CExpansionVectorEqualHelper@ATL@@SA_NQEA_W0@Z 000000018001cfd0 f i PINPad.obj
 0001:0001c000       ?IsEqualObject@?$CComPtrBase@UIOleClientSite@@@ATL@@QEAA_NPEAUIUnknown@@@Z 000000018001d000 f i PINPad.obj
 0001:0001c150       ?IsEqualObject@?$CComPtrBase@UITypeInfo@@@ATL@@QEAA_NPEAUIUnknown@@@Z 000000018001d150 f i PINPad.obj
 0001:0001c2a0       ?IsSpace@CRegParser@ATL@@IEAAH_W@Z 000000018001d2a0 f i PINPad.obj
 0001:0001c2e0       ?IsUpToDate@?$IOleObjectImpl@VCOPOSPINPad@@@ATL@@UEAAJXZ 000000018001d2e0 f i PINPad.obj
 0001:0001c340       ?Length@CComBSTR@ATL@@QEBAIXZ 000000018001d340 f i PINPad.obj
 0001:0001c360       ?Load@?$IPersistStorageImpl@VCOPOSPINPad@@@ATL@@UEAAJPEAUIStorage@@@Z 000000018001d360 f i PINPad.obj
 0001:0001c510       ?Load@?$IPersistStreamInitImpl@VCOPOSPINPad@@@ATL@@UEAAJPEAUIStream@@@Z 000000018001d510 f i PINPad.obj
 0001:0001c5c0       ?LoadCursorW@AtlModuleRegisterWndClassInfoParamW@ATL@@SAPEAUHICON__@@PEAUHINSTANCE__@@PEB_W@Z 000000018001d5c0 f i PINPad.obj
 0001:0001c5f0       ?LoadNameCache@CComTypeInfoHolder@ATL@@QEAAJPEAUITypeInfo@@@Z 000000018001d5f0 f i PINPad.obj
 0001:0001c930       ?Lock@?$CComCritSecLock@VCComCriticalSection@ATL@@@ATL@@QEAAJXZ 000000018001d930 f i PINPad.obj
 0001:0001ca00       ?Lock@?$CComObjectRootEx@VCComSingleThreadModel@ATL@@@ATL@@QEAAXXZ 000000018001da00 f i PINPad.obj
 0001:0001ca10       ?Lock@CAtlModule@ATL@@UEAAJXZ 000000018001da10 f i PINPad.obj
 0001:0001ca40       ?Lock@CComCriticalSection@ATL@@QEAAJXZ 000000018001da40 f i PINPad.obj
 0001:0001ca60       ?Lock@CComFakeCriticalSection@ATL@@QEAAJXZ 000000018001da60 f i PINPad.obj
 0001:0001ca70       ?LockServer@CComClassFactory@ATL@@UEAAJH@Z 000000018001da70 f i PINPad.obj
 0001:0001cac0       ?Lookup@?$CSimpleMap@PEA_WPEA_WVCExpansionVectorEqualHelper@ATL@@@ATL@@QEBAPEA_WAEBQEA_W@Z 000000018001dac0 f i PINPad.obj
 0001:0001cb10       ?Next@?$CComEnumImpl@UIEnumConnectionPoints@@$1?_GUID_b196b285_bab4_101a_b69c_00aa00341d07@@3U__s_GUID@@BPEAUIConnectionPoint@@V?$_CopyInterface@UIConnectionPoint@@@ATL@@@ATL@@UEAAJKPEAPEAUIConnectionPoint@@PEAK@Z 000000018001db10 f i PINPad.obj
 0001:0001ccc0       ?Next@?$CComEnumImpl@UIEnumConnections@@$1?_GUID_b196b287_bab4_101a_b69c_00aa00341d07@@3U__s_GUID@@BUtagCONNECTDATA@@V?$_Copy@UtagCONNECTDATA@@@ATL@@@ATL@@UEAAJKPEAUtagCONNECTDATA@@PEAK@Z 000000018001dcc0 f i PINPad.obj
 0001:0001ce70       ?NextToken@CRegParser@ATL@@IEAAJPEA_W@Z 000000018001de70 f i PINPad.obj
 0001:0001d1f0       ?OLE2CT_EX@@YAPEB_WPEB_WI@Z 000000018001e1f0 f i PINPad.obj
 0001:0001d210       ?OLE2CT_EX_DEF@@YAPEB_WPEB_W@Z 000000018001e210 f i PINPad.obj
 0001:0001d220       ?OLE2T_EX@@YAPEA_WPEA_WI@Z 000000018001e220 f i PINPad.obj
 0001:0001d240       ?OnAmbientPropertyChange@?$IOleControlImpl@VCOPOSPINPad@@@ATL@@UEAAJJ@Z 000000018001e240 f i PINPad.obj
 0001:0001d2f0       ?OnDocWindowActivate@?$IOleInPlaceActiveObjectImpl@VCOPOSPINPad@@@ATL@@UEAAJH@Z 000000018001e2f0 f i PINPad.obj
 0001:0001d390       ?OnDrawAdvanced@CComControlBase@ATL@@UEAAJAEAUATL_DRAWINFO@@@Z 000000018001e390 f i PINPad.obj
 0001:0001d5e0       ?OnFinalMessage@?$CWindowImplBaseT@VCWindow@ATL@@V?$CWinTraits@$0FGAAAAAA@$0A@@2@@ATL@@UEAAXPEAUHWND__@@@Z 000000018001e5e0 f i PINPad.obj
 0001:0001d5f0       ?OnFrameWindowActivate@?$IOleInPlaceActiveObjectImpl@VCOPOSPINPad@@@ATL@@UEAAJH@Z 000000018001e5f0 f i PINPad.obj
 0001:0001d650       ?OnKillFocus@CComControlBase@ATL@@QEAA_JI_K_JAEAH@Z 000000018001e650 f i PINPad.obj
 0001:0001d750       ?OnMnemonic@?$IOleControlImpl@VCOPOSPINPad@@@ATL@@UEAAJPEAUtagMSG@@@Z 000000018001e750 f i PINPad.obj
 0001:0001d7c0       ?OnMouseActivate@CComControlBase@ATL@@QEAA_JI_K_JAEAH@Z 000000018001e7c0 f i PINPad.obj
 0001:0001d960       ?OnPaint@CComControlBase@ATL@@QEAA_JI_K_JAEAH@Z 000000018001e960 f i PINPad.obj
 0001:0001daf0       ?OnPostVerbDiscardUndo@?$IOleObjectImpl@VCOPOSPINPad@@@ATL@@QEAAJXZ 000000018001eaf0 f i PINPad.obj
 0001:0001db00       ?OnPostVerbHide@?$IOleObjectImpl@VCOPOSPINPad@@@ATL@@QEAAJXZ 000000018001eb00 f i PINPad.obj
 0001:0001db10       ?OnPostVerbInPlaceActivate@?$IOleObjectImpl@VCOPOSPINPad@@@ATL@@QEAAJXZ 000000018001eb10 f i PINPad.obj
 0001:0001db20       ?OnPostVerbOpen@?$IOleObjectImpl@VCOPOSPINPad@@@ATL@@QEAAJXZ 000000018001eb20 f i PINPad.obj
 0001:0001db30       ?OnPostVerbShow@?$IOleObjectImpl@VCOPOSPINPad@@@ATL@@QEAAJXZ 000000018001eb30 f i PINPad.obj
 0001:0001db40       ?OnPostVerbUIActivate@?$IOleObjectImpl@VCOPOSPINPad@@@ATL@@QEAAJXZ 000000018001eb40 f i PINPad.obj
 0001:0001db50       ?OnPreVerbDiscardUndo@?$IOleObjectImpl@VCOPOSPINPad@@@ATL@@QEAAJXZ 000000018001eb50 f i PINPad.obj
 0001:0001db60       ?OnPreVerbHide@?$IOleObjectImpl@VCOPOSPINPad@@@ATL@@QEAAJXZ 000000018001eb60 f i PINPad.obj
 0001:0001db70       ?OnPreVerbInPlaceActivate@?$IOleObjectImpl@VCOPOSPINPad@@@ATL@@QEAAJXZ 000000018001eb70 f i PINPad.obj
 0001:0001db80       ?OnPreVerbOpen@?$IOleObjectImpl@VCOPOSPINPad@@@ATL@@QEAAJXZ 000000018001eb80 f i PINPad.obj
 0001:0001db90       ?OnPreVerbShow@?$IOleObjectImpl@VCOPOSPINPad@@@ATL@@QEAAJXZ 000000018001eb90 f i PINPad.obj
 0001:0001dba0       ?OnPreVerbUIActivate@?$IOleObjectImpl@VCOPOSPINPad@@@ATL@@QEAAJXZ 000000018001eba0 f i PINPad.obj
 0001:0001dbb0       ?OnSetFocus@CComControlBase@ATL@@QEAA_JI_K_JAEAH@Z 000000018001ebb0 f i PINPad.obj
 0001:0001ddb0       ?OnWindowMessage@?$IOleInPlaceObjectWindowlessImpl@VCOPOSPINPad@@@ATL@@UEAAJI_K_JPEA_J@Z 000000018001edb0 f i PINPad.obj
 0001:0001dfd0       ?Open@CRegKey@ATL@@QEAAJPEAUHKEY__@@PEB_WK@Z 000000018001efd0 f i PINPad.obj
 0001:0001e150       ?OuterAddRef@CComObjectRootBase@ATL@@QEAAKXZ 000000018001f150 f i PINPad.obj
 0001:0001e180       ?OuterQueryInterface@CComObjectRootBase@ATL@@QEAAJAEBU_GUID@@PEAPEAX@Z 000000018001f180 f i PINPad.obj
 0001:0001e1c0       ?OuterRelease@CComObjectRootBase@ATL@@QEAAKXZ 000000018001f1c0 f i PINPad.obj
 0001:0001e1f0       ?PreProcessBuffer@CRegParser@ATL@@QEAAJPEA_WPEAPEA_W@Z 000000018001f1f0 f i PINPad.obj
 0001:0001e8d0       ?PreTranslateAccelerator@CComControlBase@ATL@@QEAAHPEAUtagMSG@@AEAJ@Z 000000018001f8d0 f i PINPad.obj
 0001:0001e8f0       ?ProcessWindowMessage@?$CComControl@VCOPOSPINPad@@V?$CWindowImpl@VCOPOSPINPad@@VCWindow@ATL@@V?$CWinTraits@$0FGAAAAAA@$0A@@3@@ATL@@@ATL@@UEAAHPEAUHWND__@@I_K_JAEA_JK@Z 000000018001f8f0 f i PINPad.obj
 0001:0001eb70       ?ProcessWindowMessage@COPOSPINPad@@UEAAHPEAUHWND__@@I_K_JAEA_JK@Z 000000018001fb70 f i PINPad.obj
 0001:0001ecd0       ?PutProperty@?$CComPtr@UIDispatch@@@ATL@@QEAAJJPEAUtagVARIANT@@@Z 000000018001fcd0 f i PINPad.obj
 0001:0001ed00       ?PutProperty@?$CComPtr@UIDispatch@@@ATL@@SAJPEAUIDispatch@@JPEAUtagVARIANT@@@Z 000000018001fd00 f i PINPad.obj
 0001:0001efb0       ?QueryGetData@?$IDataObjectImpl@VCOPOSPINPad@@@ATL@@UEAAJPEAUtagFORMATETC@@@Z 000000018001ffb0 f i PINPad.obj
 0001:0001f020       ?QueryHitPoint@?$IViewObjectExImpl@VCOPOSPINPad@@@ATL@@UEAAJKPEBUtagRECT@@UtagPOINT@@JPEAK@Z 0000000180020020 f i PINPad.obj
 0001:0001f180       ?QueryHitRect@?$IViewObjectExImpl@VCOPOSPINPad@@@ATL@@UEAAJKPEBUtagRECT@@0JPEAK@Z 0000000180020180 f i PINPad.obj
 0001:0001f350       ?QueryInterface@?$CComAggObject@VCOPOSPINPad@@@ATL@@UEAAJAEBU_GUID@@PEAPEAX@Z 0000000180020350 f i PINPad.obj
 0001:0001f420       ?QueryInterface@?$CComContainedObject@VCOPOSPINPad@@@ATL@@UEAAJAEBU_GUID@@PEAPEAX@Z 0000000180020420 f i PINPad.obj
 0001:0001f458       ?QueryInterface@?$CComContainedObject@VCOPOSPINPad@@@ATL@@WBAA@EAAJAEBU_GUID@@PEAPEAX@Z 0000000180020458 f i PINPad.obj
 0001:0001f464       ?QueryInterface@?$CComContainedObject@VCOPOSPINPad@@@ATL@@WBAI@EAAJAEBU_GUID@@PEAPEAX@Z 0000000180020464 f i PINPad.obj
 0001:0001f470       ?QueryInterface@?$CComContainedObject@VCOPOSPINPad@@@ATL@@WBBA@EAAJAEBU_GUID@@PEAPEAX@Z 0000000180020470 f i PINPad.obj
 0001:0001f47c       ?QueryInterface@?$CComContainedObject@VCOPOSPINPad@@@ATL@@WBBI@EAAJAEBU_GUID@@PEAPEAX@Z 000000018002047c f i PINPad.obj
 0001:0001f488       ?QueryInterface@?$CComContainedObject@VCOPOSPINPad@@@ATL@@WLI@EAAJAEBU_GUID@@PEAPEAX@Z 0000000180020488 f i PINPad.obj
 0001:0001f494       ?QueryInterface@?$CComContainedObject@VCOPOSPINPad@@@ATL@@WMA@EAAJAEBU_GUID@@PEAPEAX@Z 0000000180020494 f i PINPad.obj
 0001:0001f4a0       ?QueryInterface@?$CComContainedObject@VCOPOSPINPad@@@ATL@@WMI@EAAJAEBU_GUID@@PEAPEAX@Z 00000001800204a0 f i PINPad.obj
 0001:0001f4ac       ?QueryInterface@?$CComContainedObject@VCOPOSPINPad@@@ATL@@WNA@EAAJAEBU_GUID@@PEAPEAX@Z 00000001800204ac f i PINPad.obj
 0001:0001f4b8       ?QueryInterface@?$CComContainedObject@VCOPOSPINPad@@@ATL@@WNI@EAAJAEBU_GUID@@PEAPEAX@Z 00000001800204b8 f i PINPad.obj
 0001:0001f4c4       ?QueryInterface@?$CComContainedObject@VCOPOSPINPad@@@ATL@@WOA@EAAJAEBU_GUID@@PEAPEAX@Z 00000001800204c4 f i PINPad.obj
 0001:0001f4d0       ?QueryInterface@?$CComContainedObject@VCOPOSPINPad@@@ATL@@WOI@EAAJAEBU_GUID@@PEAPEAX@Z 00000001800204d0 f i PINPad.obj
 0001:0001f4dc       ?QueryInterface@?$CComContainedObject@VCOPOSPINPad@@@ATL@@WPA@EAAJAEBU_GUID@@PEAPEAX@Z 00000001800204dc f i PINPad.obj
 0001:0001f4e8       ?QueryInterface@?$CComContainedObject@VCOPOSPINPad@@@ATL@@WPI@EAAJAEBU_GUID@@PEAPEAX@Z 00000001800204e8 f i PINPad.obj
 0001:0001f500       ?QueryInterface@?$CComObject@V?$CComEnum@UIEnumConnectionPoints@@$1?_GUID_b196b285_bab4_101a_b69c_00aa00341d07@@3U__s_GUID@@BPEAUIConnectionPoint@@V?$_CopyInterface@UIConnectionPoint@@@ATL@@VCComSingleThreadModel@6@@ATL@@@ATL@@UEAAJAEBU_GUID@@PEAPEAX@Z 0000000180020500 f i PINPad.obj
 0001:0001f530       ?QueryInterface@?$CComObject@V?$CComEnum@UIEnumConnections@@$1?_GUID_b196b287_bab4_101a_b69c_00aa00341d07@@3U__s_GUID@@BUtagCONNECTDATA@@V?$_Copy@UtagCONNECTDATA@@@ATL@@VCComSingleThreadModel@6@@ATL@@@ATL@@UEAAJAEBU_GUID@@PEAPEAX@Z 0000000180020530 f i PINPad.obj
 0001:0001f560       ?QueryInterface@?$CComObject@VCOPOSPINPad@@@ATL@@UEAAJAEBU_GUID@@PEAPEAX@Z 0000000180020560 f i PINPad.obj
 0001:0001f590       ?QueryInterface@?$CComObject@VCOPOSPINPad@@@ATL@@WBAA@EAAJAEBU_GUID@@PEAPEAX@Z 0000000180020590 f i PINPad.obj
 0001:0001f59c       ?QueryInterface@?$CComObject@VCOPOSPINPad@@@ATL@@WBAI@EAAJAEBU_GUID@@PEAPEAX@Z 000000018002059c f i PINPad.obj
 0001:0001f5a8       ?QueryInterface@?$CComObject@VCOPOSPINPad@@@ATL@@WBBA@EAAJAEBU_GUID@@PEAPEAX@Z 00000001800205a8 f i PINPad.obj
 0001:0001f5b4       ?QueryInterface@?$CComObject@VCOPOSPINPad@@@ATL@@WBBI@EAAJAEBU_GUID@@PEAPEAX@Z 00000001800205b4 f i PINPad.obj
 0001:0001f5c0       ?QueryInterface@?$CComObject@VCOPOSPINPad@@@ATL@@WLI@EAAJAEBU_GUID@@PEAPEAX@Z 00000001800205c0 f i PINPad.obj
 0001:0001f5cc       ?QueryInterface@?$CComObject@VCOPOSPINPad@@@ATL@@WMA@EAAJAEBU_GUID@@PEAPEAX@Z 00000001800205cc f i PINPad.obj
 0001:0001f5d8       ?QueryInterface@?$CComObject@VCOPOSPINPad@@@ATL@@WMI@EAAJAEBU_GUID@@PEAPEAX@Z 00000001800205d8 f i PINPad.obj
 0001:0001f5e4       ?QueryInterface@?$CComObject@VCOPOSPINPad@@@ATL@@WNA@EAAJAEBU_GUID@@PEAPEAX@Z 00000001800205e4 f i PINPad.obj
 0001:0001f5f0       ?QueryInterface@?$CComObject@VCOPOSPINPad@@@ATL@@WNI@EAAJAEBU_GUID@@PEAPEAX@Z 00000001800205f0 f i PINPad.obj
 0001:0001f5fc       ?QueryInterface@?$CComObject@VCOPOSPINPad@@@ATL@@WOA@EAAJAEBU_GUID@@PEAPEAX@Z 00000001800205fc f i PINPad.obj
 0001:0001f608       ?QueryInterface@?$CComObject@VCOPOSPINPad@@@ATL@@WOI@EAAJAEBU_GUID@@PEAPEAX@Z 0000000180020608 f i PINPad.obj
 0001:0001f614       ?QueryInterface@?$CComObject@VCOPOSPINPad@@@ATL@@WPA@EAAJAEBU_GUID@@PEAPEAX@Z 0000000180020614 f i PINPad.obj
 0001:0001f620       ?QueryInterface@?$CComObject@VCOPOSPINPad@@@ATL@@WPI@EAAJAEBU_GUID@@PEAPEAX@Z 0000000180020620 f i PINPad.obj
 0001:0001f630       ?QueryInterface@?$CComObjectCached@VCComClassFactory@ATL@@@ATL@@UEAAJAEBU_GUID@@PEAPEAX@Z 0000000180020630 f i PINPad.obj
 0001:0001f660       ?QueryInterface@CRegObject@ATL@@UEAAJAEBU_GUID@@PEAPEAX@Z 0000000180020660 f i PINPad.obj
 0001:0001f6d0       ?QuickActivate@?$IQuickActivateImpl@VCOPOSPINPad@@@ATL@@UEAAJPEAUtagQACONTAINER@@PEAUtagQACONTROL@@@Z 00000001800206d0 f i PINPad.obj
 0001:0001f780       ?ReactivateAndUndo@?$IOleInPlaceObjectWindowlessImpl@VCOPOSPINPad@@@ATL@@UEAAJXZ 0000000180020780 f i PINPad.obj
 0001:0001f7f0       ?ReadFromStream@CComBSTR@ATL@@QEAAJPEAUIStream@@@Z 00000001800207f0 f i PINPad.obj
 0001:0001fcd0       ?ReadFromStream@CComVariant@ATL@@QEAAJPEAUIStream@@GTClassesAllowedInStream@2@K@Z 0000000180020cd0 f i PINPad.obj
 0001:00020110       ?RecurseDeleteKey@CRegKey@ATL@@QEAAJPEB_W@Z 0000000180021110 f i PINPad.obj
 0001:00020330       ?RegCreateKeyExW@CAtlTransactionManager@ATL@@QEAAJPEAUHKEY__@@PEB_WKPEA_WKKQEAU_SECURITY_ATTRIBUTES@@PEAPEAU3@PEAK@Z 0000000180021330 f i PINPad.obj
 0001:000204e0       ?RegDeleteKeyW@CAtlTransactionManager@ATL@@QEAAJPEAUHKEY__@@PEB_W@Z 00000001800214e0 f i PINPad.obj
 0001:000205e0       ?RegOpenKeyExW@CAtlTransactionManager@ATL@@QEAAJPEAUHKEY__@@PEB_WKKPEAPEAU3@@Z 00000001800215e0 f i PINPad.obj
 0001:00020720       ?Register@_ATL_WNDCLASSINFOW@ATL@@QEAAGPEAP6A_JPEAUHWND__@@I_K_J@Z@Z 0000000180021720 f i PINPad.obj
 0001:00020760       ?RegisterBuffer@CRegParser@ATL@@QEAAJPEA_WH@Z 0000000180021760 f i PINPad.obj
 0001:00020b50       ?RegisterClassExW@AtlModuleRegisterWndClassInfoParamW@ATL@@SAGPEAU_ATL_WIN_MODULE70@2@PEBUtagWNDCLASSEXW@@@Z 0000000180021b50 f i PINPad.obj
 0001:00020b80       ?RegisterFromResource@CRegObject@ATL@@IEAAJPEB_W00H@Z 0000000180021b80 f i PINPad.obj
 0001:00020fe0       ?RegisterServer@?$CAtlModuleT@VCComModule@ATL@@@ATL@@QEAAJHPEBU_GUID@@@Z 0000000180021fe0 f i PINPad.obj
 0001:00021040       ?RegisterServer@CAtlComModule@ATL@@QEAAJHPEBU_GUID@@@Z 0000000180022040 f i PINPad.obj
 0001:00021070       ?RegisterServer@CComModule@ATL@@QEAAJHPEBU_GUID@@@Z 0000000180022070 f i PINPad.obj
 0001:00021150       ?RegisterSubkeys@CRegParser@ATL@@IEAAJPEA_WPEAUHKEY__@@HH@Z 0000000180022150 f i PINPad.obj
 0001:00021f30       ?Release@?$CComAggObject@VCOPOSPINPad@@@ATL@@UEAAKXZ 0000000180022f30 f i PINPad.obj
 0001:00021fe0       ?Release@?$CComContainedObject@VCOPOSPINPad@@@ATL@@UEAAKXZ 0000000180022fe0 f i PINPad.obj
 0001:00022004       ?Release@?$CComContainedObject@VCOPOSPINPad@@@ATL@@WBAA@EAAKXZ 0000000180023004 f i PINPad.obj
 0001:00022010       ?Release@?$CComContainedObject@VCOPOSPINPad@@@ATL@@WBAI@EAAKXZ 0000000180023010 f i PINPad.obj
 0001:0002201c       ?Release@?$CComContainedObject@VCOPOSPINPad@@@ATL@@WBBA@EAAKXZ 000000018002301c f i PINPad.obj
 0001:00022028       ?Release@?$CComContainedObject@VCOPOSPINPad@@@ATL@@WBBI@EAAKXZ 0000000180023028 f i PINPad.obj
 0001:00022034       ?Release@?$CComContainedObject@VCOPOSPINPad@@@ATL@@WBCI@EAAKXZ 0000000180023034 f i PINPad.obj
 0001:00022040       ?Release@?$CComContainedObject@VCOPOSPINPad@@@ATL@@WBEA@EAAKXZ 0000000180023040 f i PINPad.obj
 0001:0002204c       ?Release@?$CComContainedObject@VCOPOSPINPad@@@ATL@@WLI@EAAKXZ 000000018002304c f i PINPad.obj
 0001:00022058       ?Release@?$CComContainedObject@VCOPOSPINPad@@@ATL@@WMA@EAAKXZ 0000000180023058 f i PINPad.obj
 0001:00022064       ?Release@?$CComContainedObject@VCOPOSPINPad@@@ATL@@WMI@EAAKXZ 0000000180023064 f i PINPad.obj
 0001:00022070       ?Release@?$CComContainedObject@VCOPOSPINPad@@@ATL@@WNA@EAAKXZ 0000000180023070 f i PINPad.obj
 0001:0002207c       ?Release@?$CComContainedObject@VCOPOSPINPad@@@ATL@@WNI@EAAKXZ 000000018002307c f i PINPad.obj
 0001:00022088       ?Release@?$CComContainedObject@VCOPOSPINPad@@@ATL@@WOA@EAAKXZ 0000000180023088 f i PINPad.obj
 0001:00022094       ?Release@?$CComContainedObject@VCOPOSPINPad@@@ATL@@WOI@EAAKXZ 0000000180023094 f i PINPad.obj
 0001:000220a0       ?Release@?$CComContainedObject@VCOPOSPINPad@@@ATL@@WPA@EAAKXZ 00000001800230a0 f i PINPad.obj
 0001:000220ac       ?Release@?$CComContainedObject@VCOPOSPINPad@@@ATL@@WPI@EAAKXZ 00000001800230ac f i PINPad.obj
 0001:000220c0       ?Release@?$CComObject@V?$CComEnum@UIEnumConnectionPoints@@$1?_GUID_b196b285_bab4_101a_b69c_00aa00341d07@@3U__s_GUID@@BPEAUIConnectionPoint@@V?$_CopyInterface@UIConnectionPoint@@@ATL@@VCComSingleThreadModel@6@@ATL@@@ATL@@UEAAKXZ 00000001800230c0 f i PINPad.obj
 0001:00022170       ?Release@?$CComObject@V?$CComEnum@UIEnumConnections@@$1?_GUID_b196b287_bab4_101a_b69c_00aa00341d07@@3U__s_GUID@@BUtagCONNECTDATA@@V?$_Copy@UtagCONNECTDATA@@@ATL@@VCComSingleThreadModel@6@@ATL@@@ATL@@UEAAKXZ 0000000180023170 f i PINPad.obj
 0001:00022220       ?Release@?$CComObject@VCOPOSPINPad@@@ATL@@UEAAKXZ 0000000180023220 f i PINPad.obj
 0001:000222d8       ?Release@?$CComObject@VCOPOSPINPad@@@ATL@@WBAA@EAAKXZ 00000001800232d8 f i PINPad.obj
 0001:000222e4       ?Release@?$CComObject@VCOPOSPINPad@@@ATL@@WBAI@EAAKXZ 00000001800232e4 f i PINPad.obj
 0001:000222f0       ?Release@?$CComObject@VCOPOSPINPad@@@ATL@@WBBA@EAAKXZ 00000001800232f0 f i PINPad.obj
 0001:000222fc       ?Release@?$CComObject@VCOPOSPINPad@@@ATL@@WBBI@EAAKXZ 00000001800232fc f i PINPad.obj
 0001:00022308       ?Release@?$CComObject@VCOPOSPINPad@@@ATL@@WBCI@EAAKXZ 0000000180023308 f i PINPad.obj
 0001:00022314       ?Release@?$CComObject@VCOPOSPINPad@@@ATL@@WBEA@EAAKXZ 0000000180023314 f i PINPad.obj
 0001:00022320       ?Release@?$CComObject@VCOPOSPINPad@@@ATL@@WLI@EAAKXZ 0000000180023320 f i PINPad.obj
 0001:0002232c       ?Release@?$CComObject@VCOPOSPINPad@@@ATL@@WMA@EAAKXZ 000000018002332c f i PINPad.obj
 0001:00022338       ?Release@?$CComObject@VCOPOSPINPad@@@ATL@@WMI@EAAKXZ 0000000180023338 f i PINPad.obj
 0001:00022344       ?Release@?$CComObject@VCOPOSPINPad@@@ATL@@WNA@EAAKXZ 0000000180023344 f i PINPad.obj
 0001:00022350       ?Release@?$CComObject@VCOPOSPINPad@@@ATL@@WNI@EAAKXZ 0000000180023350 f i PINPad.obj
 0001:0002235c       ?Release@?$CComObject@VCOPOSPINPad@@@ATL@@WOA@EAAKXZ 000000018002335c f i PINPad.obj
 0001:00022368       ?Release@?$CComObject@VCOPOSPINPad@@@ATL@@WOI@EAAKXZ 0000000180023368 f i PINPad.obj
 0001:00022374       ?Release@?$CComObject@VCOPOSPINPad@@@ATL@@WPA@EAAKXZ 0000000180023374 f i PINPad.obj
 0001:00022380       ?Release@?$CComObject@VCOPOSPINPad@@@ATL@@WPI@EAAKXZ 0000000180023380 f i PINPad.obj
 0001:00022390       ?Release@?$CComObjectCached@VCComClassFactory@ATL@@@ATL@@UEAAKXZ 0000000180023390 f i PINPad.obj
 0001:00022420       ?Release@?$CComPtrBase@UIAdviseSink@@@ATL@@QEAAXXZ 0000000180023420 f i PINPad.obj
 0001:00022470       ?Release@?$CComPtrBase@UIDispatch@@@ATL@@QEAAXXZ 0000000180023470 f i PINPad.obj
 0001:000224c0       ?Release@?$CComPtrBase@UIOleInPlaceSiteWindowless@@@ATL@@QEAAXXZ 00000001800234c0 f i PINPad.obj
 0001:00022510       ?Release@CRegObject@ATL@@UEAAKXZ 0000000180023510 f i PINPad.obj
 0001:00022570       ?Remove@CComDynamicUnkArray@ATL@@QEAAHK@Z 0000000180023570 f i PINPad.obj
 0001:00022630       ?RemoveAll@?$CSimpleMap@PEA_WPEA_WVCExpansionVectorEqualHelper@ATL@@@ATL@@QEAAXXZ 0000000180023630 f i PINPad.obj
 0001:000226c0       ?Reset@?$CComEnumImpl@UIEnumConnectionPoints@@$1?_GUID_b196b285_bab4_101a_b69c_00aa00341d07@@3U__s_GUID@@BPEAUIConnectionPoint@@V?$_CopyInterface@UIConnectionPoint@@@ATL@@@ATL@@UEAAJXZ 00000001800236c0 f i PINPad.obj
 0001:000226e0       ?Reset@?$CComEnumImpl@UIEnumConnections@@$1?_GUID_b196b287_bab4_101a_b69c_00aa00341d07@@3U__s_GUID@@BUtagCONNECTDATA@@V?$_Copy@UtagCONNECTDATA@@@ATL@@@ATL@@UEAAJXZ 00000001800236e0 f i PINPad.obj
 0001:00022700       ?ResizeBorder@?$IOleInPlaceActiveObjectImpl@VCOPOSPINPad@@@ATL@@UEAAJPEBUtagRECT@@PEAUIOleInPlaceUIWindow@@H@Z 0000000180023700 f i PINPad.obj
 0001:00022770       ?ResourceRegister@CRegObject@ATL@@QEAAJPEB_WI0@Z 0000000180023770 f i PINPad.obj
 0001:00022850       ?ResourceRegisterSz@CRegObject@ATL@@QEAAJPEB_W00@Z 0000000180023850 f i PINPad.obj
 0001:00022970       ?ResourceUnregister@CRegObject@ATL@@QEAAJPEB_WI0@Z 0000000180023970 f i PINPad.obj
 0001:00022a50       ?ResourceUnregisterSz@CRegObject@ATL@@QEAAJPEB_W00@Z 0000000180023a50 f i PINPad.obj
 0001:00022b70       ?SOData@COPOSPINPad@@MEAAJJ@Z 0000000180023b70 f i PINPad.obj
 0001:00022c00       ?SODirectIO@COPOSPINPad@@MEAAJJPEAJPEAPEA_W@Z 0000000180023c00 f i PINPad.obj
 0001:00022e40       ?SOError@COPOSPINPad@@MEAAJJJJPEAJ@Z 0000000180023e40 f i PINPad.obj
 0001:00022f30       ?SOOutputCompleteDummy@COPOSPINPad@@MEAAJJ@Z 0000000180023f30 f i PINPad.obj
 0001:00022f50       ?SOStatusUpdate@COPOSPINPad@@MEAAJJ@Z 0000000180023f50 f i PINPad.obj
 0001:00022fe0       ?Save@?$IPersistStorageImpl@VCOPOSPINPad@@@ATL@@UEAAJPEAUIStorage@@H@Z 0000000180023fe0 f i PINPad.obj
 0001:000231a0       ?Save@?$IPersistStreamInitImpl@VCOPOSPINPad@@@ATL@@UEAAJPEAUIStream@@H@Z 00000001800241a0 f i PINPad.obj
 0001:00023250       ?SaveCompleted@?$IPersistStorageImpl@VCOPOSPINPad@@@ATL@@UEAAJPEAUIStorage@@@Z 0000000180024250 f i PINPad.obj
 0001:000232b0       ?SendOnDataChange@CComControlBase@ATL@@QEAAJK@Z 00000001800242b0 f i PINPad.obj
 0001:000233b0       ?SendOnSave@CComControlBase@ATL@@QEAAJXZ 00000001800243b0 f i PINPad.obj
 0001:00023410       ?SendOnViewChange@CComControlBase@ATL@@QEAAJKJ@Z 0000000180024410 f i PINPad.obj
 0001:00023470       ?SetAdvise@?$IViewObjectExImpl@VCOPOSPINPad@@@ATL@@UEAAJKKPEAUIAdviseSink@@@Z 0000000180024470 f i PINPad.obj
 0001:00023520       ?SetClientSite@?$IOleObjectImpl@VCOPOSPINPad@@@ATL@@UEAAJPEAUIOleClientSite@@@Z 0000000180024520 f i PINPad.obj
 0001:000235c0       ?SetColorScheme@?$IOleObjectImpl@VCOPOSPINPad@@@ATL@@UEAAJPEAUtagLOGPALETTE@@@Z 00000001800245c0 f i PINPad.obj
 0001:00023630       ?SetContentExtent@?$IQuickActivateImpl@VCOPOSPINPad@@@ATL@@UEAAJPEAUtagSIZE@@@Z 0000000180024630 f i PINPad.obj
 0001:000236e0       ?SetControlFocus@CComControlBase@ATL@@QEAAHH@Z 00000001800246e0 f i PINPad.obj
 0001:00023860       ?SetDWORDValue@CRegKey@ATL@@QEAAJPEB_WK@Z 0000000180024860 f i PINPad.obj
 0001:00023900       ?SetData@?$IDataObjectImpl@VCOPOSPINPad@@@ATL@@UEAAJPEAUtagFORMATETC@@PEAUtagSTGMEDIUM@@H@Z 0000000180024900 f i PINPad.obj
 0001:00023980       ?SetExtent@?$IOleObjectImpl@VCOPOSPINPad@@@ATL@@UEAAJKPEAUtagSIZE@@@Z 0000000180024980 f i PINPad.obj
 0001:00023a30       ?SetHostNames@?$IOleObjectImpl@VCOPOSPINPad@@@ATL@@UEAAJPEB_W0@Z 0000000180024a30 f i PINPad.obj
 0001:00023a90       ?SetInterfaceSafetyOptions@?$IObjectSafetyImpl@VCOPOSPINPad@@$02@ATL@@UEAAJAEBU_GUID@@KK@Z 0000000180024a90 f i PINPad.obj
 0001:00023c30       ?SetMoniker@?$IOleObjectImpl@VCOPOSPINPad@@@ATL@@UEAAJKPEAUIMoniker@@@Z 0000000180024c30 f i PINPad.obj
 0001:00023cb0       ?SetMultiStringValue@CRegKey@ATL@@QEAAJPEB_W0@Z 0000000180024cb0 f i PINPad.obj
 0001:00023e10       ?SetObjectRects@?$IOleInPlaceObjectWindowlessImpl@VCOPOSPINPad@@@ATL@@UEAAJPEBUtagRECT@@0@Z 0000000180024e10 f i PINPad.obj
 0001:00023ec0       ?SetStringValue@CRegKey@ATL@@QEAAJPEB_W0K@Z 0000000180024ec0 f i PINPad.obj
 0001:00024030       ?SetVoid@CComClassFactory@ATL@@QEAAXPEAX@Z 0000000180025030 f i PINPad.obj
 0001:00024050       ?SetVoid@CComObjectRootBase@ATL@@QEAAXPEAX@Z 0000000180025050 f i PINPad.obj
 0001:00024060       ?ShowWindow@CWindow@ATL@@QEAAHH@Z 0000000180025060 f i PINPad.obj
 0001:000240e0       ?Skip@?$CComEnumImpl@UIEnumConnectionPoints@@$1?_GUID_b196b285_bab4_101a_b69c_00aa00341d07@@3U__s_GUID@@BPEAUIConnectionPoint@@V?$_CopyInterface@UIConnectionPoint@@@ATL@@@ATL@@UEAAJK@Z 00000001800250e0 f i PINPad.obj
 0001:00024170       ?Skip@?$CComEnumImpl@UIEnumConnections@@$1?_GUID_b196b287_bab4_101a_b69c_00aa00341d07@@3U__s_GUID@@BUtagCONNECTDATA@@V?$_Copy@UtagCONNECTDATA@@@ATL@@@ATL@@UEAAJK@Z 0000000180025170 f i PINPad.obj
 0001:00024200       ?SkipAssignment@CRegParser@ATL@@IEAAJPEA_W@Z 0000000180025200 f i PINPad.obj
 0001:00024300       ?SkipWhiteSpace@CRegParser@ATL@@IEAAXXZ 0000000180025300 f i PINPad.obj
 0001:00024350       ?StartWindowProc@?$CWindowImplBaseT@VCWindow@ATL@@V?$CWinTraits@$0FGAAAAAA@$0A@@2@@ATL@@SA_JPEAUHWND__@@I_K_J@Z 0000000180025350 f i PINPad.obj
 0001:000244a0       ?StrChrW@CRegParser@ATL@@KAPEA_WPEA_W_W@Z 00000001800254a0 f i PINPad.obj
 0001:00024510       ?StrFromMap@CRegObject@ATL@@QEAAPEB_WPEA_W@Z 0000000180025510 f i PINPad.obj
 0001:000245b0       ?Swap@?$CComPtrBase@UIAdviseSink@@@ATL@@IEAAXAEAV12@@Z 00000001800255b0 f i PINPad.obj
 0001:000245f0       ?Swap@?$CComPtrBase@UIOleClientSite@@@ATL@@IEAAXAEAV12@@Z 00000001800255f0 f i PINPad.obj
 0001:00024630       ?Swap@?$CComPtrBase@UIUnknown@@@ATL@@IEAAXAEAV12@@Z 0000000180025630 f i PINPad.obj
 0001:00024670       ?T2COLE_EX@@YAPEB_WPEB_WI@Z 0000000180025670 f i PINPad.obj
 0001:00024690       ?T2OLE_EX@@YAPEA_WPEA_WI@Z 0000000180025690 f i PINPad.obj
 0001:000246b0       ?Term@CAtlModule@ATL@@QEAAXXZ 00000001800256b0 f i PINPad.obj
 0001:00024760       ?Term@CComModule@ATL@@QEAAXXZ 0000000180025760 f i PINPad.obj
 0001:00024840       ?TranslateAcceleratorW@?$IOleInPlaceActiveObjectImpl@VCOPOSPINPad@@@ATL@@UEAAJPEAUtagMSG@@@Z 0000000180025840 f i PINPad.obj
 0001:00024ab0       ?UIDeactivate@?$IOleInPlaceObjectWindowlessImpl@VCOPOSPINPad@@@ATL@@UEAAJXZ 0000000180025ab0 f i PINPad.obj
 0001:00024b40       ?Unadvise@?$CProxy_IOPOSEvents@VCOPOSPINPad@@@@UEAAJK@Z 0000000180025b40 f i PINPad.obj
 0001:00024b80       ?Unadvise@?$IConnectionPointImpl@VCOPOSPINPad@@$1?DIID__IOPOSPINPadEvents@@3U_GUID@@BVCComDynamicUnkArray@ATL@@@ATL@@UEAAJK@Z 0000000180025b80 f i PINPad.obj
 0001:00024c60       ?Unadvise@?$IConnectionPointImpl@VCOPOSPINPad@@$1?IID_IPropertyNotifySink@@3U_GUID@@BVCComDynamicUnkArray@ATL@@@ATL@@UEAAJK@Z 0000000180025c60 f i PINPad.obj
 0001:00024d40       ?Unadvise@?$IOleObjectImpl@VCOPOSPINPad@@@ATL@@UEAAJK@Z 0000000180025d40 f i PINPad.obj
 0001:00024e20       ?Unfreeze@?$IViewObjectExImpl@VCOPOSPINPad@@@ATL@@UEAAJK@Z 0000000180025e20 f i PINPad.obj
 0001:00024e90       ?Unlock@?$CComCritSecLock@VCComCriticalSection@ATL@@@ATL@@QEAAXXZ 0000000180025e90 f i PINPad.obj
 0001:00024f10       ?Unlock@?$CComObjectRootEx@VCComSingleThreadModel@ATL@@@ATL@@QEAAXXZ 0000000180025f10 f i PINPad.obj
 0001:00024f20       ?Unlock@CAtlModule@ATL@@UEAAJXZ 0000000180025f20 f i PINPad.obj
 0001:00024f50       ?Unlock@CComCriticalSection@ATL@@QEAAJXZ 0000000180025f50 f i PINPad.obj
 0001:00024f70       ?Unlock@CComFakeCriticalSection@ATL@@QEAAJXZ 0000000180025f70 f i PINPad.obj
 0001:00024f80       ?UnregisterServer@?$CAtlModuleT@VCComModule@ATL@@@ATL@@QEAAJHPEBU_GUID@@@Z 0000000180025f80 f i PINPad.obj
 0001:00024fe0       ?UnregisterServer@CAtlComModule@ATL@@QEAAJHPEBU_GUID@@@Z 0000000180025fe0 f i PINPad.obj
 0001:00025010       ?UnregisterServer@CComModule@ATL@@QEAAJHPEBU_GUID@@@Z 0000000180026010 f i PINPad.obj
 0001:000250f0       ?Update@?$IOleObjectImpl@VCOPOSPINPad@@@ATL@@UEAAJXZ 00000001800260f0 f i PINPad.obj
 0001:00025150       ?UpdateRegistryFromResource@CAtlModule@ATL@@QEAAJIHPEAU_ATL_REGMAP_ENTRY@2@@Z 0000000180026150 f i PINPad.obj
 0001:00025690       ?UpdateRegistryFromResource@CAtlModule@ATL@@QEAAJPEB_WHPEAU_ATL_REGMAP_ENTRY@2@@Z 0000000180026690 f i PINPad.obj
 0001:00025be0       ?UpdateRegistryFromResource@CComModule@ATL@@UEAAJIHPEAU_ATL_REGMAP_ENTRY@2@@Z 0000000180026be0 f i PINPad.obj
 0001:00025c20       ?UpdateRegistryFromResource@CComModule@ATL@@UEAAJPEB_WHPEAU_ATL_REGMAP_ENTRY@2@@Z 0000000180026c20 f i PINPad.obj
 0001:00025c60       ?UpdateRegistryFromResourceD@CComModule@ATL@@UEAAJIHPEAU_ATL_REGMAP_ENTRY@2@@Z 0000000180026c60 f i PINPad.obj
 0001:00025c80       ?UpdateRegistryFromResourceD@CComModule@ATL@@UEAAJPEB_WHPEAU_ATL_REGMAP_ENTRY@2@@Z 0000000180026c80 f i PINPad.obj
 0001:00025ca0       ?VTFromRegType@CRegParser@ATL@@KAHPEB_WAEAG@Z 0000000180026ca0 f i PINPad.obj
 0001:00025d70       ?WindowProc@?$CWindowImplBaseT@VCWindow@ATL@@V?$CWinTraits@$0FGAAAAAA@$0A@@2@@ATL@@SA_JPEAUHWND__@@I_K_J@Z 0000000180026d70 f i PINPad.obj
 0001:00026050       ?WriteToStream@CComBSTR@ATL@@QEAAJPEAUIStream@@@Z 0000000180027050 f i PINPad.obj
 0001:000261c0       ?WriteToStream@CComVariant@ATL@@QEAAJPEAUIStream@@@Z 00000001800271c0 f i PINPad.obj
 0001:000265f0       ?WriteToStream@CComVariant@ATL@@QEAAJPEAUIStream@@G@Z 00000001800275f0 f i PINPad.obj
 0001:000266d0       ?_AtlFinalConstruct@CComObjectRootBase@ATL@@QEAAJXZ 00000001800276d0 f i PINPad.obj
 0001:000266e0       ?_AtlGetConversionACP@ATL@@YAIXZ 00000001800276e0 f i PINPad.obj
 0001:000266f0       ?_AtlInitialConstruct@?$CComAggObject@VCOPOSPINPad@@@ATL@@QEAAJXZ 00000001800276f0 f i PINPad.obj
 0001:00026740       ?_AtlInitialConstruct@?$CComObjectRootEx@VCComMultiThreadModel@ATL@@@ATL@@QEAAJXZ 0000000180027740 f i PINPad.obj
 0001:00026770       ?_AtlInitialConstruct@?$CComObjectRootEx@VCComSingleThreadModel@ATL@@@ATL@@QEAAJXZ 0000000180027770 f i PINPad.obj
 0001:00026780       ?_AtlVerifyStackAvailable@_ATL_SAFE_ALLOCA_IMPL@ATL@@YA_N_K@Z 0000000180027780 f i PINPad.obj
 0001:000268e0       ?_GetEntries@?$CComEnum@UIEnumConnectionPoints@@$1?_GUID_b196b285_bab4_101a_b69c_00aa00341d07@@3U__s_GUID@@BPEAUIConnectionPoint@@V?$_CopyInterface@UIConnectionPoint@@@ATL@@VCComSingleThreadModel@6@@ATL@@SAPEBU_ATL_INTMAP_ENTRY@2@XZ 00000001800278e0 f i PINPad.obj
 0001:00026900       ?_GetEntries@?$CComEnum@UIEnumConnections@@$1?_GUID_b196b287_bab4_101a_b69c_00aa00341d07@@3U__s_GUID@@BUtagCONNECTDATA@@V?$_Copy@UtagCONNECTDATA@@@ATL@@VCComSingleThreadModel@6@@ATL@@SAPEBU_ATL_INTMAP_ENTRY@2@XZ 0000000180027900 f i PINPad.obj
 0001:00026920       ?_GetEntries@CComClassFactory@ATL@@SAPEBU_ATL_INTMAP_ENTRY@2@XZ 0000000180027920 f i PINPad.obj
 0001:00026940       ?_GetEntries@COPOSPINPad@@SAPEBU_ATL_INTMAP_ENTRY@ATL@@XZ 0000000180027940 f i PINPad.obj
 0001:00026960       ?_GetRawUnknown@COPOSPINPad@@QEAAPEAUIUnknown@@XZ 0000000180027960 f i PINPad.obj
 0001:000269e0       ?_GetViewStatus@COPOSPINPad@@QEAAKXZ 00000001800279e0 f i PINPad.obj
 0001:000269f0       ?_InternalQueryInterface@?$CComEnum@UIEnumConnectionPoints@@$1?_GUID_b196b285_bab4_101a_b69c_00aa00341d07@@3U__s_GUID@@BPEAUIConnectionPoint@@V?$_CopyInterface@UIConnectionPoint@@@ATL@@VCComSingleThreadModel@6@@ATL@@QEAAJAEBU_GUID@@PEAPEAX@Z 00000001800279f0 f i PINPad.obj
 0001:00026a30       ?_InternalQueryInterface@?$CComEnum@UIEnumConnections@@$1?_GUID_b196b287_bab4_101a_b69c_00aa00341d07@@3U__s_GUID@@BUtagCONNECTDATA@@V?$_Copy@UtagCONNECTDATA@@@ATL@@VCComSingleThreadModel@6@@ATL@@QEAAJAEBU_GUID@@PEAPEAX@Z 0000000180027a30 f i PINPad.obj
 0001:00026a70       ?_InternalQueryInterface@CComClassFactory@ATL@@QEAAJAEBU_GUID@@PEAPEAX@Z 0000000180027a70 f i PINPad.obj
 0001:00026ab0       ?_InternalQueryInterface@COPOSPINPad@@QEAAJAEBU_GUID@@PEAPEAX@Z 0000000180027ab0 f i PINPad.obj
 0001:00026af0       ?_LocCPQueryInterface@?$IConnectionPointImpl@VCOPOSPINPad@@$1?DIID__IOPOSPINPadEvents@@3U_GUID@@BVCComDynamicUnkArray@ATL@@@ATL@@UEAAJAEBU_GUID@@PEAPEAX@Z 0000000180027af0 f i PINPad.obj
 0001:00026bc0       ?_LocCPQueryInterface@?$IConnectionPointImpl@VCOPOSPINPad@@$1?IID_IPropertyNotifySink@@3U_GUID@@BVCComDynamicUnkArray@ATL@@@ATL@@UEAAJAEBU_GUID@@PEAPEAX@Z 0000000180027bc0 f i PINPad.obj
 0001:00026c90       ?atlCreate@?$CWindowImpl@VCOPOSPINPad@@VCWindow@ATL@@V?$CWinTraits@$0FGAAAAAA@$0A@@3@@ATL@@QEAAPEAUHWND__@@PEAU3@V_U_RECT@2@PEB_WKKV_U_MENUorID@2@PEAX@Z 0000000180027c90 f i PINPad.obj
 0001:00026da0       ?atlCreate@?$CWindowImplBaseT@VCWindow@ATL@@V?$CWinTraits@$0FGAAAAAA@$0A@@2@@ATL@@QEAAPEAUHWND__@@PEAU3@V_U_RECT@2@PEB_WKKV_U_MENUorID@2@GPEAX@Z 0000000180027da0 f i PINPad.obj
 0001:00026ff0       ?atlCreate@CRegKey@ATL@@QEAAJPEAUHKEY__@@PEB_WPEA_WKKPEAU_SECURITY_ATTRIBUTES@@PEAK@Z 0000000180027ff0 f i PINPad.obj
 0001:000271f0       ?begin@CComDynamicUnkArray@ATL@@QEAAPEAPEAUIUnknown@@XZ 00000001800281f0 f i PINPad.obj
 0001:00027200       ?copy@?$_Copy@UtagCONNECTDATA@@@ATL@@SAJPEAUtagCONNECTDATA@@PEBU3@@Z 0000000180028200 f i PINPad.obj
 0001:000272e0       ?copy@?$_CopyInterface@UIConnectionPoint@@@ATL@@SAJPEAPEAUIConnectionPoint@@PEBQEAU3@@Z 00000001800282e0 f i PINPad.obj
 0001:000273c0       ?destroy@?$_Copy@UtagCONNECTDATA@@@ATL@@SAXPEAUtagCONNECTDATA@@@Z 00000001800283c0 f i PINPad.obj
 0001:00027400       ?destroy@?$_CopyInterface@UIConnectionPoint@@@ATL@@SAXPEAPEAUIConnectionPoint@@@Z 0000000180028400 f i PINPad.obj
 0001:00027440       ?end@CComDynamicUnkArray@ATL@@QEAAPEAPEAUIUnknown@@XZ 0000000180028440 f i PINPad.obj
 0001:00027460       ?init@?$_Copy@UtagCONNECTDATA@@@ATL@@SAXPEAUtagCONNECTDATA@@@Z 0000000180028460 f i PINPad.obj
 0001:00027470       ?init@?$_CopyInterface@UIConnectionPoint@@@ATL@@SAXPEAPEAUIConnectionPoint@@@Z 0000000180028470 f i PINPad.obj
 0001:00027480       ?memcpy_s@Checked@ATL@@YAXPEAX_KPEBX1@Z 0000000180028480 f i PINPad.obj
 0001:000274c0       ?ocscpy_s@@YA_NPEA_W_KPEB_W@Z 00000001800284c0 f i PINPad.obj
 0001:00027530       ?ocslen@@YAHPEB_W@Z        0000000180028530 f i PINPad.obj
 0001:00027560       ?tcsncpy_s@Checked@ATL@@YAHPEA_W_KPEB_W1@Z 0000000180028560 f i PINPad.obj
 0001:000275a0       ?wcscat_s@Checked@ATL@@YAXPEA_W_KPEB_W@Z 00000001800285a0 f i PINPad.obj
 0001:000275e0       ?wcscpy_s@Checked@ATL@@YAXPEA_W_KPEB_W@Z 00000001800285e0 f i PINPad.obj
 0001:00027620       ?wcsncpy_s@Checked@ATL@@YAHPEA_W_KPEB_W1@Z 0000000180028620 f i PINPad.obj
 0001:00027660       ?wcsstr@@YAPEA_WPEA_WPEB_W@Z 0000000180028660 f i PINPad.obj
 0001:00027690       InlineIsEqualGUID          0000000180028690 f i PINPad.obj
 0001:00027750       IsEqualGUID                0000000180028750 f i PINPad.obj
 0001:000277a0       ??0COPOSPINPad@@QEAA@XZ    00000001800287a0 f   PINPadImpl.obj
 0001:00027910       ?FinalConstruct@COPOSPINPad@@QEAAJXZ 0000000180028910 f   PINPadImpl.obj
 0001:000279f0       ??1COPOSPINPad@@UEAA@XZ    00000001800289f0 f   PINPadImpl.obj
 0001:00027ad0       ?WriteTrace@COPOSPINPad@@QEAAXPEB_WZZ 0000000180028ad0 f   PINPadImpl.obj
 0001:00027ba0       ?WriteTraceString@COPOSPINPad@@QEAAXPEB_WPEA_W@Z 0000000180028ba0 f   PINPadImpl.obj
 0001:00027fd0       ?WriteTraceString@COPOSPINPad@@QEAAXPEAXHHHPEB_WZZ 0000000180028fd0 f   PINPadImpl.obj
 0001:00028260       ?WriteTraceError@COPOSPINPad@@QEAAXPEB_WK@Z 0000000180029260 f   PINPadImpl.obj
 0001:00028360       ?WriteTraceMethods@COPOSPINPad@@QEAAXPEAJH@Z 0000000180029360 f   PINPadImpl.obj
 0001:000283e0       ?FormatCurrency@COPOSPINPad@@QEAAPEB_WTtagCY@@@Z 00000001800293e0 f   PINPadImpl.obj
 0001:000284e0       ?GetOposProp@COPOSPINPad@@IEAAJPEBDJPEAJJ@Z 00000001800294e0 f   PINPadImpl.obj
 0001:00028800       ?SetOposProp@COPOSPINPad@@IEAAJPEBDJJJ@Z 0000000180029800 f   PINPadImpl.obj
 0001:00028b70       ?GetOposProp@COPOSPINPad@@IEAAJPEBDJPEAFJ@Z 0000000180029b70 f   PINPadImpl.obj
 0001:00028c20       ?SetOposProp@COPOSPINPad@@IEAAJPEBDJFJ@Z 0000000180029c20 f   PINPadImpl.obj
 0001:00028c90       ?GetOposProp@COPOSPINPad@@IEAAJPEBDJPEAPEA_WJ@Z 0000000180029c90 f   PINPadImpl.obj
 0001:00028fb0       ?SetOposProp@COPOSPINPad@@IEAAJPEBDJPEA_WJ@Z 0000000180029fb0 f   PINPadImpl.obj
 0001:00029390       ?DoInvoke@COPOSPINPad@@IEAAJPEBDJPEAVOposVariant@@IHPEAJ_N@Z 000000018002a390 f   PINPadImpl.obj
 0001:00029fd0       ?SetCOFreezeEvents@COPOSPINPad@@IEAAXF@Z 000000018002afd0 f   PINPadImpl.obj
 0001:0002a160       ?FreezeEvents@COPOSPINPad@@MEAAJH@Z 000000018002b160 f   PINPadImpl.obj
 0001:0002a280       ?OnDraw@COPOSPINPad@@MEAAJAEAUATL_DRAWINFO@@@Z 000000018002b280 f   PINPadImpl.obj
 0001:0002a450       ?SOProcessID@COPOSPINPad@@UEAAJPEAJ@Z 000000018002b450 f   PINPadImpl.obj
 0001:0002a4a0       ?get_OpenResult@COPOSPINPad@@UEAAJPEAJ@Z 000000018002b4a0 f   PINPadImpl.obj
 0001:0002a4f0       ?get_BinaryConversion@COPOSPINPad@@UEAAJPEAJ@Z 000000018002b4f0 f   PINPadImpl.obj
 0001:0002a530       ?put_BinaryConversion@COPOSPINPad@@UEAAJJ@Z 000000018002b530 f   PINPadImpl.obj
 0001:0002a580       ?get_CapPowerReporting@COPOSPINPad@@UEAAJPEAJ@Z 000000018002b580 f   PINPadImpl.obj
 0001:0002a5c0       ?get_CheckHealthText@COPOSPINPad@@UEAAJPEAPEA_W@Z 000000018002b5c0 f   PINPadImpl.obj
 0001:0002a600       ?get_Claimed@COPOSPINPad@@UEAAJPEAF@Z 000000018002b600 f   PINPadImpl.obj
 0001:0002a640       ?get_DataCount@COPOSPINPad@@UEAAJPEAJ@Z 000000018002b640 f   PINPadImpl.obj
 0001:0002a680       ?get_DataEventEnabled@COPOSPINPad@@UEAAJPEAF@Z 000000018002b680 f   PINPadImpl.obj
 0001:0002a6c0       ?put_DataEventEnabled@COPOSPINPad@@UEAAJF@Z 000000018002b6c0 f   PINPadImpl.obj
 0001:0002a700       ?get_DeviceEnabled@COPOSPINPad@@UEAAJPEAF@Z 000000018002b700 f   PINPadImpl.obj
 0001:0002a740       ?put_DeviceEnabled@COPOSPINPad@@UEAAJF@Z 000000018002b740 f   PINPadImpl.obj
 0001:0002a780       ?get_FreezeEvents@COPOSPINPad@@UEAAJPEAF@Z 000000018002b780 f   PINPadImpl.obj
 0001:0002a7c0       ?put_FreezeEvents@COPOSPINPad@@UEAAJF@Z 000000018002b7c0 f   PINPadImpl.obj
 0001:0002a880       ?get_PowerNotify@COPOSPINPad@@UEAAJPEAJ@Z 000000018002b880 f   PINPadImpl.obj
 0001:0002a8c0       ?put_PowerNotify@COPOSPINPad@@UEAAJJ@Z 000000018002b8c0 f   PINPadImpl.obj
 0001:0002a900       ?get_PowerState@COPOSPINPad@@UEAAJPEAJ@Z 000000018002b900 f   PINPadImpl.obj
 0001:0002a940       ?get_ResultCode@COPOSPINPad@@UEAAJPEAJ@Z 000000018002b940 f   PINPadImpl.obj
 0001:0002a9f0       ?get_ResultCodeExtended@COPOSPINPad@@UEAAJPEAJ@Z 000000018002b9f0 f   PINPadImpl.obj
 0001:0002aa30       ?get_State@COPOSPINPad@@UEAAJPEAJ@Z 000000018002ba30 f   PINPadImpl.obj
 0001:0002aaa0       ?get_ControlObjectDescription@COPOSPINPad@@UEAAJPEAPEA_W@Z 000000018002baa0 f   PINPadImpl.obj
 0001:0002ab10       ?get_ControlObjectVersion@COPOSPINPad@@UEAAJPEAJ@Z 000000018002bb10 f   PINPadImpl.obj
 0001:0002ab60       ?get_ServiceObjectDescription@COPOSPINPad@@UEAAJPEAPEA_W@Z 000000018002bb60 f   PINPadImpl.obj
 0001:0002aba0       ?get_ServiceObjectVersion@COPOSPINPad@@UEAAJPEAJ@Z 000000018002bba0 f   PINPadImpl.obj
 0001:0002abe0       ?get_DeviceDescription@COPOSPINPad@@UEAAJPEAPEA_W@Z 000000018002bbe0 f   PINPadImpl.obj
 0001:0002ac20       ?get_DeviceName@COPOSPINPad@@UEAAJPEAPEA_W@Z 000000018002bc20 f   PINPadImpl.obj
 0001:0002ac60       ?CheckHealth@COPOSPINPad@@UEAAJJPEAJ@Z 000000018002bc60 f   PINPadImpl.obj
 0001:0002ad20       ?ClaimDevice@COPOSPINPad@@UEAAJJPEAJ@Z 000000018002bd20 f   PINPadImpl.obj
 0001:0002ae40       ?ClearInput@COPOSPINPad@@UEAAJPEAJ@Z 000000018002be40 f   PINPadImpl.obj
 0001:0002aea0       ?Close@COPOSPINPad@@UEAAJPEAJ@Z 000000018002bea0 f   PINPadImpl.obj
 0001:0002afa0       ?DirectIO@COPOSPINPad@@UEAAJJPEAJPEAPEA_W0@Z 000000018002bfa0 f   PINPadImpl.obj
 0001:0002b120       ?Open@COPOSPINPad@@UEAAJPEA_WPEAJ@Z 000000018002c120 f   PINPadImpl.obj
 0001:0002c600       ?ReleaseDevice@COPOSPINPad@@UEAAJPEAJ@Z 000000018002d600 f   PINPadImpl.obj
 0001:0002c6a0       ?get_AccountNumber@COPOSPINPad@@UEAAJPEAPEA_W@Z 000000018002d6a0 f   PINPadImpl.obj
 0001:0002c6e0       ?put_AccountNumber@COPOSPINPad@@UEAAJPEA_W@Z 000000018002d6e0 f   PINPadImpl.obj
 0001:0002c720       ?get_AdditionalSecurityInformation@COPOSPINPad@@UEAAJPEAPEA_W@Z 000000018002d720 f   PINPadImpl.obj
 0001:0002c760       ?get_Amount@COPOSPINPad@@UEAAJPEATtagCY@@@Z 000000018002d760 f   PINPadImpl.obj
 0001:0002c9b0       ?put_Amount@COPOSPINPad@@UEAAJTtagCY@@@Z 000000018002d9b0 f   PINPadImpl.obj
 0001:0002cc20       ?get_AvailableLanguagesList@COPOSPINPad@@UEAAJPEAPEA_W@Z 000000018002dc20 f   PINPadImpl.obj
 0001:0002cc60       ?get_AvailablePromptsList@COPOSPINPad@@UEAAJPEAPEA_W@Z 000000018002dc60 f   PINPadImpl.obj
 0001:0002cca0       ?get_CapDisplay@COPOSPINPad@@UEAAJPEAJ@Z 000000018002dca0 f   PINPadImpl.obj
 0001:0002cce0       ?get_CapKeyboard@COPOSPINPad@@UEAAJPEAF@Z 000000018002dce0 f   PINPadImpl.obj
 0001:0002cd20       ?get_CapLanguage@COPOSPINPad@@UEAAJPEAJ@Z 000000018002dd20 f   PINPadImpl.obj
 0001:0002cd60       ?get_CapMACCalculation@COPOSPINPad@@UEAAJPEAF@Z 000000018002dd60 f   PINPadImpl.obj
 0001:0002cda0       ?get_CapTone@COPOSPINPad@@UEAAJPEAF@Z 000000018002dda0 f   PINPadImpl.obj
 0001:0002cde0       ?get_EncryptedPIN@COPOSPINPad@@UEAAJPEAPEA_W@Z 000000018002dde0 f   PINPadImpl.obj
 0001:0002ce20       ?get_MaximumPINLength@COPOSPINPad@@UEAAJPEAJ@Z 000000018002de20 f   PINPadImpl.obj
 0001:0002ce60       ?put_MaximumPINLength@COPOSPINPad@@UEAAJJ@Z 000000018002de60 f   PINPadImpl.obj
 0001:0002cea0       ?get_MerchantID@COPOSPINPad@@UEAAJPEAPEA_W@Z 000000018002dea0 f   PINPadImpl.obj
 0001:0002cee0       ?put_MerchantID@COPOSPINPad@@UEAAJPEA_W@Z 000000018002dee0 f   PINPadImpl.obj
 0001:0002cf20       ?get_MinimumPINLength@COPOSPINPad@@UEAAJPEAJ@Z 000000018002df20 f   PINPadImpl.obj
 0001:0002cf60       ?put_MinimumPINLength@COPOSPINPad@@UEAAJJ@Z 000000018002df60 f   PINPadImpl.obj
 0001:0002cfa0       ?get_PINEntryEnabled@COPOSPINPad@@UEAAJPEAF@Z 000000018002dfa0 f   PINPadImpl.obj
 0001:0002cfe0       ?get_Prompt@COPOSPINPad@@UEAAJPEAJ@Z 000000018002dfe0 f   PINPadImpl.obj
 0001:0002d020       ?put_Prompt@COPOSPINPad@@UEAAJJ@Z 000000018002e020 f   PINPadImpl.obj
 0001:0002d060       ?get_PromptLanguage@COPOSPINPad@@UEAAJPEAJ@Z 000000018002e060 f   PINPadImpl.obj
 0001:0002d0a0       ?put_PromptLanguage@COPOSPINPad@@UEAAJJ@Z 000000018002e0a0 f   PINPadImpl.obj
 0001:0002d0e0       ?get_TerminalID@COPOSPINPad@@UEAAJPEAPEA_W@Z 000000018002e0e0 f   PINPadImpl.obj
 0001:0002d120       ?put_TerminalID@COPOSPINPad@@UEAAJPEA_W@Z 000000018002e120 f   PINPadImpl.obj
 0001:0002d160       ?get_Track1Data@COPOSPINPad@@UEAAJPEAPEA_W@Z 000000018002e160 f   PINPadImpl.obj
 0001:0002d1a0       ?put_Track1Data@COPOSPINPad@@UEAAJPEA_W@Z 000000018002e1a0 f   PINPadImpl.obj
 0001:0002d1e0       ?get_Track2Data@COPOSPINPad@@UEAAJPEAPEA_W@Z 000000018002e1e0 f   PINPadImpl.obj
 0001:0002d220       ?put_Track2Data@COPOSPINPad@@UEAAJPEA_W@Z 000000018002e220 f   PINPadImpl.obj
 0001:0002d260       ?get_Track3Data@COPOSPINPad@@UEAAJPEAPEA_W@Z 000000018002e260 f   PINPadImpl.obj
 0001:0002d2a0       ?put_Track3Data@COPOSPINPad@@UEAAJPEA_W@Z 000000018002e2a0 f   PINPadImpl.obj
 0001:0002d2e0       ?get_TransactionType@COPOSPINPad@@UEAAJPEAJ@Z 000000018002e2e0 f   PINPadImpl.obj
 0001:0002d320       ?put_TransactionType@COPOSPINPad@@UEAAJJ@Z 000000018002e320 f   PINPadImpl.obj
 0001:0002d360       ?BeginEFTTransaction@COPOSPINPad@@UEAAJPEA_WJPEAJ@Z 000000018002e360 f   PINPadImpl.obj
 0001:0002d490       ?ComputeMAC@COPOSPINPad@@UEAAJPEA_WPEAPEA_WPEAJ@Z 000000018002e490 f   PINPadImpl.obj
 0001:0002d5d0       ?EnablePINEntry@COPOSPINPad@@UEAAJPEAJ@Z 000000018002e5d0 f   PINPadImpl.obj
 0001:0002d630       ?EndEFTTransaction@COPOSPINPad@@UEAAJJPEAJ@Z 000000018002e630 f   PINPadImpl.obj
 0001:0002d6f0       ?UpdateKey@COPOSPINPad@@UEAAJJPEA_WPEAJ@Z 000000018002e6f0 f   PINPadImpl.obj
 0001:0002d820       ?VerifyMAC@COPOSPINPad@@UEAAJPEA_WPEAJ@Z 000000018002e820 f   PINPadImpl.obj
 0001:0002d900       ?get_Track4Data@COPOSPINPad@@UEAAJPEAPEA_W@Z 000000018002e900 f   PINPadImpl.obj
 0001:0002d940       ?put_Track4Data@COPOSPINPad@@UEAAJPEA_W@Z 000000018002e940 f   PINPadImpl.obj
 0001:0002d980       ?get_CapStatisticsReporting@COPOSPINPad@@UEAAJPEAF@Z 000000018002e980 f   PINPadImpl.obj
 0001:0002d9c0       ?get_CapUpdateStatistics@COPOSPINPad@@UEAAJPEAF@Z 000000018002e9c0 f   PINPadImpl.obj
 0001:0002da00       ?ResetStatistics@COPOSPINPad@@UEAAJPEA_WPEAJ@Z 000000018002ea00 f   PINPadImpl.obj
 0001:0002dae0       ?RetrieveStatistics@COPOSPINPad@@UEAAJPEAPEA_WPEAJ@Z 000000018002eae0 f   PINPadImpl.obj
 0001:0002dbc0       ?UpdateStatistics@COPOSPINPad@@UEAAJPEA_WPEAJ@Z 000000018002ebc0 f   PINPadImpl.obj
 0001:0002dca0       ?get_CapCompareFirmwareVersion@COPOSPINPad@@UEAAJPEAF@Z 000000018002eca0 f   PINPadImpl.obj
 0001:0002dce0       ?get_CapUpdateFirmware@COPOSPINPad@@UEAAJPEAF@Z 000000018002ece0 f   PINPadImpl.obj
 0001:0002dd20       ?CompareFirmwareVersion@COPOSPINPad@@UEAAJPEA_WPEAJ1@Z 000000018002ed20 f   PINPadImpl.obj
 0001:0002de60       ?UpdateFirmware@COPOSPINPad@@UEAAJPEA_WPEAJ@Z 000000018002ee60 f   PINPadImpl.obj
 0001:0002df40       ?ClearInputProperties@COPOSPINPad@@UEAAJPEAJ@Z 000000018002ef40 f   PINPadImpl.obj
 0001:0002df90       ??0?$CComControl@VCOPOSPINPad@@V?$CWindowImpl@VCOPOSPINPad@@VCWindow@ATL@@V?$CWinTraits@$0FGAAAAAA@$0A@@3@@ATL@@@ATL@@QEAA@XZ 000000018002ef90 f i PINPadImpl.obj
 0001:0002dfd0       ??0?$CComPtr@UIAdviseSink@@@ATL@@QEAA@XZ 000000018002efd0 f i PINPadImpl.obj
 0001:0002dff0       ??0?$CComPtr@UIDataAdviseHolder@@@ATL@@QEAA@XZ 000000018002eff0 f i PINPadImpl.obj
 0001:0002e010       ??0?$CComPtr@UIOleAdviseHolder@@@ATL@@QEAA@XZ 000000018002f010 f i PINPadImpl.obj
 0001:0002e030       ??0?$CComPtr@UIOleClientSite@@@ATL@@QEAA@XZ 000000018002f030 f i PINPadImpl.obj
 0001:0002e050       ??0?$CComPtr@UIOleInPlaceSiteWindowless@@@ATL@@QEAA@XZ 000000018002f050 f i PINPadImpl.obj
 0001:0002e070       ??0?$CComPtrBase@UIAdviseSink@@@ATL@@IEAA@XZ 000000018002f070 f i PINPadImpl.obj
 0001:0002e090       ??0?$CComPtrBase@UIDataAdviseHolder@@@ATL@@IEAA@XZ 000000018002f090 f i PINPadImpl.obj
 0001:0002e0b0       ??0?$CComPtrBase@UIOleAdviseHolder@@@ATL@@IEAA@XZ 000000018002f0b0 f i PINPadImpl.obj
 0001:0002e0d0       ??0?$CComPtrBase@UIOleClientSite@@@ATL@@IEAA@XZ 000000018002f0d0 f i PINPadImpl.obj
 0001:0002e0f0       ??0?$CComPtrBase@UIOleInPlaceSiteWindowless@@@ATL@@IEAA@XZ 000000018002f0f0 f i PINPadImpl.obj
 0001:0002e110       ??0?$CComQIPtr@UIDispatch@@$1?_GUID_00020400_0000_0000_c000_000000000046@@3U__s_GUID@@B@ATL@@QEAA@XZ 000000018002f110 f i PINPadImpl.obj
 0001:0002e130       ??0?$CProxy_IOPOSEvents@VCOPOSPINPad@@@@QEAA@PEAVCOPOSPINPad@@@Z 000000018002f130 f i PINPadImpl.obj
 0001:0002e1b0       ??0?$CWindowImpl@VCOPOSPINPad@@VCWindow@ATL@@V?$CWinTraits@$0FGAAAAAA@$0A@@3@@ATL@@QEAA@XZ 000000018002f1b0 f i PINPadImpl.obj
 0001:0002e1d0       ??0?$CWindowImplBaseT@VCWindow@ATL@@V?$CWinTraits@$0FGAAAAAA@$0A@@2@@ATL@@QEAA@XZ 000000018002f1d0 f i PINPadImpl.obj
 0001:0002e200       ??0?$CWindowImplRoot@VCWindow@ATL@@@ATL@@QEAA@XZ 000000018002f200 f i PINPadImpl.obj
 0001:0002e260       ??0?$IConnectionPointContainerImpl@VCOPOSPINPad@@@ATL@@QEAA@XZ 000000018002f260 f i PINPadImpl.obj
 0001:0002e280       ??0?$IConnectionPointImpl@VCOPOSPINPad@@$1?DIID__IOPOSPINPadEvents@@3U_GUID@@BVCComDynamicUnkArray@ATL@@@ATL@@QEAA@XZ 000000018002f280 f i PINPadImpl.obj
 0001:0002e2b0       ??0?$IConnectionPointImpl@VCOPOSPINPad@@$1?IID_IPropertyNotifySink@@3U_GUID@@BVCComDynamicUnkArray@ATL@@@ATL@@QEAA@XZ 000000018002f2b0 f i PINPadImpl.obj
 0001:0002e2e0       ??0?$IDataObjectImpl@VCOPOSPINPad@@@ATL@@QEAA@XZ 000000018002f2e0 f i PINPadImpl.obj
 0001:0002e300       ??0?$IDispatchImpl@UIOPOSPINPad@@$1?IID_IOPOSPINPad@@3U_GUID@@B$1?LIBID_OposPINPad_CCO@@3U3@B$00$0A@VCComTypeInfoHolder@ATL@@@ATL@@QEAA@XZ 000000018002f300 f i PINPadImpl.obj
 0001:0002e320       ??0?$IObjectSafetyImpl@VCOPOSPINPad@@$02@ATL@@QEAA@XZ 000000018002f320 f i PINPadImpl.obj
 0001:0002e350       ??0?$IOleControlImpl@VCOPOSPINPad@@@ATL@@QEAA@XZ 000000018002f350 f i PINPadImpl.obj
 0001:0002e370       ??0?$IOleInPlaceActiveObjectImpl@VCOPOSPINPad@@@ATL@@QEAA@XZ 000000018002f370 f i PINPadImpl.obj
 0001:0002e390       ??0?$IOleInPlaceObjectWindowlessImpl@VCOPOSPINPad@@@ATL@@QEAA@XZ 000000018002f390 f i PINPadImpl.obj
 0001:0002e3b0       ??0?$IOleObjectImpl@VCOPOSPINPad@@@ATL@@QEAA@XZ 000000018002f3b0 f i PINPadImpl.obj
 0001:0002e3d0       ??0?$IPersistStorageImpl@VCOPOSPINPad@@@ATL@@QEAA@XZ 000000018002f3d0 f i PINPadImpl.obj
 0001:0002e3f0       ??0?$IPersistStreamInitImpl@VCOPOSPINPad@@@ATL@@QEAA@XZ 000000018002f3f0 f i PINPadImpl.obj
 0001:0002e410       ??0?$IPropertyNotifySinkCP@VCOPOSPINPad@@VCComDynamicUnkArray@ATL@@@ATL@@QEAA@XZ 000000018002f410 f i PINPadImpl.obj
 0001:0002e430       ??0?$IProvideClassInfo2Impl@$1?CLSID_OPOSPINPad@@3U_GUID@@B$1?DIID__IOPOSPINPadEvents@@3U2@B$1?LIBID_OposPINPad_CCO@@3U2@B$00$0A@VCComTypeInfoHolder@ATL@@@ATL@@QEAA@XZ 000000018002f430 f i PINPadImpl.obj
 0001:0002e450       ??0?$IQuickActivateImpl@VCOPOSPINPad@@@ATL@@QEAA@XZ 000000018002f450 f i PINPadImpl.obj
 0001:0002e470       ??0?$ISpecifyPropertyPagesImpl@VCOPOSPINPad@@@ATL@@QEAA@XZ 000000018002f470 f i PINPadImpl.obj
 0001:0002e490       ??0?$IViewObjectExImpl@VCOPOSPINPad@@@ATL@@QEAA@XZ 000000018002f490 f i PINPadImpl.obj
 0001:0002e4b0       ??0?$_ICPLocator@$1?DIID__IOPOSPINPadEvents@@3U_GUID@@B@ATL@@QEAA@XZ 000000018002f4b0 f i PINPadImpl.obj
 0001:0002e4c0       ??0?$_ICPLocator@$1?IID_IPropertyNotifySink@@3U_GUID@@B@ATL@@QEAA@XZ 000000018002f4c0 f i PINPadImpl.obj
 0001:0002e4d0       ??0CComControlBase@ATL@@QEAA@AEAPEAUHWND__@@@Z 000000018002f4d0 f i PINPadImpl.obj
 0001:0002e6e0       ??0CComDynamicUnkArray@ATL@@QEAA@XZ 000000018002f6e0 f i PINPadImpl.obj
 0001:0002e710       ??0CDynamicStdCallThunk2@ATL@@QEAA@XZ 000000018002f710 f i PINPadImpl.obj
 0001:0002e730       ??0CMessageMap@ATL@@QEAA@XZ 000000018002f730 f i PINPadImpl.obj
 0001:0002e740       ??0CWindow@ATL@@QEAA@PEAUHWND__@@@Z 000000018002f740 f i PINPadImpl.obj
 0001:0002e760       ??0CWndProcThunk@ATL@@QEAA@XZ 000000018002f760 f i PINPadImpl.obj
 0001:0002e790       ??0IConnectionPointContainer@@QEAA@XZ 000000018002f790 f i PINPadImpl.obj
 0001:0002e7b0       ??0IDataObject@@QEAA@XZ    000000018002f7b0 f i PINPadImpl.obj
 0001:0002e7d0       ??0IDispatch@@QEAA@XZ      000000018002f7d0 f i PINPadImpl.obj
 0001:0002e7f0       ??0IOPOSPINPad@@QEAA@XZ    000000018002f7f0 f i PINPadImpl.obj
 0001:0002e810       ??0IOPOSPINPad_1_10@@QEAA@XZ 000000018002f810 f i PINPadImpl.obj
 0001:0002e830       ??0IOPOSPINPad_1_5@@QEAA@XZ 000000018002f830 f i PINPadImpl.obj
 0001:0002e850       ??0IOPOSPINPad_1_8@@QEAA@XZ 000000018002f850 f i PINPadImpl.obj
 0001:0002e870       ??0IOPOSPINPad_1_9@@QEAA@XZ 000000018002f870 f i PINPadImpl.obj
 0001:0002e890       ??0IObjectSafety@@QEAA@XZ  000000018002f890 f i PINPadImpl.obj
 0001:0002e8b0       ??0IOleControl@@QEAA@XZ    000000018002f8b0 f i PINPadImpl.obj
 0001:0002e8d0       ??0IOleInPlaceActiveObject@@QEAA@XZ 000000018002f8d0 f i PINPadImpl.obj
 0001:0002e8f0       ??0IOleInPlaceObject@@QEAA@XZ 000000018002f8f0 f i PINPadImpl.obj
 0001:0002e910       ??0IOleInPlaceObjectWindowless@@QEAA@XZ 000000018002f910 f i PINPadImpl.obj
 0001:0002e930       ??0IOleObject@@QEAA@XZ     000000018002f930 f i PINPadImpl.obj
 0001:0002e950       ??0IOleWindow@@QEAA@XZ     000000018002f950 f i PINPadImpl.obj
 0001:0002e970       ??0IPersist@@QEAA@XZ       000000018002f970 f i PINPadImpl.obj
 0001:0002e990       ??0IPersistStorage@@QEAA@XZ 000000018002f990 f i PINPadImpl.obj
 0001:0002e9b0       ??0IPersistStreamInit@@QEAA@XZ 000000018002f9b0 f i PINPadImpl.obj
 0001:0002e9d0       ??0IProvideClassInfo2@@QEAA@XZ 000000018002f9d0 f i PINPadImpl.obj
 0001:0002e9f0       ??0IProvideClassInfo@@QEAA@XZ 000000018002f9f0 f i PINPadImpl.obj
 0001:0002ea10       ??0IQuickActivate@@QEAA@XZ 000000018002fa10 f i PINPadImpl.obj
 0001:0002ea30       ??0ISpecifyPropertyPages@@QEAA@XZ 000000018002fa30 f i PINPadImpl.obj
 0001:0002ea50       ??0IViewObject2@@QEAA@XZ   000000018002fa50 f i PINPadImpl.obj
 0001:0002ea70       ??0IViewObject@@QEAA@XZ    000000018002fa70 f i PINPadImpl.obj
 0001:0002ea90       ??0IViewObjectEx@@QEAA@XZ  000000018002fa90 f i PINPadImpl.obj
 0001:0002eab0       ??0OposVariantResult@@QEAA@XZ 000000018002fab0 f i PINPadImpl.obj
 0001:0002ead0       ??0_CW@@QEAA@PEBD@Z        000000018002fad0 f i PINPadImpl.obj
 0001:0002eb20       ??0_CW@@QEAA@PEB_W@Z       000000018002fb20 f i PINPadImpl.obj
 0001:0002eb70       ??0_CWNCC@@QEAA@PEBD@Z     000000018002fb70 f i PINPadImpl.obj
 0001:0002eba0       ??1?$CComControl@VCOPOSPINPad@@V?$CWindowImpl@VCOPOSPINPad@@VCWindow@ATL@@V?$CWinTraits@$0FGAAAAAA@$0A@@3@@ATL@@@ATL@@UEAA@XZ 000000018002fba0 f i PINPadImpl.obj
 0001:0002ebd0       ??1?$CComPtr@UIDataAdviseHolder@@@ATL@@QEAA@XZ 000000018002fbd0 f i PINPadImpl.obj
 0001:0002ebf0       ??1?$CComPtr@UIOleAdviseHolder@@@ATL@@QEAA@XZ 000000018002fbf0 f i PINPadImpl.obj
 0001:0002ec10       ??1?$CComPtr@UIOleInPlaceSiteWindowless@@@ATL@@QEAA@XZ 000000018002fc10 f i PINPadImpl.obj
 0001:0002ec30       ??1?$CComPtrBase@UIDataAdviseHolder@@@ATL@@QEAA@XZ 000000018002fc30 f i PINPadImpl.obj
 0001:0002ec70       ??1?$CComPtrBase@UIOleAdviseHolder@@@ATL@@QEAA@XZ 000000018002fc70 f i PINPadImpl.obj
 0001:0002ecb0       ??1?$CComPtrBase@UIOleInPlaceSiteWindowless@@@ATL@@QEAA@XZ 000000018002fcb0 f i PINPadImpl.obj
 0001:0002ecf0       ??1?$CComQIPtr@UIDispatch@@$1?_GUID_00020400_0000_0000_c000_000000000046@@3U__s_GUID@@B@ATL@@QEAA@XZ 000000018002fcf0 f i PINPadImpl.obj
 0001:0002ed10       ??1?$CProxy_IOPOSEvents@VCOPOSPINPad@@@@QEAA@XZ 000000018002fd10 f i PINPadImpl.obj
 0001:0002ed30       ??1?$CWindowImpl@VCOPOSPINPad@@VCWindow@ATL@@V?$CWinTraits@$0FGAAAAAA@$0A@@3@@ATL@@UEAA@XZ 000000018002fd30 f i PINPadImpl.obj
 0001:0002ed50       ??1?$CWindowImplBaseT@VCWindow@ATL@@V?$CWinTraits@$0FGAAAAAA@$0A@@2@@ATL@@UEAA@XZ 000000018002fd50 f i PINPadImpl.obj
 0001:0002ed70       ??1?$CWindowImplRoot@VCWindow@ATL@@@ATL@@UEAA@XZ 000000018002fd70 f i PINPadImpl.obj
 0001:0002ee20       ??1?$IConnectionPointImpl@VCOPOSPINPad@@$1?DIID__IOPOSPINPadEvents@@3U_GUID@@BVCComDynamicUnkArray@ATL@@@ATL@@QEAA@XZ 000000018002fe20 f i PINPadImpl.obj
 0001:0002eea0       ??1?$IConnectionPointImpl@VCOPOSPINPad@@$1?IID_IPropertyNotifySink@@3U_GUID@@BVCComDynamicUnkArray@ATL@@@ATL@@QEAA@XZ 000000018002fea0 f i PINPadImpl.obj
 0001:0002ef20       ??1?$IPropertyNotifySinkCP@VCOPOSPINPad@@VCComDynamicUnkArray@ATL@@@ATL@@QEAA@XZ 000000018002ff20 f i PINPadImpl.obj
 0001:0002ef40       ??1CComControlBase@ATL@@UEAA@XZ 000000018002ff40 f i PINPadImpl.obj
 0001:0002f020       ??1CComDynamicUnkArray@ATL@@QEAA@XZ 0000000180030020 f i PINPadImpl.obj
 0001:0002f050       ??1CDynamicStdCallThunk2@ATL@@QEAA@XZ 0000000180030050 f i PINPadImpl.obj
 0001:0002f080       ??1CWndProcThunk@ATL@@QEAA@XZ 0000000180030080 f i PINPadImpl.obj
 0001:0002f0b0       ??1OposVariantResult@@QEAA@XZ 00000001800300b0 f i PINPadImpl.obj
 0001:0002f0e0       ??1_CW@@QEAA@XZ            00000001800300e0 f i PINPadImpl.obj
 0001:0002f140       ??1_CWNCC@@QEAA@XZ         0000000180030140 f i PINPadImpl.obj
 0001:0002f160       ??B_CW@@QEAAPEB_WXZ        0000000180030160 f i PINPadImpl.obj
 0001:0002f190       ??B_CWNCC@@QEAAPEA_WXZ     0000000180030190 f i PINPadImpl.obj
 0001:0002f1b0       ??_EOposVariant@@QEAAPEAXI@Z 00000001800301b0 f i PINPadImpl.obj
 0001:0002f250       ?EventClaim@COPOSPINPad@@IEAAXXZ 0000000180030250 f i PINPadImpl.obj
 0001:0002f280       ?EventClose@COPOSPINPad@@IEAAXXZ 0000000180030280 f i PINPadImpl.obj
 0001:0002f320       ?EventInit@COPOSPINPad@@IEAAJXZ 0000000180030320 f i PINPadImpl.obj
 0001:0002f5d0       ?EventOpen@COPOSPINPad@@IEAAXXZ 00000001800305d0 f i PINPadImpl.obj
 0001:0002f610       ?EventPreCloseRelease@COPOSPINPad@@IEAAXXZ 0000000180030610 f i PINPadImpl.obj
 0001:0002f680       ?EventUninit@COPOSPINPad@@IEAAXXZ 0000000180030680 f i PINPadImpl.obj
 0001:0002f7a0       ?EventWindowProc@COPOSPINPad@@IEAA_JI_K_J@Z 00000001800307a0 f i PINPadImpl.obj
 0001:0002f960       ?FireEventCleanup@COPOSPINPad@@IEAAXXZ 0000000180030960 f i PINPadImpl.obj
 0001:0002f9a0       ?FireEventSetup@COPOSPINPad@@IEAA_NXZ 00000001800309a0 f i PINPadImpl.obj
 0001:0002fa10       ?GetModuleInstance@CComModule@ATL@@QEAAPEAUHINSTANCE__@@XZ 0000000180030a10 f i PINPadImpl.obj
 0001:0002fa20       ?SetRC@COPOSPINPad@@IEAAJJ@Z 0000000180030a20 f i PINPadImpl.obj
 0001:0002fa40       ?s_EventWindowProc@COPOSPINPad@@KA_JPEAUHWND__@@I_K_J@Z 0000000180030a40 f i PINPadImpl.obj
 0001:0002fae0       _snwprintf                 0000000180030ae0 f i PINPadImpl.obj
 0001:0002fb70       _vfwprintf_l               0000000180030b70 f i PINPadImpl.obj
 0001:0002fbc0       _vsnwprintf                0000000180030bc0 f i PINPadImpl.obj
 0001:0002fc00       _vsnwprintf_l              0000000180030c00 f i PINPadImpl.obj
 0001:0002fc80       vfwprintf                  0000000180030c80 f i PINPadImpl.obj
 0001:0002fcb1       DebugBreak                 0000000180030cb1 f   kernel32:KERNEL32.dll
 0001:0002fcb7       Sleep                      0000000180030cb7 f   kernel32:KERNEL32.dll
 0001:0002fcbd       GetCurrentProcess          0000000180030cbd f   kernel32:KERNEL32.dll
 0001:0002fcc3       TerminateProcess           0000000180030cc3 f   kernel32:KERNEL32.dll
 0001:0002fcc9       MultiByteToWideChar        0000000180030cc9 f   kernel32:KERNEL32.dll
 0001:0002fccf       WideCharToMultiByte        0000000180030ccf f   kernel32:KERNEL32.dll
 0001:0002fcd5       DecodePointer              0000000180030cd5 f   kernel32:KERNEL32.dll
 0001:0002fcdb       RaiseException             0000000180030cdb f   kernel32:KERNEL32.dll
 0001:0002fce1       GetLastError               0000000180030ce1 f   kernel32:KERNEL32.dll
 0001:0002fce7       SetLastError               0000000180030ce7 f   kernel32:KERNEL32.dll
 0001:0002fced       InitializeCriticalSectionEx 0000000180030ced f   kernel32:KERNEL32.dll
 0001:0002fcf3       DeleteCriticalSection      0000000180030cf3 f   kernel32:KERNEL32.dll
 0001:0002fcf9       EncodePointer              0000000180030cf9 f   kernel32:KERNEL32.dll
 0001:0002fcff       EnterCriticalSection       0000000180030cff f   kernel32:KERNEL32.dll
 0001:0002fd05       LeaveCriticalSection       0000000180030d05 f   kernel32:KERNEL32.dll
 0001:0002fd0b       ResetEvent                 0000000180030d0b f   kernel32:KERNEL32.dll
 0001:0002fd11       ReleaseMutex               0000000180030d11 f   kernel32:KERNEL32.dll
 0001:0002fd17       WaitForSingleObject        0000000180030d17 f   kernel32:KERNEL32.dll
 0001:0002fd1d       GetCurrentThreadId         0000000180030d1d f   kernel32:KERNEL32.dll
 0001:0002fd23       DisableThreadLibraryCalls  0000000180030d23 f   kernel32:KERNEL32.dll
 0001:0002fd29       FreeLibrary                0000000180030d29 f   kernel32:KERNEL32.dll
 0001:0002fd2f       GetModuleFileNameW         0000000180030d2f f   kernel32:KERNEL32.dll
 0001:0002fd35       GetModuleHandleW           0000000180030d35 f   kernel32:KERNEL32.dll
 0001:0002fd3b       GetProcAddress             0000000180030d3b f   kernel32:KERNEL32.dll
 0001:0002fd41       LoadLibraryExW             0000000180030d41 f   kernel32:KERNEL32.dll
 0001:0002fd47       LoadResource               0000000180030d47 f   kernel32:KERNEL32.dll
 0001:0002fd4d       SizeofResource             0000000180030d4d f   kernel32:KERNEL32.dll
 0001:0002fd53       FindResourceW              0000000180030d53 f   kernel32:KERNEL32.dll
 0001:0002fd59       GlobalAlloc                0000000180030d59 f   kernel32:KERNEL32.dll
 0001:0002fd5f       GlobalUnlock               0000000180030d5f f   kernel32:KERNEL32.dll
 0001:0002fd65       GlobalLock                 0000000180030d65 f   kernel32:KERNEL32.dll
 0001:0002fd6b       MulDiv                     0000000180030d6b f   kernel32:KERNEL32.dll
 0001:0002fd71       lstrcmpiW                  0000000180030d71 f   kernel32:KERNEL32.dll
 0001:0002fd77       DeleteFileW                0000000180030d77 f   kernel32:KERNEL32.dll
 0001:0002fd7d       CloseHandle                0000000180030d7d f   kernel32:KERNEL32.dll
 0001:0002fd83       SetEvent                   0000000180030d83 f   kernel32:KERNEL32.dll
 0001:0002fd89       CreateMutexW               0000000180030d89 f   kernel32:KERNEL32.dll
 0001:0002fd8f       CreateEventW               0000000180030d8f f   kernel32:KERNEL32.dll
 0001:0002fd95       GetCurrentProcessId        0000000180030d95 f   kernel32:KERNEL32.dll
 0001:0002fd9b       LocalFree                  0000000180030d9b f   kernel32:KERNEL32.dll
 0001:0002fda1       FormatMessageW             0000000180030da1 f   kernel32:KERNEL32.dll
 0001:0002fda7       GetActiveWindow            0000000180030da7 f   user32:USER32.dll
 0001:0002fdad       MessageBoxW                0000000180030dad f   user32:USER32.dll
 0001:0002fdb3       UnregisterClassW           0000000180030db3 f   user32:USER32.dll
 0001:0002fdb9       PostMessageW               0000000180030db9 f   user32:USER32.dll
 0001:0002fdbf       DefWindowProcW             0000000180030dbf f   user32:USER32.dll
 0001:0002fdc5       CallWindowProcW            0000000180030dc5 f   user32:USER32.dll
 0001:0002fdcb       RegisterClassExW           0000000180030dcb f   user32:USER32.dll
 0001:0002fdd1       GetClassInfoExW            0000000180030dd1 f   user32:USER32.dll
 0001:0002fdd7       CreateWindowExW            0000000180030dd7 f   user32:USER32.dll
 0001:0002fddd       IsWindow                   0000000180030ddd f   user32:USER32.dll
 0001:0002fde3       IsChild                    0000000180030de3 f   user32:USER32.dll
 0001:0002fde9       DestroyWindow              0000000180030de9 f   user32:USER32.dll
 0001:0002fdef       ShowWindow                 0000000180030def f   user32:USER32.dll
 0001:0002fdf5       SetWindowPos               0000000180030df5 f   user32:USER32.dll
 0001:0002fdfb       CharNextW                  0000000180030dfb f   user32:USER32.dll
 0001:0002fe01       SetFocus                   0000000180030e01 f   user32:USER32.dll
 0001:0002fe07       GetFocus                   0000000180030e07 f   user32:USER32.dll
 0001:0002fe0d       GetKeyState                0000000180030e0d f   user32:USER32.dll
 0001:0002fe13       GetDC                      0000000180030e13 f   user32:USER32.dll
 0001:0002fe19       ReleaseDC                  0000000180030e19 f   user32:USER32.dll
 0001:0002fe1f       BeginPaint                 0000000180030e1f f   user32:USER32.dll
 0001:0002fe25       EndPaint                   0000000180030e25 f   user32:USER32.dll
 0001:0002fe2b       SetWindowRgn               0000000180030e2b f   user32:USER32.dll
 0001:0002fe31       InvalidateRect             0000000180030e31 f   user32:USER32.dll
 0001:0002fe37       GetClientRect              0000000180030e37 f   user32:USER32.dll
 0001:0002fe3d       IntersectRect              0000000180030e3d f   user32:USER32.dll
 0001:0002fe43       UnionRect                  0000000180030e43 f   user32:USER32.dll
 0001:0002fe49       OffsetRect                 0000000180030e49 f   user32:USER32.dll
 0001:0002fe4f       EqualRect                  0000000180030e4f f   user32:USER32.dll
 0001:0002fe55       PtInRect                   0000000180030e55 f   user32:USER32.dll
 0001:0002fe5b       GetWindowLongPtrW          0000000180030e5b f   user32:USER32.dll
 0001:0002fe61       SetWindowLongPtrW          0000000180030e61 f   user32:USER32.dll
 0001:0002fe67       GetParent                  0000000180030e67 f   user32:USER32.dll
 0001:0002fe6d       LoadCursorW                0000000180030e6d f   user32:USER32.dll
 0001:0002fe73       PeekMessageW               0000000180030e73 f   user32:USER32.dll
 0001:0002fe79       RegisterClassW             0000000180030e79 f   user32:USER32.dll
 0001:0002fe7f       LoadBitmapW                0000000180030e7f f   user32:USER32.dll
 0001:0002fe85       CloseMetaFile              0000000180030e85 f   gdi32:GDI32.dll
 0001:0002fe8b       CreateDCW                  0000000180030e8b f   gdi32:GDI32.dll
 0001:0002fe91       CreateMetaFileW            0000000180030e91 f   gdi32:GDI32.dll
 0001:0002fe97       CreateRectRgnIndirect      0000000180030e97 f   gdi32:GDI32.dll
 0001:0002fe9d       DeleteDC                   0000000180030e9d f   gdi32:GDI32.dll
 0001:0002fea3       DeleteMetaFile             0000000180030ea3 f   gdi32:GDI32.dll
 0001:0002fea9       GetDeviceCaps              0000000180030ea9 f   gdi32:GDI32.dll
 0001:0002feaf       RestoreDC                  0000000180030eaf f   gdi32:GDI32.dll
 0001:0002feb5       SaveDC                     0000000180030eb5 f   gdi32:GDI32.dll
 0001:0002febb       SetMapMode                 0000000180030ebb f   gdi32:GDI32.dll
 0001:0002fec1       LPtoDP                     0000000180030ec1 f   gdi32:GDI32.dll
 0001:0002fec7       SetViewportOrgEx           0000000180030ec7 f   gdi32:GDI32.dll
 0001:0002fecd       SetWindowExtEx             0000000180030ecd f   gdi32:GDI32.dll
 0001:0002fed3       SetWindowOrgEx             0000000180030ed3 f   gdi32:GDI32.dll
 0001:0002fed9       BitBlt                     0000000180030ed9 f   gdi32:GDI32.dll
 0001:0002fedf       CreateCompatibleDC         0000000180030edf f   gdi32:GDI32.dll
 0001:0002fee5       DeleteObject               0000000180030ee5 f   gdi32:GDI32.dll
 0001:0002feeb       SelectObject               0000000180030eeb f   gdi32:GDI32.dll
 0001:0002fef1       GetObjectW                 0000000180030ef1 f   gdi32:GDI32.dll
 0001:0002fef7       RegCloseKey                0000000180030ef7 f   advapi32:ADVAPI32.dll
 0001:0002fefd       RegCreateKeyExW            0000000180030efd f   advapi32:ADVAPI32.dll
 0001:0002ff03       RegDeleteKeyW              0000000180030f03 f   advapi32:ADVAPI32.dll
 0001:0002ff09       RegDeleteValueW            0000000180030f09 f   advapi32:ADVAPI32.dll
 0001:0002ff0f       RegEnumKeyExW              0000000180030f0f f   advapi32:ADVAPI32.dll
 0001:0002ff15       RegOpenKeyExW              0000000180030f15 f   advapi32:ADVAPI32.dll
 0001:0002ff1b       RegQueryInfoKeyW           0000000180030f1b f   advapi32:ADVAPI32.dll
 0001:0002ff21       RegSetValueExW             0000000180030f21 f   advapi32:ADVAPI32.dll
 0001:0002ff27       RegQueryValueExW           0000000180030f27 f   advapi32:ADVAPI32.dll
 0001:0002ff2d       CoCreateInstance           0000000180030f2d f   ole32:ole32.dll
 0001:0002ff33       StringFromGUID2            0000000180030f33 f   ole32:ole32.dll
 0001:0002ff39       CoTaskMemAlloc             0000000180030f39 f   ole32:ole32.dll
 0001:0002ff3f       CoTaskMemRealloc           0000000180030f3f f   ole32:ole32.dll
 0001:0002ff45       CoTaskMemFree              0000000180030f45 f   ole32:ole32.dll
 0001:0002ff4b       ReadClassStm               0000000180030f4b f   ole32:ole32.dll
 0001:0002ff51       WriteClassStm              0000000180030f51 f   ole32:ole32.dll
 0001:0002ff57       CreateDataAdviseHolder     0000000180030f57 f   ole32:ole32.dll
 0001:0002ff5d       OleSaveToStream            0000000180030f5d f   ole32:ole32.dll
 0001:0002ff63       CreateOleAdviseHolder      0000000180030f63 f   ole32:ole32.dll
 0001:0002ff69       OleRegGetUserType          0000000180030f69 f   ole32:ole32.dll
 0001:0002ff6f       OleRegGetMiscStatus        0000000180030f6f f   ole32:ole32.dll
 0001:0002ff75       OleRegEnumVerbs            0000000180030f75 f   ole32:ole32.dll
 0001:0002ff7b       CLSIDFromProgID            0000000180030f7b f   ole32:ole32.dll
 0001:0002ff81       SysAllocString             0000000180030f81 f   oleaut32:OLEAUT32.dll
 0001:0002ff87       SysAllocStringLen          0000000180030f87 f   oleaut32:OLEAUT32.dll
 0001:0002ff8d       SysFreeString              0000000180030f8d f   oleaut32:OLEAUT32.dll
 0001:0002ff93       SysStringLen               0000000180030f93 f   oleaut32:OLEAUT32.dll
 0001:0002ff99       VariantClear               0000000180030f99 f   oleaut32:OLEAUT32.dll
 0001:0002ff9f       VariantCopyInd             0000000180030f9f f   oleaut32:OLEAUT32.dll
 0001:0002ffa5       VariantChangeType          0000000180030fa5 f   oleaut32:OLEAUT32.dll
 0001:0002ffab       SysStringByteLen           0000000180030fab f   oleaut32:OLEAUT32.dll
 0001:0002ffb1       SysAllocStringByteLen      0000000180030fb1 f   oleaut32:OLEAUT32.dll
 0001:0002ffb7       VariantInit                0000000180030fb7 f   oleaut32:OLEAUT32.dll
 0001:0002ffbd       VarUI4FromStr              0000000180030fbd f   oleaut32:OLEAUT32.dll
 0001:0002ffc3       LoadTypeLib                0000000180030fc3 f   oleaut32:OLEAUT32.dll
 0001:0002ffc9       LoadRegTypeLib             0000000180030fc9 f   oleaut32:OLEAUT32.dll
 0001:0002ffcf       RegisterTypeLib            0000000180030fcf f   oleaut32:OLEAUT32.dll
 0001:0002ffd5       UnRegisterTypeLib          0000000180030fd5 f   oleaut32:OLEAUT32.dll
 0001:0002ffdb       OleCreatePropertyFrame     0000000180030fdb f   oleaut32:OLEAUT32.dll
 0001:0002fff0       _RTC_AllocaHelper          0000000180030ff0 f   LIBCMTD:stack.obj
 0001:00030030       _RTC_CheckStackVars        0000000180031030 f   LIBCMTD:stack.obj
 0001:000300c0       _RTC_CheckStackVars2       00000001800310c0 f   LIBCMTD:stack.obj
 0001:000301d0       _CRT_RTC_INIT              00000001800311d0 f   LIBCMTD:init.obj
 0001:000301e0       _CRT_RTC_INITW             00000001800311e0 f   LIBCMTD:init.obj
 0001:000301f0       _RTC_InitBase              00000001800311f0 f   LIBCMTD:init.obj
 0001:00030230       _RTC_Shutdown              0000000180031230 f   LIBCMTD:init.obj
 0001:00030260       __GSHandlerCheck           0000000180031260 f   LIBCMTD:gshandler.obj
 0001:000302a0       __GSHandlerCheckCommon     00000001800312a0 f   LIBCMTD:gshandler.obj
 0001:000303b0       __security_check_cookie    00000001800313b0 f   LIBCMTD:amdsecgs.obj
 0001:000303d0       ??_U@YAPEAX_K@Z            00000001800313d0 f   LIBCMTD:new_array.obj
 0001:000303f0       ??3@YAXPEAX_K@Z            00000001800313f0 f   LIBCMTD:delete_scalar_size.obj
 0001:00030410       ??_V@YAXPEAX@Z             0000000180031410 f   LIBCMTD:delete_array.obj
 0001:00030430       ??_V@YAXPEAX_K@Z           0000000180031430 f   LIBCMTD:delete_array_size.obj
 0001:00030450       ?configure_argv@__scrt_narrow_argv_policy@@SAHXZ 0000000180031450 f i LIBCMTD:utility.obj
 0001:00030540       ?initialize_environment@__scrt_narrow_environment_policy@@SAHXZ 0000000180031540 f i LIBCMTD:utility.obj
 0001:000305e0       NtCurrentTeb               00000001800315e0 f i LIBCMTD:utility.obj
 0001:000305f0       __scrt_acquire_startup_lock 00000001800315f0 f   LIBCMTD:utility.obj
 0001:00030660       __scrt_dllmain_after_initialize_c 0000000180031660 f   LIBCMTD:utility.obj
 0001:00030690       __scrt_dllmain_before_initialize_c 0000000180031690 f   LIBCMTD:utility.obj
 0001:000306b0       __scrt_dllmain_crt_thread_attach 00000001800316b0 f   LIBCMTD:utility.obj
 0001:000306e0       __scrt_dllmain_crt_thread_detach 00000001800316e0 f   LIBCMTD:utility.obj
 0001:00030700       __scrt_dllmain_exception_filter 0000000180031700 f   LIBCMTD:utility.obj
 0001:00030770       __scrt_dllmain_uninitialize_c 0000000180031770 f   LIBCMTD:utility.obj
 0001:000307a0       __scrt_dllmain_uninitialize_critical 00000001800317a0 f   LIBCMTD:utility.obj
 0001:000307c0       __scrt_initialize_crt      00000001800317c0 f   LIBCMTD:utility.obj
 0001:00030810       __scrt_initialize_onexit_tables 0000000180031810 f   LIBCMTD:utility.obj
 0001:00030920       __scrt_is_nonwritable_in_current_image 0000000180031920 f   LIBCMTD:utility.obj
 0001:000309b0       __scrt_release_startup_lock 00000001800319b0 f   LIBCMTD:utility.obj
 0001:000309e0       __scrt_uninitialize_crt    00000001800319e0 f   LIBCMTD:utility.obj
 0001:00030a20       _onexit                    0000000180031a20 f   LIBCMTD:utility.obj
 0001:00030aa0       at_quick_exit              0000000180031aa0 f   LIBCMTD:utility.obj
 0001:00030af0       atexit                     0000000180031af0 f   LIBCMTD:utility.obj
 0001:00030b30       ??3@YAXPEAX@Z              0000000180031b30 f   LIBCMTD:delete_scalar.obj
 0001:00030b50       __raise_securityfailure    0000000180031b50 f   LIBCMTD:gs_report.obj
 0001:00030b90       __report_gsfailure         0000000180031b90 f   LIBCMTD:gs_report.obj
 0001:00030c70       __report_rangecheckfailure 0000000180031c70 f   LIBCMTD:gs_report.obj
 0001:00030c90       __report_securityfailure   0000000180031c90 f   LIBCMTD:gs_report.obj
 0001:00030d30       __report_securityfailureEx 0000000180031d30 f   LIBCMTD:gs_report.obj
 0001:000310f0       _Init_thread_abort         00000001800320f0 f   LIBCMTD:thread_safe_statics.obj
 0001:00031120       _Init_thread_footer        0000000180032120 f   LIBCMTD:thread_safe_statics.obj
 0001:00031180       _Init_thread_header        0000000180032180 f   LIBCMTD:thread_safe_statics.obj
 0001:00031210       _Init_thread_lock          0000000180032210 f   LIBCMTD:thread_safe_statics.obj
 0001:00031230       _Init_thread_notify        0000000180032230 f   LIBCMTD:thread_safe_statics.obj
 0001:00031290       _Init_thread_unlock        0000000180032290 f   LIBCMTD:thread_safe_statics.obj
 0001:000312b0       _Init_thread_wait          00000001800322b0 f   LIBCMTD:thread_safe_statics.obj
 0001:00031360       ??2@YAPEAX_KAEBUnothrow_t@std@@@Z 0000000180032360 f   LIBCMTD:new_scalar_nothrow.obj
 0001:000313a0       ??_U@YAPEAX_KAEBUnothrow_t@std@@@Z 00000001800323a0 f   LIBCMTD:new_array_nothrow.obj
 0001:000313d0       __GSHandlerCheck_SEH       00000001800323d0 f   LIBCMTD:gshandlerseh.obj
 0001:000314a0       _alloca_probe              00000001800324a0 f   LIBCMTD:chkstk.obj
 0001:000314a0       __chkstk                   00000001800324a0 f   LIBCMTD:chkstk.obj
 0001:00031900       _CRT_INIT                  0000000180032900 f   LIBCMTD:dll_dllmain.obj
 0001:00031930       _DllMainCRTStartup         0000000180032930 f   LIBCMTD:dll_dllmain.obj
 0001:00031a00       ?_RTC_AllocaFailure@@YAXPEAXPEAU_RTC_ALLOCA_NODE@@H@Z 0000000180032a00 f   LIBCMTD:error.obj
 0001:00031b60       ?_RTC_Failure@@YAXPEAXH@Z  0000000180032b60 f   LIBCMTD:error.obj
 0001:00031bb0       ?_RTC_StackFailure@@YAXPEAXPEBD@Z 0000000180032bb0 f   LIBCMTD:error.obj
 0001:00031fe0       _RTC_UninitUse             0000000180032fe0 f   LIBCMTD:error.obj
 0001:000320b0       _vsprintf_s_l              00000001800330b0 f i LIBCMTD:error.obj
 0001:00032120       sprintf_s                  0000000180033120 f i LIBCMTD:error.obj
 0001:00032150       ?_RTC_GetErrorFunc@@YAP6AHHPEBDH00ZZPEBX@Z 0000000180033150 f   LIBCMTD:userapi.obj
 0001:00032160       ?_RTC_GetErrorFuncW@@YAP6AHHPEB_WH00ZZPEBX@Z 0000000180033160 f   LIBCMTD:userapi.obj
 0001:00032170       _RTC_GetErrDesc            0000000180033170 f   LIBCMTD:userapi.obj
 0001:00032190       _RTC_NumErrors             0000000180033190 f   LIBCMTD:userapi.obj
 0001:000321a0       _RTC_SetErrorFunc          00000001800331a0 f   LIBCMTD:userapi.obj
 0001:000321c0       _RTC_SetErrorFuncW         00000001800331c0 f   LIBCMTD:userapi.obj
 0001:000321e0       _RTC_SetErrorType          00000001800331e0 f   LIBCMTD:userapi.obj
 0001:00032200       ??2@YAPEAX_K@Z             0000000180033200 f   LIBCMTD:new_scalar.obj
 0001:00032250       __isa_available_init       0000000180033250 f   LIBCMTD:cpu_disp.obj
 0001:000325f0       _get_startup_argv_mode     00000001800335f0 f   LIBCMTD:argv_mode.obj
 0001:00032600       __scrt_is_ucrt_dll_in_use  0000000180033600 f   LIBCMTD:ucrt_detection.obj
 0001:00032630       __crt_debugger_hook        0000000180033630 f   LIBCMTD:utility_desktop.obj
 0001:00032640       __scrt_fastfail            0000000180033640 f   LIBCMTD:utility_desktop.obj
 0001:000327e0       __scrt_get_show_window_mode 00000001800337e0 f   LIBCMTD:utility_desktop.obj
 0001:00032840       __scrt_initialize_mta      0000000180033840 f   LIBCMTD:utility_desktop.obj
 0001:00032850       __scrt_initialize_winrt    0000000180033850 f   LIBCMTD:utility_desktop.obj
 0001:00032860       __scrt_is_managed_app      0000000180033860 f   LIBCMTD:utility_desktop.obj
 0001:00032910       __scrt_set_unhandled_exception_filter 0000000180033910 f   LIBCMTD:utility_desktop.obj
 0001:00032930       __scrt_stub_for_initialize_mta 0000000180033930 f   LIBCMTD:utility_desktop.obj
 0001:00032930       __scrt_exe_initialize_mta  0000000180033930 f   LIBCMTD:utility_desktop.obj
 0001:00032940       __scrt_unhandled_exception_filter 0000000180033940 f   LIBCMTD:utility_desktop.obj
 0001:000329e0       _guard_check_icall_nop     00000001800339e0 f i LIBCMTD:guard_support.obj
 0001:000329f0       ReadNoFence64              00000001800339f0 f i LIBCMTD:guard_support.obj
 0001:00032a10       ReadPointerNoFence         0000000180033a10 f i LIBCMTD:guard_support.obj
 0001:00032a30       __castguard_check_failure_debugbreak 0000000180033a30 f i LIBCMTD:guard_support.obj
 0001:00032a50       __castguard_check_failure_fastfail 0000000180033a50 f i LIBCMTD:guard_support.obj
 0001:00032a80       __castguard_check_failure_nop 0000000180033a80 f i LIBCMTD:guard_support.obj
 0001:00032a90       __castguard_check_failure_os_handled 0000000180033a90 f i LIBCMTD:guard_support.obj
 0001:00032b60       __castguard_slow_path_check_debugbreak 0000000180033b60 f i LIBCMTD:guard_support.obj
 0001:00032ba0       __castguard_slow_path_check_fastfail 0000000180033ba0 f i LIBCMTD:guard_support.obj
 0001:00032bf0       __castguard_slow_path_check_nop 0000000180033bf0 f i LIBCMTD:guard_support.obj
 0001:00032c00       __castguard_slow_path_check_os_handled 0000000180033c00 f i LIBCMTD:guard_support.obj
 0001:00032cc0       _guard_icall_checks_enforced 0000000180033cc0 f i LIBCMTD:guard_support.obj
 0001:00032d00       _guard_rf_checks_enforced  0000000180033d00 f i LIBCMTD:guard_support.obj
 0001:00032dd0       __security_init_cookie     0000000180033dd0 f   LIBCMTD:gs_support.obj
 0001:00032e50       ?__scrt_initialize_type_info@@YAXXZ 0000000180033e50 f   LIBCMTD:tncleanup.obj
 0001:00032e70       ?__scrt_uninitialize_type_info@@YAXXZ 0000000180033e70 f   LIBCMTD:tncleanup.obj
 0001:00032e90       __local_stdio_scanf_options 0000000180033e90 f i LIBCMTD:default_local_stdio_options.obj
 0001:00032ea0       __scrt_initialize_default_local_stdio_options 0000000180033ea0 f   LIBCMTD:default_local_stdio_options.obj
 0001:00032ef0       __scrt_get_dyn_tls_init_callback 0000000180033ef0 f   LIBCMTD:dyn_tls_init.obj
 0001:00032f00       _RTC_Initialize            0000000180033f00 f   LIBCMTD:initsect.obj
 0001:00032f50       _RTC_Terminate             0000000180033f50 f   LIBCMTD:initsect.obj
 0001:000334c0       ?_RTC_GetSrcLine@@YAHPEAEPEA_WKPEAH1K@Z 00000001800344c0 f   LIBCMTD:pdblkup.obj
 0001:00033890       ??0bad_alloc@std@@AEAA@QEBD@Z 0000000180034890 f i LIBCMTD:throw_bad_alloc.obj
 0001:000338d0       ??0bad_alloc@std@@QEAA@AEBV01@@Z 00000001800348d0 f i LIBCMTD:throw_bad_alloc.obj
 0001:00033910       ??0bad_alloc@std@@QEAA@XZ  0000000180034910 f i LIBCMTD:throw_bad_alloc.obj
 0001:00033950       ??0bad_array_new_length@std@@QEAA@AEBV01@@Z 0000000180034950 f i LIBCMTD:throw_bad_alloc.obj
 0001:00033990       ??0bad_array_new_length@std@@QEAA@XZ 0000000180034990 f i LIBCMTD:throw_bad_alloc.obj
 0001:000339d0       ??0exception@std@@QEAA@AEBV01@@Z 00000001800349d0 f i LIBCMTD:throw_bad_alloc.obj
 0001:00033a30       ??0exception@std@@QEAA@QEBDH@Z 0000000180034a30 f i LIBCMTD:throw_bad_alloc.obj
 0001:00033a80       ??1bad_alloc@std@@UEAA@XZ  0000000180034a80 f i LIBCMTD:throw_bad_alloc.obj
 0001:00033aa0       ??1bad_array_new_length@std@@UEAA@XZ 0000000180034aa0 f i LIBCMTD:throw_bad_alloc.obj
 0001:00033ac0       ??1exception@std@@UEAA@XZ  0000000180034ac0 f i LIBCMTD:throw_bad_alloc.obj
 0001:00033af0       ??_Ebad_alloc@std@@UEAAPEAXI@Z 0000000180034af0 f i LIBCMTD:throw_bad_alloc.obj
 0001:00033af0       ??_Gbad_alloc@std@@UEAAPEAXI@Z 0000000180034af0 f i LIBCMTD:throw_bad_alloc.obj
 0001:00033b30       ??_Ebad_array_new_length@std@@UEAAPEAXI@Z 0000000180034b30 f i LIBCMTD:throw_bad_alloc.obj
 0001:00033b30       ??_Gbad_array_new_length@std@@UEAAPEAXI@Z 0000000180034b30 f i LIBCMTD:throw_bad_alloc.obj
 0001:00033b70       ??_Eexception@std@@UEAAPEAXI@Z 0000000180034b70 f i LIBCMTD:throw_bad_alloc.obj
 0001:00033b70       ??_Gexception@std@@UEAAPEAXI@Z 0000000180034b70 f i LIBCMTD:throw_bad_alloc.obj
 0001:00033bb0       ?__scrt_throw_std_bad_alloc@@YAXXZ 0000000180034bb0 f   LIBCMTD:throw_bad_alloc.obj
 0001:00033be0       ?__scrt_throw_std_bad_array_new_length@@YAXXZ 0000000180034be0 f   LIBCMTD:throw_bad_alloc.obj
 0001:00033c10       ?what@exception@std@@UEBAPEBDXZ 0000000180034c10 f i LIBCMTD:throw_bad_alloc.obj
 0001:00033c50       ??1type_info@@UEAA@XZ      0000000180034c50 f   LIBCMTD:std_type_info_static.obj
 0001:00033c70       ??_Gtype_info@@UEAAPEAXI@Z 0000000180034c70 f i LIBCMTD:std_type_info_static.obj
 0001:00033c70       ??_Etype_info@@UEAAPEAXI@Z 0000000180034c70 f i LIBCMTD:std_type_info_static.obj
 0001:00033cac       ??$?2PEAUHINSTANCE__@@@Wrapper@?$CSimpleArray@PEAUHINSTANCE__@@V?$CSimpleArrayEqualHelper@PEAUHINSTANCE__@@@ATL@@@ATL@@SAPEAX_KPEAPEAUHINSTANCE__@@@Z 0000000180034cac f i atls:atlbase.obj
 0001:00033cb0       ??0?$CSimpleArray@PEAUHINSTANCE__@@V?$CSimpleArrayEqualHelper@PEAUHINSTANCE__@@@ATL@@@ATL@@QEAA@XZ 0000000180034cb0 f i atls:atlbase.obj
 0001:00033cc0       ??0CAtlBaseModule@ATL@@QEAA@XZ 0000000180034cc0 f   atls:atlbase.obj
 0001:00033d68       ??0Wrapper@?$CSimpleArray@PEAUHINSTANCE__@@V?$CSimpleArrayEqualHelper@PEAUHINSTANCE__@@@ATL@@@ATL@@QEAA@AEBQEAUHINSTANCE__@@@Z 0000000180034d68 f i atls:atlbase.obj
 0001:00033d74       ??0_ATL_BASE_MODULE70@ATL@@QEAA@XZ 0000000180034d74 f i atls:atlbase.obj
 0001:00033da0       ??1?$CSimpleArray@PEAUHINSTANCE__@@V?$CSimpleArrayEqualHelper@PEAUHINSTANCE__@@@ATL@@@ATL@@QEAA@XZ 0000000180034da0 f i atls:atlbase.obj
 0001:00033dc8       ??1CAtlBaseModule@ATL@@QEAA@XZ 0000000180034dc8 f   atls:atlbase.obj
 0001:00033dfc       ??1_ATL_BASE_MODULE70@ATL@@QEAA@XZ 0000000180034dfc f i atls:atlbase.obj
 0001:00033e28       ??A?$CSimpleArray@PEAUHINSTANCE__@@V?$CSimpleArrayEqualHelper@PEAUHINSTANCE__@@@ATL@@@ATL@@QEAAAEAPEAUHINSTANCE__@@H@Z 0000000180034e28 f i atls:atlbase.obj
 0001:00033e54       ?Add@?$CSimpleArray@PEAUHINSTANCE__@@V?$CSimpleArrayEqualHelper@PEAUHINSTANCE__@@@ATL@@@ATL@@QEAAHAEBQEAUHINSTANCE__@@@Z 0000000180034e54 f i atls:atlbase.obj
 0001:00033ef4       ?AddResourceInstance@CAtlBaseModule@ATL@@QEAA_NPEAUHINSTANCE__@@@Z 0000000180034ef4 f   atls:atlbase.obj
 0001:00033f3c       ?GetHInstanceAt@CAtlBaseModule@ATL@@QEAAPEAUHINSTANCE__@@H@Z 0000000180034f3c f   atls:atlbase.obj
 0001:00033fb4       ?GetSize@?$CSimpleArray@PEAUHINSTANCE__@@V?$CSimpleArrayEqualHelper@PEAUHINSTANCE__@@@ATL@@@ATL@@QEBAHXZ 0000000180034fb4 f i atls:atlbase.obj
 0001:00033fb8       ?InternalSetAtIndex@?$CSimpleArray@PEAUHINSTANCE__@@V?$CSimpleArrayEqualHelper@PEAUHINSTANCE__@@@ATL@@@ATL@@QEAAXHAEBQEAUHINSTANCE__@@@Z 0000000180034fb8 f i atls:atlbase.obj
 0001:00033fd0       ?RemoveAll@?$CSimpleArray@PEAUHINSTANCE__@@V?$CSimpleArrayEqualHelper@PEAUHINSTANCE__@@@ATL@@@ATL@@QEAAXXZ 0000000180034fd0 f i atls:atlbase.obj
 0001:00033ff8       ?RemoveAt@?$CSimpleArray@PEAUHINSTANCE__@@V?$CSimpleArrayEqualHelper@PEAUHINSTANCE__@@@ATL@@@ATL@@QEAAHH@Z 0000000180034ff8 f i atls:atlbase.obj
 0001:00034090       ?RemoveResourceInstance@CAtlBaseModule@ATL@@QEAA_NPEAUHINSTANCE__@@@Z 0000000180035090 f   atls:atlbase.obj
 0001:00034118       ?memmove_s@Checked@ATL@@YAXPEAX_KPEBX1@Z 0000000180035118 f i atls:atlbase.obj
 0001:000345c0       ?GetCodeAddress@_stdcallthunk@ATL@@QEAAPEAXXZ 00000001800355c0 f i atls:atlthunk.obj
 0001:000345ec       ?Init@_stdcallthunk@ATL@@QEAAH_KPEAX@Z 00000001800355ec f i atls:atlthunk.obj
 0001:0003463c       ?__AllocStdCallThunk@@YAPEAXXZ 000000018003563c f   atls:atlthunk.obj
 0001:00034644       ?__AllocStdCallThunk@ATL@@YAPEAXXZ 0000000180035644 f   atls:atlthunk.obj
 0001:0003464c       ?__AllocStdCallThunk_cmn@@YAPEAXXZ 000000018003564c f   atls:atlthunk.obj
 0001:00034724       ?__FreeStdCallThunk@@YAXPEAX@Z 0000000180035724 f   atls:atlthunk.obj
 0001:00034744       ?__FreeStdCallThunk@ATL@@YAXPEAX@Z 0000000180035744 f   atls:atlthunk.obj
 0001:00034764       ?__FreeStdCallThunk_cmn@@YAXPEAX@Z 0000000180035764 f   atls:atlthunk.obj
 0001:00034804       AtlThunk_AllocateData      0000000180035804 f   atls:atlthunk.obj
 0001:00034880       AtlThunk_DataToCode        0000000180035880 f   atls:atlthunk.obj
 0001:000348d4       AtlThunk_FreeData          00000001800358d4 f   atls:atlthunk.obj
 0001:00034934       AtlThunk_InitData          0000000180035934 f   atls:atlthunk.obj
 0001:000349f0       memset_repmovs             00000001800359f0 f   libvcruntimed:memset.obj
 0001:00034a10       memset                     0000000180035a10 f   libvcruntimed:memset.obj
 0001:00034ba0       ??$__crt_interlocked_exchange_pointer@$$A6AXXZP6AXXZ@@YAP6AXXZPEDS6AXXZQ6AXXZ@Z 0000000180035ba0 f i libvcruntimed:purevirt.obj
 0001:00034bc0       ??$__crt_interlocked_read_pointer@$$A6AXXZ@@YAP6AXXZPEDS6AXXZ@Z 0000000180035bc0 f i libvcruntimed:purevirt.obj
 0001:00034be0       ?__crt_interlocked_read_64@@YA_JPED_J@Z 0000000180035be0 f i libvcruntimed:purevirt.obj
 0001:00034c00       _get_purecall_handler      0000000180035c00 f   libvcruntimed:purevirt.obj
 0001:00034c20       _purecall                  0000000180035c20 f   libvcruntimed:purevirt.obj
 0001:00034c60       _set_purecall_handler      0000000180035c60 f   libvcruntimed:purevirt.obj
 0001:00034c90       memcmp                     0000000180035c90 f   libvcruntimed:memcmp.obj
 0001:00034d70       memcpy_repmovs             0000000180035d70 f   libvcruntimed:memcpy.obj
 0001:00034d90       memcpy                     0000000180035d90 f   libvcruntimed:memcpy.obj
 0001:00034d90       memmove                    0000000180035d90 f   libvcruntimed:memcpy.obj
 0001:00035410       wcsstr                     0000000180036410 f   libvcruntimed:wcsstr.obj
 0001:00035a70       __vcrt_initialize          0000000180036a70 f   libvcruntimed:initialization.obj
 0001:00035ab0       __vcrt_thread_attach       0000000180036ab0 f   libvcruntimed:initialization.obj
 0001:00035ad0       __vcrt_thread_detach       0000000180036ad0 f   libvcruntimed:initialization.obj
 0001:00035af0       __vcrt_uninitialize        0000000180036af0 f   libvcruntimed:initialization.obj
 0001:00035b10       __vcrt_uninitialize_critical 0000000180036b10 f   libvcruntimed:initialization.obj
 0001:00035b30       __C_specific_handler       0000000180036b30 f   libvcruntimed:riscchandler.obj
 0001:00035fa0       ??$?0AEAViterator@TryBlockMap4@FH4@@AEAV012@$0A@@?$pair@Viterator@TryBlockMap4@FH4@@V123@@std@@QEAA@AEAViterator@TryBlockMap4@FH4@@0@Z 0000000180036fa0 f i libvcruntimed:risctrnsctrl.obj
 0001:00036000       ??$?0AEAViterator@TryBlockMap@__FrameHandler3@@AEAV012@$0A@@?$pair@Viterator@TryBlockMap@__FrameHandler3@@V123@@std@@QEAA@AEAViterator@TryBlockMap@__FrameHandler3@@0@Z 0000000180037000 f i libvcruntimed:risctrnsctrl.obj
 0001:000361d0       ??$_CallSETranslator@V__FrameHandler3@@@@YAHPEAUEHExceptionRecord@@PEA_KPEAU_CONTEXT@@PEAU_xDISPATCHER_CONTEXT@@PEBU_s_FuncInfo@@K1H@Z 00000001800371d0 f i libvcruntimed:risctrnsctrl.obj
 0001:00036260       ??$_CallSETranslator@V__FrameHandler4@@@@YAHPEAUEHExceptionRecord@@PEA_KPEAU_CONTEXT@@PEAU_xDISPATCHER_CONTEXT@@PEAUFuncInfo4@FH4@@K1H@Z 0000000180037260 f i libvcruntimed:risctrnsctrl.obj
 0001:000362f0       ??$forward@AEAViterator@TryBlockMap4@FH4@@@std@@YAAEAViterator@TryBlockMap4@FH4@@AEAV123@@Z 00000001800372f0 f i libvcruntimed:risctrnsctrl.obj
 0001:00036300       ??$forward@AEAViterator@TryBlockMap@__FrameHandler3@@@std@@YAAEAViterator@TryBlockMap@__FrameHandler3@@AEAV123@@Z 0000000180037300 f i libvcruntimed:risctrnsctrl.obj
 0001:00036310       ??0FuncInfo4@FH4@@QEAA@XZ  0000000180037310 f i libvcruntimed:risctrnsctrl.obj
 0001:00036380       ??0FuncInfoHeader@FH4@@QEAA@XZ 0000000180037380 f i libvcruntimed:risctrnsctrl.obj
 0001:000363a0       ??0iterator@TryBlockMap4@FH4@@QEAA@AEAV12@I@Z 00000001800373a0 f i libvcruntimed:risctrnsctrl.obj
 0001:000363d0       ??0iterator@TryBlockMap@__FrameHandler3@@QEAA@AEAV12@I@Z 00000001800373d0 f i libvcruntimed:risctrnsctrl.obj
 0001:00036400       ??4iterator@TryBlockMap4@FH4@@QEAAAEAV012@AEBV012@@Z 0000000180037400 f i libvcruntimed:risctrnsctrl.obj
 0001:00036420       ??9iterator@TryBlockMap4@FH4@@QEBA_NAEBV012@@Z 0000000180037420 f i libvcruntimed:risctrnsctrl.obj
 0001:00036460       ??Diterator@TryBlockMap4@FH4@@QEAA?AUTryBlockMapEntry4@2@XZ 0000000180037460 f i libvcruntimed:risctrnsctrl.obj
 0001:00036490       ??Eiterator@TryBlockMap4@FH4@@QEAAAEAV012@XZ 0000000180037490 f i libvcruntimed:risctrnsctrl.obj
 0001:000364d0       ?CatchTryBlock@__FrameHandler3@@SAPEBU_s_TryBlockMapEntry@@PEBU_s_FuncInfo@@H@Z 00000001800374d0 f   libvcruntimed:risctrnsctrl.obj
 0001:00036560       ?DecompFuncInfo@FH4@@YA_JPEAEAEAUFuncInfo4@1@_KH@Z 0000000180037560 f i libvcruntimed:risctrnsctrl.obj
 0001:000365a0       ?DecompFuncInfo@FH4@@YA_JPEAEAEAUFuncInfo4@1@_KH_N@Z 00000001800375a0 f i libvcruntimed:risctrnsctrl.obj
 0001:00036770       ?DecompTryBlock@TryBlockMap4@FH4@@AEAAXXZ 0000000180037770 f i libvcruntimed:risctrnsctrl.obj
 0001:000367f0       ?ExecutionInCatch@__FrameHandler3@@SA_NPEAU_xDISPATCHER_CONTEXT@@PEBU_s_FuncInfo@@@Z 00000001800377f0 f   libvcruntimed:risctrnsctrl.obj
 0001:00036840       ?ExecutionInCatch@__FrameHandler4@@SA_NPEAU_xDISPATCHER_CONTEXT@@PEAUFuncInfo4@FH4@@@Z 0000000180037840 f   libvcruntimed:risctrnsctrl.obj
 0001:00036860       ?FrameUnwindToEmptyState@__FrameHandler3@@SAXPEA_KPEAU_xDISPATCHER_CONTEXT@@PEBU_s_FuncInfo@@@Z 0000000180037860 f   libvcruntimed:risctrnsctrl.obj
 0001:00036900       ?FrameUnwindToEmptyState@__FrameHandler4@@SAXPEA_KPEAU_xDISPATCHER_CONTEXT@@PEAUFuncInfo4@FH4@@@Z 0000000180037900 f   libvcruntimed:risctrnsctrl.obj
 0001:00036950       ?GetEstablisherFrame@__FrameHandler3@@SAPEA_KPEA_KPEAU_xDISPATCHER_CONTEXT@@PEBU_s_FuncInfo@@0@Z 0000000180037950 f   libvcruntimed:risctrnsctrl.obj
 0001:00036ac0       ?GetEstablisherFrame@__FrameHandler4@@SAPEA_KPEA_KPEAU_xDISPATCHER_CONTEXT@@PEAUFuncInfo4@FH4@@0@Z 0000000180037ac0 f   libvcruntimed:risctrnsctrl.obj
 0001:00036b30       ?GetRangeOfTrysToCheck@__FrameHandler3@@SA?AU?$pair@Viterator@TryBlockMap@__FrameHandler3@@V123@@std@@AEAVTryBlockMap@1@HPEAU_xDISPATCHER_CONTEXT@@PEBU_s_FuncInfo@@H@Z 0000000180037b30 f   libvcruntimed:risctrnsctrl.obj
 0001:00036d70       ?GetRangeOfTrysToCheck@__FrameHandler4@@SA?AU?$pair@Viterator@TryBlockMap4@FH4@@V123@@std@@AEAVTryBlockMap4@FH4@@HPEAU_xDISPATCHER_CONTEXT@@PEAUFuncInfo4@5@H@Z 0000000180037d70 f   libvcruntimed:risctrnsctrl.obj
 0001:00036f20       ?ReadInt@FH4@@YAHPEAPEAE@Z 0000000180037f20 f i libvcruntimed:risctrnsctrl.obj
 0001:00036f60       ?ReadUnsigned@FH4@@YAIPEAPEAE@Z 0000000180037f60 f i libvcruntimed:risctrnsctrl.obj
 0001:00036ff0       ?UnwindNestedFrames@__FrameHandler3@@SAXPEA_KPEAUEHExceptionRecord@@PEAU_CONTEXT@@0PEAXPEBU_s_FuncInfo@@HHPEBU_s_HandlerType@@PEAU_xDISPATCHER_CONTEXT@@E@Z 0000000180037ff0 f   libvcruntimed:risctrnsctrl.obj
 0001:00037160       ?UnwindNestedFrames@__FrameHandler4@@SAXPEA_KPEAUEHExceptionRecord@@PEAU_CONTEXT@@0PEAXPEAUFuncInfo4@FH4@@HHPEAUHandlerType4@5@PEAU_xDISPATCHER_CONTEXT@@E@Z 0000000180038160 f   libvcruntimed:risctrnsctrl.obj
 0001:00037330       ?begin@TryBlockMap4@FH4@@QEAA?AViterator@12@XZ 0000000180038330 f i libvcruntimed:risctrnsctrl.obj
 0001:00037360       ?end@TryBlockMap4@FH4@@QEAA?AViterator@12@XZ 0000000180038360 f i libvcruntimed:risctrnsctrl.obj
 0001:00037390       ?imageRelToByteBuffer@FH4@@YAPEAE_KH@Z 0000000180038390 f i libvcruntimed:risctrnsctrl.obj
 0001:000373b0       ?incrementToSentinel@iterator@TryBlockMap4@FH4@@QEAAXXZ 00000001800383b0 f i libvcruntimed:risctrnsctrl.obj
 0001:000373d0       ?setBuffer@TryBlockMap4@FH4@@QEAAXViterator@12@@Z 00000001800383d0 f i libvcruntimed:risctrnsctrl.obj
 0001:00037440       _CreateFrameInfo           0000000180038440 f   libvcruntimed:risctrnsctrl.obj
 0001:000374b0       _FindAndUnlinkFrame        00000001800384b0 f   libvcruntimed:risctrnsctrl.obj
 0001:00037530       _GetImageBase              0000000180038530 f   libvcruntimed:risctrnsctrl.obj
 0001:00037550       _GetThrowImageBase         0000000180038550 f   libvcruntimed:risctrnsctrl.obj
 0001:00037570       _SetImageBase              0000000180038570 f   libvcruntimed:risctrnsctrl.obj
 0001:00037590       _SetThrowImageBase         0000000180038590 f   libvcruntimed:risctrnsctrl.obj
 0001:000375b0       __CxxFrameHandler          00000001800385b0 f   libvcruntimed:risctrnsctrl.obj
 0001:000375f0       __CxxFrameHandler2         00000001800385f0 f   libvcruntimed:risctrnsctrl.obj
 0001:00037630       __CxxFrameHandler3         0000000180038630 f   libvcruntimed:risctrnsctrl.obj
 0001:00037710       __CxxFrameHandler4         0000000180038710 f   libvcruntimed:risctrnsctrl.obj
 0001:00037820       __C_specific_handler_noexcept 0000000180038820 f   libvcruntimed:chandler_noexcept.obj
 0001:000378b0       __DestructExceptionObject  00000001800388b0 f   libvcruntimed:ehhelpers.obj
 0001:000379b0       ?_CallMemberFunction0@@YAXQEAX0@Z 00000001800389b0 f i libvcruntimed:ehhelpers.obj
 0001:00037a80       ?raw_name@type_info@@QEBAPEBDXZ 0000000180038a80 f i libvcruntimed:ehhelpers.obj
 0001:00037a90       _IsExceptionObjectToBeDestroyed 0000000180038a90 f   libvcruntimed:ehhelpers.obj
 0001:00037ae0       _SetWinRTOutOfMemoryExceptionCallback 0000000180038ae0 f   libvcruntimed:ehhelpers.obj
 0001:00037b00       __AdjustPointer            0000000180038b00 f   libvcruntimed:ehhelpers.obj
 0001:00037b80       __FrameUnwindFilter        0000000180038b80 f   libvcruntimed:ehhelpers.obj
 0001:00037c30       __GetPlatformExceptionInfo 0000000180038c30 f   libvcruntimed:ehhelpers.obj
 0001:00037ce0       __current_exception        0000000180038ce0 f   libvcruntimed:ehhelpers.obj
 0001:00037d00       __current_exception_context 0000000180038d00 f   libvcruntimed:ehhelpers.obj
 0001:00037d20       __processing_throw         0000000180038d20 f   libvcruntimed:ehhelpers.obj
 0001:00037d40       __std_terminate            0000000180038d40 f   libvcruntimed:ehhelpers.obj
 0001:00037d50       _is_exception_typeof       0000000180038d50 f   libvcruntimed:ehhelpers.obj
 0001:00037ee0       ??$?RD@__crt_internal_free_policy@@QEBAXQEBD@Z 0000000180038ee0 f i libvcruntimed:std_type_info.obj
 0001:00037f10       ??$?RX@__crt_internal_free_policy@@QEBAXQEBX@Z 0000000180038f10 f i libvcruntimed:std_type_info.obj
 0001:00037f40       ??$__crt_interlocked_compare_exchange_pointer@$$CBDPEAD$$T@@YAPEBDPEDSEBDQEAD$$T@Z 0000000180038f40 f i libvcruntimed:std_type_info.obj
 0001:00037f80       ??$__crt_interlocked_read_pointer@$$CBD@@YAPEBDPEDSEBD@Z 0000000180038f80 f i libvcruntimed:std_type_info.obj
 0001:00037fa0       ??0?$__crt_unique_heap_ptr@DU__crt_internal_free_policy@@@@QEAA@QEAD@Z 0000000180038fa0 f i libvcruntimed:std_type_info.obj
 0001:00037fc0       ??0?$__crt_unique_heap_ptr@XU__crt_internal_free_policy@@@@QEAA@QEAX@Z 0000000180038fc0 f i libvcruntimed:std_type_info.obj
 0001:00037fe0       ??1?$__crt_unique_heap_ptr@DU__crt_internal_free_policy@@@@QEAA@XZ 0000000180038fe0 f i libvcruntimed:std_type_info.obj
 0001:00038000       ??1?$__crt_unique_heap_ptr@XU__crt_internal_free_policy@@@@QEAA@XZ 0000000180039000 f i libvcruntimed:std_type_info.obj
 0001:00038020       ??B?$__crt_unique_heap_ptr@DU__crt_internal_free_policy@@@@QEBA_NXZ 0000000180039020 f i libvcruntimed:std_type_info.obj
 0001:00038040       ??B?$__crt_unique_heap_ptr@XU__crt_internal_free_policy@@@@QEBA_NXZ 0000000180039040 f i libvcruntimed:std_type_info.obj
 0001:000380e0       ?detach@?$__crt_unique_heap_ptr@XU__crt_internal_free_policy@@@@QEAAPEAXXZ 00000001800390e0 f i libvcruntimed:std_type_info.obj
 0001:00038110       ?get@?$__crt_unique_heap_ptr@DU__crt_internal_free_policy@@@@QEBAPEADXZ 0000000180039110 f i libvcruntimed:std_type_info.obj
 0001:00038120       ?get@?$__crt_unique_heap_ptr@XU__crt_internal_free_policy@@@@QEBAPEAXXZ 0000000180039120 f i libvcruntimed:std_type_info.obj
 0001:00038130       ?is_valid@?$__crt_unique_heap_ptr@DU__crt_internal_free_policy@@@@QEBA_NXZ 0000000180039130 f i libvcruntimed:std_type_info.obj
 0001:00038160       ?is_valid@?$__crt_unique_heap_ptr@XU__crt_internal_free_policy@@@@QEBA_NXZ 0000000180039160 f i libvcruntimed:std_type_info.obj
 0001:00038190       ?release@?$__crt_unique_heap_ptr@DU__crt_internal_free_policy@@@@QEAAXXZ 0000000180039190 f i libvcruntimed:std_type_info.obj
 0001:000381c0       ?release@?$__crt_unique_heap_ptr@XU__crt_internal_free_policy@@@@QEAAXXZ 00000001800391c0 f i libvcruntimed:std_type_info.obj
 0001:000381f0       __std_type_info_compare    00000001800391f0 f   libvcruntimed:std_type_info.obj
 0001:00038230       __std_type_info_destroy_list 0000000180039230 f   libvcruntimed:std_type_info.obj
 0001:00038290       __std_type_info_hash       0000000180039290 f   libvcruntimed:std_type_info.obj
 0001:00038340       __std_type_info_name       0000000180039340 f   libvcruntimed:std_type_info.obj
 0001:000385f0       __vcrt_GetModuleFileNameW  00000001800395f0 f   libvcruntimed:winapi_thunks.obj
 0001:00038620       __vcrt_GetModuleHandleW    0000000180039620 f   libvcruntimed:winapi_thunks.obj
 0001:00038640       __vcrt_LoadLibraryExW      0000000180039640 f   libvcruntimed:winapi_thunks.obj
 0001:00038670       ??$?RD@__crt_public_free_policy@@QEBAXQEBD@Z 0000000180039670 f i libvcruntimed:std_exception.obj
 0001:00038690       ??0?$__crt_unique_heap_ptr@DU__crt_public_free_policy@@@@QEAA@QEAD@Z 0000000180039690 f i libvcruntimed:std_exception.obj
 0001:000386b0       ??1?$__crt_unique_heap_ptr@DU__crt_public_free_policy@@@@QEAA@XZ 00000001800396b0 f i libvcruntimed:std_exception.obj
 0001:000386d0       ??B?$__crt_unique_heap_ptr@DU__crt_public_free_policy@@@@QEBA_NXZ 00000001800396d0 f i libvcruntimed:std_exception.obj
 0001:000386f0       ?detach@?$__crt_unique_heap_ptr@DU__crt_public_free_policy@@@@QEAAPEADXZ 00000001800396f0 f i libvcruntimed:std_exception.obj
 0001:00038720       ?get@?$__crt_unique_heap_ptr@DU__crt_public_free_policy@@@@QEBAPEADXZ 0000000180039720 f i libvcruntimed:std_exception.obj
 0001:00038730       ?is_valid@?$__crt_unique_heap_ptr@DU__crt_public_free_policy@@@@QEBA_NXZ 0000000180039730 f i libvcruntimed:std_exception.obj
 0001:00038760       ?release@?$__crt_unique_heap_ptr@DU__crt_public_free_policy@@@@QEAAXXZ 0000000180039760 f i libvcruntimed:std_exception.obj
 0001:00038790       __std_exception_copy       0000000180039790 f   libvcruntimed:std_exception.obj
 0001:000388d0       __std_exception_destroy    00000001800398d0 f   libvcruntimed:std_exception.obj
 0001:00038910       _CxxThrowException         0000000180039910 f   libvcruntimed:throw.obj
 0001:00038a40       ??$?RU__vcrt_ptd@@@__crt_internal_free_policy@@QEBAXQEBU__vcrt_ptd@@@Z 0000000180039a40 f i libvcruntimed:per_thread_data.obj
 0001:00038a70       ??0?$__crt_unique_heap_ptr@U__vcrt_ptd@@U__crt_internal_free_policy@@@@QEAA@QEAU__vcrt_ptd@@@Z 0000000180039a70 f i libvcruntimed:per_thread_data.obj
 0001:00038ab0       ??1?$__crt_unique_heap_ptr@U__vcrt_ptd@@U__crt_internal_free_policy@@@@QEAA@XZ 0000000180039ab0 f i libvcruntimed:per_thread_data.obj
 0001:00038af0       ??B?$__crt_unique_heap_ptr@U__vcrt_ptd@@U__crt_internal_free_policy@@@@QEBA_NXZ 0000000180039af0 f i libvcruntimed:per_thread_data.obj
 0001:00038b10       ?detach@?$__crt_unique_heap_ptr@U__vcrt_ptd@@U__crt_internal_free_policy@@@@QEAAPEAU__vcrt_ptd@@XZ 0000000180039b10 f i libvcruntimed:per_thread_data.obj
 0001:00038b40       ?get@?$__crt_unique_heap_ptr@U__vcrt_ptd@@U__crt_internal_free_policy@@@@QEBAPEAU__vcrt_ptd@@XZ 0000000180039b40 f i libvcruntimed:per_thread_data.obj
 0001:00038b50       ?is_valid@?$__crt_unique_heap_ptr@U__vcrt_ptd@@U__crt_internal_free_policy@@@@QEBA_NXZ 0000000180039b50 f i libvcruntimed:per_thread_data.obj
 0001:00038b80       ?release@?$__crt_unique_heap_ptr@U__vcrt_ptd@@U__crt_internal_free_policy@@@@QEAAXXZ 0000000180039b80 f i libvcruntimed:per_thread_data.obj
 0001:00038bf0       __vcrt_freefls             0000000180039bf0 f   libvcruntimed:per_thread_data.obj
 0001:00038c30       __vcrt_freeptd             0000000180039c30 f   libvcruntimed:per_thread_data.obj
 0001:00038c90       __vcrt_getptd              0000000180039c90 f   libvcruntimed:per_thread_data.obj
 0001:00038cc0       __vcrt_getptd_noexit       0000000180039cc0 f   libvcruntimed:per_thread_data.obj
 0001:00038e60       __vcrt_getptd_noinit       0000000180039e60 f   libvcruntimed:per_thread_data.obj
 0001:00038ec0       __vcrt_initialize_ptd      0000000180039ec0 f   libvcruntimed:per_thread_data.obj
 0001:00038f10       __vcrt_uninitialize_ptd    0000000180039f10 f   libvcruntimed:per_thread_data.obj
 0001:00038f40       __vcrt_initialize_locks    0000000180039f40 f   libvcruntimed:locks.obj
 0001:00038fb0       __vcrt_lock                0000000180039fb0 f   libvcruntimed:locks.obj
 0001:00038fe0       __vcrt_uninitialize_locks  0000000180039fe0 f   libvcruntimed:locks.obj
 0001:00039040       __vcrt_unlock              000000018003a040 f   libvcruntimed:locks.obj
 0001:00039080       _NLG_Notify                000000018003a080 f   libvcruntimed:notify.obj
 0001:000390a0       __NLG_Dispatch2            000000018003a0a0 f   libvcruntimed:notify.obj
 0001:000390b0       __NLG_Return2              000000018003a0b0 f   libvcruntimed:notify.obj
 0001:000390d0       __except_validate_context_record 000000018003a0d0 f   libvcruntimed:jbcxrval.obj
 0001:00039130       __except_validate_jump_buffer 000000018003a130 f   libvcruntimed:jbcxrval.obj
 0001:00039150       __except_validate_jump_buffer_common 000000018003a150 f i libvcruntimed:jbcxrval.obj
 0001:000391d0       ?GetCurrentState@__FrameHandler3@@SAHPEA_KPEAU_xDISPATCHER_CONTEXT@@PEBU_s_FuncInfo@@@Z 000000018003a1d0 f   libvcruntimed:ehstate.obj
 0001:00039230       ?GetUnwindTryBlock@__FrameHandler3@@SAHPEA_KPEAU_xDISPATCHER_CONTEXT@@PEBU_s_FuncInfo@@@Z 000000018003a230 f   libvcruntimed:ehstate.obj
 0001:00039280       ?SetState@__FrameHandler3@@SAXPEA_KPEBU_s_FuncInfo@@H@Z 000000018003a280 f   libvcruntimed:ehstate.obj
 0001:000392b0       ?SetUnwindTryBlock@__FrameHandler3@@SAXPEA_KPEAU_xDISPATCHER_CONTEXT@@PEBU_s_FuncInfo@@H@Z 000000018003a2b0 f   libvcruntimed:ehstate.obj
 0001:00039320       ?StateFromControlPc@__FrameHandler3@@SAHPEBU_s_FuncInfo@@PEAU_xDISPATCHER_CONTEXT@@@Z 000000018003a320 f   libvcruntimed:ehstate.obj
 0001:00039360       ?StateFromControlPc@__FrameHandler4@@SAHPEAUFuncInfo4@FH4@@PEAU_xDISPATCHER_CONTEXT@@@Z 000000018003a360 f   libvcruntimed:ehstate.obj
 0001:000393a0       ?StateFromIp@__FrameHandler3@@SAHPEBU_s_FuncInfo@@PEAU_xDISPATCHER_CONTEXT@@_K@Z 000000018003a3a0 f   libvcruntimed:ehstate.obj
 0001:00039490       ?StateFromIp@__FrameHandler4@@SAHPEAUFuncInfo4@FH4@@PEAU_xDISPATCHER_CONTEXT@@_K@Z 000000018003a490 f   libvcruntimed:ehstate.obj
 0001:00039580       ?__FuncRelToRealOffset@@YA_KPEAU_xDISPATCHER_CONTEXT@@I@Z 000000018003a580 f i libvcruntimed:ehstate.obj
 0001:000395b0       ?__RVAtoRealOffset@@YA_KPEAU_xDISPATCHER_CONTEXT@@H@Z 000000018003a5b0 f i libvcruntimed:ehstate.obj
 0001:0003b810       ??$TypeMatchHelper@V__FrameHandler3@@@@YAHPEBU_s_HandlerType@@PEBU_s_CatchableType@@PEBU_s_ThrowInfo@@@Z 000000018003c810 f i libvcruntimed:frame.obj
 0001:0003ba10       ??$TypeMatchHelper@V__FrameHandler4@@@@YAHPEAUHandlerType4@FH4@@PEBU_s_CatchableType@@PEBU_s_ThrowInfo@@@Z 000000018003ca10 f i libvcruntimed:frame.obj
 0001:0003bc20       ??$__InternalCxxFrameHandler@V__FrameHandler3@@@@YA?AW4_EXCEPTION_DISPOSITION@@PEAUEHExceptionRecord@@PEA_KPEAU_CONTEXT@@PEAU_xDISPATCHER_CONTEXT@@PEBU_s_FuncInfo@@H1E@Z 000000018003cc20 f i libvcruntimed:frame.obj
 0001:0003c090       ??$__InternalCxxFrameHandler@V__FrameHandler4@@@@YA?AW4_EXCEPTION_DISPOSITION@@PEAUEHExceptionRecord@@PEA_KPEAU_CONTEXT@@PEAU_xDISPATCHER_CONTEXT@@PEAUFuncInfo4@FH4@@H1E@Z 000000018003d090 f i libvcruntimed:frame.obj
 0001:0003c520       ??0HandlerMap4@FH4@@QEAA@PEBUTryBlockMapEntry4@1@_KH@Z 000000018003d520 f i libvcruntimed:frame.obj
 0001:0003c5e0       ??0HandlerMap@__FrameHandler3@@QEAA@PEBU_s_TryBlockMapEntry@@_KI@Z 000000018003d5e0 f i libvcruntimed:frame.obj
 0001:0003c630       ??0HandlerType4@FH4@@QEAA@XZ 000000018003d630 f i libvcruntimed:frame.obj
 0001:0003c650       ??0TryBlockMap4@FH4@@QEAA@PEBUFuncInfo4@1@_K@Z 000000018003d650 f i libvcruntimed:frame.obj
 0001:0003c6e0       ??0TryBlockMap@__FrameHandler3@@QEAA@PEBU_s_FuncInfo@@_K@Z 000000018003d6e0 f i libvcruntimed:frame.obj
 0001:0003c710       ??0UWMap4@FH4@@QEAA@PEBUFuncInfo4@1@_K@Z 000000018003d710 f i libvcruntimed:frame.obj
 0001:0003c780       ??0bad_exception@std@@QEAA@AEBV01@@Z 000000018003d780 f i libvcruntimed:frame.obj
 0001:0003c7c0       ??0bad_exception@std@@QEAA@XZ 000000018003d7c0 f i libvcruntimed:frame.obj
 0001:0003c800       ??0iterator@HandlerMap4@FH4@@QEAA@AEAV12@I@Z 000000018003d800 f i libvcruntimed:frame.obj
 0001:0003c830       ??0iterator@HandlerMap@__FrameHandler3@@QEAA@AEAV12@I@Z 000000018003d830 f i libvcruntimed:frame.obj
 0001:0003c860       ??0iterator@UWMap4@FH4@@QEAA@AEAV12@PEAE@Z 000000018003d860 f i libvcruntimed:frame.obj
 0001:0003c890       ??1bad_exception@std@@UEAA@XZ 000000018003d890 f i libvcruntimed:frame.obj
 0001:0003c8b0       ??4iterator@UWMap4@FH4@@QEAAAEAV012@AEBV012@@Z 000000018003d8b0 f i libvcruntimed:frame.obj
 0001:0003c900       ??8iterator@HandlerMap4@FH4@@QEBA_NAEBV012@@Z 000000018003d900 f i libvcruntimed:frame.obj
 0001:0003c940       ??8iterator@HandlerMap@__FrameHandler3@@QEBA_NAEBV012@@Z 000000018003d940 f i libvcruntimed:frame.obj
 0001:0003c980       ??8type_info@@QEBA_NAEBV0@@Z 000000018003d980 f i libvcruntimed:frame.obj
 0001:0003c9d0       ??9iterator@HandlerMap4@FH4@@QEBA_NAEBV012@@Z 000000018003d9d0 f i libvcruntimed:frame.obj
 0001:0003ca10       ??9iterator@HandlerMap@__FrameHandler3@@QEBA_NAEBV012@@Z 000000018003da10 f i libvcruntimed:frame.obj
 0001:0003ca50       ??Diterator@HandlerMap4@FH4@@QEAA?AUHandlerType4@2@XZ 000000018003da50 f i libvcruntimed:frame.obj
 0001:0003ca80       ??Diterator@HandlerMap@__FrameHandler3@@QEAA?BU_s_HandlerType@@XZ 000000018003da80 f i libvcruntimed:frame.obj
 0001:0003cac0       ??Diterator@TryBlockMap@__FrameHandler3@@QEAA?BU_s_TryBlockMapEntry@@XZ 000000018003dac0 f i libvcruntimed:frame.obj
 0001:0003cb10       ??Diterator@UWMap4@FH4@@QEAA?AUUnwindMapEntry4@2@XZ 000000018003db10 f i libvcruntimed:frame.obj
 0001:0003cb90       ??Eiterator@HandlerMap4@FH4@@QEAAAEAV012@XZ 000000018003db90 f i libvcruntimed:frame.obj
 0001:0003cbd0       ??Eiterator@HandlerMap@__FrameHandler3@@QEAAAEAV012@XZ 000000018003dbd0 f i libvcruntimed:frame.obj
 0001:0003cbf0       ??Eiterator@TryBlockMap@__FrameHandler3@@QEAAAEAV012@XZ 000000018003dbf0 f i libvcruntimed:frame.obj
 0001:0003cc10       ??Eiterator@UWMap4@FH4@@QEAAAEAV012@XZ 000000018003dc10 f i libvcruntimed:frame.obj
 0001:0003cc50       ??Giterator@UWMap4@FH4@@QEBA_JAEBV012@@Z 000000018003dc50 f i libvcruntimed:frame.obj
 0001:0003cc70       ??Miterator@TryBlockMap4@FH4@@QEBA_NAEBV012@@Z 000000018003dc70 f i libvcruntimed:frame.obj
 0001:0003ccb0       ??Miterator@TryBlockMap@__FrameHandler3@@QEBA_NAEBV012@@Z 000000018003dcb0 f i libvcruntimed:frame.obj
 0001:0003ccf0       ??Oiterator@UWMap4@FH4@@QEBA_NAEBV012@@Z 000000018003dcf0 f i libvcruntimed:frame.obj
 0001:0003cd30       ??Piterator@UWMap4@FH4@@QEBA_NAEBV012@@Z 000000018003dd30 f i libvcruntimed:frame.obj
 0001:0003cd70       ??_Gbad_exception@std@@UEAAPEAXI@Z 000000018003dd70 f i libvcruntimed:frame.obj
 0001:0003cd70       ??_Ebad_exception@std@@UEAAPEAXI@Z 000000018003dd70 f i libvcruntimed:frame.obj
 0001:0003cdb0       ?BuildCatchObject@__FrameHandler3@@SAXPEAUEHExceptionRecord@@PEAXPEBU_s_HandlerType@@PEBU_s_CatchableType@@@Z 000000018003ddb0 f   libvcruntimed:frame.obj
 0001:0003cdf0       ?BuildCatchObject@__FrameHandler4@@SAXPEAUEHExceptionRecord@@PEAXPEAUHandlerType4@FH4@@PEBU_s_CatchableType@@@Z 000000018003ddf0 f   libvcruntimed:frame.obj
 0001:0003ce30       ?BuildCatchObjectHelper@__FrameHandler3@@SAHPEAUEHExceptionRecord@@PEAXPEBU_s_HandlerType@@PEBU_s_CatchableType@@@Z 000000018003de30 f   libvcruntimed:frame.obj
 0001:0003ce70       ?BuildCatchObjectHelper@__FrameHandler4@@SAHPEAUEHExceptionRecord@@PEAXPEAUHandlerType4@FH4@@PEBU_s_CatchableType@@@Z 000000018003de70 f   libvcruntimed:frame.obj
 0001:0003ceb0       ?CxxCallCatchBlock@__FrameHandler3@@SAPEAXPEAU_EXCEPTION_RECORD@@@Z 000000018003deb0 f   libvcruntimed:frame.obj
 0001:0003d110       ?CxxCallCatchBlock@__FrameHandler4@@SAPEAXPEAU_EXCEPTION_RECORD@@@Z 000000018003e110 f   libvcruntimed:frame.obj
 0001:0003d440       ?DecompHandler@HandlerMap4@FH4@@AEAAXXZ 000000018003e440 f i libvcruntimed:frame.obj
 0001:0003d810       ?FrameUnwindToState@__FrameHandler3@@SAXPEA_KPEAU_xDISPATCHER_CONTEXT@@PEBU_s_FuncInfo@@H@Z 000000018003e810 f   libvcruntimed:frame.obj
 0001:0003da60       ?FrameUnwindToState@__FrameHandler4@@SAXPEA_KPEAU_xDISPATCHER_CONTEXT@@PEAUFuncInfo4@FH4@@H@Z 000000018003ea60 f   libvcruntimed:frame.obj
 0001:0003dd70       ?GetHandlerSearchState@__FrameHandler3@@SAHPEA_KPEAU_xDISPATCHER_CONTEXT@@PEBU_s_FuncInfo@@@Z 000000018003ed70 f i libvcruntimed:frame.obj
 0001:0003de20       ?GetHandlerSearchState@__FrameHandler4@@SAHPEA_KPEAU_xDISPATCHER_CONTEXT@@PEAUFuncInfo4@FH4@@@Z 000000018003ee20 f i libvcruntimed:frame.obj
 0001:0003dea0       ?GetMaxState@__FrameHandler3@@SAHPEAU_xDISPATCHER_CONTEXT@@PEBU_s_FuncInfo@@@Z 000000018003eea0 f i libvcruntimed:frame.obj
 0001:0003dec0       ?GetMaxState@__FrameHandler4@@SAHPEAU_xDISPATCHER_CONTEXT@@PEAUFuncInfo4@FH4@@@Z 000000018003eec0 f i libvcruntimed:frame.obj
 0001:0003e0f0       ?ReadEntry@UWMap4@FH4@@AEAAXPEAPEAE@Z 000000018003f0f0 f i libvcruntimed:frame.obj
 0001:0003e1a0       ?TypeMatch@__FrameHandler3@@SAHPEBU_s_HandlerType@@PEBU_s_CatchableType@@PEBU_s_ThrowInfo@@@Z 000000018003f1a0 f   libvcruntimed:frame.obj
 0001:0003e1d0       ?TypeMatch@__FrameHandler4@@SAHPEAUHandlerType4@FH4@@PEBU_s_CatchableType@@PEBU_s_ThrowInfo@@@Z 000000018003f1d0 f   libvcruntimed:frame.obj
 0001:0003e200       ?WalkBack@UWMap4@FH4@@AEAAXPEAPEAE@Z 000000018003f200 f i libvcruntimed:frame.obj
 0001:0003e250       ?WalkBack@iterator@UWMap4@FH4@@QEAAXXZ 000000018003f250 f i libvcruntimed:frame.obj
 0001:0003e290       ?WalkForward@UWMap4@FH4@@AEAAXPEAPEAE@Z 000000018003f290 f i libvcruntimed:frame.obj
 0001:0003e2c0       ?_CallMemberFunction1@@YAXQEAX00@Z 000000018003f2c0 f i libvcruntimed:frame.obj
 0001:0003e300       ?_CallMemberFunction2@@YAXQEAX00H@Z 000000018003f300 f i libvcruntimed:frame.obj
 0001:0003e390       ?begin@HandlerMap4@FH4@@QEAA?AViterator@12@XZ 000000018003f390 f i libvcruntimed:frame.obj
 0001:0003e3c0       ?begin@HandlerMap@__FrameHandler3@@QEAA?AViterator@12@XZ 000000018003f3c0 f i libvcruntimed:frame.obj
 0001:0003e3f0       ?begin@UWMap4@FH4@@QEAA?AViterator@12@XZ 000000018003f3f0 f i libvcruntimed:frame.obj
 0001:0003e420       ?end@HandlerMap4@FH4@@QEAA?AViterator@12@XZ 000000018003f420 f i libvcruntimed:frame.obj
 0001:0003e450       ?end@HandlerMap@__FrameHandler3@@QEAA?AViterator@12@XZ 000000018003f450 f i libvcruntimed:frame.obj
 0001:0003e480       ?getESTypes@__FrameHandler3@@SAPEBU_s_ESTypeList@@PEBU_s_FuncInfo@@@Z 000000018003f480 f i libvcruntimed:frame.obj
 0001:0003e4c0       ?getESTypes@__FrameHandler4@@SAPEBU_s_ESTypeList@@PEAUFuncInfo4@FH4@@@Z 000000018003f4c0 f i libvcruntimed:frame.obj
 0001:0003e4d0       ?getLastEntry@HandlerMap4@FH4@@QEAAPEAUHandlerType4@2@XZ 000000018003f4d0 f i libvcruntimed:frame.obj
 0001:0003e510       ?getLastEntry@HandlerMap@__FrameHandler3@@QEAAPEBU_s_HandlerType@@XZ 000000018003f510 f i libvcruntimed:frame.obj
 0001:0003e530       ?getMagicNum@__FrameHandler3@@SAIPEBU_s_FuncInfo@@@Z 000000018003f530 f i libvcruntimed:frame.obj
 0001:0003e550       ?getMagicNum@__FrameHandler4@@SAIPEAUFuncInfo4@FH4@@@Z 000000018003f550 f i libvcruntimed:frame.obj
 0001:0003e560       ?getNumTryBlocks@TryBlockMap4@FH4@@QEAAIXZ 000000018003f560 f i libvcruntimed:frame.obj
 0001:0003e570       ?getNumTryBlocks@TryBlockMap@__FrameHandler3@@QEAAIXZ 000000018003f570 f i libvcruntimed:frame.obj
 0001:0003e590       ?getStartStop@UWMap4@FH4@@QEAAXHHAEAViterator@12@0@Z 000000018003f590 f i libvcruntimed:frame.obj
 0001:0003e6b0       ?getStateFromIterators@UWMap4@FH4@@SAHAEBViterator@12@H0H0@Z 000000018003f6b0 f i libvcruntimed:frame.obj
 0001:0003e7f0       ?isEHs@__FrameHandler3@@SA_NPEBU_s_FuncInfo@@@Z 000000018003f7f0 f i libvcruntimed:frame.obj
 0001:0003e830       ?isEHs@__FrameHandler4@@SA_NPEAUFuncInfo4@FH4@@@Z 000000018003f830 f i libvcruntimed:frame.obj
 0001:0003e850       ?isNoExcept@__FrameHandler3@@SA_NPEBU_s_FuncInfo@@@Z 000000018003f850 f i libvcruntimed:frame.obj
 0001:0003e890       ?isNoExcept@__FrameHandler4@@SA_NPEAUFuncInfo4@FH4@@@Z 000000018003f890 f i libvcruntimed:frame.obj
 0001:0003e8b0       ?reset@HandlerType4@FH4@@QEAAXXZ 000000018003f8b0 f i libvcruntimed:frame.obj
 0001:0003e910       ?resetBuffer@HandlerMap4@FH4@@QEAAXXZ 000000018003f910 f i libvcruntimed:frame.obj
 0001:0003e930       ?setBuffer@HandlerMap4@FH4@@QEAAXI@Z 000000018003f930 f i libvcruntimed:frame.obj
 0001:0003e990       __BuildCatchObject         000000018003f990 f   libvcruntimed:frame.obj
 0001:0003e9d0       __BuildCatchObjectHelper   000000018003f9d0 f   libvcruntimed:frame.obj
 0001:0003ea10       __TypeMatch                000000018003fa10 f   libvcruntimed:frame.obj
 0001:0003ea40       __vcrt_EncodePointer       000000018003fa40 f i libvcruntimed:frame.obj
 0001:0003ea60       ??$?0$00@DName@@QEAA@PEBDU?$StringLifeSelector@$00@@@Z 000000018003fa60 f i libvcruntimed:undname.obj
 0001:0003ead0       ??$?0$00@pcharNode@@QEAA@PEBDHU?$StringLifeSelector@$00@@@Z 000000018003fad0 f i libvcruntimed:undname.obj
 0001:0003eb30       ??$?0$01@DName@@QEAA@PEBDU?$StringLifeSelector@$01@@@Z 000000018003fb30 f i libvcruntimed:undname.obj
 0001:0003eba0       ??$?0$01@pcharNode@@QEAA@PEBDHU?$StringLifeSelector@$01@@@Z 000000018003fba0 f i libvcruntimed:undname.obj
 0001:0003ec50       ??$?0$0A@@DName@@QEAA@PEBDU?$StringLifeSelector@$0A@@@@Z 000000018003fc50 f i libvcruntimed:undname.obj
 0001:0003ecc0       ??$?0$0A@@pcharNode@@QEAA@PEBDHU?$StringLifeSelector@$0A@@@@Z 000000018003fcc0 f i libvcruntimed:undname.obj
 0001:0003ed70       ??$?0_K$0A@@?$optional@_K@std@@QEAA@$$QEA_K@Z 000000018003fd70 f i libvcruntimed:undname.obj
 0001:0003edc0       ??$?0_K@?$_Optional_construct_base@_K@std@@QEAA@Uin_place_t@1@$$QEA_K@Z 000000018003fdc0 f i libvcruntimed:undname.obj
 0001:0003edf0       ??$?0_K@?$_Optional_destruct_base@_K$00@std@@QEAA@Uin_place_t@1@$$QEA_K@Z 000000018003fdf0 f i libvcruntimed:undname.obj
 0001:0003ee30       ??$append@VDNameNode@@@DName@@AEAAXPEBVDNameNode@@@Z 000000018003fe30 f i libvcruntimed:undname.obj
 0001:0003eee0       ??$append@VDNameStatusNode@@@DName@@AEAAXPEBVDNameStatusNode@@@Z 000000018003fee0 f i libvcruntimed:undname.obj
 0001:0003ef90       ??$append@VcharNode@@@DName@@AEAAXPEBVcharNode@@@Z 000000018003ff90 f i libvcruntimed:undname.obj
 0001:0003f040       ??$append@VpDNameNode@@@DName@@AEAAXPEBVpDNameNode@@@Z 0000000180040040 f i libvcruntimed:undname.obj
 0001:0003f0f0       ??$append@VpcharNode@@@DName@@AEAAXPEBVpcharNode@@@Z 00000001800400f0 f i libvcruntimed:undname.obj
 0001:0003f1a0       ??$doPchar@$00@DName@@AEAAXPEBDH@Z 00000001800401a0 f i libvcruntimed:undname.obj
 0001:0003f300       ??$doPchar@$01@DName@@AEAAXPEBDH@Z 0000000180040300 f i libvcruntimed:undname.obj
 0001:0003f460       ??$doPchar@$0A@@DName@@AEAAXPEBDH@Z 0000000180040460 f i libvcruntimed:undname.obj
 0001:0003f5c0       ??$forward@_K@std@@YA$$QEA_KAEA_K@Z 00000001800405c0 f i libvcruntimed:undname.obj
 0001:0003f5d0       ??$size@D$04@std@@YA_KAEAY04$$CBD@Z 00000001800405d0 f i libvcruntimed:undname.obj
 0001:0003f5e0       ??$size@D$0EB@@std@@YA_KAEAY0EB@$$CBD@Z 00000001800405e0 f i libvcruntimed:undname.obj
 0001:0003f5f0       ??0?$_Optional_construct_base@_K@std@@QEAA@XZ 00000001800405f0 f i libvcruntimed:undname.obj
 0001:0003f610       ??0?$_Optional_destruct_base@_K$00@std@@QEAA@XZ 0000000180040610 f i libvcruntimed:undname.obj
 0001:0003f640       ??0?$optional@_K@std@@QEAA@XZ 0000000180040640 f i libvcruntimed:undname.obj
 0001:0003f660       ??0Block@_HeapManager@@QEAA@XZ 0000000180040660 f i libvcruntimed:undname.obj
 0001:0003f680       ??0DName@@QEAA@AEAPEBDD@Z  0000000180040680 f   libvcruntimed:undname.obj
 0001:0003f850       ??0DName@@QEAA@AEBUStringLiteral@@@Z 0000000180040850 f   libvcruntimed:undname.obj
 0001:0003f8b0       ??0DName@@QEAA@AEBV0@@Z    00000001800408b0 f i libvcruntimed:undname.obj
 0001:0003f8e0       ??0DName@@QEAA@D@Z         00000001800408e0 f   libvcruntimed:undname.obj
 0001:0003f920       ??0DName@@QEAA@PEAV0@@Z    0000000180040920 f   libvcruntimed:undname.obj
 0001:0003fa00       ??0DName@@QEAA@W4DNameStatus@@@Z 0000000180040a00 f   libvcruntimed:undname.obj
 0001:0003fab0       ??0DName@@QEAA@XZ          0000000180040ab0 f i libvcruntimed:undname.obj
 0001:0003fae0       ??0DName@@QEAA@_J@Z        0000000180040ae0 f   libvcruntimed:undname.obj
 0001:0003fbf0       ??0DName@@QEAA@_K@Z        0000000180040bf0 f   libvcruntimed:undname.obj
 0001:0003fcc0       ??0DNameNode@@IEAA@XZ      0000000180040cc0 f i libvcruntimed:undname.obj
 0001:0003fce0       ??0Replicator@@QEAA@XZ     0000000180040ce0 f i libvcruntimed:undname.obj
 0001:0003fd20       ??0UnDecorator@@QEAA@PEBDP6APEADJ@ZK@Z 0000000180040d20 f i libvcruntimed:undname.obj
 0001:0003fdd0       ??0_Nontrivial_dummy_type@std@@QEAA@XZ 0000000180040dd0 f i libvcruntimed:undname.obj
 0001:0003fde0       ??0charNode@@QEAA@D@Z      0000000180040de0 f i libvcruntimed:undname.obj
 0001:0003fe20       ??0pDNameNode@@QEAA@PEAVDName@@@Z 0000000180040e20 f   libvcruntimed:undname.obj
 0001:0003fea0       ??0pairNode@@QEAA@PEBVDNameNode@@0@Z 0000000180040ea0 f i libvcruntimed:undname.obj
 0001:0003ff20       ??2@YAPEAX_KAEAV_HeapManager@@H@Z 0000000180040f20 f   libvcruntimed:undname.obj
 0001:0003ff80       ??4DName@@QEAAAEAV0@AEBUStringLiteral@@@Z 0000000180040f80 f   libvcruntimed:undname.obj
 0001:0003ffd0       ??4DName@@QEAAAEAV0@AEBV0@@Z 0000000180040fd0 f   libvcruntimed:undname.obj
 0001:00040000       ??4DName@@QEAAAEAV0@D@Z    0000000180041000 f i libvcruntimed:undname.obj
 0001:00040040       ??4DName@@QEAAAEAV0@PEAV0@@Z 0000000180041040 f   libvcruntimed:undname.obj
 0001:00040110       ??4DName@@QEAAAEAV0@W4DNameStatus@@@Z 0000000180041110 f   libvcruntimed:undname.obj
 0001:000401a0       ??AReplicator@@QEBA?AVDName@@H@Z 00000001800411a0 f   libvcruntimed:undname.obj
 0001:00040230       ??B?$optional@_K@std@@QEBA_NXZ 0000000180041230 f i libvcruntimed:undname.obj
 0001:00040240       ??D?$optional@_K@std@@QEGAAAEA_KXZ 0000000180041240 f i libvcruntimed:undname.obj
 0001:000402e0       ??H@YA?AVDName@@AEBUStringLiteral@@AEBV0@@Z 00000001800412e0 f i libvcruntimed:undname.obj
 0001:00040330       ??H@YA?AVDName@@DAEBV0@@Z  0000000180041330 f i libvcruntimed:undname.obj
 0001:00040380       ??H@YA?AVDName@@W4DNameStatus@@AEBV0@@Z 0000000180041380 f i libvcruntimed:undname.obj
 0001:000403d0       ??HDName@@QEBA?AV0@AEBUStringLiteral@@@Z 00000001800413d0 f   libvcruntimed:undname.obj
 0001:00040420       ??HDName@@QEBA?AV0@AEBV0@@Z 0000000180041420 f   libvcruntimed:undname.obj
 0001:00040470       ??HDName@@QEBA?AV0@D@Z     0000000180041470 f   libvcruntimed:undname.obj
 0001:000404c0       ??HDName@@QEBA?AV0@PEAV0@@Z 00000001800414c0 f   libvcruntimed:undname.obj
 0001:00040510       ??HDName@@QEBA?AV0@W4DNameStatus@@@Z 0000000180041510 f   libvcruntimed:undname.obj
 0001:00040560       ??HStringLiteral@@QEBA?AU0@H@Z 0000000180041560 f i libvcruntimed:undname.obj
 0001:000405a0       ??YDName@@QEAAAEAV0@AEBUStringLiteral@@@Z 00000001800415a0 f   libvcruntimed:undname.obj
 0001:00040670       ??YDName@@QEAAAEAV0@AEBV0@@Z 0000000180041670 f   libvcruntimed:undname.obj
 0001:00040730       ??YDName@@QEAAAEAV0@D@Z    0000000180041730 f   libvcruntimed:undname.obj
 0001:000407d0       ??YDName@@QEAAAEAV0@PEAV0@@Z 00000001800417d0 f   libvcruntimed:undname.obj
 0001:000408b0       ??YDName@@QEAAAEAV0@W4DNameStatus@@@Z 00000001800418b0 f   libvcruntimed:undname.obj
 0001:00040920       ??YReplicator@@QEAAAEAV0@AEBVDName@@@Z 0000000180041920 f   libvcruntimed:undname.obj
 0001:000409e0       ??_5DName@@QEAAAEAV0@AEBV0@@Z 00000001800419e0 f   libvcruntimed:undname.obj
 0001:00040a50       ??__K_l@@YA?AUStringLiteral@@PEBD_K@Z 0000000180041a50 f i libvcruntimed:undname.obj
 0001:00040aa0       ?Constructor@_HeapManager@@QEAAXP6APEAX_K@ZP6AXPEAX@Z@Z 0000000180041aa0 f i libvcruntimed:undname.obj
 0001:00040b00       ?Destructor@_HeapManager@@QEAAXXZ 0000000180041b00 f i libvcruntimed:undname.obj
 0001:00040ba0       ?UScore@UnDecorator@@SA?AUStringLiteral@@W4Tokens@@@Z 0000000180041ba0 f   libvcruntimed:undname.obj
 0001:00040c30       ?composeDeclaration@UnDecorator@@CA?AVDName@@AEBV2@@Z 0000000180041c30 f i libvcruntimed:undname.obj
 0001:00043130       ?dbGetString@DName@@QEBAPEADXZ 0000000180044130 f   libvcruntimed:undname.obj
 0001:00043160       ?doAccessSpecifiers@UnDecorator@@SAHXZ 0000000180044160 f i libvcruntimed:undname.obj
 0001:00043190       ?doAllocationLanguage@UnDecorator@@SAHXZ 0000000180044190 f i libvcruntimed:undname.obj
 0001:000431c0       ?doAllocationModel@UnDecorator@@SAHXZ 00000001800441c0 f i libvcruntimed:undname.obj
 0001:000431f0       ?doEcsu@UnDecorator@@SAHXZ 00000001800441f0 f i libvcruntimed:undname.obj
 0001:00043220       ?doEllipsis@UnDecorator@@SAHXZ 0000000180044220 f i libvcruntimed:undname.obj
 0001:00043250       ?doFunctionReturns@UnDecorator@@SAHXZ 0000000180044250 f i libvcruntimed:undname.obj
 0001:00043280       ?doMSKeywords@UnDecorator@@SAHXZ 0000000180044280 f i libvcruntimed:undname.obj
 0001:000432b0       ?doMemberTypes@UnDecorator@@SAHXZ 00000001800442b0 f i libvcruntimed:undname.obj
 0001:000432e0       ?doNameOnly@UnDecorator@@SAHXZ 00000001800442e0 f i libvcruntimed:undname.obj
 0001:000432f0       ?doNoIdentCharCheck@UnDecorator@@SAHXZ 00000001800442f0 f i libvcruntimed:undname.obj
 0001:00043300       ?doPchar@DName@@AEAAXD@Z   0000000180044300 f   libvcruntimed:undname.obj
 0001:00043390       ?doPtr64@UnDecorator@@SAHXZ 0000000180044390 f i libvcruntimed:undname.obj
 0001:000433c0       ?doRestrictionSpec@UnDecorator@@SAHXZ 00000001800443c0 f i libvcruntimed:undname.obj
 0001:000433f0       ?doThisTypes@UnDecorator@@SAHXZ 00000001800443f0 f i libvcruntimed:undname.obj
 0001:00043420       ?doThrowTypes@UnDecorator@@SAHXZ 0000000180044420 f i libvcruntimed:undname.obj
 0001:00043450       ?doTypeOnly@UnDecorator@@SAHXZ 0000000180044450 f i libvcruntimed:undname.obj
 0001:00043460       ?doUnderScore@UnDecorator@@SAHXZ 0000000180044460 f i libvcruntimed:undname.obj
 0001:00043490       ?getAddressOf@UnDecorator@@CA?AVDName@@XZ 0000000180044490 f   libvcruntimed:undname.obj
 0001:00043530       ?getArgumentList@UnDecorator@@CA?AVDName@@XZ 0000000180044530 f   libvcruntimed:undname.obj
 0001:000436d0       ?getArgumentTypes@UnDecorator@@CA?AVDName@@XZ 00000001800446d0 f   libvcruntimed:undname.obj
 0001:000439b0       ?getArrayAccess@UnDecorator@@CA?AVDName@@XZ 00000001800449b0 f   libvcruntimed:undname.obj
 0001:00043a70       ?getArrayObject@UnDecorator@@CA?AVDName@@XZ 0000000180044a70 f   libvcruntimed:undname.obj
 0001:00043b90       ?getArrayType@UnDecorator@@CA?AVDName@@AEBV2@@Z 0000000180044b90 f i libvcruntimed:undname.obj
 0001:00043f50       ?getBasedType@UnDecorator@@CA?AVDName@@XZ 0000000180044f50 f   libvcruntimed:undname.obj
 0001:000440c0       ?getBasicDataType@UnDecorator@@CA?AVDName@@AEBV2@@Z 00000001800450c0 f   libvcruntimed:undname.obj
 0001:00044e60       ?getCHPEName@UnDecorator@@QEAAPEADPEADH@Z 0000000180045e60 f i libvcruntimed:undname.obj
 0001:00045030       ?getCallIndex@UnDecorator@@CA?AVDName@@XZ 0000000180046030 f i libvcruntimed:undname.obj
 0001:00045050       ?getCallingConvention@UnDecorator@@CA?AVDName@@XZ 0000000180046050 f   libvcruntimed:undname.obj
 0001:00045440       ?getDataIndirectType@UnDecorator@@CA?AVDName@@AEBV2@W4IndirectionKind@@0H@Z 0000000180046440 f   libvcruntimed:undname.obj
 0001:000460e0       ?getDataIndirectType@UnDecorator@@CA?AVDName@@XZ 00000001800470e0 f i libvcruntimed:undname.obj
 0001:00046130       ?getDataType@UnDecorator@@CA?AVDName@@PEAV2@@Z 0000000180047130 f   libvcruntimed:undname.obj
 0001:00046310       ?getDecoratedName@UnDecorator@@CA?AVDName@@XZ 0000000180047310 f   libvcruntimed:undname.obj
 0001:00046800       ?getDimension@UnDecorator@@CA?AVDName@@_N@Z 0000000180047800 f   libvcruntimed:undname.obj
 0001:00046b10       ?getDispatchTarget@UnDecorator@@CA?AVDName@@XZ 0000000180047b10 f   libvcruntimed:undname.obj
 0001:00046be0       ?getDisplacement@UnDecorator@@CA?AVDName@@XZ 0000000180047be0 f i libvcruntimed:undname.obj
 0001:00046c00       ?getECSUDataType@UnDecorator@@CA?AVDName@@XZ 0000000180047c00 f   libvcruntimed:undname.obj
 0001:00046f90       ?getECSUName@UnDecorator@@CA?AVDName@@XZ 0000000180047f90 f i libvcruntimed:undname.obj
 0001:00046fb0       ?getEnumType@UnDecorator@@CA?AVDName@@XZ 0000000180047fb0 f i libvcruntimed:undname.obj
 0001:00047240       ?getExtendedDataIndirectType@UnDecorator@@CA?AVDName@@AEAW4IndirectionKind@@AEA_NH@Z 0000000180048240 f   libvcruntimed:undname.obj
 0001:00047560       ?getExternalDataType@UnDecorator@@CA?AVDName@@AEBV2@@Z 0000000180048560 f i libvcruntimed:undname.obj
 0001:00047640       ?getFloatingPoint@UnDecorator@@CA?AVDName@@H@Z 0000000180048640 f   libvcruntimed:undname.obj
 0001:000478c0       ?getFunctionIndirectType@UnDecorator@@CA?AVDName@@AEBV2@@Z 00000001800488c0 f   libvcruntimed:undname.obj
 0001:00047ef0       ?getGuardNumber@UnDecorator@@CA?AVDName@@XZ 0000000180048ef0 f i libvcruntimed:undname.obj
 0001:00047f10       ?getLastChar@DName@@QEBADXZ 0000000180048f10 f i libvcruntimed:undname.obj
 0001:00047f60       ?getLastChar@DNameStatusNode@@UEBADXZ 0000000180048f60 f i libvcruntimed:undname.obj
 0001:00047fa0       ?getLastChar@charNode@@UEBADXZ 0000000180048fa0 f i libvcruntimed:undname.obj
 0001:00047fb0       ?getLastChar@pDNameNode@@UEBADXZ 0000000180048fb0 f i libvcruntimed:undname.obj
 0001:00047ff0       ?getLastChar@pairNode@@UEBADXZ 0000000180048ff0 f i libvcruntimed:undname.obj
 0001:00048070       ?getLastChar@pcharNode@@UEBADXZ 0000000180049070 f i libvcruntimed:undname.obj
 0001:000480b0       ?getLexicalFrame@UnDecorator@@CA?AVDName@@XZ 00000001800490b0 f i libvcruntimed:undname.obj
 0001:00048100       ?getMemberAccess@UnDecorator@@CA?AVDName@@XZ 0000000180049100 f   libvcruntimed:undname.obj
 0001:000481b0       ?getMemoryWithBuffer@_HeapManager@@QEAAPEAX_K@Z 00000001800491b0 f   libvcruntimed:undname.obj
 0001:00048300       ?getMemoryWithoutBuffer@_HeapManager@@QEAAPEAX_K@Z 0000000180049300 f   libvcruntimed:undname.obj
 0001:00048350       ?getNoexcept@UnDecorator@@CA?AVDName@@XZ 0000000180049350 f   libvcruntimed:undname.obj
 0001:00048400       ?getNumberOfDimensions@UnDecorator@@CAHXZ 0000000180049400 f   libvcruntimed:undname.obj
 0001:00048520       ?getOperatorName@UnDecorator@@CA?AVDName@@_NPEA_N@Z 0000000180049520 f i libvcruntimed:undname.obj
 0001:00049510       ?getPointerToMember@UnDecorator@@CA?AVDName@@XZ 000000018004a510 f   libvcruntimed:undname.obj
 0001:00049660       ?getPointerType@UnDecorator@@CA?AVDName@@AEBV2@0@Z 000000018004a660 f i libvcruntimed:undname.obj
 0001:000496a0       ?getPointerTypeArray@UnDecorator@@CA?AVDName@@AEBV2@0@Z 000000018004a6a0 f i libvcruntimed:undname.obj
 0001:000496e0       ?getPrimaryDataType@UnDecorator@@CA?AVDName@@AEBV2@@Z 000000018004a6e0 f   libvcruntimed:undname.obj
 0001:00049d10       ?getPtrRefDataType@UnDecorator@@CA?AVDName@@AEBV2@H@Z 000000018004ad10 f   libvcruntimed:undname.obj
 0001:0004a100       ?getPtrRefType@UnDecorator@@CA?AVDName@@AEBV2@0W4IndirectionKind@@@Z 000000018004b100 f   libvcruntimed:undname.obj
 0001:0004a340       ?getReferenceType@UnDecorator@@CA?AVDName@@AEBV2@0W4IndirectionKind@@@Z 000000018004b340 f i libvcruntimed:undname.obj
 0001:0004a380       ?getRestrictionSpec@UnDecorator@@CA?AVDName@@XZ 000000018004b380 f   libvcruntimed:undname.obj
 0001:0004a610       ?getReturnType@UnDecorator@@CA?AVDName@@PEAV2@@Z 000000018004b610 f   libvcruntimed:undname.obj
 0001:0004a670       ?getScope@UnDecorator@@CA?AVDName@@XZ 000000018004b670 f   libvcruntimed:undname.obj
 0001:0004add0       ?getScopedName@UnDecorator@@CA?AVDName@@XZ 000000018004bdd0 f   libvcruntimed:undname.obj
 0001:0004afd0       ?getSignedDimension@UnDecorator@@CA?AVDName@@XZ 000000018004bfd0 f   libvcruntimed:undname.obj
 0001:0004b060       ?getStorageConvention@UnDecorator@@CA?AVDName@@XZ 000000018004c060 f i libvcruntimed:undname.obj
 0001:0004b080       ?getString@DName@@QEBAPEADPEAD0@Z 000000018004c080 f i libvcruntimed:undname.obj
 0001:0004b100       ?getString@DName@@QEBAPEADPEADH@Z 000000018004c100 f i libvcruntimed:undname.obj
 0001:0004b1c0       ?getString@DNameStatusNode@@UEBAPEADPEAD0@Z 000000018004c1c0 f i libvcruntimed:undname.obj
 0001:0004b210       ?getString@charNode@@UEBAPEADPEAD0@Z 000000018004c210 f i libvcruntimed:undname.obj
 0001:0004b250       ?getString@pDNameNode@@UEBAPEADPEAD0@Z 000000018004c250 f i libvcruntimed:undname.obj
 0001:0004b2b0       ?getString@pairNode@@UEBAPEADPEAD0@Z 000000018004c2b0 f i libvcruntimed:undname.obj
 0001:0004b380       ?getString@pcharNode@@UEBAPEADPEAD0@Z 000000018004c380 f i libvcruntimed:undname.obj
 0001:0004b3c0       ?getStringEncoding@UnDecorator@@CA?AVDName@@W4PrefixKind@@H@Z 000000018004c3c0 f   libvcruntimed:undname.obj
 0001:0004b520       ?getStringHelper@@YAPEADPEADPEBD1H@Z 000000018004c520 f i libvcruntimed:undname.obj
 0001:0004b590       ?getStringObject@UnDecorator@@CA?AVDName@@XZ 000000018004c590 f   libvcruntimed:undname.obj
 0001:0004b670       ?getSymbolName@UnDecorator@@CA?AVDName@@XZ 000000018004c670 f i libvcruntimed:undname.obj
 0001:0004b710       ?getTemplateArgumentList@UnDecorator@@CA?AVDName@@XZ 000000018004c710 f   libvcruntimed:undname.obj
 0001:0004ba50       ?getTemplateName@UnDecorator@@CA?AVDName@@_N@Z 000000018004ca50 f   libvcruntimed:undname.obj
 0001:0004bc90       ?getTemplateNonTypeArgument@UnDecorator@@CA?AVDName@@XZ 000000018004cc90 f   libvcruntimed:undname.obj
 0001:0004c530       ?getTemplateTypeArgument@UnDecorator@@CA?AVDName@@XZ 000000018004d530 f   libvcruntimed:undname.obj
 0001:0004c7a0       ?getThisType@UnDecorator@@CA?AVDName@@XZ 000000018004d7a0 f i libvcruntimed:undname.obj
 0001:0004c7f0       ?getThrowTypes@UnDecorator@@CA?AVDName@@XZ 000000018004d7f0 f   libvcruntimed:undname.obj
 0001:0004c840       ?getTypeEncoding@UnDecorator@@CAHXZ 000000018004d840 f i libvcruntimed:undname.obj
 0001:0004d4a0       ?getUndecoratedName@UnDecorator@@QEAAPEADPEADH@Z 000000018004e4a0 f i libvcruntimed:undname.obj
 0001:0004d690       ?getUnionObject@UnDecorator@@CA?AVDName@@XZ 000000018004e690 f   libvcruntimed:undname.obj
 0001:0004d7a0       ?getVCallThunkType@UnDecorator@@CA?AVDName@@XZ 000000018004e7a0 f i libvcruntimed:undname.obj
 0001:0004d850       ?getValue@UnDecorator@@CA?AV?$optional@_K@std@@XZ 000000018004e850 f   libvcruntimed:undname.obj
 0001:0004d920       ?getValueObject@UnDecorator@@CA?AVDName@@XZ 000000018004e920 f   libvcruntimed:undname.obj
 0001:0004db40       ?getVbTableType@UnDecorator@@CA?AVDName@@AEBV2@@Z 000000018004eb40 f i libvcruntimed:undname.obj
 0001:0004db70       ?getVdispMapType@UnDecorator@@CA?AVDName@@AEBV2@@Z 000000018004eb70 f i libvcruntimed:undname.obj
 0001:0004dc30       ?getVfTableType@UnDecorator@@CA?AVDName@@AEBV2@@Z 000000018004ec30 f i libvcruntimed:undname.obj
 0001:0004ded0       ?getZName@UnDecorator@@CA?AVDName@@_N0@Z 000000018004eed0 f   libvcruntimed:undname.obj
 0001:0004e340       ?haveTemplateParameters@UnDecorator@@SAHXZ 000000018004f340 f i libvcruntimed:undname.obj
 0001:0004e350       ?isArray@DName@@QEBAHXZ    000000018004f350 f i libvcruntimed:undname.obj
 0001:0004e370       ?isComArray@DName@@QEBAHXZ 000000018004f370 f i libvcruntimed:undname.obj
 0001:0004e390       ?isEmpty@DName@@QEBAHXZ    000000018004f390 f i libvcruntimed:undname.obj
 0001:0004e3c0       ?isFull@Replicator@@QEBAHXZ 000000018004f3c0 f i libvcruntimed:undname.obj
 0001:0004e3f0       ?isNoTE@DName@@QEBAHXZ     000000018004f3f0 f i libvcruntimed:undname.obj
 0001:0004e410       ?isPinPtr@DName@@QEBAHXZ   000000018004f410 f i libvcruntimed:undname.obj
 0001:0004e430       ?isPtrRef@DName@@QEBAHXZ   000000018004f430 f i libvcruntimed:undname.obj
 0001:0004e450       ?isUDC@DName@@QEBAHXZ      000000018004f450 f i libvcruntimed:undname.obj
 0001:0004e4a0       ?isUDTThunk@DName@@QEBAHXZ 000000018004f4a0 f i libvcruntimed:undname.obj
 0001:0004e4f0       ?isVCallThunk@DName@@QEBAHXZ 000000018004f4f0 f i libvcruntimed:undname.obj
 0001:0004e510       ?isValid@DName@@QEBAHXZ    000000018004f510 f i libvcruntimed:undname.obj
 0001:0004e550       ?length@DName@@QEBAHXZ     000000018004f550 f i libvcruntimed:undname.obj
 0001:0004e5a0       ?length@DNameStatusNode@@UEBAHXZ 000000018004f5a0 f i libvcruntimed:undname.obj
 0001:0004e5b0       ?length@charNode@@UEBAHXZ  000000018004f5b0 f i libvcruntimed:undname.obj
 0001:0004e5c0       ?length@pDNameNode@@UEBAHXZ 000000018004f5c0 f i libvcruntimed:undname.obj
 0001:0004e600       ?length@pairNode@@UEBAHXZ  000000018004f600 f i libvcruntimed:undname.obj
 0001:0004e690       ?length@pcharNode@@UEBAHXZ 000000018004f690 f i libvcruntimed:undname.obj
 0001:0004e6a0       ?make@DNameStatusNode@@SAPEBV1@W4DNameStatus@@@Z 000000018004f6a0 f i libvcruntimed:undname.obj
 0001:0004e6f0       ?parseDecoratedName@UnDecorator@@CA?AVDName@@XZ 000000018004f6f0 f   libvcruntimed:undname.obj
 0001:0004e8e0       ?raw_length@DNameStatusNode@@UEBAHXZ 000000018004f8e0 f i libvcruntimed:undname.obj
 0001:0004e900       ?raw_length@charNode@@UEBAHXZ 000000018004f900 f i libvcruntimed:undname.obj
 0001:0004e920       ?raw_length@pDNameNode@@UEBAHXZ 000000018004f920 f i libvcruntimed:undname.obj
 0001:0004e930       ?raw_length@pairNode@@UEBAHXZ 000000018004f930 f i libvcruntimed:undname.obj
 0001:0004e940       ?raw_length@pcharNode@@UEBAHXZ 000000018004f940 f i libvcruntimed:undname.obj
 0001:0004e960       ?setIsArray@DName@@QEAAXXZ 000000018004f960 f i libvcruntimed:undname.obj
 0001:0004e980       ?setIsComArray@DName@@QEAAXXZ 000000018004f980 f i libvcruntimed:undname.obj
 0001:0004e9a0       ?setIsNoTE@DName@@QEAAXXZ  000000018004f9a0 f i libvcruntimed:undname.obj
 0001:0004e9c0       ?setIsPinPtr@DName@@QEAAXXZ 000000018004f9c0 f i libvcruntimed:undname.obj
 0001:0004e9e0       ?setIsUDC@DName@@QEAAXXZ   000000018004f9e0 f i libvcruntimed:undname.obj
 0001:0004ea10       ?setIsVCallThunk@DName@@QEAAXXZ 000000018004fa10 f i libvcruntimed:undname.obj
 0001:0004ea30       ?setPtrRef@DName@@QEAAAEAV1@XZ 000000018004fa30 f i libvcruntimed:undname.obj
 0001:0004ea50       ?status@DName@@QEBA?AW4DNameStatus@@XZ 000000018004fa50 f i libvcruntimed:undname.obj
 0001:0004eb80       __unDName                  000000018004fb80 f   libvcruntimed:undname.obj
 0001:0004ebe0       __unDNameEx                000000018004fbe0 f   libvcruntimed:undname.obj
 0001:0004eca0       unDNameGenerateCHPE        000000018004fca0 f   libvcruntimed:undname.obj
 0001:0004ed50       ??$__crt_interlocked_exchange_pointer@UHINSTANCE__@@PEAU1@@@YAPEAUHINSTANCE__@@PEDSEAU0@QEAU0@@Z 000000018004fd50 f i libvcruntimed:winapi_downlevel.obj
 0001:0004ed70       ??$__crt_interlocked_exchange_pointer@UHINSTANCE__@@PEAX@@YAPEAUHINSTANCE__@@PEDSEAU0@QEAX@Z 000000018004fd70 f i libvcruntimed:winapi_downlevel.obj
 0001:0004ed90       ??$__crt_interlocked_exchange_pointer@XPEAX@@YAPEAXPEDSEAXQEAX@Z 000000018004fd90 f i libvcruntimed:winapi_downlevel.obj
 0001:0004edb0       ??$__crt_interlocked_read_pointer@UHINSTANCE__@@@@YAPEAUHINSTANCE__@@PEDSEAU0@@Z 000000018004fdb0 f i libvcruntimed:winapi_downlevel.obj
 0001:0004edd0       ??$__crt_interlocked_read_pointer@X@@YAPEAXPEDSEAX@Z 000000018004fdd0 f i libvcruntimed:winapi_downlevel.obj
 0001:0004f2e0       __vcrt_FlsAlloc            00000001800502e0 f   libvcruntimed:winapi_downlevel.obj
 0001:0004f330       __vcrt_FlsFree             0000000180050330 f   libvcruntimed:winapi_downlevel.obj
 0001:0004f380       __vcrt_FlsGetValue         0000000180050380 f   libvcruntimed:winapi_downlevel.obj
 0001:0004f3d0       __vcrt_FlsSetValue         00000001800503d0 f   libvcruntimed:winapi_downlevel.obj
 0001:0004f430       __vcrt_InitializeCriticalSectionEx 0000000180050430 f   libvcruntimed:winapi_downlevel.obj
 0001:0004f4b0       _CallSettingFrame          00000001800504b0 f   libvcruntimed:handlers.obj
 0001:0004f500       _CallSettingFrame_LookupContinuationIndex 0000000180050500 f   libvcruntimed:handlers.obj
 0001:0004f530       _CallSettingFrame_NotifyContinuationAddr 0000000180050530 f   libvcruntimed:handlers.obj
 0001:0004f560       _CallSettingFrameEncoded   0000000180050560 f   libvcruntimed:handlers.obj
 0001:0004f5b0       ??$?0AEBV?$stream_output_adapter@D@__crt_stdio_output@@AEB_KAEBQEBDAEAV__crt_cached_ptd_host@@AEBQEAD@?$format_validation_base@DV?$stream_output_adapter@D@__crt_stdio_output@@@__crt_stdio_output@@IEAA@AEBV?$stream_output_adapter@D@1@AEB_KAEBQEBDAEAV__crt_cached_ptd_host@@AEBQEAD@Z 00000001800505b0 f i libucrtd:output.obj
 0001:0004f600       ??$?0AEBV?$stream_output_adapter@D@__crt_stdio_output@@AEB_KAEBQEBDAEAV__crt_cached_ptd_host@@AEBQEAD@?$positional_parameter_base@DV?$stream_output_adapter@D@__crt_stdio_output@@@__crt_stdio_output@@IEAA@AEBV?$stream_output_adapter@D@1@AEB_KAEBQEBDAEAV__crt_cached_ptd_host@@AEBQEAD@Z 0000000180050600 f i libucrtd:output.obj
 0001:0004f6a0       ??$?0AEBV?$stream_output_adapter@D@__crt_stdio_output@@AEB_KAEBQEBDAEAV__crt_cached_ptd_host@@AEBQEAD@?$standard_base@DV?$stream_output_adapter@D@__crt_stdio_output@@@__crt_stdio_output@@IEAA@AEBV?$stream_output_adapter@D@1@AEB_KAEBQEBDAEAV__crt_cached_ptd_host@@AEBQEAD@Z 00000001800506a0 f i libucrtd:output.obj
 0001:0004f710       ??$?0AEBV?$stream_output_adapter@_W@__crt_stdio_output@@AEB_KAEBQEB_WAEAV__crt_cached_ptd_host@@AEBQEAD@?$format_validation_base@_WV?$stream_output_adapter@_W@__crt_stdio_output@@@__crt_stdio_output@@IEAA@AEBV?$stream_output_adapter@_W@1@AEB_KAEBQEB_WAEAV__crt_cached_ptd_host@@AEBQEAD@Z 0000000180050710 f i libucrtd:output.obj
 0001:0004f760       ??$?0AEBV?$stream_output_adapter@_W@__crt_stdio_output@@AEB_KAEBQEB_WAEAV__crt_cached_ptd_host@@AEBQEAD@?$positional_parameter_base@_WV?$stream_output_adapter@_W@__crt_stdio_output@@@__crt_stdio_output@@IEAA@AEBV?$stream_output_adapter@_W@1@AEB_KAEBQEB_WAEAV__crt_cached_ptd_host@@AEBQEAD@Z 0000000180050760 f i libucrtd:output.obj
 0001:0004f800       ??$?0AEBV?$stream_output_adapter@_W@__crt_stdio_output@@AEB_KAEBQEB_WAEAV__crt_cached_ptd_host@@AEBQEAD@?$standard_base@_WV?$stream_output_adapter@_W@__crt_stdio_output@@@__crt_stdio_output@@IEAA@AEBV?$stream_output_adapter@_W@1@AEB_KAEBQEB_WAEAV__crt_cached_ptd_host@@AEBQEAD@Z 0000000180050800 f i libucrtd:output.obj
 0001:0004f870       ??$?0AEBV?$string_output_adapter@D@__crt_stdio_output@@AEB_KAEBQEBDAEAV__crt_cached_ptd_host@@AEBQEAD@?$format_validation_base@DV?$string_output_adapter@D@__crt_stdio_output@@@__crt_stdio_output@@IEAA@AEBV?$string_output_adapter@D@1@AEB_KAEBQEBDAEAV__crt_cached_ptd_host@@AEBQEAD@Z 0000000180050870 f i libucrtd:output.obj
 0001:0004f8c0       ??$?0AEBV?$string_output_adapter@D@__crt_stdio_output@@AEB_KAEBQEBDAEAV__crt_cached_ptd_host@@AEBQEAD@?$positional_parameter_base@DV?$string_output_adapter@D@__crt_stdio_output@@@__crt_stdio_output@@IEAA@AEBV?$string_output_adapter@D@1@AEB_KAEBQEBDAEAV__crt_cached_ptd_host@@AEBQEAD@Z 00000001800508c0 f i libucrtd:output.obj
 0001:0004f960       ??$?0AEBV?$string_output_adapter@D@__crt_stdio_output@@AEB_KAEBQEBDAEAV__crt_cached_ptd_host@@AEBQEAD@?$standard_base@DV?$string_output_adapter@D@__crt_stdio_output@@@__crt_stdio_output@@IEAA@AEBV?$string_output_adapter@D@1@AEB_KAEBQEBDAEAV__crt_cached_ptd_host@@AEBQEAD@Z 0000000180050960 f i libucrtd:output.obj
 0001:0004f9d0       ??$?0AEBV?$string_output_adapter@_W@__crt_stdio_output@@AEB_KAEBQEB_WAEAV__crt_cached_ptd_host@@AEBQEAD@?$format_validation_base@_WV?$string_output_adapter@_W@__crt_stdio_output@@@__crt_stdio_output@@IEAA@AEBV?$string_output_adapter@_W@1@AEB_KAEBQEB_WAEAV__crt_cached_ptd_host@@AEBQEAD@Z 00000001800509d0 f i libucrtd:output.obj
 0001:0004fa20       ??$?0AEBV?$string_output_adapter@_W@__crt_stdio_output@@AEB_KAEBQEB_WAEAV__crt_cached_ptd_host@@AEBQEAD@?$positional_parameter_base@_WV?$string_output_adapter@_W@__crt_stdio_output@@@__crt_stdio_output@@IEAA@AEBV?$string_output_adapter@_W@1@AEB_KAEBQEB_WAEAV__crt_cached_ptd_host@@AEBQEAD@Z 0000000180050a20 f i libucrtd:output.obj
 0001:0004fac0       ??$?0AEBV?$string_output_adapter@_W@__crt_stdio_output@@AEB_KAEBQEB_WAEAV__crt_cached_ptd_host@@AEBQEAD@?$standard_base@_WV?$string_output_adapter@_W@__crt_stdio_output@@@__crt_stdio_output@@IEAA@AEBV?$string_output_adapter@_W@1@AEB_KAEBQEB_WAEAV__crt_cached_ptd_host@@AEBQEAD@Z 0000000180050ac0 f i libucrtd:output.obj
 0001:0004ff50       ??$__crt_interlocked_read@J@@YAJPEDJ@Z 0000000180050f50 f i libucrtd:output.obj
 0001:0004ff70       ??$_tcstol_internal@DPEAPEAD$0A@@@YAJAEAV__crt_cached_ptd_host@@QEBDQEAPEADH@Z 0000000180050f70 f i libucrtd:output.obj
 0001:0004ffc0       ??$_tcstol_internal@_WPEAPEA_W$0A@@@YAJAEAV__crt_cached_ptd_host@@QEB_WQEAPEA_WH@Z 0000000180050fc0 f i libucrtd:output.obj
 0001:00053fe0       ??$count@D@formatting_buffer@__crt_stdio_output@@QEBA_KXZ 0000000180054fe0 f i libucrtd:output.obj
 0001:00054030       ??$count@_W@formatting_buffer@__crt_stdio_output@@QEBA_KXZ 0000000180055030 f i libucrtd:output.obj
 0001:00054080       ??$data@D@formatting_buffer@__crt_stdio_output@@QEAAPEADXZ 0000000180055080 f i libucrtd:output.obj
 0001:000540d0       ??$data@_W@formatting_buffer@__crt_stdio_output@@QEAAPEA_WXZ 00000001800550d0 f i libucrtd:output.obj
 0001:00054120       ??$ensure_buffer_is_big_enough@D@formatting_buffer@__crt_stdio_output@@QEAA_N_KAEAV__crt_cached_ptd_host@@@Z 0000000180055120 f i libucrtd:output.obj
 0001:00054260       ??$ensure_buffer_is_big_enough@_W@formatting_buffer@__crt_stdio_output@@QEAA_N_KAEAV__crt_cached_ptd_host@@@Z 0000000180055260 f i libucrtd:output.obj
 0001:000543a0       ??$extract_argument_from_va_list@C_J@?$positional_parameter_base@DV?$stream_output_adapter@D@__crt_stdio_output@@@__crt_stdio_output@@IEAA_NAEA_J@Z 00000001800553a0 f i libucrtd:output.obj
 0001:00054560       ??$extract_argument_from_va_list@C_J@?$positional_parameter_base@DV?$string_output_adapter@D@__crt_stdio_output@@@__crt_stdio_output@@IEAA_NAEA_J@Z 0000000180055560 f i libucrtd:output.obj
 0001:00054720       ??$extract_argument_from_va_list@C_J@?$positional_parameter_base@_WV?$stream_output_adapter@_W@__crt_stdio_output@@@__crt_stdio_output@@IEAA_NAEA_J@Z 0000000180055720 f i libucrtd:output.obj
 0001:000548e0       ??$extract_argument_from_va_list@C_J@?$positional_parameter_base@_WV?$string_output_adapter@_W@__crt_stdio_output@@@__crt_stdio_output@@IEAA_NAEA_J@Z 00000001800558e0 f i libucrtd:output.obj
 0001:00054aa0       ??$extract_argument_from_va_list@C_J@?$standard_base@DV?$stream_output_adapter@D@__crt_stdio_output@@@__crt_stdio_output@@IEAA_NAEA_J@Z 0000000180055aa0 f i libucrtd:output.obj
 0001:00054ae0       ??$extract_argument_from_va_list@C_J@?$standard_base@DV?$string_output_adapter@D@__crt_stdio_output@@@__crt_stdio_output@@IEAA_NAEA_J@Z 0000000180055ae0 f i libucrtd:output.obj
 0001:00054b20       ??$extract_argument_from_va_list@C_J@?$standard_base@_WV?$stream_output_adapter@_W@__crt_stdio_output@@@__crt_stdio_output@@IEAA_NAEA_J@Z 0000000180055b20 f i libucrtd:output.obj
 0001:00054b60       ??$extract_argument_from_va_list@C_J@?$standard_base@_WV?$string_output_adapter@_W@__crt_stdio_output@@@__crt_stdio_output@@IEAA_NAEA_J@Z 0000000180055b60 f i libucrtd:output.obj
 0001:00054ba0       ??$extract_argument_from_va_list@E_J@?$positional_parameter_base@DV?$stream_output_adapter@D@__crt_stdio_output@@@__crt_stdio_output@@IEAA_NAEA_J@Z 0000000180055ba0 f i libucrtd:output.obj
 0001:00054d60       ??$extract_argument_from_va_list@E_J@?$positional_parameter_base@DV?$string_output_adapter@D@__crt_stdio_output@@@__crt_stdio_output@@IEAA_NAEA_J@Z 0000000180055d60 f i libucrtd:output.obj
 0001:00054f20       ??$extract_argument_from_va_list@E_J@?$positional_parameter_base@_WV?$stream_output_adapter@_W@__crt_stdio_output@@@__crt_stdio_output@@IEAA_NAEA_J@Z 0000000180055f20 f i libucrtd:output.obj
 0001:000550e0       ??$extract_argument_from_va_list@E_J@?$positional_parameter_base@_WV?$string_output_adapter@_W@__crt_stdio_output@@@__crt_stdio_output@@IEAA_NAEA_J@Z 00000001800560e0 f i libucrtd:output.obj
 0001:000552a0       ??$extract_argument_from_va_list@E_J@?$standard_base@DV?$stream_output_adapter@D@__crt_stdio_output@@@__crt_stdio_output@@IEAA_NAEA_J@Z 00000001800562a0 f i libucrtd:output.obj
 0001:000552e0       ??$extract_argument_from_va_list@E_J@?$standard_base@DV?$string_output_adapter@D@__crt_stdio_output@@@__crt_stdio_output@@IEAA_NAEA_J@Z 00000001800562e0 f i libucrtd:output.obj
 0001:00055320       ??$extract_argument_from_va_list@E_J@?$standard_base@_WV?$stream_output_adapter@_W@__crt_stdio_output@@@__crt_stdio_output@@IEAA_NAEA_J@Z 0000000180056320 f i libucrtd:output.obj
 0001:00055360       ??$extract_argument_from_va_list@E_J@?$standard_base@_WV?$string_output_adapter@_W@__crt_stdio_output@@@__crt_stdio_output@@IEAA_NAEA_J@Z 0000000180056360 f i libucrtd:output.obj
 0001:000553a0       ??$extract_argument_from_va_list@F_J@?$positional_parameter_base@DV?$stream_output_adapter@D@__crt_stdio_output@@@__crt_stdio_output@@IEAA_NAEA_J@Z 00000001800563a0 f i libucrtd:output.obj
 0001:00055560       ??$extract_argument_from_va_list@F_J@?$positional_parameter_base@DV?$string_output_adapter@D@__crt_stdio_output@@@__crt_stdio_output@@IEAA_NAEA_J@Z 0000000180056560 f i libucrtd:output.obj
 0001:00055720       ??$extract_argument_from_va_list@F_J@?$positional_parameter_base@_WV?$stream_output_adapter@_W@__crt_stdio_output@@@__crt_stdio_output@@IEAA_NAEA_J@Z 0000000180056720 f i libucrtd:output.obj
 0001:000558e0       ??$extract_argument_from_va_list@F_J@?$positional_parameter_base@_WV?$string_output_adapter@_W@__crt_stdio_output@@@__crt_stdio_output@@IEAA_NAEA_J@Z 00000001800568e0 f i libucrtd:output.obj
 0001:00055aa0       ??$extract_argument_from_va_list@F_J@?$standard_base@DV?$stream_output_adapter@D@__crt_stdio_output@@@__crt_stdio_output@@IEAA_NAEA_J@Z 0000000180056aa0 f i libucrtd:output.obj
 0001:00055ae0       ??$extract_argument_from_va_list@F_J@?$standard_base@DV?$string_output_adapter@D@__crt_stdio_output@@@__crt_stdio_output@@IEAA_NAEA_J@Z 0000000180056ae0 f i libucrtd:output.obj
 0001:00055b20       ??$extract_argument_from_va_list@F_J@?$standard_base@_WV?$stream_output_adapter@_W@__crt_stdio_output@@@__crt_stdio_output@@IEAA_NAEA_J@Z 0000000180056b20 f i libucrtd:output.obj
 0001:00055b60       ??$extract_argument_from_va_list@F_J@?$standard_base@_WV?$string_output_adapter@_W@__crt_stdio_output@@@__crt_stdio_output@@IEAA_NAEA_J@Z 0000000180056b60 f i libucrtd:output.obj
 0001:00055ba0       ??$extract_argument_from_va_list@GD@?$positional_parameter_base@DV?$stream_output_adapter@D@__crt_stdio_output@@@__crt_stdio_output@@IEAA_NAEAD@Z 0000000180056ba0 f i libucrtd:output.obj
 0001:00055d60       ??$extract_argument_from_va_list@GD@?$positional_parameter_base@DV?$string_output_adapter@D@__crt_stdio_output@@@__crt_stdio_output@@IEAA_NAEAD@Z 0000000180056d60 f i libucrtd:output.obj
 0001:00055f20       ??$extract_argument_from_va_list@GD@?$standard_base@DV?$stream_output_adapter@D@__crt_stdio_output@@@__crt_stdio_output@@IEAA_NAEAD@Z 0000000180056f20 f i libucrtd:output.obj
 0001:00055f50       ??$extract_argument_from_va_list@GD@?$standard_base@DV?$string_output_adapter@D@__crt_stdio_output@@@__crt_stdio_output@@IEAA_NAEAD@Z 0000000180056f50 f i libucrtd:output.obj
 0001:00055f80       ??$extract_argument_from_va_list@G_J@?$positional_parameter_base@DV?$stream_output_adapter@D@__crt_stdio_output@@@__crt_stdio_output@@IEAA_NAEA_J@Z 0000000180056f80 f i libucrtd:output.obj
 0001:00056140       ??$extract_argument_from_va_list@G_J@?$positional_parameter_base@DV?$string_output_adapter@D@__crt_stdio_output@@@__crt_stdio_output@@IEAA_NAEA_J@Z 0000000180057140 f i libucrtd:output.obj
 0001:00056300       ??$extract_argument_from_va_list@G_J@?$positional_parameter_base@_WV?$stream_output_adapter@_W@__crt_stdio_output@@@__crt_stdio_output@@IEAA_NAEA_J@Z 0000000180057300 f i libucrtd:output.obj
 0001:000564c0       ??$extract_argument_from_va_list@G_J@?$positional_parameter_base@_WV?$string_output_adapter@_W@__crt_stdio_output@@@__crt_stdio_output@@IEAA_NAEA_J@Z 00000001800574c0 f i libucrtd:output.obj
 0001:00056680       ??$extract_argument_from_va_list@G_J@?$standard_base@DV?$stream_output_adapter@D@__crt_stdio_output@@@__crt_stdio_output@@IEAA_NAEA_J@Z 0000000180057680 f i libucrtd:output.obj
 0001:000566c0       ??$extract_argument_from_va_list@G_J@?$standard_base@DV?$string_output_adapter@D@__crt_stdio_output@@@__crt_stdio_output@@IEAA_NAEA_J@Z 00000001800576c0 f i libucrtd:output.obj
 0001:00056700       ??$extract_argument_from_va_list@G_J@?$standard_base@_WV?$stream_output_adapter@_W@__crt_stdio_output@@@__crt_stdio_output@@IEAA_NAEA_J@Z 0000000180057700 f i libucrtd:output.obj
 0001:00056740       ??$extract_argument_from_va_list@G_J@?$standard_base@_WV?$string_output_adapter@_W@__crt_stdio_output@@@__crt_stdio_output@@IEAA_NAEA_J@Z 0000000180057740 f i libucrtd:output.obj
 0001:00056780       ??$extract_argument_from_va_list@H_J@?$positional_parameter_base@DV?$stream_output_adapter@D@__crt_stdio_output@@@__crt_stdio_output@@IEAA_NAEA_J@Z 0000000180057780 f i libucrtd:output.obj
 0001:00056940       ??$extract_argument_from_va_list@H_J@?$positional_parameter_base@DV?$string_output_adapter@D@__crt_stdio_output@@@__crt_stdio_output@@IEAA_NAEA_J@Z 0000000180057940 f i libucrtd:output.obj
 0001:00056b00       ??$extract_argument_from_va_list@H_J@?$positional_parameter_base@_WV?$stream_output_adapter@_W@__crt_stdio_output@@@__crt_stdio_output@@IEAA_NAEA_J@Z 0000000180057b00 f i libucrtd:output.obj
 0001:00056cc0       ??$extract_argument_from_va_list@H_J@?$positional_parameter_base@_WV?$string_output_adapter@_W@__crt_stdio_output@@@__crt_stdio_output@@IEAA_NAEA_J@Z 0000000180057cc0 f i libucrtd:output.obj
 0001:00056e80       ??$extract_argument_from_va_list@H_J@?$standard_base@DV?$stream_output_adapter@D@__crt_stdio_output@@@__crt_stdio_output@@IEAA_NAEA_J@Z 0000000180057e80 f i libucrtd:output.obj
 0001:00056eb0       ??$extract_argument_from_va_list@H_J@?$standard_base@DV?$string_output_adapter@D@__crt_stdio_output@@@__crt_stdio_output@@IEAA_NAEA_J@Z 0000000180057eb0 f i libucrtd:output.obj
 0001:00056ee0       ??$extract_argument_from_va_list@H_J@?$standard_base@_WV?$stream_output_adapter@_W@__crt_stdio_output@@@__crt_stdio_output@@IEAA_NAEA_J@Z 0000000180057ee0 f i libucrtd:output.obj
 0001:00056f10       ??$extract_argument_from_va_list@H_J@?$standard_base@_WV?$string_output_adapter@_W@__crt_stdio_output@@@__crt_stdio_output@@IEAA_NAEA_J@Z 0000000180057f10 f i libucrtd:output.obj
 0001:00056f40       ??$extract_argument_from_va_list@I_J@?$positional_parameter_base@DV?$stream_output_adapter@D@__crt_stdio_output@@@__crt_stdio_output@@IEAA_NAEA_J@Z 0000000180057f40 f i libucrtd:output.obj
 0001:00057100       ??$extract_argument_from_va_list@I_J@?$positional_parameter_base@DV?$string_output_adapter@D@__crt_stdio_output@@@__crt_stdio_output@@IEAA_NAEA_J@Z 0000000180058100 f i libucrtd:output.obj
 0001:000572c0       ??$extract_argument_from_va_list@I_J@?$positional_parameter_base@_WV?$stream_output_adapter@_W@__crt_stdio_output@@@__crt_stdio_output@@IEAA_NAEA_J@Z 00000001800582c0 f i libucrtd:output.obj
 0001:00057480       ??$extract_argument_from_va_list@I_J@?$positional_parameter_base@_WV?$string_output_adapter@_W@__crt_stdio_output@@@__crt_stdio_output@@IEAA_NAEA_J@Z 0000000180058480 f i libucrtd:output.obj
 0001:00057640       ??$extract_argument_from_va_list@I_J@?$standard_base@DV?$stream_output_adapter@D@__crt_stdio_output@@@__crt_stdio_output@@IEAA_NAEA_J@Z 0000000180058640 f i libucrtd:output.obj
 0001:00057670       ??$extract_argument_from_va_list@I_J@?$standard_base@DV?$string_output_adapter@D@__crt_stdio_output@@@__crt_stdio_output@@IEAA_NAEA_J@Z 0000000180058670 f i libucrtd:output.obj
 0001:000576a0       ??$extract_argument_from_va_list@I_J@?$standard_base@_WV?$stream_output_adapter@_W@__crt_stdio_output@@@__crt_stdio_output@@IEAA_NAEA_J@Z 00000001800586a0 f i libucrtd:output.obj
 0001:000576d0       ??$extract_argument_from_va_list@I_J@?$standard_base@_WV?$string_output_adapter@_W@__crt_stdio_output@@@__crt_stdio_output@@IEAA_NAEA_J@Z 00000001800586d0 f i libucrtd:output.obj
 0001:00057700       ??$extract_argument_from_va_list@PEADPEAD@?$positional_parameter_base@DV?$stream_output_adapter@D@__crt_stdio_output@@@__crt_stdio_output@@IEAA_NAEAPEAD@Z 0000000180058700 f i libucrtd:output.obj
 0001:000578c0       ??$extract_argument_from_va_list@PEADPEAD@?$positional_parameter_base@DV?$string_output_adapter@D@__crt_stdio_output@@@__crt_stdio_output@@IEAA_NAEAPEAD@Z 00000001800588c0 f i libucrtd:output.obj
 0001:00057a80       ??$extract_argument_from_va_list@PEADPEAD@?$positional_parameter_base@_WV?$stream_output_adapter@_W@__crt_stdio_output@@@__crt_stdio_output@@IEAA_NAEAPEAD@Z 0000000180058a80 f i libucrtd:output.obj
 0001:00057c40       ??$extract_argument_from_va_list@PEADPEAD@?$positional_parameter_base@_WV?$string_output_adapter@_W@__crt_stdio_output@@@__crt_stdio_output@@IEAA_NAEAPEAD@Z 0000000180058c40 f i libucrtd:output.obj
 0001:00057e00       ??$extract_argument_from_va_list@PEADPEAD@?$standard_base@DV?$stream_output_adapter@D@__crt_stdio_output@@@__crt_stdio_output@@IEAA_NAEAPEAD@Z 0000000180058e00 f i libucrtd:output.obj
 0001:00057e30       ??$extract_argument_from_va_list@PEADPEAD@?$standard_base@DV?$string_output_adapter@D@__crt_stdio_output@@@__crt_stdio_output@@IEAA_NAEAPEAD@Z 0000000180058e30 f i libucrtd:output.obj
 0001:00057e60       ??$extract_argument_from_va_list@PEADPEAD@?$standard_base@_WV?$stream_output_adapter@_W@__crt_stdio_output@@@__crt_stdio_output@@IEAA_NAEAPEAD@Z 0000000180058e60 f i libucrtd:output.obj
 0001:00057e90       ??$extract_argument_from_va_list@PEADPEAD@?$standard_base@_WV?$string_output_adapter@_W@__crt_stdio_output@@@__crt_stdio_output@@IEAA_NAEAPEAD@Z 0000000180058e90 f i libucrtd:output.obj
 0001:00057ec0       ??$extract_argument_from_va_list@PEAUansi_string@?1??type_case_Z@?$output_processor@DV?$stream_output_adapter@D@__crt_stdio_output@@V?$format_validation_base@DV?$stream_output_adapter@D@__crt_stdio_output@@@2@@__crt_stdio_output@@AEAA_NXZ@PEAU1?1??234@AEAA_NXZ@@?$standard_base@DV?$stream_output_adapter@D@__crt_stdio_output@@@__crt_stdio_output@@IEAA_NAEAPEAUansi_string@?1??type_case_Z@?$output_processor@DV?$stream_output_adapter@D@__crt_stdio_output@@V?$format_validation_base@DV?$stream_output_adapter@D@__crt_stdio_output@@@2@@1@AEAA_NXZ@@Z 0000000180058ec0 f i libucrtd:output.obj
 0001:00057ef0       ??$extract_argument_from_va_list@PEAUansi_string@?1??type_case_Z@?$output_processor@DV?$stream_output_adapter@D@__crt_stdio_output@@V?$positional_parameter_base@DV?$stream_output_adapter@D@__crt_stdio_output@@@2@@__crt_stdio_output@@AEAA_NXZ@PEAU1?1??234@AEAA_NXZ@@?$positional_parameter_base@DV?$stream_output_adapter@D@__crt_stdio_output@@@__crt_stdio_output@@IEAA_NAEAPEAUansi_string@?1??type_case_Z@?$output_processor@DV?$stream_output_adapter@D@__crt_stdio_output@@V?$positional_parameter_base@DV?$stream_output_adapter@D@__crt_stdio_output@@@2@@1@AEAA_NXZ@@Z 0000000180058ef0 f i libucrtd:output.obj
 0001:000580b0       ??$extract_argument_from_va_list@PEAUansi_string@?1??type_case_Z@?$output_processor@DV?$stream_output_adapter@D@__crt_stdio_output@@V?$positional_parameter_base@DV?$stream_output_adapter@D@__crt_stdio_output@@@2@@__crt_stdio_output@@AEAA_NXZ@PEAU1?1??234@AEAA_NXZ@@?$standard_base@DV?$stream_output_adapter@D@__crt_stdio_output@@@__crt_stdio_output@@IEAA_NAEAPEAUansi_string@?1??type_case_Z@?$output_processor@DV?$stream_output_adapter@D@__crt_stdio_output@@V?$positional_parameter_base@DV?$stream_output_adapter@D@__crt_stdio_output@@@2@@1@AEAA_NXZ@@Z 00000001800590b0 f i libucrtd:output.obj
 0001:000580e0       ??$extract_argument_from_va_list@PEAUansi_string@?1??type_case_Z@?$output_processor@DV?$stream_output_adapter@D@__crt_stdio_output@@V?$standard_base@DV?$stream_output_adapter@D@__crt_stdio_output@@@2@@__crt_stdio_output@@AEAA_NXZ@PEAU1?1??234@AEAA_NXZ@@?$standard_base@DV?$stream_output_adapter@D@__crt_stdio_output@@@__crt_stdio_output@@IEAA_NAEAPEAUansi_string@?1??type_case_Z@?$output_processor@DV?$stream_output_adapter@D@__crt_stdio_output@@V?$standard_base@DV?$stream_output_adapter@D@__crt_stdio_output@@@2@@1@AEAA_NXZ@@Z 00000001800590e0 f i libucrtd:output.obj
 0001:00058110       ??$extract_argument_from_va_list@PEAUansi_string@?1??type_case_Z@?$output_processor@DV?$string_output_adapter@D@__crt_stdio_output@@V?$format_validation_base@DV?$string_output_adapter@D@__crt_stdio_output@@@2@@__crt_stdio_output@@AEAA_NXZ@PEAU1?1??234@AEAA_NXZ@@?$standard_base@DV?$string_output_adapter@D@__crt_stdio_output@@@__crt_stdio_output@@IEAA_NAEAPEAUansi_string@?1??type_case_Z@?$output_processor@DV?$string_output_adapter@D@__crt_stdio_output@@V?$format_validation_base@DV?$string_output_adapter@D@__crt_stdio_output@@@2@@1@AEAA_NXZ@@Z 0000000180059110 f i libucrtd:output.obj
 0001:00058140       ??$extract_argument_from_va_list@PEAUansi_string@?1??type_case_Z@?$output_processor@DV?$string_output_adapter@D@__crt_stdio_output@@V?$positional_parameter_base@DV?$string_output_adapter@D@__crt_stdio_output@@@2@@__crt_stdio_output@@AEAA_NXZ@PEAU1?1??234@AEAA_NXZ@@?$positional_parameter_base@DV?$string_output_adapter@D@__crt_stdio_output@@@__crt_stdio_output@@IEAA_NAEAPEAUansi_string@?1??type_case_Z@?$output_processor@DV?$string_output_adapter@D@__crt_stdio_output@@V?$positional_parameter_base@DV?$string_output_adapter@D@__crt_stdio_output@@@2@@1@AEAA_NXZ@@Z 0000000180059140 f i libucrtd:output.obj
 0001:00058300       ??$extract_argument_from_va_list@PEAUansi_string@?1??type_case_Z@?$output_processor@DV?$string_output_adapter@D@__crt_stdio_output@@V?$positional_parameter_base@DV?$string_output_adapter@D@__crt_stdio_output@@@2@@__crt_stdio_output@@AEAA_NXZ@PEAU1?1??234@AEAA_NXZ@@?$standard_base@DV?$string_output_adapter@D@__crt_stdio_output@@@__crt_stdio_output@@IEAA_NAEAPEAUansi_string@?1??type_case_Z@?$output_processor@DV?$string_output_adapter@D@__crt_stdio_output@@V?$positional_parameter_base@DV?$string_output_adapter@D@__crt_stdio_output@@@2@@1@AEAA_NXZ@@Z 0000000180059300 f i libucrtd:output.obj
 0001:00058330       ??$extract_argument_from_va_list@PEAUansi_string@?1??type_case_Z@?$output_processor@DV?$string_output_adapter@D@__crt_stdio_output@@V?$standard_base@DV?$string_output_adapter@D@__crt_stdio_output@@@2@@__crt_stdio_output@@AEAA_NXZ@PEAU1?1??234@AEAA_NXZ@@?$standard_base@DV?$string_output_adapter@D@__crt_stdio_output@@@__crt_stdio_output@@IEAA_NAEAPEAUansi_string@?1??type_case_Z@?$output_processor@DV?$string_output_adapter@D@__crt_stdio_output@@V?$standard_base@DV?$string_output_adapter@D@__crt_stdio_output@@@2@@1@AEAA_NXZ@@Z 0000000180059330 f i libucrtd:output.obj
 0001:00058360       ??$extract_argument_from_va_list@PEAUansi_string@?1??type_case_Z@?$output_processor@_WV?$stream_output_adapter@_W@__crt_stdio_output@@V?$format_validation_base@_WV?$stream_output_adapter@_W@__crt_stdio_output@@@2@@__crt_stdio_output@@AEAA_NXZ@PEAU1?1??234@AEAA_NXZ@@?$standard_base@_WV?$stream_output_adapter@_W@__crt_stdio_output@@@__crt_stdio_output@@IEAA_NAEAPEAUansi_string@?1??type_case_Z@?$output_processor@_WV?$stream_output_adapter@_W@__crt_stdio_output@@V?$format_validation_base@_WV?$stream_output_adapter@_W@__crt_stdio_output@@@2@@1@AEAA_NXZ@@Z 0000000180059360 f i libucrtd:output.obj
 0001:00058390       ??$extract_argument_from_va_list@PEAUansi_string@?1??type_case_Z@?$output_processor@_WV?$stream_output_adapter@_W@__crt_stdio_output@@V?$positional_parameter_base@_WV?$stream_output_adapter@_W@__crt_stdio_output@@@2@@__crt_stdio_output@@AEAA_NXZ@PEAU1?1??234@AEAA_NXZ@@?$positional_parameter_base@_WV?$stream_output_adapter@_W@__crt_stdio_output@@@__crt_stdio_output@@IEAA_NAEAPEAUansi_string@?1??type_case_Z@?$output_processor@_WV?$stream_output_adapter@_W@__crt_stdio_output@@V?$positional_parameter_base@_WV?$stream_output_adapter@_W@__crt_stdio_output@@@2@@1@AEAA_NXZ@@Z 0000000180059390 f i libucrtd:output.obj
 0001:00058550       ??$extract_argument_from_va_list@PEAUansi_string@?1??type_case_Z@?$output_processor@_WV?$stream_output_adapter@_W@__crt_stdio_output@@V?$positional_parameter_base@_WV?$stream_output_adapter@_W@__crt_stdio_output@@@2@@__crt_stdio_output@@AEAA_NXZ@PEAU1?1??234@AEAA_NXZ@@?$standard_base@_WV?$stream_output_adapter@_W@__crt_stdio_output@@@__crt_stdio_output@@IEAA_NAEAPEAUansi_string@?1??type_case_Z@?$output_processor@_WV?$stream_output_adapter@_W@__crt_stdio_output@@V?$positional_parameter_base@_WV?$stream_output_adapter@_W@__crt_stdio_output@@@2@@1@AEAA_NXZ@@Z 0000000180059550 f i libucrtd:output.obj
 0001:00058580       ??$extract_argument_from_va_list@PEAUansi_string@?1??type_case_Z@?$output_processor@_WV?$stream_output_adapter@_W@__crt_stdio_output@@V?$standard_base@_WV?$stream_output_adapter@_W@__crt_stdio_output@@@2@@__crt_stdio_output@@AEAA_NXZ@PEAU1?1??234@AEAA_NXZ@@?$standard_base@_WV?$stream_output_adapter@_W@__crt_stdio_output@@@__crt_stdio_output@@IEAA_NAEAPEAUansi_string@?1??type_case_Z@?$output_processor@_WV?$stream_output_adapter@_W@__crt_stdio_output@@V?$standard_base@_WV?$stream_output_adapter@_W@__crt_stdio_output@@@2@@1@AEAA_NXZ@@Z 0000000180059580 f i libucrtd:output.obj
 0001:000585b0       ??$extract_argument_from_va_list@PEAUansi_string@?1??type_case_Z@?$output_processor@_WV?$string_output_adapter@_W@__crt_stdio_output@@V?$format_validation_base@_WV?$string_output_adapter@_W@__crt_stdio_output@@@2@@__crt_stdio_output@@AEAA_NXZ@PEAU1?1??234@AEAA_NXZ@@?$standard_base@_WV?$string_output_adapter@_W@__crt_stdio_output@@@__crt_stdio_output@@IEAA_NAEAPEAUansi_string@?1??type_case_Z@?$output_processor@_WV?$string_output_adapter@_W@__crt_stdio_output@@V?$format_validation_base@_WV?$string_output_adapter@_W@__crt_stdio_output@@@2@@1@AEAA_NXZ@@Z 00000001800595b0 f i libucrtd:output.obj
 0001:000585e0       ??$extract_argument_from_va_list@PEAUansi_string@?1??type_case_Z@?$output_processor@_WV?$string_output_adapter@_W@__crt_stdio_output@@V?$positional_parameter_base@_WV?$string_output_adapter@_W@__crt_stdio_output@@@2@@__crt_stdio_output@@AEAA_NXZ@PEAU1?1??234@AEAA_NXZ@@?$positional_parameter_base@_WV?$string_output_adapter@_W@__crt_stdio_output@@@__crt_stdio_output@@IEAA_NAEAPEAUansi_string@?1??type_case_Z@?$output_processor@_WV?$string_output_adapter@_W@__crt_stdio_output@@V?$positional_parameter_base@_WV?$string_output_adapter@_W@__crt_stdio_output@@@2@@1@AEAA_NXZ@@Z 00000001800595e0 f i libucrtd:output.obj
 0001:000587a0       ??$extract_argument_from_va_list@PEAUansi_string@?1??type_case_Z@?$output_processor@_WV?$string_output_adapter@_W@__crt_stdio_output@@V?$positional_parameter_base@_WV?$string_output_adapter@_W@__crt_stdio_output@@@2@@__crt_stdio_output@@AEAA_NXZ@PEAU1?1??234@AEAA_NXZ@@?$standard_base@_WV?$string_output_adapter@_W@__crt_stdio_output@@@__crt_stdio_output@@IEAA_NAEAPEAUansi_string@?1??type_case_Z@?$output_processor@_WV?$string_output_adapter@_W@__crt_stdio_output@@V?$positional_parameter_base@_WV?$string_output_adapter@_W@__crt_stdio_output@@@2@@1@AEAA_NXZ@@Z 00000001800597a0 f i libucrtd:output.obj
 0001:000587d0       ??$extract_argument_from_va_list@PEAUansi_string@?1??type_case_Z@?$output_processor@_WV?$string_output_adapter@_W@__crt_stdio_output@@V?$standard_base@_WV?$string_output_adapter@_W@__crt_stdio_output@@@2@@__crt_stdio_output@@AEAA_NXZ@PEAU1?1??234@AEAA_NXZ@@?$standard_base@_WV?$string_output_adapter@_W@__crt_stdio_output@@@__crt_stdio_output@@IEAA_NAEAPEAUansi_string@?1??type_case_Z@?$output_processor@_WV?$string_output_adapter@_W@__crt_stdio_output@@V?$standard_base@_WV?$string_output_adapter@_W@__crt_stdio_output@@@2@@1@AEAA_NXZ@@Z 00000001800597d0 f i libucrtd:output.obj
 0001:00058800       ??$extract_argument_from_va_list@PEAXPEAX@?$positional_parameter_base@DV?$stream_output_adapter@D@__crt_stdio_output@@@__crt_stdio_output@@IEAA_NAEAPEAX@Z 0000000180059800 f i libucrtd:output.obj
 0001:000589c0       ??$extract_argument_from_va_list@PEAXPEAX@?$positional_parameter_base@DV?$string_output_adapter@D@__crt_stdio_output@@@__crt_stdio_output@@IEAA_NAEAPEAX@Z 00000001800599c0 f i libucrtd:output.obj
 0001:00058b80       ??$extract_argument_from_va_list@PEAXPEAX@?$positional_parameter_base@_WV?$stream_output_adapter@_W@__crt_stdio_output@@@__crt_stdio_output@@IEAA_NAEAPEAX@Z 0000000180059b80 f i libucrtd:output.obj
 0001:00058d40       ??$extract_argument_from_va_list@PEAXPEAX@?$positional_parameter_base@_WV?$string_output_adapter@_W@__crt_stdio_output@@@__crt_stdio_output@@IEAA_NAEAPEAX@Z 0000000180059d40 f i libucrtd:output.obj
 0001:00058f00       ??$extract_argument_from_va_list@PEAXPEAX@?$standard_base@DV?$stream_output_adapter@D@__crt_stdio_output@@@__crt_stdio_output@@IEAA_NAEAPEAX@Z 0000000180059f00 f i libucrtd:output.obj
 0001:00058f30       ??$extract_argument_from_va_list@PEAXPEAX@?$standard_base@DV?$string_output_adapter@D@__crt_stdio_output@@@__crt_stdio_output@@IEAA_NAEAPEAX@Z 0000000180059f30 f i libucrtd:output.obj
 0001:00058f60       ??$extract_argument_from_va_list@PEAXPEAX@?$standard_base@_WV?$stream_output_adapter@_W@__crt_stdio_output@@@__crt_stdio_output@@IEAA_NAEAPEAX@Z 0000000180059f60 f i libucrtd:output.obj
 0001:00058f90       ??$extract_argument_from_va_list@PEAXPEAX@?$standard_base@_WV?$string_output_adapter@_W@__crt_stdio_output@@@__crt_stdio_output@@IEAA_NAEAPEAX@Z 0000000180059f90 f i libucrtd:output.obj
 0001:00058fc0       ??$extract_argument_from_va_list@U_CRT_DOUBLE@@U1@@?$positional_parameter_base@DV?$stream_output_adapter@D@__crt_stdio_output@@@__crt_stdio_output@@IEAA_NAEAU_CRT_DOUBLE@@@Z 0000000180059fc0 f i libucrtd:output.obj
 0001:000591e0       ??$extract_argument_from_va_list@U_CRT_DOUBLE@@U1@@?$positional_parameter_base@DV?$string_output_adapter@D@__crt_stdio_output@@@__crt_stdio_output@@IEAA_NAEAU_CRT_DOUBLE@@@Z 000000018005a1e0 f i libucrtd:output.obj
 0001:00059400       ??$extract_argument_from_va_list@U_CRT_DOUBLE@@U1@@?$positional_parameter_base@_WV?$stream_output_adapter@_W@__crt_stdio_output@@@__crt_stdio_output@@IEAA_NAEAU_CRT_DOUBLE@@@Z 000000018005a400 f i libucrtd:output.obj
 0001:00059620       ??$extract_argument_from_va_list@U_CRT_DOUBLE@@U1@@?$positional_parameter_base@_WV?$string_output_adapter@_W@__crt_stdio_output@@@__crt_stdio_output@@IEAA_NAEAU_CRT_DOUBLE@@@Z 000000018005a620 f i libucrtd:output.obj
 0001:00059840       ??$extract_argument_from_va_list@U_CRT_DOUBLE@@U1@@?$standard_base@DV?$stream_output_adapter@D@__crt_stdio_output@@@__crt_stdio_output@@IEAA_NAEAU_CRT_DOUBLE@@@Z 000000018005a840 f i libucrtd:output.obj
 0001:00059890       ??$extract_argument_from_va_list@U_CRT_DOUBLE@@U1@@?$standard_base@DV?$string_output_adapter@D@__crt_stdio_output@@@__crt_stdio_output@@IEAA_NAEAU_CRT_DOUBLE@@@Z 000000018005a890 f i libucrtd:output.obj
 0001:000598e0       ??$extract_argument_from_va_list@U_CRT_DOUBLE@@U1@@?$standard_base@_WV?$stream_output_adapter@_W@__crt_stdio_output@@@__crt_stdio_output@@IEAA_NAEAU_CRT_DOUBLE@@@Z 000000018005a8e0 f i libucrtd:output.obj
 0001:00059930       ??$extract_argument_from_va_list@U_CRT_DOUBLE@@U1@@?$standard_base@_WV?$string_output_adapter@_W@__crt_stdio_output@@@__crt_stdio_output@@IEAA_NAEAU_CRT_DOUBLE@@@Z 000000018005a930 f i libucrtd:output.obj
 0001:00059980       ??$extract_argument_from_va_list@_J_J@?$positional_parameter_base@DV?$stream_output_adapter@D@__crt_stdio_output@@@__crt_stdio_output@@IEAA_NAEA_J@Z 000000018005a980 f i libucrtd:output.obj
 0001:00059b40       ??$extract_argument_from_va_list@_J_J@?$positional_parameter_base@DV?$string_output_adapter@D@__crt_stdio_output@@@__crt_stdio_output@@IEAA_NAEA_J@Z 000000018005ab40 f i libucrtd:output.obj
 0001:00059d00       ??$extract_argument_from_va_list@_J_J@?$positional_parameter_base@_WV?$stream_output_adapter@_W@__crt_stdio_output@@@__crt_stdio_output@@IEAA_NAEA_J@Z 000000018005ad00 f i libucrtd:output.obj
 0001:00059ec0       ??$extract_argument_from_va_list@_J_J@?$positional_parameter_base@_WV?$string_output_adapter@_W@__crt_stdio_output@@@__crt_stdio_output@@IEAA_NAEA_J@Z 000000018005aec0 f i libucrtd:output.obj
 0001:0005a080       ??$extract_argument_from_va_list@_J_J@?$standard_base@DV?$stream_output_adapter@D@__crt_stdio_output@@@__crt_stdio_output@@IEAA_NAEA_J@Z 000000018005b080 f i libucrtd:output.obj
 0001:0005a0b0       ??$extract_argument_from_va_list@_J_J@?$standard_base@DV?$string_output_adapter@D@__crt_stdio_output@@@__crt_stdio_output@@IEAA_NAEA_J@Z 000000018005b0b0 f i libucrtd:output.obj
 0001:0005a0e0       ??$extract_argument_from_va_list@_J_J@?$standard_base@_WV?$stream_output_adapter@_W@__crt_stdio_output@@@__crt_stdio_output@@IEAA_NAEA_J@Z 000000018005b0e0 f i libucrtd:output.obj
 0001:0005a110       ??$extract_argument_from_va_list@_J_J@?$standard_base@_WV?$string_output_adapter@_W@__crt_stdio_output@@@__crt_stdio_output@@IEAA_NAEA_J@Z 000000018005b110 f i libucrtd:output.obj
 0001:0005a140       ??$extract_argument_from_va_list@_K_J@?$positional_parameter_base@DV?$stream_output_adapter@D@__crt_stdio_output@@@__crt_stdio_output@@IEAA_NAEA_J@Z 000000018005b140 f i libucrtd:output.obj
 0001:0005a300       ??$extract_argument_from_va_list@_K_J@?$positional_parameter_base@DV?$string_output_adapter@D@__crt_stdio_output@@@__crt_stdio_output@@IEAA_NAEA_J@Z 000000018005b300 f i libucrtd:output.obj
 0001:0005a4c0       ??$extract_argument_from_va_list@_K_J@?$positional_parameter_base@_WV?$stream_output_adapter@_W@__crt_stdio_output@@@__crt_stdio_output@@IEAA_NAEA_J@Z 000000018005b4c0 f i libucrtd:output.obj
 0001:0005a680       ??$extract_argument_from_va_list@_K_J@?$positional_parameter_base@_WV?$string_output_adapter@_W@__crt_stdio_output@@@__crt_stdio_output@@IEAA_NAEA_J@Z 000000018005b680 f i libucrtd:output.obj
 0001:0005a840       ??$extract_argument_from_va_list@_K_J@?$standard_base@DV?$stream_output_adapter@D@__crt_stdio_output@@@__crt_stdio_output@@IEAA_NAEA_J@Z 000000018005b840 f i libucrtd:output.obj
 0001:0005a870       ??$extract_argument_from_va_list@_K_J@?$standard_base@DV?$string_output_adapter@D@__crt_stdio_output@@@__crt_stdio_output@@IEAA_NAEA_J@Z 000000018005b870 f i libucrtd:output.obj
 0001:0005a8a0       ??$extract_argument_from_va_list@_K_J@?$standard_base@_WV?$stream_output_adapter@_W@__crt_stdio_output@@@__crt_stdio_output@@IEAA_NAEA_J@Z 000000018005b8a0 f i libucrtd:output.obj
 0001:0005a8d0       ??$extract_argument_from_va_list@_K_J@?$standard_base@_WV?$string_output_adapter@_W@__crt_stdio_output@@@__crt_stdio_output@@IEAA_NAEA_J@Z 000000018005b8d0 f i libucrtd:output.obj
 0001:0005a900       ??$extract_argument_from_va_list@_W_W@?$positional_parameter_base@DV?$stream_output_adapter@D@__crt_stdio_output@@@__crt_stdio_output@@IEAA_NAEA_W@Z 000000018005b900 f i libucrtd:output.obj
 0001:0005aac0       ??$extract_argument_from_va_list@_W_W@?$positional_parameter_base@DV?$string_output_adapter@D@__crt_stdio_output@@@__crt_stdio_output@@IEAA_NAEA_W@Z 000000018005bac0 f i libucrtd:output.obj
 0001:0005ac80       ??$extract_argument_from_va_list@_W_W@?$positional_parameter_base@_WV?$stream_output_adapter@_W@__crt_stdio_output@@@__crt_stdio_output@@IEAA_NAEA_W@Z 000000018005bc80 f i libucrtd:output.obj
 0001:0005ae40       ??$extract_argument_from_va_list@_W_W@?$positional_parameter_base@_WV?$string_output_adapter@_W@__crt_stdio_output@@@__crt_stdio_output@@IEAA_NAEA_W@Z 000000018005be40 f i libucrtd:output.obj
 0001:0005b000       ??$extract_argument_from_va_list@_W_W@?$standard_base@DV?$stream_output_adapter@D@__crt_stdio_output@@@__crt_stdio_output@@IEAA_NAEA_W@Z 000000018005c000 f i libucrtd:output.obj
 0001:0005b030       ??$extract_argument_from_va_list@_W_W@?$standard_base@DV?$string_output_adapter@D@__crt_stdio_output@@@__crt_stdio_output@@IEAA_NAEA_W@Z 000000018005c030 f i libucrtd:output.obj
 0001:0005b060       ??$extract_argument_from_va_list@_W_W@?$standard_base@_WV?$stream_output_adapter@_W@__crt_stdio_output@@@__crt_stdio_output@@IEAA_NAEA_W@Z 000000018005c060 f i libucrtd:output.obj
 0001:0005b090       ??$extract_argument_from_va_list@_W_W@?$standard_base@_WV?$string_output_adapter@_W@__crt_stdio_output@@@__crt_stdio_output@@IEAA_NAEA_W@Z 000000018005c090 f i libucrtd:output.obj
 0001:0005b0c0       ??$get_parameter_type@D@?$positional_parameter_base@DV?$stream_output_adapter@D@__crt_stdio_output@@@__crt_stdio_output@@CA?AW4parameter_type@01@PEAD@Z 000000018005c0c0 f i libucrtd:output.obj
 0001:0005b0d0       ??$get_parameter_type@D@?$positional_parameter_base@DV?$string_output_adapter@D@__crt_stdio_output@@@__crt_stdio_output@@CA?AW4parameter_type@01@PEAD@Z 000000018005c0d0 f i libucrtd:output.obj
 0001:0005b0e0       ??$get_parameter_type@D@?$positional_parameter_base@_WV?$stream_output_adapter@_W@__crt_stdio_output@@@__crt_stdio_output@@CA?AW4parameter_type@01@PEAD@Z 000000018005c0e0 f i libucrtd:output.obj
 0001:0005b0f0       ??$get_parameter_type@D@?$positional_parameter_base@_WV?$string_output_adapter@_W@__crt_stdio_output@@@__crt_stdio_output@@CA?AW4parameter_type@01@PEAD@Z 000000018005c0f0 f i libucrtd:output.obj
 0001:0005b100       ??$get_parameter_type@Uansi_string@?1??type_case_Z@?$output_processor@DV?$stream_output_adapter@D@__crt_stdio_output@@V?$positional_parameter_base@DV?$stream_output_adapter@D@__crt_stdio_output@@@2@@__crt_stdio_output@@AEAA_NXZ@@?$positional_parameter_base@DV?$stream_output_adapter@D@__crt_stdio_output@@@__crt_stdio_output@@CA?AW4parameter_type@01@PEAUansi_string@?1??type_case_Z@?$output_processor@DV?$stream_output_adapter@D@__crt_stdio_output@@V?$positional_parameter_base@DV?$stream_output_adapter@D@__crt_stdio_output@@@2@@1@AEAA_NXZ@@Z 000000018005c100 f i libucrtd:output.obj
 0001:0005b110       ??$get_parameter_type@Uansi_string@?1??type_case_Z@?$output_processor@DV?$string_output_adapter@D@__crt_stdio_output@@V?$positional_parameter_base@DV?$string_output_adapter@D@__crt_stdio_output@@@2@@__crt_stdio_output@@AEAA_NXZ@@?$positional_parameter_base@DV?$string_output_adapter@D@__crt_stdio_output@@@__crt_stdio_output@@CA?AW4parameter_type@01@PEAUansi_string@?1??type_case_Z@?$output_processor@DV?$string_output_adapter@D@__crt_stdio_output@@V?$positional_parameter_base@DV?$string_output_adapter@D@__crt_stdio_output@@@2@@1@AEAA_NXZ@@Z 000000018005c110 f i libucrtd:output.obj
 0001:0005b120       ??$get_parameter_type@Uansi_string@?1??type_case_Z@?$output_processor@_WV?$stream_output_adapter@_W@__crt_stdio_output@@V?$positional_parameter_base@_WV?$stream_output_adapter@_W@__crt_stdio_output@@@2@@__crt_stdio_output@@AEAA_NXZ@@?$positional_parameter_base@_WV?$stream_output_adapter@_W@__crt_stdio_output@@@__crt_stdio_output@@CA?AW4parameter_type@01@PEAUansi_string@?1??type_case_Z@?$output_processor@_WV?$stream_output_adapter@_W@__crt_stdio_output@@V?$positional_parameter_base@_WV?$stream_output_adapter@_W@__crt_stdio_output@@@2@@1@AEAA_NXZ@@Z 000000018005c120 f i libucrtd:output.obj
 0001:0005b130       ??$get_parameter_type@Uansi_string@?1??type_case_Z@?$output_processor@_WV?$string_output_adapter@_W@__crt_stdio_output@@V?$positional_parameter_base@_WV?$string_output_adapter@_W@__crt_stdio_output@@@2@@__crt_stdio_output@@AEAA_NXZ@@?$positional_parameter_base@_WV?$string_output_adapter@_W@__crt_stdio_output@@@__crt_stdio_output@@CA?AW4parameter_type@01@PEAUansi_string@?1??type_case_Z@?$output_processor@_WV?$string_output_adapter@_W@__crt_stdio_output@@V?$positional_parameter_base@_WV?$string_output_adapter@_W@__crt_stdio_output@@@2@@1@AEAA_NXZ@@Z 000000018005c130 f i libucrtd:output.obj
 0001:0005b140       ??$get_parameter_type@X@?$positional_parameter_base@DV?$stream_output_adapter@D@__crt_stdio_output@@@__crt_stdio_output@@CA?AW4parameter_type@01@PEAX@Z 000000018005c140 f i libucrtd:output.obj
 0001:0005b150       ??$get_parameter_type@X@?$positional_parameter_base@DV?$string_output_adapter@D@__crt_stdio_output@@@__crt_stdio_output@@CA?AW4parameter_type@01@PEAX@Z 000000018005c150 f i libucrtd:output.obj
 0001:0005b160       ??$get_parameter_type@X@?$positional_parameter_base@_WV?$stream_output_adapter@_W@__crt_stdio_output@@@__crt_stdio_output@@CA?AW4parameter_type@01@PEAX@Z 000000018005c160 f i libucrtd:output.obj
 0001:0005b170       ??$get_parameter_type@X@?$positional_parameter_base@_WV?$string_output_adapter@_W@__crt_stdio_output@@@__crt_stdio_output@@CA?AW4parameter_type@01@PEAX@Z 000000018005c170 f i libucrtd:output.obj
 0001:0005b180       ??$is_character_specifier@D@?$positional_parameter_base@DV?$stream_output_adapter@D@__crt_stdio_output@@@__crt_stdio_output@@CA_ND@Z 000000018005c180 f i libucrtd:output.obj
 0001:0005b1c0       ??$is_character_specifier@D@?$positional_parameter_base@DV?$string_output_adapter@D@__crt_stdio_output@@@__crt_stdio_output@@CA_ND@Z 000000018005c1c0 f i libucrtd:output.obj
 0001:0005b200       ??$is_character_specifier@_W@?$positional_parameter_base@_WV?$stream_output_adapter@_W@__crt_stdio_output@@@__crt_stdio_output@@CA_N_W@Z 000000018005c200 f i libucrtd:output.obj
 0001:0005b240       ??$is_character_specifier@_W@?$positional_parameter_base@_WV?$string_output_adapter@_W@__crt_stdio_output@@@__crt_stdio_output@@CA_N_W@Z 000000018005c240 f i libucrtd:output.obj
 0001:0005b280       ??$is_integral_specifier@D@?$positional_parameter_base@DV?$stream_output_adapter@D@__crt_stdio_output@@@__crt_stdio_output@@CA_ND@Z 000000018005c280 f i libucrtd:output.obj
 0001:0005b2f0       ??$is_integral_specifier@D@?$positional_parameter_base@DV?$string_output_adapter@D@__crt_stdio_output@@@__crt_stdio_output@@CA_ND@Z 000000018005c2f0 f i libucrtd:output.obj
 0001:0005b360       ??$is_integral_specifier@_W@?$positional_parameter_base@_WV?$stream_output_adapter@_W@__crt_stdio_output@@@__crt_stdio_output@@CA_N_W@Z 000000018005c360 f i libucrtd:output.obj
 0001:0005b3d0       ??$is_integral_specifier@_W@?$positional_parameter_base@_WV?$string_output_adapter@_W@__crt_stdio_output@@@__crt_stdio_output@@CA_N_W@Z 000000018005c3d0 f i libucrtd:output.obj
 0001:0005b440       ??$is_overflow_condition@K@__crt_strtox@@YA_NIK@Z 000000018005c440 f i libucrtd:output.obj
 0001:0005b4b0       ??$is_pointer_specifier@D@?$positional_parameter_base@DV?$stream_output_adapter@D@__crt_stdio_output@@@__crt_stdio_output@@CA_ND@Z 000000018005c4b0 f i libucrtd:output.obj
 0001:0005b4e0       ??$is_pointer_specifier@D@?$positional_parameter_base@DV?$string_output_adapter@D@__crt_stdio_output@@@__crt_stdio_output@@CA_ND@Z 000000018005c4e0 f i libucrtd:output.obj
 0001:0005b510       ??$is_pointer_specifier@_W@?$positional_parameter_base@_WV?$stream_output_adapter@_W@__crt_stdio_output@@@__crt_stdio_output@@CA_N_W@Z 000000018005c510 f i libucrtd:output.obj
 0001:0005b540       ??$is_pointer_specifier@_W@?$positional_parameter_base@_WV?$string_output_adapter@_W@__crt_stdio_output@@@__crt_stdio_output@@CA_N_W@Z 000000018005c540 f i libucrtd:output.obj
 0001:0005b570       ??$is_string_specifier@D@?$positional_parameter_base@DV?$stream_output_adapter@D@__crt_stdio_output@@@__crt_stdio_output@@CA_ND@Z 000000018005c570 f i libucrtd:output.obj
 0001:0005b5b0       ??$is_string_specifier@D@?$positional_parameter_base@DV?$string_output_adapter@D@__crt_stdio_output@@@__crt_stdio_output@@CA_ND@Z 000000018005c5b0 f i libucrtd:output.obj
 0001:0005b5f0       ??$is_string_specifier@_W@?$positional_parameter_base@_WV?$stream_output_adapter@_W@__crt_stdio_output@@@__crt_stdio_output@@CA_N_W@Z 000000018005c5f0 f i libucrtd:output.obj
 0001:0005b630       ??$is_string_specifier@_W@?$positional_parameter_base@_WV?$string_output_adapter@_W@__crt_stdio_output@@@__crt_stdio_output@@CA_N_W@Z 000000018005c630 f i libucrtd:output.obj
 0001:0005b670       ??$is_wide_character_specifier@D@__crt_stdio_output@@YA_N_KDW4length_modifier@0@@Z 000000018005c670 f i libucrtd:output.obj
 0001:0005b710       ??$is_wide_character_specifier@_W@__crt_stdio_output@@YA_N_K_WW4length_modifier@0@@Z 000000018005c710 f i libucrtd:output.obj
 0001:0005b7e0       ??$make_c_string_character_source@DPEAPEAD@__crt_strtox@@YA?AV?$c_string_character_source@D@0@QEBDQEAPEAD@Z 000000018005c7e0 f i libucrtd:output.obj
 0001:0005b820       ??$make_c_string_character_source@_WPEAPEA_W@__crt_strtox@@YA?AV?$c_string_character_source@_W@0@QEB_WQEAPEA_W@Z 000000018005c820 f i libucrtd:output.obj
 0001:0005b860       ??$parse_integer@KV?$c_string_character_source@D@__crt_strtox@@$0A@@__crt_strtox@@YAKAEAV__crt_cached_ptd_host@@V?$c_string_character_source@D@0@H_N@Z 000000018005c860 f i libucrtd:output.obj
 0001:0005bce0       ??$parse_integer@KV?$c_string_character_source@_W@__crt_strtox@@$0A@@__crt_strtox@@YAKAEAV__crt_cached_ptd_host@@V?$c_string_character_source@_W@0@H_N@Z 000000018005cce0 f i libucrtd:output.obj
 0001:0005c160       ??$peek_va_arg@C@__crt_stdio_output@@YACPEAD@Z 000000018005d160 f i libucrtd:output.obj
 0001:0005c1c0       ??$peek_va_arg@E@__crt_stdio_output@@YAEPEAD@Z 000000018005d1c0 f i libucrtd:output.obj
 0001:0005c220       ??$peek_va_arg@F@__crt_stdio_output@@YAFPEAD@Z 000000018005d220 f i libucrtd:output.obj
 0001:0005c280       ??$peek_va_arg@G@__crt_stdio_output@@YAGPEAD@Z 000000018005d280 f i libucrtd:output.obj
 0001:0005c2e0       ??$peek_va_arg@H@__crt_stdio_output@@YAHPEAD@Z 000000018005d2e0 f i libucrtd:output.obj
 0001:0005c330       ??$peek_va_arg@I@__crt_stdio_output@@YAIPEAD@Z 000000018005d330 f i libucrtd:output.obj
 0001:0005c380       ??$peek_va_arg@PEAD@__crt_stdio_output@@YAPEADPEAD@Z 000000018005d380 f i libucrtd:output.obj
 0001:0005c3e0       ??$peek_va_arg@PEAUansi_string@?1??type_case_Z@?$output_processor@DV?$stream_output_adapter@D@__crt_stdio_output@@V?$positional_parameter_base@DV?$stream_output_adapter@D@__crt_stdio_output@@@2@@__crt_stdio_output@@AEAA_NXZ@@__crt_stdio_output@@YAPEAUansi_string@?1??type_case_Z@?$output_processor@DV?$stream_output_adapter@D@__crt_stdio_output@@V?$positional_parameter_base@DV?$stream_output_adapter@D@__crt_stdio_output@@@2@@0@AEAA_NXZ@PEAD@Z 000000018005d3e0 f i libucrtd:output.obj
 0001:0005c440       ??$peek_va_arg@PEAUansi_string@?1??type_case_Z@?$output_processor@DV?$string_output_adapter@D@__crt_stdio_output@@V?$positional_parameter_base@DV?$string_output_adapter@D@__crt_stdio_output@@@2@@__crt_stdio_output@@AEAA_NXZ@@__crt_stdio_output@@YAPEAUansi_string@?1??type_case_Z@?$output_processor@DV?$string_output_adapter@D@__crt_stdio_output@@V?$positional_parameter_base@DV?$string_output_adapter@D@__crt_stdio_output@@@2@@0@AEAA_NXZ@PEAD@Z 000000018005d440 f i libucrtd:output.obj
 0001:0005c4a0       ??$peek_va_arg@PEAUansi_string@?1??type_case_Z@?$output_processor@_WV?$stream_output_adapter@_W@__crt_stdio_output@@V?$positional_parameter_base@_WV?$stream_output_adapter@_W@__crt_stdio_output@@@2@@__crt_stdio_output@@AEAA_NXZ@@__crt_stdio_output@@YAPEAUansi_string@?1??type_case_Z@?$output_processor@_WV?$stream_output_adapter@_W@__crt_stdio_output@@V?$positional_parameter_base@_WV?$stream_output_adapter@_W@__crt_stdio_output@@@2@@0@AEAA_NXZ@PEAD@Z 000000018005d4a0 f i libucrtd:output.obj
 0001:0005c500       ??$peek_va_arg@PEAUansi_string@?1??type_case_Z@?$output_processor@_WV?$string_output_adapter@_W@__crt_stdio_output@@V?$positional_parameter_base@_WV?$string_output_adapter@_W@__crt_stdio_output@@@2@@__crt_stdio_output@@AEAA_NXZ@@__crt_stdio_output@@YAPEAUansi_string@?1??type_case_Z@?$output_processor@_WV?$string_output_adapter@_W@__crt_stdio_output@@V?$positional_parameter_base@_WV?$string_output_adapter@_W@__crt_stdio_output@@@2@@0@AEAA_NXZ@PEAD@Z 000000018005d500 f i libucrtd:output.obj
 0001:0005c560       ??$peek_va_arg@PEAX@__crt_stdio_output@@YAPEAXPEAD@Z 000000018005d560 f i libucrtd:output.obj
 0001:0005c5c0       ??$peek_va_arg@U_CRT_DOUBLE@@@__crt_stdio_output@@YA?AU_CRT_DOUBLE@@PEAD@Z 000000018005d5c0 f i libucrtd:output.obj
 0001:0005c620       ??$peek_va_arg@_J@__crt_stdio_output@@YA_JPEAD@Z 000000018005d620 f i libucrtd:output.obj
 0001:0005c680       ??$peek_va_arg@_K@__crt_stdio_output@@YA_KPEAD@Z 000000018005d680 f i libucrtd:output.obj
 0001:0005c6e0       ??$peek_va_arg@_W@__crt_stdio_output@@YA_WPEAD@Z 000000018005d6e0 f i libucrtd:output.obj
 0001:0005c740       ??$puttc_nolock_internal@AEBDPEAU_iobuf@@AEAV__crt_cached_ptd_host@@@?$__crt_char_traits@D@@SAHAEBD$$QEAPEAU_iobuf@@AEAV__crt_cached_ptd_host@@@Z 000000018005d740 f i libucrtd:output.obj
 0001:0005c780       ??$puttc_nolock_internal@AEB_WPEAU_iobuf@@AEAV__crt_cached_ptd_host@@@?$__crt_char_traits@_W@@SAGAEB_W$$QEAPEAU_iobuf@@AEAV__crt_cached_ptd_host@@@Z 000000018005d780 f i libucrtd:output.obj
 0001:0005c7c0       ??$read_va_arg@C@__crt_stdio_output@@YACAEAPEAD@Z 000000018005d7c0 f i libucrtd:output.obj
 0001:0005c830       ??$read_va_arg@E@__crt_stdio_output@@YAEAEAPEAD@Z 000000018005d830 f i libucrtd:output.obj
 0001:0005c8a0       ??$read_va_arg@F@__crt_stdio_output@@YAFAEAPEAD@Z 000000018005d8a0 f i libucrtd:output.obj
 0001:0005c910       ??$read_va_arg@G@__crt_stdio_output@@YAGAEAPEAD@Z 000000018005d910 f i libucrtd:output.obj
 0001:0005c980       ??$read_va_arg@H@__crt_stdio_output@@YAHAEAPEAD@Z 000000018005d980 f i libucrtd:output.obj
 0001:0005c9e0       ??$read_va_arg@I@__crt_stdio_output@@YAIAEAPEAD@Z 000000018005d9e0 f i libucrtd:output.obj
 0001:0005ca40       ??$read_va_arg@PEAD@__crt_stdio_output@@YAPEADAEAPEAD@Z 000000018005da40 f i libucrtd:output.obj
 0001:0005cab0       ??$read_va_arg@PEAUansi_string@?1??type_case_Z@?$output_processor@DV?$stream_output_adapter@D@__crt_stdio_output@@V?$format_validation_base@DV?$stream_output_adapter@D@__crt_stdio_output@@@2@@__crt_stdio_output@@AEAA_NXZ@@__crt_stdio_output@@YAPEAUansi_string@?1??type_case_Z@?$output_processor@DV?$stream_output_adapter@D@__crt_stdio_output@@V?$format_validation_base@DV?$stream_output_adapter@D@__crt_stdio_output@@@2@@0@AEAA_NXZ@AEAPEAD@Z 000000018005dab0 f i libucrtd:output.obj
 0001:0005cb20       ??$read_va_arg@PEAUansi_string@?1??type_case_Z@?$output_processor@DV?$stream_output_adapter@D@__crt_stdio_output@@V?$positional_parameter_base@DV?$stream_output_adapter@D@__crt_stdio_output@@@2@@__crt_stdio_output@@AEAA_NXZ@@__crt_stdio_output@@YAPEAUansi_string@?1??type_case_Z@?$output_processor@DV?$stream_output_adapter@D@__crt_stdio_output@@V?$positional_parameter_base@DV?$stream_output_adapter@D@__crt_stdio_output@@@2@@0@AEAA_NXZ@AEAPEAD@Z 000000018005db20 f i libucrtd:output.obj
 0001:0005cb90       ??$read_va_arg@PEAUansi_string@?1??type_case_Z@?$output_processor@DV?$stream_output_adapter@D@__crt_stdio_output@@V?$standard_base@DV?$stream_output_adapter@D@__crt_stdio_output@@@2@@__crt_stdio_output@@AEAA_NXZ@@__crt_stdio_output@@YAPEAUansi_string@?1??type_case_Z@?$output_processor@DV?$stream_output_adapter@D@__crt_stdio_output@@V?$standard_base@DV?$stream_output_adapter@D@__crt_stdio_output@@@2@@0@AEAA_NXZ@AEAPEAD@Z 000000018005db90 f i libucrtd:output.obj
 0001:0005cc00       ??$read_va_arg@PEAUansi_string@?1??type_case_Z@?$output_processor@DV?$string_output_adapter@D@__crt_stdio_output@@V?$format_validation_base@DV?$string_output_adapter@D@__crt_stdio_output@@@2@@__crt_stdio_output@@AEAA_NXZ@@__crt_stdio_output@@YAPEAUansi_string@?1??type_case_Z@?$output_processor@DV?$string_output_adapter@D@__crt_stdio_output@@V?$format_validation_base@DV?$string_output_adapter@D@__crt_stdio_output@@@2@@0@AEAA_NXZ@AEAPEAD@Z 000000018005dc00 f i libucrtd:output.obj
 0001:0005cc70       ??$read_va_arg@PEAUansi_string@?1??type_case_Z@?$output_processor@DV?$string_output_adapter@D@__crt_stdio_output@@V?$positional_parameter_base@DV?$string_output_adapter@D@__crt_stdio_output@@@2@@__crt_stdio_output@@AEAA_NXZ@@__crt_stdio_output@@YAPEAUansi_string@?1??type_case_Z@?$output_processor@DV?$string_output_adapter@D@__crt_stdio_output@@V?$positional_parameter_base@DV?$string_output_adapter@D@__crt_stdio_output@@@2@@0@AEAA_NXZ@AEAPEAD@Z 000000018005dc70 f i libucrtd:output.obj
 0001:0005cce0       ??$read_va_arg@PEAUansi_string@?1??type_case_Z@?$output_processor@DV?$string_output_adapter@D@__crt_stdio_output@@V?$standard_base@DV?$string_output_adapter@D@__crt_stdio_output@@@2@@__crt_stdio_output@@AEAA_NXZ@@__crt_stdio_output@@YAPEAUansi_string@?1??type_case_Z@?$output_processor@DV?$string_output_adapter@D@__crt_stdio_output@@V?$standard_base@DV?$string_output_adapter@D@__crt_stdio_output@@@2@@0@AEAA_NXZ@AEAPEAD@Z 000000018005dce0 f i libucrtd:output.obj
 0001:0005cd50       ??$read_va_arg@PEAUansi_string@?1??type_case_Z@?$output_processor@_WV?$stream_output_adapter@_W@__crt_stdio_output@@V?$format_validation_base@_WV?$stream_output_adapter@_W@__crt_stdio_output@@@2@@__crt_stdio_output@@AEAA_NXZ@@__crt_stdio_output@@YAPEAUansi_string@?1??type_case_Z@?$output_processor@_WV?$stream_output_adapter@_W@__crt_stdio_output@@V?$format_validation_base@_WV?$stream_output_adapter@_W@__crt_stdio_output@@@2@@0@AEAA_NXZ@AEAPEAD@Z 000000018005dd50 f i libucrtd:output.obj
 0001:0005cdc0       ??$read_va_arg@PEAUansi_string@?1??type_case_Z@?$output_processor@_WV?$stream_output_adapter@_W@__crt_stdio_output@@V?$positional_parameter_base@_WV?$stream_output_adapter@_W@__crt_stdio_output@@@2@@__crt_stdio_output@@AEAA_NXZ@@__crt_stdio_output@@YAPEAUansi_string@?1??type_case_Z@?$output_processor@_WV?$stream_output_adapter@_W@__crt_stdio_output@@V?$positional_parameter_base@_WV?$stream_output_adapter@_W@__crt_stdio_output@@@2@@0@AEAA_NXZ@AEAPEAD@Z 000000018005ddc0 f i libucrtd:output.obj
 0001:0005ce30       ??$read_va_arg@PEAUansi_string@?1??type_case_Z@?$output_processor@_WV?$stream_output_adapter@_W@__crt_stdio_output@@V?$standard_base@_WV?$stream_output_adapter@_W@__crt_stdio_output@@@2@@__crt_stdio_output@@AEAA_NXZ@@__crt_stdio_output@@YAPEAUansi_string@?1??type_case_Z@?$output_processor@_WV?$stream_output_adapter@_W@__crt_stdio_output@@V?$standard_base@_WV?$stream_output_adapter@_W@__crt_stdio_output@@@2@@0@AEAA_NXZ@AEAPEAD@Z 000000018005de30 f i libucrtd:output.obj
 0001:0005cea0       ??$read_va_arg@PEAUansi_string@?1??type_case_Z@?$output_processor@_WV?$string_output_adapter@_W@__crt_stdio_output@@V?$format_validation_base@_WV?$string_output_adapter@_W@__crt_stdio_output@@@2@@__crt_stdio_output@@AEAA_NXZ@@__crt_stdio_output@@YAPEAUansi_string@?1??type_case_Z@?$output_processor@_WV?$string_output_adapter@_W@__crt_stdio_output@@V?$format_validation_base@_WV?$string_output_adapter@_W@__crt_stdio_output@@@2@@0@AEAA_NXZ@AEAPEAD@Z 000000018005dea0 f i libucrtd:output.obj
 0001:0005cf10       ??$read_va_arg@PEAUansi_string@?1??type_case_Z@?$output_processor@_WV?$string_output_adapter@_W@__crt_stdio_output@@V?$positional_parameter_base@_WV?$string_output_adapter@_W@__crt_stdio_output@@@2@@__crt_stdio_output@@AEAA_NXZ@@__crt_stdio_output@@YAPEAUansi_string@?1??type_case_Z@?$output_processor@_WV?$string_output_adapter@_W@__crt_stdio_output@@V?$positional_parameter_base@_WV?$string_output_adapter@_W@__crt_stdio_output@@@2@@0@AEAA_NXZ@AEAPEAD@Z 000000018005df10 f i libucrtd:output.obj
 0001:0005cf80       ??$read_va_arg@PEAUansi_string@?1??type_case_Z@?$output_processor@_WV?$string_output_adapter@_W@__crt_stdio_output@@V?$standard_base@_WV?$string_output_adapter@_W@__crt_stdio_output@@@2@@__crt_stdio_output@@AEAA_NXZ@@__crt_stdio_output@@YAPEAUansi_string@?1??type_case_Z@?$output_processor@_WV?$string_output_adapter@_W@__crt_stdio_output@@V?$standard_base@_WV?$string_output_adapter@_W@__crt_stdio_output@@@2@@0@AEAA_NXZ@AEAPEAD@Z 000000018005df80 f i libucrtd:output.obj
 0001:0005cff0       ??$read_va_arg@PEAX@__crt_stdio_output@@YAPEAXAEAPEAD@Z 000000018005dff0 f i libucrtd:output.obj
 0001:0005d060       ??$read_va_arg@U_CRT_DOUBLE@@@__crt_stdio_output@@YA?AU_CRT_DOUBLE@@AEAPEAD@Z 000000018005e060 f i libucrtd:output.obj
 0001:0005d0d0       ??$read_va_arg@_J@__crt_stdio_output@@YA_JAEAPEAD@Z 000000018005e0d0 f i libucrtd:output.obj
 0001:0005d140       ??$read_va_arg@_K@__crt_stdio_output@@YA_KAEAPEAD@Z 000000018005e140 f i libucrtd:output.obj
 0001:0005d1b0       ??$read_va_arg@_W@__crt_stdio_output@@YA_WAEAPEAD@Z 000000018005e1b0 f i libucrtd:output.obj
 0001:0005d220       ??$scratch_count@D@formatting_buffer@__crt_stdio_output@@QEBA_KXZ 000000018005e220 f i libucrtd:output.obj
 0001:0005d240       ??$scratch_data@D@formatting_buffer@__crt_stdio_output@@QEAAPEADXZ 000000018005e240 f i libucrtd:output.obj
 0001:0005d2b0       ??$type_case_integer@$07@?$output_processor@DV?$stream_output_adapter@D@__crt_stdio_output@@V?$format_validation_base@DV?$stream_output_adapter@D@__crt_stdio_output@@@2@@__crt_stdio_output@@AEAA_N_N@Z 000000018005e2b0 f i libucrtd:output.obj
 0001:0005d730       ??$type_case_integer@$07@?$output_processor@DV?$stream_output_adapter@D@__crt_stdio_output@@V?$positional_parameter_base@DV?$stream_output_adapter@D@__crt_stdio_output@@@2@@__crt_stdio_output@@AEAA_N_N@Z 000000018005e730 f i libucrtd:output.obj
 0001:0005dbb0       ??$type_case_integer@$07@?$output_processor@DV?$stream_output_adapter@D@__crt_stdio_output@@V?$standard_base@DV?$stream_output_adapter@D@__crt_stdio_output@@@2@@__crt_stdio_output@@AEAA_N_N@Z 000000018005ebb0 f i libucrtd:output.obj
 0001:0005e030       ??$type_case_integer@$07@?$output_processor@DV?$string_output_adapter@D@__crt_stdio_output@@V?$format_validation_base@DV?$string_output_adapter@D@__crt_stdio_output@@@2@@__crt_stdio_output@@AEAA_N_N@Z 000000018005f030 f i libucrtd:output.obj
 0001:0005e4b0       ??$type_case_integer@$07@?$output_processor@DV?$string_output_adapter@D@__crt_stdio_output@@V?$positional_parameter_base@DV?$string_output_adapter@D@__crt_stdio_output@@@2@@__crt_stdio_output@@AEAA_N_N@Z 000000018005f4b0 f i libucrtd:output.obj
 0001:0005e930       ??$type_case_integer@$07@?$output_processor@DV?$string_output_adapter@D@__crt_stdio_output@@V?$standard_base@DV?$string_output_adapter@D@__crt_stdio_output@@@2@@__crt_stdio_output@@AEAA_N_N@Z 000000018005f930 f i libucrtd:output.obj
 0001:0005edb0       ??$type_case_integer@$07@?$output_processor@_WV?$stream_output_adapter@_W@__crt_stdio_output@@V?$format_validation_base@_WV?$stream_output_adapter@_W@__crt_stdio_output@@@2@@__crt_stdio_output@@AEAA_N_N@Z 000000018005fdb0 f i libucrtd:output.obj
 0001:0005f230       ??$type_case_integer@$07@?$output_processor@_WV?$stream_output_adapter@_W@__crt_stdio_output@@V?$positional_parameter_base@_WV?$stream_output_adapter@_W@__crt_stdio_output@@@2@@__crt_stdio_output@@AEAA_N_N@Z 0000000180060230 f i libucrtd:output.obj
 0001:0005f6b0       ??$type_case_integer@$07@?$output_processor@_WV?$stream_output_adapter@_W@__crt_stdio_output@@V?$standard_base@_WV?$stream_output_adapter@_W@__crt_stdio_output@@@2@@__crt_stdio_output@@AEAA_N_N@Z 00000001800606b0 f i libucrtd:output.obj
 0001:0005fb30       ??$type_case_integer@$07@?$output_processor@_WV?$string_output_adapter@_W@__crt_stdio_output@@V?$format_validation_base@_WV?$string_output_adapter@_W@__crt_stdio_output@@@2@@__crt_stdio_output@@AEAA_N_N@Z 0000000180060b30 f i libucrtd:output.obj
 0001:0005ffb0       ??$type_case_integer@$07@?$output_processor@_WV?$string_output_adapter@_W@__crt_stdio_output@@V?$positional_parameter_base@_WV?$string_output_adapter@_W@__crt_stdio_output@@@2@@__crt_stdio_output@@AEAA_N_N@Z 0000000180060fb0 f i libucrtd:output.obj
 0001:00060430       ??$type_case_integer@$07@?$output_processor@_WV?$string_output_adapter@_W@__crt_stdio_output@@V?$standard_base@_WV?$string_output_adapter@_W@__crt_stdio_output@@@2@@__crt_stdio_output@@AEAA_N_N@Z 0000000180061430 f i libucrtd:output.obj
 0001:000608b0       ??$type_case_integer@$09@?$output_processor@DV?$stream_output_adapter@D@__crt_stdio_output@@V?$format_validation_base@DV?$stream_output_adapter@D@__crt_stdio_output@@@2@@__crt_stdio_output@@AEAA_N_N@Z 00000001800618b0 f i libucrtd:output.obj
 0001:00060d30       ??$type_case_integer@$09@?$output_processor@DV?$stream_output_adapter@D@__crt_stdio_output@@V?$positional_parameter_base@DV?$stream_output_adapter@D@__crt_stdio_output@@@2@@__crt_stdio_output@@AEAA_N_N@Z 0000000180061d30 f i libucrtd:output.obj
 0001:000611b0       ??$type_case_integer@$09@?$output_processor@DV?$stream_output_adapter@D@__crt_stdio_output@@V?$standard_base@DV?$stream_output_adapter@D@__crt_stdio_output@@@2@@__crt_stdio_output@@AEAA_N_N@Z 00000001800621b0 f i libucrtd:output.obj
 0001:00061630       ??$type_case_integer@$09@?$output_processor@DV?$string_output_adapter@D@__crt_stdio_output@@V?$format_validation_base@DV?$string_output_adapter@D@__crt_stdio_output@@@2@@__crt_stdio_output@@AEAA_N_N@Z 0000000180062630 f i libucrtd:output.obj
 0001:00061ab0       ??$type_case_integer@$09@?$output_processor@DV?$string_output_adapter@D@__crt_stdio_output@@V?$positional_parameter_base@DV?$string_output_adapter@D@__crt_stdio_output@@@2@@__crt_stdio_output@@AEAA_N_N@Z 0000000180062ab0 f i libucrtd:output.obj
 0001:00061f30       ??$type_case_integer@$09@?$output_processor@DV?$string_output_adapter@D@__crt_stdio_output@@V?$standard_base@DV?$string_output_adapter@D@__crt_stdio_output@@@2@@__crt_stdio_output@@AEAA_N_N@Z 0000000180062f30 f i libucrtd:output.obj
 0001:000623b0       ??$type_case_integer@$09@?$output_processor@_WV?$stream_output_adapter@_W@__crt_stdio_output@@V?$format_validation_base@_WV?$stream_output_adapter@_W@__crt_stdio_output@@@2@@__crt_stdio_output@@AEAA_N_N@Z 00000001800633b0 f i libucrtd:output.obj
 0001:00062830       ??$type_case_integer@$09@?$output_processor@_WV?$stream_output_adapter@_W@__crt_stdio_output@@V?$positional_parameter_base@_WV?$stream_output_adapter@_W@__crt_stdio_output@@@2@@__crt_stdio_output@@AEAA_N_N@Z 0000000180063830 f i libucrtd:output.obj
 0001:00062cb0       ??$type_case_integer@$09@?$output_processor@_WV?$stream_output_adapter@_W@__crt_stdio_output@@V?$standard_base@_WV?$stream_output_adapter@_W@__crt_stdio_output@@@2@@__crt_stdio_output@@AEAA_N_N@Z 0000000180063cb0 f i libucrtd:output.obj
 0001:00063130       ??$type_case_integer@$09@?$output_processor@_WV?$string_output_adapter@_W@__crt_stdio_output@@V?$format_validation_base@_WV?$string_output_adapter@_W@__crt_stdio_output@@@2@@__crt_stdio_output@@AEAA_N_N@Z 0000000180064130 f i libucrtd:output.obj
 0001:000635b0       ??$type_case_integer@$09@?$output_processor@_WV?$string_output_adapter@_W@__crt_stdio_output@@V?$positional_parameter_base@_WV?$string_output_adapter@_W@__crt_stdio_output@@@2@@__crt_stdio_output@@AEAA_N_N@Z 00000001800645b0 f i libucrtd:output.obj
 0001:00063a30       ??$type_case_integer@$09@?$output_processor@_WV?$string_output_adapter@_W@__crt_stdio_output@@V?$standard_base@_WV?$string_output_adapter@_W@__crt_stdio_output@@@2@@__crt_stdio_output@@AEAA_N_N@Z 0000000180064a30 f i libucrtd:output.obj
 0001:00063eb0       ??$type_case_integer@$0BA@@?$output_processor@DV?$stream_output_adapter@D@__crt_stdio_output@@V?$format_validation_base@DV?$stream_output_adapter@D@__crt_stdio_output@@@2@@__crt_stdio_output@@AEAA_N_N@Z 0000000180064eb0 f i libucrtd:output.obj
 0001:00064330       ??$type_case_integer@$0BA@@?$output_processor@DV?$stream_output_adapter@D@__crt_stdio_output@@V?$positional_parameter_base@DV?$stream_output_adapter@D@__crt_stdio_output@@@2@@__crt_stdio_output@@AEAA_N_N@Z 0000000180065330 f i libucrtd:output.obj
 0001:000647b0       ??$type_case_integer@$0BA@@?$output_processor@DV?$stream_output_adapter@D@__crt_stdio_output@@V?$standard_base@DV?$stream_output_adapter@D@__crt_stdio_output@@@2@@__crt_stdio_output@@AEAA_N_N@Z 00000001800657b0 f i libucrtd:output.obj
 0001:00064c30       ??$type_case_integer@$0BA@@?$output_processor@DV?$string_output_adapter@D@__crt_stdio_output@@V?$format_validation_base@DV?$string_output_adapter@D@__crt_stdio_output@@@2@@__crt_stdio_output@@AEAA_N_N@Z 0000000180065c30 f i libucrtd:output.obj
 0001:000650b0       ??$type_case_integer@$0BA@@?$output_processor@DV?$string_output_adapter@D@__crt_stdio_output@@V?$positional_parameter_base@DV?$string_output_adapter@D@__crt_stdio_output@@@2@@__crt_stdio_output@@AEAA_N_N@Z 00000001800660b0 f i libucrtd:output.obj
 0001:00065530       ??$type_case_integer@$0BA@@?$output_processor@DV?$string_output_adapter@D@__crt_stdio_output@@V?$standard_base@DV?$string_output_adapter@D@__crt_stdio_output@@@2@@__crt_stdio_output@@AEAA_N_N@Z 0000000180066530 f i libucrtd:output.obj
 0001:000659b0       ??$type_case_integer@$0BA@@?$output_processor@_WV?$stream_output_adapter@_W@__crt_stdio_output@@V?$format_validation_base@_WV?$stream_output_adapter@_W@__crt_stdio_output@@@2@@__crt_stdio_output@@AEAA_N_N@Z 00000001800669b0 f i libucrtd:output.obj
 0001:00065e30       ??$type_case_integer@$0BA@@?$output_processor@_WV?$stream_output_adapter@_W@__crt_stdio_output@@V?$positional_parameter_base@_WV?$stream_output_adapter@_W@__crt_stdio_output@@@2@@__crt_stdio_output@@AEAA_N_N@Z 0000000180066e30 f i libucrtd:output.obj
 0001:000662b0       ??$type_case_integer@$0BA@@?$output_processor@_WV?$stream_output_adapter@_W@__crt_stdio_output@@V?$standard_base@_WV?$stream_output_adapter@_W@__crt_stdio_output@@@2@@__crt_stdio_output@@AEAA_N_N@Z 00000001800672b0 f i libucrtd:output.obj
 0001:00066730       ??$type_case_integer@$0BA@@?$output_processor@_WV?$string_output_adapter@_W@__crt_stdio_output@@V?$format_validation_base@_WV?$string_output_adapter@_W@__crt_stdio_output@@@2@@__crt_stdio_output@@AEAA_N_N@Z 0000000180067730 f i libucrtd:output.obj
 0001:00066bb0       ??$type_case_integer@$0BA@@?$output_processor@_WV?$string_output_adapter@_W@__crt_stdio_output@@V?$positional_parameter_base@_WV?$string_output_adapter@_W@__crt_stdio_output@@@2@@__crt_stdio_output@@AEAA_N_N@Z 0000000180067bb0 f i libucrtd:output.obj
 0001:00067030       ??$type_case_integer@$0BA@@?$output_processor@_WV?$string_output_adapter@_W@__crt_stdio_output@@V?$standard_base@_WV?$string_output_adapter@_W@__crt_stdio_output@@@2@@__crt_stdio_output@@AEAA_N_N@Z 0000000180068030 f i libucrtd:output.obj
 0001:000674b0       ??$type_case_integer_parse_into_buffer@I$07@?$output_processor@DV?$stream_output_adapter@D@__crt_stdio_output@@V?$format_validation_base@DV?$stream_output_adapter@D@__crt_stdio_output@@@2@@__crt_stdio_output@@AEAAXI_N@Z 00000001800684b0 f i libucrtd:output.obj
 0001:000675e0       ??$type_case_integer_parse_into_buffer@I$07@?$output_processor@DV?$stream_output_adapter@D@__crt_stdio_output@@V?$positional_parameter_base@DV?$stream_output_adapter@D@__crt_stdio_output@@@2@@__crt_stdio_output@@AEAAXI_N@Z 00000001800685e0 f i libucrtd:output.obj
 0001:00067710       ??$type_case_integer_parse_into_buffer@I$07@?$output_processor@DV?$stream_output_adapter@D@__crt_stdio_output@@V?$standard_base@DV?$stream_output_adapter@D@__crt_stdio_output@@@2@@__crt_stdio_output@@AEAAXI_N@Z 0000000180068710 f i libucrtd:output.obj
 0001:00067840       ??$type_case_integer_parse_into_buffer@I$07@?$output_processor@DV?$string_output_adapter@D@__crt_stdio_output@@V?$format_validation_base@DV?$string_output_adapter@D@__crt_stdio_output@@@2@@__crt_stdio_output@@AEAAXI_N@Z 0000000180068840 f i libucrtd:output.obj
 0001:00067970       ??$type_case_integer_parse_into_buffer@I$07@?$output_processor@DV?$string_output_adapter@D@__crt_stdio_output@@V?$positional_parameter_base@DV?$string_output_adapter@D@__crt_stdio_output@@@2@@__crt_stdio_output@@AEAAXI_N@Z 0000000180068970 f i libucrtd:output.obj
 0001:00067aa0       ??$type_case_integer_parse_into_buffer@I$07@?$output_processor@DV?$string_output_adapter@D@__crt_stdio_output@@V?$standard_base@DV?$string_output_adapter@D@__crt_stdio_output@@@2@@__crt_stdio_output@@AEAAXI_N@Z 0000000180068aa0 f i libucrtd:output.obj
 0001:00067bd0       ??$type_case_integer_parse_into_buffer@I$07@?$output_processor@_WV?$stream_output_adapter@_W@__crt_stdio_output@@V?$format_validation_base@_WV?$stream_output_adapter@_W@__crt_stdio_output@@@2@@__crt_stdio_output@@AEAAXI_N@Z 0000000180068bd0 f i libucrtd:output.obj
 0001:00067d10       ??$type_case_integer_parse_into_buffer@I$07@?$output_processor@_WV?$stream_output_adapter@_W@__crt_stdio_output@@V?$positional_parameter_base@_WV?$stream_output_adapter@_W@__crt_stdio_output@@@2@@__crt_stdio_output@@AEAAXI_N@Z 0000000180068d10 f i libucrtd:output.obj
 0001:00067e50       ??$type_case_integer_parse_into_buffer@I$07@?$output_processor@_WV?$stream_output_adapter@_W@__crt_stdio_output@@V?$standard_base@_WV?$stream_output_adapter@_W@__crt_stdio_output@@@2@@__crt_stdio_output@@AEAAXI_N@Z 0000000180068e50 f i libucrtd:output.obj
 0001:00067f90       ??$type_case_integer_parse_into_buffer@I$07@?$output_processor@_WV?$string_output_adapter@_W@__crt_stdio_output@@V?$format_validation_base@_WV?$string_output_adapter@_W@__crt_stdio_output@@@2@@__crt_stdio_output@@AEAAXI_N@Z 0000000180068f90 f i libucrtd:output.obj
 0001:000680d0       ??$type_case_integer_parse_into_buffer@I$07@?$output_processor@_WV?$string_output_adapter@_W@__crt_stdio_output@@V?$positional_parameter_base@_WV?$string_output_adapter@_W@__crt_stdio_output@@@2@@__crt_stdio_output@@AEAAXI_N@Z 00000001800690d0 f i libucrtd:output.obj
 0001:00068210       ??$type_case_integer_parse_into_buffer@I$07@?$output_processor@_WV?$string_output_adapter@_W@__crt_stdio_output@@V?$standard_base@_WV?$string_output_adapter@_W@__crt_stdio_output@@@2@@__crt_stdio_output@@AEAAXI_N@Z 0000000180069210 f i libucrtd:output.obj
 0001:00068350       ??$type_case_integer_parse_into_buffer@I$09@?$output_processor@DV?$stream_output_adapter@D@__crt_stdio_output@@V?$format_validation_base@DV?$stream_output_adapter@D@__crt_stdio_output@@@2@@__crt_stdio_output@@AEAAXI_N@Z 0000000180069350 f i libucrtd:output.obj
 0001:00068480       ??$type_case_integer_parse_into_buffer@I$09@?$output_processor@DV?$stream_output_adapter@D@__crt_stdio_output@@V?$positional_parameter_base@DV?$stream_output_adapter@D@__crt_stdio_output@@@2@@__crt_stdio_output@@AEAAXI_N@Z 0000000180069480 f i libucrtd:output.obj
 0001:000685b0       ??$type_case_integer_parse_into_buffer@I$09@?$output_processor@DV?$stream_output_adapter@D@__crt_stdio_output@@V?$standard_base@DV?$stream_output_adapter@D@__crt_stdio_output@@@2@@__crt_stdio_output@@AEAAXI_N@Z 00000001800695b0 f i libucrtd:output.obj
 0001:000686e0       ??$type_case_integer_parse_into_buffer@I$09@?$output_processor@DV?$string_output_adapter@D@__crt_stdio_output@@V?$format_validation_base@DV?$string_output_adapter@D@__crt_stdio_output@@@2@@__crt_stdio_output@@AEAAXI_N@Z 00000001800696e0 f i libucrtd:output.obj
 0001:00068810       ??$type_case_integer_parse_into_buffer@I$09@?$output_processor@DV?$string_output_adapter@D@__crt_stdio_output@@V?$positional_parameter_base@DV?$string_output_adapter@D@__crt_stdio_output@@@2@@__crt_stdio_output@@AEAAXI_N@Z 0000000180069810 f i libucrtd:output.obj
 0001:00068940       ??$type_case_integer_parse_into_buffer@I$09@?$output_processor@DV?$string_output_adapter@D@__crt_stdio_output@@V?$standard_base@DV?$string_output_adapter@D@__crt_stdio_output@@@2@@__crt_stdio_output@@AEAAXI_N@Z 0000000180069940 f i libucrtd:output.obj
 0001:00068a70       ??$type_case_integer_parse_into_buffer@I$09@?$output_processor@_WV?$stream_output_adapter@_W@__crt_stdio_output@@V?$format_validation_base@_WV?$stream_output_adapter@_W@__crt_stdio_output@@@2@@__crt_stdio_output@@AEAAXI_N@Z 0000000180069a70 f i libucrtd:output.obj
 0001:00068bb0       ??$type_case_integer_parse_into_buffer@I$09@?$output_processor@_WV?$stream_output_adapter@_W@__crt_stdio_output@@V?$positional_parameter_base@_WV?$stream_output_adapter@_W@__crt_stdio_output@@@2@@__crt_stdio_output@@AEAAXI_N@Z 0000000180069bb0 f i libucrtd:output.obj
 0001:00068cf0       ??$type_case_integer_parse_into_buffer@I$09@?$output_processor@_WV?$stream_output_adapter@_W@__crt_stdio_output@@V?$standard_base@_WV?$stream_output_adapter@_W@__crt_stdio_output@@@2@@__crt_stdio_output@@AEAAXI_N@Z 0000000180069cf0 f i libucrtd:output.obj
 0001:00068e30       ??$type_case_integer_parse_into_buffer@I$09@?$output_processor@_WV?$string_output_adapter@_W@__crt_stdio_output@@V?$format_validation_base@_WV?$string_output_adapter@_W@__crt_stdio_output@@@2@@__crt_stdio_output@@AEAAXI_N@Z 0000000180069e30 f i libucrtd:output.obj
 0001:00068f70       ??$type_case_integer_parse_into_buffer@I$09@?$output_processor@_WV?$string_output_adapter@_W@__crt_stdio_output@@V?$positional_parameter_base@_WV?$string_output_adapter@_W@__crt_stdio_output@@@2@@__crt_stdio_output@@AEAAXI_N@Z 0000000180069f70 f i libucrtd:output.obj
 0001:000690b0       ??$type_case_integer_parse_into_buffer@I$09@?$output_processor@_WV?$string_output_adapter@_W@__crt_stdio_output@@V?$standard_base@_WV?$string_output_adapter@_W@__crt_stdio_output@@@2@@__crt_stdio_output@@AEAAXI_N@Z 000000018006a0b0 f i libucrtd:output.obj
 0001:000691f0       ??$type_case_integer_parse_into_buffer@I$0BA@@?$output_processor@DV?$stream_output_adapter@D@__crt_stdio_output@@V?$format_validation_base@DV?$stream_output_adapter@D@__crt_stdio_output@@@2@@__crt_stdio_output@@AEAAXI_N@Z 000000018006a1f0 f i libucrtd:output.obj
 0001:00069320       ??$type_case_integer_parse_into_buffer@I$0BA@@?$output_processor@DV?$stream_output_adapter@D@__crt_stdio_output@@V?$positional_parameter_base@DV?$stream_output_adapter@D@__crt_stdio_output@@@2@@__crt_stdio_output@@AEAAXI_N@Z 000000018006a320 f i libucrtd:output.obj
 0001:00069450       ??$type_case_integer_parse_into_buffer@I$0BA@@?$output_processor@DV?$stream_output_adapter@D@__crt_stdio_output@@V?$standard_base@DV?$stream_output_adapter@D@__crt_stdio_output@@@2@@__crt_stdio_output@@AEAAXI_N@Z 000000018006a450 f i libucrtd:output.obj
 0001:00069580       ??$type_case_integer_parse_into_buffer@I$0BA@@?$output_processor@DV?$string_output_adapter@D@__crt_stdio_output@@V?$format_validation_base@DV?$string_output_adapter@D@__crt_stdio_output@@@2@@__crt_stdio_output@@AEAAXI_N@Z 000000018006a580 f i libucrtd:output.obj
 0001:000696b0       ??$type_case_integer_parse_into_buffer@I$0BA@@?$output_processor@DV?$string_output_adapter@D@__crt_stdio_output@@V?$positional_parameter_base@DV?$string_output_adapter@D@__crt_stdio_output@@@2@@__crt_stdio_output@@AEAAXI_N@Z 000000018006a6b0 f i libucrtd:output.obj
 0001:000697e0       ??$type_case_integer_parse_into_buffer@I$0BA@@?$output_processor@DV?$string_output_adapter@D@__crt_stdio_output@@V?$standard_base@DV?$string_output_adapter@D@__crt_stdio_output@@@2@@__crt_stdio_output@@AEAAXI_N@Z 000000018006a7e0 f i libucrtd:output.obj
 0001:00069910       ??$type_case_integer_parse_into_buffer@I$0BA@@?$output_processor@_WV?$stream_output_adapter@_W@__crt_stdio_output@@V?$format_validation_base@_WV?$stream_output_adapter@_W@__crt_stdio_output@@@2@@__crt_stdio_output@@AEAAXI_N@Z 000000018006a910 f i libucrtd:output.obj
 0001:00069a50       ??$type_case_integer_parse_into_buffer@I$0BA@@?$output_processor@_WV?$stream_output_adapter@_W@__crt_stdio_output@@V?$positional_parameter_base@_WV?$stream_output_adapter@_W@__crt_stdio_output@@@2@@__crt_stdio_output@@AEAAXI_N@Z 000000018006aa50 f i libucrtd:output.obj
 0001:00069b90       ??$type_case_integer_parse_into_buffer@I$0BA@@?$output_processor@_WV?$stream_output_adapter@_W@__crt_stdio_output@@V?$standard_base@_WV?$stream_output_adapter@_W@__crt_stdio_output@@@2@@__crt_stdio_output@@AEAAXI_N@Z 000000018006ab90 f i libucrtd:output.obj
 0001:00069cd0       ??$type_case_integer_parse_into_buffer@I$0BA@@?$output_processor@_WV?$string_output_adapter@_W@__crt_stdio_output@@V?$format_validation_base@_WV?$string_output_adapter@_W@__crt_stdio_output@@@2@@__crt_stdio_output@@AEAAXI_N@Z 000000018006acd0 f i libucrtd:output.obj
 0001:00069e10       ??$type_case_integer_parse_into_buffer@I$0BA@@?$output_processor@_WV?$string_output_adapter@_W@__crt_stdio_output@@V?$positional_parameter_base@_WV?$string_output_adapter@_W@__crt_stdio_output@@@2@@__crt_stdio_output@@AEAAXI_N@Z 000000018006ae10 f i libucrtd:output.obj
 0001:00069f50       ??$type_case_integer_parse_into_buffer@I$0BA@@?$output_processor@_WV?$string_output_adapter@_W@__crt_stdio_output@@V?$standard_base@_WV?$string_output_adapter@_W@__crt_stdio_output@@@2@@__crt_stdio_output@@AEAAXI_N@Z 000000018006af50 f i libucrtd:output.obj
 0001:0006a090       ??$type_case_integer_parse_into_buffer@_K$07@?$output_processor@DV?$stream_output_adapter@D@__crt_stdio_output@@V?$format_validation_base@DV?$stream_output_adapter@D@__crt_stdio_output@@@2@@__crt_stdio_output@@AEAAX_K_N@Z 000000018006b090 f i libucrtd:output.obj
 0001:0006a1d0       ??$type_case_integer_parse_into_buffer@_K$07@?$output_processor@DV?$stream_output_adapter@D@__crt_stdio_output@@V?$positional_parameter_base@DV?$stream_output_adapter@D@__crt_stdio_output@@@2@@__crt_stdio_output@@AEAAX_K_N@Z 000000018006b1d0 f i libucrtd:output.obj
 0001:0006a310       ??$type_case_integer_parse_into_buffer@_K$07@?$output_processor@DV?$stream_output_adapter@D@__crt_stdio_output@@V?$standard_base@DV?$stream_output_adapter@D@__crt_stdio_output@@@2@@__crt_stdio_output@@AEAAX_K_N@Z 000000018006b310 f i libucrtd:output.obj
 0001:0006a450       ??$type_case_integer_parse_into_buffer@_K$07@?$output_processor@DV?$string_output_adapter@D@__crt_stdio_output@@V?$format_validation_base@DV?$string_output_adapter@D@__crt_stdio_output@@@2@@__crt_stdio_output@@AEAAX_K_N@Z 000000018006b450 f i libucrtd:output.obj
 0001:0006a590       ??$type_case_integer_parse_into_buffer@_K$07@?$output_processor@DV?$string_output_adapter@D@__crt_stdio_output@@V?$positional_parameter_base@DV?$string_output_adapter@D@__crt_stdio_output@@@2@@__crt_stdio_output@@AEAAX_K_N@Z 000000018006b590 f i libucrtd:output.obj
 0001:0006a6d0       ??$type_case_integer_parse_into_buffer@_K$07@?$output_processor@DV?$string_output_adapter@D@__crt_stdio_output@@V?$standard_base@DV?$string_output_adapter@D@__crt_stdio_output@@@2@@__crt_stdio_output@@AEAAX_K_N@Z 000000018006b6d0 f i libucrtd:output.obj
 0001:0006a810       ??$type_case_integer_parse_into_buffer@_K$07@?$output_processor@_WV?$stream_output_adapter@_W@__crt_stdio_output@@V?$format_validation_base@_WV?$stream_output_adapter@_W@__crt_stdio_output@@@2@@__crt_stdio_output@@AEAAX_K_N@Z 000000018006b810 f i libucrtd:output.obj
 0001:0006a950       ??$type_case_integer_parse_into_buffer@_K$07@?$output_processor@_WV?$stream_output_adapter@_W@__crt_stdio_output@@V?$positional_parameter_base@_WV?$stream_output_adapter@_W@__crt_stdio_output@@@2@@__crt_stdio_output@@AEAAX_K_N@Z 000000018006b950 f i libucrtd:output.obj
 0001:0006aa90       ??$type_case_integer_parse_into_buffer@_K$07@?$output_processor@_WV?$stream_output_adapter@_W@__crt_stdio_output@@V?$standard_base@_WV?$stream_output_adapter@_W@__crt_stdio_output@@@2@@__crt_stdio_output@@AEAAX_K_N@Z 000000018006ba90 f i libucrtd:output.obj
 0001:0006abd0       ??$type_case_integer_parse_into_buffer@_K$07@?$output_processor@_WV?$string_output_adapter@_W@__crt_stdio_output@@V?$format_validation_base@_WV?$string_output_adapter@_W@__crt_stdio_output@@@2@@__crt_stdio_output@@AEAAX_K_N@Z 000000018006bbd0 f i libucrtd:output.obj
 0001:0006ad10       ??$type_case_integer_parse_into_buffer@_K$07@?$output_processor@_WV?$string_output_adapter@_W@__crt_stdio_output@@V?$positional_parameter_base@_WV?$string_output_adapter@_W@__crt_stdio_output@@@2@@__crt_stdio_output@@AEAAX_K_N@Z 000000018006bd10 f i libucrtd:output.obj
 0001:0006ae50       ??$type_case_integer_parse_into_buffer@_K$07@?$output_processor@_WV?$string_output_adapter@_W@__crt_stdio_output@@V?$standard_base@_WV?$string_output_adapter@_W@__crt_stdio_output@@@2@@__crt_stdio_output@@AEAAX_K_N@Z 000000018006be50 f i libucrtd:output.obj
 0001:0006af90       ??$type_case_integer_parse_into_buffer@_K$09@?$output_processor@DV?$stream_output_adapter@D@__crt_stdio_output@@V?$format_validation_base@DV?$stream_output_adapter@D@__crt_stdio_output@@@2@@__crt_stdio_output@@AEAAX_K_N@Z 000000018006bf90 f i libucrtd:output.obj
 0001:0006b0d0       ??$type_case_integer_parse_into_buffer@_K$09@?$output_processor@DV?$stream_output_adapter@D@__crt_stdio_output@@V?$positional_parameter_base@DV?$stream_output_adapter@D@__crt_stdio_output@@@2@@__crt_stdio_output@@AEAAX_K_N@Z 000000018006c0d0 f i libucrtd:output.obj
 0001:0006b210       ??$type_case_integer_parse_into_buffer@_K$09@?$output_processor@DV?$stream_output_adapter@D@__crt_stdio_output@@V?$standard_base@DV?$stream_output_adapter@D@__crt_stdio_output@@@2@@__crt_stdio_output@@AEAAX_K_N@Z 000000018006c210 f i libucrtd:output.obj
 0001:0006b350       ??$type_case_integer_parse_into_buffer@_K$09@?$output_processor@DV?$string_output_adapter@D@__crt_stdio_output@@V?$format_validation_base@DV?$string_output_adapter@D@__crt_stdio_output@@@2@@__crt_stdio_output@@AEAAX_K_N@Z 000000018006c350 f i libucrtd:output.obj
 0001:0006b490       ??$type_case_integer_parse_into_buffer@_K$09@?$output_processor@DV?$string_output_adapter@D@__crt_stdio_output@@V?$positional_parameter_base@DV?$string_output_adapter@D@__crt_stdio_output@@@2@@__crt_stdio_output@@AEAAX_K_N@Z 000000018006c490 f i libucrtd:output.obj
 0001:0006b5d0       ??$type_case_integer_parse_into_buffer@_K$09@?$output_processor@DV?$string_output_adapter@D@__crt_stdio_output@@V?$standard_base@DV?$string_output_adapter@D@__crt_stdio_output@@@2@@__crt_stdio_output@@AEAAX_K_N@Z 000000018006c5d0 f i libucrtd:output.obj
 0001:0006b710       ??$type_case_integer_parse_into_buffer@_K$09@?$output_processor@_WV?$stream_output_adapter@_W@__crt_stdio_output@@V?$format_validation_base@_WV?$stream_output_adapter@_W@__crt_stdio_output@@@2@@__crt_stdio_output@@AEAAX_K_N@Z 000000018006c710 f i libucrtd:output.obj
 0001:0006b850       ??$type_case_integer_parse_into_buffer@_K$09@?$output_processor@_WV?$stream_output_adapter@_W@__crt_stdio_output@@V?$positional_parameter_base@_WV?$stream_output_adapter@_W@__crt_stdio_output@@@2@@__crt_stdio_output@@AEAAX_K_N@Z 000000018006c850 f i libucrtd:output.obj
 0001:0006b990       ??$type_case_integer_parse_into_buffer@_K$09@?$output_processor@_WV?$stream_output_adapter@_W@__crt_stdio_output@@V?$standard_base@_WV?$stream_output_adapter@_W@__crt_stdio_output@@@2@@__crt_stdio_output@@AEAAX_K_N@Z 000000018006c990 f i libucrtd:output.obj
 0001:0006bad0       ??$type_case_integer_parse_into_buffer@_K$09@?$output_processor@_WV?$string_output_adapter@_W@__crt_stdio_output@@V?$format_validation_base@_WV?$string_output_adapter@_W@__crt_stdio_output@@@2@@__crt_stdio_output@@AEAAX_K_N@Z 000000018006cad0 f i libucrtd:output.obj
 0001:0006bc10       ??$type_case_integer_parse_into_buffer@_K$09@?$output_processor@_WV?$string_output_adapter@_W@__crt_stdio_output@@V?$positional_parameter_base@_WV?$string_output_adapter@_W@__crt_stdio_output@@@2@@__crt_stdio_output@@AEAAX_K_N@Z 000000018006cc10 f i libucrtd:output.obj
 0001:0006bd50       ??$type_case_integer_parse_into_buffer@_K$09@?$output_processor@_WV?$string_output_adapter@_W@__crt_stdio_output@@V?$standard_base@_WV?$string_output_adapter@_W@__crt_stdio_output@@@2@@__crt_stdio_output@@AEAAX_K_N@Z 000000018006cd50 f i libucrtd:output.obj
 0001:0006be90       ??$type_case_integer_parse_into_buffer@_K$0BA@@?$output_processor@DV?$stream_output_adapter@D@__crt_stdio_output@@V?$format_validation_base@DV?$stream_output_adapter@D@__crt_stdio_output@@@2@@__crt_stdio_output@@AEAAX_K_N@Z 000000018006ce90 f i libucrtd:output.obj
 0001:0006bfd0       ??$type_case_integer_parse_into_buffer@_K$0BA@@?$output_processor@DV?$stream_output_adapter@D@__crt_stdio_output@@V?$positional_parameter_base@DV?$stream_output_adapter@D@__crt_stdio_output@@@2@@__crt_stdio_output@@AEAAX_K_N@Z 000000018006cfd0 f i libucrtd:output.obj
 0001:0006c110       ??$type_case_integer_parse_into_buffer@_K$0BA@@?$output_processor@DV?$stream_output_adapter@D@__crt_stdio_output@@V?$standard_base@DV?$stream_output_adapter@D@__crt_stdio_output@@@2@@__crt_stdio_output@@AEAAX_K_N@Z 000000018006d110 f i libucrtd:output.obj
 0001:0006c250       ??$type_case_integer_parse_into_buffer@_K$0BA@@?$output_processor@DV?$string_output_adapter@D@__crt_stdio_output@@V?$format_validation_base@DV?$string_output_adapter@D@__crt_stdio_output@@@2@@__crt_stdio_output@@AEAAX_K_N@Z 000000018006d250 f i libucrtd:output.obj
 0001:0006c390       ??$type_case_integer_parse_into_buffer@_K$0BA@@?$output_processor@DV?$string_output_adapter@D@__crt_stdio_output@@V?$positional_parameter_base@DV?$string_output_adapter@D@__crt_stdio_output@@@2@@__crt_stdio_output@@AEAAX_K_N@Z 000000018006d390 f i libucrtd:output.obj
 0001:0006c4d0       ??$type_case_integer_parse_into_buffer@_K$0BA@@?$output_processor@DV?$string_output_adapter@D@__crt_stdio_output@@V?$standard_base@DV?$string_output_adapter@D@__crt_stdio_output@@@2@@__crt_stdio_output@@AEAAX_K_N@Z 000000018006d4d0 f i libucrtd:output.obj
 0001:0006c610       ??$type_case_integer_parse_into_buffer@_K$0BA@@?$output_processor@_WV?$stream_output_adapter@_W@__crt_stdio_output@@V?$format_validation_base@_WV?$stream_output_adapter@_W@__crt_stdio_output@@@2@@__crt_stdio_output@@AEAAX_K_N@Z 000000018006d610 f i libucrtd:output.obj
 0001:0006c750       ??$type_case_integer_parse_into_buffer@_K$0BA@@?$output_processor@_WV?$stream_output_adapter@_W@__crt_stdio_output@@V?$positional_parameter_base@_WV?$stream_output_adapter@_W@__crt_stdio_output@@@2@@__crt_stdio_output@@AEAAX_K_N@Z 000000018006d750 f i libucrtd:output.obj
 0001:0006c890       ??$type_case_integer_parse_into_buffer@_K$0BA@@?$output_processor@_WV?$stream_output_adapter@_W@__crt_stdio_output@@V?$standard_base@_WV?$stream_output_adapter@_W@__crt_stdio_output@@@2@@__crt_stdio_output@@AEAAX_K_N@Z 000000018006d890 f i libucrtd:output.obj
 0001:0006c9d0       ??$type_case_integer_parse_into_buffer@_K$0BA@@?$output_processor@_WV?$string_output_adapter@_W@__crt_stdio_output@@V?$format_validation_base@_WV?$string_output_adapter@_W@__crt_stdio_output@@@2@@__crt_stdio_output@@AEAAX_K_N@Z 000000018006d9d0 f i libucrtd:output.obj
 0001:0006cb10       ??$type_case_integer_parse_into_buffer@_K$0BA@@?$output_processor@_WV?$string_output_adapter@_W@__crt_stdio_output@@V?$positional_parameter_base@_WV?$string_output_adapter@_W@__crt_stdio_output@@@2@@__crt_stdio_output@@AEAAX_K_N@Z 000000018006db10 f i libucrtd:output.obj
 0001:0006cc50       ??$type_case_integer_parse_into_buffer@_K$0BA@@?$output_processor@_WV?$string_output_adapter@_W@__crt_stdio_output@@V?$standard_base@_WV?$string_output_adapter@_W@__crt_stdio_output@@@2@@__crt_stdio_output@@AEAAX_K_N@Z 000000018006dc50 f i libucrtd:output.obj
 0001:0006cd90       ??$write_multiple_characters@V?$stream_output_adapter@D@__crt_stdio_output@@D@__crt_stdio_output@@YAXAEBV?$stream_output_adapter@D@0@DHQEAHAEAV__crt_cached_ptd_host@@@Z 000000018006dd90 f i libucrtd:output.obj
 0001:0006ce00       ??$write_multiple_characters@V?$stream_output_adapter@_W@__crt_stdio_output@@D@__crt_stdio_output@@YAXAEBV?$stream_output_adapter@_W@0@DHQEAHAEAV__crt_cached_ptd_host@@@Z 000000018006de00 f i libucrtd:output.obj
 0001:0006ce70       ??$write_multiple_characters@V?$string_output_adapter@D@__crt_stdio_output@@D@__crt_stdio_output@@YAXAEBV?$string_output_adapter@D@0@DHQEAHAEAV__crt_cached_ptd_host@@@Z 000000018006de70 f i libucrtd:output.obj
 0001:0006cee0       ??$write_multiple_characters@V?$string_output_adapter@_W@__crt_stdio_output@@D@__crt_stdio_output@@YAXAEBV?$string_output_adapter@_W@0@DHQEAHAEAV__crt_cached_ptd_host@@@Z 000000018006dee0 f i libucrtd:output.obj
 0001:0006d310       ??0?$c_string_character_source@D@__crt_strtox@@QEAA@QEBDQEAPEBD@Z 000000018006e310 f i libucrtd:output.obj
 0001:0006d360       ??0?$c_string_character_source@_W@__crt_strtox@@QEAA@QEB_WQEAPEB_W@Z 000000018006e360 f i libucrtd:output.obj
 0001:0006d3b0       ??0?$cached@H@__crt_cached_ptd_host@@QEAA@XZ 000000018006e3b0 f i libucrtd:output.obj
 0001:0006d3d0       ??0?$cached@K@__crt_cached_ptd_host@@QEAA@XZ 000000018006e3d0 f i libucrtd:output.obj
 0001:0006d3f0       ??0?$common_data@D@__crt_stdio_output@@IEAA@AEAV__crt_cached_ptd_host@@@Z 000000018006e3f0 f i libucrtd:output.obj
 0001:0006d4b0       ??0?$common_data@_W@__crt_stdio_output@@IEAA@AEAV__crt_cached_ptd_host@@@Z 000000018006e4b0 f i libucrtd:output.obj
 0001:0006d570       ??0?$output_adapter_data@DV?$stream_output_adapter@D@__crt_stdio_output@@@__crt_stdio_output@@IEAA@AEBV?$stream_output_adapter@D@1@_KQEBDAEAV__crt_cached_ptd_host@@QEAD@Z 000000018006e570 f i libucrtd:output.obj
 0001:0006d5f0       ??0?$output_adapter_data@DV?$string_output_adapter@D@__crt_stdio_output@@@__crt_stdio_output@@IEAA@AEBV?$string_output_adapter@D@1@_KQEBDAEAV__crt_cached_ptd_host@@QEAD@Z 000000018006e5f0 f i libucrtd:output.obj
 0001:0006d670       ??0?$output_adapter_data@_WV?$stream_output_adapter@_W@__crt_stdio_output@@@__crt_stdio_output@@IEAA@AEBV?$stream_output_adapter@_W@1@_KQEB_WAEAV__crt_cached_ptd_host@@QEAD@Z 000000018006e670 f i libucrtd:output.obj
 0001:0006d6f0       ??0?$output_adapter_data@_WV?$string_output_adapter@_W@__crt_stdio_output@@@__crt_stdio_output@@IEAA@AEBV?$string_output_adapter@_W@1@_KQEB_WAEAV__crt_cached_ptd_host@@QEAD@Z 000000018006e6f0 f i libucrtd:output.obj
 0001:0006d770       ??0?$output_processor@DV?$stream_output_adapter@D@__crt_stdio_output@@V?$format_validation_base@DV?$stream_output_adapter@D@__crt_stdio_output@@@2@@__crt_stdio_output@@QEAA@AEBV?$stream_output_adapter@D@1@_KQEBDAEAV__crt_cached_ptd_host@@QEAD@Z 000000018006e770 f i libucrtd:output.obj
 0001:0006d7c0       ??0?$output_processor@DV?$stream_output_adapter@D@__crt_stdio_output@@V?$positional_parameter_base@DV?$stream_output_adapter@D@__crt_stdio_output@@@2@@__crt_stdio_output@@QEAA@AEBV?$stream_output_adapter@D@1@_KQEBDAEAV__crt_cached_ptd_host@@QEAD@Z 000000018006e7c0 f i libucrtd:output.obj
 0001:0006d810       ??0?$output_processor@DV?$stream_output_adapter@D@__crt_stdio_output@@V?$standard_base@DV?$stream_output_adapter@D@__crt_stdio_output@@@2@@__crt_stdio_output@@QEAA@AEBV?$stream_output_adapter@D@1@_KQEBDAEAV__crt_cached_ptd_host@@QEAD@Z 000000018006e810 f i libucrtd:output.obj
 0001:0006d860       ??0?$output_processor@DV?$string_output_adapter@D@__crt_stdio_output@@V?$format_validation_base@DV?$string_output_adapter@D@__crt_stdio_output@@@2@@__crt_stdio_output@@QEAA@AEBV?$string_output_adapter@D@1@_KQEBDAEAV__crt_cached_ptd_host@@QEAD@Z 000000018006e860 f i libucrtd:output.obj
 0001:0006d8b0       ??0?$output_processor@DV?$string_output_adapter@D@__crt_stdio_output@@V?$positional_parameter_base@DV?$string_output_adapter@D@__crt_stdio_output@@@2@@__crt_stdio_output@@QEAA@AEBV?$string_output_adapter@D@1@_KQEBDAEAV__crt_cached_ptd_host@@QEAD@Z 000000018006e8b0 f i libucrtd:output.obj
 0001:0006d900       ??0?$output_processor@DV?$string_output_adapter@D@__crt_stdio_output@@V?$standard_base@DV?$string_output_adapter@D@__crt_stdio_output@@@2@@__crt_stdio_output@@QEAA@AEBV?$string_output_adapter@D@1@_KQEBDAEAV__crt_cached_ptd_host@@QEAD@Z 000000018006e900 f i libucrtd:output.obj
 0001:0006d950       ??0?$output_processor@_WV?$stream_output_adapter@_W@__crt_stdio_output@@V?$format_validation_base@_WV?$stream_output_adapter@_W@__crt_stdio_output@@@2@@__crt_stdio_output@@QEAA@AEBV?$stream_output_adapter@_W@1@_KQEB_WAEAV__crt_cached_ptd_host@@QEAD@Z 000000018006e950 f i libucrtd:output.obj
 0001:0006d9a0       ??0?$output_processor@_WV?$stream_output_adapter@_W@__crt_stdio_output@@V?$positional_parameter_base@_WV?$stream_output_adapter@_W@__crt_stdio_output@@@2@@__crt_stdio_output@@QEAA@AEBV?$stream_output_adapter@_W@1@_KQEB_WAEAV__crt_cached_ptd_host@@QEAD@Z 000000018006e9a0 f i libucrtd:output.obj
 0001:0006d9f0       ??0?$output_processor@_WV?$stream_output_adapter@_W@__crt_stdio_output@@V?$standard_base@_WV?$stream_output_adapter@_W@__crt_stdio_output@@@2@@__crt_stdio_output@@QEAA@AEBV?$stream_output_adapter@_W@1@_KQEB_WAEAV__crt_cached_ptd_host@@QEAD@Z 000000018006e9f0 f i libucrtd:output.obj
 0001:0006da40       ??0?$output_processor@_WV?$string_output_adapter@_W@__crt_stdio_output@@V?$format_validation_base@_WV?$string_output_adapter@_W@__crt_stdio_output@@@2@@__crt_stdio_output@@QEAA@AEBV?$string_output_adapter@_W@1@_KQEB_WAEAV__crt_cached_ptd_host@@QEAD@Z 000000018006ea40 f i libucrtd:output.obj
 0001:0006da90       ??0?$output_processor@_WV?$string_output_adapter@_W@__crt_stdio_output@@V?$positional_parameter_base@_WV?$string_output_adapter@_W@__crt_stdio_output@@@2@@__crt_stdio_output@@QEAA@AEBV?$string_output_adapter@_W@1@_KQEB_WAEAV__crt_cached_ptd_host@@QEAD@Z 000000018006ea90 f i libucrtd:output.obj
 0001:0006dae0       ??0?$output_processor@_WV?$string_output_adapter@_W@__crt_stdio_output@@V?$standard_base@_WV?$string_output_adapter@_W@__crt_stdio_output@@@2@@__crt_stdio_output@@QEAA@AEBV?$string_output_adapter@_W@1@_KQEB_WAEAV__crt_cached_ptd_host@@QEAD@Z 000000018006eae0 f i libucrtd:output.obj
 0001:0006db30       ??0?$stream_output_adapter@D@__crt_stdio_output@@QEAA@QEAU_iobuf@@@Z 000000018006eb30 f i libucrtd:output.obj
 0001:0006db70       ??0?$stream_output_adapter@_W@__crt_stdio_output@@QEAA@QEAU_iobuf@@@Z 000000018006eb70 f i libucrtd:output.obj
 0001:0006dbb0       ??0?$string_output_adapter@D@__crt_stdio_output@@QEAA@QEAU?$string_output_adapter_context@D@1@@Z 000000018006ebb0 f i libucrtd:output.obj
 0001:0006dbd0       ??0?$string_output_adapter@_W@__crt_stdio_output@@QEAA@QEAU?$string_output_adapter_context@_W@1@@Z 000000018006ebd0 f i libucrtd:output.obj
 0001:0006dbf0       ??0__acrt_stdio_temporary_buffering_guard@@QEAA@QEAU_iobuf@@AEAV__crt_cached_ptd_host@@@Z 000000018006ebf0 f i libucrtd:output.obj
 0001:0006dc40       ??0__crt_cached_ptd_host@@QEAA@QEAU__crt_locale_pointers@@@Z 000000018006ec40 f i libucrtd:output.obj
 0001:0006dd00       ??0__crt_scoped_get_last_error_reset@@QEAA@XZ 000000018006ed00 f i libucrtd:output.obj
 0001:0006dd20       ??0__crt_stdio_stream@@QEAA@QEAU_iobuf@@@Z 000000018006ed20 f i libucrtd:output.obj
 0001:0006dd40       ??0formatting_buffer@__crt_stdio_output@@QEAA@XZ 000000018006ed40 f i libucrtd:output.obj
 0001:0006dd80       ??0guard@?$cached@H@__crt_cached_ptd_host@@QEAA@AEAU12@@Z 000000018006ed80 f i libucrtd:output.obj
 0001:0006ddc0       ??1?$c_string_character_source@D@__crt_strtox@@QEAA@XZ 000000018006edc0 f i libucrtd:output.obj
 0001:0006ddf0       ??1?$c_string_character_source@_W@__crt_strtox@@QEAA@XZ 000000018006edf0 f i libucrtd:output.obj
 0001:0006de20       ??1?$common_data@D@__crt_stdio_output@@QEAA@XZ 000000018006ee20 f i libucrtd:output.obj
 0001:0006de40       ??1?$common_data@_W@__crt_stdio_output@@QEAA@XZ 000000018006ee40 f i libucrtd:output.obj
 0001:0006de60       ??1?$format_validation_base@DV?$stream_output_adapter@D@__crt_stdio_output@@@__crt_stdio_output@@QEAA@XZ 000000018006ee60 f i libucrtd:output.obj
 0001:0006de80       ??1?$format_validation_base@DV?$string_output_adapter@D@__crt_stdio_output@@@__crt_stdio_output@@QEAA@XZ 000000018006ee80 f i libucrtd:output.obj
 0001:0006dea0       ??1?$format_validation_base@_WV?$stream_output_adapter@_W@__crt_stdio_output@@@__crt_stdio_output@@QEAA@XZ 000000018006eea0 f i libucrtd:output.obj
 0001:0006dec0       ??1?$format_validation_base@_WV?$string_output_adapter@_W@__crt_stdio_output@@@__crt_stdio_output@@QEAA@XZ 000000018006eec0 f i libucrtd:output.obj
 0001:0006dee0       ??1?$output_adapter_data@DV?$stream_output_adapter@D@__crt_stdio_output@@@__crt_stdio_output@@QEAA@XZ 000000018006eee0 f i libucrtd:output.obj
 0001:0006df00       ??1?$output_adapter_data@DV?$string_output_adapter@D@__crt_stdio_output@@@__crt_stdio_output@@QEAA@XZ 000000018006ef00 f i libucrtd:output.obj
 0001:0006df20       ??1?$output_adapter_data@_WV?$stream_output_adapter@_W@__crt_stdio_output@@@__crt_stdio_output@@QEAA@XZ 000000018006ef20 f i libucrtd:output.obj
 0001:0006df40       ??1?$output_adapter_data@_WV?$string_output_adapter@_W@__crt_stdio_output@@@__crt_stdio_output@@QEAA@XZ 000000018006ef40 f i libucrtd:output.obj
 0001:0006df60       ??1?$output_processor@DV?$stream_output_adapter@D@__crt_stdio_output@@V?$format_validation_base@DV?$stream_output_adapter@D@__crt_stdio_output@@@2@@__crt_stdio_output@@QEAA@XZ 000000018006ef60 f i libucrtd:output.obj
 0001:0006df80       ??1?$output_processor@DV?$stream_output_adapter@D@__crt_stdio_output@@V?$positional_parameter_base@DV?$stream_output_adapter@D@__crt_stdio_output@@@2@@__crt_stdio_output@@QEAA@XZ 000000018006ef80 f i libucrtd:output.obj
 0001:0006dfa0       ??1?$output_processor@DV?$stream_output_adapter@D@__crt_stdio_output@@V?$standard_base@DV?$stream_output_adapter@D@__crt_stdio_output@@@2@@__crt_stdio_output@@QEAA@XZ 000000018006efa0 f i libucrtd:output.obj
 0001:0006dfc0       ??1?$output_processor@DV?$string_output_adapter@D@__crt_stdio_output@@V?$format_validation_base@DV?$string_output_adapter@D@__crt_stdio_output@@@2@@__crt_stdio_output@@QEAA@XZ 000000018006efc0 f i libucrtd:output.obj
 0001:0006dfe0       ??1?$output_processor@DV?$string_output_adapter@D@__crt_stdio_output@@V?$positional_parameter_base@DV?$string_output_adapter@D@__crt_stdio_output@@@2@@__crt_stdio_output@@QEAA@XZ 000000018006efe0 f i libucrtd:output.obj
 0001:0006e000       ??1?$output_processor@DV?$string_output_adapter@D@__crt_stdio_output@@V?$standard_base@DV?$string_output_adapter@D@__crt_stdio_output@@@2@@__crt_stdio_output@@QEAA@XZ 000000018006f000 f i libucrtd:output.obj
 0001:0006e020       ??1?$output_processor@_WV?$stream_output_adapter@_W@__crt_stdio_output@@V?$format_validation_base@_WV?$stream_output_adapter@_W@__crt_stdio_output@@@2@@__crt_stdio_output@@QEAA@XZ 000000018006f020 f i libucrtd:output.obj
 0001:0006e040       ??1?$output_processor@_WV?$stream_output_adapter@_W@__crt_stdio_output@@V?$positional_parameter_base@_WV?$stream_output_adapter@_W@__crt_stdio_output@@@2@@__crt_stdio_output@@QEAA@XZ 000000018006f040 f i libucrtd:output.obj
 0001:0006e060       ??1?$output_processor@_WV?$stream_output_adapter@_W@__crt_stdio_output@@V?$standard_base@_WV?$stream_output_adapter@_W@__crt_stdio_output@@@2@@__crt_stdio_output@@QEAA@XZ 000000018006f060 f i libucrtd:output.obj
 0001:0006e080       ??1?$output_processor@_WV?$string_output_adapter@_W@__crt_stdio_output@@V?$format_validation_base@_WV?$string_output_adapter@_W@__crt_stdio_output@@@2@@__crt_stdio_output@@QEAA@XZ 000000018006f080 f i libucrtd:output.obj
 0001:0006e0a0       ??1?$output_processor@_WV?$string_output_adapter@_W@__crt_stdio_output@@V?$positional_parameter_base@_WV?$string_output_adapter@_W@__crt_stdio_output@@@2@@__crt_stdio_output@@QEAA@XZ 000000018006f0a0 f i libucrtd:output.obj
 0001:0006e0c0       ??1?$output_processor@_WV?$string_output_adapter@_W@__crt_stdio_output@@V?$standard_base@_WV?$string_output_adapter@_W@__crt_stdio_output@@@2@@__crt_stdio_output@@QEAA@XZ 000000018006f0c0 f i libucrtd:output.obj
 0001:0006e0e0       ??1?$positional_parameter_base@DV?$stream_output_adapter@D@__crt_stdio_output@@@__crt_stdio_output@@QEAA@XZ 000000018006f0e0 f i libucrtd:output.obj
 0001:0006e100       ??1?$positional_parameter_base@DV?$string_output_adapter@D@__crt_stdio_output@@@__crt_stdio_output@@QEAA@XZ 000000018006f100 f i libucrtd:output.obj
 0001:0006e120       ??1?$positional_parameter_base@_WV?$stream_output_adapter@_W@__crt_stdio_output@@@__crt_stdio_output@@QEAA@XZ 000000018006f120 f i libucrtd:output.obj
 0001:0006e140       ??1?$positional_parameter_base@_WV?$string_output_adapter@_W@__crt_stdio_output@@@__crt_stdio_output@@QEAA@XZ 000000018006f140 f i libucrtd:output.obj
 0001:0006e160       ??1?$standard_base@DV?$stream_output_adapter@D@__crt_stdio_output@@@__crt_stdio_output@@QEAA@XZ 000000018006f160 f i libucrtd:output.obj
 0001:0006e180       ??1?$standard_base@DV?$string_output_adapter@D@__crt_stdio_output@@@__crt_stdio_output@@QEAA@XZ 000000018006f180 f i libucrtd:output.obj
 0001:0006e1a0       ??1?$standard_base@_WV?$stream_output_adapter@_W@__crt_stdio_output@@@__crt_stdio_output@@QEAA@XZ 000000018006f1a0 f i libucrtd:output.obj
 0001:0006e1c0       ??1?$standard_base@_WV?$string_output_adapter@_W@__crt_stdio_output@@@__crt_stdio_output@@QEAA@XZ 000000018006f1c0 f i libucrtd:output.obj
 0001:0006e1e0       ??1__acrt_stdio_temporary_buffering_guard@@QEAA@XZ 000000018006f1e0 f i libucrtd:output.obj
 0001:0006e210       ??1__crt_cached_ptd_host@@QEAA@XZ 000000018006f210 f i libucrtd:output.obj
 0001:0006e2c0       ??1__crt_scoped_get_last_error_reset@@QEAA@XZ 000000018006f2c0 f i libucrtd:output.obj
 0001:0006e2e0       ??1formatting_buffer@__crt_stdio_output@@QEAA@XZ 000000018006f2e0 f i libucrtd:output.obj
 0001:0006e310       ??1guard@?$cached@H@__crt_cached_ptd_host@@QEAA@XZ 000000018006f310 f i libucrtd:output.obj
 0001:0006e340       ??4?$__crt_unique_heap_ptr@DU__crt_internal_free_policy@@@@QEAAAEAV0@$$QEAV0@@Z 000000018006f340 f i libucrtd:output.obj
 0001:0006e380       ??A?$spectre_mitigated_lookup_table@Ustate_transition_pair@__crt_stdio_output@@$0IA@@__crt_stdio_output@@QEBAAEBUstate_transition_pair@1@_K@Z 000000018006f380 f i libucrtd:output.obj
 0001:0006e3a0       ??C__crt_stdio_stream@@QEBAPEAU__crt_stdio_stream_data@@XZ 000000018006f3a0 f i libucrtd:output.obj
 0001:0006ebf0       ?__crt_interlocked_read_32@@YAHPEDH@Z 000000018006fbf0 f i libucrtd:output.obj
 0001:0006ec10       ?adjust_hexit@?$output_processor@DV?$stream_output_adapter@D@__crt_stdio_output@@V?$format_validation_base@DV?$stream_output_adapter@D@__crt_stdio_output@@@2@@__crt_stdio_output@@CADH_N@Z 000000018006fc10 f i libucrtd:output.obj
 0001:0006ec60       ?adjust_hexit@?$output_processor@DV?$stream_output_adapter@D@__crt_stdio_output@@V?$positional_parameter_base@DV?$stream_output_adapter@D@__crt_stdio_output@@@2@@__crt_stdio_output@@CADH_N@Z 000000018006fc60 f i libucrtd:output.obj
 0001:0006ecb0       ?adjust_hexit@?$output_processor@DV?$stream_output_adapter@D@__crt_stdio_output@@V?$standard_base@DV?$stream_output_adapter@D@__crt_stdio_output@@@2@@__crt_stdio_output@@CADH_N@Z 000000018006fcb0 f i libucrtd:output.obj
 0001:0006ed00       ?adjust_hexit@?$output_processor@DV?$string_output_adapter@D@__crt_stdio_output@@V?$format_validation_base@DV?$string_output_adapter@D@__crt_stdio_output@@@2@@__crt_stdio_output@@CADH_N@Z 000000018006fd00 f i libucrtd:output.obj
 0001:0006ed50       ?adjust_hexit@?$output_processor@DV?$string_output_adapter@D@__crt_stdio_output@@V?$positional_parameter_base@DV?$string_output_adapter@D@__crt_stdio_output@@@2@@__crt_stdio_output@@CADH_N@Z 000000018006fd50 f i libucrtd:output.obj
 0001:0006eda0       ?adjust_hexit@?$output_processor@DV?$string_output_adapter@D@__crt_stdio_output@@V?$standard_base@DV?$string_output_adapter@D@__crt_stdio_output@@@2@@__crt_stdio_output@@CADH_N@Z 000000018006fda0 f i libucrtd:output.obj
 0001:0006edf0       ?adjust_hexit@?$output_processor@_WV?$stream_output_adapter@_W@__crt_stdio_output@@V?$format_validation_base@_WV?$stream_output_adapter@_W@__crt_stdio_output@@@2@@__crt_stdio_output@@CADH_N@Z 000000018006fdf0 f i libucrtd:output.obj
 0001:0006ee40       ?adjust_hexit@?$output_processor@_WV?$stream_output_adapter@_W@__crt_stdio_output@@V?$positional_parameter_base@_WV?$stream_output_adapter@_W@__crt_stdio_output@@@2@@__crt_stdio_output@@CADH_N@Z 000000018006fe40 f i libucrtd:output.obj
 0001:0006ee90       ?adjust_hexit@?$output_processor@_WV?$stream_output_adapter@_W@__crt_stdio_output@@V?$standard_base@_WV?$stream_output_adapter@_W@__crt_stdio_output@@@2@@__crt_stdio_output@@CADH_N@Z 000000018006fe90 f i libucrtd:output.obj
 0001:0006eee0       ?adjust_hexit@?$output_processor@_WV?$string_output_adapter@_W@__crt_stdio_output@@V?$format_validation_base@_WV?$string_output_adapter@_W@__crt_stdio_output@@@2@@__crt_stdio_output@@CADH_N@Z 000000018006fee0 f i libucrtd:output.obj
 0001:0006ef30       ?adjust_hexit@?$output_processor@_WV?$string_output_adapter@_W@__crt_stdio_output@@V?$positional_parameter_base@_WV?$string_output_adapter@_W@__crt_stdio_output@@@2@@__crt_stdio_output@@CADH_N@Z 000000018006ff30 f i libucrtd:output.obj
 0001:0006ef80       ?adjust_hexit@?$output_processor@_WV?$string_output_adapter@_W@__crt_stdio_output@@V?$standard_base@_WV?$string_output_adapter@_W@__crt_stdio_output@@@2@@__crt_stdio_output@@CADH_N@Z 000000018006ff80 f i libucrtd:output.obj
 0001:0006efd0       ?advance_to_next_pass@?$positional_parameter_base@DV?$stream_output_adapter@D@__crt_stdio_output@@@__crt_stdio_output@@IEAA_NXZ 000000018006ffd0 f i libucrtd:output.obj
 0001:0006f080       ?advance_to_next_pass@?$positional_parameter_base@DV?$string_output_adapter@D@__crt_stdio_output@@@__crt_stdio_output@@IEAA_NXZ 0000000180070080 f i libucrtd:output.obj
 0001:0006f130       ?advance_to_next_pass@?$positional_parameter_base@_WV?$stream_output_adapter@_W@__crt_stdio_output@@@__crt_stdio_output@@IEAA_NXZ 0000000180070130 f i libucrtd:output.obj
 0001:0006f1e0       ?advance_to_next_pass@?$positional_parameter_base@_WV?$string_output_adapter@_W@__crt_stdio_output@@@__crt_stdio_output@@IEAA_NXZ 00000001800701e0 f i libucrtd:output.obj
 0001:0006f290       ?advance_to_next_pass@?$standard_base@DV?$stream_output_adapter@D@__crt_stdio_output@@@__crt_stdio_output@@IEAA_NXZ 0000000180070290 f i libucrtd:output.obj
 0001:0006f2e0       ?advance_to_next_pass@?$standard_base@DV?$string_output_adapter@D@__crt_stdio_output@@@__crt_stdio_output@@IEAA_NXZ 00000001800702e0 f i libucrtd:output.obj
 0001:0006f330       ?advance_to_next_pass@?$standard_base@_WV?$stream_output_adapter@_W@__crt_stdio_output@@@__crt_stdio_output@@IEAA_NXZ 0000000180070330 f i libucrtd:output.obj
 0001:0006f380       ?advance_to_next_pass@?$standard_base@_WV?$string_output_adapter@_W@__crt_stdio_output@@@__crt_stdio_output@@IEAA_NXZ 0000000180070380 f i libucrtd:output.obj
 0001:0006f3d0       ?check@?$cached@H@__crt_cached_ptd_host@@QEBA_NH@Z 00000001800703d0 f i libucrtd:output.obj
 0001:0006f410       ?check_synchronize_global_state_index@__crt_cached_ptd_host@@AEAA_KAEBV__crt_scoped_get_last_error_reset@@@Z 0000000180070410 f i libucrtd:output.obj
 0001:0006f450       ?check_synchronize_per_thread_data@__crt_cached_ptd_host@@AEAAPEAU__acrt_ptd@@XZ 0000000180070450 f i libucrtd:output.obj
 0001:0006f490       ?create_guard@?$cached@H@__crt_cached_ptd_host@@QEAA?AVguard@12@XZ 0000000180070490 f i libucrtd:output.obj
 0001:0006f4c0       ?crop_zeroes@__crt_stdio_output@@YAXPEADQEAU__crt_locale_pointers@@@Z 00000001800704c0 f i libucrtd:output.obj
 0001:0006f610       ?disable@guard@?$cached@H@__crt_cached_ptd_host@@QEAAXXZ 0000000180070610 f i libucrtd:output.obj
 0001:0006f620       ?enable@guard@?$cached@H@__crt_cached_ptd_host@@QEAAXXZ 0000000180070620 f i libucrtd:output.obj
 0001:0006f630       ?find_next_state@?$output_processor@DV?$stream_output_adapter@D@__crt_stdio_output@@V?$format_validation_base@DV?$stream_output_adapter@D@__crt_stdio_output@@@2@@__crt_stdio_output@@AEBA?AW4state@2@DW432@@Z 0000000180070630 f i libucrtd:output.obj
 0001:0006f6d0       ?find_next_state@?$output_processor@DV?$stream_output_adapter@D@__crt_stdio_output@@V?$positional_parameter_base@DV?$stream_output_adapter@D@__crt_stdio_output@@@2@@__crt_stdio_output@@AEBA?AW4state@2@DW432@@Z 00000001800706d0 f i libucrtd:output.obj
 0001:0006f770       ?find_next_state@?$output_processor@DV?$stream_output_adapter@D@__crt_stdio_output@@V?$standard_base@DV?$stream_output_adapter@D@__crt_stdio_output@@@2@@__crt_stdio_output@@AEBA?AW4state@2@DW432@@Z 0000000180070770 f i libucrtd:output.obj
 0001:0006f810       ?find_next_state@?$output_processor@DV?$string_output_adapter@D@__crt_stdio_output@@V?$format_validation_base@DV?$string_output_adapter@D@__crt_stdio_output@@@2@@__crt_stdio_output@@AEBA?AW4state@2@DW432@@Z 0000000180070810 f i libucrtd:output.obj
 0001:0006f8b0       ?find_next_state@?$output_processor@DV?$string_output_adapter@D@__crt_stdio_output@@V?$positional_parameter_base@DV?$string_output_adapter@D@__crt_stdio_output@@@2@@__crt_stdio_output@@AEBA?AW4state@2@DW432@@Z 00000001800708b0 f i libucrtd:output.obj
 0001:0006f950       ?find_next_state@?$output_processor@DV?$string_output_adapter@D@__crt_stdio_output@@V?$standard_base@DV?$string_output_adapter@D@__crt_stdio_output@@@2@@__crt_stdio_output@@AEBA?AW4state@2@DW432@@Z 0000000180070950 f i libucrtd:output.obj
 0001:0006f9f0       ?find_next_state@?$output_processor@_WV?$stream_output_adapter@_W@__crt_stdio_output@@V?$format_validation_base@_WV?$stream_output_adapter@_W@__crt_stdio_output@@@2@@__crt_stdio_output@@AEBA?AW4state@2@_WW432@@Z 00000001800709f0 f i libucrtd:output.obj
 0001:0006fa90       ?find_next_state@?$output_processor@_WV?$stream_output_adapter@_W@__crt_stdio_output@@V?$positional_parameter_base@_WV?$stream_output_adapter@_W@__crt_stdio_output@@@2@@__crt_stdio_output@@AEBA?AW4state@2@_WW432@@Z 0000000180070a90 f i libucrtd:output.obj
 0001:0006fb30       ?find_next_state@?$output_processor@_WV?$stream_output_adapter@_W@__crt_stdio_output@@V?$standard_base@_WV?$stream_output_adapter@_W@__crt_stdio_output@@@2@@__crt_stdio_output@@AEBA?AW4state@2@_WW432@@Z 0000000180070b30 f i libucrtd:output.obj
 0001:0006fbd0       ?find_next_state@?$output_processor@_WV?$string_output_adapter@_W@__crt_stdio_output@@V?$format_validation_base@_WV?$string_output_adapter@_W@__crt_stdio_output@@@2@@__crt_stdio_output@@AEBA?AW4state@2@_WW432@@Z 0000000180070bd0 f i libucrtd:output.obj
 0001:0006fc70       ?find_next_state@?$output_processor@_WV?$string_output_adapter@_W@__crt_stdio_output@@V?$positional_parameter_base@_WV?$string_output_adapter@_W@__crt_stdio_output@@@2@@__crt_stdio_output@@AEBA?AW4state@2@_WW432@@Z 0000000180070c70 f i libucrtd:output.obj
 0001:0006fd10       ?find_next_state@?$output_processor@_WV?$string_output_adapter@_W@__crt_stdio_output@@V?$standard_base@_WV?$string_output_adapter@_W@__crt_stdio_output@@@2@@__crt_stdio_output@@AEBA?AW4state@2@_WW432@@Z 0000000180070d10 f i libucrtd:output.obj
 0001:0006fdb0       ?force_decimal_point@__crt_stdio_output@@YAXPEADQEAU__crt_locale_pointers@@@Z 0000000180070db0 f i libucrtd:output.obj
 0001:0006feb0       ?force_synchronize_global_state_index@__crt_cached_ptd_host@@AEAA_KAEBV__crt_scoped_get_last_error_reset@@@Z 0000000180070eb0 f i libucrtd:output.obj
 0001:0006fef0       ?force_synchronize_per_thread_data@__crt_cached_ptd_host@@AEAAPEAU__acrt_ptd@@XZ 0000000180070ef0 f i libucrtd:output.obj
 0001:0006ff50       ?get@?$c_string_character_source@D@__crt_strtox@@QEAADXZ 0000000180070f50 f i libucrtd:output.obj
 0001:0006ff90       ?get@?$c_string_character_source@_W@__crt_strtox@@QEAA_WXZ 0000000180070f90 f i libucrtd:output.obj
 0001:0006ffd0       ?get_current_state_index@__crt_state_management@@YA_KAEBV__crt_scoped_get_last_error_reset@@@Z 0000000180070fd0 f i libucrtd:output.obj
 0001:0006ffe0       ?get_errno@__crt_cached_ptd_host@@QEAAAEAU?$cached@H@1@XZ 0000000180070fe0 f i libucrtd:output.obj
 0001:0006fff0       ?get_flags@__crt_stdio_stream@@QEBAJXZ 0000000180070ff0 f i libucrtd:output.obj
 0001:00070020       ?get_locale@__crt_cached_ptd_host@@QEAAPEAU__crt_locale_pointers@@XZ 0000000180071020 f i libucrtd:output.obj
 0001:00070050       ?get_parameter_type@?$positional_parameter_base@DV?$stream_output_adapter@D@__crt_stdio_output@@@__crt_stdio_output@@CA?AW4parameter_type@12@F@Z 0000000180071050 f i libucrtd:output.obj
 0001:00070060       ?get_parameter_type@?$positional_parameter_base@DV?$stream_output_adapter@D@__crt_stdio_output@@@__crt_stdio_output@@CA?AW4parameter_type@12@G@Z 0000000180071060 f i libucrtd:output.obj
 0001:00070070       ?get_parameter_type@?$positional_parameter_base@DV?$stream_output_adapter@D@__crt_stdio_output@@@__crt_stdio_output@@CA?AW4parameter_type@12@H@Z 0000000180071070 f i libucrtd:output.obj
 0001:00070080       ?get_parameter_type@?$positional_parameter_base@DV?$stream_output_adapter@D@__crt_stdio_output@@@__crt_stdio_output@@CA?AW4parameter_type@12@I@Z 0000000180071080 f i libucrtd:output.obj
 0001:00070090       ?get_parameter_type@?$positional_parameter_base@DV?$stream_output_adapter@D@__crt_stdio_output@@@__crt_stdio_output@@CA?AW4parameter_type@12@U_CRT_DOUBLE@@@Z 0000000180071090 f i libucrtd:output.obj
 0001:000700a0       ?get_parameter_type@?$positional_parameter_base@DV?$stream_output_adapter@D@__crt_stdio_output@@@__crt_stdio_output@@CA?AW4parameter_type@12@_J@Z 00000001800710a0 f i libucrtd:output.obj
 0001:000700b0       ?get_parameter_type@?$positional_parameter_base@DV?$stream_output_adapter@D@__crt_stdio_output@@@__crt_stdio_output@@CA?AW4parameter_type@12@_K@Z 00000001800710b0 f i libucrtd:output.obj
 0001:000700c0       ?get_parameter_type@?$positional_parameter_base@DV?$stream_output_adapter@D@__crt_stdio_output@@@__crt_stdio_output@@CA?AW4parameter_type@12@_W@Z 00000001800710c0 f i libucrtd:output.obj
 0001:000700d0       ?get_parameter_type@?$positional_parameter_base@DV?$string_output_adapter@D@__crt_stdio_output@@@__crt_stdio_output@@CA?AW4parameter_type@12@F@Z 00000001800710d0 f i libucrtd:output.obj
 0001:000700e0       ?get_parameter_type@?$positional_parameter_base@DV?$string_output_adapter@D@__crt_stdio_output@@@__crt_stdio_output@@CA?AW4parameter_type@12@G@Z 00000001800710e0 f i libucrtd:output.obj
 0001:000700f0       ?get_parameter_type@?$positional_parameter_base@DV?$string_output_adapter@D@__crt_stdio_output@@@__crt_stdio_output@@CA?AW4parameter_type@12@H@Z 00000001800710f0 f i libucrtd:output.obj
 0001:00070100       ?get_parameter_type@?$positional_parameter_base@DV?$string_output_adapter@D@__crt_stdio_output@@@__crt_stdio_output@@CA?AW4parameter_type@12@I@Z 0000000180071100 f i libucrtd:output.obj
 0001:00070110       ?get_parameter_type@?$positional_parameter_base@DV?$string_output_adapter@D@__crt_stdio_output@@@__crt_stdio_output@@CA?AW4parameter_type@12@U_CRT_DOUBLE@@@Z 0000000180071110 f i libucrtd:output.obj
 0001:00070120       ?get_parameter_type@?$positional_parameter_base@DV?$string_output_adapter@D@__crt_stdio_output@@@__crt_stdio_output@@CA?AW4parameter_type@12@_J@Z 0000000180071120 f i libucrtd:output.obj
 0001:00070130       ?get_parameter_type@?$positional_parameter_base@DV?$string_output_adapter@D@__crt_stdio_output@@@__crt_stdio_output@@CA?AW4parameter_type@12@_K@Z 0000000180071130 f i libucrtd:output.obj
 0001:00070140       ?get_parameter_type@?$positional_parameter_base@DV?$string_output_adapter@D@__crt_stdio_output@@@__crt_stdio_output@@CA?AW4parameter_type@12@_W@Z 0000000180071140 f i libucrtd:output.obj
 0001:00070150       ?get_parameter_type@?$positional_parameter_base@_WV?$stream_output_adapter@_W@__crt_stdio_output@@@__crt_stdio_output@@CA?AW4parameter_type@12@F@Z 0000000180071150 f i libucrtd:output.obj
 0001:00070160       ?get_parameter_type@?$positional_parameter_base@_WV?$stream_output_adapter@_W@__crt_stdio_output@@@__crt_stdio_output@@CA?AW4parameter_type@12@G@Z 0000000180071160 f i libucrtd:output.obj
 0001:00070170       ?get_parameter_type@?$positional_parameter_base@_WV?$stream_output_adapter@_W@__crt_stdio_output@@@__crt_stdio_output@@CA?AW4parameter_type@12@H@Z 0000000180071170 f i libucrtd:output.obj
 0001:00070180       ?get_parameter_type@?$positional_parameter_base@_WV?$stream_output_adapter@_W@__crt_stdio_output@@@__crt_stdio_output@@CA?AW4parameter_type@12@I@Z 0000000180071180 f i libucrtd:output.obj
 0001:00070190       ?get_parameter_type@?$positional_parameter_base@_WV?$stream_output_adapter@_W@__crt_stdio_output@@@__crt_stdio_output@@CA?AW4parameter_type@12@U_CRT_DOUBLE@@@Z 0000000180071190 f i libucrtd:output.obj
 0001:000701a0       ?get_parameter_type@?$positional_parameter_base@_WV?$stream_output_adapter@_W@__crt_stdio_output@@@__crt_stdio_output@@CA?AW4parameter_type@12@_J@Z 00000001800711a0 f i libucrtd:output.obj
 0001:000701b0       ?get_parameter_type@?$positional_parameter_base@_WV?$stream_output_adapter@_W@__crt_stdio_output@@@__crt_stdio_output@@CA?AW4parameter_type@12@_K@Z 00000001800711b0 f i libucrtd:output.obj
 0001:000701c0       ?get_parameter_type@?$positional_parameter_base@_WV?$stream_output_adapter@_W@__crt_stdio_output@@@__crt_stdio_output@@CA?AW4parameter_type@12@_W@Z 00000001800711c0 f i libucrtd:output.obj
 0001:000701d0       ?get_parameter_type@?$positional_parameter_base@_WV?$string_output_adapter@_W@__crt_stdio_output@@@__crt_stdio_output@@CA?AW4parameter_type@12@F@Z 00000001800711d0 f i libucrtd:output.obj
 0001:000701e0       ?get_parameter_type@?$positional_parameter_base@_WV?$string_output_adapter@_W@__crt_stdio_output@@@__crt_stdio_output@@CA?AW4parameter_type@12@G@Z 00000001800711e0 f i libucrtd:output.obj
 0001:000701f0       ?get_parameter_type@?$positional_parameter_base@_WV?$string_output_adapter@_W@__crt_stdio_output@@@__crt_stdio_output@@CA?AW4parameter_type@12@H@Z 00000001800711f0 f i libucrtd:output.obj
 0001:00070200       ?get_parameter_type@?$positional_parameter_base@_WV?$string_output_adapter@_W@__crt_stdio_output@@@__crt_stdio_output@@CA?AW4parameter_type@12@I@Z 0000000180071200 f i libucrtd:output.obj
 0001:00070210       ?get_parameter_type@?$positional_parameter_base@_WV?$string_output_adapter@_W@__crt_stdio_output@@@__crt_stdio_output@@CA?AW4parameter_type@12@U_CRT_DOUBLE@@@Z 0000000180071210 f i libucrtd:output.obj
 0001:00070220       ?get_parameter_type@?$positional_parameter_base@_WV?$string_output_adapter@_W@__crt_stdio_output@@@__crt_stdio_output@@CA?AW4parameter_type@12@_J@Z 0000000180071220 f i libucrtd:output.obj
 0001:00070230       ?get_parameter_type@?$positional_parameter_base@_WV?$string_output_adapter@_W@__crt_stdio_output@@@__crt_stdio_output@@CA?AW4parameter_type@12@_K@Z 0000000180071230 f i libucrtd:output.obj
 0001:00070240       ?get_parameter_type@?$positional_parameter_base@_WV?$string_output_adapter@_W@__crt_stdio_output@@@__crt_stdio_output@@CA?AW4parameter_type@12@_W@Z 0000000180071240 f i libucrtd:output.obj
 0001:00070250       ?get_raw_ptd@__crt_cached_ptd_host@@QEAAPEAU__acrt_ptd@@XZ 0000000180071250 f i libucrtd:output.obj
 0001:00070270       ?has_flag@?$output_processor@DV?$stream_output_adapter@D@__crt_stdio_output@@V?$format_validation_base@DV?$stream_output_adapter@D@__crt_stdio_output@@@2@@__crt_stdio_output@@AEBA_NI@Z 0000000180071270 f i libucrtd:output.obj
 0001:000702b0       ?has_flag@?$output_processor@DV?$stream_output_adapter@D@__crt_stdio_output@@V?$positional_parameter_base@DV?$stream_output_adapter@D@__crt_stdio_output@@@2@@__crt_stdio_output@@AEBA_NI@Z 00000001800712b0 f i libucrtd:output.obj
 0001:000702f0       ?has_flag@?$output_processor@DV?$stream_output_adapter@D@__crt_stdio_output@@V?$standard_base@DV?$stream_output_adapter@D@__crt_stdio_output@@@2@@__crt_stdio_output@@AEBA_NI@Z 00000001800712f0 f i libucrtd:output.obj
 0001:00070330       ?has_flag@?$output_processor@DV?$string_output_adapter@D@__crt_stdio_output@@V?$format_validation_base@DV?$string_output_adapter@D@__crt_stdio_output@@@2@@__crt_stdio_output@@AEBA_NI@Z 0000000180071330 f i libucrtd:output.obj
 0001:00070370       ?has_flag@?$output_processor@DV?$string_output_adapter@D@__crt_stdio_output@@V?$positional_parameter_base@DV?$string_output_adapter@D@__crt_stdio_output@@@2@@__crt_stdio_output@@AEBA_NI@Z 0000000180071370 f i libucrtd:output.obj
 0001:000703b0       ?has_flag@?$output_processor@DV?$string_output_adapter@D@__crt_stdio_output@@V?$standard_base@DV?$string_output_adapter@D@__crt_stdio_output@@@2@@__crt_stdio_output@@AEBA_NI@Z 00000001800713b0 f i libucrtd:output.obj
 0001:000703f0       ?has_flag@?$output_processor@_WV?$stream_output_adapter@_W@__crt_stdio_output@@V?$format_validation_base@_WV?$stream_output_adapter@_W@__crt_stdio_output@@@2@@__crt_stdio_output@@AEBA_NI@Z 00000001800713f0 f i libucrtd:output.obj
 0001:00070430       ?has_flag@?$output_processor@_WV?$stream_output_adapter@_W@__crt_stdio_output@@V?$positional_parameter_base@_WV?$stream_output_adapter@_W@__crt_stdio_output@@@2@@__crt_stdio_output@@AEBA_NI@Z 0000000180071430 f i libucrtd:output.obj
 0001:00070470       ?has_flag@?$output_processor@_WV?$stream_output_adapter@_W@__crt_stdio_output@@V?$standard_base@_WV?$stream_output_adapter@_W@__crt_stdio_output@@@2@@__crt_stdio_output@@AEBA_NI@Z 0000000180071470 f i libucrtd:output.obj
 0001:000704b0       ?has_flag@?$output_processor@_WV?$string_output_adapter@_W@__crt_stdio_output@@V?$format_validation_base@_WV?$string_output_adapter@_W@__crt_stdio_output@@@2@@__crt_stdio_output@@AEBA_NI@Z 00000001800714b0 f i libucrtd:output.obj
 0001:000704f0       ?has_flag@?$output_processor@_WV?$string_output_adapter@_W@__crt_stdio_output@@V?$positional_parameter_base@_WV?$string_output_adapter@_W@__crt_stdio_output@@@2@@__crt_stdio_output@@AEBA_NI@Z 00000001800714f0 f i libucrtd:output.obj
 0001:00070530       ?has_flag@?$output_processor@_WV?$string_output_adapter@_W@__crt_stdio_output@@V?$standard_base@_WV?$string_output_adapter@_W@__crt_stdio_output@@@2@@__crt_stdio_output@@AEBA_NI@Z 0000000180071530 f i libucrtd:output.obj
 0001:00070570       ?is_positional_parameter_reappearance_consistent@?$positional_parameter_base@DV?$stream_output_adapter@D@__crt_stdio_output@@@__crt_stdio_output@@AEAA_NAEBUparameter_data@12@W4parameter_type@12@DW4length_modifier@2@@Z 0000000180071570 f i libucrtd:output.obj
 0001:000707d0       ?is_positional_parameter_reappearance_consistent@?$positional_parameter_base@DV?$string_output_adapter@D@__crt_stdio_output@@@__crt_stdio_output@@AEAA_NAEBUparameter_data@12@W4parameter_type@12@DW4length_modifier@2@@Z 00000001800717d0 f i libucrtd:output.obj
 0001:00070a30       ?is_positional_parameter_reappearance_consistent@?$positional_parameter_base@_WV?$stream_output_adapter@_W@__crt_stdio_output@@@__crt_stdio_output@@AEAA_NAEBUparameter_data@12@W4parameter_type@12@_WW4length_modifier@2@@Z 0000000180071a30 f i libucrtd:output.obj
 0001:00070c90       ?is_positional_parameter_reappearance_consistent@?$positional_parameter_base@_WV?$string_output_adapter@_W@__crt_stdio_output@@@__crt_stdio_output@@AEAA_NAEBUparameter_data@12@W4parameter_type@12@_WW4length_modifier@2@@Z 0000000180071c90 f i libucrtd:output.obj
 0001:00070ef0       ?is_string_backed@__crt_stdio_stream@@QEBA_NXZ 0000000180071ef0 f i libucrtd:output.obj
 0001:00070f30       ?maximum_signed_value@__crt_strtox@@YAJK@Z 0000000180071f30 f i libucrtd:output.obj
 0001:00070f40       ?minimum_signed_value@__crt_strtox@@YAJK@Z 0000000180071f40 f i libucrtd:output.obj
 0001:00070f50       ?narrow_null_string@?$output_processor@DV?$stream_output_adapter@D@__crt_stdio_output@@V?$format_validation_base@DV?$stream_output_adapter@D@__crt_stdio_output@@@2@@__crt_stdio_output@@CAPEADXZ 0000000180071f50 f i libucrtd:output.obj
 0001:00070f60       ?narrow_null_string@?$output_processor@DV?$stream_output_adapter@D@__crt_stdio_output@@V?$positional_parameter_base@DV?$stream_output_adapter@D@__crt_stdio_output@@@2@@__crt_stdio_output@@CAPEADXZ 0000000180071f60 f i libucrtd:output.obj
 0001:00070f70       ?narrow_null_string@?$output_processor@DV?$stream_output_adapter@D@__crt_stdio_output@@V?$standard_base@DV?$stream_output_adapter@D@__crt_stdio_output@@@2@@__crt_stdio_output@@CAPEADXZ 0000000180071f70 f i libucrtd:output.obj
 0001:00070f80       ?narrow_null_string@?$output_processor@DV?$string_output_adapter@D@__crt_stdio_output@@V?$format_validation_base@DV?$string_output_adapter@D@__crt_stdio_output@@@2@@__crt_stdio_output@@CAPEADXZ 0000000180071f80 f i libucrtd:output.obj
 0001:00070f90       ?narrow_null_string@?$output_processor@DV?$string_output_adapter@D@__crt_stdio_output@@V?$positional_parameter_base@DV?$string_output_adapter@D@__crt_stdio_output@@@2@@__crt_stdio_output@@CAPEADXZ 0000000180071f90 f i libucrtd:output.obj
 0001:00070fa0       ?narrow_null_string@?$output_processor@DV?$string_output_adapter@D@__crt_stdio_output@@V?$standard_base@DV?$string_output_adapter@D@__crt_stdio_output@@@2@@__crt_stdio_output@@CAPEADXZ 0000000180071fa0 f i libucrtd:output.obj
 0001:00070fb0       ?narrow_null_string@?$output_processor@_WV?$stream_output_adapter@_W@__crt_stdio_output@@V?$format_validation_base@_WV?$stream_output_adapter@_W@__crt_stdio_output@@@2@@__crt_stdio_output@@CAPEADXZ 0000000180071fb0 f i libucrtd:output.obj
 0001:00070fc0       ?narrow_null_string@?$output_processor@_WV?$stream_output_adapter@_W@__crt_stdio_output@@V?$positional_parameter_base@_WV?$stream_output_adapter@_W@__crt_stdio_output@@@2@@__crt_stdio_output@@CAPEADXZ 0000000180071fc0 f i libucrtd:output.obj
 0001:00070fd0       ?narrow_null_string@?$output_processor@_WV?$stream_output_adapter@_W@__crt_stdio_output@@V?$standard_base@_WV?$stream_output_adapter@_W@__crt_stdio_output@@@2@@__crt_stdio_output@@CAPEADXZ 0000000180071fd0 f i libucrtd:output.obj
 0001:00070fe0       ?narrow_null_string@?$output_processor@_WV?$string_output_adapter@_W@__crt_stdio_output@@V?$format_validation_base@_WV?$string_output_adapter@_W@__crt_stdio_output@@@2@@__crt_stdio_output@@CAPEADXZ 0000000180071fe0 f i libucrtd:output.obj
 0001:00070ff0       ?narrow_null_string@?$output_processor@_WV?$string_output_adapter@_W@__crt_stdio_output@@V?$positional_parameter_base@_WV?$string_output_adapter@_W@__crt_stdio_output@@@2@@__crt_stdio_output@@CAPEADXZ 0000000180071ff0 f i libucrtd:output.obj
 0001:00071000       ?narrow_null_string@?$output_processor@_WV?$string_output_adapter@_W@__crt_stdio_output@@V?$standard_base@_WV?$string_output_adapter@_W@__crt_stdio_output@@@2@@__crt_stdio_output@@CAPEADXZ 0000000180072000 f i libucrtd:output.obj
 0001:00071010       ?parse_digit@__crt_strtox@@YAID@Z 0000000180072010 f i libucrtd:output.obj
 0001:00071080       ?parse_digit@__crt_strtox@@YAI_W@Z 0000000180072080 f i libucrtd:output.obj
 0001:000710d0       ?parse_int_from_format_string@?$output_processor@DV?$stream_output_adapter@D@__crt_stdio_output@@V?$format_validation_base@DV?$stream_output_adapter@D@__crt_stdio_output@@@2@@__crt_stdio_output@@AEAA_NQEAH@Z 00000001800720d0 f i libucrtd:output.obj
 0001:000711d0       ?parse_int_from_format_string@?$output_processor@DV?$stream_output_adapter@D@__crt_stdio_output@@V?$positional_parameter_base@DV?$stream_output_adapter@D@__crt_stdio_output@@@2@@__crt_stdio_output@@AEAA_NQEAH@Z 00000001800721d0 f i libucrtd:output.obj
 0001:000712d0       ?parse_int_from_format_string@?$output_processor@DV?$stream_output_adapter@D@__crt_stdio_output@@V?$standard_base@DV?$stream_output_adapter@D@__crt_stdio_output@@@2@@__crt_stdio_output@@AEAA_NQEAH@Z 00000001800722d0 f i libucrtd:output.obj
 0001:000713d0       ?parse_int_from_format_string@?$output_processor@DV?$string_output_adapter@D@__crt_stdio_output@@V?$format_validation_base@DV?$string_output_adapter@D@__crt_stdio_output@@@2@@__crt_stdio_output@@AEAA_NQEAH@Z 00000001800723d0 f i libucrtd:output.obj
 0001:000714d0       ?parse_int_from_format_string@?$output_processor@DV?$string_output_adapter@D@__crt_stdio_output@@V?$positional_parameter_base@DV?$string_output_adapter@D@__crt_stdio_output@@@2@@__crt_stdio_output@@AEAA_NQEAH@Z 00000001800724d0 f i libucrtd:output.obj
 0001:000715d0       ?parse_int_from_format_string@?$output_processor@DV?$string_output_adapter@D@__crt_stdio_output@@V?$standard_base@DV?$string_output_adapter@D@__crt_stdio_output@@@2@@__crt_stdio_output@@AEAA_NQEAH@Z 00000001800725d0 f i libucrtd:output.obj
 0001:000716d0       ?parse_int_from_format_string@?$output_processor@_WV?$stream_output_adapter@_W@__crt_stdio_output@@V?$format_validation_base@_WV?$stream_output_adapter@_W@__crt_stdio_output@@@2@@__crt_stdio_output@@AEAA_NQEAH@Z 00000001800726d0 f i libucrtd:output.obj
 0001:000717d0       ?parse_int_from_format_string@?$output_processor@_WV?$stream_output_adapter@_W@__crt_stdio_output@@V?$positional_parameter_base@_WV?$stream_output_adapter@_W@__crt_stdio_output@@@2@@__crt_stdio_output@@AEAA_NQEAH@Z 00000001800727d0 f i libucrtd:output.obj
 0001:000718d0       ?parse_int_from_format_string@?$output_processor@_WV?$stream_output_adapter@_W@__crt_stdio_output@@V?$standard_base@_WV?$stream_output_adapter@_W@__crt_stdio_output@@@2@@__crt_stdio_output@@AEAA_NQEAH@Z 00000001800728d0 f i libucrtd:output.obj
 0001:000719d0       ?parse_int_from_format_string@?$output_processor@_WV?$string_output_adapter@_W@__crt_stdio_output@@V?$format_validation_base@_WV?$string_output_adapter@_W@__crt_stdio_output@@@2@@__crt_stdio_output@@AEAA_NQEAH@Z 00000001800729d0 f i libucrtd:output.obj
 0001:00071ad0       ?parse_int_from_format_string@?$output_processor@_WV?$string_output_adapter@_W@__crt_stdio_output@@V?$positional_parameter_base@_WV?$string_output_adapter@_W@__crt_stdio_output@@@2@@__crt_stdio_output@@AEAA_NQEAH@Z 0000000180072ad0 f i libucrtd:output.obj
 0001:00071bd0       ?parse_int_from_format_string@?$output_processor@_WV?$string_output_adapter@_W@__crt_stdio_output@@V?$standard_base@_WV?$string_output_adapter@_W@__crt_stdio_output@@@2@@__crt_stdio_output@@AEAA_NQEAH@Z 0000000180072bd0 f i libucrtd:output.obj
 0001:00071cd0       ?process@?$output_processor@DV?$stream_output_adapter@D@__crt_stdio_output@@V?$format_validation_base@DV?$stream_output_adapter@D@__crt_stdio_output@@@2@@__crt_stdio_output@@QEAAHXZ 0000000180072cd0 f i libucrtd:output.obj
 0001:00072090       ?process@?$output_processor@DV?$stream_output_adapter@D@__crt_stdio_output@@V?$positional_parameter_base@DV?$stream_output_adapter@D@__crt_stdio_output@@@2@@__crt_stdio_output@@QEAAHXZ 0000000180073090 f i libucrtd:output.obj
 0001:00072450       ?process@?$output_processor@DV?$stream_output_adapter@D@__crt_stdio_output@@V?$standard_base@DV?$stream_output_adapter@D@__crt_stdio_output@@@2@@__crt_stdio_output@@QEAAHXZ 0000000180073450 f i libucrtd:output.obj
 0001:00072810       ?process@?$output_processor@DV?$string_output_adapter@D@__crt_stdio_output@@V?$format_validation_base@DV?$string_output_adapter@D@__crt_stdio_output@@@2@@__crt_stdio_output@@QEAAHXZ 0000000180073810 f i libucrtd:output.obj
 0001:00072bd0       ?process@?$output_processor@DV?$string_output_adapter@D@__crt_stdio_output@@V?$positional_parameter_base@DV?$string_output_adapter@D@__crt_stdio_output@@@2@@__crt_stdio_output@@QEAAHXZ 0000000180073bd0 f i libucrtd:output.obj
 0001:00072f90       ?process@?$output_processor@DV?$string_output_adapter@D@__crt_stdio_output@@V?$standard_base@DV?$string_output_adapter@D@__crt_stdio_output@@@2@@__crt_stdio_output@@QEAAHXZ 0000000180073f90 f i libucrtd:output.obj
 0001:00073350       ?process@?$output_processor@_WV?$stream_output_adapter@_W@__crt_stdio_output@@V?$format_validation_base@_WV?$stream_output_adapter@_W@__crt_stdio_output@@@2@@__crt_stdio_output@@QEAAHXZ 0000000180074350 f i libucrtd:output.obj
 0001:00073710       ?process@?$output_processor@_WV?$stream_output_adapter@_W@__crt_stdio_output@@V?$positional_parameter_base@_WV?$stream_output_adapter@_W@__crt_stdio_output@@@2@@__crt_stdio_output@@QEAAHXZ 0000000180074710 f i libucrtd:output.obj
 0001:00073ad0       ?process@?$output_processor@_WV?$stream_output_adapter@_W@__crt_stdio_output@@V?$standard_base@_WV?$stream_output_adapter@_W@__crt_stdio_output@@@2@@__crt_stdio_output@@QEAAHXZ 0000000180074ad0 f i libucrtd:output.obj
 0001:00073e90       ?process@?$output_processor@_WV?$string_output_adapter@_W@__crt_stdio_output@@V?$format_validation_base@_WV?$string_output_adapter@_W@__crt_stdio_output@@@2@@__crt_stdio_output@@QEAAHXZ 0000000180074e90 f i libucrtd:output.obj
 0001:00074250       ?process@?$output_processor@_WV?$string_output_adapter@_W@__crt_stdio_output@@V?$positional_parameter_base@_WV?$string_output_adapter@_W@__crt_stdio_output@@@2@@__crt_stdio_output@@QEAAHXZ 0000000180075250 f i libucrtd:output.obj
 0001:00074610       ?process@?$output_processor@_WV?$string_output_adapter@_W@__crt_stdio_output@@V?$standard_base@_WV?$string_output_adapter@_W@__crt_stdio_output@@@2@@__crt_stdio_output@@QEAAHXZ 0000000180075610 f i libucrtd:output.obj
 0001:000749d0       ?public_stream@__crt_stdio_stream@@QEBAPEAU_iobuf@@XZ 00000001800759d0 f i libucrtd:output.obj
 0001:000749e0       ?restore_state@?$c_string_character_source@D@__crt_strtox@@QEAA_NQEBD@Z 00000001800759e0 f i libucrtd:output.obj
 0001:00074a00       ?restore_state@?$c_string_character_source@_W@__crt_strtox@@QEAA_NQEB_W@Z 0000000180075a00 f i libucrtd:output.obj
 0001:00074a20       ?save_state@?$c_string_character_source@D@__crt_strtox@@QEBAPEBDXZ 0000000180075a20 f i libucrtd:output.obj
 0001:00074a30       ?save_state@?$c_string_character_source@_W@__crt_strtox@@QEBAPEB_WXZ 0000000180075a30 f i libucrtd:output.obj
 0001:00074a40       ?set@?$cached@H@__crt_cached_ptd_host@@QEAAHH@Z 0000000180075a40 f i libucrtd:output.obj
 0001:00074a70       ?set_flag@?$output_processor@DV?$stream_output_adapter@D@__crt_stdio_output@@V?$format_validation_base@DV?$stream_output_adapter@D@__crt_stdio_output@@@2@@__crt_stdio_output@@AEAAXI@Z 0000000180075a70 f i libucrtd:output.obj
 0001:00074a90       ?set_flag@?$output_processor@DV?$stream_output_adapter@D@__crt_stdio_output@@V?$positional_parameter_base@DV?$stream_output_adapter@D@__crt_stdio_output@@@2@@__crt_stdio_output@@AEAAXI@Z 0000000180075a90 f i libucrtd:output.obj
 0001:00074ab0       ?set_flag@?$output_processor@DV?$stream_output_adapter@D@__crt_stdio_output@@V?$standard_base@DV?$stream_output_adapter@D@__crt_stdio_output@@@2@@__crt_stdio_output@@AEAAXI@Z 0000000180075ab0 f i libucrtd:output.obj
 0001:00074ad0       ?set_flag@?$output_processor@DV?$string_output_adapter@D@__crt_stdio_output@@V?$format_validation_base@DV?$string_output_adapter@D@__crt_stdio_output@@@2@@__crt_stdio_output@@AEAAXI@Z 0000000180075ad0 f i libucrtd:output.obj
 0001:00074af0       ?set_flag@?$output_processor@DV?$string_output_adapter@D@__crt_stdio_output@@V?$positional_parameter_base@DV?$string_output_adapter@D@__crt_stdio_output@@@2@@__crt_stdio_output@@AEAAXI@Z 0000000180075af0 f i libucrtd:output.obj
 0001:00074b10       ?set_flag@?$output_processor@DV?$string_output_adapter@D@__crt_stdio_output@@V?$standard_base@DV?$string_output_adapter@D@__crt_stdio_output@@@2@@__crt_stdio_output@@AEAAXI@Z 0000000180075b10 f i libucrtd:output.obj
 0001:00074b30       ?set_flag@?$output_processor@_WV?$stream_output_adapter@_W@__crt_stdio_output@@V?$format_validation_base@_WV?$stream_output_adapter@_W@__crt_stdio_output@@@2@@__crt_stdio_output@@AEAAXI@Z 0000000180075b30 f i libucrtd:output.obj
 0001:00074b50       ?set_flag@?$output_processor@_WV?$stream_output_adapter@_W@__crt_stdio_output@@V?$positional_parameter_base@_WV?$stream_output_adapter@_W@__crt_stdio_output@@@2@@__crt_stdio_output@@AEAAXI@Z 0000000180075b50 f i libucrtd:output.obj
 0001:00074b70       ?set_flag@?$output_processor@_WV?$stream_output_adapter@_W@__crt_stdio_output@@V?$standard_base@_WV?$stream_output_adapter@_W@__crt_stdio_output@@@2@@__crt_stdio_output@@AEAAXI@Z 0000000180075b70 f i libucrtd:output.obj
 0001:00074b90       ?set_flag@?$output_processor@_WV?$string_output_adapter@_W@__crt_stdio_output@@V?$format_validation_base@_WV?$string_output_adapter@_W@__crt_stdio_output@@@2@@__crt_stdio_output@@AEAAXI@Z 0000000180075b90 f i libucrtd:output.obj
 0001:00074bb0       ?set_flag@?$output_processor@_WV?$string_output_adapter@_W@__crt_stdio_output@@V?$positional_parameter_base@_WV?$string_output_adapter@_W@__crt_stdio_output@@@2@@__crt_stdio_output@@AEAAXI@Z 0000000180075bb0 f i libucrtd:output.obj
 0001:00074bd0       ?set_flag@?$output_processor@_WV?$string_output_adapter@_W@__crt_stdio_output@@V?$standard_base@_WV?$string_output_adapter@_W@__crt_stdio_output@@@2@@__crt_stdio_output@@AEAAXI@Z 0000000180075bd0 f i libucrtd:output.obj
 0001:00074bf0       ?should_format@?$positional_parameter_base@DV?$stream_output_adapter@D@__crt_stdio_output@@@__crt_stdio_output@@IEAA_NXZ 0000000180075bf0 f i libucrtd:output.obj
 0001:00074c30       ?should_format@?$positional_parameter_base@DV?$string_output_adapter@D@__crt_stdio_output@@@__crt_stdio_output@@IEAA_NXZ 0000000180075c30 f i libucrtd:output.obj
 0001:00074c70       ?should_format@?$positional_parameter_base@_WV?$stream_output_adapter@_W@__crt_stdio_output@@@__crt_stdio_output@@IEAA_NXZ 0000000180075c70 f i libucrtd:output.obj
 0001:00074cb0       ?should_format@?$positional_parameter_base@_WV?$string_output_adapter@_W@__crt_stdio_output@@@__crt_stdio_output@@IEAA_NXZ 0000000180075cb0 f i libucrtd:output.obj
 0001:00074cf0       ?should_format@?$standard_base@DV?$stream_output_adapter@D@__crt_stdio_output@@@__crt_stdio_output@@IEAA_NXZ 0000000180075cf0 f i libucrtd:output.obj
 0001:00074d00       ?should_format@?$standard_base@DV?$string_output_adapter@D@__crt_stdio_output@@@__crt_stdio_output@@IEAA_NXZ 0000000180075d00 f i libucrtd:output.obj
 0001:00074d10       ?should_format@?$standard_base@_WV?$stream_output_adapter@_W@__crt_stdio_output@@@__crt_stdio_output@@IEAA_NXZ 0000000180075d10 f i libucrtd:output.obj
 0001:00074d20       ?should_format@?$standard_base@_WV?$string_output_adapter@_W@__crt_stdio_output@@@__crt_stdio_output@@IEAA_NXZ 0000000180075d20 f i libucrtd:output.obj
 0001:00074d30       ?should_skip_normal_state_processing@?$positional_parameter_base@DV?$stream_output_adapter@D@__crt_stdio_output@@@__crt_stdio_output@@IEAA_NXZ 0000000180075d30 f i libucrtd:output.obj
 0001:00074d80       ?should_skip_normal_state_processing@?$positional_parameter_base@DV?$string_output_adapter@D@__crt_stdio_output@@@__crt_stdio_output@@IEAA_NXZ 0000000180075d80 f i libucrtd:output.obj
 0001:00074dd0       ?should_skip_normal_state_processing@?$positional_parameter_base@_WV?$stream_output_adapter@_W@__crt_stdio_output@@@__crt_stdio_output@@IEAA_NXZ 0000000180075dd0 f i libucrtd:output.obj
 0001:00074e20       ?should_skip_normal_state_processing@?$positional_parameter_base@_WV?$string_output_adapter@_W@__crt_stdio_output@@@__crt_stdio_output@@IEAA_NXZ 0000000180075e20 f i libucrtd:output.obj
 0001:00074e70       ?should_skip_normal_state_processing@?$standard_base@DV?$stream_output_adapter@D@__crt_stdio_output@@@__crt_stdio_output@@IEAA_NXZ 0000000180075e70 f i libucrtd:output.obj
 0001:00074e80       ?should_skip_normal_state_processing@?$standard_base@DV?$string_output_adapter@D@__crt_stdio_output@@@__crt_stdio_output@@IEAA_NXZ 0000000180075e80 f i libucrtd:output.obj
 0001:00074e90       ?should_skip_normal_state_processing@?$standard_base@_WV?$stream_output_adapter@_W@__crt_stdio_output@@@__crt_stdio_output@@IEAA_NXZ 0000000180075e90 f i libucrtd:output.obj
 0001:00074ea0       ?should_skip_normal_state_processing@?$standard_base@_WV?$string_output_adapter@_W@__crt_stdio_output@@@__crt_stdio_output@@IEAA_NXZ 0000000180075ea0 f i libucrtd:output.obj
 0001:00074eb0       ?should_skip_type_state_output@?$positional_parameter_base@DV?$stream_output_adapter@D@__crt_stdio_output@@@__crt_stdio_output@@IEBA_NXZ 0000000180075eb0 f i libucrtd:output.obj
 0001:00074ef0       ?should_skip_type_state_output@?$positional_parameter_base@DV?$string_output_adapter@D@__crt_stdio_output@@@__crt_stdio_output@@IEBA_NXZ 0000000180075ef0 f i libucrtd:output.obj
 0001:00074f30       ?should_skip_type_state_output@?$positional_parameter_base@_WV?$stream_output_adapter@_W@__crt_stdio_output@@@__crt_stdio_output@@IEBA_NXZ 0000000180075f30 f i libucrtd:output.obj
 0001:00074f70       ?should_skip_type_state_output@?$positional_parameter_base@_WV?$string_output_adapter@_W@__crt_stdio_output@@@__crt_stdio_output@@IEBA_NXZ 0000000180075f70 f i libucrtd:output.obj
 0001:00074fb0       ?should_skip_type_state_output@?$standard_base@DV?$stream_output_adapter@D@__crt_stdio_output@@@__crt_stdio_output@@IEBA_NXZ 0000000180075fb0 f i libucrtd:output.obj
 0001:00074fc0       ?should_skip_type_state_output@?$standard_base@DV?$string_output_adapter@D@__crt_stdio_output@@@__crt_stdio_output@@IEBA_NXZ 0000000180075fc0 f i libucrtd:output.obj
 0001:00074fd0       ?should_skip_type_state_output@?$standard_base@_WV?$stream_output_adapter@_W@__crt_stdio_output@@@__crt_stdio_output@@IEBA_NXZ 0000000180075fd0 f i libucrtd:output.obj
 0001:00074fe0       ?should_skip_type_state_output@?$standard_base@_WV?$string_output_adapter@_W@__crt_stdio_output@@@__crt_stdio_output@@IEBA_NXZ 0000000180075fe0 f i libucrtd:output.obj
 0001:00074ff0       ?state_case_dot@?$output_processor@DV?$stream_output_adapter@D@__crt_stdio_output@@V?$format_validation_base@DV?$stream_output_adapter@D@__crt_stdio_output@@@2@@__crt_stdio_output@@AEAA_NXZ 0000000180075ff0 f i libucrtd:output.obj
 0001:00075010       ?state_case_dot@?$output_processor@DV?$stream_output_adapter@D@__crt_stdio_output@@V?$positional_parameter_base@DV?$stream_output_adapter@D@__crt_stdio_output@@@2@@__crt_stdio_output@@AEAA_NXZ 0000000180076010 f i libucrtd:output.obj
 0001:00075030       ?state_case_dot@?$output_processor@DV?$stream_output_adapter@D@__crt_stdio_output@@V?$standard_base@DV?$stream_output_adapter@D@__crt_stdio_output@@@2@@__crt_stdio_output@@AEAA_NXZ 0000000180076030 f i libucrtd:output.obj
 0001:00075050       ?state_case_dot@?$output_processor@DV?$string_output_adapter@D@__crt_stdio_output@@V?$format_validation_base@DV?$string_output_adapter@D@__crt_stdio_output@@@2@@__crt_stdio_output@@AEAA_NXZ 0000000180076050 f i libucrtd:output.obj
 0001:00075070       ?state_case_dot@?$output_processor@DV?$string_output_adapter@D@__crt_stdio_output@@V?$positional_parameter_base@DV?$string_output_adapter@D@__crt_stdio_output@@@2@@__crt_stdio_output@@AEAA_NXZ 0000000180076070 f i libucrtd:output.obj
 0001:00075090       ?state_case_dot@?$output_processor@DV?$string_output_adapter@D@__crt_stdio_output@@V?$standard_base@DV?$string_output_adapter@D@__crt_stdio_output@@@2@@__crt_stdio_output@@AEAA_NXZ 0000000180076090 f i libucrtd:output.obj
 0001:000750b0       ?state_case_dot@?$output_processor@_WV?$stream_output_adapter@_W@__crt_stdio_output@@V?$format_validation_base@_WV?$stream_output_adapter@_W@__crt_stdio_output@@@2@@__crt_stdio_output@@AEAA_NXZ 00000001800760b0 f i libucrtd:output.obj
 0001:000750d0       ?state_case_dot@?$output_processor@_WV?$stream_output_adapter@_W@__crt_stdio_output@@V?$positional_parameter_base@_WV?$stream_output_adapter@_W@__crt_stdio_output@@@2@@__crt_stdio_output@@AEAA_NXZ 00000001800760d0 f i libucrtd:output.obj
 0001:000750f0       ?state_case_dot@?$output_processor@_WV?$stream_output_adapter@_W@__crt_stdio_output@@V?$standard_base@_WV?$stream_output_adapter@_W@__crt_stdio_output@@@2@@__crt_stdio_output@@AEAA_NXZ 00000001800760f0 f i libucrtd:output.obj
 0001:00075110       ?state_case_dot@?$output_processor@_WV?$string_output_adapter@_W@__crt_stdio_output@@V?$format_validation_base@_WV?$string_output_adapter@_W@__crt_stdio_output@@@2@@__crt_stdio_output@@AEAA_NXZ 0000000180076110 f i libucrtd:output.obj
 0001:00075130       ?state_case_dot@?$output_processor@_WV?$string_output_adapter@_W@__crt_stdio_output@@V?$positional_parameter_base@_WV?$string_output_adapter@_W@__crt_stdio_output@@@2@@__crt_stdio_output@@AEAA_NXZ 0000000180076130 f i libucrtd:output.obj
 0001:00075150       ?state_case_dot@?$output_processor@_WV?$string_output_adapter@_W@__crt_stdio_output@@V?$standard_base@_WV?$string_output_adapter@_W@__crt_stdio_output@@@2@@__crt_stdio_output@@AEAA_NXZ 0000000180076150 f i libucrtd:output.obj
 0001:00075170       ?state_case_flag@?$output_processor@DV?$stream_output_adapter@D@__crt_stdio_output@@V?$format_validation_base@DV?$stream_output_adapter@D@__crt_stdio_output@@@2@@__crt_stdio_output@@AEAA_NXZ 0000000180076170 f i libucrtd:output.obj
 0001:00075210       ?state_case_flag@?$output_processor@DV?$stream_output_adapter@D@__crt_stdio_output@@V?$positional_parameter_base@DV?$stream_output_adapter@D@__crt_stdio_output@@@2@@__crt_stdio_output@@AEAA_NXZ 0000000180076210 f i libucrtd:output.obj
 0001:000752b0       ?state_case_flag@?$output_processor@DV?$stream_output_adapter@D@__crt_stdio_output@@V?$standard_base@DV?$stream_output_adapter@D@__crt_stdio_output@@@2@@__crt_stdio_output@@AEAA_NXZ 00000001800762b0 f i libucrtd:output.obj
 0001:00075350       ?state_case_flag@?$output_processor@DV?$string_output_adapter@D@__crt_stdio_output@@V?$format_validation_base@DV?$string_output_adapter@D@__crt_stdio_output@@@2@@__crt_stdio_output@@AEAA_NXZ 0000000180076350 f i libucrtd:output.obj
 0001:000753f0       ?state_case_flag@?$output_processor@DV?$string_output_adapter@D@__crt_stdio_output@@V?$positional_parameter_base@DV?$string_output_adapter@D@__crt_stdio_output@@@2@@__crt_stdio_output@@AEAA_NXZ 00000001800763f0 f i libucrtd:output.obj
 0001:00075490       ?state_case_flag@?$output_processor@DV?$string_output_adapter@D@__crt_stdio_output@@V?$standard_base@DV?$string_output_adapter@D@__crt_stdio_output@@@2@@__crt_stdio_output@@AEAA_NXZ 0000000180076490 f i libucrtd:output.obj
 0001:00075530       ?state_case_flag@?$output_processor@_WV?$stream_output_adapter@_W@__crt_stdio_output@@V?$format_validation_base@_WV?$stream_output_adapter@_W@__crt_stdio_output@@@2@@__crt_stdio_output@@AEAA_NXZ 0000000180076530 f i libucrtd:output.obj
 0001:000755d0       ?state_case_flag@?$output_processor@_WV?$stream_output_adapter@_W@__crt_stdio_output@@V?$positional_parameter_base@_WV?$stream_output_adapter@_W@__crt_stdio_output@@@2@@__crt_stdio_output@@AEAA_NXZ 00000001800765d0 f i libucrtd:output.obj
 0001:00075670       ?state_case_flag@?$output_processor@_WV?$stream_output_adapter@_W@__crt_stdio_output@@V?$standard_base@_WV?$stream_output_adapter@_W@__crt_stdio_output@@@2@@__crt_stdio_output@@AEAA_NXZ 0000000180076670 f i libucrtd:output.obj
 0001:00075710       ?state_case_flag@?$output_processor@_WV?$string_output_adapter@_W@__crt_stdio_output@@V?$format_validation_base@_WV?$string_output_adapter@_W@__crt_stdio_output@@@2@@__crt_stdio_output@@AEAA_NXZ 0000000180076710 f i libucrtd:output.obj
 0001:000757b0       ?state_case_flag@?$output_processor@_WV?$string_output_adapter@_W@__crt_stdio_output@@V?$positional_parameter_base@_WV?$string_output_adapter@_W@__crt_stdio_output@@@2@@__crt_stdio_output@@AEAA_NXZ 00000001800767b0 f i libucrtd:output.obj
 0001:00075850       ?state_case_flag@?$output_processor@_WV?$string_output_adapter@_W@__crt_stdio_output@@V?$standard_base@_WV?$string_output_adapter@_W@__crt_stdio_output@@@2@@__crt_stdio_output@@AEAA_NXZ 0000000180076850 f i libucrtd:output.obj
 0001:000758f0       ?state_case_normal@?$output_processor@DV?$stream_output_adapter@D@__crt_stdio_output@@V?$format_validation_base@DV?$stream_output_adapter@D@__crt_stdio_output@@@2@@__crt_stdio_output@@AEAA_NXZ 00000001800768f0 f i libucrtd:output.obj
 0001:000759f0       ?state_case_normal@?$output_processor@DV?$stream_output_adapter@D@__crt_stdio_output@@V?$positional_parameter_base@DV?$stream_output_adapter@D@__crt_stdio_output@@@2@@__crt_stdio_output@@AEAA_NXZ 00000001800769f0 f i libucrtd:output.obj
 0001:00075af0       ?state_case_normal@?$output_processor@DV?$stream_output_adapter@D@__crt_stdio_output@@V?$standard_base@DV?$stream_output_adapter@D@__crt_stdio_output@@@2@@__crt_stdio_output@@AEAA_NXZ 0000000180076af0 f i libucrtd:output.obj
 0001:00075bf0       ?state_case_normal@?$output_processor@DV?$string_output_adapter@D@__crt_stdio_output@@V?$format_validation_base@DV?$string_output_adapter@D@__crt_stdio_output@@@2@@__crt_stdio_output@@AEAA_NXZ 0000000180076bf0 f i libucrtd:output.obj
 0001:00075cf0       ?state_case_normal@?$output_processor@DV?$string_output_adapter@D@__crt_stdio_output@@V?$positional_parameter_base@DV?$string_output_adapter@D@__crt_stdio_output@@@2@@__crt_stdio_output@@AEAA_NXZ 0000000180076cf0 f i libucrtd:output.obj
 0001:00075df0       ?state_case_normal@?$output_processor@DV?$string_output_adapter@D@__crt_stdio_output@@V?$standard_base@DV?$string_output_adapter@D@__crt_stdio_output@@@2@@__crt_stdio_output@@AEAA_NXZ 0000000180076df0 f i libucrtd:output.obj
 0001:00075ef0       ?state_case_normal@?$output_processor@_WV?$stream_output_adapter@_W@__crt_stdio_output@@V?$format_validation_base@_WV?$stream_output_adapter@_W@__crt_stdio_output@@@2@@__crt_stdio_output@@AEAA_NXZ 0000000180076ef0 f i libucrtd:output.obj
 0001:00075ff0       ?state_case_normal@?$output_processor@_WV?$stream_output_adapter@_W@__crt_stdio_output@@V?$positional_parameter_base@_WV?$stream_output_adapter@_W@__crt_stdio_output@@@2@@__crt_stdio_output@@AEAA_NXZ 0000000180076ff0 f i libucrtd:output.obj
 0001:000760f0       ?state_case_normal@?$output_processor@_WV?$stream_output_adapter@_W@__crt_stdio_output@@V?$standard_base@_WV?$stream_output_adapter@_W@__crt_stdio_output@@@2@@__crt_stdio_output@@AEAA_NXZ 00000001800770f0 f i libucrtd:output.obj
 0001:000761f0       ?state_case_normal@?$output_processor@_WV?$string_output_adapter@_W@__crt_stdio_output@@V?$format_validation_base@_WV?$string_output_adapter@_W@__crt_stdio_output@@@2@@__crt_stdio_output@@AEAA_NXZ 00000001800771f0 f i libucrtd:output.obj
 0001:000762f0       ?state_case_normal@?$output_processor@_WV?$string_output_adapter@_W@__crt_stdio_output@@V?$positional_parameter_base@_WV?$string_output_adapter@_W@__crt_stdio_output@@@2@@__crt_stdio_output@@AEAA_NXZ 00000001800772f0 f i libucrtd:output.obj
 0001:000763f0       ?state_case_normal@?$output_processor@_WV?$string_output_adapter@_W@__crt_stdio_output@@V?$standard_base@_WV?$string_output_adapter@_W@__crt_stdio_output@@@2@@__crt_stdio_output@@AEAA_NXZ 00000001800773f0 f i libucrtd:output.obj
 0001:000764f0       ?state_case_normal_common@?$output_processor@DV?$stream_output_adapter@D@__crt_stdio_output@@V?$format_validation_base@DV?$stream_output_adapter@D@__crt_stdio_output@@@2@@__crt_stdio_output@@AEAA_NXZ 00000001800774f0 f i libucrtd:output.obj
 0001:00076550       ?state_case_normal_common@?$output_processor@DV?$stream_output_adapter@D@__crt_stdio_output@@V?$positional_parameter_base@DV?$stream_output_adapter@D@__crt_stdio_output@@@2@@__crt_stdio_output@@AEAA_NXZ 0000000180077550 f i libucrtd:output.obj
 0001:000765b0       ?state_case_normal_common@?$output_processor@DV?$stream_output_adapter@D@__crt_stdio_output@@V?$standard_base@DV?$stream_output_adapter@D@__crt_stdio_output@@@2@@__crt_stdio_output@@AEAA_NXZ 00000001800775b0 f i libucrtd:output.obj
 0001:00076610       ?state_case_normal_common@?$output_processor@DV?$string_output_adapter@D@__crt_stdio_output@@V?$format_validation_base@DV?$string_output_adapter@D@__crt_stdio_output@@@2@@__crt_stdio_output@@AEAA_NXZ 0000000180077610 f i libucrtd:output.obj
 0001:00076670       ?state_case_normal_common@?$output_processor@DV?$string_output_adapter@D@__crt_stdio_output@@V?$positional_parameter_base@DV?$string_output_adapter@D@__crt_stdio_output@@@2@@__crt_stdio_output@@AEAA_NXZ 0000000180077670 f i libucrtd:output.obj
 0001:000766d0       ?state_case_normal_common@?$output_processor@DV?$string_output_adapter@D@__crt_stdio_output@@V?$standard_base@DV?$string_output_adapter@D@__crt_stdio_output@@@2@@__crt_stdio_output@@AEAA_NXZ 00000001800776d0 f i libucrtd:output.obj
 0001:00076730       ?state_case_normal_common@?$output_processor@_WV?$stream_output_adapter@_W@__crt_stdio_output@@V?$format_validation_base@_WV?$stream_output_adapter@_W@__crt_stdio_output@@@2@@__crt_stdio_output@@AEAA_NXZ 0000000180077730 f i libucrtd:output.obj
 0001:00076790       ?state_case_normal_common@?$output_processor@_WV?$stream_output_adapter@_W@__crt_stdio_output@@V?$positional_parameter_base@_WV?$stream_output_adapter@_W@__crt_stdio_output@@@2@@__crt_stdio_output@@AEAA_NXZ 0000000180077790 f i libucrtd:output.obj
 0001:000767f0       ?state_case_normal_common@?$output_processor@_WV?$stream_output_adapter@_W@__crt_stdio_output@@V?$standard_base@_WV?$stream_output_adapter@_W@__crt_stdio_output@@@2@@__crt_stdio_output@@AEAA_NXZ 00000001800777f0 f i libucrtd:output.obj
 0001:00076850       ?state_case_normal_common@?$output_processor@_WV?$string_output_adapter@_W@__crt_stdio_output@@V?$format_validation_base@_WV?$string_output_adapter@_W@__crt_stdio_output@@@2@@__crt_stdio_output@@AEAA_NXZ 0000000180077850 f i libucrtd:output.obj
 0001:000768b0       ?state_case_normal_common@?$output_processor@_WV?$string_output_adapter@_W@__crt_stdio_output@@V?$positional_parameter_base@_WV?$string_output_adapter@_W@__crt_stdio_output@@@2@@__crt_stdio_output@@AEAA_NXZ 00000001800778b0 f i libucrtd:output.obj
 0001:00076910       ?state_case_normal_common@?$output_processor@_WV?$string_output_adapter@_W@__crt_stdio_output@@V?$standard_base@_WV?$string_output_adapter@_W@__crt_stdio_output@@@2@@__crt_stdio_output@@AEAA_NXZ 0000000180077910 f i libucrtd:output.obj
 0001:00076970       ?state_case_normal_tchar@?$output_processor@DV?$stream_output_adapter@D@__crt_stdio_output@@V?$format_validation_base@DV?$stream_output_adapter@D@__crt_stdio_output@@@2@@__crt_stdio_output@@AEAA_ND@Z 0000000180077970 f i libucrtd:output.obj
 0001:00076b00       ?state_case_normal_tchar@?$output_processor@DV?$stream_output_adapter@D@__crt_stdio_output@@V?$positional_parameter_base@DV?$stream_output_adapter@D@__crt_stdio_output@@@2@@__crt_stdio_output@@AEAA_ND@Z 0000000180077b00 f i libucrtd:output.obj
 0001:00076c90       ?state_case_normal_tchar@?$output_processor@DV?$stream_output_adapter@D@__crt_stdio_output@@V?$standard_base@DV?$stream_output_adapter@D@__crt_stdio_output@@@2@@__crt_stdio_output@@AEAA_ND@Z 0000000180077c90 f i libucrtd:output.obj
 0001:00076e20       ?state_case_normal_tchar@?$output_processor@DV?$string_output_adapter@D@__crt_stdio_output@@V?$format_validation_base@DV?$string_output_adapter@D@__crt_stdio_output@@@2@@__crt_stdio_output@@AEAA_ND@Z 0000000180077e20 f i libucrtd:output.obj
 0001:00076fb0       ?state_case_normal_tchar@?$output_processor@DV?$string_output_adapter@D@__crt_stdio_output@@V?$positional_parameter_base@DV?$string_output_adapter@D@__crt_stdio_output@@@2@@__crt_stdio_output@@AEAA_ND@Z 0000000180077fb0 f i libucrtd:output.obj
 0001:00077140       ?state_case_normal_tchar@?$output_processor@DV?$string_output_adapter@D@__crt_stdio_output@@V?$standard_base@DV?$string_output_adapter@D@__crt_stdio_output@@@2@@__crt_stdio_output@@AEAA_ND@Z 0000000180078140 f i libucrtd:output.obj
 0001:000772d0       ?state_case_normal_tchar@?$output_processor@_WV?$stream_output_adapter@_W@__crt_stdio_output@@V?$format_validation_base@_WV?$stream_output_adapter@_W@__crt_stdio_output@@@2@@__crt_stdio_output@@AEAA_N_W@Z 00000001800782d0 f i libucrtd:output.obj
 0001:000772f0       ?state_case_normal_tchar@?$output_processor@_WV?$stream_output_adapter@_W@__crt_stdio_output@@V?$positional_parameter_base@_WV?$stream_output_adapter@_W@__crt_stdio_output@@@2@@__crt_stdio_output@@AEAA_N_W@Z 00000001800782f0 f i libucrtd:output.obj
 0001:00077310       ?state_case_normal_tchar@?$output_processor@_WV?$stream_output_adapter@_W@__crt_stdio_output@@V?$standard_base@_WV?$stream_output_adapter@_W@__crt_stdio_output@@@2@@__crt_stdio_output@@AEAA_N_W@Z 0000000180078310 f i libucrtd:output.obj
 0001:00077330       ?state_case_normal_tchar@?$output_processor@_WV?$string_output_adapter@_W@__crt_stdio_output@@V?$format_validation_base@_WV?$string_output_adapter@_W@__crt_stdio_output@@@2@@__crt_stdio_output@@AEAA_N_W@Z 0000000180078330 f i libucrtd:output.obj
 0001:00077350       ?state_case_normal_tchar@?$output_processor@_WV?$string_output_adapter@_W@__crt_stdio_output@@V?$positional_parameter_base@_WV?$string_output_adapter@_W@__crt_stdio_output@@@2@@__crt_stdio_output@@AEAA_N_W@Z 0000000180078350 f i libucrtd:output.obj
 0001:00077370       ?state_case_normal_tchar@?$output_processor@_WV?$string_output_adapter@_W@__crt_stdio_output@@V?$standard_base@_WV?$string_output_adapter@_W@__crt_stdio_output@@@2@@__crt_stdio_output@@AEAA_N_W@Z 0000000180078370 f i libucrtd:output.obj
 0001:00077390       ?state_case_percent@?$output_processor@DV?$stream_output_adapter@D@__crt_stdio_output@@V?$format_validation_base@DV?$stream_output_adapter@D@__crt_stdio_output@@@2@@__crt_stdio_output@@AEAA_NXZ 0000000180078390 f i libucrtd:output.obj
 0001:000773e0       ?state_case_percent@?$output_processor@DV?$stream_output_adapter@D@__crt_stdio_output@@V?$positional_parameter_base@DV?$stream_output_adapter@D@__crt_stdio_output@@@2@@__crt_stdio_output@@AEAA_NXZ 00000001800783e0 f i libucrtd:output.obj
 0001:00077430       ?state_case_percent@?$output_processor@DV?$stream_output_adapter@D@__crt_stdio_output@@V?$standard_base@DV?$stream_output_adapter@D@__crt_stdio_output@@@2@@__crt_stdio_output@@AEAA_NXZ 0000000180078430 f i libucrtd:output.obj
 0001:00077480       ?state_case_percent@?$output_processor@DV?$string_output_adapter@D@__crt_stdio_output@@V?$format_validation_base@DV?$string_output_adapter@D@__crt_stdio_output@@@2@@__crt_stdio_output@@AEAA_NXZ 0000000180078480 f i libucrtd:output.obj
 0001:000774d0       ?state_case_percent@?$output_processor@DV?$string_output_adapter@D@__crt_stdio_output@@V?$positional_parameter_base@DV?$string_output_adapter@D@__crt_stdio_output@@@2@@__crt_stdio_output@@AEAA_NXZ 00000001800784d0 f i libucrtd:output.obj
 0001:00077520       ?state_case_percent@?$output_processor@DV?$string_output_adapter@D@__crt_stdio_output@@V?$standard_base@DV?$string_output_adapter@D@__crt_stdio_output@@@2@@__crt_stdio_output@@AEAA_NXZ 0000000180078520 f i libucrtd:output.obj
 0001:00077570       ?state_case_percent@?$output_processor@_WV?$stream_output_adapter@_W@__crt_stdio_output@@V?$format_validation_base@_WV?$stream_output_adapter@_W@__crt_stdio_output@@@2@@__crt_stdio_output@@AEAA_NXZ 0000000180078570 f i libucrtd:output.obj
 0001:000775c0       ?state_case_percent@?$output_processor@_WV?$stream_output_adapter@_W@__crt_stdio_output@@V?$positional_parameter_base@_WV?$stream_output_adapter@_W@__crt_stdio_output@@@2@@__crt_stdio_output@@AEAA_NXZ 00000001800785c0 f i libucrtd:output.obj
 0001:00077610       ?state_case_percent@?$output_processor@_WV?$stream_output_adapter@_W@__crt_stdio_output@@V?$standard_base@_WV?$stream_output_adapter@_W@__crt_stdio_output@@@2@@__crt_stdio_output@@AEAA_NXZ 0000000180078610 f i libucrtd:output.obj
 0001:00077660       ?state_case_percent@?$output_processor@_WV?$string_output_adapter@_W@__crt_stdio_output@@V?$format_validation_base@_WV?$string_output_adapter@_W@__crt_stdio_output@@@2@@__crt_stdio_output@@AEAA_NXZ 0000000180078660 f i libucrtd:output.obj
 0001:000776b0       ?state_case_percent@?$output_processor@_WV?$string_output_adapter@_W@__crt_stdio_output@@V?$positional_parameter_base@_WV?$string_output_adapter@_W@__crt_stdio_output@@@2@@__crt_stdio_output@@AEAA_NXZ 00000001800786b0 f i libucrtd:output.obj
 0001:00077700       ?state_case_percent@?$output_processor@_WV?$string_output_adapter@_W@__crt_stdio_output@@V?$standard_base@_WV?$string_output_adapter@_W@__crt_stdio_output@@@2@@__crt_stdio_output@@AEAA_NXZ 0000000180078700 f i libucrtd:output.obj
 0001:00077750       ?state_case_precision@?$output_processor@DV?$stream_output_adapter@D@__crt_stdio_output@@V?$format_validation_base@DV?$stream_output_adapter@D@__crt_stdio_output@@@2@@__crt_stdio_output@@AEAA_NXZ 0000000180078750 f i libucrtd:output.obj
 0001:000777d0       ?state_case_precision@?$output_processor@DV?$stream_output_adapter@D@__crt_stdio_output@@V?$positional_parameter_base@DV?$stream_output_adapter@D@__crt_stdio_output@@@2@@__crt_stdio_output@@AEAA_NXZ 00000001800787d0 f i libucrtd:output.obj
 0001:00077850       ?state_case_precision@?$output_processor@DV?$stream_output_adapter@D@__crt_stdio_output@@V?$standard_base@DV?$stream_output_adapter@D@__crt_stdio_output@@@2@@__crt_stdio_output@@AEAA_NXZ 0000000180078850 f i libucrtd:output.obj
 0001:000778d0       ?state_case_precision@?$output_processor@DV?$string_output_adapter@D@__crt_stdio_output@@V?$format_validation_base@DV?$string_output_adapter@D@__crt_stdio_output@@@2@@__crt_stdio_output@@AEAA_NXZ 00000001800788d0 f i libucrtd:output.obj
 0001:00077950       ?state_case_precision@?$output_processor@DV?$string_output_adapter@D@__crt_stdio_output@@V?$positional_parameter_base@DV?$string_output_adapter@D@__crt_stdio_output@@@2@@__crt_stdio_output@@AEAA_NXZ 0000000180078950 f i libucrtd:output.obj
 0001:000779d0       ?state_case_precision@?$output_processor@DV?$string_output_adapter@D@__crt_stdio_output@@V?$standard_base@DV?$string_output_adapter@D@__crt_stdio_output@@@2@@__crt_stdio_output@@AEAA_NXZ 00000001800789d0 f i libucrtd:output.obj
 0001:00077a50       ?state_case_precision@?$output_processor@_WV?$stream_output_adapter@_W@__crt_stdio_output@@V?$format_validation_base@_WV?$stream_output_adapter@_W@__crt_stdio_output@@@2@@__crt_stdio_output@@AEAA_NXZ 0000000180078a50 f i libucrtd:output.obj
 0001:00077ad0       ?state_case_precision@?$output_processor@_WV?$stream_output_adapter@_W@__crt_stdio_output@@V?$positional_parameter_base@_WV?$stream_output_adapter@_W@__crt_stdio_output@@@2@@__crt_stdio_output@@AEAA_NXZ 0000000180078ad0 f i libucrtd:output.obj
 0001:00077b50       ?state_case_precision@?$output_processor@_WV?$stream_output_adapter@_W@__crt_stdio_output@@V?$standard_base@_WV?$stream_output_adapter@_W@__crt_stdio_output@@@2@@__crt_stdio_output@@AEAA_NXZ 0000000180078b50 f i libucrtd:output.obj
 0001:00077bd0       ?state_case_precision@?$output_processor@_WV?$string_output_adapter@_W@__crt_stdio_output@@V?$format_validation_base@_WV?$string_output_adapter@_W@__crt_stdio_output@@@2@@__crt_stdio_output@@AEAA_NXZ 0000000180078bd0 f i libucrtd:output.obj
 0001:00077c50       ?state_case_precision@?$output_processor@_WV?$string_output_adapter@_W@__crt_stdio_output@@V?$positional_parameter_base@_WV?$string_output_adapter@_W@__crt_stdio_output@@@2@@__crt_stdio_output@@AEAA_NXZ 0000000180078c50 f i libucrtd:output.obj
 0001:00077cd0       ?state_case_precision@?$output_processor@_WV?$string_output_adapter@_W@__crt_stdio_output@@V?$standard_base@_WV?$string_output_adapter@_W@__crt_stdio_output@@@2@@__crt_stdio_output@@AEAA_NXZ 0000000180078cd0 f i libucrtd:output.obj
 0001:00077d50       ?state_case_size@?$output_processor@DV?$stream_output_adapter@D@__crt_stdio_output@@V?$format_validation_base@DV?$stream_output_adapter@D@__crt_stdio_output@@@2@@__crt_stdio_output@@AEAA_NXZ 0000000180078d50 f i libucrtd:output.obj
 0001:00078210       ?state_case_size@?$output_processor@DV?$stream_output_adapter@D@__crt_stdio_output@@V?$positional_parameter_base@DV?$stream_output_adapter@D@__crt_stdio_output@@@2@@__crt_stdio_output@@AEAA_NXZ 0000000180079210 f i libucrtd:output.obj
 0001:000786d0       ?state_case_size@?$output_processor@DV?$stream_output_adapter@D@__crt_stdio_output@@V?$standard_base@DV?$stream_output_adapter@D@__crt_stdio_output@@@2@@__crt_stdio_output@@AEAA_NXZ 00000001800796d0 f i libucrtd:output.obj
 0001:00078b90       ?state_case_size@?$output_processor@DV?$string_output_adapter@D@__crt_stdio_output@@V?$format_validation_base@DV?$string_output_adapter@D@__crt_stdio_output@@@2@@__crt_stdio_output@@AEAA_NXZ 0000000180079b90 f i libucrtd:output.obj
 0001:00079050       ?state_case_size@?$output_processor@DV?$string_output_adapter@D@__crt_stdio_output@@V?$positional_parameter_base@DV?$string_output_adapter@D@__crt_stdio_output@@@2@@__crt_stdio_output@@AEAA_NXZ 000000018007a050 f i libucrtd:output.obj
 0001:00079510       ?state_case_size@?$output_processor@DV?$string_output_adapter@D@__crt_stdio_output@@V?$standard_base@DV?$string_output_adapter@D@__crt_stdio_output@@@2@@__crt_stdio_output@@AEAA_NXZ 000000018007a510 f i libucrtd:output.obj
 0001:000799d0       ?state_case_size@?$output_processor@_WV?$stream_output_adapter@_W@__crt_stdio_output@@V?$format_validation_base@_WV?$stream_output_adapter@_W@__crt_stdio_output@@@2@@__crt_stdio_output@@AEAA_NXZ 000000018007a9d0 f i libucrtd:output.obj
 0001:00079e90       ?state_case_size@?$output_processor@_WV?$stream_output_adapter@_W@__crt_stdio_output@@V?$positional_parameter_base@_WV?$stream_output_adapter@_W@__crt_stdio_output@@@2@@__crt_stdio_output@@AEAA_NXZ 000000018007ae90 f i libucrtd:output.obj
 0001:0007a350       ?state_case_size@?$output_processor@_WV?$stream_output_adapter@_W@__crt_stdio_output@@V?$standard_base@_WV?$stream_output_adapter@_W@__crt_stdio_output@@@2@@__crt_stdio_output@@AEAA_NXZ 000000018007b350 f i libucrtd:output.obj
 0001:0007a810       ?state_case_size@?$output_processor@_WV?$string_output_adapter@_W@__crt_stdio_output@@V?$format_validation_base@_WV?$string_output_adapter@_W@__crt_stdio_output@@@2@@__crt_stdio_output@@AEAA_NXZ 000000018007b810 f i libucrtd:output.obj
 0001:0007acd0       ?state_case_size@?$output_processor@_WV?$string_output_adapter@_W@__crt_stdio_output@@V?$positional_parameter_base@_WV?$string_output_adapter@_W@__crt_stdio_output@@@2@@__crt_stdio_output@@AEAA_NXZ 000000018007bcd0 f i libucrtd:output.obj
 0001:0007b190       ?state_case_size@?$output_processor@_WV?$string_output_adapter@_W@__crt_stdio_output@@V?$standard_base@_WV?$string_output_adapter@_W@__crt_stdio_output@@@2@@__crt_stdio_output@@AEAA_NXZ 000000018007c190 f i libucrtd:output.obj
 0001:0007b650       ?state_case_type@?$output_processor@DV?$stream_output_adapter@D@__crt_stdio_output@@V?$format_validation_base@DV?$stream_output_adapter@D@__crt_stdio_output@@@2@@__crt_stdio_output@@AEAA_NXZ 000000018007c650 f i libucrtd:output.obj
 0001:0007bb10       ?state_case_type@?$output_processor@DV?$stream_output_adapter@D@__crt_stdio_output@@V?$positional_parameter_base@DV?$stream_output_adapter@D@__crt_stdio_output@@@2@@__crt_stdio_output@@AEAA_NXZ 000000018007cb10 f i libucrtd:output.obj
 0001:0007bfd0       ?state_case_type@?$output_processor@DV?$stream_output_adapter@D@__crt_stdio_output@@V?$standard_base@DV?$stream_output_adapter@D@__crt_stdio_output@@@2@@__crt_stdio_output@@AEAA_NXZ 000000018007cfd0 f i libucrtd:output.obj
 0001:0007c490       ?state_case_type@?$output_processor@DV?$string_output_adapter@D@__crt_stdio_output@@V?$format_validation_base@DV?$string_output_adapter@D@__crt_stdio_output@@@2@@__crt_stdio_output@@AEAA_NXZ 000000018007d490 f i libucrtd:output.obj
 0001:0007c950       ?state_case_type@?$output_processor@DV?$string_output_adapter@D@__crt_stdio_output@@V?$positional_parameter_base@DV?$string_output_adapter@D@__crt_stdio_output@@@2@@__crt_stdio_output@@AEAA_NXZ 000000018007d950 f i libucrtd:output.obj
 0001:0007ce10       ?state_case_type@?$output_processor@DV?$string_output_adapter@D@__crt_stdio_output@@V?$standard_base@DV?$string_output_adapter@D@__crt_stdio_output@@@2@@__crt_stdio_output@@AEAA_NXZ 000000018007de10 f i libucrtd:output.obj
 0001:0007d2d0       ?state_case_type@?$output_processor@_WV?$stream_output_adapter@_W@__crt_stdio_output@@V?$format_validation_base@_WV?$stream_output_adapter@_W@__crt_stdio_output@@@2@@__crt_stdio_output@@AEAA_NXZ 000000018007e2d0 f i libucrtd:output.obj
 0001:0007d860       ?state_case_type@?$output_processor@_WV?$stream_output_adapter@_W@__crt_stdio_output@@V?$positional_parameter_base@_WV?$stream_output_adapter@_W@__crt_stdio_output@@@2@@__crt_stdio_output@@AEAA_NXZ 000000018007e860 f i libucrtd:output.obj
 0001:0007ddf0       ?state_case_type@?$output_processor@_WV?$stream_output_adapter@_W@__crt_stdio_output@@V?$standard_base@_WV?$stream_output_adapter@_W@__crt_stdio_output@@@2@@__crt_stdio_output@@AEAA_NXZ 000000018007edf0 f i libucrtd:output.obj
 0001:0007e380       ?state_case_type@?$output_processor@_WV?$string_output_adapter@_W@__crt_stdio_output@@V?$format_validation_base@_WV?$string_output_adapter@_W@__crt_stdio_output@@@2@@__crt_stdio_output@@AEAA_NXZ 000000018007f380 f i libucrtd:output.obj
 0001:0007e910       ?state_case_type@?$output_processor@_WV?$string_output_adapter@_W@__crt_stdio_output@@V?$positional_parameter_base@_WV?$string_output_adapter@_W@__crt_stdio_output@@@2@@__crt_stdio_output@@AEAA_NXZ 000000018007f910 f i libucrtd:output.obj
 0001:0007eea0       ?state_case_type@?$output_processor@_WV?$string_output_adapter@_W@__crt_stdio_output@@V?$standard_base@_WV?$string_output_adapter@_W@__crt_stdio_output@@@2@@__crt_stdio_output@@AEAA_NXZ 000000018007fea0 f i libucrtd:output.obj
 0001:0007f430       ?state_case_width@?$output_processor@DV?$stream_output_adapter@D@__crt_stdio_output@@V?$format_validation_base@DV?$stream_output_adapter@D@__crt_stdio_output@@@2@@__crt_stdio_output@@AEAA_NXZ 0000000180080430 f i libucrtd:output.obj
 0001:0007f4c0       ?state_case_width@?$output_processor@DV?$stream_output_adapter@D@__crt_stdio_output@@V?$positional_parameter_base@DV?$stream_output_adapter@D@__crt_stdio_output@@@2@@__crt_stdio_output@@AEAA_NXZ 00000001800804c0 f i libucrtd:output.obj
 0001:0007f550       ?state_case_width@?$output_processor@DV?$stream_output_adapter@D@__crt_stdio_output@@V?$standard_base@DV?$stream_output_adapter@D@__crt_stdio_output@@@2@@__crt_stdio_output@@AEAA_NXZ 0000000180080550 f i libucrtd:output.obj
 0001:0007f5e0       ?state_case_width@?$output_processor@DV?$string_output_adapter@D@__crt_stdio_output@@V?$format_validation_base@DV?$string_output_adapter@D@__crt_stdio_output@@@2@@__crt_stdio_output@@AEAA_NXZ 00000001800805e0 f i libucrtd:output.obj
 0001:0007f670       ?state_case_width@?$output_processor@DV?$string_output_adapter@D@__crt_stdio_output@@V?$positional_parameter_base@DV?$string_output_adapter@D@__crt_stdio_output@@@2@@__crt_stdio_output@@AEAA_NXZ 0000000180080670 f i libucrtd:output.obj
 0001:0007f700       ?state_case_width@?$output_processor@DV?$string_output_adapter@D@__crt_stdio_output@@V?$standard_base@DV?$string_output_adapter@D@__crt_stdio_output@@@2@@__crt_stdio_output@@AEAA_NXZ 0000000180080700 f i libucrtd:output.obj
 0001:0007f790       ?state_case_width@?$output_processor@_WV?$stream_output_adapter@_W@__crt_stdio_output@@V?$format_validation_base@_WV?$stream_output_adapter@_W@__crt_stdio_output@@@2@@__crt_stdio_output@@AEAA_NXZ 0000000180080790 f i libucrtd:output.obj
 0001:0007f820       ?state_case_width@?$output_processor@_WV?$stream_output_adapter@_W@__crt_stdio_output@@V?$positional_parameter_base@_WV?$stream_output_adapter@_W@__crt_stdio_output@@@2@@__crt_stdio_output@@AEAA_NXZ 0000000180080820 f i libucrtd:output.obj
 0001:0007f8b0       ?state_case_width@?$output_processor@_WV?$stream_output_adapter@_W@__crt_stdio_output@@V?$standard_base@_WV?$stream_output_adapter@_W@__crt_stdio_output@@@2@@__crt_stdio_output@@AEAA_NXZ 00000001800808b0 f i libucrtd:output.obj
 0001:0007f940       ?state_case_width@?$output_processor@_WV?$string_output_adapter@_W@__crt_stdio_output@@V?$format_validation_base@_WV?$string_output_adapter@_W@__crt_stdio_output@@@2@@__crt_stdio_output@@AEAA_NXZ 0000000180080940 f i libucrtd:output.obj
 0001:0007f9d0       ?state_case_width@?$output_processor@_WV?$string_output_adapter@_W@__crt_stdio_output@@V?$positional_parameter_base@_WV?$string_output_adapter@_W@__crt_stdio_output@@@2@@__crt_stdio_output@@AEAA_NXZ 00000001800809d0 f i libucrtd:output.obj
 0001:0007fa60       ?state_case_width@?$output_processor@_WV?$string_output_adapter@_W@__crt_stdio_output@@V?$standard_base@_WV?$string_output_adapter@_W@__crt_stdio_output@@@2@@__crt_stdio_output@@AEAA_NXZ 0000000180080a60 f i libucrtd:output.obj
 0001:0007faf0       ?state_count@?$format_validation_base@DV?$stream_output_adapter@D@__crt_stdio_output@@@__crt_stdio_output@@KAIXZ 0000000180080af0 f i libucrtd:output.obj
 0001:0007fb00       ?state_count@?$format_validation_base@DV?$string_output_adapter@D@__crt_stdio_output@@@__crt_stdio_output@@KAIXZ 0000000180080b00 f i libucrtd:output.obj
 0001:0007fb10       ?state_count@?$format_validation_base@_WV?$stream_output_adapter@_W@__crt_stdio_output@@@__crt_stdio_output@@KAIXZ 0000000180080b10 f i libucrtd:output.obj
 0001:0007fb20       ?state_count@?$format_validation_base@_WV?$string_output_adapter@_W@__crt_stdio_output@@@__crt_stdio_output@@KAIXZ 0000000180080b20 f i libucrtd:output.obj
 0001:0007fb30       ?state_count@?$standard_base@DV?$stream_output_adapter@D@__crt_stdio_output@@@__crt_stdio_output@@KAIXZ 0000000180080b30 f i libucrtd:output.obj
 0001:0007fb40       ?state_count@?$standard_base@DV?$string_output_adapter@D@__crt_stdio_output@@@__crt_stdio_output@@KAIXZ 0000000180080b40 f i libucrtd:output.obj
 0001:0007fb50       ?state_count@?$standard_base@_WV?$stream_output_adapter@_W@__crt_stdio_output@@@__crt_stdio_output@@KAIXZ 0000000180080b50 f i libucrtd:output.obj
 0001:0007fb60       ?state_count@?$standard_base@_WV?$string_output_adapter@_W@__crt_stdio_output@@@__crt_stdio_output@@KAIXZ 0000000180080b60 f i libucrtd:output.obj
 0001:0007fb70       ?state_transition_table@?$format_validation_base@DV?$stream_output_adapter@D@__crt_stdio_output@@@__crt_stdio_output@@KAAEBV?$spectre_mitigated_lookup_table@Ustate_transition_pair@__crt_stdio_output@@$0IA@@2@XZ 0000000180080b70 f i libucrtd:output.obj
 0001:0007fb80       ?state_transition_table@?$format_validation_base@DV?$string_output_adapter@D@__crt_stdio_output@@@__crt_stdio_output@@KAAEBV?$spectre_mitigated_lookup_table@Ustate_transition_pair@__crt_stdio_output@@$0IA@@2@XZ 0000000180080b80 f i libucrtd:output.obj
 0001:0007fb90       ?state_transition_table@?$format_validation_base@_WV?$stream_output_adapter@_W@__crt_stdio_output@@@__crt_stdio_output@@KAAEBV?$spectre_mitigated_lookup_table@Ustate_transition_pair@__crt_stdio_output@@$0IA@@2@XZ 0000000180080b90 f i libucrtd:output.obj
 0001:0007fba0       ?state_transition_table@?$format_validation_base@_WV?$string_output_adapter@_W@__crt_stdio_output@@@__crt_stdio_output@@KAAEBV?$spectre_mitigated_lookup_table@Ustate_transition_pair@__crt_stdio_output@@$0IA@@2@XZ 0000000180080ba0 f i libucrtd:output.obj
 0001:0007fbb0       ?state_transition_table@?$standard_base@DV?$stream_output_adapter@D@__crt_stdio_output@@@__crt_stdio_output@@KAAEBV?$spectre_mitigated_lookup_table@Ustate_transition_pair@__crt_stdio_output@@$0IA@@2@XZ 0000000180080bb0 f i libucrtd:output.obj
 0001:0007fbc0       ?state_transition_table@?$standard_base@DV?$string_output_adapter@D@__crt_stdio_output@@@__crt_stdio_output@@KAAEBV?$spectre_mitigated_lookup_table@Ustate_transition_pair@__crt_stdio_output@@$0IA@@2@XZ 0000000180080bc0 f i libucrtd:output.obj
 0001:0007fbd0       ?state_transition_table@?$standard_base@_WV?$stream_output_adapter@_W@__crt_stdio_output@@@__crt_stdio_output@@KAAEBV?$spectre_mitigated_lookup_table@Ustate_transition_pair@__crt_stdio_output@@$0IA@@2@XZ 0000000180080bd0 f i libucrtd:output.obj
 0001:0007fbe0       ?state_transition_table@?$standard_base@_WV?$string_output_adapter@_W@__crt_stdio_output@@@__crt_stdio_output@@KAAEBV?$spectre_mitigated_lookup_table@Ustate_transition_pair@__crt_stdio_output@@$0IA@@2@XZ 0000000180080be0 f i libucrtd:output.obj
 0001:0007fbf0       ?tchar_string@?$common_data@D@__crt_stdio_output@@IEAAAEAPEADD@Z 0000000180080bf0 f i libucrtd:output.obj
 0001:0007fc10       ?tchar_string@?$common_data@D@__crt_stdio_output@@IEAAAEAPEADXZ 0000000180080c10 f i libucrtd:output.obj
 0001:0007fc30       ?tchar_string@?$common_data@_W@__crt_stdio_output@@IEAAAEAPEA_WXZ 0000000180080c30 f i libucrtd:output.obj
 0001:0007fc50       ?tchar_string@?$common_data@_W@__crt_stdio_output@@IEAAAEAPEA_W_W@Z 0000000180080c50 f i libucrtd:output.obj
 0001:0007fc70       ?to_integer_size@__crt_stdio_output@@YA_KW4length_modifier@1@@Z 0000000180080c70 f i libucrtd:output.obj
 0001:0007fd20       ?type_case_X@?$output_processor@DV?$stream_output_adapter@D@__crt_stdio_output@@V?$format_validation_base@DV?$stream_output_adapter@D@__crt_stdio_output@@@2@@__crt_stdio_output@@AEAA_NXZ 0000000180080d20 f i libucrtd:output.obj
 0001:0007fd40       ?type_case_X@?$output_processor@DV?$stream_output_adapter@D@__crt_stdio_output@@V?$positional_parameter_base@DV?$stream_output_adapter@D@__crt_stdio_output@@@2@@__crt_stdio_output@@AEAA_NXZ 0000000180080d40 f i libucrtd:output.obj
 0001:0007fd60       ?type_case_X@?$output_processor@DV?$stream_output_adapter@D@__crt_stdio_output@@V?$standard_base@DV?$stream_output_adapter@D@__crt_stdio_output@@@2@@__crt_stdio_output@@AEAA_NXZ 0000000180080d60 f i libucrtd:output.obj
 0001:0007fd80       ?type_case_X@?$output_processor@DV?$string_output_adapter@D@__crt_stdio_output@@V?$format_validation_base@DV?$string_output_adapter@D@__crt_stdio_output@@@2@@__crt_stdio_output@@AEAA_NXZ 0000000180080d80 f i libucrtd:output.obj
 0001:0007fda0       ?type_case_X@?$output_processor@DV?$string_output_adapter@D@__crt_stdio_output@@V?$positional_parameter_base@DV?$string_output_adapter@D@__crt_stdio_output@@@2@@__crt_stdio_output@@AEAA_NXZ 0000000180080da0 f i libucrtd:output.obj
 0001:0007fdc0       ?type_case_X@?$output_processor@DV?$string_output_adapter@D@__crt_stdio_output@@V?$standard_base@DV?$string_output_adapter@D@__crt_stdio_output@@@2@@__crt_stdio_output@@AEAA_NXZ 0000000180080dc0 f i libucrtd:output.obj
 0001:0007fde0       ?type_case_X@?$output_processor@_WV?$stream_output_adapter@_W@__crt_stdio_output@@V?$format_validation_base@_WV?$stream_output_adapter@_W@__crt_stdio_output@@@2@@__crt_stdio_output@@AEAA_NXZ 0000000180080de0 f i libucrtd:output.obj
 0001:0007fe00       ?type_case_X@?$output_processor@_WV?$stream_output_adapter@_W@__crt_stdio_output@@V?$positional_parameter_base@_WV?$stream_output_adapter@_W@__crt_stdio_output@@@2@@__crt_stdio_output@@AEAA_NXZ 0000000180080e00 f i libucrtd:output.obj
 0001:0007fe20       ?type_case_X@?$output_processor@_WV?$stream_output_adapter@_W@__crt_stdio_output@@V?$standard_base@_WV?$stream_output_adapter@_W@__crt_stdio_output@@@2@@__crt_stdio_output@@AEAA_NXZ 0000000180080e20 f i libucrtd:output.obj
 0001:0007fe40       ?type_case_X@?$output_processor@_WV?$string_output_adapter@_W@__crt_stdio_output@@V?$format_validation_base@_WV?$string_output_adapter@_W@__crt_stdio_output@@@2@@__crt_stdio_output@@AEAA_NXZ 0000000180080e40 f i libucrtd:output.obj
 0001:0007fe60       ?type_case_X@?$output_processor@_WV?$string_output_adapter@_W@__crt_stdio_output@@V?$positional_parameter_base@_WV?$string_output_adapter@_W@__crt_stdio_output@@@2@@__crt_stdio_output@@AEAA_NXZ 0000000180080e60 f i libucrtd:output.obj
 0001:0007fe80       ?type_case_X@?$output_processor@_WV?$string_output_adapter@_W@__crt_stdio_output@@V?$standard_base@_WV?$string_output_adapter@_W@__crt_stdio_output@@@2@@__crt_stdio_output@@AEAA_NXZ 0000000180080e80 f i libucrtd:output.obj
 0001:0007fea0       ?type_case_Z@?$output_processor@DV?$stream_output_adapter@D@__crt_stdio_output@@V?$format_validation_base@DV?$stream_output_adapter@D@__crt_stdio_output@@@2@@__crt_stdio_output@@AEAA_NXZ 0000000180080ea0 f i libucrtd:output.obj
 0001:0007ffc0       ?type_case_Z@?$output_processor@DV?$stream_output_adapter@D@__crt_stdio_output@@V?$positional_parameter_base@DV?$stream_output_adapter@D@__crt_stdio_output@@@2@@__crt_stdio_output@@AEAA_NXZ 0000000180080fc0 f i libucrtd:output.obj
 0001:000800e0       ?type_case_Z@?$output_processor@DV?$stream_output_adapter@D@__crt_stdio_output@@V?$standard_base@DV?$stream_output_adapter@D@__crt_stdio_output@@@2@@__crt_stdio_output@@AEAA_NXZ 00000001800810e0 f i libucrtd:output.obj
 0001:00080200       ?type_case_Z@?$output_processor@DV?$string_output_adapter@D@__crt_stdio_output@@V?$format_validation_base@DV?$string_output_adapter@D@__crt_stdio_output@@@2@@__crt_stdio_output@@AEAA_NXZ 0000000180081200 f i libucrtd:output.obj
 0001:00080320       ?type_case_Z@?$output_processor@DV?$string_output_adapter@D@__crt_stdio_output@@V?$positional_parameter_base@DV?$string_output_adapter@D@__crt_stdio_output@@@2@@__crt_stdio_output@@AEAA_NXZ 0000000180081320 f i libucrtd:output.obj
 0001:00080440       ?type_case_Z@?$output_processor@DV?$string_output_adapter@D@__crt_stdio_output@@V?$standard_base@DV?$string_output_adapter@D@__crt_stdio_output@@@2@@__crt_stdio_output@@AEAA_NXZ 0000000180081440 f i libucrtd:output.obj
 0001:00080560       ?type_case_Z@?$output_processor@_WV?$stream_output_adapter@_W@__crt_stdio_output@@V?$format_validation_base@_WV?$stream_output_adapter@_W@__crt_stdio_output@@@2@@__crt_stdio_output@@AEAA_NXZ 0000000180081560 f i libucrtd:output.obj
 0001:00080680       ?type_case_Z@?$output_processor@_WV?$stream_output_adapter@_W@__crt_stdio_output@@V?$positional_parameter_base@_WV?$stream_output_adapter@_W@__crt_stdio_output@@@2@@__crt_stdio_output@@AEAA_NXZ 0000000180081680 f i libucrtd:output.obj
 0001:000807a0       ?type_case_Z@?$output_processor@_WV?$stream_output_adapter@_W@__crt_stdio_output@@V?$standard_base@_WV?$stream_output_adapter@_W@__crt_stdio_output@@@2@@__crt_stdio_output@@AEAA_NXZ 00000001800817a0 f i libucrtd:output.obj
 0001:000808c0       ?type_case_Z@?$output_processor@_WV?$string_output_adapter@_W@__crt_stdio_output@@V?$format_validation_base@_WV?$string_output_adapter@_W@__crt_stdio_output@@@2@@__crt_stdio_output@@AEAA_NXZ 00000001800818c0 f i libucrtd:output.obj
 0001:000809e0       ?type_case_Z@?$output_processor@_WV?$string_output_adapter@_W@__crt_stdio_output@@V?$positional_parameter_base@_WV?$string_output_adapter@_W@__crt_stdio_output@@@2@@__crt_stdio_output@@AEAA_NXZ 00000001800819e0 f i libucrtd:output.obj
 0001:00080b00       ?type_case_Z@?$output_processor@_WV?$string_output_adapter@_W@__crt_stdio_output@@V?$standard_base@_WV?$string_output_adapter@_W@__crt_stdio_output@@@2@@__crt_stdio_output@@AEAA_NXZ 0000000180081b00 f i libucrtd:output.obj
 0001:00080c20       ?type_case_a@?$output_processor@DV?$stream_output_adapter@D@__crt_stdio_output@@V?$format_validation_base@DV?$stream_output_adapter@D@__crt_stdio_output@@@2@@__crt_stdio_output@@AEAA_NXZ 0000000180081c20 f i libucrtd:output.obj
 0001:00081080       ?type_case_a@?$output_processor@DV?$stream_output_adapter@D@__crt_stdio_output@@V?$positional_parameter_base@DV?$stream_output_adapter@D@__crt_stdio_output@@@2@@__crt_stdio_output@@AEAA_NXZ 0000000180082080 f i libucrtd:output.obj
 0001:000814e0       ?type_case_a@?$output_processor@DV?$stream_output_adapter@D@__crt_stdio_output@@V?$standard_base@DV?$stream_output_adapter@D@__crt_stdio_output@@@2@@__crt_stdio_output@@AEAA_NXZ 00000001800824e0 f i libucrtd:output.obj
 0001:00081940       ?type_case_a@?$output_processor@DV?$string_output_adapter@D@__crt_stdio_output@@V?$format_validation_base@DV?$string_output_adapter@D@__crt_stdio_output@@@2@@__crt_stdio_output@@AEAA_NXZ 0000000180082940 f i libucrtd:output.obj
 0001:00081da0       ?type_case_a@?$output_processor@DV?$string_output_adapter@D@__crt_stdio_output@@V?$positional_parameter_base@DV?$string_output_adapter@D@__crt_stdio_output@@@2@@__crt_stdio_output@@AEAA_NXZ 0000000180082da0 f i libucrtd:output.obj
 0001:00082200       ?type_case_a@?$output_processor@DV?$string_output_adapter@D@__crt_stdio_output@@V?$standard_base@DV?$string_output_adapter@D@__crt_stdio_output@@@2@@__crt_stdio_output@@AEAA_NXZ 0000000180083200 f i libucrtd:output.obj
 0001:00082660       ?type_case_a@?$output_processor@_WV?$stream_output_adapter@_W@__crt_stdio_output@@V?$format_validation_base@_WV?$stream_output_adapter@_W@__crt_stdio_output@@@2@@__crt_stdio_output@@AEAA_NXZ 0000000180083660 f i libucrtd:output.obj
 0001:00082ad0       ?type_case_a@?$output_processor@_WV?$stream_output_adapter@_W@__crt_stdio_output@@V?$positional_parameter_base@_WV?$stream_output_adapter@_W@__crt_stdio_output@@@2@@__crt_stdio_output@@AEAA_NXZ 0000000180083ad0 f i libucrtd:output.obj
 0001:00082f40       ?type_case_a@?$output_processor@_WV?$stream_output_adapter@_W@__crt_stdio_output@@V?$standard_base@_WV?$stream_output_adapter@_W@__crt_stdio_output@@@2@@__crt_stdio_output@@AEAA_NXZ 0000000180083f40 f i libucrtd:output.obj
 0001:000833b0       ?type_case_a@?$output_processor@_WV?$string_output_adapter@_W@__crt_stdio_output@@V?$format_validation_base@_WV?$string_output_adapter@_W@__crt_stdio_output@@@2@@__crt_stdio_output@@AEAA_NXZ 00000001800843b0 f i libucrtd:output.obj
 0001:00083820       ?type_case_a@?$output_processor@_WV?$string_output_adapter@_W@__crt_stdio_output@@V?$positional_parameter_base@_WV?$string_output_adapter@_W@__crt_stdio_output@@@2@@__crt_stdio_output@@AEAA_NXZ 0000000180084820 f i libucrtd:output.obj
 0001:00083c90       ?type_case_a@?$output_processor@_WV?$string_output_adapter@_W@__crt_stdio_output@@V?$standard_base@_WV?$string_output_adapter@_W@__crt_stdio_output@@@2@@__crt_stdio_output@@AEAA_NXZ 0000000180084c90 f i libucrtd:output.obj
 0001:00084100       ?type_case_c@?$output_processor@DV?$stream_output_adapter@D@__crt_stdio_output@@V?$format_validation_base@DV?$stream_output_adapter@D@__crt_stdio_output@@@2@@__crt_stdio_output@@AEAA_NXZ 0000000180085100 f i libucrtd:output.obj
 0001:00084120       ?type_case_c@?$output_processor@DV?$stream_output_adapter@D@__crt_stdio_output@@V?$positional_parameter_base@DV?$stream_output_adapter@D@__crt_stdio_output@@@2@@__crt_stdio_output@@AEAA_NXZ 0000000180085120 f i libucrtd:output.obj
 0001:00084140       ?type_case_c@?$output_processor@DV?$stream_output_adapter@D@__crt_stdio_output@@V?$standard_base@DV?$stream_output_adapter@D@__crt_stdio_output@@@2@@__crt_stdio_output@@AEAA_NXZ 0000000180085140 f i libucrtd:output.obj
 0001:00084160       ?type_case_c@?$output_processor@DV?$string_output_adapter@D@__crt_stdio_output@@V?$format_validation_base@DV?$string_output_adapter@D@__crt_stdio_output@@@2@@__crt_stdio_output@@AEAA_NXZ 0000000180085160 f i libucrtd:output.obj
 0001:00084180       ?type_case_c@?$output_processor@DV?$string_output_adapter@D@__crt_stdio_output@@V?$positional_parameter_base@DV?$string_output_adapter@D@__crt_stdio_output@@@2@@__crt_stdio_output@@AEAA_NXZ 0000000180085180 f i libucrtd:output.obj
 0001:000841a0       ?type_case_c@?$output_processor@DV?$string_output_adapter@D@__crt_stdio_output@@V?$standard_base@DV?$string_output_adapter@D@__crt_stdio_output@@@2@@__crt_stdio_output@@AEAA_NXZ 00000001800851a0 f i libucrtd:output.obj
 0001:000841c0       ?type_case_c@?$output_processor@_WV?$stream_output_adapter@_W@__crt_stdio_output@@V?$format_validation_base@_WV?$stream_output_adapter@_W@__crt_stdio_output@@@2@@__crt_stdio_output@@AEAA_NXZ 00000001800851c0 f i libucrtd:output.obj
 0001:000841e0       ?type_case_c@?$output_processor@_WV?$stream_output_adapter@_W@__crt_stdio_output@@V?$positional_parameter_base@_WV?$stream_output_adapter@_W@__crt_stdio_output@@@2@@__crt_stdio_output@@AEAA_NXZ 00000001800851e0 f i libucrtd:output.obj
 0001:00084200       ?type_case_c@?$output_processor@_WV?$stream_output_adapter@_W@__crt_stdio_output@@V?$standard_base@_WV?$stream_output_adapter@_W@__crt_stdio_output@@@2@@__crt_stdio_output@@AEAA_NXZ 0000000180085200 f i libucrtd:output.obj
 0001:00084220       ?type_case_c@?$output_processor@_WV?$string_output_adapter@_W@__crt_stdio_output@@V?$format_validation_base@_WV?$string_output_adapter@_W@__crt_stdio_output@@@2@@__crt_stdio_output@@AEAA_NXZ 0000000180085220 f i libucrtd:output.obj
 0001:00084240       ?type_case_c@?$output_processor@_WV?$string_output_adapter@_W@__crt_stdio_output@@V?$positional_parameter_base@_WV?$string_output_adapter@_W@__crt_stdio_output@@@2@@__crt_stdio_output@@AEAA_NXZ 0000000180085240 f i libucrtd:output.obj
 0001:00084260       ?type_case_c@?$output_processor@_WV?$string_output_adapter@_W@__crt_stdio_output@@V?$standard_base@_WV?$string_output_adapter@_W@__crt_stdio_output@@@2@@__crt_stdio_output@@AEAA_NXZ 0000000180085260 f i libucrtd:output.obj
 0001:00084280       ?type_case_c_tchar@?$output_processor@DV?$stream_output_adapter@D@__crt_stdio_output@@V?$format_validation_base@DV?$stream_output_adapter@D@__crt_stdio_output@@@2@@__crt_stdio_output@@AEAA_ND@Z 0000000180085280 f i libucrtd:output.obj
 0001:000843f0       ?type_case_c_tchar@?$output_processor@DV?$stream_output_adapter@D@__crt_stdio_output@@V?$positional_parameter_base@DV?$stream_output_adapter@D@__crt_stdio_output@@@2@@__crt_stdio_output@@AEAA_ND@Z 00000001800853f0 f i libucrtd:output.obj
 0001:00084560       ?type_case_c_tchar@?$output_processor@DV?$stream_output_adapter@D@__crt_stdio_output@@V?$standard_base@DV?$stream_output_adapter@D@__crt_stdio_output@@@2@@__crt_stdio_output@@AEAA_ND@Z 0000000180085560 f i libucrtd:output.obj
 0001:000846d0       ?type_case_c_tchar@?$output_processor@DV?$string_output_adapter@D@__crt_stdio_output@@V?$format_validation_base@DV?$string_output_adapter@D@__crt_stdio_output@@@2@@__crt_stdio_output@@AEAA_ND@Z 00000001800856d0 f i libucrtd:output.obj
 0001:00084840       ?type_case_c_tchar@?$output_processor@DV?$string_output_adapter@D@__crt_stdio_output@@V?$positional_parameter_base@DV?$string_output_adapter@D@__crt_stdio_output@@@2@@__crt_stdio_output@@AEAA_ND@Z 0000000180085840 f i libucrtd:output.obj
 0001:000849b0       ?type_case_c_tchar@?$output_processor@DV?$string_output_adapter@D@__crt_stdio_output@@V?$standard_base@DV?$string_output_adapter@D@__crt_stdio_output@@@2@@__crt_stdio_output@@AEAA_ND@Z 00000001800859b0 f i libucrtd:output.obj
 0001:00084b20       ?type_case_c_tchar@?$output_processor@_WV?$stream_output_adapter@_W@__crt_stdio_output@@V?$format_validation_base@_WV?$stream_output_adapter@_W@__crt_stdio_output@@@2@@__crt_stdio_output@@AEAA_N_W@Z 0000000180085b20 f i libucrtd:output.obj
 0001:00084c80       ?type_case_c_tchar@?$output_processor@_WV?$stream_output_adapter@_W@__crt_stdio_output@@V?$positional_parameter_base@_WV?$stream_output_adapter@_W@__crt_stdio_output@@@2@@__crt_stdio_output@@AEAA_N_W@Z 0000000180085c80 f i libucrtd:output.obj
 0001:00084de0       ?type_case_c_tchar@?$output_processor@_WV?$stream_output_adapter@_W@__crt_stdio_output@@V?$standard_base@_WV?$stream_output_adapter@_W@__crt_stdio_output@@@2@@__crt_stdio_output@@AEAA_N_W@Z 0000000180085de0 f i libucrtd:output.obj
 0001:00084f40       ?type_case_c_tchar@?$output_processor@_WV?$string_output_adapter@_W@__crt_stdio_output@@V?$format_validation_base@_WV?$string_output_adapter@_W@__crt_stdio_output@@@2@@__crt_stdio_output@@AEAA_N_W@Z 0000000180085f40 f i libucrtd:output.obj
 0001:000850a0       ?type_case_c_tchar@?$output_processor@_WV?$string_output_adapter@_W@__crt_stdio_output@@V?$positional_parameter_base@_WV?$string_output_adapter@_W@__crt_stdio_output@@@2@@__crt_stdio_output@@AEAA_N_W@Z 00000001800860a0 f i libucrtd:output.obj
 0001:00085200       ?type_case_c_tchar@?$output_processor@_WV?$string_output_adapter@_W@__crt_stdio_output@@V?$standard_base@_WV?$string_output_adapter@_W@__crt_stdio_output@@@2@@__crt_stdio_output@@AEAA_N_W@Z 0000000180086200 f i libucrtd:output.obj
 0001:00085360       ?type_case_d@?$output_processor@DV?$stream_output_adapter@D@__crt_stdio_output@@V?$format_validation_base@DV?$stream_output_adapter@D@__crt_stdio_output@@@2@@__crt_stdio_output@@AEAA_NXZ 0000000180086360 f i libucrtd:output.obj
 0001:00085390       ?type_case_d@?$output_processor@DV?$stream_output_adapter@D@__crt_stdio_output@@V?$positional_parameter_base@DV?$stream_output_adapter@D@__crt_stdio_output@@@2@@__crt_stdio_output@@AEAA_NXZ 0000000180086390 f i libucrtd:output.obj
 0001:000853c0       ?type_case_d@?$output_processor@DV?$stream_output_adapter@D@__crt_stdio_output@@V?$standard_base@DV?$stream_output_adapter@D@__crt_stdio_output@@@2@@__crt_stdio_output@@AEAA_NXZ 00000001800863c0 f i libucrtd:output.obj
 0001:000853f0       ?type_case_d@?$output_processor@DV?$string_output_adapter@D@__crt_stdio_output@@V?$format_validation_base@DV?$string_output_adapter@D@__crt_stdio_output@@@2@@__crt_stdio_output@@AEAA_NXZ 00000001800863f0 f i libucrtd:output.obj
 0001:00085420       ?type_case_d@?$output_processor@DV?$string_output_adapter@D@__crt_stdio_output@@V?$positional_parameter_base@DV?$string_output_adapter@D@__crt_stdio_output@@@2@@__crt_stdio_output@@AEAA_NXZ 0000000180086420 f i libucrtd:output.obj
 0001:00085450       ?type_case_d@?$output_processor@DV?$string_output_adapter@D@__crt_stdio_output@@V?$standard_base@DV?$string_output_adapter@D@__crt_stdio_output@@@2@@__crt_stdio_output@@AEAA_NXZ 0000000180086450 f i libucrtd:output.obj
 0001:00085480       ?type_case_d@?$output_processor@_WV?$stream_output_adapter@_W@__crt_stdio_output@@V?$format_validation_base@_WV?$stream_output_adapter@_W@__crt_stdio_output@@@2@@__crt_stdio_output@@AEAA_NXZ 0000000180086480 f i libucrtd:output.obj
 0001:000854b0       ?type_case_d@?$output_processor@_WV?$stream_output_adapter@_W@__crt_stdio_output@@V?$positional_parameter_base@_WV?$stream_output_adapter@_W@__crt_stdio_output@@@2@@__crt_stdio_output@@AEAA_NXZ 00000001800864b0 f i libucrtd:output.obj
 0001:000854e0       ?type_case_d@?$output_processor@_WV?$stream_output_adapter@_W@__crt_stdio_output@@V?$standard_base@_WV?$stream_output_adapter@_W@__crt_stdio_output@@@2@@__crt_stdio_output@@AEAA_NXZ 00000001800864e0 f i libucrtd:output.obj
 0001:00085510       ?type_case_d@?$output_processor@_WV?$string_output_adapter@_W@__crt_stdio_output@@V?$format_validation_base@_WV?$string_output_adapter@_W@__crt_stdio_output@@@2@@__crt_stdio_output@@AEAA_NXZ 0000000180086510 f i libucrtd:output.obj
 0001:00085540       ?type_case_d@?$output_processor@_WV?$string_output_adapter@_W@__crt_stdio_output@@V?$positional_parameter_base@_WV?$string_output_adapter@_W@__crt_stdio_output@@@2@@__crt_stdio_output@@AEAA_NXZ 0000000180086540 f i libucrtd:output.obj
 0001:00085570       ?type_case_d@?$output_processor@_WV?$string_output_adapter@_W@__crt_stdio_output@@V?$standard_base@_WV?$string_output_adapter@_W@__crt_stdio_output@@@2@@__crt_stdio_output@@AEAA_NXZ 0000000180086570 f i libucrtd:output.obj
 0001:000855a0       ?type_case_n@?$output_processor@DV?$stream_output_adapter@D@__crt_stdio_output@@V?$format_validation_base@DV?$stream_output_adapter@D@__crt_stdio_output@@@2@@__crt_stdio_output@@AEAA_NXZ 00000001800865a0 f i libucrtd:output.obj
 0001:00085830       ?type_case_n@?$output_processor@DV?$stream_output_adapter@D@__crt_stdio_output@@V?$positional_parameter_base@DV?$stream_output_adapter@D@__crt_stdio_output@@@2@@__crt_stdio_output@@AEAA_NXZ 0000000180086830 f i libucrtd:output.obj
 0001:00085ac0       ?type_case_n@?$output_processor@DV?$stream_output_adapter@D@__crt_stdio_output@@V?$standard_base@DV?$stream_output_adapter@D@__crt_stdio_output@@@2@@__crt_stdio_output@@AEAA_NXZ 0000000180086ac0 f i libucrtd:output.obj
 0001:00085d50       ?type_case_n@?$output_processor@DV?$string_output_adapter@D@__crt_stdio_output@@V?$format_validation_base@DV?$string_output_adapter@D@__crt_stdio_output@@@2@@__crt_stdio_output@@AEAA_NXZ 0000000180086d50 f i libucrtd:output.obj
 0001:00085fe0       ?type_case_n@?$output_processor@DV?$string_output_adapter@D@__crt_stdio_output@@V?$positional_parameter_base@DV?$string_output_adapter@D@__crt_stdio_output@@@2@@__crt_stdio_output@@AEAA_NXZ 0000000180086fe0 f i libucrtd:output.obj
 0001:00086270       ?type_case_n@?$output_processor@DV?$string_output_adapter@D@__crt_stdio_output@@V?$standard_base@DV?$string_output_adapter@D@__crt_stdio_output@@@2@@__crt_stdio_output@@AEAA_NXZ 0000000180087270 f i libucrtd:output.obj
 0001:00086500       ?type_case_n@?$output_processor@_WV?$stream_output_adapter@_W@__crt_stdio_output@@V?$format_validation_base@_WV?$stream_output_adapter@_W@__crt_stdio_output@@@2@@__crt_stdio_output@@AEAA_NXZ 0000000180087500 f i libucrtd:output.obj
 0001:00086790       ?type_case_n@?$output_processor@_WV?$stream_output_adapter@_W@__crt_stdio_output@@V?$positional_parameter_base@_WV?$stream_output_adapter@_W@__crt_stdio_output@@@2@@__crt_stdio_output@@AEAA_NXZ 0000000180087790 f i libucrtd:output.obj
 0001:00086a20       ?type_case_n@?$output_processor@_WV?$stream_output_adapter@_W@__crt_stdio_output@@V?$standard_base@_WV?$stream_output_adapter@_W@__crt_stdio_output@@@2@@__crt_stdio_output@@AEAA_NXZ 0000000180087a20 f i libucrtd:output.obj
 0001:00086cb0       ?type_case_n@?$output_processor@_WV?$string_output_adapter@_W@__crt_stdio_output@@V?$format_validation_base@_WV?$string_output_adapter@_W@__crt_stdio_output@@@2@@__crt_stdio_output@@AEAA_NXZ 0000000180087cb0 f i libucrtd:output.obj
 0001:00086f40       ?type_case_n@?$output_processor@_WV?$string_output_adapter@_W@__crt_stdio_output@@V?$positional_parameter_base@_WV?$string_output_adapter@_W@__crt_stdio_output@@@2@@__crt_stdio_output@@AEAA_NXZ 0000000180087f40 f i libucrtd:output.obj
 0001:000871d0       ?type_case_n@?$output_processor@_WV?$string_output_adapter@_W@__crt_stdio_output@@V?$standard_base@_WV?$string_output_adapter@_W@__crt_stdio_output@@@2@@__crt_stdio_output@@AEAA_NXZ 00000001800881d0 f i libucrtd:output.obj
 0001:00087460       ?type_case_o@?$output_processor@DV?$stream_output_adapter@D@__crt_stdio_output@@V?$format_validation_base@DV?$stream_output_adapter@D@__crt_stdio_output@@@2@@__crt_stdio_output@@AEAA_NXZ 0000000180088460 f i libucrtd:output.obj
 0001:000874a0       ?type_case_o@?$output_processor@DV?$stream_output_adapter@D@__crt_stdio_output@@V?$positional_parameter_base@DV?$stream_output_adapter@D@__crt_stdio_output@@@2@@__crt_stdio_output@@AEAA_NXZ 00000001800884a0 f i libucrtd:output.obj
 0001:000874e0       ?type_case_o@?$output_processor@DV?$stream_output_adapter@D@__crt_stdio_output@@V?$standard_base@DV?$stream_output_adapter@D@__crt_stdio_output@@@2@@__crt_stdio_output@@AEAA_NXZ 00000001800884e0 f i libucrtd:output.obj
 0001:00087520       ?type_case_o@?$output_processor@DV?$string_output_adapter@D@__crt_stdio_output@@V?$format_validation_base@DV?$string_output_adapter@D@__crt_stdio_output@@@2@@__crt_stdio_output@@AEAA_NXZ 0000000180088520 f i libucrtd:output.obj
 0001:00087560       ?type_case_o@?$output_processor@DV?$string_output_adapter@D@__crt_stdio_output@@V?$positional_parameter_base@DV?$string_output_adapter@D@__crt_stdio_output@@@2@@__crt_stdio_output@@AEAA_NXZ 0000000180088560 f i libucrtd:output.obj
 0001:000875a0       ?type_case_o@?$output_processor@DV?$string_output_adapter@D@__crt_stdio_output@@V?$standard_base@DV?$string_output_adapter@D@__crt_stdio_output@@@2@@__crt_stdio_output@@AEAA_NXZ 00000001800885a0 f i libucrtd:output.obj
 0001:000875e0       ?type_case_o@?$output_processor@_WV?$stream_output_adapter@_W@__crt_stdio_output@@V?$format_validation_base@_WV?$stream_output_adapter@_W@__crt_stdio_output@@@2@@__crt_stdio_output@@AEAA_NXZ 00000001800885e0 f i libucrtd:output.obj
 0001:00087620       ?type_case_o@?$output_processor@_WV?$stream_output_adapter@_W@__crt_stdio_output@@V?$positional_parameter_base@_WV?$stream_output_adapter@_W@__crt_stdio_output@@@2@@__crt_stdio_output@@AEAA_NXZ 0000000180088620 f i libucrtd:output.obj
 0001:00087660       ?type_case_o@?$output_processor@_WV?$stream_output_adapter@_W@__crt_stdio_output@@V?$standard_base@_WV?$stream_output_adapter@_W@__crt_stdio_output@@@2@@__crt_stdio_output@@AEAA_NXZ 0000000180088660 f i libucrtd:output.obj
 0001:000876a0       ?type_case_o@?$output_processor@_WV?$string_output_adapter@_W@__crt_stdio_output@@V?$format_validation_base@_WV?$string_output_adapter@_W@__crt_stdio_output@@@2@@__crt_stdio_output@@AEAA_NXZ 00000001800886a0 f i libucrtd:output.obj
 0001:000876e0       ?type_case_o@?$output_processor@_WV?$string_output_adapter@_W@__crt_stdio_output@@V?$positional_parameter_base@_WV?$string_output_adapter@_W@__crt_stdio_output@@@2@@__crt_stdio_output@@AEAA_NXZ 00000001800886e0 f i libucrtd:output.obj
 0001:00087720       ?type_case_o@?$output_processor@_WV?$string_output_adapter@_W@__crt_stdio_output@@V?$standard_base@_WV?$string_output_adapter@_W@__crt_stdio_output@@@2@@__crt_stdio_output@@AEAA_NXZ 0000000180088720 f i libucrtd:output.obj
 0001:00087760       ?type_case_p@?$output_processor@DV?$stream_output_adapter@D@__crt_stdio_output@@V?$format_validation_base@DV?$stream_output_adapter@D@__crt_stdio_output@@@2@@__crt_stdio_output@@AEAA_NXZ 0000000180088760 f i libucrtd:output.obj
 0001:000877a0       ?type_case_p@?$output_processor@DV?$stream_output_adapter@D@__crt_stdio_output@@V?$positional_parameter_base@DV?$stream_output_adapter@D@__crt_stdio_output@@@2@@__crt_stdio_output@@AEAA_NXZ 00000001800887a0 f i libucrtd:output.obj
 0001:000877e0       ?type_case_p@?$output_processor@DV?$stream_output_adapter@D@__crt_stdio_output@@V?$standard_base@DV?$stream_output_adapter@D@__crt_stdio_output@@@2@@__crt_stdio_output@@AEAA_NXZ 00000001800887e0 f i libucrtd:output.obj
 0001:00087820       ?type_case_p@?$output_processor@DV?$string_output_adapter@D@__crt_stdio_output@@V?$format_validation_base@DV?$string_output_adapter@D@__crt_stdio_output@@@2@@__crt_stdio_output@@AEAA_NXZ 0000000180088820 f i libucrtd:output.obj
 0001:00087860       ?type_case_p@?$output_processor@DV?$string_output_adapter@D@__crt_stdio_output@@V?$positional_parameter_base@DV?$string_output_adapter@D@__crt_stdio_output@@@2@@__crt_stdio_output@@AEAA_NXZ 0000000180088860 f i libucrtd:output.obj
 0001:000878a0       ?type_case_p@?$output_processor@DV?$string_output_adapter@D@__crt_stdio_output@@V?$standard_base@DV?$string_output_adapter@D@__crt_stdio_output@@@2@@__crt_stdio_output@@AEAA_NXZ 00000001800888a0 f i libucrtd:output.obj
 0001:000878e0       ?type_case_p@?$output_processor@_WV?$stream_output_adapter@_W@__crt_stdio_output@@V?$format_validation_base@_WV?$stream_output_adapter@_W@__crt_stdio_output@@@2@@__crt_stdio_output@@AEAA_NXZ 00000001800888e0 f i libucrtd:output.obj
 0001:00087920       ?type_case_p@?$output_processor@_WV?$stream_output_adapter@_W@__crt_stdio_output@@V?$positional_parameter_base@_WV?$stream_output_adapter@_W@__crt_stdio_output@@@2@@__crt_stdio_output@@AEAA_NXZ 0000000180088920 f i libucrtd:output.obj
 0001:00087960       ?type_case_p@?$output_processor@_WV?$stream_output_adapter@_W@__crt_stdio_output@@V?$standard_base@_WV?$stream_output_adapter@_W@__crt_stdio_output@@@2@@__crt_stdio_output@@AEAA_NXZ 0000000180088960 f i libucrtd:output.obj
 0001:000879a0       ?type_case_p@?$output_processor@_WV?$string_output_adapter@_W@__crt_stdio_output@@V?$format_validation_base@_WV?$string_output_adapter@_W@__crt_stdio_output@@@2@@__crt_stdio_output@@AEAA_NXZ 00000001800889a0 f i libucrtd:output.obj
 0001:000879e0       ?type_case_p@?$output_processor@_WV?$string_output_adapter@_W@__crt_stdio_output@@V?$positional_parameter_base@_WV?$string_output_adapter@_W@__crt_stdio_output@@@2@@__crt_stdio_output@@AEAA_NXZ 00000001800889e0 f i libucrtd:output.obj
 0001:00087a20       ?type_case_p@?$output_processor@_WV?$string_output_adapter@_W@__crt_stdio_output@@V?$standard_base@_WV?$string_output_adapter@_W@__crt_stdio_output@@@2@@__crt_stdio_output@@AEAA_NXZ 0000000180088a20 f i libucrtd:output.obj
 0001:00087a60       ?type_case_s@?$output_processor@DV?$stream_output_adapter@D@__crt_stdio_output@@V?$format_validation_base@DV?$stream_output_adapter@D@__crt_stdio_output@@@2@@__crt_stdio_output@@AEAA_NXZ 0000000180088a60 f i libucrtd:output.obj
 0001:00087b80       ?type_case_s@?$output_processor@DV?$stream_output_adapter@D@__crt_stdio_output@@V?$positional_parameter_base@DV?$stream_output_adapter@D@__crt_stdio_output@@@2@@__crt_stdio_output@@AEAA_NXZ 0000000180088b80 f i libucrtd:output.obj
 0001:00087ca0       ?type_case_s@?$output_processor@DV?$stream_output_adapter@D@__crt_stdio_output@@V?$standard_base@DV?$stream_output_adapter@D@__crt_stdio_output@@@2@@__crt_stdio_output@@AEAA_NXZ 0000000180088ca0 f i libucrtd:output.obj
 0001:00087dc0       ?type_case_s@?$output_processor@DV?$string_output_adapter@D@__crt_stdio_output@@V?$format_validation_base@DV?$string_output_adapter@D@__crt_stdio_output@@@2@@__crt_stdio_output@@AEAA_NXZ 0000000180088dc0 f i libucrtd:output.obj
 0001:00087ee0       ?type_case_s@?$output_processor@DV?$string_output_adapter@D@__crt_stdio_output@@V?$positional_parameter_base@DV?$string_output_adapter@D@__crt_stdio_output@@@2@@__crt_stdio_output@@AEAA_NXZ 0000000180088ee0 f i libucrtd:output.obj
 0001:00088000       ?type_case_s@?$output_processor@DV?$string_output_adapter@D@__crt_stdio_output@@V?$standard_base@DV?$string_output_adapter@D@__crt_stdio_output@@@2@@__crt_stdio_output@@AEAA_NXZ 0000000180089000 f i libucrtd:output.obj
 0001:00088120       ?type_case_s@?$output_processor@_WV?$stream_output_adapter@_W@__crt_stdio_output@@V?$format_validation_base@_WV?$stream_output_adapter@_W@__crt_stdio_output@@@2@@__crt_stdio_output@@AEAA_NXZ 0000000180089120 f i libucrtd:output.obj
 0001:00088240       ?type_case_s@?$output_processor@_WV?$stream_output_adapter@_W@__crt_stdio_output@@V?$positional_parameter_base@_WV?$stream_output_adapter@_W@__crt_stdio_output@@@2@@__crt_stdio_output@@AEAA_NXZ 0000000180089240 f i libucrtd:output.obj
 0001:00088360       ?type_case_s@?$output_processor@_WV?$stream_output_adapter@_W@__crt_stdio_output@@V?$standard_base@_WV?$stream_output_adapter@_W@__crt_stdio_output@@@2@@__crt_stdio_output@@AEAA_NXZ 0000000180089360 f i libucrtd:output.obj
 0001:00088480       ?type_case_s@?$output_processor@_WV?$string_output_adapter@_W@__crt_stdio_output@@V?$format_validation_base@_WV?$string_output_adapter@_W@__crt_stdio_output@@@2@@__crt_stdio_output@@AEAA_NXZ 0000000180089480 f i libucrtd:output.obj
 0001:000885a0       ?type_case_s@?$output_processor@_WV?$string_output_adapter@_W@__crt_stdio_output@@V?$positional_parameter_base@_WV?$string_output_adapter@_W@__crt_stdio_output@@@2@@__crt_stdio_output@@AEAA_NXZ 00000001800895a0 f i libucrtd:output.obj
 0001:000886c0       ?type_case_s@?$output_processor@_WV?$string_output_adapter@_W@__crt_stdio_output@@V?$standard_base@_WV?$string_output_adapter@_W@__crt_stdio_output@@@2@@__crt_stdio_output@@AEAA_NXZ 00000001800896c0 f i libucrtd:output.obj
 0001:000887e0       ?type_case_s_compute_narrow_string_length@?$output_processor@DV?$stream_output_adapter@D@__crt_stdio_output@@V?$format_validation_base@DV?$stream_output_adapter@D@__crt_stdio_output@@@2@@__crt_stdio_output@@AEAAHHD@Z 00000001800897e0 f i libucrtd:output.obj
 0001:00088810       ?type_case_s_compute_narrow_string_length@?$output_processor@DV?$stream_output_adapter@D@__crt_stdio_output@@V?$positional_parameter_base@DV?$stream_output_adapter@D@__crt_stdio_output@@@2@@__crt_stdio_output@@AEAAHHD@Z 0000000180089810 f i libucrtd:output.obj
 0001:00088840       ?type_case_s_compute_narrow_string_length@?$output_processor@DV?$stream_output_adapter@D@__crt_stdio_output@@V?$standard_base@DV?$stream_output_adapter@D@__crt_stdio_output@@@2@@__crt_stdio_output@@AEAAHHD@Z 0000000180089840 f i libucrtd:output.obj
 0001:00088870       ?type_case_s_compute_narrow_string_length@?$output_processor@DV?$string_output_adapter@D@__crt_stdio_output@@V?$format_validation_base@DV?$string_output_adapter@D@__crt_stdio_output@@@2@@__crt_stdio_output@@AEAAHHD@Z 0000000180089870 f i libucrtd:output.obj
 0001:000888a0       ?type_case_s_compute_narrow_string_length@?$output_processor@DV?$string_output_adapter@D@__crt_stdio_output@@V?$positional_parameter_base@DV?$string_output_adapter@D@__crt_stdio_output@@@2@@__crt_stdio_output@@AEAAHHD@Z 00000001800898a0 f i libucrtd:output.obj
 0001:000888d0       ?type_case_s_compute_narrow_string_length@?$output_processor@DV?$string_output_adapter@D@__crt_stdio_output@@V?$standard_base@DV?$string_output_adapter@D@__crt_stdio_output@@@2@@__crt_stdio_output@@AEAAHHD@Z 00000001800898d0 f i libucrtd:output.obj
 0001:00088900       ?type_case_s_compute_narrow_string_length@?$output_processor@_WV?$stream_output_adapter@_W@__crt_stdio_output@@V?$format_validation_base@_WV?$stream_output_adapter@_W@__crt_stdio_output@@@2@@__crt_stdio_output@@AEAAHH_W@Z 0000000180089900 f i libucrtd:output.obj
 0001:000889a0       ?type_case_s_compute_narrow_string_length@?$output_processor@_WV?$stream_output_adapter@_W@__crt_stdio_output@@V?$positional_parameter_base@_WV?$stream_output_adapter@_W@__crt_stdio_output@@@2@@__crt_stdio_output@@AEAAHH_W@Z 00000001800899a0 f i libucrtd:output.obj
 0001:00088a40       ?type_case_s_compute_narrow_string_length@?$output_processor@_WV?$stream_output_adapter@_W@__crt_stdio_output@@V?$standard_base@_WV?$stream_output_adapter@_W@__crt_stdio_output@@@2@@__crt_stdio_output@@AEAAHH_W@Z 0000000180089a40 f i libucrtd:output.obj
 0001:00088ae0       ?type_case_s_compute_narrow_string_length@?$output_processor@_WV?$string_output_adapter@_W@__crt_stdio_output@@V?$format_validation_base@_WV?$string_output_adapter@_W@__crt_stdio_output@@@2@@__crt_stdio_output@@AEAAHH_W@Z 0000000180089ae0 f i libucrtd:output.obj
 0001:00088b80       ?type_case_s_compute_narrow_string_length@?$output_processor@_WV?$string_output_adapter@_W@__crt_stdio_output@@V?$positional_parameter_base@_WV?$string_output_adapter@_W@__crt_stdio_output@@@2@@__crt_stdio_output@@AEAAHH_W@Z 0000000180089b80 f i libucrtd:output.obj
 0001:00088c20       ?type_case_s_compute_narrow_string_length@?$output_processor@_WV?$string_output_adapter@_W@__crt_stdio_output@@V?$standard_base@_WV?$string_output_adapter@_W@__crt_stdio_output@@@2@@__crt_stdio_output@@AEAAHH_W@Z 0000000180089c20 f i libucrtd:output.obj
 0001:00088cc0       ?type_case_u@?$output_processor@DV?$stream_output_adapter@D@__crt_stdio_output@@V?$format_validation_base@DV?$stream_output_adapter@D@__crt_stdio_output@@@2@@__crt_stdio_output@@AEAA_NXZ 0000000180089cc0 f i libucrtd:output.obj
 0001:00088ce0       ?type_case_u@?$output_processor@DV?$stream_output_adapter@D@__crt_stdio_output@@V?$positional_parameter_base@DV?$stream_output_adapter@D@__crt_stdio_output@@@2@@__crt_stdio_output@@AEAA_NXZ 0000000180089ce0 f i libucrtd:output.obj
 0001:00088d00       ?type_case_u@?$output_processor@DV?$stream_output_adapter@D@__crt_stdio_output@@V?$standard_base@DV?$stream_output_adapter@D@__crt_stdio_output@@@2@@__crt_stdio_output@@AEAA_NXZ 0000000180089d00 f i libucrtd:output.obj
 0001:00088d20       ?type_case_u@?$output_processor@DV?$string_output_adapter@D@__crt_stdio_output@@V?$format_validation_base@DV?$string_output_adapter@D@__crt_stdio_output@@@2@@__crt_stdio_output@@AEAA_NXZ 0000000180089d20 f i libucrtd:output.obj
 0001:00088d40       ?type_case_u@?$output_processor@DV?$string_output_adapter@D@__crt_stdio_output@@V?$positional_parameter_base@DV?$string_output_adapter@D@__crt_stdio_output@@@2@@__crt_stdio_output@@AEAA_NXZ 0000000180089d40 f i libucrtd:output.obj
 0001:00088d60       ?type_case_u@?$output_processor@DV?$string_output_adapter@D@__crt_stdio_output@@V?$standard_base@DV?$string_output_adapter@D@__crt_stdio_output@@@2@@__crt_stdio_output@@AEAA_NXZ 0000000180089d60 f i libucrtd:output.obj
 0001:00088d80       ?type_case_u@?$output_processor@_WV?$stream_output_adapter@_W@__crt_stdio_output@@V?$format_validation_base@_WV?$stream_output_adapter@_W@__crt_stdio_output@@@2@@__crt_stdio_output@@AEAA_NXZ 0000000180089d80 f i libucrtd:output.obj
 0001:00088da0       ?type_case_u@?$output_processor@_WV?$stream_output_adapter@_W@__crt_stdio_output@@V?$positional_parameter_base@_WV?$stream_output_adapter@_W@__crt_stdio_output@@@2@@__crt_stdio_output@@AEAA_NXZ 0000000180089da0 f i libucrtd:output.obj
 0001:00088dc0       ?type_case_u@?$output_processor@_WV?$stream_output_adapter@_W@__crt_stdio_output@@V?$standard_base@_WV?$stream_output_adapter@_W@__crt_stdio_output@@@2@@__crt_stdio_output@@AEAA_NXZ 0000000180089dc0 f i libucrtd:output.obj
 0001:00088de0       ?type_case_u@?$output_processor@_WV?$string_output_adapter@_W@__crt_stdio_output@@V?$format_validation_base@_WV?$string_output_adapter@_W@__crt_stdio_output@@@2@@__crt_stdio_output@@AEAA_NXZ 0000000180089de0 f i libucrtd:output.obj
 0001:00088e00       ?type_case_u@?$output_processor@_WV?$string_output_adapter@_W@__crt_stdio_output@@V?$positional_parameter_base@_WV?$string_output_adapter@_W@__crt_stdio_output@@@2@@__crt_stdio_output@@AEAA_NXZ 0000000180089e00 f i libucrtd:output.obj
 0001:00088e20       ?type_case_u@?$output_processor@_WV?$string_output_adapter@_W@__crt_stdio_output@@V?$standard_base@_WV?$string_output_adapter@_W@__crt_stdio_output@@@2@@__crt_stdio_output@@AEAA_NXZ 0000000180089e20 f i libucrtd:output.obj
 0001:00088e40       ?type_case_x@?$output_processor@DV?$stream_output_adapter@D@__crt_stdio_output@@V?$format_validation_base@DV?$stream_output_adapter@D@__crt_stdio_output@@@2@@__crt_stdio_output@@AEAA_NXZ 0000000180089e40 f i libucrtd:output.obj
 0001:00088e60       ?type_case_x@?$output_processor@DV?$stream_output_adapter@D@__crt_stdio_output@@V?$positional_parameter_base@DV?$stream_output_adapter@D@__crt_stdio_output@@@2@@__crt_stdio_output@@AEAA_NXZ 0000000180089e60 f i libucrtd:output.obj
 0001:00088e80       ?type_case_x@?$output_processor@DV?$stream_output_adapter@D@__crt_stdio_output@@V?$standard_base@DV?$stream_output_adapter@D@__crt_stdio_output@@@2@@__crt_stdio_output@@AEAA_NXZ 0000000180089e80 f i libucrtd:output.obj
 0001:00088ea0       ?type_case_x@?$output_processor@DV?$string_output_adapter@D@__crt_stdio_output@@V?$format_validation_base@DV?$string_output_adapter@D@__crt_stdio_output@@@2@@__crt_stdio_output@@AEAA_NXZ 0000000180089ea0 f i libucrtd:output.obj
 0001:00088ec0       ?type_case_x@?$output_processor@DV?$string_output_adapter@D@__crt_stdio_output@@V?$positional_parameter_base@DV?$string_output_adapter@D@__crt_stdio_output@@@2@@__crt_stdio_output@@AEAA_NXZ 0000000180089ec0 f i libucrtd:output.obj
 0001:00088ee0       ?type_case_x@?$output_processor@DV?$string_output_adapter@D@__crt_stdio_output@@V?$standard_base@DV?$string_output_adapter@D@__crt_stdio_output@@@2@@__crt_stdio_output@@AEAA_NXZ 0000000180089ee0 f i libucrtd:output.obj
 0001:00088f00       ?type_case_x@?$output_processor@_WV?$stream_output_adapter@_W@__crt_stdio_output@@V?$format_validation_base@_WV?$stream_output_adapter@_W@__crt_stdio_output@@@2@@__crt_stdio_output@@AEAA_NXZ 0000000180089f00 f i libucrtd:output.obj
 0001:00088f20       ?type_case_x@?$output_processor@_WV?$stream_output_adapter@_W@__crt_stdio_output@@V?$positional_parameter_base@_WV?$stream_output_adapter@_W@__crt_stdio_output@@@2@@__crt_stdio_output@@AEAA_NXZ 0000000180089f20 f i libucrtd:output.obj
 0001:00088f40       ?type_case_x@?$output_processor@_WV?$stream_output_adapter@_W@__crt_stdio_output@@V?$standard_base@_WV?$stream_output_adapter@_W@__crt_stdio_output@@@2@@__crt_stdio_output@@AEAA_NXZ 0000000180089f40 f i libucrtd:output.obj
 0001:00088f60       ?type_case_x@?$output_processor@_WV?$string_output_adapter@_W@__crt_stdio_output@@V?$format_validation_base@_WV?$string_output_adapter@_W@__crt_stdio_output@@@2@@__crt_stdio_output@@AEAA_NXZ 0000000180089f60 f i libucrtd:output.obj
 0001:00088f80       ?type_case_x@?$output_processor@_WV?$string_output_adapter@_W@__crt_stdio_output@@V?$positional_parameter_base@_WV?$string_output_adapter@_W@__crt_stdio_output@@@2@@__crt_stdio_output@@AEAA_NXZ 0000000180089f80 f i libucrtd:output.obj
 0001:00088fa0       ?type_case_x@?$output_processor@_WV?$string_output_adapter@_W@__crt_stdio_output@@V?$standard_base@_WV?$string_output_adapter@_W@__crt_stdio_output@@@2@@__crt_stdio_output@@AEAA_NXZ 0000000180089fa0 f i libucrtd:output.obj
 0001:00088fc0       ?unget@?$c_string_character_source@D@__crt_strtox@@QEAAXD@Z 0000000180089fc0 f i libucrtd:output.obj
 0001:000890a0       ?unget@?$c_string_character_source@_W@__crt_strtox@@QEAAX_W@Z 000000018008a0a0 f i libucrtd:output.obj
 0001:00089180       ?unsafe_value@?$cached@H@__crt_cached_ptd_host@@QEAAHXZ 000000018008a180 f i libucrtd:output.obj
 0001:00089190       ?unsafe_value@?$cached@K@__crt_cached_ptd_host@@QEAAKXZ 000000018008a190 f i libucrtd:output.obj
 0001:000891a0       ?unset_flag@?$output_processor@DV?$stream_output_adapter@D@__crt_stdio_output@@V?$format_validation_base@DV?$stream_output_adapter@D@__crt_stdio_output@@@2@@__crt_stdio_output@@AEAAXI@Z 000000018008a1a0 f i libucrtd:output.obj
 0001:000891d0       ?unset_flag@?$output_processor@DV?$stream_output_adapter@D@__crt_stdio_output@@V?$positional_parameter_base@DV?$stream_output_adapter@D@__crt_stdio_output@@@2@@__crt_stdio_output@@AEAAXI@Z 000000018008a1d0 f i libucrtd:output.obj
 0001:00089200       ?unset_flag@?$output_processor@DV?$stream_output_adapter@D@__crt_stdio_output@@V?$standard_base@DV?$stream_output_adapter@D@__crt_stdio_output@@@2@@__crt_stdio_output@@AEAAXI@Z 000000018008a200 f i libucrtd:output.obj
 0001:00089230       ?unset_flag@?$output_processor@DV?$string_output_adapter@D@__crt_stdio_output@@V?$format_validation_base@DV?$string_output_adapter@D@__crt_stdio_output@@@2@@__crt_stdio_output@@AEAAXI@Z 000000018008a230 f i libucrtd:output.obj
 0001:00089260       ?unset_flag@?$output_processor@DV?$string_output_adapter@D@__crt_stdio_output@@V?$positional_parameter_base@DV?$string_output_adapter@D@__crt_stdio_output@@@2@@__crt_stdio_output@@AEAAXI@Z 000000018008a260 f i libucrtd:output.obj
 0001:00089290       ?unset_flag@?$output_processor@DV?$string_output_adapter@D@__crt_stdio_output@@V?$standard_base@DV?$string_output_adapter@D@__crt_stdio_output@@@2@@__crt_stdio_output@@AEAAXI@Z 000000018008a290 f i libucrtd:output.obj
 0001:000892c0       ?unset_flag@?$output_processor@_WV?$stream_output_adapter@_W@__crt_stdio_output@@V?$format_validation_base@_WV?$stream_output_adapter@_W@__crt_stdio_output@@@2@@__crt_stdio_output@@AEAAXI@Z 000000018008a2c0 f i libucrtd:output.obj
 0001:000892f0       ?unset_flag@?$output_processor@_WV?$stream_output_adapter@_W@__crt_stdio_output@@V?$positional_parameter_base@_WV?$stream_output_adapter@_W@__crt_stdio_output@@@2@@__crt_stdio_output@@AEAAXI@Z 000000018008a2f0 f i libucrtd:output.obj
 0001:00089320       ?unset_flag@?$output_processor@_WV?$stream_output_adapter@_W@__crt_stdio_output@@V?$standard_base@_WV?$stream_output_adapter@_W@__crt_stdio_output@@@2@@__crt_stdio_output@@AEAAXI@Z 000000018008a320 f i libucrtd:output.obj
 0001:00089350       ?unset_flag@?$output_processor@_WV?$string_output_adapter@_W@__crt_stdio_output@@V?$format_validation_base@_WV?$string_output_adapter@_W@__crt_stdio_output@@@2@@__crt_stdio_output@@AEAAXI@Z 000000018008a350 f i libucrtd:output.obj
 0001:00089380       ?unset_flag@?$output_processor@_WV?$string_output_adapter@_W@__crt_stdio_output@@V?$positional_parameter_base@_WV?$string_output_adapter@_W@__crt_stdio_output@@@2@@__crt_stdio_output@@AEAAXI@Z 000000018008a380 f i libucrtd:output.obj
 0001:000893b0       ?unset_flag@?$output_processor@_WV?$string_output_adapter@_W@__crt_stdio_output@@V?$standard_base@_WV?$string_output_adapter@_W@__crt_stdio_output@@@2@@__crt_stdio_output@@AEAAXI@Z 000000018008a3b0 f i libucrtd:output.obj
 0001:000893e0       ?update_field_width@?$positional_parameter_base@DV?$stream_output_adapter@D@__crt_stdio_output@@@__crt_stdio_output@@IEAA_NXZ 000000018008a3e0 f i libucrtd:output.obj
 0001:000895e0       ?update_field_width@?$positional_parameter_base@DV?$string_output_adapter@D@__crt_stdio_output@@@__crt_stdio_output@@IEAA_NXZ 000000018008a5e0 f i libucrtd:output.obj
 0001:000897e0       ?update_field_width@?$positional_parameter_base@_WV?$stream_output_adapter@_W@__crt_stdio_output@@@__crt_stdio_output@@IEAA_NXZ 000000018008a7e0 f i libucrtd:output.obj
 0001:000899e0       ?update_field_width@?$positional_parameter_base@_WV?$string_output_adapter@_W@__crt_stdio_output@@@__crt_stdio_output@@IEAA_NXZ 000000018008a9e0 f i libucrtd:output.obj
 0001:00089be0       ?update_field_width@?$standard_base@DV?$stream_output_adapter@D@__crt_stdio_output@@@__crt_stdio_output@@IEAA_NXZ 000000018008abe0 f i libucrtd:output.obj
 0001:00089c10       ?update_field_width@?$standard_base@DV?$string_output_adapter@D@__crt_stdio_output@@@__crt_stdio_output@@IEAA_NXZ 000000018008ac10 f i libucrtd:output.obj
 0001:00089c40       ?update_field_width@?$standard_base@_WV?$stream_output_adapter@_W@__crt_stdio_output@@@__crt_stdio_output@@IEAA_NXZ 000000018008ac40 f i libucrtd:output.obj
 0001:00089c70       ?update_field_width@?$standard_base@_WV?$string_output_adapter@_W@__crt_stdio_output@@@__crt_stdio_output@@IEAA_NXZ 000000018008ac70 f i libucrtd:output.obj
 0001:00089ca0       ?update_locale@__crt_cached_ptd_host@@AEAAXXZ 000000018008aca0 f i libucrtd:output.obj
 0001:00089cd0       ?update_locale_slow@__crt_cached_ptd_host@@AEAAXXZ 000000018008acd0 f i libucrtd:output.obj
 0001:00089d80       ?update_precision@?$positional_parameter_base@DV?$stream_output_adapter@D@__crt_stdio_output@@@__crt_stdio_output@@IEAA_NXZ 000000018008ad80 f i libucrtd:output.obj
 0001:00089f80       ?update_precision@?$positional_parameter_base@DV?$string_output_adapter@D@__crt_stdio_output@@@__crt_stdio_output@@IEAA_NXZ 000000018008af80 f i libucrtd:output.obj
 0001:0008a180       ?update_precision@?$positional_parameter_base@_WV?$stream_output_adapter@_W@__crt_stdio_output@@@__crt_stdio_output@@IEAA_NXZ 000000018008b180 f i libucrtd:output.obj
 0001:0008a380       ?update_precision@?$positional_parameter_base@_WV?$string_output_adapter@_W@__crt_stdio_output@@@__crt_stdio_output@@IEAA_NXZ 000000018008b380 f i libucrtd:output.obj
 0001:0008a580       ?update_precision@?$standard_base@DV?$stream_output_adapter@D@__crt_stdio_output@@@__crt_stdio_output@@IEAA_NXZ 000000018008b580 f i libucrtd:output.obj
 0001:0008a5b0       ?update_precision@?$standard_base@DV?$string_output_adapter@D@__crt_stdio_output@@@__crt_stdio_output@@IEAA_NXZ 000000018008b5b0 f i libucrtd:output.obj
 0001:0008a5e0       ?update_precision@?$standard_base@_WV?$stream_output_adapter@_W@__crt_stdio_output@@@__crt_stdio_output@@IEAA_NXZ 000000018008b5e0 f i libucrtd:output.obj
 0001:0008a610       ?update_precision@?$standard_base@_WV?$string_output_adapter@_W@__crt_stdio_output@@@__crt_stdio_output@@IEAA_NXZ 000000018008b610 f i libucrtd:output.obj
 0001:0008a640       ?valid@?$cached@H@__crt_cached_ptd_host@@QEBA_NXZ 000000018008b640 f i libucrtd:output.obj
 0001:0008a650       ?valid@?$cached@K@__crt_cached_ptd_host@@QEBA_NXZ 000000018008b650 f i libucrtd:output.obj
 0001:0008a660       ?valid@__crt_stdio_stream@@QEBA_NXZ 000000018008b660 f i libucrtd:output.obj
 0001:0008a690       ?validate@?$c_string_character_source@D@__crt_strtox@@QEBA_NXZ 000000018008b690 f i libucrtd:output.obj
 0001:0008a750       ?validate@?$c_string_character_source@_W@__crt_strtox@@QEBA_NXZ 000000018008b750 f i libucrtd:output.obj
 0001:0008a810       ?validate@?$stream_output_adapter@D@__crt_stdio_output@@QEBA_NAEAV__crt_cached_ptd_host@@@Z 000000018008b810 f i libucrtd:output.obj
 0001:0008a910       ?validate@?$stream_output_adapter@_W@__crt_stdio_output@@QEBA_NAEAV__crt_cached_ptd_host@@@Z 000000018008b910 f i libucrtd:output.obj
 0001:0008aa10       ?validate@?$string_output_adapter@D@__crt_stdio_output@@QEBA_NAEAV__crt_cached_ptd_host@@@Z 000000018008ba10 f i libucrtd:output.obj
 0001:0008aaf0       ?validate@?$string_output_adapter@_W@__crt_stdio_output@@QEBA_NAEAV__crt_cached_ptd_host@@@Z 000000018008baf0 f i libucrtd:output.obj
 0001:0008abd0       ?validate_and_store_parameter_data@?$positional_parameter_base@DV?$stream_output_adapter@D@__crt_stdio_output@@@__crt_stdio_output@@AEAA_NAEAUparameter_data@12@W4parameter_type@12@DW4length_modifier@2@@Z 000000018008bbd0 f i libucrtd:output.obj
 0001:0008ad10       ?validate_and_store_parameter_data@?$positional_parameter_base@DV?$string_output_adapter@D@__crt_stdio_output@@@__crt_stdio_output@@AEAA_NAEAUparameter_data@12@W4parameter_type@12@DW4length_modifier@2@@Z 000000018008bd10 f i libucrtd:output.obj
 0001:0008ae50       ?validate_and_store_parameter_data@?$positional_parameter_base@_WV?$stream_output_adapter@_W@__crt_stdio_output@@@__crt_stdio_output@@AEAA_NAEAUparameter_data@12@W4parameter_type@12@_WW4length_modifier@2@@Z 000000018008be50 f i libucrtd:output.obj
 0001:0008af90       ?validate_and_store_parameter_data@?$positional_parameter_base@_WV?$string_output_adapter@_W@__crt_stdio_output@@@__crt_stdio_output@@AEAA_NAEAUparameter_data@12@W4parameter_type@12@_WW4length_modifier@2@@Z 000000018008bf90 f i libucrtd:output.obj
 0001:0008b0d0       ?validate_and_update_state_at_beginning_of_format_character@?$positional_parameter_base@DV?$stream_output_adapter@D@__crt_stdio_output@@@__crt_stdio_output@@IEAA_NXZ 000000018008c0d0 f i libucrtd:output.obj
 0001:0008b370       ?validate_and_update_state_at_beginning_of_format_character@?$positional_parameter_base@DV?$string_output_adapter@D@__crt_stdio_output@@@__crt_stdio_output@@IEAA_NXZ 000000018008c370 f i libucrtd:output.obj
 0001:0008b610       ?validate_and_update_state_at_beginning_of_format_character@?$positional_parameter_base@_WV?$stream_output_adapter@_W@__crt_stdio_output@@@__crt_stdio_output@@IEAA_NXZ 000000018008c610 f i libucrtd:output.obj
 0001:0008b8b0       ?validate_and_update_state_at_beginning_of_format_character@?$positional_parameter_base@_WV?$string_output_adapter@_W@__crt_stdio_output@@@__crt_stdio_output@@IEAA_NXZ 000000018008c8b0 f i libucrtd:output.obj
 0001:0008bb50       ?validate_and_update_state_at_beginning_of_format_character@?$standard_base@DV?$stream_output_adapter@D@__crt_stdio_output@@@__crt_stdio_output@@IEAA_NXZ 000000018008cb50 f i libucrtd:output.obj
 0001:0008bb60       ?validate_and_update_state_at_beginning_of_format_character@?$standard_base@DV?$string_output_adapter@D@__crt_stdio_output@@@__crt_stdio_output@@IEAA_NXZ 000000018008cb60 f i libucrtd:output.obj
 0001:0008bb70       ?validate_and_update_state_at_beginning_of_format_character@?$standard_base@_WV?$stream_output_adapter@_W@__crt_stdio_output@@@__crt_stdio_output@@IEAA_NXZ 000000018008cb70 f i libucrtd:output.obj
 0001:0008bb80       ?validate_and_update_state_at_beginning_of_format_character@?$standard_base@_WV?$string_output_adapter@_W@__crt_stdio_output@@@__crt_stdio_output@@IEAA_NXZ 000000018008cb80 f i libucrtd:output.obj
 0001:0008bb90       ?validate_and_update_state_at_end_of_format_string@?$format_validation_base@DV?$stream_output_adapter@D@__crt_stdio_output@@@__crt_stdio_output@@IEAA_NXZ 000000018008cb90 f i libucrtd:output.obj
 0001:0008bc80       ?validate_and_update_state_at_end_of_format_string@?$format_validation_base@DV?$string_output_adapter@D@__crt_stdio_output@@@__crt_stdio_output@@IEAA_NXZ 000000018008cc80 f i libucrtd:output.obj
 0001:0008bd70       ?validate_and_update_state_at_end_of_format_string@?$format_validation_base@_WV?$stream_output_adapter@_W@__crt_stdio_output@@@__crt_stdio_output@@IEAA_NXZ 000000018008cd70 f i libucrtd:output.obj
 0001:0008be60       ?validate_and_update_state_at_end_of_format_string@?$format_validation_base@_WV?$string_output_adapter@_W@__crt_stdio_output@@@__crt_stdio_output@@IEAA_NXZ 000000018008ce60 f i libucrtd:output.obj
 0001:0008bf50       ?validate_and_update_state_at_end_of_format_string@?$positional_parameter_base@DV?$stream_output_adapter@D@__crt_stdio_output@@@__crt_stdio_output@@IEAA_NXZ 000000018008cf50 f i libucrtd:output.obj
 0001:0008c180       ?validate_and_update_state_at_end_of_format_string@?$positional_parameter_base@DV?$string_output_adapter@D@__crt_stdio_output@@@__crt_stdio_output@@IEAA_NXZ 000000018008d180 f i libucrtd:output.obj
 0001:0008c3b0       ?validate_and_update_state_at_end_of_format_string@?$positional_parameter_base@_WV?$stream_output_adapter@_W@__crt_stdio_output@@@__crt_stdio_output@@IEAA_NXZ 000000018008d3b0 f i libucrtd:output.obj
 0001:0008c5e0       ?validate_and_update_state_at_end_of_format_string@?$positional_parameter_base@_WV?$string_output_adapter@_W@__crt_stdio_output@@@__crt_stdio_output@@IEAA_NXZ 000000018008d5e0 f i libucrtd:output.obj
 0001:0008c810       ?validate_and_update_state_at_end_of_format_string@?$standard_base@DV?$stream_output_adapter@D@__crt_stdio_output@@@__crt_stdio_output@@IEBA_NXZ 000000018008d810 f i libucrtd:output.obj
 0001:0008c820       ?validate_and_update_state_at_end_of_format_string@?$standard_base@DV?$string_output_adapter@D@__crt_stdio_output@@@__crt_stdio_output@@IEBA_NXZ 000000018008d820 f i libucrtd:output.obj
 0001:0008c830       ?validate_and_update_state_at_end_of_format_string@?$standard_base@_WV?$stream_output_adapter@_W@__crt_stdio_output@@@__crt_stdio_output@@IEBA_NXZ 000000018008d830 f i libucrtd:output.obj
 0001:0008c840       ?validate_and_update_state_at_end_of_format_string@?$standard_base@_WV?$string_output_adapter@_W@__crt_stdio_output@@@__crt_stdio_output@@IEBA_NXZ 000000018008d840 f i libucrtd:output.obj
 0001:0008c850       ?validate_state_for_type_case_a@?$positional_parameter_base@DV?$stream_output_adapter@D@__crt_stdio_output@@@__crt_stdio_output@@IEAA_NXZ 000000018008d850 f i libucrtd:output.obj
 0001:0008c9b0       ?validate_state_for_type_case_a@?$positional_parameter_base@DV?$string_output_adapter@D@__crt_stdio_output@@@__crt_stdio_output@@IEAA_NXZ 000000018008d9b0 f i libucrtd:output.obj
 0001:0008cb10       ?validate_state_for_type_case_a@?$positional_parameter_base@_WV?$stream_output_adapter@_W@__crt_stdio_output@@@__crt_stdio_output@@IEAA_NXZ 000000018008db10 f i libucrtd:output.obj
 0001:0008cc70       ?validate_state_for_type_case_a@?$positional_parameter_base@_WV?$string_output_adapter@_W@__crt_stdio_output@@@__crt_stdio_output@@IEAA_NXZ 000000018008dc70 f i libucrtd:output.obj
 0001:0008cdd0       ?validate_state_for_type_case_a@?$standard_base@DV?$stream_output_adapter@D@__crt_stdio_output@@@__crt_stdio_output@@IEBA_NXZ 000000018008ddd0 f i libucrtd:output.obj
 0001:0008cde0       ?validate_state_for_type_case_a@?$standard_base@DV?$string_output_adapter@D@__crt_stdio_output@@@__crt_stdio_output@@IEBA_NXZ 000000018008dde0 f i libucrtd:output.obj
 0001:0008cdf0       ?validate_state_for_type_case_a@?$standard_base@_WV?$stream_output_adapter@_W@__crt_stdio_output@@@__crt_stdio_output@@IEBA_NXZ 000000018008ddf0 f i libucrtd:output.obj
 0001:0008ce00       ?validate_state_for_type_case_a@?$standard_base@_WV?$string_output_adapter@_W@__crt_stdio_output@@@__crt_stdio_output@@IEBA_NXZ 000000018008de00 f i libucrtd:output.obj
 0001:0008ce10       ?validate_stream_is_ansi_if_required@?$__acrt_stdio_char_traits@D@@SA_NQEAU_iobuf@@@Z 000000018008de10 f i libucrtd:output.obj
 0001:0008cfa0       ?validate_stream_is_ansi_if_required@?$__acrt_stdio_char_traits@_W@@SA_NQEAU_iobuf@@@Z 000000018008dfa0 f i libucrtd:output.obj
 0001:0008cfb0       ?wide_character_to_digit@__crt_strtox@@YAH_W@Z 000000018008dfb0 f i libucrtd:output.obj
 0001:0008d320       ?wide_null_string@?$output_processor@DV?$stream_output_adapter@D@__crt_stdio_output@@V?$format_validation_base@DV?$stream_output_adapter@D@__crt_stdio_output@@@2@@__crt_stdio_output@@CAPEA_WXZ 000000018008e320 f i libucrtd:output.obj
 0001:0008d330       ?wide_null_string@?$output_processor@DV?$stream_output_adapter@D@__crt_stdio_output@@V?$positional_parameter_base@DV?$stream_output_adapter@D@__crt_stdio_output@@@2@@__crt_stdio_output@@CAPEA_WXZ 000000018008e330 f i libucrtd:output.obj
 0001:0008d340       ?wide_null_string@?$output_processor@DV?$stream_output_adapter@D@__crt_stdio_output@@V?$standard_base@DV?$stream_output_adapter@D@__crt_stdio_output@@@2@@__crt_stdio_output@@CAPEA_WXZ 000000018008e340 f i libucrtd:output.obj
 0001:0008d350       ?wide_null_string@?$output_processor@DV?$string_output_adapter@D@__crt_stdio_output@@V?$format_validation_base@DV?$string_output_adapter@D@__crt_stdio_output@@@2@@__crt_stdio_output@@CAPEA_WXZ 000000018008e350 f i libucrtd:output.obj
 0001:0008d360       ?wide_null_string@?$output_processor@DV?$string_output_adapter@D@__crt_stdio_output@@V?$positional_parameter_base@DV?$string_output_adapter@D@__crt_stdio_output@@@2@@__crt_stdio_output@@CAPEA_WXZ 000000018008e360 f i libucrtd:output.obj
 0001:0008d370       ?wide_null_string@?$output_processor@DV?$string_output_adapter@D@__crt_stdio_output@@V?$standard_base@DV?$string_output_adapter@D@__crt_stdio_output@@@2@@__crt_stdio_output@@CAPEA_WXZ 000000018008e370 f i libucrtd:output.obj
 0001:0008d380       ?wide_null_string@?$output_processor@_WV?$stream_output_adapter@_W@__crt_stdio_output@@V?$format_validation_base@_WV?$stream_output_adapter@_W@__crt_stdio_output@@@2@@__crt_stdio_output@@CAPEA_WXZ 000000018008e380 f i libucrtd:output.obj
 0001:0008d390       ?wide_null_string@?$output_processor@_WV?$stream_output_adapter@_W@__crt_stdio_output@@V?$positional_parameter_base@_WV?$stream_output_adapter@_W@__crt_stdio_output@@@2@@__crt_stdio_output@@CAPEA_WXZ 000000018008e390 f i libucrtd:output.obj
 0001:0008d3a0       ?wide_null_string@?$output_processor@_WV?$stream_output_adapter@_W@__crt_stdio_output@@V?$standard_base@_WV?$stream_output_adapter@_W@__crt_stdio_output@@@2@@__crt_stdio_output@@CAPEA_WXZ 000000018008e3a0 f i libucrtd:output.obj
 0001:0008d3b0       ?wide_null_string@?$output_processor@_WV?$string_output_adapter@_W@__crt_stdio_output@@V?$format_validation_base@_WV?$string_output_adapter@_W@__crt_stdio_output@@@2@@__crt_stdio_output@@CAPEA_WXZ 000000018008e3b0 f i libucrtd:output.obj
 0001:0008d3c0       ?wide_null_string@?$output_processor@_WV?$string_output_adapter@_W@__crt_stdio_output@@V?$positional_parameter_base@_WV?$string_output_adapter@_W@__crt_stdio_output@@@2@@__crt_stdio_output@@CAPEA_WXZ 000000018008e3c0 f i libucrtd:output.obj
 0001:0008d3d0       ?wide_null_string@?$output_processor@_WV?$string_output_adapter@_W@__crt_stdio_output@@V?$standard_base@_WV?$string_output_adapter@_W@__crt_stdio_output@@@2@@__crt_stdio_output@@CAPEA_WXZ 000000018008e3d0 f i libucrtd:output.obj
 0001:0008d3e0       ?write_character@?$output_adapter_common@DV?$stream_output_adapter@D@__crt_stdio_output@@@__crt_stdio_output@@QEBAXDQEAHAEAV__crt_cached_ptd_host@@@Z 000000018008e3e0 f i libucrtd:output.obj
 0001:0008d440       ?write_character@?$output_adapter_common@_WV?$stream_output_adapter@_W@__crt_stdio_output@@@__crt_stdio_output@@QEBAX_WQEAHAEAV__crt_cached_ptd_host@@@Z 000000018008e440 f i libucrtd:output.obj
 0001:0008d4a0       ?write_character@?$string_output_adapter@D@__crt_stdio_output@@QEBA_NDQEAHAEAV__crt_cached_ptd_host@@@Z 000000018008e4a0 f i libucrtd:output.obj
 0001:0008d570       ?write_character@?$string_output_adapter@_W@__crt_stdio_output@@QEBA_N_WQEAHAEAV__crt_cached_ptd_host@@@Z 000000018008e570 f i libucrtd:output.obj
 0001:0008d640       ?write_character_without_count_update@?$stream_output_adapter@D@__crt_stdio_output@@QEBA_NDAEAV__crt_cached_ptd_host@@@Z 000000018008e640 f i libucrtd:output.obj
 0001:0008d6d0       ?write_character_without_count_update@?$stream_output_adapter@_W@__crt_stdio_output@@QEBA_N_WAEAV__crt_cached_ptd_host@@@Z 000000018008e6d0 f i libucrtd:output.obj
 0001:0008d760       ?write_stored_string_tchar@?$output_processor@DV?$stream_output_adapter@D@__crt_stdio_output@@V?$format_validation_base@DV?$stream_output_adapter@D@__crt_stdio_output@@@2@@__crt_stdio_output@@AEAA_ND@Z 000000018008e760 f i libucrtd:output.obj
 0001:0008d910       ?write_stored_string_tchar@?$output_processor@DV?$stream_output_adapter@D@__crt_stdio_output@@V?$positional_parameter_base@DV?$stream_output_adapter@D@__crt_stdio_output@@@2@@__crt_stdio_output@@AEAA_ND@Z 000000018008e910 f i libucrtd:output.obj
 0001:0008dac0       ?write_stored_string_tchar@?$output_processor@DV?$stream_output_adapter@D@__crt_stdio_output@@V?$standard_base@DV?$stream_output_adapter@D@__crt_stdio_output@@@2@@__crt_stdio_output@@AEAA_ND@Z 000000018008eac0 f i libucrtd:output.obj
 0001:0008dc70       ?write_stored_string_tchar@?$output_processor@DV?$string_output_adapter@D@__crt_stdio_output@@V?$format_validation_base@DV?$string_output_adapter@D@__crt_stdio_output@@@2@@__crt_stdio_output@@AEAA_ND@Z 000000018008ec70 f i libucrtd:output.obj
 0001:0008de20       ?write_stored_string_tchar@?$output_processor@DV?$string_output_adapter@D@__crt_stdio_output@@V?$positional_parameter_base@DV?$string_output_adapter@D@__crt_stdio_output@@@2@@__crt_stdio_output@@AEAA_ND@Z 000000018008ee20 f i libucrtd:output.obj
 0001:0008dfd0       ?write_stored_string_tchar@?$output_processor@DV?$string_output_adapter@D@__crt_stdio_output@@V?$standard_base@DV?$string_output_adapter@D@__crt_stdio_output@@@2@@__crt_stdio_output@@AEAA_ND@Z 000000018008efd0 f i libucrtd:output.obj
 0001:0008e180       ?write_stored_string_tchar@?$output_processor@_WV?$stream_output_adapter@_W@__crt_stdio_output@@V?$format_validation_base@_WV?$stream_output_adapter@_W@__crt_stdio_output@@@2@@__crt_stdio_output@@AEAA_N_W@Z 000000018008f180 f i libucrtd:output.obj
 0001:0008e2e0       ?write_stored_string_tchar@?$output_processor@_WV?$stream_output_adapter@_W@__crt_stdio_output@@V?$positional_parameter_base@_WV?$stream_output_adapter@_W@__crt_stdio_output@@@2@@__crt_stdio_output@@AEAA_N_W@Z 000000018008f2e0 f i libucrtd:output.obj
 0001:0008e440       ?write_stored_string_tchar@?$output_processor@_WV?$stream_output_adapter@_W@__crt_stdio_output@@V?$standard_base@_WV?$stream_output_adapter@_W@__crt_stdio_output@@@2@@__crt_stdio_output@@AEAA_N_W@Z 000000018008f440 f i libucrtd:output.obj
 0001:0008e5a0       ?write_stored_string_tchar@?$output_processor@_WV?$string_output_adapter@_W@__crt_stdio_output@@V?$format_validation_base@_WV?$string_output_adapter@_W@__crt_stdio_output@@@2@@__crt_stdio_output@@AEAA_N_W@Z 000000018008f5a0 f i libucrtd:output.obj
 0001:0008e700       ?write_stored_string_tchar@?$output_processor@_WV?$string_output_adapter@_W@__crt_stdio_output@@V?$positional_parameter_base@_WV?$string_output_adapter@_W@__crt_stdio_output@@@2@@__crt_stdio_output@@AEAA_N_W@Z 000000018008f700 f i libucrtd:output.obj
 0001:0008e860       ?write_stored_string_tchar@?$output_processor@_WV?$string_output_adapter@_W@__crt_stdio_output@@V?$standard_base@_WV?$string_output_adapter@_W@__crt_stdio_output@@@2@@__crt_stdio_output@@AEAA_N_W@Z 000000018008f860 f i libucrtd:output.obj
 0001:0008e9c0       ?write_string@?$stream_output_adapter@D@__crt_stdio_output@@QEBAXQEBDHQEAHAEAV__crt_cached_ptd_host@@@Z 000000018008f9c0 f i libucrtd:output.obj
 0001:0008ea40       ?write_string@?$stream_output_adapter@_W@__crt_stdio_output@@QEBAXQEB_WHQEAHAEAV__crt_cached_ptd_host@@@Z 000000018008fa40 f i libucrtd:output.obj
 0001:0008eac0       ?write_string@?$string_output_adapter@D@__crt_stdio_output@@QEBAXQEBDHQEAHAEAV__crt_cached_ptd_host@@@Z 000000018008fac0 f i libucrtd:output.obj
 0001:0008ec30       ?write_string@?$string_output_adapter@_W@__crt_stdio_output@@QEBAXQEB_WHQEAHAEAV__crt_cached_ptd_host@@@Z 000000018008fc30 f i libucrtd:output.obj
 0001:0008eda0       ?write_string_impl@?$output_adapter_common@DV?$stream_output_adapter@D@__crt_stdio_output@@@__crt_stdio_output@@IEBAXQEBDHQEAHAEAV__crt_cached_ptd_host@@@Z 000000018008fda0 f i libucrtd:output.obj
 0001:0008eec0       ?write_string_impl@?$output_adapter_common@_WV?$stream_output_adapter@_W@__crt_stdio_output@@@__crt_stdio_output@@IEBAXQEB_WHQEAHAEAV__crt_cached_ptd_host@@@Z 000000018008fec0 f i libucrtd:output.obj
 0001:0008efe0       __acrt_disable_global_locale_sync 000000018008ffe0 f i libucrtd:output.obj
 0001:0008f010       __acrt_enable_global_locale_sync 0000000180090010 f i libucrtd:output.obj
 0001:0008f040       __acrt_isleadbyte_l_noupdate 0000000180090040 f i libucrtd:output.obj
 0001:0008f070       __acrt_locale_changed      0000000180090070 f i libucrtd:output.obj
 0001:0008f0a0       __acrt_locale_get_ctype_array_value 00000001800900a0 f i libucrtd:output.obj
 0001:0008f0e0       __ascii_iswalpha           00000001800900e0 f i libucrtd:output.obj
 0001:0008f120       __ascii_toupper            0000000180090120 f i libucrtd:output.obj
 0001:0008f140       __ascii_towupper           0000000180090140 f i libucrtd:output.obj
 0001:0008f160       __stdio_common_vfprintf    0000000180090160 f   libucrtd:output.obj
 0001:0008f1e0       __stdio_common_vfprintf_p  00000001800901e0 f   libucrtd:output.obj
 0001:0008f260       __stdio_common_vfprintf_s  0000000180090260 f   libucrtd:output.obj
 0001:0008f2e0       __stdio_common_vfwprintf   00000001800902e0 f   libucrtd:output.obj
 0001:0008f360       __stdio_common_vfwprintf_p 0000000180090360 f   libucrtd:output.obj
 0001:0008f3e0       __stdio_common_vfwprintf_s 00000001800903e0 f   libucrtd:output.obj
 0001:0008f460       __stdio_common_vsnprintf_s 0000000180090460 f   libucrtd:output.obj
 0001:0008f4f0       __stdio_common_vsnwprintf_s 00000001800904f0 f   libucrtd:output.obj
 0001:0008f580       __stdio_common_vsprintf    0000000180090580 f   libucrtd:output.obj
 0001:0008f610       __stdio_common_vsprintf_p  0000000180090610 f   libucrtd:output.obj
 0001:0008f6a0       __stdio_common_vsprintf_s  00000001800906a0 f   libucrtd:output.obj
 0001:0008f730       __stdio_common_vswprintf   0000000180090730 f   libucrtd:output.obj
 0001:0008f7c0       __stdio_common_vswprintf_p 00000001800907c0 f   libucrtd:output.obj
 0001:0008f850       __stdio_common_vswprintf_s 0000000180090850 f   libucrtd:output.obj
 0001:0008f8e0       _ctype_fast_check_internal 00000001800908e0 f i libucrtd:output.obj
 0001:0008f910       _isdigit_fast_internal     0000000180090910 f i libucrtd:output.obj
 0001:0008f940       _tolower_fast_internal     0000000180090940 f i libucrtd:output.obj
 0001:0008f970       free                       0000000180090970 f   libucrtd:free.obj
 0001:0008f9a0       malloc                     00000001800909a0 f   libucrtd:malloc.obj
 0001:0008f9d0       ??$?RU?$__crt_report_hook_node@D@@@__crt_internal_free_policy@@QEBAXQEBU?$__crt_report_hook_node@D@@@Z 00000001800909d0 f i libucrtd:dbgrpt.obj
 0001:0008fa00       ??$?RU?$__crt_report_hook_node@_W@@@__crt_internal_free_policy@@QEBAXQEBU?$__crt_report_hook_node@_W@@@Z 0000000180090a00 f i libucrtd:dbgrpt.obj
 0001:00090c60       ??$get_module_file_name@AEAPEAUHINSTANCE__@@AEAY0BAF@DK@?$__crt_char_traits@D@@SAKAEAPEAUHINSTANCE__@@AEAY0BAF@D$$QEAK@Z 0000000180091c60 f i libucrtd:dbgrpt.obj
 0001:00090ca0       ??$get_module_file_name@AEAPEAUHINSTANCE__@@AEAY0BAF@_WK@?$__crt_char_traits@_W@@SAKAEAPEAUHINSTANCE__@@AEAY0BAF@_W$$QEAK@Z 0000000180091ca0 f i libucrtd:dbgrpt.obj
 0001:00090ce0       ??$tcscpy_s@AEAY0BAF@D_KPEBD@?$__crt_char_traits@D@@SAHAEAY0BAF@D$$QEA_K$$QEAPEBD@Z 0000000180091ce0 f i libucrtd:dbgrpt.obj
 0001:00090d20       ??$tcscpy_s@AEAY0BAF@_W_KPEB_W@?$__crt_char_traits@_W@@SAHAEAY0BAF@_W$$QEA_K$$QEAPEB_W@Z 0000000180091d20 f i libucrtd:dbgrpt.obj
 0001:00090d60       ??$tcslen@AEAY0BAF@D@?$__crt_char_traits@D@@SA_KAEAY0BAF@D@Z 0000000180091d60 f i libucrtd:dbgrpt.obj
 0001:00090d80       ??$tcslen@AEAY0BAF@_W@?$__crt_char_traits@_W@@SA_KAEAY0BAF@_W@Z 0000000180091d80 f i libucrtd:dbgrpt.obj
 0001:00090da0       ??$tcslen@AEBQEBD@?$__crt_char_traits@D@@SA_KAEBQEBD@Z 0000000180091da0 f i libucrtd:dbgrpt.obj
 0001:00090dc0       ??$tcslen@AEBQEB_W@?$__crt_char_traits@_W@@SA_KAEBQEB_W@Z 0000000180091dc0 f i libucrtd:dbgrpt.obj
 0001:00090ec0       ??0?$__crt_unique_heap_ptr@U?$__crt_report_hook_node@D@@U__crt_internal_free_policy@@@@QEAA@QEAU?$__crt_report_hook_node@D@@@Z 0000000180091ec0 f i libucrtd:dbgrpt.obj
 0001:00090ee0       ??0?$__crt_unique_heap_ptr@U?$__crt_report_hook_node@_W@@U__crt_internal_free_policy@@@@QEAA@QEAU?$__crt_report_hook_node@_W@@@Z 0000000180091ee0 f i libucrtd:dbgrpt.obj
 0001:00090f00       ??1?$__crt_unique_heap_ptr@U?$__crt_report_hook_node@D@@U__crt_internal_free_policy@@@@QEAA@XZ 0000000180091f00 f i libucrtd:dbgrpt.obj
 0001:00090f20       ??1?$__crt_unique_heap_ptr@U?$__crt_report_hook_node@_W@@U__crt_internal_free_policy@@@@QEAA@XZ 0000000180091f20 f i libucrtd:dbgrpt.obj
 0001:00090f40       ??B?$__crt_unique_heap_ptr@U?$__crt_report_hook_node@D@@U__crt_internal_free_policy@@@@QEBA_NXZ 0000000180091f40 f i libucrtd:dbgrpt.obj
 0001:00090f60       ??B?$__crt_unique_heap_ptr@U?$__crt_report_hook_node@_W@@U__crt_internal_free_policy@@@@QEBA_NXZ 0000000180091f60 f i libucrtd:dbgrpt.obj
 0001:00091680       ?detach@?$__crt_unique_heap_ptr@U?$__crt_report_hook_node@D@@U__crt_internal_free_policy@@@@QEAAPEAU?$__crt_report_hook_node@D@@XZ 0000000180092680 f i libucrtd:dbgrpt.obj
 0001:000916b0       ?detach@?$__crt_unique_heap_ptr@U?$__crt_report_hook_node@_W@@U__crt_internal_free_policy@@@@QEAAPEAU?$__crt_report_hook_node@_W@@XZ 00000001800926b0 f i libucrtd:dbgrpt.obj
 0001:000916e0       ?get@?$__crt_unique_heap_ptr@U?$__crt_report_hook_node@D@@U__crt_internal_free_policy@@@@QEBAPEAU?$__crt_report_hook_node@D@@XZ 00000001800926e0 f i libucrtd:dbgrpt.obj
 0001:000916f0       ?get@?$__crt_unique_heap_ptr@U?$__crt_report_hook_node@_W@@U__crt_internal_free_policy@@@@QEBAPEAU?$__crt_report_hook_node@_W@@XZ 00000001800926f0 f i libucrtd:dbgrpt.obj
 0001:00091760       ?is_valid@?$__crt_unique_heap_ptr@U?$__crt_report_hook_node@D@@U__crt_internal_free_policy@@@@QEBA_NXZ 0000000180092760 f i libucrtd:dbgrpt.obj
 0001:00091790       ?is_valid@?$__crt_unique_heap_ptr@U?$__crt_report_hook_node@_W@@U__crt_internal_free_policy@@@@QEBA_NXZ 0000000180092790 f i libucrtd:dbgrpt.obj
 0001:000917c0       ?release@?$__crt_unique_heap_ptr@U?$__crt_report_hook_node@D@@U__crt_internal_free_policy@@@@QEAAXXZ 00000001800927c0 f i libucrtd:dbgrpt.obj
 0001:000917f0       ?release@?$__crt_unique_heap_ptr@U?$__crt_report_hook_node@_W@@U__crt_internal_free_policy@@@@QEAAXXZ 00000001800927f0 f i libucrtd:dbgrpt.obj
 0001:00091820       _CrtDbgReport              0000000180092820 f   libucrtd:dbgrpt.obj
 0001:000918a0       _CrtDbgReportW             00000001800928a0 f   libucrtd:dbgrpt.obj
 0001:00091920       _CrtSetReportHook2         0000000180092920 f   libucrtd:dbgrpt.obj
 0001:00091940       _CrtSetReportHookW2        0000000180092940 f   libucrtd:dbgrpt.obj
 0001:00091960       __acrt_MessageWindowA      0000000180092960 f   libucrtd:dbgrpt.obj
 0001:000919b0       __acrt_MessageWindowW      00000001800929b0 f   libucrtd:dbgrpt.obj
 0001:00091a00       _invoke_watson_if_error    0000000180092a00 f i libucrtd:dbgrpt.obj
 0001:00091a50       _invoke_watson_if_oneof    0000000180092a50 f i libucrtd:dbgrpt.obj
 0001:00091ab0       _snwprintf_s               0000000180092ab0 f i libucrtd:dbgrpt.obj
 0001:00091b20       _vsnwprintf_s_l            0000000180092b20 f i libucrtd:dbgrpt.obj
 0001:000920a0       wcscpy_s                   00000001800930a0 f   libucrtd:wcscpy_s.obj
 0001:00093430       ??1?$__crt_simd_cleanup_guard@$00@@QEAA@XZ 0000000180094430 f i libucrtd:strnlen.obj
 0001:00093440       ??1?$__crt_simd_cleanup_guard@$0A@@@QEAA@XZ 0000000180094440 f i libucrtd:strnlen.obj
 0001:00093450       ?compare_equals@?$__crt_simd_traits@$00E@@SA?AT__m256i@@T2@0@Z 0000000180094450 f i libucrtd:strnlen.obj
 0001:00093490       ?compare_equals@?$__crt_simd_traits@$00G@@SA?AT__m256i@@T2@0@Z 0000000180094490 f i libucrtd:strnlen.obj
 0001:000934d0       ?compare_equals@?$__crt_simd_traits@$0A@E@@SA?AT__m128i@@T2@0@Z 00000001800944d0 f i libucrtd:strnlen.obj
 0001:00093500       ?compare_equals@?$__crt_simd_traits@$0A@G@@SA?AT__m128i@@T2@0@Z 0000000180094500 f i libucrtd:strnlen.obj
 0001:00093530       ?compute_byte_mask@?$__crt_simd_pack_traits@$00@@SAHT__m256i@@@Z 0000000180094530 f i libucrtd:strnlen.obj
 0001:00093550       ?compute_byte_mask@?$__crt_simd_pack_traits@$0A@@@SAHT__m128i@@@Z 0000000180094550 f i libucrtd:strnlen.obj
 0001:00093570       ?get_zero_pack@?$__crt_simd_pack_traits@$00@@SA?AT__m256i@@XZ 0000000180094570 f i libucrtd:strnlen.obj
 0001:000935a0       ?get_zero_pack@?$__crt_simd_pack_traits@$0A@@@SA?AT__m128i@@XZ 00000001800945a0 f i libucrtd:strnlen.obj
 0001:000935c0       strnlen                    00000001800945c0 f   libucrtd:strnlen.obj
 0001:000935f0       wcslen                     00000001800945f0 f   libucrtd:strnlen.obj
 0001:00093610       wcsnlen                    0000000180094610 f   libucrtd:strnlen.obj
 0001:00093640       ??$__crt_fast_decode_pointer@P6AXPEB_W00I_K@Z@@YAP6AXPEB_W00I_K@ZQ6AX000I1@Z@Z 0000000180094640 f i libucrtd:invalid_parameter.obj
 0001:00093680       ??$__crt_fast_encode_pointer@P6AXPEB_W00I_K@Z@@YAP6AXPEB_W00I_K@ZQ6AX000I1@Z@Z 0000000180094680 f i libucrtd:invalid_parameter.obj
 0001:000936c0       ??$initialize_from_array@$$BY00Q6AXPEB_W00I_K@Z@?$dual_state_global@P6AXPEB_W00I_K@Z@__crt_state_management@@QEAAXAEAY00Q6AXPEB_W00I_K@Z@Z 00000001800946c0 f i libucrtd:invalid_parameter.obj
 0001:00093720       ?__crt_rotate_pointer_value@@YA_K_KH@Z 0000000180094720 f i libucrtd:invalid_parameter.obj
 0001:000937e0       ?check_synchronize_global_state_index@__crt_cached_ptd_host@@AEAA_KXZ 00000001800947e0 f i libucrtd:invalid_parameter.obj
 0001:00093840       ?dangerous_get_state_array@?$dual_state_global@P6AXPEB_W00I_K@Z@__crt_state_management@@QEAAPEAP6AXPEB_W00I_K@ZXZ 0000000180094840 f i libucrtd:invalid_parameter.obj
 0001:00093850       ?get_current_global_state_index@__crt_cached_ptd_host@@QEAA_KXZ 0000000180094850 f i libucrtd:invalid_parameter.obj
 0001:00093870       ?get_current_state_index@__crt_state_management@@YA_KXZ 0000000180094870 f i libucrtd:invalid_parameter.obj
 0001:00093880       ?get_raw_ptd_noexit@__crt_cached_ptd_host@@QEAAPEAU__acrt_ptd@@XZ 0000000180094880 f i libucrtd:invalid_parameter.obj
 0001:000938a0       ?try_synchronize_per_thread_data@__crt_cached_ptd_host@@AEAAPEAU__acrt_ptd@@XZ 00000001800948a0 f i libucrtd:invalid_parameter.obj
 0001:000938d0       ?value@?$dual_state_global@P6AXPEB_W00I_K@Z@__crt_state_management@@QEAAAEAP6AXPEB_W00I_K@ZAEAV__crt_cached_ptd_host@@@Z 00000001800948d0 f i libucrtd:invalid_parameter.obj
 0001:00093900       ?value@?$dual_state_global@P6AXPEB_W00I_K@Z@__crt_state_management@@QEAAAEAP6AXPEB_W00I_K@ZXZ 0000000180094900 f i libucrtd:invalid_parameter.obj
 0001:00093920       __acrt_call_reportfault    0000000180094920 f   libucrtd:invalid_parameter.obj
 0001:00093a50       __acrt_initialize_invalid_parameter_handler 0000000180094a50 f   libucrtd:invalid_parameter.obj
 0001:00093a80       _get_invalid_parameter_handler 0000000180094a80 f   libucrtd:invalid_parameter.obj
 0001:00093aa0       _get_thread_local_invalid_parameter_handler 0000000180094aa0 f   libucrtd:invalid_parameter.obj
 0001:00093ad0       _invalid_parameter         0000000180094ad0 f   libucrtd:invalid_parameter.obj
 0001:00093b40       _invalid_parameter_internal 0000000180094b40 f   libucrtd:invalid_parameter.obj
 0001:00093c90       _invalid_parameter_noinfo  0000000180094c90 f   libucrtd:invalid_parameter.obj
 0001:00093cc0       _invalid_parameter_noinfo_noreturn 0000000180094cc0 f   libucrtd:invalid_parameter.obj
 0001:00093d00       _invoke_watson             0000000180094d00 f   libucrtd:invalid_parameter.obj
 0001:00093d60       _set_invalid_parameter_handler 0000000180094d60 f   libucrtd:invalid_parameter.obj
 0001:00093db0       _set_thread_local_invalid_parameter_handler 0000000180094db0 f   libucrtd:invalid_parameter.obj
 0001:00093df0       ?get_doserrno@__crt_cached_ptd_host@@QEAAAEAU?$cached@K@1@XZ 0000000180094df0 f i libucrtd:errno.obj
 0001:00093e00       ?set@?$cached@K@__crt_cached_ptd_host@@QEAAKK@Z 0000000180094e00 f i libucrtd:errno.obj
 0001:00093e30       __acrt_errno_from_os_error 0000000180094e30 f   libucrtd:errno.obj
 0001:00093ec0       __acrt_errno_map_os_error  0000000180094ec0 f   libucrtd:errno.obj
 0001:00093ef0       __acrt_errno_map_os_error_ptd 0000000180094ef0 f   libucrtd:errno.obj
 0001:00093f50       __doserrno                 0000000180094f50 f   libucrtd:errno.obj
 0001:00093f80       _errno                     0000000180094f80 f   libucrtd:errno.obj
 0001:00093fb0       _get_doserrno              0000000180094fb0 f   libucrtd:errno.obj
 0001:00094070       _get_errno                 0000000180095070 f   libucrtd:errno.obj
 0001:00094130       _set_doserrno              0000000180095130 f   libucrtd:errno.obj
 0001:00094170       _set_errno                 0000000180095170 f   libucrtd:errno.obj
 0001:000941b0       calloc                     00000001800951b0 f   libucrtd:calloc.obj
 0001:000941f0       _recalloc                  00000001800951f0 f   libucrtd:recalloc.obj
 0001:00094240       _recalloc_base             0000000180095240 f   libucrtd:recalloc.obj
 0001:00094320       _resetstkoflw              0000000180095320 f   libucrtd:resetstk.obj
 0001:00094b20       wcscat_s                   0000000180095b20 f   libucrtd:wcscat_s.obj
 0001:00095200       wcsncpy_s                  0000000180096200 f   libucrtd:wcsncpy_s.obj
 0001:00095380       __isascii                  0000000180096380 f   libucrtd:_ctype.obj
 0001:000953b0       __iscsym                   00000001800963b0 f   libucrtd:_ctype.obj
 0001:000953f0       __iscsymf                  00000001800963f0 f   libucrtd:_ctype.obj
 0001:00095430       __toascii                  0000000180096430 f   libucrtd:_ctype.obj
 0001:00095440       _isalnum_l                 0000000180096440 f   libucrtd:_ctype.obj
 0001:00095470       _isalpha_l                 0000000180096470 f   libucrtd:_ctype.obj
 0001:000954a0       _isblank_l                 00000001800964a0 f   libucrtd:_ctype.obj
 0001:000954d0       _iscntrl_l                 00000001800964d0 f   libucrtd:_ctype.obj
 0001:00095500       _iscsym_l                  0000000180096500 f   libucrtd:_ctype.obj
 0001:00095550       _iscsymf_l                 0000000180096550 f   libucrtd:_ctype.obj
 0001:000955a0       _isdigit_l                 00000001800965a0 f   libucrtd:_ctype.obj
 0001:000955d0       _isgraph_l                 00000001800965d0 f   libucrtd:_ctype.obj
 0001:00095600       _islower_l                 0000000180096600 f   libucrtd:_ctype.obj
 0001:00095630       _isprint_l                 0000000180096630 f   libucrtd:_ctype.obj
 0001:00095660       _ispunct_l                 0000000180096660 f   libucrtd:_ctype.obj
 0001:00095690       _isspace_l                 0000000180096690 f   libucrtd:_ctype.obj
 0001:000956c0       _isupper_l                 00000001800966c0 f   libucrtd:_ctype.obj
 0001:000956f0       _isxdigit_l                00000001800966f0 f   libucrtd:_ctype.obj
 0001:00095720       isalnum                    0000000180096720 f   libucrtd:_ctype.obj
 0001:00095740       isalpha                    0000000180096740 f   libucrtd:_ctype.obj
 0001:00095760       isblank                    0000000180096760 f   libucrtd:_ctype.obj
 0001:00095790       iscntrl                    0000000180096790 f   libucrtd:_ctype.obj
 0001:000957b0       isdigit                    00000001800967b0 f   libucrtd:_ctype.obj
 0001:000957d0       isgraph                    00000001800967d0 f   libucrtd:_ctype.obj
 0001:000957f0       islower                    00000001800967f0 f   libucrtd:_ctype.obj
 0001:00095810       isprint                    0000000180096810 f   libucrtd:_ctype.obj
 0001:00095830       ispunct                    0000000180096830 f   libucrtd:_ctype.obj
 0001:00095850       isspace                    0000000180096850 f   libucrtd:_ctype.obj
 0001:00095870       isupper                    0000000180096870 f   libucrtd:_ctype.obj
 0001:00095890       isxdigit                   0000000180096890 f   libucrtd:_ctype.obj
 0001:000958b0       wcscat                     00000001800968b0 f   libucrtd:wcscat.obj
 0001:00095940       wcscpy                     0000000180096940 f   libucrtd:wcscpy.obj
 0001:000960f0       ??$open_file@AEBQEBDAEBQEBDAEBHPEAU_iobuf@@@?$__crt_char_traits@D@@SAPEAU_iobuf@@AEBQEBD0AEBH$$QEAPEAU1@@Z 00000001800970f0 f i libucrtd:fopen.obj
 0001:00096140       ??$open_file@AEBQEB_WAEBQEB_WAEBHPEAU_iobuf@@@?$__crt_char_traits@_W@@SAPEAU_iobuf@@AEBQEB_W0AEBH$$QEAPEAU1@@Z 0000000180097140 f i libucrtd:fopen.obj
 0001:00096190       ?unlock@__crt_stdio_stream@@QEBAXXZ 0000000180097190 f i libucrtd:fopen.obj
 0001:000961b0       _fsopen                    00000001800971b0 f   libucrtd:fopen.obj
 0001:000961e0       _wfopen                    00000001800971e0 f   libucrtd:fopen.obj
 0001:00096210       _wfopen_s                  0000000180097210 f   libucrtd:fopen.obj
 0001:00096240       _wfsopen                   0000000180097240 f   libucrtd:fopen.obj
 0001:00096270       fopen                      0000000180097270 f   libucrtd:fopen.obj
 0001:000962a0       fopen_s                    00000001800972a0 f   libucrtd:fopen.obj
 0001:000965e0       ?is_in_use@__crt_stdio_stream@@QEBA_NXZ 00000001800975e0 f i libucrtd:fclose.obj
 0001:00096620       _fclose_nolock             0000000180097620 f   libucrtd:fclose.obj
 0001:00096660       fclose                     0000000180097660 f   libucrtd:fclose.obj
 0001:000969a0       _fputc_nolock              00000001800979a0 f   libucrtd:fputc.obj
 0001:000969f0       _fputc_nolock_internal     00000001800979f0 f   libucrtd:fputc.obj
 0001:00096ab0       _fputchar                  0000000180097ab0 f   libucrtd:fputc.obj
 0001:00096ae0       _putc_nolock               0000000180097ae0 f   libucrtd:fputc.obj
 0001:00096b00       fputc                      0000000180097b00 f   libucrtd:fputc.obj
 0001:00096b50       putc                       0000000180097b50 f   libucrtd:fputc.obj
 0001:00096b70       putchar                    0000000180097b70 f   libucrtd:fputc.obj
 0001:00096c00       _seh_filter_dll            0000000180097c00 f   libucrtd:exception_filter.obj
 0001:00096c30       _seh_filter_exe            0000000180097c30 f   libucrtd:exception_filter.obj
 0001:00096f00       ??$?B$$A6AXPEAXK0@Z@__crt_fast_encoded_nullptr_t@@QEBAP6AXPEAXK0@ZXZ 0000000180097f00 f i libucrtd:exit.obj
 0001:00096fc0       ??$__crt_fast_decode_pointer@P6AXPEAXK0@Z@@YAP6AXPEAXK0@ZQ6AX0K0@Z@Z 0000000180097fc0 f i libucrtd:exit.obj
 0001:00097000       ??$__crt_fast_encode_pointer@P6AXPEAXK0@Z@@YAP6AXPEAXK0@ZQ6AX0K0@Z@Z 0000000180098000 f i libucrtd:exit.obj
 0001:00097040       ??$__crt_get_proc_address@P6AXI@Z@@YAP6AXI@ZQEAUHINSTANCE__@@QEBD@Z 0000000180098040 f i libucrtd:exit.obj
 0001:00097100       ??0?$__crt_unique_handle_t@U__crt_hmodule_traits@@@@QEAA@QEAUHINSTANCE__@@@Z 0000000180098100 f i libucrtd:exit.obj
 0001:00097120       ??1?$__crt_unique_handle_t@U__crt_hmodule_traits@@@@QEAA@XZ 0000000180098120 f i libucrtd:exit.obj
 0001:000972a0       ?__acrt_select_exit_lock@@YA?AW4__acrt_lock_id@@XZ 00000001800982a0 f i libucrtd:exit.obj
 0001:000972b0       ?__crt_fast_encode_pointer@@YA?AU__crt_fast_encoded_nullptr_t@@$$T@Z 00000001800982b0 f i libucrtd:exit.obj
 0001:000972f0       ?close@?$__crt_unique_handle_t@U__crt_hmodule_traits@@@@QEAAXXZ 00000001800982f0 f i libucrtd:exit.obj
 0001:00097330       ?close@__crt_hmodule_traits@@SA_NPEAUHINSTANCE__@@@Z 0000000180098330 f i libucrtd:exit.obj
 0001:00097450       ?get@?$__crt_unique_handle_t@U__crt_hmodule_traits@@@@QEBAPEAUHINSTANCE__@@XZ 0000000180098450 f i libucrtd:exit.obj
 0001:00097460       ?get_address_of@?$__crt_unique_handle_t@U__crt_hmodule_traits@@@@QEAAPEAPEAUHINSTANCE__@@XZ 0000000180098460 f i libucrtd:exit.obj
 0001:00097470       ?get_invalid_value@__crt_hmodule_traits@@SAPEAUHINSTANCE__@@XZ 0000000180098470 f i libucrtd:exit.obj
 0001:00097650       _Exit                      0000000180098650 f   libucrtd:exit.obj
 0001:00097670       __acrt_initialize_thread_local_exit_callback 0000000180098670 f   libucrtd:exit.obj
 0001:00097690       _c_exit                    0000000180098690 f   libucrtd:exit.obj
 0001:000976b0       _cexit                     00000001800986b0 f   libucrtd:exit.obj
 0001:000976d0       _exit                      00000001800986d0 f   libucrtd:exit.obj
 0001:000976f0       _is_c_termination_complete 00000001800986f0 f   libucrtd:exit.obj
 0001:00097710       _register_thread_local_exe_atexit_callback 0000000180098710 f   libucrtd:exit.obj
 0001:00097760       exit                       0000000180098760 f   libucrtd:exit.obj
 0001:00097780       quick_exit                 0000000180098780 f   libucrtd:exit.obj
 0001:000977a0       ??$?RE@__crt_internal_free_policy@@QEBAXQEBE@Z 00000001800987a0 f i libucrtd:argv_parsing.obj
 0001:000977d0       ??$?RPEAD@__crt_internal_free_policy@@QEBAXQEBQEAD@Z 00000001800987d0 f i libucrtd:argv_parsing.obj
 0001:00097800       ??$?RPEA_W@__crt_internal_free_policy@@QEBAXQEBQEA_W@Z 0000000180098800 f i libucrtd:argv_parsing.obj
 0001:00097f50       ??$get_module_file_name@$$TAEAY0BAF@DH@?$__crt_char_traits@D@@SAK$$QEA$$TAEAY0BAF@D$$QEAH@Z 0000000180098f50 f i libucrtd:argv_parsing.obj
 0001:00097f90       ??$get_module_file_name@$$TAEAY0BAF@_WH@?$__crt_char_traits@_W@@SAK$$QEA$$TAEAY0BAF@_W$$QEAH@Z 0000000180098f90 f i libucrtd:argv_parsing.obj
 0001:00098990       ??$set_program_name@PEAD@?$__crt_char_traits@D@@SAX$$QEAPEAD@Z 0000000180099990 f i libucrtd:argv_parsing.obj
 0001:000989b0       ??$set_program_name@PEA_W@?$__crt_char_traits@_W@@SAX$$QEAPEA_W@Z 00000001800999b0 f i libucrtd:argv_parsing.obj
 0001:00098a10       ??0?$__crt_unique_heap_ptr@EU__crt_internal_free_policy@@@@QEAA@QEAE@Z 0000000180099a10 f i libucrtd:argv_parsing.obj
 0001:00098a30       ??0?$__crt_unique_heap_ptr@PEADU__crt_internal_free_policy@@@@QEAA@QEAPEAD@Z 0000000180099a30 f i libucrtd:argv_parsing.obj
 0001:00098a50       ??0?$__crt_unique_heap_ptr@PEA_WU__crt_internal_free_policy@@@@QEAA@QEAPEA_W@Z 0000000180099a50 f i libucrtd:argv_parsing.obj
 0001:00098a70       ??1?$__crt_unique_heap_ptr@EU__crt_internal_free_policy@@@@QEAA@XZ 0000000180099a70 f i libucrtd:argv_parsing.obj
 0001:00098a90       ??1?$__crt_unique_heap_ptr@PEADU__crt_internal_free_policy@@@@QEAA@XZ 0000000180099a90 f i libucrtd:argv_parsing.obj
 0001:00098ab0       ??1?$__crt_unique_heap_ptr@PEA_WU__crt_internal_free_policy@@@@QEAA@XZ 0000000180099ab0 f i libucrtd:argv_parsing.obj
 0001:00098ad0       ??B?$__crt_unique_heap_ptr@EU__crt_internal_free_policy@@@@QEBA_NXZ 0000000180099ad0 f i libucrtd:argv_parsing.obj
 0001:00098bb0       ?detach@?$__crt_unique_heap_ptr@EU__crt_internal_free_policy@@@@QEAAPEAEXZ 0000000180099bb0 f i libucrtd:argv_parsing.obj
 0001:00098be0       ?detach@?$__crt_unique_heap_ptr@PEADU__crt_internal_free_policy@@@@QEAAPEAPEADXZ 0000000180099be0 f i libucrtd:argv_parsing.obj
 0001:00098c10       ?detach@?$__crt_unique_heap_ptr@PEA_WU__crt_internal_free_policy@@@@QEAAPEAPEA_WXZ 0000000180099c10 f i libucrtd:argv_parsing.obj
 0001:00098cd0       ?get@?$__crt_unique_heap_ptr@EU__crt_internal_free_policy@@@@QEBAPEAEXZ 0000000180099cd0 f i libucrtd:argv_parsing.obj
 0001:00098ce0       ?get@?$__crt_unique_heap_ptr@PEADU__crt_internal_free_policy@@@@QEBAPEAPEADXZ 0000000180099ce0 f i libucrtd:argv_parsing.obj
 0001:00098cf0       ?get@?$__crt_unique_heap_ptr@PEA_WU__crt_internal_free_policy@@@@QEBAPEAPEA_WXZ 0000000180099cf0 f i libucrtd:argv_parsing.obj
 0001:00098d00       ?get_address_of@?$__crt_unique_heap_ptr@PEADU__crt_internal_free_policy@@@@QEAAPEAPEAPEADXZ 0000000180099d00 f i libucrtd:argv_parsing.obj
 0001:00098d10       ?get_address_of@?$__crt_unique_heap_ptr@PEA_WU__crt_internal_free_policy@@@@QEAAPEAPEAPEA_WXZ 0000000180099d10 f i libucrtd:argv_parsing.obj
 0001:00098d60       ?is_valid@?$__crt_unique_heap_ptr@EU__crt_internal_free_policy@@@@QEBA_NXZ 0000000180099d60 f i libucrtd:argv_parsing.obj
 0001:00098d90       ?release@?$__crt_unique_heap_ptr@EU__crt_internal_free_policy@@@@QEAAXXZ 0000000180099d90 f i libucrtd:argv_parsing.obj
 0001:00098dc0       ?release@?$__crt_unique_heap_ptr@PEADU__crt_internal_free_policy@@@@QEAAXXZ 0000000180099dc0 f i libucrtd:argv_parsing.obj
 0001:00098df0       ?release@?$__crt_unique_heap_ptr@PEA_WU__crt_internal_free_policy@@@@QEAAXXZ 0000000180099df0 f i libucrtd:argv_parsing.obj
 0001:00098e70       __acrt_allocate_buffer_for_argv 0000000180099e70 f   libucrtd:argv_parsing.obj
 0001:00098f90       _configure_narrow_argv     0000000180099f90 f   libucrtd:argv_parsing.obj
 0001:00098fb0       _configure_wide_argv       0000000180099fb0 f   libucrtd:argv_parsing.obj
 0001:00098fd0       _set_pgmptr                0000000180099fd0 f i libucrtd:argv_parsing.obj
 0001:00098ff0       _set_wpgmptr               0000000180099ff0 f i libucrtd:argv_parsing.obj
 0001:00099010       ??$?R_W@__crt_internal_free_policy@@QEBAXQEB_W@Z 000000018009a010 f i libucrtd:environment_initialization.obj
 0001:000999d0       ??$get_environment_from_os@$$V@?$__crt_char_traits@D@@SAPEADXZ 000000018009a9d0 f i libucrtd:environment_initialization.obj
 0001:000999e0       ??$get_environment_from_os@$$V@?$__crt_char_traits@_W@@SAPEA_WXZ 000000018009a9e0 f i libucrtd:environment_initialization.obj
 0001:00099cf0       ??$set_variable_in_environment_nolock@PEADH@?$__crt_char_traits@D@@SAH$$QEAPEAD$$QEAH@Z 000000018009acf0 f i libucrtd:environment_initialization.obj
 0001:00099d20       ??$set_variable_in_environment_nolock@PEA_WH@?$__crt_char_traits@_W@@SAH$$QEAPEA_W$$QEAH@Z 000000018009ad20 f i libucrtd:environment_initialization.obj
 0001:00099d50       ??$tcscpy_s@PEADAEB_KAEAPEAD@?$__crt_char_traits@D@@SAH$$QEAPEADAEB_KAEAPEAD@Z 000000018009ad50 f i libucrtd:environment_initialization.obj
 0001:00099d90       ??$tcscpy_s@PEA_WAEB_KAEAPEA_W@?$__crt_char_traits@_W@@SAH$$QEAPEA_WAEB_KAEAPEA_W@Z 000000018009ad90 f i libucrtd:environment_initialization.obj
 0001:00099dd0       ??$tcslen@AEAPEAD@?$__crt_char_traits@D@@SA_KAEAPEAD@Z 000000018009add0 f i libucrtd:environment_initialization.obj
 0001:00099df0       ??$tcslen@AEAPEA_W@?$__crt_char_traits@_W@@SA_KAEAPEA_W@Z 000000018009adf0 f i libucrtd:environment_initialization.obj
 0001:00099e10       ??$uninitialize@A6AXAEAPEAPEAD@_E@?$dual_state_global@PEAPEAD@__crt_state_management@@QEAAXA6AXAEAPEAPEAD@_E@Z 000000018009ae10 f i libucrtd:environment_initialization.obj
 0001:00099e90       ??$uninitialize@A6AXAEAPEAPEA_W@_E@?$dual_state_global@PEAPEA_W@__crt_state_management@@QEAAXA6AXAEAPEAPEA_W@_E@Z 000000018009ae90 f i libucrtd:environment_initialization.obj
 0001:00099f90       ??0?$__crt_unique_heap_ptr@_WU__crt_internal_free_policy@@@@QEAA@QEA_W@Z 000000018009af90 f i libucrtd:environment_initialization.obj
 0001:00099fb0       ??1?$__crt_unique_heap_ptr@_WU__crt_internal_free_policy@@@@QEAA@XZ 000000018009afb0 f i libucrtd:environment_initialization.obj
 0001:00099fd0       ??B?$__crt_unique_heap_ptr@PEADU__crt_internal_free_policy@@@@QEBA_NXZ 000000018009afd0 f i libucrtd:environment_initialization.obj
 0001:00099ff0       ??B?$__crt_unique_heap_ptr@PEA_WU__crt_internal_free_policy@@@@QEBA_NXZ 000000018009aff0 f i libucrtd:environment_initialization.obj
 0001:0009a010       ??B?$__crt_unique_heap_ptr@_WU__crt_internal_free_policy@@@@QEBA_NXZ 000000018009b010 f i libucrtd:environment_initialization.obj
 0001:0009a030       ?__crt_compute_required_transform_buffer_count@@YA_KIQEBD@Z 000000018009b030 f i libucrtd:environment_initialization.obj
 0001:0009a070       ?__crt_compute_required_transform_buffer_count@@YA_KIQEB_W@Z 000000018009b070 f i libucrtd:environment_initialization.obj
 0001:0009a0c0       ?__crt_transform_string@@YA_KIQEBDQEA_W_K@Z 000000018009b0c0 f i libucrtd:environment_initialization.obj
 0001:0009a110       ?__crt_transform_string@@YA_KIQEB_WQEAD_K@Z 000000018009b110 f i libucrtd:environment_initialization.obj
 0001:0009a170       ?detach@?$__crt_unique_heap_ptr@DU__crt_internal_free_policy@@@@QEAAPEADXZ 000000018009b170 f i libucrtd:environment_initialization.obj
 0001:0009a1a0       ?detach@?$__crt_unique_heap_ptr@_WU__crt_internal_free_policy@@@@QEAAPEA_WXZ 000000018009b1a0 f i libucrtd:environment_initialization.obj
 0001:0009a1d0       ?get@?$__crt_unique_heap_ptr@_WU__crt_internal_free_policy@@@@QEBAPEA_WXZ 000000018009b1d0 f i libucrtd:environment_initialization.obj
