 OPOSSoundPlayer

 Timestamp is 61a75912 (Wed Dec  1 20:14:26 2021)

 Preferred load address is 0000000180000000

 Start         Length     Name                   Class
 0001:00000000 00000d90H .text$di                CODE
 0001:00000d90 000e3e40H .text$mn                CODE
 0001:000e4bd0 00000040H .text$mn$00             CODE
 0001:000e4c10 00001330H .text$x                 CODE
 0001:000e5f40 00000124H .text$yd                CODE
 0002:00000000 000006f8H .idata$5                DATA
 0002:000006f8 00000030H .00cfg                  DATA
 0002:00000728 00000008H .CRT$XCA                DATA
 0002:00000730 00000008H .CRT$XCL                DATA
 0002:00000738 000000d8H .CRT$XCU                DATA
 0002:00000810 00000008H .CRT$XCZ                DATA
 0002:00000818 00000008H .CRT$XIA                DATA
 0002:00000820 00000028H .CRT$XIC                DATA
 0002:00000848 00000008H .CRT$XIZ                DATA
 0002:00000850 00000008H .CRT$XLA                DATA
 0002:00000858 00000008H .CRT$XLZ                DATA
 0002:00000860 00000008H .CRT$XPA                DATA
 0002:00000868 00000010H .CRT$XPX                DATA
 0002:00000878 00000008H .CRT$XPXA               DATA
 0002:00000880 00000008H .CRT$XPZ                DATA
 0002:00000888 00000008H .CRT$XTA                DATA
 0002:00000890 00000010H .CRT$XTZ                DATA
 0002:00000898 00000000H .gehcont$y              DATA
 0002:00000898 00000000H .gfids$y                DATA
 0002:000008a0 0003be60H .rdata                  DATA
 0002:0003c700 00000080H .rdata$CastGuardVftablesA DATA
 0002:0003c780 00000080H .rdata$CastGuardVftablesC DATA
 0002:0003c800 00000028H .rdata$T                DATA
 0002:0003c828 0000056cH .rdata$r                DATA
 0002:0003cd94 00000180H .rdata$voltmd           DATA
 0002:0003cf14 000004a4H .rdata$zzzdbg           DATA
 0002:0003d3b8 00000008H .rtc$IAA                DATA
 0002:0003d3c0 00000030H .rtc$IMZ                DATA
 0002:0003d3f0 00000008H .rtc$IZZ                DATA
 0002:0003d3f8 00000008H .rtc$TAA                DATA
 0002:0003d400 00000030H .rtc$TMZ                DATA
 0002:0003d430 00000008H .rtc$TZZ                DATA
 0002:0003d438 00000004H .tls                    DATA
 0002:0003d43c 00000004H .tls$                   DATA
 0002:0003d440 00000008H .tls$ZZZ                DATA
 0002:0003d448 00009ed0H .xdata                  DATA
 0002:00047318 00000150H .xdata$x                DATA
 0002:00047468 00000008H ATL$__a                 DATA
 0002:00047470 00000010H ATL$__z                 DATA
 0002:00047480 000000acH .edata                  DATA
 0002:0004752c 00000078H .idata$2                DATA
 0002:000475a4 00000014H .idata$3                DATA
 0002:000475b8 000006f8H .idata$4                DATA
 0002:00047cb0 00000df0H .idata$6                DATA
 0003:00000000 00000ea8H .data                   DATA
 0003:00000ea8 000000a8H .data$r                 DATA
 0003:00000f50 000000f0H .data$rs                DATA
 0003:00001040 00003e7cH .bss                    DATA
 0004:00000000 0000c75cH .pdata                  DATA
 0005:00000000 000000fcH _RDATA                  DATA
 0006:00000000 00000220H .rsrc$01                DATA
 0006:00000220 00003b00H .rsrc$02                DATA

  Address         Publics by Value              Rva+Base               Lib:Object

 0000:00000000       __enclave_config           0000000000000000     <absolute>
 0000:00000000       __guard_iat_count          0000000000000000     <absolute>
 0000:00000000       __guard_eh_cont_count      0000000000000000     <absolute>
 0000:00000000       __hybrid_code_map_count    0000000000000000     <absolute>
 0000:00000000       __arm64x_extra_rfe_table_size 0000000000000000     <absolute>
 0000:00000000       __guard_longjmp_count      0000000000000000     <absolute>
 0000:00000000       __guard_fids_table         0000000000000000     <absolute>
 0000:00000000       __arm64x_redirection_metadata 0000000000000000     <absolute>
 0000:00000000       __arm64x_native_entrypoint 0000000000000000     <absolute>
 0000:00000000       __hybrid_auxiliary_iat     0000000000000000     <absolute>
 0000:00000000       __AbsoluteZero             0000000000000000     <absolute>
 0000:00000000       __dynamic_value_reloc_table 0000000000000000     <absolute>
 0000:00000000       __hybrid_auxiliary_iat_copy 0000000000000000     <absolute>
 0000:00000000       __x64_code_ranges_to_entry_points 0000000000000000     <absolute>
 0000:00000000       __arm64x_redirection_metadata_count 0000000000000000     <absolute>
 0000:00000000       __guard_check_icall_a64n_fptr 0000000000000000     <absolute>
 0000:00000000       __arm64x_extra_rfe_table   0000000000000000     <absolute>
 0000:00000000       __guard_iat_table          0000000000000000     <absolute>
 0000:00000000       ___safe_se_handler_count   0000000000000000     <absolute>
 0000:00000000       __guard_eh_cont_table      0000000000000000     <absolute>
 0000:00000000       __guard_fids_count         0000000000000000     <absolute>
 0000:00000000       ___safe_se_handler_table   0000000000000000     <absolute>
 0000:00000000       __hybrid_code_map          0000000000000000     <absolute>
 0000:00000000       __guard_longjmp_table      0000000000000000     <absolute>
 0000:00000000       __x64_code_ranges_to_entry_points_count 0000000000000000     <absolute>
 0000:00000100       __guard_flags              0000000000000100     <absolute>
 0000:00000000       __ImageBase                0000000180000000     <linker-defined>
 0001:00000d90       ?_assert@@YAXPEB_W0I@Z     0000000180001d90 f   Assert.obj
 0001:00000e90       __local_stdio_printf_options 0000000180001e90 f i Assert.obj
 0001:00000ea0       __vswprintf_l              0000000180001ea0 f i Assert.obj
 0001:00000ef0       _swprintf                  0000000180001ef0 f i Assert.obj
 0001:00000f70       _vswprintf_c_l             0000000180001f70 f i Assert.obj
 0001:00000fe0       _vswprintf_l               0000000180001fe0 f i Assert.obj
 0001:00001030       ?cw_memcpy@@YAHPEADPEB_WH@Z 0000000180002030 f   CWString.obj
 0001:000010b0       ?cw_memcpy@@YAHPEA_WPEBDH@Z 00000001800020b0 f   CWString.obj
 0001:00001120       ?cw_memcpy@@YAHPEADPEBDH@Z 0000000180002120 f   CWString.obj
 0001:000011b0       ?cw_memcpy@@YAHPEA_WPEB_WH@Z 00000001800021b0 f   CWString.obj
 0001:00001210       ?cw_memset@@YAXPEADDH@Z    0000000180002210 f   CWString.obj
 0001:00001270       ?cw_memset@@YAXPEA_W_WH@Z  0000000180002270 f   CWString.obj
 0001:00001300       ?cw_strlen@@YAHPEBD@Z      0000000180002300 f   CWString.obj
 0001:00001360       ?cw_strlen@@YAHPEB_W@Z     0000000180002360 f   CWString.obj
 0001:000013c0       ?cw_strcpy@@YAHPEADPEB_W@Z 00000001800023c0 f   CWString.obj
 0001:00001400       ?cw_strcpy@@YAHPEA_WPEBD@Z 0000000180002400 f   CWString.obj
 0001:00001440       ?cw_strcpy@@YAHPEADPEBD@Z  0000000180002440 f   CWString.obj
 0001:00001480       ?cw_strcpy@@YAHPEA_WPEB_W@Z 0000000180002480 f   CWString.obj
 0001:000014c0       ?cw_strcat@@YAHPEADPEB_W@Z 00000001800024c0 f   CWString.obj
 0001:00001510       ?cw_strcat@@YAHPEA_WPEBD@Z 0000000180002510 f   CWString.obj
 0001:00001560       ?cw_strcat@@YAHPEADPEBD@Z  0000000180002560 f   CWString.obj
 0001:000015b0       ?cw_strcat@@YAHPEA_WPEB_W@Z 00000001800025b0 f   CWString.obj
 0001:00001600       ?cw_dup@@YAXPEBDAEAHAEAPEA_W1@Z 0000000180002600 f   CWString.obj
 0001:00001700       ?cw_dup@@YAXPEB_WAEAHAEAPEAD1@Z 0000000180002700 f   CWString.obj
 0001:000017e0       ?DupChar@_CW@@AEAAXXZ      00000001800027e0 f   CWString.obj
 0001:00001830       ?DupWide@_CW@@AEAAXXZ      0000000180002830 f   CWString.obj
 0001:00001880       ?GetCharsMbcs@_CW@@QEAAHXZ 0000000180002880 f   CWString.obj
 0001:000018e0       ?GetCharsWide@_CW@@QEAAHXZ 00000001800028e0 f   CWString.obj
 0001:00001940       ?SetVARIANT_BOOL@OposVariant@@QEAAXF@Z 0000000180002940 f   OposVariant.obj
 0001:000019a0       ?SetVARIANT_BOOL_Ptr@OposVariant@@QEAAXPEAFAEAJ@Z 00000001800029a0 f   OposVariant.obj
 0001:00001a00       ?GetLONG@OposVariant@@QEAAJXZ 0000000180002a00 f   OposVariant.obj
 0001:00001a60       ?ChangeLONG@OposVariant@@QEAAXPEAJAEAJ@Z 0000000180002a60 f   OposVariant.obj
 0001:00001b10       ?SetLONG@OposVariant@@QEAAXJ@Z 0000000180002b10 f   OposVariant.obj
 0001:00001b50       ?SetLONG_Ptr@OposVariant@@QEAAXPEAJAEAJ@Z 0000000180002b50 f   OposVariant.obj
 0001:00001bb0       ?ChangeCURRENCY@OposVariant@@QEAAXPEATtagCY@@AEAJ@Z 0000000180002bb0 f   OposVariant.obj
 0001:00001c60       ?SetCURRENCY@OposVariant@@QEAAXTtagCY@@@Z 0000000180002c60 f   OposVariant.obj
 0001:00001ca0       ?SetCURRENCY_Ptr@OposVariant@@QEAAXPEATtagCY@@AEAJ@Z 0000000180002ca0 f   OposVariant.obj
 0001:00001d00       ?ChangeBSTR@OposVariant@@QEAAXPEAPEA_WAEAJ@Z 0000000180002d00 f   OposVariant.obj
 0001:00001db0       ?SetBSTR@OposVariant@@QEAAXPEA_WAEAJ@Z 0000000180002db0 f   OposVariant.obj
 0001:00001e10       ?SetBSTR_Copy@OposVariant@@QEAAXPEA_WAEAJ@Z 0000000180002e10 f   OposVariant.obj
 0001:00001eb0       ?SetBSTR_OutPtr@OposVariant@@QEAA_NPEAPEA_WAEAJ@Z 0000000180002eb0 f   OposVariant.obj
 0001:00001f10       ?SetBSTR_InOutPtr@OposVariant@@QEAA_NPEAPEA_WAEAJ@Z 0000000180002f10 f   OposVariant.obj
 0001:00001f70       ?SetVARIANT@OposVariant@@QEAAXAEAUtagVARIANT@@GAEAJ@Z 0000000180002f70 f   OposVariant.obj
 0001:00002000       ?SetVARIANT_Ptr@OposVariant@@QEAAXAEAPEAUtagVARIANT@@GAEAJ@Z 0000000180003000 f   OposVariant.obj
 0001:000020a0       ?SetString@OposVariant@@QEAAXPEB_WAEAJ@Z 00000001800030a0 f   OposVariant.obj
 0001:00002130       ?SetDispatch_Ptr@OposVariant@@QEAAXPEAUIDispatch@@AEAJ@Z 0000000180003130 f   OposVariant.obj
 0001:000021b0       ??0OposDispParms@@QEAA@PEAVOposVariant@@H@Z 00000001800031b0 f   OposVariant.obj
 0001:000022b0       ??1OposDispParms@@QEAA@XZ  00000001800032b0 f   OposVariant.obj
 0001:000022f0       ??$AtlMultiply@_K@ATL@@YAJPEA_K_K1@Z 00000001800032f0 f i OposVariant.obj
 0001:00002360       ??0?$CHeapPtr@_WVCCRTAllocator@ATL@@@ATL@@QEAA@XZ 0000000180003360 f i OposVariant.obj
 0001:00002380       ??0?$CHeapPtrBase@_WVCCRTAllocator@ATL@@@ATL@@IEAA@XZ 0000000180003380 f i OposVariant.obj
 0001:000023a0       ??0?$CSimpleArray@GV?$CSimpleArrayEqualHelper@G@ATL@@@ATL@@QEAA@XZ 00000001800033a0 f i OposVariant.obj
 0001:000023e0       ??0?$CTraceCategoryEx@$00$0A@@ATL@@QEAA@PEB_W@Z 00000001800033e0 f i OposVariant.obj
 0001:00002410       ??0?$CTraceCategoryEx@$01$0A@@ATL@@QEAA@PEB_W@Z 0000000180003410 f i OposVariant.obj
 0001:00002440       ??0?$CTraceCategoryEx@$03$0A@@ATL@@QEAA@PEB_W@Z 0000000180003440 f i OposVariant.obj
 0001:00002470       ??0?$CTraceCategoryEx@$07$0A@@ATL@@QEAA@PEB_W@Z 0000000180003470 f i OposVariant.obj
 0001:000024a0       ??0?$CTraceCategoryEx@$0BA@$0A@@ATL@@QEAA@PEB_W@Z 00000001800034a0 f i OposVariant.obj
 0001:000024d0       ??0?$CTraceCategoryEx@$0BAA@$0A@@ATL@@QEAA@PEB_W@Z 00000001800034d0 f i OposVariant.obj
 0001:00002500       ??0?$CTraceCategoryEx@$0BAAA@$0A@@ATL@@QEAA@PEB_W@Z 0000000180003500 f i OposVariant.obj
 0001:00002530       ??0?$CTraceCategoryEx@$0BAAAA@$0A@@ATL@@QEAA@PEB_W@Z 0000000180003530 f i OposVariant.obj
 0001:00002560       ??0?$CTraceCategoryEx@$0BAAAAA@$0A@@ATL@@QEAA@PEB_W@Z 0000000180003560 f i OposVariant.obj
 0001:00002590       ??0?$CTraceCategoryEx@$0CA@$0A@@ATL@@QEAA@PEB_W@Z 0000000180003590 f i OposVariant.obj
 0001:000025c0       ??0?$CTraceCategoryEx@$0CAA@$0A@@ATL@@QEAA@PEB_W@Z 00000001800035c0 f i OposVariant.obj
 0001:000025f0       ??0?$CTraceCategoryEx@$0CAAA@$0A@@ATL@@QEAA@PEB_W@Z 00000001800035f0 f i OposVariant.obj
 0001:00002620       ??0?$CTraceCategoryEx@$0CAAAA@$0A@@ATL@@QEAA@PEB_W@Z 0000000180003620 f i OposVariant.obj
 0001:00002650       ??0?$CTraceCategoryEx@$0CAAAAA@$0A@@ATL@@QEAA@PEB_W@Z 0000000180003650 f i OposVariant.obj
 0001:00002680       ??0?$CTraceCategoryEx@$0EA@$0A@@ATL@@QEAA@PEB_W@Z 0000000180003680 f i OposVariant.obj
 0001:000026b0       ??0?$CTraceCategoryEx@$0EAA@$0A@@ATL@@QEAA@PEB_W@Z 00000001800036b0 f i OposVariant.obj
 0001:000026e0       ??0?$CTraceCategoryEx@$0EAAA@$0A@@ATL@@QEAA@PEB_W@Z 00000001800036e0 f i OposVariant.obj
 0001:00002710       ??0?$CTraceCategoryEx@$0EAAAA@$0A@@ATL@@QEAA@PEB_W@Z 0000000180003710 f i OposVariant.obj
 0001:00002740       ??0?$CTraceCategoryEx@$0EAAAAA@$0A@@ATL@@QEAA@PEB_W@Z 0000000180003740 f i OposVariant.obj
 0001:00002770       ??0?$CTraceCategoryEx@$0IA@$0A@@ATL@@QEAA@PEB_W@Z 0000000180003770 f i OposVariant.obj
 0001:000027a0       ??0?$CTraceCategoryEx@$0IAA@$0A@@ATL@@QEAA@PEB_W@Z 00000001800037a0 f i OposVariant.obj
 0001:000027d0       ??0?$CTraceCategoryEx@$0IAAA@$0A@@ATL@@QEAA@PEB_W@Z 00000001800037d0 f i OposVariant.obj
 0001:00002800       ??0?$CTraceCategoryEx@$0IAAAA@$0A@@ATL@@QEAA@PEB_W@Z 0000000180003800 f i OposVariant.obj
 0001:00002830       ??0CAtlComModule@ATL@@QEAA@XZ 0000000180003830 f i OposVariant.obj
 0001:00002940       ??0CAtlWinModule@ATL@@QEAA@XZ 0000000180003940 f i OposVariant.obj
 0001:000029e0       ??0CComCriticalSection@ATL@@QEAA@XZ 00000001800039e0 f i OposVariant.obj
 0001:00002a10       ??0CPreserveLastError@ATL@@QEAA@XZ 0000000180003a10 f i OposVariant.obj
 0001:00002a40       ??0CTraceFileAndLineInfo@ATL@@QEAA@PEBDH@Z 0000000180003a40 f i OposVariant.obj
 0001:00002a70       ??0_ATL_COM_MODULE70@ATL@@QEAA@XZ 0000000180003a70 f i OposVariant.obj
 0001:00002aa0       ??0_ATL_WIN_MODULE70@ATL@@QEAA@XZ 0000000180003aa0 f i OposVariant.obj
 0001:00002ae0       ??1?$CHeapPtr@_WVCCRTAllocator@ATL@@@ATL@@QEAA@XZ 0000000180003ae0 f i OposVariant.obj
 0001:00002b00       ??1?$CHeapPtrBase@_WVCCRTAllocator@ATL@@@ATL@@QEAA@XZ 0000000180003b00 f i OposVariant.obj
 0001:00002b20       ??1?$CSimpleArray@GV?$CSimpleArrayEqualHelper@G@ATL@@@ATL@@QEAA@XZ 0000000180003b20 f i OposVariant.obj
 0001:00002b40       ??1CAtlComModule@ATL@@QEAA@XZ 0000000180003b40 f i OposVariant.obj
 0001:00002b70       ??1CAtlWinModule@ATL@@QEAA@XZ 0000000180003b70 f i OposVariant.obj
 0001:00002ba0       ??1CComBSTR@ATL@@QEAA@XZ   0000000180003ba0 f i OposVariant.obj
 0001:00002bc0       ??1CComCriticalSection@ATL@@QEAA@XZ 0000000180003bc0 f i OposVariant.obj
 0001:00002bd0       ??1CPreserveLastError@ATL@@QEAA@XZ 0000000180003bd0 f i OposVariant.obj
 0001:00002bf0       ??1_ATL_COM_MODULE70@ATL@@QEAA@XZ 0000000180003bf0 f i OposVariant.obj
 0001:00002c20       ??1_ATL_WIN_MODULE70@ATL@@QEAA@XZ 0000000180003c20 f i OposVariant.obj
 0001:00002c60       ??1stringdispid@CComTypeInfoHolder@ATL@@QEAA@XZ 0000000180003c60 f i OposVariant.obj
 0001:00002c80       ??A?$CSimpleArray@GV?$CSimpleArrayEqualHelper@G@ATL@@@ATL@@QEAAAEAGH@Z 0000000180003c80 f i OposVariant.obj
 0001:00002d20       ??B?$CHeapPtrBase@_WVCCRTAllocator@ATL@@@ATL@@QEBAPEA_WXZ 0000000180003d20 f i OposVariant.obj
 0001:00002d30       ??B?$CTraceCategoryEx@$01$0A@@ATL@@QEAAIXZ 0000000180003d30 f i OposVariant.obj
 0001:00002d40       ??B?$CTraceCategoryEx@$0CA@$0A@@ATL@@QEAAIXZ 0000000180003d40 f i OposVariant.obj
 0001:00002d50       ??RCTraceFileAndLineInfo@ATL@@QEBAXHIPEB_WZZ 0000000180003d50 f i OposVariant.obj
 0001:00002e10       ??_Estringdispid@CComTypeInfoHolder@ATL@@QEAAPEAXI@Z 0000000180003e10 f i OposVariant.obj
 0001:00002eb0       ??_H@YAXPEAX_K1P6APEAX0@Z@Z 0000000180003eb0 f i OposVariant.obj
 0001:00002f30       ??_I@YAXPEAX_K1P6AX0@Z@Z   0000000180003f30 f i OposVariant.obj
 0001:00002fd0       ?Allocate@?$CHeapPtr@_WVCCRTAllocator@ATL@@@ATL@@QEAA_N_K@Z 0000000180003fd0 f i OposVariant.obj
 0001:00003050       ?Allocate@CCRTAllocator@ATL@@SAPEAX_K@Z 0000000180004050 f i OposVariant.obj
 0001:00003070       ?AllocateBytes@?$CHeapPtrBase@_WVCCRTAllocator@ATL@@@ATL@@QEAA_N_K@Z 0000000180004070 f i OposVariant.obj
 0001:000030f0       ?AtlWinModuleInit@ATL@@YAJPEAU_ATL_WIN_MODULE70@1@@Z 00000001800040f0 f i OposVariant.obj
 0001:000031e0       ?AtlWinModuleTerm@ATL@@YAJPEAU_ATL_WIN_MODULE70@1@PEAUHINSTANCE__@@@Z 00000001800041e0 f i OposVariant.obj
 0001:000032b0       ?Clear@OposVariant@@QEAAJXZ 00000001800042b0 f i OposVariant.obj
 0001:000032e0       ?Free@?$CHeapPtrBase@_WVCCRTAllocator@ATL@@@ATL@@QEAAXXZ 00000001800042e0 f i OposVariant.obj
 0001:00003310       ?Free@CCRTAllocator@ATL@@SAXPEAX@Z 0000000180004310 f i OposVariant.obj
 0001:00003330       ?GetCategoryName@CTrace@ATL@@CAPEA_WI@Z 0000000180004330 f i OposVariant.obj
 0001:000033a0       ?GetModuleInstance@CAtlBaseModule@ATL@@QEAAPEAUHINSTANCE__@@XZ 00000001800043a0 f i OposVariant.obj
 0001:000033c0       ?GetSize@?$CSimpleArray@GV?$CSimpleArrayEqualHelper@G@ATL@@@ATL@@QEBAHXZ 00000001800043c0 f i OposVariant.obj
 0001:000033d0       ?Init@CComCriticalSection@ATL@@QEAAJXZ 00000001800043d0 f i OposVariant.obj
 0001:00003420       ?RegisterCategory@CTrace@ATL@@SAXPEB_WI@Z 0000000180004420 f i OposVariant.obj
 0001:000034e0       ?RemoveAll@?$CSimpleArray@GV?$CSimpleArrayEqualHelper@G@ATL@@@ATL@@QEAAXXZ 00000001800044e0 f i OposVariant.obj
 0001:00003550       ?Term@CAtlComModule@ATL@@QEAAXXZ 0000000180004550 f i OposVariant.obj
 0001:00003620       ?Term@CAtlWinModule@ATL@@QEAAXXZ 0000000180004620 f i OposVariant.obj
 0001:00003650       ?Term@CComCriticalSection@ATL@@QEAAJXZ 0000000180004650 f i OposVariant.obj
 0001:00003670       ?TraceV@CTrace@ATL@@CAXPEBDHIIPEB_W@Z 0000000180004670 f i OposVariant.obj
 0001:00003920       ?TraceV@CTrace@ATL@@SAXPEBDHIIPEB_WPEAD@Z 0000000180004920 f i OposVariant.obj
 0001:00003ad0       ?_AtlInitializeCriticalSectionEx@ATL@@YAHPEAU_RTL_CRITICAL_SECTION@@KK@Z 0000000180004ad0 f i OposVariant.obj
 0001:00003b00       ?_AtlRaiseException@ATL@@YAXKK@Z 0000000180004b00 f i OposVariant.obj
 0001:00003b30       HRESULT_FROM_WIN32         0000000180004b30 f i OposVariant.obj
 0001:00003b70       _vswprintf_s_l             0000000180004b70 f i OposVariant.obj
 0001:00003be0       swprintf_s                 0000000180004be0 f i OposVariant.obj
 0001:00003c70       ?ObjectMain@CComObjectRootBase@ATL@@SAX_N@Z 0000000180004c70 f i SoundPlayer.obj
 0001:00003c80       ?GetCategoryMap@CComObjectRootBase@ATL@@SAPEBU_ATL_CATMAP_ENTRY@2@XZ 0000000180004c80 f i SoundPlayer.obj
 0001:00003c90       ?GetObjectDescription@?$CComCoClass@VCOPOSSoundPlayer@@$1?CLSID_OPOSSoundPlayer@@3U_GUID@@B@ATL@@SAPEB_WXZ 0000000180004c90 f i SoundPlayer.obj
 0001:00003ca0       ?UpdateRegistry@COPOSSoundPlayer@@SAJH@Z 0000000180004ca0 f i SoundPlayer.obj
 0001:00003cd0       ?CreateInstance@?$CComCreator@V?$CComObjectCached@VCComClassFactory@ATL@@@ATL@@@ATL@@SAJPEAXAEBU_GUID@@PEAPEAX@Z 0000000180004cd0 f i SoundPlayer.obj
 0001:00003ea0       ?CreateInstance@?$CComCreator2@V?$CComCreator@V?$CComObject@VCOPOSSoundPlayer@@@ATL@@@ATL@@V?$CComCreator@V?$CComAggObject@VCOPOSSoundPlayer@@@ATL@@@2@@ATL@@SAJPEAXAEBU_GUID@@PEAPEAX@Z 0000000180004ea0 f i SoundPlayer.obj
 0001:00004090       DllGetClassObject          0000000180005090 f   SoundPlayer.obj
 0001:000040d0       DllCanUnloadNow            00000001800050d0 f   SoundPlayer.obj
 0001:00004110       DllRegisterServer          0000000180005110 f   SoundPlayer.obj
 0001:00004140       DllUnregisterServer        0000000180005140 f   SoundPlayer.obj
 0001:00004300       DllMain                    0000000180005300 f   SoundPlayer.obj
 0001:00004370       ??$?2G@Wrapper@?$CSimpleArray@GV?$CSimpleArrayEqualHelper@G@ATL@@@ATL@@SAPEAX_KPEAG@Z 0000000180005370 f i SoundPlayer.obj
 0001:00004390       ??$?2PEA_W@?$Wrapper@PEA_W@?$CSimpleMap@PEA_WPEA_WVCExpansionVectorEqualHelper@ATL@@@ATL@@SAPEAX_KPEAPEA_W@Z 0000000180005390 f i SoundPlayer.obj
 0001:000043b0       ??$?4UITypeInfo2@@@?$CComPtr@UITypeInfo@@@ATL@@QEAAPEAUITypeInfo@@AEBV?$CComPtr@UITypeInfo2@@@1@@Z 00000001800053b0 f i SoundPlayer.obj
 0001:00004410       ??$AtlAdd@_K@ATL@@YAJPEA_K_K1@Z 0000000180005410 f i SoundPlayer.obj
 0001:00004470       ??$AtlAddThrow@_K@ATL@@YA_K_K0@Z 0000000180005470 f i SoundPlayer.obj
 0001:000044e0       ??$AtlModuleRegisterWndClassInfoT@VAtlModuleRegisterWndClassInfoParamW@ATL@@@ATL@@YAGPEAU_ATL_BASE_MODULE70@0@PEAU_ATL_WIN_MODULE70@0@PEAU_ATL_WNDCLASSINFOW@0@PEAP6A_JPEAUHWND__@@I_K_J@ZVAtlModuleRegisterWndClassInfoParamW@0@@Z 00000001800054e0 f i SoundPlayer.obj
 0001:00004ab0       ??$AtlMultiply@H@ATL@@YAJPEAHHH@Z 0000000180005ab0 f i SoundPlayer.obj
 0001:00004b10       ??$AtlMultiply@K@ATL@@YAJPEAKKK@Z 0000000180005b10 f i SoundPlayer.obj
 0001:00004b60       ??$AtlMultiplyThrow@_K@ATL@@YA_K_K0@Z 0000000180005b60 f i SoundPlayer.obj
 0001:00004bd0       ??$QueryInterface@UIPersistStream@@@IUnknown@@QEAAJPEAPEAUIPersistStream@@@Z 0000000180005bd0 f i SoundPlayer.obj
 0001:00004c00       ??$QueryInterface@UITypeInfo2@@@IUnknown@@QEAAJPEAPEAUITypeInfo2@@@Z 0000000180005c00 f i SoundPlayer.obj
 0001:00004c30       ??0?$CAtlModuleT@VCComModule@ATL@@@ATL@@QEAA@XZ 0000000180005c30 f i SoundPlayer.obj
 0001:00004c60       ??0?$CAtlSafeAllocBufferManager@VCCRTAllocator@ATL@@@_ATL_SAFE_ALLOCA_IMPL@ATL@@QEAA@XZ 0000000180005c60 f i SoundPlayer.obj
 0001:00004c80       ??0?$CAutoVectorPtr@_W@ATL@@QEAA@XZ 0000000180005c80 f i SoundPlayer.obj
 0001:00004ca0       ??0?$CComAggObject@VCOPOSSoundPlayer@@@ATL@@QEAA@PEAX@Z 0000000180005ca0 f i SoundPlayer.obj
 0001:00004d10       ??0?$CComContainedObject@VCOPOSSoundPlayer@@@ATL@@QEAA@PEAX@Z 0000000180005d10 f i SoundPlayer.obj
 0001:00004ea0       ??0?$CComCritSecLock@VCComCriticalSection@ATL@@@ATL@@QEAA@AEAVCComCriticalSection@1@_N@Z 0000000180005ea0 f i SoundPlayer.obj
 0001:00004f00       ??0?$CComEnum@UIEnumConnectionPoints@@$1?_GUID_b196b285_bab4_101a_b69c_00aa00341d07@@3U__s_GUID@@BPEAUIConnectionPoint@@V?$_CopyInterface@UIConnectionPoint@@@ATL@@VCComSingleThreadModel@6@@ATL@@QEAA@XZ 0000000180005f00 f i SoundPlayer.obj
 0001:00004f30       ??0?$CComEnum@UIEnumConnections@@$1?_GUID_b196b287_bab4_101a_b69c_00aa00341d07@@3U__s_GUID@@BUtagCONNECTDATA@@V?$_Copy@UtagCONNECTDATA@@@ATL@@VCComSingleThreadModel@6@@ATL@@QEAA@XZ 0000000180005f30 f i SoundPlayer.obj
 0001:00004f60       ??0?$CComEnumImpl@UIEnumConnectionPoints@@$1?_GUID_b196b285_bab4_101a_b69c_00aa00341d07@@3U__s_GUID@@BPEAUIConnectionPoint@@V?$_CopyInterface@UIConnectionPoint@@@ATL@@@ATL@@QEAA@XZ 0000000180005f60 f i SoundPlayer.obj
 0001:00004fd0       ??0?$CComEnumImpl@UIEnumConnections@@$1?_GUID_b196b287_bab4_101a_b69c_00aa00341d07@@3U__s_GUID@@BUtagCONNECTDATA@@V?$_Copy@UtagCONNECTDATA@@@ATL@@@ATL@@QEAA@XZ 0000000180005fd0 f i SoundPlayer.obj
 0001:00005040       ??0?$CComObject@V?$CComEnum@UIEnumConnectionPoints@@$1?_GUID_b196b285_bab4_101a_b69c_00aa00341d07@@3U__s_GUID@@BPEAUIConnectionPoint@@V?$_CopyInterface@UIConnectionPoint@@@ATL@@VCComSingleThreadModel@6@@ATL@@@ATL@@QEAA@PEAX@Z 0000000180006040 f i SoundPlayer.obj
 0001:00005090       ??0?$CComObject@V?$CComEnum@UIEnumConnections@@$1?_GUID_b196b287_bab4_101a_b69c_00aa00341d07@@3U__s_GUID@@BUtagCONNECTDATA@@V?$_Copy@UtagCONNECTDATA@@@ATL@@VCComSingleThreadModel@6@@ATL@@@ATL@@QEAA@PEAX@Z 0000000180006090 f i SoundPlayer.obj
 0001:000050e0       ??0?$CComObject@VCOPOSSoundPlayer@@@ATL@@QEAA@PEAX@Z 00000001800060e0 f i SoundPlayer.obj
 0001:00005270       ??0?$CComObjectCached@VCComClassFactory@ATL@@@ATL@@QEAA@PEAX@Z 0000000180006270 f i SoundPlayer.obj
 0001:000052b0       ??0?$CComObjectRootEx@VCComMultiThreadModel@ATL@@@ATL@@QEAA@XZ 00000001800062b0 f i SoundPlayer.obj
 0001:000052e0       ??0?$CComObjectRootEx@VCComSingleThreadModel@ATL@@@ATL@@QEAA@XZ 00000001800062e0 f i SoundPlayer.obj
 0001:00005300       ??0?$CComPtr@UIAdviseSink@@@ATL@@QEAA@PEAUIAdviseSink@@@Z 0000000180006300 f i SoundPlayer.obj
 0001:00005330       ??0?$CComPtr@UICatRegister@@@ATL@@QEAA@XZ 0000000180006330 f i SoundPlayer.obj
 0001:00005350       ??0?$CComPtr@UIConnectionPoint@@@ATL@@QEAA@XZ 0000000180006350 f i SoundPlayer.obj
 0001:00005370       ??0?$CComPtr@UIConnectionPointContainer@@@ATL@@QEAA@XZ 0000000180006370 f i SoundPlayer.obj
 0001:00005390       ??0?$CComPtr@UIDataObject@@@ATL@@QEAA@XZ 0000000180006390 f i SoundPlayer.obj
 0001:000053b0       ??0?$CComPtr@UIDispatch@@@ATL@@QEAA@XZ 00000001800063b0 f i SoundPlayer.obj
 0001:000053d0       ??0?$CComPtr@UIOleClientSite@@@ATL@@QEAA@PEAUIOleClientSite@@@Z 00000001800063d0 f i SoundPlayer.obj
 0001:00005400       ??0?$CComPtr@UIOleControlSite@@@ATL@@QEAA@XZ 0000000180006400 f i SoundPlayer.obj
 0001:00005420       ??0?$CComPtr@UIOleInPlaceActiveObject@@@ATL@@QEAA@XZ 0000000180006420 f i SoundPlayer.obj
 0001:00005440       ??0?$CComPtr@UIOleInPlaceFrame@@@ATL@@QEAA@XZ 0000000180006440 f i SoundPlayer.obj
 0001:00005460       ??0?$CComPtr@UIOleInPlaceObject@@@ATL@@QEAA@XZ 0000000180006460 f i SoundPlayer.obj
 0001:00005480       ??0?$CComPtr@UIOleInPlaceUIWindow@@@ATL@@QEAA@XZ 0000000180006480 f i SoundPlayer.obj
 0001:000054a0       ??0?$CComPtr@UIOleObject@@@ATL@@QEAA@XZ 00000001800064a0 f i SoundPlayer.obj
 0001:000054c0       ??0?$CComPtr@UIPersistStream@@@ATL@@QEAA@XZ 00000001800064c0 f i SoundPlayer.obj
 0001:000054e0       ??0?$CComPtr@UIPersistStreamInit@@@ATL@@QEAA@XZ 00000001800064e0 f i SoundPlayer.obj
 0001:00005500       ??0?$CComPtr@UIPointerInactive@@@ATL@@QEAA@XZ 0000000180006500 f i SoundPlayer.obj
 0001:00005520       ??0?$CComPtr@UIProvideClassInfo2@@@ATL@@QEAA@XZ 0000000180006520 f i SoundPlayer.obj
 0001:00005540       ??0?$CComPtr@UISpecifyPropertyPages@@@ATL@@QEAA@XZ 0000000180006540 f i SoundPlayer.obj
 0001:00005560       ??0?$CComPtr@UIStream@@@ATL@@QEAA@XZ 0000000180006560 f i SoundPlayer.obj
 0001:00005580       ??0?$CComPtr@UITypeInfo2@@@ATL@@QEAA@XZ 0000000180006580 f i SoundPlayer.obj
 0001:000055a0       ??0?$CComPtr@UITypeInfo@@@ATL@@QEAA@AEBV01@@Z 00000001800065a0 f i SoundPlayer.obj
 0001:000055d0       ??0?$CComPtr@UITypeInfo@@@ATL@@QEAA@XZ 00000001800065d0 f i SoundPlayer.obj
 0001:000055f0       ??0?$CComPtr@UITypeLib@@@ATL@@QEAA@XZ 00000001800065f0 f i SoundPlayer.obj
 0001:00005610       ??0?$CComPtr@UIUnknown@@@ATL@@QEAA@AEBV01@@Z 0000000180006610 f i SoundPlayer.obj
 0001:00005640       ??0?$CComPtr@UIUnknown@@@ATL@@QEAA@PEAUIUnknown@@@Z 0000000180006640 f i SoundPlayer.obj
 0001:00005670       ??0?$CComPtr@UIUnknown@@@ATL@@QEAA@XZ 0000000180006670 f i SoundPlayer.obj
 0001:00005690       ??0?$CComPtr@UIViewObjectEx@@@ATL@@QEAA@XZ 0000000180006690 f i SoundPlayer.obj
 0001:000056b0       ??0?$CComPtrBase@UIAdviseSink@@@ATL@@IEAA@PEAUIAdviseSink@@@Z 00000001800066b0 f i SoundPlayer.obj
 0001:00005700       ??0?$CComPtrBase@UICatRegister@@@ATL@@IEAA@XZ 0000000180006700 f i SoundPlayer.obj
 0001:00005720       ??0?$CComPtrBase@UIConnectionPoint@@@ATL@@IEAA@XZ 0000000180006720 f i SoundPlayer.obj
 0001:00005740       ??0?$CComPtrBase@UIConnectionPointContainer@@@ATL@@IEAA@XZ 0000000180006740 f i SoundPlayer.obj
 0001:00005760       ??0?$CComPtrBase@UIDataObject@@@ATL@@IEAA@XZ 0000000180006760 f i SoundPlayer.obj
 0001:00005780       ??0?$CComPtrBase@UIDispatch@@@ATL@@IEAA@XZ 0000000180006780 f i SoundPlayer.obj
 0001:000057a0       ??0?$CComPtrBase@UIOleClientSite@@@ATL@@IEAA@PEAUIOleClientSite@@@Z 00000001800067a0 f i SoundPlayer.obj
 0001:000057f0       ??0?$CComPtrBase@UIOleControlSite@@@ATL@@IEAA@XZ 00000001800067f0 f i SoundPlayer.obj
 0001:00005810       ??0?$CComPtrBase@UIOleInPlaceActiveObject@@@ATL@@IEAA@XZ 0000000180006810 f i SoundPlayer.obj
 0001:00005830       ??0?$CComPtrBase@UIOleInPlaceFrame@@@ATL@@IEAA@XZ 0000000180006830 f i SoundPlayer.obj
 0001:00005850       ??0?$CComPtrBase@UIOleInPlaceObject@@@ATL@@IEAA@XZ 0000000180006850 f i SoundPlayer.obj
 0001:00005870       ??0?$CComPtrBase@UIOleInPlaceUIWindow@@@ATL@@IEAA@XZ 0000000180006870 f i SoundPlayer.obj
 0001:00005890       ??0?$CComPtrBase@UIOleObject@@@ATL@@IEAA@XZ 0000000180006890 f i SoundPlayer.obj
 0001:000058b0       ??0?$CComPtrBase@UIPersistStream@@@ATL@@IEAA@XZ 00000001800068b0 f i SoundPlayer.obj
 0001:000058d0       ??0?$CComPtrBase@UIPersistStreamInit@@@ATL@@IEAA@XZ 00000001800068d0 f i SoundPlayer.obj
 0001:000058f0       ??0?$CComPtrBase@UIPointerInactive@@@ATL@@IEAA@XZ 00000001800068f0 f i SoundPlayer.obj
 0001:00005910       ??0?$CComPtrBase@UIProvideClassInfo2@@@ATL@@IEAA@XZ 0000000180006910 f i SoundPlayer.obj
 0001:00005930       ??0?$CComPtrBase@UISpecifyPropertyPages@@@ATL@@IEAA@XZ 0000000180006930 f i SoundPlayer.obj
 0001:00005950       ??0?$CComPtrBase@UIStream@@@ATL@@IEAA@XZ 0000000180006950 f i SoundPlayer.obj
 0001:00005970       ??0?$CComPtrBase@UITypeInfo2@@@ATL@@IEAA@XZ 0000000180006970 f i SoundPlayer.obj
 0001:00005990       ??0?$CComPtrBase@UITypeInfo@@@ATL@@IEAA@PEAUITypeInfo@@@Z 0000000180006990 f i SoundPlayer.obj
 0001:000059e0       ??0?$CComPtrBase@UITypeInfo@@@ATL@@IEAA@XZ 00000001800069e0 f i SoundPlayer.obj
 0001:00005a00       ??0?$CComPtrBase@UITypeLib@@@ATL@@IEAA@XZ 0000000180006a00 f i SoundPlayer.obj
 0001:00005a20       ??0?$CComPtrBase@UIUnknown@@@ATL@@IEAA@PEAUIUnknown@@@Z 0000000180006a20 f i SoundPlayer.obj
 0001:00005a70       ??0?$CComPtrBase@UIUnknown@@@ATL@@IEAA@XZ 0000000180006a70 f i SoundPlayer.obj
 0001:00005a90       ??0?$CComPtrBase@UIViewObjectEx@@@ATL@@IEAA@XZ 0000000180006a90 f i SoundPlayer.obj
 0001:00005ab0       ??0?$CComQIPtr@UIOleControlSite@@$1?_GUID_b196b289_bab4_101a_b69c_00aa00341d07@@3U__s_GUID@@B@ATL@@QEAA@PEAUIUnknown@@@Z 0000000180006ab0 f i SoundPlayer.obj
 0001:00005b10       ??0?$CComQIPtr@UIOleObject@@$1?_GUID_00000112_0000_0000_c000_000000000046@@3U__s_GUID@@B@ATL@@QEAA@XZ 0000000180006b10 f i SoundPlayer.obj
 0001:00005b30       ??0?$CComQIPtr@UISpecifyPropertyPages@@$1?_GUID_b196b28b_bab4_101a_b69c_00aa00341d07@@3U__s_GUID@@B@ATL@@QEAA@XZ 0000000180006b30 f i SoundPlayer.obj
 0001:00005b50       ??0?$CSimpleMap@PEA_WPEA_WVCExpansionVectorEqualHelper@ATL@@@ATL@@QEAA@XZ 0000000180006b50 f i SoundPlayer.obj
 0001:00005b90       ??0?$CTempBuffer@E$0BAA@VCCRTAllocator@ATL@@@ATL@@QEAA@XZ 0000000180006b90 f i SoundPlayer.obj
 0001:00005bb0       ??0?$CTempBuffer@_W$0BAA@VCCRTAllocator@ATL@@@ATL@@QEAA@XZ 0000000180006bb0 f i SoundPlayer.obj
 0001:00005bd0       ??0?$CTempBuffer@_W$0EAA@VCCRTAllocator@ATL@@@ATL@@QEAA@XZ 0000000180006bd0 f i SoundPlayer.obj
 0001:00005bf0       ??0?$Wrapper@PEA_W@?$CSimpleMap@PEA_WPEA_WVCExpansionVectorEqualHelper@ATL@@@ATL@@QEAA@AEBQEA_W@Z 0000000180006bf0 f i SoundPlayer.obj
 0001:00005c20       ??0CAtlModule@ATL@@QEAA@XZ 0000000180006c20 f i SoundPlayer.obj
 0001:00005d80       ??0CComAutoDeleteCriticalSection@ATL@@QEAA@XZ 0000000180006d80 f i SoundPlayer.obj
 0001:00005da0       ??0CComBSTR@ATL@@QEAA@XZ   0000000180006da0 f i SoundPlayer.obj
 0001:00005dc0       ??0CComClassFactory@ATL@@QEAA@XZ 0000000180006dc0 f i SoundPlayer.obj
 0001:00005e00       ??0CComModule@ATL@@QEAA@XZ 0000000180006e00 f i SoundPlayer.obj
 0001:00005e80       ??0CComObjectRootBase@ATL@@QEAA@XZ 0000000180006e80 f i SoundPlayer.obj
 0001:00005ea0       ??0CComSafeDeleteCriticalSection@ATL@@QEAA@XZ 0000000180006ea0 f i SoundPlayer.obj
 0001:00005ed0       ??0CComVariant@ATL@@QEAA@XZ 0000000180006ed0 f i SoundPlayer.obj
 0001:00005f10       ??0CExpansionVector@ATL@@QEAA@XZ 0000000180006f10 f i SoundPlayer.obj
 0001:00005f30       ??0CParseBuffer@CRegParser@ATL@@QEAA@H@Z 0000000180006f30 f i SoundPlayer.obj
 0001:00005fb0       ??0CRegKey@ATL@@QEAA@PEAUHKEY__@@@Z 0000000180006fb0 f i SoundPlayer.obj
 0001:00005ff0       ??0CRegKey@ATL@@QEAA@PEAVCAtlTransactionManager@1@@Z 0000000180006ff0 f i SoundPlayer.obj
 0001:00006030       ??0CRegObject@ATL@@QEAA@XZ 0000000180007030 f i SoundPlayer.obj
 0001:00006070       ??0CRegParser@ATL@@QEAA@PEAVCRegObject@1@@Z 0000000180007070 f i SoundPlayer.obj
 0001:000060a0       ??0IClassFactory@@QEAA@XZ  00000001800070a0 f i SoundPlayer.obj
 0001:000060c0       ??0IEnumConnectionPoints@@QEAA@XZ 00000001800070c0 f i SoundPlayer.obj
 0001:000060e0       ??0IEnumConnections@@QEAA@XZ 00000001800070e0 f i SoundPlayer.obj
 0001:00006100       ??0IRegistrarBase@@QEAA@XZ 0000000180007100 f i SoundPlayer.obj
 0001:00006120       ??0IUnknown@@QEAA@XZ       0000000180007120 f i SoundPlayer.obj
 0001:00006130       ??0ModuleLockHelper@ATL@@QEAA@XZ 0000000180007130 f i SoundPlayer.obj
 0001:00006160       ??0OposVariant@@QEAA@XZ    0000000180007160 f i SoundPlayer.obj
 0001:00006180       ??0Wrapper@?$CSimpleArray@GV?$CSimpleArrayEqualHelper@G@ATL@@@ATL@@QEAA@AEBG@Z 0000000180007180 f i SoundPlayer.obj
 0001:000061b0       ??0_ATL_MODULE70@ATL@@QEAA@XZ 00000001800071b0 f i SoundPlayer.obj
 0001:000061e0       ??0_ATL_MSG@ATL@@QEAA@PEAUHWND__@@I_K_JH@Z 00000001800071e0 f i SoundPlayer.obj
 0001:00006270       ??0_U_MENUorID@ATL@@QEAA@I@Z 0000000180007270 f i SoundPlayer.obj
 0001:00006290       ??0_U_RECT@ATL@@QEAA@AEAUtagRECT@@@Z 0000000180007290 f i SoundPlayer.obj
 0001:000062b0       ??0stringdispid@CComTypeInfoHolder@ATL@@QEAA@XZ 00000001800072b0 f i SoundPlayer.obj
 0001:000062f0       ??1?$CAtlModuleT@VCComModule@ATL@@@ATL@@UEAA@XZ 00000001800072f0 f i SoundPlayer.obj
 0001:00006310       ??1?$CAtlSafeAllocBufferManager@VCCRTAllocator@ATL@@@_ATL_SAFE_ALLOCA_IMPL@ATL@@QEAA@XZ 0000000180007310 f i SoundPlayer.obj
 0001:00006360       ??1?$CAutoVectorPtr@_W@ATL@@QEAA@XZ 0000000180007360 f i SoundPlayer.obj
 0001:00006380       ??1?$CComAggObject@VCOPOSSoundPlayer@@@ATL@@UEAA@XZ 0000000180007380 f i SoundPlayer.obj
 0001:000063f0       ??1?$CComContainedObject@VCOPOSSoundPlayer@@@ATL@@UEAA@XZ 00000001800073f0 f i SoundPlayer.obj
 0001:00006410       ??1?$CComCritSecLock@VCComCriticalSection@ATL@@@ATL@@QEAA@XZ 0000000180007410 f i SoundPlayer.obj
 0001:00006440       ??1?$CComEnum@UIEnumConnectionPoints@@$1?_GUID_b196b285_bab4_101a_b69c_00aa00341d07@@3U__s_GUID@@BPEAUIConnectionPoint@@V?$_CopyInterface@UIConnectionPoint@@@ATL@@VCComSingleThreadModel@6@@ATL@@UEAA@XZ 0000000180007440 f i SoundPlayer.obj
 0001:00006470       ??1?$CComEnum@UIEnumConnections@@$1?_GUID_b196b287_bab4_101a_b69c_00aa00341d07@@3U__s_GUID@@BUtagCONNECTDATA@@V?$_Copy@UtagCONNECTDATA@@@ATL@@VCComSingleThreadModel@6@@ATL@@UEAA@XZ 0000000180007470 f i SoundPlayer.obj
 0001:000064a0       ??1?$CComEnumImpl@UIEnumConnectionPoints@@$1?_GUID_b196b285_bab4_101a_b69c_00aa00341d07@@3U__s_GUID@@BPEAUIConnectionPoint@@V?$_CopyInterface@UIConnectionPoint@@@ATL@@@ATL@@UEAA@XZ 00000001800074a0 f i SoundPlayer.obj
 0001:00006530       ??1?$CComEnumImpl@UIEnumConnections@@$1?_GUID_b196b287_bab4_101a_b69c_00aa00341d07@@3U__s_GUID@@BUtagCONNECTDATA@@V?$_Copy@UtagCONNECTDATA@@@ATL@@@ATL@@UEAA@XZ 0000000180007530 f i SoundPlayer.obj
 0001:000065c0       ??1?$CComObject@V?$CComEnum@UIEnumConnectionPoints@@$1?_GUID_b196b285_bab4_101a_b69c_00aa00341d07@@3U__s_GUID@@BPEAUIConnectionPoint@@V?$_CopyInterface@UIConnectionPoint@@@ATL@@VCComSingleThreadModel@6@@ATL@@@ATL@@UEAA@XZ 00000001800075c0 f i SoundPlayer.obj
 0001:00006620       ??1?$CComObject@V?$CComEnum@UIEnumConnections@@$1?_GUID_b196b287_bab4_101a_b69c_00aa00341d07@@3U__s_GUID@@BUtagCONNECTDATA@@V?$_Copy@UtagCONNECTDATA@@@ATL@@VCComSingleThreadModel@6@@ATL@@@ATL@@UEAA@XZ 0000000180007620 f i SoundPlayer.obj
 0001:00006680       ??1?$CComObject@VCOPOSSoundPlayer@@@ATL@@UEAA@XZ 0000000180007680 f i SoundPlayer.obj
 0001:00006820       ??1?$CComObjectCached@VCComClassFactory@ATL@@@ATL@@UEAA@XZ 0000000180007820 f i SoundPlayer.obj
 0001:00006870       ??1?$CComObjectRootEx@VCComMultiThreadModel@ATL@@@ATL@@QEAA@XZ 0000000180007870 f i SoundPlayer.obj
 0001:000068a0       ??1?$CComObjectRootEx@VCComSingleThreadModel@ATL@@@ATL@@QEAA@XZ 00000001800078a0 f i SoundPlayer.obj
 0001:000068c0       ??1?$CComPtr@UIAdviseSink@@@ATL@@QEAA@XZ 00000001800078c0 f i SoundPlayer.obj
 0001:000068e0       ??1?$CComPtr@UICatRegister@@@ATL@@QEAA@XZ 00000001800078e0 f i SoundPlayer.obj
 0001:00006900       ??1?$CComPtr@UIConnectionPoint@@@ATL@@QEAA@XZ 0000000180007900 f i SoundPlayer.obj
 0001:00006920       ??1?$CComPtr@UIConnectionPointContainer@@@ATL@@QEAA@XZ 0000000180007920 f i SoundPlayer.obj
 0001:00006940       ??1?$CComPtr@UIDataObject@@@ATL@@QEAA@XZ 0000000180007940 f i SoundPlayer.obj
 0001:00006960       ??1?$CComPtr@UIDispatch@@@ATL@@QEAA@XZ 0000000180007960 f i SoundPlayer.obj
 0001:00006980       ??1?$CComPtr@UIOleClientSite@@@ATL@@QEAA@XZ 0000000180007980 f i SoundPlayer.obj
 0001:000069a0       ??1?$CComPtr@UIOleControlSite@@@ATL@@QEAA@XZ 00000001800079a0 f i SoundPlayer.obj
 0001:000069c0       ??1?$CComPtr@UIOleInPlaceActiveObject@@@ATL@@QEAA@XZ 00000001800079c0 f i SoundPlayer.obj
 0001:000069e0       ??1?$CComPtr@UIOleInPlaceFrame@@@ATL@@QEAA@XZ 00000001800079e0 f i SoundPlayer.obj
 0001:00006a00       ??1?$CComPtr@UIOleInPlaceObject@@@ATL@@QEAA@XZ 0000000180007a00 f i SoundPlayer.obj
 0001:00006a20       ??1?$CComPtr@UIOleInPlaceUIWindow@@@ATL@@QEAA@XZ 0000000180007a20 f i SoundPlayer.obj
 0001:00006a40       ??1?$CComPtr@UIOleObject@@@ATL@@QEAA@XZ 0000000180007a40 f i SoundPlayer.obj
 0001:00006a60       ??1?$CComPtr@UIPersistStream@@@ATL@@QEAA@XZ 0000000180007a60 f i SoundPlayer.obj
 0001:00006a80       ??1?$CComPtr@UIPersistStreamInit@@@ATL@@QEAA@XZ 0000000180007a80 f i SoundPlayer.obj
 0001:00006aa0       ??1?$CComPtr@UIPointerInactive@@@ATL@@QEAA@XZ 0000000180007aa0 f i SoundPlayer.obj
 0001:00006ac0       ??1?$CComPtr@UIProvideClassInfo2@@@ATL@@QEAA@XZ 0000000180007ac0 f i SoundPlayer.obj
 0001:00006ae0       ??1?$CComPtr@UISpecifyPropertyPages@@@ATL@@QEAA@XZ 0000000180007ae0 f i SoundPlayer.obj
 0001:00006b00       ??1?$CComPtr@UIStream@@@ATL@@QEAA@XZ 0000000180007b00 f i SoundPlayer.obj
 0001:00006b20       ??1?$CComPtr@UITypeInfo2@@@ATL@@QEAA@XZ 0000000180007b20 f i SoundPlayer.obj
 0001:00006b40       ??1?$CComPtr@UITypeInfo@@@ATL@@QEAA@XZ 0000000180007b40 f i SoundPlayer.obj
 0001:00006b60       ??1?$CComPtr@UITypeLib@@@ATL@@QEAA@XZ 0000000180007b60 f i SoundPlayer.obj
 0001:00006b80       ??1?$CComPtr@UIUnknown@@@ATL@@QEAA@XZ 0000000180007b80 f i SoundPlayer.obj
 0001:00006ba0       ??1?$CComPtr@UIViewObjectEx@@@ATL@@QEAA@XZ 0000000180007ba0 f i SoundPlayer.obj
 0001:00006bc0       ??1?$CComPtrBase@UIAdviseSink@@@ATL@@QEAA@XZ 0000000180007bc0 f i SoundPlayer.obj
 0001:00006c00       ??1?$CComPtrBase@UICatRegister@@@ATL@@QEAA@XZ 0000000180007c00 f i SoundPlayer.obj
 0001:00006c40       ??1?$CComPtrBase@UIConnectionPoint@@@ATL@@QEAA@XZ 0000000180007c40 f i SoundPlayer.obj
 0001:00006c80       ??1?$CComPtrBase@UIConnectionPointContainer@@@ATL@@QEAA@XZ 0000000180007c80 f i SoundPlayer.obj
 0001:00006cc0       ??1?$CComPtrBase@UIDataObject@@@ATL@@QEAA@XZ 0000000180007cc0 f i SoundPlayer.obj
 0001:00006d00       ??1?$CComPtrBase@UIDispatch@@@ATL@@QEAA@XZ 0000000180007d00 f i SoundPlayer.obj
 0001:00006d40       ??1?$CComPtrBase@UIOleClientSite@@@ATL@@QEAA@XZ 0000000180007d40 f i SoundPlayer.obj
 0001:00006d80       ??1?$CComPtrBase@UIOleControlSite@@@ATL@@QEAA@XZ 0000000180007d80 f i SoundPlayer.obj
 0001:00006dc0       ??1?$CComPtrBase@UIOleInPlaceActiveObject@@@ATL@@QEAA@XZ 0000000180007dc0 f i SoundPlayer.obj
 0001:00006e00       ??1?$CComPtrBase@UIOleInPlaceFrame@@@ATL@@QEAA@XZ 0000000180007e00 f i SoundPlayer.obj
 0001:00006e40       ??1?$CComPtrBase@UIOleInPlaceObject@@@ATL@@QEAA@XZ 0000000180007e40 f i SoundPlayer.obj
 0001:00006e80       ??1?$CComPtrBase@UIOleInPlaceUIWindow@@@ATL@@QEAA@XZ 0000000180007e80 f i SoundPlayer.obj
 0001:00006ec0       ??1?$CComPtrBase@UIOleObject@@@ATL@@QEAA@XZ 0000000180007ec0 f i SoundPlayer.obj
 0001:00006f00       ??1?$CComPtrBase@UIPersistStream@@@ATL@@QEAA@XZ 0000000180007f00 f i SoundPlayer.obj
 0001:00006f40       ??1?$CComPtrBase@UIPersistStreamInit@@@ATL@@QEAA@XZ 0000000180007f40 f i SoundPlayer.obj
 0001:00006f80       ??1?$CComPtrBase@UIPointerInactive@@@ATL@@QEAA@XZ 0000000180007f80 f i SoundPlayer.obj
 0001:00006fc0       ??1?$CComPtrBase@UIProvideClassInfo2@@@ATL@@QEAA@XZ 0000000180007fc0 f i SoundPlayer.obj
 0001:00007000       ??1?$CComPtrBase@UISpecifyPropertyPages@@@ATL@@QEAA@XZ 0000000180008000 f i SoundPlayer.obj
 0001:00007040       ??1?$CComPtrBase@UIStream@@@ATL@@QEAA@XZ 0000000180008040 f i SoundPlayer.obj
 0001:00007080       ??1?$CComPtrBase@UITypeInfo2@@@ATL@@QEAA@XZ 0000000180008080 f i SoundPlayer.obj
 0001:000070c0       ??1?$CComPtrBase@UITypeInfo@@@ATL@@QEAA@XZ 00000001800080c0 f i SoundPlayer.obj
 0001:00007100       ??1?$CComPtrBase@UITypeLib@@@ATL@@QEAA@XZ 0000000180008100 f i SoundPlayer.obj
 0001:00007140       ??1?$CComPtrBase@UIUnknown@@@ATL@@QEAA@XZ 0000000180008140 f i SoundPlayer.obj
 0001:00007180       ??1?$CComPtrBase@UIViewObjectEx@@@ATL@@QEAA@XZ 0000000180008180 f i SoundPlayer.obj
 0001:000071c0       ??1?$CComQIPtr@UIOleControlSite@@$1?_GUID_b196b289_bab4_101a_b69c_00aa00341d07@@3U__s_GUID@@B@ATL@@QEAA@XZ 00000001800081c0 f i SoundPlayer.obj
 0001:000071e0       ??1?$CComQIPtr@UIOleObject@@$1?_GUID_00000112_0000_0000_c000_000000000046@@3U__s_GUID@@B@ATL@@QEAA@XZ 00000001800081e0 f i SoundPlayer.obj
 0001:00007200       ??1?$CComQIPtr@UISpecifyPropertyPages@@$1?_GUID_b196b28b_bab4_101a_b69c_00aa00341d07@@3U__s_GUID@@B@ATL@@QEAA@XZ 0000000180008200 f i SoundPlayer.obj
 0001:00007220       ??1?$CSimpleMap@PEA_WPEA_WVCExpansionVectorEqualHelper@ATL@@@ATL@@QEAA@XZ 0000000180008220 f i SoundPlayer.obj
 0001:00007240       ??1?$CTempBuffer@E$0BAA@VCCRTAllocator@ATL@@@ATL@@QEAA@XZ 0000000180008240 f i SoundPlayer.obj
 0001:00007270       ??1?$CTempBuffer@_W$0BAA@VCCRTAllocator@ATL@@@ATL@@QEAA@XZ 0000000180008270 f i SoundPlayer.obj
 0001:000072a0       ??1?$CTempBuffer@_W$0EAA@VCCRTAllocator@ATL@@@ATL@@QEAA@XZ 00000001800082a0 f i SoundPlayer.obj
 0001:000072d0       ??1CAtlModule@ATL@@UEAA@XZ 00000001800082d0 f i SoundPlayer.obj
 0001:00007300       ??1CComAutoDeleteCriticalSection@ATL@@QEAA@XZ 0000000180008300 f i SoundPlayer.obj
 0001:00007320       ??1CComClassFactory@ATL@@UEAA@XZ 0000000180008320 f i SoundPlayer.obj
 0001:00007350       ??1CComModule@ATL@@UEAA@XZ 0000000180008350 f i SoundPlayer.obj
 0001:00007380       ??1CComObjectRootBase@ATL@@QEAA@XZ 0000000180008380 f i SoundPlayer.obj
 0001:00007390       ??1CComSafeDeleteCriticalSection@ATL@@QEAA@XZ 0000000180008390 f i SoundPlayer.obj
 0001:000073d0       ??1CComVariant@ATL@@QEAA@XZ 00000001800083d0 f i SoundPlayer.obj
 0001:00007430       ??1CExpansionVector@ATL@@QEAA@XZ 0000000180008430 f i SoundPlayer.obj
 0001:00007460       ??1CParseBuffer@CRegParser@ATL@@QEAA@XZ 0000000180008460 f i SoundPlayer.obj
 0001:00007480       ??1CRegKey@ATL@@QEAA@XZ    0000000180008480 f i SoundPlayer.obj
 0001:000074a0       ??1CRegObject@ATL@@UEAA@XZ 00000001800084a0 f i SoundPlayer.obj
 0001:000074e0       ??1ModuleLockHelper@ATL@@QEAA@XZ 00000001800084e0 f i SoundPlayer.obj
 0001:00007510       ??1OposVariant@@QEAA@XZ    0000000180008510 f i SoundPlayer.obj
 0001:00007540       ??1_ATL_MODULE70@ATL@@QEAA@XZ 0000000180008540 f i SoundPlayer.obj
 0001:00007570       ??4?$CComPtr@UIAdviseSink@@@ATL@@QEAAPEAUIAdviseSink@@PEAU2@@Z 0000000180008570 f i SoundPlayer.obj
 0001:000075d0       ??4?$CComPtr@UIOleClientSite@@@ATL@@QEAAPEAUIOleClientSite@@PEAU2@@Z 00000001800085d0 f i SoundPlayer.obj
 0001:00007630       ??4?$CComPtr@UIUnknown@@@ATL@@QEAAPEAUIUnknown@@PEAU2@@Z 0000000180008630 f i SoundPlayer.obj
 0001:00007690       ??4?$CComQIPtr@UIOleObject@@$1?_GUID_00000112_0000_0000_c000_000000000046@@3U__s_GUID@@B@ATL@@QEAAPEAUIOleObject@@PEAUIUnknown@@@Z 0000000180008690 f i SoundPlayer.obj
 0001:000076e0       ??4?$CComQIPtr@UISpecifyPropertyPages@@$1?_GUID_b196b28b_bab4_101a_b69c_00aa00341d07@@3U__s_GUID@@B@ATL@@QEAAPEAUISpecifyPropertyPages@@PEAUIUnknown@@@Z 00000001800086e0 f i SoundPlayer.obj
 0001:00007730       ??7?$CComPtrBase@UIOleClientSite@@@ATL@@QEBA_NXZ 0000000180008730 f i SoundPlayer.obj
 0001:00007760       ??7?$CComPtrBase@UIOleInPlaceSiteWindowless@@@ATL@@QEBA_NXZ 0000000180008760 f i SoundPlayer.obj
 0001:00007790       ??7CComBSTR@ATL@@QEBA_NXZ  0000000180008790 f i SoundPlayer.obj
 0001:000077c0       ??8?$CComPtrBase@UIConnectionPointContainer@@@ATL@@QEBA_NPEAUIConnectionPointContainer@@@Z 00000001800087c0 f i SoundPlayer.obj
 0001:00007800       ??8?$CComPtrBase@UIDataAdviseHolder@@@ATL@@QEBA_NPEAUIDataAdviseHolder@@@Z 0000000180008800 f i SoundPlayer.obj
 0001:00007840       ??8?$CComPtrBase@UIOleAdviseHolder@@@ATL@@QEBA_NPEAUIOleAdviseHolder@@@Z 0000000180008840 f i SoundPlayer.obj
 0001:00007880       ??8?$CComPtrBase@UIOleClientSite@@@ATL@@QEBA_NPEAUIOleClientSite@@@Z 0000000180008880 f i SoundPlayer.obj
 0001:000078c0       ??8?$CComPtrBase@UIOleControlSite@@@ATL@@QEBA_NPEAUIOleControlSite@@@Z 00000001800088c0 f i SoundPlayer.obj
 0001:00007900       ??8?$CComPtrBase@UIOleInPlaceObject@@@ATL@@QEBA_NPEAUIOleInPlaceObject@@@Z 0000000180008900 f i SoundPlayer.obj
 0001:00007940       ??8?$CComPtrBase@UIOleInPlaceSiteWindowless@@@ATL@@QEBA_NPEAUIOleInPlaceSiteWindowless@@@Z 0000000180008940 f i SoundPlayer.obj
 0001:00007980       ??8?$CComPtrBase@UIOleObject@@@ATL@@QEBA_NPEAUIOleObject@@@Z 0000000180008980 f i SoundPlayer.obj
 0001:000079c0       ??8?$CComPtrBase@UIPersistStream@@@ATL@@QEBA_NPEAUIPersistStream@@@Z 00000001800089c0 f i SoundPlayer.obj
 0001:00007a00       ??8?$CComPtrBase@UIPersistStreamInit@@@ATL@@QEBA_NPEAUIPersistStreamInit@@@Z 0000000180008a00 f i SoundPlayer.obj
 0001:00007a40       ??8?$CComPtrBase@UIPointerInactive@@@ATL@@QEBA_NPEAUIPointerInactive@@@Z 0000000180008a40 f i SoundPlayer.obj
 0001:00007a80       ??8?$CComPtrBase@UIUnknown@@@ATL@@QEBA_NPEAUIUnknown@@@Z 0000000180008a80 f i SoundPlayer.obj
 0001:00007ac0       ??8?$CComPtrBase@UIViewObjectEx@@@ATL@@QEBA_NPEAUIViewObjectEx@@@Z 0000000180008ac0 f i SoundPlayer.obj
 0001:00007b00       ??8CComBSTR@ATL@@QEBA_NH@Z 0000000180008b00 f i SoundPlayer.obj
 0001:00007b60       ??9?$CComPtrBase@UIConnectionPointContainer@@@ATL@@QEBA_NPEAUIConnectionPointContainer@@@Z 0000000180008b60 f i SoundPlayer.obj
 0001:00007bb0       ??9?$CComPtrBase@UIDataAdviseHolder@@@ATL@@QEBA_NPEAUIDataAdviseHolder@@@Z 0000000180008bb0 f i SoundPlayer.obj
 0001:00007c00       ??9?$CComPtrBase@UIOleAdviseHolder@@@ATL@@QEBA_NPEAUIOleAdviseHolder@@@Z 0000000180008c00 f i SoundPlayer.obj
 0001:00007c50       ??9?$CComPtrBase@UIOleClientSite@@@ATL@@QEBA_NPEAUIOleClientSite@@@Z 0000000180008c50 f i SoundPlayer.obj
 0001:00007ca0       ??9?$CComPtrBase@UIOleControlSite@@@ATL@@QEBA_NPEAUIOleControlSite@@@Z 0000000180008ca0 f i SoundPlayer.obj
 0001:00007cf0       ??9?$CComPtrBase@UIOleInPlaceObject@@@ATL@@QEBA_NPEAUIOleInPlaceObject@@@Z 0000000180008cf0 f i SoundPlayer.obj
 0001:00007d40       ??9?$CComPtrBase@UIOleInPlaceSiteWindowless@@@ATL@@QEBA_NPEAUIOleInPlaceSiteWindowless@@@Z 0000000180008d40 f i SoundPlayer.obj
 0001:00007d90       ??9?$CComPtrBase@UIOleObject@@@ATL@@QEBA_NPEAUIOleObject@@@Z 0000000180008d90 f i SoundPlayer.obj
 0001:00007de0       ??9?$CComPtrBase@UIPersistStream@@@ATL@@QEBA_NPEAUIPersistStream@@@Z 0000000180008de0 f i SoundPlayer.obj
 0001:00007e30       ??9?$CComPtrBase@UIPersistStreamInit@@@ATL@@QEBA_NPEAUIPersistStreamInit@@@Z 0000000180008e30 f i SoundPlayer.obj
 0001:00007e80       ??9?$CComPtrBase@UIPointerInactive@@@ATL@@QEBA_NPEAUIPointerInactive@@@Z 0000000180008e80 f i SoundPlayer.obj
 0001:00007ed0       ??9?$CComPtrBase@UIUnknown@@@ATL@@QEBA_NPEAUIUnknown@@@Z 0000000180008ed0 f i SoundPlayer.obj
 0001:00007f20       ??9?$CComPtrBase@UIViewObjectEx@@@ATL@@QEBA_NPEAUIViewObjectEx@@@Z 0000000180008f20 f i SoundPlayer.obj
 0001:00007f70       ??9CComBSTR@ATL@@QEBA_NH@Z 0000000180008f70 f i SoundPlayer.obj
 0001:00007fb0       ??B?$CComPtrBase@UIAdviseSink@@@ATL@@QEBAPEAUIAdviseSink@@XZ 0000000180008fb0 f i SoundPlayer.obj
 0001:00007fc0       ??B?$CComPtrBase@UIDataAdviseHolder@@@ATL@@QEBAPEAUIDataAdviseHolder@@XZ 0000000180008fc0 f i SoundPlayer.obj
 0001:00007fd0       ??B?$CComPtrBase@UIDataObject@@@ATL@@QEBAPEAUIDataObject@@XZ 0000000180008fd0 f i SoundPlayer.obj
 0001:00007fe0       ??B?$CComPtrBase@UIOleAdviseHolder@@@ATL@@QEBAPEAUIOleAdviseHolder@@XZ 0000000180008fe0 f i SoundPlayer.obj
 0001:00007ff0       ??B?$CComPtrBase@UIOleClientSite@@@ATL@@QEBAPEAUIOleClientSite@@XZ 0000000180008ff0 f i SoundPlayer.obj
 0001:00008000       ??B?$CComPtrBase@UIOleControlSite@@@ATL@@QEBAPEAUIOleControlSite@@XZ 0000000180009000 f i SoundPlayer.obj
 0001:00008010       ??B?$CComPtrBase@UIOleInPlaceActiveObject@@@ATL@@QEBAPEAUIOleInPlaceActiveObject@@XZ 0000000180009010 f i SoundPlayer.obj
 0001:00008020       ??B?$CComPtrBase@UIOleInPlaceFrame@@@ATL@@QEBAPEAUIOleInPlaceFrame@@XZ 0000000180009020 f i SoundPlayer.obj
 0001:00008030       ??B?$CComPtrBase@UIOleInPlaceSiteWindowless@@@ATL@@QEBAPEAUIOleInPlaceSiteWindowless@@XZ 0000000180009030 f i SoundPlayer.obj
 0001:00008040       ??B?$CComPtrBase@UIOleInPlaceUIWindow@@@ATL@@QEBAPEAUIOleInPlaceUIWindow@@XZ 0000000180009040 f i SoundPlayer.obj
 0001:00008050       ??B?$CComPtrBase@UIOleObject@@@ATL@@QEBAPEAUIOleObject@@XZ 0000000180009050 f i SoundPlayer.obj
 0001:00008060       ??B?$CComPtrBase@UIPersistStream@@@ATL@@QEBAPEAUIPersistStream@@XZ 0000000180009060 f i SoundPlayer.obj
 0001:00008070       ??B?$CComPtrBase@UIProvideClassInfo2@@@ATL@@QEBAPEAUIProvideClassInfo2@@XZ 0000000180009070 f i SoundPlayer.obj
 0001:00008080       ??B?$CComPtrBase@UISpecifyPropertyPages@@@ATL@@QEBAPEAUISpecifyPropertyPages@@XZ 0000000180009080 f i SoundPlayer.obj
 0001:00008090       ??B?$CComPtrBase@UIStream@@@ATL@@QEBAPEAUIStream@@XZ 0000000180009090 f i SoundPlayer.obj
 0001:000080a0       ??B?$CComPtrBase@UITypeInfo2@@@ATL@@QEBAPEAUITypeInfo2@@XZ 00000001800090a0 f i SoundPlayer.obj
 0001:000080b0       ??B?$CComPtrBase@UITypeInfo@@@ATL@@QEBAPEAUITypeInfo@@XZ 00000001800090b0 f i SoundPlayer.obj
 0001:000080c0       ??B?$CComPtrBase@UITypeLib@@@ATL@@QEBAPEAUITypeLib@@XZ 00000001800090c0 f i SoundPlayer.obj
 0001:000080d0       ??B?$CComPtrBase@UIUnknown@@@ATL@@QEBAPEAUIUnknown@@XZ 00000001800090d0 f i SoundPlayer.obj
 0001:000080e0       ??B?$CTempBuffer@E$0BAA@VCCRTAllocator@ATL@@@ATL@@QEBAPEAEXZ 00000001800090e0 f i SoundPlayer.obj
 0001:000080f0       ??B?$CTempBuffer@_W$0BAA@VCCRTAllocator@ATL@@@ATL@@QEBAPEA_WXZ 00000001800090f0 f i SoundPlayer.obj
 0001:00008100       ??B?$CTempBuffer@_W$0EAA@VCCRTAllocator@ATL@@@ATL@@QEBAPEA_WXZ 0000000180009100 f i SoundPlayer.obj
 0001:00008110       ??B?$CTraceCategoryEx@$00$0A@@ATL@@QEAAIXZ 0000000180009110 f i SoundPlayer.obj
 0001:00008120       ??B?$CTraceCategoryEx@$07$0A@@ATL@@QEAAIXZ 0000000180009120 f i SoundPlayer.obj
 0001:00008130       ??B?$CTraceCategoryEx@$0CAAA@$0A@@ATL@@QEAAIXZ 0000000180009130 f i SoundPlayer.obj
 0001:00008140       ??B?$CTraceCategoryEx@$0EA@$0A@@ATL@@QEAAIXZ 0000000180009140 f i SoundPlayer.obj
 0001:00008150       ??B?$CTraceCategoryEx@$0IAA@$0A@@ATL@@QEAAIXZ 0000000180009150 f i SoundPlayer.obj
 0001:00008160       ??BCComBSTR@ATL@@QEBAPEA_WXZ 0000000180009160 f i SoundPlayer.obj
 0001:00008170       ??BCRegKey@ATL@@QEBAPEAUHKEY__@@XZ 0000000180009170 f i SoundPlayer.obj
 0001:00008180       ??C?$CComPtrBase@UIAdviseSink@@@ATL@@QEBAPEAV?$_NoAddRefReleaseOnCComPtr@UIAdviseSink@@@1@XZ 0000000180009180 f i SoundPlayer.obj
 0001:000081e0       ??C?$CComPtrBase@UICatRegister@@@ATL@@QEBAPEAV?$_NoAddRefReleaseOnCComPtr@UICatRegister@@@1@XZ 00000001800091e0 f i SoundPlayer.obj
 0001:00008240       ??C?$CComPtrBase@UIConnectionPoint@@@ATL@@QEBAPEAV?$_NoAddRefReleaseOnCComPtr@UIConnectionPoint@@@1@XZ 0000000180009240 f i SoundPlayer.obj
 0001:000082a0       ??C?$CComPtrBase@UIConnectionPointContainer@@@ATL@@QEBAPEAV?$_NoAddRefReleaseOnCComPtr@UIConnectionPointContainer@@@1@XZ 00000001800092a0 f i SoundPlayer.obj
 0001:00008300       ??C?$CComPtrBase@UIDataAdviseHolder@@@ATL@@QEBAPEAV?$_NoAddRefReleaseOnCComPtr@UIDataAdviseHolder@@@1@XZ 0000000180009300 f i SoundPlayer.obj
 0001:00008360       ??C?$CComPtrBase@UIOleAdviseHolder@@@ATL@@QEBAPEAV?$_NoAddRefReleaseOnCComPtr@UIOleAdviseHolder@@@1@XZ 0000000180009360 f i SoundPlayer.obj
 0001:000083c0       ??C?$CComPtrBase@UIOleClientSite@@@ATL@@QEBAPEAV?$_NoAddRefReleaseOnCComPtr@UIOleClientSite@@@1@XZ 00000001800093c0 f i SoundPlayer.obj
 0001:00008420       ??C?$CComPtrBase@UIOleControlSite@@@ATL@@QEBAPEAV?$_NoAddRefReleaseOnCComPtr@UIOleControlSite@@@1@XZ 0000000180009420 f i SoundPlayer.obj
 0001:00008480       ??C?$CComPtrBase@UIOleInPlaceFrame@@@ATL@@QEBAPEAV?$_NoAddRefReleaseOnCComPtr@UIOleInPlaceFrame@@@1@XZ 0000000180009480 f i SoundPlayer.obj
 0001:000084e0       ??C?$CComPtrBase@UIOleInPlaceObject@@@ATL@@QEBAPEAV?$_NoAddRefReleaseOnCComPtr@UIOleInPlaceObject@@@1@XZ 00000001800094e0 f i SoundPlayer.obj
 0001:00008540       ??C?$CComPtrBase@UIOleInPlaceSiteWindowless@@@ATL@@QEBAPEAV?$_NoAddRefReleaseOnCComPtr@UIOleInPlaceSiteWindowless@@@1@XZ 0000000180009540 f i SoundPlayer.obj
 0001:000085a0       ??C?$CComPtrBase@UIOleInPlaceUIWindow@@@ATL@@QEBAPEAV?$_NoAddRefReleaseOnCComPtr@UIOleInPlaceUIWindow@@@1@XZ 00000001800095a0 f i SoundPlayer.obj
 0001:00008600       ??C?$CComPtrBase@UIOleObject@@@ATL@@QEBAPEAV?$_NoAddRefReleaseOnCComPtr@UIOleObject@@@1@XZ 0000000180009600 f i SoundPlayer.obj
 0001:00008660       ??C?$CComPtrBase@UIPersistStream@@@ATL@@QEBAPEAV?$_NoAddRefReleaseOnCComPtr@UIPersistStream@@@1@XZ 0000000180009660 f i SoundPlayer.obj
 0001:000086c0       ??C?$CComPtrBase@UIPersistStreamInit@@@ATL@@QEBAPEAV?$_NoAddRefReleaseOnCComPtr@UIPersistStreamInit@@@1@XZ 00000001800096c0 f i SoundPlayer.obj
 0001:00008720       ??C?$CComPtrBase@UIPointerInactive@@@ATL@@QEBAPEAV?$_NoAddRefReleaseOnCComPtr@UIPointerInactive@@@1@XZ 0000000180009720 f i SoundPlayer.obj
 0001:00008780       ??C?$CComPtrBase@UIProvideClassInfo2@@@ATL@@QEBAPEAV?$_NoAddRefReleaseOnCComPtr@UIProvideClassInfo2@@@1@XZ 0000000180009780 f i SoundPlayer.obj
 0001:000087e0       ??C?$CComPtrBase@UISpecifyPropertyPages@@@ATL@@QEBAPEAV?$_NoAddRefReleaseOnCComPtr@UISpecifyPropertyPages@@@1@XZ 00000001800097e0 f i SoundPlayer.obj
 0001:00008840       ??C?$CComPtrBase@UITypeInfo@@@ATL@@QEBAPEAV?$_NoAddRefReleaseOnCComPtr@UITypeInfo@@@1@XZ 0000000180009840 f i SoundPlayer.obj
 0001:000088a0       ??C?$CComPtrBase@UITypeLib@@@ATL@@QEBAPEAV?$_NoAddRefReleaseOnCComPtr@UITypeLib@@@1@XZ 00000001800098a0 f i SoundPlayer.obj
 0001:00008900       ??C?$CComPtrBase@UIUnknown@@@ATL@@QEBAPEAV?$_NoAddRefReleaseOnCComPtr@UIUnknown@@@1@XZ 0000000180009900 f i SoundPlayer.obj
 0001:00008960       ??C?$CComPtrBase@UIViewObjectEx@@@ATL@@QEBAPEAV?$_NoAddRefReleaseOnCComPtr@UIViewObjectEx@@@1@XZ 0000000180009960 f i SoundPlayer.obj
 0001:000089c0       ??I?$CComPtrBase@UICatRegister@@@ATL@@QEAAPEAPEAUICatRegister@@XZ 00000001800099c0 f i SoundPlayer.obj
 0001:00008a20       ??I?$CComPtrBase@UIConnectionPoint@@@ATL@@QEAAPEAPEAUIConnectionPoint@@XZ 0000000180009a20 f i SoundPlayer.obj
 0001:00008a80       ??I?$CComPtrBase@UIConnectionPointContainer@@@ATL@@QEAAPEAPEAUIConnectionPointContainer@@XZ 0000000180009a80 f i SoundPlayer.obj
 0001:00008ae0       ??I?$CComPtrBase@UIDataAdviseHolder@@@ATL@@QEAAPEAPEAUIDataAdviseHolder@@XZ 0000000180009ae0 f i SoundPlayer.obj
 0001:00008b40       ??I?$CComPtrBase@UIDataObject@@@ATL@@QEAAPEAPEAUIDataObject@@XZ 0000000180009b40 f i SoundPlayer.obj
 0001:00008ba0       ??I?$CComPtrBase@UIDispatch@@@ATL@@QEAAPEAPEAUIDispatch@@XZ 0000000180009ba0 f i SoundPlayer.obj
 0001:00008c00       ??I?$CComPtrBase@UIOleAdviseHolder@@@ATL@@QEAAPEAPEAUIOleAdviseHolder@@XZ 0000000180009c00 f i SoundPlayer.obj
 0001:00008c60       ??I?$CComPtrBase@UIOleControlSite@@@ATL@@QEAAPEAPEAUIOleControlSite@@XZ 0000000180009c60 f i SoundPlayer.obj
 0001:00008cc0       ??I?$CComPtrBase@UIOleInPlaceActiveObject@@@ATL@@QEAAPEAPEAUIOleInPlaceActiveObject@@XZ 0000000180009cc0 f i SoundPlayer.obj
 0001:00008d20       ??I?$CComPtrBase@UIOleInPlaceFrame@@@ATL@@QEAAPEAPEAUIOleInPlaceFrame@@XZ 0000000180009d20 f i SoundPlayer.obj
 0001:00008d80       ??I?$CComPtrBase@UIOleInPlaceObject@@@ATL@@QEAAPEAPEAUIOleInPlaceObject@@XZ 0000000180009d80 f i SoundPlayer.obj
 0001:00008de0       ??I?$CComPtrBase@UIOleInPlaceSiteWindowless@@@ATL@@QEAAPEAPEAUIOleInPlaceSiteWindowless@@XZ 0000000180009de0 f i SoundPlayer.obj
 0001:00008e40       ??I?$CComPtrBase@UIOleInPlaceUIWindow@@@ATL@@QEAAPEAPEAUIOleInPlaceUIWindow@@XZ 0000000180009e40 f i SoundPlayer.obj
 0001:00008ea0       ??I?$CComPtrBase@UIOleObject@@@ATL@@QEAAPEAPEAUIOleObject@@XZ 0000000180009ea0 f i SoundPlayer.obj
 0001:00008f00       ??I?$CComPtrBase@UIPersistStream@@@ATL@@QEAAPEAPEAUIPersistStream@@XZ 0000000180009f00 f i SoundPlayer.obj
 0001:00008f60       ??I?$CComPtrBase@UIPointerInactive@@@ATL@@QEAAPEAPEAUIPointerInactive@@XZ 0000000180009f60 f i SoundPlayer.obj
 0001:00008fc0       ??I?$CComPtrBase@UIProvideClassInfo2@@@ATL@@QEAAPEAPEAUIProvideClassInfo2@@XZ 0000000180009fc0 f i SoundPlayer.obj
 0001:00009020       ??I?$CComPtrBase@UIStream@@@ATL@@QEAAPEAPEAUIStream@@XZ 000000018000a020 f i SoundPlayer.obj
 0001:00009080       ??I?$CComPtrBase@UITypeInfo2@@@ATL@@QEAAPEAPEAUITypeInfo2@@XZ 000000018000a080 f i SoundPlayer.obj
 0001:000090e0       ??I?$CComPtrBase@UITypeInfo@@@ATL@@QEAAPEAPEAUITypeInfo@@XZ 000000018000a0e0 f i SoundPlayer.obj
 0001:00009140       ??I?$CComPtrBase@UITypeLib@@@ATL@@QEAAPEAPEAUITypeLib@@XZ 000000018000a140 f i SoundPlayer.obj
 0001:000091a0       ??I?$CComPtrBase@UIUnknown@@@ATL@@QEAAPEAPEAUIUnknown@@XZ 000000018000a1a0 f i SoundPlayer.obj
 0001:00009200       ??I?$CComPtrBase@UIViewObjectEx@@@ATL@@QEAAPEAPEAUIViewObjectEx@@XZ 000000018000a200 f i SoundPlayer.obj
 0001:00009260       ??ICComBSTR@ATL@@QEAAPEAPEA_WXZ 000000018000a260 f i SoundPlayer.obj
 0001:00009270       ??_E?$CComContainedObject@VCOPOSSoundPlayer@@@ATL@@W7EAAPEAXI@Z 000000018000a270 f i SoundPlayer.obj
 0001:0000927c       ??_E?$CComContainedObject@VCOPOSSoundPlayer@@@ATL@@WHA@EAAPEAXI@Z 000000018000a27c f i SoundPlayer.obj
 0001:00009288       ??_E?$CComObject@VCOPOSSoundPlayer@@@ATL@@W7EAAPEAXI@Z 000000018000a288 f i SoundPlayer.obj
 0001:00009294       ??_E?$CComObject@VCOPOSSoundPlayer@@@ATL@@WHA@EAAPEAXI@Z 000000018000a294 f i SoundPlayer.obj
 0001:000092a0       ??_G?$CComAggObject@VCOPOSSoundPlayer@@@ATL@@UEAAPEAXI@Z 000000018000a2a0 f i SoundPlayer.obj
 0001:000092a0       ??_E?$CComAggObject@VCOPOSSoundPlayer@@@ATL@@UEAAPEAXI@Z 000000018000a2a0 f i SoundPlayer.obj
 0001:000092e0       ??_E?$CComContainedObject@VCOPOSSoundPlayer@@@ATL@@UEAAPEAXI@Z 000000018000a2e0 f i SoundPlayer.obj
 0001:000092e0       ??_G?$CComContainedObject@VCOPOSSoundPlayer@@@ATL@@UEAAPEAXI@Z 000000018000a2e0 f i SoundPlayer.obj
 0001:00009320       ??_G?$CComObject@V?$CComEnum@UIEnumConnectionPoints@@$1?_GUID_b196b285_bab4_101a_b69c_00aa00341d07@@3U__s_GUID@@BPEAUIConnectionPoint@@V?$_CopyInterface@UIConnectionPoint@@@ATL@@VCComSingleThreadModel@6@@ATL@@@ATL@@UEAAPEAXI@Z 000000018000a320 f i SoundPlayer.obj
 0001:00009320       ??_E?$CComObject@V?$CComEnum@UIEnumConnectionPoints@@$1?_GUID_b196b285_bab4_101a_b69c_00aa00341d07@@3U__s_GUID@@BPEAUIConnectionPoint@@V?$_CopyInterface@UIConnectionPoint@@@ATL@@VCComSingleThreadModel@6@@ATL@@@ATL@@UEAAPEAXI@Z 000000018000a320 f i SoundPlayer.obj
 0001:00009360       ??_E?$CComObject@V?$CComEnum@UIEnumConnections@@$1?_GUID_b196b287_bab4_101a_b69c_00aa00341d07@@3U__s_GUID@@BUtagCONNECTDATA@@V?$_Copy@UtagCONNECTDATA@@@ATL@@VCComSingleThreadModel@6@@ATL@@@ATL@@UEAAPEAXI@Z 000000018000a360 f i SoundPlayer.obj
 0001:00009360       ??_G?$CComObject@V?$CComEnum@UIEnumConnections@@$1?_GUID_b196b287_bab4_101a_b69c_00aa00341d07@@3U__s_GUID@@BUtagCONNECTDATA@@V?$_Copy@UtagCONNECTDATA@@@ATL@@VCComSingleThreadModel@6@@ATL@@@ATL@@UEAAPEAXI@Z 000000018000a360 f i SoundPlayer.obj
 0001:000093a0       ??_E?$CComObject@VCOPOSSoundPlayer@@@ATL@@UEAAPEAXI@Z 000000018000a3a0 f i SoundPlayer.obj
 0001:000093a0       ??_G?$CComObject@VCOPOSSoundPlayer@@@ATL@@UEAAPEAXI@Z 000000018000a3a0 f i SoundPlayer.obj
 0001:000093e0       ??_G?$CComObjectCached@VCComClassFactory@ATL@@@ATL@@UEAAPEAXI@Z 000000018000a3e0 f i SoundPlayer.obj
 0001:000093e0       ??_E?$CComObjectCached@VCComClassFactory@ATL@@@ATL@@UEAAPEAXI@Z 000000018000a3e0 f i SoundPlayer.obj
 0001:00009420       ??_ECComClassFactory@ATL@@UEAAPEAXI@Z 000000018000a420 f i SoundPlayer.obj
 0001:00009420       ??_GCComClassFactory@ATL@@UEAAPEAXI@Z 000000018000a420 f i SoundPlayer.obj
 0001:00009460       ??_ECComModule@ATL@@UEAAPEAXI@Z 000000018000a460 f i SoundPlayer.obj
 0001:00009460       ??_GCComModule@ATL@@UEAAPEAXI@Z 000000018000a460 f i SoundPlayer.obj
 0001:000094a0       ??_GCRegObject@ATL@@UEAAPEAXI@Z 000000018000a4a0 f i SoundPlayer.obj
 0001:000094a0       ??_ECRegObject@ATL@@UEAAPEAXI@Z 000000018000a4a0 f i SoundPlayer.obj
 0001:000094e0       ?Add@?$CSimpleArray@GV?$CSimpleArrayEqualHelper@G@ATL@@@ATL@@QEAAHAEBG@Z 000000018000a4e0 f i SoundPlayer.obj
 0001:00009670       ?Add@?$CSimpleMap@PEA_WPEA_WVCExpansionVectorEqualHelper@ATL@@@ATL@@QEAAHAEBQEA_W0@Z 000000018000a670 f i SoundPlayer.obj
 0001:00009750       ?Add@CComDynamicUnkArray@ATL@@QEAAKPEAUIUnknown@@@Z 000000018000a750 f i SoundPlayer.obj
 0001:00009930       ?Add@CExpansionVector@ATL@@QEAAHPEB_W0@Z 000000018000a930 f i SoundPlayer.obj
 0001:00009c70       ?AddChar@CParseBuffer@CRegParser@ATL@@QEAAHPEB_W@Z 000000018000ac70 f i SoundPlayer.obj
 0001:00009cb0       ?AddCommonRGSReplacements@?$CAtlModuleT@VCComModule@ATL@@@ATL@@UEAAJPEAUIRegistrarBase@@@Z 000000018000acb0 f i SoundPlayer.obj
 0001:00009cf0       ?AddCreateWndData@CAtlWinModule@ATL@@QEAAXPEAU_AtlCreateWndData@2@PEAX@Z 000000018000acf0 f i SoundPlayer.obj
 0001:00009d20       ?AddRef@?$CComAggObject@VCOPOSSoundPlayer@@@ATL@@UEAAKXZ 000000018000ad20 f i SoundPlayer.obj
 0001:00009d50       ?AddRef@?$CComContainedObject@VCOPOSSoundPlayer@@@ATL@@UEAAKXZ 000000018000ad50 f i SoundPlayer.obj
 0001:00009d74       ?AddRef@?$CComContainedObject@VCOPOSSoundPlayer@@@ATL@@WBAA@EAAKXZ 000000018000ad74 f i SoundPlayer.obj
 0001:00009d80       ?AddRef@?$CComContainedObject@VCOPOSSoundPlayer@@@ATL@@WBAI@EAAKXZ 000000018000ad80 f i SoundPlayer.obj
 0001:00009d8c       ?AddRef@?$CComContainedObject@VCOPOSSoundPlayer@@@ATL@@WBBA@EAAKXZ 000000018000ad8c f i SoundPlayer.obj
 0001:00009d98       ?AddRef@?$CComContainedObject@VCOPOSSoundPlayer@@@ATL@@WBBI@EAAKXZ 000000018000ad98 f i SoundPlayer.obj
 0001:00009da4       ?AddRef@?$CComContainedObject@VCOPOSSoundPlayer@@@ATL@@WBCI@EAAKXZ 000000018000ada4 f i SoundPlayer.obj
 0001:00009db0       ?AddRef@?$CComContainedObject@VCOPOSSoundPlayer@@@ATL@@WBEA@EAAKXZ 000000018000adb0 f i SoundPlayer.obj
 0001:00009dbc       ?AddRef@?$CComContainedObject@VCOPOSSoundPlayer@@@ATL@@WLI@EAAKXZ 000000018000adbc f i SoundPlayer.obj
 0001:00009dc8       ?AddRef@?$CComContainedObject@VCOPOSSoundPlayer@@@ATL@@WMA@EAAKXZ 000000018000adc8 f i SoundPlayer.obj
 0001:00009dd4       ?AddRef@?$CComContainedObject@VCOPOSSoundPlayer@@@ATL@@WMI@EAAKXZ 000000018000add4 f i SoundPlayer.obj
 0001:00009de0       ?AddRef@?$CComContainedObject@VCOPOSSoundPlayer@@@ATL@@WNA@EAAKXZ 000000018000ade0 f i SoundPlayer.obj
 0001:00009dec       ?AddRef@?$CComContainedObject@VCOPOSSoundPlayer@@@ATL@@WNI@EAAKXZ 000000018000adec f i SoundPlayer.obj
 0001:00009df8       ?AddRef@?$CComContainedObject@VCOPOSSoundPlayer@@@ATL@@WOA@EAAKXZ 000000018000adf8 f i SoundPlayer.obj
 0001:00009e04       ?AddRef@?$CComContainedObject@VCOPOSSoundPlayer@@@ATL@@WOI@EAAKXZ 000000018000ae04 f i SoundPlayer.obj
 0001:00009e10       ?AddRef@?$CComContainedObject@VCOPOSSoundPlayer@@@ATL@@WPA@EAAKXZ 000000018000ae10 f i SoundPlayer.obj
 0001:00009e1c       ?AddRef@?$CComContainedObject@VCOPOSSoundPlayer@@@ATL@@WPI@EAAKXZ 000000018000ae1c f i SoundPlayer.obj
 0001:00009e30       ?AddRef@?$CComObject@V?$CComEnum@UIEnumConnectionPoints@@$1?_GUID_b196b285_bab4_101a_b69c_00aa00341d07@@3U__s_GUID@@BPEAUIConnectionPoint@@V?$_CopyInterface@UIConnectionPoint@@@ATL@@VCComSingleThreadModel@6@@ATL@@@ATL@@UEAAKXZ 000000018000ae30 f i SoundPlayer.obj
 0001:00009e60       ?AddRef@?$CComObject@V?$CComEnum@UIEnumConnections@@$1?_GUID_b196b287_bab4_101a_b69c_00aa00341d07@@3U__s_GUID@@BUtagCONNECTDATA@@V?$_Copy@UtagCONNECTDATA@@@ATL@@VCComSingleThreadModel@6@@ATL@@@ATL@@UEAAKXZ 000000018000ae60 f i SoundPlayer.obj
 0001:00009e90       ?AddRef@?$CComObject@VCOPOSSoundPlayer@@@ATL@@UEAAKXZ 000000018000ae90 f i SoundPlayer.obj
 0001:00009eb4       ?AddRef@?$CComObject@VCOPOSSoundPlayer@@@ATL@@WBAA@EAAKXZ 000000018000aeb4 f i SoundPlayer.obj
 0001:00009ec0       ?AddRef@?$CComObject@VCOPOSSoundPlayer@@@ATL@@WBAI@EAAKXZ 000000018000aec0 f i SoundPlayer.obj
 0001:00009ecc       ?AddRef@?$CComObject@VCOPOSSoundPlayer@@@ATL@@WBBA@EAAKXZ 000000018000aecc f i SoundPlayer.obj
 0001:00009ed8       ?AddRef@?$CComObject@VCOPOSSoundPlayer@@@ATL@@WBBI@EAAKXZ 000000018000aed8 f i SoundPlayer.obj
 0001:00009ee4       ?AddRef@?$CComObject@VCOPOSSoundPlayer@@@ATL@@WBCI@EAAKXZ 000000018000aee4 f i SoundPlayer.obj
 0001:00009ef0       ?AddRef@?$CComObject@VCOPOSSoundPlayer@@@ATL@@WBEA@EAAKXZ 000000018000aef0 f i SoundPlayer.obj
 0001:00009efc       ?AddRef@?$CComObject@VCOPOSSoundPlayer@@@ATL@@WLI@EAAKXZ 000000018000aefc f i SoundPlayer.obj
 0001:00009f08       ?AddRef@?$CComObject@VCOPOSSoundPlayer@@@ATL@@WMA@EAAKXZ 000000018000af08 f i SoundPlayer.obj
 0001:00009f14       ?AddRef@?$CComObject@VCOPOSSoundPlayer@@@ATL@@WMI@EAAKXZ 000000018000af14 f i SoundPlayer.obj
 0001:00009f20       ?AddRef@?$CComObject@VCOPOSSoundPlayer@@@ATL@@WNA@EAAKXZ 000000018000af20 f i SoundPlayer.obj
 0001:00009f2c       ?AddRef@?$CComObject@VCOPOSSoundPlayer@@@ATL@@WNI@EAAKXZ 000000018000af2c f i SoundPlayer.obj
 0001:00009f38       ?AddRef@?$CComObject@VCOPOSSoundPlayer@@@ATL@@WOA@EAAKXZ 000000018000af38 f i SoundPlayer.obj
 0001:00009f44       ?AddRef@?$CComObject@VCOPOSSoundPlayer@@@ATL@@WOI@EAAKXZ 000000018000af44 f i SoundPlayer.obj
 0001:00009f50       ?AddRef@?$CComObject@VCOPOSSoundPlayer@@@ATL@@WPA@EAAKXZ 000000018000af50 f i SoundPlayer.obj
 0001:00009f5c       ?AddRef@?$CComObject@VCOPOSSoundPlayer@@@ATL@@WPI@EAAKXZ 000000018000af5c f i SoundPlayer.obj
 0001:00009f70       ?AddRef@?$CComObjectCached@VCComClassFactory@ATL@@@ATL@@UEAAKXZ 000000018000af70 f i SoundPlayer.obj
 0001:00009fc0       ?AddRef@CRegObject@ATL@@UEAAKXZ 000000018000afc0 f i SoundPlayer.obj
 0001:0000a020       ?AddReplacement@CRegObject@ATL@@UEAAJPEB_W0@Z 000000018000b020 f i SoundPlayer.obj
 0001:0000a150       ?AddString@CParseBuffer@CRegParser@ATL@@QEAAHPEB_W@Z 000000018000b150 f i SoundPlayer.obj
 0001:0000a240       ?AddTermFunc@CAtlModule@ATL@@QEAAJP6AX_K@Z0@Z 000000018000b240 f i SoundPlayer.obj
 0001:0000a290       ?AddValue@CRegParser@ATL@@IEAAJAEAVCRegKey@2@PEB_WPEA_W@Z 000000018000b290 f i SoundPlayer.obj
 0001:0000ab60       ?Advise@?$CProxy_IOPOSEvents@VCOPOSSoundPlayer@@@@UEAAJPEAUIUnknown@@PEAK@Z 000000018000bb60 f i SoundPlayer.obj
 0001:0000abc0       ?Advise@?$IConnectionPointImpl@VCOPOSSoundPlayer@@$1?DIID__IOPOSSoundPlayerEvents@@3U_GUID@@BVCComDynamicUnkArray@ATL@@@ATL@@UEAAJPEAUIUnknown@@PEAK@Z 000000018000bbc0 f i SoundPlayer.obj
 0001:0000adc0       ?Advise@?$IConnectionPointImpl@VCOPOSSoundPlayer@@$1?IID_IPropertyNotifySink@@3U_GUID@@BVCComDynamicUnkArray@ATL@@@ATL@@UEAAJPEAUIUnknown@@PEAK@Z 000000018000bdc0 f i SoundPlayer.obj
 0001:0000afc0       ?Advise@?$IOleObjectImpl@VCOPOSSoundPlayer@@@ATL@@UEAAJPEAUIAdviseSink@@PEAK@Z 000000018000bfc0 f i SoundPlayer.obj
 0001:0000b070       ?Allocate@?$CAtlSafeAllocBufferManager@VCCRTAllocator@ATL@@@_ATL_SAFE_ALLOCA_IMPL@ATL@@QEAAPEAX_K@Z 000000018000c070 f i SoundPlayer.obj
 0001:0000b0e0       ?Allocate@?$CTempBuffer@E$0BAA@VCCRTAllocator@ATL@@@ATL@@QEAAPEAE_K@Z 000000018000c0e0 f i SoundPlayer.obj
 0001:0000b120       ?Allocate@?$CTempBuffer@_W$0BAA@VCCRTAllocator@ATL@@@ATL@@QEAAPEA_W_K@Z 000000018000c120 f i SoundPlayer.obj
 0001:0000b160       ?Allocate@?$CTempBuffer@_W$0EAA@VCCRTAllocator@ATL@@@ATL@@QEAAPEA_W_K@Z 000000018000c160 f i SoundPlayer.obj
 0001:0000b1a0       ?AllocateBytes@?$CTempBuffer@E$0BAA@VCCRTAllocator@ATL@@@ATL@@QEAAPEAE_K@Z 000000018000c1a0 f i SoundPlayer.obj
 0001:0000b230       ?AllocateBytes@?$CTempBuffer@_W$0BAA@VCCRTAllocator@ATL@@@ATL@@QEAAPEA_W_K@Z 000000018000c230 f i SoundPlayer.obj
 0001:0000b2c0       ?AllocateBytes@?$CTempBuffer@_W$0EAA@VCCRTAllocator@ATL@@@ATL@@QEAAPEA_W_K@Z 000000018000c2c0 f i SoundPlayer.obj
 0001:0000b350       ?AllocateHeap@?$CTempBuffer@E$0BAA@VCCRTAllocator@ATL@@@ATL@@AEAAX_K@Z 000000018000c350 f i SoundPlayer.obj
 0001:0000b3a0       ?AllocateHeap@?$CTempBuffer@_W$0BAA@VCCRTAllocator@ATL@@@ATL@@AEAAX_K@Z 000000018000c3a0 f i SoundPlayer.obj
 0001:0000b3f0       ?AllocateHeap@?$CTempBuffer@_W$0EAA@VCCRTAllocator@ATL@@@ATL@@AEAAX_K@Z 000000018000c3f0 f i SoundPlayer.obj
 0001:0000b440       ?Append@CParseBuffer@CRegParser@ATL@@QEAAHPEB_WH@Z 000000018000c440 f i SoundPlayer.obj
 0001:0000b660       ?AtlCallTermFunc@ATL@@YAXPEAU_ATL_MODULE70@1@@Z 000000018000c660 f i SoundPlayer.obj
 0001:0000b700       ?AtlCoTaskMemCAlloc@ATL@@YAPEAXKK@Z 000000018000c700 f i SoundPlayer.obj
 0001:0000b780       ?AtlCoTaskMemRecalloc@ATL@@YAPEAXPEAXKK@Z 000000018000c780 f i SoundPlayer.obj
 0001:0000b800       ?AtlComModuleGetClassObject@ATL@@YAJPEAU_ATL_COM_MODULE70@1@AEBU_GUID@@1PEAPEAX@Z 000000018000c800 f i SoundPlayer.obj
 0001:0000bb30       ?AtlComModuleRegisterServer@ATL@@YAJPEAU_ATL_COM_MODULE70@1@HPEBU_GUID@@@Z 000000018000cb30 f i SoundPlayer.obj
 0001:0000bd20       ?AtlComModuleUnregisterServer@ATL@@YAJPEAU_ATL_COM_MODULE70@1@HPEBU_GUID@@@Z 000000018000cd20 f i SoundPlayer.obj
 0001:0000be70       ?AtlComQIPtrAssign2@ATL@@YAXPEAPEAUIUnknown@@PEAU2@AEBU_GUID@@@Z 000000018000ce70 f i SoundPlayer.obj
 0001:0000bee0       ?AtlCreateTargetDC@ATL@@YAPEAUHDC__@@PEAU2@PEAUtagDVTARGETDEVICE@@@Z 000000018000cee0 f i SoundPlayer.obj
 0001:0000c110       ?AtlCrtErrorCheck@ATL@@YAHH@Z 000000018000d110 f i SoundPlayer.obj
 0001:0000c180       ?AtlGetPerUserRegistration@ATL@@YAJPEA_N@Z 000000018000d180 f i SoundPlayer.obj
 0001:0000c1b0       ?AtlHiMetricToPixel@ATL@@YAXPEBUtagSIZE@@PEAU2@@Z 000000018000d1b0 f i SoundPlayer.obj
 0001:0000c390       ?AtlHresultFromLastError@ATL@@YAJXZ 000000018000d390 f i SoundPlayer.obj
 0001:0000c3b0       ?AtlHresultFromWin32@ATL@@YAJK@Z 000000018000d3b0 f i SoundPlayer.obj
 0001:0000c3d0       ?AtlIPersistStreamInit_Load@ATL@@YAJPEAUIStream@@PEBUATL_PROPMAP_ENTRY@1@PEAXPEAUIUnknown@@@Z 000000018000d3d0 f i SoundPlayer.obj
 0001:0000ca50       ?AtlIPersistStreamInit_Save@ATL@@YAJPEAUIStream@@HPEBUATL_PROPMAP_ENTRY@1@PEAXPEAUIUnknown@@@Z 000000018000da50 f i SoundPlayer.obj
 0001:0000cfe0       ?AtlInternalOleLoadFromStream@ATL@@YAJPEAUIStream@@AEBU_GUID@@PEAPEAXTClassesAllowedInStream@1@K@Z 000000018000dfe0 f i SoundPlayer.obj
 0001:0000d320       ?AtlInternalQueryInterface@ATL@@YAJPEAXPEBU_ATL_INTMAP_ENTRY@1@AEBU_GUID@@PEAPEAX@Z 000000018000e320 f i SoundPlayer.obj
 0001:0000d5d0       ?AtlLoadTypeLib@ATL@@YAJPEAUHINSTANCE__@@PEB_WPEAPEA_WPEAPEAUITypeLib@@@Z 000000018000e5d0 f i SoundPlayer.obj
 0001:0000daa0       ?AtlModuleAddTermFunc@ATL@@YAJPEAU_ATL_MODULE70@1@P6AX_K@Z1@Z 000000018000eaa0 f i SoundPlayer.obj
 0001:0000dc70       ?AtlRegisterClassCategoriesHelper@ATL@@YAJAEBU_GUID@@PEBU_ATL_CATMAP_ENTRY@1@H@Z 000000018000ec70 f i SoundPlayer.obj
 0001:0000e440       ?AtlRegisterTypeLib@ATL@@YAJPEAUHINSTANCE__@@PEB_W@Z 000000018000f440 f i SoundPlayer.obj
 0001:0000e7a0       ?AtlThrowImpl@ATL@@YAXJ@Z  000000018000f7a0 f i SoundPlayer.obj
 0001:0000e870       ?AtlUnRegisterTypeLib@ATL@@YAJPEAUHINSTANCE__@@PEB_W@Z 000000018000f870 f i SoundPlayer.obj
 0001:0000eaa0       ?AtlWinModuleAddCreateWndData@ATL@@YAXPEAU_ATL_WIN_MODULE70@1@PEAU_AtlCreateWndData@1@PEAX@Z 000000018000faa0 f i SoundPlayer.obj
 0001:0000ec90       ?AtlWinModuleExtractCreateWndData@ATL@@YAPEAXPEAU_ATL_WIN_MODULE70@1@@Z 000000018000fc90 f i SoundPlayer.obj
 0001:0000ee90       ?AtlWinModuleRegisterClassExW@ATL@@YAGPEAU_ATL_WIN_MODULE70@1@PEBUtagWNDCLASSEXW@@@Z 000000018000fe90 f i SoundPlayer.obj
 0001:0000ef60       ?AtlWinModuleRegisterWndClassInfoW@ATL@@YAGPEAU_ATL_WIN_MODULE70@1@PEAU_ATL_BASE_MODULE70@1@PEAU_ATL_WNDCLASSINFOW@1@PEAP6A_JPEAUHWND__@@I_K_J@Z@Z 000000018000ff60 f i SoundPlayer.obj
 0001:0000efd0       ?Attach@?$CAutoVectorPtr@_W@ATL@@QEAAXPEA_W@Z 000000018000ffd0 f i SoundPlayer.obj
 0001:0000f040       ?Attach@CComBSTR@ATL@@QEAAXPEA_W@Z 0000000180010040 f i SoundPlayer.obj
 0001:0000f080       ?Attach@CRegKey@ATL@@QEAAXPEAUHKEY__@@@Z 0000000180010080 f i SoundPlayer.obj
 0001:0000f110       ?CanForceRemoveKey@CRegParser@ATL@@IEAAHPEB_W@Z 0000000180010110 f i SoundPlayer.obj
 0001:0000f170       ?ChToByte@CRegParser@ATL@@KAE_W@Z 0000000180010170 f i SoundPlayer.obj
 0001:0000f310       ?ChangeType@CComVariant@ATL@@QEAAJGPEBUtagVARIANT@@@Z 0000000180010310 f i SoundPlayer.obj
 0001:0000f360       ?Cleanup@CComTypeInfoHolder@ATL@@SAX_K@Z 0000000180010360 f i SoundPlayer.obj
 0001:0000f440       ?Clear@CComVariant@ATL@@QEAAJXZ 0000000180010440 f i SoundPlayer.obj
 0001:0000f460       ?ClearReplacements@CExpansionVector@ATL@@QEAAJXZ 0000000180010460 f i SoundPlayer.obj
 0001:0000f4f0       ?ClearReplacements@CRegObject@ATL@@UEAAJXZ 00000001800104f0 f i SoundPlayer.obj
 0001:0000f540       ?Clone@?$CComEnumImpl@UIEnumConnectionPoints@@$1?_GUID_b196b285_bab4_101a_b69c_00aa00341d07@@3U__s_GUID@@BPEAUIConnectionPoint@@V?$_CopyInterface@UIConnectionPoint@@@ATL@@@ATL@@UEAAJPEAPEAUIEnumConnectionPoints@@@Z 0000000180010540 f i SoundPlayer.obj
 0001:0000f730       ?Clone@?$CComEnumImpl@UIEnumConnections@@$1?_GUID_b196b287_bab4_101a_b69c_00aa00341d07@@3U__s_GUID@@BUtagCONNECTDATA@@V?$_Copy@UtagCONNECTDATA@@@ATL@@@ATL@@UEAAJPEAPEAUIEnumConnections@@@Z 0000000180010730 f i SoundPlayer.obj
 0001:0000f920       ?Close@?$IOleObjectImpl@VCOPOSSoundPlayer@@@ATL@@UEAAJK@Z 0000000180010920 f i SoundPlayer.obj
 0001:0000f9c0       ?Close@CRegKey@ATL@@QEAAJXZ 00000001800109c0 f i SoundPlayer.obj
 0001:0000fa20       ?ContextSensitiveHelp@?$IOleInPlaceActiveObjectImpl@VCOPOSSoundPlayer@@@ATL@@UEAAJH@Z 0000000180010a20 f i SoundPlayer.obj
 0001:0000fa90       ?ContextSensitiveHelp@?$IOleInPlaceObjectWindowlessImpl@VCOPOSSoundPlayer@@@ATL@@UEAAJH@Z 0000000180010a90 f i SoundPlayer.obj
 0001:0000fb00       ?ControlQueryInterface@?$CComControl@VCOPOSSoundPlayer@@V?$CWindowImpl@VCOPOSSoundPlayer@@VCWindow@ATL@@V?$CWinTraits@$0FGAAAAAA@$0A@@3@@ATL@@@ATL@@UEAAJAEBU_GUID@@PEAPEAX@Z 0000000180010b00 f i SoundPlayer.obj
 0001:0000fb70       ?CreateControlWindow@?$CComControl@VCOPOSSoundPlayer@@V?$CWindowImpl@VCOPOSSoundPlayer@@VCWindow@ATL@@V?$CWinTraits@$0FGAAAAAA@$0A@@3@@ATL@@@ATL@@UEAAPEAUHWND__@@PEAU3@AEAUtagRECT@@@Z 0000000180010b70 f i SoundPlayer.obj
 0001:0000fc40       ?CreateInstance@?$CComCreator@V?$CComAggObject@VCOPOSSoundPlayer@@@ATL@@@ATL@@SAJPEAXAEBU_GUID@@PEAPEAX@Z 0000000180010c40 f i SoundPlayer.obj
 0001:0000fe10       ?CreateInstance@?$CComCreator@V?$CComObject@VCOPOSSoundPlayer@@@ATL@@@ATL@@SAJPEAXAEBU_GUID@@PEAPEAX@Z 0000000180010e10 f i SoundPlayer.obj
 0001:0000fff0       ?CreateInstance@?$CComObject@V?$CComEnum@UIEnumConnectionPoints@@$1?_GUID_b196b285_bab4_101a_b69c_00aa00341d07@@3U__s_GUID@@BPEAUIConnectionPoint@@V?$_CopyInterface@UIConnectionPoint@@@ATL@@VCComSingleThreadModel@6@@ATL@@@ATL@@SAJPEAPEAV12@@Z 0000000180010ff0 f i SoundPlayer.obj
 0001:000101a0       ?CreateInstance@?$CComObject@V?$CComEnum@UIEnumConnections@@$1?_GUID_b196b287_bab4_101a_b69c_00aa00341d07@@3U__s_GUID@@BUtagCONNECTDATA@@V?$_Copy@UtagCONNECTDATA@@@ATL@@VCComSingleThreadModel@6@@ATL@@@ATL@@SAJPEAPEAV12@@Z 00000001800111a0 f i SoundPlayer.obj
 0001:00010350       ?CreateInstance@CComClassFactory@ATL@@UEAAJPEAUIUnknown@@AEBU_GUID@@PEAPEAX@Z 0000000180011350 f i SoundPlayer.obj
 0001:00010460       ?DAdvise@?$IDataObjectImpl@VCOPOSSoundPlayer@@@ATL@@UEAAJPEAUtagFORMATETC@@KPEAUIAdviseSink@@PEAK@Z 0000000180011460 f i SoundPlayer.obj
 0001:000105a0       ?DEVMODEOLE2T_EX@@YAPEAU_devicemodeW@@PEAU1@@Z 00000001800115a0 f i SoundPlayer.obj
 0001:000105b0       ?DUnadvise@?$IDataObjectImpl@VCOPOSSoundPlayer@@@ATL@@UEAAJK@Z 00000001800115b0 f i SoundPlayer.obj
 0001:000106a0       ?Decrement@CComMultiThreadModel@ATL@@SAKPEAJ@Z 00000001800116a0 f i SoundPlayer.obj
 0001:000106c0       ?Decrement@CComSingleThreadModel@ATL@@SAKPEAJ@Z 00000001800116c0 f i SoundPlayer.obj
 0001:000106e0       ?DefWindowProcW@?$CWindowImplBaseT@VCWindow@ATL@@V?$CWinTraits@$0FGAAAAAA@$0A@@2@@ATL@@QEAA_JI_K_J@Z 00000001800116e0 f i SoundPlayer.obj
 0001:00010730       ?DefaultReflectionHandler@?$CWindowImplRoot@VCWindow@ATL@@@ATL@@SAHPEAUHWND__@@I_K_JAEA_J@Z 0000000180011730 f i SoundPlayer.obj
 0001:00010a30       ?DeleteSubKey@CRegKey@ATL@@QEAAJPEB_W@Z 0000000180011a30 f i SoundPlayer.obj
 0001:00010b40       ?DeleteValue@CRegKey@ATL@@QEAAJPEB_W@Z 0000000180011b40 f i SoundPlayer.obj
 0001:00010bc0       ?Detach@?$CAutoVectorPtr@_W@ATL@@QEAAPEA_WXZ 0000000180011bc0 f i SoundPlayer.obj
 0001:00010bf0       ?Detach@?$CComPtrBase@UIPersistStream@@@ATL@@QEAAPEAUIPersistStream@@XZ 0000000180011bf0 f i SoundPlayer.obj
 0001:00010c20       ?Detach@?$CComPtrBase@UITypeInfo@@@ATL@@QEAAPEAUITypeInfo@@XZ 0000000180011c20 f i SoundPlayer.obj
 0001:00010c50       ?Detach@?$CComPtrBase@UIUnknown@@@ATL@@QEAAPEAUIUnknown@@XZ 0000000180011c50 f i SoundPlayer.obj
 0001:00010c80       ?Detach@CComBSTR@ATL@@QEAAPEA_WXZ 0000000180011c80 f i SoundPlayer.obj
 0001:00010cb0       ?Detach@CParseBuffer@CRegParser@ATL@@QEAAPEA_WXZ 0000000180011cb0 f i SoundPlayer.obj
 0001:00010d00       ?Detach@CRegKey@ATL@@QEAAPEAUHKEY__@@XZ 0000000180011d00 f i SoundPlayer.obj
 0001:00010d50       ?DoEvent@COPOSSoundPlayer@@IEAAXI_K_J@Z 0000000180011d50 f i SoundPlayer.obj
 0001:00010e70       ?DoVerb@?$IOleObjectImpl@VCOPOSSoundPlayer@@@ATL@@UEAAJJPEAUtagMSG@@PEAUIOleClientSite@@JPEAUHWND__@@PEBUtagRECT@@@Z 0000000180011e70 f i SoundPlayer.obj
 0001:00011170       ?DoVerbDiscardUndo@?$IOleObjectImpl@VCOPOSSoundPlayer@@@ATL@@QEAAJPEBUtagRECT@@PEAUHWND__@@@Z 0000000180012170 f i SoundPlayer.obj
 0001:000111f0       ?DoVerbHide@?$IOleObjectImpl@VCOPOSSoundPlayer@@@ATL@@QEAAJPEBUtagRECT@@PEAUHWND__@@@Z 00000001800121f0 f i SoundPlayer.obj
 0001:000112c0       ?DoVerbInPlaceActivate@?$IOleObjectImpl@VCOPOSSoundPlayer@@@ATL@@QEAAJPEBUtagRECT@@PEAUHWND__@@@Z 00000001800122c0 f i SoundPlayer.obj
 0001:00011380       ?DoVerbOpen@?$IOleObjectImpl@VCOPOSSoundPlayer@@@ATL@@QEAAJPEBUtagRECT@@PEAUHWND__@@@Z 0000000180012380 f i SoundPlayer.obj
 0001:00011400       ?DoVerbPrimary@?$IOleObjectImpl@VCOPOSSoundPlayer@@@ATL@@QEAAJPEBUtagRECT@@PEAUHWND__@@@Z 0000000180012400 f i SoundPlayer.obj
 0001:00011540       ?DoVerbProperties@CComControlBase@ATL@@QEAAJPEBUtagRECT@@PEAUHWND__@@@Z 0000000180012540 f i SoundPlayer.obj
 0001:000118f0       ?DoVerbShow@?$IOleObjectImpl@VCOPOSSoundPlayer@@@ATL@@QEAAJPEBUtagRECT@@PEAUHWND__@@@Z 00000001800128f0 f i SoundPlayer.obj
 0001:000119a0       ?DoVerbUIActivate@?$IOleObjectImpl@VCOPOSSoundPlayer@@@ATL@@QEAAJPEBUtagRECT@@PEAUHWND__@@@Z 00000001800129a0 f i SoundPlayer.obj
 0001:00011a60       ?DoesVerbActivate@CComControlBase@ATL@@QEAAHJ@Z 0000000180012a60 f i SoundPlayer.obj
 0001:00011ab0       ?DoesVerbUIActivate@CComControlBase@ATL@@QEAAHJ@Z 0000000180012ab0 f i SoundPlayer.obj
 0001:00011b20       ?Draw@?$IViewObjectExImpl@VCOPOSSoundPlayer@@@ATL@@UEAAJKJPEAXPEAUtagDVTARGETDEVICE@@PEAUHDC__@@2PEBU_RECTL@@3P6AH_K@Z4@Z 0000000180012b20 f i SoundPlayer.obj
 0001:00011c30       ?Empty@CComBSTR@ATL@@QEAAXXZ 0000000180012c30 f i SoundPlayer.obj
 0001:00011c60       ?EnableModeless@?$IOleInPlaceActiveObjectImpl@VCOPOSSoundPlayer@@@ATL@@UEAAJH@Z 0000000180012c60 f i SoundPlayer.obj
 0001:00011cc0       ?EndOfVar@CRegParser@ATL@@IEAAHXZ 0000000180012cc0 f i SoundPlayer.obj
 0001:00011d10       ?EnsureTI@CComTypeInfoHolder@ATL@@QEAAJK@Z 0000000180012d10 f i SoundPlayer.obj
 0001:00011d60       ?EnumAdvise@?$IOleObjectImpl@VCOPOSSoundPlayer@@@ATL@@UEAAJPEAPEAUIEnumSTATDATA@@@Z 0000000180012d60 f i SoundPlayer.obj
 0001:00011eb0       ?EnumConnectionPoints@?$IConnectionPointContainerImpl@VCOPOSSoundPlayer@@@ATL@@UEAAJPEAPEAUIEnumConnectionPoints@@@Z 0000000180012eb0 f i SoundPlayer.obj
 0001:000123a0       ?EnumConnections@?$IConnectionPointImpl@VCOPOSSoundPlayer@@$1?DIID__IOPOSSoundPlayerEvents@@3U_GUID@@BVCComDynamicUnkArray@ATL@@@ATL@@UEAAJPEAPEAUIEnumConnections@@@Z 00000001800133a0 f i SoundPlayer.obj
 0001:000126d0       ?EnumConnections@?$IConnectionPointImpl@VCOPOSSoundPlayer@@$1?IID_IPropertyNotifySink@@3U_GUID@@BVCComDynamicUnkArray@ATL@@@ATL@@UEAAJPEAPEAUIEnumConnections@@@Z 00000001800136d0 f i SoundPlayer.obj
 0001:00012a00       ?EnumDAdvise@?$IDataObjectImpl@VCOPOSSoundPlayer@@@ATL@@UEAAJPEAPEAUIEnumSTATDATA@@@Z 0000000180013a00 f i SoundPlayer.obj
 0001:00012b30       ?EnumFormatEtc@?$IDataObjectImpl@VCOPOSSoundPlayer@@@ATL@@UEAAJKPEAPEAUIEnumFORMATETC@@@Z 0000000180013b30 f i SoundPlayer.obj
 0001:00012bb0       ?EnumVerbs@?$IOleObjectImpl@VCOPOSSoundPlayer@@@ATL@@UEAAJPEAPEAUIEnumOLEVERB@@@Z 0000000180013bb0 f i SoundPlayer.obj
 0001:00012c70       ?EscapeSingleQuote@CAtlModule@ATL@@SAXPEA_W_KPEB_W@Z 0000000180013c70 f i SoundPlayer.obj
 0001:00012d50       ?ExtractCreateWndData@CAtlWinModule@ATL@@QEAAPEAXXZ 0000000180013d50 f i SoundPlayer.obj
 0001:00012d70       ?FAccessAllowed@?$IObjectSafetyImpl@VCOPOSSoundPlayer@@$02@ATL@@MEAAHXZ 0000000180013d70 f i SoundPlayer.obj
 0001:00012d80       ?FinalConstruct@?$CComAggObject@VCOPOSSoundPlayer@@@ATL@@QEAAJXZ 0000000180013d80 f i SoundPlayer.obj
 0001:00012dc0       ?FinalConstruct@CComObjectRootBase@ATL@@QEAAJXZ 0000000180013dc0 f i SoundPlayer.obj
 0001:00012dd0       ?FinalConstruct@CRegObject@ATL@@QEAAJXZ 0000000180013dd0 f i SoundPlayer.obj
 0001:00012e00       ?FinalRelease@?$CComAggObject@VCOPOSSoundPlayer@@@ATL@@QEAAXXZ 0000000180013e00 f i SoundPlayer.obj
 0001:00012e40       ?FinalRelease@CComObjectRootBase@ATL@@QEAAXXZ 0000000180013e40 f i SoundPlayer.obj
 0001:00012e50       ?FindConnectionPoint@?$IConnectionPointContainerImpl@VCOPOSSoundPlayer@@@ATL@@UEAAJAEBU_GUID@@PEAPEAUIConnectionPoint@@@Z 0000000180013e50 f i SoundPlayer.obj
 0001:00012fc0       ?FindKey@?$CSimpleMap@PEA_WPEA_WVCExpansionVectorEqualHelper@ATL@@@ATL@@QEBAHAEBQEA_W@Z 0000000180013fc0 f i SoundPlayer.obj
 0001:00013030       ?FireTheEvent@?$CProxy_IOPOSEvents@VCOPOSSoundPlayer@@@@IEAAXPEAUIUnknown@@PEAVOposVariant@@IAEAJPEB_WJ@Z 0000000180014030 f i SoundPlayer.obj
 0001:00013210       ?FireViewChange@CComControlBase@ATL@@QEAAJXZ 0000000180014210 f i SoundPlayer.obj
 0001:000132e0       ?Fire_DirectIOEvent@?$CProxy_IOPOSEvents@VCOPOSSoundPlayer@@@@QEAAXJPEAJPEAPEA_W@Z 00000001800142e0 f i SoundPlayer.obj
 0001:00013580       ?Fire_ErrorEvent@?$CProxy_IOPOSEvents@VCOPOSSoundPlayer@@@@QEAAXJJJPEAJ@Z 0000000180014580 f i SoundPlayer.obj
 0001:00013830       ?Fire_OutputCompleteEvent@?$CProxy_IOPOSEvents@VCOPOSSoundPlayer@@@@QEAAXJ@Z 0000000180014830 f i SoundPlayer.obj
 0001:00013a20       ?Fire_StatusUpdateEvent@?$CProxy_IOPOSEvents@VCOPOSSoundPlayer@@@@QEAAXJ@Z 0000000180014a20 f i SoundPlayer.obj
 0001:00013c10       ?FormatWindowClassName@AtlModuleRegisterWndClassInfoParamW@ATL@@SAXPEA_WKPEAX@Z 0000000180014c10 f i SoundPlayer.obj
 0001:00013c50       ?Free@?$CAutoVectorPtr@_W@ATL@@QEAAXXZ 0000000180014c50 f i SoundPlayer.obj
 0001:00013c90       ?FreeHeap@?$CTempBuffer@E$0BAA@VCCRTAllocator@ATL@@@ATL@@AEAAXXZ 0000000180014c90 f i SoundPlayer.obj
 0001:00013cb0       ?FreeHeap@?$CTempBuffer@_W$0BAA@VCCRTAllocator@ATL@@@ATL@@AEAAXXZ 0000000180014cb0 f i SoundPlayer.obj
 0001:00013cd0       ?FreeHeap@?$CTempBuffer@_W$0EAA@VCCRTAllocator@ATL@@@ATL@@AEAAXXZ 0000000180014cd0 f i SoundPlayer.obj
 0001:00013cf0       ?Freeze@?$IViewObjectExImpl@VCOPOSSoundPlayer@@@ATL@@UEAAJKJPEAXPEAK@Z 0000000180014cf0 f i SoundPlayer.obj
 0001:00013d70       ?GenerateError@CRegParser@ATL@@IEAAJI@Z 0000000180014d70 f i SoundPlayer.obj
 0001:00013d90       ?GetAdvise@?$IViewObjectExImpl@VCOPOSSoundPlayer@@@ATL@@UEAAJPEAK0PEAPEAUIAdviseSink@@@Z 0000000180014d90 f i SoundPlayer.obj
 0001:00013ed0       ?GetAmbientLocaleID@CComControlBase@ATL@@QEAAJAEAK@Z 0000000180014ed0 f i SoundPlayer.obj
 0001:00013fb0       ?GetAmbientProperty@CComControlBase@ATL@@QEAAJJAEAUtagVARIANT@@@Z 0000000180014fb0 f i SoundPlayer.obj
 0001:00014000       ?GetAmbientUserMode@CComControlBase@ATL@@QEAAJAEAH@Z 0000000180015000 f i SoundPlayer.obj
 0001:00014120       ?GetAppId@?$CAtlModuleT@VCComModule@ATL@@@ATL@@SAPEB_WXZ 0000000180015120 f i SoundPlayer.obj
 0001:00014130       ?GetAt@CComDynamicUnkArray@ATL@@QEAAPEAUIUnknown@@H@Z 0000000180015130 f i SoundPlayer.obj
 0001:000141c0       ?GetCanonicalFormatEtc@?$IDataObjectImpl@VCOPOSSoundPlayer@@@ATL@@UEAAJPEAUtagFORMATETC@@0@Z 00000001800151c0 f i SoundPlayer.obj
 0001:00014240       ?GetClassID@?$IPersistStorageImpl@VCOPOSSoundPlayer@@@ATL@@UEAAJPEAU_GUID@@@Z 0000000180015240 f i SoundPlayer.obj
 0001:000142c0       ?GetClassID@?$IPersistStreamInitImpl@VCOPOSSoundPlayer@@@ATL@@UEAAJPEAU_GUID@@@Z 00000001800152c0 f i SoundPlayer.obj
 0001:00014340       ?GetClassInfoExW@AtlModuleRegisterWndClassInfoParamW@ATL@@SAHPEAUHINSTANCE__@@PEB_WPEAUtagWNDCLASSEXW@@@Z 0000000180015340 f i SoundPlayer.obj
 0001:00014370       ?GetClassInfoW@?$IProvideClassInfo2Impl@$1?CLSID_OPOSSoundPlayer@@3U_GUID@@B$1?DIID__IOPOSSoundPlayerEvents@@3U2@B$1?LIBID_OposSoundPlayer_CCO@@3U2@B$00$0A@VCComTypeInfoHolder@ATL@@@ATL@@UEAAJPEAPEAUITypeInfo@@@Z 0000000180015370 f i SoundPlayer.obj
 0001:000143a0       ?GetClassObject@CComModule@ATL@@QEAAJAEBU_GUID@@0PEAPEAX@Z 00000001800153a0 f i SoundPlayer.obj
 0001:00014610       ?GetClientSite@?$IOleObjectImpl@VCOPOSSoundPlayer@@@ATL@@UEAAJPEAPEAUIOleClientSite@@@Z 0000000180015610 f i SoundPlayer.obj
 0001:000146b0       ?GetClipboardData@?$IOleObjectImpl@VCOPOSSoundPlayer@@@ATL@@UEAAJKPEAPEAUIDataObject@@@Z 00000001800156b0 f i SoundPlayer.obj
 0001:00014730       ?GetCodeAddress@CDynamicStdCallThunk2@ATL@@QEAAPEAXXZ 0000000180015730 f i SoundPlayer.obj
 0001:00014750       ?GetColorSet@?$IViewObjectExImpl@VCOPOSSoundPlayer@@@ATL@@UEAAJKJPEAXPEAUtagDVTARGETDEVICE@@PEAUHDC__@@PEAPEAUtagLOGPALETTE@@@Z 0000000180015750 f i SoundPlayer.obj
 0001:000147d0       ?GetConnMap@COPOSSoundPlayer@@SAPEBU_ATL_CONNMAP_ENTRY@ATL@@PEAH@Z 00000001800157d0 f i SoundPlayer.obj
 0001:00014920       ?GetConnectionInterface@?$IConnectionPointImpl@VCOPOSSoundPlayer@@$1?DIID__IOPOSSoundPlayerEvents@@3U_GUID@@BVCComDynamicUnkArray@ATL@@@ATL@@UEAAJPEAU_GUID@@@Z 0000000180015920 f i SoundPlayer.obj
 0001:00014960       ?GetConnectionInterface@?$IConnectionPointImpl@VCOPOSSoundPlayer@@$1?IID_IPropertyNotifySink@@3U_GUID@@BVCComDynamicUnkArray@ATL@@@ATL@@UEAAJPEAU_GUID@@@Z 0000000180015960 f i SoundPlayer.obj
 0001:000149a0       ?GetConnectionPointContainer@?$IConnectionPointImpl@VCOPOSSoundPlayer@@$1?DIID__IOPOSSoundPlayerEvents@@3U_GUID@@BVCComDynamicUnkArray@ATL@@@ATL@@UEAAJPEAPEAUIConnectionPointContainer@@@Z 00000001800159a0 f i SoundPlayer.obj
 0001:00014a00       ?GetConnectionPointContainer@?$IConnectionPointImpl@VCOPOSSoundPlayer@@$1?IID_IPropertyNotifySink@@3U_GUID@@BVCComDynamicUnkArray@ATL@@@ATL@@UEAAJPEAPEAUIConnectionPointContainer@@@Z 0000000180015a00 f i SoundPlayer.obj
 0001:00014a60       ?GetContentExtent@?$IQuickActivateImpl@VCOPOSSoundPlayer@@@ATL@@UEAAJPEAUtagSIZE@@@Z 0000000180015a60 f i SoundPlayer.obj
 0001:00014b10       ?GetControlInfo@?$IOleControlImpl@VCOPOSSoundPlayer@@@ATL@@UEAAJPEAUtagCONTROLINFO@@@Z 0000000180015b10 f i SoundPlayer.obj
 0001:00014b80       ?GetCookie@CComDynamicUnkArray@ATL@@QEAAKPEAPEAUIUnknown@@@Z 0000000180015b80 f i SoundPlayer.obj
 0001:00014c60       ?GetData@?$IDataObjectImpl@VCOPOSSoundPlayer@@@ATL@@UEAAJPEAUtagFORMATETC@@PEAUtagSTGMEDIUM@@@Z 0000000180015c60 f i SoundPlayer.obj
 0001:00014d10       ?GetData@CAtlSafeAllocBufferNode@?$CAtlSafeAllocBufferManager@VCCRTAllocator@ATL@@@_ATL_SAFE_ALLOCA_IMPL@ATL@@QEAAPEAXXZ 0000000180015d10 f i SoundPlayer.obj
 0001:00014d30       ?GetDataHere@?$IDataObjectImpl@VCOPOSSoundPlayer@@@ATL@@UEAAJPEAUtagFORMATETC@@PEAUtagSTGMEDIUM@@@Z 0000000180015d30 f i SoundPlayer.obj
 0001:00014db0       ?GetDropTarget@?$IOleInPlaceObjectWindowlessImpl@VCOPOSSoundPlayer@@@ATL@@UEAAJPEAPEAUIDropTarget@@@Z 0000000180015db0 f i SoundPlayer.obj
 0001:00014e20       ?GetExtent@?$IOleObjectImpl@VCOPOSSoundPlayer@@@ATL@@UEAAJKPEAUtagSIZE@@@Z 0000000180015e20 f i SoundPlayer.obj
 0001:00014ee0       ?GetExtent@?$IViewObjectExImpl@VCOPOSSoundPlayer@@@ATL@@UEAAJKJPEAUtagDVTARGETDEVICE@@PEAUtagSIZE@@@Z 0000000180015ee0 f i SoundPlayer.obj
 0001:00014fe0       ?GetGITPtr@CAtlModule@ATL@@UEAAJPEAPEAUIGlobalInterfaceTable@@@Z 0000000180015fe0 f i SoundPlayer.obj
 0001:00015110       ?GetGUID@?$IProvideClassInfo2Impl@$1?CLSID_OPOSSoundPlayer@@3U_GUID@@B$1?DIID__IOPOSSoundPlayerEvents@@3U2@B$1?LIBID_OposSoundPlayer_CCO@@3U2@B$00$0A@VCComTypeInfoHolder@ATL@@@ATL@@UEAAJKPEAU_GUID@@@Z 0000000180016110 f i SoundPlayer.obj
 0001:00015190       ?GetIDsOfNames@?$IDispatchImpl@UIOPOSSoundPlayer@@$1?IID_IOPOSSoundPlayer@@3U_GUID@@B$1?LIBID_OposSoundPlayer_CCO@@3U3@B$00$0A@VCComTypeInfoHolder@ATL@@@ATL@@UEAAJAEBU_GUID@@PEAPEA_WIKPEAJ@Z 0000000180016190 f i SoundPlayer.obj
 0001:000151e0       ?GetIDsOfNames@CComTypeInfoHolder@ATL@@QEAAJAEBU_GUID@@PEAPEA_WIKPEAJ@Z 00000001800161e0 f i SoundPlayer.obj
 0001:000153f0       ?GetInterfaceSafetyOptions@?$IObjectSafetyImpl@VCOPOSSoundPlayer@@$02@ATL@@UEAAJAEBU_GUID@@PEAK1@Z 00000001800163f0 f i SoundPlayer.obj
 0001:00015590       ?GetKeyAt@?$CSimpleMap@PEA_WPEA_WVCExpansionVectorEqualHelper@ATL@@@ATL@@QEBAAEAPEA_WH@Z 0000000180016590 f i SoundPlayer.obj
 0001:00015630       ?GetLockCount@CAtlModule@ATL@@UEAAJXZ 0000000180016630 f i SoundPlayer.obj
 0001:00015640       ?GetMiscStatus@?$IOleObjectImpl@VCOPOSSoundPlayer@@@ATL@@UEAAJKPEAK@Z 0000000180016640 f i SoundPlayer.obj
 0001:000156c0       ?GetMoniker@?$IOleObjectImpl@VCOPOSSoundPlayer@@@ATL@@UEAAJKKPEAPEAUIMoniker@@@Z 00000001800166c0 f i SoundPlayer.obj
 0001:00015740       ?GetNaturalExtent@?$IViewObjectExImpl@VCOPOSSoundPlayer@@@ATL@@UEAAJKJPEAUtagDVTARGETDEVICE@@PEAUHDC__@@PEAUtagExtentInfo@@PEAUtagSIZE@@@Z 0000000180016740 f i SoundPlayer.obj
 0001:000158c0       ?GetObjectCLSID@?$CComCoClass@VCOPOSSoundPlayer@@$1?CLSID_OPOSSoundPlayer@@3U_GUID@@B@ATL@@SAAEBU_GUID@@XZ 00000001800168c0 f i SoundPlayer.obj
 0001:000158d0       ?GetPages@?$ISpecifyPropertyPagesImpl@VCOPOSSoundPlayer@@@ATL@@UEAAJPEAUtagCAUUID@@@Z 00000001800168d0 f i SoundPlayer.obj
 0001:00015950       ?GetPagesHelper@?$ISpecifyPropertyPagesImpl@VCOPOSSoundPlayer@@@ATL@@IEAAJPEAUtagCAUUID@@PEBUATL_PROPMAP_ENTRY@2@@Z 0000000180016950 f i SoundPlayer.obj
 0001:00015bb0       ?GetProperty@?$CComPtr@UIDispatch@@@ATL@@QEAAJJPEAUtagVARIANT@@@Z 0000000180016bb0 f i SoundPlayer.obj
 0001:00015be0       ?GetProperty@?$CComPtr@UIDispatch@@@ATL@@SAJPEAUIDispatch@@JPEAUtagVARIANT@@@Z 0000000180016be0 f i SoundPlayer.obj
 0001:00015db0       ?GetPropertyMap@COPOSSoundPlayer@@SAPEBUATL_PROPMAP_ENTRY@ATL@@XZ 0000000180016db0 f i SoundPlayer.obj
 0001:00015dc0       ?GetRect@?$IViewObjectExImpl@VCOPOSSoundPlayer@@@ATL@@UEAAJKPEAU_RECTL@@@Z 0000000180016dc0 f i SoundPlayer.obj
 0001:00015e40       ?GetSize@?$CSimpleMap@PEA_WPEA_WVCExpansionVectorEqualHelper@ATL@@@ATL@@QEBAHXZ 0000000180016e40 f i SoundPlayer.obj
 0001:00015e50       ?GetSize@CComDynamicUnkArray@ATL@@QEBAHXZ 0000000180016e50 f i SoundPlayer.obj
 0001:00015e60       ?GetSizeMax@?$IPersistStreamInitImpl@VCOPOSSoundPlayer@@@ATL@@UEAAJPEAT_ULARGE_INTEGER@@@Z 0000000180016e60 f i SoundPlayer.obj
 0001:00016600       ?GetSizeMax@CComVariant@ATL@@QEBAJPEAT_ULARGE_INTEGER@@@Z 0000000180017600 f i SoundPlayer.obj
 0001:00016a50       ?GetStreamSize@CComBSTR@ATL@@SAKPEA_W@Z 0000000180017a50 f i SoundPlayer.obj
 0001:00016a90       ?GetTI@CComTypeInfoHolder@ATL@@QEAAJK@Z 0000000180017a90 f i SoundPlayer.obj
 0001:00017360       ?GetTI@CComTypeInfoHolder@ATL@@QEAAJKPEAPEAUITypeInfo@@@Z 0000000180018360 f i SoundPlayer.obj
 0001:00017440       ?GetTypeInfo@?$IDispatchImpl@UIOPOSSoundPlayer@@$1?IID_IOPOSSoundPlayer@@3U_GUID@@B$1?LIBID_OposSoundPlayer_CCO@@3U3@B$00$0A@VCComTypeInfoHolder@ATL@@@ATL@@UEAAJIKPEAPEAUITypeInfo@@@Z 0000000180018440 f i SoundPlayer.obj
 0001:00017480       ?GetTypeInfo@CComTypeInfoHolder@ATL@@QEAAJIKPEAPEAUITypeInfo@@@Z 0000000180018480 f i SoundPlayer.obj
 0001:000174c0       ?GetTypeInfoCount@?$IDispatchImpl@UIOPOSSoundPlayer@@$1?IID_IOPOSSoundPlayer@@3U_GUID@@B$1?LIBID_OposSoundPlayer_CCO@@3U3@B$00$0A@VCComTypeInfoHolder@ATL@@@ATL@@UEAAJPEAI@Z 00000001800184c0 f i SoundPlayer.obj
 0001:000174f0       ?GetUnknown@CComDynamicUnkArray@ATL@@QEAAPEAUIUnknown@@K@Z 00000001800184f0 f i SoundPlayer.obj
 0001:00017580       ?GetUnknown@COPOSSoundPlayer@@QEAAPEAUIUnknown@@XZ 0000000180018580 f i SoundPlayer.obj
 0001:000175a0       ?GetUserClassID@?$IOleObjectImpl@VCOPOSSoundPlayer@@@ATL@@UEAAJPEAU_GUID@@@Z 00000001800185a0 f i SoundPlayer.obj
 0001:00017660       ?GetUserType@?$IOleObjectImpl@VCOPOSSoundPlayer@@@ATL@@UEAAJKPEAPEA_W@Z 0000000180018660 f i SoundPlayer.obj
 0001:000176e0       ?GetValueAt@?$CSimpleMap@PEA_WPEA_WVCExpansionVectorEqualHelper@ATL@@@ATL@@QEBAAEAPEA_WH@Z 00000001800186e0 f i SoundPlayer.obj
 0001:00017780       ?GetViewStatus@?$IViewObjectExImpl@VCOPOSSoundPlayer@@@ATL@@UEAAJPEAK@Z 0000000180018780 f i SoundPlayer.obj
 0001:00017870       ?GetWNDPROC@CWndProcThunk@ATL@@QEAAP6A_JPEAUHWND__@@I_K_J@ZXZ 0000000180018870 f i SoundPlayer.obj
 0001:000178a0       ?GetWindow@?$IOleInPlaceActiveObjectImpl@VCOPOSSoundPlayer@@@ATL@@UEAAJPEAPEAUHWND__@@@Z 00000001800188a0 f i SoundPlayer.obj
 0001:00017990       ?GetWindow@?$IOleInPlaceObjectWindowlessImpl@VCOPOSSoundPlayer@@@ATL@@UEAAJPEAPEAUHWND__@@@Z 0000000180018990 f i SoundPlayer.obj
 0001:00017a80       ?GetWindowProc@?$CWindowImplBaseT@VCWindow@ATL@@V?$CWinTraits@$0FGAAAAAA@$0A@@2@@ATL@@UEAAP6A_JPEAUHWND__@@I_K_J@ZXZ 0000000180018a80 f i SoundPlayer.obj
 0001:00017a90       ?GetWndCaption@?$CWindowImpl@VCOPOSSoundPlayer@@VCWindow@ATL@@V?$CWinTraits@$0FGAAAAAA@$0A@@3@@ATL@@SAPEB_WXZ 0000000180018a90 f i SoundPlayer.obj
 0001:00017aa0       ?GetWndClassInfo@?$CWindowImpl@VCOPOSSoundPlayer@@VCWindow@ATL@@V?$CWinTraits@$0FGAAAAAA@$0A@@3@@ATL@@SAAEAU_ATL_WNDCLASSINFOW@2@XZ 0000000180018aa0 f i SoundPlayer.obj
 0001:00017ab0       ?GetWndClassName@CWindow@ATL@@SAPEB_WXZ 0000000180018ab0 f i SoundPlayer.obj
 0001:00017ac0       ?GetWndExStyle@?$CWinTraits@$0FGAAAAAA@$0A@@ATL@@SAKK@Z 0000000180018ac0 f i SoundPlayer.obj
 0001:00017af0       ?GetWndExStyle@?$CWindowImplBaseT@VCWindow@ATL@@V?$CWinTraits@$0FGAAAAAA@$0A@@2@@ATL@@SAKK@Z 0000000180018af0 f i SoundPlayer.obj
 0001:00017b10       ?GetWndStyle@?$CWinTraits@$0FGAAAAAA@$0A@@ATL@@SAKK@Z 0000000180018b10 f i SoundPlayer.obj
 0001:00017b40       ?GetWndStyle@?$CWindowImplBaseT@VCWindow@ATL@@V?$CWinTraits@$0FGAAAAAA@$0A@@2@@ATL@@SAKK@Z 0000000180018b40 f i SoundPlayer.obj
 0001:00017b60       ?GetZoomInfo@CComControlBase@ATL@@QEAAXAEAUATL_DRAWINFO@@@Z 0000000180018b60 f i SoundPlayer.obj
 0001:00017d10       ?HKeyFromString@CRegParser@ATL@@KAPEAUHKEY__@@PEA_W@Z 0000000180018d10 f i SoundPlayer.obj
 0001:00017d80       ?HandsOffStorage@?$IPersistStorageImpl@VCOPOSSoundPlayer@@@ATL@@UEAAJXZ 0000000180018d80 f i SoundPlayer.obj
 0001:00017de0       ?HasSubKeys@CRegParser@ATL@@IEAAHPEAUHKEY__@@@Z 0000000180018de0 f i SoundPlayer.obj
 0001:00017f50       ?IDataObject_GetData@CComControlBase@ATL@@QEAAJPEAUtagFORMATETC@@PEAUtagSTGMEDIUM@@@Z 0000000180018f50 f i SoundPlayer.obj
 0001:00018400       ?IOleInPlaceObject_InPlaceDeactivate@CComControlBase@ATL@@QEAAJXZ 0000000180019400 f i SoundPlayer.obj
 0001:00018670       ?IOleInPlaceObject_SetObjectRects@CComControlBase@ATL@@QEAAJPEBUtagRECT@@0@Z 0000000180019670 f i SoundPlayer.obj
 0001:00018860       ?IOleInPlaceObject_UIDeactivate@CComControlBase@ATL@@QEAAJXZ 0000000180019860 f i SoundPlayer.obj
 0001:00018ad0       ?IOleObject_Advise@CComControlBase@ATL@@QEAAJPEAUIAdviseSink@@PEAK@Z 0000000180019ad0 f i SoundPlayer.obj
 0001:00018b70       ?IOleObject_Close@CComControlBase@ATL@@QEAAJK@Z 0000000180019b70 f i SoundPlayer.obj
 0001:00018ee0       ?IOleObject_GetClientSite@CComControlBase@ATL@@QEAAJPEAPEAUIOleClientSite@@@Z 0000000180019ee0 f i SoundPlayer.obj
 0001:00018fa0       ?IOleObject_SetClientSite@CComControlBase@ATL@@QEAAJPEAUIOleClientSite@@@Z 0000000180019fa0 f i SoundPlayer.obj
 0001:000190a0       ?IOleObject_SetExtent@CComControlBase@ATL@@QEAAJKPEAUtagSIZE@@@Z 000000018001a0a0 f i SoundPlayer.obj
 0001:000191f0       ?IPSI_GetIPersistStreamInit@?$IPersistStorageImpl@VCOPOSSoundPlayer@@@ATL@@AEAAPEAUIPersistStreamInit@@XZ 000000018001a1f0 f i SoundPlayer.obj
 0001:000192b0       ?IPersistStreamInit_Load@?$IPersistStreamInitImpl@VCOPOSSoundPlayer@@@ATL@@QEAAJPEAUIStream@@PEBUATL_PROPMAP_ENTRY@2@@Z 000000018001a2b0 f i SoundPlayer.obj
 0001:00019340       ?IPersistStreamInit_Save@?$IPersistStreamInitImpl@VCOPOSSoundPlayer@@@ATL@@QEAAJPEAUIStream@@HPEBUATL_PROPMAP_ENTRY@2@@Z 000000018001a340 f i SoundPlayer.obj
 0001:000193e0       ?IQuickActivate_QuickActivate@CComControlBase@ATL@@QEAAJPEAUtagQACONTAINER@@PEAUtagQACONTROL@@@Z 000000018001a3e0 f i SoundPlayer.obj
 0001:00019c20       ?IViewObject_Draw@CComControlBase@ATL@@QEAAJKJPEAXPEAUtagDVTARGETDEVICE@@PEAUHDC__@@2PEBU_RECTL@@3@Z 000000018001ac20 f i SoundPlayer.obj
 0001:0001a070       ?InPlaceActivate@CComControlBase@ATL@@QEAAJJPEBUtagRECT@@@Z 000000018001b070 f i SoundPlayer.obj
 0001:0001ac10       ?InPlaceDeactivate@?$IOleInPlaceObjectWindowlessImpl@VCOPOSSoundPlayer@@@ATL@@UEAAJXZ 000000018001bc10 f i SoundPlayer.obj
 0001:0001aca0       ?Increment@CComMultiThreadModel@ATL@@SAKPEAJ@Z 000000018001bca0 f i SoundPlayer.obj
 0001:0001acc0       ?Increment@CComSingleThreadModel@ATL@@SAKPEAJ@Z 000000018001bcc0 f i SoundPlayer.obj
 0001:0001ace0       ?Init@?$CComEnumImpl@UIEnumConnectionPoints@@$1?_GUID_b196b285_bab4_101a_b69c_00aa00341d07@@3U__s_GUID@@BPEAUIConnectionPoint@@V?$_CopyInterface@UIConnectionPoint@@@ATL@@@ATL@@QEAAJPEAPEAUIConnectionPoint@@0PEAUIUnknown@@W4CComEnumFlags@2@@Z 000000018001bce0 f i SoundPlayer.obj
 0001:0001afc0       ?Init@?$CComEnumImpl@UIEnumConnections@@$1?_GUID_b196b287_bab4_101a_b69c_00aa00341d07@@3U__s_GUID@@BUtagCONNECTDATA@@V?$_Copy@UtagCONNECTDATA@@@ATL@@@ATL@@QEAAJPEAUtagCONNECTDATA@@0PEAUIUnknown@@W4CComEnumFlags@2@@Z 000000018001bfc0 f i SoundPlayer.obj
 0001:0001b2a0       ?Init@CComFakeCriticalSection@ATL@@QEAAJXZ 000000018001c2a0 f i SoundPlayer.obj
 0001:0001b2b0       ?Init@CComModule@ATL@@QEAAJPEAU_ATL_OBJMAP_ENTRY30@2@PEAUHINSTANCE__@@PEBU_GUID@@@Z 000000018001c2b0 f i SoundPlayer.obj
 0001:0001b390       ?Init@CComSafeDeleteCriticalSection@ATL@@QEAAJXZ 000000018001c390 f i SoundPlayer.obj
 0001:0001b410       ?Init@CDynamicStdCallThunk2@ATL@@QEAAH_KPEAX@Z 000000018001c410 f i SoundPlayer.obj
 0001:0001b470       ?Init@CWndProcThunk@ATL@@QEAAHP6A_JPEAUHWND__@@I_K_J@ZPEAX@Z 000000018001c470 f i SoundPlayer.obj
 0001:0001b4b0       ?InitFromData@?$IOleObjectImpl@VCOPOSSoundPlayer@@@ATL@@UEAAJPEAUIDataObject@@HK@Z 000000018001c4b0 f i SoundPlayer.obj
 0001:0001b530       ?InitLibId@?$CAtlModuleT@VCComModule@ATL@@@ATL@@SAXXZ 000000018001c530 f i SoundPlayer.obj
 0001:0001b540       ?InitNew@?$IPersistStorageImpl@VCOPOSSoundPlayer@@@ATL@@UEAAJPEAUIStorage@@@Z 000000018001c540 f i SoundPlayer.obj
 0001:0001b630       ?InitNew@?$IPersistStreamInitImpl@VCOPOSSoundPlayer@@@ATL@@UEAAJXZ 000000018001c630 f i SoundPlayer.obj
 0001:0001b6d0       ?InlineIsEqualUnknown@ATL@@YAHAEBU_GUID@@@Z 000000018001c6d0 f i SoundPlayer.obj
 0001:0001b750       ?InternalAddRef@?$CComObjectRootEx@VCComMultiThreadModel@ATL@@@ATL@@QEAAKXZ 000000018001c750 f i SoundPlayer.obj
 0001:0001b7c0       ?InternalAddRef@?$CComObjectRootEx@VCComSingleThreadModel@ATL@@@ATL@@QEAAKXZ 000000018001c7c0 f i SoundPlayer.obj
 0001:0001b830       ?InternalFinalConstructAddRef@CComObjectRootBase@ATL@@QEAAXXZ 000000018001c830 f i SoundPlayer.obj
 0001:0001b840       ?InternalFinalConstructAddRef@COPOSSoundPlayer@@QEAAXXZ 000000018001c840 f i SoundPlayer.obj
 0001:0001b870       ?InternalFinalConstructRelease@CComObjectRootBase@ATL@@QEAAXXZ 000000018001c870 f i SoundPlayer.obj
 0001:0001b8d0       ?InternalFinalConstructRelease@COPOSSoundPlayer@@QEAAXXZ 000000018001c8d0 f i SoundPlayer.obj
 0001:0001b900       ?InternalGetSite@CComControlBase@ATL@@QEAAJAEBU_GUID@@PEAPEAX@Z 000000018001c900 f i SoundPlayer.obj
 0001:0001b9d0       ?InternalQueryInterface@CComObjectRootBase@ATL@@SAJPEAXPEBU_ATL_INTMAP_ENTRY@2@AEBU_GUID@@PEAPEAX@Z 000000018001c9d0 f i SoundPlayer.obj
 0001:0001bae0       ?InternalRelease@?$CComObjectRootEx@VCComMultiThreadModel@ATL@@@ATL@@QEAAKXZ 000000018001cae0 f i SoundPlayer.obj
 0001:0001bb50       ?InternalRelease@?$CComObjectRootEx@VCComSingleThreadModel@ATL@@@ATL@@QEAAKXZ 000000018001cb50 f i SoundPlayer.obj
 0001:0001bbc0       ?InternalSetAtIndex@?$CSimpleArray@GV?$CSimpleArrayEqualHelper@G@ATL@@@ATL@@QEAAXHAEBG@Z 000000018001cbc0 f i SoundPlayer.obj
 0001:0001bc30       ?InternalSetAtIndex@?$CSimpleMap@PEA_WPEA_WVCExpansionVectorEqualHelper@ATL@@@ATL@@QEAAXHAEBQEA_W0@Z 000000018001cc30 f i SoundPlayer.obj
 0001:0001bcf0       ?Invoke@?$IDispatchImpl@UIOPOSSoundPlayer@@$1?IID_IOPOSSoundPlayer@@3U_GUID@@B$1?LIBID_OposSoundPlayer_CCO@@3U3@B$00$0A@VCComTypeInfoHolder@ATL@@@ATL@@UEAAJJAEBU_GUID@@KGPEAUtagDISPPARAMS@@PEAUtagVARIANT@@PEAUtagEXCEPINFO@@PEAI@Z 000000018001ccf0 f i SoundPlayer.obj
 0001:0001bd80       ?Invoke@CComTypeInfoHolder@ATL@@QEAAJPEAUIDispatch@@JAEBU_GUID@@KGPEAUtagDISPPARAMS@@PEAUtagVARIANT@@PEAUtagEXCEPINFO@@PEAI@Z 000000018001cd80 f i SoundPlayer.obj
 0001:0001be30       ?IsDirty@?$IPersistStorageImpl@VCOPOSSoundPlayer@@@ATL@@UEAAJXZ 000000018001ce30 f i SoundPlayer.obj
 0001:0001bf20       ?IsDirty@?$IPersistStreamInitImpl@VCOPOSSoundPlayer@@@ATL@@UEAAJXZ 000000018001cf20 f i SoundPlayer.obj
 0001:0001bfd0       ?IsEqualKey@CExpansionVectorEqualHelper@ATL@@SA_NQEA_W0@Z 000000018001cfd0 f i SoundPlayer.obj
 0001:0001c000       ?IsEqualObject@?$CComPtrBase@UIOleClientSite@@@ATL@@QEAA_NPEAUIUnknown@@@Z 000000018001d000 f i SoundPlayer.obj
 0001:0001c150       ?IsEqualObject@?$CComPtrBase@UITypeInfo@@@ATL@@QEAA_NPEAUIUnknown@@@Z 000000018001d150 f i SoundPlayer.obj
 0001:0001c2a0       ?IsSpace@CRegParser@ATL@@IEAAH_W@Z 000000018001d2a0 f i SoundPlayer.obj
 0001:0001c2e0       ?IsUpToDate@?$IOleObjectImpl@VCOPOSSoundPlayer@@@ATL@@UEAAJXZ 000000018001d2e0 f i SoundPlayer.obj
 0001:0001c340       ?Length@CComBSTR@ATL@@QEBAIXZ 000000018001d340 f i SoundPlayer.obj
 0001:0001c360       ?Load@?$IPersistStorageImpl@VCOPOSSoundPlayer@@@ATL@@UEAAJPEAUIStorage@@@Z 000000018001d360 f i SoundPlayer.obj
 0001:0001c510       ?Load@?$IPersistStreamInitImpl@VCOPOSSoundPlayer@@@ATL@@UEAAJPEAUIStream@@@Z 000000018001d510 f i SoundPlayer.obj
 0001:0001c5c0       ?LoadCursorW@AtlModuleRegisterWndClassInfoParamW@ATL@@SAPEAUHICON__@@PEAUHINSTANCE__@@PEB_W@Z 000000018001d5c0 f i SoundPlayer.obj
 0001:0001c5f0       ?LoadNameCache@CComTypeInfoHolder@ATL@@QEAAJPEAUITypeInfo@@@Z 000000018001d5f0 f i SoundPlayer.obj
 0001:0001c930       ?Lock@?$CComCritSecLock@VCComCriticalSection@ATL@@@ATL@@QEAAJXZ 000000018001d930 f i SoundPlayer.obj
 0001:0001ca00       ?Lock@?$CComObjectRootEx@VCComSingleThreadModel@ATL@@@ATL@@QEAAXXZ 000000018001da00 f i SoundPlayer.obj
 0001:0001ca10       ?Lock@CAtlModule@ATL@@UEAAJXZ 000000018001da10 f i SoundPlayer.obj
 0001:0001ca40       ?Lock@CComCriticalSection@ATL@@QEAAJXZ 000000018001da40 f i SoundPlayer.obj
 0001:0001ca60       ?Lock@CComFakeCriticalSection@ATL@@QEAAJXZ 000000018001da60 f i SoundPlayer.obj
 0001:0001ca70       ?LockServer@CComClassFactory@ATL@@UEAAJH@Z 000000018001da70 f i SoundPlayer.obj
 0001:0001cac0       ?Lookup@?$CSimpleMap@PEA_WPEA_WVCExpansionVectorEqualHelper@ATL@@@ATL@@QEBAPEA_WAEBQEA_W@Z 000000018001dac0 f i SoundPlayer.obj
 0001:0001cb10       ?Next@?$CComEnumImpl@UIEnumConnectionPoints@@$1?_GUID_b196b285_bab4_101a_b69c_00aa00341d07@@3U__s_GUID@@BPEAUIConnectionPoint@@V?$_CopyInterface@UIConnectionPoint@@@ATL@@@ATL@@UEAAJKPEAPEAUIConnectionPoint@@PEAK@Z 000000018001db10 f i SoundPlayer.obj
 0001:0001ccc0       ?Next@?$CComEnumImpl@UIEnumConnections@@$1?_GUID_b196b287_bab4_101a_b69c_00aa00341d07@@3U__s_GUID@@BUtagCONNECTDATA@@V?$_Copy@UtagCONNECTDATA@@@ATL@@@ATL@@UEAAJKPEAUtagCONNECTDATA@@PEAK@Z 000000018001dcc0 f i SoundPlayer.obj
 0001:0001ce70       ?NextToken@CRegParser@ATL@@IEAAJPEA_W@Z 000000018001de70 f i SoundPlayer.obj
 0001:0001d1f0       ?OLE2CT_EX@@YAPEB_WPEB_WI@Z 000000018001e1f0 f i SoundPlayer.obj
 0001:0001d210       ?OLE2CT_EX_DEF@@YAPEB_WPEB_W@Z 000000018001e210 f i SoundPlayer.obj
 0001:0001d220       ?OLE2T_EX@@YAPEA_WPEA_WI@Z 000000018001e220 f i SoundPlayer.obj
 0001:0001d240       ?OnAmbientPropertyChange@?$IOleControlImpl@VCOPOSSoundPlayer@@@ATL@@UEAAJJ@Z 000000018001e240 f i SoundPlayer.obj
 0001:0001d2f0       ?OnDocWindowActivate@?$IOleInPlaceActiveObjectImpl@VCOPOSSoundPlayer@@@ATL@@UEAAJH@Z 000000018001e2f0 f i SoundPlayer.obj
 0001:0001d390       ?OnDrawAdvanced@CComControlBase@ATL@@UEAAJAEAUATL_DRAWINFO@@@Z 000000018001e390 f i SoundPlayer.obj
 0001:0001d5e0       ?OnFinalMessage@?$CWindowImplBaseT@VCWindow@ATL@@V?$CWinTraits@$0FGAAAAAA@$0A@@2@@ATL@@UEAAXPEAUHWND__@@@Z 000000018001e5e0 f i SoundPlayer.obj
 0001:0001d5f0       ?OnFrameWindowActivate@?$IOleInPlaceActiveObjectImpl@VCOPOSSoundPlayer@@@ATL@@UEAAJH@Z 000000018001e5f0 f i SoundPlayer.obj
 0001:0001d650       ?OnKillFocus@CComControlBase@ATL@@QEAA_JI_K_JAEAH@Z 000000018001e650 f i SoundPlayer.obj
 0001:0001d750       ?OnMnemonic@?$IOleControlImpl@VCOPOSSoundPlayer@@@ATL@@UEAAJPEAUtagMSG@@@Z 000000018001e750 f i SoundPlayer.obj
 0001:0001d7c0       ?OnMouseActivate@CComControlBase@ATL@@QEAA_JI_K_JAEAH@Z 000000018001e7c0 f i SoundPlayer.obj
 0001:0001d960       ?OnPaint@CComControlBase@ATL@@QEAA_JI_K_JAEAH@Z 000000018001e960 f i SoundPlayer.obj
 0001:0001daf0       ?OnPostVerbDiscardUndo@?$IOleObjectImpl@VCOPOSSoundPlayer@@@ATL@@QEAAJXZ 000000018001eaf0 f i SoundPlayer.obj
 0001:0001db00       ?OnPostVerbHide@?$IOleObjectImpl@VCOPOSSoundPlayer@@@ATL@@QEAAJXZ 000000018001eb00 f i SoundPlayer.obj
 0001:0001db10       ?OnPostVerbInPlaceActivate@?$IOleObjectImpl@VCOPOSSoundPlayer@@@ATL@@QEAAJXZ 000000018001eb10 f i SoundPlayer.obj
 0001:0001db20       ?OnPostVerbOpen@?$IOleObjectImpl@VCOPOSSoundPlayer@@@ATL@@QEAAJXZ 000000018001eb20 f i SoundPlayer.obj
 0001:0001db30       ?OnPostVerbShow@?$IOleObjectImpl@VCOPOSSoundPlayer@@@ATL@@QEAAJXZ 000000018001eb30 f i SoundPlayer.obj
 0001:0001db40       ?OnPostVerbUIActivate@?$IOleObjectImpl@VCOPOSSoundPlayer@@@ATL@@QEAAJXZ 000000018001eb40 f i SoundPlayer.obj
 0001:0001db50       ?OnPreVerbDiscardUndo@?$IOleObjectImpl@VCOPOSSoundPlayer@@@ATL@@QEAAJXZ 000000018001eb50 f i SoundPlayer.obj
 0001:0001db60       ?OnPreVerbHide@?$IOleObjectImpl@VCOPOSSoundPlayer@@@ATL@@QEAAJXZ 000000018001eb60 f i SoundPlayer.obj
 0001:0001db70       ?OnPreVerbInPlaceActivate@?$IOleObjectImpl@VCOPOSSoundPlayer@@@ATL@@QEAAJXZ 000000018001eb70 f i SoundPlayer.obj
 0001:0001db80       ?OnPreVerbOpen@?$IOleObjectImpl@VCOPOSSoundPlayer@@@ATL@@QEAAJXZ 000000018001eb80 f i SoundPlayer.obj
 0001:0001db90       ?OnPreVerbShow@?$IOleObjectImpl@VCOPOSSoundPlayer@@@ATL@@QEAAJXZ 000000018001eb90 f i SoundPlayer.obj
 0001:0001dba0       ?OnPreVerbUIActivate@?$IOleObjectImpl@VCOPOSSoundPlayer@@@ATL@@QEAAJXZ 000000018001eba0 f i SoundPlayer.obj
 0001:0001dbb0       ?OnSetFocus@CComControlBase@ATL@@QEAA_JI_K_JAEAH@Z 000000018001ebb0 f i SoundPlayer.obj
 0001:0001ddb0       ?OnWindowMessage@?$IOleInPlaceObjectWindowlessImpl@VCOPOSSoundPlayer@@@ATL@@UEAAJI_K_JPEA_J@Z 000000018001edb0 f i SoundPlayer.obj
 0001:0001dfd0       ?Open@CRegKey@ATL@@QEAAJPEAUHKEY__@@PEB_WK@Z 000000018001efd0 f i SoundPlayer.obj
 0001:0001e150       ?OuterAddRef@CComObjectRootBase@ATL@@QEAAKXZ 000000018001f150 f i SoundPlayer.obj
 0001:0001e180       ?OuterQueryInterface@CComObjectRootBase@ATL@@QEAAJAEBU_GUID@@PEAPEAX@Z 000000018001f180 f i SoundPlayer.obj
 0001:0001e1c0       ?OuterRelease@CComObjectRootBase@ATL@@QEAAKXZ 000000018001f1c0 f i SoundPlayer.obj
 0001:0001e1f0       ?PreProcessBuffer@CRegParser@ATL@@QEAAJPEA_WPEAPEA_W@Z 000000018001f1f0 f i SoundPlayer.obj
 0001:0001e8d0       ?PreTranslateAccelerator@CComControlBase@ATL@@QEAAHPEAUtagMSG@@AEAJ@Z 000000018001f8d0 f i SoundPlayer.obj
 0001:0001e8f0       ?ProcessWindowMessage@?$CComControl@VCOPOSSoundPlayer@@V?$CWindowImpl@VCOPOSSoundPlayer@@VCWindow@ATL@@V?$CWinTraits@$0FGAAAAAA@$0A@@3@@ATL@@@ATL@@UEAAHPEAUHWND__@@I_K_JAEA_JK@Z 000000018001f8f0 f i SoundPlayer.obj
 0001:0001eb70       ?ProcessWindowMessage@COPOSSoundPlayer@@UEAAHPEAUHWND__@@I_K_JAEA_JK@Z 000000018001fb70 f i SoundPlayer.obj
 0001:0001ecd0       ?PutProperty@?$CComPtr@UIDispatch@@@ATL@@QEAAJJPEAUtagVARIANT@@@Z 000000018001fcd0 f i SoundPlayer.obj
 0001:0001ed00       ?PutProperty@?$CComPtr@UIDispatch@@@ATL@@SAJPEAUIDispatch@@JPEAUtagVARIANT@@@Z 000000018001fd00 f i SoundPlayer.obj
 0001:0001efb0       ?QueryGetData@?$IDataObjectImpl@VCOPOSSoundPlayer@@@ATL@@UEAAJPEAUtagFORMATETC@@@Z 000000018001ffb0 f i SoundPlayer.obj
 0001:0001f020       ?QueryHitPoint@?$IViewObjectExImpl@VCOPOSSoundPlayer@@@ATL@@UEAAJKPEBUtagRECT@@UtagPOINT@@JPEAK@Z 0000000180020020 f i SoundPlayer.obj
 0001:0001f180       ?QueryHitRect@?$IViewObjectExImpl@VCOPOSSoundPlayer@@@ATL@@UEAAJKPEBUtagRECT@@0JPEAK@Z 0000000180020180 f i SoundPlayer.obj
 0001:0001f350       ?QueryInterface@?$CComAggObject@VCOPOSSoundPlayer@@@ATL@@UEAAJAEBU_GUID@@PEAPEAX@Z 0000000180020350 f i SoundPlayer.obj
 0001:0001f420       ?QueryInterface@?$CComContainedObject@VCOPOSSoundPlayer@@@ATL@@UEAAJAEBU_GUID@@PEAPEAX@Z 0000000180020420 f i SoundPlayer.obj
 0001:0001f458       ?QueryInterface@?$CComContainedObject@VCOPOSSoundPlayer@@@ATL@@WBAA@EAAJAEBU_GUID@@PEAPEAX@Z 0000000180020458 f i SoundPlayer.obj
 0001:0001f464       ?QueryInterface@?$CComContainedObject@VCOPOSSoundPlayer@@@ATL@@WBAI@EAAJAEBU_GUID@@PEAPEAX@Z 0000000180020464 f i SoundPlayer.obj
 0001:0001f470       ?QueryInterface@?$CComContainedObject@VCOPOSSoundPlayer@@@ATL@@WBBA@EAAJAEBU_GUID@@PEAPEAX@Z 0000000180020470 f i SoundPlayer.obj
 0001:0001f47c       ?QueryInterface@?$CComContainedObject@VCOPOSSoundPlayer@@@ATL@@WBBI@EAAJAEBU_GUID@@PEAPEAX@Z 000000018002047c f i SoundPlayer.obj
 0001:0001f488       ?QueryInterface@?$CComContainedObject@VCOPOSSoundPlayer@@@ATL@@WLI@EAAJAEBU_GUID@@PEAPEAX@Z 0000000180020488 f i SoundPlayer.obj
 0001:0001f494       ?QueryInterface@?$CComContainedObject@VCOPOSSoundPlayer@@@ATL@@WMA@EAAJAEBU_GUID@@PEAPEAX@Z 0000000180020494 f i SoundPlayer.obj
 0001:0001f4a0       ?QueryInterface@?$CComContainedObject@VCOPOSSoundPlayer@@@ATL@@WMI@EAAJAEBU_GUID@@PEAPEAX@Z 00000001800204a0 f i SoundPlayer.obj
 0001:0001f4ac       ?QueryInterface@?$CComContainedObject@VCOPOSSoundPlayer@@@ATL@@WNA@EAAJAEBU_GUID@@PEAPEAX@Z 00000001800204ac f i SoundPlayer.obj
 0001:0001f4b8       ?QueryInterface@?$CComContainedObject@VCOPOSSoundPlayer@@@ATL@@WNI@EAAJAEBU_GUID@@PEAPEAX@Z 00000001800204b8 f i SoundPlayer.obj
 0001:0001f4c4       ?QueryInterface@?$CComContainedObject@VCOPOSSoundPlayer@@@ATL@@WOA@EAAJAEBU_GUID@@PEAPEAX@Z 00000001800204c4 f i SoundPlayer.obj
 0001:0001f4d0       ?QueryInterface@?$CComContainedObject@VCOPOSSoundPlayer@@@ATL@@WOI@EAAJAEBU_GUID@@PEAPEAX@Z 00000001800204d0 f i SoundPlayer.obj
 0001:0001f4dc       ?QueryInterface@?$CComContainedObject@VCOPOSSoundPlayer@@@ATL@@WPA@EAAJAEBU_GUID@@PEAPEAX@Z 00000001800204dc f i SoundPlayer.obj
 0001:0001f4e8       ?QueryInterface@?$CComContainedObject@VCOPOSSoundPlayer@@@ATL@@WPI@EAAJAEBU_GUID@@PEAPEAX@Z 00000001800204e8 f i SoundPlayer.obj
 0001:0001f500       ?QueryInterface@?$CComObject@V?$CComEnum@UIEnumConnectionPoints@@$1?_GUID_b196b285_bab4_101a_b69c_00aa00341d07@@3U__s_GUID@@BPEAUIConnectionPoint@@V?$_CopyInterface@UIConnectionPoint@@@ATL@@VCComSingleThreadModel@6@@ATL@@@ATL@@UEAAJAEBU_GUID@@PEAPEAX@Z 0000000180020500 f i SoundPlayer.obj
 0001:0001f530       ?QueryInterface@?$CComObject@V?$CComEnum@UIEnumConnections@@$1?_GUID_b196b287_bab4_101a_b69c_00aa00341d07@@3U__s_GUID@@BUtagCONNECTDATA@@V?$_Copy@UtagCONNECTDATA@@@ATL@@VCComSingleThreadModel@6@@ATL@@@ATL@@UEAAJAEBU_GUID@@PEAPEAX@Z 0000000180020530 f i SoundPlayer.obj
 0001:0001f560       ?QueryInterface@?$CComObject@VCOPOSSoundPlayer@@@ATL@@UEAAJAEBU_GUID@@PEAPEAX@Z 0000000180020560 f i SoundPlayer.obj
 0001:0001f590       ?QueryInterface@?$CComObject@VCOPOSSoundPlayer@@@ATL@@WBAA@EAAJAEBU_GUID@@PEAPEAX@Z 0000000180020590 f i SoundPlayer.obj
 0001:0001f59c       ?QueryInterface@?$CComObject@VCOPOSSoundPlayer@@@ATL@@WBAI@EAAJAEBU_GUID@@PEAPEAX@Z 000000018002059c f i SoundPlayer.obj
 0001:0001f5a8       ?QueryInterface@?$CComObject@VCOPOSSoundPlayer@@@ATL@@WBBA@EAAJAEBU_GUID@@PEAPEAX@Z 00000001800205a8 f i SoundPlayer.obj
 0001:0001f5b4       ?QueryInterface@?$CComObject@VCOPOSSoundPlayer@@@ATL@@WBBI@EAAJAEBU_GUID@@PEAPEAX@Z 00000001800205b4 f i SoundPlayer.obj
 0001:0001f5c0       ?QueryInterface@?$CComObject@VCOPOSSoundPlayer@@@ATL@@WLI@EAAJAEBU_GUID@@PEAPEAX@Z 00000001800205c0 f i SoundPlayer.obj
 0001:0001f5cc       ?QueryInterface@?$CComObject@VCOPOSSoundPlayer@@@ATL@@WMA@EAAJAEBU_GUID@@PEAPEAX@Z 00000001800205cc f i SoundPlayer.obj
 0001:0001f5d8       ?QueryInterface@?$CComObject@VCOPOSSoundPlayer@@@ATL@@WMI@EAAJAEBU_GUID@@PEAPEAX@Z 00000001800205d8 f i SoundPlayer.obj
 0001:0001f5e4       ?QueryInterface@?$CComObject@VCOPOSSoundPlayer@@@ATL@@WNA@EAAJAEBU_GUID@@PEAPEAX@Z 00000001800205e4 f i SoundPlayer.obj
 0001:0001f5f0       ?QueryInterface@?$CComObject@VCOPOSSoundPlayer@@@ATL@@WNI@EAAJAEBU_GUID@@PEAPEAX@Z 00000001800205f0 f i SoundPlayer.obj
 0001:0001f5fc       ?QueryInterface@?$CComObject@VCOPOSSoundPlayer@@@ATL@@WOA@EAAJAEBU_GUID@@PEAPEAX@Z 00000001800205fc f i SoundPlayer.obj
 0001:0001f608       ?QueryInterface@?$CComObject@VCOPOSSoundPlayer@@@ATL@@WOI@EAAJAEBU_GUID@@PEAPEAX@Z 0000000180020608 f i SoundPlayer.obj
 0001:0001f614       ?QueryInterface@?$CComObject@VCOPOSSoundPlayer@@@ATL@@WPA@EAAJAEBU_GUID@@PEAPEAX@Z 0000000180020614 f i SoundPlayer.obj
 0001:0001f620       ?QueryInterface@?$CComObject@VCOPOSSoundPlayer@@@ATL@@WPI@EAAJAEBU_GUID@@PEAPEAX@Z 0000000180020620 f i SoundPlayer.obj
 0001:0001f630       ?QueryInterface@?$CComObjectCached@VCComClassFactory@ATL@@@ATL@@UEAAJAEBU_GUID@@PEAPEAX@Z 0000000180020630 f i SoundPlayer.obj
 0001:0001f660       ?QueryInterface@CRegObject@ATL@@UEAAJAEBU_GUID@@PEAPEAX@Z 0000000180020660 f i SoundPlayer.obj
 0001:0001f6d0       ?QuickActivate@?$IQuickActivateImpl@VCOPOSSoundPlayer@@@ATL@@UEAAJPEAUtagQACONTAINER@@PEAUtagQACONTROL@@@Z 00000001800206d0 f i SoundPlayer.obj
 0001:0001f780       ?ReactivateAndUndo@?$IOleInPlaceObjectWindowlessImpl@VCOPOSSoundPlayer@@@ATL@@UEAAJXZ 0000000180020780 f i SoundPlayer.obj
 0001:0001f7f0       ?ReadFromStream@CComBSTR@ATL@@QEAAJPEAUIStream@@@Z 00000001800207f0 f i SoundPlayer.obj
 0001:0001fcd0       ?ReadFromStream@CComVariant@ATL@@QEAAJPEAUIStream@@GTClassesAllowedInStream@2@K@Z 0000000180020cd0 f i SoundPlayer.obj
 0001:00020110       ?RecurseDeleteKey@CRegKey@ATL@@QEAAJPEB_W@Z 0000000180021110 f i SoundPlayer.obj
 0001:00020330       ?RegCreateKeyExW@CAtlTransactionManager@ATL@@QEAAJPEAUHKEY__@@PEB_WKPEA_WKKQEAU_SECURITY_ATTRIBUTES@@PEAPEAU3@PEAK@Z 0000000180021330 f i SoundPlayer.obj
 0001:000204e0       ?RegDeleteKeyW@CAtlTransactionManager@ATL@@QEAAJPEAUHKEY__@@PEB_W@Z 00000001800214e0 f i SoundPlayer.obj
 0001:000205e0       ?RegOpenKeyExW@CAtlTransactionManager@ATL@@QEAAJPEAUHKEY__@@PEB_WKKPEAPEAU3@@Z 00000001800215e0 f i SoundPlayer.obj
 0001:00020720       ?Register@_ATL_WNDCLASSINFOW@ATL@@QEAAGPEAP6A_JPEAUHWND__@@I_K_J@Z@Z 0000000180021720 f i SoundPlayer.obj
 0001:00020760       ?RegisterBuffer@CRegParser@ATL@@QEAAJPEA_WH@Z 0000000180021760 f i SoundPlayer.obj
 0001:00020b50       ?RegisterClassExW@AtlModuleRegisterWndClassInfoParamW@ATL@@SAGPEAU_ATL_WIN_MODULE70@2@PEBUtagWNDCLASSEXW@@@Z 0000000180021b50 f i SoundPlayer.obj
 0001:00020b80       ?RegisterFromResource@CRegObject@ATL@@IEAAJPEB_W00H@Z 0000000180021b80 f i SoundPlayer.obj
 0001:00020fe0       ?RegisterServer@?$CAtlModuleT@VCComModule@ATL@@@ATL@@QEAAJHPEBU_GUID@@@Z 0000000180021fe0 f i SoundPlayer.obj
 0001:00021040       ?RegisterServer@CAtlComModule@ATL@@QEAAJHPEBU_GUID@@@Z 0000000180022040 f i SoundPlayer.obj
 0001:00021070       ?RegisterServer@CComModule@ATL@@QEAAJHPEBU_GUID@@@Z 0000000180022070 f i SoundPlayer.obj
 0001:00021150       ?RegisterSubkeys@CRegParser@ATL@@IEAAJPEA_WPEAUHKEY__@@HH@Z 0000000180022150 f i SoundPlayer.obj
 0001:00021f30       ?Release@?$CComAggObject@VCOPOSSoundPlayer@@@ATL@@UEAAKXZ 0000000180022f30 f i SoundPlayer.obj
 0001:00021fe0       ?Release@?$CComContainedObject@VCOPOSSoundPlayer@@@ATL@@UEAAKXZ 0000000180022fe0 f i SoundPlayer.obj
 0001:00022004       ?Release@?$CComContainedObject@VCOPOSSoundPlayer@@@ATL@@WBAA@EAAKXZ 0000000180023004 f i SoundPlayer.obj
 0001:00022010       ?Release@?$CComContainedObject@VCOPOSSoundPlayer@@@ATL@@WBAI@EAAKXZ 0000000180023010 f i SoundPlayer.obj
 0001:0002201c       ?Release@?$CComContainedObject@VCOPOSSoundPlayer@@@ATL@@WBBA@EAAKXZ 000000018002301c f i SoundPlayer.obj
 0001:00022028       ?Release@?$CComContainedObject@VCOPOSSoundPlayer@@@ATL@@WBBI@EAAKXZ 0000000180023028 f i SoundPlayer.obj
 0001:00022034       ?Release@?$CComContainedObject@VCOPOSSoundPlayer@@@ATL@@WBCI@EAAKXZ 0000000180023034 f i SoundPlayer.obj
 0001:00022040       ?Release@?$CComContainedObject@VCOPOSSoundPlayer@@@ATL@@WBEA@EAAKXZ 0000000180023040 f i SoundPlayer.obj
 0001:0002204c       ?Release@?$CComContainedObject@VCOPOSSoundPlayer@@@ATL@@WLI@EAAKXZ 000000018002304c f i SoundPlayer.obj
 0001:00022058       ?Release@?$CComContainedObject@VCOPOSSoundPlayer@@@ATL@@WMA@EAAKXZ 0000000180023058 f i SoundPlayer.obj
 0001:00022064       ?Release@?$CComContainedObject@VCOPOSSoundPlayer@@@ATL@@WMI@EAAKXZ 0000000180023064 f i SoundPlayer.obj
 0001:00022070       ?Release@?$CComContainedObject@VCOPOSSoundPlayer@@@ATL@@WNA@EAAKXZ 0000000180023070 f i SoundPlayer.obj
 0001:0002207c       ?Release@?$CComContainedObject@VCOPOSSoundPlayer@@@ATL@@WNI@EAAKXZ 000000018002307c f i SoundPlayer.obj
 0001:00022088       ?Release@?$CComContainedObject@VCOPOSSoundPlayer@@@ATL@@WOA@EAAKXZ 0000000180023088 f i SoundPlayer.obj
 0001:00022094       ?Release@?$CComContainedObject@VCOPOSSoundPlayer@@@ATL@@WOI@EAAKXZ 0000000180023094 f i SoundPlayer.obj
 0001:000220a0       ?Release@?$CComContainedObject@VCOPOSSoundPlayer@@@ATL@@WPA@EAAKXZ 00000001800230a0 f i SoundPlayer.obj
 0001:000220ac       ?Release@?$CComContainedObject@VCOPOSSoundPlayer@@@ATL@@WPI@EAAKXZ 00000001800230ac f i SoundPlayer.obj
 0001:000220c0       ?Release@?$CComObject@V?$CComEnum@UIEnumConnectionPoints@@$1?_GUID_b196b285_bab4_101a_b69c_00aa00341d07@@3U__s_GUID@@BPEAUIConnectionPoint@@V?$_CopyInterface@UIConnectionPoint@@@ATL@@VCComSingleThreadModel@6@@ATL@@@ATL@@UEAAKXZ 00000001800230c0 f i SoundPlayer.obj
 0001:00022170       ?Release@?$CComObject@V?$CComEnum@UIEnumConnections@@$1?_GUID_b196b287_bab4_101a_b69c_00aa00341d07@@3U__s_GUID@@BUtagCONNECTDATA@@V?$_Copy@UtagCONNECTDATA@@@ATL@@VCComSingleThreadModel@6@@ATL@@@ATL@@UEAAKXZ 0000000180023170 f i SoundPlayer.obj
 0001:00022220       ?Release@?$CComObject@VCOPOSSoundPlayer@@@ATL@@UEAAKXZ 0000000180023220 f i SoundPlayer.obj
 0001:000222d8       ?Release@?$CComObject@VCOPOSSoundPlayer@@@ATL@@WBAA@EAAKXZ 00000001800232d8 f i SoundPlayer.obj
 0001:000222e4       ?Release@?$CComObject@VCOPOSSoundPlayer@@@ATL@@WBAI@EAAKXZ 00000001800232e4 f i SoundPlayer.obj
 0001:000222f0       ?Release@?$CComObject@VCOPOSSoundPlayer@@@ATL@@WBBA@EAAKXZ 00000001800232f0 f i SoundPlayer.obj
 0001:000222fc       ?Release@?$CComObject@VCOPOSSoundPlayer@@@ATL@@WBBI@EAAKXZ 00000001800232fc f i SoundPlayer.obj
 0001:00022308       ?Release@?$CComObject@VCOPOSSoundPlayer@@@ATL@@WBCI@EAAKXZ 0000000180023308 f i SoundPlayer.obj
 0001:00022314       ?Release@?$CComObject@VCOPOSSoundPlayer@@@ATL@@WBEA@EAAKXZ 0000000180023314 f i SoundPlayer.obj
 0001:00022320       ?Release@?$CComObject@VCOPOSSoundPlayer@@@ATL@@WLI@EAAKXZ 0000000180023320 f i SoundPlayer.obj
 0001:0002232c       ?Release@?$CComObject@VCOPOSSoundPlayer@@@ATL@@WMA@EAAKXZ 000000018002332c f i SoundPlayer.obj
 0001:00022338       ?Release@?$CComObject@VCOPOSSoundPlayer@@@ATL@@WMI@EAAKXZ 0000000180023338 f i SoundPlayer.obj
 0001:00022344       ?Release@?$CComObject@VCOPOSSoundPlayer@@@ATL@@WNA@EAAKXZ 0000000180023344 f i SoundPlayer.obj
 0001:00022350       ?Release@?$CComObject@VCOPOSSoundPlayer@@@ATL@@WNI@EAAKXZ 0000000180023350 f i SoundPlayer.obj
 0001:0002235c       ?Release@?$CComObject@VCOPOSSoundPlayer@@@ATL@@WOA@EAAKXZ 000000018002335c f i SoundPlayer.obj
 0001:00022368       ?Release@?$CComObject@VCOPOSSoundPlayer@@@ATL@@WOI@EAAKXZ 0000000180023368 f i SoundPlayer.obj
 0001:00022374       ?Release@?$CComObject@VCOPOSSoundPlayer@@@ATL@@WPA@EAAKXZ 0000000180023374 f i SoundPlayer.obj
 0001:00022380       ?Release@?$CComObject@VCOPOSSoundPlayer@@@ATL@@WPI@EAAKXZ 0000000180023380 f i SoundPlayer.obj
 0001:00022390       ?Release@?$CComObjectCached@VCComClassFactory@ATL@@@ATL@@UEAAKXZ 0000000180023390 f i SoundPlayer.obj
 0001:00022420       ?Release@?$CComPtrBase@UIAdviseSink@@@ATL@@QEAAXXZ 0000000180023420 f i SoundPlayer.obj
 0001:00022470       ?Release@?$CComPtrBase@UIDispatch@@@ATL@@QEAAXXZ 0000000180023470 f i SoundPlayer.obj
 0001:000224c0       ?Release@?$CComPtrBase@UIOleInPlaceSiteWindowless@@@ATL@@QEAAXXZ 00000001800234c0 f i SoundPlayer.obj
 0001:00022510       ?Release@CRegObject@ATL@@UEAAKXZ 0000000180023510 f i SoundPlayer.obj
 0001:00022570       ?Remove@CComDynamicUnkArray@ATL@@QEAAHK@Z 0000000180023570 f i SoundPlayer.obj
 0001:00022630       ?RemoveAll@?$CSimpleMap@PEA_WPEA_WVCExpansionVectorEqualHelper@ATL@@@ATL@@QEAAXXZ 0000000180023630 f i SoundPlayer.obj
 0001:000226c0       ?Reset@?$CComEnumImpl@UIEnumConnectionPoints@@$1?_GUID_b196b285_bab4_101a_b69c_00aa00341d07@@3U__s_GUID@@BPEAUIConnectionPoint@@V?$_CopyInterface@UIConnectionPoint@@@ATL@@@ATL@@UEAAJXZ 00000001800236c0 f i SoundPlayer.obj
 0001:000226e0       ?Reset@?$CComEnumImpl@UIEnumConnections@@$1?_GUID_b196b287_bab4_101a_b69c_00aa00341d07@@3U__s_GUID@@BUtagCONNECTDATA@@V?$_Copy@UtagCONNECTDATA@@@ATL@@@ATL@@UEAAJXZ 00000001800236e0 f i SoundPlayer.obj
 0001:00022700       ?ResizeBorder@?$IOleInPlaceActiveObjectImpl@VCOPOSSoundPlayer@@@ATL@@UEAAJPEBUtagRECT@@PEAUIOleInPlaceUIWindow@@H@Z 0000000180023700 f i SoundPlayer.obj
 0001:00022770       ?ResourceRegister@CRegObject@ATL@@QEAAJPEB_WI0@Z 0000000180023770 f i SoundPlayer.obj
 0001:00022850       ?ResourceRegisterSz@CRegObject@ATL@@QEAAJPEB_W00@Z 0000000180023850 f i SoundPlayer.obj
 0001:00022970       ?ResourceUnregister@CRegObject@ATL@@QEAAJPEB_WI0@Z 0000000180023970 f i SoundPlayer.obj
 0001:00022a50       ?ResourceUnregisterSz@CRegObject@ATL@@QEAAJPEB_W00@Z 0000000180023a50 f i SoundPlayer.obj
 0001:00022b70       ?SODataDummy@COPOSSoundPlayer@@MEAAJJ@Z 0000000180023b70 f i SoundPlayer.obj
 0001:00022b90       ?SODirectIO@COPOSSoundPlayer@@MEAAJJPEAJPEAPEA_W@Z 0000000180023b90 f i SoundPlayer.obj
 0001:00022dd0       ?SOError@COPOSSoundPlayer@@MEAAJJJJPEAJ@Z 0000000180023dd0 f i SoundPlayer.obj
 0001:00022ec0       ?SOOutputComplete@COPOSSoundPlayer@@MEAAJJ@Z 0000000180023ec0 f i SoundPlayer.obj
 0001:00022f50       ?SOStatusUpdate@COPOSSoundPlayer@@MEAAJJ@Z 0000000180023f50 f i SoundPlayer.obj
 0001:00022fe0       ?Save@?$IPersistStorageImpl@VCOPOSSoundPlayer@@@ATL@@UEAAJPEAUIStorage@@H@Z 0000000180023fe0 f i SoundPlayer.obj
 0001:000231a0       ?Save@?$IPersistStreamInitImpl@VCOPOSSoundPlayer@@@ATL@@UEAAJPEAUIStream@@H@Z 00000001800241a0 f i SoundPlayer.obj
 0001:00023250       ?SaveCompleted@?$IPersistStorageImpl@VCOPOSSoundPlayer@@@ATL@@UEAAJPEAUIStorage@@@Z 0000000180024250 f i SoundPlayer.obj
 0001:000232b0       ?SendOnDataChange@CComControlBase@ATL@@QEAAJK@Z 00000001800242b0 f i SoundPlayer.obj
 0001:000233b0       ?SendOnSave@CComControlBase@ATL@@QEAAJXZ 00000001800243b0 f i SoundPlayer.obj
 0001:00023410       ?SendOnViewChange@CComControlBase@ATL@@QEAAJKJ@Z 0000000180024410 f i SoundPlayer.obj
 0001:00023470       ?SetAdvise@?$IViewObjectExImpl@VCOPOSSoundPlayer@@@ATL@@UEAAJKKPEAUIAdviseSink@@@Z 0000000180024470 f i SoundPlayer.obj
 0001:00023520       ?SetClientSite@?$IOleObjectImpl@VCOPOSSoundPlayer@@@ATL@@UEAAJPEAUIOleClientSite@@@Z 0000000180024520 f i SoundPlayer.obj
 0001:000235c0       ?SetColorScheme@?$IOleObjectImpl@VCOPOSSoundPlayer@@@ATL@@UEAAJPEAUtagLOGPALETTE@@@Z 00000001800245c0 f i SoundPlayer.obj
 0001:00023630       ?SetContentExtent@?$IQuickActivateImpl@VCOPOSSoundPlayer@@@ATL@@UEAAJPEAUtagSIZE@@@Z 0000000180024630 f i SoundPlayer.obj
 0001:000236e0       ?SetControlFocus@CComControlBase@ATL@@QEAAHH@Z 00000001800246e0 f i SoundPlayer.obj
 0001:00023860       ?SetDWORDValue@CRegKey@ATL@@QEAAJPEB_WK@Z 0000000180024860 f i SoundPlayer.obj
 0001:00023900       ?SetData@?$IDataObjectImpl@VCOPOSSoundPlayer@@@ATL@@UEAAJPEAUtagFORMATETC@@PEAUtagSTGMEDIUM@@H@Z 0000000180024900 f i SoundPlayer.obj
 0001:00023980       ?SetExtent@?$IOleObjectImpl@VCOPOSSoundPlayer@@@ATL@@UEAAJKPEAUtagSIZE@@@Z 0000000180024980 f i SoundPlayer.obj
 0001:00023a30       ?SetHostNames@?$IOleObjectImpl@VCOPOSSoundPlayer@@@ATL@@UEAAJPEB_W0@Z 0000000180024a30 f i SoundPlayer.obj
 0001:00023a90       ?SetInterfaceSafetyOptions@?$IObjectSafetyImpl@VCOPOSSoundPlayer@@$02@ATL@@UEAAJAEBU_GUID@@KK@Z 0000000180024a90 f i SoundPlayer.obj
 0001:00023c30       ?SetMoniker@?$IOleObjectImpl@VCOPOSSoundPlayer@@@ATL@@UEAAJKPEAUIMoniker@@@Z 0000000180024c30 f i SoundPlayer.obj
 0001:00023cb0       ?SetMultiStringValue@CRegKey@ATL@@QEAAJPEB_W0@Z 0000000180024cb0 f i SoundPlayer.obj
 0001:00023e10       ?SetObjectRects@?$IOleInPlaceObjectWindowlessImpl@VCOPOSSoundPlayer@@@ATL@@UEAAJPEBUtagRECT@@0@Z 0000000180024e10 f i SoundPlayer.obj
 0001:00023ec0       ?SetStringValue@CRegKey@ATL@@QEAAJPEB_W0K@Z 0000000180024ec0 f i SoundPlayer.obj
 0001:00024030       ?SetVoid@CComClassFactory@ATL@@QEAAXPEAX@Z 0000000180025030 f i SoundPlayer.obj
 0001:00024050       ?SetVoid@CComObjectRootBase@ATL@@QEAAXPEAX@Z 0000000180025050 f i SoundPlayer.obj
 0001:00024060       ?ShowWindow@CWindow@ATL@@QEAAHH@Z 0000000180025060 f i SoundPlayer.obj
 0001:000240e0       ?Skip@?$CComEnumImpl@UIEnumConnectionPoints@@$1?_GUID_b196b285_bab4_101a_b69c_00aa00341d07@@3U__s_GUID@@BPEAUIConnectionPoint@@V?$_CopyInterface@UIConnectionPoint@@@ATL@@@ATL@@UEAAJK@Z 00000001800250e0 f i SoundPlayer.obj
 0001:00024170       ?Skip@?$CComEnumImpl@UIEnumConnections@@$1?_GUID_b196b287_bab4_101a_b69c_00aa00341d07@@3U__s_GUID@@BUtagCONNECTDATA@@V?$_Copy@UtagCONNECTDATA@@@ATL@@@ATL@@UEAAJK@Z 0000000180025170 f i SoundPlayer.obj
 0001:00024200       ?SkipAssignment@CRegParser@ATL@@IEAAJPEA_W@Z 0000000180025200 f i SoundPlayer.obj
 0001:00024300       ?SkipWhiteSpace@CRegParser@ATL@@IEAAXXZ 0000000180025300 f i SoundPlayer.obj
 0001:00024350       ?StartWindowProc@?$CWindowImplBaseT@VCWindow@ATL@@V?$CWinTraits@$0FGAAAAAA@$0A@@2@@ATL@@SA_JPEAUHWND__@@I_K_J@Z 0000000180025350 f i SoundPlayer.obj
 0001:000244a0       ?StrChrW@CRegParser@ATL@@KAPEA_WPEA_W_W@Z 00000001800254a0 f i SoundPlayer.obj
 0001:00024510       ?StrFromMap@CRegObject@ATL@@QEAAPEB_WPEA_W@Z 0000000180025510 f i SoundPlayer.obj
 0001:000245b0       ?Swap@?$CComPtrBase@UIAdviseSink@@@ATL@@IEAAXAEAV12@@Z 00000001800255b0 f i SoundPlayer.obj
 0001:000245f0       ?Swap@?$CComPtrBase@UIOleClientSite@@@ATL@@IEAAXAEAV12@@Z 00000001800255f0 f i SoundPlayer.obj
 0001:00024630       ?Swap@?$CComPtrBase@UIUnknown@@@ATL@@IEAAXAEAV12@@Z 0000000180025630 f i SoundPlayer.obj
 0001:00024670       ?T2COLE_EX@@YAPEB_WPEB_WI@Z 0000000180025670 f i SoundPlayer.obj
 0001:00024690       ?T2OLE_EX@@YAPEA_WPEA_WI@Z 0000000180025690 f i SoundPlayer.obj
 0001:000246b0       ?Term@CAtlModule@ATL@@QEAAXXZ 00000001800256b0 f i SoundPlayer.obj
 0001:00024760       ?Term@CComModule@ATL@@QEAAXXZ 0000000180025760 f i SoundPlayer.obj
 0001:00024840       ?TranslateAcceleratorW@?$IOleInPlaceActiveObjectImpl@VCOPOSSoundPlayer@@@ATL@@UEAAJPEAUtagMSG@@@Z 0000000180025840 f i SoundPlayer.obj
 0001:00024ab0       ?UIDeactivate@?$IOleInPlaceObjectWindowlessImpl@VCOPOSSoundPlayer@@@ATL@@UEAAJXZ 0000000180025ab0 f i SoundPlayer.obj
 0001:00024b40       ?Unadvise@?$CProxy_IOPOSEvents@VCOPOSSoundPlayer@@@@UEAAJK@Z 0000000180025b40 f i SoundPlayer.obj
 0001:00024b80       ?Unadvise@?$IConnectionPointImpl@VCOPOSSoundPlayer@@$1?DIID__IOPOSSoundPlayerEvents@@3U_GUID@@BVCComDynamicUnkArray@ATL@@@ATL@@UEAAJK@Z 0000000180025b80 f i SoundPlayer.obj
 0001:00024c60       ?Unadvise@?$IConnectionPointImpl@VCOPOSSoundPlayer@@$1?IID_IPropertyNotifySink@@3U_GUID@@BVCComDynamicUnkArray@ATL@@@ATL@@UEAAJK@Z 0000000180025c60 f i SoundPlayer.obj
 0001:00024d40       ?Unadvise@?$IOleObjectImpl@VCOPOSSoundPlayer@@@ATL@@UEAAJK@Z 0000000180025d40 f i SoundPlayer.obj
 0001:00024e20       ?Unfreeze@?$IViewObjectExImpl@VCOPOSSoundPlayer@@@ATL@@UEAAJK@Z 0000000180025e20 f i SoundPlayer.obj
 0001:00024e90       ?Unlock@?$CComCritSecLock@VCComCriticalSection@ATL@@@ATL@@QEAAXXZ 0000000180025e90 f i SoundPlayer.obj
 0001:00024f10       ?Unlock@?$CComObjectRootEx@VCComSingleThreadModel@ATL@@@ATL@@QEAAXXZ 0000000180025f10 f i SoundPlayer.obj
 0001:00024f20       ?Unlock@CAtlModule@ATL@@UEAAJXZ 0000000180025f20 f i SoundPlayer.obj
 0001:00024f50       ?Unlock@CComCriticalSection@ATL@@QEAAJXZ 0000000180025f50 f i SoundPlayer.obj
 0001:00024f70       ?Unlock@CComFakeCriticalSection@ATL@@QEAAJXZ 0000000180025f70 f i SoundPlayer.obj
 0001:00024f80       ?UnregisterServer@?$CAtlModuleT@VCComModule@ATL@@@ATL@@QEAAJHPEBU_GUID@@@Z 0000000180025f80 f i SoundPlayer.obj
 0001:00024fe0       ?UnregisterServer@CAtlComModule@ATL@@QEAAJHPEBU_GUID@@@Z 0000000180025fe0 f i SoundPlayer.obj
 0001:00025010       ?UnregisterServer@CComModule@ATL@@QEAAJHPEBU_GUID@@@Z 0000000180026010 f i SoundPlayer.obj
 0001:000250f0       ?Update@?$IOleObjectImpl@VCOPOSSoundPlayer@@@ATL@@UEAAJXZ 00000001800260f0 f i SoundPlayer.obj
 0001:00025150       ?UpdateRegistryFromResource@CAtlModule@ATL@@QEAAJIHPEAU_ATL_REGMAP_ENTRY@2@@Z 0000000180026150 f i SoundPlayer.obj
 0001:00025690       ?UpdateRegistryFromResource@CAtlModule@ATL@@QEAAJPEB_WHPEAU_ATL_REGMAP_ENTRY@2@@Z 0000000180026690 f i SoundPlayer.obj
 0001:00025be0       ?UpdateRegistryFromResource@CComModule@ATL@@UEAAJIHPEAU_ATL_REGMAP_ENTRY@2@@Z 0000000180026be0 f i SoundPlayer.obj
 0001:00025c20       ?UpdateRegistryFromResource@CComModule@ATL@@UEAAJPEB_WHPEAU_ATL_REGMAP_ENTRY@2@@Z 0000000180026c20 f i SoundPlayer.obj
 0001:00025c60       ?UpdateRegistryFromResourceD@CComModule@ATL@@UEAAJIHPEAU_ATL_REGMAP_ENTRY@2@@Z 0000000180026c60 f i SoundPlayer.obj
 0001:00025c80       ?UpdateRegistryFromResourceD@CComModule@ATL@@UEAAJPEB_WHPEAU_ATL_REGMAP_ENTRY@2@@Z 0000000180026c80 f i SoundPlayer.obj
 0001:00025ca0       ?VTFromRegType@CRegParser@ATL@@KAHPEB_WAEAG@Z 0000000180026ca0 f i SoundPlayer.obj
 0001:00025d70       ?WindowProc@?$CWindowImplBaseT@VCWindow@ATL@@V?$CWinTraits@$0FGAAAAAA@$0A@@2@@ATL@@SA_JPEAUHWND__@@I_K_J@Z 0000000180026d70 f i SoundPlayer.obj
 0001:00026050       ?WriteToStream@CComBSTR@ATL@@QEAAJPEAUIStream@@@Z 0000000180027050 f i SoundPlayer.obj
 0001:000261c0       ?WriteToStream@CComVariant@ATL@@QEAAJPEAUIStream@@@Z 00000001800271c0 f i SoundPlayer.obj
 0001:000265f0       ?WriteToStream@CComVariant@ATL@@QEAAJPEAUIStream@@G@Z 00000001800275f0 f i SoundPlayer.obj
 0001:000266d0       ?_AtlFinalConstruct@CComObjectRootBase@ATL@@QEAAJXZ 00000001800276d0 f i SoundPlayer.obj
 0001:000266e0       ?_AtlGetConversionACP@ATL@@YAIXZ 00000001800276e0 f i SoundPlayer.obj
 0001:000266f0       ?_AtlInitialConstruct@?$CComAggObject@VCOPOSSoundPlayer@@@ATL@@QEAAJXZ 00000001800276f0 f i SoundPlayer.obj
 0001:00026740       ?_AtlInitialConstruct@?$CComObjectRootEx@VCComMultiThreadModel@ATL@@@ATL@@QEAAJXZ 0000000180027740 f i SoundPlayer.obj
 0001:00026770       ?_AtlInitialConstruct@?$CComObjectRootEx@VCComSingleThreadModel@ATL@@@ATL@@QEAAJXZ 0000000180027770 f i SoundPlayer.obj
 0001:00026780       ?_AtlVerifyStackAvailable@_ATL_SAFE_ALLOCA_IMPL@ATL@@YA_N_K@Z 0000000180027780 f i SoundPlayer.obj
 0001:000268e0       ?_GetEntries@?$CComEnum@UIEnumConnectionPoints@@$1?_GUID_b196b285_bab4_101a_b69c_00aa00341d07@@3U__s_GUID@@BPEAUIConnectionPoint@@V?$_CopyInterface@UIConnectionPoint@@@ATL@@VCComSingleThreadModel@6@@ATL@@SAPEBU_ATL_INTMAP_ENTRY@2@XZ 00000001800278e0 f i SoundPlayer.obj
 0001:00026900       ?_GetEntries@?$CComEnum@UIEnumConnections@@$1?_GUID_b196b287_bab4_101a_b69c_00aa00341d07@@3U__s_GUID@@BUtagCONNECTDATA@@V?$_Copy@UtagCONNECTDATA@@@ATL@@VCComSingleThreadModel@6@@ATL@@SAPEBU_ATL_INTMAP_ENTRY@2@XZ 0000000180027900 f i SoundPlayer.obj
 0001:00026920       ?_GetEntries@CComClassFactory@ATL@@SAPEBU_ATL_INTMAP_ENTRY@2@XZ 0000000180027920 f i SoundPlayer.obj
 0001:00026940       ?_GetEntries@COPOSSoundPlayer@@SAPEBU_ATL_INTMAP_ENTRY@ATL@@XZ 0000000180027940 f i SoundPlayer.obj
 0001:00026960       ?_GetRawUnknown@COPOSSoundPlayer@@QEAAPEAUIUnknown@@XZ 0000000180027960 f i SoundPlayer.obj
 0001:000269e0       ?_GetViewStatus@COPOSSoundPlayer@@QEAAKXZ 00000001800279e0 f i SoundPlayer.obj
 0001:000269f0       ?_InternalQueryInterface@?$CComEnum@UIEnumConnectionPoints@@$1?_GUID_b196b285_bab4_101a_b69c_00aa00341d07@@3U__s_GUID@@BPEAUIConnectionPoint@@V?$_CopyInterface@UIConnectionPoint@@@ATL@@VCComSingleThreadModel@6@@ATL@@QEAAJAEBU_GUID@@PEAPEAX@Z 00000001800279f0 f i SoundPlayer.obj
 0001:00026a30       ?_InternalQueryInterface@?$CComEnum@UIEnumConnections@@$1?_GUID_b196b287_bab4_101a_b69c_00aa00341d07@@3U__s_GUID@@BUtagCONNECTDATA@@V?$_Copy@UtagCONNECTDATA@@@ATL@@VCComSingleThreadModel@6@@ATL@@QEAAJAEBU_GUID@@PEAPEAX@Z 0000000180027a30 f i SoundPlayer.obj
 0001:00026a70       ?_InternalQueryInterface@CComClassFactory@ATL@@QEAAJAEBU_GUID@@PEAPEAX@Z 0000000180027a70 f i SoundPlayer.obj
 0001:00026ab0       ?_InternalQueryInterface@COPOSSoundPlayer@@QEAAJAEBU_GUID@@PEAPEAX@Z 0000000180027ab0 f i SoundPlayer.obj
 0001:00026af0       ?_LocCPQueryInterface@?$IConnectionPointImpl@VCOPOSSoundPlayer@@$1?DIID__IOPOSSoundPlayerEvents@@3U_GUID@@BVCComDynamicUnkArray@ATL@@@ATL@@UEAAJAEBU_GUID@@PEAPEAX@Z 0000000180027af0 f i SoundPlayer.obj
 0001:00026bc0       ?_LocCPQueryInterface@?$IConnectionPointImpl@VCOPOSSoundPlayer@@$1?IID_IPropertyNotifySink@@3U_GUID@@BVCComDynamicUnkArray@ATL@@@ATL@@UEAAJAEBU_GUID@@PEAPEAX@Z 0000000180027bc0 f i SoundPlayer.obj
 0001:00026c90       ?atlCreate@?$CWindowImpl@VCOPOSSoundPlayer@@VCWindow@ATL@@V?$CWinTraits@$0FGAAAAAA@$0A@@3@@ATL@@QEAAPEAUHWND__@@PEAU3@V_U_RECT@2@PEB_WKKV_U_MENUorID@2@PEAX@Z 0000000180027c90 f i SoundPlayer.obj
 0001:00026da0       ?atlCreate@?$CWindowImplBaseT@VCWindow@ATL@@V?$CWinTraits@$0FGAAAAAA@$0A@@2@@ATL@@QEAAPEAUHWND__@@PEAU3@V_U_RECT@2@PEB_WKKV_U_MENUorID@2@GPEAX@Z 0000000180027da0 f i SoundPlayer.obj
 0001:00026ff0       ?atlCreate@CRegKey@ATL@@QEAAJPEAUHKEY__@@PEB_WPEA_WKKPEAU_SECURITY_ATTRIBUTES@@PEAK@Z 0000000180027ff0 f i SoundPlayer.obj
 0001:000271f0       ?begin@CComDynamicUnkArray@ATL@@QEAAPEAPEAUIUnknown@@XZ 00000001800281f0 f i SoundPlayer.obj
 0001:00027200       ?copy@?$_Copy@UtagCONNECTDATA@@@ATL@@SAJPEAUtagCONNECTDATA@@PEBU3@@Z 0000000180028200 f i SoundPlayer.obj
 0001:000272e0       ?copy@?$_CopyInterface@UIConnectionPoint@@@ATL@@SAJPEAPEAUIConnectionPoint@@PEBQEAU3@@Z 00000001800282e0 f i SoundPlayer.obj
 0001:000273c0       ?destroy@?$_Copy@UtagCONNECTDATA@@@ATL@@SAXPEAUtagCONNECTDATA@@@Z 00000001800283c0 f i SoundPlayer.obj
 0001:00027400       ?destroy@?$_CopyInterface@UIConnectionPoint@@@ATL@@SAXPEAPEAUIConnectionPoint@@@Z 0000000180028400 f i SoundPlayer.obj
 0001:00027440       ?end@CComDynamicUnkArray@ATL@@QEAAPEAPEAUIUnknown@@XZ 0000000180028440 f i SoundPlayer.obj
 0001:00027460       ?init@?$_Copy@UtagCONNECTDATA@@@ATL@@SAXPEAUtagCONNECTDATA@@@Z 0000000180028460 f i SoundPlayer.obj
 0001:00027470       ?init@?$_CopyInterface@UIConnectionPoint@@@ATL@@SAXPEAPEAUIConnectionPoint@@@Z 0000000180028470 f i SoundPlayer.obj
 0001:00027480       ?memcpy_s@Checked@ATL@@YAXPEAX_KPEBX1@Z 0000000180028480 f i SoundPlayer.obj
 0001:000274c0       ?ocscpy_s@@YA_NPEA_W_KPEB_W@Z 00000001800284c0 f i SoundPlayer.obj
 0001:00027530       ?ocslen@@YAHPEB_W@Z        0000000180028530 f i SoundPlayer.obj
 0001:00027560       ?tcsncpy_s@Checked@ATL@@YAHPEA_W_KPEB_W1@Z 0000000180028560 f i SoundPlayer.obj
 0001:000275a0       ?wcscat_s@Checked@ATL@@YAXPEA_W_KPEB_W@Z 00000001800285a0 f i SoundPlayer.obj
 0001:000275e0       ?wcscpy_s@Checked@ATL@@YAXPEA_W_KPEB_W@Z 00000001800285e0 f i SoundPlayer.obj
 0001:00027620       ?wcsncpy_s@Checked@ATL@@YAHPEA_W_KPEB_W1@Z 0000000180028620 f i SoundPlayer.obj
 0001:00027660       ?wcsstr@@YAPEA_WPEA_WPEB_W@Z 0000000180028660 f i SoundPlayer.obj
 0001:00027690       InlineIsEqualGUID          0000000180028690 f i SoundPlayer.obj
 0001:00027750       IsEqualGUID                0000000180028750 f i SoundPlayer.obj
 0001:000277a0       ??0COPOSSoundPlayer@@QEAA@XZ 00000001800287a0 f   SoundPlayerImpl.obj
 0001:00027910       ?FinalConstruct@COPOSSoundPlayer@@QEAAJXZ 0000000180028910 f   SoundPlayerImpl.obj
 0001:000279f0       ??1COPOSSoundPlayer@@UEAA@XZ 00000001800289f0 f   SoundPlayerImpl.obj
 0001:00027ad0       ?WriteTrace@COPOSSoundPlayer@@QEAAXPEB_WZZ 0000000180028ad0 f   SoundPlayerImpl.obj
 0001:00027ba0       ?WriteTraceString@COPOSSoundPlayer@@QEAAXPEB_WPEA_W@Z 0000000180028ba0 f   SoundPlayerImpl.obj
 0001:00027fd0       ?WriteTraceString@COPOSSoundPlayer@@QEAAXPEAXHHHPEB_WZZ 0000000180028fd0 f   SoundPlayerImpl.obj
 0001:00028260       ?WriteTraceError@COPOSSoundPlayer@@QEAAXPEB_WK@Z 0000000180029260 f   SoundPlayerImpl.obj
 0001:00028360       ?WriteTraceMethods@COPOSSoundPlayer@@QEAAXPEAJH@Z 0000000180029360 f   SoundPlayerImpl.obj
 0001:000283e0       ?GetOposProp@COPOSSoundPlayer@@IEAAJPEBDJPEAJJ@Z 00000001800293e0 f   SoundPlayerImpl.obj
 0001:00028700       ?SetOposProp@COPOSSoundPlayer@@IEAAJPEBDJJJ@Z 0000000180029700 f   SoundPlayerImpl.obj
 0001:00028a70       ?GetOposProp@COPOSSoundPlayer@@IEAAJPEBDJPEAFJ@Z 0000000180029a70 f   SoundPlayerImpl.obj
 0001:00028b20       ?SetOposProp@COPOSSoundPlayer@@IEAAJPEBDJFJ@Z 0000000180029b20 f   SoundPlayerImpl.obj
 0001:00028b90       ?GetOposProp@COPOSSoundPlayer@@IEAAJPEBDJPEAPEA_WJ@Z 0000000180029b90 f   SoundPlayerImpl.obj
 0001:00028eb0       ?SetOposProp@COPOSSoundPlayer@@IEAAJPEBDJPEA_WJ@Z 0000000180029eb0 f   SoundPlayerImpl.obj
 0001:00029290       ?DoInvoke@COPOSSoundPlayer@@IEAAJPEBDJPEAVOposVariant@@IHPEAJ_N@Z 000000018002a290 f   SoundPlayerImpl.obj
 0001:00029df0       ?SetCOFreezeEvents@COPOSSoundPlayer@@IEAAXF@Z 000000018002adf0 f   SoundPlayerImpl.obj
 0001:00029f80       ?FreezeEvents@COPOSSoundPlayer@@MEAAJH@Z 000000018002af80 f   SoundPlayerImpl.obj
 0001:0002a0a0       ?OnDraw@COPOSSoundPlayer@@MEAAJAEAUATL_DRAWINFO@@@Z 000000018002b0a0 f   SoundPlayerImpl.obj
 0001:0002a270       ?SOProcessID@COPOSSoundPlayer@@UEAAJPEAJ@Z 000000018002b270 f   SoundPlayerImpl.obj
 0001:0002a2c0       ?get_OpenResult@COPOSSoundPlayer@@UEAAJPEAJ@Z 000000018002b2c0 f   SoundPlayerImpl.obj
 0001:0002a310       ?get_BinaryConversion@COPOSSoundPlayer@@UEAAJPEAJ@Z 000000018002b310 f   SoundPlayerImpl.obj
 0001:0002a350       ?put_BinaryConversion@COPOSSoundPlayer@@UEAAJJ@Z 000000018002b350 f   SoundPlayerImpl.obj
 0001:0002a3a0       ?get_CapPowerReporting@COPOSSoundPlayer@@UEAAJPEAJ@Z 000000018002b3a0 f   SoundPlayerImpl.obj
 0001:0002a3e0       ?get_CheckHealthText@COPOSSoundPlayer@@UEAAJPEAPEA_W@Z 000000018002b3e0 f   SoundPlayerImpl.obj
 0001:0002a420       ?get_Claimed@COPOSSoundPlayer@@UEAAJPEAF@Z 000000018002b420 f   SoundPlayerImpl.obj
 0001:0002a460       ?get_DeviceEnabled@COPOSSoundPlayer@@UEAAJPEAF@Z 000000018002b460 f   SoundPlayerImpl.obj
 0001:0002a4a0       ?put_DeviceEnabled@COPOSSoundPlayer@@UEAAJF@Z 000000018002b4a0 f   SoundPlayerImpl.obj
 0001:0002a4e0       ?get_FreezeEvents@COPOSSoundPlayer@@UEAAJPEAF@Z 000000018002b4e0 f   SoundPlayerImpl.obj
 0001:0002a520       ?put_FreezeEvents@COPOSSoundPlayer@@UEAAJF@Z 000000018002b520 f   SoundPlayerImpl.obj
 0001:0002a5e0       ?get_OutputID@COPOSSoundPlayer@@UEAAJPEAJ@Z 000000018002b5e0 f   SoundPlayerImpl.obj
 0001:0002a620       ?get_PowerNotify@COPOSSoundPlayer@@UEAAJPEAJ@Z 000000018002b620 f   SoundPlayerImpl.obj
 0001:0002a660       ?put_PowerNotify@COPOSSoundPlayer@@UEAAJJ@Z 000000018002b660 f   SoundPlayerImpl.obj
 0001:0002a6a0       ?get_PowerState@COPOSSoundPlayer@@UEAAJPEAJ@Z 000000018002b6a0 f   SoundPlayerImpl.obj
 0001:0002a6e0       ?get_ResultCode@COPOSSoundPlayer@@UEAAJPEAJ@Z 000000018002b6e0 f   SoundPlayerImpl.obj
 0001:0002a790       ?get_ResultCodeExtended@COPOSSoundPlayer@@UEAAJPEAJ@Z 000000018002b790 f   SoundPlayerImpl.obj
 0001:0002a7d0       ?get_State@COPOSSoundPlayer@@UEAAJPEAJ@Z 000000018002b7d0 f   SoundPlayerImpl.obj
 0001:0002a840       ?get_ControlObjectDescription@COPOSSoundPlayer@@UEAAJPEAPEA_W@Z 000000018002b840 f   SoundPlayerImpl.obj
 0001:0002a8b0       ?get_ControlObjectVersion@COPOSSoundPlayer@@UEAAJPEAJ@Z 000000018002b8b0 f   SoundPlayerImpl.obj
 0001:0002a900       ?get_ServiceObjectDescription@COPOSSoundPlayer@@UEAAJPEAPEA_W@Z 000000018002b900 f   SoundPlayerImpl.obj
 0001:0002a940       ?get_ServiceObjectVersion@COPOSSoundPlayer@@UEAAJPEAJ@Z 000000018002b940 f   SoundPlayerImpl.obj
 0001:0002a980       ?get_DeviceDescription@COPOSSoundPlayer@@UEAAJPEAPEA_W@Z 000000018002b980 f   SoundPlayerImpl.obj
 0001:0002a9c0       ?get_DeviceName@COPOSSoundPlayer@@UEAAJPEAPEA_W@Z 000000018002b9c0 f   SoundPlayerImpl.obj
 0001:0002aa00       ?get_CapStatisticsReporting@COPOSSoundPlayer@@UEAAJPEAF@Z 000000018002ba00 f   SoundPlayerImpl.obj
 0001:0002aa40       ?get_CapUpdateStatistics@COPOSSoundPlayer@@UEAAJPEAF@Z 000000018002ba40 f   SoundPlayerImpl.obj
 0001:0002aa80       ?get_CapCompareFirmwareVersion@COPOSSoundPlayer@@UEAAJPEAF@Z 000000018002ba80 f   SoundPlayerImpl.obj
 0001:0002aac0       ?get_CapUpdateFirmware@COPOSSoundPlayer@@UEAAJPEAF@Z 000000018002bac0 f   SoundPlayerImpl.obj
 0001:0002ab00       ?CheckHealth@COPOSSoundPlayer@@UEAAJJPEAJ@Z 000000018002bb00 f   SoundPlayerImpl.obj
 0001:0002abc0       ?ClaimDevice@COPOSSoundPlayer@@UEAAJJPEAJ@Z 000000018002bbc0 f   SoundPlayerImpl.obj
 0001:0002ace0       ?ClearOutput@COPOSSoundPlayer@@UEAAJPEAJ@Z 000000018002bce0 f   SoundPlayerImpl.obj
 0001:0002ad40       ?Close@COPOSSoundPlayer@@UEAAJPEAJ@Z 000000018002bd40 f   SoundPlayerImpl.obj
 0001:0002ae40       ?DirectIO@COPOSSoundPlayer@@UEAAJJPEAJPEAPEA_W0@Z 000000018002be40 f   SoundPlayerImpl.obj
 0001:0002afc0       ?Open@COPOSSoundPlayer@@UEAAJPEA_WPEAJ@Z 000000018002bfc0 f   SoundPlayerImpl.obj
 0001:0002c4a0       ?ReleaseDevice@COPOSSoundPlayer@@UEAAJPEAJ@Z 000000018002d4a0 f   SoundPlayerImpl.obj
 0001:0002c540       ?ResetStatistics@COPOSSoundPlayer@@UEAAJPEA_WPEAJ@Z 000000018002d540 f   SoundPlayerImpl.obj
 0001:0002c620       ?RetrieveStatistics@COPOSSoundPlayer@@UEAAJPEAPEA_WPEAJ@Z 000000018002d620 f   SoundPlayerImpl.obj
 0001:0002c700       ?UpdateStatistics@COPOSSoundPlayer@@UEAAJPEA_WPEAJ@Z 000000018002d700 f   SoundPlayerImpl.obj
 0001:0002c7e0       ?CompareFirmwareVersion@COPOSSoundPlayer@@UEAAJPEA_WPEAJ1@Z 000000018002d7e0 f   SoundPlayerImpl.obj
 0001:0002c920       ?UpdateFirmware@COPOSSoundPlayer@@UEAAJPEA_WPEAJ@Z 000000018002d920 f   SoundPlayerImpl.obj
 0001:0002ca00       ?get_CapAssociatedHardTotalsDevice@COPOSSoundPlayer@@UEAAJPEAPEA_W@Z 000000018002da00 f   SoundPlayerImpl.obj
 0001:0002ca40       ?get_CapMultiPlay@COPOSSoundPlayer@@UEAAJPEAF@Z 000000018002da40 f   SoundPlayerImpl.obj
 0001:0002ca80       ?get_CapSoundTypeList@COPOSSoundPlayer@@UEAAJPEAPEA_W@Z 000000018002da80 f   SoundPlayerImpl.obj
 0001:0002cac0       ?get_CapStorage@COPOSSoundPlayer@@UEAAJPEAJ@Z 000000018002dac0 f   SoundPlayerImpl.obj
 0001:0002cb00       ?get_CapVolume@COPOSSoundPlayer@@UEAAJPEAF@Z 000000018002db00 f   SoundPlayerImpl.obj
 0001:0002cb40       ?get_DeviceSoundList@COPOSSoundPlayer@@UEAAJPEAPEA_W@Z 000000018002db40 f   SoundPlayerImpl.obj
 0001:0002cb80       ?get_OutputIDList@COPOSSoundPlayer@@UEAAJPEAPEA_W@Z 000000018002db80 f   SoundPlayerImpl.obj
 0001:0002cbc0       ?get_Storage@COPOSSoundPlayer@@UEAAJPEAJ@Z 000000018002dbc0 f   SoundPlayerImpl.obj
 0001:0002cc00       ?put_Storage@COPOSSoundPlayer@@UEAAJJ@Z 000000018002dc00 f   SoundPlayerImpl.obj
 0001:0002cc40       ?get_Volume@COPOSSoundPlayer@@UEAAJPEAJ@Z 000000018002dc40 f   SoundPlayerImpl.obj
 0001:0002cc80       ?put_Volume@COPOSSoundPlayer@@UEAAJJ@Z 000000018002dc80 f   SoundPlayerImpl.obj
 0001:0002ccc0       ?PlaySoundW@COPOSSoundPlayer@@UEAAJPEA_WFPEAJ@Z 000000018002dcc0 f   SoundPlayerImpl.obj
 0001:0002cdf0       ?StopSound@COPOSSoundPlayer@@UEAAJJPEAJ@Z 000000018002ddf0 f   SoundPlayerImpl.obj
 0001:0002ceb0       ??0?$CComControl@VCOPOSSoundPlayer@@V?$CWindowImpl@VCOPOSSoundPlayer@@VCWindow@ATL@@V?$CWinTraits@$0FGAAAAAA@$0A@@3@@ATL@@@ATL@@QEAA@XZ 000000018002deb0 f i SoundPlayerImpl.obj
 0001:0002cef0       ??0?$CComPtr@UIAdviseSink@@@ATL@@QEAA@XZ 000000018002def0 f i SoundPlayerImpl.obj
 0001:0002cf10       ??0?$CComPtr@UIDataAdviseHolder@@@ATL@@QEAA@XZ 000000018002df10 f i SoundPlayerImpl.obj
 0001:0002cf30       ??0?$CComPtr@UIOleAdviseHolder@@@ATL@@QEAA@XZ 000000018002df30 f i SoundPlayerImpl.obj
 0001:0002cf50       ??0?$CComPtr@UIOleClientSite@@@ATL@@QEAA@XZ 000000018002df50 f i SoundPlayerImpl.obj
 0001:0002cf70       ??0?$CComPtr@UIOleInPlaceSiteWindowless@@@ATL@@QEAA@XZ 000000018002df70 f i SoundPlayerImpl.obj
 0001:0002cf90       ??0?$CComPtrBase@UIAdviseSink@@@ATL@@IEAA@XZ 000000018002df90 f i SoundPlayerImpl.obj
 0001:0002cfb0       ??0?$CComPtrBase@UIDataAdviseHolder@@@ATL@@IEAA@XZ 000000018002dfb0 f i SoundPlayerImpl.obj
 0001:0002cfd0       ??0?$CComPtrBase@UIOleAdviseHolder@@@ATL@@IEAA@XZ 000000018002dfd0 f i SoundPlayerImpl.obj
 0001:0002cff0       ??0?$CComPtrBase@UIOleClientSite@@@ATL@@IEAA@XZ 000000018002dff0 f i SoundPlayerImpl.obj
 0001:0002d010       ??0?$CComPtrBase@UIOleInPlaceSiteWindowless@@@ATL@@IEAA@XZ 000000018002e010 f i SoundPlayerImpl.obj
 0001:0002d030       ??0?$CComQIPtr@UIDispatch@@$1?_GUID_00020400_0000_0000_c000_000000000046@@3U__s_GUID@@B@ATL@@QEAA@XZ 000000018002e030 f i SoundPlayerImpl.obj
 0001:0002d050       ??0?$CProxy_IOPOSEvents@VCOPOSSoundPlayer@@@@QEAA@PEAVCOPOSSoundPlayer@@@Z 000000018002e050 f i SoundPlayerImpl.obj
 0001:0002d0d0       ??0?$CWindowImpl@VCOPOSSoundPlayer@@VCWindow@ATL@@V?$CWinTraits@$0FGAAAAAA@$0A@@3@@ATL@@QEAA@XZ 000000018002e0d0 f i SoundPlayerImpl.obj
 0001:0002d0f0       ??0?$CWindowImplBaseT@VCWindow@ATL@@V?$CWinTraits@$0FGAAAAAA@$0A@@2@@ATL@@QEAA@XZ 000000018002e0f0 f i SoundPlayerImpl.obj
 0001:0002d120       ??0?$CWindowImplRoot@VCWindow@ATL@@@ATL@@QEAA@XZ 000000018002e120 f i SoundPlayerImpl.obj
 0001:0002d180       ??0?$IConnectionPointContainerImpl@VCOPOSSoundPlayer@@@ATL@@QEAA@XZ 000000018002e180 f i SoundPlayerImpl.obj
 0001:0002d1a0       ??0?$IConnectionPointImpl@VCOPOSSoundPlayer@@$1?DIID__IOPOSSoundPlayerEvents@@3U_GUID@@BVCComDynamicUnkArray@ATL@@@ATL@@QEAA@XZ 000000018002e1a0 f i SoundPlayerImpl.obj
 0001:0002d1d0       ??0?$IConnectionPointImpl@VCOPOSSoundPlayer@@$1?IID_IPropertyNotifySink@@3U_GUID@@BVCComDynamicUnkArray@ATL@@@ATL@@QEAA@XZ 000000018002e1d0 f i SoundPlayerImpl.obj
 0001:0002d200       ??0?$IDataObjectImpl@VCOPOSSoundPlayer@@@ATL@@QEAA@XZ 000000018002e200 f i SoundPlayerImpl.obj
 0001:0002d220       ??0?$IDispatchImpl@UIOPOSSoundPlayer@@$1?IID_IOPOSSoundPlayer@@3U_GUID@@B$1?LIBID_OposSoundPlayer_CCO@@3U3@B$00$0A@VCComTypeInfoHolder@ATL@@@ATL@@QEAA@XZ 000000018002e220 f i SoundPlayerImpl.obj
 0001:0002d240       ??0?$IObjectSafetyImpl@VCOPOSSoundPlayer@@$02@ATL@@QEAA@XZ 000000018002e240 f i SoundPlayerImpl.obj
 0001:0002d270       ??0?$IOleControlImpl@VCOPOSSoundPlayer@@@ATL@@QEAA@XZ 000000018002e270 f i SoundPlayerImpl.obj
 0001:0002d290       ??0?$IOleInPlaceActiveObjectImpl@VCOPOSSoundPlayer@@@ATL@@QEAA@XZ 000000018002e290 f i SoundPlayerImpl.obj
 0001:0002d2b0       ??0?$IOleInPlaceObjectWindowlessImpl@VCOPOSSoundPlayer@@@ATL@@QEAA@XZ 000000018002e2b0 f i SoundPlayerImpl.obj
 0001:0002d2d0       ??0?$IOleObjectImpl@VCOPOSSoundPlayer@@@ATL@@QEAA@XZ 000000018002e2d0 f i SoundPlayerImpl.obj
 0001:0002d2f0       ??0?$IPersistStorageImpl@VCOPOSSoundPlayer@@@ATL@@QEAA@XZ 000000018002e2f0 f i SoundPlayerImpl.obj
 0001:0002d310       ??0?$IPersistStreamInitImpl@VCOPOSSoundPlayer@@@ATL@@QEAA@XZ 000000018002e310 f i SoundPlayerImpl.obj
 0001:0002d330       ??0?$IPropertyNotifySinkCP@VCOPOSSoundPlayer@@VCComDynamicUnkArray@ATL@@@ATL@@QEAA@XZ 000000018002e330 f i SoundPlayerImpl.obj
 0001:0002d350       ??0?$IProvideClassInfo2Impl@$1?CLSID_OPOSSoundPlayer@@3U_GUID@@B$1?DIID__IOPOSSoundPlayerEvents@@3U2@B$1?LIBID_OposSoundPlayer_CCO@@3U2@B$00$0A@VCComTypeInfoHolder@ATL@@@ATL@@QEAA@XZ 000000018002e350 f i SoundPlayerImpl.obj
 0001:0002d370       ??0?$IQuickActivateImpl@VCOPOSSoundPlayer@@@ATL@@QEAA@XZ 000000018002e370 f i SoundPlayerImpl.obj
 0001:0002d390       ??0?$ISpecifyPropertyPagesImpl@VCOPOSSoundPlayer@@@ATL@@QEAA@XZ 000000018002e390 f i SoundPlayerImpl.obj
 0001:0002d3b0       ??0?$IViewObjectExImpl@VCOPOSSoundPlayer@@@ATL@@QEAA@XZ 000000018002e3b0 f i SoundPlayerImpl.obj
 0001:0002d3d0       ??0?$_ICPLocator@$1?DIID__IOPOSSoundPlayerEvents@@3U_GUID@@B@ATL@@QEAA@XZ 000000018002e3d0 f i SoundPlayerImpl.obj
 0001:0002d3e0       ??0?$_ICPLocator@$1?IID_IPropertyNotifySink@@3U_GUID@@B@ATL@@QEAA@XZ 000000018002e3e0 f i SoundPlayerImpl.obj
 0001:0002d3f0       ??0CComControlBase@ATL@@QEAA@AEAPEAUHWND__@@@Z 000000018002e3f0 f i SoundPlayerImpl.obj
 0001:0002d600       ??0CComDynamicUnkArray@ATL@@QEAA@XZ 000000018002e600 f i SoundPlayerImpl.obj
 0001:0002d630       ??0CDynamicStdCallThunk2@ATL@@QEAA@XZ 000000018002e630 f i SoundPlayerImpl.obj
 0001:0002d650       ??0CMessageMap@ATL@@QEAA@XZ 000000018002e650 f i SoundPlayerImpl.obj
 0001:0002d660       ??0CWindow@ATL@@QEAA@PEAUHWND__@@@Z 000000018002e660 f i SoundPlayerImpl.obj
 0001:0002d680       ??0CWndProcThunk@ATL@@QEAA@XZ 000000018002e680 f i SoundPlayerImpl.obj
 0001:0002d6b0       ??0IConnectionPointContainer@@QEAA@XZ 000000018002e6b0 f i SoundPlayerImpl.obj
 0001:0002d6d0       ??0IDataObject@@QEAA@XZ    000000018002e6d0 f i SoundPlayerImpl.obj
 0001:0002d6f0       ??0IDispatch@@QEAA@XZ      000000018002e6f0 f i SoundPlayerImpl.obj
 0001:0002d710       ??0IOPOSSoundPlayer@@QEAA@XZ 000000018002e710 f i SoundPlayerImpl.obj
 0001:0002d730       ??0IOPOSSoundPlayer_1_16@@QEAA@XZ 000000018002e730 f i SoundPlayerImpl.obj
 0001:0002d750       ??0IObjectSafety@@QEAA@XZ  000000018002e750 f i SoundPlayerImpl.obj
 0001:0002d770       ??0IOleControl@@QEAA@XZ    000000018002e770 f i SoundPlayerImpl.obj
 0001:0002d790       ??0IOleInPlaceActiveObject@@QEAA@XZ 000000018002e790 f i SoundPlayerImpl.obj
 0001:0002d7b0       ??0IOleInPlaceObject@@QEAA@XZ 000000018002e7b0 f i SoundPlayerImpl.obj
 0001:0002d7d0       ??0IOleInPlaceObjectWindowless@@QEAA@XZ 000000018002e7d0 f i SoundPlayerImpl.obj
 0001:0002d7f0       ??0IOleObject@@QEAA@XZ     000000018002e7f0 f i SoundPlayerImpl.obj
 0001:0002d810       ??0IOleWindow@@QEAA@XZ     000000018002e810 f i SoundPlayerImpl.obj
 0001:0002d830       ??0IPersist@@QEAA@XZ       000000018002e830 f i SoundPlayerImpl.obj
 0001:0002d850       ??0IPersistStorage@@QEAA@XZ 000000018002e850 f i SoundPlayerImpl.obj
 0001:0002d870       ??0IPersistStreamInit@@QEAA@XZ 000000018002e870 f i SoundPlayerImpl.obj
 0001:0002d890       ??0IProvideClassInfo2@@QEAA@XZ 000000018002e890 f i SoundPlayerImpl.obj
 0001:0002d8b0       ??0IProvideClassInfo@@QEAA@XZ 000000018002e8b0 f i SoundPlayerImpl.obj
 0001:0002d8d0       ??0IQuickActivate@@QEAA@XZ 000000018002e8d0 f i SoundPlayerImpl.obj
 0001:0002d8f0       ??0ISpecifyPropertyPages@@QEAA@XZ 000000018002e8f0 f i SoundPlayerImpl.obj
 0001:0002d910       ??0IViewObject2@@QEAA@XZ   000000018002e910 f i SoundPlayerImpl.obj
 0001:0002d930       ??0IViewObject@@QEAA@XZ    000000018002e930 f i SoundPlayerImpl.obj
 0001:0002d950       ??0IViewObjectEx@@QEAA@XZ  000000018002e950 f i SoundPlayerImpl.obj
 0001:0002d970       ??0OposVariantResult@@QEAA@XZ 000000018002e970 f i SoundPlayerImpl.obj
 0001:0002d990       ??0_CW@@QEAA@PEBD@Z        000000018002e990 f i SoundPlayerImpl.obj
 0001:0002d9e0       ??0_CW@@QEAA@PEB_W@Z       000000018002e9e0 f i SoundPlayerImpl.obj
 0001:0002da30       ??0_CWNCC@@QEAA@PEBD@Z     000000018002ea30 f i SoundPlayerImpl.obj
 0001:0002da60       ??1?$CComControl@VCOPOSSoundPlayer@@V?$CWindowImpl@VCOPOSSoundPlayer@@VCWindow@ATL@@V?$CWinTraits@$0FGAAAAAA@$0A@@3@@ATL@@@ATL@@UEAA@XZ 000000018002ea60 f i SoundPlayerImpl.obj
 0001:0002da90       ??1?$CComPtr@UIDataAdviseHolder@@@ATL@@QEAA@XZ 000000018002ea90 f i SoundPlayerImpl.obj
 0001:0002dab0       ??1?$CComPtr@UIOleAdviseHolder@@@ATL@@QEAA@XZ 000000018002eab0 f i SoundPlayerImpl.obj
 0001:0002dad0       ??1?$CComPtr@UIOleInPlaceSiteWindowless@@@ATL@@QEAA@XZ 000000018002ead0 f i SoundPlayerImpl.obj
 0001:0002daf0       ??1?$CComPtrBase@UIDataAdviseHolder@@@ATL@@QEAA@XZ 000000018002eaf0 f i SoundPlayerImpl.obj
 0001:0002db30       ??1?$CComPtrBase@UIOleAdviseHolder@@@ATL@@QEAA@XZ 000000018002eb30 f i SoundPlayerImpl.obj
 0001:0002db70       ??1?$CComPtrBase@UIOleInPlaceSiteWindowless@@@ATL@@QEAA@XZ 000000018002eb70 f i SoundPlayerImpl.obj
 0001:0002dbb0       ??1?$CComQIPtr@UIDispatch@@$1?_GUID_00020400_0000_0000_c000_000000000046@@3U__s_GUID@@B@ATL@@QEAA@XZ 000000018002ebb0 f i SoundPlayerImpl.obj
 0001:0002dbd0       ??1?$CProxy_IOPOSEvents@VCOPOSSoundPlayer@@@@QEAA@XZ 000000018002ebd0 f i SoundPlayerImpl.obj
 0001:0002dbf0       ??1?$CWindowImpl@VCOPOSSoundPlayer@@VCWindow@ATL@@V?$CWinTraits@$0FGAAAAAA@$0A@@3@@ATL@@UEAA@XZ 000000018002ebf0 f i SoundPlayerImpl.obj
 0001:0002dc10       ??1?$CWindowImplBaseT@VCWindow@ATL@@V?$CWinTraits@$0FGAAAAAA@$0A@@2@@ATL@@UEAA@XZ 000000018002ec10 f i SoundPlayerImpl.obj
 0001:0002dc30       ??1?$CWindowImplRoot@VCWindow@ATL@@@ATL@@UEAA@XZ 000000018002ec30 f i SoundPlayerImpl.obj
 0001:0002dce0       ??1?$IConnectionPointImpl@VCOPOSSoundPlayer@@$1?DIID__IOPOSSoundPlayerEvents@@3U_GUID@@BVCComDynamicUnkArray@ATL@@@ATL@@QEAA@XZ 000000018002ece0 f i SoundPlayerImpl.obj
 0001:0002dd60       ??1?$IConnectionPointImpl@VCOPOSSoundPlayer@@$1?IID_IPropertyNotifySink@@3U_GUID@@BVCComDynamicUnkArray@ATL@@@ATL@@QEAA@XZ 000000018002ed60 f i SoundPlayerImpl.obj
 0001:0002dde0       ??1?$IPropertyNotifySinkCP@VCOPOSSoundPlayer@@VCComDynamicUnkArray@ATL@@@ATL@@QEAA@XZ 000000018002ede0 f i SoundPlayerImpl.obj
 0001:0002de00       ??1CComControlBase@ATL@@UEAA@XZ 000000018002ee00 f i SoundPlayerImpl.obj
 0001:0002dee0       ??1CComDynamicUnkArray@ATL@@QEAA@XZ 000000018002eee0 f i SoundPlayerImpl.obj
 0001:0002df10       ??1CDynamicStdCallThunk2@ATL@@QEAA@XZ 000000018002ef10 f i SoundPlayerImpl.obj
 0001:0002df40       ??1CWndProcThunk@ATL@@QEAA@XZ 000000018002ef40 f i SoundPlayerImpl.obj
 0001:0002df70       ??1OposVariantResult@@QEAA@XZ 000000018002ef70 f i SoundPlayerImpl.obj
 0001:0002dfa0       ??1_CW@@QEAA@XZ            000000018002efa0 f i SoundPlayerImpl.obj
 0001:0002e000       ??1_CWNCC@@QEAA@XZ         000000018002f000 f i SoundPlayerImpl.obj
 0001:0002e020       ??B_CW@@QEAAPEB_WXZ        000000018002f020 f i SoundPlayerImpl.obj
 0001:0002e050       ??B_CWNCC@@QEAAPEA_WXZ     000000018002f050 f i SoundPlayerImpl.obj
 0001:0002e070       ??_EOposVariant@@QEAAPEAXI@Z 000000018002f070 f i SoundPlayerImpl.obj
 0001:0002e110       ?EventClaim@COPOSSoundPlayer@@IEAAXXZ 000000018002f110 f i SoundPlayerImpl.obj
 0001:0002e140       ?EventClose@COPOSSoundPlayer@@IEAAXXZ 000000018002f140 f i SoundPlayerImpl.obj
 0001:0002e1e0       ?EventInit@COPOSSoundPlayer@@IEAAJXZ 000000018002f1e0 f i SoundPlayerImpl.obj
 0001:0002e490       ?EventOpen@COPOSSoundPlayer@@IEAAXXZ 000000018002f490 f i SoundPlayerImpl.obj
 0001:0002e4d0       ?EventPreCloseRelease@COPOSSoundPlayer@@IEAAXXZ 000000018002f4d0 f i SoundPlayerImpl.obj
 0001:0002e540       ?EventUninit@COPOSSoundPlayer@@IEAAXXZ 000000018002f540 f i SoundPlayerImpl.obj
 0001:0002e660       ?EventWindowProc@COPOSSoundPlayer@@IEAA_JI_K_J@Z 000000018002f660 f i SoundPlayerImpl.obj
 0001:0002e820       ?FireEventCleanup@COPOSSoundPlayer@@IEAAXXZ 000000018002f820 f i SoundPlayerImpl.obj
 0001:0002e860       ?FireEventSetup@COPOSSoundPlayer@@IEAA_NXZ 000000018002f860 f i SoundPlayerImpl.obj
 0001:0002e8d0       ?GetModuleInstance@CComModule@ATL@@QEAAPEAUHINSTANCE__@@XZ 000000018002f8d0 f i SoundPlayerImpl.obj
 0001:0002e8e0       ?SetRC@COPOSSoundPlayer@@IEAAJJ@Z 000000018002f8e0 f i SoundPlayerImpl.obj
 0001:0002e900       ?s_EventWindowProc@COPOSSoundPlayer@@KA_JPEAUHWND__@@I_K_J@Z 000000018002f900 f i SoundPlayerImpl.obj
 0001:0002e9a0       _snwprintf                 000000018002f9a0 f i SoundPlayerImpl.obj
 0001:0002ea30       _vfwprintf_l               000000018002fa30 f i SoundPlayerImpl.obj
 0001:0002ea80       _vsnwprintf                000000018002fa80 f i SoundPlayerImpl.obj
 0001:0002eac0       _vsnwprintf_l              000000018002fac0 f i SoundPlayerImpl.obj
 0001:0002eb40       vfwprintf                  000000018002fb40 f i SoundPlayerImpl.obj
 0001:0002eb71       DebugBreak                 000000018002fb71 f   kernel32:KERNEL32.dll
 0001:0002eb77       Sleep                      000000018002fb77 f   kernel32:KERNEL32.dll
 0001:0002eb7d       GetCurrentProcess          000000018002fb7d f   kernel32:KERNEL32.dll
 0001:0002eb83       TerminateProcess           000000018002fb83 f   kernel32:KERNEL32.dll
 0001:0002eb89       MultiByteToWideChar        000000018002fb89 f   kernel32:KERNEL32.dll
 0001:0002eb8f       WideCharToMultiByte        000000018002fb8f f   kernel32:KERNEL32.dll
 0001:0002eb95       DecodePointer              000000018002fb95 f   kernel32:KERNEL32.dll
 0001:0002eb9b       RaiseException             000000018002fb9b f   kernel32:KERNEL32.dll
 0001:0002eba1       GetLastError               000000018002fba1 f   kernel32:KERNEL32.dll
 0001:0002eba7       SetLastError               000000018002fba7 f   kernel32:KERNEL32.dll
 0001:0002ebad       InitializeCriticalSectionEx 000000018002fbad f   kernel32:KERNEL32.dll
 0001:0002ebb3       DeleteCriticalSection      000000018002fbb3 f   kernel32:KERNEL32.dll
 0001:0002ebb9       EncodePointer              000000018002fbb9 f   kernel32:KERNEL32.dll
 0001:0002ebbf       EnterCriticalSection       000000018002fbbf f   kernel32:KERNEL32.dll
 0001:0002ebc5       LeaveCriticalSection       000000018002fbc5 f   kernel32:KERNEL32.dll
 0001:0002ebcb       ResetEvent                 000000018002fbcb f   kernel32:KERNEL32.dll
 0001:0002ebd1       ReleaseMutex               000000018002fbd1 f   kernel32:KERNEL32.dll
 0001:0002ebd7       WaitForSingleObject        000000018002fbd7 f   kernel32:KERNEL32.dll
 0001:0002ebdd       GetCurrentThreadId         000000018002fbdd f   kernel32:KERNEL32.dll
 0001:0002ebe3       DisableThreadLibraryCalls  000000018002fbe3 f   kernel32:KERNEL32.dll
 0001:0002ebe9       FreeLibrary                000000018002fbe9 f   kernel32:KERNEL32.dll
 0001:0002ebef       GetModuleFileNameW         000000018002fbef f   kernel32:KERNEL32.dll
 0001:0002ebf5       GetModuleHandleW           000000018002fbf5 f   kernel32:KERNEL32.dll
 0001:0002ebfb       GetProcAddress             000000018002fbfb f   kernel32:KERNEL32.dll
 0001:0002ec01       LoadLibraryExW             000000018002fc01 f   kernel32:KERNEL32.dll
 0001:0002ec07       LoadResource               000000018002fc07 f   kernel32:KERNEL32.dll
 0001:0002ec0d       SizeofResource             000000018002fc0d f   kernel32:KERNEL32.dll
 0001:0002ec13       FindResourceW              000000018002fc13 f   kernel32:KERNEL32.dll
 0001:0002ec19       GlobalAlloc                000000018002fc19 f   kernel32:KERNEL32.dll
 0001:0002ec1f       GlobalUnlock               000000018002fc1f f   kernel32:KERNEL32.dll
 0001:0002ec25       GlobalLock                 000000018002fc25 f   kernel32:KERNEL32.dll
 0001:0002ec2b       MulDiv                     000000018002fc2b f   kernel32:KERNEL32.dll
 0001:0002ec31       lstrcmpiW                  000000018002fc31 f   kernel32:KERNEL32.dll
 0001:0002ec37       DeleteFileW                000000018002fc37 f   kernel32:KERNEL32.dll
 0001:0002ec3d       CloseHandle                000000018002fc3d f   kernel32:KERNEL32.dll
 0001:0002ec43       SetEvent                   000000018002fc43 f   kernel32:KERNEL32.dll
 0001:0002ec49       CreateMutexW               000000018002fc49 f   kernel32:KERNEL32.dll
 0001:0002ec4f       CreateEventW               000000018002fc4f f   kernel32:KERNEL32.dll
 0001:0002ec55       GetCurrentProcessId        000000018002fc55 f   kernel32:KERNEL32.dll
 0001:0002ec5b       LocalFree                  000000018002fc5b f   kernel32:KERNEL32.dll
 0001:0002ec61       FormatMessageW             000000018002fc61 f   kernel32:KERNEL32.dll
 0001:0002ec67       GetActiveWindow            000000018002fc67 f   user32:USER32.dll
 0001:0002ec6d       MessageBoxW                000000018002fc6d f   user32:USER32.dll
 0001:0002ec73       UnregisterClassW           000000018002fc73 f   user32:USER32.dll
 0001:0002ec79       PostMessageW               000000018002fc79 f   user32:USER32.dll
 0001:0002ec7f       DefWindowProcW             000000018002fc7f f   user32:USER32.dll
 0001:0002ec85       CallWindowProcW            000000018002fc85 f   user32:USER32.dll
 0001:0002ec8b       RegisterClassExW           000000018002fc8b f   user32:USER32.dll
 0001:0002ec91       GetClassInfoExW            000000018002fc91 f   user32:USER32.dll
 0001:0002ec97       CreateWindowExW            000000018002fc97 f   user32:USER32.dll
 0001:0002ec9d       IsWindow                   000000018002fc9d f   user32:USER32.dll
 0001:0002eca3       IsChild                    000000018002fca3 f   user32:USER32.dll
 0001:0002eca9       DestroyWindow              000000018002fca9 f   user32:USER32.dll
 0001:0002ecaf       ShowWindow                 000000018002fcaf f   user32:USER32.dll
 0001:0002ecb5       SetWindowPos               000000018002fcb5 f   user32:USER32.dll
 0001:0002ecbb       CharNextW                  000000018002fcbb f   user32:USER32.dll
 0001:0002ecc1       SetFocus                   000000018002fcc1 f   user32:USER32.dll
 0001:0002ecc7       GetFocus                   000000018002fcc7 f   user32:USER32.dll
 0001:0002eccd       GetKeyState                000000018002fccd f   user32:USER32.dll
 0001:0002ecd3       GetDC                      000000018002fcd3 f   user32:USER32.dll
 0001:0002ecd9       ReleaseDC                  000000018002fcd9 f   user32:USER32.dll
 0001:0002ecdf       BeginPaint                 000000018002fcdf f   user32:USER32.dll
 0001:0002ece5       EndPaint                   000000018002fce5 f   user32:USER32.dll
 0001:0002eceb       SetWindowRgn               000000018002fceb f   user32:USER32.dll
 0001:0002ecf1       InvalidateRect             000000018002fcf1 f   user32:USER32.dll
 0001:0002ecf7       GetClientRect              000000018002fcf7 f   user32:USER32.dll
 0001:0002ecfd       IntersectRect              000000018002fcfd f   user32:USER32.dll
 0001:0002ed03       UnionRect                  000000018002fd03 f   user32:USER32.dll
 0001:0002ed09       OffsetRect                 000000018002fd09 f   user32:USER32.dll
 0001:0002ed0f       EqualRect                  000000018002fd0f f   user32:USER32.dll
 0001:0002ed15       PtInRect                   000000018002fd15 f   user32:USER32.dll
 0001:0002ed1b       GetWindowLongPtrW          000000018002fd1b f   user32:USER32.dll
 0001:0002ed21       SetWindowLongPtrW          000000018002fd21 f   user32:USER32.dll
 0001:0002ed27       GetParent                  000000018002fd27 f   user32:USER32.dll
 0001:0002ed2d       LoadCursorW                000000018002fd2d f   user32:USER32.dll
 0001:0002ed33       PeekMessageW               000000018002fd33 f   user32:USER32.dll
 0001:0002ed39       RegisterClassW             000000018002fd39 f   user32:USER32.dll
 0001:0002ed3f       LoadBitmapW                000000018002fd3f f   user32:USER32.dll
 0001:0002ed45       CloseMetaFile              000000018002fd45 f   gdi32:GDI32.dll
 0001:0002ed4b       CreateDCW                  000000018002fd4b f   gdi32:GDI32.dll
 0001:0002ed51       CreateMetaFileW            000000018002fd51 f   gdi32:GDI32.dll
 0001:0002ed57       CreateRectRgnIndirect      000000018002fd57 f   gdi32:GDI32.dll
 0001:0002ed5d       DeleteDC                   000000018002fd5d f   gdi32:GDI32.dll
 0001:0002ed63       DeleteMetaFile             000000018002fd63 f   gdi32:GDI32.dll
 0001:0002ed69       GetDeviceCaps              000000018002fd69 f   gdi32:GDI32.dll
 0001:0002ed6f       RestoreDC                  000000018002fd6f f   gdi32:GDI32.dll
 0001:0002ed75       SaveDC                     000000018002fd75 f   gdi32:GDI32.dll
 0001:0002ed7b       SetMapMode                 000000018002fd7b f   gdi32:GDI32.dll
 0001:0002ed81       LPtoDP                     000000018002fd81 f   gdi32:GDI32.dll
 0001:0002ed87       SetViewportOrgEx           000000018002fd87 f   gdi32:GDI32.dll
 0001:0002ed8d       SetWindowExtEx             000000018002fd8d f   gdi32:GDI32.dll
 0001:0002ed93       SetWindowOrgEx             000000018002fd93 f   gdi32:GDI32.dll
 0001:0002ed99       BitBlt                     000000018002fd99 f   gdi32:GDI32.dll
 0001:0002ed9f       CreateCompatibleDC         000000018002fd9f f   gdi32:GDI32.dll
 0001:0002eda5       DeleteObject               000000018002fda5 f   gdi32:GDI32.dll
 0001:0002edab       SelectObject               000000018002fdab f   gdi32:GDI32.dll
 0001:0002edb1       GetObjectW                 000000018002fdb1 f   gdi32:GDI32.dll
 0001:0002edb7       RegCloseKey                000000018002fdb7 f   advapi32:ADVAPI32.dll
 0001:0002edbd       RegCreateKeyExW            000000018002fdbd f   advapi32:ADVAPI32.dll
 0001:0002edc3       RegDeleteKeyW              000000018002fdc3 f   advapi32:ADVAPI32.dll
 0001:0002edc9       RegDeleteValueW            000000018002fdc9 f   advapi32:ADVAPI32.dll
 0001:0002edcf       RegEnumKeyExW              000000018002fdcf f   advapi32:ADVAPI32.dll
 0001:0002edd5       RegOpenKeyExW              000000018002fdd5 f   advapi32:ADVAPI32.dll
 0001:0002eddb       RegQueryInfoKeyW           000000018002fddb f   advapi32:ADVAPI32.dll
 0001:0002ede1       RegSetValueExW             000000018002fde1 f   advapi32:ADVAPI32.dll
 0001:0002ede7       RegQueryValueExW           000000018002fde7 f   advapi32:ADVAPI32.dll
 0001:0002eded       CoCreateInstance           000000018002fded f   ole32:ole32.dll
 0001:0002edf3       StringFromGUID2            000000018002fdf3 f   ole32:ole32.dll
 0001:0002edf9       CoTaskMemAlloc             000000018002fdf9 f   ole32:ole32.dll
 0001:0002edff       CoTaskMemRealloc           000000018002fdff f   ole32:ole32.dll
 0001:0002ee05       CoTaskMemFree              000000018002fe05 f   ole32:ole32.dll
 0001:0002ee0b       ReadClassStm               000000018002fe0b f   ole32:ole32.dll
 0001:0002ee11       WriteClassStm              000000018002fe11 f   ole32:ole32.dll
 0001:0002ee17       CreateDataAdviseHolder     000000018002fe17 f   ole32:ole32.dll
 0001:0002ee1d       OleSaveToStream            000000018002fe1d f   ole32:ole32.dll
 0001:0002ee23       CreateOleAdviseHolder      000000018002fe23 f   ole32:ole32.dll
 0001:0002ee29       OleRegGetUserType          000000018002fe29 f   ole32:ole32.dll
 0001:0002ee2f       OleRegGetMiscStatus        000000018002fe2f f   ole32:ole32.dll
 0001:0002ee35       OleRegEnumVerbs            000000018002fe35 f   ole32:ole32.dll
 0001:0002ee3b       CLSIDFromProgID            000000018002fe3b f   ole32:ole32.dll
 0001:0002ee41       SysAllocString             000000018002fe41 f   oleaut32:OLEAUT32.dll
 0001:0002ee47       SysAllocStringLen          000000018002fe47 f   oleaut32:OLEAUT32.dll
 0001:0002ee4d       SysFreeString              000000018002fe4d f   oleaut32:OLEAUT32.dll
 0001:0002ee53       SysStringLen               000000018002fe53 f   oleaut32:OLEAUT32.dll
 0001:0002ee59       VariantClear               000000018002fe59 f   oleaut32:OLEAUT32.dll
 0001:0002ee5f       VariantCopyInd             000000018002fe5f f   oleaut32:OLEAUT32.dll
 0001:0002ee65       VariantChangeType          000000018002fe65 f   oleaut32:OLEAUT32.dll
 0001:0002ee6b       SysStringByteLen           000000018002fe6b f   oleaut32:OLEAUT32.dll
 0001:0002ee71       SysAllocStringByteLen      000000018002fe71 f   oleaut32:OLEAUT32.dll
 0001:0002ee77       VariantInit                000000018002fe77 f   oleaut32:OLEAUT32.dll
 0001:0002ee7d       VarUI4FromStr              000000018002fe7d f   oleaut32:OLEAUT32.dll
 0001:0002ee83       LoadTypeLib                000000018002fe83 f   oleaut32:OLEAUT32.dll
 0001:0002ee89       LoadRegTypeLib             000000018002fe89 f   oleaut32:OLEAUT32.dll
 0001:0002ee8f       RegisterTypeLib            000000018002fe8f f   oleaut32:OLEAUT32.dll
 0001:0002ee95       UnRegisterTypeLib          000000018002fe95 f   oleaut32:OLEAUT32.dll
 0001:0002ee9b       OleCreatePropertyFrame     000000018002fe9b f   oleaut32:OLEAUT32.dll
 0001:0002eeb0       _RTC_AllocaHelper          000000018002feb0 f   LIBCMTD:stack.obj
 0001:0002eef0       _RTC_CheckStackVars        000000018002fef0 f   LIBCMTD:stack.obj
 0001:0002ef80       _RTC_CheckStackVars2       000000018002ff80 f   LIBCMTD:stack.obj
 0001:0002f090       _CRT_RTC_INIT              0000000180030090 f   LIBCMTD:init.obj
 0001:0002f0a0       _CRT_RTC_INITW             00000001800300a0 f   LIBCMTD:init.obj
 0001:0002f0b0       _RTC_InitBase              00000001800300b0 f   LIBCMTD:init.obj
 0001:0002f0f0       _RTC_Shutdown              00000001800300f0 f   LIBCMTD:init.obj
 0001:0002f120       __GSHandlerCheck           0000000180030120 f   LIBCMTD:gshandler.obj
 0001:0002f160       __GSHandlerCheckCommon     0000000180030160 f   LIBCMTD:gshandler.obj
 0001:0002f270       __security_check_cookie    0000000180030270 f   LIBCMTD:amdsecgs.obj
 0001:0002f290       ??_U@YAPEAX_K@Z            0000000180030290 f   LIBCMTD:new_array.obj
 0001:0002f2b0       ??3@YAXPEAX_K@Z            00000001800302b0 f   LIBCMTD:delete_scalar_size.obj
 0001:0002f2d0       ??_V@YAXPEAX@Z             00000001800302d0 f   LIBCMTD:delete_array.obj
 0001:0002f2f0       ??_V@YAXPEAX_K@Z           00000001800302f0 f   LIBCMTD:delete_array_size.obj
 0001:0002f310       ?configure_argv@__scrt_narrow_argv_policy@@SAHXZ 0000000180030310 f i LIBCMTD:utility.obj
 0001:0002f400       ?initialize_environment@__scrt_narrow_environment_policy@@SAHXZ 0000000180030400 f i LIBCMTD:utility.obj
 0001:0002f4a0       NtCurrentTeb               00000001800304a0 f i LIBCMTD:utility.obj
 0001:0002f4b0       __scrt_acquire_startup_lock 00000001800304b0 f   LIBCMTD:utility.obj
 0001:0002f520       __scrt_dllmain_after_initialize_c 0000000180030520 f   LIBCMTD:utility.obj
 0001:0002f550       __scrt_dllmain_before_initialize_c 0000000180030550 f   LIBCMTD:utility.obj
 0001:0002f570       __scrt_dllmain_crt_thread_attach 0000000180030570 f   LIBCMTD:utility.obj
 0001:0002f5a0       __scrt_dllmain_crt_thread_detach 00000001800305a0 f   LIBCMTD:utility.obj
 0001:0002f5c0       __scrt_dllmain_exception_filter 00000001800305c0 f   LIBCMTD:utility.obj
 0001:0002f630       __scrt_dllmain_uninitialize_c 0000000180030630 f   LIBCMTD:utility.obj
 0001:0002f660       __scrt_dllmain_uninitialize_critical 0000000180030660 f   LIBCMTD:utility.obj
 0001:0002f680       __scrt_initialize_crt      0000000180030680 f   LIBCMTD:utility.obj
 0001:0002f6d0       __scrt_initialize_onexit_tables 00000001800306d0 f   LIBCMTD:utility.obj
 0001:0002f7e0       __scrt_is_nonwritable_in_current_image 00000001800307e0 f   LIBCMTD:utility.obj
 0001:0002f870       __scrt_release_startup_lock 0000000180030870 f   LIBCMTD:utility.obj
 0001:0002f8a0       __scrt_uninitialize_crt    00000001800308a0 f   LIBCMTD:utility.obj
 0001:0002f8e0       _onexit                    00000001800308e0 f   LIBCMTD:utility.obj
 0001:0002f960       at_quick_exit              0000000180030960 f   LIBCMTD:utility.obj
 0001:0002f9b0       atexit                     00000001800309b0 f   LIBCMTD:utility.obj
 0001:0002f9f0       ??3@YAXPEAX@Z              00000001800309f0 f   LIBCMTD:delete_scalar.obj
 0001:0002fa10       __raise_securityfailure    0000000180030a10 f   LIBCMTD:gs_report.obj
 0001:0002fa50       __report_gsfailure         0000000180030a50 f   LIBCMTD:gs_report.obj
 0001:0002fb30       __report_rangecheckfailure 0000000180030b30 f   LIBCMTD:gs_report.obj
 0001:0002fb50       __report_securityfailure   0000000180030b50 f   LIBCMTD:gs_report.obj
 0001:0002fbf0       __report_securityfailureEx 0000000180030bf0 f   LIBCMTD:gs_report.obj
 0001:0002ffb0       _Init_thread_abort         0000000180030fb0 f   LIBCMTD:thread_safe_statics.obj
 0001:0002ffe0       _Init_thread_footer        0000000180030fe0 f   LIBCMTD:thread_safe_statics.obj
 0001:00030040       _Init_thread_header        0000000180031040 f   LIBCMTD:thread_safe_statics.obj
 0001:000300d0       _Init_thread_lock          00000001800310d0 f   LIBCMTD:thread_safe_statics.obj
 0001:000300f0       _Init_thread_notify        00000001800310f0 f   LIBCMTD:thread_safe_statics.obj
 0001:00030150       _Init_thread_unlock        0000000180031150 f   LIBCMTD:thread_safe_statics.obj
 0001:00030170       _Init_thread_wait          0000000180031170 f   LIBCMTD:thread_safe_statics.obj
 0001:00030220       ??2@YAPEAX_KAEBUnothrow_t@std@@@Z 0000000180031220 f   LIBCMTD:new_scalar_nothrow.obj
 0001:00030260       ??_U@YAPEAX_KAEBUnothrow_t@std@@@Z 0000000180031260 f   LIBCMTD:new_array_nothrow.obj
 0001:00030290       __GSHandlerCheck_SEH       0000000180031290 f   LIBCMTD:gshandlerseh.obj
 0001:00030360       __chkstk                   0000000180031360 f   LIBCMTD:chkstk.obj
 0001:00030360       _alloca_probe              0000000180031360 f   LIBCMTD:chkstk.obj
 0001:000307c0       _CRT_INIT                  00000001800317c0 f   LIBCMTD:dll_dllmain.obj
 0001:000307f0       _DllMainCRTStartup         00000001800317f0 f   LIBCMTD:dll_dllmain.obj
 0001:000308c0       ?_RTC_AllocaFailure@@YAXPEAXPEAU_RTC_ALLOCA_NODE@@H@Z 00000001800318c0 f   LIBCMTD:error.obj
 0001:00030a20       ?_RTC_Failure@@YAXPEAXH@Z  0000000180031a20 f   LIBCMTD:error.obj
 0001:00030a70       ?_RTC_StackFailure@@YAXPEAXPEBD@Z 0000000180031a70 f   LIBCMTD:error.obj
 0001:00030ea0       _RTC_UninitUse             0000000180031ea0 f   LIBCMTD:error.obj
 0001:00030f70       _vsprintf_s_l              0000000180031f70 f i LIBCMTD:error.obj
 0001:00030fe0       sprintf_s                  0000000180031fe0 f i LIBCMTD:error.obj
 0001:00031010       ?_RTC_GetErrorFunc@@YAP6AHHPEBDH00ZZPEBX@Z 0000000180032010 f   LIBCMTD:userapi.obj
 0001:00031020       ?_RTC_GetErrorFuncW@@YAP6AHHPEB_WH00ZZPEBX@Z 0000000180032020 f   LIBCMTD:userapi.obj
 0001:00031030       _RTC_GetErrDesc            0000000180032030 f   LIBCMTD:userapi.obj
 0001:00031050       _RTC_NumErrors             0000000180032050 f   LIBCMTD:userapi.obj
 0001:00031060       _RTC_SetErrorFunc          0000000180032060 f   LIBCMTD:userapi.obj
 0001:00031080       _RTC_SetErrorFuncW         0000000180032080 f   LIBCMTD:userapi.obj
 0001:000310a0       _RTC_SetErrorType          00000001800320a0 f   LIBCMTD:userapi.obj
 0001:000310c0       ??2@YAPEAX_K@Z             00000001800320c0 f   LIBCMTD:new_scalar.obj
 0001:00031110       __isa_available_init       0000000180032110 f   LIBCMTD:cpu_disp.obj
 0001:000314b0       _get_startup_argv_mode     00000001800324b0 f   LIBCMTD:argv_mode.obj
 0001:000314c0       __scrt_is_ucrt_dll_in_use  00000001800324c0 f   LIBCMTD:ucrt_detection.obj
 0001:000314f0       __crt_debugger_hook        00000001800324f0 f   LIBCMTD:utility_desktop.obj
 0001:00031500       __scrt_fastfail            0000000180032500 f   LIBCMTD:utility_desktop.obj
 0001:000316a0       __scrt_get_show_window_mode 00000001800326a0 f   LIBCMTD:utility_desktop.obj
 0001:00031700       __scrt_initialize_mta      0000000180032700 f   LIBCMTD:utility_desktop.obj
 0001:00031710       __scrt_initialize_winrt    0000000180032710 f   LIBCMTD:utility_desktop.obj
 0001:00031720       __scrt_is_managed_app      0000000180032720 f   LIBCMTD:utility_desktop.obj
 0001:000317d0       __scrt_set_unhandled_exception_filter 00000001800327d0 f   LIBCMTD:utility_desktop.obj
 0001:000317f0       __scrt_exe_initialize_mta  00000001800327f0 f   LIBCMTD:utility_desktop.obj
 0001:000317f0       __scrt_stub_for_initialize_mta 00000001800327f0 f   LIBCMTD:utility_desktop.obj
 0001:00031800       __scrt_unhandled_exception_filter 0000000180032800 f   LIBCMTD:utility_desktop.obj
 0001:000318a0       _guard_check_icall_nop     00000001800328a0 f i LIBCMTD:guard_support.obj
 0001:000318b0       ReadNoFence64              00000001800328b0 f i LIBCMTD:guard_support.obj
 0001:000318d0       ReadPointerNoFence         00000001800328d0 f i LIBCMTD:guard_support.obj
 0001:000318f0       __castguard_check_failure_debugbreak 00000001800328f0 f i LIBCMTD:guard_support.obj
 0001:00031910       __castguard_check_failure_fastfail 0000000180032910 f i LIBCMTD:guard_support.obj
 0001:00031940       __castguard_check_failure_nop 0000000180032940 f i LIBCMTD:guard_support.obj
 0001:00031950       __castguard_check_failure_os_handled 0000000180032950 f i LIBCMTD:guard_support.obj
 0001:00031a20       __castguard_slow_path_check_debugbreak 0000000180032a20 f i LIBCMTD:guard_support.obj
 0001:00031a60       __castguard_slow_path_check_fastfail 0000000180032a60 f i LIBCMTD:guard_support.obj
 0001:00031ab0       __castguard_slow_path_check_nop 0000000180032ab0 f i LIBCMTD:guard_support.obj
 0001:00031ac0       __castguard_slow_path_check_os_handled 0000000180032ac0 f i LIBCMTD:guard_support.obj
 0001:00031b80       _guard_icall_checks_enforced 0000000180032b80 f i LIBCMTD:guard_support.obj
 0001:00031bc0       _guard_rf_checks_enforced  0000000180032bc0 f i LIBCMTD:guard_support.obj
 0001:00031c90       __security_init_cookie     0000000180032c90 f   LIBCMTD:gs_support.obj
 0001:00031d10       ?__scrt_initialize_type_info@@YAXXZ 0000000180032d10 f   LIBCMTD:tncleanup.obj
 0001:00031d30       ?__scrt_uninitialize_type_info@@YAXXZ 0000000180032d30 f   LIBCMTD:tncleanup.obj
 0001:00031d50       __local_stdio_scanf_options 0000000180032d50 f i LIBCMTD:default_local_stdio_options.obj
 0001:00031d60       __scrt_initialize_default_local_stdio_options 0000000180032d60 f   LIBCMTD:default_local_stdio_options.obj
 0001:00031db0       __scrt_get_dyn_tls_init_callback 0000000180032db0 f   LIBCMTD:dyn_tls_init.obj
 0001:00031dc0       _RTC_Initialize            0000000180032dc0 f   LIBCMTD:initsect.obj
 0001:00031e10       _RTC_Terminate             0000000180032e10 f   LIBCMTD:initsect.obj
 0001:00032380       ?_RTC_GetSrcLine@@YAHPEAEPEA_WKPEAH1K@Z 0000000180033380 f   LIBCMTD:pdblkup.obj
 0001:00032750       ??0bad_alloc@std@@AEAA@QEBD@Z 0000000180033750 f i LIBCMTD:throw_bad_alloc.obj
 0001:00032790       ??0bad_alloc@std@@QEAA@AEBV01@@Z 0000000180033790 f i LIBCMTD:throw_bad_alloc.obj
 0001:000327d0       ??0bad_alloc@std@@QEAA@XZ  00000001800337d0 f i LIBCMTD:throw_bad_alloc.obj
 0001:00032810       ??0bad_array_new_length@std@@QEAA@AEBV01@@Z 0000000180033810 f i LIBCMTD:throw_bad_alloc.obj
 0001:00032850       ??0bad_array_new_length@std@@QEAA@XZ 0000000180033850 f i LIBCMTD:throw_bad_alloc.obj
 0001:00032890       ??0exception@std@@QEAA@AEBV01@@Z 0000000180033890 f i LIBCMTD:throw_bad_alloc.obj
 0001:000328f0       ??0exception@std@@QEAA@QEBDH@Z 00000001800338f0 f i LIBCMTD:throw_bad_alloc.obj
 0001:00032940       ??1bad_alloc@std@@UEAA@XZ  0000000180033940 f i LIBCMTD:throw_bad_alloc.obj
 0001:00032960       ??1bad_array_new_length@std@@UEAA@XZ 0000000180033960 f i LIBCMTD:throw_bad_alloc.obj
 0001:00032980       ??1exception@std@@UEAA@XZ  0000000180033980 f i LIBCMTD:throw_bad_alloc.obj
 0001:000329b0       ??_Gbad_alloc@std@@UEAAPEAXI@Z 00000001800339b0 f i LIBCMTD:throw_bad_alloc.obj
 0001:000329b0       ??_Ebad_alloc@std@@UEAAPEAXI@Z 00000001800339b0 f i LIBCMTD:throw_bad_alloc.obj
 0001:000329f0       ??_Gbad_array_new_length@std@@UEAAPEAXI@Z 00000001800339f0 f i LIBCMTD:throw_bad_alloc.obj
 0001:000329f0       ??_Ebad_array_new_length@std@@UEAAPEAXI@Z 00000001800339f0 f i LIBCMTD:throw_bad_alloc.obj
 0001:00032a30       ??_Gexception@std@@UEAAPEAXI@Z 0000000180033a30 f i LIBCMTD:throw_bad_alloc.obj
 0001:00032a30       ??_Eexception@std@@UEAAPEAXI@Z 0000000180033a30 f i LIBCMTD:throw_bad_alloc.obj
 0001:00032a70       ?__scrt_throw_std_bad_alloc@@YAXXZ 0000000180033a70 f   LIBCMTD:throw_bad_alloc.obj
 0001:00032aa0       ?__scrt_throw_std_bad_array_new_length@@YAXXZ 0000000180033aa0 f   LIBCMTD:throw_bad_alloc.obj
 0001:00032ad0       ?what@exception@std@@UEBAPEBDXZ 0000000180033ad0 f i LIBCMTD:throw_bad_alloc.obj
 0001:00032b10       ??1type_info@@UEAA@XZ      0000000180033b10 f   LIBCMTD:std_type_info_static.obj
 0001:00032b30       ??_Etype_info@@UEAAPEAXI@Z 0000000180033b30 f i LIBCMTD:std_type_info_static.obj
 0001:00032b30       ??_Gtype_info@@UEAAPEAXI@Z 0000000180033b30 f i LIBCMTD:std_type_info_static.obj
 0001:00032b6c       ??$?2PEAUHINSTANCE__@@@Wrapper@?$CSimpleArray@PEAUHINSTANCE__@@V?$CSimpleArrayEqualHelper@PEAUHINSTANCE__@@@ATL@@@ATL@@SAPEAX_KPEAPEAUHINSTANCE__@@@Z 0000000180033b6c f i atls:atlbase.obj
 0001:00032b70       ??0?$CSimpleArray@PEAUHINSTANCE__@@V?$CSimpleArrayEqualHelper@PEAUHINSTANCE__@@@ATL@@@ATL@@QEAA@XZ 0000000180033b70 f i atls:atlbase.obj
 0001:00032b80       ??0CAtlBaseModule@ATL@@QEAA@XZ 0000000180033b80 f   atls:atlbase.obj
 0001:00032c28       ??0Wrapper@?$CSimpleArray@PEAUHINSTANCE__@@V?$CSimpleArrayEqualHelper@PEAUHINSTANCE__@@@ATL@@@ATL@@QEAA@AEBQEAUHINSTANCE__@@@Z 0000000180033c28 f i atls:atlbase.obj
 0001:00032c34       ??0_ATL_BASE_MODULE70@ATL@@QEAA@XZ 0000000180033c34 f i atls:atlbase.obj
 0001:00032c60       ??1?$CSimpleArray@PEAUHINSTANCE__@@V?$CSimpleArrayEqualHelper@PEAUHINSTANCE__@@@ATL@@@ATL@@QEAA@XZ 0000000180033c60 f i atls:atlbase.obj
 0001:00032c88       ??1CAtlBaseModule@ATL@@QEAA@XZ 0000000180033c88 f   atls:atlbase.obj
 0001:00032cbc       ??1_ATL_BASE_MODULE70@ATL@@QEAA@XZ 0000000180033cbc f i atls:atlbase.obj
 0001:00032ce8       ??A?$CSimpleArray@PEAUHINSTANCE__@@V?$CSimpleArrayEqualHelper@PEAUHINSTANCE__@@@ATL@@@ATL@@QEAAAEAPEAUHINSTANCE__@@H@Z 0000000180033ce8 f i atls:atlbase.obj
 0001:00032d14       ?Add@?$CSimpleArray@PEAUHINSTANCE__@@V?$CSimpleArrayEqualHelper@PEAUHINSTANCE__@@@ATL@@@ATL@@QEAAHAEBQEAUHINSTANCE__@@@Z 0000000180033d14 f i atls:atlbase.obj
 0001:00032db4       ?AddResourceInstance@CAtlBaseModule@ATL@@QEAA_NPEAUHINSTANCE__@@@Z 0000000180033db4 f   atls:atlbase.obj
 0001:00032dfc       ?GetHInstanceAt@CAtlBaseModule@ATL@@QEAAPEAUHINSTANCE__@@H@Z 0000000180033dfc f   atls:atlbase.obj
 0001:00032e74       ?GetSize@?$CSimpleArray@PEAUHINSTANCE__@@V?$CSimpleArrayEqualHelper@PEAUHINSTANCE__@@@ATL@@@ATL@@QEBAHXZ 0000000180033e74 f i atls:atlbase.obj
 0001:00032e78       ?InternalSetAtIndex@?$CSimpleArray@PEAUHINSTANCE__@@V?$CSimpleArrayEqualHelper@PEAUHINSTANCE__@@@ATL@@@ATL@@QEAAXHAEBQEAUHINSTANCE__@@@Z 0000000180033e78 f i atls:atlbase.obj
 0001:00032e90       ?RemoveAll@?$CSimpleArray@PEAUHINSTANCE__@@V?$CSimpleArrayEqualHelper@PEAUHINSTANCE__@@@ATL@@@ATL@@QEAAXXZ 0000000180033e90 f i atls:atlbase.obj
 0001:00032eb8       ?RemoveAt@?$CSimpleArray@PEAUHINSTANCE__@@V?$CSimpleArrayEqualHelper@PEAUHINSTANCE__@@@ATL@@@ATL@@QEAAHH@Z 0000000180033eb8 f i atls:atlbase.obj
 0001:00032f50       ?RemoveResourceInstance@CAtlBaseModule@ATL@@QEAA_NPEAUHINSTANCE__@@@Z 0000000180033f50 f   atls:atlbase.obj
 0001:00032fd8       ?memmove_s@Checked@ATL@@YAXPEAX_KPEBX1@Z 0000000180033fd8 f i atls:atlbase.obj
 0001:00033480       ?GetCodeAddress@_stdcallthunk@ATL@@QEAAPEAXXZ 0000000180034480 f i atls:atlthunk.obj
 0001:000334ac       ?Init@_stdcallthunk@ATL@@QEAAH_KPEAX@Z 00000001800344ac f i atls:atlthunk.obj
 0001:000334fc       ?__AllocStdCallThunk@@YAPEAXXZ 00000001800344fc f   atls:atlthunk.obj
 0001:00033504       ?__AllocStdCallThunk@ATL@@YAPEAXXZ 0000000180034504 f   atls:atlthunk.obj
 0001:0003350c       ?__AllocStdCallThunk_cmn@@YAPEAXXZ 000000018003450c f   atls:atlthunk.obj
 0001:000335e4       ?__FreeStdCallThunk@@YAXPEAX@Z 00000001800345e4 f   atls:atlthunk.obj
 0001:00033604       ?__FreeStdCallThunk@ATL@@YAXPEAX@Z 0000000180034604 f   atls:atlthunk.obj
 0001:00033624       ?__FreeStdCallThunk_cmn@@YAXPEAX@Z 0000000180034624 f   atls:atlthunk.obj
 0001:000336c4       AtlThunk_AllocateData      00000001800346c4 f   atls:atlthunk.obj
 0001:00033740       AtlThunk_DataToCode        0000000180034740 f   atls:atlthunk.obj
 0001:00033794       AtlThunk_FreeData          0000000180034794 f   atls:atlthunk.obj
 0001:000337f4       AtlThunk_InitData          00000001800347f4 f   atls:atlthunk.obj
 0001:000338b0       memset_repmovs             00000001800348b0 f   libvcruntimed:memset.obj
 0001:000338d0       memset                     00000001800348d0 f   libvcruntimed:memset.obj
 0001:00033a60       ??$__crt_interlocked_exchange_pointer@$$A6AXXZP6AXXZ@@YAP6AXXZPEDS6AXXZQ6AXXZ@Z 0000000180034a60 f i libvcruntimed:purevirt.obj
 0001:00033a80       ??$__crt_interlocked_read_pointer@$$A6AXXZ@@YAP6AXXZPEDS6AXXZ@Z 0000000180034a80 f i libvcruntimed:purevirt.obj
 0001:00033aa0       ?__crt_interlocked_read_64@@YA_JPED_J@Z 0000000180034aa0 f i libvcruntimed:purevirt.obj
 0001:00033ac0       _get_purecall_handler      0000000180034ac0 f   libvcruntimed:purevirt.obj
 0001:00033ae0       _purecall                  0000000180034ae0 f   libvcruntimed:purevirt.obj
 0001:00033b20       _set_purecall_handler      0000000180034b20 f   libvcruntimed:purevirt.obj
 0001:00033b50       memcmp                     0000000180034b50 f   libvcruntimed:memcmp.obj
 0001:00033c30       memcpy_repmovs             0000000180034c30 f   libvcruntimed:memcpy.obj
 0001:00033c50       memmove                    0000000180034c50 f   libvcruntimed:memcpy.obj
 0001:00033c50       memcpy                     0000000180034c50 f   libvcruntimed:memcpy.obj
 0001:000342d0       wcsstr                     00000001800352d0 f   libvcruntimed:wcsstr.obj
 0001:00034930       __vcrt_initialize          0000000180035930 f   libvcruntimed:initialization.obj
 0001:00034970       __vcrt_thread_attach       0000000180035970 f   libvcruntimed:initialization.obj
 0001:00034990       __vcrt_thread_detach       0000000180035990 f   libvcruntimed:initialization.obj
 0001:000349b0       __vcrt_uninitialize        00000001800359b0 f   libvcruntimed:initialization.obj
 0001:000349d0       __vcrt_uninitialize_critical 00000001800359d0 f   libvcruntimed:initialization.obj
 0001:000349f0       __C_specific_handler       00000001800359f0 f   libvcruntimed:riscchandler.obj
 0001:00034e60       ??$?0AEAViterator@TryBlockMap4@FH4@@AEAV012@$0A@@?$pair@Viterator@TryBlockMap4@FH4@@V123@@std@@QEAA@AEAViterator@TryBlockMap4@FH4@@0@Z 0000000180035e60 f i libvcruntimed:risctrnsctrl.obj
 0001:00034ec0       ??$?0AEAViterator@TryBlockMap@__FrameHandler3@@AEAV012@$0A@@?$pair@Viterator@TryBlockMap@__FrameHandler3@@V123@@std@@QEAA@AEAViterator@TryBlockMap@__FrameHandler3@@0@Z 0000000180035ec0 f i libvcruntimed:risctrnsctrl.obj
 0001:00035090       ??$_CallSETranslator@V__FrameHandler3@@@@YAHPEAUEHExceptionRecord@@PEA_KPEAU_CONTEXT@@PEAU_xDISPATCHER_CONTEXT@@PEBU_s_FuncInfo@@K1H@Z 0000000180036090 f i libvcruntimed:risctrnsctrl.obj
 0001:00035120       ??$_CallSETranslator@V__FrameHandler4@@@@YAHPEAUEHExceptionRecord@@PEA_KPEAU_CONTEXT@@PEAU_xDISPATCHER_CONTEXT@@PEAUFuncInfo4@FH4@@K1H@Z 0000000180036120 f i libvcruntimed:risctrnsctrl.obj
 0001:000351b0       ??$forward@AEAViterator@TryBlockMap4@FH4@@@std@@YAAEAViterator@TryBlockMap4@FH4@@AEAV123@@Z 00000001800361b0 f i libvcruntimed:risctrnsctrl.obj
 0001:000351c0       ??$forward@AEAViterator@TryBlockMap@__FrameHandler3@@@std@@YAAEAViterator@TryBlockMap@__FrameHandler3@@AEAV123@@Z 00000001800361c0 f i libvcruntimed:risctrnsctrl.obj
 0001:000351d0       ??0FuncInfo4@FH4@@QEAA@XZ  00000001800361d0 f i libvcruntimed:risctrnsctrl.obj
 0001:00035240       ??0FuncInfoHeader@FH4@@QEAA@XZ 0000000180036240 f i libvcruntimed:risctrnsctrl.obj
 0001:00035260       ??0iterator@TryBlockMap4@FH4@@QEAA@AEAV12@I@Z 0000000180036260 f i libvcruntimed:risctrnsctrl.obj
 0001:00035290       ??0iterator@TryBlockMap@__FrameHandler3@@QEAA@AEAV12@I@Z 0000000180036290 f i libvcruntimed:risctrnsctrl.obj
 0001:000352c0       ??4iterator@TryBlockMap4@FH4@@QEAAAEAV012@AEBV012@@Z 00000001800362c0 f i libvcruntimed:risctrnsctrl.obj
 0001:000352e0       ??9iterator@TryBlockMap4@FH4@@QEBA_NAEBV012@@Z 00000001800362e0 f i libvcruntimed:risctrnsctrl.obj
 0001:00035320       ??Diterator@TryBlockMap4@FH4@@QEAA?AUTryBlockMapEntry4@2@XZ 0000000180036320 f i libvcruntimed:risctrnsctrl.obj
 0001:00035350       ??Eiterator@TryBlockMap4@FH4@@QEAAAEAV012@XZ 0000000180036350 f i libvcruntimed:risctrnsctrl.obj
 0001:00035390       ?CatchTryBlock@__FrameHandler3@@SAPEBU_s_TryBlockMapEntry@@PEBU_s_FuncInfo@@H@Z 0000000180036390 f   libvcruntimed:risctrnsctrl.obj
 0001:00035420       ?DecompFuncInfo@FH4@@YA_JPEAEAEAUFuncInfo4@1@_KH@Z 0000000180036420 f i libvcruntimed:risctrnsctrl.obj
 0001:00035460       ?DecompFuncInfo@FH4@@YA_JPEAEAEAUFuncInfo4@1@_KH_N@Z 0000000180036460 f i libvcruntimed:risctrnsctrl.obj
 0001:00035630       ?DecompTryBlock@TryBlockMap4@FH4@@AEAAXXZ 0000000180036630 f i libvcruntimed:risctrnsctrl.obj
 0001:000356b0       ?ExecutionInCatch@__FrameHandler3@@SA_NPEAU_xDISPATCHER_CONTEXT@@PEBU_s_FuncInfo@@@Z 00000001800366b0 f   libvcruntimed:risctrnsctrl.obj
 0001:00035700       ?ExecutionInCatch@__FrameHandler4@@SA_NPEAU_xDISPATCHER_CONTEXT@@PEAUFuncInfo4@FH4@@@Z 0000000180036700 f   libvcruntimed:risctrnsctrl.obj
 0001:00035720       ?FrameUnwindToEmptyState@__FrameHandler3@@SAXPEA_KPEAU_xDISPATCHER_CONTEXT@@PEBU_s_FuncInfo@@@Z 0000000180036720 f   libvcruntimed:risctrnsctrl.obj
 0001:000357c0       ?FrameUnwindToEmptyState@__FrameHandler4@@SAXPEA_KPEAU_xDISPATCHER_CONTEXT@@PEAUFuncInfo4@FH4@@@Z 00000001800367c0 f   libvcruntimed:risctrnsctrl.obj
 0001:00035810       ?GetEstablisherFrame@__FrameHandler3@@SAPEA_KPEA_KPEAU_xDISPATCHER_CONTEXT@@PEBU_s_FuncInfo@@0@Z 0000000180036810 f   libvcruntimed:risctrnsctrl.obj
 0001:00035980       ?GetEstablisherFrame@__FrameHandler4@@SAPEA_KPEA_KPEAU_xDISPATCHER_CONTEXT@@PEAUFuncInfo4@FH4@@0@Z 0000000180036980 f   libvcruntimed:risctrnsctrl.obj
 0001:000359f0       ?GetRangeOfTrysToCheck@__FrameHandler3@@SA?AU?$pair@Viterator@TryBlockMap@__FrameHandler3@@V123@@std@@AEAVTryBlockMap@1@HPEAU_xDISPATCHER_CONTEXT@@PEBU_s_FuncInfo@@H@Z 00000001800369f0 f   libvcruntimed:risctrnsctrl.obj
 0001:00035c30       ?GetRangeOfTrysToCheck@__FrameHandler4@@SA?AU?$pair@Viterator@TryBlockMap4@FH4@@V123@@std@@AEAVTryBlockMap4@FH4@@HPEAU_xDISPATCHER_CONTEXT@@PEAUFuncInfo4@5@H@Z 0000000180036c30 f   libvcruntimed:risctrnsctrl.obj
 0001:00035de0       ?ReadInt@FH4@@YAHPEAPEAE@Z 0000000180036de0 f i libvcruntimed:risctrnsctrl.obj
 0001:00035e20       ?ReadUnsigned@FH4@@YAIPEAPEAE@Z 0000000180036e20 f i libvcruntimed:risctrnsctrl.obj
 0001:00035eb0       ?UnwindNestedFrames@__FrameHandler3@@SAXPEA_KPEAUEHExceptionRecord@@PEAU_CONTEXT@@0PEAXPEBU_s_FuncInfo@@HHPEBU_s_HandlerType@@PEAU_xDISPATCHER_CONTEXT@@E@Z 0000000180036eb0 f   libvcruntimed:risctrnsctrl.obj
 0001:00036020       ?UnwindNestedFrames@__FrameHandler4@@SAXPEA_KPEAUEHExceptionRecord@@PEAU_CONTEXT@@0PEAXPEAUFuncInfo4@FH4@@HHPEAUHandlerType4@5@PEAU_xDISPATCHER_CONTEXT@@E@Z 0000000180037020 f   libvcruntimed:risctrnsctrl.obj
 0001:000361f0       ?begin@TryBlockMap4@FH4@@QEAA?AViterator@12@XZ 00000001800371f0 f i libvcruntimed:risctrnsctrl.obj
 0001:00036220       ?end@TryBlockMap4@FH4@@QEAA?AViterator@12@XZ 0000000180037220 f i libvcruntimed:risctrnsctrl.obj
 0001:00036250       ?imageRelToByteBuffer@FH4@@YAPEAE_KH@Z 0000000180037250 f i libvcruntimed:risctrnsctrl.obj
 0001:00036270       ?incrementToSentinel@iterator@TryBlockMap4@FH4@@QEAAXXZ 0000000180037270 f i libvcruntimed:risctrnsctrl.obj
 0001:00036290       ?setBuffer@TryBlockMap4@FH4@@QEAAXViterator@12@@Z 0000000180037290 f i libvcruntimed:risctrnsctrl.obj
 0001:00036300       _CreateFrameInfo           0000000180037300 f   libvcruntimed:risctrnsctrl.obj
 0001:00036370       _FindAndUnlinkFrame        0000000180037370 f   libvcruntimed:risctrnsctrl.obj
 0001:000363f0       _GetImageBase              00000001800373f0 f   libvcruntimed:risctrnsctrl.obj
 0001:00036410       _GetThrowImageBase         0000000180037410 f   libvcruntimed:risctrnsctrl.obj
 0001:00036430       _SetImageBase              0000000180037430 f   libvcruntimed:risctrnsctrl.obj
 0001:00036450       _SetThrowImageBase         0000000180037450 f   libvcruntimed:risctrnsctrl.obj
 0001:00036470       __CxxFrameHandler          0000000180037470 f   libvcruntimed:risctrnsctrl.obj
 0001:000364b0       __CxxFrameHandler2         00000001800374b0 f   libvcruntimed:risctrnsctrl.obj
 0001:000364f0       __CxxFrameHandler3         00000001800374f0 f   libvcruntimed:risctrnsctrl.obj
 0001:000365d0       __CxxFrameHandler4         00000001800375d0 f   libvcruntimed:risctrnsctrl.obj
 0001:000366e0       __C_specific_handler_noexcept 00000001800376e0 f   libvcruntimed:chandler_noexcept.obj
 0001:00036770       __DestructExceptionObject  0000000180037770 f   libvcruntimed:ehhelpers.obj
 0001:00036870       ?_CallMemberFunction0@@YAXQEAX0@Z 0000000180037870 f i libvcruntimed:ehhelpers.obj
 0001:00036940       ?raw_name@type_info@@QEBAPEBDXZ 0000000180037940 f i libvcruntimed:ehhelpers.obj
 0001:00036950       _IsExceptionObjectToBeDestroyed 0000000180037950 f   libvcruntimed:ehhelpers.obj
 0001:000369a0       _SetWinRTOutOfMemoryExceptionCallback 00000001800379a0 f   libvcruntimed:ehhelpers.obj
 0001:000369c0       __AdjustPointer            00000001800379c0 f   libvcruntimed:ehhelpers.obj
 0001:00036a40       __FrameUnwindFilter        0000000180037a40 f   libvcruntimed:ehhelpers.obj
 0001:00036af0       __GetPlatformExceptionInfo 0000000180037af0 f   libvcruntimed:ehhelpers.obj
 0001:00036ba0       __current_exception        0000000180037ba0 f   libvcruntimed:ehhelpers.obj
 0001:00036bc0       __current_exception_context 0000000180037bc0 f   libvcruntimed:ehhelpers.obj
 0001:00036be0       __processing_throw         0000000180037be0 f   libvcruntimed:ehhelpers.obj
 0001:00036c00       __std_terminate            0000000180037c00 f   libvcruntimed:ehhelpers.obj
 0001:00036c10       _is_exception_typeof       0000000180037c10 f   libvcruntimed:ehhelpers.obj
 0001:00036da0       ??$?RD@__crt_internal_free_policy@@QEBAXQEBD@Z 0000000180037da0 f i libvcruntimed:std_type_info.obj
 0001:00036dd0       ??$?RX@__crt_internal_free_policy@@QEBAXQEBX@Z 0000000180037dd0 f i libvcruntimed:std_type_info.obj
 0001:00036e00       ??$__crt_interlocked_compare_exchange_pointer@$$CBDPEAD$$T@@YAPEBDPEDSEBDQEAD$$T@Z 0000000180037e00 f i libvcruntimed:std_type_info.obj
 0001:00036e40       ??$__crt_interlocked_read_pointer@$$CBD@@YAPEBDPEDSEBD@Z 0000000180037e40 f i libvcruntimed:std_type_info.obj
 0001:00036e60       ??0?$__crt_unique_heap_ptr@DU__crt_internal_free_policy@@@@QEAA@QEAD@Z 0000000180037e60 f i libvcruntimed:std_type_info.obj
 0001:00036e80       ??0?$__crt_unique_heap_ptr@XU__crt_internal_free_policy@@@@QEAA@QEAX@Z 0000000180037e80 f i libvcruntimed:std_type_info.obj
 0001:00036ea0       ??1?$__crt_unique_heap_ptr@DU__crt_internal_free_policy@@@@QEAA@XZ 0000000180037ea0 f i libvcruntimed:std_type_info.obj
 0001:00036ec0       ??1?$__crt_unique_heap_ptr@XU__crt_internal_free_policy@@@@QEAA@XZ 0000000180037ec0 f i libvcruntimed:std_type_info.obj
 0001:00036ee0       ??B?$__crt_unique_heap_ptr@DU__crt_internal_free_policy@@@@QEBA_NXZ 0000000180037ee0 f i libvcruntimed:std_type_info.obj
 0001:00036f00       ??B?$__crt_unique_heap_ptr@XU__crt_internal_free_policy@@@@QEBA_NXZ 0000000180037f00 f i libvcruntimed:std_type_info.obj
 0001:00036fa0       ?detach@?$__crt_unique_heap_ptr@XU__crt_internal_free_policy@@@@QEAAPEAXXZ 0000000180037fa0 f i libvcruntimed:std_type_info.obj
 0001:00036fd0       ?get@?$__crt_unique_heap_ptr@DU__crt_internal_free_policy@@@@QEBAPEADXZ 0000000180037fd0 f i libvcruntimed:std_type_info.obj
 0001:00036fe0       ?get@?$__crt_unique_heap_ptr@XU__crt_internal_free_policy@@@@QEBAPEAXXZ 0000000180037fe0 f i libvcruntimed:std_type_info.obj
 0001:00036ff0       ?is_valid@?$__crt_unique_heap_ptr@DU__crt_internal_free_policy@@@@QEBA_NXZ 0000000180037ff0 f i libvcruntimed:std_type_info.obj
 0001:00037020       ?is_valid@?$__crt_unique_heap_ptr@XU__crt_internal_free_policy@@@@QEBA_NXZ 0000000180038020 f i libvcruntimed:std_type_info.obj
 0001:00037050       ?release@?$__crt_unique_heap_ptr@DU__crt_internal_free_policy@@@@QEAAXXZ 0000000180038050 f i libvcruntimed:std_type_info.obj
 0001:00037080       ?release@?$__crt_unique_heap_ptr@XU__crt_internal_free_policy@@@@QEAAXXZ 0000000180038080 f i libvcruntimed:std_type_info.obj
 0001:000370b0       __std_type_info_compare    00000001800380b0 f   libvcruntimed:std_type_info.obj
 0001:000370f0       __std_type_info_destroy_list 00000001800380f0 f   libvcruntimed:std_type_info.obj
 0001:00037150       __std_type_info_hash       0000000180038150 f   libvcruntimed:std_type_info.obj
 0001:00037200       __std_type_info_name       0000000180038200 f   libvcruntimed:std_type_info.obj
 0001:000374b0       __vcrt_GetModuleFileNameW  00000001800384b0 f   libvcruntimed:winapi_thunks.obj
 0001:000374e0       __vcrt_GetModuleHandleW    00000001800384e0 f   libvcruntimed:winapi_thunks.obj
 0001:00037500       __vcrt_LoadLibraryExW      0000000180038500 f   libvcruntimed:winapi_thunks.obj
 0001:00037530       ??$?RD@__crt_public_free_policy@@QEBAXQEBD@Z 0000000180038530 f i libvcruntimed:std_exception.obj
 0001:00037550       ??0?$__crt_unique_heap_ptr@DU__crt_public_free_policy@@@@QEAA@QEAD@Z 0000000180038550 f i libvcruntimed:std_exception.obj
 0001:00037570       ??1?$__crt_unique_heap_ptr@DU__crt_public_free_policy@@@@QEAA@XZ 0000000180038570 f i libvcruntimed:std_exception.obj
 0001:00037590       ??B?$__crt_unique_heap_ptr@DU__crt_public_free_policy@@@@QEBA_NXZ 0000000180038590 f i libvcruntimed:std_exception.obj
 0001:000375b0       ?detach@?$__crt_unique_heap_ptr@DU__crt_public_free_policy@@@@QEAAPEADXZ 00000001800385b0 f i libvcruntimed:std_exception.obj
 0001:000375e0       ?get@?$__crt_unique_heap_ptr@DU__crt_public_free_policy@@@@QEBAPEADXZ 00000001800385e0 f i libvcruntimed:std_exception.obj
 0001:000375f0       ?is_valid@?$__crt_unique_heap_ptr@DU__crt_public_free_policy@@@@QEBA_NXZ 00000001800385f0 f i libvcruntimed:std_exception.obj
 0001:00037620       ?release@?$__crt_unique_heap_ptr@DU__crt_public_free_policy@@@@QEAAXXZ 0000000180038620 f i libvcruntimed:std_exception.obj
 0001:00037650       __std_exception_copy       0000000180038650 f   libvcruntimed:std_exception.obj
 0001:00037790       __std_exception_destroy    0000000180038790 f   libvcruntimed:std_exception.obj
 0001:000377d0       _CxxThrowException         00000001800387d0 f   libvcruntimed:throw.obj
 0001:00037900       ??$?RU__vcrt_ptd@@@__crt_internal_free_policy@@QEBAXQEBU__vcrt_ptd@@@Z 0000000180038900 f i libvcruntimed:per_thread_data.obj
 0001:00037930       ??0?$__crt_unique_heap_ptr@U__vcrt_ptd@@U__crt_internal_free_policy@@@@QEAA@QEAU__vcrt_ptd@@@Z 0000000180038930 f i libvcruntimed:per_thread_data.obj
 0001:00037970       ??1?$__crt_unique_heap_ptr@U__vcrt_ptd@@U__crt_internal_free_policy@@@@QEAA@XZ 0000000180038970 f i libvcruntimed:per_thread_data.obj
 0001:000379b0       ??B?$__crt_unique_heap_ptr@U__vcrt_ptd@@U__crt_internal_free_policy@@@@QEBA_NXZ 00000001800389b0 f i libvcruntimed:per_thread_data.obj
 0001:000379d0       ?detach@?$__crt_unique_heap_ptr@U__vcrt_ptd@@U__crt_internal_free_policy@@@@QEAAPEAU__vcrt_ptd@@XZ 00000001800389d0 f i libvcruntimed:per_thread_data.obj
 0001:00037a00       ?get@?$__crt_unique_heap_ptr@U__vcrt_ptd@@U__crt_internal_free_policy@@@@QEBAPEAU__vcrt_ptd@@XZ 0000000180038a00 f i libvcruntimed:per_thread_data.obj
 0001:00037a10       ?is_valid@?$__crt_unique_heap_ptr@U__vcrt_ptd@@U__crt_internal_free_policy@@@@QEBA_NXZ 0000000180038a10 f i libvcruntimed:per_thread_data.obj
 0001:00037a40       ?release@?$__crt_unique_heap_ptr@U__vcrt_ptd@@U__crt_internal_free_policy@@@@QEAAXXZ 0000000180038a40 f i libvcruntimed:per_thread_data.obj
 0001:00037ab0       __vcrt_freefls             0000000180038ab0 f   libvcruntimed:per_thread_data.obj
 0001:00037af0       __vcrt_freeptd             0000000180038af0 f   libvcruntimed:per_thread_data.obj
 0001:00037b50       __vcrt_getptd              0000000180038b50 f   libvcruntimed:per_thread_data.obj
 0001:00037b80       __vcrt_getptd_noexit       0000000180038b80 f   libvcruntimed:per_thread_data.obj
 0001:00037d20       __vcrt_getptd_noinit       0000000180038d20 f   libvcruntimed:per_thread_data.obj
 0001:00037d80       __vcrt_initialize_ptd      0000000180038d80 f   libvcruntimed:per_thread_data.obj
 0001:00037dd0       __vcrt_uninitialize_ptd    0000000180038dd0 f   libvcruntimed:per_thread_data.obj
 0001:00037e00       __vcrt_initialize_locks    0000000180038e00 f   libvcruntimed:locks.obj
 0001:00037e70       __vcrt_lock                0000000180038e70 f   libvcruntimed:locks.obj
 0001:00037ea0       __vcrt_uninitialize_locks  0000000180038ea0 f   libvcruntimed:locks.obj
 0001:00037f00       __vcrt_unlock              0000000180038f00 f   libvcruntimed:locks.obj
 0001:00037f40       _NLG_Notify                0000000180038f40 f   libvcruntimed:notify.obj
 0001:00037f60       __NLG_Dispatch2            0000000180038f60 f   libvcruntimed:notify.obj
 0001:00037f70       __NLG_Return2              0000000180038f70 f   libvcruntimed:notify.obj
 0001:00037f90       __except_validate_context_record 0000000180038f90 f   libvcruntimed:jbcxrval.obj
 0001:00037ff0       __except_validate_jump_buffer 0000000180038ff0 f   libvcruntimed:jbcxrval.obj
 0001:00038010       __except_validate_jump_buffer_common 0000000180039010 f i libvcruntimed:jbcxrval.obj
 0001:00038090       ?GetCurrentState@__FrameHandler3@@SAHPEA_KPEAU_xDISPATCHER_CONTEXT@@PEBU_s_FuncInfo@@@Z 0000000180039090 f   libvcruntimed:ehstate.obj
 0001:000380f0       ?GetUnwindTryBlock@__FrameHandler3@@SAHPEA_KPEAU_xDISPATCHER_CONTEXT@@PEBU_s_FuncInfo@@@Z 00000001800390f0 f   libvcruntimed:ehstate.obj
 0001:00038140       ?SetState@__FrameHandler3@@SAXPEA_KPEBU_s_FuncInfo@@H@Z 0000000180039140 f   libvcruntimed:ehstate.obj
 0001:00038170       ?SetUnwindTryBlock@__FrameHandler3@@SAXPEA_KPEAU_xDISPATCHER_CONTEXT@@PEBU_s_FuncInfo@@H@Z 0000000180039170 f   libvcruntimed:ehstate.obj
 0001:000381e0       ?StateFromControlPc@__FrameHandler3@@SAHPEBU_s_FuncInfo@@PEAU_xDISPATCHER_CONTEXT@@@Z 00000001800391e0 f   libvcruntimed:ehstate.obj
 0001:00038220       ?StateFromControlPc@__FrameHandler4@@SAHPEAUFuncInfo4@FH4@@PEAU_xDISPATCHER_CONTEXT@@@Z 0000000180039220 f   libvcruntimed:ehstate.obj
 0001:00038260       ?StateFromIp@__FrameHandler3@@SAHPEBU_s_FuncInfo@@PEAU_xDISPATCHER_CONTEXT@@_K@Z 0000000180039260 f   libvcruntimed:ehstate.obj
 0001:00038350       ?StateFromIp@__FrameHandler4@@SAHPEAUFuncInfo4@FH4@@PEAU_xDISPATCHER_CONTEXT@@_K@Z 0000000180039350 f   libvcruntimed:ehstate.obj
 0001:00038440       ?__FuncRelToRealOffset@@YA_KPEAU_xDISPATCHER_CONTEXT@@I@Z 0000000180039440 f i libvcruntimed:ehstate.obj
 0001:00038470       ?__RVAtoRealOffset@@YA_KPEAU_xDISPATCHER_CONTEXT@@H@Z 0000000180039470 f i libvcruntimed:ehstate.obj
 0001:0003a6d0       ??$TypeMatchHelper@V__FrameHandler3@@@@YAHPEBU_s_HandlerType@@PEBU_s_CatchableType@@PEBU_s_ThrowInfo@@@Z 000000018003b6d0 f i libvcruntimed:frame.obj
 0001:0003a8d0       ??$TypeMatchHelper@V__FrameHandler4@@@@YAHPEAUHandlerType4@FH4@@PEBU_s_CatchableType@@PEBU_s_ThrowInfo@@@Z 000000018003b8d0 f i libvcruntimed:frame.obj
 0001:0003aae0       ??$__InternalCxxFrameHandler@V__FrameHandler3@@@@YA?AW4_EXCEPTION_DISPOSITION@@PEAUEHExceptionRecord@@PEA_KPEAU_CONTEXT@@PEAU_xDISPATCHER_CONTEXT@@PEBU_s_FuncInfo@@H1E@Z 000000018003bae0 f i libvcruntimed:frame.obj
 0001:0003af50       ??$__InternalCxxFrameHandler@V__FrameHandler4@@@@YA?AW4_EXCEPTION_DISPOSITION@@PEAUEHExceptionRecord@@PEA_KPEAU_CONTEXT@@PEAU_xDISPATCHER_CONTEXT@@PEAUFuncInfo4@FH4@@H1E@Z 000000018003bf50 f i libvcruntimed:frame.obj
 0001:0003b3e0       ??0HandlerMap4@FH4@@QEAA@PEBUTryBlockMapEntry4@1@_KH@Z 000000018003c3e0 f i libvcruntimed:frame.obj
 0001:0003b4a0       ??0HandlerMap@__FrameHandler3@@QEAA@PEBU_s_TryBlockMapEntry@@_KI@Z 000000018003c4a0 f i libvcruntimed:frame.obj
 0001:0003b4f0       ??0HandlerType4@FH4@@QEAA@XZ 000000018003c4f0 f i libvcruntimed:frame.obj
 0001:0003b510       ??0TryBlockMap4@FH4@@QEAA@PEBUFuncInfo4@1@_K@Z 000000018003c510 f i libvcruntimed:frame.obj
 0001:0003b5a0       ??0TryBlockMap@__FrameHandler3@@QEAA@PEBU_s_FuncInfo@@_K@Z 000000018003c5a0 f i libvcruntimed:frame.obj
 0001:0003b5d0       ??0UWMap4@FH4@@QEAA@PEBUFuncInfo4@1@_K@Z 000000018003c5d0 f i libvcruntimed:frame.obj
 0001:0003b640       ??0bad_exception@std@@QEAA@AEBV01@@Z 000000018003c640 f i libvcruntimed:frame.obj
 0001:0003b680       ??0bad_exception@std@@QEAA@XZ 000000018003c680 f i libvcruntimed:frame.obj
 0001:0003b6c0       ??0iterator@HandlerMap4@FH4@@QEAA@AEAV12@I@Z 000000018003c6c0 f i libvcruntimed:frame.obj
 0001:0003b6f0       ??0iterator@HandlerMap@__FrameHandler3@@QEAA@AEAV12@I@Z 000000018003c6f0 f i libvcruntimed:frame.obj
 0001:0003b720       ??0iterator@UWMap4@FH4@@QEAA@AEAV12@PEAE@Z 000000018003c720 f i libvcruntimed:frame.obj
 0001:0003b750       ??1bad_exception@std@@UEAA@XZ 000000018003c750 f i libvcruntimed:frame.obj
 0001:0003b770       ??4iterator@UWMap4@FH4@@QEAAAEAV012@AEBV012@@Z 000000018003c770 f i libvcruntimed:frame.obj
 0001:0003b7c0       ??8iterator@HandlerMap4@FH4@@QEBA_NAEBV012@@Z 000000018003c7c0 f i libvcruntimed:frame.obj
 0001:0003b800       ??8iterator@HandlerMap@__FrameHandler3@@QEBA_NAEBV012@@Z 000000018003c800 f i libvcruntimed:frame.obj
 0001:0003b840       ??8type_info@@QEBA_NAEBV0@@Z 000000018003c840 f i libvcruntimed:frame.obj
 0001:0003b890       ??9iterator@HandlerMap4@FH4@@QEBA_NAEBV012@@Z 000000018003c890 f i libvcruntimed:frame.obj
 0001:0003b8d0       ??9iterator@HandlerMap@__FrameHandler3@@QEBA_NAEBV012@@Z 000000018003c8d0 f i libvcruntimed:frame.obj
 0001:0003b910       ??Diterator@HandlerMap4@FH4@@QEAA?AUHandlerType4@2@XZ 000000018003c910 f i libvcruntimed:frame.obj
 0001:0003b940       ??Diterator@HandlerMap@__FrameHandler3@@QEAA?BU_s_HandlerType@@XZ 000000018003c940 f i libvcruntimed:frame.obj
 0001:0003b980       ??Diterator@TryBlockMap@__FrameHandler3@@QEAA?BU_s_TryBlockMapEntry@@XZ 000000018003c980 f i libvcruntimed:frame.obj
 0001:0003b9d0       ??Diterator@UWMap4@FH4@@QEAA?AUUnwindMapEntry4@2@XZ 000000018003c9d0 f i libvcruntimed:frame.obj
 0001:0003ba50       ??Eiterator@HandlerMap4@FH4@@QEAAAEAV012@XZ 000000018003ca50 f i libvcruntimed:frame.obj
 0001:0003ba90       ??Eiterator@HandlerMap@__FrameHandler3@@QEAAAEAV012@XZ 000000018003ca90 f i libvcruntimed:frame.obj
 0001:0003bab0       ??Eiterator@TryBlockMap@__FrameHandler3@@QEAAAEAV012@XZ 000000018003cab0 f i libvcruntimed:frame.obj
 0001:0003bad0       ??Eiterator@UWMap4@FH4@@QEAAAEAV012@XZ 000000018003cad0 f i libvcruntimed:frame.obj
 0001:0003bb10       ??Giterator@UWMap4@FH4@@QEBA_JAEBV012@@Z 000000018003cb10 f i libvcruntimed:frame.obj
 0001:0003bb30       ??Miterator@TryBlockMap4@FH4@@QEBA_NAEBV012@@Z 000000018003cb30 f i libvcruntimed:frame.obj
 0001:0003bb70       ??Miterator@TryBlockMap@__FrameHandler3@@QEBA_NAEBV012@@Z 000000018003cb70 f i libvcruntimed:frame.obj
 0001:0003bbb0       ??Oiterator@UWMap4@FH4@@QEBA_NAEBV012@@Z 000000018003cbb0 f i libvcruntimed:frame.obj
 0001:0003bbf0       ??Piterator@UWMap4@FH4@@QEBA_NAEBV012@@Z 000000018003cbf0 f i libvcruntimed:frame.obj
 0001:0003bc30       ??_Ebad_exception@std@@UEAAPEAXI@Z 000000018003cc30 f i libvcruntimed:frame.obj
 0001:0003bc30       ??_Gbad_exception@std@@UEAAPEAXI@Z 000000018003cc30 f i libvcruntimed:frame.obj
 0001:0003bc70       ?BuildCatchObject@__FrameHandler3@@SAXPEAUEHExceptionRecord@@PEAXPEBU_s_HandlerType@@PEBU_s_CatchableType@@@Z 000000018003cc70 f   libvcruntimed:frame.obj
 0001:0003bcb0       ?BuildCatchObject@__FrameHandler4@@SAXPEAUEHExceptionRecord@@PEAXPEAUHandlerType4@FH4@@PEBU_s_CatchableType@@@Z 000000018003ccb0 f   libvcruntimed:frame.obj
 0001:0003bcf0       ?BuildCatchObjectHelper@__FrameHandler3@@SAHPEAUEHExceptionRecord@@PEAXPEBU_s_HandlerType@@PEBU_s_CatchableType@@@Z 000000018003ccf0 f   libvcruntimed:frame.obj
 0001:0003bd30       ?BuildCatchObjectHelper@__FrameHandler4@@SAHPEAUEHExceptionRecord@@PEAXPEAUHandlerType4@FH4@@PEBU_s_CatchableType@@@Z 000000018003cd30 f   libvcruntimed:frame.obj
 0001:0003bd70       ?CxxCallCatchBlock@__FrameHandler3@@SAPEAXPEAU_EXCEPTION_RECORD@@@Z 000000018003cd70 f   libvcruntimed:frame.obj
 0001:0003bfd0       ?CxxCallCatchBlock@__FrameHandler4@@SAPEAXPEAU_EXCEPTION_RECORD@@@Z 000000018003cfd0 f   libvcruntimed:frame.obj
 0001:0003c300       ?DecompHandler@HandlerMap4@FH4@@AEAAXXZ 000000018003d300 f i libvcruntimed:frame.obj
 0001:0003c6d0       ?FrameUnwindToState@__FrameHandler3@@SAXPEA_KPEAU_xDISPATCHER_CONTEXT@@PEBU_s_FuncInfo@@H@Z 000000018003d6d0 f   libvcruntimed:frame.obj
 0001:0003c920       ?FrameUnwindToState@__FrameHandler4@@SAXPEA_KPEAU_xDISPATCHER_CONTEXT@@PEAUFuncInfo4@FH4@@H@Z 000000018003d920 f   libvcruntimed:frame.obj
 0001:0003cc30       ?GetHandlerSearchState@__FrameHandler3@@SAHPEA_KPEAU_xDISPATCHER_CONTEXT@@PEBU_s_FuncInfo@@@Z 000000018003dc30 f i libvcruntimed:frame.obj
 0001:0003cce0       ?GetHandlerSearchState@__FrameHandler4@@SAHPEA_KPEAU_xDISPATCHER_CONTEXT@@PEAUFuncInfo4@FH4@@@Z 000000018003dce0 f i libvcruntimed:frame.obj
 0001:0003cd60       ?GetMaxState@__FrameHandler3@@SAHPEAU_xDISPATCHER_CONTEXT@@PEBU_s_FuncInfo@@@Z 000000018003dd60 f i libvcruntimed:frame.obj
 0001:0003cd80       ?GetMaxState@__FrameHandler4@@SAHPEAU_xDISPATCHER_CONTEXT@@PEAUFuncInfo4@FH4@@@Z 000000018003dd80 f i libvcruntimed:frame.obj
 0001:0003cfb0       ?ReadEntry@UWMap4@FH4@@AEAAXPEAPEAE@Z 000000018003dfb0 f i libvcruntimed:frame.obj
 0001:0003d060       ?TypeMatch@__FrameHandler3@@SAHPEBU_s_HandlerType@@PEBU_s_CatchableType@@PEBU_s_ThrowInfo@@@Z 000000018003e060 f   libvcruntimed:frame.obj
 0001:0003d090       ?TypeMatch@__FrameHandler4@@SAHPEAUHandlerType4@FH4@@PEBU_s_CatchableType@@PEBU_s_ThrowInfo@@@Z 000000018003e090 f   libvcruntimed:frame.obj
 0001:0003d0c0       ?WalkBack@UWMap4@FH4@@AEAAXPEAPEAE@Z 000000018003e0c0 f i libvcruntimed:frame.obj
 0001:0003d110       ?WalkBack@iterator@UWMap4@FH4@@QEAAXXZ 000000018003e110 f i libvcruntimed:frame.obj
 0001:0003d150       ?WalkForward@UWMap4@FH4@@AEAAXPEAPEAE@Z 000000018003e150 f i libvcruntimed:frame.obj
 0001:0003d180       ?_CallMemberFunction1@@YAXQEAX00@Z 000000018003e180 f i libvcruntimed:frame.obj
 0001:0003d1c0       ?_CallMemberFunction2@@YAXQEAX00H@Z 000000018003e1c0 f i libvcruntimed:frame.obj
 0001:0003d250       ?begin@HandlerMap4@FH4@@QEAA?AViterator@12@XZ 000000018003e250 f i libvcruntimed:frame.obj
 0001:0003d280       ?begin@HandlerMap@__FrameHandler3@@QEAA?AViterator@12@XZ 000000018003e280 f i libvcruntimed:frame.obj
 0001:0003d2b0       ?begin@UWMap4@FH4@@QEAA?AViterator@12@XZ 000000018003e2b0 f i libvcruntimed:frame.obj
 0001:0003d2e0       ?end@HandlerMap4@FH4@@QEAA?AViterator@12@XZ 000000018003e2e0 f i libvcruntimed:frame.obj
 0001:0003d310       ?end@HandlerMap@__FrameHandler3@@QEAA?AViterator@12@XZ 000000018003e310 f i libvcruntimed:frame.obj
 0001:0003d340       ?getESTypes@__FrameHandler3@@SAPEBU_s_ESTypeList@@PEBU_s_FuncInfo@@@Z 000000018003e340 f i libvcruntimed:frame.obj
 0001:0003d380       ?getESTypes@__FrameHandler4@@SAPEBU_s_ESTypeList@@PEAUFuncInfo4@FH4@@@Z 000000018003e380 f i libvcruntimed:frame.obj
 0001:0003d390       ?getLastEntry@HandlerMap4@FH4@@QEAAPEAUHandlerType4@2@XZ 000000018003e390 f i libvcruntimed:frame.obj
 0001:0003d3d0       ?getLastEntry@HandlerMap@__FrameHandler3@@QEAAPEBU_s_HandlerType@@XZ 000000018003e3d0 f i libvcruntimed:frame.obj
 0001:0003d3f0       ?getMagicNum@__FrameHandler3@@SAIPEBU_s_FuncInfo@@@Z 000000018003e3f0 f i libvcruntimed:frame.obj
 0001:0003d410       ?getMagicNum@__FrameHandler4@@SAIPEAUFuncInfo4@FH4@@@Z 000000018003e410 f i libvcruntimed:frame.obj
 0001:0003d420       ?getNumTryBlocks@TryBlockMap4@FH4@@QEAAIXZ 000000018003e420 f i libvcruntimed:frame.obj
 0001:0003d430       ?getNumTryBlocks@TryBlockMap@__FrameHandler3@@QEAAIXZ 000000018003e430 f i libvcruntimed:frame.obj
 0001:0003d450       ?getStartStop@UWMap4@FH4@@QEAAXHHAEAViterator@12@0@Z 000000018003e450 f i libvcruntimed:frame.obj
 0001:0003d570       ?getStateFromIterators@UWMap4@FH4@@SAHAEBViterator@12@H0H0@Z 000000018003e570 f i libvcruntimed:frame.obj
 0001:0003d6b0       ?isEHs@__FrameHandler3@@SA_NPEBU_s_FuncInfo@@@Z 000000018003e6b0 f i libvcruntimed:frame.obj
 0001:0003d6f0       ?isEHs@__FrameHandler4@@SA_NPEAUFuncInfo4@FH4@@@Z 000000018003e6f0 f i libvcruntimed:frame.obj
 0001:0003d710       ?isNoExcept@__FrameHandler3@@SA_NPEBU_s_FuncInfo@@@Z 000000018003e710 f i libvcruntimed:frame.obj
 0001:0003d750       ?isNoExcept@__FrameHandler4@@SA_NPEAUFuncInfo4@FH4@@@Z 000000018003e750 f i libvcruntimed:frame.obj
 0001:0003d770       ?reset@HandlerType4@FH4@@QEAAXXZ 000000018003e770 f i libvcruntimed:frame.obj
 0001:0003d7d0       ?resetBuffer@HandlerMap4@FH4@@QEAAXXZ 000000018003e7d0 f i libvcruntimed:frame.obj
 0001:0003d7f0       ?setBuffer@HandlerMap4@FH4@@QEAAXI@Z 000000018003e7f0 f i libvcruntimed:frame.obj
 0001:0003d850       __BuildCatchObject         000000018003e850 f   libvcruntimed:frame.obj
 0001:0003d890       __BuildCatchObjectHelper   000000018003e890 f   libvcruntimed:frame.obj
 0001:0003d8d0       __TypeMatch                000000018003e8d0 f   libvcruntimed:frame.obj
 0001:0003d900       __vcrt_EncodePointer       000000018003e900 f i libvcruntimed:frame.obj
 0001:0003d920       ??$?0$00@DName@@QEAA@PEBDU?$StringLifeSelector@$00@@@Z 000000018003e920 f i libvcruntimed:undname.obj
 0001:0003d990       ??$?0$00@pcharNode@@QEAA@PEBDHU?$StringLifeSelector@$00@@@Z 000000018003e990 f i libvcruntimed:undname.obj
 0001:0003d9f0       ??$?0$01@DName@@QEAA@PEBDU?$StringLifeSelector@$01@@@Z 000000018003e9f0 f i libvcruntimed:undname.obj
 0001:0003da60       ??$?0$01@pcharNode@@QEAA@PEBDHU?$StringLifeSelector@$01@@@Z 000000018003ea60 f i libvcruntimed:undname.obj
 0001:0003db10       ??$?0$0A@@DName@@QEAA@PEBDU?$StringLifeSelector@$0A@@@@Z 000000018003eb10 f i libvcruntimed:undname.obj
 0001:0003db80       ??$?0$0A@@pcharNode@@QEAA@PEBDHU?$StringLifeSelector@$0A@@@@Z 000000018003eb80 f i libvcruntimed:undname.obj
 0001:0003dc30       ??$?0_K$0A@@?$optional@_K@std@@QEAA@$$QEA_K@Z 000000018003ec30 f i libvcruntimed:undname.obj
 0001:0003dc80       ??$?0_K@?$_Optional_construct_base@_K@std@@QEAA@Uin_place_t@1@$$QEA_K@Z 000000018003ec80 f i libvcruntimed:undname.obj
 0001:0003dcb0       ??$?0_K@?$_Optional_destruct_base@_K$00@std@@QEAA@Uin_place_t@1@$$QEA_K@Z 000000018003ecb0 f i libvcruntimed:undname.obj
 0001:0003dcf0       ??$append@VDNameNode@@@DName@@AEAAXPEBVDNameNode@@@Z 000000018003ecf0 f i libvcruntimed:undname.obj
 0001:0003dda0       ??$append@VDNameStatusNode@@@DName@@AEAAXPEBVDNameStatusNode@@@Z 000000018003eda0 f i libvcruntimed:undname.obj
 0001:0003de50       ??$append@VcharNode@@@DName@@AEAAXPEBVcharNode@@@Z 000000018003ee50 f i libvcruntimed:undname.obj
 0001:0003df00       ??$append@VpDNameNode@@@DName@@AEAAXPEBVpDNameNode@@@Z 000000018003ef00 f i libvcruntimed:undname.obj
 0001:0003dfb0       ??$append@VpcharNode@@@DName@@AEAAXPEBVpcharNode@@@Z 000000018003efb0 f i libvcruntimed:undname.obj
 0001:0003e060       ??$doPchar@$00@DName@@AEAAXPEBDH@Z 000000018003f060 f i libvcruntimed:undname.obj
 0001:0003e1c0       ??$doPchar@$01@DName@@AEAAXPEBDH@Z 000000018003f1c0 f i libvcruntimed:undname.obj
 0001:0003e320       ??$doPchar@$0A@@DName@@AEAAXPEBDH@Z 000000018003f320 f i libvcruntimed:undname.obj
 0001:0003e480       ??$forward@_K@std@@YA$$QEA_KAEA_K@Z 000000018003f480 f i libvcruntimed:undname.obj
 0001:0003e490       ??$size@D$04@std@@YA_KAEAY04$$CBD@Z 000000018003f490 f i libvcruntimed:undname.obj
 0001:0003e4a0       ??$size@D$0EB@@std@@YA_KAEAY0EB@$$CBD@Z 000000018003f4a0 f i libvcruntimed:undname.obj
 0001:0003e4b0       ??0?$_Optional_construct_base@_K@std@@QEAA@XZ 000000018003f4b0 f i libvcruntimed:undname.obj
 0001:0003e4d0       ??0?$_Optional_destruct_base@_K$00@std@@QEAA@XZ 000000018003f4d0 f i libvcruntimed:undname.obj
 0001:0003e500       ??0?$optional@_K@std@@QEAA@XZ 000000018003f500 f i libvcruntimed:undname.obj
 0001:0003e520       ??0Block@_HeapManager@@QEAA@XZ 000000018003f520 f i libvcruntimed:undname.obj
 0001:0003e540       ??0DName@@QEAA@AEAPEBDD@Z  000000018003f540 f   libvcruntimed:undname.obj
 0001:0003e710       ??0DName@@QEAA@AEBUStringLiteral@@@Z 000000018003f710 f   libvcruntimed:undname.obj
 0001:0003e770       ??0DName@@QEAA@AEBV0@@Z    000000018003f770 f i libvcruntimed:undname.obj
 0001:0003e7a0       ??0DName@@QEAA@D@Z         000000018003f7a0 f   libvcruntimed:undname.obj
 0001:0003e7e0       ??0DName@@QEAA@PEAV0@@Z    000000018003f7e0 f   libvcruntimed:undname.obj
 0001:0003e8c0       ??0DName@@QEAA@W4DNameStatus@@@Z 000000018003f8c0 f   libvcruntimed:undname.obj
 0001:0003e970       ??0DName@@QEAA@XZ          000000018003f970 f i libvcruntimed:undname.obj
 0001:0003e9a0       ??0DName@@QEAA@_J@Z        000000018003f9a0 f   libvcruntimed:undname.obj
 0001:0003eab0       ??0DName@@QEAA@_K@Z        000000018003fab0 f   libvcruntimed:undname.obj
 0001:0003eb80       ??0DNameNode@@IEAA@XZ      000000018003fb80 f i libvcruntimed:undname.obj
 0001:0003eba0       ??0Replicator@@QEAA@XZ     000000018003fba0 f i libvcruntimed:undname.obj
 0001:0003ebe0       ??0UnDecorator@@QEAA@PEBDP6APEADJ@ZK@Z 000000018003fbe0 f i libvcruntimed:undname.obj
 0001:0003ec90       ??0_Nontrivial_dummy_type@std@@QEAA@XZ 000000018003fc90 f i libvcruntimed:undname.obj
 0001:0003eca0       ??0charNode@@QEAA@D@Z      000000018003fca0 f i libvcruntimed:undname.obj
 0001:0003ece0       ??0pDNameNode@@QEAA@PEAVDName@@@Z 000000018003fce0 f   libvcruntimed:undname.obj
 0001:0003ed60       ??0pairNode@@QEAA@PEBVDNameNode@@0@Z 000000018003fd60 f i libvcruntimed:undname.obj
 0001:0003ede0       ??2@YAPEAX_KAEAV_HeapManager@@H@Z 000000018003fde0 f   libvcruntimed:undname.obj
 0001:0003ee40       ??4DName@@QEAAAEAV0@AEBUStringLiteral@@@Z 000000018003fe40 f   libvcruntimed:undname.obj
 0001:0003ee90       ??4DName@@QEAAAEAV0@AEBV0@@Z 000000018003fe90 f   libvcruntimed:undname.obj
 0001:0003eec0       ??4DName@@QEAAAEAV0@D@Z    000000018003fec0 f i libvcruntimed:undname.obj
 0001:0003ef00       ??4DName@@QEAAAEAV0@PEAV0@@Z 000000018003ff00 f   libvcruntimed:undname.obj
 0001:0003efd0       ??4DName@@QEAAAEAV0@W4DNameStatus@@@Z 000000018003ffd0 f   libvcruntimed:undname.obj
 0001:0003f060       ??AReplicator@@QEBA?AVDName@@H@Z 0000000180040060 f   libvcruntimed:undname.obj
 0001:0003f0f0       ??B?$optional@_K@std@@QEBA_NXZ 00000001800400f0 f i libvcruntimed:undname.obj
 0001:0003f100       ??D?$optional@_K@std@@QEGAAAEA_KXZ 0000000180040100 f i libvcruntimed:undname.obj
 0001:0003f1a0       ??H@YA?AVDName@@AEBUStringLiteral@@AEBV0@@Z 00000001800401a0 f i libvcruntimed:undname.obj
 0001:0003f1f0       ??H@YA?AVDName@@DAEBV0@@Z  00000001800401f0 f i libvcruntimed:undname.obj
 0001:0003f240       ??H@YA?AVDName@@W4DNameStatus@@AEBV0@@Z 0000000180040240 f i libvcruntimed:undname.obj
 0001:0003f290       ??HDName@@QEBA?AV0@AEBUStringLiteral@@@Z 0000000180040290 f   libvcruntimed:undname.obj
 0001:0003f2e0       ??HDName@@QEBA?AV0@AEBV0@@Z 00000001800402e0 f   libvcruntimed:undname.obj
 0001:0003f330       ??HDName@@QEBA?AV0@D@Z     0000000180040330 f   libvcruntimed:undname.obj
 0001:0003f380       ??HDName@@QEBA?AV0@PEAV0@@Z 0000000180040380 f   libvcruntimed:undname.obj
 0001:0003f3d0       ??HDName@@QEBA?AV0@W4DNameStatus@@@Z 00000001800403d0 f   libvcruntimed:undname.obj
 0001:0003f420       ??HStringLiteral@@QEBA?AU0@H@Z 0000000180040420 f i libvcruntimed:undname.obj
 0001:0003f460       ??YDName@@QEAAAEAV0@AEBUStringLiteral@@@Z 0000000180040460 f   libvcruntimed:undname.obj
 0001:0003f530       ??YDName@@QEAAAEAV0@AEBV0@@Z 0000000180040530 f   libvcruntimed:undname.obj
 0001:0003f5f0       ??YDName@@QEAAAEAV0@D@Z    00000001800405f0 f   libvcruntimed:undname.obj
 0001:0003f690       ??YDName@@QEAAAEAV0@PEAV0@@Z 0000000180040690 f   libvcruntimed:undname.obj
 0001:0003f770       ??YDName@@QEAAAEAV0@W4DNameStatus@@@Z 0000000180040770 f   libvcruntimed:undname.obj
 0001:0003f7e0       ??YReplicator@@QEAAAEAV0@AEBVDName@@@Z 00000001800407e0 f   libvcruntimed:undname.obj
 0001:0003f8a0       ??_5DName@@QEAAAEAV0@AEBV0@@Z 00000001800408a0 f   libvcruntimed:undname.obj
 0001:0003f910       ??__K_l@@YA?AUStringLiteral@@PEBD_K@Z 0000000180040910 f i libvcruntimed:undname.obj
 0001:0003f960       ?Constructor@_HeapManager@@QEAAXP6APEAX_K@ZP6AXPEAX@Z@Z 0000000180040960 f i libvcruntimed:undname.obj
 0001:0003f9c0       ?Destructor@_HeapManager@@QEAAXXZ 00000001800409c0 f i libvcruntimed:undname.obj
 0001:0003fa60       ?UScore@UnDecorator@@SA?AUStringLiteral@@W4Tokens@@@Z 0000000180040a60 f   libvcruntimed:undname.obj
 0001:0003faf0       ?composeDeclaration@UnDecorator@@CA?AVDName@@AEBV2@@Z 0000000180040af0 f i libvcruntimed:undname.obj
 0001:00041ff0       ?dbGetString@DName@@QEBAPEADXZ 0000000180042ff0 f   libvcruntimed:undname.obj
 0001:00042020       ?doAccessSpecifiers@UnDecorator@@SAHXZ 0000000180043020 f i libvcruntimed:undname.obj
 0001:00042050       ?doAllocationLanguage@UnDecorator@@SAHXZ 0000000180043050 f i libvcruntimed:undname.obj
 0001:00042080       ?doAllocationModel@UnDecorator@@SAHXZ 0000000180043080 f i libvcruntimed:undname.obj
 0001:000420b0       ?doEcsu@UnDecorator@@SAHXZ 00000001800430b0 f i libvcruntimed:undname.obj
 0001:000420e0       ?doEllipsis@UnDecorator@@SAHXZ 00000001800430e0 f i libvcruntimed:undname.obj
 0001:00042110       ?doFunctionReturns@UnDecorator@@SAHXZ 0000000180043110 f i libvcruntimed:undname.obj
 0001:00042140       ?doMSKeywords@UnDecorator@@SAHXZ 0000000180043140 f i libvcruntimed:undname.obj
 0001:00042170       ?doMemberTypes@UnDecorator@@SAHXZ 0000000180043170 f i libvcruntimed:undname.obj
 0001:000421a0       ?doNameOnly@UnDecorator@@SAHXZ 00000001800431a0 f i libvcruntimed:undname.obj
 0001:000421b0       ?doNoIdentCharCheck@UnDecorator@@SAHXZ 00000001800431b0 f i libvcruntimed:undname.obj
 0001:000421c0       ?doPchar@DName@@AEAAXD@Z   00000001800431c0 f   libvcruntimed:undname.obj
 0001:00042250       ?doPtr64@UnDecorator@@SAHXZ 0000000180043250 f i libvcruntimed:undname.obj
 0001:00042280       ?doRestrictionSpec@UnDecorator@@SAHXZ 0000000180043280 f i libvcruntimed:undname.obj
 0001:000422b0       ?doThisTypes@UnDecorator@@SAHXZ 00000001800432b0 f i libvcruntimed:undname.obj
 0001:000422e0       ?doThrowTypes@UnDecorator@@SAHXZ 00000001800432e0 f i libvcruntimed:undname.obj
 0001:00042310       ?doTypeOnly@UnDecorator@@SAHXZ 0000000180043310 f i libvcruntimed:undname.obj
 0001:00042320       ?doUnderScore@UnDecorator@@SAHXZ 0000000180043320 f i libvcruntimed:undname.obj
 0001:00042350       ?getAddressOf@UnDecorator@@CA?AVDName@@XZ 0000000180043350 f   libvcruntimed:undname.obj
 0001:000423f0       ?getArgumentList@UnDecorator@@CA?AVDName@@XZ 00000001800433f0 f   libvcruntimed:undname.obj
 0001:00042590       ?getArgumentTypes@UnDecorator@@CA?AVDName@@XZ 0000000180043590 f   libvcruntimed:undname.obj
 0001:00042870       ?getArrayAccess@UnDecorator@@CA?AVDName@@XZ 0000000180043870 f   libvcruntimed:undname.obj
 0001:00042930       ?getArrayObject@UnDecorator@@CA?AVDName@@XZ 0000000180043930 f   libvcruntimed:undname.obj
 0001:00042a50       ?getArrayType@UnDecorator@@CA?AVDName@@AEBV2@@Z 0000000180043a50 f i libvcruntimed:undname.obj
 0001:00042e10       ?getBasedType@UnDecorator@@CA?AVDName@@XZ 0000000180043e10 f   libvcruntimed:undname.obj
 0001:00042f80       ?getBasicDataType@UnDecorator@@CA?AVDName@@AEBV2@@Z 0000000180043f80 f   libvcruntimed:undname.obj
 0001:00043d20       ?getCHPEName@UnDecorator@@QEAAPEADPEADH@Z 0000000180044d20 f i libvcruntimed:undname.obj
 0001:00043ef0       ?getCallIndex@UnDecorator@@CA?AVDName@@XZ 0000000180044ef0 f i libvcruntimed:undname.obj
 0001:00043f10       ?getCallingConvention@UnDecorator@@CA?AVDName@@XZ 0000000180044f10 f   libvcruntimed:undname.obj
 0001:00044300       ?getDataIndirectType@UnDecorator@@CA?AVDName@@AEBV2@W4IndirectionKind@@0H@Z 0000000180045300 f   libvcruntimed:undname.obj
 0001:00044fa0       ?getDataIndirectType@UnDecorator@@CA?AVDName@@XZ 0000000180045fa0 f i libvcruntimed:undname.obj
 0001:00044ff0       ?getDataType@UnDecorator@@CA?AVDName@@PEAV2@@Z 0000000180045ff0 f   libvcruntimed:undname.obj
 0001:000451d0       ?getDecoratedName@UnDecorator@@CA?AVDName@@XZ 00000001800461d0 f   libvcruntimed:undname.obj
 0001:000456c0       ?getDimension@UnDecorator@@CA?AVDName@@_N@Z 00000001800466c0 f   libvcruntimed:undname.obj
 0001:000459d0       ?getDispatchTarget@UnDecorator@@CA?AVDName@@XZ 00000001800469d0 f   libvcruntimed:undname.obj
 0001:00045aa0       ?getDisplacement@UnDecorator@@CA?AVDName@@XZ 0000000180046aa0 f i libvcruntimed:undname.obj
 0001:00045ac0       ?getECSUDataType@UnDecorator@@CA?AVDName@@XZ 0000000180046ac0 f   libvcruntimed:undname.obj
 0001:00045e50       ?getECSUName@UnDecorator@@CA?AVDName@@XZ 0000000180046e50 f i libvcruntimed:undname.obj
 0001:00045e70       ?getEnumType@UnDecorator@@CA?AVDName@@XZ 0000000180046e70 f i libvcruntimed:undname.obj
 0001:00046100       ?getExtendedDataIndirectType@UnDecorator@@CA?AVDName@@AEAW4IndirectionKind@@AEA_NH@Z 0000000180047100 f   libvcruntimed:undname.obj
 0001:00046420       ?getExternalDataType@UnDecorator@@CA?AVDName@@AEBV2@@Z 0000000180047420 f i libvcruntimed:undname.obj
 0001:00046500       ?getFloatingPoint@UnDecorator@@CA?AVDName@@H@Z 0000000180047500 f   libvcruntimed:undname.obj
 0001:00046780       ?getFunctionIndirectType@UnDecorator@@CA?AVDName@@AEBV2@@Z 0000000180047780 f   libvcruntimed:undname.obj
 0001:00046db0       ?getGuardNumber@UnDecorator@@CA?AVDName@@XZ 0000000180047db0 f i libvcruntimed:undname.obj
 0001:00046dd0       ?getLastChar@DName@@QEBADXZ 0000000180047dd0 f i libvcruntimed:undname.obj
 0001:00046e20       ?getLastChar@DNameStatusNode@@UEBADXZ 0000000180047e20 f i libvcruntimed:undname.obj
 0001:00046e60       ?getLastChar@charNode@@UEBADXZ 0000000180047e60 f i libvcruntimed:undname.obj
 0001:00046e70       ?getLastChar@pDNameNode@@UEBADXZ 0000000180047e70 f i libvcruntimed:undname.obj
 0001:00046eb0       ?getLastChar@pairNode@@UEBADXZ 0000000180047eb0 f i libvcruntimed:undname.obj
 0001:00046f30       ?getLastChar@pcharNode@@UEBADXZ 0000000180047f30 f i libvcruntimed:undname.obj
 0001:00046f70       ?getLexicalFrame@UnDecorator@@CA?AVDName@@XZ 0000000180047f70 f i libvcruntimed:undname.obj
 0001:00046fc0       ?getMemberAccess@UnDecorator@@CA?AVDName@@XZ 0000000180047fc0 f   libvcruntimed:undname.obj
 0001:00047070       ?getMemoryWithBuffer@_HeapManager@@QEAAPEAX_K@Z 0000000180048070 f   libvcruntimed:undname.obj
 0001:000471c0       ?getMemoryWithoutBuffer@_HeapManager@@QEAAPEAX_K@Z 00000001800481c0 f   libvcruntimed:undname.obj
 0001:00047210       ?getNoexcept@UnDecorator@@CA?AVDName@@XZ 0000000180048210 f   libvcruntimed:undname.obj
 0001:000472c0       ?getNumberOfDimensions@UnDecorator@@CAHXZ 00000001800482c0 f   libvcruntimed:undname.obj
 0001:000473e0       ?getOperatorName@UnDecorator@@CA?AVDName@@_NPEA_N@Z 00000001800483e0 f i libvcruntimed:undname.obj
 0001:000483d0       ?getPointerToMember@UnDecorator@@CA?AVDName@@XZ 00000001800493d0 f   libvcruntimed:undname.obj
 0001:00048520       ?getPointerType@UnDecorator@@CA?AVDName@@AEBV2@0@Z 0000000180049520 f i libvcruntimed:undname.obj
 0001:00048560       ?getPointerTypeArray@UnDecorator@@CA?AVDName@@AEBV2@0@Z 0000000180049560 f i libvcruntimed:undname.obj
 0001:000485a0       ?getPrimaryDataType@UnDecorator@@CA?AVDName@@AEBV2@@Z 00000001800495a0 f   libvcruntimed:undname.obj
 0001:00048bd0       ?getPtrRefDataType@UnDecorator@@CA?AVDName@@AEBV2@H@Z 0000000180049bd0 f   libvcruntimed:undname.obj
 0001:00048fc0       ?getPtrRefType@UnDecorator@@CA?AVDName@@AEBV2@0W4IndirectionKind@@@Z 0000000180049fc0 f   libvcruntimed:undname.obj
 0001:00049200       ?getReferenceType@UnDecorator@@CA?AVDName@@AEBV2@0W4IndirectionKind@@@Z 000000018004a200 f i libvcruntimed:undname.obj
 0001:00049240       ?getRestrictionSpec@UnDecorator@@CA?AVDName@@XZ 000000018004a240 f   libvcruntimed:undname.obj
 0001:000494d0       ?getReturnType@UnDecorator@@CA?AVDName@@PEAV2@@Z 000000018004a4d0 f   libvcruntimed:undname.obj
 0001:00049530       ?getScope@UnDecorator@@CA?AVDName@@XZ 000000018004a530 f   libvcruntimed:undname.obj
 0001:00049c90       ?getScopedName@UnDecorator@@CA?AVDName@@XZ 000000018004ac90 f   libvcruntimed:undname.obj
 0001:00049e90       ?getSignedDimension@UnDecorator@@CA?AVDName@@XZ 000000018004ae90 f   libvcruntimed:undname.obj
 0001:00049f20       ?getStorageConvention@UnDecorator@@CA?AVDName@@XZ 000000018004af20 f i libvcruntimed:undname.obj
 0001:00049f40       ?getString@DName@@QEBAPEADPEAD0@Z 000000018004af40 f i libvcruntimed:undname.obj
 0001:00049fc0       ?getString@DName@@QEBAPEADPEADH@Z 000000018004afc0 f i libvcruntimed:undname.obj
 0001:0004a080       ?getString@DNameStatusNode@@UEBAPEADPEAD0@Z 000000018004b080 f i libvcruntimed:undname.obj
 0001:0004a0d0       ?getString@charNode@@UEBAPEADPEAD0@Z 000000018004b0d0 f i libvcruntimed:undname.obj
 0001:0004a110       ?getString@pDNameNode@@UEBAPEADPEAD0@Z 000000018004b110 f i libvcruntimed:undname.obj
 0001:0004a170       ?getString@pairNode@@UEBAPEADPEAD0@Z 000000018004b170 f i libvcruntimed:undname.obj
 0001:0004a240       ?getString@pcharNode@@UEBAPEADPEAD0@Z 000000018004b240 f i libvcruntimed:undname.obj
 0001:0004a280       ?getStringEncoding@UnDecorator@@CA?AVDName@@W4PrefixKind@@H@Z 000000018004b280 f   libvcruntimed:undname.obj
 0001:0004a3e0       ?getStringHelper@@YAPEADPEADPEBD1H@Z 000000018004b3e0 f i libvcruntimed:undname.obj
 0001:0004a450       ?getStringObject@UnDecorator@@CA?AVDName@@XZ 000000018004b450 f   libvcruntimed:undname.obj
 0001:0004a530       ?getSymbolName@UnDecorator@@CA?AVDName@@XZ 000000018004b530 f i libvcruntimed:undname.obj
 0001:0004a5d0       ?getTemplateArgumentList@UnDecorator@@CA?AVDName@@XZ 000000018004b5d0 f   libvcruntimed:undname.obj
 0001:0004a910       ?getTemplateName@UnDecorator@@CA?AVDName@@_N@Z 000000018004b910 f   libvcruntimed:undname.obj
 0001:0004ab50       ?getTemplateNonTypeArgument@UnDecorator@@CA?AVDName@@XZ 000000018004bb50 f   libvcruntimed:undname.obj
 0001:0004b3f0       ?getTemplateTypeArgument@UnDecorator@@CA?AVDName@@XZ 000000018004c3f0 f   libvcruntimed:undname.obj
 0001:0004b660       ?getThisType@UnDecorator@@CA?AVDName@@XZ 000000018004c660 f i libvcruntimed:undname.obj
 0001:0004b6b0       ?getThrowTypes@UnDecorator@@CA?AVDName@@XZ 000000018004c6b0 f   libvcruntimed:undname.obj
 0001:0004b700       ?getTypeEncoding@UnDecorator@@CAHXZ 000000018004c700 f i libvcruntimed:undname.obj
 0001:0004c360       ?getUndecoratedName@UnDecorator@@QEAAPEADPEADH@Z 000000018004d360 f i libvcruntimed:undname.obj
 0001:0004c550       ?getUnionObject@UnDecorator@@CA?AVDName@@XZ 000000018004d550 f   libvcruntimed:undname.obj
 0001:0004c660       ?getVCallThunkType@UnDecorator@@CA?AVDName@@XZ 000000018004d660 f i libvcruntimed:undname.obj
 0001:0004c710       ?getValue@UnDecorator@@CA?AV?$optional@_K@std@@XZ 000000018004d710 f   libvcruntimed:undname.obj
 0001:0004c7e0       ?getValueObject@UnDecorator@@CA?AVDName@@XZ 000000018004d7e0 f   libvcruntimed:undname.obj
 0001:0004ca00       ?getVbTableType@UnDecorator@@CA?AVDName@@AEBV2@@Z 000000018004da00 f i libvcruntimed:undname.obj
 0001:0004ca30       ?getVdispMapType@UnDecorator@@CA?AVDName@@AEBV2@@Z 000000018004da30 f i libvcruntimed:undname.obj
 0001:0004caf0       ?getVfTableType@UnDecorator@@CA?AVDName@@AEBV2@@Z 000000018004daf0 f i libvcruntimed:undname.obj
 0001:0004cd90       ?getZName@UnDecorator@@CA?AVDName@@_N0@Z 000000018004dd90 f   libvcruntimed:undname.obj
 0001:0004d200       ?haveTemplateParameters@UnDecorator@@SAHXZ 000000018004e200 f i libvcruntimed:undname.obj
 0001:0004d210       ?isArray@DName@@QEBAHXZ    000000018004e210 f i libvcruntimed:undname.obj
 0001:0004d230       ?isComArray@DName@@QEBAHXZ 000000018004e230 f i libvcruntimed:undname.obj
 0001:0004d250       ?isEmpty@DName@@QEBAHXZ    000000018004e250 f i libvcruntimed:undname.obj
 0001:0004d280       ?isFull@Replicator@@QEBAHXZ 000000018004e280 f i libvcruntimed:undname.obj
 0001:0004d2b0       ?isNoTE@DName@@QEBAHXZ     000000018004e2b0 f i libvcruntimed:undname.obj
 0001:0004d2d0       ?isPinPtr@DName@@QEBAHXZ   000000018004e2d0 f i libvcruntimed:undname.obj
 0001:0004d2f0       ?isPtrRef@DName@@QEBAHXZ   000000018004e2f0 f i libvcruntimed:undname.obj
 0001:0004d310       ?isUDC@DName@@QEBAHXZ      000000018004e310 f i libvcruntimed:undname.obj
 0001:0004d360       ?isUDTThunk@DName@@QEBAHXZ 000000018004e360 f i libvcruntimed:undname.obj
 0001:0004d3b0       ?isVCallThunk@DName@@QEBAHXZ 000000018004e3b0 f i libvcruntimed:undname.obj
 0001:0004d3d0       ?isValid@DName@@QEBAHXZ    000000018004e3d0 f i libvcruntimed:undname.obj
 0001:0004d410       ?length@DName@@QEBAHXZ     000000018004e410 f i libvcruntimed:undname.obj
 0001:0004d460       ?length@DNameStatusNode@@UEBAHXZ 000000018004e460 f i libvcruntimed:undname.obj
 0001:0004d470       ?length@charNode@@UEBAHXZ  000000018004e470 f i libvcruntimed:undname.obj
 0001:0004d480       ?length@pDNameNode@@UEBAHXZ 000000018004e480 f i libvcruntimed:undname.obj
 0001:0004d4c0       ?length@pairNode@@UEBAHXZ  000000018004e4c0 f i libvcruntimed:undname.obj
 0001:0004d550       ?length@pcharNode@@UEBAHXZ 000000018004e550 f i libvcruntimed:undname.obj
 0001:0004d560       ?make@DNameStatusNode@@SAPEBV1@W4DNameStatus@@@Z 000000018004e560 f i libvcruntimed:undname.obj
 0001:0004d5b0       ?parseDecoratedName@UnDecorator@@CA?AVDName@@XZ 000000018004e5b0 f   libvcruntimed:undname.obj
 0001:0004d7a0       ?raw_length@DNameStatusNode@@UEBAHXZ 000000018004e7a0 f i libvcruntimed:undname.obj
 0001:0004d7c0       ?raw_length@charNode@@UEBAHXZ 000000018004e7c0 f i libvcruntimed:undname.obj
 0001:0004d7e0       ?raw_length@pDNameNode@@UEBAHXZ 000000018004e7e0 f i libvcruntimed:undname.obj
 0001:0004d7f0       ?raw_length@pairNode@@UEBAHXZ 000000018004e7f0 f i libvcruntimed:undname.obj
 0001:0004d800       ?raw_length@pcharNode@@UEBAHXZ 000000018004e800 f i libvcruntimed:undname.obj
 0001:0004d820       ?setIsArray@DName@@QEAAXXZ 000000018004e820 f i libvcruntimed:undname.obj
 0001:0004d840       ?setIsComArray@DName@@QEAAXXZ 000000018004e840 f i libvcruntimed:undname.obj
 0001:0004d860       ?setIsNoTE@DName@@QEAAXXZ  000000018004e860 f i libvcruntimed:undname.obj
 0001:0004d880       ?setIsPinPtr@DName@@QEAAXXZ 000000018004e880 f i libvcruntimed:undname.obj
 0001:0004d8a0       ?setIsUDC@DName@@QEAAXXZ   000000018004e8a0 f i libvcruntimed:undname.obj
 0001:0004d8d0       ?setIsVCallThunk@DName@@QEAAXXZ 000000018004e8d0 f i libvcruntimed:undname.obj
 0001:0004d8f0       ?setPtrRef@DName@@QEAAAEAV1@XZ 000000018004e8f0 f i libvcruntimed:undname.obj
 0001:0004d910       ?status@DName@@QEBA?AW4DNameStatus@@XZ 000000018004e910 f i libvcruntimed:undname.obj
 0001:0004da40       __unDName                  000000018004ea40 f   libvcruntimed:undname.obj
 0001:0004daa0       __unDNameEx                000000018004eaa0 f   libvcruntimed:undname.obj
 0001:0004db60       unDNameGenerateCHPE        000000018004eb60 f   libvcruntimed:undname.obj
 0001:0004dc10       ??$__crt_interlocked_exchange_pointer@UHINSTANCE__@@PEAU1@@@YAPEAUHINSTANCE__@@PEDSEAU0@QEAU0@@Z 000000018004ec10 f i libvcruntimed:winapi_downlevel.obj
 0001:0004dc30       ??$__crt_interlocked_exchange_pointer@UHINSTANCE__@@PEAX@@YAPEAUHINSTANCE__@@PEDSEAU0@QEAX@Z 000000018004ec30 f i libvcruntimed:winapi_downlevel.obj
 0001:0004dc50       ??$__crt_interlocked_exchange_pointer@XPEAX@@YAPEAXPEDSEAXQEAX@Z 000000018004ec50 f i libvcruntimed:winapi_downlevel.obj
 0001:0004dc70       ??$__crt_interlocked_read_pointer@UHINSTANCE__@@@@YAPEAUHINSTANCE__@@PEDSEAU0@@Z 000000018004ec70 f i libvcruntimed:winapi_downlevel.obj
 0001:0004dc90       ??$__crt_interlocked_read_pointer@X@@YAPEAXPEDSEAX@Z 000000018004ec90 f i libvcruntimed:winapi_downlevel.obj
 0001:0004e1a0       __vcrt_FlsAlloc            000000018004f1a0 f   libvcruntimed:winapi_downlevel.obj
 0001:0004e1f0       __vcrt_FlsFree             000000018004f1f0 f   libvcruntimed:winapi_downlevel.obj
 0001:0004e240       __vcrt_FlsGetValue         000000018004f240 f   libvcruntimed:winapi_downlevel.obj
 0001:0004e290       __vcrt_FlsSetValue         000000018004f290 f   libvcruntimed:winapi_downlevel.obj
 0001:0004e2f0       __vcrt_InitializeCriticalSectionEx 000000018004f2f0 f   libvcruntimed:winapi_downlevel.obj
 0001:0004e370       _CallSettingFrame          000000018004f370 f   libvcruntimed:handlers.obj
 0001:0004e3c0       _CallSettingFrame_LookupContinuationIndex 000000018004f3c0 f   libvcruntimed:handlers.obj
 0001:0004e3f0       _CallSettingFrame_NotifyContinuationAddr 000000018004f3f0 f   libvcruntimed:handlers.obj
 0001:0004e420       _CallSettingFrameEncoded   000000018004f420 f   libvcruntimed:handlers.obj
 0001:0004e470       ??$?0AEBV?$stream_output_adapter@D@__crt_stdio_output@@AEB_KAEBQEBDAEAV__crt_cached_ptd_host@@AEBQEAD@?$format_validation_base@DV?$stream_output_adapter@D@__crt_stdio_output@@@__crt_stdio_output@@IEAA@AEBV?$stream_output_adapter@D@1@AEB_KAEBQEBDAEAV__crt_cached_ptd_host@@AEBQEAD@Z 000000018004f470 f i libucrtd:output.obj
 0001:0004e4c0       ??$?0AEBV?$stream_output_adapter@D@__crt_stdio_output@@AEB_KAEBQEBDAEAV__crt_cached_ptd_host@@AEBQEAD@?$positional_parameter_base@DV?$stream_output_adapter@D@__crt_stdio_output@@@__crt_stdio_output@@IEAA@AEBV?$stream_output_adapter@D@1@AEB_KAEBQEBDAEAV__crt_cached_ptd_host@@AEBQEAD@Z 000000018004f4c0 f i libucrtd:output.obj
 0001:0004e560       ??$?0AEBV?$stream_output_adapter@D@__crt_stdio_output@@AEB_KAEBQEBDAEAV__crt_cached_ptd_host@@AEBQEAD@?$standard_base@DV?$stream_output_adapter@D@__crt_stdio_output@@@__crt_stdio_output@@IEAA@AEBV?$stream_output_adapter@D@1@AEB_KAEBQEBDAEAV__crt_cached_ptd_host@@AEBQEAD@Z 000000018004f560 f i libucrtd:output.obj
 0001:0004e5d0       ??$?0AEBV?$stream_output_adapter@_W@__crt_stdio_output@@AEB_KAEBQEB_WAEAV__crt_cached_ptd_host@@AEBQEAD@?$format_validation_base@_WV?$stream_output_adapter@_W@__crt_stdio_output@@@__crt_stdio_output@@IEAA@AEBV?$stream_output_adapter@_W@1@AEB_KAEBQEB_WAEAV__crt_cached_ptd_host@@AEBQEAD@Z 000000018004f5d0 f i libucrtd:output.obj
 0001:0004e620       ??$?0AEBV?$stream_output_adapter@_W@__crt_stdio_output@@AEB_KAEBQEB_WAEAV__crt_cached_ptd_host@@AEBQEAD@?$positional_parameter_base@_WV?$stream_output_adapter@_W@__crt_stdio_output@@@__crt_stdio_output@@IEAA@AEBV?$stream_output_adapter@_W@1@AEB_KAEBQEB_WAEAV__crt_cached_ptd_host@@AEBQEAD@Z 000000018004f620 f i libucrtd:output.obj
 0001:0004e6c0       ??$?0AEBV?$stream_output_adapter@_W@__crt_stdio_output@@AEB_KAEBQEB_WAEAV__crt_cached_ptd_host@@AEBQEAD@?$standard_base@_WV?$stream_output_adapter@_W@__crt_stdio_output@@@__crt_stdio_output@@IEAA@AEBV?$stream_output_adapter@_W@1@AEB_KAEBQEB_WAEAV__crt_cached_ptd_host@@AEBQEAD@Z 000000018004f6c0 f i libucrtd:output.obj
 0001:0004e730       ??$?0AEBV?$string_output_adapter@D@__crt_stdio_output@@AEB_KAEBQEBDAEAV__crt_cached_ptd_host@@AEBQEAD@?$format_validation_base@DV?$string_output_adapter@D@__crt_stdio_output@@@__crt_stdio_output@@IEAA@AEBV?$string_output_adapter@D@1@AEB_KAEBQEBDAEAV__crt_cached_ptd_host@@AEBQEAD@Z 000000018004f730 f i libucrtd:output.obj
 0001:0004e780       ??$?0AEBV?$string_output_adapter@D@__crt_stdio_output@@AEB_KAEBQEBDAEAV__crt_cached_ptd_host@@AEBQEAD@?$positional_parameter_base@DV?$string_output_adapter@D@__crt_stdio_output@@@__crt_stdio_output@@IEAA@AEBV?$string_output_adapter@D@1@AEB_KAEBQEBDAEAV__crt_cached_ptd_host@@AEBQEAD@Z 000000018004f780 f i libucrtd:output.obj
 0001:0004e820       ??$?0AEBV?$string_output_adapter@D@__crt_stdio_output@@AEB_KAEBQEBDAEAV__crt_cached_ptd_host@@AEBQEAD@?$standard_base@DV?$string_output_adapter@D@__crt_stdio_output@@@__crt_stdio_output@@IEAA@AEBV?$string_output_adapter@D@1@AEB_KAEBQEBDAEAV__crt_cached_ptd_host@@AEBQEAD@Z 000000018004f820 f i libucrtd:output.obj
 0001:0004e890       ??$?0AEBV?$string_output_adapter@_W@__crt_stdio_output@@AEB_KAEBQEB_WAEAV__crt_cached_ptd_host@@AEBQEAD@?$format_validation_base@_WV?$string_output_adapter@_W@__crt_stdio_output@@@__crt_stdio_output@@IEAA@AEBV?$string_output_adapter@_W@1@AEB_KAEBQEB_WAEAV__crt_cached_ptd_host@@AEBQEAD@Z 000000018004f890 f i libucrtd:output.obj
 0001:0004e8e0       ??$?0AEBV?$string_output_adapter@_W@__crt_stdio_output@@AEB_KAEBQEB_WAEAV__crt_cached_ptd_host@@AEBQEAD@?$positional_parameter_base@_WV?$string_output_adapter@_W@__crt_stdio_output@@@__crt_stdio_output@@IEAA@AEBV?$string_output_adapter@_W@1@AEB_KAEBQEB_WAEAV__crt_cached_ptd_host@@AEBQEAD@Z 000000018004f8e0 f i libucrtd:output.obj
 0001:0004e980       ??$?0AEBV?$string_output_adapter@_W@__crt_stdio_output@@AEB_KAEBQEB_WAEAV__crt_cached_ptd_host@@AEBQEAD@?$standard_base@_WV?$string_output_adapter@_W@__crt_stdio_output@@@__crt_stdio_output@@IEAA@AEBV?$string_output_adapter@_W@1@AEB_KAEBQEB_WAEAV__crt_cached_ptd_host@@AEBQEAD@Z 000000018004f980 f i libucrtd:output.obj
 0001:0004ee10       ??$__crt_interlocked_read@J@@YAJPEDJ@Z 000000018004fe10 f i libucrtd:output.obj
 0001:0004ee30       ??$_tcstol_internal@DPEAPEAD$0A@@@YAJAEAV__crt_cached_ptd_host@@QEBDQEAPEADH@Z 000000018004fe30 f i libucrtd:output.obj
 0001:0004ee80       ??$_tcstol_internal@_WPEAPEA_W$0A@@@YAJAEAV__crt_cached_ptd_host@@QEB_WQEAPEA_WH@Z 000000018004fe80 f i libucrtd:output.obj
 0001:00052ea0       ??$count@D@formatting_buffer@__crt_stdio_output@@QEBA_KXZ 0000000180053ea0 f i libucrtd:output.obj
 0001:00052ef0       ??$count@_W@formatting_buffer@__crt_stdio_output@@QEBA_KXZ 0000000180053ef0 f i libucrtd:output.obj
 0001:00052f40       ??$data@D@formatting_buffer@__crt_stdio_output@@QEAAPEADXZ 0000000180053f40 f i libucrtd:output.obj
 0001:00052f90       ??$data@_W@formatting_buffer@__crt_stdio_output@@QEAAPEA_WXZ 0000000180053f90 f i libucrtd:output.obj
 0001:00052fe0       ??$ensure_buffer_is_big_enough@D@formatting_buffer@__crt_stdio_output@@QEAA_N_KAEAV__crt_cached_ptd_host@@@Z 0000000180053fe0 f i libucrtd:output.obj
 0001:00053120       ??$ensure_buffer_is_big_enough@_W@formatting_buffer@__crt_stdio_output@@QEAA_N_KAEAV__crt_cached_ptd_host@@@Z 0000000180054120 f i libucrtd:output.obj
 0001:00053260       ??$extract_argument_from_va_list@C_J@?$positional_parameter_base@DV?$stream_output_adapter@D@__crt_stdio_output@@@__crt_stdio_output@@IEAA_NAEA_J@Z 0000000180054260 f i libucrtd:output.obj
 0001:00053420       ??$extract_argument_from_va_list@C_J@?$positional_parameter_base@DV?$string_output_adapter@D@__crt_stdio_output@@@__crt_stdio_output@@IEAA_NAEA_J@Z 0000000180054420 f i libucrtd:output.obj
 0001:000535e0       ??$extract_argument_from_va_list@C_J@?$positional_parameter_base@_WV?$stream_output_adapter@_W@__crt_stdio_output@@@__crt_stdio_output@@IEAA_NAEA_J@Z 00000001800545e0 f i libucrtd:output.obj
 0001:000537a0       ??$extract_argument_from_va_list@C_J@?$positional_parameter_base@_WV?$string_output_adapter@_W@__crt_stdio_output@@@__crt_stdio_output@@IEAA_NAEA_J@Z 00000001800547a0 f i libucrtd:output.obj
 0001:00053960       ??$extract_argument_from_va_list@C_J@?$standard_base@DV?$stream_output_adapter@D@__crt_stdio_output@@@__crt_stdio_output@@IEAA_NAEA_J@Z 0000000180054960 f i libucrtd:output.obj
 0001:000539a0       ??$extract_argument_from_va_list@C_J@?$standard_base@DV?$string_output_adapter@D@__crt_stdio_output@@@__crt_stdio_output@@IEAA_NAEA_J@Z 00000001800549a0 f i libucrtd:output.obj
 0001:000539e0       ??$extract_argument_from_va_list@C_J@?$standard_base@_WV?$stream_output_adapter@_W@__crt_stdio_output@@@__crt_stdio_output@@IEAA_NAEA_J@Z 00000001800549e0 f i libucrtd:output.obj
 0001:00053a20       ??$extract_argument_from_va_list@C_J@?$standard_base@_WV?$string_output_adapter@_W@__crt_stdio_output@@@__crt_stdio_output@@IEAA_NAEA_J@Z 0000000180054a20 f i libucrtd:output.obj
 0001:00053a60       ??$extract_argument_from_va_list@E_J@?$positional_parameter_base@DV?$stream_output_adapter@D@__crt_stdio_output@@@__crt_stdio_output@@IEAA_NAEA_J@Z 0000000180054a60 f i libucrtd:output.obj
 0001:00053c20       ??$extract_argument_from_va_list@E_J@?$positional_parameter_base@DV?$string_output_adapter@D@__crt_stdio_output@@@__crt_stdio_output@@IEAA_NAEA_J@Z 0000000180054c20 f i libucrtd:output.obj
 0001:00053de0       ??$extract_argument_from_va_list@E_J@?$positional_parameter_base@_WV?$stream_output_adapter@_W@__crt_stdio_output@@@__crt_stdio_output@@IEAA_NAEA_J@Z 0000000180054de0 f i libucrtd:output.obj
 0001:00053fa0       ??$extract_argument_from_va_list@E_J@?$positional_parameter_base@_WV?$string_output_adapter@_W@__crt_stdio_output@@@__crt_stdio_output@@IEAA_NAEA_J@Z 0000000180054fa0 f i libucrtd:output.obj
 0001:00054160       ??$extract_argument_from_va_list@E_J@?$standard_base@DV?$stream_output_adapter@D@__crt_stdio_output@@@__crt_stdio_output@@IEAA_NAEA_J@Z 0000000180055160 f i libucrtd:output.obj
 0001:000541a0       ??$extract_argument_from_va_list@E_J@?$standard_base@DV?$string_output_adapter@D@__crt_stdio_output@@@__crt_stdio_output@@IEAA_NAEA_J@Z 00000001800551a0 f i libucrtd:output.obj
 0001:000541e0       ??$extract_argument_from_va_list@E_J@?$standard_base@_WV?$stream_output_adapter@_W@__crt_stdio_output@@@__crt_stdio_output@@IEAA_NAEA_J@Z 00000001800551e0 f i libucrtd:output.obj
 0001:00054220       ??$extract_argument_from_va_list@E_J@?$standard_base@_WV?$string_output_adapter@_W@__crt_stdio_output@@@__crt_stdio_output@@IEAA_NAEA_J@Z 0000000180055220 f i libucrtd:output.obj
 0001:00054260       ??$extract_argument_from_va_list@F_J@?$positional_parameter_base@DV?$stream_output_adapter@D@__crt_stdio_output@@@__crt_stdio_output@@IEAA_NAEA_J@Z 0000000180055260 f i libucrtd:output.obj
 0001:00054420       ??$extract_argument_from_va_list@F_J@?$positional_parameter_base@DV?$string_output_adapter@D@__crt_stdio_output@@@__crt_stdio_output@@IEAA_NAEA_J@Z 0000000180055420 f i libucrtd:output.obj
 0001:000545e0       ??$extract_argument_from_va_list@F_J@?$positional_parameter_base@_WV?$stream_output_adapter@_W@__crt_stdio_output@@@__crt_stdio_output@@IEAA_NAEA_J@Z 00000001800555e0 f i libucrtd:output.obj
 0001:000547a0       ??$extract_argument_from_va_list@F_J@?$positional_parameter_base@_WV?$string_output_adapter@_W@__crt_stdio_output@@@__crt_stdio_output@@IEAA_NAEA_J@Z 00000001800557a0 f i libucrtd:output.obj
 0001:00054960       ??$extract_argument_from_va_list@F_J@?$standard_base@DV?$stream_output_adapter@D@__crt_stdio_output@@@__crt_stdio_output@@IEAA_NAEA_J@Z 0000000180055960 f i libucrtd:output.obj
 0001:000549a0       ??$extract_argument_from_va_list@F_J@?$standard_base@DV?$string_output_adapter@D@__crt_stdio_output@@@__crt_stdio_output@@IEAA_NAEA_J@Z 00000001800559a0 f i libucrtd:output.obj
 0001:000549e0       ??$extract_argument_from_va_list@F_J@?$standard_base@_WV?$stream_output_adapter@_W@__crt_stdio_output@@@__crt_stdio_output@@IEAA_NAEA_J@Z 00000001800559e0 f i libucrtd:output.obj
 0001:00054a20       ??$extract_argument_from_va_list@F_J@?$standard_base@_WV?$string_output_adapter@_W@__crt_stdio_output@@@__crt_stdio_output@@IEAA_NAEA_J@Z 0000000180055a20 f i libucrtd:output.obj
 0001:00054a60       ??$extract_argument_from_va_list@GD@?$positional_parameter_base@DV?$stream_output_adapter@D@__crt_stdio_output@@@__crt_stdio_output@@IEAA_NAEAD@Z 0000000180055a60 f i libucrtd:output.obj
 0001:00054c20       ??$extract_argument_from_va_list@GD@?$positional_parameter_base@DV?$string_output_adapter@D@__crt_stdio_output@@@__crt_stdio_output@@IEAA_NAEAD@Z 0000000180055c20 f i libucrtd:output.obj
 0001:00054de0       ??$extract_argument_from_va_list@GD@?$standard_base@DV?$stream_output_adapter@D@__crt_stdio_output@@@__crt_stdio_output@@IEAA_NAEAD@Z 0000000180055de0 f i libucrtd:output.obj
 0001:00054e10       ??$extract_argument_from_va_list@GD@?$standard_base@DV?$string_output_adapter@D@__crt_stdio_output@@@__crt_stdio_output@@IEAA_NAEAD@Z 0000000180055e10 f i libucrtd:output.obj
 0001:00054e40       ??$extract_argument_from_va_list@G_J@?$positional_parameter_base@DV?$stream_output_adapter@D@__crt_stdio_output@@@__crt_stdio_output@@IEAA_NAEA_J@Z 0000000180055e40 f i libucrtd:output.obj
 0001:00055000       ??$extract_argument_from_va_list@G_J@?$positional_parameter_base@DV?$string_output_adapter@D@__crt_stdio_output@@@__crt_stdio_output@@IEAA_NAEA_J@Z 0000000180056000 f i libucrtd:output.obj
 0001:000551c0       ??$extract_argument_from_va_list@G_J@?$positional_parameter_base@_WV?$stream_output_adapter@_W@__crt_stdio_output@@@__crt_stdio_output@@IEAA_NAEA_J@Z 00000001800561c0 f i libucrtd:output.obj
 0001:00055380       ??$extract_argument_from_va_list@G_J@?$positional_parameter_base@_WV?$string_output_adapter@_W@__crt_stdio_output@@@__crt_stdio_output@@IEAA_NAEA_J@Z 0000000180056380 f i libucrtd:output.obj
 0001:00055540       ??$extract_argument_from_va_list@G_J@?$standard_base@DV?$stream_output_adapter@D@__crt_stdio_output@@@__crt_stdio_output@@IEAA_NAEA_J@Z 0000000180056540 f i libucrtd:output.obj
 0001:00055580       ??$extract_argument_from_va_list@G_J@?$standard_base@DV?$string_output_adapter@D@__crt_stdio_output@@@__crt_stdio_output@@IEAA_NAEA_J@Z 0000000180056580 f i libucrtd:output.obj
 0001:000555c0       ??$extract_argument_from_va_list@G_J@?$standard_base@_WV?$stream_output_adapter@_W@__crt_stdio_output@@@__crt_stdio_output@@IEAA_NAEA_J@Z 00000001800565c0 f i libucrtd:output.obj
 0001:00055600       ??$extract_argument_from_va_list@G_J@?$standard_base@_WV?$string_output_adapter@_W@__crt_stdio_output@@@__crt_stdio_output@@IEAA_NAEA_J@Z 0000000180056600 f i libucrtd:output.obj
 0001:00055640       ??$extract_argument_from_va_list@H_J@?$positional_parameter_base@DV?$stream_output_adapter@D@__crt_stdio_output@@@__crt_stdio_output@@IEAA_NAEA_J@Z 0000000180056640 f i libucrtd:output.obj
 0001:00055800       ??$extract_argument_from_va_list@H_J@?$positional_parameter_base@DV?$string_output_adapter@D@__crt_stdio_output@@@__crt_stdio_output@@IEAA_NAEA_J@Z 0000000180056800 f i libucrtd:output.obj
 0001:000559c0       ??$extract_argument_from_va_list@H_J@?$positional_parameter_base@_WV?$stream_output_adapter@_W@__crt_stdio_output@@@__crt_stdio_output@@IEAA_NAEA_J@Z 00000001800569c0 f i libucrtd:output.obj
 0001:00055b80       ??$extract_argument_from_va_list@H_J@?$positional_parameter_base@_WV?$string_output_adapter@_W@__crt_stdio_output@@@__crt_stdio_output@@IEAA_NAEA_J@Z 0000000180056b80 f i libucrtd:output.obj
 0001:00055d40       ??$extract_argument_from_va_list@H_J@?$standard_base@DV?$stream_output_adapter@D@__crt_stdio_output@@@__crt_stdio_output@@IEAA_NAEA_J@Z 0000000180056d40 f i libucrtd:output.obj
 0001:00055d70       ??$extract_argument_from_va_list@H_J@?$standard_base@DV?$string_output_adapter@D@__crt_stdio_output@@@__crt_stdio_output@@IEAA_NAEA_J@Z 0000000180056d70 f i libucrtd:output.obj
 0001:00055da0       ??$extract_argument_from_va_list@H_J@?$standard_base@_WV?$stream_output_adapter@_W@__crt_stdio_output@@@__crt_stdio_output@@IEAA_NAEA_J@Z 0000000180056da0 f i libucrtd:output.obj
 0001:00055dd0       ??$extract_argument_from_va_list@H_J@?$standard_base@_WV?$string_output_adapter@_W@__crt_stdio_output@@@__crt_stdio_output@@IEAA_NAEA_J@Z 0000000180056dd0 f i libucrtd:output.obj
 0001:00055e00       ??$extract_argument_from_va_list@I_J@?$positional_parameter_base@DV?$stream_output_adapter@D@__crt_stdio_output@@@__crt_stdio_output@@IEAA_NAEA_J@Z 0000000180056e00 f i libucrtd:output.obj
 0001:00055fc0       ??$extract_argument_from_va_list@I_J@?$positional_parameter_base@DV?$string_output_adapter@D@__crt_stdio_output@@@__crt_stdio_output@@IEAA_NAEA_J@Z 0000000180056fc0 f i libucrtd:output.obj
 0001:00056180       ??$extract_argument_from_va_list@I_J@?$positional_parameter_base@_WV?$stream_output_adapter@_W@__crt_stdio_output@@@__crt_stdio_output@@IEAA_NAEA_J@Z 0000000180057180 f i libucrtd:output.obj
 0001:00056340       ??$extract_argument_from_va_list@I_J@?$positional_parameter_base@_WV?$string_output_adapter@_W@__crt_stdio_output@@@__crt_stdio_output@@IEAA_NAEA_J@Z 0000000180057340 f i libucrtd:output.obj
 0001:00056500       ??$extract_argument_from_va_list@I_J@?$standard_base@DV?$stream_output_adapter@D@__crt_stdio_output@@@__crt_stdio_output@@IEAA_NAEA_J@Z 0000000180057500 f i libucrtd:output.obj
 0001:00056530       ??$extract_argument_from_va_list@I_J@?$standard_base@DV?$string_output_adapter@D@__crt_stdio_output@@@__crt_stdio_output@@IEAA_NAEA_J@Z 0000000180057530 f i libucrtd:output.obj
 0001:00056560       ??$extract_argument_from_va_list@I_J@?$standard_base@_WV?$stream_output_adapter@_W@__crt_stdio_output@@@__crt_stdio_output@@IEAA_NAEA_J@Z 0000000180057560 f i libucrtd:output.obj
 0001:00056590       ??$extract_argument_from_va_list@I_J@?$standard_base@_WV?$string_output_adapter@_W@__crt_stdio_output@@@__crt_stdio_output@@IEAA_NAEA_J@Z 0000000180057590 f i libucrtd:output.obj
 0001:000565c0       ??$extract_argument_from_va_list@PEADPEAD@?$positional_parameter_base@DV?$stream_output_adapter@D@__crt_stdio_output@@@__crt_stdio_output@@IEAA_NAEAPEAD@Z 00000001800575c0 f i libucrtd:output.obj
 0001:00056780       ??$extract_argument_from_va_list@PEADPEAD@?$positional_parameter_base@DV?$string_output_adapter@D@__crt_stdio_output@@@__crt_stdio_output@@IEAA_NAEAPEAD@Z 0000000180057780 f i libucrtd:output.obj
 0001:00056940       ??$extract_argument_from_va_list@PEADPEAD@?$positional_parameter_base@_WV?$stream_output_adapter@_W@__crt_stdio_output@@@__crt_stdio_output@@IEAA_NAEAPEAD@Z 0000000180057940 f i libucrtd:output.obj
 0001:00056b00       ??$extract_argument_from_va_list@PEADPEAD@?$positional_parameter_base@_WV?$string_output_adapter@_W@__crt_stdio_output@@@__crt_stdio_output@@IEAA_NAEAPEAD@Z 0000000180057b00 f i libucrtd:output.obj
 0001:00056cc0       ??$extract_argument_from_va_list@PEADPEAD@?$standard_base@DV?$stream_output_adapter@D@__crt_stdio_output@@@__crt_stdio_output@@IEAA_NAEAPEAD@Z 0000000180057cc0 f i libucrtd:output.obj
 0001:00056cf0       ??$extract_argument_from_va_list@PEADPEAD@?$standard_base@DV?$string_output_adapter@D@__crt_stdio_output@@@__crt_stdio_output@@IEAA_NAEAPEAD@Z 0000000180057cf0 f i libucrtd:output.obj
 0001:00056d20       ??$extract_argument_from_va_list@PEADPEAD@?$standard_base@_WV?$stream_output_adapter@_W@__crt_stdio_output@@@__crt_stdio_output@@IEAA_NAEAPEAD@Z 0000000180057d20 f i libucrtd:output.obj
 0001:00056d50       ??$extract_argument_from_va_list@PEADPEAD@?$standard_base@_WV?$string_output_adapter@_W@__crt_stdio_output@@@__crt_stdio_output@@IEAA_NAEAPEAD@Z 0000000180057d50 f i libucrtd:output.obj
 0001:00056d80       ??$extract_argument_from_va_list@PEAUansi_string@?1??type_case_Z@?$output_processor@DV?$stream_output_adapter@D@__crt_stdio_output@@V?$format_validation_base@DV?$stream_output_adapter@D@__crt_stdio_output@@@2@@__crt_stdio_output@@AEAA_NXZ@PEAU1?1??234@AEAA_NXZ@@?$standard_base@DV?$stream_output_adapter@D@__crt_stdio_output@@@__crt_stdio_output@@IEAA_NAEAPEAUansi_string@?1??type_case_Z@?$output_processor@DV?$stream_output_adapter@D@__crt_stdio_output@@V?$format_validation_base@DV?$stream_output_adapter@D@__crt_stdio_output@@@2@@1@AEAA_NXZ@@Z 0000000180057d80 f i libucrtd:output.obj
 0001:00056db0       ??$extract_argument_from_va_list@PEAUansi_string@?1??type_case_Z@?$output_processor@DV?$stream_output_adapter@D@__crt_stdio_output@@V?$positional_parameter_base@DV?$stream_output_adapter@D@__crt_stdio_output@@@2@@__crt_stdio_output@@AEAA_NXZ@PEAU1?1??234@AEAA_NXZ@@?$positional_parameter_base@DV?$stream_output_adapter@D@__crt_stdio_output@@@__crt_stdio_output@@IEAA_NAEAPEAUansi_string@?1??type_case_Z@?$output_processor@DV?$stream_output_adapter@D@__crt_stdio_output@@V?$positional_parameter_base@DV?$stream_output_adapter@D@__crt_stdio_output@@@2@@1@AEAA_NXZ@@Z 0000000180057db0 f i libucrtd:output.obj
 0001:00056f70       ??$extract_argument_from_va_list@PEAUansi_string@?1??type_case_Z@?$output_processor@DV?$stream_output_adapter@D@__crt_stdio_output@@V?$positional_parameter_base@DV?$stream_output_adapter@D@__crt_stdio_output@@@2@@__crt_stdio_output@@AEAA_NXZ@PEAU1?1??234@AEAA_NXZ@@?$standard_base@DV?$stream_output_adapter@D@__crt_stdio_output@@@__crt_stdio_output@@IEAA_NAEAPEAUansi_string@?1??type_case_Z@?$output_processor@DV?$stream_output_adapter@D@__crt_stdio_output@@V?$positional_parameter_base@DV?$stream_output_adapter@D@__crt_stdio_output@@@2@@1@AEAA_NXZ@@Z 0000000180057f70 f i libucrtd:output.obj
 0001:00056fa0       ??$extract_argument_from_va_list@PEAUansi_string@?1??type_case_Z@?$output_processor@DV?$stream_output_adapter@D@__crt_stdio_output@@V?$standard_base@DV?$stream_output_adapter@D@__crt_stdio_output@@@2@@__crt_stdio_output@@AEAA_NXZ@PEAU1?1??234@AEAA_NXZ@@?$standard_base@DV?$stream_output_adapter@D@__crt_stdio_output@@@__crt_stdio_output@@IEAA_NAEAPEAUansi_string@?1??type_case_Z@?$output_processor@DV?$stream_output_adapter@D@__crt_stdio_output@@V?$standard_base@DV?$stream_output_adapter@D@__crt_stdio_output@@@2@@1@AEAA_NXZ@@Z 0000000180057fa0 f i libucrtd:output.obj
 0001:00056fd0       ??$extract_argument_from_va_list@PEAUansi_string@?1??type_case_Z@?$output_processor@DV?$string_output_adapter@D@__crt_stdio_output@@V?$format_validation_base@DV?$string_output_adapter@D@__crt_stdio_output@@@2@@__crt_stdio_output@@AEAA_NXZ@PEAU1?1??234@AEAA_NXZ@@?$standard_base@DV?$string_output_adapter@D@__crt_stdio_output@@@__crt_stdio_output@@IEAA_NAEAPEAUansi_string@?1??type_case_Z@?$output_processor@DV?$string_output_adapter@D@__crt_stdio_output@@V?$format_validation_base@DV?$string_output_adapter@D@__crt_stdio_output@@@2@@1@AEAA_NXZ@@Z 0000000180057fd0 f i libucrtd:output.obj
 0001:00057000       ??$extract_argument_from_va_list@PEAUansi_string@?1??type_case_Z@?$output_processor@DV?$string_output_adapter@D@__crt_stdio_output@@V?$positional_parameter_base@DV?$string_output_adapter@D@__crt_stdio_output@@@2@@__crt_stdio_output@@AEAA_NXZ@PEAU1?1??234@AEAA_NXZ@@?$positional_parameter_base@DV?$string_output_adapter@D@__crt_stdio_output@@@__crt_stdio_output@@IEAA_NAEAPEAUansi_string@?1??type_case_Z@?$output_processor@DV?$string_output_adapter@D@__crt_stdio_output@@V?$positional_parameter_base@DV?$string_output_adapter@D@__crt_stdio_output@@@2@@1@AEAA_NXZ@@Z 0000000180058000 f i libucrtd:output.obj
 0001:000571c0       ??$extract_argument_from_va_list@PEAUansi_string@?1??type_case_Z@?$output_processor@DV?$string_output_adapter@D@__crt_stdio_output@@V?$positional_parameter_base@DV?$string_output_adapter@D@__crt_stdio_output@@@2@@__crt_stdio_output@@AEAA_NXZ@PEAU1?1??234@AEAA_NXZ@@?$standard_base@DV?$string_output_adapter@D@__crt_stdio_output@@@__crt_stdio_output@@IEAA_NAEAPEAUansi_string@?1??type_case_Z@?$output_processor@DV?$string_output_adapter@D@__crt_stdio_output@@V?$positional_parameter_base@DV?$string_output_adapter@D@__crt_stdio_output@@@2@@1@AEAA_NXZ@@Z 00000001800581c0 f i libucrtd:output.obj
 0001:000571f0       ??$extract_argument_from_va_list@PEAUansi_string@?1??type_case_Z@?$output_processor@DV?$string_output_adapter@D@__crt_stdio_output@@V?$standard_base@DV?$string_output_adapter@D@__crt_stdio_output@@@2@@__crt_stdio_output@@AEAA_NXZ@PEAU1?1??234@AEAA_NXZ@@?$standard_base@DV?$string_output_adapter@D@__crt_stdio_output@@@__crt_stdio_output@@IEAA_NAEAPEAUansi_string@?1??type_case_Z@?$output_processor@DV?$string_output_adapter@D@__crt_stdio_output@@V?$standard_base@DV?$string_output_adapter@D@__crt_stdio_output@@@2@@1@AEAA_NXZ@@Z 00000001800581f0 f i libucrtd:output.obj
 0001:00057220       ??$extract_argument_from_va_list@PEAUansi_string@?1??type_case_Z@?$output_processor@_WV?$stream_output_adapter@_W@__crt_stdio_output@@V?$format_validation_base@_WV?$stream_output_adapter@_W@__crt_stdio_output@@@2@@__crt_stdio_output@@AEAA_NXZ@PEAU1?1??234@AEAA_NXZ@@?$standard_base@_WV?$stream_output_adapter@_W@__crt_stdio_output@@@__crt_stdio_output@@IEAA_NAEAPEAUansi_string@?1??type_case_Z@?$output_processor@_WV?$stream_output_adapter@_W@__crt_stdio_output@@V?$format_validation_base@_WV?$stream_output_adapter@_W@__crt_stdio_output@@@2@@1@AEAA_NXZ@@Z 0000000180058220 f i libucrtd:output.obj
 0001:00057250       ??$extract_argument_from_va_list@PEAUansi_string@?1??type_case_Z@?$output_processor@_WV?$stream_output_adapter@_W@__crt_stdio_output@@V?$positional_parameter_base@_WV?$stream_output_adapter@_W@__crt_stdio_output@@@2@@__crt_stdio_output@@AEAA_NXZ@PEAU1?1??234@AEAA_NXZ@@?$positional_parameter_base@_WV?$stream_output_adapter@_W@__crt_stdio_output@@@__crt_stdio_output@@IEAA_NAEAPEAUansi_string@?1??type_case_Z@?$output_processor@_WV?$stream_output_adapter@_W@__crt_stdio_output@@V?$positional_parameter_base@_WV?$stream_output_adapter@_W@__crt_stdio_output@@@2@@1@AEAA_NXZ@@Z 0000000180058250 f i libucrtd:output.obj
 0001:00057410       ??$extract_argument_from_va_list@PEAUansi_string@?1??type_case_Z@?$output_processor@_WV?$stream_output_adapter@_W@__crt_stdio_output@@V?$positional_parameter_base@_WV?$stream_output_adapter@_W@__crt_stdio_output@@@2@@__crt_stdio_output@@AEAA_NXZ@PEAU1?1??234@AEAA_NXZ@@?$standard_base@_WV?$stream_output_adapter@_W@__crt_stdio_output@@@__crt_stdio_output@@IEAA_NAEAPEAUansi_string@?1??type_case_Z@?$output_processor@_WV?$stream_output_adapter@_W@__crt_stdio_output@@V?$positional_parameter_base@_WV?$stream_output_adapter@_W@__crt_stdio_output@@@2@@1@AEAA_NXZ@@Z 0000000180058410 f i libucrtd:output.obj
 0001:00057440       ??$extract_argument_from_va_list@PEAUansi_string@?1??type_case_Z@?$output_processor@_WV?$stream_output_adapter@_W@__crt_stdio_output@@V?$standard_base@_WV?$stream_output_adapter@_W@__crt_stdio_output@@@2@@__crt_stdio_output@@AEAA_NXZ@PEAU1?1??234@AEAA_NXZ@@?$standard_base@_WV?$stream_output_adapter@_W@__crt_stdio_output@@@__crt_stdio_output@@IEAA_NAEAPEAUansi_string@?1??type_case_Z@?$output_processor@_WV?$stream_output_adapter@_W@__crt_stdio_output@@V?$standard_base@_WV?$stream_output_adapter@_W@__crt_stdio_output@@@2@@1@AEAA_NXZ@@Z 0000000180058440 f i libucrtd:output.obj
 0001:00057470       ??$extract_argument_from_va_list@PEAUansi_string@?1??type_case_Z@?$output_processor@_WV?$string_output_adapter@_W@__crt_stdio_output@@V?$format_validation_base@_WV?$string_output_adapter@_W@__crt_stdio_output@@@2@@__crt_stdio_output@@AEAA_NXZ@PEAU1?1??234@AEAA_NXZ@@?$standard_base@_WV?$string_output_adapter@_W@__crt_stdio_output@@@__crt_stdio_output@@IEAA_NAEAPEAUansi_string@?1??type_case_Z@?$output_processor@_WV?$string_output_adapter@_W@__crt_stdio_output@@V?$format_validation_base@_WV?$string_output_adapter@_W@__crt_stdio_output@@@2@@1@AEAA_NXZ@@Z 0000000180058470 f i libucrtd:output.obj
 0001:000574a0       ??$extract_argument_from_va_list@PEAUansi_string@?1??type_case_Z@?$output_processor@_WV?$string_output_adapter@_W@__crt_stdio_output@@V?$positional_parameter_base@_WV?$string_output_adapter@_W@__crt_stdio_output@@@2@@__crt_stdio_output@@AEAA_NXZ@PEAU1?1??234@AEAA_NXZ@@?$positional_parameter_base@_WV?$string_output_adapter@_W@__crt_stdio_output@@@__crt_stdio_output@@IEAA_NAEAPEAUansi_string@?1??type_case_Z@?$output_processor@_WV?$string_output_adapter@_W@__crt_stdio_output@@V?$positional_parameter_base@_WV?$string_output_adapter@_W@__crt_stdio_output@@@2@@1@AEAA_NXZ@@Z 00000001800584a0 f i libucrtd:output.obj
 0001:00057660       ??$extract_argument_from_va_list@PEAUansi_string@?1??type_case_Z@?$output_processor@_WV?$string_output_adapter@_W@__crt_stdio_output@@V?$positional_parameter_base@_WV?$string_output_adapter@_W@__crt_stdio_output@@@2@@__crt_stdio_output@@AEAA_NXZ@PEAU1?1??234@AEAA_NXZ@@?$standard_base@_WV?$string_output_adapter@_W@__crt_stdio_output@@@__crt_stdio_output@@IEAA_NAEAPEAUansi_string@?1??type_case_Z@?$output_processor@_WV?$string_output_adapter@_W@__crt_stdio_output@@V?$positional_parameter_base@_WV?$string_output_adapter@_W@__crt_stdio_output@@@2@@1@AEAA_NXZ@@Z 0000000180058660 f i libucrtd:output.obj
 0001:00057690       ??$extract_argument_from_va_list@PEAUansi_string@?1??type_case_Z@?$output_processor@_WV?$string_output_adapter@_W@__crt_stdio_output@@V?$standard_base@_WV?$string_output_adapter@_W@__crt_stdio_output@@@2@@__crt_stdio_output@@AEAA_NXZ@PEAU1?1??234@AEAA_NXZ@@?$standard_base@_WV?$string_output_adapter@_W@__crt_stdio_output@@@__crt_stdio_output@@IEAA_NAEAPEAUansi_string@?1??type_case_Z@?$output_processor@_WV?$string_output_adapter@_W@__crt_stdio_output@@V?$standard_base@_WV?$string_output_adapter@_W@__crt_stdio_output@@@2@@1@AEAA_NXZ@@Z 0000000180058690 f i libucrtd:output.obj
 0001:000576c0       ??$extract_argument_from_va_list@PEAXPEAX@?$positional_parameter_base@DV?$stream_output_adapter@D@__crt_stdio_output@@@__crt_stdio_output@@IEAA_NAEAPEAX@Z 00000001800586c0 f i libucrtd:output.obj
 0001:00057880       ??$extract_argument_from_va_list@PEAXPEAX@?$positional_parameter_base@DV?$string_output_adapter@D@__crt_stdio_output@@@__crt_stdio_output@@IEAA_NAEAPEAX@Z 0000000180058880 f i libucrtd:output.obj
 0001:00057a40       ??$extract_argument_from_va_list@PEAXPEAX@?$positional_parameter_base@_WV?$stream_output_adapter@_W@__crt_stdio_output@@@__crt_stdio_output@@IEAA_NAEAPEAX@Z 0000000180058a40 f i libucrtd:output.obj
 0001:00057c00       ??$extract_argument_from_va_list@PEAXPEAX@?$positional_parameter_base@_WV?$string_output_adapter@_W@__crt_stdio_output@@@__crt_stdio_output@@IEAA_NAEAPEAX@Z 0000000180058c00 f i libucrtd:output.obj
 0001:00057dc0       ??$extract_argument_from_va_list@PEAXPEAX@?$standard_base@DV?$stream_output_adapter@D@__crt_stdio_output@@@__crt_stdio_output@@IEAA_NAEAPEAX@Z 0000000180058dc0 f i libucrtd:output.obj
 0001:00057df0       ??$extract_argument_from_va_list@PEAXPEAX@?$standard_base@DV?$string_output_adapter@D@__crt_stdio_output@@@__crt_stdio_output@@IEAA_NAEAPEAX@Z 0000000180058df0 f i libucrtd:output.obj
 0001:00057e20       ??$extract_argument_from_va_list@PEAXPEAX@?$standard_base@_WV?$stream_output_adapter@_W@__crt_stdio_output@@@__crt_stdio_output@@IEAA_NAEAPEAX@Z 0000000180058e20 f i libucrtd:output.obj
 0001:00057e50       ??$extract_argument_from_va_list@PEAXPEAX@?$standard_base@_WV?$string_output_adapter@_W@__crt_stdio_output@@@__crt_stdio_output@@IEAA_NAEAPEAX@Z 0000000180058e50 f i libucrtd:output.obj
 0001:00057e80       ??$extract_argument_from_va_list@U_CRT_DOUBLE@@U1@@?$positional_parameter_base@DV?$stream_output_adapter@D@__crt_stdio_output@@@__crt_stdio_output@@IEAA_NAEAU_CRT_DOUBLE@@@Z 0000000180058e80 f i libucrtd:output.obj
 0001:000580a0       ??$extract_argument_from_va_list@U_CRT_DOUBLE@@U1@@?$positional_parameter_base@DV?$string_output_adapter@D@__crt_stdio_output@@@__crt_stdio_output@@IEAA_NAEAU_CRT_DOUBLE@@@Z 00000001800590a0 f i libucrtd:output.obj
 0001:000582c0       ??$extract_argument_from_va_list@U_CRT_DOUBLE@@U1@@?$positional_parameter_base@_WV?$stream_output_adapter@_W@__crt_stdio_output@@@__crt_stdio_output@@IEAA_NAEAU_CRT_DOUBLE@@@Z 00000001800592c0 f i libucrtd:output.obj
 0001:000584e0       ??$extract_argument_from_va_list@U_CRT_DOUBLE@@U1@@?$positional_parameter_base@_WV?$string_output_adapter@_W@__crt_stdio_output@@@__crt_stdio_output@@IEAA_NAEAU_CRT_DOUBLE@@@Z 00000001800594e0 f i libucrtd:output.obj
 0001:00058700       ??$extract_argument_from_va_list@U_CRT_DOUBLE@@U1@@?$standard_base@DV?$stream_output_adapter@D@__crt_stdio_output@@@__crt_stdio_output@@IEAA_NAEAU_CRT_DOUBLE@@@Z 0000000180059700 f i libucrtd:output.obj
 0001:00058750       ??$extract_argument_from_va_list@U_CRT_DOUBLE@@U1@@?$standard_base@DV?$string_output_adapter@D@__crt_stdio_output@@@__crt_stdio_output@@IEAA_NAEAU_CRT_DOUBLE@@@Z 0000000180059750 f i libucrtd:output.obj
 0001:000587a0       ??$extract_argument_from_va_list@U_CRT_DOUBLE@@U1@@?$standard_base@_WV?$stream_output_adapter@_W@__crt_stdio_output@@@__crt_stdio_output@@IEAA_NAEAU_CRT_DOUBLE@@@Z 00000001800597a0 f i libucrtd:output.obj
 0001:000587f0       ??$extract_argument_from_va_list@U_CRT_DOUBLE@@U1@@?$standard_base@_WV?$string_output_adapter@_W@__crt_stdio_output@@@__crt_stdio_output@@IEAA_NAEAU_CRT_DOUBLE@@@Z 00000001800597f0 f i libucrtd:output.obj
 0001:00058840       ??$extract_argument_from_va_list@_J_J@?$positional_parameter_base@DV?$stream_output_adapter@D@__crt_stdio_output@@@__crt_stdio_output@@IEAA_NAEA_J@Z 0000000180059840 f i libucrtd:output.obj
 0001:00058a00       ??$extract_argument_from_va_list@_J_J@?$positional_parameter_base@DV?$string_output_adapter@D@__crt_stdio_output@@@__crt_stdio_output@@IEAA_NAEA_J@Z 0000000180059a00 f i libucrtd:output.obj
 0001:00058bc0       ??$extract_argument_from_va_list@_J_J@?$positional_parameter_base@_WV?$stream_output_adapter@_W@__crt_stdio_output@@@__crt_stdio_output@@IEAA_NAEA_J@Z 0000000180059bc0 f i libucrtd:output.obj
 0001:00058d80       ??$extract_argument_from_va_list@_J_J@?$positional_parameter_base@_WV?$string_output_adapter@_W@__crt_stdio_output@@@__crt_stdio_output@@IEAA_NAEA_J@Z 0000000180059d80 f i libucrtd:output.obj
 0001:00058f40       ??$extract_argument_from_va_list@_J_J@?$standard_base@DV?$stream_output_adapter@D@__crt_stdio_output@@@__crt_stdio_output@@IEAA_NAEA_J@Z 0000000180059f40 f i libucrtd:output.obj
 0001:00058f70       ??$extract_argument_from_va_list@_J_J@?$standard_base@DV?$string_output_adapter@D@__crt_stdio_output@@@__crt_stdio_output@@IEAA_NAEA_J@Z 0000000180059f70 f i libucrtd:output.obj
 0001:00058fa0       ??$extract_argument_from_va_list@_J_J@?$standard_base@_WV?$stream_output_adapter@_W@__crt_stdio_output@@@__crt_stdio_output@@IEAA_NAEA_J@Z 0000000180059fa0 f i libucrtd:output.obj
 0001:00058fd0       ??$extract_argument_from_va_list@_J_J@?$standard_base@_WV?$string_output_adapter@_W@__crt_stdio_output@@@__crt_stdio_output@@IEAA_NAEA_J@Z 0000000180059fd0 f i libucrtd:output.obj
 0001:00059000       ??$extract_argument_from_va_list@_K_J@?$positional_parameter_base@DV?$stream_output_adapter@D@__crt_stdio_output@@@__crt_stdio_output@@IEAA_NAEA_J@Z 000000018005a000 f i libucrtd:output.obj
 0001:000591c0       ??$extract_argument_from_va_list@_K_J@?$positional_parameter_base@DV?$string_output_adapter@D@__crt_stdio_output@@@__crt_stdio_output@@IEAA_NAEA_J@Z 000000018005a1c0 f i libucrtd:output.obj
 0001:00059380       ??$extract_argument_from_va_list@_K_J@?$positional_parameter_base@_WV?$stream_output_adapter@_W@__crt_stdio_output@@@__crt_stdio_output@@IEAA_NAEA_J@Z 000000018005a380 f i libucrtd:output.obj
 0001:00059540       ??$extract_argument_from_va_list@_K_J@?$positional_parameter_base@_WV?$string_output_adapter@_W@__crt_stdio_output@@@__crt_stdio_output@@IEAA_NAEA_J@Z 000000018005a540 f i libucrtd:output.obj
 0001:00059700       ??$extract_argument_from_va_list@_K_J@?$standard_base@DV?$stream_output_adapter@D@__crt_stdio_output@@@__crt_stdio_output@@IEAA_NAEA_J@Z 000000018005a700 f i libucrtd:output.obj
 0001:00059730       ??$extract_argument_from_va_list@_K_J@?$standard_base@DV?$string_output_adapter@D@__crt_stdio_output@@@__crt_stdio_output@@IEAA_NAEA_J@Z 000000018005a730 f i libucrtd:output.obj
 0001:00059760       ??$extract_argument_from_va_list@_K_J@?$standard_base@_WV?$stream_output_adapter@_W@__crt_stdio_output@@@__crt_stdio_output@@IEAA_NAEA_J@Z 000000018005a760 f i libucrtd:output.obj
 0001:00059790       ??$extract_argument_from_va_list@_K_J@?$standard_base@_WV?$string_output_adapter@_W@__crt_stdio_output@@@__crt_stdio_output@@IEAA_NAEA_J@Z 000000018005a790 f i libucrtd:output.obj
 0001:000597c0       ??$extract_argument_from_va_list@_W_W@?$positional_parameter_base@DV?$stream_output_adapter@D@__crt_stdio_output@@@__crt_stdio_output@@IEAA_NAEA_W@Z 000000018005a7c0 f i libucrtd:output.obj
 0001:00059980       ??$extract_argument_from_va_list@_W_W@?$positional_parameter_base@DV?$string_output_adapter@D@__crt_stdio_output@@@__crt_stdio_output@@IEAA_NAEA_W@Z 000000018005a980 f i libucrtd:output.obj
 0001:00059b40       ??$extract_argument_from_va_list@_W_W@?$positional_parameter_base@_WV?$stream_output_adapter@_W@__crt_stdio_output@@@__crt_stdio_output@@IEAA_NAEA_W@Z 000000018005ab40 f i libucrtd:output.obj
 0001:00059d00       ??$extract_argument_from_va_list@_W_W@?$positional_parameter_base@_WV?$string_output_adapter@_W@__crt_stdio_output@@@__crt_stdio_output@@IEAA_NAEA_W@Z 000000018005ad00 f i libucrtd:output.obj
 0001:00059ec0       ??$extract_argument_from_va_list@_W_W@?$standard_base@DV?$stream_output_adapter@D@__crt_stdio_output@@@__crt_stdio_output@@IEAA_NAEA_W@Z 000000018005aec0 f i libucrtd:output.obj
 0001:00059ef0       ??$extract_argument_from_va_list@_W_W@?$standard_base@DV?$string_output_adapter@D@__crt_stdio_output@@@__crt_stdio_output@@IEAA_NAEA_W@Z 000000018005aef0 f i libucrtd:output.obj
 0001:00059f20       ??$extract_argument_from_va_list@_W_W@?$standard_base@_WV?$stream_output_adapter@_W@__crt_stdio_output@@@__crt_stdio_output@@IEAA_NAEA_W@Z 000000018005af20 f i libucrtd:output.obj
 0001:00059f50       ??$extract_argument_from_va_list@_W_W@?$standard_base@_WV?$string_output_adapter@_W@__crt_stdio_output@@@__crt_stdio_output@@IEAA_NAEA_W@Z 000000018005af50 f i libucrtd:output.obj
 0001:00059f80       ??$get_parameter_type@D@?$positional_parameter_base@DV?$stream_output_adapter@D@__crt_stdio_output@@@__crt_stdio_output@@CA?AW4parameter_type@01@PEAD@Z 000000018005af80 f i libucrtd:output.obj
 0001:00059f90       ??$get_parameter_type@D@?$positional_parameter_base@DV?$string_output_adapter@D@__crt_stdio_output@@@__crt_stdio_output@@CA?AW4parameter_type@01@PEAD@Z 000000018005af90 f i libucrtd:output.obj
 0001:00059fa0       ??$get_parameter_type@D@?$positional_parameter_base@_WV?$stream_output_adapter@_W@__crt_stdio_output@@@__crt_stdio_output@@CA?AW4parameter_type@01@PEAD@Z 000000018005afa0 f i libucrtd:output.obj
 0001:00059fb0       ??$get_parameter_type@D@?$positional_parameter_base@_WV?$string_output_adapter@_W@__crt_stdio_output@@@__crt_stdio_output@@CA?AW4parameter_type@01@PEAD@Z 000000018005afb0 f i libucrtd:output.obj
 0001:00059fc0       ??$get_parameter_type@Uansi_string@?1??type_case_Z@?$output_processor@DV?$stream_output_adapter@D@__crt_stdio_output@@V?$positional_parameter_base@DV?$stream_output_adapter@D@__crt_stdio_output@@@2@@__crt_stdio_output@@AEAA_NXZ@@?$positional_parameter_base@DV?$stream_output_adapter@D@__crt_stdio_output@@@__crt_stdio_output@@CA?AW4parameter_type@01@PEAUansi_string@?1??type_case_Z@?$output_processor@DV?$stream_output_adapter@D@__crt_stdio_output@@V?$positional_parameter_base@DV?$stream_output_adapter@D@__crt_stdio_output@@@2@@1@AEAA_NXZ@@Z 000000018005afc0 f i libucrtd:output.obj
 0001:00059fd0       ??$get_parameter_type@Uansi_string@?1??type_case_Z@?$output_processor@DV?$string_output_adapter@D@__crt_stdio_output@@V?$positional_parameter_base@DV?$string_output_adapter@D@__crt_stdio_output@@@2@@__crt_stdio_output@@AEAA_NXZ@@?$positional_parameter_base@DV?$string_output_adapter@D@__crt_stdio_output@@@__crt_stdio_output@@CA?AW4parameter_type@01@PEAUansi_string@?1??type_case_Z@?$output_processor@DV?$string_output_adapter@D@__crt_stdio_output@@V?$positional_parameter_base@DV?$string_output_adapter@D@__crt_stdio_output@@@2@@1@AEAA_NXZ@@Z 000000018005afd0 f i libucrtd:output.obj
 0001:00059fe0       ??$get_parameter_type@Uansi_string@?1??type_case_Z@?$output_processor@_WV?$stream_output_adapter@_W@__crt_stdio_output@@V?$positional_parameter_base@_WV?$stream_output_adapter@_W@__crt_stdio_output@@@2@@__crt_stdio_output@@AEAA_NXZ@@?$positional_parameter_base@_WV?$stream_output_adapter@_W@__crt_stdio_output@@@__crt_stdio_output@@CA?AW4parameter_type@01@PEAUansi_string@?1??type_case_Z@?$output_processor@_WV?$stream_output_adapter@_W@__crt_stdio_output@@V?$positional_parameter_base@_WV?$stream_output_adapter@_W@__crt_stdio_output@@@2@@1@AEAA_NXZ@@Z 000000018005afe0 f i libucrtd:output.obj
 0001:00059ff0       ??$get_parameter_type@Uansi_string@?1??type_case_Z@?$output_processor@_WV?$string_output_adapter@_W@__crt_stdio_output@@V?$positional_parameter_base@_WV?$string_output_adapter@_W@__crt_stdio_output@@@2@@__crt_stdio_output@@AEAA_NXZ@@?$positional_parameter_base@_WV?$string_output_adapter@_W@__crt_stdio_output@@@__crt_stdio_output@@CA?AW4parameter_type@01@PEAUansi_string@?1??type_case_Z@?$output_processor@_WV?$string_output_adapter@_W@__crt_stdio_output@@V?$positional_parameter_base@_WV?$string_output_adapter@_W@__crt_stdio_output@@@2@@1@AEAA_NXZ@@Z 000000018005aff0 f i libucrtd:output.obj
 0001:0005a000       ??$get_parameter_type@X@?$positional_parameter_base@DV?$stream_output_adapter@D@__crt_stdio_output@@@__crt_stdio_output@@CA?AW4parameter_type@01@PEAX@Z 000000018005b000 f i libucrtd:output.obj
 0001:0005a010       ??$get_parameter_type@X@?$positional_parameter_base@DV?$string_output_adapter@D@__crt_stdio_output@@@__crt_stdio_output@@CA?AW4parameter_type@01@PEAX@Z 000000018005b010 f i libucrtd:output.obj
 0001:0005a020       ??$get_parameter_type@X@?$positional_parameter_base@_WV?$stream_output_adapter@_W@__crt_stdio_output@@@__crt_stdio_output@@CA?AW4parameter_type@01@PEAX@Z 000000018005b020 f i libucrtd:output.obj
 0001:0005a030       ??$get_parameter_type@X@?$positional_parameter_base@_WV?$string_output_adapter@_W@__crt_stdio_output@@@__crt_stdio_output@@CA?AW4parameter_type@01@PEAX@Z 000000018005b030 f i libucrtd:output.obj
 0001:0005a040       ??$is_character_specifier@D@?$positional_parameter_base@DV?$stream_output_adapter@D@__crt_stdio_output@@@__crt_stdio_output@@CA_ND@Z 000000018005b040 f i libucrtd:output.obj
 0001:0005a080       ??$is_character_specifier@D@?$positional_parameter_base@DV?$string_output_adapter@D@__crt_stdio_output@@@__crt_stdio_output@@CA_ND@Z 000000018005b080 f i libucrtd:output.obj
 0001:0005a0c0       ??$is_character_specifier@_W@?$positional_parameter_base@_WV?$stream_output_adapter@_W@__crt_stdio_output@@@__crt_stdio_output@@CA_N_W@Z 000000018005b0c0 f i libucrtd:output.obj
 0001:0005a100       ??$is_character_specifier@_W@?$positional_parameter_base@_WV?$string_output_adapter@_W@__crt_stdio_output@@@__crt_stdio_output@@CA_N_W@Z 000000018005b100 f i libucrtd:output.obj
 0001:0005a140       ??$is_integral_specifier@D@?$positional_parameter_base@DV?$stream_output_adapter@D@__crt_stdio_output@@@__crt_stdio_output@@CA_ND@Z 000000018005b140 f i libucrtd:output.obj
 0001:0005a1b0       ??$is_integral_specifier@D@?$positional_parameter_base@DV?$string_output_adapter@D@__crt_stdio_output@@@__crt_stdio_output@@CA_ND@Z 000000018005b1b0 f i libucrtd:output.obj
 0001:0005a220       ??$is_integral_specifier@_W@?$positional_parameter_base@_WV?$stream_output_adapter@_W@__crt_stdio_output@@@__crt_stdio_output@@CA_N_W@Z 000000018005b220 f i libucrtd:output.obj
 0001:0005a290       ??$is_integral_specifier@_W@?$positional_parameter_base@_WV?$string_output_adapter@_W@__crt_stdio_output@@@__crt_stdio_output@@CA_N_W@Z 000000018005b290 f i libucrtd:output.obj
 0001:0005a300       ??$is_overflow_condition@K@__crt_strtox@@YA_NIK@Z 000000018005b300 f i libucrtd:output.obj
 0001:0005a370       ??$is_pointer_specifier@D@?$positional_parameter_base@DV?$stream_output_adapter@D@__crt_stdio_output@@@__crt_stdio_output@@CA_ND@Z 000000018005b370 f i libucrtd:output.obj
 0001:0005a3a0       ??$is_pointer_specifier@D@?$positional_parameter_base@DV?$string_output_adapter@D@__crt_stdio_output@@@__crt_stdio_output@@CA_ND@Z 000000018005b3a0 f i libucrtd:output.obj
 0001:0005a3d0       ??$is_pointer_specifier@_W@?$positional_parameter_base@_WV?$stream_output_adapter@_W@__crt_stdio_output@@@__crt_stdio_output@@CA_N_W@Z 000000018005b3d0 f i libucrtd:output.obj
 0001:0005a400       ??$is_pointer_specifier@_W@?$positional_parameter_base@_WV?$string_output_adapter@_W@__crt_stdio_output@@@__crt_stdio_output@@CA_N_W@Z 000000018005b400 f i libucrtd:output.obj
 0001:0005a430       ??$is_string_specifier@D@?$positional_parameter_base@DV?$stream_output_adapter@D@__crt_stdio_output@@@__crt_stdio_output@@CA_ND@Z 000000018005b430 f i libucrtd:output.obj
 0001:0005a470       ??$is_string_specifier@D@?$positional_parameter_base@DV?$string_output_adapter@D@__crt_stdio_output@@@__crt_stdio_output@@CA_ND@Z 000000018005b470 f i libucrtd:output.obj
 0001:0005a4b0       ??$is_string_specifier@_W@?$positional_parameter_base@_WV?$stream_output_adapter@_W@__crt_stdio_output@@@__crt_stdio_output@@CA_N_W@Z 000000018005b4b0 f i libucrtd:output.obj
 0001:0005a4f0       ??$is_string_specifier@_W@?$positional_parameter_base@_WV?$string_output_adapter@_W@__crt_stdio_output@@@__crt_stdio_output@@CA_N_W@Z 000000018005b4f0 f i libucrtd:output.obj
 0001:0005a530       ??$is_wide_character_specifier@D@__crt_stdio_output@@YA_N_KDW4length_modifier@0@@Z 000000018005b530 f i libucrtd:output.obj
 0001:0005a5d0       ??$is_wide_character_specifier@_W@__crt_stdio_output@@YA_N_K_WW4length_modifier@0@@Z 000000018005b5d0 f i libucrtd:output.obj
 0001:0005a6a0       ??$make_c_string_character_source@DPEAPEAD@__crt_strtox@@YA?AV?$c_string_character_source@D@0@QEBDQEAPEAD@Z 000000018005b6a0 f i libucrtd:output.obj
 0001:0005a6e0       ??$make_c_string_character_source@_WPEAPEA_W@__crt_strtox@@YA?AV?$c_string_character_source@_W@0@QEB_WQEAPEA_W@Z 000000018005b6e0 f i libucrtd:output.obj
 0001:0005a720       ??$parse_integer@KV?$c_string_character_source@D@__crt_strtox@@$0A@@__crt_strtox@@YAKAEAV__crt_cached_ptd_host@@V?$c_string_character_source@D@0@H_N@Z 000000018005b720 f i libucrtd:output.obj
 0001:0005aba0       ??$parse_integer@KV?$c_string_character_source@_W@__crt_strtox@@$0A@@__crt_strtox@@YAKAEAV__crt_cached_ptd_host@@V?$c_string_character_source@_W@0@H_N@Z 000000018005bba0 f i libucrtd:output.obj
 0001:0005b020       ??$peek_va_arg@C@__crt_stdio_output@@YACPEAD@Z 000000018005c020 f i libucrtd:output.obj
 0001:0005b080       ??$peek_va_arg@E@__crt_stdio_output@@YAEPEAD@Z 000000018005c080 f i libucrtd:output.obj
 0001:0005b0e0       ??$peek_va_arg@F@__crt_stdio_output@@YAFPEAD@Z 000000018005c0e0 f i libucrtd:output.obj
 0001:0005b140       ??$peek_va_arg@G@__crt_stdio_output@@YAGPEAD@Z 000000018005c140 f i libucrtd:output.obj
 0001:0005b1a0       ??$peek_va_arg@H@__crt_stdio_output@@YAHPEAD@Z 000000018005c1a0 f i libucrtd:output.obj
 0001:0005b1f0       ??$peek_va_arg@I@__crt_stdio_output@@YAIPEAD@Z 000000018005c1f0 f i libucrtd:output.obj
 0001:0005b240       ??$peek_va_arg@PEAD@__crt_stdio_output@@YAPEADPEAD@Z 000000018005c240 f i libucrtd:output.obj
 0001:0005b2a0       ??$peek_va_arg@PEAUansi_string@?1??type_case_Z@?$output_processor@DV?$stream_output_adapter@D@__crt_stdio_output@@V?$positional_parameter_base@DV?$stream_output_adapter@D@__crt_stdio_output@@@2@@__crt_stdio_output@@AEAA_NXZ@@__crt_stdio_output@@YAPEAUansi_string@?1??type_case_Z@?$output_processor@DV?$stream_output_adapter@D@__crt_stdio_output@@V?$positional_parameter_base@DV?$stream_output_adapter@D@__crt_stdio_output@@@2@@0@AEAA_NXZ@PEAD@Z 000000018005c2a0 f i libucrtd:output.obj
 0001:0005b300       ??$peek_va_arg@PEAUansi_string@?1??type_case_Z@?$output_processor@DV?$string_output_adapter@D@__crt_stdio_output@@V?$positional_parameter_base@DV?$string_output_adapter@D@__crt_stdio_output@@@2@@__crt_stdio_output@@AEAA_NXZ@@__crt_stdio_output@@YAPEAUansi_string@?1??type_case_Z@?$output_processor@DV?$string_output_adapter@D@__crt_stdio_output@@V?$positional_parameter_base@DV?$string_output_adapter@D@__crt_stdio_output@@@2@@0@AEAA_NXZ@PEAD@Z 000000018005c300 f i libucrtd:output.obj
 0001:0005b360       ??$peek_va_arg@PEAUansi_string@?1??type_case_Z@?$output_processor@_WV?$stream_output_adapter@_W@__crt_stdio_output@@V?$positional_parameter_base@_WV?$stream_output_adapter@_W@__crt_stdio_output@@@2@@__crt_stdio_output@@AEAA_NXZ@@__crt_stdio_output@@YAPEAUansi_string@?1??type_case_Z@?$output_processor@_WV?$stream_output_adapter@_W@__crt_stdio_output@@V?$positional_parameter_base@_WV?$stream_output_adapter@_W@__crt_stdio_output@@@2@@0@AEAA_NXZ@PEAD@Z 000000018005c360 f i libucrtd:output.obj
 0001:0005b3c0       ??$peek_va_arg@PEAUansi_string@?1??type_case_Z@?$output_processor@_WV?$string_output_adapter@_W@__crt_stdio_output@@V?$positional_parameter_base@_WV?$string_output_adapter@_W@__crt_stdio_output@@@2@@__crt_stdio_output@@AEAA_NXZ@@__crt_stdio_output@@YAPEAUansi_string@?1??type_case_Z@?$output_processor@_WV?$string_output_adapter@_W@__crt_stdio_output@@V?$positional_parameter_base@_WV?$string_output_adapter@_W@__crt_stdio_output@@@2@@0@AEAA_NXZ@PEAD@Z 000000018005c3c0 f i libucrtd:output.obj
 0001:0005b420       ??$peek_va_arg@PEAX@__crt_stdio_output@@YAPEAXPEAD@Z 000000018005c420 f i libucrtd:output.obj
 0001:0005b480       ??$peek_va_arg@U_CRT_DOUBLE@@@__crt_stdio_output@@YA?AU_CRT_DOUBLE@@PEAD@Z 000000018005c480 f i libucrtd:output.obj
 0001:0005b4e0       ??$peek_va_arg@_J@__crt_stdio_output@@YA_JPEAD@Z 000000018005c4e0 f i libucrtd:output.obj
 0001:0005b540       ??$peek_va_arg@_K@__crt_stdio_output@@YA_KPEAD@Z 000000018005c540 f i libucrtd:output.obj
 0001:0005b5a0       ??$peek_va_arg@_W@__crt_stdio_output@@YA_WPEAD@Z 000000018005c5a0 f i libucrtd:output.obj
 0001:0005b600       ??$puttc_nolock_internal@AEBDPEAU_iobuf@@AEAV__crt_cached_ptd_host@@@?$__crt_char_traits@D@@SAHAEBD$$QEAPEAU_iobuf@@AEAV__crt_cached_ptd_host@@@Z 000000018005c600 f i libucrtd:output.obj
 0001:0005b640       ??$puttc_nolock_internal@AEB_WPEAU_iobuf@@AEAV__crt_cached_ptd_host@@@?$__crt_char_traits@_W@@SAGAEB_W$$QEAPEAU_iobuf@@AEAV__crt_cached_ptd_host@@@Z 000000018005c640 f i libucrtd:output.obj
 0001:0005b680       ??$read_va_arg@C@__crt_stdio_output@@YACAEAPEAD@Z 000000018005c680 f i libucrtd:output.obj
 0001:0005b6f0       ??$read_va_arg@E@__crt_stdio_output@@YAEAEAPEAD@Z 000000018005c6f0 f i libucrtd:output.obj
 0001:0005b760       ??$read_va_arg@F@__crt_stdio_output@@YAFAEAPEAD@Z 000000018005c760 f i libucrtd:output.obj
 0001:0005b7d0       ??$read_va_arg@G@__crt_stdio_output@@YAGAEAPEAD@Z 000000018005c7d0 f i libucrtd:output.obj
 0001:0005b840       ??$read_va_arg@H@__crt_stdio_output@@YAHAEAPEAD@Z 000000018005c840 f i libucrtd:output.obj
 0001:0005b8a0       ??$read_va_arg@I@__crt_stdio_output@@YAIAEAPEAD@Z 000000018005c8a0 f i libucrtd:output.obj
 0001:0005b900       ??$read_va_arg@PEAD@__crt_stdio_output@@YAPEADAEAPEAD@Z 000000018005c900 f i libucrtd:output.obj
 0001:0005b970       ??$read_va_arg@PEAUansi_string@?1??type_case_Z@?$output_processor@DV?$stream_output_adapter@D@__crt_stdio_output@@V?$format_validation_base@DV?$stream_output_adapter@D@__crt_stdio_output@@@2@@__crt_stdio_output@@AEAA_NXZ@@__crt_stdio_output@@YAPEAUansi_string@?1??type_case_Z@?$output_processor@DV?$stream_output_adapter@D@__crt_stdio_output@@V?$format_validation_base@DV?$stream_output_adapter@D@__crt_stdio_output@@@2@@0@AEAA_NXZ@AEAPEAD@Z 000000018005c970 f i libucrtd:output.obj
 0001:0005b9e0       ??$read_va_arg@PEAUansi_string@?1??type_case_Z@?$output_processor@DV?$stream_output_adapter@D@__crt_stdio_output@@V?$positional_parameter_base@DV?$stream_output_adapter@D@__crt_stdio_output@@@2@@__crt_stdio_output@@AEAA_NXZ@@__crt_stdio_output@@YAPEAUansi_string@?1??type_case_Z@?$output_processor@DV?$stream_output_adapter@D@__crt_stdio_output@@V?$positional_parameter_base@DV?$stream_output_adapter@D@__crt_stdio_output@@@2@@0@AEAA_NXZ@AEAPEAD@Z 000000018005c9e0 f i libucrtd:output.obj
 0001:0005ba50       ??$read_va_arg@PEAUansi_string@?1??type_case_Z@?$output_processor@DV?$stream_output_adapter@D@__crt_stdio_output@@V?$standard_base@DV?$stream_output_adapter@D@__crt_stdio_output@@@2@@__crt_stdio_output@@AEAA_NXZ@@__crt_stdio_output@@YAPEAUansi_string@?1??type_case_Z@?$output_processor@DV?$stream_output_adapter@D@__crt_stdio_output@@V?$standard_base@DV?$stream_output_adapter@D@__crt_stdio_output@@@2@@0@AEAA_NXZ@AEAPEAD@Z 000000018005ca50 f i libucrtd:output.obj
 0001:0005bac0       ??$read_va_arg@PEAUansi_string@?1??type_case_Z@?$output_processor@DV?$string_output_adapter@D@__crt_stdio_output@@V?$format_validation_base@DV?$string_output_adapter@D@__crt_stdio_output@@@2@@__crt_stdio_output@@AEAA_NXZ@@__crt_stdio_output@@YAPEAUansi_string@?1??type_case_Z@?$output_processor@DV?$string_output_adapter@D@__crt_stdio_output@@V?$format_validation_base@DV?$string_output_adapter@D@__crt_stdio_output@@@2@@0@AEAA_NXZ@AEAPEAD@Z 000000018005cac0 f i libucrtd:output.obj
 0001:0005bb30       ??$read_va_arg@PEAUansi_string@?1??type_case_Z@?$output_processor@DV?$string_output_adapter@D@__crt_stdio_output@@V?$positional_parameter_base@DV?$string_output_adapter@D@__crt_stdio_output@@@2@@__crt_stdio_output@@AEAA_NXZ@@__crt_stdio_output@@YAPEAUansi_string@?1??type_case_Z@?$output_processor@DV?$string_output_adapter@D@__crt_stdio_output@@V?$positional_parameter_base@DV?$string_output_adapter@D@__crt_stdio_output@@@2@@0@AEAA_NXZ@AEAPEAD@Z 000000018005cb30 f i libucrtd:output.obj
 0001:0005bba0       ??$read_va_arg@PEAUansi_string@?1??type_case_Z@?$output_processor@DV?$string_output_adapter@D@__crt_stdio_output@@V?$standard_base@DV?$string_output_adapter@D@__crt_stdio_output@@@2@@__crt_stdio_output@@AEAA_NXZ@@__crt_stdio_output@@YAPEAUansi_string@?1??type_case_Z@?$output_processor@DV?$string_output_adapter@D@__crt_stdio_output@@V?$standard_base@DV?$string_output_adapter@D@__crt_stdio_output@@@2@@0@AEAA_NXZ@AEAPEAD@Z 000000018005cba0 f i libucrtd:output.obj
 0001:0005bc10       ??$read_va_arg@PEAUansi_string@?1??type_case_Z@?$output_processor@_WV?$stream_output_adapter@_W@__crt_stdio_output@@V?$format_validation_base@_WV?$stream_output_adapter@_W@__crt_stdio_output@@@2@@__crt_stdio_output@@AEAA_NXZ@@__crt_stdio_output@@YAPEAUansi_string@?1??type_case_Z@?$output_processor@_WV?$stream_output_adapter@_W@__crt_stdio_output@@V?$format_validation_base@_WV?$stream_output_adapter@_W@__crt_stdio_output@@@2@@0@AEAA_NXZ@AEAPEAD@Z 000000018005cc10 f i libucrtd:output.obj
 0001:0005bc80       ??$read_va_arg@PEAUansi_string@?1??type_case_Z@?$output_processor@_WV?$stream_output_adapter@_W@__crt_stdio_output@@V?$positional_parameter_base@_WV?$stream_output_adapter@_W@__crt_stdio_output@@@2@@__crt_stdio_output@@AEAA_NXZ@@__crt_stdio_output@@YAPEAUansi_string@?1??type_case_Z@?$output_processor@_WV?$stream_output_adapter@_W@__crt_stdio_output@@V?$positional_parameter_base@_WV?$stream_output_adapter@_W@__crt_stdio_output@@@2@@0@AEAA_NXZ@AEAPEAD@Z 000000018005cc80 f i libucrtd:output.obj
 0001:0005bcf0       ??$read_va_arg@PEAUansi_string@?1??type_case_Z@?$output_processor@_WV?$stream_output_adapter@_W@__crt_stdio_output@@V?$standard_base@_WV?$stream_output_adapter@_W@__crt_stdio_output@@@2@@__crt_stdio_output@@AEAA_NXZ@@__crt_stdio_output@@YAPEAUansi_string@?1??type_case_Z@?$output_processor@_WV?$stream_output_adapter@_W@__crt_stdio_output@@V?$standard_base@_WV?$stream_output_adapter@_W@__crt_stdio_output@@@2@@0@AEAA_NXZ@AEAPEAD@Z 000000018005ccf0 f i libucrtd:output.obj
 0001:0005bd60       ??$read_va_arg@PEAUansi_string@?1??type_case_Z@?$output_processor@_WV?$string_output_adapter@_W@__crt_stdio_output@@V?$format_validation_base@_WV?$string_output_adapter@_W@__crt_stdio_output@@@2@@__crt_stdio_output@@AEAA_NXZ@@__crt_stdio_output@@YAPEAUansi_string@?1??type_case_Z@?$output_processor@_WV?$string_output_adapter@_W@__crt_stdio_output@@V?$format_validation_base@_WV?$string_output_adapter@_W@__crt_stdio_output@@@2@@0@AEAA_NXZ@AEAPEAD@Z 000000018005cd60 f i libucrtd:output.obj
 0001:0005bdd0       ??$read_va_arg@PEAUansi_string@?1??type_case_Z@?$output_processor@_WV?$string_output_adapter@_W@__crt_stdio_output@@V?$positional_parameter_base@_WV?$string_output_adapter@_W@__crt_stdio_output@@@2@@__crt_stdio_output@@AEAA_NXZ@@__crt_stdio_output@@YAPEAUansi_string@?1??type_case_Z@?$output_processor@_WV?$string_output_adapter@_W@__crt_stdio_output@@V?$positional_parameter_base@_WV?$string_output_adapter@_W@__crt_stdio_output@@@2@@0@AEAA_NXZ@AEAPEAD@Z 000000018005cdd0 f i libucrtd:output.obj
 0001:0005be40       ??$read_va_arg@PEAUansi_string@?1??type_case_Z@?$output_processor@_WV?$string_output_adapter@_W@__crt_stdio_output@@V?$standard_base@_WV?$string_output_adapter@_W@__crt_stdio_output@@@2@@__crt_stdio_output@@AEAA_NXZ@@__crt_stdio_output@@YAPEAUansi_string@?1??type_case_Z@?$output_processor@_WV?$string_output_adapter@_W@__crt_stdio_output@@V?$standard_base@_WV?$string_output_adapter@_W@__crt_stdio_output@@@2@@0@AEAA_NXZ@AEAPEAD@Z 000000018005ce40 f i libucrtd:output.obj
 0001:0005beb0       ??$read_va_arg@PEAX@__crt_stdio_output@@YAPEAXAEAPEAD@Z 000000018005ceb0 f i libucrtd:output.obj
 0001:0005bf20       ??$read_va_arg@U_CRT_DOUBLE@@@__crt_stdio_output@@YA?AU_CRT_DOUBLE@@AEAPEAD@Z 000000018005cf20 f i libucrtd:output.obj
 0001:0005bf90       ??$read_va_arg@_J@__crt_stdio_output@@YA_JAEAPEAD@Z 000000018005cf90 f i libucrtd:output.obj
 0001:0005c000       ??$read_va_arg@_K@__crt_stdio_output@@YA_KAEAPEAD@Z 000000018005d000 f i libucrtd:output.obj
 0001:0005c070       ??$read_va_arg@_W@__crt_stdio_output@@YA_WAEAPEAD@Z 000000018005d070 f i libucrtd:output.obj
 0001:0005c0e0       ??$scratch_count@D@formatting_buffer@__crt_stdio_output@@QEBA_KXZ 000000018005d0e0 f i libucrtd:output.obj
 0001:0005c100       ??$scratch_data@D@formatting_buffer@__crt_stdio_output@@QEAAPEADXZ 000000018005d100 f i libucrtd:output.obj
 0001:0005c170       ??$type_case_integer@$07@?$output_processor@DV?$stream_output_adapter@D@__crt_stdio_output@@V?$format_validation_base@DV?$stream_output_adapter@D@__crt_stdio_output@@@2@@__crt_stdio_output@@AEAA_N_N@Z 000000018005d170 f i libucrtd:output.obj
 0001:0005c5f0       ??$type_case_integer@$07@?$output_processor@DV?$stream_output_adapter@D@__crt_stdio_output@@V?$positional_parameter_base@DV?$stream_output_adapter@D@__crt_stdio_output@@@2@@__crt_stdio_output@@AEAA_N_N@Z 000000018005d5f0 f i libucrtd:output.obj
 0001:0005ca70       ??$type_case_integer@$07@?$output_processor@DV?$stream_output_adapter@D@__crt_stdio_output@@V?$standard_base@DV?$stream_output_adapter@D@__crt_stdio_output@@@2@@__crt_stdio_output@@AEAA_N_N@Z 000000018005da70 f i libucrtd:output.obj
 0001:0005cef0       ??$type_case_integer@$07@?$output_processor@DV?$string_output_adapter@D@__crt_stdio_output@@V?$format_validation_base@DV?$string_output_adapter@D@__crt_stdio_output@@@2@@__crt_stdio_output@@AEAA_N_N@Z 000000018005def0 f i libucrtd:output.obj
 0001:0005d370       ??$type_case_integer@$07@?$output_processor@DV?$string_output_adapter@D@__crt_stdio_output@@V?$positional_parameter_base@DV?$string_output_adapter@D@__crt_stdio_output@@@2@@__crt_stdio_output@@AEAA_N_N@Z 000000018005e370 f i libucrtd:output.obj
 0001:0005d7f0       ??$type_case_integer@$07@?$output_processor@DV?$string_output_adapter@D@__crt_stdio_output@@V?$standard_base@DV?$string_output_adapter@D@__crt_stdio_output@@@2@@__crt_stdio_output@@AEAA_N_N@Z 000000018005e7f0 f i libucrtd:output.obj
 0001:0005dc70       ??$type_case_integer@$07@?$output_processor@_WV?$stream_output_adapter@_W@__crt_stdio_output@@V?$format_validation_base@_WV?$stream_output_adapter@_W@__crt_stdio_output@@@2@@__crt_stdio_output@@AEAA_N_N@Z 000000018005ec70 f i libucrtd:output.obj
 0001:0005e0f0       ??$type_case_integer@$07@?$output_processor@_WV?$stream_output_adapter@_W@__crt_stdio_output@@V?$positional_parameter_base@_WV?$stream_output_adapter@_W@__crt_stdio_output@@@2@@__crt_stdio_output@@AEAA_N_N@Z 000000018005f0f0 f i libucrtd:output.obj
 0001:0005e570       ??$type_case_integer@$07@?$output_processor@_WV?$stream_output_adapter@_W@__crt_stdio_output@@V?$standard_base@_WV?$stream_output_adapter@_W@__crt_stdio_output@@@2@@__crt_stdio_output@@AEAA_N_N@Z 000000018005f570 f i libucrtd:output.obj
 0001:0005e9f0       ??$type_case_integer@$07@?$output_processor@_WV?$string_output_adapter@_W@__crt_stdio_output@@V?$format_validation_base@_WV?$string_output_adapter@_W@__crt_stdio_output@@@2@@__crt_stdio_output@@AEAA_N_N@Z 000000018005f9f0 f i libucrtd:output.obj
 0001:0005ee70       ??$type_case_integer@$07@?$output_processor@_WV?$string_output_adapter@_W@__crt_stdio_output@@V?$positional_parameter_base@_WV?$string_output_adapter@_W@__crt_stdio_output@@@2@@__crt_stdio_output@@AEAA_N_N@Z 000000018005fe70 f i libucrtd:output.obj
 0001:0005f2f0       ??$type_case_integer@$07@?$output_processor@_WV?$string_output_adapter@_W@__crt_stdio_output@@V?$standard_base@_WV?$string_output_adapter@_W@__crt_stdio_output@@@2@@__crt_stdio_output@@AEAA_N_N@Z 00000001800602f0 f i libucrtd:output.obj
 0001:0005f770       ??$type_case_integer@$09@?$output_processor@DV?$stream_output_adapter@D@__crt_stdio_output@@V?$format_validation_base@DV?$stream_output_adapter@D@__crt_stdio_output@@@2@@__crt_stdio_output@@AEAA_N_N@Z 0000000180060770 f i libucrtd:output.obj
 0001:0005fbf0       ??$type_case_integer@$09@?$output_processor@DV?$stream_output_adapter@D@__crt_stdio_output@@V?$positional_parameter_base@DV?$stream_output_adapter@D@__crt_stdio_output@@@2@@__crt_stdio_output@@AEAA_N_N@Z 0000000180060bf0 f i libucrtd:output.obj
 0001:00060070       ??$type_case_integer@$09@?$output_processor@DV?$stream_output_adapter@D@__crt_stdio_output@@V?$standard_base@DV?$stream_output_adapter@D@__crt_stdio_output@@@2@@__crt_stdio_output@@AEAA_N_N@Z 0000000180061070 f i libucrtd:output.obj
 0001:000604f0       ??$type_case_integer@$09@?$output_processor@DV?$string_output_adapter@D@__crt_stdio_output@@V?$format_validation_base@DV?$string_output_adapter@D@__crt_stdio_output@@@2@@__crt_stdio_output@@AEAA_N_N@Z 00000001800614f0 f i libucrtd:output.obj
 0001:00060970       ??$type_case_integer@$09@?$output_processor@DV?$string_output_adapter@D@__crt_stdio_output@@V?$positional_parameter_base@DV?$string_output_adapter@D@__crt_stdio_output@@@2@@__crt_stdio_output@@AEAA_N_N@Z 0000000180061970 f i libucrtd:output.obj
 0001:00060df0       ??$type_case_integer@$09@?$output_processor@DV?$string_output_adapter@D@__crt_stdio_output@@V?$standard_base@DV?$string_output_adapter@D@__crt_stdio_output@@@2@@__crt_stdio_output@@AEAA_N_N@Z 0000000180061df0 f i libucrtd:output.obj
 0001:00061270       ??$type_case_integer@$09@?$output_processor@_WV?$stream_output_adapter@_W@__crt_stdio_output@@V?$format_validation_base@_WV?$stream_output_adapter@_W@__crt_stdio_output@@@2@@__crt_stdio_output@@AEAA_N_N@Z 0000000180062270 f i libucrtd:output.obj
 0001:000616f0       ??$type_case_integer@$09@?$output_processor@_WV?$stream_output_adapter@_W@__crt_stdio_output@@V?$positional_parameter_base@_WV?$stream_output_adapter@_W@__crt_stdio_output@@@2@@__crt_stdio_output@@AEAA_N_N@Z 00000001800626f0 f i libucrtd:output.obj
 0001:00061b70       ??$type_case_integer@$09@?$output_processor@_WV?$stream_output_adapter@_W@__crt_stdio_output@@V?$standard_base@_WV?$stream_output_adapter@_W@__crt_stdio_output@@@2@@__crt_stdio_output@@AEAA_N_N@Z 0000000180062b70 f i libucrtd:output.obj
 0001:00061ff0       ??$type_case_integer@$09@?$output_processor@_WV?$string_output_adapter@_W@__crt_stdio_output@@V?$format_validation_base@_WV?$string_output_adapter@_W@__crt_stdio_output@@@2@@__crt_stdio_output@@AEAA_N_N@Z 0000000180062ff0 f i libucrtd:output.obj
 0001:00062470       ??$type_case_integer@$09@?$output_processor@_WV?$string_output_adapter@_W@__crt_stdio_output@@V?$positional_parameter_base@_WV?$string_output_adapter@_W@__crt_stdio_output@@@2@@__crt_stdio_output@@AEAA_N_N@Z 0000000180063470 f i libucrtd:output.obj
 0001:000628f0       ??$type_case_integer@$09@?$output_processor@_WV?$string_output_adapter@_W@__crt_stdio_output@@V?$standard_base@_WV?$string_output_adapter@_W@__crt_stdio_output@@@2@@__crt_stdio_output@@AEAA_N_N@Z 00000001800638f0 f i libucrtd:output.obj
 0001:00062d70       ??$type_case_integer@$0BA@@?$output_processor@DV?$stream_output_adapter@D@__crt_stdio_output@@V?$format_validation_base@DV?$stream_output_adapter@D@__crt_stdio_output@@@2@@__crt_stdio_output@@AEAA_N_N@Z 0000000180063d70 f i libucrtd:output.obj
 0001:000631f0       ??$type_case_integer@$0BA@@?$output_processor@DV?$stream_output_adapter@D@__crt_stdio_output@@V?$positional_parameter_base@DV?$stream_output_adapter@D@__crt_stdio_output@@@2@@__crt_stdio_output@@AEAA_N_N@Z 00000001800641f0 f i libucrtd:output.obj
 0001:00063670       ??$type_case_integer@$0BA@@?$output_processor@DV?$stream_output_adapter@D@__crt_stdio_output@@V?$standard_base@DV?$stream_output_adapter@D@__crt_stdio_output@@@2@@__crt_stdio_output@@AEAA_N_N@Z 0000000180064670 f i libucrtd:output.obj
 0001:00063af0       ??$type_case_integer@$0BA@@?$output_processor@DV?$string_output_adapter@D@__crt_stdio_output@@V?$format_validation_base@DV?$string_output_adapter@D@__crt_stdio_output@@@2@@__crt_stdio_output@@AEAA_N_N@Z 0000000180064af0 f i libucrtd:output.obj
 0001:00063f70       ??$type_case_integer@$0BA@@?$output_processor@DV?$string_output_adapter@D@__crt_stdio_output@@V?$positional_parameter_base@DV?$string_output_adapter@D@__crt_stdio_output@@@2@@__crt_stdio_output@@AEAA_N_N@Z 0000000180064f70 f i libucrtd:output.obj
 0001:000643f0       ??$type_case_integer@$0BA@@?$output_processor@DV?$string_output_adapter@D@__crt_stdio_output@@V?$standard_base@DV?$string_output_adapter@D@__crt_stdio_output@@@2@@__crt_stdio_output@@AEAA_N_N@Z 00000001800653f0 f i libucrtd:output.obj
 0001:00064870       ??$type_case_integer@$0BA@@?$output_processor@_WV?$stream_output_adapter@_W@__crt_stdio_output@@V?$format_validation_base@_WV?$stream_output_adapter@_W@__crt_stdio_output@@@2@@__crt_stdio_output@@AEAA_N_N@Z 0000000180065870 f i libucrtd:output.obj
 0001:00064cf0       ??$type_case_integer@$0BA@@?$output_processor@_WV?$stream_output_adapter@_W@__crt_stdio_output@@V?$positional_parameter_base@_WV?$stream_output_adapter@_W@__crt_stdio_output@@@2@@__crt_stdio_output@@AEAA_N_N@Z 0000000180065cf0 f i libucrtd:output.obj
 0001:00065170       ??$type_case_integer@$0BA@@?$output_processor@_WV?$stream_output_adapter@_W@__crt_stdio_output@@V?$standard_base@_WV?$stream_output_adapter@_W@__crt_stdio_output@@@2@@__crt_stdio_output@@AEAA_N_N@Z 0000000180066170 f i libucrtd:output.obj
 0001:000655f0       ??$type_case_integer@$0BA@@?$output_processor@_WV?$string_output_adapter@_W@__crt_stdio_output@@V?$format_validation_base@_WV?$string_output_adapter@_W@__crt_stdio_output@@@2@@__crt_stdio_output@@AEAA_N_N@Z 00000001800665f0 f i libucrtd:output.obj
 0001:00065a70       ??$type_case_integer@$0BA@@?$output_processor@_WV?$string_output_adapter@_W@__crt_stdio_output@@V?$positional_parameter_base@_WV?$string_output_adapter@_W@__crt_stdio_output@@@2@@__crt_stdio_output@@AEAA_N_N@Z 0000000180066a70 f i libucrtd:output.obj
 0001:00065ef0       ??$type_case_integer@$0BA@@?$output_processor@_WV?$string_output_adapter@_W@__crt_stdio_output@@V?$standard_base@_WV?$string_output_adapter@_W@__crt_stdio_output@@@2@@__crt_stdio_output@@AEAA_N_N@Z 0000000180066ef0 f i libucrtd:output.obj
 0001:00066370       ??$type_case_integer_parse_into_buffer@I$07@?$output_processor@DV?$stream_output_adapter@D@__crt_stdio_output@@V?$format_validation_base@DV?$stream_output_adapter@D@__crt_stdio_output@@@2@@__crt_stdio_output@@AEAAXI_N@Z 0000000180067370 f i libucrtd:output.obj
 0001:000664a0       ??$type_case_integer_parse_into_buffer@I$07@?$output_processor@DV?$stream_output_adapter@D@__crt_stdio_output@@V?$positional_parameter_base@DV?$stream_output_adapter@D@__crt_stdio_output@@@2@@__crt_stdio_output@@AEAAXI_N@Z 00000001800674a0 f i libucrtd:output.obj
 0001:000665d0       ??$type_case_integer_parse_into_buffer@I$07@?$output_processor@DV?$stream_output_adapter@D@__crt_stdio_output@@V?$standard_base@DV?$stream_output_adapter@D@__crt_stdio_output@@@2@@__crt_stdio_output@@AEAAXI_N@Z 00000001800675d0 f i libucrtd:output.obj
 0001:00066700       ??$type_case_integer_parse_into_buffer@I$07@?$output_processor@DV?$string_output_adapter@D@__crt_stdio_output@@V?$format_validation_base@DV?$string_output_adapter@D@__crt_stdio_output@@@2@@__crt_stdio_output@@AEAAXI_N@Z 0000000180067700 f i libucrtd:output.obj
 0001:00066830       ??$type_case_integer_parse_into_buffer@I$07@?$output_processor@DV?$string_output_adapter@D@__crt_stdio_output@@V?$positional_parameter_base@DV?$string_output_adapter@D@__crt_stdio_output@@@2@@__crt_stdio_output@@AEAAXI_N@Z 0000000180067830 f i libucrtd:output.obj
 0001:00066960       ??$type_case_integer_parse_into_buffer@I$07@?$output_processor@DV?$string_output_adapter@D@__crt_stdio_output@@V?$standard_base@DV?$string_output_adapter@D@__crt_stdio_output@@@2@@__crt_stdio_output@@AEAAXI_N@Z 0000000180067960 f i libucrtd:output.obj
 0001:00066a90       ??$type_case_integer_parse_into_buffer@I$07@?$output_processor@_WV?$stream_output_adapter@_W@__crt_stdio_output@@V?$format_validation_base@_WV?$stream_output_adapter@_W@__crt_stdio_output@@@2@@__crt_stdio_output@@AEAAXI_N@Z 0000000180067a90 f i libucrtd:output.obj
 0001:00066bd0       ??$type_case_integer_parse_into_buffer@I$07@?$output_processor@_WV?$stream_output_adapter@_W@__crt_stdio_output@@V?$positional_parameter_base@_WV?$stream_output_adapter@_W@__crt_stdio_output@@@2@@__crt_stdio_output@@AEAAXI_N@Z 0000000180067bd0 f i libucrtd:output.obj
 0001:00066d10       ??$type_case_integer_parse_into_buffer@I$07@?$output_processor@_WV?$stream_output_adapter@_W@__crt_stdio_output@@V?$standard_base@_WV?$stream_output_adapter@_W@__crt_stdio_output@@@2@@__crt_stdio_output@@AEAAXI_N@Z 0000000180067d10 f i libucrtd:output.obj
 0001:00066e50       ??$type_case_integer_parse_into_buffer@I$07@?$output_processor@_WV?$string_output_adapter@_W@__crt_stdio_output@@V?$format_validation_base@_WV?$string_output_adapter@_W@__crt_stdio_output@@@2@@__crt_stdio_output@@AEAAXI_N@Z 0000000180067e50 f i libucrtd:output.obj
 0001:00066f90       ??$type_case_integer_parse_into_buffer@I$07@?$output_processor@_WV?$string_output_adapter@_W@__crt_stdio_output@@V?$positional_parameter_base@_WV?$string_output_adapter@_W@__crt_stdio_output@@@2@@__crt_stdio_output@@AEAAXI_N@Z 0000000180067f90 f i libucrtd:output.obj
 0001:000670d0       ??$type_case_integer_parse_into_buffer@I$07@?$output_processor@_WV?$string_output_adapter@_W@__crt_stdio_output@@V?$standard_base@_WV?$string_output_adapter@_W@__crt_stdio_output@@@2@@__crt_stdio_output@@AEAAXI_N@Z 00000001800680d0 f i libucrtd:output.obj
 0001:00067210       ??$type_case_integer_parse_into_buffer@I$09@?$output_processor@DV?$stream_output_adapter@D@__crt_stdio_output@@V?$format_validation_base@DV?$stream_output_adapter@D@__crt_stdio_output@@@2@@__crt_stdio_output@@AEAAXI_N@Z 0000000180068210 f i libucrtd:output.obj
 0001:00067340       ??$type_case_integer_parse_into_buffer@I$09@?$output_processor@DV?$stream_output_adapter@D@__crt_stdio_output@@V?$positional_parameter_base@DV?$stream_output_adapter@D@__crt_stdio_output@@@2@@__crt_stdio_output@@AEAAXI_N@Z 0000000180068340 f i libucrtd:output.obj
 0001:00067470       ??$type_case_integer_parse_into_buffer@I$09@?$output_processor@DV?$stream_output_adapter@D@__crt_stdio_output@@V?$standard_base@DV?$stream_output_adapter@D@__crt_stdio_output@@@2@@__crt_stdio_output@@AEAAXI_N@Z 0000000180068470 f i libucrtd:output.obj
 0001:000675a0       ??$type_case_integer_parse_into_buffer@I$09@?$output_processor@DV?$string_output_adapter@D@__crt_stdio_output@@V?$format_validation_base@DV?$string_output_adapter@D@__crt_stdio_output@@@2@@__crt_stdio_output@@AEAAXI_N@Z 00000001800685a0 f i libucrtd:output.obj
 0001:000676d0       ??$type_case_integer_parse_into_buffer@I$09@?$output_processor@DV?$string_output_adapter@D@__crt_stdio_output@@V?$positional_parameter_base@DV?$string_output_adapter@D@__crt_stdio_output@@@2@@__crt_stdio_output@@AEAAXI_N@Z 00000001800686d0 f i libucrtd:output.obj
 0001:00067800       ??$type_case_integer_parse_into_buffer@I$09@?$output_processor@DV?$string_output_adapter@D@__crt_stdio_output@@V?$standard_base@DV?$string_output_adapter@D@__crt_stdio_output@@@2@@__crt_stdio_output@@AEAAXI_N@Z 0000000180068800 f i libucrtd:output.obj
 0001:00067930       ??$type_case_integer_parse_into_buffer@I$09@?$output_processor@_WV?$stream_output_adapter@_W@__crt_stdio_output@@V?$format_validation_base@_WV?$stream_output_adapter@_W@__crt_stdio_output@@@2@@__crt_stdio_output@@AEAAXI_N@Z 0000000180068930 f i libucrtd:output.obj
 0001:00067a70       ??$type_case_integer_parse_into_buffer@I$09@?$output_processor@_WV?$stream_output_adapter@_W@__crt_stdio_output@@V?$positional_parameter_base@_WV?$stream_output_adapter@_W@__crt_stdio_output@@@2@@__crt_stdio_output@@AEAAXI_N@Z 0000000180068a70 f i libucrtd:output.obj
 0001:00067bb0       ??$type_case_integer_parse_into_buffer@I$09@?$output_processor@_WV?$stream_output_adapter@_W@__crt_stdio_output@@V?$standard_base@_WV?$stream_output_adapter@_W@__crt_stdio_output@@@2@@__crt_stdio_output@@AEAAXI_N@Z 0000000180068bb0 f i libucrtd:output.obj
 0001:00067cf0       ??$type_case_integer_parse_into_buffer@I$09@?$output_processor@_WV?$string_output_adapter@_W@__crt_stdio_output@@V?$format_validation_base@_WV?$string_output_adapter@_W@__crt_stdio_output@@@2@@__crt_stdio_output@@AEAAXI_N@Z 0000000180068cf0 f i libucrtd:output.obj
 0001:00067e30       ??$type_case_integer_parse_into_buffer@I$09@?$output_processor@_WV?$string_output_adapter@_W@__crt_stdio_output@@V?$positional_parameter_base@_WV?$string_output_adapter@_W@__crt_stdio_output@@@2@@__crt_stdio_output@@AEAAXI_N@Z 0000000180068e30 f i libucrtd:output.obj
 0001:00067f70       ??$type_case_integer_parse_into_buffer@I$09@?$output_processor@_WV?$string_output_adapter@_W@__crt_stdio_output@@V?$standard_base@_WV?$string_output_adapter@_W@__crt_stdio_output@@@2@@__crt_stdio_output@@AEAAXI_N@Z 0000000180068f70 f i libucrtd:output.obj
 0001:000680b0       ??$type_case_integer_parse_into_buffer@I$0BA@@?$output_processor@DV?$stream_output_adapter@D@__crt_stdio_output@@V?$format_validation_base@DV?$stream_output_adapter@D@__crt_stdio_output@@@2@@__crt_stdio_output@@AEAAXI_N@Z 00000001800690b0 f i libucrtd:output.obj
 0001:000681e0       ??$type_case_integer_parse_into_buffer@I$0BA@@?$output_processor@DV?$stream_output_adapter@D@__crt_stdio_output@@V?$positional_parameter_base@DV?$stream_output_adapter@D@__crt_stdio_output@@@2@@__crt_stdio_output@@AEAAXI_N@Z 00000001800691e0 f i libucrtd:output.obj
 0001:00068310       ??$type_case_integer_parse_into_buffer@I$0BA@@?$output_processor@DV?$stream_output_adapter@D@__crt_stdio_output@@V?$standard_base@DV?$stream_output_adapter@D@__crt_stdio_output@@@2@@__crt_stdio_output@@AEAAXI_N@Z 0000000180069310 f i libucrtd:output.obj
 0001:00068440       ??$type_case_integer_parse_into_buffer@I$0BA@@?$output_processor@DV?$string_output_adapter@D@__crt_stdio_output@@V?$format_validation_base@DV?$string_output_adapter@D@__crt_stdio_output@@@2@@__crt_stdio_output@@AEAAXI_N@Z 0000000180069440 f i libucrtd:output.obj
 0001:00068570       ??$type_case_integer_parse_into_buffer@I$0BA@@?$output_processor@DV?$string_output_adapter@D@__crt_stdio_output@@V?$positional_parameter_base@DV?$string_output_adapter@D@__crt_stdio_output@@@2@@__crt_stdio_output@@AEAAXI_N@Z 0000000180069570 f i libucrtd:output.obj
 0001:000686a0       ??$type_case_integer_parse_into_buffer@I$0BA@@?$output_processor@DV?$string_output_adapter@D@__crt_stdio_output@@V?$standard_base@DV?$string_output_adapter@D@__crt_stdio_output@@@2@@__crt_stdio_output@@AEAAXI_N@Z 00000001800696a0 f i libucrtd:output.obj
 0001:000687d0       ??$type_case_integer_parse_into_buffer@I$0BA@@?$output_processor@_WV?$stream_output_adapter@_W@__crt_stdio_output@@V?$format_validation_base@_WV?$stream_output_adapter@_W@__crt_stdio_output@@@2@@__crt_stdio_output@@AEAAXI_N@Z 00000001800697d0 f i libucrtd:output.obj
 0001:00068910       ??$type_case_integer_parse_into_buffer@I$0BA@@?$output_processor@_WV?$stream_output_adapter@_W@__crt_stdio_output@@V?$positional_parameter_base@_WV?$stream_output_adapter@_W@__crt_stdio_output@@@2@@__crt_stdio_output@@AEAAXI_N@Z 0000000180069910 f i libucrtd:output.obj
 0001:00068a50       ??$type_case_integer_parse_into_buffer@I$0BA@@?$output_processor@_WV?$stream_output_adapter@_W@__crt_stdio_output@@V?$standard_base@_WV?$stream_output_adapter@_W@__crt_stdio_output@@@2@@__crt_stdio_output@@AEAAXI_N@Z 0000000180069a50 f i libucrtd:output.obj
 0001:00068b90       ??$type_case_integer_parse_into_buffer@I$0BA@@?$output_processor@_WV?$string_output_adapter@_W@__crt_stdio_output@@V?$format_validation_base@_WV?$string_output_adapter@_W@__crt_stdio_output@@@2@@__crt_stdio_output@@AEAAXI_N@Z 0000000180069b90 f i libucrtd:output.obj
 0001:00068cd0       ??$type_case_integer_parse_into_buffer@I$0BA@@?$output_processor@_WV?$string_output_adapter@_W@__crt_stdio_output@@V?$positional_parameter_base@_WV?$string_output_adapter@_W@__crt_stdio_output@@@2@@__crt_stdio_output@@AEAAXI_N@Z 0000000180069cd0 f i libucrtd:output.obj
 0001:00068e10       ??$type_case_integer_parse_into_buffer@I$0BA@@?$output_processor@_WV?$string_output_adapter@_W@__crt_stdio_output@@V?$standard_base@_WV?$string_output_adapter@_W@__crt_stdio_output@@@2@@__crt_stdio_output@@AEAAXI_N@Z 0000000180069e10 f i libucrtd:output.obj
 0001:00068f50       ??$type_case_integer_parse_into_buffer@_K$07@?$output_processor@DV?$stream_output_adapter@D@__crt_stdio_output@@V?$format_validation_base@DV?$stream_output_adapter@D@__crt_stdio_output@@@2@@__crt_stdio_output@@AEAAX_K_N@Z 0000000180069f50 f i libucrtd:output.obj
 0001:00069090       ??$type_case_integer_parse_into_buffer@_K$07@?$output_processor@DV?$stream_output_adapter@D@__crt_stdio_output@@V?$positional_parameter_base@DV?$stream_output_adapter@D@__crt_stdio_output@@@2@@__crt_stdio_output@@AEAAX_K_N@Z 000000018006a090 f i libucrtd:output.obj
 0001:000691d0       ??$type_case_integer_parse_into_buffer@_K$07@?$output_processor@DV?$stream_output_adapter@D@__crt_stdio_output@@V?$standard_base@DV?$stream_output_adapter@D@__crt_stdio_output@@@2@@__crt_stdio_output@@AEAAX_K_N@Z 000000018006a1d0 f i libucrtd:output.obj
 0001:00069310       ??$type_case_integer_parse_into_buffer@_K$07@?$output_processor@DV?$string_output_adapter@D@__crt_stdio_output@@V?$format_validation_base@DV?$string_output_adapter@D@__crt_stdio_output@@@2@@__crt_stdio_output@@AEAAX_K_N@Z 000000018006a310 f i libucrtd:output.obj
 0001:00069450       ??$type_case_integer_parse_into_buffer@_K$07@?$output_processor@DV?$string_output_adapter@D@__crt_stdio_output@@V?$positional_parameter_base@DV?$string_output_adapter@D@__crt_stdio_output@@@2@@__crt_stdio_output@@AEAAX_K_N@Z 000000018006a450 f i libucrtd:output.obj
 0001:00069590       ??$type_case_integer_parse_into_buffer@_K$07@?$output_processor@DV?$string_output_adapter@D@__crt_stdio_output@@V?$standard_base@DV?$string_output_adapter@D@__crt_stdio_output@@@2@@__crt_stdio_output@@AEAAX_K_N@Z 000000018006a590 f i libucrtd:output.obj
 0001:000696d0       ??$type_case_integer_parse_into_buffer@_K$07@?$output_processor@_WV?$stream_output_adapter@_W@__crt_stdio_output@@V?$format_validation_base@_WV?$stream_output_adapter@_W@__crt_stdio_output@@@2@@__crt_stdio_output@@AEAAX_K_N@Z 000000018006a6d0 f i libucrtd:output.obj
 0001:00069810       ??$type_case_integer_parse_into_buffer@_K$07@?$output_processor@_WV?$stream_output_adapter@_W@__crt_stdio_output@@V?$positional_parameter_base@_WV?$stream_output_adapter@_W@__crt_stdio_output@@@2@@__crt_stdio_output@@AEAAX_K_N@Z 000000018006a810 f i libucrtd:output.obj
 0001:00069950       ??$type_case_integer_parse_into_buffer@_K$07@?$output_processor@_WV?$stream_output_adapter@_W@__crt_stdio_output@@V?$standard_base@_WV?$stream_output_adapter@_W@__crt_stdio_output@@@2@@__crt_stdio_output@@AEAAX_K_N@Z 000000018006a950 f i libucrtd:output.obj
 0001:00069a90       ??$type_case_integer_parse_into_buffer@_K$07@?$output_processor@_WV?$string_output_adapter@_W@__crt_stdio_output@@V?$format_validation_base@_WV?$string_output_adapter@_W@__crt_stdio_output@@@2@@__crt_stdio_output@@AEAAX_K_N@Z 000000018006aa90 f i libucrtd:output.obj
 0001:00069bd0       ??$type_case_integer_parse_into_buffer@_K$07@?$output_processor@_WV?$string_output_adapter@_W@__crt_stdio_output@@V?$positional_parameter_base@_WV?$string_output_adapter@_W@__crt_stdio_output@@@2@@__crt_stdio_output@@AEAAX_K_N@Z 000000018006abd0 f i libucrtd:output.obj
 0001:00069d10       ??$type_case_integer_parse_into_buffer@_K$07@?$output_processor@_WV?$string_output_adapter@_W@__crt_stdio_output@@V?$standard_base@_WV?$string_output_adapter@_W@__crt_stdio_output@@@2@@__crt_stdio_output@@AEAAX_K_N@Z 000000018006ad10 f i libucrtd:output.obj
 0001:00069e50       ??$type_case_integer_parse_into_buffer@_K$09@?$output_processor@DV?$stream_output_adapter@D@__crt_stdio_output@@V?$format_validation_base@DV?$stream_output_adapter@D@__crt_stdio_output@@@2@@__crt_stdio_output@@AEAAX_K_N@Z 000000018006ae50 f i libucrtd:output.obj
 0001:00069f90       ??$type_case_integer_parse_into_buffer@_K$09@?$output_processor@DV?$stream_output_adapter@D@__crt_stdio_output@@V?$positional_parameter_base@DV?$stream_output_adapter@D@__crt_stdio_output@@@2@@__crt_stdio_output@@AEAAX_K_N@Z 000000018006af90 f i libucrtd:output.obj
 0001:0006a0d0       ??$type_case_integer_parse_into_buffer@_K$09@?$output_processor@DV?$stream_output_adapter@D@__crt_stdio_output@@V?$standard_base@DV?$stream_output_adapter@D@__crt_stdio_output@@@2@@__crt_stdio_output@@AEAAX_K_N@Z 000000018006b0d0 f i libucrtd:output.obj
 0001:0006a210       ??$type_case_integer_parse_into_buffer@_K$09@?$output_processor@DV?$string_output_adapter@D@__crt_stdio_output@@V?$format_validation_base@DV?$string_output_adapter@D@__crt_stdio_output@@@2@@__crt_stdio_output@@AEAAX_K_N@Z 000000018006b210 f i libucrtd:output.obj
 0001:0006a350       ??$type_case_integer_parse_into_buffer@_K$09@?$output_processor@DV?$string_output_adapter@D@__crt_stdio_output@@V?$positional_parameter_base@DV?$string_output_adapter@D@__crt_stdio_output@@@2@@__crt_stdio_output@@AEAAX_K_N@Z 000000018006b350 f i libucrtd:output.obj
 0001:0006a490       ??$type_case_integer_parse_into_buffer@_K$09@?$output_processor@DV?$string_output_adapter@D@__crt_stdio_output@@V?$standard_base@DV?$string_output_adapter@D@__crt_stdio_output@@@2@@__crt_stdio_output@@AEAAX_K_N@Z 000000018006b490 f i libucrtd:output.obj
 0001:0006a5d0       ??$type_case_integer_parse_into_buffer@_K$09@?$output_processor@_WV?$stream_output_adapter@_W@__crt_stdio_output@@V?$format_validation_base@_WV?$stream_output_adapter@_W@__crt_stdio_output@@@2@@__crt_stdio_output@@AEAAX_K_N@Z 000000018006b5d0 f i libucrtd:output.obj
 0001:0006a710       ??$type_case_integer_parse_into_buffer@_K$09@?$output_processor@_WV?$stream_output_adapter@_W@__crt_stdio_output@@V?$positional_parameter_base@_WV?$stream_output_adapter@_W@__crt_stdio_output@@@2@@__crt_stdio_output@@AEAAX_K_N@Z 000000018006b710 f i libucrtd:output.obj
 0001:0006a850       ??$type_case_integer_parse_into_buffer@_K$09@?$output_processor@_WV?$stream_output_adapter@_W@__crt_stdio_output@@V?$standard_base@_WV?$stream_output_adapter@_W@__crt_stdio_output@@@2@@__crt_stdio_output@@AEAAX_K_N@Z 000000018006b850 f i libucrtd:output.obj
 0001:0006a990       ??$type_case_integer_parse_into_buffer@_K$09@?$output_processor@_WV?$string_output_adapter@_W@__crt_stdio_output@@V?$format_validation_base@_WV?$string_output_adapter@_W@__crt_stdio_output@@@2@@__crt_stdio_output@@AEAAX_K_N@Z 000000018006b990 f i libucrtd:output.obj
 0001:0006aad0       ??$type_case_integer_parse_into_buffer@_K$09@?$output_processor@_WV?$string_output_adapter@_W@__crt_stdio_output@@V?$positional_parameter_base@_WV?$string_output_adapter@_W@__crt_stdio_output@@@2@@__crt_stdio_output@@AEAAX_K_N@Z 000000018006bad0 f i libucrtd:output.obj
 0001:0006ac10       ??$type_case_integer_parse_into_buffer@_K$09@?$output_processor@_WV?$string_output_adapter@_W@__crt_stdio_output@@V?$standard_base@_WV?$string_output_adapter@_W@__crt_stdio_output@@@2@@__crt_stdio_output@@AEAAX_K_N@Z 000000018006bc10 f i libucrtd:output.obj
 0001:0006ad50       ??$type_case_integer_parse_into_buffer@_K$0BA@@?$output_processor@DV?$stream_output_adapter@D@__crt_stdio_output@@V?$format_validation_base@DV?$stream_output_adapter@D@__crt_stdio_output@@@2@@__crt_stdio_output@@AEAAX_K_N@Z 000000018006bd50 f i libucrtd:output.obj
 0001:0006ae90       ??$type_case_integer_parse_into_buffer@_K$0BA@@?$output_processor@DV?$stream_output_adapter@D@__crt_stdio_output@@V?$positional_parameter_base@DV?$stream_output_adapter@D@__crt_stdio_output@@@2@@__crt_stdio_output@@AEAAX_K_N@Z 000000018006be90 f i libucrtd:output.obj
 0001:0006afd0       ??$type_case_integer_parse_into_buffer@_K$0BA@@?$output_processor@DV?$stream_output_adapter@D@__crt_stdio_output@@V?$standard_base@DV?$stream_output_adapter@D@__crt_stdio_output@@@2@@__crt_stdio_output@@AEAAX_K_N@Z 000000018006bfd0 f i libucrtd:output.obj
 0001:0006b110       ??$type_case_integer_parse_into_buffer@_K$0BA@@?$output_processor@DV?$string_output_adapter@D@__crt_stdio_output@@V?$format_validation_base@DV?$string_output_adapter@D@__crt_stdio_output@@@2@@__crt_stdio_output@@AEAAX_K_N@Z 000000018006c110 f i libucrtd:output.obj
 0001:0006b250       ??$type_case_integer_parse_into_buffer@_K$0BA@@?$output_processor@DV?$string_output_adapter@D@__crt_stdio_output@@V?$positional_parameter_base@DV?$string_output_adapter@D@__crt_stdio_output@@@2@@__crt_stdio_output@@AEAAX_K_N@Z 000000018006c250 f i libucrtd:output.obj
 0001:0006b390       ??$type_case_integer_parse_into_buffer@_K$0BA@@?$output_processor@DV?$string_output_adapter@D@__crt_stdio_output@@V?$standard_base@DV?$string_output_adapter@D@__crt_stdio_output@@@2@@__crt_stdio_output@@AEAAX_K_N@Z 000000018006c390 f i libucrtd:output.obj
 0001:0006b4d0       ??$type_case_integer_parse_into_buffer@_K$0BA@@?$output_processor@_WV?$stream_output_adapter@_W@__crt_stdio_output@@V?$format_validation_base@_WV?$stream_output_adapter@_W@__crt_stdio_output@@@2@@__crt_stdio_output@@AEAAX_K_N@Z 000000018006c4d0 f i libucrtd:output.obj
 0001:0006b610       ??$type_case_integer_parse_into_buffer@_K$0BA@@?$output_processor@_WV?$stream_output_adapter@_W@__crt_stdio_output@@V?$positional_parameter_base@_WV?$stream_output_adapter@_W@__crt_stdio_output@@@2@@__crt_stdio_output@@AEAAX_K_N@Z 000000018006c610 f i libucrtd:output.obj
 0001:0006b750       ??$type_case_integer_parse_into_buffer@_K$0BA@@?$output_processor@_WV?$stream_output_adapter@_W@__crt_stdio_output@@V?$standard_base@_WV?$stream_output_adapter@_W@__crt_stdio_output@@@2@@__crt_stdio_output@@AEAAX_K_N@Z 000000018006c750 f i libucrtd:output.obj
 0001:0006b890       ??$type_case_integer_parse_into_buffer@_K$0BA@@?$output_processor@_WV?$string_output_adapter@_W@__crt_stdio_output@@V?$format_validation_base@_WV?$string_output_adapter@_W@__crt_stdio_output@@@2@@__crt_stdio_output@@AEAAX_K_N@Z 000000018006c890 f i libucrtd:output.obj
 0001:0006b9d0       ??$type_case_integer_parse_into_buffer@_K$0BA@@?$output_processor@_WV?$string_output_adapter@_W@__crt_stdio_output@@V?$positional_parameter_base@_WV?$string_output_adapter@_W@__crt_stdio_output@@@2@@__crt_stdio_output@@AEAAX_K_N@Z 000000018006c9d0 f i libucrtd:output.obj
 0001:0006bb10       ??$type_case_integer_parse_into_buffer@_K$0BA@@?$output_processor@_WV?$string_output_adapter@_W@__crt_stdio_output@@V?$standard_base@_WV?$string_output_adapter@_W@__crt_stdio_output@@@2@@__crt_stdio_output@@AEAAX_K_N@Z 000000018006cb10 f i libucrtd:output.obj
 0001:0006bc50       ??$write_multiple_characters@V?$stream_output_adapter@D@__crt_stdio_output@@D@__crt_stdio_output@@YAXAEBV?$stream_output_adapter@D@0@DHQEAHAEAV__crt_cached_ptd_host@@@Z 000000018006cc50 f i libucrtd:output.obj
 0001:0006bcc0       ??$write_multiple_characters@V?$stream_output_adapter@_W@__crt_stdio_output@@D@__crt_stdio_output@@YAXAEBV?$stream_output_adapter@_W@0@DHQEAHAEAV__crt_cached_ptd_host@@@Z 000000018006ccc0 f i libucrtd:output.obj
 0001:0006bd30       ??$write_multiple_characters@V?$string_output_adapter@D@__crt_stdio_output@@D@__crt_stdio_output@@YAXAEBV?$string_output_adapter@D@0@DHQEAHAEAV__crt_cached_ptd_host@@@Z 000000018006cd30 f i libucrtd:output.obj
 0001:0006bda0       ??$write_multiple_characters@V?$string_output_adapter@_W@__crt_stdio_output@@D@__crt_stdio_output@@YAXAEBV?$string_output_adapter@_W@0@DHQEAHAEAV__crt_cached_ptd_host@@@Z 000000018006cda0 f i libucrtd:output.obj
 0001:0006c1d0       ??0?$c_string_character_source@D@__crt_strtox@@QEAA@QEBDQEAPEBD@Z 000000018006d1d0 f i libucrtd:output.obj
 0001:0006c220       ??0?$c_string_character_source@_W@__crt_strtox@@QEAA@QEB_WQEAPEB_W@Z 000000018006d220 f i libucrtd:output.obj
 0001:0006c270       ??0?$cached@H@__crt_cached_ptd_host@@QEAA@XZ 000000018006d270 f i libucrtd:output.obj
 0001:0006c290       ??0?$cached@K@__crt_cached_ptd_host@@QEAA@XZ 000000018006d290 f i libucrtd:output.obj
 0001:0006c2b0       ??0?$common_data@D@__crt_stdio_output@@IEAA@AEAV__crt_cached_ptd_host@@@Z 000000018006d2b0 f i libucrtd:output.obj
 0001:0006c370       ??0?$common_data@_W@__crt_stdio_output@@IEAA@AEAV__crt_cached_ptd_host@@@Z 000000018006d370 f i libucrtd:output.obj
 0001:0006c430       ??0?$output_adapter_data@DV?$stream_output_adapter@D@__crt_stdio_output@@@__crt_stdio_output@@IEAA@AEBV?$stream_output_adapter@D@1@_KQEBDAEAV__crt_cached_ptd_host@@QEAD@Z 000000018006d430 f i libucrtd:output.obj
 0001:0006c4b0       ??0?$output_adapter_data@DV?$string_output_adapter@D@__crt_stdio_output@@@__crt_stdio_output@@IEAA@AEBV?$string_output_adapter@D@1@_KQEBDAEAV__crt_cached_ptd_host@@QEAD@Z 000000018006d4b0 f i libucrtd:output.obj
 0001:0006c530       ??0?$output_adapter_data@_WV?$stream_output_adapter@_W@__crt_stdio_output@@@__crt_stdio_output@@IEAA@AEBV?$stream_output_adapter@_W@1@_KQEB_WAEAV__crt_cached_ptd_host@@QEAD@Z 000000018006d530 f i libucrtd:output.obj
 0001:0006c5b0       ??0?$output_adapter_data@_WV?$string_output_adapter@_W@__crt_stdio_output@@@__crt_stdio_output@@IEAA@AEBV?$string_output_adapter@_W@1@_KQEB_WAEAV__crt_cached_ptd_host@@QEAD@Z 000000018006d5b0 f i libucrtd:output.obj
 0001:0006c630       ??0?$output_processor@DV?$stream_output_adapter@D@__crt_stdio_output@@V?$format_validation_base@DV?$stream_output_adapter@D@__crt_stdio_output@@@2@@__crt_stdio_output@@QEAA@AEBV?$stream_output_adapter@D@1@_KQEBDAEAV__crt_cached_ptd_host@@QEAD@Z 000000018006d630 f i libucrtd:output.obj
 0001:0006c680       ??0?$output_processor@DV?$stream_output_adapter@D@__crt_stdio_output@@V?$positional_parameter_base@DV?$stream_output_adapter@D@__crt_stdio_output@@@2@@__crt_stdio_output@@QEAA@AEBV?$stream_output_adapter@D@1@_KQEBDAEAV__crt_cached_ptd_host@@QEAD@Z 000000018006d680 f i libucrtd:output.obj
 0001:0006c6d0       ??0?$output_processor@DV?$stream_output_adapter@D@__crt_stdio_output@@V?$standard_base@DV?$stream_output_adapter@D@__crt_stdio_output@@@2@@__crt_stdio_output@@QEAA@AEBV?$stream_output_adapter@D@1@_KQEBDAEAV__crt_cached_ptd_host@@QEAD@Z 000000018006d6d0 f i libucrtd:output.obj
 0001:0006c720       ??0?$output_processor@DV?$string_output_adapter@D@__crt_stdio_output@@V?$format_validation_base@DV?$string_output_adapter@D@__crt_stdio_output@@@2@@__crt_stdio_output@@QEAA@AEBV?$string_output_adapter@D@1@_KQEBDAEAV__crt_cached_ptd_host@@QEAD@Z 000000018006d720 f i libucrtd:output.obj
 0001:0006c770       ??0?$output_processor@DV?$string_output_adapter@D@__crt_stdio_output@@V?$positional_parameter_base@DV?$string_output_adapter@D@__crt_stdio_output@@@2@@__crt_stdio_output@@QEAA@AEBV?$string_output_adapter@D@1@_KQEBDAEAV__crt_cached_ptd_host@@QEAD@Z 000000018006d770 f i libucrtd:output.obj
 0001:0006c7c0       ??0?$output_processor@DV?$string_output_adapter@D@__crt_stdio_output@@V?$standard_base@DV?$string_output_adapter@D@__crt_stdio_output@@@2@@__crt_stdio_output@@QEAA@AEBV?$string_output_adapter@D@1@_KQEBDAEAV__crt_cached_ptd_host@@QEAD@Z 000000018006d7c0 f i libucrtd:output.obj
 0001:0006c810       ??0?$output_processor@_WV?$stream_output_adapter@_W@__crt_stdio_output@@V?$format_validation_base@_WV?$stream_output_adapter@_W@__crt_stdio_output@@@2@@__crt_stdio_output@@QEAA@AEBV?$stream_output_adapter@_W@1@_KQEB_WAEAV__crt_cached_ptd_host@@QEAD@Z 000000018006d810 f i libucrtd:output.obj
 0001:0006c860       ??0?$output_processor@_WV?$stream_output_adapter@_W@__crt_stdio_output@@V?$positional_parameter_base@_WV?$stream_output_adapter@_W@__crt_stdio_output@@@2@@__crt_stdio_output@@QEAA@AEBV?$stream_output_adapter@_W@1@_KQEB_WAEAV__crt_cached_ptd_host@@QEAD@Z 000000018006d860 f i libucrtd:output.obj
 0001:0006c8b0       ??0?$output_processor@_WV?$stream_output_adapter@_W@__crt_stdio_output@@V?$standard_base@_WV?$stream_output_adapter@_W@__crt_stdio_output@@@2@@__crt_stdio_output@@QEAA@AEBV?$stream_output_adapter@_W@1@_KQEB_WAEAV__crt_cached_ptd_host@@QEAD@Z 000000018006d8b0 f i libucrtd:output.obj
 0001:0006c900       ??0?$output_processor@_WV?$string_output_adapter@_W@__crt_stdio_output@@V?$format_validation_base@_WV?$string_output_adapter@_W@__crt_stdio_output@@@2@@__crt_stdio_output@@QEAA@AEBV?$string_output_adapter@_W@1@_KQEB_WAEAV__crt_cached_ptd_host@@QEAD@Z 000000018006d900 f i libucrtd:output.obj
 0001:0006c950       ??0?$output_processor@_WV?$string_output_adapter@_W@__crt_stdio_output@@V?$positional_parameter_base@_WV?$string_output_adapter@_W@__crt_stdio_output@@@2@@__crt_stdio_output@@QEAA@AEBV?$string_output_adapter@_W@1@_KQEB_WAEAV__crt_cached_ptd_host@@QEAD@Z 000000018006d950 f i libucrtd:output.obj
 0001:0006c9a0       ??0?$output_processor@_WV?$string_output_adapter@_W@__crt_stdio_output@@V?$standard_base@_WV?$string_output_adapter@_W@__crt_stdio_output@@@2@@__crt_stdio_output@@QEAA@AEBV?$string_output_adapter@_W@1@_KQEB_WAEAV__crt_cached_ptd_host@@QEAD@Z 000000018006d9a0 f i libucrtd:output.obj
 0001:0006c9f0       ??0?$stream_output_adapter@D@__crt_stdio_output@@QEAA@QEAU_iobuf@@@Z 000000018006d9f0 f i libucrtd:output.obj
 0001:0006ca30       ??0?$stream_output_adapter@_W@__crt_stdio_output@@QEAA@QEAU_iobuf@@@Z 000000018006da30 f i libucrtd:output.obj
 0001:0006ca70       ??0?$string_output_adapter@D@__crt_stdio_output@@QEAA@QEAU?$string_output_adapter_context@D@1@@Z 000000018006da70 f i libucrtd:output.obj
 0001:0006ca90       ??0?$string_output_adapter@_W@__crt_stdio_output@@QEAA@QEAU?$string_output_adapter_context@_W@1@@Z 000000018006da90 f i libucrtd:output.obj
 0001:0006cab0       ??0__acrt_stdio_temporary_buffering_guard@@QEAA@QEAU_iobuf@@AEAV__crt_cached_ptd_host@@@Z 000000018006dab0 f i libucrtd:output.obj
 0001:0006cb00       ??0__crt_cached_ptd_host@@QEAA@QEAU__crt_locale_pointers@@@Z 000000018006db00 f i libucrtd:output.obj
 0001:0006cbc0       ??0__crt_scoped_get_last_error_reset@@QEAA@XZ 000000018006dbc0 f i libucrtd:output.obj
 0001:0006cbe0       ??0__crt_stdio_stream@@QEAA@QEAU_iobuf@@@Z 000000018006dbe0 f i libucrtd:output.obj
 0001:0006cc00       ??0formatting_buffer@__crt_stdio_output@@QEAA@XZ 000000018006dc00 f i libucrtd:output.obj
 0001:0006cc40       ??0guard@?$cached@H@__crt_cached_ptd_host@@QEAA@AEAU12@@Z 000000018006dc40 f i libucrtd:output.obj
 0001:0006cc80       ??1?$c_string_character_source@D@__crt_strtox@@QEAA@XZ 000000018006dc80 f i libucrtd:output.obj
 0001:0006ccb0       ??1?$c_string_character_source@_W@__crt_strtox@@QEAA@XZ 000000018006dcb0 f i libucrtd:output.obj
 0001:0006cce0       ??1?$common_data@D@__crt_stdio_output@@QEAA@XZ 000000018006dce0 f i libucrtd:output.obj
 0001:0006cd00       ??1?$common_data@_W@__crt_stdio_output@@QEAA@XZ 000000018006dd00 f i libucrtd:output.obj
 0001:0006cd20       ??1?$format_validation_base@DV?$stream_output_adapter@D@__crt_stdio_output@@@__crt_stdio_output@@QEAA@XZ 000000018006dd20 f i libucrtd:output.obj
 0001:0006cd40       ??1?$format_validation_base@DV?$string_output_adapter@D@__crt_stdio_output@@@__crt_stdio_output@@QEAA@XZ 000000018006dd40 f i libucrtd:output.obj
 0001:0006cd60       ??1?$format_validation_base@_WV?$stream_output_adapter@_W@__crt_stdio_output@@@__crt_stdio_output@@QEAA@XZ 000000018006dd60 f i libucrtd:output.obj
 0001:0006cd80       ??1?$format_validation_base@_WV?$string_output_adapter@_W@__crt_stdio_output@@@__crt_stdio_output@@QEAA@XZ 000000018006dd80 f i libucrtd:output.obj
 0001:0006cda0       ??1?$output_adapter_data@DV?$stream_output_adapter@D@__crt_stdio_output@@@__crt_stdio_output@@QEAA@XZ 000000018006dda0 f i libucrtd:output.obj
 0001:0006cdc0       ??1?$output_adapter_data@DV?$string_output_adapter@D@__crt_stdio_output@@@__crt_stdio_output@@QEAA@XZ 000000018006ddc0 f i libucrtd:output.obj
 0001:0006cde0       ??1?$output_adapter_data@_WV?$stream_output_adapter@_W@__crt_stdio_output@@@__crt_stdio_output@@QEAA@XZ 000000018006dde0 f i libucrtd:output.obj
 0001:0006ce00       ??1?$output_adapter_data@_WV?$string_output_adapter@_W@__crt_stdio_output@@@__crt_stdio_output@@QEAA@XZ 000000018006de00 f i libucrtd:output.obj
 0001:0006ce20       ??1?$output_processor@DV?$stream_output_adapter@D@__crt_stdio_output@@V?$format_validation_base@DV?$stream_output_adapter@D@__crt_stdio_output@@@2@@__crt_stdio_output@@QEAA@XZ 000000018006de20 f i libucrtd:output.obj
 0001:0006ce40       ??1?$output_processor@DV?$stream_output_adapter@D@__crt_stdio_output@@V?$positional_parameter_base@DV?$stream_output_adapter@D@__crt_stdio_output@@@2@@__crt_stdio_output@@QEAA@XZ 000000018006de40 f i libucrtd:output.obj
 0001:0006ce60       ??1?$output_processor@DV?$stream_output_adapter@D@__crt_stdio_output@@V?$standard_base@DV?$stream_output_adapter@D@__crt_stdio_output@@@2@@__crt_stdio_output@@QEAA@XZ 000000018006de60 f i libucrtd:output.obj
 0001:0006ce80       ??1?$output_processor@DV?$string_output_adapter@D@__crt_stdio_output@@V?$format_validation_base@DV?$string_output_adapter@D@__crt_stdio_output@@@2@@__crt_stdio_output@@QEAA@XZ 000000018006de80 f i libucrtd:output.obj
 0001:0006cea0       ??1?$output_processor@DV?$string_output_adapter@D@__crt_stdio_output@@V?$positional_parameter_base@DV?$string_output_adapter@D@__crt_stdio_output@@@2@@__crt_stdio_output@@QEAA@XZ 000000018006dea0 f i libucrtd:output.obj
 0001:0006cec0       ??1?$output_processor@DV?$string_output_adapter@D@__crt_stdio_output@@V?$standard_base@DV?$string_output_adapter@D@__crt_stdio_output@@@2@@__crt_stdio_output@@QEAA@XZ 000000018006dec0 f i libucrtd:output.obj
 0001:0006cee0       ??1?$output_processor@_WV?$stream_output_adapter@_W@__crt_stdio_output@@V?$format_validation_base@_WV?$stream_output_adapter@_W@__crt_stdio_output@@@2@@__crt_stdio_output@@QEAA@XZ 000000018006dee0 f i libucrtd:output.obj
 0001:0006cf00       ??1?$output_processor@_WV?$stream_output_adapter@_W@__crt_stdio_output@@V?$positional_parameter_base@_WV?$stream_output_adapter@_W@__crt_stdio_output@@@2@@__crt_stdio_output@@QEAA@XZ 000000018006df00 f i libucrtd:output.obj
 0001:0006cf20       ??1?$output_processor@_WV?$stream_output_adapter@_W@__crt_stdio_output@@V?$standard_base@_WV?$stream_output_adapter@_W@__crt_stdio_output@@@2@@__crt_stdio_output@@QEAA@XZ 000000018006df20 f i libucrtd:output.obj
 0001:0006cf40       ??1?$output_processor@_WV?$string_output_adapter@_W@__crt_stdio_output@@V?$format_validation_base@_WV?$string_output_adapter@_W@__crt_stdio_output@@@2@@__crt_stdio_output@@QEAA@XZ 000000018006df40 f i libucrtd:output.obj
 0001:0006cf60       ??1?$output_processor@_WV?$string_output_adapter@_W@__crt_stdio_output@@V?$positional_parameter_base@_WV?$string_output_adapter@_W@__crt_stdio_output@@@2@@__crt_stdio_output@@QEAA@XZ 000000018006df60 f i libucrtd:output.obj
 0001:0006cf80       ??1?$output_processor@_WV?$string_output_adapter@_W@__crt_stdio_output@@V?$standard_base@_WV?$string_output_adapter@_W@__crt_stdio_output@@@2@@__crt_stdio_output@@QEAA@XZ 000000018006df80 f i libucrtd:output.obj
 0001:0006cfa0       ??1?$positional_parameter_base@DV?$stream_output_adapter@D@__crt_stdio_output@@@__crt_stdio_output@@QEAA@XZ 000000018006dfa0 f i libucrtd:output.obj
 0001:0006cfc0       ??1?$positional_parameter_base@DV?$string_output_adapter@D@__crt_stdio_output@@@__crt_stdio_output@@QEAA@XZ 000000018006dfc0 f i libucrtd:output.obj
 0001:0006cfe0       ??1?$positional_parameter_base@_WV?$stream_output_adapter@_W@__crt_stdio_output@@@__crt_stdio_output@@QEAA@XZ 000000018006dfe0 f i libucrtd:output.obj
 0001:0006d000       ??1?$positional_parameter_base@_WV?$string_output_adapter@_W@__crt_stdio_output@@@__crt_stdio_output@@QEAA@XZ 000000018006e000 f i libucrtd:output.obj
 0001:0006d020       ??1?$standard_base@DV?$stream_output_adapter@D@__crt_stdio_output@@@__crt_stdio_output@@QEAA@XZ 000000018006e020 f i libucrtd:output.obj
 0001:0006d040       ??1?$standard_base@DV?$string_output_adapter@D@__crt_stdio_output@@@__crt_stdio_output@@QEAA@XZ 000000018006e040 f i libucrtd:output.obj
 0001:0006d060       ??1?$standard_base@_WV?$stream_output_adapter@_W@__crt_stdio_output@@@__crt_stdio_output@@QEAA@XZ 000000018006e060 f i libucrtd:output.obj
 0001:0006d080       ??1?$standard_base@_WV?$string_output_adapter@_W@__crt_stdio_output@@@__crt_stdio_output@@QEAA@XZ 000000018006e080 f i libucrtd:output.obj
 0001:0006d0a0       ??1__acrt_stdio_temporary_buffering_guard@@QEAA@XZ 000000018006e0a0 f i libucrtd:output.obj
 0001:0006d0d0       ??1__crt_cached_ptd_host@@QEAA@XZ 000000018006e0d0 f i libucrtd:output.obj
 0001:0006d180       ??1__crt_scoped_get_last_error_reset@@QEAA@XZ 000000018006e180 f i libucrtd:output.obj
 0001:0006d1a0       ??1formatting_buffer@__crt_stdio_output@@QEAA@XZ 000000018006e1a0 f i libucrtd:output.obj
 0001:0006d1d0       ??1guard@?$cached@H@__crt_cached_ptd_host@@QEAA@XZ 000000018006e1d0 f i libucrtd:output.obj
 0001:0006d200       ??4?$__crt_unique_heap_ptr@DU__crt_internal_free_policy@@@@QEAAAEAV0@$$QEAV0@@Z 000000018006e200 f i libucrtd:output.obj
 0001:0006d240       ??A?$spectre_mitigated_lookup_table@Ustate_transition_pair@__crt_stdio_output@@$0IA@@__crt_stdio_output@@QEBAAEBUstate_transition_pair@1@_K@Z 000000018006e240 f i libucrtd:output.obj
 0001:0006d260       ??C__crt_stdio_stream@@QEBAPEAU__crt_stdio_stream_data@@XZ 000000018006e260 f i libucrtd:output.obj
 0001:0006dab0       ?__crt_interlocked_read_32@@YAHPEDH@Z 000000018006eab0 f i libucrtd:output.obj
 0001:0006dad0       ?adjust_hexit@?$output_processor@DV?$stream_output_adapter@D@__crt_stdio_output@@V?$format_validation_base@DV?$stream_output_adapter@D@__crt_stdio_output@@@2@@__crt_stdio_output@@CADH_N@Z 000000018006ead0 f i libucrtd:output.obj
 0001:0006db20       ?adjust_hexit@?$output_processor@DV?$stream_output_adapter@D@__crt_stdio_output@@V?$positional_parameter_base@DV?$stream_output_adapter@D@__crt_stdio_output@@@2@@__crt_stdio_output@@CADH_N@Z 000000018006eb20 f i libucrtd:output.obj
 0001:0006db70       ?adjust_hexit@?$output_processor@DV?$stream_output_adapter@D@__crt_stdio_output@@V?$standard_base@DV?$stream_output_adapter@D@__crt_stdio_output@@@2@@__crt_stdio_output@@CADH_N@Z 000000018006eb70 f i libucrtd:output.obj
 0001:0006dbc0       ?adjust_hexit@?$output_processor@DV?$string_output_adapter@D@__crt_stdio_output@@V?$format_validation_base@DV?$string_output_adapter@D@__crt_stdio_output@@@2@@__crt_stdio_output@@CADH_N@Z 000000018006ebc0 f i libucrtd:output.obj
 0001:0006dc10       ?adjust_hexit@?$output_processor@DV?$string_output_adapter@D@__crt_stdio_output@@V?$positional_parameter_base@DV?$string_output_adapter@D@__crt_stdio_output@@@2@@__crt_stdio_output@@CADH_N@Z 000000018006ec10 f i libucrtd:output.obj
 0001:0006dc60       ?adjust_hexit@?$output_processor@DV?$string_output_adapter@D@__crt_stdio_output@@V?$standard_base@DV?$string_output_adapter@D@__crt_stdio_output@@@2@@__crt_stdio_output@@CADH_N@Z 000000018006ec60 f i libucrtd:output.obj
 0001:0006dcb0       ?adjust_hexit@?$output_processor@_WV?$stream_output_adapter@_W@__crt_stdio_output@@V?$format_validation_base@_WV?$stream_output_adapter@_W@__crt_stdio_output@@@2@@__crt_stdio_output@@CADH_N@Z 000000018006ecb0 f i libucrtd:output.obj
 0001:0006dd00       ?adjust_hexit@?$output_processor@_WV?$stream_output_adapter@_W@__crt_stdio_output@@V?$positional_parameter_base@_WV?$stream_output_adapter@_W@__crt_stdio_output@@@2@@__crt_stdio_output@@CADH_N@Z 000000018006ed00 f i libucrtd:output.obj
 0001:0006dd50       ?adjust_hexit@?$output_processor@_WV?$stream_output_adapter@_W@__crt_stdio_output@@V?$standard_base@_WV?$stream_output_adapter@_W@__crt_stdio_output@@@2@@__crt_stdio_output@@CADH_N@Z 000000018006ed50 f i libucrtd:output.obj
 0001:0006dda0       ?adjust_hexit@?$output_processor@_WV?$string_output_adapter@_W@__crt_stdio_output@@V?$format_validation_base@_WV?$string_output_adapter@_W@__crt_stdio_output@@@2@@__crt_stdio_output@@CADH_N@Z 000000018006eda0 f i libucrtd:output.obj
 0001:0006ddf0       ?adjust_hexit@?$output_processor@_WV?$string_output_adapter@_W@__crt_stdio_output@@V?$positional_parameter_base@_WV?$string_output_adapter@_W@__crt_stdio_output@@@2@@__crt_stdio_output@@CADH_N@Z 000000018006edf0 f i libucrtd:output.obj
 0001:0006de40       ?adjust_hexit@?$output_processor@_WV?$string_output_adapter@_W@__crt_stdio_output@@V?$standard_base@_WV?$string_output_adapter@_W@__crt_stdio_output@@@2@@__crt_stdio_output@@CADH_N@Z 000000018006ee40 f i libucrtd:output.obj
 0001:0006de90       ?advance_to_next_pass@?$positional_parameter_base@DV?$stream_output_adapter@D@__crt_stdio_output@@@__crt_stdio_output@@IEAA_NXZ 000000018006ee90 f i libucrtd:output.obj
 0001:0006df40       ?advance_to_next_pass@?$positional_parameter_base@DV?$string_output_adapter@D@__crt_stdio_output@@@__crt_stdio_output@@IEAA_NXZ 000000018006ef40 f i libucrtd:output.obj
 0001:0006dff0       ?advance_to_next_pass@?$positional_parameter_base@_WV?$stream_output_adapter@_W@__crt_stdio_output@@@__crt_stdio_output@@IEAA_NXZ 000000018006eff0 f i libucrtd:output.obj
 0001:0006e0a0       ?advance_to_next_pass@?$positional_parameter_base@_WV?$string_output_adapter@_W@__crt_stdio_output@@@__crt_stdio_output@@IEAA_NXZ 000000018006f0a0 f i libucrtd:output.obj
 0001:0006e150       ?advance_to_next_pass@?$standard_base@DV?$stream_output_adapter@D@__crt_stdio_output@@@__crt_stdio_output@@IEAA_NXZ 000000018006f150 f i libucrtd:output.obj
 0001:0006e1a0       ?advance_to_next_pass@?$standard_base@DV?$string_output_adapter@D@__crt_stdio_output@@@__crt_stdio_output@@IEAA_NXZ 000000018006f1a0 f i libucrtd:output.obj
 0001:0006e1f0       ?advance_to_next_pass@?$standard_base@_WV?$stream_output_adapter@_W@__crt_stdio_output@@@__crt_stdio_output@@IEAA_NXZ 000000018006f1f0 f i libucrtd:output.obj
 0001:0006e240       ?advance_to_next_pass@?$standard_base@_WV?$string_output_adapter@_W@__crt_stdio_output@@@__crt_stdio_output@@IEAA_NXZ 000000018006f240 f i libucrtd:output.obj
 0001:0006e290       ?check@?$cached@H@__crt_cached_ptd_host@@QEBA_NH@Z 000000018006f290 f i libucrtd:output.obj
 0001:0006e2d0       ?check_synchronize_global_state_index@__crt_cached_ptd_host@@AEAA_KAEBV__crt_scoped_get_last_error_reset@@@Z 000000018006f2d0 f i libucrtd:output.obj
 0001:0006e310       ?check_synchronize_per_thread_data@__crt_cached_ptd_host@@AEAAPEAU__acrt_ptd@@XZ 000000018006f310 f i libucrtd:output.obj
 0001:0006e350       ?create_guard@?$cached@H@__crt_cached_ptd_host@@QEAA?AVguard@12@XZ 000000018006f350 f i libucrtd:output.obj
 0001:0006e380       ?crop_zeroes@__crt_stdio_output@@YAXPEADQEAU__crt_locale_pointers@@@Z 000000018006f380 f i libucrtd:output.obj
 0001:0006e4d0       ?disable@guard@?$cached@H@__crt_cached_ptd_host@@QEAAXXZ 000000018006f4d0 f i libucrtd:output.obj
 0001:0006e4e0       ?enable@guard@?$cached@H@__crt_cached_ptd_host@@QEAAXXZ 000000018006f4e0 f i libucrtd:output.obj
 0001:0006e4f0       ?find_next_state@?$output_processor@DV?$stream_output_adapter@D@__crt_stdio_output@@V?$format_validation_base@DV?$stream_output_adapter@D@__crt_stdio_output@@@2@@__crt_stdio_output@@AEBA?AW4state@2@DW432@@Z 000000018006f4f0 f i libucrtd:output.obj
 0001:0006e590       ?find_next_state@?$output_processor@DV?$stream_output_adapter@D@__crt_stdio_output@@V?$positional_parameter_base@DV?$stream_output_adapter@D@__crt_stdio_output@@@2@@__crt_stdio_output@@AEBA?AW4state@2@DW432@@Z 000000018006f590 f i libucrtd:output.obj
 0001:0006e630       ?find_next_state@?$output_processor@DV?$stream_output_adapter@D@__crt_stdio_output@@V?$standard_base@DV?$stream_output_adapter@D@__crt_stdio_output@@@2@@__crt_stdio_output@@AEBA?AW4state@2@DW432@@Z 000000018006f630 f i libucrtd:output.obj
 0001:0006e6d0       ?find_next_state@?$output_processor@DV?$string_output_adapter@D@__crt_stdio_output@@V?$format_validation_base@DV?$string_output_adapter@D@__crt_stdio_output@@@2@@__crt_stdio_output@@AEBA?AW4state@2@DW432@@Z 000000018006f6d0 f i libucrtd:output.obj
 0001:0006e770       ?find_next_state@?$output_processor@DV?$string_output_adapter@D@__crt_stdio_output@@V?$positional_parameter_base@DV?$string_output_adapter@D@__crt_stdio_output@@@2@@__crt_stdio_output@@AEBA?AW4state@2@DW432@@Z 000000018006f770 f i libucrtd:output.obj
 0001:0006e810       ?find_next_state@?$output_processor@DV?$string_output_adapter@D@__crt_stdio_output@@V?$standard_base@DV?$string_output_adapter@D@__crt_stdio_output@@@2@@__crt_stdio_output@@AEBA?AW4state@2@DW432@@Z 000000018006f810 f i libucrtd:output.obj
 0001:0006e8b0       ?find_next_state@?$output_processor@_WV?$stream_output_adapter@_W@__crt_stdio_output@@V?$format_validation_base@_WV?$stream_output_adapter@_W@__crt_stdio_output@@@2@@__crt_stdio_output@@AEBA?AW4state@2@_WW432@@Z 000000018006f8b0 f i libucrtd:output.obj
 0001:0006e950       ?find_next_state@?$output_processor@_WV?$stream_output_adapter@_W@__crt_stdio_output@@V?$positional_parameter_base@_WV?$stream_output_adapter@_W@__crt_stdio_output@@@2@@__crt_stdio_output@@AEBA?AW4state@2@_WW432@@Z 000000018006f950 f i libucrtd:output.obj
 0001:0006e9f0       ?find_next_state@?$output_processor@_WV?$stream_output_adapter@_W@__crt_stdio_output@@V?$standard_base@_WV?$stream_output_adapter@_W@__crt_stdio_output@@@2@@__crt_stdio_output@@AEBA?AW4state@2@_WW432@@Z 000000018006f9f0 f i libucrtd:output.obj
 0001:0006ea90       ?find_next_state@?$output_processor@_WV?$string_output_adapter@_W@__crt_stdio_output@@V?$format_validation_base@_WV?$string_output_adapter@_W@__crt_stdio_output@@@2@@__crt_stdio_output@@AEBA?AW4state@2@_WW432@@Z 000000018006fa90 f i libucrtd:output.obj
 0001:0006eb30       ?find_next_state@?$output_processor@_WV?$string_output_adapter@_W@__crt_stdio_output@@V?$positional_parameter_base@_WV?$string_output_adapter@_W@__crt_stdio_output@@@2@@__crt_stdio_output@@AEBA?AW4state@2@_WW432@@Z 000000018006fb30 f i libucrtd:output.obj
 0001:0006ebd0       ?find_next_state@?$output_processor@_WV?$string_output_adapter@_W@__crt_stdio_output@@V?$standard_base@_WV?$string_output_adapter@_W@__crt_stdio_output@@@2@@__crt_stdio_output@@AEBA?AW4state@2@_WW432@@Z 000000018006fbd0 f i libucrtd:output.obj
 0001:0006ec70       ?force_decimal_point@__crt_stdio_output@@YAXPEADQEAU__crt_locale_pointers@@@Z 000000018006fc70 f i libucrtd:output.obj
 0001:0006ed70       ?force_synchronize_global_state_index@__crt_cached_ptd_host@@AEAA_KAEBV__crt_scoped_get_last_error_reset@@@Z 000000018006fd70 f i libucrtd:output.obj
 0001:0006edb0       ?force_synchronize_per_thread_data@__crt_cached_ptd_host@@AEAAPEAU__acrt_ptd@@XZ 000000018006fdb0 f i libucrtd:output.obj
 0001:0006ee10       ?get@?$c_string_character_source@D@__crt_strtox@@QEAADXZ 000000018006fe10 f i libucrtd:output.obj
 0001:0006ee50       ?get@?$c_string_character_source@_W@__crt_strtox@@QEAA_WXZ 000000018006fe50 f i libucrtd:output.obj
 0001:0006ee90       ?get_current_state_index@__crt_state_management@@YA_KAEBV__crt_scoped_get_last_error_reset@@@Z 000000018006fe90 f i libucrtd:output.obj
 0001:0006eea0       ?get_errno@__crt_cached_ptd_host@@QEAAAEAU?$cached@H@1@XZ 000000018006fea0 f i libucrtd:output.obj
 0001:0006eeb0       ?get_flags@__crt_stdio_stream@@QEBAJXZ 000000018006feb0 f i libucrtd:output.obj
 0001:0006eee0       ?get_locale@__crt_cached_ptd_host@@QEAAPEAU__crt_locale_pointers@@XZ 000000018006fee0 f i libucrtd:output.obj
 0001:0006ef10       ?get_parameter_type@?$positional_parameter_base@DV?$stream_output_adapter@D@__crt_stdio_output@@@__crt_stdio_output@@CA?AW4parameter_type@12@F@Z 000000018006ff10 f i libucrtd:output.obj
 0001:0006ef20       ?get_parameter_type@?$positional_parameter_base@DV?$stream_output_adapter@D@__crt_stdio_output@@@__crt_stdio_output@@CA?AW4parameter_type@12@G@Z 000000018006ff20 f i libucrtd:output.obj
 0001:0006ef30       ?get_parameter_type@?$positional_parameter_base@DV?$stream_output_adapter@D@__crt_stdio_output@@@__crt_stdio_output@@CA?AW4parameter_type@12@H@Z 000000018006ff30 f i libucrtd:output.obj
 0001:0006ef40       ?get_parameter_type@?$positional_parameter_base@DV?$stream_output_adapter@D@__crt_stdio_output@@@__crt_stdio_output@@CA?AW4parameter_type@12@I@Z 000000018006ff40 f i libucrtd:output.obj
 0001:0006ef50       ?get_parameter_type@?$positional_parameter_base@DV?$stream_output_adapter@D@__crt_stdio_output@@@__crt_stdio_output@@CA?AW4parameter_type@12@U_CRT_DOUBLE@@@Z 000000018006ff50 f i libucrtd:output.obj
 0001:0006ef60       ?get_parameter_type@?$positional_parameter_base@DV?$stream_output_adapter@D@__crt_stdio_output@@@__crt_stdio_output@@CA?AW4parameter_type@12@_J@Z 000000018006ff60 f i libucrtd:output.obj
 0001:0006ef70       ?get_parameter_type@?$positional_parameter_base@DV?$stream_output_adapter@D@__crt_stdio_output@@@__crt_stdio_output@@CA?AW4parameter_type@12@_K@Z 000000018006ff70 f i libucrtd:output.obj
 0001:0006ef80       ?get_parameter_type@?$positional_parameter_base@DV?$stream_output_adapter@D@__crt_stdio_output@@@__crt_stdio_output@@CA?AW4parameter_type@12@_W@Z 000000018006ff80 f i libucrtd:output.obj
 0001:0006ef90       ?get_parameter_type@?$positional_parameter_base@DV?$string_output_adapter@D@__crt_stdio_output@@@__crt_stdio_output@@CA?AW4parameter_type@12@F@Z 000000018006ff90 f i libucrtd:output.obj
 0001:0006efa0       ?get_parameter_type@?$positional_parameter_base@DV?$string_output_adapter@D@__crt_stdio_output@@@__crt_stdio_output@@CA?AW4parameter_type@12@G@Z 000000018006ffa0 f i libucrtd:output.obj
 0001:0006efb0       ?get_parameter_type@?$positional_parameter_base@DV?$string_output_adapter@D@__crt_stdio_output@@@__crt_stdio_output@@CA?AW4parameter_type@12@H@Z 000000018006ffb0 f i libucrtd:output.obj
 0001:0006efc0       ?get_parameter_type@?$positional_parameter_base@DV?$string_output_adapter@D@__crt_stdio_output@@@__crt_stdio_output@@CA?AW4parameter_type@12@I@Z 000000018006ffc0 f i libucrtd:output.obj
 0001:0006efd0       ?get_parameter_type@?$positional_parameter_base@DV?$string_output_adapter@D@__crt_stdio_output@@@__crt_stdio_output@@CA?AW4parameter_type@12@U_CRT_DOUBLE@@@Z 000000018006ffd0 f i libucrtd:output.obj
 0001:0006efe0       ?get_parameter_type@?$positional_parameter_base@DV?$string_output_adapter@D@__crt_stdio_output@@@__crt_stdio_output@@CA?AW4parameter_type@12@_J@Z 000000018006ffe0 f i libucrtd:output.obj
 0001:0006eff0       ?get_parameter_type@?$positional_parameter_base@DV?$string_output_adapter@D@__crt_stdio_output@@@__crt_stdio_output@@CA?AW4parameter_type@12@_K@Z 000000018006fff0 f i libucrtd:output.obj
 0001:0006f000       ?get_parameter_type@?$positional_parameter_base@DV?$string_output_adapter@D@__crt_stdio_output@@@__crt_stdio_output@@CA?AW4parameter_type@12@_W@Z 0000000180070000 f i libucrtd:output.obj
 0001:0006f010       ?get_parameter_type@?$positional_parameter_base@_WV?$stream_output_adapter@_W@__crt_stdio_output@@@__crt_stdio_output@@CA?AW4parameter_type@12@F@Z 0000000180070010 f i libucrtd:output.obj
 0001:0006f020       ?get_parameter_type@?$positional_parameter_base@_WV?$stream_output_adapter@_W@__crt_stdio_output@@@__crt_stdio_output@@CA?AW4parameter_type@12@G@Z 0000000180070020 f i libucrtd:output.obj
 0001:0006f030       ?get_parameter_type@?$positional_parameter_base@_WV?$stream_output_adapter@_W@__crt_stdio_output@@@__crt_stdio_output@@CA?AW4parameter_type@12@H@Z 0000000180070030 f i libucrtd:output.obj
 0001:0006f040       ?get_parameter_type@?$positional_parameter_base@_WV?$stream_output_adapter@_W@__crt_stdio_output@@@__crt_stdio_output@@CA?AW4parameter_type@12@I@Z 0000000180070040 f i libucrtd:output.obj
 0001:0006f050       ?get_parameter_type@?$positional_parameter_base@_WV?$stream_output_adapter@_W@__crt_stdio_output@@@__crt_stdio_output@@CA?AW4parameter_type@12@U_CRT_DOUBLE@@@Z 0000000180070050 f i libucrtd:output.obj
 0001:0006f060       ?get_parameter_type@?$positional_parameter_base@_WV?$stream_output_adapter@_W@__crt_stdio_output@@@__crt_stdio_output@@CA?AW4parameter_type@12@_J@Z 0000000180070060 f i libucrtd:output.obj
 0001:0006f070       ?get_parameter_type@?$positional_parameter_base@_WV?$stream_output_adapter@_W@__crt_stdio_output@@@__crt_stdio_output@@CA?AW4parameter_type@12@_K@Z 0000000180070070 f i libucrtd:output.obj
 0001:0006f080       ?get_parameter_type@?$positional_parameter_base@_WV?$stream_output_adapter@_W@__crt_stdio_output@@@__crt_stdio_output@@CA?AW4parameter_type@12@_W@Z 0000000180070080 f i libucrtd:output.obj
 0001:0006f090       ?get_parameter_type@?$positional_parameter_base@_WV?$string_output_adapter@_W@__crt_stdio_output@@@__crt_stdio_output@@CA?AW4parameter_type@12@F@Z 0000000180070090 f i libucrtd:output.obj
 0001:0006f0a0       ?get_parameter_type@?$positional_parameter_base@_WV?$string_output_adapter@_W@__crt_stdio_output@@@__crt_stdio_output@@CA?AW4parameter_type@12@G@Z 00000001800700a0 f i libucrtd:output.obj
 0001:0006f0b0       ?get_parameter_type@?$positional_parameter_base@_WV?$string_output_adapter@_W@__crt_stdio_output@@@__crt_stdio_output@@CA?AW4parameter_type@12@H@Z 00000001800700b0 f i libucrtd:output.obj
 0001:0006f0c0       ?get_parameter_type@?$positional_parameter_base@_WV?$string_output_adapter@_W@__crt_stdio_output@@@__crt_stdio_output@@CA?AW4parameter_type@12@I@Z 00000001800700c0 f i libucrtd:output.obj
 0001:0006f0d0       ?get_parameter_type@?$positional_parameter_base@_WV?$string_output_adapter@_W@__crt_stdio_output@@@__crt_stdio_output@@CA?AW4parameter_type@12@U_CRT_DOUBLE@@@Z 00000001800700d0 f i libucrtd:output.obj
 0001:0006f0e0       ?get_parameter_type@?$positional_parameter_base@_WV?$string_output_adapter@_W@__crt_stdio_output@@@__crt_stdio_output@@CA?AW4parameter_type@12@_J@Z 00000001800700e0 f i libucrtd:output.obj
 0001:0006f0f0       ?get_parameter_type@?$positional_parameter_base@_WV?$string_output_adapter@_W@__crt_stdio_output@@@__crt_stdio_output@@CA?AW4parameter_type@12@_K@Z 00000001800700f0 f i libucrtd:output.obj
 0001:0006f100       ?get_parameter_type@?$positional_parameter_base@_WV?$string_output_adapter@_W@__crt_stdio_output@@@__crt_stdio_output@@CA?AW4parameter_type@12@_W@Z 0000000180070100 f i libucrtd:output.obj
 0001:0006f110       ?get_raw_ptd@__crt_cached_ptd_host@@QEAAPEAU__acrt_ptd@@XZ 0000000180070110 f i libucrtd:output.obj
 0001:0006f130       ?has_flag@?$output_processor@DV?$stream_output_adapter@D@__crt_stdio_output@@V?$format_validation_base@DV?$stream_output_adapter@D@__crt_stdio_output@@@2@@__crt_stdio_output@@AEBA_NI@Z 0000000180070130 f i libucrtd:output.obj
 0001:0006f170       ?has_flag@?$output_processor@DV?$stream_output_adapter@D@__crt_stdio_output@@V?$positional_parameter_base@DV?$stream_output_adapter@D@__crt_stdio_output@@@2@@__crt_stdio_output@@AEBA_NI@Z 0000000180070170 f i libucrtd:output.obj
 0001:0006f1b0       ?has_flag@?$output_processor@DV?$stream_output_adapter@D@__crt_stdio_output@@V?$standard_base@DV?$stream_output_adapter@D@__crt_stdio_output@@@2@@__crt_stdio_output@@AEBA_NI@Z 00000001800701b0 f i libucrtd:output.obj
 0001:0006f1f0       ?has_flag@?$output_processor@DV?$string_output_adapter@D@__crt_stdio_output@@V?$format_validation_base@DV?$string_output_adapter@D@__crt_stdio_output@@@2@@__crt_stdio_output@@AEBA_NI@Z 00000001800701f0 f i libucrtd:output.obj
 0001:0006f230       ?has_flag@?$output_processor@DV?$string_output_adapter@D@__crt_stdio_output@@V?$positional_parameter_base@DV?$string_output_adapter@D@__crt_stdio_output@@@2@@__crt_stdio_output@@AEBA_NI@Z 0000000180070230 f i libucrtd:output.obj
 0001:0006f270       ?has_flag@?$output_processor@DV?$string_output_adapter@D@__crt_stdio_output@@V?$standard_base@DV?$string_output_adapter@D@__crt_stdio_output@@@2@@__crt_stdio_output@@AEBA_NI@Z 0000000180070270 f i libucrtd:output.obj
 0001:0006f2b0       ?has_flag@?$output_processor@_WV?$stream_output_adapter@_W@__crt_stdio_output@@V?$format_validation_base@_WV?$stream_output_adapter@_W@__crt_stdio_output@@@2@@__crt_stdio_output@@AEBA_NI@Z 00000001800702b0 f i libucrtd:output.obj
 0001:0006f2f0       ?has_flag@?$output_processor@_WV?$stream_output_adapter@_W@__crt_stdio_output@@V?$positional_parameter_base@_WV?$stream_output_adapter@_W@__crt_stdio_output@@@2@@__crt_stdio_output@@AEBA_NI@Z 00000001800702f0 f i libucrtd:output.obj
 0001:0006f330       ?has_flag@?$output_processor@_WV?$stream_output_adapter@_W@__crt_stdio_output@@V?$standard_base@_WV?$stream_output_adapter@_W@__crt_stdio_output@@@2@@__crt_stdio_output@@AEBA_NI@Z 0000000180070330 f i libucrtd:output.obj
 0001:0006f370       ?has_flag@?$output_processor@_WV?$string_output_adapter@_W@__crt_stdio_output@@V?$format_validation_base@_WV?$string_output_adapter@_W@__crt_stdio_output@@@2@@__crt_stdio_output@@AEBA_NI@Z 0000000180070370 f i libucrtd:output.obj
 0001:0006f3b0       ?has_flag@?$output_processor@_WV?$string_output_adapter@_W@__crt_stdio_output@@V?$positional_parameter_base@_WV?$string_output_adapter@_W@__crt_stdio_output@@@2@@__crt_stdio_output@@AEBA_NI@Z 00000001800703b0 f i libucrtd:output.obj
 0001:0006f3f0       ?has_flag@?$output_processor@_WV?$string_output_adapter@_W@__crt_stdio_output@@V?$standard_base@_WV?$string_output_adapter@_W@__crt_stdio_output@@@2@@__crt_stdio_output@@AEBA_NI@Z 00000001800703f0 f i libucrtd:output.obj
 0001:0006f430       ?is_positional_parameter_reappearance_consistent@?$positional_parameter_base@DV?$stream_output_adapter@D@__crt_stdio_output@@@__crt_stdio_output@@AEAA_NAEBUparameter_data@12@W4parameter_type@12@DW4length_modifier@2@@Z 0000000180070430 f i libucrtd:output.obj
 0001:0006f690       ?is_positional_parameter_reappearance_consistent@?$positional_parameter_base@DV?$string_output_adapter@D@__crt_stdio_output@@@__crt_stdio_output@@AEAA_NAEBUparameter_data@12@W4parameter_type@12@DW4length_modifier@2@@Z 0000000180070690 f i libucrtd:output.obj
 0001:0006f8f0       ?is_positional_parameter_reappearance_consistent@?$positional_parameter_base@_WV?$stream_output_adapter@_W@__crt_stdio_output@@@__crt_stdio_output@@AEAA_NAEBUparameter_data@12@W4parameter_type@12@_WW4length_modifier@2@@Z 00000001800708f0 f i libucrtd:output.obj
 0001:0006fb50       ?is_positional_parameter_reappearance_consistent@?$positional_parameter_base@_WV?$string_output_adapter@_W@__crt_stdio_output@@@__crt_stdio_output@@AEAA_NAEBUparameter_data@12@W4parameter_type@12@_WW4length_modifier@2@@Z 0000000180070b50 f i libucrtd:output.obj
 0001:0006fdb0       ?is_string_backed@__crt_stdio_stream@@QEBA_NXZ 0000000180070db0 f i libucrtd:output.obj
 0001:0006fdf0       ?maximum_signed_value@__crt_strtox@@YAJK@Z 0000000180070df0 f i libucrtd:output.obj
 0001:0006fe00       ?minimum_signed_value@__crt_strtox@@YAJK@Z 0000000180070e00 f i libucrtd:output.obj
 0001:0006fe10       ?narrow_null_string@?$output_processor@DV?$stream_output_adapter@D@__crt_stdio_output@@V?$format_validation_base@DV?$stream_output_adapter@D@__crt_stdio_output@@@2@@__crt_stdio_output@@CAPEADXZ 0000000180070e10 f i libucrtd:output.obj
 0001:0006fe20       ?narrow_null_string@?$output_processor@DV?$stream_output_adapter@D@__crt_stdio_output@@V?$positional_parameter_base@DV?$stream_output_adapter@D@__crt_stdio_output@@@2@@__crt_stdio_output@@CAPEADXZ 0000000180070e20 f i libucrtd:output.obj
 0001:0006fe30       ?narrow_null_string@?$output_processor@DV?$stream_output_adapter@D@__crt_stdio_output@@V?$standard_base@DV?$stream_output_adapter@D@__crt_stdio_output@@@2@@__crt_stdio_output@@CAPEADXZ 0000000180070e30 f i libucrtd:output.obj
 0001:0006fe40       ?narrow_null_string@?$output_processor@DV?$string_output_adapter@D@__crt_stdio_output@@V?$format_validation_base@DV?$string_output_adapter@D@__crt_stdio_output@@@2@@__crt_stdio_output@@CAPEADXZ 0000000180070e40 f i libucrtd:output.obj
 0001:0006fe50       ?narrow_null_string@?$output_processor@DV?$string_output_adapter@D@__crt_stdio_output@@V?$positional_parameter_base@DV?$string_output_adapter@D@__crt_stdio_output@@@2@@__crt_stdio_output@@CAPEADXZ 0000000180070e50 f i libucrtd:output.obj
 0001:0006fe60       ?narrow_null_string@?$output_processor@DV?$string_output_adapter@D@__crt_stdio_output@@V?$standard_base@DV?$string_output_adapter@D@__crt_stdio_output@@@2@@__crt_stdio_output@@CAPEADXZ 0000000180070e60 f i libucrtd:output.obj
 0001:0006fe70       ?narrow_null_string@?$output_processor@_WV?$stream_output_adapter@_W@__crt_stdio_output@@V?$format_validation_base@_WV?$stream_output_adapter@_W@__crt_stdio_output@@@2@@__crt_stdio_output@@CAPEADXZ 0000000180070e70 f i libucrtd:output.obj
 0001:0006fe80       ?narrow_null_string@?$output_processor@_WV?$stream_output_adapter@_W@__crt_stdio_output@@V?$positional_parameter_base@_WV?$stream_output_adapter@_W@__crt_stdio_output@@@2@@__crt_stdio_output@@CAPEADXZ 0000000180070e80 f i libucrtd:output.obj
 0001:0006fe90       ?narrow_null_string@?$output_processor@_WV?$stream_output_adapter@_W@__crt_stdio_output@@V?$standard_base@_WV?$stream_output_adapter@_W@__crt_stdio_output@@@2@@__crt_stdio_output@@CAPEADXZ 0000000180070e90 f i libucrtd:output.obj
 0001:0006fea0       ?narrow_null_string@?$output_processor@_WV?$string_output_adapter@_W@__crt_stdio_output@@V?$format_validation_base@_WV?$string_output_adapter@_W@__crt_stdio_output@@@2@@__crt_stdio_output@@CAPEADXZ 0000000180070ea0 f i libucrtd:output.obj
 0001:0006feb0       ?narrow_null_string@?$output_processor@_WV?$string_output_adapter@_W@__crt_stdio_output@@V?$positional_parameter_base@_WV?$string_output_adapter@_W@__crt_stdio_output@@@2@@__crt_stdio_output@@CAPEADXZ 0000000180070eb0 f i libucrtd:output.obj
 0001:0006fec0       ?narrow_null_string@?$output_processor@_WV?$string_output_adapter@_W@__crt_stdio_output@@V?$standard_base@_WV?$string_output_adapter@_W@__crt_stdio_output@@@2@@__crt_stdio_output@@CAPEADXZ 0000000180070ec0 f i libucrtd:output.obj
 0001:0006fed0       ?parse_digit@__crt_strtox@@YAID@Z 0000000180070ed0 f i libucrtd:output.obj
 0001:0006ff40       ?parse_digit@__crt_strtox@@YAI_W@Z 0000000180070f40 f i libucrtd:output.obj
 0001:0006ff90       ?parse_int_from_format_string@?$output_processor@DV?$stream_output_adapter@D@__crt_stdio_output@@V?$format_validation_base@DV?$stream_output_adapter@D@__crt_stdio_output@@@2@@__crt_stdio_output@@AEAA_NQEAH@Z 0000000180070f90 f i libucrtd:output.obj
 0001:00070090       ?parse_int_from_format_string@?$output_processor@DV?$stream_output_adapter@D@__crt_stdio_output@@V?$positional_parameter_base@DV?$stream_output_adapter@D@__crt_stdio_output@@@2@@__crt_stdio_output@@AEAA_NQEAH@Z 0000000180071090 f i libucrtd:output.obj
 0001:00070190       ?parse_int_from_format_string@?$output_processor@DV?$stream_output_adapter@D@__crt_stdio_output@@V?$standard_base@DV?$stream_output_adapter@D@__crt_stdio_output@@@2@@__crt_stdio_output@@AEAA_NQEAH@Z 0000000180071190 f i libucrtd:output.obj
 0001:00070290       ?parse_int_from_format_string@?$output_processor@DV?$string_output_adapter@D@__crt_stdio_output@@V?$format_validation_base@DV?$string_output_adapter@D@__crt_stdio_output@@@2@@__crt_stdio_output@@AEAA_NQEAH@Z 0000000180071290 f i libucrtd:output.obj
 0001:00070390       ?parse_int_from_format_string@?$output_processor@DV?$string_output_adapter@D@__crt_stdio_output@@V?$positional_parameter_base@DV?$string_output_adapter@D@__crt_stdio_output@@@2@@__crt_stdio_output@@AEAA_NQEAH@Z 0000000180071390 f i libucrtd:output.obj
 0001:00070490       ?parse_int_from_format_string@?$output_processor@DV?$string_output_adapter@D@__crt_stdio_output@@V?$standard_base@DV?$string_output_adapter@D@__crt_stdio_output@@@2@@__crt_stdio_output@@AEAA_NQEAH@Z 0000000180071490 f i libucrtd:output.obj
 0001:00070590       ?parse_int_from_format_string@?$output_processor@_WV?$stream_output_adapter@_W@__crt_stdio_output@@V?$format_validation_base@_WV?$stream_output_adapter@_W@__crt_stdio_output@@@2@@__crt_stdio_output@@AEAA_NQEAH@Z 0000000180071590 f i libucrtd:output.obj
 0001:00070690       ?parse_int_from_format_string@?$output_processor@_WV?$stream_output_adapter@_W@__crt_stdio_output@@V?$positional_parameter_base@_WV?$stream_output_adapter@_W@__crt_stdio_output@@@2@@__crt_stdio_output@@AEAA_NQEAH@Z 0000000180071690 f i libucrtd:output.obj
 0001:00070790       ?parse_int_from_format_string@?$output_processor@_WV?$stream_output_adapter@_W@__crt_stdio_output@@V?$standard_base@_WV?$stream_output_adapter@_W@__crt_stdio_output@@@2@@__crt_stdio_output@@AEAA_NQEAH@Z 0000000180071790 f i libucrtd:output.obj
 0001:00070890       ?parse_int_from_format_string@?$output_processor@_WV?$string_output_adapter@_W@__crt_stdio_output@@V?$format_validation_base@_WV?$string_output_adapter@_W@__crt_stdio_output@@@2@@__crt_stdio_output@@AEAA_NQEAH@Z 0000000180071890 f i libucrtd:output.obj
 0001:00070990       ?parse_int_from_format_string@?$output_processor@_WV?$string_output_adapter@_W@__crt_stdio_output@@V?$positional_parameter_base@_WV?$string_output_adapter@_W@__crt_stdio_output@@@2@@__crt_stdio_output@@AEAA_NQEAH@Z 0000000180071990 f i libucrtd:output.obj
 0001:00070a90       ?parse_int_from_format_string@?$output_processor@_WV?$string_output_adapter@_W@__crt_stdio_output@@V?$standard_base@_WV?$string_output_adapter@_W@__crt_stdio_output@@@2@@__crt_stdio_output@@AEAA_NQEAH@Z 0000000180071a90 f i libucrtd:output.obj
 0001:00070b90       ?process@?$output_processor@DV?$stream_output_adapter@D@__crt_stdio_output@@V?$format_validation_base@DV?$stream_output_adapter@D@__crt_stdio_output@@@2@@__crt_stdio_output@@QEAAHXZ 0000000180071b90 f i libucrtd:output.obj
 0001:00070f50       ?process@?$output_processor@DV?$stream_output_adapter@D@__crt_stdio_output@@V?$positional_parameter_base@DV?$stream_output_adapter@D@__crt_stdio_output@@@2@@__crt_stdio_output@@QEAAHXZ 0000000180071f50 f i libucrtd:output.obj
 0001:00071310       ?process@?$output_processor@DV?$stream_output_adapter@D@__crt_stdio_output@@V?$standard_base@DV?$stream_output_adapter@D@__crt_stdio_output@@@2@@__crt_stdio_output@@QEAAHXZ 0000000180072310 f i libucrtd:output.obj
 0001:000716d0       ?process@?$output_processor@DV?$string_output_adapter@D@__crt_stdio_output@@V?$format_validation_base@DV?$string_output_adapter@D@__crt_stdio_output@@@2@@__crt_stdio_output@@QEAAHXZ 00000001800726d0 f i libucrtd:output.obj
 0001:00071a90       ?process@?$output_processor@DV?$string_output_adapter@D@__crt_stdio_output@@V?$positional_parameter_base@DV?$string_output_adapter@D@__crt_stdio_output@@@2@@__crt_stdio_output@@QEAAHXZ 0000000180072a90 f i libucrtd:output.obj
 0001:00071e50       ?process@?$output_processor@DV?$string_output_adapter@D@__crt_stdio_output@@V?$standard_base@DV?$string_output_adapter@D@__crt_stdio_output@@@2@@__crt_stdio_output@@QEAAHXZ 0000000180072e50 f i libucrtd:output.obj
 0001:00072210       ?process@?$output_processor@_WV?$stream_output_adapter@_W@__crt_stdio_output@@V?$format_validation_base@_WV?$stream_output_adapter@_W@__crt_stdio_output@@@2@@__crt_stdio_output@@QEAAHXZ 0000000180073210 f i libucrtd:output.obj
 0001:000725d0       ?process@?$output_processor@_WV?$stream_output_adapter@_W@__crt_stdio_output@@V?$positional_parameter_base@_WV?$stream_output_adapter@_W@__crt_stdio_output@@@2@@__crt_stdio_output@@QEAAHXZ 00000001800735d0 f i libucrtd:output.obj
 0001:00072990       ?process@?$output_processor@_WV?$stream_output_adapter@_W@__crt_stdio_output@@V?$standard_base@_WV?$stream_output_adapter@_W@__crt_stdio_output@@@2@@__crt_stdio_output@@QEAAHXZ 0000000180073990 f i libucrtd:output.obj
 0001:00072d50       ?process@?$output_processor@_WV?$string_output_adapter@_W@__crt_stdio_output@@V?$format_validation_base@_WV?$string_output_adapter@_W@__crt_stdio_output@@@2@@__crt_stdio_output@@QEAAHXZ 0000000180073d50 f i libucrtd:output.obj
 0001:00073110       ?process@?$output_processor@_WV?$string_output_adapter@_W@__crt_stdio_output@@V?$positional_parameter_base@_WV?$string_output_adapter@_W@__crt_stdio_output@@@2@@__crt_stdio_output@@QEAAHXZ 0000000180074110 f i libucrtd:output.obj
 0001:000734d0       ?process@?$output_processor@_WV?$string_output_adapter@_W@__crt_stdio_output@@V?$standard_base@_WV?$string_output_adapter@_W@__crt_stdio_output@@@2@@__crt_stdio_output@@QEAAHXZ 00000001800744d0 f i libucrtd:output.obj
 0001:00073890       ?public_stream@__crt_stdio_stream@@QEBAPEAU_iobuf@@XZ 0000000180074890 f i libucrtd:output.obj
 0001:000738a0       ?restore_state@?$c_string_character_source@D@__crt_strtox@@QEAA_NQEBD@Z 00000001800748a0 f i libucrtd:output.obj
 0001:000738c0       ?restore_state@?$c_string_character_source@_W@__crt_strtox@@QEAA_NQEB_W@Z 00000001800748c0 f i libucrtd:output.obj
 0001:000738e0       ?save_state@?$c_string_character_source@D@__crt_strtox@@QEBAPEBDXZ 00000001800748e0 f i libucrtd:output.obj
 0001:000738f0       ?save_state@?$c_string_character_source@_W@__crt_strtox@@QEBAPEB_WXZ 00000001800748f0 f i libucrtd:output.obj
 0001:00073900       ?set@?$cached@H@__crt_cached_ptd_host@@QEAAHH@Z 0000000180074900 f i libucrtd:output.obj
 0001:00073930       ?set_flag@?$output_processor@DV?$stream_output_adapter@D@__crt_stdio_output@@V?$format_validation_base@DV?$stream_output_adapter@D@__crt_stdio_output@@@2@@__crt_stdio_output@@AEAAXI@Z 0000000180074930 f i libucrtd:output.obj
 0001:00073950       ?set_flag@?$output_processor@DV?$stream_output_adapter@D@__crt_stdio_output@@V?$positional_parameter_base@DV?$stream_output_adapter@D@__crt_stdio_output@@@2@@__crt_stdio_output@@AEAAXI@Z 0000000180074950 f i libucrtd:output.obj
 0001:00073970       ?set_flag@?$output_processor@DV?$stream_output_adapter@D@__crt_stdio_output@@V?$standard_base@DV?$stream_output_adapter@D@__crt_stdio_output@@@2@@__crt_stdio_output@@AEAAXI@Z 0000000180074970 f i libucrtd:output.obj
 0001:00073990       ?set_flag@?$output_processor@DV?$string_output_adapter@D@__crt_stdio_output@@V?$format_validation_base@DV?$string_output_adapter@D@__crt_stdio_output@@@2@@__crt_stdio_output@@AEAAXI@Z 0000000180074990 f i libucrtd:output.obj
 0001:000739b0       ?set_flag@?$output_processor@DV?$string_output_adapter@D@__crt_stdio_output@@V?$positional_parameter_base@DV?$string_output_adapter@D@__crt_stdio_output@@@2@@__crt_stdio_output@@AEAAXI@Z 00000001800749b0 f i libucrtd:output.obj
 0001:000739d0       ?set_flag@?$output_processor@DV?$string_output_adapter@D@__crt_stdio_output@@V?$standard_base@DV?$string_output_adapter@D@__crt_stdio_output@@@2@@__crt_stdio_output@@AEAAXI@Z 00000001800749d0 f i libucrtd:output.obj
 0001:000739f0       ?set_flag@?$output_processor@_WV?$stream_output_adapter@_W@__crt_stdio_output@@V?$format_validation_base@_WV?$stream_output_adapter@_W@__crt_stdio_output@@@2@@__crt_stdio_output@@AEAAXI@Z 00000001800749f0 f i libucrtd:output.obj
 0001:00073a10       ?set_flag@?$output_processor@_WV?$stream_output_adapter@_W@__crt_stdio_output@@V?$positional_parameter_base@_WV?$stream_output_adapter@_W@__crt_stdio_output@@@2@@__crt_stdio_output@@AEAAXI@Z 0000000180074a10 f i libucrtd:output.obj
 0001:00073a30       ?set_flag@?$output_processor@_WV?$stream_output_adapter@_W@__crt_stdio_output@@V?$standard_base@_WV?$stream_output_adapter@_W@__crt_stdio_output@@@2@@__crt_stdio_output@@AEAAXI@Z 0000000180074a30 f i libucrtd:output.obj
 0001:00073a50       ?set_flag@?$output_processor@_WV?$string_output_adapter@_W@__crt_stdio_output@@V?$format_validation_base@_WV?$string_output_adapter@_W@__crt_stdio_output@@@2@@__crt_stdio_output@@AEAAXI@Z 0000000180074a50 f i libucrtd:output.obj
 0001:00073a70       ?set_flag@?$output_processor@_WV?$string_output_adapter@_W@__crt_stdio_output@@V?$positional_parameter_base@_WV?$string_output_adapter@_W@__crt_stdio_output@@@2@@__crt_stdio_output@@AEAAXI@Z 0000000180074a70 f i libucrtd:output.obj
 0001:00073a90       ?set_flag@?$output_processor@_WV?$string_output_adapter@_W@__crt_stdio_output@@V?$standard_base@_WV?$string_output_adapter@_W@__crt_stdio_output@@@2@@__crt_stdio_output@@AEAAXI@Z 0000000180074a90 f i libucrtd:output.obj
 0001:00073ab0       ?should_format@?$positional_parameter_base@DV?$stream_output_adapter@D@__crt_stdio_output@@@__crt_stdio_output@@IEAA_NXZ 0000000180074ab0 f i libucrtd:output.obj
 0001:00073af0       ?should_format@?$positional_parameter_base@DV?$string_output_adapter@D@__crt_stdio_output@@@__crt_stdio_output@@IEAA_NXZ 0000000180074af0 f i libucrtd:output.obj
 0001:00073b30       ?should_format@?$positional_parameter_base@_WV?$stream_output_adapter@_W@__crt_stdio_output@@@__crt_stdio_output@@IEAA_NXZ 0000000180074b30 f i libucrtd:output.obj
 0001:00073b70       ?should_format@?$positional_parameter_base@_WV?$string_output_adapter@_W@__crt_stdio_output@@@__crt_stdio_output@@IEAA_NXZ 0000000180074b70 f i libucrtd:output.obj
 0001:00073bb0       ?should_format@?$standard_base@DV?$stream_output_adapter@D@__crt_stdio_output@@@__crt_stdio_output@@IEAA_NXZ 0000000180074bb0 f i libucrtd:output.obj
 0001:00073bc0       ?should_format@?$standard_base@DV?$string_output_adapter@D@__crt_stdio_output@@@__crt_stdio_output@@IEAA_NXZ 0000000180074bc0 f i libucrtd:output.obj
 0001:00073bd0       ?should_format@?$standard_base@_WV?$stream_output_adapter@_W@__crt_stdio_output@@@__crt_stdio_output@@IEAA_NXZ 0000000180074bd0 f i libucrtd:output.obj
 0001:00073be0       ?should_format@?$standard_base@_WV?$string_output_adapter@_W@__crt_stdio_output@@@__crt_stdio_output@@IEAA_NXZ 0000000180074be0 f i libucrtd:output.obj
 0001:00073bf0       ?should_skip_normal_state_processing@?$positional_parameter_base@DV?$stream_output_adapter@D@__crt_stdio_output@@@__crt_stdio_output@@IEAA_NXZ 0000000180074bf0 f i libucrtd:output.obj
 0001:00073c40       ?should_skip_normal_state_processing@?$positional_parameter_base@DV?$string_output_adapter@D@__crt_stdio_output@@@__crt_stdio_output@@IEAA_NXZ 0000000180074c40 f i libucrtd:output.obj
 0001:00073c90       ?should_skip_normal_state_processing@?$positional_parameter_base@_WV?$stream_output_adapter@_W@__crt_stdio_output@@@__crt_stdio_output@@IEAA_NXZ 0000000180074c90 f i libucrtd:output.obj
 0001:00073ce0       ?should_skip_normal_state_processing@?$positional_parameter_base@_WV?$string_output_adapter@_W@__crt_stdio_output@@@__crt_stdio_output@@IEAA_NXZ 0000000180074ce0 f i libucrtd:output.obj
 0001:00073d30       ?should_skip_normal_state_processing@?$standard_base@DV?$stream_output_adapter@D@__crt_stdio_output@@@__crt_stdio_output@@IEAA_NXZ 0000000180074d30 f i libucrtd:output.obj
 0001:00073d40       ?should_skip_normal_state_processing@?$standard_base@DV?$string_output_adapter@D@__crt_stdio_output@@@__crt_stdio_output@@IEAA_NXZ 0000000180074d40 f i libucrtd:output.obj
 0001:00073d50       ?should_skip_normal_state_processing@?$standard_base@_WV?$stream_output_adapter@_W@__crt_stdio_output@@@__crt_stdio_output@@IEAA_NXZ 0000000180074d50 f i libucrtd:output.obj
 0001:00073d60       ?should_skip_normal_state_processing@?$standard_base@_WV?$string_output_adapter@_W@__crt_stdio_output@@@__crt_stdio_output@@IEAA_NXZ 0000000180074d60 f i libucrtd:output.obj
 0001:00073d70       ?should_skip_type_state_output@?$positional_parameter_base@DV?$stream_output_adapter@D@__crt_stdio_output@@@__crt_stdio_output@@IEBA_NXZ 0000000180074d70 f i libucrtd:output.obj
 0001:00073db0       ?should_skip_type_state_output@?$positional_parameter_base@DV?$string_output_adapter@D@__crt_stdio_output@@@__crt_stdio_output@@IEBA_NXZ 0000000180074db0 f i libucrtd:output.obj
 0001:00073df0       ?should_skip_type_state_output@?$positional_parameter_base@_WV?$stream_output_adapter@_W@__crt_stdio_output@@@__crt_stdio_output@@IEBA_NXZ 0000000180074df0 f i libucrtd:output.obj
 0001:00073e30       ?should_skip_type_state_output@?$positional_parameter_base@_WV?$string_output_adapter@_W@__crt_stdio_output@@@__crt_stdio_output@@IEBA_NXZ 0000000180074e30 f i libucrtd:output.obj
 0001:00073e70       ?should_skip_type_state_output@?$standard_base@DV?$stream_output_adapter@D@__crt_stdio_output@@@__crt_stdio_output@@IEBA_NXZ 0000000180074e70 f i libucrtd:output.obj
 0001:00073e80       ?should_skip_type_state_output@?$standard_base@DV?$string_output_adapter@D@__crt_stdio_output@@@__crt_stdio_output@@IEBA_NXZ 0000000180074e80 f i libucrtd:output.obj
 0001:00073e90       ?should_skip_type_state_output@?$standard_base@_WV?$stream_output_adapter@_W@__crt_stdio_output@@@__crt_stdio_output@@IEBA_NXZ 0000000180074e90 f i libucrtd:output.obj
 0001:00073ea0       ?should_skip_type_state_output@?$standard_base@_WV?$string_output_adapter@_W@__crt_stdio_output@@@__crt_stdio_output@@IEBA_NXZ 0000000180074ea0 f i libucrtd:output.obj
 0001:00073eb0       ?state_case_dot@?$output_processor@DV?$stream_output_adapter@D@__crt_stdio_output@@V?$format_validation_base@DV?$stream_output_adapter@D@__crt_stdio_output@@@2@@__crt_stdio_output@@AEAA_NXZ 0000000180074eb0 f i libucrtd:output.obj
 0001:00073ed0       ?state_case_dot@?$output_processor@DV?$stream_output_adapter@D@__crt_stdio_output@@V?$positional_parameter_base@DV?$stream_output_adapter@D@__crt_stdio_output@@@2@@__crt_stdio_output@@AEAA_NXZ 0000000180074ed0 f i libucrtd:output.obj
 0001:00073ef0       ?state_case_dot@?$output_processor@DV?$stream_output_adapter@D@__crt_stdio_output@@V?$standard_base@DV?$stream_output_adapter@D@__crt_stdio_output@@@2@@__crt_stdio_output@@AEAA_NXZ 0000000180074ef0 f i libucrtd:output.obj
 0001:00073f10       ?state_case_dot@?$output_processor@DV?$string_output_adapter@D@__crt_stdio_output@@V?$format_validation_base@DV?$string_output_adapter@D@__crt_stdio_output@@@2@@__crt_stdio_output@@AEAA_NXZ 0000000180074f10 f i libucrtd:output.obj
 0001:00073f30       ?state_case_dot@?$output_processor@DV?$string_output_adapter@D@__crt_stdio_output@@V?$positional_parameter_base@DV?$string_output_adapter@D@__crt_stdio_output@@@2@@__crt_stdio_output@@AEAA_NXZ 0000000180074f30 f i libucrtd:output.obj
 0001:00073f50       ?state_case_dot@?$output_processor@DV?$string_output_adapter@D@__crt_stdio_output@@V?$standard_base@DV?$string_output_adapter@D@__crt_stdio_output@@@2@@__crt_stdio_output@@AEAA_NXZ 0000000180074f50 f i libucrtd:output.obj
 0001:00073f70       ?state_case_dot@?$output_processor@_WV?$stream_output_adapter@_W@__crt_stdio_output@@V?$format_validation_base@_WV?$stream_output_adapter@_W@__crt_stdio_output@@@2@@__crt_stdio_output@@AEAA_NXZ 0000000180074f70 f i libucrtd:output.obj
 0001:00073f90       ?state_case_dot@?$output_processor@_WV?$stream_output_adapter@_W@__crt_stdio_output@@V?$positional_parameter_base@_WV?$stream_output_adapter@_W@__crt_stdio_output@@@2@@__crt_stdio_output@@AEAA_NXZ 0000000180074f90 f i libucrtd:output.obj
 0001:00073fb0       ?state_case_dot@?$output_processor@_WV?$stream_output_adapter@_W@__crt_stdio_output@@V?$standard_base@_WV?$stream_output_adapter@_W@__crt_stdio_output@@@2@@__crt_stdio_output@@AEAA_NXZ 0000000180074fb0 f i libucrtd:output.obj
 0001:00073fd0       ?state_case_dot@?$output_processor@_WV?$string_output_adapter@_W@__crt_stdio_output@@V?$format_validation_base@_WV?$string_output_adapter@_W@__crt_stdio_output@@@2@@__crt_stdio_output@@AEAA_NXZ 0000000180074fd0 f i libucrtd:output.obj
 0001:00073ff0       ?state_case_dot@?$output_processor@_WV?$string_output_adapter@_W@__crt_stdio_output@@V?$positional_parameter_base@_WV?$string_output_adapter@_W@__crt_stdio_output@@@2@@__crt_stdio_output@@AEAA_NXZ 0000000180074ff0 f i libucrtd:output.obj
 0001:00074010       ?state_case_dot@?$output_processor@_WV?$string_output_adapter@_W@__crt_stdio_output@@V?$standard_base@_WV?$string_output_adapter@_W@__crt_stdio_output@@@2@@__crt_stdio_output@@AEAA_NXZ 0000000180075010 f i libucrtd:output.obj
 0001:00074030       ?state_case_flag@?$output_processor@DV?$stream_output_adapter@D@__crt_stdio_output@@V?$format_validation_base@DV?$stream_output_adapter@D@__crt_stdio_output@@@2@@__crt_stdio_output@@AEAA_NXZ 0000000180075030 f i libucrtd:output.obj
 0001:000740d0       ?state_case_flag@?$output_processor@DV?$stream_output_adapter@D@__crt_stdio_output@@V?$positional_parameter_base@DV?$stream_output_adapter@D@__crt_stdio_output@@@2@@__crt_stdio_output@@AEAA_NXZ 00000001800750d0 f i libucrtd:output.obj
 0001:00074170       ?state_case_flag@?$output_processor@DV?$stream_output_adapter@D@__crt_stdio_output@@V?$standard_base@DV?$stream_output_adapter@D@__crt_stdio_output@@@2@@__crt_stdio_output@@AEAA_NXZ 0000000180075170 f i libucrtd:output.obj
 0001:00074210       ?state_case_flag@?$output_processor@DV?$string_output_adapter@D@__crt_stdio_output@@V?$format_validation_base@DV?$string_output_adapter@D@__crt_stdio_output@@@2@@__crt_stdio_output@@AEAA_NXZ 0000000180075210 f i libucrtd:output.obj
 0001:000742b0       ?state_case_flag@?$output_processor@DV?$string_output_adapter@D@__crt_stdio_output@@V?$positional_parameter_base@DV?$string_output_adapter@D@__crt_stdio_output@@@2@@__crt_stdio_output@@AEAA_NXZ 00000001800752b0 f i libucrtd:output.obj
 0001:00074350       ?state_case_flag@?$output_processor@DV?$string_output_adapter@D@__crt_stdio_output@@V?$standard_base@DV?$string_output_adapter@D@__crt_stdio_output@@@2@@__crt_stdio_output@@AEAA_NXZ 0000000180075350 f i libucrtd:output.obj
 0001:000743f0       ?state_case_flag@?$output_processor@_WV?$stream_output_adapter@_W@__crt_stdio_output@@V?$format_validation_base@_WV?$stream_output_adapter@_W@__crt_stdio_output@@@2@@__crt_stdio_output@@AEAA_NXZ 00000001800753f0 f i libucrtd:output.obj
 0001:00074490       ?state_case_flag@?$output_processor@_WV?$stream_output_adapter@_W@__crt_stdio_output@@V?$positional_parameter_base@_WV?$stream_output_adapter@_W@__crt_stdio_output@@@2@@__crt_stdio_output@@AEAA_NXZ 0000000180075490 f i libucrtd:output.obj
 0001:00074530       ?state_case_flag@?$output_processor@_WV?$stream_output_adapter@_W@__crt_stdio_output@@V?$standard_base@_WV?$stream_output_adapter@_W@__crt_stdio_output@@@2@@__crt_stdio_output@@AEAA_NXZ 0000000180075530 f i libucrtd:output.obj
 0001:000745d0       ?state_case_flag@?$output_processor@_WV?$string_output_adapter@_W@__crt_stdio_output@@V?$format_validation_base@_WV?$string_output_adapter@_W@__crt_stdio_output@@@2@@__crt_stdio_output@@AEAA_NXZ 00000001800755d0 f i libucrtd:output.obj
 0001:00074670       ?state_case_flag@?$output_processor@_WV?$string_output_adapter@_W@__crt_stdio_output@@V?$positional_parameter_base@_WV?$string_output_adapter@_W@__crt_stdio_output@@@2@@__crt_stdio_output@@AEAA_NXZ 0000000180075670 f i libucrtd:output.obj
 0001:00074710       ?state_case_flag@?$output_processor@_WV?$string_output_adapter@_W@__crt_stdio_output@@V?$standard_base@_WV?$string_output_adapter@_W@__crt_stdio_output@@@2@@__crt_stdio_output@@AEAA_NXZ 0000000180075710 f i libucrtd:output.obj
 0001:000747b0       ?state_case_normal@?$output_processor@DV?$stream_output_adapter@D@__crt_stdio_output@@V?$format_validation_base@DV?$stream_output_adapter@D@__crt_stdio_output@@@2@@__crt_stdio_output@@AEAA_NXZ 00000001800757b0 f i libucrtd:output.obj
 0001:000748b0       ?state_case_normal@?$output_processor@DV?$stream_output_adapter@D@__crt_stdio_output@@V?$positional_parameter_base@DV?$stream_output_adapter@D@__crt_stdio_output@@@2@@__crt_stdio_output@@AEAA_NXZ 00000001800758b0 f i libucrtd:output.obj
 0001:000749b0       ?state_case_normal@?$output_processor@DV?$stream_output_adapter@D@__crt_stdio_output@@V?$standard_base@DV?$stream_output_adapter@D@__crt_stdio_output@@@2@@__crt_stdio_output@@AEAA_NXZ 00000001800759b0 f i libucrtd:output.obj
 0001:00074ab0       ?state_case_normal@?$output_processor@DV?$string_output_adapter@D@__crt_stdio_output@@V?$format_validation_base@DV?$string_output_adapter@D@__crt_stdio_output@@@2@@__crt_stdio_output@@AEAA_NXZ 0000000180075ab0 f i libucrtd:output.obj
 0001:00074bb0       ?state_case_normal@?$output_processor@DV?$string_output_adapter@D@__crt_stdio_output@@V?$positional_parameter_base@DV?$string_output_adapter@D@__crt_stdio_output@@@2@@__crt_stdio_output@@AEAA_NXZ 0000000180075bb0 f i libucrtd:output.obj
 0001:00074cb0       ?state_case_normal@?$output_processor@DV?$string_output_adapter@D@__crt_stdio_output@@V?$standard_base@DV?$string_output_adapter@D@__crt_stdio_output@@@2@@__crt_stdio_output@@AEAA_NXZ 0000000180075cb0 f i libucrtd:output.obj
 0001:00074db0       ?state_case_normal@?$output_processor@_WV?$stream_output_adapter@_W@__crt_stdio_output@@V?$format_validation_base@_WV?$stream_output_adapter@_W@__crt_stdio_output@@@2@@__crt_stdio_output@@AEAA_NXZ 0000000180075db0 f i libucrtd:output.obj
 0001:00074eb0       ?state_case_normal@?$output_processor@_WV?$stream_output_adapter@_W@__crt_stdio_output@@V?$positional_parameter_base@_WV?$stream_output_adapter@_W@__crt_stdio_output@@@2@@__crt_stdio_output@@AEAA_NXZ 0000000180075eb0 f i libucrtd:output.obj
 0001:00074fb0       ?state_case_normal@?$output_processor@_WV?$stream_output_adapter@_W@__crt_stdio_output@@V?$standard_base@_WV?$stream_output_adapter@_W@__crt_stdio_output@@@2@@__crt_stdio_output@@AEAA_NXZ 0000000180075fb0 f i libucrtd:output.obj
 0001:000750b0       ?state_case_normal@?$output_processor@_WV?$string_output_adapter@_W@__crt_stdio_output@@V?$format_validation_base@_WV?$string_output_adapter@_W@__crt_stdio_output@@@2@@__crt_stdio_output@@AEAA_NXZ 00000001800760b0 f i libucrtd:output.obj
 0001:000751b0       ?state_case_normal@?$output_processor@_WV?$string_output_adapter@_W@__crt_stdio_output@@V?$positional_parameter_base@_WV?$string_output_adapter@_W@__crt_stdio_output@@@2@@__crt_stdio_output@@AEAA_NXZ 00000001800761b0 f i libucrtd:output.obj
 0001:000752b0       ?state_case_normal@?$output_processor@_WV?$string_output_adapter@_W@__crt_stdio_output@@V?$standard_base@_WV?$string_output_adapter@_W@__crt_stdio_output@@@2@@__crt_stdio_output@@AEAA_NXZ 00000001800762b0 f i libucrtd:output.obj
 0001:000753b0       ?state_case_normal_common@?$output_processor@DV?$stream_output_adapter@D@__crt_stdio_output@@V?$format_validation_base@DV?$stream_output_adapter@D@__crt_stdio_output@@@2@@__crt_stdio_output@@AEAA_NXZ 00000001800763b0 f i libucrtd:output.obj
 0001:00075410       ?state_case_normal_common@?$output_processor@DV?$stream_output_adapter@D@__crt_stdio_output@@V?$positional_parameter_base@DV?$stream_output_adapter@D@__crt_stdio_output@@@2@@__crt_stdio_output@@AEAA_NXZ 0000000180076410 f i libucrtd:output.obj
 0001:00075470       ?state_case_normal_common@?$output_processor@DV?$stream_output_adapter@D@__crt_stdio_output@@V?$standard_base@DV?$stream_output_adapter@D@__crt_stdio_output@@@2@@__crt_stdio_output@@AEAA_NXZ 0000000180076470 f i libucrtd:output.obj
 0001:000754d0       ?state_case_normal_common@?$output_processor@DV?$string_output_adapter@D@__crt_stdio_output@@V?$format_validation_base@DV?$string_output_adapter@D@__crt_stdio_output@@@2@@__crt_stdio_output@@AEAA_NXZ 00000001800764d0 f i libucrtd:output.obj
 0001:00075530       ?state_case_normal_common@?$output_processor@DV?$string_output_adapter@D@__crt_stdio_output@@V?$positional_parameter_base@DV?$string_output_adapter@D@__crt_stdio_output@@@2@@__crt_stdio_output@@AEAA_NXZ 0000000180076530 f i libucrtd:output.obj
 0001:00075590       ?state_case_normal_common@?$output_processor@DV?$string_output_adapter@D@__crt_stdio_output@@V?$standard_base@DV?$string_output_adapter@D@__crt_stdio_output@@@2@@__crt_stdio_output@@AEAA_NXZ 0000000180076590 f i libucrtd:output.obj
 0001:000755f0       ?state_case_normal_common@?$output_processor@_WV?$stream_output_adapter@_W@__crt_stdio_output@@V?$format_validation_base@_WV?$stream_output_adapter@_W@__crt_stdio_output@@@2@@__crt_stdio_output@@AEAA_NXZ 00000001800765f0 f i libucrtd:output.obj
 0001:00075650       ?state_case_normal_common@?$output_processor@_WV?$stream_output_adapter@_W@__crt_stdio_output@@V?$positional_parameter_base@_WV?$stream_output_adapter@_W@__crt_stdio_output@@@2@@__crt_stdio_output@@AEAA_NXZ 0000000180076650 f i libucrtd:output.obj
 0001:000756b0       ?state_case_normal_common@?$output_processor@_WV?$stream_output_adapter@_W@__crt_stdio_output@@V?$standard_base@_WV?$stream_output_adapter@_W@__crt_stdio_output@@@2@@__crt_stdio_output@@AEAA_NXZ 00000001800766b0 f i libucrtd:output.obj
 0001:00075710       ?state_case_normal_common@?$output_processor@_WV?$string_output_adapter@_W@__crt_stdio_output@@V?$format_validation_base@_WV?$string_output_adapter@_W@__crt_stdio_output@@@2@@__crt_stdio_output@@AEAA_NXZ 0000000180076710 f i libucrtd:output.obj
 0001:00075770       ?state_case_normal_common@?$output_processor@_WV?$string_output_adapter@_W@__crt_stdio_output@@V?$positional_parameter_base@_WV?$string_output_adapter@_W@__crt_stdio_output@@@2@@__crt_stdio_output@@AEAA_NXZ 0000000180076770 f i libucrtd:output.obj
 0001:000757d0       ?state_case_normal_common@?$output_processor@_WV?$string_output_adapter@_W@__crt_stdio_output@@V?$standard_base@_WV?$string_output_adapter@_W@__crt_stdio_output@@@2@@__crt_stdio_output@@AEAA_NXZ 00000001800767d0 f i libucrtd:output.obj
 0001:00075830       ?state_case_normal_tchar@?$output_processor@DV?$stream_output_adapter@D@__crt_stdio_output@@V?$format_validation_base@DV?$stream_output_adapter@D@__crt_stdio_output@@@2@@__crt_stdio_output@@AEAA_ND@Z 0000000180076830 f i libucrtd:output.obj
 0001:000759c0       ?state_case_normal_tchar@?$output_processor@DV?$stream_output_adapter@D@__crt_stdio_output@@V?$positional_parameter_base@DV?$stream_output_adapter@D@__crt_stdio_output@@@2@@__crt_stdio_output@@AEAA_ND@Z 00000001800769c0 f i libucrtd:output.obj
 0001:00075b50       ?state_case_normal_tchar@?$output_processor@DV?$stream_output_adapter@D@__crt_stdio_output@@V?$standard_base@DV?$stream_output_adapter@D@__crt_stdio_output@@@2@@__crt_stdio_output@@AEAA_ND@Z 0000000180076b50 f i libucrtd:output.obj
 0001:00075ce0       ?state_case_normal_tchar@?$output_processor@DV?$string_output_adapter@D@__crt_stdio_output@@V?$format_validation_base@DV?$string_output_adapter@D@__crt_stdio_output@@@2@@__crt_stdio_output@@AEAA_ND@Z 0000000180076ce0 f i libucrtd:output.obj
 0001:00075e70       ?state_case_normal_tchar@?$output_processor@DV?$string_output_adapter@D@__crt_stdio_output@@V?$positional_parameter_base@DV?$string_output_adapter@D@__crt_stdio_output@@@2@@__crt_stdio_output@@AEAA_ND@Z 0000000180076e70 f i libucrtd:output.obj
 0001:00076000       ?state_case_normal_tchar@?$output_processor@DV?$string_output_adapter@D@__crt_stdio_output@@V?$standard_base@DV?$string_output_adapter@D@__crt_stdio_output@@@2@@__crt_stdio_output@@AEAA_ND@Z 0000000180077000 f i libucrtd:output.obj
 0001:00076190       ?state_case_normal_tchar@?$output_processor@_WV?$stream_output_adapter@_W@__crt_stdio_output@@V?$format_validation_base@_WV?$stream_output_adapter@_W@__crt_stdio_output@@@2@@__crt_stdio_output@@AEAA_N_W@Z 0000000180077190 f i libucrtd:output.obj
 0001:000761b0       ?state_case_normal_tchar@?$output_processor@_WV?$stream_output_adapter@_W@__crt_stdio_output@@V?$positional_parameter_base@_WV?$stream_output_adapter@_W@__crt_stdio_output@@@2@@__crt_stdio_output@@AEAA_N_W@Z 00000001800771b0 f i libucrtd:output.obj
 0001:000761d0       ?state_case_normal_tchar@?$output_processor@_WV?$stream_output_adapter@_W@__crt_stdio_output@@V?$standard_base@_WV?$stream_output_adapter@_W@__crt_stdio_output@@@2@@__crt_stdio_output@@AEAA_N_W@Z 00000001800771d0 f i libucrtd:output.obj
 0001:000761f0       ?state_case_normal_tchar@?$output_processor@_WV?$string_output_adapter@_W@__crt_stdio_output@@V?$format_validation_base@_WV?$string_output_adapter@_W@__crt_stdio_output@@@2@@__crt_stdio_output@@AEAA_N_W@Z 00000001800771f0 f i libucrtd:output.obj
 0001:00076210       ?state_case_normal_tchar@?$output_processor@_WV?$string_output_adapter@_W@__crt_stdio_output@@V?$positional_parameter_base@_WV?$string_output_adapter@_W@__crt_stdio_output@@@2@@__crt_stdio_output@@AEAA_N_W@Z 0000000180077210 f i libucrtd:output.obj
 0001:00076230       ?state_case_normal_tchar@?$output_processor@_WV?$string_output_adapter@_W@__crt_stdio_output@@V?$standard_base@_WV?$string_output_adapter@_W@__crt_stdio_output@@@2@@__crt_stdio_output@@AEAA_N_W@Z 0000000180077230 f i libucrtd:output.obj
 0001:00076250       ?state_case_percent@?$output_processor@DV?$stream_output_adapter@D@__crt_stdio_output@@V?$format_validation_base@DV?$stream_output_adapter@D@__crt_stdio_output@@@2@@__crt_stdio_output@@AEAA_NXZ 0000000180077250 f i libucrtd:output.obj
 0001:000762a0       ?state_case_percent@?$output_processor@DV?$stream_output_adapter@D@__crt_stdio_output@@V?$positional_parameter_base@DV?$stream_output_adapter@D@__crt_stdio_output@@@2@@__crt_stdio_output@@AEAA_NXZ 00000001800772a0 f i libucrtd:output.obj
 0001:000762f0       ?state_case_percent@?$output_processor@DV?$stream_output_adapter@D@__crt_stdio_output@@V?$standard_base@DV?$stream_output_adapter@D@__crt_stdio_output@@@2@@__crt_stdio_output@@AEAA_NXZ 00000001800772f0 f i libucrtd:output.obj
 0001:00076340       ?state_case_percent@?$output_processor@DV?$string_output_adapter@D@__crt_stdio_output@@V?$format_validation_base@DV?$string_output_adapter@D@__crt_stdio_output@@@2@@__crt_stdio_output@@AEAA_NXZ 0000000180077340 f i libucrtd:output.obj
 0001:00076390       ?state_case_percent@?$output_processor@DV?$string_output_adapter@D@__crt_stdio_output@@V?$positional_parameter_base@DV?$string_output_adapter@D@__crt_stdio_output@@@2@@__crt_stdio_output@@AEAA_NXZ 0000000180077390 f i libucrtd:output.obj
 0001:000763e0       ?state_case_percent@?$output_processor@DV?$string_output_adapter@D@__crt_stdio_output@@V?$standard_base@DV?$string_output_adapter@D@__crt_stdio_output@@@2@@__crt_stdio_output@@AEAA_NXZ 00000001800773e0 f i libucrtd:output.obj
 0001:00076430       ?state_case_percent@?$output_processor@_WV?$stream_output_adapter@_W@__crt_stdio_output@@V?$format_validation_base@_WV?$stream_output_adapter@_W@__crt_stdio_output@@@2@@__crt_stdio_output@@AEAA_NXZ 0000000180077430 f i libucrtd:output.obj
 0001:00076480       ?state_case_percent@?$output_processor@_WV?$stream_output_adapter@_W@__crt_stdio_output@@V?$positional_parameter_base@_WV?$stream_output_adapter@_W@__crt_stdio_output@@@2@@__crt_stdio_output@@AEAA_NXZ 0000000180077480 f i libucrtd:output.obj
 0001:000764d0       ?state_case_percent@?$output_processor@_WV?$stream_output_adapter@_W@__crt_stdio_output@@V?$standard_base@_WV?$stream_output_adapter@_W@__crt_stdio_output@@@2@@__crt_stdio_output@@AEAA_NXZ 00000001800774d0 f i libucrtd:output.obj
 0001:00076520       ?state_case_percent@?$output_processor@_WV?$string_output_adapter@_W@__crt_stdio_output@@V?$format_validation_base@_WV?$string_output_adapter@_W@__crt_stdio_output@@@2@@__crt_stdio_output@@AEAA_NXZ 0000000180077520 f i libucrtd:output.obj
 0001:00076570       ?state_case_percent@?$output_processor@_WV?$string_output_adapter@_W@__crt_stdio_output@@V?$positional_parameter_base@_WV?$string_output_adapter@_W@__crt_stdio_output@@@2@@__crt_stdio_output@@AEAA_NXZ 0000000180077570 f i libucrtd:output.obj
 0001:000765c0       ?state_case_percent@?$output_processor@_WV?$string_output_adapter@_W@__crt_stdio_output@@V?$standard_base@_WV?$string_output_adapter@_W@__crt_stdio_output@@@2@@__crt_stdio_output@@AEAA_NXZ 00000001800775c0 f i libucrtd:output.obj
 0001:00076610       ?state_case_precision@?$output_processor@DV?$stream_output_adapter@D@__crt_stdio_output@@V?$format_validation_base@DV?$stream_output_adapter@D@__crt_stdio_output@@@2@@__crt_stdio_output@@AEAA_NXZ 0000000180077610 f i libucrtd:output.obj
 0001:00076690       ?state_case_precision@?$output_processor@DV?$stream_output_adapter@D@__crt_stdio_output@@V?$positional_parameter_base@DV?$stream_output_adapter@D@__crt_stdio_output@@@2@@__crt_stdio_output@@AEAA_NXZ 0000000180077690 f i libucrtd:output.obj
 0001:00076710       ?state_case_precision@?$output_processor@DV?$stream_output_adapter@D@__crt_stdio_output@@V?$standard_base@DV?$stream_output_adapter@D@__crt_stdio_output@@@2@@__crt_stdio_output@@AEAA_NXZ 0000000180077710 f i libucrtd:output.obj
 0001:00076790       ?state_case_precision@?$output_processor@DV?$string_output_adapter@D@__crt_stdio_output@@V?$format_validation_base@DV?$string_output_adapter@D@__crt_stdio_output@@@2@@__crt_stdio_output@@AEAA_NXZ 0000000180077790 f i libucrtd:output.obj
 0001:00076810       ?state_case_precision@?$output_processor@DV?$string_output_adapter@D@__crt_stdio_output@@V?$positional_parameter_base@DV?$string_output_adapter@D@__crt_stdio_output@@@2@@__crt_stdio_output@@AEAA_NXZ 0000000180077810 f i libucrtd:output.obj
 0001:00076890       ?state_case_precision@?$output_processor@DV?$string_output_adapter@D@__crt_stdio_output@@V?$standard_base@DV?$string_output_adapter@D@__crt_stdio_output@@@2@@__crt_stdio_output@@AEAA_NXZ 0000000180077890 f i libucrtd:output.obj
 0001:00076910       ?state_case_precision@?$output_processor@_WV?$stream_output_adapter@_W@__crt_stdio_output@@V?$format_validation_base@_WV?$stream_output_adapter@_W@__crt_stdio_output@@@2@@__crt_stdio_output@@AEAA_NXZ 0000000180077910 f i libucrtd:output.obj
 0001:00076990       ?state_case_precision@?$output_processor@_WV?$stream_output_adapter@_W@__crt_stdio_output@@V?$positional_parameter_base@_WV?$stream_output_adapter@_W@__crt_stdio_output@@@2@@__crt_stdio_output@@AEAA_NXZ 0000000180077990 f i libucrtd:output.obj
 0001:00076a10       ?state_case_precision@?$output_processor@_WV?$stream_output_adapter@_W@__crt_stdio_output@@V?$standard_base@_WV?$stream_output_adapter@_W@__crt_stdio_output@@@2@@__crt_stdio_output@@AEAA_NXZ 0000000180077a10 f i libucrtd:output.obj
 0001:00076a90       ?state_case_precision@?$output_processor@_WV?$string_output_adapter@_W@__crt_stdio_output@@V?$format_validation_base@_WV?$string_output_adapter@_W@__crt_stdio_output@@@2@@__crt_stdio_output@@AEAA_NXZ 0000000180077a90 f i libucrtd:output.obj
 0001:00076b10       ?state_case_precision@?$output_processor@_WV?$string_output_adapter@_W@__crt_stdio_output@@V?$positional_parameter_base@_WV?$string_output_adapter@_W@__crt_stdio_output@@@2@@__crt_stdio_output@@AEAA_NXZ 0000000180077b10 f i libucrtd:output.obj
 0001:00076b90       ?state_case_precision@?$output_processor@_WV?$string_output_adapter@_W@__crt_stdio_output@@V?$standard_base@_WV?$string_output_adapter@_W@__crt_stdio_output@@@2@@__crt_stdio_output@@AEAA_NXZ 0000000180077b90 f i libucrtd:output.obj
 0001:00076c10       ?state_case_size@?$output_processor@DV?$stream_output_adapter@D@__crt_stdio_output@@V?$format_validation_base@DV?$stream_output_adapter@D@__crt_stdio_output@@@2@@__crt_stdio_output@@AEAA_NXZ 0000000180077c10 f i libucrtd:output.obj
 0001:000770d0       ?state_case_size@?$output_processor@DV?$stream_output_adapter@D@__crt_stdio_output@@V?$positional_parameter_base@DV?$stream_output_adapter@D@__crt_stdio_output@@@2@@__crt_stdio_output@@AEAA_NXZ 00000001800780d0 f i libucrtd:output.obj
 0001:00077590       ?state_case_size@?$output_processor@DV?$stream_output_adapter@D@__crt_stdio_output@@V?$standard_base@DV?$stream_output_adapter@D@__crt_stdio_output@@@2@@__crt_stdio_output@@AEAA_NXZ 0000000180078590 f i libucrtd:output.obj
 0001:00077a50       ?state_case_size@?$output_processor@DV?$string_output_adapter@D@__crt_stdio_output@@V?$format_validation_base@DV?$string_output_adapter@D@__crt_stdio_output@@@2@@__crt_stdio_output@@AEAA_NXZ 0000000180078a50 f i libucrtd:output.obj
 0001:00077f10       ?state_case_size@?$output_processor@DV?$string_output_adapter@D@__crt_stdio_output@@V?$positional_parameter_base@DV?$string_output_adapter@D@__crt_stdio_output@@@2@@__crt_stdio_output@@AEAA_NXZ 0000000180078f10 f i libucrtd:output.obj
 0001:000783d0       ?state_case_size@?$output_processor@DV?$string_output_adapter@D@__crt_stdio_output@@V?$standard_base@DV?$string_output_adapter@D@__crt_stdio_output@@@2@@__crt_stdio_output@@AEAA_NXZ 00000001800793d0 f i libucrtd:output.obj
 0001:00078890       ?state_case_size@?$output_processor@_WV?$stream_output_adapter@_W@__crt_stdio_output@@V?$format_validation_base@_WV?$stream_output_adapter@_W@__crt_stdio_output@@@2@@__crt_stdio_output@@AEAA_NXZ 0000000180079890 f i libucrtd:output.obj
 0001:00078d50       ?state_case_size@?$output_processor@_WV?$stream_output_adapter@_W@__crt_stdio_output@@V?$positional_parameter_base@_WV?$stream_output_adapter@_W@__crt_stdio_output@@@2@@__crt_stdio_output@@AEAA_NXZ 0000000180079d50 f i libucrtd:output.obj
 0001:00079210       ?state_case_size@?$output_processor@_WV?$stream_output_adapter@_W@__crt_stdio_output@@V?$standard_base@_WV?$stream_output_adapter@_W@__crt_stdio_output@@@2@@__crt_stdio_output@@AEAA_NXZ 000000018007a210 f i libucrtd:output.obj
 0001:000796d0       ?state_case_size@?$output_processor@_WV?$string_output_adapter@_W@__crt_stdio_output@@V?$format_validation_base@_WV?$string_output_adapter@_W@__crt_stdio_output@@@2@@__crt_stdio_output@@AEAA_NXZ 000000018007a6d0 f i libucrtd:output.obj
 0001:00079b90       ?state_case_size@?$output_processor@_WV?$string_output_adapter@_W@__crt_stdio_output@@V?$positional_parameter_base@_WV?$string_output_adapter@_W@__crt_stdio_output@@@2@@__crt_stdio_output@@AEAA_NXZ 000000018007ab90 f i libucrtd:output.obj
 0001:0007a050       ?state_case_size@?$output_processor@_WV?$string_output_adapter@_W@__crt_stdio_output@@V?$standard_base@_WV?$string_output_adapter@_W@__crt_stdio_output@@@2@@__crt_stdio_output@@AEAA_NXZ 000000018007b050 f i libucrtd:output.obj
 0001:0007a510       ?state_case_type@?$output_processor@DV?$stream_output_adapter@D@__crt_stdio_output@@V?$format_validation_base@DV?$stream_output_adapter@D@__crt_stdio_output@@@2@@__crt_stdio_output@@AEAA_NXZ 000000018007b510 f i libucrtd:output.obj
 0001:0007a9d0       ?state_case_type@?$output_processor@DV?$stream_output_adapter@D@__crt_stdio_output@@V?$positional_parameter_base@DV?$stream_output_adapter@D@__crt_stdio_output@@@2@@__crt_stdio_output@@AEAA_NXZ 000000018007b9d0 f i libucrtd:output.obj
 0001:0007ae90       ?state_case_type@?$output_processor@DV?$stream_output_adapter@D@__crt_stdio_output@@V?$standard_base@DV?$stream_output_adapter@D@__crt_stdio_output@@@2@@__crt_stdio_output@@AEAA_NXZ 000000018007be90 f i libucrtd:output.obj
 0001:0007b350       ?state_case_type@?$output_processor@DV?$string_output_adapter@D@__crt_stdio_output@@V?$format_validation_base@DV?$string_output_adapter@D@__crt_stdio_output@@@2@@__crt_stdio_output@@AEAA_NXZ 000000018007c350 f i libucrtd:output.obj
 0001:0007b810       ?state_case_type@?$output_processor@DV?$string_output_adapter@D@__crt_stdio_output@@V?$positional_parameter_base@DV?$string_output_adapter@D@__crt_stdio_output@@@2@@__crt_stdio_output@@AEAA_NXZ 000000018007c810 f i libucrtd:output.obj
 0001:0007bcd0       ?state_case_type@?$output_processor@DV?$string_output_adapter@D@__crt_stdio_output@@V?$standard_base@DV?$string_output_adapter@D@__crt_stdio_output@@@2@@__crt_stdio_output@@AEAA_NXZ 000000018007ccd0 f i libucrtd:output.obj
 0001:0007c190       ?state_case_type@?$output_processor@_WV?$stream_output_adapter@_W@__crt_stdio_output@@V?$format_validation_base@_WV?$stream_output_adapter@_W@__crt_stdio_output@@@2@@__crt_stdio_output@@AEAA_NXZ 000000018007d190 f i libucrtd:output.obj
 0001:0007c720       ?state_case_type@?$output_processor@_WV?$stream_output_adapter@_W@__crt_stdio_output@@V?$positional_parameter_base@_WV?$stream_output_adapter@_W@__crt_stdio_output@@@2@@__crt_stdio_output@@AEAA_NXZ 000000018007d720 f i libucrtd:output.obj
 0001:0007ccb0       ?state_case_type@?$output_processor@_WV?$stream_output_adapter@_W@__crt_stdio_output@@V?$standard_base@_WV?$stream_output_adapter@_W@__crt_stdio_output@@@2@@__crt_stdio_output@@AEAA_NXZ 000000018007dcb0 f i libucrtd:output.obj
 0001:0007d240       ?state_case_type@?$output_processor@_WV?$string_output_adapter@_W@__crt_stdio_output@@V?$format_validation_base@_WV?$string_output_adapter@_W@__crt_stdio_output@@@2@@__crt_stdio_output@@AEAA_NXZ 000000018007e240 f i libucrtd:output.obj
 0001:0007d7d0       ?state_case_type@?$output_processor@_WV?$string_output_adapter@_W@__crt_stdio_output@@V?$positional_parameter_base@_WV?$string_output_adapter@_W@__crt_stdio_output@@@2@@__crt_stdio_output@@AEAA_NXZ 000000018007e7d0 f i libucrtd:output.obj
 0001:0007dd60       ?state_case_type@?$output_processor@_WV?$string_output_adapter@_W@__crt_stdio_output@@V?$standard_base@_WV?$string_output_adapter@_W@__crt_stdio_output@@@2@@__crt_stdio_output@@AEAA_NXZ 000000018007ed60 f i libucrtd:output.obj
 0001:0007e2f0       ?state_case_width@?$output_processor@DV?$stream_output_adapter@D@__crt_stdio_output@@V?$format_validation_base@DV?$stream_output_adapter@D@__crt_stdio_output@@@2@@__crt_stdio_output@@AEAA_NXZ 000000018007f2f0 f i libucrtd:output.obj
 0001:0007e380       ?state_case_width@?$output_processor@DV?$stream_output_adapter@D@__crt_stdio_output@@V?$positional_parameter_base@DV?$stream_output_adapter@D@__crt_stdio_output@@@2@@__crt_stdio_output@@AEAA_NXZ 000000018007f380 f i libucrtd:output.obj
 0001:0007e410       ?state_case_width@?$output_processor@DV?$stream_output_adapter@D@__crt_stdio_output@@V?$standard_base@DV?$stream_output_adapter@D@__crt_stdio_output@@@2@@__crt_stdio_output@@AEAA_NXZ 000000018007f410 f i libucrtd:output.obj
 0001:0007e4a0       ?state_case_width@?$output_processor@DV?$string_output_adapter@D@__crt_stdio_output@@V?$format_validation_base@DV?$string_output_adapter@D@__crt_stdio_output@@@2@@__crt_stdio_output@@AEAA_NXZ 000000018007f4a0 f i libucrtd:output.obj
 0001:0007e530       ?state_case_width@?$output_processor@DV?$string_output_adapter@D@__crt_stdio_output@@V?$positional_parameter_base@DV?$string_output_adapter@D@__crt_stdio_output@@@2@@__crt_stdio_output@@AEAA_NXZ 000000018007f530 f i libucrtd:output.obj
 0001:0007e5c0       ?state_case_width@?$output_processor@DV?$string_output_adapter@D@__crt_stdio_output@@V?$standard_base@DV?$string_output_adapter@D@__crt_stdio_output@@@2@@__crt_stdio_output@@AEAA_NXZ 000000018007f5c0 f i libucrtd:output.obj
 0001:0007e650       ?state_case_width@?$output_processor@_WV?$stream_output_adapter@_W@__crt_stdio_output@@V?$format_validation_base@_WV?$stream_output_adapter@_W@__crt_stdio_output@@@2@@__crt_stdio_output@@AEAA_NXZ 000000018007f650 f i libucrtd:output.obj
 0001:0007e6e0       ?state_case_width@?$output_processor@_WV?$stream_output_adapter@_W@__crt_stdio_output@@V?$positional_parameter_base@_WV?$stream_output_adapter@_W@__crt_stdio_output@@@2@@__crt_stdio_output@@AEAA_NXZ 000000018007f6e0 f i libucrtd:output.obj
 0001:0007e770       ?state_case_width@?$output_processor@_WV?$stream_output_adapter@_W@__crt_stdio_output@@V?$standard_base@_WV?$stream_output_adapter@_W@__crt_stdio_output@@@2@@__crt_stdio_output@@AEAA_NXZ 000000018007f770 f i libucrtd:output.obj
 0001:0007e800       ?state_case_width@?$output_processor@_WV?$string_output_adapter@_W@__crt_stdio_output@@V?$format_validation_base@_WV?$string_output_adapter@_W@__crt_stdio_output@@@2@@__crt_stdio_output@@AEAA_NXZ 000000018007f800 f i libucrtd:output.obj
 0001:0007e890       ?state_case_width@?$output_processor@_WV?$string_output_adapter@_W@__crt_stdio_output@@V?$positional_parameter_base@_WV?$string_output_adapter@_W@__crt_stdio_output@@@2@@__crt_stdio_output@@AEAA_NXZ 000000018007f890 f i libucrtd:output.obj
 0001:0007e920       ?state_case_width@?$output_processor@_WV?$string_output_adapter@_W@__crt_stdio_output@@V?$standard_base@_WV?$string_output_adapter@_W@__crt_stdio_output@@@2@@__crt_stdio_output@@AEAA_NXZ 000000018007f920 f i libucrtd:output.obj
 0001:0007e9b0       ?state_count@?$format_validation_base@DV?$stream_output_adapter@D@__crt_stdio_output@@@__crt_stdio_output@@KAIXZ 000000018007f9b0 f i libucrtd:output.obj
 0001:0007e9c0       ?state_count@?$format_validation_base@DV?$string_output_adapter@D@__crt_stdio_output@@@__crt_stdio_output@@KAIXZ 000000018007f9c0 f i libucrtd:output.obj
 0001:0007e9d0       ?state_count@?$format_validation_base@_WV?$stream_output_adapter@_W@__crt_stdio_output@@@__crt_stdio_output@@KAIXZ 000000018007f9d0 f i libucrtd:output.obj
 0001:0007e9e0       ?state_count@?$format_validation_base@_WV?$string_output_adapter@_W@__crt_stdio_output@@@__crt_stdio_output@@KAIXZ 000000018007f9e0 f i libucrtd:output.obj
 0001:0007e9f0       ?state_count@?$standard_base@DV?$stream_output_adapter@D@__crt_stdio_output@@@__crt_stdio_output@@KAIXZ 000000018007f9f0 f i libucrtd:output.obj
 0001:0007ea00       ?state_count@?$standard_base@DV?$string_output_adapter@D@__crt_stdio_output@@@__crt_stdio_output@@KAIXZ 000000018007fa00 f i libucrtd:output.obj
 0001:0007ea10       ?state_count@?$standard_base@_WV?$stream_output_adapter@_W@__crt_stdio_output@@@__crt_stdio_output@@KAIXZ 000000018007fa10 f i libucrtd:output.obj
 0001:0007ea20       ?state_count@?$standard_base@_WV?$string_output_adapter@_W@__crt_stdio_output@@@__crt_stdio_output@@KAIXZ 000000018007fa20 f i libucrtd:output.obj
 0001:0007ea30       ?state_transition_table@?$format_validation_base@DV?$stream_output_adapter@D@__crt_stdio_output@@@__crt_stdio_output@@KAAEBV?$spectre_mitigated_lookup_table@Ustate_transition_pair@__crt_stdio_output@@$0IA@@2@XZ 000000018007fa30 f i libucrtd:output.obj
 0001:0007ea40       ?state_transition_table@?$format_validation_base@DV?$string_output_adapter@D@__crt_stdio_output@@@__crt_stdio_output@@KAAEBV?$spectre_mitigated_lookup_table@Ustate_transition_pair@__crt_stdio_output@@$0IA@@2@XZ 000000018007fa40 f i libucrtd:output.obj
 0001:0007ea50       ?state_transition_table@?$format_validation_base@_WV?$stream_output_adapter@_W@__crt_stdio_output@@@__crt_stdio_output@@KAAEBV?$spectre_mitigated_lookup_table@Ustate_transition_pair@__crt_stdio_output@@$0IA@@2@XZ 000000018007fa50 f i libucrtd:output.obj
 0001:0007ea60       ?state_transition_table@?$format_validation_base@_WV?$string_output_adapter@_W@__crt_stdio_output@@@__crt_stdio_output@@KAAEBV?$spectre_mitigated_lookup_table@Ustate_transition_pair@__crt_stdio_output@@$0IA@@2@XZ 000000018007fa60 f i libucrtd:output.obj
 0001:0007ea70       ?state_transition_table@?$standard_base@DV?$stream_output_adapter@D@__crt_stdio_output@@@__crt_stdio_output@@KAAEBV?$spectre_mitigated_lookup_table@Ustate_transition_pair@__crt_stdio_output@@$0IA@@2@XZ 000000018007fa70 f i libucrtd:output.obj
 0001:0007ea80       ?state_transition_table@?$standard_base@DV?$string_output_adapter@D@__crt_stdio_output@@@__crt_stdio_output@@KAAEBV?$spectre_mitigated_lookup_table@Ustate_transition_pair@__crt_stdio_output@@$0IA@@2@XZ 000000018007fa80 f i libucrtd:output.obj
 0001:0007ea90       ?state_transition_table@?$standard_base@_WV?$stream_output_adapter@_W@__crt_stdio_output@@@__crt_stdio_output@@KAAEBV?$spectre_mitigated_lookup_table@Ustate_transition_pair@__crt_stdio_output@@$0IA@@2@XZ 000000018007fa90 f i libucrtd:output.obj
 0001:0007eaa0       ?state_transition_table@?$standard_base@_WV?$string_output_adapter@_W@__crt_stdio_output@@@__crt_stdio_output@@KAAEBV?$spectre_mitigated_lookup_table@Ustate_transition_pair@__crt_stdio_output@@$0IA@@2@XZ 000000018007faa0 f i libucrtd:output.obj
 0001:0007eab0       ?tchar_string@?$common_data@D@__crt_stdio_output@@IEAAAEAPEADD@Z 000000018007fab0 f i libucrtd:output.obj
 0001:0007ead0       ?tchar_string@?$common_data@D@__crt_stdio_output@@IEAAAEAPEADXZ 000000018007fad0 f i libucrtd:output.obj
 0001:0007eaf0       ?tchar_string@?$common_data@_W@__crt_stdio_output@@IEAAAEAPEA_WXZ 000000018007faf0 f i libucrtd:output.obj
 0001:0007eb10       ?tchar_string@?$common_data@_W@__crt_stdio_output@@IEAAAEAPEA_W_W@Z 000000018007fb10 f i libucrtd:output.obj
 0001:0007eb30       ?to_integer_size@__crt_stdio_output@@YA_KW4length_modifier@1@@Z 000000018007fb30 f i libucrtd:output.obj
 0001:0007ebe0       ?type_case_X@?$output_processor@DV?$stream_output_adapter@D@__crt_stdio_output@@V?$format_validation_base@DV?$stream_output_adapter@D@__crt_stdio_output@@@2@@__crt_stdio_output@@AEAA_NXZ 000000018007fbe0 f i libucrtd:output.obj
 0001:0007ec00       ?type_case_X@?$output_processor@DV?$stream_output_adapter@D@__crt_stdio_output@@V?$positional_parameter_base@DV?$stream_output_adapter@D@__crt_stdio_output@@@2@@__crt_stdio_output@@AEAA_NXZ 000000018007fc00 f i libucrtd:output.obj
 0001:0007ec20       ?type_case_X@?$output_processor@DV?$stream_output_adapter@D@__crt_stdio_output@@V?$standard_base@DV?$stream_output_adapter@D@__crt_stdio_output@@@2@@__crt_stdio_output@@AEAA_NXZ 000000018007fc20 f i libucrtd:output.obj
 0001:0007ec40       ?type_case_X@?$output_processor@DV?$string_output_adapter@D@__crt_stdio_output@@V?$format_validation_base@DV?$string_output_adapter@D@__crt_stdio_output@@@2@@__crt_stdio_output@@AEAA_NXZ 000000018007fc40 f i libucrtd:output.obj
 0001:0007ec60       ?type_case_X@?$output_processor@DV?$string_output_adapter@D@__crt_stdio_output@@V?$positional_parameter_base@DV?$string_output_adapter@D@__crt_stdio_output@@@2@@__crt_stdio_output@@AEAA_NXZ 000000018007fc60 f i libucrtd:output.obj
 0001:0007ec80       ?type_case_X@?$output_processor@DV?$string_output_adapter@D@__crt_stdio_output@@V?$standard_base@DV?$string_output_adapter@D@__crt_stdio_output@@@2@@__crt_stdio_output@@AEAA_NXZ 000000018007fc80 f i libucrtd:output.obj
 0001:0007eca0       ?type_case_X@?$output_processor@_WV?$stream_output_adapter@_W@__crt_stdio_output@@V?$format_validation_base@_WV?$stream_output_adapter@_W@__crt_stdio_output@@@2@@__crt_stdio_output@@AEAA_NXZ 000000018007fca0 f i libucrtd:output.obj
 0001:0007ecc0       ?type_case_X@?$output_processor@_WV?$stream_output_adapter@_W@__crt_stdio_output@@V?$positional_parameter_base@_WV?$stream_output_adapter@_W@__crt_stdio_output@@@2@@__crt_stdio_output@@AEAA_NXZ 000000018007fcc0 f i libucrtd:output.obj
 0001:0007ece0       ?type_case_X@?$output_processor@_WV?$stream_output_adapter@_W@__crt_stdio_output@@V?$standard_base@_WV?$stream_output_adapter@_W@__crt_stdio_output@@@2@@__crt_stdio_output@@AEAA_NXZ 000000018007fce0 f i libucrtd:output.obj
 0001:0007ed00       ?type_case_X@?$output_processor@_WV?$string_output_adapter@_W@__crt_stdio_output@@V?$format_validation_base@_WV?$string_output_adapter@_W@__crt_stdio_output@@@2@@__crt_stdio_output@@AEAA_NXZ 000000018007fd00 f i libucrtd:output.obj
 0001:0007ed20       ?type_case_X@?$output_processor@_WV?$string_output_adapter@_W@__crt_stdio_output@@V?$positional_parameter_base@_WV?$string_output_adapter@_W@__crt_stdio_output@@@2@@__crt_stdio_output@@AEAA_NXZ 000000018007fd20 f i libucrtd:output.obj
 0001:0007ed40       ?type_case_X@?$output_processor@_WV?$string_output_adapter@_W@__crt_stdio_output@@V?$standard_base@_WV?$string_output_adapter@_W@__crt_stdio_output@@@2@@__crt_stdio_output@@AEAA_NXZ 000000018007fd40 f i libucrtd:output.obj
 0001:0007ed60       ?type_case_Z@?$output_processor@DV?$stream_output_adapter@D@__crt_stdio_output@@V?$format_validation_base@DV?$stream_output_adapter@D@__crt_stdio_output@@@2@@__crt_stdio_output@@AEAA_NXZ 000000018007fd60 f i libucrtd:output.obj
 0001:0007ee80       ?type_case_Z@?$output_processor@DV?$stream_output_adapter@D@__crt_stdio_output@@V?$positional_parameter_base@DV?$stream_output_adapter@D@__crt_stdio_output@@@2@@__crt_stdio_output@@AEAA_NXZ 000000018007fe80 f i libucrtd:output.obj
 0001:0007efa0       ?type_case_Z@?$output_processor@DV?$stream_output_adapter@D@__crt_stdio_output@@V?$standard_base@DV?$stream_output_adapter@D@__crt_stdio_output@@@2@@__crt_stdio_output@@AEAA_NXZ 000000018007ffa0 f i libucrtd:output.obj
 0001:0007f0c0       ?type_case_Z@?$output_processor@DV?$string_output_adapter@D@__crt_stdio_output@@V?$format_validation_base@DV?$string_output_adapter@D@__crt_stdio_output@@@2@@__crt_stdio_output@@AEAA_NXZ 00000001800800c0 f i libucrtd:output.obj
 0001:0007f1e0       ?type_case_Z@?$output_processor@DV?$string_output_adapter@D@__crt_stdio_output@@V?$positional_parameter_base@DV?$string_output_adapter@D@__crt_stdio_output@@@2@@__crt_stdio_output@@AEAA_NXZ 00000001800801e0 f i libucrtd:output.obj
 0001:0007f300       ?type_case_Z@?$output_processor@DV?$string_output_adapter@D@__crt_stdio_output@@V?$standard_base@DV?$string_output_adapter@D@__crt_stdio_output@@@2@@__crt_stdio_output@@AEAA_NXZ 0000000180080300 f i libucrtd:output.obj
 0001:0007f420       ?type_case_Z@?$output_processor@_WV?$stream_output_adapter@_W@__crt_stdio_output@@V?$format_validation_base@_WV?$stream_output_adapter@_W@__crt_stdio_output@@@2@@__crt_stdio_output@@AEAA_NXZ 0000000180080420 f i libucrtd:output.obj
 0001:0007f540       ?type_case_Z@?$output_processor@_WV?$stream_output_adapter@_W@__crt_stdio_output@@V?$positional_parameter_base@_WV?$stream_output_adapter@_W@__crt_stdio_output@@@2@@__crt_stdio_output@@AEAA_NXZ 0000000180080540 f i libucrtd:output.obj
 0001:0007f660       ?type_case_Z@?$output_processor@_WV?$stream_output_adapter@_W@__crt_stdio_output@@V?$standard_base@_WV?$stream_output_adapter@_W@__crt_stdio_output@@@2@@__crt_stdio_output@@AEAA_NXZ 0000000180080660 f i libucrtd:output.obj
 0001:0007f780       ?type_case_Z@?$output_processor@_WV?$string_output_adapter@_W@__crt_stdio_output@@V?$format_validation_base@_WV?$string_output_adapter@_W@__crt_stdio_output@@@2@@__crt_stdio_output@@AEAA_NXZ 0000000180080780 f i libucrtd:output.obj
 0001:0007f8a0       ?type_case_Z@?$output_processor@_WV?$string_output_adapter@_W@__crt_stdio_output@@V?$positional_parameter_base@_WV?$string_output_adapter@_W@__crt_stdio_output@@@2@@__crt_stdio_output@@AEAA_NXZ 00000001800808a0 f i libucrtd:output.obj
 0001:0007f9c0       ?type_case_Z@?$output_processor@_WV?$string_output_adapter@_W@__crt_stdio_output@@V?$standard_base@_WV?$string_output_adapter@_W@__crt_stdio_output@@@2@@__crt_stdio_output@@AEAA_NXZ 00000001800809c0 f i libucrtd:output.obj
 0001:0007fae0       ?type_case_a@?$output_processor@DV?$stream_output_adapter@D@__crt_stdio_output@@V?$format_validation_base@DV?$stream_output_adapter@D@__crt_stdio_output@@@2@@__crt_stdio_output@@AEAA_NXZ 0000000180080ae0 f i libucrtd:output.obj
 0001:0007ff40       ?type_case_a@?$output_processor@DV?$stream_output_adapter@D@__crt_stdio_output@@V?$positional_parameter_base@DV?$stream_output_adapter@D@__crt_stdio_output@@@2@@__crt_stdio_output@@AEAA_NXZ 0000000180080f40 f i libucrtd:output.obj
 0001:000803a0       ?type_case_a@?$output_processor@DV?$stream_output_adapter@D@__crt_stdio_output@@V?$standard_base@DV?$stream_output_adapter@D@__crt_stdio_output@@@2@@__crt_stdio_output@@AEAA_NXZ 00000001800813a0 f i libucrtd:output.obj
 0001:00080800       ?type_case_a@?$output_processor@DV?$string_output_adapter@D@__crt_stdio_output@@V?$format_validation_base@DV?$string_output_adapter@D@__crt_stdio_output@@@2@@__crt_stdio_output@@AEAA_NXZ 0000000180081800 f i libucrtd:output.obj
 0001:00080c60       ?type_case_a@?$output_processor@DV?$string_output_adapter@D@__crt_stdio_output@@V?$positional_parameter_base@DV?$string_output_adapter@D@__crt_stdio_output@@@2@@__crt_stdio_output@@AEAA_NXZ 0000000180081c60 f i libucrtd:output.obj
 0001:000810c0       ?type_case_a@?$output_processor@DV?$string_output_adapter@D@__crt_stdio_output@@V?$standard_base@DV?$string_output_adapter@D@__crt_stdio_output@@@2@@__crt_stdio_output@@AEAA_NXZ 00000001800820c0 f i libucrtd:output.obj
 0001:00081520       ?type_case_a@?$output_processor@_WV?$stream_output_adapter@_W@__crt_stdio_output@@V?$format_validation_base@_WV?$stream_output_adapter@_W@__crt_stdio_output@@@2@@__crt_stdio_output@@AEAA_NXZ 0000000180082520 f i libucrtd:output.obj
 0001:00081990       ?type_case_a@?$output_processor@_WV?$stream_output_adapter@_W@__crt_stdio_output@@V?$positional_parameter_base@_WV?$stream_output_adapter@_W@__crt_stdio_output@@@2@@__crt_stdio_output@@AEAA_NXZ 0000000180082990 f i libucrtd:output.obj
 0001:00081e00       ?type_case_a@?$output_processor@_WV?$stream_output_adapter@_W@__crt_stdio_output@@V?$standard_base@_WV?$stream_output_adapter@_W@__crt_stdio_output@@@2@@__crt_stdio_output@@AEAA_NXZ 0000000180082e00 f i libucrtd:output.obj
 0001:00082270       ?type_case_a@?$output_processor@_WV?$string_output_adapter@_W@__crt_stdio_output@@V?$format_validation_base@_WV?$string_output_adapter@_W@__crt_stdio_output@@@2@@__crt_stdio_output@@AEAA_NXZ 0000000180083270 f i libucrtd:output.obj
 0001:000826e0       ?type_case_a@?$output_processor@_WV?$string_output_adapter@_W@__crt_stdio_output@@V?$positional_parameter_base@_WV?$string_output_adapter@_W@__crt_stdio_output@@@2@@__crt_stdio_output@@AEAA_NXZ 00000001800836e0 f i libucrtd:output.obj
 0001:00082b50       ?type_case_a@?$output_processor@_WV?$string_output_adapter@_W@__crt_stdio_output@@V?$standard_base@_WV?$string_output_adapter@_W@__crt_stdio_output@@@2@@__crt_stdio_output@@AEAA_NXZ 0000000180083b50 f i libucrtd:output.obj
 0001:00082fc0       ?type_case_c@?$output_processor@DV?$stream_output_adapter@D@__crt_stdio_output@@V?$format_validation_base@DV?$stream_output_adapter@D@__crt_stdio_output@@@2@@__crt_stdio_output@@AEAA_NXZ 0000000180083fc0 f i libucrtd:output.obj
 0001:00082fe0       ?type_case_c@?$output_processor@DV?$stream_output_adapter@D@__crt_stdio_output@@V?$positional_parameter_base@DV?$stream_output_adapter@D@__crt_stdio_output@@@2@@__crt_stdio_output@@AEAA_NXZ 0000000180083fe0 f i libucrtd:output.obj
 0001:00083000       ?type_case_c@?$output_processor@DV?$stream_output_adapter@D@__crt_stdio_output@@V?$standard_base@DV?$stream_output_adapter@D@__crt_stdio_output@@@2@@__crt_stdio_output@@AEAA_NXZ 0000000180084000 f i libucrtd:output.obj
 0001:00083020       ?type_case_c@?$output_processor@DV?$string_output_adapter@D@__crt_stdio_output@@V?$format_validation_base@DV?$string_output_adapter@D@__crt_stdio_output@@@2@@__crt_stdio_output@@AEAA_NXZ 0000000180084020 f i libucrtd:output.obj
 0001:00083040       ?type_case_c@?$output_processor@DV?$string_output_adapter@D@__crt_stdio_output@@V?$positional_parameter_base@DV?$string_output_adapter@D@__crt_stdio_output@@@2@@__crt_stdio_output@@AEAA_NXZ 0000000180084040 f i libucrtd:output.obj
 0001:00083060       ?type_case_c@?$output_processor@DV?$string_output_adapter@D@__crt_stdio_output@@V?$standard_base@DV?$string_output_adapter@D@__crt_stdio_output@@@2@@__crt_stdio_output@@AEAA_NXZ 0000000180084060 f i libucrtd:output.obj
 0001:00083080       ?type_case_c@?$output_processor@_WV?$stream_output_adapter@_W@__crt_stdio_output@@V?$format_validation_base@_WV?$stream_output_adapter@_W@__crt_stdio_output@@@2@@__crt_stdio_output@@AEAA_NXZ 0000000180084080 f i libucrtd:output.obj
 0001:000830a0       ?type_case_c@?$output_processor@_WV?$stream_output_adapter@_W@__crt_stdio_output@@V?$positional_parameter_base@_WV?$stream_output_adapter@_W@__crt_stdio_output@@@2@@__crt_stdio_output@@AEAA_NXZ 00000001800840a0 f i libucrtd:output.obj
 0001:000830c0       ?type_case_c@?$output_processor@_WV?$stream_output_adapter@_W@__crt_stdio_output@@V?$standard_base@_WV?$stream_output_adapter@_W@__crt_stdio_output@@@2@@__crt_stdio_output@@AEAA_NXZ 00000001800840c0 f i libucrtd:output.obj
 0001:000830e0       ?type_case_c@?$output_processor@_WV?$string_output_adapter@_W@__crt_stdio_output@@V?$format_validation_base@_WV?$string_output_adapter@_W@__crt_stdio_output@@@2@@__crt_stdio_output@@AEAA_NXZ 00000001800840e0 f i libucrtd:output.obj
 0001:00083100       ?type_case_c@?$output_processor@_WV?$string_output_adapter@_W@__crt_stdio_output@@V?$positional_parameter_base@_WV?$string_output_adapter@_W@__crt_stdio_output@@@2@@__crt_stdio_output@@AEAA_NXZ 0000000180084100 f i libucrtd:output.obj
 0001:00083120       ?type_case_c@?$output_processor@_WV?$string_output_adapter@_W@__crt_stdio_output@@V?$standard_base@_WV?$string_output_adapter@_W@__crt_stdio_output@@@2@@__crt_stdio_output@@AEAA_NXZ 0000000180084120 f i libucrtd:output.obj
 0001:00083140       ?type_case_c_tchar@?$output_processor@DV?$stream_output_adapter@D@__crt_stdio_output@@V?$format_validation_base@DV?$stream_output_adapter@D@__crt_stdio_output@@@2@@__crt_stdio_output@@AEAA_ND@Z 0000000180084140 f i libucrtd:output.obj
 0001:000832b0       ?type_case_c_tchar@?$output_processor@DV?$stream_output_adapter@D@__crt_stdio_output@@V?$positional_parameter_base@DV?$stream_output_adapter@D@__crt_stdio_output@@@2@@__crt_stdio_output@@AEAA_ND@Z 00000001800842b0 f i libucrtd:output.obj
 0001:00083420       ?type_case_c_tchar@?$output_processor@DV?$stream_output_adapter@D@__crt_stdio_output@@V?$standard_base@DV?$stream_output_adapter@D@__crt_stdio_output@@@2@@__crt_stdio_output@@AEAA_ND@Z 0000000180084420 f i libucrtd:output.obj
 0001:00083590       ?type_case_c_tchar@?$output_processor@DV?$string_output_adapter@D@__crt_stdio_output@@V?$format_validation_base@DV?$string_output_adapter@D@__crt_stdio_output@@@2@@__crt_stdio_output@@AEAA_ND@Z 0000000180084590 f i libucrtd:output.obj
 0001:00083700       ?type_case_c_tchar@?$output_processor@DV?$string_output_adapter@D@__crt_stdio_output@@V?$positional_parameter_base@DV?$string_output_adapter@D@__crt_stdio_output@@@2@@__crt_stdio_output@@AEAA_ND@Z 0000000180084700 f i libucrtd:output.obj
 0001:00083870       ?type_case_c_tchar@?$output_processor@DV?$string_output_adapter@D@__crt_stdio_output@@V?$standard_base@DV?$string_output_adapter@D@__crt_stdio_output@@@2@@__crt_stdio_output@@AEAA_ND@Z 0000000180084870 f i libucrtd:output.obj
 0001:000839e0       ?type_case_c_tchar@?$output_processor@_WV?$stream_output_adapter@_W@__crt_stdio_output@@V?$format_validation_base@_WV?$stream_output_adapter@_W@__crt_stdio_output@@@2@@__crt_stdio_output@@AEAA_N_W@Z 00000001800849e0 f i libucrtd:output.obj
 0001:00083b40       ?type_case_c_tchar@?$output_processor@_WV?$stream_output_adapter@_W@__crt_stdio_output@@V?$positional_parameter_base@_WV?$stream_output_adapter@_W@__crt_stdio_output@@@2@@__crt_stdio_output@@AEAA_N_W@Z 0000000180084b40 f i libucrtd:output.obj
 0001:00083ca0       ?type_case_c_tchar@?$output_processor@_WV?$stream_output_adapter@_W@__crt_stdio_output@@V?$standard_base@_WV?$stream_output_adapter@_W@__crt_stdio_output@@@2@@__crt_stdio_output@@AEAA_N_W@Z 0000000180084ca0 f i libucrtd:output.obj
 0001:00083e00       ?type_case_c_tchar@?$output_processor@_WV?$string_output_adapter@_W@__crt_stdio_output@@V?$format_validation_base@_WV?$string_output_adapter@_W@__crt_stdio_output@@@2@@__crt_stdio_output@@AEAA_N_W@Z 0000000180084e00 f i libucrtd:output.obj
 0001:00083f60       ?type_case_c_tchar@?$output_processor@_WV?$string_output_adapter@_W@__crt_stdio_output@@V?$positional_parameter_base@_WV?$string_output_adapter@_W@__crt_stdio_output@@@2@@__crt_stdio_output@@AEAA_N_W@Z 0000000180084f60 f i libucrtd:output.obj
 0001:000840c0       ?type_case_c_tchar@?$output_processor@_WV?$string_output_adapter@_W@__crt_stdio_output@@V?$standard_base@_WV?$string_output_adapter@_W@__crt_stdio_output@@@2@@__crt_stdio_output@@AEAA_N_W@Z 00000001800850c0 f i libucrtd:output.obj
 0001:00084220       ?type_case_d@?$output_processor@DV?$stream_output_adapter@D@__crt_stdio_output@@V?$format_validation_base@DV?$stream_output_adapter@D@__crt_stdio_output@@@2@@__crt_stdio_output@@AEAA_NXZ 0000000180085220 f i libucrtd:output.obj
 0001:00084250       ?type_case_d@?$output_processor@DV?$stream_output_adapter@D@__crt_stdio_output@@V?$positional_parameter_base@DV?$stream_output_adapter@D@__crt_stdio_output@@@2@@__crt_stdio_output@@AEAA_NXZ 0000000180085250 f i libucrtd:output.obj
 0001:00084280       ?type_case_d@?$output_processor@DV?$stream_output_adapter@D@__crt_stdio_output@@V?$standard_base@DV?$stream_output_adapter@D@__crt_stdio_output@@@2@@__crt_stdio_output@@AEAA_NXZ 0000000180085280 f i libucrtd:output.obj
 0001:000842b0       ?type_case_d@?$output_processor@DV?$string_output_adapter@D@__crt_stdio_output@@V?$format_validation_base@DV?$string_output_adapter@D@__crt_stdio_output@@@2@@__crt_stdio_output@@AEAA_NXZ 00000001800852b0 f i libucrtd:output.obj
 0001:000842e0       ?type_case_d@?$output_processor@DV?$string_output_adapter@D@__crt_stdio_output@@V?$positional_parameter_base@DV?$string_output_adapter@D@__crt_stdio_output@@@2@@__crt_stdio_output@@AEAA_NXZ 00000001800852e0 f i libucrtd:output.obj
 0001:00084310       ?type_case_d@?$output_processor@DV?$string_output_adapter@D@__crt_stdio_output@@V?$standard_base@DV?$string_output_adapter@D@__crt_stdio_output@@@2@@__crt_stdio_output@@AEAA_NXZ 0000000180085310 f i libucrtd:output.obj
 0001:00084340       ?type_case_d@?$output_processor@_WV?$stream_output_adapter@_W@__crt_stdio_output@@V?$format_validation_base@_WV?$stream_output_adapter@_W@__crt_stdio_output@@@2@@__crt_stdio_output@@AEAA_NXZ 0000000180085340 f i libucrtd:output.obj
 0001:00084370       ?type_case_d@?$output_processor@_WV?$stream_output_adapter@_W@__crt_stdio_output@@V?$positional_parameter_base@_WV?$stream_output_adapter@_W@__crt_stdio_output@@@2@@__crt_stdio_output@@AEAA_NXZ 0000000180085370 f i libucrtd:output.obj
 0001:000843a0       ?type_case_d@?$output_processor@_WV?$stream_output_adapter@_W@__crt_stdio_output@@V?$standard_base@_WV?$stream_output_adapter@_W@__crt_stdio_output@@@2@@__crt_stdio_output@@AEAA_NXZ 00000001800853a0 f i libucrtd:output.obj
 0001:000843d0       ?type_case_d@?$output_processor@_WV?$string_output_adapter@_W@__crt_stdio_output@@V?$format_validation_base@_WV?$string_output_adapter@_W@__crt_stdio_output@@@2@@__crt_stdio_output@@AEAA_NXZ 00000001800853d0 f i libucrtd:output.obj
 0001:00084400       ?type_case_d@?$output_processor@_WV?$string_output_adapter@_W@__crt_stdio_output@@V?$positional_parameter_base@_WV?$string_output_adapter@_W@__crt_stdio_output@@@2@@__crt_stdio_output@@AEAA_NXZ 0000000180085400 f i libucrtd:output.obj
 0001:00084430       ?type_case_d@?$output_processor@_WV?$string_output_adapter@_W@__crt_stdio_output@@V?$standard_base@_WV?$string_output_adapter@_W@__crt_stdio_output@@@2@@__crt_stdio_output@@AEAA_NXZ 0000000180085430 f i libucrtd:output.obj
 0001:00084460       ?type_case_n@?$output_processor@DV?$stream_output_adapter@D@__crt_stdio_output@@V?$format_validation_base@DV?$stream_output_adapter@D@__crt_stdio_output@@@2@@__crt_stdio_output@@AEAA_NXZ 0000000180085460 f i libucrtd:output.obj
 0001:000846f0       ?type_case_n@?$output_processor@DV?$stream_output_adapter@D@__crt_stdio_output@@V?$positional_parameter_base@DV?$stream_output_adapter@D@__crt_stdio_output@@@2@@__crt_stdio_output@@AEAA_NXZ 00000001800856f0 f i libucrtd:output.obj
 0001:00084980       ?type_case_n@?$output_processor@DV?$stream_output_adapter@D@__crt_stdio_output@@V?$standard_base@DV?$stream_output_adapter@D@__crt_stdio_output@@@2@@__crt_stdio_output@@AEAA_NXZ 0000000180085980 f i libucrtd:output.obj
 0001:00084c10       ?type_case_n@?$output_processor@DV?$string_output_adapter@D@__crt_stdio_output@@V?$format_validation_base@DV?$string_output_adapter@D@__crt_stdio_output@@@2@@__crt_stdio_output@@AEAA_NXZ 0000000180085c10 f i libucrtd:output.obj
 0001:00084ea0       ?type_case_n@?$output_processor@DV?$string_output_adapter@D@__crt_stdio_output@@V?$positional_parameter_base@DV?$string_output_adapter@D@__crt_stdio_output@@@2@@__crt_stdio_output@@AEAA_NXZ 0000000180085ea0 f i libucrtd:output.obj
 0001:00085130       ?type_case_n@?$output_processor@DV?$string_output_adapter@D@__crt_stdio_output@@V?$standard_base@DV?$string_output_adapter@D@__crt_stdio_output@@@2@@__crt_stdio_output@@AEAA_NXZ 0000000180086130 f i libucrtd:output.obj
 0001:000853c0       ?type_case_n@?$output_processor@_WV?$stream_output_adapter@_W@__crt_stdio_output@@V?$format_validation_base@_WV?$stream_output_adapter@_W@__crt_stdio_output@@@2@@__crt_stdio_output@@AEAA_NXZ 00000001800863c0 f i libucrtd:output.obj
 0001:00085650       ?type_case_n@?$output_processor@_WV?$stream_output_adapter@_W@__crt_stdio_output@@V?$positional_parameter_base@_WV?$stream_output_adapter@_W@__crt_stdio_output@@@2@@__crt_stdio_output@@AEAA_NXZ 0000000180086650 f i libucrtd:output.obj
 0001:000858e0       ?type_case_n@?$output_processor@_WV?$stream_output_adapter@_W@__crt_stdio_output@@V?$standard_base@_WV?$stream_output_adapter@_W@__crt_stdio_output@@@2@@__crt_stdio_output@@AEAA_NXZ 00000001800868e0 f i libucrtd:output.obj
 0001:00085b70       ?type_case_n@?$output_processor@_WV?$string_output_adapter@_W@__crt_stdio_output@@V?$format_validation_base@_WV?$string_output_adapter@_W@__crt_stdio_output@@@2@@__crt_stdio_output@@AEAA_NXZ 0000000180086b70 f i libucrtd:output.obj
 0001:00085e00       ?type_case_n@?$output_processor@_WV?$string_output_adapter@_W@__crt_stdio_output@@V?$positional_parameter_base@_WV?$string_output_adapter@_W@__crt_stdio_output@@@2@@__crt_stdio_output@@AEAA_NXZ 0000000180086e00 f i libucrtd:output.obj
 0001:00086090       ?type_case_n@?$output_processor@_WV?$string_output_adapter@_W@__crt_stdio_output@@V?$standard_base@_WV?$string_output_adapter@_W@__crt_stdio_output@@@2@@__crt_stdio_output@@AEAA_NXZ 0000000180087090 f i libucrtd:output.obj
 0001:00086320       ?type_case_o@?$output_processor@DV?$stream_output_adapter@D@__crt_stdio_output@@V?$format_validation_base@DV?$stream_output_adapter@D@__crt_stdio_output@@@2@@__crt_stdio_output@@AEAA_NXZ 0000000180087320 f i libucrtd:output.obj
 0001:00086360       ?type_case_o@?$output_processor@DV?$stream_output_adapter@D@__crt_stdio_output@@V?$positional_parameter_base@DV?$stream_output_adapter@D@__crt_stdio_output@@@2@@__crt_stdio_output@@AEAA_NXZ 0000000180087360 f i libucrtd:output.obj
 0001:000863a0       ?type_case_o@?$output_processor@DV?$stream_output_adapter@D@__crt_stdio_output@@V?$standard_base@DV?$stream_output_adapter@D@__crt_stdio_output@@@2@@__crt_stdio_output@@AEAA_NXZ 00000001800873a0 f i libucrtd:output.obj
 0001:000863e0       ?type_case_o@?$output_processor@DV?$string_output_adapter@D@__crt_stdio_output@@V?$format_validation_base@DV?$string_output_adapter@D@__crt_stdio_output@@@2@@__crt_stdio_output@@AEAA_NXZ 00000001800873e0 f i libucrtd:output.obj
 0001:00086420       ?type_case_o@?$output_processor@DV?$string_output_adapter@D@__crt_stdio_output@@V?$positional_parameter_base@DV?$string_output_adapter@D@__crt_stdio_output@@@2@@__crt_stdio_output@@AEAA_NXZ 0000000180087420 f i libucrtd:output.obj
 0001:00086460       ?type_case_o@?$output_processor@DV?$string_output_adapter@D@__crt_stdio_output@@V?$standard_base@DV?$string_output_adapter@D@__crt_stdio_output@@@2@@__crt_stdio_output@@AEAA_NXZ 0000000180087460 f i libucrtd:output.obj
 0001:000864a0       ?type_case_o@?$output_processor@_WV?$stream_output_adapter@_W@__crt_stdio_output@@V?$format_validation_base@_WV?$stream_output_adapter@_W@__crt_stdio_output@@@2@@__crt_stdio_output@@AEAA_NXZ 00000001800874a0 f i libucrtd:output.obj
 0001:000864e0       ?type_case_o@?$output_processor@_WV?$stream_output_adapter@_W@__crt_stdio_output@@V?$positional_parameter_base@_WV?$stream_output_adapter@_W@__crt_stdio_output@@@2@@__crt_stdio_output@@AEAA_NXZ 00000001800874e0 f i libucrtd:output.obj
 0001:00086520       ?type_case_o@?$output_processor@_WV?$stream_output_adapter@_W@__crt_stdio_output@@V?$standard_base@_WV?$stream_output_adapter@_W@__crt_stdio_output@@@2@@__crt_stdio_output@@AEAA_NXZ 0000000180087520 f i libucrtd:output.obj
 0001:00086560       ?type_case_o@?$output_processor@_WV?$string_output_adapter@_W@__crt_stdio_output@@V?$format_validation_base@_WV?$string_output_adapter@_W@__crt_stdio_output@@@2@@__crt_stdio_output@@AEAA_NXZ 0000000180087560 f i libucrtd:output.obj
 0001:000865a0       ?type_case_o@?$output_processor@_WV?$string_output_adapter@_W@__crt_stdio_output@@V?$positional_parameter_base@_WV?$string_output_adapter@_W@__crt_stdio_output@@@2@@__crt_stdio_output@@AEAA_NXZ 00000001800875a0 f i libucrtd:output.obj
 0001:000865e0       ?type_case_o@?$output_processor@_WV?$string_output_adapter@_W@__crt_stdio_output@@V?$standard_base@_WV?$string_output_adapter@_W@__crt_stdio_output@@@2@@__crt_stdio_output@@AEAA_NXZ 00000001800875e0 f i libucrtd:output.obj
 0001:00086620       ?type_case_p@?$output_processor@DV?$stream_output_adapter@D@__crt_stdio_output@@V?$format_validation_base@DV?$stream_output_adapter@D@__crt_stdio_output@@@2@@__crt_stdio_output@@AEAA_NXZ 0000000180087620 f i libucrtd:output.obj
 0001:00086660       ?type_case_p@?$output_processor@DV?$stream_output_adapter@D@__crt_stdio_output@@V?$positional_parameter_base@DV?$stream_output_adapter@D@__crt_stdio_output@@@2@@__crt_stdio_output@@AEAA_NXZ 0000000180087660 f i libucrtd:output.obj
 0001:000866a0       ?type_case_p@?$output_processor@DV?$stream_output_adapter@D@__crt_stdio_output@@V?$standard_base@DV?$stream_output_adapter@D@__crt_stdio_output@@@2@@__crt_stdio_output@@AEAA_NXZ 00000001800876a0 f i libucrtd:output.obj
 0001:000866e0       ?type_case_p@?$output_processor@DV?$string_output_adapter@D@__crt_stdio_output@@V?$format_validation_base@DV?$string_output_adapter@D@__crt_stdio_output@@@2@@__crt_stdio_output@@AEAA_NXZ 00000001800876e0 f i libucrtd:output.obj
 0001:00086720       ?type_case_p@?$output_processor@DV?$string_output_adapter@D@__crt_stdio_output@@V?$positional_parameter_base@DV?$string_output_adapter@D@__crt_stdio_output@@@2@@__crt_stdio_output@@AEAA_NXZ 0000000180087720 f i libucrtd:output.obj
 0001:00086760       ?type_case_p@?$output_processor@DV?$string_output_adapter@D@__crt_stdio_output@@V?$standard_base@DV?$string_output_adapter@D@__crt_stdio_output@@@2@@__crt_stdio_output@@AEAA_NXZ 0000000180087760 f i libucrtd:output.obj
 0001:000867a0       ?type_case_p@?$output_processor@_WV?$stream_output_adapter@_W@__crt_stdio_output@@V?$format_validation_base@_WV?$stream_output_adapter@_W@__crt_stdio_output@@@2@@__crt_stdio_output@@AEAA_NXZ 00000001800877a0 f i libucrtd:output.obj
 0001:000867e0       ?type_case_p@?$output_processor@_WV?$stream_output_adapter@_W@__crt_stdio_output@@V?$positional_parameter_base@_WV?$stream_output_adapter@_W@__crt_stdio_output@@@2@@__crt_stdio_output@@AEAA_NXZ 00000001800877e0 f i libucrtd:output.obj
 0001:00086820       ?type_case_p@?$output_processor@_WV?$stream_output_adapter@_W@__crt_stdio_output@@V?$standard_base@_WV?$stream_output_adapter@_W@__crt_stdio_output@@@2@@__crt_stdio_output@@AEAA_NXZ 0000000180087820 f i libucrtd:output.obj
 0001:00086860       ?type_case_p@?$output_processor@_WV?$string_output_adapter@_W@__crt_stdio_output@@V?$format_validation_base@_WV?$string_output_adapter@_W@__crt_stdio_output@@@2@@__crt_stdio_output@@AEAA_NXZ 0000000180087860 f i libucrtd:output.obj
 0001:000868a0       ?type_case_p@?$output_processor@_WV?$string_output_adapter@_W@__crt_stdio_output@@V?$positional_parameter_base@_WV?$string_output_adapter@_W@__crt_stdio_output@@@2@@__crt_stdio_output@@AEAA_NXZ 00000001800878a0 f i libucrtd:output.obj
 0001:000868e0       ?type_case_p@?$output_processor@_WV?$string_output_adapter@_W@__crt_stdio_output@@V?$standard_base@_WV?$string_output_adapter@_W@__crt_stdio_output@@@2@@__crt_stdio_output@@AEAA_NXZ 00000001800878e0 f i libucrtd:output.obj
 0001:00086920       ?type_case_s@?$output_processor@DV?$stream_output_adapter@D@__crt_stdio_output@@V?$format_validation_base@DV?$stream_output_adapter@D@__crt_stdio_output@@@2@@__crt_stdio_output@@AEAA_NXZ 0000000180087920 f i libucrtd:output.obj
 0001:00086a40       ?type_case_s@?$output_processor@DV?$stream_output_adapter@D@__crt_stdio_output@@V?$positional_parameter_base@DV?$stream_output_adapter@D@__crt_stdio_output@@@2@@__crt_stdio_output@@AEAA_NXZ 0000000180087a40 f i libucrtd:output.obj
 0001:00086b60       ?type_case_s@?$output_processor@DV?$stream_output_adapter@D@__crt_stdio_output@@V?$standard_base@DV?$stream_output_adapter@D@__crt_stdio_output@@@2@@__crt_stdio_output@@AEAA_NXZ 0000000180087b60 f i libucrtd:output.obj
 0001:00086c80       ?type_case_s@?$output_processor@DV?$string_output_adapter@D@__crt_stdio_output@@V?$format_validation_base@DV?$string_output_adapter@D@__crt_stdio_output@@@2@@__crt_stdio_output@@AEAA_NXZ 0000000180087c80 f i libucrtd:output.obj
 0001:00086da0       ?type_case_s@?$output_processor@DV?$string_output_adapter@D@__crt_stdio_output@@V?$positional_parameter_base@DV?$string_output_adapter@D@__crt_stdio_output@@@2@@__crt_stdio_output@@AEAA_NXZ 0000000180087da0 f i libucrtd:output.obj
 0001:00086ec0       ?type_case_s@?$output_processor@DV?$string_output_adapter@D@__crt_stdio_output@@V?$standard_base@DV?$string_output_adapter@D@__crt_stdio_output@@@2@@__crt_stdio_output@@AEAA_NXZ 0000000180087ec0 f i libucrtd:output.obj
 0001:00086fe0       ?type_case_s@?$output_processor@_WV?$stream_output_adapter@_W@__crt_stdio_output@@V?$format_validation_base@_WV?$stream_output_adapter@_W@__crt_stdio_output@@@2@@__crt_stdio_output@@AEAA_NXZ 0000000180087fe0 f i libucrtd:output.obj
 0001:00087100       ?type_case_s@?$output_processor@_WV?$stream_output_adapter@_W@__crt_stdio_output@@V?$positional_parameter_base@_WV?$stream_output_adapter@_W@__crt_stdio_output@@@2@@__crt_stdio_output@@AEAA_NXZ 0000000180088100 f i libucrtd:output.obj
 0001:00087220       ?type_case_s@?$output_processor@_WV?$stream_output_adapter@_W@__crt_stdio_output@@V?$standard_base@_WV?$stream_output_adapter@_W@__crt_stdio_output@@@2@@__crt_stdio_output@@AEAA_NXZ 0000000180088220 f i libucrtd:output.obj
 0001:00087340       ?type_case_s@?$output_processor@_WV?$string_output_adapter@_W@__crt_stdio_output@@V?$format_validation_base@_WV?$string_output_adapter@_W@__crt_stdio_output@@@2@@__crt_stdio_output@@AEAA_NXZ 0000000180088340 f i libucrtd:output.obj
 0001:00087460       ?type_case_s@?$output_processor@_WV?$string_output_adapter@_W@__crt_stdio_output@@V?$positional_parameter_base@_WV?$string_output_adapter@_W@__crt_stdio_output@@@2@@__crt_stdio_output@@AEAA_NXZ 0000000180088460 f i libucrtd:output.obj
 0001:00087580       ?type_case_s@?$output_processor@_WV?$string_output_adapter@_W@__crt_stdio_output@@V?$standard_base@_WV?$string_output_adapter@_W@__crt_stdio_output@@@2@@__crt_stdio_output@@AEAA_NXZ 0000000180088580 f i libucrtd:output.obj
 0001:000876a0       ?type_case_s_compute_narrow_string_length@?$output_processor@DV?$stream_output_adapter@D@__crt_stdio_output@@V?$format_validation_base@DV?$stream_output_adapter@D@__crt_stdio_output@@@2@@__crt_stdio_output@@AEAAHHD@Z 00000001800886a0 f i libucrtd:output.obj
 0001:000876d0       ?type_case_s_compute_narrow_string_length@?$output_processor@DV?$stream_output_adapter@D@__crt_stdio_output@@V?$positional_parameter_base@DV?$stream_output_adapter@D@__crt_stdio_output@@@2@@__crt_stdio_output@@AEAAHHD@Z 00000001800886d0 f i libucrtd:output.obj
 0001:00087700       ?type_case_s_compute_narrow_string_length@?$output_processor@DV?$stream_output_adapter@D@__crt_stdio_output@@V?$standard_base@DV?$stream_output_adapter@D@__crt_stdio_output@@@2@@__crt_stdio_output@@AEAAHHD@Z 0000000180088700 f i libucrtd:output.obj
 0001:00087730       ?type_case_s_compute_narrow_string_length@?$output_processor@DV?$string_output_adapter@D@__crt_stdio_output@@V?$format_validation_base@DV?$string_output_adapter@D@__crt_stdio_output@@@2@@__crt_stdio_output@@AEAAHHD@Z 0000000180088730 f i libucrtd:output.obj
 0001:00087760       ?type_case_s_compute_narrow_string_length@?$output_processor@DV?$string_output_adapter@D@__crt_stdio_output@@V?$positional_parameter_base@DV?$string_output_adapter@D@__crt_stdio_output@@@2@@__crt_stdio_output@@AEAAHHD@Z 0000000180088760 f i libucrtd:output.obj
 0001:00087790       ?type_case_s_compute_narrow_string_length@?$output_processor@DV?$string_output_adapter@D@__crt_stdio_output@@V?$standard_base@DV?$string_output_adapter@D@__crt_stdio_output@@@2@@__crt_stdio_output@@AEAAHHD@Z 0000000180088790 f i libucrtd:output.obj
 0001:000877c0       ?type_case_s_compute_narrow_string_length@?$output_processor@_WV?$stream_output_adapter@_W@__crt_stdio_output@@V?$format_validation_base@_WV?$stream_output_adapter@_W@__crt_stdio_output@@@2@@__crt_stdio_output@@AEAAHH_W@Z 00000001800887c0 f i libucrtd:output.obj
 0001:00087860       ?type_case_s_compute_narrow_string_length@?$output_processor@_WV?$stream_output_adapter@_W@__crt_stdio_output@@V?$positional_parameter_base@_WV?$stream_output_adapter@_W@__crt_stdio_output@@@2@@__crt_stdio_output@@AEAAHH_W@Z 0000000180088860 f i libucrtd:output.obj
 0001:00087900       ?type_case_s_compute_narrow_string_length@?$output_processor@_WV?$stream_output_adapter@_W@__crt_stdio_output@@V?$standard_base@_WV?$stream_output_adapter@_W@__crt_stdio_output@@@2@@__crt_stdio_output@@AEAAHH_W@Z 0000000180088900 f i libucrtd:output.obj
 0001:000879a0       ?type_case_s_compute_narrow_string_length@?$output_processor@_WV?$string_output_adapter@_W@__crt_stdio_output@@V?$format_validation_base@_WV?$string_output_adapter@_W@__crt_stdio_output@@@2@@__crt_stdio_output@@AEAAHH_W@Z 00000001800889a0 f i libucrtd:output.obj
 0001:00087a40       ?type_case_s_compute_narrow_string_length@?$output_processor@_WV?$string_output_adapter@_W@__crt_stdio_output@@V?$positional_parameter_base@_WV?$string_output_adapter@_W@__crt_stdio_output@@@2@@__crt_stdio_output@@AEAAHH_W@Z 0000000180088a40 f i libucrtd:output.obj
 0001:00087ae0       ?type_case_s_compute_narrow_string_length@?$output_processor@_WV?$string_output_adapter@_W@__crt_stdio_output@@V?$standard_base@_WV?$string_output_adapter@_W@__crt_stdio_output@@@2@@__crt_stdio_output@@AEAAHH_W@Z 0000000180088ae0 f i libucrtd:output.obj
 0001:00087b80       ?type_case_u@?$output_processor@DV?$stream_output_adapter@D@__crt_stdio_output@@V?$format_validation_base@DV?$stream_output_adapter@D@__crt_stdio_output@@@2@@__crt_stdio_output@@AEAA_NXZ 0000000180088b80 f i libucrtd:output.obj
 0001:00087ba0       ?type_case_u@?$output_processor@DV?$stream_output_adapter@D@__crt_stdio_output@@V?$positional_parameter_base@DV?$stream_output_adapter@D@__crt_stdio_output@@@2@@__crt_stdio_output@@AEAA_NXZ 0000000180088ba0 f i libucrtd:output.obj
 0001:00087bc0       ?type_case_u@?$output_processor@DV?$stream_output_adapter@D@__crt_stdio_output@@V?$standard_base@DV?$stream_output_adapter@D@__crt_stdio_output@@@2@@__crt_stdio_output@@AEAA_NXZ 0000000180088bc0 f i libucrtd:output.obj
 0001:00087be0       ?type_case_u@?$output_processor@DV?$string_output_adapter@D@__crt_stdio_output@@V?$format_validation_base@DV?$string_output_adapter@D@__crt_stdio_output@@@2@@__crt_stdio_output@@AEAA_NXZ 0000000180088be0 f i libucrtd:output.obj
 0001:00087c00       ?type_case_u@?$output_processor@DV?$string_output_adapter@D@__crt_stdio_output@@V?$positional_parameter_base@DV?$string_output_adapter@D@__crt_stdio_output@@@2@@__crt_stdio_output@@AEAA_NXZ 0000000180088c00 f i libucrtd:output.obj
 0001:00087c20       ?type_case_u@?$output_processor@DV?$string_output_adapter@D@__crt_stdio_output@@V?$standard_base@DV?$string_output_adapter@D@__crt_stdio_output@@@2@@__crt_stdio_output@@AEAA_NXZ 0000000180088c20 f i libucrtd:output.obj
 0001:00087c40       ?type_case_u@?$output_processor@_WV?$stream_output_adapter@_W@__crt_stdio_output@@V?$format_validation_base@_WV?$stream_output_adapter@_W@__crt_stdio_output@@@2@@__crt_stdio_output@@AEAA_NXZ 0000000180088c40 f i libucrtd:output.obj
 0001:00087c60       ?type_case_u@?$output_processor@_WV?$stream_output_adapter@_W@__crt_stdio_output@@V?$positional_parameter_base@_WV?$stream_output_adapter@_W@__crt_stdio_output@@@2@@__crt_stdio_output@@AEAA_NXZ 0000000180088c60 f i libucrtd:output.obj
 0001:00087c80       ?type_case_u@?$output_processor@_WV?$stream_output_adapter@_W@__crt_stdio_output@@V?$standard_base@_WV?$stream_output_adapter@_W@__crt_stdio_output@@@2@@__crt_stdio_output@@AEAA_NXZ 0000000180088c80 f i libucrtd:output.obj
 0001:00087ca0       ?type_case_u@?$output_processor@_WV?$string_output_adapter@_W@__crt_stdio_output@@V?$format_validation_base@_WV?$string_output_adapter@_W@__crt_stdio_output@@@2@@__crt_stdio_output@@AEAA_NXZ 0000000180088ca0 f i libucrtd:output.obj
 0001:00087cc0       ?type_case_u@?$output_processor@_WV?$string_output_adapter@_W@__crt_stdio_output@@V?$positional_parameter_base@_WV?$string_output_adapter@_W@__crt_stdio_output@@@2@@__crt_stdio_output@@AEAA_NXZ 0000000180088cc0 f i libucrtd:output.obj
 0001:00087ce0       ?type_case_u@?$output_processor@_WV?$string_output_adapter@_W@__crt_stdio_output@@V?$standard_base@_WV?$string_output_adapter@_W@__crt_stdio_output@@@2@@__crt_stdio_output@@AEAA_NXZ 0000000180088ce0 f i libucrtd:output.obj
 0001:00087d00       ?type_case_x@?$output_processor@DV?$stream_output_adapter@D@__crt_stdio_output@@V?$format_validation_base@DV?$stream_output_adapter@D@__crt_stdio_output@@@2@@__crt_stdio_output@@AEAA_NXZ 0000000180088d00 f i libucrtd:output.obj
 0001:00087d20       ?type_case_x@?$output_processor@DV?$stream_output_adapter@D@__crt_stdio_output@@V?$positional_parameter_base@DV?$stream_output_adapter@D@__crt_stdio_output@@@2@@__crt_stdio_output@@AEAA_NXZ 0000000180088d20 f i libucrtd:output.obj
 0001:00087d40       ?type_case_x@?$output_processor@DV?$stream_output_adapter@D@__crt_stdio_output@@V?$standard_base@DV?$stream_output_adapter@D@__crt_stdio_output@@@2@@__crt_stdio_output@@AEAA_NXZ 0000000180088d40 f i libucrtd:output.obj
 0001:00087d60       ?type_case_x@?$output_processor@DV?$string_output_adapter@D@__crt_stdio_output@@V?$format_validation_base@DV?$string_output_adapter@D@__crt_stdio_output@@@2@@__crt_stdio_output@@AEAA_NXZ 0000000180088d60 f i libucrtd:output.obj
 0001:00087d80       ?type_case_x@?$output_processor@DV?$string_output_adapter@D@__crt_stdio_output@@V?$positional_parameter_base@DV?$string_output_adapter@D@__crt_stdio_output@@@2@@__crt_stdio_output@@AEAA_NXZ 0000000180088d80 f i libucrtd:output.obj
 0001:00087da0       ?type_case_x@?$output_processor@DV?$string_output_adapter@D@__crt_stdio_output@@V?$standard_base@DV?$string_output_adapter@D@__crt_stdio_output@@@2@@__crt_stdio_output@@AEAA_NXZ 0000000180088da0 f i libucrtd:output.obj
 0001:00087dc0       ?type_case_x@?$output_processor@_WV?$stream_output_adapter@_W@__crt_stdio_output@@V?$format_validation_base@_WV?$stream_output_adapter@_W@__crt_stdio_output@@@2@@__crt_stdio_output@@AEAA_NXZ 0000000180088dc0 f i libucrtd:output.obj
 0001:00087de0       ?type_case_x@?$output_processor@_WV?$stream_output_adapter@_W@__crt_stdio_output@@V?$positional_parameter_base@_WV?$stream_output_adapter@_W@__crt_stdio_output@@@2@@__crt_stdio_output@@AEAA_NXZ 0000000180088de0 f i libucrtd:output.obj
 0001:00087e00       ?type_case_x@?$output_processor@_WV?$stream_output_adapter@_W@__crt_stdio_output@@V?$standard_base@_WV?$stream_output_adapter@_W@__crt_stdio_output@@@2@@__crt_stdio_output@@AEAA_NXZ 0000000180088e00 f i libucrtd:output.obj
 0001:00087e20       ?type_case_x@?$output_processor@_WV?$string_output_adapter@_W@__crt_stdio_output@@V?$format_validation_base@_WV?$string_output_adapter@_W@__crt_stdio_output@@@2@@__crt_stdio_output@@AEAA_NXZ 0000000180088e20 f i libucrtd:output.obj
 0001:00087e40       ?type_case_x@?$output_processor@_WV?$string_output_adapter@_W@__crt_stdio_output@@V?$positional_parameter_base@_WV?$string_output_adapter@_W@__crt_stdio_output@@@2@@__crt_stdio_output@@AEAA_NXZ 0000000180088e40 f i libucrtd:output.obj
 0001:00087e60       ?type_case_x@?$output_processor@_WV?$string_output_adapter@_W@__crt_stdio_output@@V?$standard_base@_WV?$string_output_adapter@_W@__crt_stdio_output@@@2@@__crt_stdio_output@@AEAA_NXZ 0000000180088e60 f i libucrtd:output.obj
 0001:00087e80       ?unget@?$c_string_character_source@D@__crt_strtox@@QEAAXD@Z 0000000180088e80 f i libucrtd:output.obj
 0001:00087f60       ?unget@?$c_string_character_source@_W@__crt_strtox@@QEAAX_W@Z 0000000180088f60 f i libucrtd:output.obj
 0001:00088040       ?unsafe_value@?$cached@H@__crt_cached_ptd_host@@QEAAHXZ 0000000180089040 f i libucrtd:output.obj
 0001:00088050       ?unsafe_value@?$cached@K@__crt_cached_ptd_host@@QEAAKXZ 0000000180089050 f i libucrtd:output.obj
 0001:00088060       ?unset_flag@?$output_processor@DV?$stream_output_adapter@D@__crt_stdio_output@@V?$format_validation_base@DV?$stream_output_adapter@D@__crt_stdio_output@@@2@@__crt_stdio_output@@AEAAXI@Z 0000000180089060 f i libucrtd:output.obj
 0001:00088090       ?unset_flag@?$output_processor@DV?$stream_output_adapter@D@__crt_stdio_output@@V?$positional_parameter_base@DV?$stream_output_adapter@D@__crt_stdio_output@@@2@@__crt_stdio_output@@AEAAXI@Z 0000000180089090 f i libucrtd:output.obj
 0001:000880c0       ?unset_flag@?$output_processor@DV?$stream_output_adapter@D@__crt_stdio_output@@V?$standard_base@DV?$stream_output_adapter@D@__crt_stdio_output@@@2@@__crt_stdio_output@@AEAAXI@Z 00000001800890c0 f i libucrtd:output.obj
 0001:000880f0       ?unset_flag@?$output_processor@DV?$string_output_adapter@D@__crt_stdio_output@@V?$format_validation_base@DV?$string_output_adapter@D@__crt_stdio_output@@@2@@__crt_stdio_output@@AEAAXI@Z 00000001800890f0 f i libucrtd:output.obj
 0001:00088120       ?unset_flag@?$output_processor@DV?$string_output_adapter@D@__crt_stdio_output@@V?$positional_parameter_base@DV?$string_output_adapter@D@__crt_stdio_output@@@2@@__crt_stdio_output@@AEAAXI@Z 0000000180089120 f i libucrtd:output.obj
 0001:00088150       ?unset_flag@?$output_processor@DV?$string_output_adapter@D@__crt_stdio_output@@V?$standard_base@DV?$string_output_adapter@D@__crt_stdio_output@@@2@@__crt_stdio_output@@AEAAXI@Z 0000000180089150 f i libucrtd:output.obj
 0001:00088180       ?unset_flag@?$output_processor@_WV?$stream_output_adapter@_W@__crt_stdio_output@@V?$format_validation_base@_WV?$stream_output_adapter@_W@__crt_stdio_output@@@2@@__crt_stdio_output@@AEAAXI@Z 0000000180089180 f i libucrtd:output.obj
 0001:000881b0       ?unset_flag@?$output_processor@_WV?$stream_output_adapter@_W@__crt_stdio_output@@V?$positional_parameter_base@_WV?$stream_output_adapter@_W@__crt_stdio_output@@@2@@__crt_stdio_output@@AEAAXI@Z 00000001800891b0 f i libucrtd:output.obj
 0001:000881e0       ?unset_flag@?$output_processor@_WV?$stream_output_adapter@_W@__crt_stdio_output@@V?$standard_base@_WV?$stream_output_adapter@_W@__crt_stdio_output@@@2@@__crt_stdio_output@@AEAAXI@Z 00000001800891e0 f i libucrtd:output.obj
 0001:00088210       ?unset_flag@?$output_processor@_WV?$string_output_adapter@_W@__crt_stdio_output@@V?$format_validation_base@_WV?$string_output_adapter@_W@__crt_stdio_output@@@2@@__crt_stdio_output@@AEAAXI@Z 0000000180089210 f i libucrtd:output.obj
 0001:00088240       ?unset_flag@?$output_processor@_WV?$string_output_adapter@_W@__crt_stdio_output@@V?$positional_parameter_base@_WV?$string_output_adapter@_W@__crt_stdio_output@@@2@@__crt_stdio_output@@AEAAXI@Z 0000000180089240 f i libucrtd:output.obj
 0001:00088270       ?unset_flag@?$output_processor@_WV?$string_output_adapter@_W@__crt_stdio_output@@V?$standard_base@_WV?$string_output_adapter@_W@__crt_stdio_output@@@2@@__crt_stdio_output@@AEAAXI@Z 0000000180089270 f i libucrtd:output.obj
 0001:000882a0       ?update_field_width@?$positional_parameter_base@DV?$stream_output_adapter@D@__crt_stdio_output@@@__crt_stdio_output@@IEAA_NXZ 00000001800892a0 f i libucrtd:output.obj
 0001:000884a0       ?update_field_width@?$positional_parameter_base@DV?$string_output_adapter@D@__crt_stdio_output@@@__crt_stdio_output@@IEAA_NXZ 00000001800894a0 f i libucrtd:output.obj
 0001:000886a0       ?update_field_width@?$positional_parameter_base@_WV?$stream_output_adapter@_W@__crt_stdio_output@@@__crt_stdio_output@@IEAA_NXZ 00000001800896a0 f i libucrtd:output.obj
 0001:000888a0       ?update_field_width@?$positional_parameter_base@_WV?$string_output_adapter@_W@__crt_stdio_output@@@__crt_stdio_output@@IEAA_NXZ 00000001800898a0 f i libucrtd:output.obj
 0001:00088aa0       ?update_field_width@?$standard_base@DV?$stream_output_adapter@D@__crt_stdio_output@@@__crt_stdio_output@@IEAA_NXZ 0000000180089aa0 f i libucrtd:output.obj
 0001:00088ad0       ?update_field_width@?$standard_base@DV?$string_output_adapter@D@__crt_stdio_output@@@__crt_stdio_output@@IEAA_NXZ 0000000180089ad0 f i libucrtd:output.obj
 0001:00088b00       ?update_field_width@?$standard_base@_WV?$stream_output_adapter@_W@__crt_stdio_output@@@__crt_stdio_output@@IEAA_NXZ 0000000180089b00 f i libucrtd:output.obj
 0001:00088b30       ?update_field_width@?$standard_base@_WV?$string_output_adapter@_W@__crt_stdio_output@@@__crt_stdio_output@@IEAA_NXZ 0000000180089b30 f i libucrtd:output.obj
 0001:00088b60       ?update_locale@__crt_cached_ptd_host@@AEAAXXZ 0000000180089b60 f i libucrtd:output.obj
 0001:00088b90       ?update_locale_slow@__crt_cached_ptd_host@@AEAAXXZ 0000000180089b90 f i libucrtd:output.obj
 0001:00088c40       ?update_precision@?$positional_parameter_base@DV?$stream_output_adapter@D@__crt_stdio_output@@@__crt_stdio_output@@IEAA_NXZ 0000000180089c40 f i libucrtd:output.obj
 0001:00088e40       ?update_precision@?$positional_parameter_base@DV?$string_output_adapter@D@__crt_stdio_output@@@__crt_stdio_output@@IEAA_NXZ 0000000180089e40 f i libucrtd:output.obj
 0001:00089040       ?update_precision@?$positional_parameter_base@_WV?$stream_output_adapter@_W@__crt_stdio_output@@@__crt_stdio_output@@IEAA_NXZ 000000018008a040 f i libucrtd:output.obj
 0001:00089240       ?update_precision@?$positional_parameter_base@_WV?$string_output_adapter@_W@__crt_stdio_output@@@__crt_stdio_output@@IEAA_NXZ 000000018008a240 f i libucrtd:output.obj
 0001:00089440       ?update_precision@?$standard_base@DV?$stream_output_adapter@D@__crt_stdio_output@@@__crt_stdio_output@@IEAA_NXZ 000000018008a440 f i libucrtd:output.obj
 0001:00089470       ?update_precision@?$standard_base@DV?$string_output_adapter@D@__crt_stdio_output@@@__crt_stdio_output@@IEAA_NXZ 000000018008a470 f i libucrtd:output.obj
 0001:000894a0       ?update_precision@?$standard_base@_WV?$stream_output_adapter@_W@__crt_stdio_output@@@__crt_stdio_output@@IEAA_NXZ 000000018008a4a0 f i libucrtd:output.obj
 0001:000894d0       ?update_precision@?$standard_base@_WV?$string_output_adapter@_W@__crt_stdio_output@@@__crt_stdio_output@@IEAA_NXZ 000000018008a4d0 f i libucrtd:output.obj
 0001:00089500       ?valid@?$cached@H@__crt_cached_ptd_host@@QEBA_NXZ 000000018008a500 f i libucrtd:output.obj
 0001:00089510       ?valid@?$cached@K@__crt_cached_ptd_host@@QEBA_NXZ 000000018008a510 f i libucrtd:output.obj
 0001:00089520       ?valid@__crt_stdio_stream@@QEBA_NXZ 000000018008a520 f i libucrtd:output.obj
 0001:00089550       ?validate@?$c_string_character_source@D@__crt_strtox@@QEBA_NXZ 000000018008a550 f i libucrtd:output.obj
 0001:00089610       ?validate@?$c_string_character_source@_W@__crt_strtox@@QEBA_NXZ 000000018008a610 f i libucrtd:output.obj
 0001:000896d0       ?validate@?$stream_output_adapter@D@__crt_stdio_output@@QEBA_NAEAV__crt_cached_ptd_host@@@Z 000000018008a6d0 f i libucrtd:output.obj
 0001:000897d0       ?validate@?$stream_output_adapter@_W@__crt_stdio_output@@QEBA_NAEAV__crt_cached_ptd_host@@@Z 000000018008a7d0 f i libucrtd:output.obj
 0001:000898d0       ?validate@?$string_output_adapter@D@__crt_stdio_output@@QEBA_NAEAV__crt_cached_ptd_host@@@Z 000000018008a8d0 f i libucrtd:output.obj
 0001:000899b0       ?validate@?$string_output_adapter@_W@__crt_stdio_output@@QEBA_NAEAV__crt_cached_ptd_host@@@Z 000000018008a9b0 f i libucrtd:output.obj
 0001:00089a90       ?validate_and_store_parameter_data@?$positional_parameter_base@DV?$stream_output_adapter@D@__crt_stdio_output@@@__crt_stdio_output@@AEAA_NAEAUparameter_data@12@W4parameter_type@12@DW4length_modifier@2@@Z 000000018008aa90 f i libucrtd:output.obj
 0001:00089bd0       ?validate_and_store_parameter_data@?$positional_parameter_base@DV?$string_output_adapter@D@__crt_stdio_output@@@__crt_stdio_output@@AEAA_NAEAUparameter_data@12@W4parameter_type@12@DW4length_modifier@2@@Z 000000018008abd0 f i libucrtd:output.obj
 0001:00089d10       ?validate_and_store_parameter_data@?$positional_parameter_base@_WV?$stream_output_adapter@_W@__crt_stdio_output@@@__crt_stdio_output@@AEAA_NAEAUparameter_data@12@W4parameter_type@12@_WW4length_modifier@2@@Z 000000018008ad10 f i libucrtd:output.obj
 0001:00089e50       ?validate_and_store_parameter_data@?$positional_parameter_base@_WV?$string_output_adapter@_W@__crt_stdio_output@@@__crt_stdio_output@@AEAA_NAEAUparameter_data@12@W4parameter_type@12@_WW4length_modifier@2@@Z 000000018008ae50 f i libucrtd:output.obj
 0001:00089f90       ?validate_and_update_state_at_beginning_of_format_character@?$positional_parameter_base@DV?$stream_output_adapter@D@__crt_stdio_output@@@__crt_stdio_output@@IEAA_NXZ 000000018008af90 f i libucrtd:output.obj
 0001:0008a230       ?validate_and_update_state_at_beginning_of_format_character@?$positional_parameter_base@DV?$string_output_adapter@D@__crt_stdio_output@@@__crt_stdio_output@@IEAA_NXZ 000000018008b230 f i libucrtd:output.obj
 0001:0008a4d0       ?validate_and_update_state_at_beginning_of_format_character@?$positional_parameter_base@_WV?$stream_output_adapter@_W@__crt_stdio_output@@@__crt_stdio_output@@IEAA_NXZ 000000018008b4d0 f i libucrtd:output.obj
 0001:0008a770       ?validate_and_update_state_at_beginning_of_format_character@?$positional_parameter_base@_WV?$string_output_adapter@_W@__crt_stdio_output@@@__crt_stdio_output@@IEAA_NXZ 000000018008b770 f i libucrtd:output.obj
 0001:0008aa10       ?validate_and_update_state_at_beginning_of_format_character@?$standard_base@DV?$stream_output_adapter@D@__crt_stdio_output@@@__crt_stdio_output@@IEAA_NXZ 000000018008ba10 f i libucrtd:output.obj
 0001:0008aa20       ?validate_and_update_state_at_beginning_of_format_character@?$standard_base@DV?$string_output_adapter@D@__crt_stdio_output@@@__crt_stdio_output@@IEAA_NXZ 000000018008ba20 f i libucrtd:output.obj
 0001:0008aa30       ?validate_and_update_state_at_beginning_of_format_character@?$standard_base@_WV?$stream_output_adapter@_W@__crt_stdio_output@@@__crt_stdio_output@@IEAA_NXZ 000000018008ba30 f i libucrtd:output.obj
 0001:0008aa40       ?validate_and_update_state_at_beginning_of_format_character@?$standard_base@_WV?$string_output_adapter@_W@__crt_stdio_output@@@__crt_stdio_output@@IEAA_NXZ 000000018008ba40 f i libucrtd:output.obj
 0001:0008aa50       ?validate_and_update_state_at_end_of_format_string@?$format_validation_base@DV?$stream_output_adapter@D@__crt_stdio_output@@@__crt_stdio_output@@IEAA_NXZ 000000018008ba50 f i libucrtd:output.obj
 0001:0008ab40       ?validate_and_update_state_at_end_of_format_string@?$format_validation_base@DV?$string_output_adapter@D@__crt_stdio_output@@@__crt_stdio_output@@IEAA_NXZ 000000018008bb40 f i libucrtd:output.obj
 0001:0008ac30       ?validate_and_update_state_at_end_of_format_string@?$format_validation_base@_WV?$stream_output_adapter@_W@__crt_stdio_output@@@__crt_stdio_output@@IEAA_NXZ 000000018008bc30 f i libucrtd:output.obj
 0001:0008ad20       ?validate_and_update_state_at_end_of_format_string@?$format_validation_base@_WV?$string_output_adapter@_W@__crt_stdio_output@@@__crt_stdio_output@@IEAA_NXZ 000000018008bd20 f i libucrtd:output.obj
 0001:0008ae10       ?validate_and_update_state_at_end_of_format_string@?$positional_parameter_base@DV?$stream_output_adapter@D@__crt_stdio_output@@@__crt_stdio_output@@IEAA_NXZ 000000018008be10 f i libucrtd:output.obj
 0001:0008b040       ?validate_and_update_state_at_end_of_format_string@?$positional_parameter_base@DV?$string_output_adapter@D@__crt_stdio_output@@@__crt_stdio_output@@IEAA_NXZ 000000018008c040 f i libucrtd:output.obj
 0001:0008b270       ?validate_and_update_state_at_end_of_format_string@?$positional_parameter_base@_WV?$stream_output_adapter@_W@__crt_stdio_output@@@__crt_stdio_output@@IEAA_NXZ 000000018008c270 f i libucrtd:output.obj
 0001:0008b4a0       ?validate_and_update_state_at_end_of_format_string@?$positional_parameter_base@_WV?$string_output_adapter@_W@__crt_stdio_output@@@__crt_stdio_output@@IEAA_NXZ 000000018008c4a0 f i libucrtd:output.obj
 0001:0008b6d0       ?validate_and_update_state_at_end_of_format_string@?$standard_base@DV?$stream_output_adapter@D@__crt_stdio_output@@@__crt_stdio_output@@IEBA_NXZ 000000018008c6d0 f i libucrtd:output.obj
 0001:0008b6e0       ?validate_and_update_state_at_end_of_format_string@?$standard_base@DV?$string_output_adapter@D@__crt_stdio_output@@@__crt_stdio_output@@IEBA_NXZ 000000018008c6e0 f i libucrtd:output.obj
 0001:0008b6f0       ?validate_and_update_state_at_end_of_format_string@?$standard_base@_WV?$stream_output_adapter@_W@__crt_stdio_output@@@__crt_stdio_output@@IEBA_NXZ 000000018008c6f0 f i libucrtd:output.obj
 0001:0008b700       ?validate_and_update_state_at_end_of_format_string@?$standard_base@_WV?$string_output_adapter@_W@__crt_stdio_output@@@__crt_stdio_output@@IEBA_NXZ 000000018008c700 f i libucrtd:output.obj
 0001:0008b710       ?validate_state_for_type_case_a@?$positional_parameter_base@DV?$stream_output_adapter@D@__crt_stdio_output@@@__crt_stdio_output@@IEAA_NXZ 000000018008c710 f i libucrtd:output.obj
 0001:0008b870       ?validate_state_for_type_case_a@?$positional_parameter_base@DV?$string_output_adapter@D@__crt_stdio_output@@@__crt_stdio_output@@IEAA_NXZ 000000018008c870 f i libucrtd:output.obj
 0001:0008b9d0       ?validate_state_for_type_case_a@?$positional_parameter_base@_WV?$stream_output_adapter@_W@__crt_stdio_output@@@__crt_stdio_output@@IEAA_NXZ 000000018008c9d0 f i libucrtd:output.obj
 0001:0008bb30       ?validate_state_for_type_case_a@?$positional_parameter_base@_WV?$string_output_adapter@_W@__crt_stdio_output@@@__crt_stdio_output@@IEAA_NXZ 000000018008cb30 f i libucrtd:output.obj
 0001:0008bc90       ?validate_state_for_type_case_a@?$standard_base@DV?$stream_output_adapter@D@__crt_stdio_output@@@__crt_stdio_output@@IEBA_NXZ 000000018008cc90 f i libucrtd:output.obj
 0001:0008bca0       ?validate_state_for_type_case_a@?$standard_base@DV?$string_output_adapter@D@__crt_stdio_output@@@__crt_stdio_output@@IEBA_NXZ 000000018008cca0 f i libucrtd:output.obj
 0001:0008bcb0       ?validate_state_for_type_case_a@?$standard_base@_WV?$stream_output_adapter@_W@__crt_stdio_output@@@__crt_stdio_output@@IEBA_NXZ 000000018008ccb0 f i libucrtd:output.obj
 0001:0008bcc0       ?validate_state_for_type_case_a@?$standard_base@_WV?$string_output_adapter@_W@__crt_stdio_output@@@__crt_stdio_output@@IEBA_NXZ 000000018008ccc0 f i libucrtd:output.obj
 0001:0008bcd0       ?validate_stream_is_ansi_if_required@?$__acrt_stdio_char_traits@D@@SA_NQEAU_iobuf@@@Z 000000018008ccd0 f i libucrtd:output.obj
 0001:0008be60       ?validate_stream_is_ansi_if_required@?$__acrt_stdio_char_traits@_W@@SA_NQEAU_iobuf@@@Z 000000018008ce60 f i libucrtd:output.obj
 0001:0008be70       ?wide_character_to_digit@__crt_strtox@@YAH_W@Z 000000018008ce70 f i libucrtd:output.obj
 0001:0008c1e0       ?wide_null_string@?$output_processor@DV?$stream_output_adapter@D@__crt_stdio_output@@V?$format_validation_base@DV?$stream_output_adapter@D@__crt_stdio_output@@@2@@__crt_stdio_output@@CAPEA_WXZ 000000018008d1e0 f i libucrtd:output.obj
 0001:0008c1f0       ?wide_null_string@?$output_processor@DV?$stream_output_adapter@D@__crt_stdio_output@@V?$positional_parameter_base@DV?$stream_output_adapter@D@__crt_stdio_output@@@2@@__crt_stdio_output@@CAPEA_WXZ 000000018008d1f0 f i libucrtd:output.obj
 0001:0008c200       ?wide_null_string@?$output_processor@DV?$stream_output_adapter@D@__crt_stdio_output@@V?$standard_base@DV?$stream_output_adapter@D@__crt_stdio_output@@@2@@__crt_stdio_output@@CAPEA_WXZ 000000018008d200 f i libucrtd:output.obj
 0001:0008c210       ?wide_null_string@?$output_processor@DV?$string_output_adapter@D@__crt_stdio_output@@V?$format_validation_base@DV?$string_output_adapter@D@__crt_stdio_output@@@2@@__crt_stdio_output@@CAPEA_WXZ 000000018008d210 f i libucrtd:output.obj
 0001:0008c220       ?wide_null_string@?$output_processor@DV?$string_output_adapter@D@__crt_stdio_output@@V?$positional_parameter_base@DV?$string_output_adapter@D@__crt_stdio_output@@@2@@__crt_stdio_output@@CAPEA_WXZ 000000018008d220 f i libucrtd:output.obj
 0001:0008c230       ?wide_null_string@?$output_processor@DV?$string_output_adapter@D@__crt_stdio_output@@V?$standard_base@DV?$string_output_adapter@D@__crt_stdio_output@@@2@@__crt_stdio_output@@CAPEA_WXZ 000000018008d230 f i libucrtd:output.obj
 0001:0008c240       ?wide_null_string@?$output_processor@_WV?$stream_output_adapter@_W@__crt_stdio_output@@V?$format_validation_base@_WV?$stream_output_adapter@_W@__crt_stdio_output@@@2@@__crt_stdio_output@@CAPEA_WXZ 000000018008d240 f i libucrtd:output.obj
 0001:0008c250       ?wide_null_string@?$output_processor@_WV?$stream_output_adapter@_W@__crt_stdio_output@@V?$positional_parameter_base@_WV?$stream_output_adapter@_W@__crt_stdio_output@@@2@@__crt_stdio_output@@CAPEA_WXZ 000000018008d250 f i libucrtd:output.obj
 0001:0008c260       ?wide_null_string@?$output_processor@_WV?$stream_output_adapter@_W@__crt_stdio_output@@V?$standard_base@_WV?$stream_output_adapter@_W@__crt_stdio_output@@@2@@__crt_stdio_output@@CAPEA_WXZ 000000018008d260 f i libucrtd:output.obj
 0001:0008c270       ?wide_null_string@?$output_processor@_WV?$string_output_adapter@_W@__crt_stdio_output@@V?$format_validation_base@_WV?$string_output_adapter@_W@__crt_stdio_output@@@2@@__crt_stdio_output@@CAPEA_WXZ 000000018008d270 f i libucrtd:output.obj
 0001:0008c280       ?wide_null_string@?$output_processor@_WV?$string_output_adapter@_W@__crt_stdio_output@@V?$positional_parameter_base@_WV?$string_output_adapter@_W@__crt_stdio_output@@@2@@__crt_stdio_output@@CAPEA_WXZ 000000018008d280 f i libucrtd:output.obj
 0001:0008c290       ?wide_null_string@?$output_processor@_WV?$string_output_adapter@_W@__crt_stdio_output@@V?$standard_base@_WV?$string_output_adapter@_W@__crt_stdio_output@@@2@@__crt_stdio_output@@CAPEA_WXZ 000000018008d290 f i libucrtd:output.obj
 0001:0008c2a0       ?write_character@?$output_adapter_common@DV?$stream_output_adapter@D@__crt_stdio_output@@@__crt_stdio_output@@QEBAXDQEAHAEAV__crt_cached_ptd_host@@@Z 000000018008d2a0 f i libucrtd:output.obj
 0001:0008c300       ?write_character@?$output_adapter_common@_WV?$stream_output_adapter@_W@__crt_stdio_output@@@__crt_stdio_output@@QEBAX_WQEAHAEAV__crt_cached_ptd_host@@@Z 000000018008d300 f i libucrtd:output.obj
 0001:0008c360       ?write_character@?$string_output_adapter@D@__crt_stdio_output@@QEBA_NDQEAHAEAV__crt_cached_ptd_host@@@Z 000000018008d360 f i libucrtd:output.obj
 0001:0008c430       ?write_character@?$string_output_adapter@_W@__crt_stdio_output@@QEBA_N_WQEAHAEAV__crt_cached_ptd_host@@@Z 000000018008d430 f i libucrtd:output.obj
 0001:0008c500       ?write_character_without_count_update@?$stream_output_adapter@D@__crt_stdio_output@@QEBA_NDAEAV__crt_cached_ptd_host@@@Z 000000018008d500 f i libucrtd:output.obj
 0001:0008c590       ?write_character_without_count_update@?$stream_output_adapter@_W@__crt_stdio_output@@QEBA_N_WAEAV__crt_cached_ptd_host@@@Z 000000018008d590 f i libucrtd:output.obj
 0001:0008c620       ?write_stored_string_tchar@?$output_processor@DV?$stream_output_adapter@D@__crt_stdio_output@@V?$format_validation_base@DV?$stream_output_adapter@D@__crt_stdio_output@@@2@@__crt_stdio_output@@AEAA_ND@Z 000000018008d620 f i libucrtd:output.obj
 0001:0008c7d0       ?write_stored_string_tchar@?$output_processor@DV?$stream_output_adapter@D@__crt_stdio_output@@V?$positional_parameter_base@DV?$stream_output_adapter@D@__crt_stdio_output@@@2@@__crt_stdio_output@@AEAA_ND@Z 000000018008d7d0 f i libucrtd:output.obj
 0001:0008c980       ?write_stored_string_tchar@?$output_processor@DV?$stream_output_adapter@D@__crt_stdio_output@@V?$standard_base@DV?$stream_output_adapter@D@__crt_stdio_output@@@2@@__crt_stdio_output@@AEAA_ND@Z 000000018008d980 f i libucrtd:output.obj
 0001:0008cb30       ?write_stored_string_tchar@?$output_processor@DV?$string_output_adapter@D@__crt_stdio_output@@V?$format_validation_base@DV?$string_output_adapter@D@__crt_stdio_output@@@2@@__crt_stdio_output@@AEAA_ND@Z 000000018008db30 f i libucrtd:output.obj
 0001:0008cce0       ?write_stored_string_tchar@?$output_processor@DV?$string_output_adapter@D@__crt_stdio_output@@V?$positional_parameter_base@DV?$string_output_adapter@D@__crt_stdio_output@@@2@@__crt_stdio_output@@AEAA_ND@Z 000000018008dce0 f i libucrtd:output.obj
 0001:0008ce90       ?write_stored_string_tchar@?$output_processor@DV?$string_output_adapter@D@__crt_stdio_output@@V?$standard_base@DV?$string_output_adapter@D@__crt_stdio_output@@@2@@__crt_stdio_output@@AEAA_ND@Z 000000018008de90 f i libucrtd:output.obj
 0001:0008d040       ?write_stored_string_tchar@?$output_processor@_WV?$stream_output_adapter@_W@__crt_stdio_output@@V?$format_validation_base@_WV?$stream_output_adapter@_W@__crt_stdio_output@@@2@@__crt_stdio_output@@AEAA_N_W@Z 000000018008e040 f i libucrtd:output.obj
 0001:0008d1a0       ?write_stored_string_tchar@?$output_processor@_WV?$stream_output_adapter@_W@__crt_stdio_output@@V?$positional_parameter_base@_WV?$stream_output_adapter@_W@__crt_stdio_output@@@2@@__crt_stdio_output@@AEAA_N_W@Z 000000018008e1a0 f i libucrtd:output.obj
 0001:0008d300       ?write_stored_string_tchar@?$output_processor@_WV?$stream_output_adapter@_W@__crt_stdio_output@@V?$standard_base@_WV?$stream_output_adapter@_W@__crt_stdio_output@@@2@@__crt_stdio_output@@AEAA_N_W@Z 000000018008e300 f i libucrtd:output.obj
 0001:0008d460       ?write_stored_string_tchar@?$output_processor@_WV?$string_output_adapter@_W@__crt_stdio_output@@V?$format_validation_base@_WV?$string_output_adapter@_W@__crt_stdio_output@@@2@@__crt_stdio_output@@AEAA_N_W@Z 000000018008e460 f i libucrtd:output.obj
 0001:0008d5c0       ?write_stored_string_tchar@?$output_processor@_WV?$string_output_adapter@_W@__crt_stdio_output@@V?$positional_parameter_base@_WV?$string_output_adapter@_W@__crt_stdio_output@@@2@@__crt_stdio_output@@AEAA_N_W@Z 000000018008e5c0 f i libucrtd:output.obj
 0001:0008d720       ?write_stored_string_tchar@?$output_processor@_WV?$string_output_adapter@_W@__crt_stdio_output@@V?$standard_base@_WV?$string_output_adapter@_W@__crt_stdio_output@@@2@@__crt_stdio_output@@AEAA_N_W@Z 000000018008e720 f i libucrtd:output.obj
 0001:0008d880       ?write_string@?$stream_output_adapter@D@__crt_stdio_output@@QEBAXQEBDHQEAHAEAV__crt_cached_ptd_host@@@Z 000000018008e880 f i libucrtd:output.obj
 0001:0008d900       ?write_string@?$stream_output_adapter@_W@__crt_stdio_output@@QEBAXQEB_WHQEAHAEAV__crt_cached_ptd_host@@@Z 000000018008e900 f i libucrtd:output.obj
 0001:0008d980       ?write_string@?$string_output_adapter@D@__crt_stdio_output@@QEBAXQEBDHQEAHAEAV__crt_cached_ptd_host@@@Z 000000018008e980 f i libucrtd:output.obj
 0001:0008daf0       ?write_string@?$string_output_adapter@_W@__crt_stdio_output@@QEBAXQEB_WHQEAHAEAV__crt_cached_ptd_host@@@Z 000000018008eaf0 f i libucrtd:output.obj
 0001:0008dc60       ?write_string_impl@?$output_adapter_common@DV?$stream_output_adapter@D@__crt_stdio_output@@@__crt_stdio_output@@IEBAXQEBDHQEAHAEAV__crt_cached_ptd_host@@@Z 000000018008ec60 f i libucrtd:output.obj
 0001:0008dd80       ?write_string_impl@?$output_adapter_common@_WV?$stream_output_adapter@_W@__crt_stdio_output@@@__crt_stdio_output@@IEBAXQEB_WHQEAHAEAV__crt_cached_ptd_host@@@Z 000000018008ed80 f i libucrtd:output.obj
 0001:0008dea0       __acrt_disable_global_locale_sync 000000018008eea0 f i libucrtd:output.obj
 0001:0008ded0       __acrt_enable_global_locale_sync 000000018008eed0 f i libucrtd:output.obj
 0001:0008df00       __acrt_isleadbyte_l_noupdate 000000018008ef00 f i libucrtd:output.obj
 0001:0008df30       __acrt_locale_changed      000000018008ef30 f i libucrtd:output.obj
 0001:0008df60       __acrt_locale_get_ctype_array_value 000000018008ef60 f i libucrtd:output.obj
 0001:0008dfa0       __ascii_iswalpha           000000018008efa0 f i libucrtd:output.obj
 0001:0008dfe0       __ascii_toupper            000000018008efe0 f i libucrtd:output.obj
 0001:0008e000       __ascii_towupper           000000018008f000 f i libucrtd:output.obj
 0001:0008e020       __stdio_common_vfprintf    000000018008f020 f   libucrtd:output.obj
 0001:0008e0a0       __stdio_common_vfprintf_p  000000018008f0a0 f   libucrtd:output.obj
 0001:0008e120       __stdio_common_vfprintf_s  000000018008f120 f   libucrtd:output.obj
 0001:0008e1a0       __stdio_common_vfwprintf   000000018008f1a0 f   libucrtd:output.obj
 0001:0008e220       __stdio_common_vfwprintf_p 000000018008f220 f   libucrtd:output.obj
 0001:0008e2a0       __stdio_common_vfwprintf_s 000000018008f2a0 f   libucrtd:output.obj
 0001:0008e320       __stdio_common_vsnprintf_s 000000018008f320 f   libucrtd:output.obj
 0001:0008e3b0       __stdio_common_vsnwprintf_s 000000018008f3b0 f   libucrtd:output.obj
 0001:0008e440       __stdio_common_vsprintf    000000018008f440 f   libucrtd:output.obj
 0001:0008e4d0       __stdio_common_vsprintf_p  000000018008f4d0 f   libucrtd:output.obj
 0001:0008e560       __stdio_common_vsprintf_s  000000018008f560 f   libucrtd:output.obj
 0001:0008e5f0       __stdio_common_vswprintf   000000018008f5f0 f   libucrtd:output.obj
 0001:0008e680       __stdio_common_vswprintf_p 000000018008f680 f   libucrtd:output.obj
 0001:0008e710       __stdio_common_vswprintf_s 000000018008f710 f   libucrtd:output.obj
 0001:0008e7a0       _ctype_fast_check_internal 000000018008f7a0 f i libucrtd:output.obj
 0001:0008e7d0       _isdigit_fast_internal     000000018008f7d0 f i libucrtd:output.obj
 0001:0008e800       _tolower_fast_internal     000000018008f800 f i libucrtd:output.obj
 0001:0008e830       free                       000000018008f830 f   libucrtd:free.obj
 0001:0008e860       malloc                     000000018008f860 f   libucrtd:malloc.obj
 0001:0008e890       ??$?RU?$__crt_report_hook_node@D@@@__crt_internal_free_policy@@QEBAXQEBU?$__crt_report_hook_node@D@@@Z 000000018008f890 f i libucrtd:dbgrpt.obj
 0001:0008e8c0       ??$?RU?$__crt_report_hook_node@_W@@@__crt_internal_free_policy@@QEBAXQEBU?$__crt_report_hook_node@_W@@@Z 000000018008f8c0 f i libucrtd:dbgrpt.obj
 0001:0008fb20       ??$get_module_file_name@AEAPEAUHINSTANCE__@@AEAY0BAF@DK@?$__crt_char_traits@D@@SAKAEAPEAUHINSTANCE__@@AEAY0BAF@D$$QEAK@Z 0000000180090b20 f i libucrtd:dbgrpt.obj
 0001:0008fb60       ??$get_module_file_name@AEAPEAUHINSTANCE__@@AEAY0BAF@_WK@?$__crt_char_traits@_W@@SAKAEAPEAUHINSTANCE__@@AEAY0BAF@_W$$QEAK@Z 0000000180090b60 f i libucrtd:dbgrpt.obj
 0001:0008fba0       ??$tcscpy_s@AEAY0BAF@D_KPEBD@?$__crt_char_traits@D@@SAHAEAY0BAF@D$$QEA_K$$QEAPEBD@Z 0000000180090ba0 f i libucrtd:dbgrpt.obj
 0001:0008fbe0       ??$tcscpy_s@AEAY0BAF@_W_KPEB_W@?$__crt_char_traits@_W@@SAHAEAY0BAF@_W$$QEA_K$$QEAPEB_W@Z 0000000180090be0 f i libucrtd:dbgrpt.obj
 0001:0008fc20       ??$tcslen@AEAY0BAF@D@?$__crt_char_traits@D@@SA_KAEAY0BAF@D@Z 0000000180090c20 f i libucrtd:dbgrpt.obj
 0001:0008fc40       ??$tcslen@AEAY0BAF@_W@?$__crt_char_traits@_W@@SA_KAEAY0BAF@_W@Z 0000000180090c40 f i libucrtd:dbgrpt.obj
 0001:0008fc60       ??$tcslen@AEBQEBD@?$__crt_char_traits@D@@SA_KAEBQEBD@Z 0000000180090c60 f i libucrtd:dbgrpt.obj
 0001:0008fc80       ??$tcslen@AEBQEB_W@?$__crt_char_traits@_W@@SA_KAEBQEB_W@Z 0000000180090c80 f i libucrtd:dbgrpt.obj
 0001:0008fd80       ??0?$__crt_unique_heap_ptr@U?$__crt_report_hook_node@D@@U__crt_internal_free_policy@@@@QEAA@QEAU?$__crt_report_hook_node@D@@@Z 0000000180090d80 f i libucrtd:dbgrpt.obj
 0001:0008fda0       ??0?$__crt_unique_heap_ptr@U?$__crt_report_hook_node@_W@@U__crt_internal_free_policy@@@@QEAA@QEAU?$__crt_report_hook_node@_W@@@Z 0000000180090da0 f i libucrtd:dbgrpt.obj
 0001:0008fdc0       ??1?$__crt_unique_heap_ptr@U?$__crt_report_hook_node@D@@U__crt_internal_free_policy@@@@QEAA@XZ 0000000180090dc0 f i libucrtd:dbgrpt.obj
 0001:0008fde0       ??1?$__crt_unique_heap_ptr@U?$__crt_report_hook_node@_W@@U__crt_internal_free_policy@@@@QEAA@XZ 0000000180090de0 f i libucrtd:dbgrpt.obj
 0001:0008fe00       ??B?$__crt_unique_heap_ptr@U?$__crt_report_hook_node@D@@U__crt_internal_free_policy@@@@QEBA_NXZ 0000000180090e00 f i libucrtd:dbgrpt.obj
 0001:0008fe20       ??B?$__crt_unique_heap_ptr@U?$__crt_report_hook_node@_W@@U__crt_internal_free_policy@@@@QEBA_NXZ 0000000180090e20 f i libucrtd:dbgrpt.obj
 0001:00090540       ?detach@?$__crt_unique_heap_ptr@U?$__crt_report_hook_node@D@@U__crt_internal_free_policy@@@@QEAAPEAU?$__crt_report_hook_node@D@@XZ 0000000180091540 f i libucrtd:dbgrpt.obj
 0001:00090570       ?detach@?$__crt_unique_heap_ptr@U?$__crt_report_hook_node@_W@@U__crt_internal_free_policy@@@@QEAAPEAU?$__crt_report_hook_node@_W@@XZ 0000000180091570 f i libucrtd:dbgrpt.obj
 0001:000905a0       ?get@?$__crt_unique_heap_ptr@U?$__crt_report_hook_node@D@@U__crt_internal_free_policy@@@@QEBAPEAU?$__crt_report_hook_node@D@@XZ 00000001800915a0 f i libucrtd:dbgrpt.obj
 0001:000905b0       ?get@?$__crt_unique_heap_ptr@U?$__crt_report_hook_node@_W@@U__crt_internal_free_policy@@@@QEBAPEAU?$__crt_report_hook_node@_W@@XZ 00000001800915b0 f i libucrtd:dbgrpt.obj
 0001:00090620       ?is_valid@?$__crt_unique_heap_ptr@U?$__crt_report_hook_node@D@@U__crt_internal_free_policy@@@@QEBA_NXZ 0000000180091620 f i libucrtd:dbgrpt.obj
 0001:00090650       ?is_valid@?$__crt_unique_heap_ptr@U?$__crt_report_hook_node@_W@@U__crt_internal_free_policy@@@@QEBA_NXZ 0000000180091650 f i libucrtd:dbgrpt.obj
 0001:00090680       ?release@?$__crt_unique_heap_ptr@U?$__crt_report_hook_node@D@@U__crt_internal_free_policy@@@@QEAAXXZ 0000000180091680 f i libucrtd:dbgrpt.obj
 0001:000906b0       ?release@?$__crt_unique_heap_ptr@U?$__crt_report_hook_node@_W@@U__crt_internal_free_policy@@@@QEAAXXZ 00000001800916b0 f i libucrtd:dbgrpt.obj
 0001:000906e0       _CrtDbgReport              00000001800916e0 f   libucrtd:dbgrpt.obj
 0001:00090760       _CrtDbgReportW             0000000180091760 f   libucrtd:dbgrpt.obj
 0001:000907e0       _CrtSetReportHook2         00000001800917e0 f   libucrtd:dbgrpt.obj
 0001:00090800       _CrtSetReportHookW2        0000000180091800 f   libucrtd:dbgrpt.obj
 0001:00090820       __acrt_MessageWindowA      0000000180091820 f   libucrtd:dbgrpt.obj
 0001:00090870       __acrt_MessageWindowW      0000000180091870 f   libucrtd:dbgrpt.obj
 0001:000908c0       _invoke_watson_if_error    00000001800918c0 f i libucrtd:dbgrpt.obj
 0001:00090910       _invoke_watson_if_oneof    0000000180091910 f i libucrtd:dbgrpt.obj
 0001:00090970       _snwprintf_s               0000000180091970 f i libucrtd:dbgrpt.obj
 0001:000909e0       _vsnwprintf_s_l            00000001800919e0 f i libucrtd:dbgrpt.obj
 0001:00090f60       wcscpy_s                   0000000180091f60 f   libucrtd:wcscpy_s.obj
 0001:000922f0       ??1?$__crt_simd_cleanup_guard@$00@@QEAA@XZ 00000001800932f0 f i libucrtd:strnlen.obj
 0001:00092300       ??1?$__crt_simd_cleanup_guard@$0A@@@QEAA@XZ 0000000180093300 f i libucrtd:strnlen.obj
 0001:00092310       ?compare_equals@?$__crt_simd_traits@$00E@@SA?AT__m256i@@T2@0@Z 0000000180093310 f i libucrtd:strnlen.obj
 0001:00092350       ?compare_equals@?$__crt_simd_traits@$00G@@SA?AT__m256i@@T2@0@Z 0000000180093350 f i libucrtd:strnlen.obj
 0001:00092390       ?compare_equals@?$__crt_simd_traits@$0A@E@@SA?AT__m128i@@T2@0@Z 0000000180093390 f i libucrtd:strnlen.obj
 0001:000923c0       ?compare_equals@?$__crt_simd_traits@$0A@G@@SA?AT__m128i@@T2@0@Z 00000001800933c0 f i libucrtd:strnlen.obj
 0001:000923f0       ?compute_byte_mask@?$__crt_simd_pack_traits@$00@@SAHT__m256i@@@Z 00000001800933f0 f i libucrtd:strnlen.obj
 0001:00092410       ?compute_byte_mask@?$__crt_simd_pack_traits@$0A@@@SAHT__m128i@@@Z 0000000180093410 f i libucrtd:strnlen.obj
 0001:00092430       ?get_zero_pack@?$__crt_simd_pack_traits@$00@@SA?AT__m256i@@XZ 0000000180093430 f i libucrtd:strnlen.obj
 0001:00092460       ?get_zero_pack@?$__crt_simd_pack_traits@$0A@@@SA?AT__m128i@@XZ 0000000180093460 f i libucrtd:strnlen.obj
 0001:00092480       strnlen                    0000000180093480 f   libucrtd:strnlen.obj
 0001:000924b0       wcslen                     00000001800934b0 f   libucrtd:strnlen.obj
 0001:000924d0       wcsnlen                    00000001800934d0 f   libucrtd:strnlen.obj
 0001:00092500       ??$__crt_fast_decode_pointer@P6AXPEB_W00I_K@Z@@YAP6AXPEB_W00I_K@ZQ6AX000I1@Z@Z 0000000180093500 f i libucrtd:invalid_parameter.obj
 0001:00092540       ??$__crt_fast_encode_pointer@P6AXPEB_W00I_K@Z@@YAP6AXPEB_W00I_K@ZQ6AX000I1@Z@Z 0000000180093540 f i libucrtd:invalid_parameter.obj
 0001:00092580       ??$initialize_from_array@$$BY00Q6AXPEB_W00I_K@Z@?$dual_state_global@P6AXPEB_W00I_K@Z@__crt_state_management@@QEAAXAEAY00Q6AXPEB_W00I_K@Z@Z 0000000180093580 f i libucrtd:invalid_parameter.obj
 0001:000925e0       ?__crt_rotate_pointer_value@@YA_K_KH@Z 00000001800935e0 f i libucrtd:invalid_parameter.obj
 0001:000926a0       ?check_synchronize_global_state_index@__crt_cached_ptd_host@@AEAA_KXZ 00000001800936a0 f i libucrtd:invalid_parameter.obj
 0001:00092700       ?dangerous_get_state_array@?$dual_state_global@P6AXPEB_W00I_K@Z@__crt_state_management@@QEAAPEAP6AXPEB_W00I_K@ZXZ 0000000180093700 f i libucrtd:invalid_parameter.obj
 0001:00092710       ?get_current_global_state_index@__crt_cached_ptd_host@@QEAA_KXZ 0000000180093710 f i libucrtd:invalid_parameter.obj
 0001:00092730       ?get_current_state_index@__crt_state_management@@YA_KXZ 0000000180093730 f i libucrtd:invalid_parameter.obj
 0001:00092740       ?get_raw_ptd_noexit@__crt_cached_ptd_host@@QEAAPEAU__acrt_ptd@@XZ 0000000180093740 f i libucrtd:invalid_parameter.obj
 0001:00092760       ?try_synchronize_per_thread_data@__crt_cached_ptd_host@@AEAAPEAU__acrt_ptd@@XZ 0000000180093760 f i libucrtd:invalid_parameter.obj
 0001:00092790       ?value@?$dual_state_global@P6AXPEB_W00I_K@Z@__crt_state_management@@QEAAAEAP6AXPEB_W00I_K@ZAEAV__crt_cached_ptd_host@@@Z 0000000180093790 f i libucrtd:invalid_parameter.obj
 0001:000927c0       ?value@?$dual_state_global@P6AXPEB_W00I_K@Z@__crt_state_management@@QEAAAEAP6AXPEB_W00I_K@ZXZ 00000001800937c0 f i libucrtd:invalid_parameter.obj
 0001:000927e0       __acrt_call_reportfault    00000001800937e0 f   libucrtd:invalid_parameter.obj
 0001:00092910       __acrt_initialize_invalid_parameter_handler 0000000180093910 f   libucrtd:invalid_parameter.obj
 0001:00092940       _get_invalid_parameter_handler 0000000180093940 f   libucrtd:invalid_parameter.obj
 0001:00092960       _get_thread_local_invalid_parameter_handler 0000000180093960 f   libucrtd:invalid_parameter.obj
 0001:00092990       _invalid_parameter         0000000180093990 f   libucrtd:invalid_parameter.obj
 0001:00092a00       _invalid_parameter_internal 0000000180093a00 f   libucrtd:invalid_parameter.obj
 0001:00092b50       _invalid_parameter_noinfo  0000000180093b50 f   libucrtd:invalid_parameter.obj
 0001:00092b80       _invalid_parameter_noinfo_noreturn 0000000180093b80 f   libucrtd:invalid_parameter.obj
 0001:00092bc0       _invoke_watson             0000000180093bc0 f   libucrtd:invalid_parameter.obj
 0001:00092c20       _set_invalid_parameter_handler 0000000180093c20 f   libucrtd:invalid_parameter.obj
 0001:00092c70       _set_thread_local_invalid_parameter_handler 0000000180093c70 f   libucrtd:invalid_parameter.obj
 0001:00092cb0       ?get_doserrno@__crt_cached_ptd_host@@QEAAAEAU?$cached@K@1@XZ 0000000180093cb0 f i libucrtd:errno.obj
 0001:00092cc0       ?set@?$cached@K@__crt_cached_ptd_host@@QEAAKK@Z 0000000180093cc0 f i libucrtd:errno.obj
 0001:00092cf0       __acrt_errno_from_os_error 0000000180093cf0 f   libucrtd:errno.obj
 0001:00092d80       __acrt_errno_map_os_error  0000000180093d80 f   libucrtd:errno.obj
 0001:00092db0       __acrt_errno_map_os_error_ptd 0000000180093db0 f   libucrtd:errno.obj
 0001:00092e10       __doserrno                 0000000180093e10 f   libucrtd:errno.obj
 0001:00092e40       _errno                     0000000180093e40 f   libucrtd:errno.obj
 0001:00092e70       _get_doserrno              0000000180093e70 f   libucrtd:errno.obj
 0001:00092f30       _get_errno                 0000000180093f30 f   libucrtd:errno.obj
 0001:00092ff0       _set_doserrno              0000000180093ff0 f   libucrtd:errno.obj
 0001:00093030       _set_errno                 0000000180094030 f   libucrtd:errno.obj
 0001:00093070       calloc                     0000000180094070 f   libucrtd:calloc.obj
 0001:000930b0       _recalloc                  00000001800940b0 f   libucrtd:recalloc.obj
 0001:00093100       _recalloc_base             0000000180094100 f   libucrtd:recalloc.obj
 0001:000931e0       _resetstkoflw              00000001800941e0 f   libucrtd:resetstk.obj
 0001:000939e0       wcscat_s                   00000001800949e0 f   libucrtd:wcscat_s.obj
 0001:000940c0       wcsncpy_s                  00000001800950c0 f   libucrtd:wcsncpy_s.obj
 0001:00094240       __isascii                  0000000180095240 f   libucrtd:_ctype.obj
 0001:00094270       __iscsym                   0000000180095270 f   libucrtd:_ctype.obj
 0001:000942b0       __iscsymf                  00000001800952b0 f   libucrtd:_ctype.obj
 0001:000942f0       __toascii                  00000001800952f0 f   libucrtd:_ctype.obj
 0001:00094300       _isalnum_l                 0000000180095300 f   libucrtd:_ctype.obj
 0001:00094330       _isalpha_l                 0000000180095330 f   libucrtd:_ctype.obj
 0001:00094360       _isblank_l                 0000000180095360 f   libucrtd:_ctype.obj
 0001:00094390       _iscntrl_l                 0000000180095390 f   libucrtd:_ctype.obj
 0001:000943c0       _iscsym_l                  00000001800953c0 f   libucrtd:_ctype.obj
 0001:00094410       _iscsymf_l                 0000000180095410 f   libucrtd:_ctype.obj
 0001:00094460       _isdigit_l                 0000000180095460 f   libucrtd:_ctype.obj
 0001:00094490       _isgraph_l                 0000000180095490 f   libucrtd:_ctype.obj
 0001:000944c0       _islower_l                 00000001800954c0 f   libucrtd:_ctype.obj
 0001:000944f0       _isprint_l                 00000001800954f0 f   libucrtd:_ctype.obj
 0001:00094520       _ispunct_l                 0000000180095520 f   libucrtd:_ctype.obj
 0001:00094550       _isspace_l                 0000000180095550 f   libucrtd:_ctype.obj
 0001:00094580       _isupper_l                 0000000180095580 f   libucrtd:_ctype.obj
 0001:000945b0       _isxdigit_l                00000001800955b0 f   libucrtd:_ctype.obj
 0001:000945e0       isalnum                    00000001800955e0 f   libucrtd:_ctype.obj
 0001:00094600       isalpha                    0000000180095600 f   libucrtd:_ctype.obj
 0001:00094620       isblank                    0000000180095620 f   libucrtd:_ctype.obj
 0001:00094650       iscntrl                    0000000180095650 f   libucrtd:_ctype.obj
 0001:00094670       isdigit                    0000000180095670 f   libucrtd:_ctype.obj
 0001:00094690       isgraph                    0000000180095690 f   libucrtd:_ctype.obj
 0001:000946b0       islower                    00000001800956b0 f   libucrtd:_ctype.obj
 0001:000946d0       isprint                    00000001800956d0 f   libucrtd:_ctype.obj
 0001:000946f0       ispunct                    00000001800956f0 f   libucrtd:_ctype.obj
 0001:00094710       isspace                    0000000180095710 f   libucrtd:_ctype.obj
 0001:00094730       isupper                    0000000180095730 f   libucrtd:_ctype.obj
 0001:00094750       isxdigit                   0000000180095750 f   libucrtd:_ctype.obj
 0001:00094770       wcscat                     0000000180095770 f   libucrtd:wcscat.obj
 0001:00094800       wcscpy                     0000000180095800 f   libucrtd:wcscpy.obj
 0001:00094fb0       ??$open_file@AEBQEBDAEBQEBDAEBHPEAU_iobuf@@@?$__crt_char_traits@D@@SAPEAU_iobuf@@AEBQEBD0AEBH$$QEAPEAU1@@Z 0000000180095fb0 f i libucrtd:fopen.obj
 0001:00095000       ??$open_file@AEBQEB_WAEBQEB_WAEBHPEAU_iobuf@@@?$__crt_char_traits@_W@@SAPEAU_iobuf@@AEBQEB_W0AEBH$$QEAPEAU1@@Z 0000000180096000 f i libucrtd:fopen.obj
 0001:00095050       ?unlock@__crt_stdio_stream@@QEBAXXZ 0000000180096050 f i libucrtd:fopen.obj
 0001:00095070       _fsopen                    0000000180096070 f   libucrtd:fopen.obj
 0001:000950a0       _wfopen                    00000001800960a0 f   libucrtd:fopen.obj
 0001:000950d0       _wfopen_s                  00000001800960d0 f   libucrtd:fopen.obj
 0001:00095100       _wfsopen                   0000000180096100 f   libucrtd:fopen.obj
 0001:00095130       fopen                      0000000180096130 f   libucrtd:fopen.obj
 0001:00095160       fopen_s                    0000000180096160 f   libucrtd:fopen.obj
 0001:000954a0       ?is_in_use@__crt_stdio_stream@@QEBA_NXZ 00000001800964a0 f i libucrtd:fclose.obj
 0001:000954e0       _fclose_nolock             00000001800964e0 f   libucrtd:fclose.obj
 0001:00095520       fclose                     0000000180096520 f   libucrtd:fclose.obj
 0001:00095860       _fputc_nolock              0000000180096860 f   libucrtd:fputc.obj
 0001:000958b0       _fputc_nolock_internal     00000001800968b0 f   libucrtd:fputc.obj
 0001:00095970       _fputchar                  0000000180096970 f   libucrtd:fputc.obj
 0001:000959a0       _putc_nolock               00000001800969a0 f   libucrtd:fputc.obj
 0001:000959c0       fputc                      00000001800969c0 f   libucrtd:fputc.obj
 0001:00095a10       putc                       0000000180096a10 f   libucrtd:fputc.obj
 0001:00095a30       putchar                    0000000180096a30 f   libucrtd:fputc.obj
 0001:00095ac0       _seh_filter_dll            0000000180096ac0 f   libucrtd:exception_filter.obj
 0001:00095af0       _seh_filter_exe            0000000180096af0 f   libucrtd:exception_filter.obj
 0001:00095dc0       ??$?B$$A6AXPEAXK0@Z@__crt_fast_encoded_nullptr_t@@QEBAP6AXPEAXK0@ZXZ 0000000180096dc0 f i libucrtd:exit.obj
 0001:00095e80       ??$__crt_fast_decode_pointer@P6AXPEAXK0@Z@@YAP6AXPEAXK0@ZQ6AX0K0@Z@Z 0000000180096e80 f i libucrtd:exit.obj
 0001:00095ec0       ??$__crt_fast_encode_pointer@P6AXPEAXK0@Z@@YAP6AXPEAXK0@ZQ6AX0K0@Z@Z 0000000180096ec0 f i libucrtd:exit.obj
 0001:00095f00       ??$__crt_get_proc_address@P6AXI@Z@@YAP6AXI@ZQEAUHINSTANCE__@@QEBD@Z 0000000180096f00 f i libucrtd:exit.obj
 0001:00095fc0       ??0?$__crt_unique_handle_t@U__crt_hmodule_traits@@@@QEAA@QEAUHINSTANCE__@@@Z 0000000180096fc0 f i libucrtd:exit.obj
 0001:00095fe0       ??1?$__crt_unique_handle_t@U__crt_hmodule_traits@@@@QEAA@XZ 0000000180096fe0 f i libucrtd:exit.obj
 0001:00096160       ?__acrt_select_exit_lock@@YA?AW4__acrt_lock_id@@XZ 0000000180097160 f i libucrtd:exit.obj
 0001:00096170       ?__crt_fast_encode_pointer@@YA?AU__crt_fast_encoded_nullptr_t@@$$T@Z 0000000180097170 f i libucrtd:exit.obj
 0001:000961b0       ?close@?$__crt_unique_handle_t@U__crt_hmodule_traits@@@@QEAAXXZ 00000001800971b0 f i libucrtd:exit.obj
 0001:000961f0       ?close@__crt_hmodule_traits@@SA_NPEAUHINSTANCE__@@@Z 00000001800971f0 f i libucrtd:exit.obj
 0001:00096310       ?get@?$__crt_unique_handle_t@U__crt_hmodule_traits@@@@QEBAPEAUHINSTANCE__@@XZ 0000000180097310 f i libucrtd:exit.obj
 0001:00096320       ?get_address_of@?$__crt_unique_handle_t@U__crt_hmodule_traits@@@@QEAAPEAPEAUHINSTANCE__@@XZ 0000000180097320 f i libucrtd:exit.obj
 0001:00096330       ?get_invalid_value@__crt_hmodule_traits@@SAPEAUHINSTANCE__@@XZ 0000000180097330 f i libucrtd:exit.obj
 0001:00096510       _Exit                      0000000180097510 f   libucrtd:exit.obj
 0001:00096530       __acrt_initialize_thread_local_exit_callback 0000000180097530 f   libucrtd:exit.obj
 0001:00096550       _c_exit                    0000000180097550 f   libucrtd:exit.obj
 0001:00096570       _cexit                     0000000180097570 f   libucrtd:exit.obj
 0001:00096590       _exit                      0000000180097590 f   libucrtd:exit.obj
 0001:000965b0       _is_c_termination_complete 00000001800975b0 f   libucrtd:exit.obj
 0001:000965d0       _register_thread_local_exe_atexit_callback 00000001800975d0 f   libucrtd:exit.obj
 0001:00096620       exit                       0000000180097620 f   libucrtd:exit.obj
 0001:00096640       quick_exit                 0000000180097640 f   libucrtd:exit.obj
 0001:00096660       ??$?RE@__crt_internal_free_policy@@QEBAXQEBE@Z 0000000180097660 f i libucrtd:argv_parsing.obj
 0001:00096690       ??$?RPEAD@__crt_internal_free_policy@@QEBAXQEBQEAD@Z 0000000180097690 f i libucrtd:argv_parsing.obj
 0001:000966c0       ??$?RPEA_W@__crt_internal_free_policy@@QEBAXQEBQEA_W@Z 00000001800976c0 f i libucrtd:argv_parsing.obj
 0001:00096e10       ??$get_module_file_name@$$TAEAY0BAF@DH@?$__crt_char_traits@D@@SAK$$QEA$$TAEAY0BAF@D$$QEAH@Z 0000000180097e10 f i libucrtd:argv_parsing.obj
 0001:00096e50       ??$get_module_file_name@$$TAEAY0BAF@_WH@?$__crt_char_traits@_W@@SAK$$QEA$$TAEAY0BAF@_W$$QEAH@Z 0000000180097e50 f i libucrtd:argv_parsing.obj
 0001:00097850       ??$set_program_name@PEAD@?$__crt_char_traits@D@@SAX$$QEAPEAD@Z 0000000180098850 f i libucrtd:argv_parsing.obj
 0001:00097870       ??$set_program_name@PEA_W@?$__crt_char_traits@_W@@SAX$$QEAPEA_W@Z 0000000180098870 f i libucrtd:argv_parsing.obj
 0001:000978d0       ??0?$__crt_unique_heap_ptr@EU__crt_internal_free_policy@@@@QEAA@QEAE@Z 00000001800988d0 f i libucrtd:argv_parsing.obj
 0001:000978f0       ??0?$__crt_unique_heap_ptr@PEADU__crt_internal_free_policy@@@@QEAA@QEAPEAD@Z 00000001800988f0 f i libucrtd:argv_parsing.obj
 0001:00097910       ??0?$__crt_unique_heap_ptr@PEA_WU__crt_internal_free_policy@@@@QEAA@QEAPEA_W@Z 0000000180098910 f i libucrtd:argv_parsing.obj
 0001:00097930       ??1?$__crt_unique_heap_ptr@EU__crt_internal_free_policy@@@@QEAA@XZ 0000000180098930 f i libucrtd:argv_parsing.obj
 0001:00097950       ??1?$__crt_unique_heap_ptr@PEADU__crt_internal_free_policy@@@@QEAA@XZ 0000000180098950 f i libucrtd:argv_parsing.obj
 0001:00097970       ??1?$__crt_unique_heap_ptr@PEA_WU__crt_internal_free_policy@@@@QEAA@XZ 0000000180098970 f i libucrtd:argv_parsing.obj
 0001:00097990       ??B?$__crt_unique_heap_ptr@EU__crt_internal_free_policy@@@@QEBA_NXZ 0000000180098990 f i libucrtd:argv_parsing.obj
 0001:00097a70       ?detach@?$__crt_unique_heap_ptr@EU__crt_internal_free_policy@@@@QEAAPEAEXZ 0000000180098a70 f i libucrtd:argv_parsing.obj
 0001:00097aa0       ?detach@?$__crt_unique_heap_ptr@PEADU__crt_internal_free_policy@@@@QEAAPEAPEADXZ 0000000180098aa0 f i libucrtd:argv_parsing.obj
 0001:00097ad0       ?detach@?$__crt_unique_heap_ptr@PEA_WU__crt_internal_free_policy@@@@QEAAPEAPEA_WXZ 0000000180098ad0 f i libucrtd:argv_parsing.obj
 0001:00097b90       ?get@?$__crt_unique_heap_ptr@EU__crt_internal_free_policy@@@@QEBAPEAEXZ 0000000180098b90 f i libucrtd:argv_parsing.obj
 0001:00097ba0       ?get@?$__crt_unique_heap_ptr@PEADU__crt_internal_free_policy@@@@QEBAPEAPEADXZ 0000000180098ba0 f i libucrtd:argv_parsing.obj
 0001:00097bb0       ?get@?$__crt_unique_heap_ptr@PEA_WU__crt_internal_free_policy@@@@QEBAPEAPEA_WXZ 0000000180098bb0 f i libucrtd:argv_parsing.obj
 0001:00097bc0       ?get_address_of@?$__crt_unique_heap_ptr@PEADU__crt_internal_free_policy@@@@QEAAPEAPEAPEADXZ 0000000180098bc0 f i libucrtd:argv_parsing.obj
 0001:00097bd0       ?get_address_of@?$__crt_unique_heap_ptr@PEA_WU__crt_internal_free_policy@@@@QEAAPEAPEAPEA_WXZ 0000000180098bd0 f i libucrtd:argv_parsing.obj
 0001:00097c20       ?is_valid@?$__crt_unique_heap_ptr@EU__crt_internal_free_policy@@@@QEBA_NXZ 0000000180098c20 f i libucrtd:argv_parsing.obj
 0001:00097c50       ?release@?$__crt_unique_heap_ptr@EU__crt_internal_free_policy@@@@QEAAXXZ 0000000180098c50 f i libucrtd:argv_parsing.obj
 0001:00097c80       ?release@?$__crt_unique_heap_ptr@PEADU__crt_internal_free_policy@@@@QEAAXXZ 0000000180098c80 f i libucrtd:argv_parsing.obj
 0001:00097cb0       ?release@?$__crt_unique_heap_ptr@PEA_WU__crt_internal_free_policy@@@@QEAAXXZ 0000000180098cb0 f i libucrtd:argv_parsing.obj
 0001:00097d30       __acrt_allocate_buffer_for_argv 0000000180098d30 f   libucrtd:argv_parsing.obj
 0001:00097e50       _configure_narrow_argv     0000000180098e50 f   libucrtd:argv_parsing.obj
