 OPOSBiometrics

 Timestamp is 61a75a1f (Wed Dec  1 20:18:55 2021)

 Preferred load address is 0000000180000000

 Start         Length     Name                   Class
 0001:00000000 00000d90H .text$di                CODE
 0001:00000d90 000e50e0H .text$mn                CODE
 0001:000e5e70 00000040H .text$mn$00             CODE
 0001:000e5eb0 00001330H .text$x                 CODE
 0001:000e71e0 00000124H .text$yd                CODE
 0002:00000000 00000710H .idata$5                DATA
 0002:00000710 00000030H .00cfg                  DATA
 0002:00000740 00000008H .CRT$XCA                DATA
 0002:00000748 00000008H .CRT$XCL                DATA
 0002:00000750 000000d8H .CRT$XCU                DATA
 0002:00000828 00000008H .CRT$XCZ                DATA
 0002:00000830 00000008H .CRT$XIA                DATA
 0002:00000838 00000028H .CRT$XIC                DATA
 0002:00000860 00000008H .CRT$XIZ                DATA
 0002:00000868 00000008H .CRT$XLA                DATA
 0002:00000870 00000008H .CRT$XLZ                DATA
 0002:00000878 00000008H .CRT$XPA                DATA
 0002:00000880 00000010H .CRT$XPX                DATA
 0002:00000890 00000008H .CRT$XPXA               DATA
 0002:00000898 00000008H .CRT$XPZ                DATA
 0002:000008a0 00000008H .CRT$XTA                DATA
 0002:000008a8 00000008H .CRT$XTZ                DATA
 0002:000008b0 00000000H .gehcont$y              DATA
 0002:000008b0 00000000H .gfids$y                DATA
 0002:000008b0 0003c7d0H .rdata                  DATA
 0002:0003d080 00000080H .rdata$CastGuardVftablesA DATA
 0002:0003d100 00000080H .rdata$CastGuardVftablesC DATA
 0002:0003d180 00000028H .rdata$T                DATA
 0002:0003d1a8 0000056cH .rdata$r                DATA
 0002:0003d714 000001a8H .rdata$voltmd           DATA
 0002:0003d8bc 000004a4H .rdata$zzzdbg           DATA
 0002:0003dd60 00000008H .rtc$IAA                DATA
 0002:0003dd68 00000030H .rtc$IMZ                DATA
 0002:0003dd98 00000008H .rtc$IZZ                DATA
 0002:0003dda0 00000008H .rtc$TAA                DATA
 0002:0003dda8 00000030H .rtc$TMZ                DATA
 0002:0003ddd8 00000008H .rtc$TZZ                DATA
 0002:0003dde0 00000004H .tls                    DATA
 0002:0003dde4 00000004H .tls$                   DATA
 0002:0003dde8 00000008H .tls$ZZZ                DATA
 0002:0003ddf0 00009fc8H .xdata                  DATA
 0002:00047db8 00000150H .xdata$x                DATA
 0002:00047f08 00000008H ATL$__a                 DATA
 0002:00047f10 00000010H ATL$__z                 DATA
 0002:00047f20 000000acH .edata                  DATA
 0002:00047fcc 00000078H .idata$2                DATA
 0002:00048044 00000014H .idata$3                DATA
 0002:00048058 00000710H .idata$4                DATA
 0002:00048768 00000df0H .idata$6                DATA
 0003:00000000 00000ef8H .data                   DATA
 0003:00000ef8 000000a8H .data$r                 DATA
 0003:00000fa0 000000f0H .data$rs                DATA
 0003:00001090 00003e7cH .bss                    DATA
 0004:00000000 0000c870H .pdata                  DATA
 0005:00000000 000000fcH _RDATA                  DATA
 0006:00000000 00000220H .rsrc$01                DATA
 0006:00000220 000048b0H .rsrc$02                DATA

  Address         Publics by Value              Rva+Base               Lib:Object

 0000:00000000       __hybrid_code_map_count    0000000000000000     <absolute>
 0000:00000000       __guard_fids_count         0000000000000000     <absolute>
 0000:00000000       __guard_iat_table          0000000000000000     <absolute>
 0000:00000000       __arm64x_native_entrypoint 0000000000000000     <absolute>
 0000:00000000       __x64_code_ranges_to_entry_points 0000000000000000     <absolute>
 0000:00000000       __guard_check_icall_a64n_fptr 0000000000000000     <absolute>
 0000:00000000       __x64_code_ranges_to_entry_points_count 0000000000000000     <absolute>
 0000:00000000       __guard_eh_cont_count      0000000000000000     <absolute>
 0000:00000000       __guard_eh_cont_table      0000000000000000     <absolute>
 0000:00000000       __arm64x_redirection_metadata 0000000000000000     <absolute>
 0000:00000000       ___safe_se_handler_table   0000000000000000     <absolute>
 0000:00000000       __arm64x_redirection_metadata_count 0000000000000000     <absolute>
 0000:00000000       ___safe_se_handler_count   0000000000000000     <absolute>
 0000:00000000       __enclave_config           0000000000000000     <absolute>
 0000:00000000       __hybrid_auxiliary_iat     0000000000000000     <absolute>
 0000:00000000       __arm64x_extra_rfe_table   0000000000000000     <absolute>
 0000:00000000       __hybrid_auxiliary_iat_copy 0000000000000000     <absolute>
 0000:00000000       __guard_longjmp_count      0000000000000000     <absolute>
 0000:00000000       __guard_fids_table         0000000000000000     <absolute>
 0000:00000000       __AbsoluteZero             0000000000000000     <absolute>
 0000:00000000       __arm64x_extra_rfe_table_size 0000000000000000     <absolute>
 0000:00000000       __guard_longjmp_table      0000000000000000     <absolute>
 0000:00000000       __dynamic_value_reloc_table 0000000000000000     <absolute>
 0000:00000000       __guard_iat_count          0000000000000000     <absolute>
 0000:00000000       __hybrid_code_map          0000000000000000     <absolute>
 0000:00000100       __guard_flags              0000000000000100     <absolute>
 0000:00000000       __ImageBase                0000000180000000     <linker-defined>
 0001:00000d90       ?_assert@@YAXPEB_W0I@Z     0000000180001d90 f   Assert.obj
 0001:00000e90       __local_stdio_printf_options 0000000180001e90 f i Assert.obj
 0001:00000ea0       __vswprintf_l              0000000180001ea0 f i Assert.obj
 0001:00000ef0       _swprintf                  0000000180001ef0 f i Assert.obj
 0001:00000f70       _vswprintf_c_l             0000000180001f70 f i Assert.obj
 0001:00000fe0       _vswprintf_l               0000000180001fe0 f i Assert.obj
 0001:00001030       ?cw_memcpy@@YAHPEADPEB_WH@Z 0000000180002030 f   CWString.obj
 0001:000010b0       ?cw_memcpy@@YAHPEA_WPEBDH@Z 00000001800020b0 f   CWString.obj
 0001:00001120       ?cw_memcpy@@YAHPEADPEBDH@Z 0000000180002120 f   CWString.obj
 0001:000011b0       ?cw_memcpy@@YAHPEA_WPEB_WH@Z 00000001800021b0 f   CWString.obj
 0001:00001210       ?cw_memset@@YAXPEADDH@Z    0000000180002210 f   CWString.obj
 0001:00001270       ?cw_memset@@YAXPEA_W_WH@Z  0000000180002270 f   CWString.obj
 0001:00001300       ?cw_strlen@@YAHPEBD@Z      0000000180002300 f   CWString.obj
 0001:00001360       ?cw_strlen@@YAHPEB_W@Z     0000000180002360 f   CWString.obj
 0001:000013c0       ?cw_strcpy@@YAHPEADPEB_W@Z 00000001800023c0 f   CWString.obj
 0001:00001400       ?cw_strcpy@@YAHPEA_WPEBD@Z 0000000180002400 f   CWString.obj
 0001:00001440       ?cw_strcpy@@YAHPEADPEBD@Z  0000000180002440 f   CWString.obj
 0001:00001480       ?cw_strcpy@@YAHPEA_WPEB_W@Z 0000000180002480 f   CWString.obj
 0001:000014c0       ?cw_strcat@@YAHPEADPEB_W@Z 00000001800024c0 f   CWString.obj
 0001:00001510       ?cw_strcat@@YAHPEA_WPEBD@Z 0000000180002510 f   CWString.obj
 0001:00001560       ?cw_strcat@@YAHPEADPEBD@Z  0000000180002560 f   CWString.obj
 0001:000015b0       ?cw_strcat@@YAHPEA_WPEB_W@Z 00000001800025b0 f   CWString.obj
 0001:00001600       ?cw_dup@@YAXPEBDAEAHAEAPEA_W1@Z 0000000180002600 f   CWString.obj
 0001:00001700       ?cw_dup@@YAXPEB_WAEAHAEAPEAD1@Z 0000000180002700 f   CWString.obj
 0001:000017e0       ?DupChar@_CW@@AEAAXXZ      00000001800027e0 f   CWString.obj
 0001:00001830       ?DupWide@_CW@@AEAAXXZ      0000000180002830 f   CWString.obj
 0001:00001880       ?GetCharsMbcs@_CW@@QEAAHXZ 0000000180002880 f   CWString.obj
 0001:000018e0       ?GetCharsWide@_CW@@QEAAHXZ 00000001800028e0 f   CWString.obj
 0001:00001940       ?SetVARIANT_BOOL@OposVariant@@QEAAXF@Z 0000000180002940 f   OposVariant.obj
 0001:000019a0       ?SetVARIANT_BOOL_Ptr@OposVariant@@QEAAXPEAFAEAJ@Z 00000001800029a0 f   OposVariant.obj
 0001:00001a00       ?GetLONG@OposVariant@@QEAAJXZ 0000000180002a00 f   OposVariant.obj
 0001:00001a60       ?ChangeLONG@OposVariant@@QEAAXPEAJAEAJ@Z 0000000180002a60 f   OposVariant.obj
 0001:00001b10       ?SetLONG@OposVariant@@QEAAXJ@Z 0000000180002b10 f   OposVariant.obj
 0001:00001b50       ?SetLONG_Ptr@OposVariant@@QEAAXPEAJAEAJ@Z 0000000180002b50 f   OposVariant.obj
 0001:00001bb0       ?ChangeCURRENCY@OposVariant@@QEAAXPEATtagCY@@AEAJ@Z 0000000180002bb0 f   OposVariant.obj
 0001:00001c60       ?SetCURRENCY@OposVariant@@QEAAXTtagCY@@@Z 0000000180002c60 f   OposVariant.obj
 0001:00001ca0       ?SetCURRENCY_Ptr@OposVariant@@QEAAXPEATtagCY@@AEAJ@Z 0000000180002ca0 f   OposVariant.obj
 0001:00001d00       ?ChangeBSTR@OposVariant@@QEAAXPEAPEA_WAEAJ@Z 0000000180002d00 f   OposVariant.obj
 0001:00001db0       ?SetBSTR@OposVariant@@QEAAXPEA_WAEAJ@Z 0000000180002db0 f   OposVariant.obj
 0001:00001e10       ?SetBSTR_Copy@OposVariant@@QEAAXPEA_WAEAJ@Z 0000000180002e10 f   OposVariant.obj
 0001:00001eb0       ?SetBSTR_OutPtr@OposVariant@@QEAA_NPEAPEA_WAEAJ@Z 0000000180002eb0 f   OposVariant.obj
 0001:00001f10       ?SetBSTR_InOutPtr@OposVariant@@QEAA_NPEAPEA_WAEAJ@Z 0000000180002f10 f   OposVariant.obj
 0001:00001f70       ?SetVARIANT@OposVariant@@QEAAXAEAUtagVARIANT@@GAEAJ@Z 0000000180002f70 f   OposVariant.obj
 0001:00002000       ?SetVARIANT_Ptr@OposVariant@@QEAAXAEAPEAUtagVARIANT@@GAEAJ@Z 0000000180003000 f   OposVariant.obj
 0001:000020a0       ?SetString@OposVariant@@QEAAXPEB_WAEAJ@Z 00000001800030a0 f   OposVariant.obj
 0001:00002130       ?SetDispatch_Ptr@OposVariant@@QEAAXPEAUIDispatch@@AEAJ@Z 0000000180003130 f   OposVariant.obj
 0001:000021b0       ??0OposDispParms@@QEAA@PEAVOposVariant@@H@Z 00000001800031b0 f   OposVariant.obj
 0001:000022b0       ??1OposDispParms@@QEAA@XZ  00000001800032b0 f   OposVariant.obj
 0001:000022f0       ??$AtlMultiply@_K@ATL@@YAJPEA_K_K1@Z 00000001800032f0 f i OposVariant.obj
 0001:00002360       ??0?$CHeapPtr@_WVCCRTAllocator@ATL@@@ATL@@QEAA@XZ 0000000180003360 f i OposVariant.obj
 0001:00002380       ??0?$CHeapPtrBase@_WVCCRTAllocator@ATL@@@ATL@@IEAA@XZ 0000000180003380 f i OposVariant.obj
 0001:000023a0       ??0?$CSimpleArray@GV?$CSimpleArrayEqualHelper@G@ATL@@@ATL@@QEAA@XZ 00000001800033a0 f i OposVariant.obj
 0001:000023e0       ??0?$CTraceCategoryEx@$00$0A@@ATL@@QEAA@PEB_W@Z 00000001800033e0 f i OposVariant.obj
 0001:00002410       ??0?$CTraceCategoryEx@$01$0A@@ATL@@QEAA@PEB_W@Z 0000000180003410 f i OposVariant.obj
 0001:00002440       ??0?$CTraceCategoryEx@$03$0A@@ATL@@QEAA@PEB_W@Z 0000000180003440 f i OposVariant.obj
 0001:00002470       ??0?$CTraceCategoryEx@$07$0A@@ATL@@QEAA@PEB_W@Z 0000000180003470 f i OposVariant.obj
 0001:000024a0       ??0?$CTraceCategoryEx@$0BA@$0A@@ATL@@QEAA@PEB_W@Z 00000001800034a0 f i OposVariant.obj
 0001:000024d0       ??0?$CTraceCategoryEx@$0BAA@$0A@@ATL@@QEAA@PEB_W@Z 00000001800034d0 f i OposVariant.obj
 0001:00002500       ??0?$CTraceCategoryEx@$0BAAA@$0A@@ATL@@QEAA@PEB_W@Z 0000000180003500 f i OposVariant.obj
 0001:00002530       ??0?$CTraceCategoryEx@$0BAAAA@$0A@@ATL@@QEAA@PEB_W@Z 0000000180003530 f i OposVariant.obj
 0001:00002560       ??0?$CTraceCategoryEx@$0BAAAAA@$0A@@ATL@@QEAA@PEB_W@Z 0000000180003560 f i OposVariant.obj
 0001:00002590       ??0?$CTraceCategoryEx@$0CA@$0A@@ATL@@QEAA@PEB_W@Z 0000000180003590 f i OposVariant.obj
 0001:000025c0       ??0?$CTraceCategoryEx@$0CAA@$0A@@ATL@@QEAA@PEB_W@Z 00000001800035c0 f i OposVariant.obj
 0001:000025f0       ??0?$CTraceCategoryEx@$0CAAA@$0A@@ATL@@QEAA@PEB_W@Z 00000001800035f0 f i OposVariant.obj
 0001:00002620       ??0?$CTraceCategoryEx@$0CAAAA@$0A@@ATL@@QEAA@PEB_W@Z 0000000180003620 f i OposVariant.obj
 0001:00002650       ??0?$CTraceCategoryEx@$0CAAAAA@$0A@@ATL@@QEAA@PEB_W@Z 0000000180003650 f i OposVariant.obj
 0001:00002680       ??0?$CTraceCategoryEx@$0EA@$0A@@ATL@@QEAA@PEB_W@Z 0000000180003680 f i OposVariant.obj
 0001:000026b0       ??0?$CTraceCategoryEx@$0EAA@$0A@@ATL@@QEAA@PEB_W@Z 00000001800036b0 f i OposVariant.obj
 0001:000026e0       ??0?$CTraceCategoryEx@$0EAAA@$0A@@ATL@@QEAA@PEB_W@Z 00000001800036e0 f i OposVariant.obj
 0001:00002710       ??0?$CTraceCategoryEx@$0EAAAA@$0A@@ATL@@QEAA@PEB_W@Z 0000000180003710 f i OposVariant.obj
 0001:00002740       ??0?$CTraceCategoryEx@$0EAAAAA@$0A@@ATL@@QEAA@PEB_W@Z 0000000180003740 f i OposVariant.obj
 0001:00002770       ??0?$CTraceCategoryEx@$0IA@$0A@@ATL@@QEAA@PEB_W@Z 0000000180003770 f i OposVariant.obj
 0001:000027a0       ??0?$CTraceCategoryEx@$0IAA@$0A@@ATL@@QEAA@PEB_W@Z 00000001800037a0 f i OposVariant.obj
 0001:000027d0       ??0?$CTraceCategoryEx@$0IAAA@$0A@@ATL@@QEAA@PEB_W@Z 00000001800037d0 f i OposVariant.obj
 0001:00002800       ??0?$CTraceCategoryEx@$0IAAAA@$0A@@ATL@@QEAA@PEB_W@Z 0000000180003800 f i OposVariant.obj
 0001:00002830       ??0CAtlComModule@ATL@@QEAA@XZ 0000000180003830 f i OposVariant.obj
 0001:00002940       ??0CAtlWinModule@ATL@@QEAA@XZ 0000000180003940 f i OposVariant.obj
 0001:000029e0       ??0CComCriticalSection@ATL@@QEAA@XZ 00000001800039e0 f i OposVariant.obj
 0001:00002a10       ??0CPreserveLastError@ATL@@QEAA@XZ 0000000180003a10 f i OposVariant.obj
 0001:00002a40       ??0CTraceFileAndLineInfo@ATL@@QEAA@PEBDH@Z 0000000180003a40 f i OposVariant.obj
 0001:00002a70       ??0_ATL_COM_MODULE70@ATL@@QEAA@XZ 0000000180003a70 f i OposVariant.obj
 0001:00002aa0       ??0_ATL_WIN_MODULE70@ATL@@QEAA@XZ 0000000180003aa0 f i OposVariant.obj
 0001:00002ae0       ??1?$CHeapPtr@_WVCCRTAllocator@ATL@@@ATL@@QEAA@XZ 0000000180003ae0 f i OposVariant.obj
 0001:00002b00       ??1?$CHeapPtrBase@_WVCCRTAllocator@ATL@@@ATL@@QEAA@XZ 0000000180003b00 f i OposVariant.obj
 0001:00002b20       ??1?$CSimpleArray@GV?$CSimpleArrayEqualHelper@G@ATL@@@ATL@@QEAA@XZ 0000000180003b20 f i OposVariant.obj
 0001:00002b40       ??1CAtlComModule@ATL@@QEAA@XZ 0000000180003b40 f i OposVariant.obj
 0001:00002b70       ??1CAtlWinModule@ATL@@QEAA@XZ 0000000180003b70 f i OposVariant.obj
 0001:00002ba0       ??1CComBSTR@ATL@@QEAA@XZ   0000000180003ba0 f i OposVariant.obj
 0001:00002bc0       ??1CComCriticalSection@ATL@@QEAA@XZ 0000000180003bc0 f i OposVariant.obj
 0001:00002bd0       ??1CPreserveLastError@ATL@@QEAA@XZ 0000000180003bd0 f i OposVariant.obj
 0001:00002bf0       ??1_ATL_COM_MODULE70@ATL@@QEAA@XZ 0000000180003bf0 f i OposVariant.obj
 0001:00002c20       ??1_ATL_WIN_MODULE70@ATL@@QEAA@XZ 0000000180003c20 f i OposVariant.obj
 0001:00002c60       ??1stringdispid@CComTypeInfoHolder@ATL@@QEAA@XZ 0000000180003c60 f i OposVariant.obj
 0001:00002c80       ??A?$CSimpleArray@GV?$CSimpleArrayEqualHelper@G@ATL@@@ATL@@QEAAAEAGH@Z 0000000180003c80 f i OposVariant.obj
 0001:00002d20       ??B?$CHeapPtrBase@_WVCCRTAllocator@ATL@@@ATL@@QEBAPEA_WXZ 0000000180003d20 f i OposVariant.obj
 0001:00002d30       ??B?$CTraceCategoryEx@$01$0A@@ATL@@QEAAIXZ 0000000180003d30 f i OposVariant.obj
 0001:00002d40       ??B?$CTraceCategoryEx@$0CA@$0A@@ATL@@QEAAIXZ 0000000180003d40 f i OposVariant.obj
 0001:00002d50       ??RCTraceFileAndLineInfo@ATL@@QEBAXHIPEB_WZZ 0000000180003d50 f i OposVariant.obj
 0001:00002e10       ??_Estringdispid@CComTypeInfoHolder@ATL@@QEAAPEAXI@Z 0000000180003e10 f i OposVariant.obj
 0001:00002eb0       ??_H@YAXPEAX_K1P6APEAX0@Z@Z 0000000180003eb0 f i OposVariant.obj
 0001:00002f30       ??_I@YAXPEAX_K1P6AX0@Z@Z   0000000180003f30 f i OposVariant.obj
 0001:00002fd0       ?Allocate@?$CHeapPtr@_WVCCRTAllocator@ATL@@@ATL@@QEAA_N_K@Z 0000000180003fd0 f i OposVariant.obj
 0001:00003050       ?Allocate@CCRTAllocator@ATL@@SAPEAX_K@Z 0000000180004050 f i OposVariant.obj
 0001:00003070       ?AllocateBytes@?$CHeapPtrBase@_WVCCRTAllocator@ATL@@@ATL@@QEAA_N_K@Z 0000000180004070 f i OposVariant.obj
 0001:000030f0       ?AtlWinModuleInit@ATL@@YAJPEAU_ATL_WIN_MODULE70@1@@Z 00000001800040f0 f i OposVariant.obj
 0001:000031e0       ?AtlWinModuleTerm@ATL@@YAJPEAU_ATL_WIN_MODULE70@1@PEAUHINSTANCE__@@@Z 00000001800041e0 f i OposVariant.obj
 0001:000032b0       ?Clear@OposVariant@@QEAAJXZ 00000001800042b0 f i OposVariant.obj
 0001:000032e0       ?Free@?$CHeapPtrBase@_WVCCRTAllocator@ATL@@@ATL@@QEAAXXZ 00000001800042e0 f i OposVariant.obj
 0001:00003310       ?Free@CCRTAllocator@ATL@@SAXPEAX@Z 0000000180004310 f i OposVariant.obj
 0001:00003330       ?GetCategoryName@CTrace@ATL@@CAPEA_WI@Z 0000000180004330 f i OposVariant.obj
 0001:000033a0       ?GetModuleInstance@CAtlBaseModule@ATL@@QEAAPEAUHINSTANCE__@@XZ 00000001800043a0 f i OposVariant.obj
 0001:000033c0       ?GetSize@?$CSimpleArray@GV?$CSimpleArrayEqualHelper@G@ATL@@@ATL@@QEBAHXZ 00000001800043c0 f i OposVariant.obj
 0001:000033d0       ?Init@CComCriticalSection@ATL@@QEAAJXZ 00000001800043d0 f i OposVariant.obj
 0001:00003420       ?RegisterCategory@CTrace@ATL@@SAXPEB_WI@Z 0000000180004420 f i OposVariant.obj
 0001:000034e0       ?RemoveAll@?$CSimpleArray@GV?$CSimpleArrayEqualHelper@G@ATL@@@ATL@@QEAAXXZ 00000001800044e0 f i OposVariant.obj
 0001:00003550       ?Term@CAtlComModule@ATL@@QEAAXXZ 0000000180004550 f i OposVariant.obj
 0001:00003620       ?Term@CAtlWinModule@ATL@@QEAAXXZ 0000000180004620 f i OposVariant.obj
 0001:00003650       ?Term@CComCriticalSection@ATL@@QEAAJXZ 0000000180004650 f i OposVariant.obj
 0001:00003670       ?TraceV@CTrace@ATL@@CAXPEBDHIIPEB_W@Z 0000000180004670 f i OposVariant.obj
 0001:00003920       ?TraceV@CTrace@ATL@@SAXPEBDHIIPEB_WPEAD@Z 0000000180004920 f i OposVariant.obj
 0001:00003ad0       ?_AtlInitializeCriticalSectionEx@ATL@@YAHPEAU_RTL_CRITICAL_SECTION@@KK@Z 0000000180004ad0 f i OposVariant.obj
 0001:00003b00       ?_AtlRaiseException@ATL@@YAXKK@Z 0000000180004b00 f i OposVariant.obj
 0001:00003b30       HRESULT_FROM_WIN32         0000000180004b30 f i OposVariant.obj
 0001:00003b70       _vswprintf_s_l             0000000180004b70 f i OposVariant.obj
 0001:00003be0       swprintf_s                 0000000180004be0 f i OposVariant.obj
 0001:00003c70       ?ObjectMain@CComObjectRootBase@ATL@@SAX_N@Z 0000000180004c70 f i Biometrics.obj
 0001:00003c80       ?GetCategoryMap@CComObjectRootBase@ATL@@SAPEBU_ATL_CATMAP_ENTRY@2@XZ 0000000180004c80 f i Biometrics.obj
 0001:00003c90       ?GetObjectDescription@?$CComCoClass@VCOPOSBiometrics@@$1?CLSID_OPOSBiometrics@@3U_GUID@@B@ATL@@SAPEB_WXZ 0000000180004c90 f i Biometrics.obj
 0001:00003ca0       ?UpdateRegistry@COPOSBiometrics@@SAJH@Z 0000000180004ca0 f i Biometrics.obj
 0001:00003cd0       ?CreateInstance@?$CComCreator@V?$CComObjectCached@VCComClassFactory@ATL@@@ATL@@@ATL@@SAJPEAXAEBU_GUID@@PEAPEAX@Z 0000000180004cd0 f i Biometrics.obj
 0001:00003ea0       ?CreateInstance@?$CComCreator2@V?$CComCreator@V?$CComObject@VCOPOSBiometrics@@@ATL@@@ATL@@V?$CComCreator@V?$CComAggObject@VCOPOSBiometrics@@@ATL@@@2@@ATL@@SAJPEAXAEBU_GUID@@PEAPEAX@Z 0000000180004ea0 f i Biometrics.obj
 0001:00004090       DllGetClassObject          0000000180005090 f   Biometrics.obj
 0001:000040d0       DllCanUnloadNow            00000001800050d0 f   Biometrics.obj
 0001:00004110       DllRegisterServer          0000000180005110 f   Biometrics.obj
 0001:00004140       DllUnregisterServer        0000000180005140 f   Biometrics.obj
 0001:00004300       DllMain                    0000000180005300 f   Biometrics.obj
 0001:00004370       ??$?2G@Wrapper@?$CSimpleArray@GV?$CSimpleArrayEqualHelper@G@ATL@@@ATL@@SAPEAX_KPEAG@Z 0000000180005370 f i Biometrics.obj
 0001:00004390       ??$?2PEA_W@?$Wrapper@PEA_W@?$CSimpleMap@PEA_WPEA_WVCExpansionVectorEqualHelper@ATL@@@ATL@@SAPEAX_KPEAPEA_W@Z 0000000180005390 f i Biometrics.obj
 0001:000043b0       ??$?4UITypeInfo2@@@?$CComPtr@UITypeInfo@@@ATL@@QEAAPEAUITypeInfo@@AEBV?$CComPtr@UITypeInfo2@@@1@@Z 00000001800053b0 f i Biometrics.obj
 0001:00004410       ??$AtlAdd@_K@ATL@@YAJPEA_K_K1@Z 0000000180005410 f i Biometrics.obj
 0001:00004470       ??$AtlAddThrow@_K@ATL@@YA_K_K0@Z 0000000180005470 f i Biometrics.obj
 0001:000044e0       ??$AtlModuleRegisterWndClassInfoT@VAtlModuleRegisterWndClassInfoParamW@ATL@@@ATL@@YAGPEAU_ATL_BASE_MODULE70@0@PEAU_ATL_WIN_MODULE70@0@PEAU_ATL_WNDCLASSINFOW@0@PEAP6A_JPEAUHWND__@@I_K_J@ZVAtlModuleRegisterWndClassInfoParamW@0@@Z 00000001800054e0 f i Biometrics.obj
 0001:00004ab0       ??$AtlMultiply@H@ATL@@YAJPEAHHH@Z 0000000180005ab0 f i Biometrics.obj
 0001:00004b10       ??$AtlMultiply@K@ATL@@YAJPEAKKK@Z 0000000180005b10 f i Biometrics.obj
 0001:00004b60       ??$AtlMultiplyThrow@_K@ATL@@YA_K_K0@Z 0000000180005b60 f i Biometrics.obj
 0001:00004bd0       ??$QueryInterface@UIPersistStream@@@IUnknown@@QEAAJPEAPEAUIPersistStream@@@Z 0000000180005bd0 f i Biometrics.obj
 0001:00004c00       ??$QueryInterface@UITypeInfo2@@@IUnknown@@QEAAJPEAPEAUITypeInfo2@@@Z 0000000180005c00 f i Biometrics.obj
 0001:00004c30       ??0?$CAtlModuleT@VCComModule@ATL@@@ATL@@QEAA@XZ 0000000180005c30 f i Biometrics.obj
 0001:00004c60       ??0?$CAtlSafeAllocBufferManager@VCCRTAllocator@ATL@@@_ATL_SAFE_ALLOCA_IMPL@ATL@@QEAA@XZ 0000000180005c60 f i Biometrics.obj
 0001:00004c80       ??0?$CAutoVectorPtr@_W@ATL@@QEAA@XZ 0000000180005c80 f i Biometrics.obj
 0001:00004ca0       ??0?$CComAggObject@VCOPOSBiometrics@@@ATL@@QEAA@PEAX@Z 0000000180005ca0 f i Biometrics.obj
 0001:00004d10       ??0?$CComContainedObject@VCOPOSBiometrics@@@ATL@@QEAA@PEAX@Z 0000000180005d10 f i Biometrics.obj
 0001:00004ea0       ??0?$CComCritSecLock@VCComCriticalSection@ATL@@@ATL@@QEAA@AEAVCComCriticalSection@1@_N@Z 0000000180005ea0 f i Biometrics.obj
 0001:00004f00       ??0?$CComEnum@UIEnumConnectionPoints@@$1?_GUID_b196b285_bab4_101a_b69c_00aa00341d07@@3U__s_GUID@@BPEAUIConnectionPoint@@V?$_CopyInterface@UIConnectionPoint@@@ATL@@VCComSingleThreadModel@6@@ATL@@QEAA@XZ 0000000180005f00 f i Biometrics.obj
 0001:00004f30       ??0?$CComEnum@UIEnumConnections@@$1?_GUID_b196b287_bab4_101a_b69c_00aa00341d07@@3U__s_GUID@@BUtagCONNECTDATA@@V?$_Copy@UtagCONNECTDATA@@@ATL@@VCComSingleThreadModel@6@@ATL@@QEAA@XZ 0000000180005f30 f i Biometrics.obj
 0001:00004f60       ??0?$CComEnumImpl@UIEnumConnectionPoints@@$1?_GUID_b196b285_bab4_101a_b69c_00aa00341d07@@3U__s_GUID@@BPEAUIConnectionPoint@@V?$_CopyInterface@UIConnectionPoint@@@ATL@@@ATL@@QEAA@XZ 0000000180005f60 f i Biometrics.obj
 0001:00004fd0       ??0?$CComEnumImpl@UIEnumConnections@@$1?_GUID_b196b287_bab4_101a_b69c_00aa00341d07@@3U__s_GUID@@BUtagCONNECTDATA@@V?$_Copy@UtagCONNECTDATA@@@ATL@@@ATL@@QEAA@XZ 0000000180005fd0 f i Biometrics.obj
 0001:00005040       ??0?$CComObject@V?$CComEnum@UIEnumConnectionPoints@@$1?_GUID_b196b285_bab4_101a_b69c_00aa00341d07@@3U__s_GUID@@BPEAUIConnectionPoint@@V?$_CopyInterface@UIConnectionPoint@@@ATL@@VCComSingleThreadModel@6@@ATL@@@ATL@@QEAA@PEAX@Z 0000000180006040 f i Biometrics.obj
 0001:00005090       ??0?$CComObject@V?$CComEnum@UIEnumConnections@@$1?_GUID_b196b287_bab4_101a_b69c_00aa00341d07@@3U__s_GUID@@BUtagCONNECTDATA@@V?$_Copy@UtagCONNECTDATA@@@ATL@@VCComSingleThreadModel@6@@ATL@@@ATL@@QEAA@PEAX@Z 0000000180006090 f i Biometrics.obj
 0001:000050e0       ??0?$CComObject@VCOPOSBiometrics@@@ATL@@QEAA@PEAX@Z 00000001800060e0 f i Biometrics.obj
 0001:00005270       ??0?$CComObjectCached@VCComClassFactory@ATL@@@ATL@@QEAA@PEAX@Z 0000000180006270 f i Biometrics.obj
 0001:000052b0       ??0?$CComObjectRootEx@VCComMultiThreadModel@ATL@@@ATL@@QEAA@XZ 00000001800062b0 f i Biometrics.obj
 0001:000052e0       ??0?$CComObjectRootEx@VCComSingleThreadModel@ATL@@@ATL@@QEAA@XZ 00000001800062e0 f i Biometrics.obj
 0001:00005300       ??0?$CComPtr@UIAdviseSink@@@ATL@@QEAA@PEAUIAdviseSink@@@Z 0000000180006300 f i Biometrics.obj
 0001:00005330       ??0?$CComPtr@UICatRegister@@@ATL@@QEAA@XZ 0000000180006330 f i Biometrics.obj
 0001:00005350       ??0?$CComPtr@UIConnectionPoint@@@ATL@@QEAA@XZ 0000000180006350 f i Biometrics.obj
 0001:00005370       ??0?$CComPtr@UIConnectionPointContainer@@@ATL@@QEAA@XZ 0000000180006370 f i Biometrics.obj
 0001:00005390       ??0?$CComPtr@UIDataObject@@@ATL@@QEAA@XZ 0000000180006390 f i Biometrics.obj
 0001:000053b0       ??0?$CComPtr@UIDispatch@@@ATL@@QEAA@XZ 00000001800063b0 f i Biometrics.obj
 0001:000053d0       ??0?$CComPtr@UIOleClientSite@@@ATL@@QEAA@PEAUIOleClientSite@@@Z 00000001800063d0 f i Biometrics.obj
 0001:00005400       ??0?$CComPtr@UIOleControlSite@@@ATL@@QEAA@XZ 0000000180006400 f i Biometrics.obj
 0001:00005420       ??0?$CComPtr@UIOleInPlaceActiveObject@@@ATL@@QEAA@XZ 0000000180006420 f i Biometrics.obj
 0001:00005440       ??0?$CComPtr@UIOleInPlaceFrame@@@ATL@@QEAA@XZ 0000000180006440 f i Biometrics.obj
 0001:00005460       ??0?$CComPtr@UIOleInPlaceObject@@@ATL@@QEAA@XZ 0000000180006460 f i Biometrics.obj
 0001:00005480       ??0?$CComPtr@UIOleInPlaceUIWindow@@@ATL@@QEAA@XZ 0000000180006480 f i Biometrics.obj
 0001:000054a0       ??0?$CComPtr@UIOleObject@@@ATL@@QEAA@XZ 00000001800064a0 f i Biometrics.obj
 0001:000054c0       ??0?$CComPtr@UIPersistStream@@@ATL@@QEAA@XZ 00000001800064c0 f i Biometrics.obj
 0001:000054e0       ??0?$CComPtr@UIPersistStreamInit@@@ATL@@QEAA@XZ 00000001800064e0 f i Biometrics.obj
 0001:00005500       ??0?$CComPtr@UIPointerInactive@@@ATL@@QEAA@XZ 0000000180006500 f i Biometrics.obj
 0001:00005520       ??0?$CComPtr@UIProvideClassInfo2@@@ATL@@QEAA@XZ 0000000180006520 f i Biometrics.obj
 0001:00005540       ??0?$CComPtr@UISpecifyPropertyPages@@@ATL@@QEAA@XZ 0000000180006540 f i Biometrics.obj
 0001:00005560       ??0?$CComPtr@UIStream@@@ATL@@QEAA@XZ 0000000180006560 f i Biometrics.obj
 0001:00005580       ??0?$CComPtr@UITypeInfo2@@@ATL@@QEAA@XZ 0000000180006580 f i Biometrics.obj
 0001:000055a0       ??0?$CComPtr@UITypeInfo@@@ATL@@QEAA@AEBV01@@Z 00000001800065a0 f i Biometrics.obj
 0001:000055d0       ??0?$CComPtr@UITypeInfo@@@ATL@@QEAA@XZ 00000001800065d0 f i Biometrics.obj
 0001:000055f0       ??0?$CComPtr@UITypeLib@@@ATL@@QEAA@XZ 00000001800065f0 f i Biometrics.obj
 0001:00005610       ??0?$CComPtr@UIUnknown@@@ATL@@QEAA@AEBV01@@Z 0000000180006610 f i Biometrics.obj
 0001:00005640       ??0?$CComPtr@UIUnknown@@@ATL@@QEAA@PEAUIUnknown@@@Z 0000000180006640 f i Biometrics.obj
 0001:00005670       ??0?$CComPtr@UIUnknown@@@ATL@@QEAA@XZ 0000000180006670 f i Biometrics.obj
 0001:00005690       ??0?$CComPtr@UIViewObjectEx@@@ATL@@QEAA@XZ 0000000180006690 f i Biometrics.obj
 0001:000056b0       ??0?$CComPtrBase@UIAdviseSink@@@ATL@@IEAA@PEAUIAdviseSink@@@Z 00000001800066b0 f i Biometrics.obj
 0001:00005700       ??0?$CComPtrBase@UICatRegister@@@ATL@@IEAA@XZ 0000000180006700 f i Biometrics.obj
 0001:00005720       ??0?$CComPtrBase@UIConnectionPoint@@@ATL@@IEAA@XZ 0000000180006720 f i Biometrics.obj
 0001:00005740       ??0?$CComPtrBase@UIConnectionPointContainer@@@ATL@@IEAA@XZ 0000000180006740 f i Biometrics.obj
 0001:00005760       ??0?$CComPtrBase@UIDataObject@@@ATL@@IEAA@XZ 0000000180006760 f i Biometrics.obj
 0001:00005780       ??0?$CComPtrBase@UIDispatch@@@ATL@@IEAA@XZ 0000000180006780 f i Biometrics.obj
 0001:000057a0       ??0?$CComPtrBase@UIOleClientSite@@@ATL@@IEAA@PEAUIOleClientSite@@@Z 00000001800067a0 f i Biometrics.obj
 0001:000057f0       ??0?$CComPtrBase@UIOleControlSite@@@ATL@@IEAA@XZ 00000001800067f0 f i Biometrics.obj
 0001:00005810       ??0?$CComPtrBase@UIOleInPlaceActiveObject@@@ATL@@IEAA@XZ 0000000180006810 f i Biometrics.obj
 0001:00005830       ??0?$CComPtrBase@UIOleInPlaceFrame@@@ATL@@IEAA@XZ 0000000180006830 f i Biometrics.obj
 0001:00005850       ??0?$CComPtrBase@UIOleInPlaceObject@@@ATL@@IEAA@XZ 0000000180006850 f i Biometrics.obj
 0001:00005870       ??0?$CComPtrBase@UIOleInPlaceUIWindow@@@ATL@@IEAA@XZ 0000000180006870 f i Biometrics.obj
 0001:00005890       ??0?$CComPtrBase@UIOleObject@@@ATL@@IEAA@XZ 0000000180006890 f i Biometrics.obj
 0001:000058b0       ??0?$CComPtrBase@UIPersistStream@@@ATL@@IEAA@XZ 00000001800068b0 f i Biometrics.obj
 0001:000058d0       ??0?$CComPtrBase@UIPersistStreamInit@@@ATL@@IEAA@XZ 00000001800068d0 f i Biometrics.obj
 0001:000058f0       ??0?$CComPtrBase@UIPointerInactive@@@ATL@@IEAA@XZ 00000001800068f0 f i Biometrics.obj
 0001:00005910       ??0?$CComPtrBase@UIProvideClassInfo2@@@ATL@@IEAA@XZ 0000000180006910 f i Biometrics.obj
 0001:00005930       ??0?$CComPtrBase@UISpecifyPropertyPages@@@ATL@@IEAA@XZ 0000000180006930 f i Biometrics.obj
 0001:00005950       ??0?$CComPtrBase@UIStream@@@ATL@@IEAA@XZ 0000000180006950 f i Biometrics.obj
 0001:00005970       ??0?$CComPtrBase@UITypeInfo2@@@ATL@@IEAA@XZ 0000000180006970 f i Biometrics.obj
 0001:00005990       ??0?$CComPtrBase@UITypeInfo@@@ATL@@IEAA@PEAUITypeInfo@@@Z 0000000180006990 f i Biometrics.obj
 0001:000059e0       ??0?$CComPtrBase@UITypeInfo@@@ATL@@IEAA@XZ 00000001800069e0 f i Biometrics.obj
 0001:00005a00       ??0?$CComPtrBase@UITypeLib@@@ATL@@IEAA@XZ 0000000180006a00 f i Biometrics.obj
 0001:00005a20       ??0?$CComPtrBase@UIUnknown@@@ATL@@IEAA@PEAUIUnknown@@@Z 0000000180006a20 f i Biometrics.obj
 0001:00005a70       ??0?$CComPtrBase@UIUnknown@@@ATL@@IEAA@XZ 0000000180006a70 f i Biometrics.obj
 0001:00005a90       ??0?$CComPtrBase@UIViewObjectEx@@@ATL@@IEAA@XZ 0000000180006a90 f i Biometrics.obj
 0001:00005ab0       ??0?$CComQIPtr@UIOleControlSite@@$1?_GUID_b196b289_bab4_101a_b69c_00aa00341d07@@3U__s_GUID@@B@ATL@@QEAA@PEAUIUnknown@@@Z 0000000180006ab0 f i Biometrics.obj
 0001:00005b10       ??0?$CComQIPtr@UIOleObject@@$1?_GUID_00000112_0000_0000_c000_000000000046@@3U__s_GUID@@B@ATL@@QEAA@XZ 0000000180006b10 f i Biometrics.obj
 0001:00005b30       ??0?$CComQIPtr@UISpecifyPropertyPages@@$1?_GUID_b196b28b_bab4_101a_b69c_00aa00341d07@@3U__s_GUID@@B@ATL@@QEAA@XZ 0000000180006b30 f i Biometrics.obj
 0001:00005b50       ??0?$CSimpleMap@PEA_WPEA_WVCExpansionVectorEqualHelper@ATL@@@ATL@@QEAA@XZ 0000000180006b50 f i Biometrics.obj
 0001:00005b90       ??0?$CTempBuffer@E$0BAA@VCCRTAllocator@ATL@@@ATL@@QEAA@XZ 0000000180006b90 f i Biometrics.obj
 0001:00005bb0       ??0?$CTempBuffer@_W$0BAA@VCCRTAllocator@ATL@@@ATL@@QEAA@XZ 0000000180006bb0 f i Biometrics.obj
 0001:00005bd0       ??0?$CTempBuffer@_W$0EAA@VCCRTAllocator@ATL@@@ATL@@QEAA@XZ 0000000180006bd0 f i Biometrics.obj
 0001:00005bf0       ??0?$Wrapper@PEA_W@?$CSimpleMap@PEA_WPEA_WVCExpansionVectorEqualHelper@ATL@@@ATL@@QEAA@AEBQEA_W@Z 0000000180006bf0 f i Biometrics.obj
 0001:00005c20       ??0CAtlModule@ATL@@QEAA@XZ 0000000180006c20 f i Biometrics.obj
 0001:00005d80       ??0CComAutoDeleteCriticalSection@ATL@@QEAA@XZ 0000000180006d80 f i Biometrics.obj
 0001:00005da0       ??0CComBSTR@ATL@@QEAA@XZ   0000000180006da0 f i Biometrics.obj
 0001:00005dc0       ??0CComClassFactory@ATL@@QEAA@XZ 0000000180006dc0 f i Biometrics.obj
 0001:00005e00       ??0CComModule@ATL@@QEAA@XZ 0000000180006e00 f i Biometrics.obj
 0001:00005e80       ??0CComObjectRootBase@ATL@@QEAA@XZ 0000000180006e80 f i Biometrics.obj
 0001:00005ea0       ??0CComSafeDeleteCriticalSection@ATL@@QEAA@XZ 0000000180006ea0 f i Biometrics.obj
 0001:00005ed0       ??0CComVariant@ATL@@QEAA@XZ 0000000180006ed0 f i Biometrics.obj
 0001:00005f10       ??0CExpansionVector@ATL@@QEAA@XZ 0000000180006f10 f i Biometrics.obj
 0001:00005f30       ??0CParseBuffer@CRegParser@ATL@@QEAA@H@Z 0000000180006f30 f i Biometrics.obj
 0001:00005fb0       ??0CRegKey@ATL@@QEAA@PEAUHKEY__@@@Z 0000000180006fb0 f i Biometrics.obj
 0001:00005ff0       ??0CRegKey@ATL@@QEAA@PEAVCAtlTransactionManager@1@@Z 0000000180006ff0 f i Biometrics.obj
 0001:00006030       ??0CRegObject@ATL@@QEAA@XZ 0000000180007030 f i Biometrics.obj
 0001:00006070       ??0CRegParser@ATL@@QEAA@PEAVCRegObject@1@@Z 0000000180007070 f i Biometrics.obj
 0001:000060a0       ??0IClassFactory@@QEAA@XZ  00000001800070a0 f i Biometrics.obj
 0001:000060c0       ??0IEnumConnectionPoints@@QEAA@XZ 00000001800070c0 f i Biometrics.obj
 0001:000060e0       ??0IEnumConnections@@QEAA@XZ 00000001800070e0 f i Biometrics.obj
 0001:00006100       ??0IRegistrarBase@@QEAA@XZ 0000000180007100 f i Biometrics.obj
 0001:00006120       ??0IUnknown@@QEAA@XZ       0000000180007120 f i Biometrics.obj
 0001:00006130       ??0ModuleLockHelper@ATL@@QEAA@XZ 0000000180007130 f i Biometrics.obj
 0001:00006160       ??0OposVariant@@QEAA@XZ    0000000180007160 f i Biometrics.obj
 0001:00006180       ??0Wrapper@?$CSimpleArray@GV?$CSimpleArrayEqualHelper@G@ATL@@@ATL@@QEAA@AEBG@Z 0000000180007180 f i Biometrics.obj
 0001:000061b0       ??0_ATL_MODULE70@ATL@@QEAA@XZ 00000001800071b0 f i Biometrics.obj
 0001:000061e0       ??0_ATL_MSG@ATL@@QEAA@PEAUHWND__@@I_K_JH@Z 00000001800071e0 f i Biometrics.obj
 0001:00006270       ??0_U_MENUorID@ATL@@QEAA@I@Z 0000000180007270 f i Biometrics.obj
 0001:00006290       ??0_U_RECT@ATL@@QEAA@AEAUtagRECT@@@Z 0000000180007290 f i Biometrics.obj
 0001:000062b0       ??0stringdispid@CComTypeInfoHolder@ATL@@QEAA@XZ 00000001800072b0 f i Biometrics.obj
 0001:000062f0       ??1?$CAtlModuleT@VCComModule@ATL@@@ATL@@UEAA@XZ 00000001800072f0 f i Biometrics.obj
 0001:00006310       ??1?$CAtlSafeAllocBufferManager@VCCRTAllocator@ATL@@@_ATL_SAFE_ALLOCA_IMPL@ATL@@QEAA@XZ 0000000180007310 f i Biometrics.obj
 0001:00006360       ??1?$CAutoVectorPtr@_W@ATL@@QEAA@XZ 0000000180007360 f i Biometrics.obj
 0001:00006380       ??1?$CComAggObject@VCOPOSBiometrics@@@ATL@@UEAA@XZ 0000000180007380 f i Biometrics.obj
 0001:000063f0       ??1?$CComContainedObject@VCOPOSBiometrics@@@ATL@@UEAA@XZ 00000001800073f0 f i Biometrics.obj
 0001:00006410       ??1?$CComCritSecLock@VCComCriticalSection@ATL@@@ATL@@QEAA@XZ 0000000180007410 f i Biometrics.obj
 0001:00006440       ??1?$CComEnum@UIEnumConnectionPoints@@$1?_GUID_b196b285_bab4_101a_b69c_00aa00341d07@@3U__s_GUID@@BPEAUIConnectionPoint@@V?$_CopyInterface@UIConnectionPoint@@@ATL@@VCComSingleThreadModel@6@@ATL@@UEAA@XZ 0000000180007440 f i Biometrics.obj
 0001:00006470       ??1?$CComEnum@UIEnumConnections@@$1?_GUID_b196b287_bab4_101a_b69c_00aa00341d07@@3U__s_GUID@@BUtagCONNECTDATA@@V?$_Copy@UtagCONNECTDATA@@@ATL@@VCComSingleThreadModel@6@@ATL@@UEAA@XZ 0000000180007470 f i Biometrics.obj
 0001:000064a0       ??1?$CComEnumImpl@UIEnumConnectionPoints@@$1?_GUID_b196b285_bab4_101a_b69c_00aa00341d07@@3U__s_GUID@@BPEAUIConnectionPoint@@V?$_CopyInterface@UIConnectionPoint@@@ATL@@@ATL@@UEAA@XZ 00000001800074a0 f i Biometrics.obj
 0001:00006530       ??1?$CComEnumImpl@UIEnumConnections@@$1?_GUID_b196b287_bab4_101a_b69c_00aa00341d07@@3U__s_GUID@@BUtagCONNECTDATA@@V?$_Copy@UtagCONNECTDATA@@@ATL@@@ATL@@UEAA@XZ 0000000180007530 f i Biometrics.obj
 0001:000065c0       ??1?$CComObject@V?$CComEnum@UIEnumConnectionPoints@@$1?_GUID_b196b285_bab4_101a_b69c_00aa00341d07@@3U__s_GUID@@BPEAUIConnectionPoint@@V?$_CopyInterface@UIConnectionPoint@@@ATL@@VCComSingleThreadModel@6@@ATL@@@ATL@@UEAA@XZ 00000001800075c0 f i Biometrics.obj
 0001:00006620       ??1?$CComObject@V?$CComEnum@UIEnumConnections@@$1?_GUID_b196b287_bab4_101a_b69c_00aa00341d07@@3U__s_GUID@@BUtagCONNECTDATA@@V?$_Copy@UtagCONNECTDATA@@@ATL@@VCComSingleThreadModel@6@@ATL@@@ATL@@UEAA@XZ 0000000180007620 f i Biometrics.obj
 0001:00006680       ??1?$CComObject@VCOPOSBiometrics@@@ATL@@UEAA@XZ 0000000180007680 f i Biometrics.obj
 0001:00006820       ??1?$CComObjectCached@VCComClassFactory@ATL@@@ATL@@UEAA@XZ 0000000180007820 f i Biometrics.obj
 0001:00006870       ??1?$CComObjectRootEx@VCComMultiThreadModel@ATL@@@ATL@@QEAA@XZ 0000000180007870 f i Biometrics.obj
 0001:000068a0       ??1?$CComObjectRootEx@VCComSingleThreadModel@ATL@@@ATL@@QEAA@XZ 00000001800078a0 f i Biometrics.obj
 0001:000068c0       ??1?$CComPtr@UIAdviseSink@@@ATL@@QEAA@XZ 00000001800078c0 f i Biometrics.obj
 0001:000068e0       ??1?$CComPtr@UICatRegister@@@ATL@@QEAA@XZ 00000001800078e0 f i Biometrics.obj
 0001:00006900       ??1?$CComPtr@UIConnectionPoint@@@ATL@@QEAA@XZ 0000000180007900 f i Biometrics.obj
 0001:00006920       ??1?$CComPtr@UIConnectionPointContainer@@@ATL@@QEAA@XZ 0000000180007920 f i Biometrics.obj
 0001:00006940       ??1?$CComPtr@UIDataObject@@@ATL@@QEAA@XZ 0000000180007940 f i Biometrics.obj
 0001:00006960       ??1?$CComPtr@UIDispatch@@@ATL@@QEAA@XZ 0000000180007960 f i Biometrics.obj
 0001:00006980       ??1?$CComPtr@UIOleClientSite@@@ATL@@QEAA@XZ 0000000180007980 f i Biometrics.obj
 0001:000069a0       ??1?$CComPtr@UIOleControlSite@@@ATL@@QEAA@XZ 00000001800079a0 f i Biometrics.obj
 0001:000069c0       ??1?$CComPtr@UIOleInPlaceActiveObject@@@ATL@@QEAA@XZ 00000001800079c0 f i Biometrics.obj
 0001:000069e0       ??1?$CComPtr@UIOleInPlaceFrame@@@ATL@@QEAA@XZ 00000001800079e0 f i Biometrics.obj
 0001:00006a00       ??1?$CComPtr@UIOleInPlaceObject@@@ATL@@QEAA@XZ 0000000180007a00 f i Biometrics.obj
 0001:00006a20       ??1?$CComPtr@UIOleInPlaceUIWindow@@@ATL@@QEAA@XZ 0000000180007a20 f i Biometrics.obj
 0001:00006a40       ??1?$CComPtr@UIOleObject@@@ATL@@QEAA@XZ 0000000180007a40 f i Biometrics.obj
 0001:00006a60       ??1?$CComPtr@UIPersistStream@@@ATL@@QEAA@XZ 0000000180007a60 f i Biometrics.obj
 0001:00006a80       ??1?$CComPtr@UIPersistStreamInit@@@ATL@@QEAA@XZ 0000000180007a80 f i Biometrics.obj
 0001:00006aa0       ??1?$CComPtr@UIPointerInactive@@@ATL@@QEAA@XZ 0000000180007aa0 f i Biometrics.obj
 0001:00006ac0       ??1?$CComPtr@UIProvideClassInfo2@@@ATL@@QEAA@XZ 0000000180007ac0 f i Biometrics.obj
 0001:00006ae0       ??1?$CComPtr@UISpecifyPropertyPages@@@ATL@@QEAA@XZ 0000000180007ae0 f i Biometrics.obj
 0001:00006b00       ??1?$CComPtr@UIStream@@@ATL@@QEAA@XZ 0000000180007b00 f i Biometrics.obj
 0001:00006b20       ??1?$CComPtr@UITypeInfo2@@@ATL@@QEAA@XZ 0000000180007b20 f i Biometrics.obj
 0001:00006b40       ??1?$CComPtr@UITypeInfo@@@ATL@@QEAA@XZ 0000000180007b40 f i Biometrics.obj
 0001:00006b60       ??1?$CComPtr@UITypeLib@@@ATL@@QEAA@XZ 0000000180007b60 f i Biometrics.obj
 0001:00006b80       ??1?$CComPtr@UIUnknown@@@ATL@@QEAA@XZ 0000000180007b80 f i Biometrics.obj
 0001:00006ba0       ??1?$CComPtr@UIViewObjectEx@@@ATL@@QEAA@XZ 0000000180007ba0 f i Biometrics.obj
 0001:00006bc0       ??1?$CComPtrBase@UIAdviseSink@@@ATL@@QEAA@XZ 0000000180007bc0 f i Biometrics.obj
 0001:00006c00       ??1?$CComPtrBase@UICatRegister@@@ATL@@QEAA@XZ 0000000180007c00 f i Biometrics.obj
 0001:00006c40       ??1?$CComPtrBase@UIConnectionPoint@@@ATL@@QEAA@XZ 0000000180007c40 f i Biometrics.obj
 0001:00006c80       ??1?$CComPtrBase@UIConnectionPointContainer@@@ATL@@QEAA@XZ 0000000180007c80 f i Biometrics.obj
 0001:00006cc0       ??1?$CComPtrBase@UIDataObject@@@ATL@@QEAA@XZ 0000000180007cc0 f i Biometrics.obj
 0001:00006d00       ??1?$CComPtrBase@UIDispatch@@@ATL@@QEAA@XZ 0000000180007d00 f i Biometrics.obj
 0001:00006d40       ??1?$CComPtrBase@UIOleClientSite@@@ATL@@QEAA@XZ 0000000180007d40 f i Biometrics.obj
 0001:00006d80       ??1?$CComPtrBase@UIOleControlSite@@@ATL@@QEAA@XZ 0000000180007d80 f i Biometrics.obj
 0001:00006dc0       ??1?$CComPtrBase@UIOleInPlaceActiveObject@@@ATL@@QEAA@XZ 0000000180007dc0 f i Biometrics.obj
 0001:00006e00       ??1?$CComPtrBase@UIOleInPlaceFrame@@@ATL@@QEAA@XZ 0000000180007e00 f i Biometrics.obj
 0001:00006e40       ??1?$CComPtrBase@UIOleInPlaceObject@@@ATL@@QEAA@XZ 0000000180007e40 f i Biometrics.obj
 0001:00006e80       ??1?$CComPtrBase@UIOleInPlaceUIWindow@@@ATL@@QEAA@XZ 0000000180007e80 f i Biometrics.obj
 0001:00006ec0       ??1?$CComPtrBase@UIOleObject@@@ATL@@QEAA@XZ 0000000180007ec0 f i Biometrics.obj
 0001:00006f00       ??1?$CComPtrBase@UIPersistStream@@@ATL@@QEAA@XZ 0000000180007f00 f i Biometrics.obj
 0001:00006f40       ??1?$CComPtrBase@UIPersistStreamInit@@@ATL@@QEAA@XZ 0000000180007f40 f i Biometrics.obj
 0001:00006f80       ??1?$CComPtrBase@UIPointerInactive@@@ATL@@QEAA@XZ 0000000180007f80 f i Biometrics.obj
 0001:00006fc0       ??1?$CComPtrBase@UIProvideClassInfo2@@@ATL@@QEAA@XZ 0000000180007fc0 f i Biometrics.obj
 0001:00007000       ??1?$CComPtrBase@UISpecifyPropertyPages@@@ATL@@QEAA@XZ 0000000180008000 f i Biometrics.obj
 0001:00007040       ??1?$CComPtrBase@UIStream@@@ATL@@QEAA@XZ 0000000180008040 f i Biometrics.obj
 0001:00007080       ??1?$CComPtrBase@UITypeInfo2@@@ATL@@QEAA@XZ 0000000180008080 f i Biometrics.obj
 0001:000070c0       ??1?$CComPtrBase@UITypeInfo@@@ATL@@QEAA@XZ 00000001800080c0 f i Biometrics.obj
 0001:00007100       ??1?$CComPtrBase@UITypeLib@@@ATL@@QEAA@XZ 0000000180008100 f i Biometrics.obj
 0001:00007140       ??1?$CComPtrBase@UIUnknown@@@ATL@@QEAA@XZ 0000000180008140 f i Biometrics.obj
 0001:00007180       ??1?$CComPtrBase@UIViewObjectEx@@@ATL@@QEAA@XZ 0000000180008180 f i Biometrics.obj
 0001:000071c0       ??1?$CComQIPtr@UIOleControlSite@@$1?_GUID_b196b289_bab4_101a_b69c_00aa00341d07@@3U__s_GUID@@B@ATL@@QEAA@XZ 00000001800081c0 f i Biometrics.obj
 0001:000071e0       ??1?$CComQIPtr@UIOleObject@@$1?_GUID_00000112_0000_0000_c000_000000000046@@3U__s_GUID@@B@ATL@@QEAA@XZ 00000001800081e0 f i Biometrics.obj
 0001:00007200       ??1?$CComQIPtr@UISpecifyPropertyPages@@$1?_GUID_b196b28b_bab4_101a_b69c_00aa00341d07@@3U__s_GUID@@B@ATL@@QEAA@XZ 0000000180008200 f i Biometrics.obj
 0001:00007220       ??1?$CSimpleMap@PEA_WPEA_WVCExpansionVectorEqualHelper@ATL@@@ATL@@QEAA@XZ 0000000180008220 f i Biometrics.obj
 0001:00007240       ??1?$CTempBuffer@E$0BAA@VCCRTAllocator@ATL@@@ATL@@QEAA@XZ 0000000180008240 f i Biometrics.obj
 0001:00007270       ??1?$CTempBuffer@_W$0BAA@VCCRTAllocator@ATL@@@ATL@@QEAA@XZ 0000000180008270 f i Biometrics.obj
 0001:000072a0       ??1?$CTempBuffer@_W$0EAA@VCCRTAllocator@ATL@@@ATL@@QEAA@XZ 00000001800082a0 f i Biometrics.obj
 0001:000072d0       ??1CAtlModule@ATL@@UEAA@XZ 00000001800082d0 f i Biometrics.obj
 0001:00007300       ??1CComAutoDeleteCriticalSection@ATL@@QEAA@XZ 0000000180008300 f i Biometrics.obj
 0001:00007320       ??1CComClassFactory@ATL@@UEAA@XZ 0000000180008320 f i Biometrics.obj
 0001:00007350       ??1CComModule@ATL@@UEAA@XZ 0000000180008350 f i Biometrics.obj
 0001:00007380       ??1CComObjectRootBase@ATL@@QEAA@XZ 0000000180008380 f i Biometrics.obj
 0001:00007390       ??1CComSafeDeleteCriticalSection@ATL@@QEAA@XZ 0000000180008390 f i Biometrics.obj
 0001:000073d0       ??1CComVariant@ATL@@QEAA@XZ 00000001800083d0 f i Biometrics.obj
 0001:00007430       ??1CExpansionVector@ATL@@QEAA@XZ 0000000180008430 f i Biometrics.obj
 0001:00007460       ??1CParseBuffer@CRegParser@ATL@@QEAA@XZ 0000000180008460 f i Biometrics.obj
 0001:00007480       ??1CRegKey@ATL@@QEAA@XZ    0000000180008480 f i Biometrics.obj
 0001:000074a0       ??1CRegObject@ATL@@UEAA@XZ 00000001800084a0 f i Biometrics.obj
 0001:000074e0       ??1ModuleLockHelper@ATL@@QEAA@XZ 00000001800084e0 f i Biometrics.obj
 0001:00007510       ??1OposVariant@@QEAA@XZ    0000000180008510 f i Biometrics.obj
 0001:00007540       ??1_ATL_MODULE70@ATL@@QEAA@XZ 0000000180008540 f i Biometrics.obj
 0001:00007570       ??4?$CComPtr@UIAdviseSink@@@ATL@@QEAAPEAUIAdviseSink@@PEAU2@@Z 0000000180008570 f i Biometrics.obj
 0001:000075d0       ??4?$CComPtr@UIOleClientSite@@@ATL@@QEAAPEAUIOleClientSite@@PEAU2@@Z 00000001800085d0 f i Biometrics.obj
 0001:00007630       ??4?$CComPtr@UIUnknown@@@ATL@@QEAAPEAUIUnknown@@PEAU2@@Z 0000000180008630 f i Biometrics.obj
 0001:00007690       ??4?$CComQIPtr@UIOleObject@@$1?_GUID_00000112_0000_0000_c000_000000000046@@3U__s_GUID@@B@ATL@@QEAAPEAUIOleObject@@PEAUIUnknown@@@Z 0000000180008690 f i Biometrics.obj
 0001:000076e0       ??4?$CComQIPtr@UISpecifyPropertyPages@@$1?_GUID_b196b28b_bab4_101a_b69c_00aa00341d07@@3U__s_GUID@@B@ATL@@QEAAPEAUISpecifyPropertyPages@@PEAUIUnknown@@@Z 00000001800086e0 f i Biometrics.obj
 0001:00007730       ??7?$CComPtrBase@UIOleClientSite@@@ATL@@QEBA_NXZ 0000000180008730 f i Biometrics.obj
 0001:00007760       ??7?$CComPtrBase@UIOleInPlaceSiteWindowless@@@ATL@@QEBA_NXZ 0000000180008760 f i Biometrics.obj
 0001:00007790       ??7CComBSTR@ATL@@QEBA_NXZ  0000000180008790 f i Biometrics.obj
 0001:000077c0       ??8?$CComPtrBase@UIConnectionPointContainer@@@ATL@@QEBA_NPEAUIConnectionPointContainer@@@Z 00000001800087c0 f i Biometrics.obj
 0001:00007800       ??8?$CComPtrBase@UIDataAdviseHolder@@@ATL@@QEBA_NPEAUIDataAdviseHolder@@@Z 0000000180008800 f i Biometrics.obj
 0001:00007840       ??8?$CComPtrBase@UIOleAdviseHolder@@@ATL@@QEBA_NPEAUIOleAdviseHolder@@@Z 0000000180008840 f i Biometrics.obj
 0001:00007880       ??8?$CComPtrBase@UIOleClientSite@@@ATL@@QEBA_NPEAUIOleClientSite@@@Z 0000000180008880 f i Biometrics.obj
 0001:000078c0       ??8?$CComPtrBase@UIOleControlSite@@@ATL@@QEBA_NPEAUIOleControlSite@@@Z 00000001800088c0 f i Biometrics.obj
 0001:00007900       ??8?$CComPtrBase@UIOleInPlaceObject@@@ATL@@QEBA_NPEAUIOleInPlaceObject@@@Z 0000000180008900 f i Biometrics.obj
 0001:00007940       ??8?$CComPtrBase@UIOleInPlaceSiteWindowless@@@ATL@@QEBA_NPEAUIOleInPlaceSiteWindowless@@@Z 0000000180008940 f i Biometrics.obj
 0001:00007980       ??8?$CComPtrBase@UIOleObject@@@ATL@@QEBA_NPEAUIOleObject@@@Z 0000000180008980 f i Biometrics.obj
 0001:000079c0       ??8?$CComPtrBase@UIPersistStream@@@ATL@@QEBA_NPEAUIPersistStream@@@Z 00000001800089c0 f i Biometrics.obj
 0001:00007a00       ??8?$CComPtrBase@UIPersistStreamInit@@@ATL@@QEBA_NPEAUIPersistStreamInit@@@Z 0000000180008a00 f i Biometrics.obj
 0001:00007a40       ??8?$CComPtrBase@UIPointerInactive@@@ATL@@QEBA_NPEAUIPointerInactive@@@Z 0000000180008a40 f i Biometrics.obj
 0001:00007a80       ??8?$CComPtrBase@UIUnknown@@@ATL@@QEBA_NPEAUIUnknown@@@Z 0000000180008a80 f i Biometrics.obj
 0001:00007ac0       ??8?$CComPtrBase@UIViewObjectEx@@@ATL@@QEBA_NPEAUIViewObjectEx@@@Z 0000000180008ac0 f i Biometrics.obj
 0001:00007b00       ??8CComBSTR@ATL@@QEBA_NH@Z 0000000180008b00 f i Biometrics.obj
 0001:00007b60       ??9?$CComPtrBase@UIConnectionPointContainer@@@ATL@@QEBA_NPEAUIConnectionPointContainer@@@Z 0000000180008b60 f i Biometrics.obj
 0001:00007bb0       ??9?$CComPtrBase@UIDataAdviseHolder@@@ATL@@QEBA_NPEAUIDataAdviseHolder@@@Z 0000000180008bb0 f i Biometrics.obj
 0001:00007c00       ??9?$CComPtrBase@UIOleAdviseHolder@@@ATL@@QEBA_NPEAUIOleAdviseHolder@@@Z 0000000180008c00 f i Biometrics.obj
 0001:00007c50       ??9?$CComPtrBase@UIOleClientSite@@@ATL@@QEBA_NPEAUIOleClientSite@@@Z 0000000180008c50 f i Biometrics.obj
 0001:00007ca0       ??9?$CComPtrBase@UIOleControlSite@@@ATL@@QEBA_NPEAUIOleControlSite@@@Z 0000000180008ca0 f i Biometrics.obj
 0001:00007cf0       ??9?$CComPtrBase@UIOleInPlaceObject@@@ATL@@QEBA_NPEAUIOleInPlaceObject@@@Z 0000000180008cf0 f i Biometrics.obj
 0001:00007d40       ??9?$CComPtrBase@UIOleInPlaceSiteWindowless@@@ATL@@QEBA_NPEAUIOleInPlaceSiteWindowless@@@Z 0000000180008d40 f i Biometrics.obj
 0001:00007d90       ??9?$CComPtrBase@UIOleObject@@@ATL@@QEBA_NPEAUIOleObject@@@Z 0000000180008d90 f i Biometrics.obj
 0001:00007de0       ??9?$CComPtrBase@UIPersistStream@@@ATL@@QEBA_NPEAUIPersistStream@@@Z 0000000180008de0 f i Biometrics.obj
 0001:00007e30       ??9?$CComPtrBase@UIPersistStreamInit@@@ATL@@QEBA_NPEAUIPersistStreamInit@@@Z 0000000180008e30 f i Biometrics.obj
 0001:00007e80       ??9?$CComPtrBase@UIPointerInactive@@@ATL@@QEBA_NPEAUIPointerInactive@@@Z 0000000180008e80 f i Biometrics.obj
 0001:00007ed0       ??9?$CComPtrBase@UIUnknown@@@ATL@@QEBA_NPEAUIUnknown@@@Z 0000000180008ed0 f i Biometrics.obj
 0001:00007f20       ??9?$CComPtrBase@UIViewObjectEx@@@ATL@@QEBA_NPEAUIViewObjectEx@@@Z 0000000180008f20 f i Biometrics.obj
 0001:00007f70       ??9CComBSTR@ATL@@QEBA_NH@Z 0000000180008f70 f i Biometrics.obj
 0001:00007fb0       ??B?$CComPtrBase@UIAdviseSink@@@ATL@@QEBAPEAUIAdviseSink@@XZ 0000000180008fb0 f i Biometrics.obj
 0001:00007fc0       ??B?$CComPtrBase@UIDataAdviseHolder@@@ATL@@QEBAPEAUIDataAdviseHolder@@XZ 0000000180008fc0 f i Biometrics.obj
 0001:00007fd0       ??B?$CComPtrBase@UIDataObject@@@ATL@@QEBAPEAUIDataObject@@XZ 0000000180008fd0 f i Biometrics.obj
 0001:00007fe0       ??B?$CComPtrBase@UIOleAdviseHolder@@@ATL@@QEBAPEAUIOleAdviseHolder@@XZ 0000000180008fe0 f i Biometrics.obj
 0001:00007ff0       ??B?$CComPtrBase@UIOleClientSite@@@ATL@@QEBAPEAUIOleClientSite@@XZ 0000000180008ff0 f i Biometrics.obj
 0001:00008000       ??B?$CComPtrBase@UIOleControlSite@@@ATL@@QEBAPEAUIOleControlSite@@XZ 0000000180009000 f i Biometrics.obj
 0001:00008010       ??B?$CComPtrBase@UIOleInPlaceActiveObject@@@ATL@@QEBAPEAUIOleInPlaceActiveObject@@XZ 0000000180009010 f i Biometrics.obj
 0001:00008020       ??B?$CComPtrBase@UIOleInPlaceFrame@@@ATL@@QEBAPEAUIOleInPlaceFrame@@XZ 0000000180009020 f i Biometrics.obj
 0001:00008030       ??B?$CComPtrBase@UIOleInPlaceSiteWindowless@@@ATL@@QEBAPEAUIOleInPlaceSiteWindowless@@XZ 0000000180009030 f i Biometrics.obj
 0001:00008040       ??B?$CComPtrBase@UIOleInPlaceUIWindow@@@ATL@@QEBAPEAUIOleInPlaceUIWindow@@XZ 0000000180009040 f i Biometrics.obj
 0001:00008050       ??B?$CComPtrBase@UIOleObject@@@ATL@@QEBAPEAUIOleObject@@XZ 0000000180009050 f i Biometrics.obj
 0001:00008060       ??B?$CComPtrBase@UIPersistStream@@@ATL@@QEBAPEAUIPersistStream@@XZ 0000000180009060 f i Biometrics.obj
 0001:00008070       ??B?$CComPtrBase@UIProvideClassInfo2@@@ATL@@QEBAPEAUIProvideClassInfo2@@XZ 0000000180009070 f i Biometrics.obj
 0001:00008080       ??B?$CComPtrBase@UISpecifyPropertyPages@@@ATL@@QEBAPEAUISpecifyPropertyPages@@XZ 0000000180009080 f i Biometrics.obj
 0001:00008090       ??B?$CComPtrBase@UIStream@@@ATL@@QEBAPEAUIStream@@XZ 0000000180009090 f i Biometrics.obj
 0001:000080a0       ??B?$CComPtrBase@UITypeInfo2@@@ATL@@QEBAPEAUITypeInfo2@@XZ 00000001800090a0 f i Biometrics.obj
 0001:000080b0       ??B?$CComPtrBase@UITypeInfo@@@ATL@@QEBAPEAUITypeInfo@@XZ 00000001800090b0 f i Biometrics.obj
 0001:000080c0       ??B?$CComPtrBase@UITypeLib@@@ATL@@QEBAPEAUITypeLib@@XZ 00000001800090c0 f i Biometrics.obj
 0001:000080d0       ??B?$CComPtrBase@UIUnknown@@@ATL@@QEBAPEAUIUnknown@@XZ 00000001800090d0 f i Biometrics.obj
 0001:000080e0       ??B?$CTempBuffer@E$0BAA@VCCRTAllocator@ATL@@@ATL@@QEBAPEAEXZ 00000001800090e0 f i Biometrics.obj
 0001:000080f0       ??B?$CTempBuffer@_W$0BAA@VCCRTAllocator@ATL@@@ATL@@QEBAPEA_WXZ 00000001800090f0 f i Biometrics.obj
 0001:00008100       ??B?$CTempBuffer@_W$0EAA@VCCRTAllocator@ATL@@@ATL@@QEBAPEA_WXZ 0000000180009100 f i Biometrics.obj
 0001:00008110       ??B?$CTraceCategoryEx@$00$0A@@ATL@@QEAAIXZ 0000000180009110 f i Biometrics.obj
 0001:00008120       ??B?$CTraceCategoryEx@$07$0A@@ATL@@QEAAIXZ 0000000180009120 f i Biometrics.obj
 0001:00008130       ??B?$CTraceCategoryEx@$0CAAA@$0A@@ATL@@QEAAIXZ 0000000180009130 f i Biometrics.obj
 0001:00008140       ??B?$CTraceCategoryEx@$0EA@$0A@@ATL@@QEAAIXZ 0000000180009140 f i Biometrics.obj
 0001:00008150       ??B?$CTraceCategoryEx@$0IAA@$0A@@ATL@@QEAAIXZ 0000000180009150 f i Biometrics.obj
 0001:00008160       ??BCComBSTR@ATL@@QEBAPEA_WXZ 0000000180009160 f i Biometrics.obj
 0001:00008170       ??BCRegKey@ATL@@QEBAPEAUHKEY__@@XZ 0000000180009170 f i Biometrics.obj
 0001:00008180       ??C?$CComPtrBase@UIAdviseSink@@@ATL@@QEBAPEAV?$_NoAddRefReleaseOnCComPtr@UIAdviseSink@@@1@XZ 0000000180009180 f i Biometrics.obj
 0001:000081e0       ??C?$CComPtrBase@UICatRegister@@@ATL@@QEBAPEAV?$_NoAddRefReleaseOnCComPtr@UICatRegister@@@1@XZ 00000001800091e0 f i Biometrics.obj
 0001:00008240       ??C?$CComPtrBase@UIConnectionPoint@@@ATL@@QEBAPEAV?$_NoAddRefReleaseOnCComPtr@UIConnectionPoint@@@1@XZ 0000000180009240 f i Biometrics.obj
 0001:000082a0       ??C?$CComPtrBase@UIConnectionPointContainer@@@ATL@@QEBAPEAV?$_NoAddRefReleaseOnCComPtr@UIConnectionPointContainer@@@1@XZ 00000001800092a0 f i Biometrics.obj
 0001:00008300       ??C?$CComPtrBase@UIDataAdviseHolder@@@ATL@@QEBAPEAV?$_NoAddRefReleaseOnCComPtr@UIDataAdviseHolder@@@1@XZ 0000000180009300 f i Biometrics.obj
 0001:00008360       ??C?$CComPtrBase@UIOleAdviseHolder@@@ATL@@QEBAPEAV?$_NoAddRefReleaseOnCComPtr@UIOleAdviseHolder@@@1@XZ 0000000180009360 f i Biometrics.obj
 0001:000083c0       ??C?$CComPtrBase@UIOleClientSite@@@ATL@@QEBAPEAV?$_NoAddRefReleaseOnCComPtr@UIOleClientSite@@@1@XZ 00000001800093c0 f i Biometrics.obj
 0001:00008420       ??C?$CComPtrBase@UIOleControlSite@@@ATL@@QEBAPEAV?$_NoAddRefReleaseOnCComPtr@UIOleControlSite@@@1@XZ 0000000180009420 f i Biometrics.obj
 0001:00008480       ??C?$CComPtrBase@UIOleInPlaceFrame@@@ATL@@QEBAPEAV?$_NoAddRefReleaseOnCComPtr@UIOleInPlaceFrame@@@1@XZ 0000000180009480 f i Biometrics.obj
 0001:000084e0       ??C?$CComPtrBase@UIOleInPlaceObject@@@ATL@@QEBAPEAV?$_NoAddRefReleaseOnCComPtr@UIOleInPlaceObject@@@1@XZ 00000001800094e0 f i Biometrics.obj
 0001:00008540       ??C?$CComPtrBase@UIOleInPlaceSiteWindowless@@@ATL@@QEBAPEAV?$_NoAddRefReleaseOnCComPtr@UIOleInPlaceSiteWindowless@@@1@XZ 0000000180009540 f i Biometrics.obj
 0001:000085a0       ??C?$CComPtrBase@UIOleInPlaceUIWindow@@@ATL@@QEBAPEAV?$_NoAddRefReleaseOnCComPtr@UIOleInPlaceUIWindow@@@1@XZ 00000001800095a0 f i Biometrics.obj
 0001:00008600       ??C?$CComPtrBase@UIOleObject@@@ATL@@QEBAPEAV?$_NoAddRefReleaseOnCComPtr@UIOleObject@@@1@XZ 0000000180009600 f i Biometrics.obj
 0001:00008660       ??C?$CComPtrBase@UIPersistStream@@@ATL@@QEBAPEAV?$_NoAddRefReleaseOnCComPtr@UIPersistStream@@@1@XZ 0000000180009660 f i Biometrics.obj
 0001:000086c0       ??C?$CComPtrBase@UIPersistStreamInit@@@ATL@@QEBAPEAV?$_NoAddRefReleaseOnCComPtr@UIPersistStreamInit@@@1@XZ 00000001800096c0 f i Biometrics.obj
 0001:00008720       ??C?$CComPtrBase@UIPointerInactive@@@ATL@@QEBAPEAV?$_NoAddRefReleaseOnCComPtr@UIPointerInactive@@@1@XZ 0000000180009720 f i Biometrics.obj
 0001:00008780       ??C?$CComPtrBase@UIProvideClassInfo2@@@ATL@@QEBAPEAV?$_NoAddRefReleaseOnCComPtr@UIProvideClassInfo2@@@1@XZ 0000000180009780 f i Biometrics.obj
 0001:000087e0       ??C?$CComPtrBase@UISpecifyPropertyPages@@@ATL@@QEBAPEAV?$_NoAddRefReleaseOnCComPtr@UISpecifyPropertyPages@@@1@XZ 00000001800097e0 f i Biometrics.obj
 0001:00008840       ??C?$CComPtrBase@UITypeInfo@@@ATL@@QEBAPEAV?$_NoAddRefReleaseOnCComPtr@UITypeInfo@@@1@XZ 0000000180009840 f i Biometrics.obj
 0001:000088a0       ??C?$CComPtrBase@UITypeLib@@@ATL@@QEBAPEAV?$_NoAddRefReleaseOnCComPtr@UITypeLib@@@1@XZ 00000001800098a0 f i Biometrics.obj
 0001:00008900       ??C?$CComPtrBase@UIUnknown@@@ATL@@QEBAPEAV?$_NoAddRefReleaseOnCComPtr@UIUnknown@@@1@XZ 0000000180009900 f i Biometrics.obj
 0001:00008960       ??C?$CComPtrBase@UIViewObjectEx@@@ATL@@QEBAPEAV?$_NoAddRefReleaseOnCComPtr@UIViewObjectEx@@@1@XZ 0000000180009960 f i Biometrics.obj
 0001:000089c0       ??I?$CComPtrBase@UICatRegister@@@ATL@@QEAAPEAPEAUICatRegister@@XZ 00000001800099c0 f i Biometrics.obj
 0001:00008a20       ??I?$CComPtrBase@UIConnectionPoint@@@ATL@@QEAAPEAPEAUIConnectionPoint@@XZ 0000000180009a20 f i Biometrics.obj
 0001:00008a80       ??I?$CComPtrBase@UIConnectionPointContainer@@@ATL@@QEAAPEAPEAUIConnectionPointContainer@@XZ 0000000180009a80 f i Biometrics.obj
 0001:00008ae0       ??I?$CComPtrBase@UIDataAdviseHolder@@@ATL@@QEAAPEAPEAUIDataAdviseHolder@@XZ 0000000180009ae0 f i Biometrics.obj
 0001:00008b40       ??I?$CComPtrBase@UIDataObject@@@ATL@@QEAAPEAPEAUIDataObject@@XZ 0000000180009b40 f i Biometrics.obj
 0001:00008ba0       ??I?$CComPtrBase@UIDispatch@@@ATL@@QEAAPEAPEAUIDispatch@@XZ 0000000180009ba0 f i Biometrics.obj
 0001:00008c00       ??I?$CComPtrBase@UIOleAdviseHolder@@@ATL@@QEAAPEAPEAUIOleAdviseHolder@@XZ 0000000180009c00 f i Biometrics.obj
 0001:00008c60       ??I?$CComPtrBase@UIOleControlSite@@@ATL@@QEAAPEAPEAUIOleControlSite@@XZ 0000000180009c60 f i Biometrics.obj
 0001:00008cc0       ??I?$CComPtrBase@UIOleInPlaceActiveObject@@@ATL@@QEAAPEAPEAUIOleInPlaceActiveObject@@XZ 0000000180009cc0 f i Biometrics.obj
 0001:00008d20       ??I?$CComPtrBase@UIOleInPlaceFrame@@@ATL@@QEAAPEAPEAUIOleInPlaceFrame@@XZ 0000000180009d20 f i Biometrics.obj
 0001:00008d80       ??I?$CComPtrBase@UIOleInPlaceObject@@@ATL@@QEAAPEAPEAUIOleInPlaceObject@@XZ 0000000180009d80 f i Biometrics.obj
 0001:00008de0       ??I?$CComPtrBase@UIOleInPlaceSiteWindowless@@@ATL@@QEAAPEAPEAUIOleInPlaceSiteWindowless@@XZ 0000000180009de0 f i Biometrics.obj
 0001:00008e40       ??I?$CComPtrBase@UIOleInPlaceUIWindow@@@ATL@@QEAAPEAPEAUIOleInPlaceUIWindow@@XZ 0000000180009e40 f i Biometrics.obj
 0001:00008ea0       ??I?$CComPtrBase@UIOleObject@@@ATL@@QEAAPEAPEAUIOleObject@@XZ 0000000180009ea0 f i Biometrics.obj
 0001:00008f00       ??I?$CComPtrBase@UIPersistStream@@@ATL@@QEAAPEAPEAUIPersistStream@@XZ 0000000180009f00 f i Biometrics.obj
 0001:00008f60       ??I?$CComPtrBase@UIPointerInactive@@@ATL@@QEAAPEAPEAUIPointerInactive@@XZ 0000000180009f60 f i Biometrics.obj
 0001:00008fc0       ??I?$CComPtrBase@UIProvideClassInfo2@@@ATL@@QEAAPEAPEAUIProvideClassInfo2@@XZ 0000000180009fc0 f i Biometrics.obj
 0001:00009020       ??I?$CComPtrBase@UIStream@@@ATL@@QEAAPEAPEAUIStream@@XZ 000000018000a020 f i Biometrics.obj
 0001:00009080       ??I?$CComPtrBase@UITypeInfo2@@@ATL@@QEAAPEAPEAUITypeInfo2@@XZ 000000018000a080 f i Biometrics.obj
 0001:000090e0       ??I?$CComPtrBase@UITypeInfo@@@ATL@@QEAAPEAPEAUITypeInfo@@XZ 000000018000a0e0 f i Biometrics.obj
 0001:00009140       ??I?$CComPtrBase@UITypeLib@@@ATL@@QEAAPEAPEAUITypeLib@@XZ 000000018000a140 f i Biometrics.obj
 0001:000091a0       ??I?$CComPtrBase@UIUnknown@@@ATL@@QEAAPEAPEAUIUnknown@@XZ 000000018000a1a0 f i Biometrics.obj
 0001:00009200       ??I?$CComPtrBase@UIViewObjectEx@@@ATL@@QEAAPEAPEAUIViewObjectEx@@XZ 000000018000a200 f i Biometrics.obj
 0001:00009260       ??ICComBSTR@ATL@@QEAAPEAPEA_WXZ 000000018000a260 f i Biometrics.obj
 0001:00009270       ??_E?$CComContainedObject@VCOPOSBiometrics@@@ATL@@W7EAAPEAXI@Z 000000018000a270 f i Biometrics.obj
 0001:0000927c       ??_E?$CComContainedObject@VCOPOSBiometrics@@@ATL@@WHA@EAAPEAXI@Z 000000018000a27c f i Biometrics.obj
 0001:00009288       ??_E?$CComObject@VCOPOSBiometrics@@@ATL@@W7EAAPEAXI@Z 000000018000a288 f i Biometrics.obj
 0001:00009294       ??_E?$CComObject@VCOPOSBiometrics@@@ATL@@WHA@EAAPEAXI@Z 000000018000a294 f i Biometrics.obj
 0001:000092a0       ??_E?$CComAggObject@VCOPOSBiometrics@@@ATL@@UEAAPEAXI@Z 000000018000a2a0 f i Biometrics.obj
 0001:000092a0       ??_G?$CComAggObject@VCOPOSBiometrics@@@ATL@@UEAAPEAXI@Z 000000018000a2a0 f i Biometrics.obj
 0001:000092e0       ??_G?$CComContainedObject@VCOPOSBiometrics@@@ATL@@UEAAPEAXI@Z 000000018000a2e0 f i Biometrics.obj
 0001:000092e0       ??_E?$CComContainedObject@VCOPOSBiometrics@@@ATL@@UEAAPEAXI@Z 000000018000a2e0 f i Biometrics.obj
 0001:00009320       ??_E?$CComObject@V?$CComEnum@UIEnumConnectionPoints@@$1?_GUID_b196b285_bab4_101a_b69c_00aa00341d07@@3U__s_GUID@@BPEAUIConnectionPoint@@V?$_CopyInterface@UIConnectionPoint@@@ATL@@VCComSingleThreadModel@6@@ATL@@@ATL@@UEAAPEAXI@Z 000000018000a320 f i Biometrics.obj
 0001:00009320       ??_G?$CComObject@V?$CComEnum@UIEnumConnectionPoints@@$1?_GUID_b196b285_bab4_101a_b69c_00aa00341d07@@3U__s_GUID@@BPEAUIConnectionPoint@@V?$_CopyInterface@UIConnectionPoint@@@ATL@@VCComSingleThreadModel@6@@ATL@@@ATL@@UEAAPEAXI@Z 000000018000a320 f i Biometrics.obj
 0001:00009360       ??_G?$CComObject@V?$CComEnum@UIEnumConnections@@$1?_GUID_b196b287_bab4_101a_b69c_00aa00341d07@@3U__s_GUID@@BUtagCONNECTDATA@@V?$_Copy@UtagCONNECTDATA@@@ATL@@VCComSingleThreadModel@6@@ATL@@@ATL@@UEAAPEAXI@Z 000000018000a360 f i Biometrics.obj
 0001:00009360       ??_E?$CComObject@V?$CComEnum@UIEnumConnections@@$1?_GUID_b196b287_bab4_101a_b69c_00aa00341d07@@3U__s_GUID@@BUtagCONNECTDATA@@V?$_Copy@UtagCONNECTDATA@@@ATL@@VCComSingleThreadModel@6@@ATL@@@ATL@@UEAAPEAXI@Z 000000018000a360 f i Biometrics.obj
 0001:000093a0       ??_E?$CComObject@VCOPOSBiometrics@@@ATL@@UEAAPEAXI@Z 000000018000a3a0 f i Biometrics.obj
 0001:000093a0       ??_G?$CComObject@VCOPOSBiometrics@@@ATL@@UEAAPEAXI@Z 000000018000a3a0 f i Biometrics.obj
 0001:000093e0       ??_G?$CComObjectCached@VCComClassFactory@ATL@@@ATL@@UEAAPEAXI@Z 000000018000a3e0 f i Biometrics.obj
 0001:000093e0       ??_E?$CComObjectCached@VCComClassFactory@ATL@@@ATL@@UEAAPEAXI@Z 000000018000a3e0 f i Biometrics.obj
 0001:00009420       ??_ECComClassFactory@ATL@@UEAAPEAXI@Z 000000018000a420 f i Biometrics.obj
 0001:00009420       ??_GCComClassFactory@ATL@@UEAAPEAXI@Z 000000018000a420 f i Biometrics.obj
 0001:00009460       ??_GCComModule@ATL@@UEAAPEAXI@Z 000000018000a460 f i Biometrics.obj
 0001:00009460       ??_ECComModule@ATL@@UEAAPEAXI@Z 000000018000a460 f i Biometrics.obj
 0001:000094a0       ??_ECRegObject@ATL@@UEAAPEAXI@Z 000000018000a4a0 f i Biometrics.obj
 0001:000094a0       ??_GCRegObject@ATL@@UEAAPEAXI@Z 000000018000a4a0 f i Biometrics.obj
 0001:000094e0       ?Add@?$CSimpleArray@GV?$CSimpleArrayEqualHelper@G@ATL@@@ATL@@QEAAHAEBG@Z 000000018000a4e0 f i Biometrics.obj
 0001:00009670       ?Add@?$CSimpleMap@PEA_WPEA_WVCExpansionVectorEqualHelper@ATL@@@ATL@@QEAAHAEBQEA_W0@Z 000000018000a670 f i Biometrics.obj
 0001:00009750       ?Add@CComDynamicUnkArray@ATL@@QEAAKPEAUIUnknown@@@Z 000000018000a750 f i Biometrics.obj
 0001:00009930       ?Add@CExpansionVector@ATL@@QEAAHPEB_W0@Z 000000018000a930 f i Biometrics.obj
 0001:00009c70       ?AddChar@CParseBuffer@CRegParser@ATL@@QEAAHPEB_W@Z 000000018000ac70 f i Biometrics.obj
 0001:00009cb0       ?AddCommonRGSReplacements@?$CAtlModuleT@VCComModule@ATL@@@ATL@@UEAAJPEAUIRegistrarBase@@@Z 000000018000acb0 f i Biometrics.obj
 0001:00009cf0       ?AddCreateWndData@CAtlWinModule@ATL@@QEAAXPEAU_AtlCreateWndData@2@PEAX@Z 000000018000acf0 f i Biometrics.obj
 0001:00009d20       ?AddRef@?$CComAggObject@VCOPOSBiometrics@@@ATL@@UEAAKXZ 000000018000ad20 f i Biometrics.obj
 0001:00009d50       ?AddRef@?$CComContainedObject@VCOPOSBiometrics@@@ATL@@UEAAKXZ 000000018000ad50 f i Biometrics.obj
 0001:00009d74       ?AddRef@?$CComContainedObject@VCOPOSBiometrics@@@ATL@@WBAA@EAAKXZ 000000018000ad74 f i Biometrics.obj
 0001:00009d80       ?AddRef@?$CComContainedObject@VCOPOSBiometrics@@@ATL@@WBAI@EAAKXZ 000000018000ad80 f i Biometrics.obj
 0001:00009d8c       ?AddRef@?$CComContainedObject@VCOPOSBiometrics@@@ATL@@WBBA@EAAKXZ 000000018000ad8c f i Biometrics.obj
 0001:00009d98       ?AddRef@?$CComContainedObject@VCOPOSBiometrics@@@ATL@@WBBI@EAAKXZ 000000018000ad98 f i Biometrics.obj
 0001:00009da4       ?AddRef@?$CComContainedObject@VCOPOSBiometrics@@@ATL@@WBCI@EAAKXZ 000000018000ada4 f i Biometrics.obj
 0001:00009db0       ?AddRef@?$CComContainedObject@VCOPOSBiometrics@@@ATL@@WBEA@EAAKXZ 000000018000adb0 f i Biometrics.obj
 0001:00009dbc       ?AddRef@?$CComContainedObject@VCOPOSBiometrics@@@ATL@@WLI@EAAKXZ 000000018000adbc f i Biometrics.obj
 0001:00009dc8       ?AddRef@?$CComContainedObject@VCOPOSBiometrics@@@ATL@@WMA@EAAKXZ 000000018000adc8 f i Biometrics.obj
 0001:00009dd4       ?AddRef@?$CComContainedObject@VCOPOSBiometrics@@@ATL@@WMI@EAAKXZ 000000018000add4 f i Biometrics.obj
 0001:00009de0       ?AddRef@?$CComContainedObject@VCOPOSBiometrics@@@ATL@@WNA@EAAKXZ 000000018000ade0 f i Biometrics.obj
 0001:00009dec       ?AddRef@?$CComContainedObject@VCOPOSBiometrics@@@ATL@@WNI@EAAKXZ 000000018000adec f i Biometrics.obj
 0001:00009df8       ?AddRef@?$CComContainedObject@VCOPOSBiometrics@@@ATL@@WOA@EAAKXZ 000000018000adf8 f i Biometrics.obj
 0001:00009e04       ?AddRef@?$CComContainedObject@VCOPOSBiometrics@@@ATL@@WOI@EAAKXZ 000000018000ae04 f i Biometrics.obj
 0001:00009e10       ?AddRef@?$CComContainedObject@VCOPOSBiometrics@@@ATL@@WPA@EAAKXZ 000000018000ae10 f i Biometrics.obj
 0001:00009e1c       ?AddRef@?$CComContainedObject@VCOPOSBiometrics@@@ATL@@WPI@EAAKXZ 000000018000ae1c f i Biometrics.obj
 0001:00009e30       ?AddRef@?$CComObject@V?$CComEnum@UIEnumConnectionPoints@@$1?_GUID_b196b285_bab4_101a_b69c_00aa00341d07@@3U__s_GUID@@BPEAUIConnectionPoint@@V?$_CopyInterface@UIConnectionPoint@@@ATL@@VCComSingleThreadModel@6@@ATL@@@ATL@@UEAAKXZ 000000018000ae30 f i Biometrics.obj
 0001:00009e60       ?AddRef@?$CComObject@V?$CComEnum@UIEnumConnections@@$1?_GUID_b196b287_bab4_101a_b69c_00aa00341d07@@3U__s_GUID@@BUtagCONNECTDATA@@V?$_Copy@UtagCONNECTDATA@@@ATL@@VCComSingleThreadModel@6@@ATL@@@ATL@@UEAAKXZ 000000018000ae60 f i Biometrics.obj
 0001:00009e90       ?AddRef@?$CComObject@VCOPOSBiometrics@@@ATL@@UEAAKXZ 000000018000ae90 f i Biometrics.obj
 0001:00009eb4       ?AddRef@?$CComObject@VCOPOSBiometrics@@@ATL@@WBAA@EAAKXZ 000000018000aeb4 f i Biometrics.obj
 0001:00009ec0       ?AddRef@?$CComObject@VCOPOSBiometrics@@@ATL@@WBAI@EAAKXZ 000000018000aec0 f i Biometrics.obj
 0001:00009ecc       ?AddRef@?$CComObject@VCOPOSBiometrics@@@ATL@@WBBA@EAAKXZ 000000018000aecc f i Biometrics.obj
 0001:00009ed8       ?AddRef@?$CComObject@VCOPOSBiometrics@@@ATL@@WBBI@EAAKXZ 000000018000aed8 f i Biometrics.obj
 0001:00009ee4       ?AddRef@?$CComObject@VCOPOSBiometrics@@@ATL@@WBCI@EAAKXZ 000000018000aee4 f i Biometrics.obj
 0001:00009ef0       ?AddRef@?$CComObject@VCOPOSBiometrics@@@ATL@@WBEA@EAAKXZ 000000018000aef0 f i Biometrics.obj
 0001:00009efc       ?AddRef@?$CComObject@VCOPOSBiometrics@@@ATL@@WLI@EAAKXZ 000000018000aefc f i Biometrics.obj
 0001:00009f08       ?AddRef@?$CComObject@VCOPOSBiometrics@@@ATL@@WMA@EAAKXZ 000000018000af08 f i Biometrics.obj
 0001:00009f14       ?AddRef@?$CComObject@VCOPOSBiometrics@@@ATL@@WMI@EAAKXZ 000000018000af14 f i Biometrics.obj
 0001:00009f20       ?AddRef@?$CComObject@VCOPOSBiometrics@@@ATL@@WNA@EAAKXZ 000000018000af20 f i Biometrics.obj
 0001:00009f2c       ?AddRef@?$CComObject@VCOPOSBiometrics@@@ATL@@WNI@EAAKXZ 000000018000af2c f i Biometrics.obj
 0001:00009f38       ?AddRef@?$CComObject@VCOPOSBiometrics@@@ATL@@WOA@EAAKXZ 000000018000af38 f i Biometrics.obj
 0001:00009f44       ?AddRef@?$CComObject@VCOPOSBiometrics@@@ATL@@WOI@EAAKXZ 000000018000af44 f i Biometrics.obj
 0001:00009f50       ?AddRef@?$CComObject@VCOPOSBiometrics@@@ATL@@WPA@EAAKXZ 000000018000af50 f i Biometrics.obj
 0001:00009f5c       ?AddRef@?$CComObject@VCOPOSBiometrics@@@ATL@@WPI@EAAKXZ 000000018000af5c f i Biometrics.obj
 0001:00009f70       ?AddRef@?$CComObjectCached@VCComClassFactory@ATL@@@ATL@@UEAAKXZ 000000018000af70 f i Biometrics.obj
 0001:00009fc0       ?AddRef@CRegObject@ATL@@UEAAKXZ 000000018000afc0 f i Biometrics.obj
 0001:0000a020       ?AddReplacement@CRegObject@ATL@@UEAAJPEB_W0@Z 000000018000b020 f i Biometrics.obj
 0001:0000a150       ?AddString@CParseBuffer@CRegParser@ATL@@QEAAHPEB_W@Z 000000018000b150 f i Biometrics.obj
 0001:0000a240       ?AddTermFunc@CAtlModule@ATL@@QEAAJP6AX_K@Z0@Z 000000018000b240 f i Biometrics.obj
 0001:0000a290       ?AddValue@CRegParser@ATL@@IEAAJAEAVCRegKey@2@PEB_WPEA_W@Z 000000018000b290 f i Biometrics.obj
 0001:0000ab60       ?Advise@?$CProxy_IOPOSEvents@VCOPOSBiometrics@@@@UEAAJPEAUIUnknown@@PEAK@Z 000000018000bb60 f i Biometrics.obj
 0001:0000abc0       ?Advise@?$IConnectionPointImpl@VCOPOSBiometrics@@$1?DIID__IOPOSBiometricsEvents@@3U_GUID@@BVCComDynamicUnkArray@ATL@@@ATL@@UEAAJPEAUIUnknown@@PEAK@Z 000000018000bbc0 f i Biometrics.obj
 0001:0000adc0       ?Advise@?$IConnectionPointImpl@VCOPOSBiometrics@@$1?IID_IPropertyNotifySink@@3U_GUID@@BVCComDynamicUnkArray@ATL@@@ATL@@UEAAJPEAUIUnknown@@PEAK@Z 000000018000bdc0 f i Biometrics.obj
 0001:0000afc0       ?Advise@?$IOleObjectImpl@VCOPOSBiometrics@@@ATL@@UEAAJPEAUIAdviseSink@@PEAK@Z 000000018000bfc0 f i Biometrics.obj
 0001:0000b070       ?Allocate@?$CAtlSafeAllocBufferManager@VCCRTAllocator@ATL@@@_ATL_SAFE_ALLOCA_IMPL@ATL@@QEAAPEAX_K@Z 000000018000c070 f i Biometrics.obj
 0001:0000b0e0       ?Allocate@?$CTempBuffer@E$0BAA@VCCRTAllocator@ATL@@@ATL@@QEAAPEAE_K@Z 000000018000c0e0 f i Biometrics.obj
 0001:0000b120       ?Allocate@?$CTempBuffer@_W$0BAA@VCCRTAllocator@ATL@@@ATL@@QEAAPEA_W_K@Z 000000018000c120 f i Biometrics.obj
 0001:0000b160       ?Allocate@?$CTempBuffer@_W$0EAA@VCCRTAllocator@ATL@@@ATL@@QEAAPEA_W_K@Z 000000018000c160 f i Biometrics.obj
 0001:0000b1a0       ?AllocateBytes@?$CTempBuffer@E$0BAA@VCCRTAllocator@ATL@@@ATL@@QEAAPEAE_K@Z 000000018000c1a0 f i Biometrics.obj
 0001:0000b230       ?AllocateBytes@?$CTempBuffer@_W$0BAA@VCCRTAllocator@ATL@@@ATL@@QEAAPEA_W_K@Z 000000018000c230 f i Biometrics.obj
 0001:0000b2c0       ?AllocateBytes@?$CTempBuffer@_W$0EAA@VCCRTAllocator@ATL@@@ATL@@QEAAPEA_W_K@Z 000000018000c2c0 f i Biometrics.obj
 0001:0000b350       ?AllocateHeap@?$CTempBuffer@E$0BAA@VCCRTAllocator@ATL@@@ATL@@AEAAX_K@Z 000000018000c350 f i Biometrics.obj
 0001:0000b3a0       ?AllocateHeap@?$CTempBuffer@_W$0BAA@VCCRTAllocator@ATL@@@ATL@@AEAAX_K@Z 000000018000c3a0 f i Biometrics.obj
 0001:0000b3f0       ?AllocateHeap@?$CTempBuffer@_W$0EAA@VCCRTAllocator@ATL@@@ATL@@AEAAX_K@Z 000000018000c3f0 f i Biometrics.obj
 0001:0000b440       ?Append@CParseBuffer@CRegParser@ATL@@QEAAHPEB_WH@Z 000000018000c440 f i Biometrics.obj
 0001:0000b660       ?AtlCallTermFunc@ATL@@YAXPEAU_ATL_MODULE70@1@@Z 000000018000c660 f i Biometrics.obj
 0001:0000b700       ?AtlCoTaskMemCAlloc@ATL@@YAPEAXKK@Z 000000018000c700 f i Biometrics.obj
 0001:0000b780       ?AtlCoTaskMemRecalloc@ATL@@YAPEAXPEAXKK@Z 000000018000c780 f i Biometrics.obj
 0001:0000b800       ?AtlComModuleGetClassObject@ATL@@YAJPEAU_ATL_COM_MODULE70@1@AEBU_GUID@@1PEAPEAX@Z 000000018000c800 f i Biometrics.obj
 0001:0000bb30       ?AtlComModuleRegisterServer@ATL@@YAJPEAU_ATL_COM_MODULE70@1@HPEBU_GUID@@@Z 000000018000cb30 f i Biometrics.obj
 0001:0000bd20       ?AtlComModuleUnregisterServer@ATL@@YAJPEAU_ATL_COM_MODULE70@1@HPEBU_GUID@@@Z 000000018000cd20 f i Biometrics.obj
 0001:0000be70       ?AtlComQIPtrAssign2@ATL@@YAXPEAPEAUIUnknown@@PEAU2@AEBU_GUID@@@Z 000000018000ce70 f i Biometrics.obj
 0001:0000bee0       ?AtlCreateTargetDC@ATL@@YAPEAUHDC__@@PEAU2@PEAUtagDVTARGETDEVICE@@@Z 000000018000cee0 f i Biometrics.obj
 0001:0000c110       ?AtlCrtErrorCheck@ATL@@YAHH@Z 000000018000d110 f i Biometrics.obj
 0001:0000c180       ?AtlGetPerUserRegistration@ATL@@YAJPEA_N@Z 000000018000d180 f i Biometrics.obj
 0001:0000c1b0       ?AtlHiMetricToPixel@ATL@@YAXPEBUtagSIZE@@PEAU2@@Z 000000018000d1b0 f i Biometrics.obj
 0001:0000c390       ?AtlHresultFromLastError@ATL@@YAJXZ 000000018000d390 f i Biometrics.obj
 0001:0000c3b0       ?AtlHresultFromWin32@ATL@@YAJK@Z 000000018000d3b0 f i Biometrics.obj
 0001:0000c3d0       ?AtlIPersistStreamInit_Load@ATL@@YAJPEAUIStream@@PEBUATL_PROPMAP_ENTRY@1@PEAXPEAUIUnknown@@@Z 000000018000d3d0 f i Biometrics.obj
 0001:0000ca50       ?AtlIPersistStreamInit_Save@ATL@@YAJPEAUIStream@@HPEBUATL_PROPMAP_ENTRY@1@PEAXPEAUIUnknown@@@Z 000000018000da50 f i Biometrics.obj
 0001:0000cfe0       ?AtlInternalOleLoadFromStream@ATL@@YAJPEAUIStream@@AEBU_GUID@@PEAPEAXTClassesAllowedInStream@1@K@Z 000000018000dfe0 f i Biometrics.obj
 0001:0000d320       ?AtlInternalQueryInterface@ATL@@YAJPEAXPEBU_ATL_INTMAP_ENTRY@1@AEBU_GUID@@PEAPEAX@Z 000000018000e320 f i Biometrics.obj
 0001:0000d5d0       ?AtlLoadTypeLib@ATL@@YAJPEAUHINSTANCE__@@PEB_WPEAPEA_WPEAPEAUITypeLib@@@Z 000000018000e5d0 f i Biometrics.obj
 0001:0000daa0       ?AtlModuleAddTermFunc@ATL@@YAJPEAU_ATL_MODULE70@1@P6AX_K@Z1@Z 000000018000eaa0 f i Biometrics.obj
 0001:0000dc70       ?AtlRegisterClassCategoriesHelper@ATL@@YAJAEBU_GUID@@PEBU_ATL_CATMAP_ENTRY@1@H@Z 000000018000ec70 f i Biometrics.obj
 0001:0000e440       ?AtlRegisterTypeLib@ATL@@YAJPEAUHINSTANCE__@@PEB_W@Z 000000018000f440 f i Biometrics.obj
 0001:0000e7a0       ?AtlThrowImpl@ATL@@YAXJ@Z  000000018000f7a0 f i Biometrics.obj
 0001:0000e870       ?AtlUnRegisterTypeLib@ATL@@YAJPEAUHINSTANCE__@@PEB_W@Z 000000018000f870 f i Biometrics.obj
 0001:0000eaa0       ?AtlWinModuleAddCreateWndData@ATL@@YAXPEAU_ATL_WIN_MODULE70@1@PEAU_AtlCreateWndData@1@PEAX@Z 000000018000faa0 f i Biometrics.obj
 0001:0000ec90       ?AtlWinModuleExtractCreateWndData@ATL@@YAPEAXPEAU_ATL_WIN_MODULE70@1@@Z 000000018000fc90 f i Biometrics.obj
 0001:0000ee90       ?AtlWinModuleRegisterClassExW@ATL@@YAGPEAU_ATL_WIN_MODULE70@1@PEBUtagWNDCLASSEXW@@@Z 000000018000fe90 f i Biometrics.obj
 0001:0000ef60       ?AtlWinModuleRegisterWndClassInfoW@ATL@@YAGPEAU_ATL_WIN_MODULE70@1@PEAU_ATL_BASE_MODULE70@1@PEAU_ATL_WNDCLASSINFOW@1@PEAP6A_JPEAUHWND__@@I_K_J@Z@Z 000000018000ff60 f i Biometrics.obj
 0001:0000efd0       ?Attach@?$CAutoVectorPtr@_W@ATL@@QEAAXPEA_W@Z 000000018000ffd0 f i Biometrics.obj
 0001:0000f040       ?Attach@CComBSTR@ATL@@QEAAXPEA_W@Z 0000000180010040 f i Biometrics.obj
 0001:0000f080       ?Attach@CRegKey@ATL@@QEAAXPEAUHKEY__@@@Z 0000000180010080 f i Biometrics.obj
 0001:0000f110       ?CanForceRemoveKey@CRegParser@ATL@@IEAAHPEB_W@Z 0000000180010110 f i Biometrics.obj
 0001:0000f170       ?ChToByte@CRegParser@ATL@@KAE_W@Z 0000000180010170 f i Biometrics.obj
 0001:0000f310       ?ChangeType@CComVariant@ATL@@QEAAJGPEBUtagVARIANT@@@Z 0000000180010310 f i Biometrics.obj
 0001:0000f360       ?Cleanup@CComTypeInfoHolder@ATL@@SAX_K@Z 0000000180010360 f i Biometrics.obj
 0001:0000f440       ?Clear@CComVariant@ATL@@QEAAJXZ 0000000180010440 f i Biometrics.obj
 0001:0000f460       ?ClearReplacements@CExpansionVector@ATL@@QEAAJXZ 0000000180010460 f i Biometrics.obj
 0001:0000f4f0       ?ClearReplacements@CRegObject@ATL@@UEAAJXZ 00000001800104f0 f i Biometrics.obj
 0001:0000f540       ?Clone@?$CComEnumImpl@UIEnumConnectionPoints@@$1?_GUID_b196b285_bab4_101a_b69c_00aa00341d07@@3U__s_GUID@@BPEAUIConnectionPoint@@V?$_CopyInterface@UIConnectionPoint@@@ATL@@@ATL@@UEAAJPEAPEAUIEnumConnectionPoints@@@Z 0000000180010540 f i Biometrics.obj
 0001:0000f730       ?Clone@?$CComEnumImpl@UIEnumConnections@@$1?_GUID_b196b287_bab4_101a_b69c_00aa00341d07@@3U__s_GUID@@BUtagCONNECTDATA@@V?$_Copy@UtagCONNECTDATA@@@ATL@@@ATL@@UEAAJPEAPEAUIEnumConnections@@@Z 0000000180010730 f i Biometrics.obj
 0001:0000f920       ?Close@?$IOleObjectImpl@VCOPOSBiometrics@@@ATL@@UEAAJK@Z 0000000180010920 f i Biometrics.obj
 0001:0000f9c0       ?Close@CRegKey@ATL@@QEAAJXZ 00000001800109c0 f i Biometrics.obj
 0001:0000fa20       ?ContextSensitiveHelp@?$IOleInPlaceActiveObjectImpl@VCOPOSBiometrics@@@ATL@@UEAAJH@Z 0000000180010a20 f i Biometrics.obj
 0001:0000fa90       ?ContextSensitiveHelp@?$IOleInPlaceObjectWindowlessImpl@VCOPOSBiometrics@@@ATL@@UEAAJH@Z 0000000180010a90 f i Biometrics.obj
 0001:0000fb00       ?ControlQueryInterface@?$CComControl@VCOPOSBiometrics@@V?$CWindowImpl@VCOPOSBiometrics@@VCWindow@ATL@@V?$CWinTraits@$0FGAAAAAA@$0A@@3@@ATL@@@ATL@@UEAAJAEBU_GUID@@PEAPEAX@Z 0000000180010b00 f i Biometrics.obj
 0001:0000fb70       ?CreateControlWindow@?$CComControl@VCOPOSBiometrics@@V?$CWindowImpl@VCOPOSBiometrics@@VCWindow@ATL@@V?$CWinTraits@$0FGAAAAAA@$0A@@3@@ATL@@@ATL@@UEAAPEAUHWND__@@PEAU3@AEAUtagRECT@@@Z 0000000180010b70 f i Biometrics.obj
 0001:0000fc40       ?CreateInstance@?$CComCreator@V?$CComAggObject@VCOPOSBiometrics@@@ATL@@@ATL@@SAJPEAXAEBU_GUID@@PEAPEAX@Z 0000000180010c40 f i Biometrics.obj
 0001:0000fe10       ?CreateInstance@?$CComCreator@V?$CComObject@VCOPOSBiometrics@@@ATL@@@ATL@@SAJPEAXAEBU_GUID@@PEAPEAX@Z 0000000180010e10 f i Biometrics.obj
 0001:0000fff0       ?CreateInstance@?$CComObject@V?$CComEnum@UIEnumConnectionPoints@@$1?_GUID_b196b285_bab4_101a_b69c_00aa00341d07@@3U__s_GUID@@BPEAUIConnectionPoint@@V?$_CopyInterface@UIConnectionPoint@@@ATL@@VCComSingleThreadModel@6@@ATL@@@ATL@@SAJPEAPEAV12@@Z 0000000180010ff0 f i Biometrics.obj
 0001:000101a0       ?CreateInstance@?$CComObject@V?$CComEnum@UIEnumConnections@@$1?_GUID_b196b287_bab4_101a_b69c_00aa00341d07@@3U__s_GUID@@BUtagCONNECTDATA@@V?$_Copy@UtagCONNECTDATA@@@ATL@@VCComSingleThreadModel@6@@ATL@@@ATL@@SAJPEAPEAV12@@Z 00000001800111a0 f i Biometrics.obj
 0001:00010350       ?CreateInstance@CComClassFactory@ATL@@UEAAJPEAUIUnknown@@AEBU_GUID@@PEAPEAX@Z 0000000180011350 f i Biometrics.obj
 0001:00010460       ?DAdvise@?$IDataObjectImpl@VCOPOSBiometrics@@@ATL@@UEAAJPEAUtagFORMATETC@@KPEAUIAdviseSink@@PEAK@Z 0000000180011460 f i Biometrics.obj
 0001:000105a0       ?DEVMODEOLE2T_EX@@YAPEAU_devicemodeW@@PEAU1@@Z 00000001800115a0 f i Biometrics.obj
 0001:000105b0       ?DUnadvise@?$IDataObjectImpl@VCOPOSBiometrics@@@ATL@@UEAAJK@Z 00000001800115b0 f i Biometrics.obj
 0001:000106a0       ?Decrement@CComMultiThreadModel@ATL@@SAKPEAJ@Z 00000001800116a0 f i Biometrics.obj
 0001:000106c0       ?Decrement@CComSingleThreadModel@ATL@@SAKPEAJ@Z 00000001800116c0 f i Biometrics.obj
 0001:000106e0       ?DefWindowProcW@?$CWindowImplBaseT@VCWindow@ATL@@V?$CWinTraits@$0FGAAAAAA@$0A@@2@@ATL@@QEAA_JI_K_J@Z 00000001800116e0 f i Biometrics.obj
 0001:00010730       ?DefaultReflectionHandler@?$CWindowImplRoot@VCWindow@ATL@@@ATL@@SAHPEAUHWND__@@I_K_JAEA_J@Z 0000000180011730 f i Biometrics.obj
 0001:00010a30       ?DeleteSubKey@CRegKey@ATL@@QEAAJPEB_W@Z 0000000180011a30 f i Biometrics.obj
 0001:00010b40       ?DeleteValue@CRegKey@ATL@@QEAAJPEB_W@Z 0000000180011b40 f i Biometrics.obj
 0001:00010bc0       ?Detach@?$CAutoVectorPtr@_W@ATL@@QEAAPEA_WXZ 0000000180011bc0 f i Biometrics.obj
 0001:00010bf0       ?Detach@?$CComPtrBase@UIPersistStream@@@ATL@@QEAAPEAUIPersistStream@@XZ 0000000180011bf0 f i Biometrics.obj
 0001:00010c20       ?Detach@?$CComPtrBase@UITypeInfo@@@ATL@@QEAAPEAUITypeInfo@@XZ 0000000180011c20 f i Biometrics.obj
 0001:00010c50       ?Detach@?$CComPtrBase@UIUnknown@@@ATL@@QEAAPEAUIUnknown@@XZ 0000000180011c50 f i Biometrics.obj
 0001:00010c80       ?Detach@CComBSTR@ATL@@QEAAPEA_WXZ 0000000180011c80 f i Biometrics.obj
 0001:00010cb0       ?Detach@CParseBuffer@CRegParser@ATL@@QEAAPEA_WXZ 0000000180011cb0 f i Biometrics.obj
 0001:00010d00       ?Detach@CRegKey@ATL@@QEAAPEAUHKEY__@@XZ 0000000180011d00 f i Biometrics.obj
 0001:00010d50       ?DoEvent@COPOSBiometrics@@IEAAXI_K_J@Z 0000000180011d50 f i Biometrics.obj
 0001:00010e70       ?DoVerb@?$IOleObjectImpl@VCOPOSBiometrics@@@ATL@@UEAAJJPEAUtagMSG@@PEAUIOleClientSite@@JPEAUHWND__@@PEBUtagRECT@@@Z 0000000180011e70 f i Biometrics.obj
 0001:00011170       ?DoVerbDiscardUndo@?$IOleObjectImpl@VCOPOSBiometrics@@@ATL@@QEAAJPEBUtagRECT@@PEAUHWND__@@@Z 0000000180012170 f i Biometrics.obj
 0001:000111f0       ?DoVerbHide@?$IOleObjectImpl@VCOPOSBiometrics@@@ATL@@QEAAJPEBUtagRECT@@PEAUHWND__@@@Z 00000001800121f0 f i Biometrics.obj
 0001:000112c0       ?DoVerbInPlaceActivate@?$IOleObjectImpl@VCOPOSBiometrics@@@ATL@@QEAAJPEBUtagRECT@@PEAUHWND__@@@Z 00000001800122c0 f i Biometrics.obj
 0001:00011380       ?DoVerbOpen@?$IOleObjectImpl@VCOPOSBiometrics@@@ATL@@QEAAJPEBUtagRECT@@PEAUHWND__@@@Z 0000000180012380 f i Biometrics.obj
 0001:00011400       ?DoVerbPrimary@?$IOleObjectImpl@VCOPOSBiometrics@@@ATL@@QEAAJPEBUtagRECT@@PEAUHWND__@@@Z 0000000180012400 f i Biometrics.obj
 0001:00011540       ?DoVerbProperties@CComControlBase@ATL@@QEAAJPEBUtagRECT@@PEAUHWND__@@@Z 0000000180012540 f i Biometrics.obj
 0001:000118f0       ?DoVerbShow@?$IOleObjectImpl@VCOPOSBiometrics@@@ATL@@QEAAJPEBUtagRECT@@PEAUHWND__@@@Z 00000001800128f0 f i Biometrics.obj
 0001:000119a0       ?DoVerbUIActivate@?$IOleObjectImpl@VCOPOSBiometrics@@@ATL@@QEAAJPEBUtagRECT@@PEAUHWND__@@@Z 00000001800129a0 f i Biometrics.obj
 0001:00011a60       ?DoesVerbActivate@CComControlBase@ATL@@QEAAHJ@Z 0000000180012a60 f i Biometrics.obj
 0001:00011ab0       ?DoesVerbUIActivate@CComControlBase@ATL@@QEAAHJ@Z 0000000180012ab0 f i Biometrics.obj
 0001:00011b20       ?Draw@?$IViewObjectExImpl@VCOPOSBiometrics@@@ATL@@UEAAJKJPEAXPEAUtagDVTARGETDEVICE@@PEAUHDC__@@2PEBU_RECTL@@3P6AH_K@Z4@Z 0000000180012b20 f i Biometrics.obj
 0001:00011c30       ?Empty@CComBSTR@ATL@@QEAAXXZ 0000000180012c30 f i Biometrics.obj
 0001:00011c60       ?EnableModeless@?$IOleInPlaceActiveObjectImpl@VCOPOSBiometrics@@@ATL@@UEAAJH@Z 0000000180012c60 f i Biometrics.obj
 0001:00011cc0       ?EndOfVar@CRegParser@ATL@@IEAAHXZ 0000000180012cc0 f i Biometrics.obj
 0001:00011d10       ?EnsureTI@CComTypeInfoHolder@ATL@@QEAAJK@Z 0000000180012d10 f i Biometrics.obj
 0001:00011d60       ?EnumAdvise@?$IOleObjectImpl@VCOPOSBiometrics@@@ATL@@UEAAJPEAPEAUIEnumSTATDATA@@@Z 0000000180012d60 f i Biometrics.obj
 0001:00011eb0       ?EnumConnectionPoints@?$IConnectionPointContainerImpl@VCOPOSBiometrics@@@ATL@@UEAAJPEAPEAUIEnumConnectionPoints@@@Z 0000000180012eb0 f i Biometrics.obj
 0001:000123a0       ?EnumConnections@?$IConnectionPointImpl@VCOPOSBiometrics@@$1?DIID__IOPOSBiometricsEvents@@3U_GUID@@BVCComDynamicUnkArray@ATL@@@ATL@@UEAAJPEAPEAUIEnumConnections@@@Z 00000001800133a0 f i Biometrics.obj
 0001:000126d0       ?EnumConnections@?$IConnectionPointImpl@VCOPOSBiometrics@@$1?IID_IPropertyNotifySink@@3U_GUID@@BVCComDynamicUnkArray@ATL@@@ATL@@UEAAJPEAPEAUIEnumConnections@@@Z 00000001800136d0 f i Biometrics.obj
 0001:00012a00       ?EnumDAdvise@?$IDataObjectImpl@VCOPOSBiometrics@@@ATL@@UEAAJPEAPEAUIEnumSTATDATA@@@Z 0000000180013a00 f i Biometrics.obj
 0001:00012b30       ?EnumFormatEtc@?$IDataObjectImpl@VCOPOSBiometrics@@@ATL@@UEAAJKPEAPEAUIEnumFORMATETC@@@Z 0000000180013b30 f i Biometrics.obj
 0001:00012bb0       ?EnumVerbs@?$IOleObjectImpl@VCOPOSBiometrics@@@ATL@@UEAAJPEAPEAUIEnumOLEVERB@@@Z 0000000180013bb0 f i Biometrics.obj
 0001:00012c70       ?EscapeSingleQuote@CAtlModule@ATL@@SAXPEA_W_KPEB_W@Z 0000000180013c70 f i Biometrics.obj
 0001:00012d50       ?ExtractCreateWndData@CAtlWinModule@ATL@@QEAAPEAXXZ 0000000180013d50 f i Biometrics.obj
 0001:00012d70       ?FAccessAllowed@?$IObjectSafetyImpl@VCOPOSBiometrics@@$02@ATL@@MEAAHXZ 0000000180013d70 f i Biometrics.obj
 0001:00012d80       ?FinalConstruct@?$CComAggObject@VCOPOSBiometrics@@@ATL@@QEAAJXZ 0000000180013d80 f i Biometrics.obj
 0001:00012dc0       ?FinalConstruct@CComObjectRootBase@ATL@@QEAAJXZ 0000000180013dc0 f i Biometrics.obj
 0001:00012dd0       ?FinalConstruct@CRegObject@ATL@@QEAAJXZ 0000000180013dd0 f i Biometrics.obj
 0001:00012e00       ?FinalRelease@?$CComAggObject@VCOPOSBiometrics@@@ATL@@QEAAXXZ 0000000180013e00 f i Biometrics.obj
 0001:00012e40       ?FinalRelease@CComObjectRootBase@ATL@@QEAAXXZ 0000000180013e40 f i Biometrics.obj
 0001:00012e50       ?FindConnectionPoint@?$IConnectionPointContainerImpl@VCOPOSBiometrics@@@ATL@@UEAAJAEBU_GUID@@PEAPEAUIConnectionPoint@@@Z 0000000180013e50 f i Biometrics.obj
 0001:00012fc0       ?FindKey@?$CSimpleMap@PEA_WPEA_WVCExpansionVectorEqualHelper@ATL@@@ATL@@QEBAHAEBQEA_W@Z 0000000180013fc0 f i Biometrics.obj
 0001:00013030       ?FireTheEvent@?$CProxy_IOPOSEvents@VCOPOSBiometrics@@@@IEAAXPEAUIUnknown@@PEAVOposVariant@@IAEAJPEB_WJ@Z 0000000180014030 f i Biometrics.obj
 0001:00013210       ?FireViewChange@CComControlBase@ATL@@QEAAJXZ 0000000180014210 f i Biometrics.obj
 0001:000132e0       ?Fire_DataEvent@?$CProxy_IOPOSEvents@VCOPOSBiometrics@@@@QEAAXJ@Z 00000001800142e0 f i Biometrics.obj
 0001:000134d0       ?Fire_DirectIOEvent@?$CProxy_IOPOSEvents@VCOPOSBiometrics@@@@QEAAXJPEAJPEAPEA_W@Z 00000001800144d0 f i Biometrics.obj
 0001:00013770       ?Fire_ErrorEvent@?$CProxy_IOPOSEvents@VCOPOSBiometrics@@@@QEAAXJJJPEAJ@Z 0000000180014770 f i Biometrics.obj
 0001:00013a20       ?Fire_StatusUpdateEvent@?$CProxy_IOPOSEvents@VCOPOSBiometrics@@@@QEAAXJ@Z 0000000180014a20 f i Biometrics.obj
 0001:00013c10       ?FormatWindowClassName@AtlModuleRegisterWndClassInfoParamW@ATL@@SAXPEA_WKPEAX@Z 0000000180014c10 f i Biometrics.obj
 0001:00013c50       ?Free@?$CAutoVectorPtr@_W@ATL@@QEAAXXZ 0000000180014c50 f i Biometrics.obj
 0001:00013c90       ?FreeHeap@?$CTempBuffer@E$0BAA@VCCRTAllocator@ATL@@@ATL@@AEAAXXZ 0000000180014c90 f i Biometrics.obj
 0001:00013cb0       ?FreeHeap@?$CTempBuffer@_W$0BAA@VCCRTAllocator@ATL@@@ATL@@AEAAXXZ 0000000180014cb0 f i Biometrics.obj
 0001:00013cd0       ?FreeHeap@?$CTempBuffer@_W$0EAA@VCCRTAllocator@ATL@@@ATL@@AEAAXXZ 0000000180014cd0 f i Biometrics.obj
 0001:00013cf0       ?Freeze@?$IViewObjectExImpl@VCOPOSBiometrics@@@ATL@@UEAAJKJPEAXPEAK@Z 0000000180014cf0 f i Biometrics.obj
 0001:00013d70       ?GenerateError@CRegParser@ATL@@IEAAJI@Z 0000000180014d70 f i Biometrics.obj
 0001:00013d90       ?GetAdvise@?$IViewObjectExImpl@VCOPOSBiometrics@@@ATL@@UEAAJPEAK0PEAPEAUIAdviseSink@@@Z 0000000180014d90 f i Biometrics.obj
 0001:00013ed0       ?GetAmbientLocaleID@CComControlBase@ATL@@QEAAJAEAK@Z 0000000180014ed0 f i Biometrics.obj
 0001:00013fb0       ?GetAmbientProperty@CComControlBase@ATL@@QEAAJJAEAUtagVARIANT@@@Z 0000000180014fb0 f i Biometrics.obj
 0001:00014000       ?GetAmbientUserMode@CComControlBase@ATL@@QEAAJAEAH@Z 0000000180015000 f i Biometrics.obj
 0001:00014120       ?GetAppId@?$CAtlModuleT@VCComModule@ATL@@@ATL@@SAPEB_WXZ 0000000180015120 f i Biometrics.obj
 0001:00014130       ?GetAt@CComDynamicUnkArray@ATL@@QEAAPEAUIUnknown@@H@Z 0000000180015130 f i Biometrics.obj
 0001:000141c0       ?GetCanonicalFormatEtc@?$IDataObjectImpl@VCOPOSBiometrics@@@ATL@@UEAAJPEAUtagFORMATETC@@0@Z 00000001800151c0 f i Biometrics.obj
 0001:00014240       ?GetClassID@?$IPersistStorageImpl@VCOPOSBiometrics@@@ATL@@UEAAJPEAU_GUID@@@Z 0000000180015240 f i Biometrics.obj
 0001:000142c0       ?GetClassID@?$IPersistStreamInitImpl@VCOPOSBiometrics@@@ATL@@UEAAJPEAU_GUID@@@Z 00000001800152c0 f i Biometrics.obj
 0001:00014340       ?GetClassInfoExW@AtlModuleRegisterWndClassInfoParamW@ATL@@SAHPEAUHINSTANCE__@@PEB_WPEAUtagWNDCLASSEXW@@@Z 0000000180015340 f i Biometrics.obj
 0001:00014370       ?GetClassInfoW@?$IProvideClassInfo2Impl@$1?CLSID_OPOSBiometrics@@3U_GUID@@B$1?DIID__IOPOSBiometricsEvents@@3U2@B$1?LIBID_OposBiometrics_CCO@@3U2@B$00$0A@VCComTypeInfoHolder@ATL@@@ATL@@UEAAJPEAPEAUITypeInfo@@@Z 0000000180015370 f i Biometrics.obj
 0001:000143a0       ?GetClassObject@CComModule@ATL@@QEAAJAEBU_GUID@@0PEAPEAX@Z 00000001800153a0 f i Biometrics.obj
 0001:00014610       ?GetClientSite@?$IOleObjectImpl@VCOPOSBiometrics@@@ATL@@UEAAJPEAPEAUIOleClientSite@@@Z 0000000180015610 f i Biometrics.obj
 0001:000146b0       ?GetClipboardData@?$IOleObjectImpl@VCOPOSBiometrics@@@ATL@@UEAAJKPEAPEAUIDataObject@@@Z 00000001800156b0 f i Biometrics.obj
 0001:00014730       ?GetCodeAddress@CDynamicStdCallThunk2@ATL@@QEAAPEAXXZ 0000000180015730 f i Biometrics.obj
 0001:00014750       ?GetColorSet@?$IViewObjectExImpl@VCOPOSBiometrics@@@ATL@@UEAAJKJPEAXPEAUtagDVTARGETDEVICE@@PEAUHDC__@@PEAPEAUtagLOGPALETTE@@@Z 0000000180015750 f i Biometrics.obj
 0001:000147d0       ?GetConnMap@COPOSBiometrics@@SAPEBU_ATL_CONNMAP_ENTRY@ATL@@PEAH@Z 00000001800157d0 f i Biometrics.obj
 0001:00014920       ?GetConnectionInterface@?$IConnectionPointImpl@VCOPOSBiometrics@@$1?DIID__IOPOSBiometricsEvents@@3U_GUID@@BVCComDynamicUnkArray@ATL@@@ATL@@UEAAJPEAU_GUID@@@Z 0000000180015920 f i Biometrics.obj
 0001:00014960       ?GetConnectionInterface@?$IConnectionPointImpl@VCOPOSBiometrics@@$1?IID_IPropertyNotifySink@@3U_GUID@@BVCComDynamicUnkArray@ATL@@@ATL@@UEAAJPEAU_GUID@@@Z 0000000180015960 f i Biometrics.obj
 0001:000149a0       ?GetConnectionPointContainer@?$IConnectionPointImpl@VCOPOSBiometrics@@$1?DIID__IOPOSBiometricsEvents@@3U_GUID@@BVCComDynamicUnkArray@ATL@@@ATL@@UEAAJPEAPEAUIConnectionPointContainer@@@Z 00000001800159a0 f i Biometrics.obj
 0001:00014a00       ?GetConnectionPointContainer@?$IConnectionPointImpl@VCOPOSBiometrics@@$1?IID_IPropertyNotifySink@@3U_GUID@@BVCComDynamicUnkArray@ATL@@@ATL@@UEAAJPEAPEAUIConnectionPointContainer@@@Z 0000000180015a00 f i Biometrics.obj
 0001:00014a60       ?GetContentExtent@?$IQuickActivateImpl@VCOPOSBiometrics@@@ATL@@UEAAJPEAUtagSIZE@@@Z 0000000180015a60 f i Biometrics.obj
 0001:00014b10       ?GetControlInfo@?$IOleControlImpl@VCOPOSBiometrics@@@ATL@@UEAAJPEAUtagCONTROLINFO@@@Z 0000000180015b10 f i Biometrics.obj
 0001:00014b80       ?GetCookie@CComDynamicUnkArray@ATL@@QEAAKPEAPEAUIUnknown@@@Z 0000000180015b80 f i Biometrics.obj
 0001:00014c60       ?GetData@?$IDataObjectImpl@VCOPOSBiometrics@@@ATL@@UEAAJPEAUtagFORMATETC@@PEAUtagSTGMEDIUM@@@Z 0000000180015c60 f i Biometrics.obj
 0001:00014d10       ?GetData@CAtlSafeAllocBufferNode@?$CAtlSafeAllocBufferManager@VCCRTAllocator@ATL@@@_ATL_SAFE_ALLOCA_IMPL@ATL@@QEAAPEAXXZ 0000000180015d10 f i Biometrics.obj
 0001:00014d30       ?GetDataHere@?$IDataObjectImpl@VCOPOSBiometrics@@@ATL@@UEAAJPEAUtagFORMATETC@@PEAUtagSTGMEDIUM@@@Z 0000000180015d30 f i Biometrics.obj
 0001:00014db0       ?GetDropTarget@?$IOleInPlaceObjectWindowlessImpl@VCOPOSBiometrics@@@ATL@@UEAAJPEAPEAUIDropTarget@@@Z 0000000180015db0 f i Biometrics.obj
 0001:00014e20       ?GetExtent@?$IOleObjectImpl@VCOPOSBiometrics@@@ATL@@UEAAJKPEAUtagSIZE@@@Z 0000000180015e20 f i Biometrics.obj
 0001:00014ee0       ?GetExtent@?$IViewObjectExImpl@VCOPOSBiometrics@@@ATL@@UEAAJKJPEAUtagDVTARGETDEVICE@@PEAUtagSIZE@@@Z 0000000180015ee0 f i Biometrics.obj
 0001:00014fe0       ?GetGITPtr@CAtlModule@ATL@@UEAAJPEAPEAUIGlobalInterfaceTable@@@Z 0000000180015fe0 f i Biometrics.obj
 0001:00015110       ?GetGUID@?$IProvideClassInfo2Impl@$1?CLSID_OPOSBiometrics@@3U_GUID@@B$1?DIID__IOPOSBiometricsEvents@@3U2@B$1?LIBID_OposBiometrics_CCO@@3U2@B$00$0A@VCComTypeInfoHolder@ATL@@@ATL@@UEAAJKPEAU_GUID@@@Z 0000000180016110 f i Biometrics.obj
 0001:00015190       ?GetIDsOfNames@?$IDispatchImpl@UIOPOSBiometrics@@$1?IID_IOPOSBiometrics@@3U_GUID@@B$1?LIBID_OposBiometrics_CCO@@3U3@B$00$0A@VCComTypeInfoHolder@ATL@@@ATL@@UEAAJAEBU_GUID@@PEAPEA_WIKPEAJ@Z 0000000180016190 f i Biometrics.obj
 0001:000151e0       ?GetIDsOfNames@CComTypeInfoHolder@ATL@@QEAAJAEBU_GUID@@PEAPEA_WIKPEAJ@Z 00000001800161e0 f i Biometrics.obj
 0001:000153f0       ?GetInterfaceSafetyOptions@?$IObjectSafetyImpl@VCOPOSBiometrics@@$02@ATL@@UEAAJAEBU_GUID@@PEAK1@Z 00000001800163f0 f i Biometrics.obj
 0001:00015590       ?GetKeyAt@?$CSimpleMap@PEA_WPEA_WVCExpansionVectorEqualHelper@ATL@@@ATL@@QEBAAEAPEA_WH@Z 0000000180016590 f i Biometrics.obj
 0001:00015630       ?GetLockCount@CAtlModule@ATL@@UEAAJXZ 0000000180016630 f i Biometrics.obj
 0001:00015640       ?GetMiscStatus@?$IOleObjectImpl@VCOPOSBiometrics@@@ATL@@UEAAJKPEAK@Z 0000000180016640 f i Biometrics.obj
 0001:000156c0       ?GetMoniker@?$IOleObjectImpl@VCOPOSBiometrics@@@ATL@@UEAAJKKPEAPEAUIMoniker@@@Z 00000001800166c0 f i Biometrics.obj
 0001:00015740       ?GetNaturalExtent@?$IViewObjectExImpl@VCOPOSBiometrics@@@ATL@@UEAAJKJPEAUtagDVTARGETDEVICE@@PEAUHDC__@@PEAUtagExtentInfo@@PEAUtagSIZE@@@Z 0000000180016740 f i Biometrics.obj
 0001:000158c0       ?GetObjectCLSID@?$CComCoClass@VCOPOSBiometrics@@$1?CLSID_OPOSBiometrics@@3U_GUID@@B@ATL@@SAAEBU_GUID@@XZ 00000001800168c0 f i Biometrics.obj
 0001:000158d0       ?GetPages@?$ISpecifyPropertyPagesImpl@VCOPOSBiometrics@@@ATL@@UEAAJPEAUtagCAUUID@@@Z 00000001800168d0 f i Biometrics.obj
 0001:00015950       ?GetPagesHelper@?$ISpecifyPropertyPagesImpl@VCOPOSBiometrics@@@ATL@@IEAAJPEAUtagCAUUID@@PEBUATL_PROPMAP_ENTRY@2@@Z 0000000180016950 f i Biometrics.obj
 0001:00015bb0       ?GetProperty@?$CComPtr@UIDispatch@@@ATL@@QEAAJJPEAUtagVARIANT@@@Z 0000000180016bb0 f i Biometrics.obj
 0001:00015be0       ?GetProperty@?$CComPtr@UIDispatch@@@ATL@@SAJPEAUIDispatch@@JPEAUtagVARIANT@@@Z 0000000180016be0 f i Biometrics.obj
 0001:00015db0       ?GetPropertyMap@COPOSBiometrics@@SAPEBUATL_PROPMAP_ENTRY@ATL@@XZ 0000000180016db0 f i Biometrics.obj
 0001:00015dc0       ?GetRect@?$IViewObjectExImpl@VCOPOSBiometrics@@@ATL@@UEAAJKPEAU_RECTL@@@Z 0000000180016dc0 f i Biometrics.obj
 0001:00015e40       ?GetSize@?$CSimpleMap@PEA_WPEA_WVCExpansionVectorEqualHelper@ATL@@@ATL@@QEBAHXZ 0000000180016e40 f i Biometrics.obj
 0001:00015e50       ?GetSize@CComDynamicUnkArray@ATL@@QEBAHXZ 0000000180016e50 f i Biometrics.obj
 0001:00015e60       ?GetSizeMax@?$IPersistStreamInitImpl@VCOPOSBiometrics@@@ATL@@UEAAJPEAT_ULARGE_INTEGER@@@Z 0000000180016e60 f i Biometrics.obj
 0001:00016600       ?GetSizeMax@CComVariant@ATL@@QEBAJPEAT_ULARGE_INTEGER@@@Z 0000000180017600 f i Biometrics.obj
 0001:00016a50       ?GetStreamSize@CComBSTR@ATL@@SAKPEA_W@Z 0000000180017a50 f i Biometrics.obj
 0001:00016a90       ?GetTI@CComTypeInfoHolder@ATL@@QEAAJK@Z 0000000180017a90 f i Biometrics.obj
 0001:00017360       ?GetTI@CComTypeInfoHolder@ATL@@QEAAJKPEAPEAUITypeInfo@@@Z 0000000180018360 f i Biometrics.obj
 0001:00017440       ?GetTypeInfo@?$IDispatchImpl@UIOPOSBiometrics@@$1?IID_IOPOSBiometrics@@3U_GUID@@B$1?LIBID_OposBiometrics_CCO@@3U3@B$00$0A@VCComTypeInfoHolder@ATL@@@ATL@@UEAAJIKPEAPEAUITypeInfo@@@Z 0000000180018440 f i Biometrics.obj
 0001:00017480       ?GetTypeInfo@CComTypeInfoHolder@ATL@@QEAAJIKPEAPEAUITypeInfo@@@Z 0000000180018480 f i Biometrics.obj
 0001:000174c0       ?GetTypeInfoCount@?$IDispatchImpl@UIOPOSBiometrics@@$1?IID_IOPOSBiometrics@@3U_GUID@@B$1?LIBID_OposBiometrics_CCO@@3U3@B$00$0A@VCComTypeInfoHolder@ATL@@@ATL@@UEAAJPEAI@Z 00000001800184c0 f i Biometrics.obj
 0001:000174f0       ?GetUnknown@CComDynamicUnkArray@ATL@@QEAAPEAUIUnknown@@K@Z 00000001800184f0 f i Biometrics.obj
 0001:00017580       ?GetUnknown@COPOSBiometrics@@QEAAPEAUIUnknown@@XZ 0000000180018580 f i Biometrics.obj
 0001:000175a0       ?GetUserClassID@?$IOleObjectImpl@VCOPOSBiometrics@@@ATL@@UEAAJPEAU_GUID@@@Z 00000001800185a0 f i Biometrics.obj
 0001:00017660       ?GetUserType@?$IOleObjectImpl@VCOPOSBiometrics@@@ATL@@UEAAJKPEAPEA_W@Z 0000000180018660 f i Biometrics.obj
 0001:000176e0       ?GetValueAt@?$CSimpleMap@PEA_WPEA_WVCExpansionVectorEqualHelper@ATL@@@ATL@@QEBAAEAPEA_WH@Z 00000001800186e0 f i Biometrics.obj
 0001:00017780       ?GetViewStatus@?$IViewObjectExImpl@VCOPOSBiometrics@@@ATL@@UEAAJPEAK@Z 0000000180018780 f i Biometrics.obj
 0001:00017870       ?GetWNDPROC@CWndProcThunk@ATL@@QEAAP6A_JPEAUHWND__@@I_K_J@ZXZ 0000000180018870 f i Biometrics.obj
 0001:000178a0       ?GetWindow@?$IOleInPlaceActiveObjectImpl@VCOPOSBiometrics@@@ATL@@UEAAJPEAPEAUHWND__@@@Z 00000001800188a0 f i Biometrics.obj
 0001:00017990       ?GetWindow@?$IOleInPlaceObjectWindowlessImpl@VCOPOSBiometrics@@@ATL@@UEAAJPEAPEAUHWND__@@@Z 0000000180018990 f i Biometrics.obj
 0001:00017a80       ?GetWindowProc@?$CWindowImplBaseT@VCWindow@ATL@@V?$CWinTraits@$0FGAAAAAA@$0A@@2@@ATL@@UEAAP6A_JPEAUHWND__@@I_K_J@ZXZ 0000000180018a80 f i Biometrics.obj
 0001:00017a90       ?GetWndCaption@?$CWindowImpl@VCOPOSBiometrics@@VCWindow@ATL@@V?$CWinTraits@$0FGAAAAAA@$0A@@3@@ATL@@SAPEB_WXZ 0000000180018a90 f i Biometrics.obj
 0001:00017aa0       ?GetWndClassInfo@?$CWindowImpl@VCOPOSBiometrics@@VCWindow@ATL@@V?$CWinTraits@$0FGAAAAAA@$0A@@3@@ATL@@SAAEAU_ATL_WNDCLASSINFOW@2@XZ 0000000180018aa0 f i Biometrics.obj
 0001:00017ab0       ?GetWndClassName@CWindow@ATL@@SAPEB_WXZ 0000000180018ab0 f i Biometrics.obj
 0001:00017ac0       ?GetWndExStyle@?$CWinTraits@$0FGAAAAAA@$0A@@ATL@@SAKK@Z 0000000180018ac0 f i Biometrics.obj
 0001:00017af0       ?GetWndExStyle@?$CWindowImplBaseT@VCWindow@ATL@@V?$CWinTraits@$0FGAAAAAA@$0A@@2@@ATL@@SAKK@Z 0000000180018af0 f i Biometrics.obj
 0001:00017b10       ?GetWndStyle@?$CWinTraits@$0FGAAAAAA@$0A@@ATL@@SAKK@Z 0000000180018b10 f i Biometrics.obj
 0001:00017b40       ?GetWndStyle@?$CWindowImplBaseT@VCWindow@ATL@@V?$CWinTraits@$0FGAAAAAA@$0A@@2@@ATL@@SAKK@Z 0000000180018b40 f i Biometrics.obj
 0001:00017b60       ?GetZoomInfo@CComControlBase@ATL@@QEAAXAEAUATL_DRAWINFO@@@Z 0000000180018b60 f i Biometrics.obj
 0001:00017d10       ?HKeyFromString@CRegParser@ATL@@KAPEAUHKEY__@@PEA_W@Z 0000000180018d10 f i Biometrics.obj
 0001:00017d80       ?HandsOffStorage@?$IPersistStorageImpl@VCOPOSBiometrics@@@ATL@@UEAAJXZ 0000000180018d80 f i Biometrics.obj
 0001:00017de0       ?HasSubKeys@CRegParser@ATL@@IEAAHPEAUHKEY__@@@Z 0000000180018de0 f i Biometrics.obj
 0001:00017f50       ?IDataObject_GetData@CComControlBase@ATL@@QEAAJPEAUtagFORMATETC@@PEAUtagSTGMEDIUM@@@Z 0000000180018f50 f i Biometrics.obj
 0001:00018400       ?IOleInPlaceObject_InPlaceDeactivate@CComControlBase@ATL@@QEAAJXZ 0000000180019400 f i Biometrics.obj
 0001:00018670       ?IOleInPlaceObject_SetObjectRects@CComControlBase@ATL@@QEAAJPEBUtagRECT@@0@Z 0000000180019670 f i Biometrics.obj
 0001:00018860       ?IOleInPlaceObject_UIDeactivate@CComControlBase@ATL@@QEAAJXZ 0000000180019860 f i Biometrics.obj
 0001:00018ad0       ?IOleObject_Advise@CComControlBase@ATL@@QEAAJPEAUIAdviseSink@@PEAK@Z 0000000180019ad0 f i Biometrics.obj
 0001:00018b70       ?IOleObject_Close@CComControlBase@ATL@@QEAAJK@Z 0000000180019b70 f i Biometrics.obj
 0001:00018ee0       ?IOleObject_GetClientSite@CComControlBase@ATL@@QEAAJPEAPEAUIOleClientSite@@@Z 0000000180019ee0 f i Biometrics.obj
 0001:00018fa0       ?IOleObject_SetClientSite@CComControlBase@ATL@@QEAAJPEAUIOleClientSite@@@Z 0000000180019fa0 f i Biometrics.obj
 0001:000190a0       ?IOleObject_SetExtent@CComControlBase@ATL@@QEAAJKPEAUtagSIZE@@@Z 000000018001a0a0 f i Biometrics.obj
 0001:000191f0       ?IPSI_GetIPersistStreamInit@?$IPersistStorageImpl@VCOPOSBiometrics@@@ATL@@AEAAPEAUIPersistStreamInit@@XZ 000000018001a1f0 f i Biometrics.obj
 0001:000192b0       ?IPersistStreamInit_Load@?$IPersistStreamInitImpl@VCOPOSBiometrics@@@ATL@@QEAAJPEAUIStream@@PEBUATL_PROPMAP_ENTRY@2@@Z 000000018001a2b0 f i Biometrics.obj
 0001:00019340       ?IPersistStreamInit_Save@?$IPersistStreamInitImpl@VCOPOSBiometrics@@@ATL@@QEAAJPEAUIStream@@HPEBUATL_PROPMAP_ENTRY@2@@Z 000000018001a340 f i Biometrics.obj
 0001:000193e0       ?IQuickActivate_QuickActivate@CComControlBase@ATL@@QEAAJPEAUtagQACONTAINER@@PEAUtagQACONTROL@@@Z 000000018001a3e0 f i Biometrics.obj
 0001:00019c20       ?IViewObject_Draw@CComControlBase@ATL@@QEAAJKJPEAXPEAUtagDVTARGETDEVICE@@PEAUHDC__@@2PEBU_RECTL@@3@Z 000000018001ac20 f i Biometrics.obj
 0001:0001a070       ?InPlaceActivate@CComControlBase@ATL@@QEAAJJPEBUtagRECT@@@Z 000000018001b070 f i Biometrics.obj
 0001:0001ac10       ?InPlaceDeactivate@?$IOleInPlaceObjectWindowlessImpl@VCOPOSBiometrics@@@ATL@@UEAAJXZ 000000018001bc10 f i Biometrics.obj
 0001:0001aca0       ?Increment@CComMultiThreadModel@ATL@@SAKPEAJ@Z 000000018001bca0 f i Biometrics.obj
 0001:0001acc0       ?Increment@CComSingleThreadModel@ATL@@SAKPEAJ@Z 000000018001bcc0 f i Biometrics.obj
 0001:0001ace0       ?Init@?$CComEnumImpl@UIEnumConnectionPoints@@$1?_GUID_b196b285_bab4_101a_b69c_00aa00341d07@@3U__s_GUID@@BPEAUIConnectionPoint@@V?$_CopyInterface@UIConnectionPoint@@@ATL@@@ATL@@QEAAJPEAPEAUIConnectionPoint@@0PEAUIUnknown@@W4CComEnumFlags@2@@Z 000000018001bce0 f i Biometrics.obj
 0001:0001afc0       ?Init@?$CComEnumImpl@UIEnumConnections@@$1?_GUID_b196b287_bab4_101a_b69c_00aa00341d07@@3U__s_GUID@@BUtagCONNECTDATA@@V?$_Copy@UtagCONNECTDATA@@@ATL@@@ATL@@QEAAJPEAUtagCONNECTDATA@@0PEAUIUnknown@@W4CComEnumFlags@2@@Z 000000018001bfc0 f i Biometrics.obj
 0001:0001b2a0       ?Init@CComFakeCriticalSection@ATL@@QEAAJXZ 000000018001c2a0 f i Biometrics.obj
 0001:0001b2b0       ?Init@CComModule@ATL@@QEAAJPEAU_ATL_OBJMAP_ENTRY30@2@PEAUHINSTANCE__@@PEBU_GUID@@@Z 000000018001c2b0 f i Biometrics.obj
 0001:0001b390       ?Init@CComSafeDeleteCriticalSection@ATL@@QEAAJXZ 000000018001c390 f i Biometrics.obj
 0001:0001b410       ?Init@CDynamicStdCallThunk2@ATL@@QEAAH_KPEAX@Z 000000018001c410 f i Biometrics.obj
 0001:0001b470       ?Init@CWndProcThunk@ATL@@QEAAHP6A_JPEAUHWND__@@I_K_J@ZPEAX@Z 000000018001c470 f i Biometrics.obj
 0001:0001b4b0       ?InitFromData@?$IOleObjectImpl@VCOPOSBiometrics@@@ATL@@UEAAJPEAUIDataObject@@HK@Z 000000018001c4b0 f i Biometrics.obj
 0001:0001b530       ?InitLibId@?$CAtlModuleT@VCComModule@ATL@@@ATL@@SAXXZ 000000018001c530 f i Biometrics.obj
 0001:0001b540       ?InitNew@?$IPersistStorageImpl@VCOPOSBiometrics@@@ATL@@UEAAJPEAUIStorage@@@Z 000000018001c540 f i Biometrics.obj
 0001:0001b630       ?InitNew@?$IPersistStreamInitImpl@VCOPOSBiometrics@@@ATL@@UEAAJXZ 000000018001c630 f i Biometrics.obj
 0001:0001b6d0       ?InlineIsEqualUnknown@ATL@@YAHAEBU_GUID@@@Z 000000018001c6d0 f i Biometrics.obj
 0001:0001b750       ?InternalAddRef@?$CComObjectRootEx@VCComMultiThreadModel@ATL@@@ATL@@QEAAKXZ 000000018001c750 f i Biometrics.obj
 0001:0001b7c0       ?InternalAddRef@?$CComObjectRootEx@VCComSingleThreadModel@ATL@@@ATL@@QEAAKXZ 000000018001c7c0 f i Biometrics.obj
 0001:0001b830       ?InternalFinalConstructAddRef@CComObjectRootBase@ATL@@QEAAXXZ 000000018001c830 f i Biometrics.obj
 0001:0001b840       ?InternalFinalConstructAddRef@COPOSBiometrics@@QEAAXXZ 000000018001c840 f i Biometrics.obj
 0001:0001b870       ?InternalFinalConstructRelease@CComObjectRootBase@ATL@@QEAAXXZ 000000018001c870 f i Biometrics.obj
 0001:0001b8d0       ?InternalFinalConstructRelease@COPOSBiometrics@@QEAAXXZ 000000018001c8d0 f i Biometrics.obj
 0001:0001b900       ?InternalGetSite@CComControlBase@ATL@@QEAAJAEBU_GUID@@PEAPEAX@Z 000000018001c900 f i Biometrics.obj
 0001:0001b9d0       ?InternalQueryInterface@CComObjectRootBase@ATL@@SAJPEAXPEBU_ATL_INTMAP_ENTRY@2@AEBU_GUID@@PEAPEAX@Z 000000018001c9d0 f i Biometrics.obj
 0001:0001bae0       ?InternalRelease@?$CComObjectRootEx@VCComMultiThreadModel@ATL@@@ATL@@QEAAKXZ 000000018001cae0 f i Biometrics.obj
 0001:0001bb50       ?InternalRelease@?$CComObjectRootEx@VCComSingleThreadModel@ATL@@@ATL@@QEAAKXZ 000000018001cb50 f i Biometrics.obj
 0001:0001bbc0       ?InternalSetAtIndex@?$CSimpleArray@GV?$CSimpleArrayEqualHelper@G@ATL@@@ATL@@QEAAXHAEBG@Z 000000018001cbc0 f i Biometrics.obj
 0001:0001bc30       ?InternalSetAtIndex@?$CSimpleMap@PEA_WPEA_WVCExpansionVectorEqualHelper@ATL@@@ATL@@QEAAXHAEBQEA_W0@Z 000000018001cc30 f i Biometrics.obj
 0001:0001bcf0       ?Invoke@?$IDispatchImpl@UIOPOSBiometrics@@$1?IID_IOPOSBiometrics@@3U_GUID@@B$1?LIBID_OposBiometrics_CCO@@3U3@B$00$0A@VCComTypeInfoHolder@ATL@@@ATL@@UEAAJJAEBU_GUID@@KGPEAUtagDISPPARAMS@@PEAUtagVARIANT@@PEAUtagEXCEPINFO@@PEAI@Z 000000018001ccf0 f i Biometrics.obj
 0001:0001bd80       ?Invoke@CComTypeInfoHolder@ATL@@QEAAJPEAUIDispatch@@JAEBU_GUID@@KGPEAUtagDISPPARAMS@@PEAUtagVARIANT@@PEAUtagEXCEPINFO@@PEAI@Z 000000018001cd80 f i Biometrics.obj
 0001:0001be30       ?IsDirty@?$IPersistStorageImpl@VCOPOSBiometrics@@@ATL@@UEAAJXZ 000000018001ce30 f i Biometrics.obj
 0001:0001bf20       ?IsDirty@?$IPersistStreamInitImpl@VCOPOSBiometrics@@@ATL@@UEAAJXZ 000000018001cf20 f i Biometrics.obj
 0001:0001bfd0       ?IsEqualKey@CExpansionVectorEqualHelper@ATL@@SA_NQEA_W0@Z 000000018001cfd0 f i Biometrics.obj
 0001:0001c000       ?IsEqualObject@?$CComPtrBase@UIOleClientSite@@@ATL@@QEAA_NPEAUIUnknown@@@Z 000000018001d000 f i Biometrics.obj
 0001:0001c150       ?IsEqualObject@?$CComPtrBase@UITypeInfo@@@ATL@@QEAA_NPEAUIUnknown@@@Z 000000018001d150 f i Biometrics.obj
 0001:0001c2a0       ?IsSpace@CRegParser@ATL@@IEAAH_W@Z 000000018001d2a0 f i Biometrics.obj
 0001:0001c2e0       ?IsUpToDate@?$IOleObjectImpl@VCOPOSBiometrics@@@ATL@@UEAAJXZ 000000018001d2e0 f i Biometrics.obj
 0001:0001c340       ?Length@CComBSTR@ATL@@QEBAIXZ 000000018001d340 f i Biometrics.obj
 0001:0001c360       ?Load@?$IPersistStorageImpl@VCOPOSBiometrics@@@ATL@@UEAAJPEAUIStorage@@@Z 000000018001d360 f i Biometrics.obj
 0001:0001c510       ?Load@?$IPersistStreamInitImpl@VCOPOSBiometrics@@@ATL@@UEAAJPEAUIStream@@@Z 000000018001d510 f i Biometrics.obj
 0001:0001c5c0       ?LoadCursorW@AtlModuleRegisterWndClassInfoParamW@ATL@@SAPEAUHICON__@@PEAUHINSTANCE__@@PEB_W@Z 000000018001d5c0 f i Biometrics.obj
 0001:0001c5f0       ?LoadNameCache@CComTypeInfoHolder@ATL@@QEAAJPEAUITypeInfo@@@Z 000000018001d5f0 f i Biometrics.obj
 0001:0001c930       ?Lock@?$CComCritSecLock@VCComCriticalSection@ATL@@@ATL@@QEAAJXZ 000000018001d930 f i Biometrics.obj
 0001:0001ca00       ?Lock@?$CComObjectRootEx@VCComSingleThreadModel@ATL@@@ATL@@QEAAXXZ 000000018001da00 f i Biometrics.obj
 0001:0001ca10       ?Lock@CAtlModule@ATL@@UEAAJXZ 000000018001da10 f i Biometrics.obj
 0001:0001ca40       ?Lock@CComCriticalSection@ATL@@QEAAJXZ 000000018001da40 f i Biometrics.obj
 0001:0001ca60       ?Lock@CComFakeCriticalSection@ATL@@QEAAJXZ 000000018001da60 f i Biometrics.obj
 0001:0001ca70       ?LockServer@CComClassFactory@ATL@@UEAAJH@Z 000000018001da70 f i Biometrics.obj
 0001:0001cac0       ?Lookup@?$CSimpleMap@PEA_WPEA_WVCExpansionVectorEqualHelper@ATL@@@ATL@@QEBAPEA_WAEBQEA_W@Z 000000018001dac0 f i Biometrics.obj
 0001:0001cb10       ?Next@?$CComEnumImpl@UIEnumConnectionPoints@@$1?_GUID_b196b285_bab4_101a_b69c_00aa00341d07@@3U__s_GUID@@BPEAUIConnectionPoint@@V?$_CopyInterface@UIConnectionPoint@@@ATL@@@ATL@@UEAAJKPEAPEAUIConnectionPoint@@PEAK@Z 000000018001db10 f i Biometrics.obj
 0001:0001ccc0       ?Next@?$CComEnumImpl@UIEnumConnections@@$1?_GUID_b196b287_bab4_101a_b69c_00aa00341d07@@3U__s_GUID@@BUtagCONNECTDATA@@V?$_Copy@UtagCONNECTDATA@@@ATL@@@ATL@@UEAAJKPEAUtagCONNECTDATA@@PEAK@Z 000000018001dcc0 f i Biometrics.obj
 0001:0001ce70       ?NextToken@CRegParser@ATL@@IEAAJPEA_W@Z 000000018001de70 f i Biometrics.obj
 0001:0001d1f0       ?OLE2CT_EX@@YAPEB_WPEB_WI@Z 000000018001e1f0 f i Biometrics.obj
 0001:0001d210       ?OLE2CT_EX_DEF@@YAPEB_WPEB_W@Z 000000018001e210 f i Biometrics.obj
 0001:0001d220       ?OLE2T_EX@@YAPEA_WPEA_WI@Z 000000018001e220 f i Biometrics.obj
 0001:0001d240       ?OnAmbientPropertyChange@?$IOleControlImpl@VCOPOSBiometrics@@@ATL@@UEAAJJ@Z 000000018001e240 f i Biometrics.obj
 0001:0001d2f0       ?OnDocWindowActivate@?$IOleInPlaceActiveObjectImpl@VCOPOSBiometrics@@@ATL@@UEAAJH@Z 000000018001e2f0 f i Biometrics.obj
 0001:0001d390       ?OnDrawAdvanced@CComControlBase@ATL@@UEAAJAEAUATL_DRAWINFO@@@Z 000000018001e390 f i Biometrics.obj
 0001:0001d5e0       ?OnFinalMessage@?$CWindowImplBaseT@VCWindow@ATL@@V?$CWinTraits@$0FGAAAAAA@$0A@@2@@ATL@@UEAAXPEAUHWND__@@@Z 000000018001e5e0 f i Biometrics.obj
 0001:0001d5f0       ?OnFrameWindowActivate@?$IOleInPlaceActiveObjectImpl@VCOPOSBiometrics@@@ATL@@UEAAJH@Z 000000018001e5f0 f i Biometrics.obj
 0001:0001d650       ?OnKillFocus@CComControlBase@ATL@@QEAA_JI_K_JAEAH@Z 000000018001e650 f i Biometrics.obj
 0001:0001d750       ?OnMnemonic@?$IOleControlImpl@VCOPOSBiometrics@@@ATL@@UEAAJPEAUtagMSG@@@Z 000000018001e750 f i Biometrics.obj
 0001:0001d7c0       ?OnMouseActivate@CComControlBase@ATL@@QEAA_JI_K_JAEAH@Z 000000018001e7c0 f i Biometrics.obj
 0001:0001d960       ?OnPaint@CComControlBase@ATL@@QEAA_JI_K_JAEAH@Z 000000018001e960 f i Biometrics.obj
 0001:0001daf0       ?OnPostVerbDiscardUndo@?$IOleObjectImpl@VCOPOSBiometrics@@@ATL@@QEAAJXZ 000000018001eaf0 f i Biometrics.obj
 0001:0001db00       ?OnPostVerbHide@?$IOleObjectImpl@VCOPOSBiometrics@@@ATL@@QEAAJXZ 000000018001eb00 f i Biometrics.obj
 0001:0001db10       ?OnPostVerbInPlaceActivate@?$IOleObjectImpl@VCOPOSBiometrics@@@ATL@@QEAAJXZ 000000018001eb10 f i Biometrics.obj
 0001:0001db20       ?OnPostVerbOpen@?$IOleObjectImpl@VCOPOSBiometrics@@@ATL@@QEAAJXZ 000000018001eb20 f i Biometrics.obj
 0001:0001db30       ?OnPostVerbShow@?$IOleObjectImpl@VCOPOSBiometrics@@@ATL@@QEAAJXZ 000000018001eb30 f i Biometrics.obj
 0001:0001db40       ?OnPostVerbUIActivate@?$IOleObjectImpl@VCOPOSBiometrics@@@ATL@@QEAAJXZ 000000018001eb40 f i Biometrics.obj
 0001:0001db50       ?OnPreVerbDiscardUndo@?$IOleObjectImpl@VCOPOSBiometrics@@@ATL@@QEAAJXZ 000000018001eb50 f i Biometrics.obj
 0001:0001db60       ?OnPreVerbHide@?$IOleObjectImpl@VCOPOSBiometrics@@@ATL@@QEAAJXZ 000000018001eb60 f i Biometrics.obj
 0001:0001db70       ?OnPreVerbInPlaceActivate@?$IOleObjectImpl@VCOPOSBiometrics@@@ATL@@QEAAJXZ 000000018001eb70 f i Biometrics.obj
 0001:0001db80       ?OnPreVerbOpen@?$IOleObjectImpl@VCOPOSBiometrics@@@ATL@@QEAAJXZ 000000018001eb80 f i Biometrics.obj
 0001:0001db90       ?OnPreVerbShow@?$IOleObjectImpl@VCOPOSBiometrics@@@ATL@@QEAAJXZ 000000018001eb90 f i Biometrics.obj
 0001:0001dba0       ?OnPreVerbUIActivate@?$IOleObjectImpl@VCOPOSBiometrics@@@ATL@@QEAAJXZ 000000018001eba0 f i Biometrics.obj
 0001:0001dbb0       ?OnSetFocus@CComControlBase@ATL@@QEAA_JI_K_JAEAH@Z 000000018001ebb0 f i Biometrics.obj
 0001:0001ddb0       ?OnWindowMessage@?$IOleInPlaceObjectWindowlessImpl@VCOPOSBiometrics@@@ATL@@UEAAJI_K_JPEA_J@Z 000000018001edb0 f i Biometrics.obj
 0001:0001dfd0       ?Open@CRegKey@ATL@@QEAAJPEAUHKEY__@@PEB_WK@Z 000000018001efd0 f i Biometrics.obj
 0001:0001e150       ?OuterAddRef@CComObjectRootBase@ATL@@QEAAKXZ 000000018001f150 f i Biometrics.obj
 0001:0001e180       ?OuterQueryInterface@CComObjectRootBase@ATL@@QEAAJAEBU_GUID@@PEAPEAX@Z 000000018001f180 f i Biometrics.obj
 0001:0001e1c0       ?OuterRelease@CComObjectRootBase@ATL@@QEAAKXZ 000000018001f1c0 f i Biometrics.obj
 0001:0001e1f0       ?PreProcessBuffer@CRegParser@ATL@@QEAAJPEA_WPEAPEA_W@Z 000000018001f1f0 f i Biometrics.obj
 0001:0001e8d0       ?PreTranslateAccelerator@CComControlBase@ATL@@QEAAHPEAUtagMSG@@AEAJ@Z 000000018001f8d0 f i Biometrics.obj
 0001:0001e8f0       ?ProcessWindowMessage@?$CComControl@VCOPOSBiometrics@@V?$CWindowImpl@VCOPOSBiometrics@@VCWindow@ATL@@V?$CWinTraits@$0FGAAAAAA@$0A@@3@@ATL@@@ATL@@UEAAHPEAUHWND__@@I_K_JAEA_JK@Z 000000018001f8f0 f i Biometrics.obj
 0001:0001eb70       ?ProcessWindowMessage@COPOSBiometrics@@UEAAHPEAUHWND__@@I_K_JAEA_JK@Z 000000018001fb70 f i Biometrics.obj
 0001:0001ecd0       ?PutProperty@?$CComPtr@UIDispatch@@@ATL@@QEAAJJPEAUtagVARIANT@@@Z 000000018001fcd0 f i Biometrics.obj
 0001:0001ed00       ?PutProperty@?$CComPtr@UIDispatch@@@ATL@@SAJPEAUIDispatch@@JPEAUtagVARIANT@@@Z 000000018001fd00 f i Biometrics.obj
 0001:0001efb0       ?QueryGetData@?$IDataObjectImpl@VCOPOSBiometrics@@@ATL@@UEAAJPEAUtagFORMATETC@@@Z 000000018001ffb0 f i Biometrics.obj
 0001:0001f020       ?QueryHitPoint@?$IViewObjectExImpl@VCOPOSBiometrics@@@ATL@@UEAAJKPEBUtagRECT@@UtagPOINT@@JPEAK@Z 0000000180020020 f i Biometrics.obj
 0001:0001f180       ?QueryHitRect@?$IViewObjectExImpl@VCOPOSBiometrics@@@ATL@@UEAAJKPEBUtagRECT@@0JPEAK@Z 0000000180020180 f i Biometrics.obj
 0001:0001f350       ?QueryInterface@?$CComAggObject@VCOPOSBiometrics@@@ATL@@UEAAJAEBU_GUID@@PEAPEAX@Z 0000000180020350 f i Biometrics.obj
 0001:0001f420       ?QueryInterface@?$CComContainedObject@VCOPOSBiometrics@@@ATL@@UEAAJAEBU_GUID@@PEAPEAX@Z 0000000180020420 f i Biometrics.obj
 0001:0001f458       ?QueryInterface@?$CComContainedObject@VCOPOSBiometrics@@@ATL@@WBAA@EAAJAEBU_GUID@@PEAPEAX@Z 0000000180020458 f i Biometrics.obj
 0001:0001f464       ?QueryInterface@?$CComContainedObject@VCOPOSBiometrics@@@ATL@@WBAI@EAAJAEBU_GUID@@PEAPEAX@Z 0000000180020464 f i Biometrics.obj
 0001:0001f470       ?QueryInterface@?$CComContainedObject@VCOPOSBiometrics@@@ATL@@WBBA@EAAJAEBU_GUID@@PEAPEAX@Z 0000000180020470 f i Biometrics.obj
 0001:0001f47c       ?QueryInterface@?$CComContainedObject@VCOPOSBiometrics@@@ATL@@WBBI@EAAJAEBU_GUID@@PEAPEAX@Z 000000018002047c f i Biometrics.obj
 0001:0001f488       ?QueryInterface@?$CComContainedObject@VCOPOSBiometrics@@@ATL@@WLI@EAAJAEBU_GUID@@PEAPEAX@Z 0000000180020488 f i Biometrics.obj
 0001:0001f494       ?QueryInterface@?$CComContainedObject@VCOPOSBiometrics@@@ATL@@WMA@EAAJAEBU_GUID@@PEAPEAX@Z 0000000180020494 f i Biometrics.obj
 0001:0001f4a0       ?QueryInterface@?$CComContainedObject@VCOPOSBiometrics@@@ATL@@WMI@EAAJAEBU_GUID@@PEAPEAX@Z 00000001800204a0 f i Biometrics.obj
 0001:0001f4ac       ?QueryInterface@?$CComContainedObject@VCOPOSBiometrics@@@ATL@@WNA@EAAJAEBU_GUID@@PEAPEAX@Z 00000001800204ac f i Biometrics.obj
 0001:0001f4b8       ?QueryInterface@?$CComContainedObject@VCOPOSBiometrics@@@ATL@@WNI@EAAJAEBU_GUID@@PEAPEAX@Z 00000001800204b8 f i Biometrics.obj
 0001:0001f4c4       ?QueryInterface@?$CComContainedObject@VCOPOSBiometrics@@@ATL@@WOA@EAAJAEBU_GUID@@PEAPEAX@Z 00000001800204c4 f i Biometrics.obj
 0001:0001f4d0       ?QueryInterface@?$CComContainedObject@VCOPOSBiometrics@@@ATL@@WOI@EAAJAEBU_GUID@@PEAPEAX@Z 00000001800204d0 f i Biometrics.obj
 0001:0001f4dc       ?QueryInterface@?$CComContainedObject@VCOPOSBiometrics@@@ATL@@WPA@EAAJAEBU_GUID@@PEAPEAX@Z 00000001800204dc f i Biometrics.obj
 0001:0001f4e8       ?QueryInterface@?$CComContainedObject@VCOPOSBiometrics@@@ATL@@WPI@EAAJAEBU_GUID@@PEAPEAX@Z 00000001800204e8 f i Biometrics.obj
 0001:0001f500       ?QueryInterface@?$CComObject@V?$CComEnum@UIEnumConnectionPoints@@$1?_GUID_b196b285_bab4_101a_b69c_00aa00341d07@@3U__s_GUID@@BPEAUIConnectionPoint@@V?$_CopyInterface@UIConnectionPoint@@@ATL@@VCComSingleThreadModel@6@@ATL@@@ATL@@UEAAJAEBU_GUID@@PEAPEAX@Z 0000000180020500 f i Biometrics.obj
 0001:0001f530       ?QueryInterface@?$CComObject@V?$CComEnum@UIEnumConnections@@$1?_GUID_b196b287_bab4_101a_b69c_00aa00341d07@@3U__s_GUID@@BUtagCONNECTDATA@@V?$_Copy@UtagCONNECTDATA@@@ATL@@VCComSingleThreadModel@6@@ATL@@@ATL@@UEAAJAEBU_GUID@@PEAPEAX@Z 0000000180020530 f i Biometrics.obj
 0001:0001f560       ?QueryInterface@?$CComObject@VCOPOSBiometrics@@@ATL@@UEAAJAEBU_GUID@@PEAPEAX@Z 0000000180020560 f i Biometrics.obj
 0001:0001f590       ?QueryInterface@?$CComObject@VCOPOSBiometrics@@@ATL@@WBAA@EAAJAEBU_GUID@@PEAPEAX@Z 0000000180020590 f i Biometrics.obj
 0001:0001f59c       ?QueryInterface@?$CComObject@VCOPOSBiometrics@@@ATL@@WBAI@EAAJAEBU_GUID@@PEAPEAX@Z 000000018002059c f i Biometrics.obj
 0001:0001f5a8       ?QueryInterface@?$CComObject@VCOPOSBiometrics@@@ATL@@WBBA@EAAJAEBU_GUID@@PEAPEAX@Z 00000001800205a8 f i Biometrics.obj
 0001:0001f5b4       ?QueryInterface@?$CComObject@VCOPOSBiometrics@@@ATL@@WBBI@EAAJAEBU_GUID@@PEAPEAX@Z 00000001800205b4 f i Biometrics.obj
 0001:0001f5c0       ?QueryInterface@?$CComObject@VCOPOSBiometrics@@@ATL@@WLI@EAAJAEBU_GUID@@PEAPEAX@Z 00000001800205c0 f i Biometrics.obj
 0001:0001f5cc       ?QueryInterface@?$CComObject@VCOPOSBiometrics@@@ATL@@WMA@EAAJAEBU_GUID@@PEAPEAX@Z 00000001800205cc f i Biometrics.obj
 0001:0001f5d8       ?QueryInterface@?$CComObject@VCOPOSBiometrics@@@ATL@@WMI@EAAJAEBU_GUID@@PEAPEAX@Z 00000001800205d8 f i Biometrics.obj
 0001:0001f5e4       ?QueryInterface@?$CComObject@VCOPOSBiometrics@@@ATL@@WNA@EAAJAEBU_GUID@@PEAPEAX@Z 00000001800205e4 f i Biometrics.obj
 0001:0001f5f0       ?QueryInterface@?$CComObject@VCOPOSBiometrics@@@ATL@@WNI@EAAJAEBU_GUID@@PEAPEAX@Z 00000001800205f0 f i Biometrics.obj
 0001:0001f5fc       ?QueryInterface@?$CComObject@VCOPOSBiometrics@@@ATL@@WOA@EAAJAEBU_GUID@@PEAPEAX@Z 00000001800205fc f i Biometrics.obj
 0001:0001f608       ?QueryInterface@?$CComObject@VCOPOSBiometrics@@@ATL@@WOI@EAAJAEBU_GUID@@PEAPEAX@Z 0000000180020608 f i Biometrics.obj
 0001:0001f614       ?QueryInterface@?$CComObject@VCOPOSBiometrics@@@ATL@@WPA@EAAJAEBU_GUID@@PEAPEAX@Z 0000000180020614 f i Biometrics.obj
 0001:0001f620       ?QueryInterface@?$CComObject@VCOPOSBiometrics@@@ATL@@WPI@EAAJAEBU_GUID@@PEAPEAX@Z 0000000180020620 f i Biometrics.obj
 0001:0001f630       ?QueryInterface@?$CComObjectCached@VCComClassFactory@ATL@@@ATL@@UEAAJAEBU_GUID@@PEAPEAX@Z 0000000180020630 f i Biometrics.obj
 0001:0001f660       ?QueryInterface@CRegObject@ATL@@UEAAJAEBU_GUID@@PEAPEAX@Z 0000000180020660 f i Biometrics.obj
 0001:0001f6d0       ?QuickActivate@?$IQuickActivateImpl@VCOPOSBiometrics@@@ATL@@UEAAJPEAUtagQACONTAINER@@PEAUtagQACONTROL@@@Z 00000001800206d0 f i Biometrics.obj
 0001:0001f780       ?ReactivateAndUndo@?$IOleInPlaceObjectWindowlessImpl@VCOPOSBiometrics@@@ATL@@UEAAJXZ 0000000180020780 f i Biometrics.obj
 0001:0001f7f0       ?ReadFromStream@CComBSTR@ATL@@QEAAJPEAUIStream@@@Z 00000001800207f0 f i Biometrics.obj
 0001:0001fcd0       ?ReadFromStream@CComVariant@ATL@@QEAAJPEAUIStream@@GTClassesAllowedInStream@2@K@Z 0000000180020cd0 f i Biometrics.obj
 0001:00020110       ?RecurseDeleteKey@CRegKey@ATL@@QEAAJPEB_W@Z 0000000180021110 f i Biometrics.obj
 0001:00020330       ?RegCreateKeyExW@CAtlTransactionManager@ATL@@QEAAJPEAUHKEY__@@PEB_WKPEA_WKKQEAU_SECURITY_ATTRIBUTES@@PEAPEAU3@PEAK@Z 0000000180021330 f i Biometrics.obj
 0001:000204e0       ?RegDeleteKeyW@CAtlTransactionManager@ATL@@QEAAJPEAUHKEY__@@PEB_W@Z 00000001800214e0 f i Biometrics.obj
 0001:000205e0       ?RegOpenKeyExW@CAtlTransactionManager@ATL@@QEAAJPEAUHKEY__@@PEB_WKKPEAPEAU3@@Z 00000001800215e0 f i Biometrics.obj
 0001:00020720       ?Register@_ATL_WNDCLASSINFOW@ATL@@QEAAGPEAP6A_JPEAUHWND__@@I_K_J@Z@Z 0000000180021720 f i Biometrics.obj
 0001:00020760       ?RegisterBuffer@CRegParser@ATL@@QEAAJPEA_WH@Z 0000000180021760 f i Biometrics.obj
 0001:00020b50       ?RegisterClassExW@AtlModuleRegisterWndClassInfoParamW@ATL@@SAGPEAU_ATL_WIN_MODULE70@2@PEBUtagWNDCLASSEXW@@@Z 0000000180021b50 f i Biometrics.obj
 0001:00020b80       ?RegisterFromResource@CRegObject@ATL@@IEAAJPEB_W00H@Z 0000000180021b80 f i Biometrics.obj
 0001:00020fe0       ?RegisterServer@?$CAtlModuleT@VCComModule@ATL@@@ATL@@QEAAJHPEBU_GUID@@@Z 0000000180021fe0 f i Biometrics.obj
 0001:00021040       ?RegisterServer@CAtlComModule@ATL@@QEAAJHPEBU_GUID@@@Z 0000000180022040 f i Biometrics.obj
 0001:00021070       ?RegisterServer@CComModule@ATL@@QEAAJHPEBU_GUID@@@Z 0000000180022070 f i Biometrics.obj
 0001:00021150       ?RegisterSubkeys@CRegParser@ATL@@IEAAJPEA_WPEAUHKEY__@@HH@Z 0000000180022150 f i Biometrics.obj
 0001:00021f30       ?Release@?$CComAggObject@VCOPOSBiometrics@@@ATL@@UEAAKXZ 0000000180022f30 f i Biometrics.obj
 0001:00021fe0       ?Release@?$CComContainedObject@VCOPOSBiometrics@@@ATL@@UEAAKXZ 0000000180022fe0 f i Biometrics.obj
 0001:00022004       ?Release@?$CComContainedObject@VCOPOSBiometrics@@@ATL@@WBAA@EAAKXZ 0000000180023004 f i Biometrics.obj
 0001:00022010       ?Release@?$CComContainedObject@VCOPOSBiometrics@@@ATL@@WBAI@EAAKXZ 0000000180023010 f i Biometrics.obj
 0001:0002201c       ?Release@?$CComContainedObject@VCOPOSBiometrics@@@ATL@@WBBA@EAAKXZ 000000018002301c f i Biometrics.obj
 0001:00022028       ?Release@?$CComContainedObject@VCOPOSBiometrics@@@ATL@@WBBI@EAAKXZ 0000000180023028 f i Biometrics.obj
 0001:00022034       ?Release@?$CComContainedObject@VCOPOSBiometrics@@@ATL@@WBCI@EAAKXZ 0000000180023034 f i Biometrics.obj
 0001:00022040       ?Release@?$CComContainedObject@VCOPOSBiometrics@@@ATL@@WBEA@EAAKXZ 0000000180023040 f i Biometrics.obj
 0001:0002204c       ?Release@?$CComContainedObject@VCOPOSBiometrics@@@ATL@@WLI@EAAKXZ 000000018002304c f i Biometrics.obj
 0001:00022058       ?Release@?$CComContainedObject@VCOPOSBiometrics@@@ATL@@WMA@EAAKXZ 0000000180023058 f i Biometrics.obj
 0001:00022064       ?Release@?$CComContainedObject@VCOPOSBiometrics@@@ATL@@WMI@EAAKXZ 0000000180023064 f i Biometrics.obj
 0001:00022070       ?Release@?$CComContainedObject@VCOPOSBiometrics@@@ATL@@WNA@EAAKXZ 0000000180023070 f i Biometrics.obj
 0001:0002207c       ?Release@?$CComContainedObject@VCOPOSBiometrics@@@ATL@@WNI@EAAKXZ 000000018002307c f i Biometrics.obj
 0001:00022088       ?Release@?$CComContainedObject@VCOPOSBiometrics@@@ATL@@WOA@EAAKXZ 0000000180023088 f i Biometrics.obj
 0001:00022094       ?Release@?$CComContainedObject@VCOPOSBiometrics@@@ATL@@WOI@EAAKXZ 0000000180023094 f i Biometrics.obj
 0001:000220a0       ?Release@?$CComContainedObject@VCOPOSBiometrics@@@ATL@@WPA@EAAKXZ 00000001800230a0 f i Biometrics.obj
 0001:000220ac       ?Release@?$CComContainedObject@VCOPOSBiometrics@@@ATL@@WPI@EAAKXZ 00000001800230ac f i Biometrics.obj
 0001:000220c0       ?Release@?$CComObject@V?$CComEnum@UIEnumConnectionPoints@@$1?_GUID_b196b285_bab4_101a_b69c_00aa00341d07@@3U__s_GUID@@BPEAUIConnectionPoint@@V?$_CopyInterface@UIConnectionPoint@@@ATL@@VCComSingleThreadModel@6@@ATL@@@ATL@@UEAAKXZ 00000001800230c0 f i Biometrics.obj
 0001:00022170       ?Release@?$CComObject@V?$CComEnum@UIEnumConnections@@$1?_GUID_b196b287_bab4_101a_b69c_00aa00341d07@@3U__s_GUID@@BUtagCONNECTDATA@@V?$_Copy@UtagCONNECTDATA@@@ATL@@VCComSingleThreadModel@6@@ATL@@@ATL@@UEAAKXZ 0000000180023170 f i Biometrics.obj
 0001:00022220       ?Release@?$CComObject@VCOPOSBiometrics@@@ATL@@UEAAKXZ 0000000180023220 f i Biometrics.obj
 0001:000222d8       ?Release@?$CComObject@VCOPOSBiometrics@@@ATL@@WBAA@EAAKXZ 00000001800232d8 f i Biometrics.obj
 0001:000222e4       ?Release@?$CComObject@VCOPOSBiometrics@@@ATL@@WBAI@EAAKXZ 00000001800232e4 f i Biometrics.obj
 0001:000222f0       ?Release@?$CComObject@VCOPOSBiometrics@@@ATL@@WBBA@EAAKXZ 00000001800232f0 f i Biometrics.obj
 0001:000222fc       ?Release@?$CComObject@VCOPOSBiometrics@@@ATL@@WBBI@EAAKXZ 00000001800232fc f i Biometrics.obj
 0001:00022308       ?Release@?$CComObject@VCOPOSBiometrics@@@ATL@@WBCI@EAAKXZ 0000000180023308 f i Biometrics.obj
 0001:00022314       ?Release@?$CComObject@VCOPOSBiometrics@@@ATL@@WBEA@EAAKXZ 0000000180023314 f i Biometrics.obj
 0001:00022320       ?Release@?$CComObject@VCOPOSBiometrics@@@ATL@@WLI@EAAKXZ 0000000180023320 f i Biometrics.obj
 0001:0002232c       ?Release@?$CComObject@VCOPOSBiometrics@@@ATL@@WMA@EAAKXZ 000000018002332c f i Biometrics.obj
 0001:00022338       ?Release@?$CComObject@VCOPOSBiometrics@@@ATL@@WMI@EAAKXZ 0000000180023338 f i Biometrics.obj
 0001:00022344       ?Release@?$CComObject@VCOPOSBiometrics@@@ATL@@WNA@EAAKXZ 0000000180023344 f i Biometrics.obj
 0001:00022350       ?Release@?$CComObject@VCOPOSBiometrics@@@ATL@@WNI@EAAKXZ 0000000180023350 f i Biometrics.obj
 0001:0002235c       ?Release@?$CComObject@VCOPOSBiometrics@@@ATL@@WOA@EAAKXZ 000000018002335c f i Biometrics.obj
 0001:00022368       ?Release@?$CComObject@VCOPOSBiometrics@@@ATL@@WOI@EAAKXZ 0000000180023368 f i Biometrics.obj
 0001:00022374       ?Release@?$CComObject@VCOPOSBiometrics@@@ATL@@WPA@EAAKXZ 0000000180023374 f i Biometrics.obj
 0001:00022380       ?Release@?$CComObject@VCOPOSBiometrics@@@ATL@@WPI@EAAKXZ 0000000180023380 f i Biometrics.obj
 0001:00022390       ?Release@?$CComObjectCached@VCComClassFactory@ATL@@@ATL@@UEAAKXZ 0000000180023390 f i Biometrics.obj
 0001:00022420       ?Release@?$CComPtrBase@UIAdviseSink@@@ATL@@QEAAXXZ 0000000180023420 f i Biometrics.obj
 0001:00022470       ?Release@?$CComPtrBase@UIDispatch@@@ATL@@QEAAXXZ 0000000180023470 f i Biometrics.obj
 0001:000224c0       ?Release@?$CComPtrBase@UIOleInPlaceSiteWindowless@@@ATL@@QEAAXXZ 00000001800234c0 f i Biometrics.obj
 0001:00022510       ?Release@CRegObject@ATL@@UEAAKXZ 0000000180023510 f i Biometrics.obj
 0001:00022570       ?Remove@CComDynamicUnkArray@ATL@@QEAAHK@Z 0000000180023570 f i Biometrics.obj
 0001:00022630       ?RemoveAll@?$CSimpleMap@PEA_WPEA_WVCExpansionVectorEqualHelper@ATL@@@ATL@@QEAAXXZ 0000000180023630 f i Biometrics.obj
 0001:000226c0       ?Reset@?$CComEnumImpl@UIEnumConnectionPoints@@$1?_GUID_b196b285_bab4_101a_b69c_00aa00341d07@@3U__s_GUID@@BPEAUIConnectionPoint@@V?$_CopyInterface@UIConnectionPoint@@@ATL@@@ATL@@UEAAJXZ 00000001800236c0 f i Biometrics.obj
 0001:000226e0       ?Reset@?$CComEnumImpl@UIEnumConnections@@$1?_GUID_b196b287_bab4_101a_b69c_00aa00341d07@@3U__s_GUID@@BUtagCONNECTDATA@@V?$_Copy@UtagCONNECTDATA@@@ATL@@@ATL@@UEAAJXZ 00000001800236e0 f i Biometrics.obj
 0001:00022700       ?ResizeBorder@?$IOleInPlaceActiveObjectImpl@VCOPOSBiometrics@@@ATL@@UEAAJPEBUtagRECT@@PEAUIOleInPlaceUIWindow@@H@Z 0000000180023700 f i Biometrics.obj
 0001:00022770       ?ResourceRegister@CRegObject@ATL@@QEAAJPEB_WI0@Z 0000000180023770 f i Biometrics.obj
 0001:00022850       ?ResourceRegisterSz@CRegObject@ATL@@QEAAJPEB_W00@Z 0000000180023850 f i Biometrics.obj
 0001:00022970       ?ResourceUnregister@CRegObject@ATL@@QEAAJPEB_WI0@Z 0000000180023970 f i Biometrics.obj
 0001:00022a50       ?ResourceUnregisterSz@CRegObject@ATL@@QEAAJPEB_W00@Z 0000000180023a50 f i Biometrics.obj
 0001:00022b70       ?SOData@COPOSBiometrics@@MEAAJJ@Z 0000000180023b70 f i Biometrics.obj
 0001:00022c00       ?SODirectIO@COPOSBiometrics@@MEAAJJPEAJPEAPEA_W@Z 0000000180023c00 f i Biometrics.obj
 0001:00022e40       ?SOError@COPOSBiometrics@@MEAAJJJJPEAJ@Z 0000000180023e40 f i Biometrics.obj
 0001:00022f30       ?SOOutputCompleteDummy@COPOSBiometrics@@MEAAJJ@Z 0000000180023f30 f i Biometrics.obj
 0001:00022f50       ?SOStatusUpdate@COPOSBiometrics@@MEAAJJ@Z 0000000180023f50 f i Biometrics.obj
 0001:00022fe0       ?Save@?$IPersistStorageImpl@VCOPOSBiometrics@@@ATL@@UEAAJPEAUIStorage@@H@Z 0000000180023fe0 f i Biometrics.obj
 0001:000231a0       ?Save@?$IPersistStreamInitImpl@VCOPOSBiometrics@@@ATL@@UEAAJPEAUIStream@@H@Z 00000001800241a0 f i Biometrics.obj
 0001:00023250       ?SaveCompleted@?$IPersistStorageImpl@VCOPOSBiometrics@@@ATL@@UEAAJPEAUIStorage@@@Z 0000000180024250 f i Biometrics.obj
 0001:000232b0       ?SendOnDataChange@CComControlBase@ATL@@QEAAJK@Z 00000001800242b0 f i Biometrics.obj
 0001:000233b0       ?SendOnSave@CComControlBase@ATL@@QEAAJXZ 00000001800243b0 f i Biometrics.obj
 0001:00023410       ?SendOnViewChange@CComControlBase@ATL@@QEAAJKJ@Z 0000000180024410 f i Biometrics.obj
 0001:00023470       ?SetAdvise@?$IViewObjectExImpl@VCOPOSBiometrics@@@ATL@@UEAAJKKPEAUIAdviseSink@@@Z 0000000180024470 f i Biometrics.obj
 0001:00023520       ?SetClientSite@?$IOleObjectImpl@VCOPOSBiometrics@@@ATL@@UEAAJPEAUIOleClientSite@@@Z 0000000180024520 f i Biometrics.obj
 0001:000235c0       ?SetColorScheme@?$IOleObjectImpl@VCOPOSBiometrics@@@ATL@@UEAAJPEAUtagLOGPALETTE@@@Z 00000001800245c0 f i Biometrics.obj
 0001:00023630       ?SetContentExtent@?$IQuickActivateImpl@VCOPOSBiometrics@@@ATL@@UEAAJPEAUtagSIZE@@@Z 0000000180024630 f i Biometrics.obj
 0001:000236e0       ?SetControlFocus@CComControlBase@ATL@@QEAAHH@Z 00000001800246e0 f i Biometrics.obj
 0001:00023860       ?SetDWORDValue@CRegKey@ATL@@QEAAJPEB_WK@Z 0000000180024860 f i Biometrics.obj
 0001:00023900       ?SetData@?$IDataObjectImpl@VCOPOSBiometrics@@@ATL@@UEAAJPEAUtagFORMATETC@@PEAUtagSTGMEDIUM@@H@Z 0000000180024900 f i Biometrics.obj
 0001:00023980       ?SetExtent@?$IOleObjectImpl@VCOPOSBiometrics@@@ATL@@UEAAJKPEAUtagSIZE@@@Z 0000000180024980 f i Biometrics.obj
 0001:00023a30       ?SetHostNames@?$IOleObjectImpl@VCOPOSBiometrics@@@ATL@@UEAAJPEB_W0@Z 0000000180024a30 f i Biometrics.obj
 0001:00023a90       ?SetInterfaceSafetyOptions@?$IObjectSafetyImpl@VCOPOSBiometrics@@$02@ATL@@UEAAJAEBU_GUID@@KK@Z 0000000180024a90 f i Biometrics.obj
 0001:00023c30       ?SetMoniker@?$IOleObjectImpl@VCOPOSBiometrics@@@ATL@@UEAAJKPEAUIMoniker@@@Z 0000000180024c30 f i Biometrics.obj
 0001:00023cb0       ?SetMultiStringValue@CRegKey@ATL@@QEAAJPEB_W0@Z 0000000180024cb0 f i Biometrics.obj
 0001:00023e10       ?SetObjectRects@?$IOleInPlaceObjectWindowlessImpl@VCOPOSBiometrics@@@ATL@@UEAAJPEBUtagRECT@@0@Z 0000000180024e10 f i Biometrics.obj
 0001:00023ec0       ?SetStringValue@CRegKey@ATL@@QEAAJPEB_W0K@Z 0000000180024ec0 f i Biometrics.obj
 0001:00024030       ?SetVoid@CComClassFactory@ATL@@QEAAXPEAX@Z 0000000180025030 f i Biometrics.obj
 0001:00024050       ?SetVoid@CComObjectRootBase@ATL@@QEAAXPEAX@Z 0000000180025050 f i Biometrics.obj
 0001:00024060       ?ShowWindow@CWindow@ATL@@QEAAHH@Z 0000000180025060 f i Biometrics.obj
 0001:000240e0       ?Skip@?$CComEnumImpl@UIEnumConnectionPoints@@$1?_GUID_b196b285_bab4_101a_b69c_00aa00341d07@@3U__s_GUID@@BPEAUIConnectionPoint@@V?$_CopyInterface@UIConnectionPoint@@@ATL@@@ATL@@UEAAJK@Z 00000001800250e0 f i Biometrics.obj
 0001:00024170       ?Skip@?$CComEnumImpl@UIEnumConnections@@$1?_GUID_b196b287_bab4_101a_b69c_00aa00341d07@@3U__s_GUID@@BUtagCONNECTDATA@@V?$_Copy@UtagCONNECTDATA@@@ATL@@@ATL@@UEAAJK@Z 0000000180025170 f i Biometrics.obj
 0001:00024200       ?SkipAssignment@CRegParser@ATL@@IEAAJPEA_W@Z 0000000180025200 f i Biometrics.obj
 0001:00024300       ?SkipWhiteSpace@CRegParser@ATL@@IEAAXXZ 0000000180025300 f i Biometrics.obj
 0001:00024350       ?StartWindowProc@?$CWindowImplBaseT@VCWindow@ATL@@V?$CWinTraits@$0FGAAAAAA@$0A@@2@@ATL@@SA_JPEAUHWND__@@I_K_J@Z 0000000180025350 f i Biometrics.obj
 0001:000244a0       ?StrChrW@CRegParser@ATL@@KAPEA_WPEA_W_W@Z 00000001800254a0 f i Biometrics.obj
 0001:00024510       ?StrFromMap@CRegObject@ATL@@QEAAPEB_WPEA_W@Z 0000000180025510 f i Biometrics.obj
 0001:000245b0       ?Swap@?$CComPtrBase@UIAdviseSink@@@ATL@@IEAAXAEAV12@@Z 00000001800255b0 f i Biometrics.obj
 0001:000245f0       ?Swap@?$CComPtrBase@UIOleClientSite@@@ATL@@IEAAXAEAV12@@Z 00000001800255f0 f i Biometrics.obj
 0001:00024630       ?Swap@?$CComPtrBase@UIUnknown@@@ATL@@IEAAXAEAV12@@Z 0000000180025630 f i Biometrics.obj
 0001:00024670       ?T2COLE_EX@@YAPEB_WPEB_WI@Z 0000000180025670 f i Biometrics.obj
 0001:00024690       ?T2OLE_EX@@YAPEA_WPEA_WI@Z 0000000180025690 f i Biometrics.obj
 0001:000246b0       ?Term@CAtlModule@ATL@@QEAAXXZ 00000001800256b0 f i Biometrics.obj
 0001:00024760       ?Term@CComModule@ATL@@QEAAXXZ 0000000180025760 f i Biometrics.obj
 0001:00024840       ?TranslateAcceleratorW@?$IOleInPlaceActiveObjectImpl@VCOPOSBiometrics@@@ATL@@UEAAJPEAUtagMSG@@@Z 0000000180025840 f i Biometrics.obj
 0001:00024ab0       ?UIDeactivate@?$IOleInPlaceObjectWindowlessImpl@VCOPOSBiometrics@@@ATL@@UEAAJXZ 0000000180025ab0 f i Biometrics.obj
 0001:00024b40       ?Unadvise@?$CProxy_IOPOSEvents@VCOPOSBiometrics@@@@UEAAJK@Z 0000000180025b40 f i Biometrics.obj
 0001:00024b80       ?Unadvise@?$IConnectionPointImpl@VCOPOSBiometrics@@$1?DIID__IOPOSBiometricsEvents@@3U_GUID@@BVCComDynamicUnkArray@ATL@@@ATL@@UEAAJK@Z 0000000180025b80 f i Biometrics.obj
 0001:00024c60       ?Unadvise@?$IConnectionPointImpl@VCOPOSBiometrics@@$1?IID_IPropertyNotifySink@@3U_GUID@@BVCComDynamicUnkArray@ATL@@@ATL@@UEAAJK@Z 0000000180025c60 f i Biometrics.obj
 0001:00024d40       ?Unadvise@?$IOleObjectImpl@VCOPOSBiometrics@@@ATL@@UEAAJK@Z 0000000180025d40 f i Biometrics.obj
 0001:00024e20       ?Unfreeze@?$IViewObjectExImpl@VCOPOSBiometrics@@@ATL@@UEAAJK@Z 0000000180025e20 f i Biometrics.obj
 0001:00024e90       ?Unlock@?$CComCritSecLock@VCComCriticalSection@ATL@@@ATL@@QEAAXXZ 0000000180025e90 f i Biometrics.obj
 0001:00024f10       ?Unlock@?$CComObjectRootEx@VCComSingleThreadModel@ATL@@@ATL@@QEAAXXZ 0000000180025f10 f i Biometrics.obj
 0001:00024f20       ?Unlock@CAtlModule@ATL@@UEAAJXZ 0000000180025f20 f i Biometrics.obj
 0001:00024f50       ?Unlock@CComCriticalSection@ATL@@QEAAJXZ 0000000180025f50 f i Biometrics.obj
 0001:00024f70       ?Unlock@CComFakeCriticalSection@ATL@@QEAAJXZ 0000000180025f70 f i Biometrics.obj
 0001:00024f80       ?UnregisterServer@?$CAtlModuleT@VCComModule@ATL@@@ATL@@QEAAJHPEBU_GUID@@@Z 0000000180025f80 f i Biometrics.obj
 0001:00024fe0       ?UnregisterServer@CAtlComModule@ATL@@QEAAJHPEBU_GUID@@@Z 0000000180025fe0 f i Biometrics.obj
 0001:00025010       ?UnregisterServer@CComModule@ATL@@QEAAJHPEBU_GUID@@@Z 0000000180026010 f i Biometrics.obj
 0001:000250f0       ?Update@?$IOleObjectImpl@VCOPOSBiometrics@@@ATL@@UEAAJXZ 00000001800260f0 f i Biometrics.obj
 0001:00025150       ?UpdateRegistryFromResource@CAtlModule@ATL@@QEAAJIHPEAU_ATL_REGMAP_ENTRY@2@@Z 0000000180026150 f i Biometrics.obj
 0001:00025690       ?UpdateRegistryFromResource@CAtlModule@ATL@@QEAAJPEB_WHPEAU_ATL_REGMAP_ENTRY@2@@Z 0000000180026690 f i Biometrics.obj
 0001:00025be0       ?UpdateRegistryFromResource@CComModule@ATL@@UEAAJIHPEAU_ATL_REGMAP_ENTRY@2@@Z 0000000180026be0 f i Biometrics.obj
 0001:00025c20       ?UpdateRegistryFromResource@CComModule@ATL@@UEAAJPEB_WHPEAU_ATL_REGMAP_ENTRY@2@@Z 0000000180026c20 f i Biometrics.obj
 0001:00025c60       ?UpdateRegistryFromResourceD@CComModule@ATL@@UEAAJIHPEAU_ATL_REGMAP_ENTRY@2@@Z 0000000180026c60 f i Biometrics.obj
 0001:00025c80       ?UpdateRegistryFromResourceD@CComModule@ATL@@UEAAJPEB_WHPEAU_ATL_REGMAP_ENTRY@2@@Z 0000000180026c80 f i Biometrics.obj
 0001:00025ca0       ?VTFromRegType@CRegParser@ATL@@KAHPEB_WAEAG@Z 0000000180026ca0 f i Biometrics.obj
 0001:00025d70       ?WindowProc@?$CWindowImplBaseT@VCWindow@ATL@@V?$CWinTraits@$0FGAAAAAA@$0A@@2@@ATL@@SA_JPEAUHWND__@@I_K_J@Z 0000000180026d70 f i Biometrics.obj
 0001:00026050       ?WriteToStream@CComBSTR@ATL@@QEAAJPEAUIStream@@@Z 0000000180027050 f i Biometrics.obj
 0001:000261c0       ?WriteToStream@CComVariant@ATL@@QEAAJPEAUIStream@@@Z 00000001800271c0 f i Biometrics.obj
 0001:000265f0       ?WriteToStream@CComVariant@ATL@@QEAAJPEAUIStream@@G@Z 00000001800275f0 f i Biometrics.obj
 0001:000266d0       ?_AtlFinalConstruct@CComObjectRootBase@ATL@@QEAAJXZ 00000001800276d0 f i Biometrics.obj
 0001:000266e0       ?_AtlGetConversionACP@ATL@@YAIXZ 00000001800276e0 f i Biometrics.obj
 0001:000266f0       ?_AtlInitialConstruct@?$CComAggObject@VCOPOSBiometrics@@@ATL@@QEAAJXZ 00000001800276f0 f i Biometrics.obj
 0001:00026740       ?_AtlInitialConstruct@?$CComObjectRootEx@VCComMultiThreadModel@ATL@@@ATL@@QEAAJXZ 0000000180027740 f i Biometrics.obj
 0001:00026770       ?_AtlInitialConstruct@?$CComObjectRootEx@VCComSingleThreadModel@ATL@@@ATL@@QEAAJXZ 0000000180027770 f i Biometrics.obj
 0001:00026780       ?_AtlVerifyStackAvailable@_ATL_SAFE_ALLOCA_IMPL@ATL@@YA_N_K@Z 0000000180027780 f i Biometrics.obj
 0001:000268e0       ?_GetEntries@?$CComEnum@UIEnumConnectionPoints@@$1?_GUID_b196b285_bab4_101a_b69c_00aa00341d07@@3U__s_GUID@@BPEAUIConnectionPoint@@V?$_CopyInterface@UIConnectionPoint@@@ATL@@VCComSingleThreadModel@6@@ATL@@SAPEBU_ATL_INTMAP_ENTRY@2@XZ 00000001800278e0 f i Biometrics.obj
 0001:00026900       ?_GetEntries@?$CComEnum@UIEnumConnections@@$1?_GUID_b196b287_bab4_101a_b69c_00aa00341d07@@3U__s_GUID@@BUtagCONNECTDATA@@V?$_Copy@UtagCONNECTDATA@@@ATL@@VCComSingleThreadModel@6@@ATL@@SAPEBU_ATL_INTMAP_ENTRY@2@XZ 0000000180027900 f i Biometrics.obj
 0001:00026920       ?_GetEntries@CComClassFactory@ATL@@SAPEBU_ATL_INTMAP_ENTRY@2@XZ 0000000180027920 f i Biometrics.obj
 0001:00026940       ?_GetEntries@COPOSBiometrics@@SAPEBU_ATL_INTMAP_ENTRY@ATL@@XZ 0000000180027940 f i Biometrics.obj
 0001:00026960       ?_GetRawUnknown@COPOSBiometrics@@QEAAPEAUIUnknown@@XZ 0000000180027960 f i Biometrics.obj
 0001:000269e0       ?_GetViewStatus@COPOSBiometrics@@QEAAKXZ 00000001800279e0 f i Biometrics.obj
 0001:000269f0       ?_InternalQueryInterface@?$CComEnum@UIEnumConnectionPoints@@$1?_GUID_b196b285_bab4_101a_b69c_00aa00341d07@@3U__s_GUID@@BPEAUIConnectionPoint@@V?$_CopyInterface@UIConnectionPoint@@@ATL@@VCComSingleThreadModel@6@@ATL@@QEAAJAEBU_GUID@@PEAPEAX@Z 00000001800279f0 f i Biometrics.obj
 0001:00026a30       ?_InternalQueryInterface@?$CComEnum@UIEnumConnections@@$1?_GUID_b196b287_bab4_101a_b69c_00aa00341d07@@3U__s_GUID@@BUtagCONNECTDATA@@V?$_Copy@UtagCONNECTDATA@@@ATL@@VCComSingleThreadModel@6@@ATL@@QEAAJAEBU_GUID@@PEAPEAX@Z 0000000180027a30 f i Biometrics.obj
 0001:00026a70       ?_InternalQueryInterface@CComClassFactory@ATL@@QEAAJAEBU_GUID@@PEAPEAX@Z 0000000180027a70 f i Biometrics.obj
 0001:00026ab0       ?_InternalQueryInterface@COPOSBiometrics@@QEAAJAEBU_GUID@@PEAPEAX@Z 0000000180027ab0 f i Biometrics.obj
 0001:00026af0       ?_LocCPQueryInterface@?$IConnectionPointImpl@VCOPOSBiometrics@@$1?DIID__IOPOSBiometricsEvents@@3U_GUID@@BVCComDynamicUnkArray@ATL@@@ATL@@UEAAJAEBU_GUID@@PEAPEAX@Z 0000000180027af0 f i Biometrics.obj
 0001:00026bc0       ?_LocCPQueryInterface@?$IConnectionPointImpl@VCOPOSBiometrics@@$1?IID_IPropertyNotifySink@@3U_GUID@@BVCComDynamicUnkArray@ATL@@@ATL@@UEAAJAEBU_GUID@@PEAPEAX@Z 0000000180027bc0 f i Biometrics.obj
 0001:00026c90       ?atlCreate@?$CWindowImpl@VCOPOSBiometrics@@VCWindow@ATL@@V?$CWinTraits@$0FGAAAAAA@$0A@@3@@ATL@@QEAAPEAUHWND__@@PEAU3@V_U_RECT@2@PEB_WKKV_U_MENUorID@2@PEAX@Z 0000000180027c90 f i Biometrics.obj
 0001:00026da0       ?atlCreate@?$CWindowImplBaseT@VCWindow@ATL@@V?$CWinTraits@$0FGAAAAAA@$0A@@2@@ATL@@QEAAPEAUHWND__@@PEAU3@V_U_RECT@2@PEB_WKKV_U_MENUorID@2@GPEAX@Z 0000000180027da0 f i Biometrics.obj
 0001:00026ff0       ?atlCreate@CRegKey@ATL@@QEAAJPEAUHKEY__@@PEB_WPEA_WKKPEAU_SECURITY_ATTRIBUTES@@PEAK@Z 0000000180027ff0 f i Biometrics.obj
 0001:000271f0       ?begin@CComDynamicUnkArray@ATL@@QEAAPEAPEAUIUnknown@@XZ 00000001800281f0 f i Biometrics.obj
 0001:00027200       ?copy@?$_Copy@UtagCONNECTDATA@@@ATL@@SAJPEAUtagCONNECTDATA@@PEBU3@@Z 0000000180028200 f i Biometrics.obj
 0001:000272e0       ?copy@?$_CopyInterface@UIConnectionPoint@@@ATL@@SAJPEAPEAUIConnectionPoint@@PEBQEAU3@@Z 00000001800282e0 f i Biometrics.obj
 0001:000273c0       ?destroy@?$_Copy@UtagCONNECTDATA@@@ATL@@SAXPEAUtagCONNECTDATA@@@Z 00000001800283c0 f i Biometrics.obj
 0001:00027400       ?destroy@?$_CopyInterface@UIConnectionPoint@@@ATL@@SAXPEAPEAUIConnectionPoint@@@Z 0000000180028400 f i Biometrics.obj
 0001:00027440       ?end@CComDynamicUnkArray@ATL@@QEAAPEAPEAUIUnknown@@XZ 0000000180028440 f i Biometrics.obj
 0001:00027460       ?init@?$_Copy@UtagCONNECTDATA@@@ATL@@SAXPEAUtagCONNECTDATA@@@Z 0000000180028460 f i Biometrics.obj
 0001:00027470       ?init@?$_CopyInterface@UIConnectionPoint@@@ATL@@SAXPEAPEAUIConnectionPoint@@@Z 0000000180028470 f i Biometrics.obj
 0001:00027480       ?memcpy_s@Checked@ATL@@YAXPEAX_KPEBX1@Z 0000000180028480 f i Biometrics.obj
 0001:000274c0       ?ocscpy_s@@YA_NPEA_W_KPEB_W@Z 00000001800284c0 f i Biometrics.obj
 0001:00027530       ?ocslen@@YAHPEB_W@Z        0000000180028530 f i Biometrics.obj
 0001:00027560       ?tcsncpy_s@Checked@ATL@@YAHPEA_W_KPEB_W1@Z 0000000180028560 f i Biometrics.obj
 0001:000275a0       ?wcscat_s@Checked@ATL@@YAXPEA_W_KPEB_W@Z 00000001800285a0 f i Biometrics.obj
 0001:000275e0       ?wcscpy_s@Checked@ATL@@YAXPEA_W_KPEB_W@Z 00000001800285e0 f i Biometrics.obj
 0001:00027620       ?wcsncpy_s@Checked@ATL@@YAHPEA_W_KPEB_W1@Z 0000000180028620 f i Biometrics.obj
 0001:00027660       ?wcsstr@@YAPEA_WPEA_WPEB_W@Z 0000000180028660 f i Biometrics.obj
 0001:00027690       InlineIsEqualGUID          0000000180028690 f i Biometrics.obj
 0001:00027750       IsEqualGUID                0000000180028750 f i Biometrics.obj
 0001:000277a0       ??0COPOSBiometrics@@QEAA@XZ 00000001800287a0 f   BiometricsImpl.obj
 0001:00027910       ?FinalConstruct@COPOSBiometrics@@QEAAJXZ 0000000180028910 f   BiometricsImpl.obj
 0001:000279f0       ??1COPOSBiometrics@@UEAA@XZ 00000001800289f0 f   BiometricsImpl.obj
 0001:00027ad0       ?WriteTrace@COPOSBiometrics@@QEAAXPEB_WZZ 0000000180028ad0 f   BiometricsImpl.obj
 0001:00027ba0       ?WriteTraceString@COPOSBiometrics@@QEAAXPEB_WPEA_W@Z 0000000180028ba0 f   BiometricsImpl.obj
 0001:00027fd0       ?WriteTraceString@COPOSBiometrics@@QEAAXPEAXHHHPEB_WZZ 0000000180028fd0 f   BiometricsImpl.obj
 0001:00028260       ?WriteTraceError@COPOSBiometrics@@QEAAXPEB_WK@Z 0000000180029260 f   BiometricsImpl.obj
 0001:00028360       ?WriteTraceMethods@COPOSBiometrics@@QEAAXPEAJH@Z 0000000180029360 f   BiometricsImpl.obj
 0001:000283e0       ?GetOposProp@COPOSBiometrics@@IEAAJPEBDJPEAJJ@Z 00000001800293e0 f   BiometricsImpl.obj
 0001:00028700       ?SetOposProp@COPOSBiometrics@@IEAAJPEBDJJJ@Z 0000000180029700 f   BiometricsImpl.obj
 0001:00028a70       ?GetOposProp@COPOSBiometrics@@IEAAJPEBDJPEAFJ@Z 0000000180029a70 f   BiometricsImpl.obj
 0001:00028b20       ?SetOposProp@COPOSBiometrics@@IEAAJPEBDJFJ@Z 0000000180029b20 f   BiometricsImpl.obj
 0001:00028b90       ?GetOposProp@COPOSBiometrics@@IEAAJPEBDJPEAPEA_WJ@Z 0000000180029b90 f   BiometricsImpl.obj
 0001:00028eb0       ?SetOposProp@COPOSBiometrics@@IEAAJPEBDJPEA_WJ@Z 0000000180029eb0 f   BiometricsImpl.obj
 0001:00029290       ?DoInvoke@COPOSBiometrics@@IEAAJPEBDJPEAVOposVariant@@IHPEAJ_N@Z 000000018002a290 f   BiometricsImpl.obj
 0001:0002a190       ?SetCOFreezeEvents@COPOSBiometrics@@IEAAXF@Z 000000018002b190 f   BiometricsImpl.obj
 0001:0002a320       ?FreezeEvents@COPOSBiometrics@@MEAAJH@Z 000000018002b320 f   BiometricsImpl.obj
 0001:0002a440       ?OnDraw@COPOSBiometrics@@MEAAJAEAUATL_DRAWINFO@@@Z 000000018002b440 f   BiometricsImpl.obj
 0001:0002a610       ?SOProcessID@COPOSBiometrics@@UEAAJPEAJ@Z 000000018002b610 f   BiometricsImpl.obj
 0001:0002a660       ?get_OpenResult@COPOSBiometrics@@UEAAJPEAJ@Z 000000018002b660 f   BiometricsImpl.obj
 0001:0002a6b0       ?get_AutoDisable@COPOSBiometrics@@UEAAJPEAF@Z 000000018002b6b0 f   BiometricsImpl.obj
 0001:0002a6f0       ?put_AutoDisable@COPOSBiometrics@@UEAAJF@Z 000000018002b6f0 f   BiometricsImpl.obj
 0001:0002a730       ?get_BinaryConversion@COPOSBiometrics@@UEAAJPEAJ@Z 000000018002b730 f   BiometricsImpl.obj
 0001:0002a770       ?put_BinaryConversion@COPOSBiometrics@@UEAAJJ@Z 000000018002b770 f   BiometricsImpl.obj
 0001:0002a7c0       ?get_CapPowerReporting@COPOSBiometrics@@UEAAJPEAJ@Z 000000018002b7c0 f   BiometricsImpl.obj
 0001:0002a800       ?get_CheckHealthText@COPOSBiometrics@@UEAAJPEAPEA_W@Z 000000018002b800 f   BiometricsImpl.obj
 0001:0002a840       ?get_Claimed@COPOSBiometrics@@UEAAJPEAF@Z 000000018002b840 f   BiometricsImpl.obj
 0001:0002a880       ?get_DataCount@COPOSBiometrics@@UEAAJPEAJ@Z 000000018002b880 f   BiometricsImpl.obj
 0001:0002a8c0       ?get_DataEventEnabled@COPOSBiometrics@@UEAAJPEAF@Z 000000018002b8c0 f   BiometricsImpl.obj
 0001:0002a900       ?put_DataEventEnabled@COPOSBiometrics@@UEAAJF@Z 000000018002b900 f   BiometricsImpl.obj
 0001:0002a940       ?get_DeviceEnabled@COPOSBiometrics@@UEAAJPEAF@Z 000000018002b940 f   BiometricsImpl.obj
 0001:0002a980       ?put_DeviceEnabled@COPOSBiometrics@@UEAAJF@Z 000000018002b980 f   BiometricsImpl.obj
 0001:0002a9c0       ?get_FreezeEvents@COPOSBiometrics@@UEAAJPEAF@Z 000000018002b9c0 f   BiometricsImpl.obj
 0001:0002aa00       ?put_FreezeEvents@COPOSBiometrics@@UEAAJF@Z 000000018002ba00 f   BiometricsImpl.obj
 0001:0002aac0       ?get_PowerNotify@COPOSBiometrics@@UEAAJPEAJ@Z 000000018002bac0 f   BiometricsImpl.obj
 0001:0002ab00       ?put_PowerNotify@COPOSBiometrics@@UEAAJJ@Z 000000018002bb00 f   BiometricsImpl.obj
 0001:0002ab40       ?get_PowerState@COPOSBiometrics@@UEAAJPEAJ@Z 000000018002bb40 f   BiometricsImpl.obj
 0001:0002ab80       ?get_ResultCode@COPOSBiometrics@@UEAAJPEAJ@Z 000000018002bb80 f   BiometricsImpl.obj
 0001:0002ac30       ?get_ResultCodeExtended@COPOSBiometrics@@UEAAJPEAJ@Z 000000018002bc30 f   BiometricsImpl.obj
 0001:0002ac70       ?get_State@COPOSBiometrics@@UEAAJPEAJ@Z 000000018002bc70 f   BiometricsImpl.obj
 0001:0002ace0       ?get_ControlObjectDescription@COPOSBiometrics@@UEAAJPEAPEA_W@Z 000000018002bce0 f   BiometricsImpl.obj
 0001:0002ad50       ?get_ControlObjectVersion@COPOSBiometrics@@UEAAJPEAJ@Z 000000018002bd50 f   BiometricsImpl.obj
 0001:0002ada0       ?get_ServiceObjectDescription@COPOSBiometrics@@UEAAJPEAPEA_W@Z 000000018002bda0 f   BiometricsImpl.obj
 0001:0002ade0       ?get_ServiceObjectVersion@COPOSBiometrics@@UEAAJPEAJ@Z 000000018002bde0 f   BiometricsImpl.obj
 0001:0002ae20       ?get_DeviceDescription@COPOSBiometrics@@UEAAJPEAPEA_W@Z 000000018002be20 f   BiometricsImpl.obj
 0001:0002ae60       ?get_DeviceName@COPOSBiometrics@@UEAAJPEAPEA_W@Z 000000018002be60 f   BiometricsImpl.obj
 0001:0002aea0       ?get_CapStatisticsReporting@COPOSBiometrics@@UEAAJPEAF@Z 000000018002bea0 f   BiometricsImpl.obj
 0001:0002aee0       ?get_CapUpdateStatistics@COPOSBiometrics@@UEAAJPEAF@Z 000000018002bee0 f   BiometricsImpl.obj
 0001:0002af20       ?get_CapCompareFirmwareVersion@COPOSBiometrics@@UEAAJPEAF@Z 000000018002bf20 f   BiometricsImpl.obj
 0001:0002af60       ?get_CapUpdateFirmware@COPOSBiometrics@@UEAAJPEAF@Z 000000018002bf60 f   BiometricsImpl.obj
 0001:0002afa0       ?CheckHealth@COPOSBiometrics@@UEAAJJPEAJ@Z 000000018002bfa0 f   BiometricsImpl.obj
 0001:0002b060       ?ClaimDevice@COPOSBiometrics@@UEAAJJPEAJ@Z 000000018002c060 f   BiometricsImpl.obj
 0001:0002b180       ?ClearInput@COPOSBiometrics@@UEAAJPEAJ@Z 000000018002c180 f   BiometricsImpl.obj
 0001:0002b1e0       ?Close@COPOSBiometrics@@UEAAJPEAJ@Z 000000018002c1e0 f   BiometricsImpl.obj
 0001:0002b2e0       ?DirectIO@COPOSBiometrics@@UEAAJJPEAJPEAPEA_W0@Z 000000018002c2e0 f   BiometricsImpl.obj
 0001:0002b460       ?Open@COPOSBiometrics@@UEAAJPEA_WPEAJ@Z 000000018002c460 f   BiometricsImpl.obj
 0001:0002c940       ?ReleaseDevice@COPOSBiometrics@@UEAAJPEAJ@Z 000000018002d940 f   BiometricsImpl.obj
 0001:0002c9e0       ?ResetStatistics@COPOSBiometrics@@UEAAJPEA_WPEAJ@Z 000000018002d9e0 f   BiometricsImpl.obj
 0001:0002cac0       ?RetrieveStatistics@COPOSBiometrics@@UEAAJPEAPEA_WPEAJ@Z 000000018002dac0 f   BiometricsImpl.obj
 0001:0002cba0       ?UpdateStatistics@COPOSBiometrics@@UEAAJPEA_WPEAJ@Z 000000018002dba0 f   BiometricsImpl.obj
 0001:0002cc80       ?CompareFirmwareVersion@COPOSBiometrics@@UEAAJPEA_WPEAJ1@Z 000000018002dc80 f   BiometricsImpl.obj
 0001:0002cdc0       ?UpdateFirmware@COPOSBiometrics@@UEAAJPEA_WPEAJ@Z 000000018002ddc0 f   BiometricsImpl.obj
 0001:0002cea0       ?ClearInputProperties@COPOSBiometrics@@UEAAJPEAJ@Z 000000018002dea0 f   BiometricsImpl.obj
 0001:0002cf00       ?get_Algorithm@COPOSBiometrics@@UEAAJPEAJ@Z 000000018002df00 f   BiometricsImpl.obj
 0001:0002cf40       ?put_Algorithm@COPOSBiometrics@@UEAAJJ@Z 000000018002df40 f   BiometricsImpl.obj
 0001:0002cf80       ?get_AlgorithmList@COPOSBiometrics@@UEAAJPEAPEA_W@Z 000000018002df80 f   BiometricsImpl.obj
 0001:0002cfc0       ?get_BIR@COPOSBiometrics@@UEAAJPEAPEA_W@Z 000000018002dfc0 f   BiometricsImpl.obj
 0001:0002d000       ?get_CapPrematchData@COPOSBiometrics@@UEAAJPEAF@Z 000000018002e000 f   BiometricsImpl.obj
 0001:0002d040       ?get_CapRawSensorData@COPOSBiometrics@@UEAAJPEAF@Z 000000018002e040 f   BiometricsImpl.obj
 0001:0002d080       ?get_CapRealTimeData@COPOSBiometrics@@UEAAJPEAF@Z 000000018002e080 f   BiometricsImpl.obj
 0001:0002d0c0       ?get_CapSensorColor@COPOSBiometrics@@UEAAJPEAJ@Z 000000018002e0c0 f   BiometricsImpl.obj
 0001:0002d100       ?get_CapSensorOrientation@COPOSBiometrics@@UEAAJPEAJ@Z 000000018002e100 f   BiometricsImpl.obj
 0001:0002d140       ?get_CapSensorType@COPOSBiometrics@@UEAAJPEAJ@Z 000000018002e140 f   BiometricsImpl.obj
 0001:0002d180       ?get_CapTemplateAdaptation@COPOSBiometrics@@UEAAJPEAF@Z 000000018002e180 f   BiometricsImpl.obj
 0001:0002d1c0       ?get_RawSensorData@COPOSBiometrics@@UEAAJPEAPEA_W@Z 000000018002e1c0 f   BiometricsImpl.obj
 0001:0002d200       ?get_RealTimeDataEnabled@COPOSBiometrics@@UEAAJPEAF@Z 000000018002e200 f   BiometricsImpl.obj
 0001:0002d240       ?put_RealTimeDataEnabled@COPOSBiometrics@@UEAAJF@Z 000000018002e240 f   BiometricsImpl.obj
 0001:0002d280       ?get_SensorBPP@COPOSBiometrics@@UEAAJPEAJ@Z 000000018002e280 f   BiometricsImpl.obj
 0001:0002d2c0       ?get_SensorColor@COPOSBiometrics@@UEAAJPEAJ@Z 000000018002e2c0 f   BiometricsImpl.obj
 0001:0002d300       ?put_SensorColor@COPOSBiometrics@@UEAAJJ@Z 000000018002e300 f   BiometricsImpl.obj
 0001:0002d340       ?get_SensorHeight@COPOSBiometrics@@UEAAJPEAJ@Z 000000018002e340 f   BiometricsImpl.obj
 0001:0002d380       ?get_SensorOrientation@COPOSBiometrics@@UEAAJPEAJ@Z 000000018002e380 f   BiometricsImpl.obj
 0001:0002d3c0       ?put_SensorOrientation@COPOSBiometrics@@UEAAJJ@Z 000000018002e3c0 f   BiometricsImpl.obj
 0001:0002d400       ?get_SensorType@COPOSBiometrics@@UEAAJPEAJ@Z 000000018002e400 f   BiometricsImpl.obj
 0001:0002d440       ?put_SensorType@COPOSBiometrics@@UEAAJJ@Z 000000018002e440 f   BiometricsImpl.obj
 0001:0002d480       ?get_SensorWidth@COPOSBiometrics@@UEAAJPEAJ@Z 000000018002e480 f   BiometricsImpl.obj
 0001:0002d4c0       ?BeginEnrollCapture@COPOSBiometrics@@UEAAJPEA_W0PEAJ@Z 000000018002e4c0 f   BiometricsImpl.obj
 0001:0002d600       ?BeginVerifyCapture@COPOSBiometrics@@UEAAJPEAJ@Z 000000018002e600 f   BiometricsImpl.obj
 0001:0002d660       ?EndCapture@COPOSBiometrics@@UEAAJPEAJ@Z 000000018002e660 f   BiometricsImpl.obj
 0001:0002d6c0       ?Identify@COPOSBiometrics@@UEAAJJJFUtagVARIANT@@PEAU2@JPEAJ@Z 000000018002e6c0 f   BiometricsImpl.obj
 0001:0002d8d0       ?IdentifyMatch@COPOSBiometrics@@UEAAJJJFPEA_WUtagVARIANT@@PEAU2@PEAJ@Z 000000018002e8d0 f   BiometricsImpl.obj
 0001:0002dae0       ?ProcessPrematchData@COPOSBiometrics@@UEAAJPEA_W0PEAPEA_WPEAJ@Z 000000018002eae0 f   BiometricsImpl.obj
 0001:0002dc60       ?Verify@COPOSBiometrics@@UEAAJJJFPEA_WPEAPEA_WPEAFPEAJ31J3@Z 000000018002ec60 f   BiometricsImpl.obj
 0001:0002ded0       ?VerifyMatch@COPOSBiometrics@@UEAAJJJFPEA_W0PEAPEA_WPEAFPEAJ313@Z 000000018002eed0 f   BiometricsImpl.obj
 0001:0002e140       ??0?$CComControl@VCOPOSBiometrics@@V?$CWindowImpl@VCOPOSBiometrics@@VCWindow@ATL@@V?$CWinTraits@$0FGAAAAAA@$0A@@3@@ATL@@@ATL@@QEAA@XZ 000000018002f140 f i BiometricsImpl.obj
 0001:0002e180       ??0?$CComPtr@UIAdviseSink@@@ATL@@QEAA@XZ 000000018002f180 f i BiometricsImpl.obj
 0001:0002e1a0       ??0?$CComPtr@UIDataAdviseHolder@@@ATL@@QEAA@XZ 000000018002f1a0 f i BiometricsImpl.obj
 0001:0002e1c0       ??0?$CComPtr@UIOleAdviseHolder@@@ATL@@QEAA@XZ 000000018002f1c0 f i BiometricsImpl.obj
 0001:0002e1e0       ??0?$CComPtr@UIOleClientSite@@@ATL@@QEAA@XZ 000000018002f1e0 f i BiometricsImpl.obj
 0001:0002e200       ??0?$CComPtr@UIOleInPlaceSiteWindowless@@@ATL@@QEAA@XZ 000000018002f200 f i BiometricsImpl.obj
 0001:0002e220       ??0?$CComPtrBase@UIAdviseSink@@@ATL@@IEAA@XZ 000000018002f220 f i BiometricsImpl.obj
 0001:0002e240       ??0?$CComPtrBase@UIDataAdviseHolder@@@ATL@@IEAA@XZ 000000018002f240 f i BiometricsImpl.obj
 0001:0002e260       ??0?$CComPtrBase@UIOleAdviseHolder@@@ATL@@IEAA@XZ 000000018002f260 f i BiometricsImpl.obj
 0001:0002e280       ??0?$CComPtrBase@UIOleClientSite@@@ATL@@IEAA@XZ 000000018002f280 f i BiometricsImpl.obj
 0001:0002e2a0       ??0?$CComPtrBase@UIOleInPlaceSiteWindowless@@@ATL@@IEAA@XZ 000000018002f2a0 f i BiometricsImpl.obj
 0001:0002e2c0       ??0?$CComQIPtr@UIDispatch@@$1?_GUID_00020400_0000_0000_c000_000000000046@@3U__s_GUID@@B@ATL@@QEAA@XZ 000000018002f2c0 f i BiometricsImpl.obj
 0001:0002e2e0       ??0?$CProxy_IOPOSEvents@VCOPOSBiometrics@@@@QEAA@PEAVCOPOSBiometrics@@@Z 000000018002f2e0 f i BiometricsImpl.obj
 0001:0002e360       ??0?$CWindowImpl@VCOPOSBiometrics@@VCWindow@ATL@@V?$CWinTraits@$0FGAAAAAA@$0A@@3@@ATL@@QEAA@XZ 000000018002f360 f i BiometricsImpl.obj
 0001:0002e380       ??0?$CWindowImplBaseT@VCWindow@ATL@@V?$CWinTraits@$0FGAAAAAA@$0A@@2@@ATL@@QEAA@XZ 000000018002f380 f i BiometricsImpl.obj
 0001:0002e3b0       ??0?$CWindowImplRoot@VCWindow@ATL@@@ATL@@QEAA@XZ 000000018002f3b0 f i BiometricsImpl.obj
 0001:0002e410       ??0?$IConnectionPointContainerImpl@VCOPOSBiometrics@@@ATL@@QEAA@XZ 000000018002f410 f i BiometricsImpl.obj
 0001:0002e430       ??0?$IConnectionPointImpl@VCOPOSBiometrics@@$1?DIID__IOPOSBiometricsEvents@@3U_GUID@@BVCComDynamicUnkArray@ATL@@@ATL@@QEAA@XZ 000000018002f430 f i BiometricsImpl.obj
 0001:0002e460       ??0?$IConnectionPointImpl@VCOPOSBiometrics@@$1?IID_IPropertyNotifySink@@3U_GUID@@BVCComDynamicUnkArray@ATL@@@ATL@@QEAA@XZ 000000018002f460 f i BiometricsImpl.obj
 0001:0002e490       ??0?$IDataObjectImpl@VCOPOSBiometrics@@@ATL@@QEAA@XZ 000000018002f490 f i BiometricsImpl.obj
 0001:0002e4b0       ??0?$IDispatchImpl@UIOPOSBiometrics@@$1?IID_IOPOSBiometrics@@3U_GUID@@B$1?LIBID_OposBiometrics_CCO@@3U3@B$00$0A@VCComTypeInfoHolder@ATL@@@ATL@@QEAA@XZ 000000018002f4b0 f i BiometricsImpl.obj
 0001:0002e4d0       ??0?$IObjectSafetyImpl@VCOPOSBiometrics@@$02@ATL@@QEAA@XZ 000000018002f4d0 f i BiometricsImpl.obj
 0001:0002e500       ??0?$IOleControlImpl@VCOPOSBiometrics@@@ATL@@QEAA@XZ 000000018002f500 f i BiometricsImpl.obj
 0001:0002e520       ??0?$IOleInPlaceActiveObjectImpl@VCOPOSBiometrics@@@ATL@@QEAA@XZ 000000018002f520 f i BiometricsImpl.obj
 0001:0002e540       ??0?$IOleInPlaceObjectWindowlessImpl@VCOPOSBiometrics@@@ATL@@QEAA@XZ 000000018002f540 f i BiometricsImpl.obj
 0001:0002e560       ??0?$IOleObjectImpl@VCOPOSBiometrics@@@ATL@@QEAA@XZ 000000018002f560 f i BiometricsImpl.obj
 0001:0002e580       ??0?$IPersistStorageImpl@VCOPOSBiometrics@@@ATL@@QEAA@XZ 000000018002f580 f i BiometricsImpl.obj
 0001:0002e5a0       ??0?$IPersistStreamInitImpl@VCOPOSBiometrics@@@ATL@@QEAA@XZ 000000018002f5a0 f i BiometricsImpl.obj
 0001:0002e5c0       ??0?$IPropertyNotifySinkCP@VCOPOSBiometrics@@VCComDynamicUnkArray@ATL@@@ATL@@QEAA@XZ 000000018002f5c0 f i BiometricsImpl.obj
 0001:0002e5e0       ??0?$IProvideClassInfo2Impl@$1?CLSID_OPOSBiometrics@@3U_GUID@@B$1?DIID__IOPOSBiometricsEvents@@3U2@B$1?LIBID_OposBiometrics_CCO@@3U2@B$00$0A@VCComTypeInfoHolder@ATL@@@ATL@@QEAA@XZ 000000018002f5e0 f i BiometricsImpl.obj
 0001:0002e600       ??0?$IQuickActivateImpl@VCOPOSBiometrics@@@ATL@@QEAA@XZ 000000018002f600 f i BiometricsImpl.obj
 0001:0002e620       ??0?$ISpecifyPropertyPagesImpl@VCOPOSBiometrics@@@ATL@@QEAA@XZ 000000018002f620 f i BiometricsImpl.obj
 0001:0002e640       ??0?$IViewObjectExImpl@VCOPOSBiometrics@@@ATL@@QEAA@XZ 000000018002f640 f i BiometricsImpl.obj
 0001:0002e660       ??0?$_ICPLocator@$1?DIID__IOPOSBiometricsEvents@@3U_GUID@@B@ATL@@QEAA@XZ 000000018002f660 f i BiometricsImpl.obj
 0001:0002e670       ??0?$_ICPLocator@$1?IID_IPropertyNotifySink@@3U_GUID@@B@ATL@@QEAA@XZ 000000018002f670 f i BiometricsImpl.obj
 0001:0002e680       ??0CComControlBase@ATL@@QEAA@AEAPEAUHWND__@@@Z 000000018002f680 f i BiometricsImpl.obj
 0001:0002e890       ??0CComDynamicUnkArray@ATL@@QEAA@XZ 000000018002f890 f i BiometricsImpl.obj
 0001:0002e8c0       ??0CDynamicStdCallThunk2@ATL@@QEAA@XZ 000000018002f8c0 f i BiometricsImpl.obj
 0001:0002e8e0       ??0CMessageMap@ATL@@QEAA@XZ 000000018002f8e0 f i BiometricsImpl.obj
 0001:0002e8f0       ??0CWindow@ATL@@QEAA@PEAUHWND__@@@Z 000000018002f8f0 f i BiometricsImpl.obj
 0001:0002e910       ??0CWndProcThunk@ATL@@QEAA@XZ 000000018002f910 f i BiometricsImpl.obj
 0001:0002e940       ??0IConnectionPointContainer@@QEAA@XZ 000000018002f940 f i BiometricsImpl.obj
 0001:0002e960       ??0IDataObject@@QEAA@XZ    000000018002f960 f i BiometricsImpl.obj
 0001:0002e980       ??0IDispatch@@QEAA@XZ      000000018002f980 f i BiometricsImpl.obj
 0001:0002e9a0       ??0IOPOSBiometrics@@QEAA@XZ 000000018002f9a0 f i BiometricsImpl.obj
 0001:0002e9c0       ??0IOPOSBiometrics_1_10@@QEAA@XZ 000000018002f9c0 f i BiometricsImpl.obj
 0001:0002e9e0       ??0IObjectSafety@@QEAA@XZ  000000018002f9e0 f i BiometricsImpl.obj
 0001:0002ea00       ??0IOleControl@@QEAA@XZ    000000018002fa00 f i BiometricsImpl.obj
 0001:0002ea20       ??0IOleInPlaceActiveObject@@QEAA@XZ 000000018002fa20 f i BiometricsImpl.obj
 0001:0002ea40       ??0IOleInPlaceObject@@QEAA@XZ 000000018002fa40 f i BiometricsImpl.obj
 0001:0002ea60       ??0IOleInPlaceObjectWindowless@@QEAA@XZ 000000018002fa60 f i BiometricsImpl.obj
 0001:0002ea80       ??0IOleObject@@QEAA@XZ     000000018002fa80 f i BiometricsImpl.obj
 0001:0002eaa0       ??0IOleWindow@@QEAA@XZ     000000018002faa0 f i BiometricsImpl.obj
 0001:0002eac0       ??0IPersist@@QEAA@XZ       000000018002fac0 f i BiometricsImpl.obj
 0001:0002eae0       ??0IPersistStorage@@QEAA@XZ 000000018002fae0 f i BiometricsImpl.obj
 0001:0002eb00       ??0IPersistStreamInit@@QEAA@XZ 000000018002fb00 f i BiometricsImpl.obj
 0001:0002eb20       ??0IProvideClassInfo2@@QEAA@XZ 000000018002fb20 f i BiometricsImpl.obj
 0001:0002eb40       ??0IProvideClassInfo@@QEAA@XZ 000000018002fb40 f i BiometricsImpl.obj
 0001:0002eb60       ??0IQuickActivate@@QEAA@XZ 000000018002fb60 f i BiometricsImpl.obj
 0001:0002eb80       ??0ISpecifyPropertyPages@@QEAA@XZ 000000018002fb80 f i BiometricsImpl.obj
 0001:0002eba0       ??0IViewObject2@@QEAA@XZ   000000018002fba0 f i BiometricsImpl.obj
 0001:0002ebc0       ??0IViewObject@@QEAA@XZ    000000018002fbc0 f i BiometricsImpl.obj
 0001:0002ebe0       ??0IViewObjectEx@@QEAA@XZ  000000018002fbe0 f i BiometricsImpl.obj
 0001:0002ec00       ??0OposVariantResult@@QEAA@XZ 000000018002fc00 f i BiometricsImpl.obj
 0001:0002ec20       ??0_CW@@QEAA@PEBD@Z        000000018002fc20 f i BiometricsImpl.obj
 0001:0002ec70       ??0_CW@@QEAA@PEB_W@Z       000000018002fc70 f i BiometricsImpl.obj
 0001:0002ecc0       ??0_CWNCC@@QEAA@PEBD@Z     000000018002fcc0 f i BiometricsImpl.obj
 0001:0002ecf0       ??1?$CComControl@VCOPOSBiometrics@@V?$CWindowImpl@VCOPOSBiometrics@@VCWindow@ATL@@V?$CWinTraits@$0FGAAAAAA@$0A@@3@@ATL@@@ATL@@UEAA@XZ 000000018002fcf0 f i BiometricsImpl.obj
 0001:0002ed20       ??1?$CComPtr@UIDataAdviseHolder@@@ATL@@QEAA@XZ 000000018002fd20 f i BiometricsImpl.obj
 0001:0002ed40       ??1?$CComPtr@UIOleAdviseHolder@@@ATL@@QEAA@XZ 000000018002fd40 f i BiometricsImpl.obj
 0001:0002ed60       ??1?$CComPtr@UIOleInPlaceSiteWindowless@@@ATL@@QEAA@XZ 000000018002fd60 f i BiometricsImpl.obj
 0001:0002ed80       ??1?$CComPtrBase@UIDataAdviseHolder@@@ATL@@QEAA@XZ 000000018002fd80 f i BiometricsImpl.obj
 0001:0002edc0       ??1?$CComPtrBase@UIOleAdviseHolder@@@ATL@@QEAA@XZ 000000018002fdc0 f i BiometricsImpl.obj
 0001:0002ee00       ??1?$CComPtrBase@UIOleInPlaceSiteWindowless@@@ATL@@QEAA@XZ 000000018002fe00 f i BiometricsImpl.obj
 0001:0002ee40       ??1?$CComQIPtr@UIDispatch@@$1?_GUID_00020400_0000_0000_c000_000000000046@@3U__s_GUID@@B@ATL@@QEAA@XZ 000000018002fe40 f i BiometricsImpl.obj
 0001:0002ee60       ??1?$CProxy_IOPOSEvents@VCOPOSBiometrics@@@@QEAA@XZ 000000018002fe60 f i BiometricsImpl.obj
 0001:0002ee80       ??1?$CWindowImpl@VCOPOSBiometrics@@VCWindow@ATL@@V?$CWinTraits@$0FGAAAAAA@$0A@@3@@ATL@@UEAA@XZ 000000018002fe80 f i BiometricsImpl.obj
 0001:0002eea0       ??1?$CWindowImplBaseT@VCWindow@ATL@@V?$CWinTraits@$0FGAAAAAA@$0A@@2@@ATL@@UEAA@XZ 000000018002fea0 f i BiometricsImpl.obj
 0001:0002eec0       ??1?$CWindowImplRoot@VCWindow@ATL@@@ATL@@UEAA@XZ 000000018002fec0 f i BiometricsImpl.obj
 0001:0002ef70       ??1?$IConnectionPointImpl@VCOPOSBiometrics@@$1?DIID__IOPOSBiometricsEvents@@3U_GUID@@BVCComDynamicUnkArray@ATL@@@ATL@@QEAA@XZ 000000018002ff70 f i BiometricsImpl.obj
 0001:0002eff0       ??1?$IConnectionPointImpl@VCOPOSBiometrics@@$1?IID_IPropertyNotifySink@@3U_GUID@@BVCComDynamicUnkArray@ATL@@@ATL@@QEAA@XZ 000000018002fff0 f i BiometricsImpl.obj
 0001:0002f070       ??1?$IPropertyNotifySinkCP@VCOPOSBiometrics@@VCComDynamicUnkArray@ATL@@@ATL@@QEAA@XZ 0000000180030070 f i BiometricsImpl.obj
 0001:0002f090       ??1CComControlBase@ATL@@UEAA@XZ 0000000180030090 f i BiometricsImpl.obj
 0001:0002f170       ??1CComDynamicUnkArray@ATL@@QEAA@XZ 0000000180030170 f i BiometricsImpl.obj
 0001:0002f1a0       ??1CDynamicStdCallThunk2@ATL@@QEAA@XZ 00000001800301a0 f i BiometricsImpl.obj
 0001:0002f1d0       ??1CWndProcThunk@ATL@@QEAA@XZ 00000001800301d0 f i BiometricsImpl.obj
 0001:0002f200       ??1OposVariantResult@@QEAA@XZ 0000000180030200 f i BiometricsImpl.obj
 0001:0002f230       ??1_CW@@QEAA@XZ            0000000180030230 f i BiometricsImpl.obj
 0001:0002f290       ??1_CWNCC@@QEAA@XZ         0000000180030290 f i BiometricsImpl.obj
 0001:0002f2b0       ??B_CW@@QEAAPEB_WXZ        00000001800302b0 f i BiometricsImpl.obj
 0001:0002f2e0       ??B_CWNCC@@QEAAPEA_WXZ     00000001800302e0 f i BiometricsImpl.obj
 0001:0002f300       ??_EOposVariant@@QEAAPEAXI@Z 0000000180030300 f i BiometricsImpl.obj
 0001:0002f3a0       ?EventClaim@COPOSBiometrics@@IEAAXXZ 00000001800303a0 f i BiometricsImpl.obj
 0001:0002f3d0       ?EventClose@COPOSBiometrics@@IEAAXXZ 00000001800303d0 f i BiometricsImpl.obj
 0001:0002f470       ?EventInit@COPOSBiometrics@@IEAAJXZ 0000000180030470 f i BiometricsImpl.obj
 0001:0002f720       ?EventOpen@COPOSBiometrics@@IEAAXXZ 0000000180030720 f i BiometricsImpl.obj
 0001:0002f760       ?EventPreCloseRelease@COPOSBiometrics@@IEAAXXZ 0000000180030760 f i BiometricsImpl.obj
 0001:0002f7d0       ?EventUninit@COPOSBiometrics@@IEAAXXZ 00000001800307d0 f i BiometricsImpl.obj
 0001:0002f8f0       ?EventWindowProc@COPOSBiometrics@@IEAA_JI_K_J@Z 00000001800308f0 f i BiometricsImpl.obj
 0001:0002fab0       ?FireEventCleanup@COPOSBiometrics@@IEAAXXZ 0000000180030ab0 f i BiometricsImpl.obj
 0001:0002faf0       ?FireEventSetup@COPOSBiometrics@@IEAA_NXZ 0000000180030af0 f i BiometricsImpl.obj
 0001:0002fb60       ?GetModuleInstance@CComModule@ATL@@QEAAPEAUHINSTANCE__@@XZ 0000000180030b60 f i BiometricsImpl.obj
 0001:0002fb70       ?SetRC@COPOSBiometrics@@IEAAJJ@Z 0000000180030b70 f i BiometricsImpl.obj
 0001:0002fb90       ?s_EventWindowProc@COPOSBiometrics@@KA_JPEAUHWND__@@I_K_J@Z 0000000180030b90 f i BiometricsImpl.obj
 0001:0002fc30       _snwprintf                 0000000180030c30 f i BiometricsImpl.obj
 0001:0002fcc0       _vfwprintf_l               0000000180030cc0 f i BiometricsImpl.obj
 0001:0002fd10       _vsnwprintf                0000000180030d10 f i BiometricsImpl.obj
 0001:0002fd50       _vsnwprintf_l              0000000180030d50 f i BiometricsImpl.obj
 0001:0002fdd0       vfwprintf                  0000000180030dd0 f i BiometricsImpl.obj
 0001:0002fe01       DebugBreak                 0000000180030e01 f   kernel32:KERNEL32.dll
 0001:0002fe07       Sleep                      0000000180030e07 f   kernel32:KERNEL32.dll
 0001:0002fe0d       GetCurrentProcess          0000000180030e0d f   kernel32:KERNEL32.dll
 0001:0002fe13       TerminateProcess           0000000180030e13 f   kernel32:KERNEL32.dll
 0001:0002fe19       MultiByteToWideChar        0000000180030e19 f   kernel32:KERNEL32.dll
 0001:0002fe1f       WideCharToMultiByte        0000000180030e1f f   kernel32:KERNEL32.dll
 0001:0002fe25       DecodePointer              0000000180030e25 f   kernel32:KERNEL32.dll
 0001:0002fe2b       RaiseException             0000000180030e2b f   kernel32:KERNEL32.dll
 0001:0002fe31       GetLastError               0000000180030e31 f   kernel32:KERNEL32.dll
 0001:0002fe37       SetLastError               0000000180030e37 f   kernel32:KERNEL32.dll
 0001:0002fe3d       InitializeCriticalSectionEx 0000000180030e3d f   kernel32:KERNEL32.dll
 0001:0002fe43       DeleteCriticalSection      0000000180030e43 f   kernel32:KERNEL32.dll
 0001:0002fe49       EncodePointer              0000000180030e49 f   kernel32:KERNEL32.dll
 0001:0002fe4f       EnterCriticalSection       0000000180030e4f f   kernel32:KERNEL32.dll
 0001:0002fe55       LeaveCriticalSection       0000000180030e55 f   kernel32:KERNEL32.dll
 0001:0002fe5b       ResetEvent                 0000000180030e5b f   kernel32:KERNEL32.dll
 0001:0002fe61       ReleaseMutex               0000000180030e61 f   kernel32:KERNEL32.dll
 0001:0002fe67       WaitForSingleObject        0000000180030e67 f   kernel32:KERNEL32.dll
 0001:0002fe6d       GetCurrentThreadId         0000000180030e6d f   kernel32:KERNEL32.dll
 0001:0002fe73       DisableThreadLibraryCalls  0000000180030e73 f   kernel32:KERNEL32.dll
 0001:0002fe79       FreeLibrary                0000000180030e79 f   kernel32:KERNEL32.dll
 0001:0002fe7f       GetModuleFileNameW         0000000180030e7f f   kernel32:KERNEL32.dll
 0001:0002fe85       GetModuleHandleW           0000000180030e85 f   kernel32:KERNEL32.dll
 0001:0002fe8b       GetProcAddress             0000000180030e8b f   kernel32:KERNEL32.dll
 0001:0002fe91       LoadLibraryExW             0000000180030e91 f   kernel32:KERNEL32.dll
 0001:0002fe97       LoadResource               0000000180030e97 f   kernel32:KERNEL32.dll
 0001:0002fe9d       SizeofResource             0000000180030e9d f   kernel32:KERNEL32.dll
 0001:0002fea3       FindResourceW              0000000180030ea3 f   kernel32:KERNEL32.dll
 0001:0002fea9       GlobalAlloc                0000000180030ea9 f   kernel32:KERNEL32.dll
 0001:0002feaf       GlobalUnlock               0000000180030eaf f   kernel32:KERNEL32.dll
 0001:0002feb5       GlobalLock                 0000000180030eb5 f   kernel32:KERNEL32.dll
 0001:0002febb       MulDiv                     0000000180030ebb f   kernel32:KERNEL32.dll
 0001:0002fec1       lstrcmpiW                  0000000180030ec1 f   kernel32:KERNEL32.dll
 0001:0002fec7       DeleteFileW                0000000180030ec7 f   kernel32:KERNEL32.dll
 0001:0002fecd       CloseHandle                0000000180030ecd f   kernel32:KERNEL32.dll
 0001:0002fed3       SetEvent                   0000000180030ed3 f   kernel32:KERNEL32.dll
 0001:0002fed9       CreateMutexW               0000000180030ed9 f   kernel32:KERNEL32.dll
 0001:0002fedf       CreateEventW               0000000180030edf f   kernel32:KERNEL32.dll
 0001:0002fee5       GetCurrentProcessId        0000000180030ee5 f   kernel32:KERNEL32.dll
 0001:0002feeb       LocalFree                  0000000180030eeb f   kernel32:KERNEL32.dll
 0001:0002fef1       FormatMessageW             0000000180030ef1 f   kernel32:KERNEL32.dll
 0001:0002fef7       GetActiveWindow            0000000180030ef7 f   user32:USER32.dll
 0001:0002fefd       MessageBoxW                0000000180030efd f   user32:USER32.dll
 0001:0002ff03       UnregisterClassW           0000000180030f03 f   user32:USER32.dll
 0001:0002ff09       PostMessageW               0000000180030f09 f   user32:USER32.dll
 0001:0002ff0f       DefWindowProcW             0000000180030f0f f   user32:USER32.dll
 0001:0002ff15       CallWindowProcW            0000000180030f15 f   user32:USER32.dll
 0001:0002ff1b       RegisterClassExW           0000000180030f1b f   user32:USER32.dll
 0001:0002ff21       GetClassInfoExW            0000000180030f21 f   user32:USER32.dll
 0001:0002ff27       CreateWindowExW            0000000180030f27 f   user32:USER32.dll
 0001:0002ff2d       IsWindow                   0000000180030f2d f   user32:USER32.dll
 0001:0002ff33       IsChild                    0000000180030f33 f   user32:USER32.dll
 0001:0002ff39       DestroyWindow              0000000180030f39 f   user32:USER32.dll
 0001:0002ff3f       ShowWindow                 0000000180030f3f f   user32:USER32.dll
 0001:0002ff45       SetWindowPos               0000000180030f45 f   user32:USER32.dll
 0001:0002ff4b       CharNextW                  0000000180030f4b f   user32:USER32.dll
 0001:0002ff51       SetFocus                   0000000180030f51 f   user32:USER32.dll
 0001:0002ff57       GetFocus                   0000000180030f57 f   user32:USER32.dll
 0001:0002ff5d       GetKeyState                0000000180030f5d f   user32:USER32.dll
 0001:0002ff63       GetDC                      0000000180030f63 f   user32:USER32.dll
 0001:0002ff69       ReleaseDC                  0000000180030f69 f   user32:USER32.dll
 0001:0002ff6f       BeginPaint                 0000000180030f6f f   user32:USER32.dll
 0001:0002ff75       EndPaint                   0000000180030f75 f   user32:USER32.dll
 0001:0002ff7b       SetWindowRgn               0000000180030f7b f   user32:USER32.dll
 0001:0002ff81       InvalidateRect             0000000180030f81 f   user32:USER32.dll
 0001:0002ff87       GetClientRect              0000000180030f87 f   user32:USER32.dll
 0001:0002ff8d       IntersectRect              0000000180030f8d f   user32:USER32.dll
 0001:0002ff93       UnionRect                  0000000180030f93 f   user32:USER32.dll
 0001:0002ff99       OffsetRect                 0000000180030f99 f   user32:USER32.dll
 0001:0002ff9f       EqualRect                  0000000180030f9f f   user32:USER32.dll
 0001:0002ffa5       PtInRect                   0000000180030fa5 f   user32:USER32.dll
 0001:0002ffab       GetWindowLongPtrW          0000000180030fab f   user32:USER32.dll
 0001:0002ffb1       SetWindowLongPtrW          0000000180030fb1 f   user32:USER32.dll
 0001:0002ffb7       GetParent                  0000000180030fb7 f   user32:USER32.dll
 0001:0002ffbd       LoadCursorW                0000000180030fbd f   user32:USER32.dll
 0001:0002ffc3       PeekMessageW               0000000180030fc3 f   user32:USER32.dll
 0001:0002ffc9       RegisterClassW             0000000180030fc9 f   user32:USER32.dll
 0001:0002ffcf       LoadBitmapW                0000000180030fcf f   user32:USER32.dll
 0001:0002ffd5       CloseMetaFile              0000000180030fd5 f   gdi32:GDI32.dll
 0001:0002ffdb       CreateDCW                  0000000180030fdb f   gdi32:GDI32.dll
 0001:0002ffe1       CreateMetaFileW            0000000180030fe1 f   gdi32:GDI32.dll
 0001:0002ffe7       CreateRectRgnIndirect      0000000180030fe7 f   gdi32:GDI32.dll
 0001:0002ffed       DeleteDC                   0000000180030fed f   gdi32:GDI32.dll
 0001:0002fff3       DeleteMetaFile             0000000180030ff3 f   gdi32:GDI32.dll
 0001:0002fff9       GetDeviceCaps              0000000180030ff9 f   gdi32:GDI32.dll
 0001:0002ffff       RestoreDC                  0000000180030fff f   gdi32:GDI32.dll
 0001:00030005       SaveDC                     0000000180031005 f   gdi32:GDI32.dll
 0001:0003000b       SetMapMode                 000000018003100b f   gdi32:GDI32.dll
 0001:00030011       LPtoDP                     0000000180031011 f   gdi32:GDI32.dll
 0001:00030017       SetViewportOrgEx           0000000180031017 f   gdi32:GDI32.dll
 0001:0003001d       SetWindowExtEx             000000018003101d f   gdi32:GDI32.dll
 0001:00030023       SetWindowOrgEx             0000000180031023 f   gdi32:GDI32.dll
 0001:00030029       BitBlt                     0000000180031029 f   gdi32:GDI32.dll
 0001:0003002f       CreateCompatibleDC         000000018003102f f   gdi32:GDI32.dll
 0001:00030035       DeleteObject               0000000180031035 f   gdi32:GDI32.dll
 0001:0003003b       SelectObject               000000018003103b f   gdi32:GDI32.dll
 0001:00030041       GetObjectW                 0000000180031041 f   gdi32:GDI32.dll
 0001:00030047       RegCloseKey                0000000180031047 f   advapi32:ADVAPI32.dll
 0001:0003004d       RegCreateKeyExW            000000018003104d f   advapi32:ADVAPI32.dll
 0001:00030053       RegDeleteKeyW              0000000180031053 f   advapi32:ADVAPI32.dll
 0001:00030059       RegDeleteValueW            0000000180031059 f   advapi32:ADVAPI32.dll
 0001:0003005f       RegEnumKeyExW              000000018003105f f   advapi32:ADVAPI32.dll
 0001:00030065       RegOpenKeyExW              0000000180031065 f   advapi32:ADVAPI32.dll
 0001:0003006b       RegQueryInfoKeyW           000000018003106b f   advapi32:ADVAPI32.dll
 0001:00030071       RegSetValueExW             0000000180031071 f   advapi32:ADVAPI32.dll
 0001:00030077       RegQueryValueExW           0000000180031077 f   advapi32:ADVAPI32.dll
 0001:0003007d       CoCreateInstance           000000018003107d f   ole32:ole32.dll
 0001:00030083       StringFromGUID2            0000000180031083 f   ole32:ole32.dll
 0001:00030089       CoTaskMemAlloc             0000000180031089 f   ole32:ole32.dll
 0001:0003008f       CoTaskMemRealloc           000000018003108f f   ole32:ole32.dll
 0001:00030095       CoTaskMemFree              0000000180031095 f   ole32:ole32.dll
 0001:0003009b       ReadClassStm               000000018003109b f   ole32:ole32.dll
 0001:000300a1       WriteClassStm              00000001800310a1 f   ole32:ole32.dll
 0001:000300a7       CreateDataAdviseHolder     00000001800310a7 f   ole32:ole32.dll
 0001:000300ad       OleSaveToStream            00000001800310ad f   ole32:ole32.dll
 0001:000300b3       CreateOleAdviseHolder      00000001800310b3 f   ole32:ole32.dll
 0001:000300b9       OleRegGetUserType          00000001800310b9 f   ole32:ole32.dll
 0001:000300bf       OleRegGetMiscStatus        00000001800310bf f   ole32:ole32.dll
 0001:000300c5       OleRegEnumVerbs            00000001800310c5 f   ole32:ole32.dll
 0001:000300cb       CLSIDFromProgID            00000001800310cb f   ole32:ole32.dll
 0001:000300d1       SysAllocString             00000001800310d1 f   oleaut32:OLEAUT32.dll
 0001:000300d7       SysAllocStringLen          00000001800310d7 f   oleaut32:OLEAUT32.dll
 0001:000300dd       SysFreeString              00000001800310dd f   oleaut32:OLEAUT32.dll
 0001:000300e3       SysStringLen               00000001800310e3 f   oleaut32:OLEAUT32.dll
 0001:000300e9       VariantClear               00000001800310e9 f   oleaut32:OLEAUT32.dll
 0001:000300ef       VariantCopyInd             00000001800310ef f   oleaut32:OLEAUT32.dll
 0001:000300f5       VariantChangeType          00000001800310f5 f   oleaut32:OLEAUT32.dll
 0001:000300fb       SysStringByteLen           00000001800310fb f   oleaut32:OLEAUT32.dll
 0001:00030101       SysAllocStringByteLen      0000000180031101 f   oleaut32:OLEAUT32.dll
 0001:00030107       VariantInit                0000000180031107 f   oleaut32:OLEAUT32.dll
 0001:0003010d       VarUI4FromStr              000000018003110d f   oleaut32:OLEAUT32.dll
 0001:00030113       LoadTypeLib                0000000180031113 f   oleaut32:OLEAUT32.dll
 0001:00030119       LoadRegTypeLib             0000000180031119 f   oleaut32:OLEAUT32.dll
 0001:0003011f       RegisterTypeLib            000000018003111f f   oleaut32:OLEAUT32.dll
 0001:00030125       UnRegisterTypeLib          0000000180031125 f   oleaut32:OLEAUT32.dll
 0001:0003012b       OleCreatePropertyFrame     000000018003112b f   oleaut32:OLEAUT32.dll
 0001:00030131       SafeArrayGetDim            0000000180031131 f   oleaut32:OLEAUT32.dll
 0001:00030137       SafeArrayGetUBound         0000000180031137 f   oleaut32:OLEAUT32.dll
 0001:0003013d       SafeArrayGetLBound         000000018003113d f   oleaut32:OLEAUT32.dll
 0001:00030150       _RTC_AllocaHelper          0000000180031150 f   LIBCMTD:stack.obj
 0001:00030190       _RTC_CheckStackVars        0000000180031190 f   LIBCMTD:stack.obj
 0001:00030220       _RTC_CheckStackVars2       0000000180031220 f   LIBCMTD:stack.obj
 0001:00030330       _CRT_RTC_INIT              0000000180031330 f   LIBCMTD:init.obj
 0001:00030340       _CRT_RTC_INITW             0000000180031340 f   LIBCMTD:init.obj
 0001:00030350       _RTC_InitBase              0000000180031350 f   LIBCMTD:init.obj
 0001:00030390       _RTC_Shutdown              0000000180031390 f   LIBCMTD:init.obj
 0001:000303c0       __GSHandlerCheck           00000001800313c0 f   LIBCMTD:gshandler.obj
 0001:00030400       __GSHandlerCheckCommon     0000000180031400 f   LIBCMTD:gshandler.obj
 0001:00030510       __security_check_cookie    0000000180031510 f   LIBCMTD:amdsecgs.obj
 0001:00030530       ??_U@YAPEAX_K@Z            0000000180031530 f   LIBCMTD:new_array.obj
 0001:00030550       ??3@YAXPEAX_K@Z            0000000180031550 f   LIBCMTD:delete_scalar_size.obj
 0001:00030570       ??_V@YAXPEAX@Z             0000000180031570 f   LIBCMTD:delete_array.obj
 0001:00030590       ??_V@YAXPEAX_K@Z           0000000180031590 f   LIBCMTD:delete_array_size.obj
 0001:000305b0       ?configure_argv@__scrt_narrow_argv_policy@@SAHXZ 00000001800315b0 f i LIBCMTD:utility.obj
 0001:000306a0       ?initialize_environment@__scrt_narrow_environment_policy@@SAHXZ 00000001800316a0 f i LIBCMTD:utility.obj
 0001:00030740       NtCurrentTeb               0000000180031740 f i LIBCMTD:utility.obj
 0001:00030750       __scrt_acquire_startup_lock 0000000180031750 f   LIBCMTD:utility.obj
 0001:000307c0       __scrt_dllmain_after_initialize_c 00000001800317c0 f   LIBCMTD:utility.obj
 0001:000307f0       __scrt_dllmain_before_initialize_c 00000001800317f0 f   LIBCMTD:utility.obj
 0001:00030810       __scrt_dllmain_crt_thread_attach 0000000180031810 f   LIBCMTD:utility.obj
 0001:00030840       __scrt_dllmain_crt_thread_detach 0000000180031840 f   LIBCMTD:utility.obj
 0001:00030860       __scrt_dllmain_exception_filter 0000000180031860 f   LIBCMTD:utility.obj
 0001:000308d0       __scrt_dllmain_uninitialize_c 00000001800318d0 f   LIBCMTD:utility.obj
 0001:00030900       __scrt_dllmain_uninitialize_critical 0000000180031900 f   LIBCMTD:utility.obj
 0001:00030920       __scrt_initialize_crt      0000000180031920 f   LIBCMTD:utility.obj
 0001:00030970       __scrt_initialize_onexit_tables 0000000180031970 f   LIBCMTD:utility.obj
 0001:00030a80       __scrt_is_nonwritable_in_current_image 0000000180031a80 f   LIBCMTD:utility.obj
 0001:00030b10       __scrt_release_startup_lock 0000000180031b10 f   LIBCMTD:utility.obj
 0001:00030b40       __scrt_uninitialize_crt    0000000180031b40 f   LIBCMTD:utility.obj
 0001:00030b80       _onexit                    0000000180031b80 f   LIBCMTD:utility.obj
 0001:00030c00       at_quick_exit              0000000180031c00 f   LIBCMTD:utility.obj
 0001:00030c50       atexit                     0000000180031c50 f   LIBCMTD:utility.obj
 0001:00030c90       ??3@YAXPEAX@Z              0000000180031c90 f   LIBCMTD:delete_scalar.obj
 0001:00030cb0       __raise_securityfailure    0000000180031cb0 f   LIBCMTD:gs_report.obj
 0001:00030cf0       __report_gsfailure         0000000180031cf0 f   LIBCMTD:gs_report.obj
 0001:00030dd0       __report_rangecheckfailure 0000000180031dd0 f   LIBCMTD:gs_report.obj
 0001:00030df0       __report_securityfailure   0000000180031df0 f   LIBCMTD:gs_report.obj
 0001:00030e90       __report_securityfailureEx 0000000180031e90 f   LIBCMTD:gs_report.obj
 0001:00031250       _Init_thread_abort         0000000180032250 f   LIBCMTD:thread_safe_statics.obj
 0001:00031280       _Init_thread_footer        0000000180032280 f   LIBCMTD:thread_safe_statics.obj
 0001:000312e0       _Init_thread_header        00000001800322e0 f   LIBCMTD:thread_safe_statics.obj
 0001:00031370       _Init_thread_lock          0000000180032370 f   LIBCMTD:thread_safe_statics.obj
 0001:00031390       _Init_thread_notify        0000000180032390 f   LIBCMTD:thread_safe_statics.obj
 0001:000313f0       _Init_thread_unlock        00000001800323f0 f   LIBCMTD:thread_safe_statics.obj
 0001:00031410       _Init_thread_wait          0000000180032410 f   LIBCMTD:thread_safe_statics.obj
 0001:000314c0       ??2@YAPEAX_KAEBUnothrow_t@std@@@Z 00000001800324c0 f   LIBCMTD:new_scalar_nothrow.obj
 0001:00031500       ??_U@YAPEAX_KAEBUnothrow_t@std@@@Z 0000000180032500 f   LIBCMTD:new_array_nothrow.obj
 0001:00031530       __GSHandlerCheck_SEH       0000000180032530 f   LIBCMTD:gshandlerseh.obj
 0001:00031600       _alloca_probe              0000000180032600 f   LIBCMTD:chkstk.obj
 0001:00031600       __chkstk                   0000000180032600 f   LIBCMTD:chkstk.obj
 0001:00031a60       _CRT_INIT                  0000000180032a60 f   LIBCMTD:dll_dllmain.obj
 0001:00031a90       _DllMainCRTStartup         0000000180032a90 f   LIBCMTD:dll_dllmain.obj
 0001:00031b60       ?_RTC_AllocaFailure@@YAXPEAXPEAU_RTC_ALLOCA_NODE@@H@Z 0000000180032b60 f   LIBCMTD:error.obj
 0001:00031cc0       ?_RTC_Failure@@YAXPEAXH@Z  0000000180032cc0 f   LIBCMTD:error.obj
 0001:00031d10       ?_RTC_StackFailure@@YAXPEAXPEBD@Z 0000000180032d10 f   LIBCMTD:error.obj
 0001:00032140       _RTC_UninitUse             0000000180033140 f   LIBCMTD:error.obj
 0001:00032210       _vsprintf_s_l              0000000180033210 f i LIBCMTD:error.obj
 0001:00032280       sprintf_s                  0000000180033280 f i LIBCMTD:error.obj
 0001:000322b0       ?_RTC_GetErrorFunc@@YAP6AHHPEBDH00ZZPEBX@Z 00000001800332b0 f   LIBCMTD:userapi.obj
 0001:000322c0       ?_RTC_GetErrorFuncW@@YAP6AHHPEB_WH00ZZPEBX@Z 00000001800332c0 f   LIBCMTD:userapi.obj
 0001:000322d0       _RTC_GetErrDesc            00000001800332d0 f   LIBCMTD:userapi.obj
 0001:000322f0       _RTC_NumErrors             00000001800332f0 f   LIBCMTD:userapi.obj
 0001:00032300       _RTC_SetErrorFunc          0000000180033300 f   LIBCMTD:userapi.obj
 0001:00032320       _RTC_SetErrorFuncW         0000000180033320 f   LIBCMTD:userapi.obj
 0001:00032340       _RTC_SetErrorType          0000000180033340 f   LIBCMTD:userapi.obj
 0001:00032360       ??2@YAPEAX_K@Z             0000000180033360 f   LIBCMTD:new_scalar.obj
 0001:000323b0       __isa_available_init       00000001800333b0 f   LIBCMTD:cpu_disp.obj
 0001:00032750       _get_startup_argv_mode     0000000180033750 f   LIBCMTD:argv_mode.obj
 0001:00032760       __scrt_is_ucrt_dll_in_use  0000000180033760 f   LIBCMTD:ucrt_detection.obj
 0001:00032790       __crt_debugger_hook        0000000180033790 f   LIBCMTD:utility_desktop.obj
 0001:000327a0       __scrt_fastfail            00000001800337a0 f   LIBCMTD:utility_desktop.obj
 0001:00032940       __scrt_get_show_window_mode 0000000180033940 f   LIBCMTD:utility_desktop.obj
 0001:000329a0       __scrt_initialize_mta      00000001800339a0 f   LIBCMTD:utility_desktop.obj
 0001:000329b0       __scrt_initialize_winrt    00000001800339b0 f   LIBCMTD:utility_desktop.obj
 0001:000329c0       __scrt_is_managed_app      00000001800339c0 f   LIBCMTD:utility_desktop.obj
 0001:00032a70       __scrt_set_unhandled_exception_filter 0000000180033a70 f   LIBCMTD:utility_desktop.obj
 0001:00032a90       __scrt_stub_for_initialize_mta 0000000180033a90 f   LIBCMTD:utility_desktop.obj
 0001:00032a90       __scrt_exe_initialize_mta  0000000180033a90 f   LIBCMTD:utility_desktop.obj
 0001:00032aa0       __scrt_unhandled_exception_filter 0000000180033aa0 f   LIBCMTD:utility_desktop.obj
 0001:00032b40       _guard_check_icall_nop     0000000180033b40 f i LIBCMTD:guard_support.obj
 0001:00032b50       ReadNoFence64              0000000180033b50 f i LIBCMTD:guard_support.obj
 0001:00032b70       ReadPointerNoFence         0000000180033b70 f i LIBCMTD:guard_support.obj
 0001:00032b90       __castguard_check_failure_debugbreak 0000000180033b90 f i LIBCMTD:guard_support.obj
 0001:00032bb0       __castguard_check_failure_fastfail 0000000180033bb0 f i LIBCMTD:guard_support.obj
 0001:00032be0       __castguard_check_failure_nop 0000000180033be0 f i LIBCMTD:guard_support.obj
 0001:00032bf0       __castguard_check_failure_os_handled 0000000180033bf0 f i LIBCMTD:guard_support.obj
 0001:00032cc0       __castguard_slow_path_check_debugbreak 0000000180033cc0 f i LIBCMTD:guard_support.obj
 0001:00032d00       __castguard_slow_path_check_fastfail 0000000180033d00 f i LIBCMTD:guard_support.obj
 0001:00032d50       __castguard_slow_path_check_nop 0000000180033d50 f i LIBCMTD:guard_support.obj
 0001:00032d60       __castguard_slow_path_check_os_handled 0000000180033d60 f i LIBCMTD:guard_support.obj
 0001:00032e20       _guard_icall_checks_enforced 0000000180033e20 f i LIBCMTD:guard_support.obj
 0001:00032e60       _guard_rf_checks_enforced  0000000180033e60 f i LIBCMTD:guard_support.obj
 0001:00032f30       __security_init_cookie     0000000180033f30 f   LIBCMTD:gs_support.obj
 0001:00032fb0       ?__scrt_initialize_type_info@@YAXXZ 0000000180033fb0 f   LIBCMTD:tncleanup.obj
 0001:00032fd0       ?__scrt_uninitialize_type_info@@YAXXZ 0000000180033fd0 f   LIBCMTD:tncleanup.obj
 0001:00032ff0       __local_stdio_scanf_options 0000000180033ff0 f i LIBCMTD:default_local_stdio_options.obj
 0001:00033000       __scrt_initialize_default_local_stdio_options 0000000180034000 f   LIBCMTD:default_local_stdio_options.obj
 0001:00033050       __scrt_get_dyn_tls_init_callback 0000000180034050 f   LIBCMTD:dyn_tls_init.obj
 0001:00033060       _RTC_Initialize            0000000180034060 f   LIBCMTD:initsect.obj
 0001:000330b0       _RTC_Terminate             00000001800340b0 f   LIBCMTD:initsect.obj
 0001:00033620       ?_RTC_GetSrcLine@@YAHPEAEPEA_WKPEAH1K@Z 0000000180034620 f   LIBCMTD:pdblkup.obj
 0001:000339f0       ??0bad_alloc@std@@AEAA@QEBD@Z 00000001800349f0 f i LIBCMTD:throw_bad_alloc.obj
 0001:00033a30       ??0bad_alloc@std@@QEAA@AEBV01@@Z 0000000180034a30 f i LIBCMTD:throw_bad_alloc.obj
 0001:00033a70       ??0bad_alloc@std@@QEAA@XZ  0000000180034a70 f i LIBCMTD:throw_bad_alloc.obj
 0001:00033ab0       ??0bad_array_new_length@std@@QEAA@AEBV01@@Z 0000000180034ab0 f i LIBCMTD:throw_bad_alloc.obj
 0001:00033af0       ??0bad_array_new_length@std@@QEAA@XZ 0000000180034af0 f i LIBCMTD:throw_bad_alloc.obj
 0001:00033b30       ??0exception@std@@QEAA@AEBV01@@Z 0000000180034b30 f i LIBCMTD:throw_bad_alloc.obj
 0001:00033b90       ??0exception@std@@QEAA@QEBDH@Z 0000000180034b90 f i LIBCMTD:throw_bad_alloc.obj
 0001:00033be0       ??1bad_alloc@std@@UEAA@XZ  0000000180034be0 f i LIBCMTD:throw_bad_alloc.obj
 0001:00033c00       ??1bad_array_new_length@std@@UEAA@XZ 0000000180034c00 f i LIBCMTD:throw_bad_alloc.obj
 0001:00033c20       ??1exception@std@@UEAA@XZ  0000000180034c20 f i LIBCMTD:throw_bad_alloc.obj
 0001:00033c50       ??_Gbad_alloc@std@@UEAAPEAXI@Z 0000000180034c50 f i LIBCMTD:throw_bad_alloc.obj
 0001:00033c50       ??_Ebad_alloc@std@@UEAAPEAXI@Z 0000000180034c50 f i LIBCMTD:throw_bad_alloc.obj
 0001:00033c90       ??_Gbad_array_new_length@std@@UEAAPEAXI@Z 0000000180034c90 f i LIBCMTD:throw_bad_alloc.obj
 0001:00033c90       ??_Ebad_array_new_length@std@@UEAAPEAXI@Z 0000000180034c90 f i LIBCMTD:throw_bad_alloc.obj
 0001:00033cd0       ??_Eexception@std@@UEAAPEAXI@Z 0000000180034cd0 f i LIBCMTD:throw_bad_alloc.obj
 0001:00033cd0       ??_Gexception@std@@UEAAPEAXI@Z 0000000180034cd0 f i LIBCMTD:throw_bad_alloc.obj
 0001:00033d10       ?__scrt_throw_std_bad_alloc@@YAXXZ 0000000180034d10 f   LIBCMTD:throw_bad_alloc.obj
 0001:00033d40       ?__scrt_throw_std_bad_array_new_length@@YAXXZ 0000000180034d40 f   LIBCMTD:throw_bad_alloc.obj
 0001:00033d70       ?what@exception@std@@UEBAPEBDXZ 0000000180034d70 f i LIBCMTD:throw_bad_alloc.obj
 0001:00033db0       ??1type_info@@UEAA@XZ      0000000180034db0 f   LIBCMTD:std_type_info_static.obj
 0001:00033dd0       ??_Gtype_info@@UEAAPEAXI@Z 0000000180034dd0 f i LIBCMTD:std_type_info_static.obj
 0001:00033dd0       ??_Etype_info@@UEAAPEAXI@Z 0000000180034dd0 f i LIBCMTD:std_type_info_static.obj
 0001:00033e0c       ??$?2PEAUHINSTANCE__@@@Wrapper@?$CSimpleArray@PEAUHINSTANCE__@@V?$CSimpleArrayEqualHelper@PEAUHINSTANCE__@@@ATL@@@ATL@@SAPEAX_KPEAPEAUHINSTANCE__@@@Z 0000000180034e0c f i atls:atlbase.obj
 0001:00033e10       ??0?$CSimpleArray@PEAUHINSTANCE__@@V?$CSimpleArrayEqualHelper@PEAUHINSTANCE__@@@ATL@@@ATL@@QEAA@XZ 0000000180034e10 f i atls:atlbase.obj
 0001:00033e20       ??0CAtlBaseModule@ATL@@QEAA@XZ 0000000180034e20 f   atls:atlbase.obj
 0001:00033ec8       ??0Wrapper@?$CSimpleArray@PEAUHINSTANCE__@@V?$CSimpleArrayEqualHelper@PEAUHINSTANCE__@@@ATL@@@ATL@@QEAA@AEBQEAUHINSTANCE__@@@Z 0000000180034ec8 f i atls:atlbase.obj
 0001:00033ed4       ??0_ATL_BASE_MODULE70@ATL@@QEAA@XZ 0000000180034ed4 f i atls:atlbase.obj
 0001:00033f00       ??1?$CSimpleArray@PEAUHINSTANCE__@@V?$CSimpleArrayEqualHelper@PEAUHINSTANCE__@@@ATL@@@ATL@@QEAA@XZ 0000000180034f00 f i atls:atlbase.obj
 0001:00033f28       ??1CAtlBaseModule@ATL@@QEAA@XZ 0000000180034f28 f   atls:atlbase.obj
 0001:00033f5c       ??1_ATL_BASE_MODULE70@ATL@@QEAA@XZ 0000000180034f5c f i atls:atlbase.obj
 0001:00033f88       ??A?$CSimpleArray@PEAUHINSTANCE__@@V?$CSimpleArrayEqualHelper@PEAUHINSTANCE__@@@ATL@@@ATL@@QEAAAEAPEAUHINSTANCE__@@H@Z 0000000180034f88 f i atls:atlbase.obj
 0001:00033fb4       ?Add@?$CSimpleArray@PEAUHINSTANCE__@@V?$CSimpleArrayEqualHelper@PEAUHINSTANCE__@@@ATL@@@ATL@@QEAAHAEBQEAUHINSTANCE__@@@Z 0000000180034fb4 f i atls:atlbase.obj
 0001:00034054       ?AddResourceInstance@CAtlBaseModule@ATL@@QEAA_NPEAUHINSTANCE__@@@Z 0000000180035054 f   atls:atlbase.obj
 0001:0003409c       ?GetHInstanceAt@CAtlBaseModule@ATL@@QEAAPEAUHINSTANCE__@@H@Z 000000018003509c f   atls:atlbase.obj
 0001:00034114       ?GetSize@?$CSimpleArray@PEAUHINSTANCE__@@V?$CSimpleArrayEqualHelper@PEAUHINSTANCE__@@@ATL@@@ATL@@QEBAHXZ 0000000180035114 f i atls:atlbase.obj
 0001:00034118       ?InternalSetAtIndex@?$CSimpleArray@PEAUHINSTANCE__@@V?$CSimpleArrayEqualHelper@PEAUHINSTANCE__@@@ATL@@@ATL@@QEAAXHAEBQEAUHINSTANCE__@@@Z 0000000180035118 f i atls:atlbase.obj
 0001:00034130       ?RemoveAll@?$CSimpleArray@PEAUHINSTANCE__@@V?$CSimpleArrayEqualHelper@PEAUHINSTANCE__@@@ATL@@@ATL@@QEAAXXZ 0000000180035130 f i atls:atlbase.obj
 0001:00034158       ?RemoveAt@?$CSimpleArray@PEAUHINSTANCE__@@V?$CSimpleArrayEqualHelper@PEAUHINSTANCE__@@@ATL@@@ATL@@QEAAHH@Z 0000000180035158 f i atls:atlbase.obj
 0001:000341f0       ?RemoveResourceInstance@CAtlBaseModule@ATL@@QEAA_NPEAUHINSTANCE__@@@Z 00000001800351f0 f   atls:atlbase.obj
 0001:00034278       ?memmove_s@Checked@ATL@@YAXPEAX_KPEBX1@Z 0000000180035278 f i atls:atlbase.obj
 0001:00034720       ?GetCodeAddress@_stdcallthunk@ATL@@QEAAPEAXXZ 0000000180035720 f i atls:atlthunk.obj
 0001:0003474c       ?Init@_stdcallthunk@ATL@@QEAAH_KPEAX@Z 000000018003574c f i atls:atlthunk.obj
 0001:0003479c       ?__AllocStdCallThunk@@YAPEAXXZ 000000018003579c f   atls:atlthunk.obj
 0001:000347a4       ?__AllocStdCallThunk@ATL@@YAPEAXXZ 00000001800357a4 f   atls:atlthunk.obj
 0001:000347ac       ?__AllocStdCallThunk_cmn@@YAPEAXXZ 00000001800357ac f   atls:atlthunk.obj
 0001:00034884       ?__FreeStdCallThunk@@YAXPEAX@Z 0000000180035884 f   atls:atlthunk.obj
 0001:000348a4       ?__FreeStdCallThunk@ATL@@YAXPEAX@Z 00000001800358a4 f   atls:atlthunk.obj
 0001:000348c4       ?__FreeStdCallThunk_cmn@@YAXPEAX@Z 00000001800358c4 f   atls:atlthunk.obj
 0001:00034964       AtlThunk_AllocateData      0000000180035964 f   atls:atlthunk.obj
 0001:000349e0       AtlThunk_DataToCode        00000001800359e0 f   atls:atlthunk.obj
 0001:00034a34       AtlThunk_FreeData          0000000180035a34 f   atls:atlthunk.obj
 0001:00034a94       AtlThunk_InitData          0000000180035a94 f   atls:atlthunk.obj
 0001:00034b50       memset_repmovs             0000000180035b50 f   libvcruntimed:memset.obj
 0001:00034b70       memset                     0000000180035b70 f   libvcruntimed:memset.obj
 0001:00034d00       ??$__crt_interlocked_exchange_pointer@$$A6AXXZP6AXXZ@@YAP6AXXZPEDS6AXXZQ6AXXZ@Z 0000000180035d00 f i libvcruntimed:purevirt.obj
 0001:00034d20       ??$__crt_interlocked_read_pointer@$$A6AXXZ@@YAP6AXXZPEDS6AXXZ@Z 0000000180035d20 f i libvcruntimed:purevirt.obj
 0001:00034d40       ?__crt_interlocked_read_64@@YA_JPED_J@Z 0000000180035d40 f i libvcruntimed:purevirt.obj
 0001:00034d60       _get_purecall_handler      0000000180035d60 f   libvcruntimed:purevirt.obj
 0001:00034d80       _purecall                  0000000180035d80 f   libvcruntimed:purevirt.obj
 0001:00034dc0       _set_purecall_handler      0000000180035dc0 f   libvcruntimed:purevirt.obj
 0001:00034df0       memcmp                     0000000180035df0 f   libvcruntimed:memcmp.obj
 0001:00034ed0       memcpy_repmovs             0000000180035ed0 f   libvcruntimed:memcpy.obj
 0001:00034ef0       memmove                    0000000180035ef0 f   libvcruntimed:memcpy.obj
 0001:00034ef0       memcpy                     0000000180035ef0 f   libvcruntimed:memcpy.obj
 0001:00035570       wcsstr                     0000000180036570 f   libvcruntimed:wcsstr.obj
 0001:00035bd0       __vcrt_initialize          0000000180036bd0 f   libvcruntimed:initialization.obj
 0001:00035c10       __vcrt_thread_attach       0000000180036c10 f   libvcruntimed:initialization.obj
 0001:00035c30       __vcrt_thread_detach       0000000180036c30 f   libvcruntimed:initialization.obj
 0001:00035c50       __vcrt_uninitialize        0000000180036c50 f   libvcruntimed:initialization.obj
 0001:00035c70       __vcrt_uninitialize_critical 0000000180036c70 f   libvcruntimed:initialization.obj
 0001:00035c90       __C_specific_handler       0000000180036c90 f   libvcruntimed:riscchandler.obj
 0001:00036100       ??$?0AEAViterator@TryBlockMap4@FH4@@AEAV012@$0A@@?$pair@Viterator@TryBlockMap4@FH4@@V123@@std@@QEAA@AEAViterator@TryBlockMap4@FH4@@0@Z 0000000180037100 f i libvcruntimed:risctrnsctrl.obj
 0001:00036160       ??$?0AEAViterator@TryBlockMap@__FrameHandler3@@AEAV012@$0A@@?$pair@Viterator@TryBlockMap@__FrameHandler3@@V123@@std@@QEAA@AEAViterator@TryBlockMap@__FrameHandler3@@0@Z 0000000180037160 f i libvcruntimed:risctrnsctrl.obj
 0001:00036330       ??$_CallSETranslator@V__FrameHandler3@@@@YAHPEAUEHExceptionRecord@@PEA_KPEAU_CONTEXT@@PEAU_xDISPATCHER_CONTEXT@@PEBU_s_FuncInfo@@K1H@Z 0000000180037330 f i libvcruntimed:risctrnsctrl.obj
 0001:000363c0       ??$_CallSETranslator@V__FrameHandler4@@@@YAHPEAUEHExceptionRecord@@PEA_KPEAU_CONTEXT@@PEAU_xDISPATCHER_CONTEXT@@PEAUFuncInfo4@FH4@@K1H@Z 00000001800373c0 f i libvcruntimed:risctrnsctrl.obj
 0001:00036450       ??$forward@AEAViterator@TryBlockMap4@FH4@@@std@@YAAEAViterator@TryBlockMap4@FH4@@AEAV123@@Z 0000000180037450 f i libvcruntimed:risctrnsctrl.obj
 0001:00036460       ??$forward@AEAViterator@TryBlockMap@__FrameHandler3@@@std@@YAAEAViterator@TryBlockMap@__FrameHandler3@@AEAV123@@Z 0000000180037460 f i libvcruntimed:risctrnsctrl.obj
 0001:00036470       ??0FuncInfo4@FH4@@QEAA@XZ  0000000180037470 f i libvcruntimed:risctrnsctrl.obj
 0001:000364e0       ??0FuncInfoHeader@FH4@@QEAA@XZ 00000001800374e0 f i libvcruntimed:risctrnsctrl.obj
 0001:00036500       ??0iterator@TryBlockMap4@FH4@@QEAA@AEAV12@I@Z 0000000180037500 f i libvcruntimed:risctrnsctrl.obj
 0001:00036530       ??0iterator@TryBlockMap@__FrameHandler3@@QEAA@AEAV12@I@Z 0000000180037530 f i libvcruntimed:risctrnsctrl.obj
 0001:00036560       ??4iterator@TryBlockMap4@FH4@@QEAAAEAV012@AEBV012@@Z 0000000180037560 f i libvcruntimed:risctrnsctrl.obj
 0001:00036580       ??9iterator@TryBlockMap4@FH4@@QEBA_NAEBV012@@Z 0000000180037580 f i libvcruntimed:risctrnsctrl.obj
 0001:000365c0       ??Diterator@TryBlockMap4@FH4@@QEAA?AUTryBlockMapEntry4@2@XZ 00000001800375c0 f i libvcruntimed:risctrnsctrl.obj
 0001:000365f0       ??Eiterator@TryBlockMap4@FH4@@QEAAAEAV012@XZ 00000001800375f0 f i libvcruntimed:risctrnsctrl.obj
 0001:00036630       ?CatchTryBlock@__FrameHandler3@@SAPEBU_s_TryBlockMapEntry@@PEBU_s_FuncInfo@@H@Z 0000000180037630 f   libvcruntimed:risctrnsctrl.obj
 0001:000366c0       ?DecompFuncInfo@FH4@@YA_JPEAEAEAUFuncInfo4@1@_KH@Z 00000001800376c0 f i libvcruntimed:risctrnsctrl.obj
 0001:00036700       ?DecompFuncInfo@FH4@@YA_JPEAEAEAUFuncInfo4@1@_KH_N@Z 0000000180037700 f i libvcruntimed:risctrnsctrl.obj
 0001:000368d0       ?DecompTryBlock@TryBlockMap4@FH4@@AEAAXXZ 00000001800378d0 f i libvcruntimed:risctrnsctrl.obj
 0001:00036950       ?ExecutionInCatch@__FrameHandler3@@SA_NPEAU_xDISPATCHER_CONTEXT@@PEBU_s_FuncInfo@@@Z 0000000180037950 f   libvcruntimed:risctrnsctrl.obj
 0001:000369a0       ?ExecutionInCatch@__FrameHandler4@@SA_NPEAU_xDISPATCHER_CONTEXT@@PEAUFuncInfo4@FH4@@@Z 00000001800379a0 f   libvcruntimed:risctrnsctrl.obj
 0001:000369c0       ?FrameUnwindToEmptyState@__FrameHandler3@@SAXPEA_KPEAU_xDISPATCHER_CONTEXT@@PEBU_s_FuncInfo@@@Z 00000001800379c0 f   libvcruntimed:risctrnsctrl.obj
 0001:00036a60       ?FrameUnwindToEmptyState@__FrameHandler4@@SAXPEA_KPEAU_xDISPATCHER_CONTEXT@@PEAUFuncInfo4@FH4@@@Z 0000000180037a60 f   libvcruntimed:risctrnsctrl.obj
 0001:00036ab0       ?GetEstablisherFrame@__FrameHandler3@@SAPEA_KPEA_KPEAU_xDISPATCHER_CONTEXT@@PEBU_s_FuncInfo@@0@Z 0000000180037ab0 f   libvcruntimed:risctrnsctrl.obj
 0001:00036c20       ?GetEstablisherFrame@__FrameHandler4@@SAPEA_KPEA_KPEAU_xDISPATCHER_CONTEXT@@PEAUFuncInfo4@FH4@@0@Z 0000000180037c20 f   libvcruntimed:risctrnsctrl.obj
 0001:00036c90       ?GetRangeOfTrysToCheck@__FrameHandler3@@SA?AU?$pair@Viterator@TryBlockMap@__FrameHandler3@@V123@@std@@AEAVTryBlockMap@1@HPEAU_xDISPATCHER_CONTEXT@@PEBU_s_FuncInfo@@H@Z 0000000180037c90 f   libvcruntimed:risctrnsctrl.obj
 0001:00036ed0       ?GetRangeOfTrysToCheck@__FrameHandler4@@SA?AU?$pair@Viterator@TryBlockMap4@FH4@@V123@@std@@AEAVTryBlockMap4@FH4@@HPEAU_xDISPATCHER_CONTEXT@@PEAUFuncInfo4@5@H@Z 0000000180037ed0 f   libvcruntimed:risctrnsctrl.obj
 0001:00037080       ?ReadInt@FH4@@YAHPEAPEAE@Z 0000000180038080 f i libvcruntimed:risctrnsctrl.obj
 0001:000370c0       ?ReadUnsigned@FH4@@YAIPEAPEAE@Z 00000001800380c0 f i libvcruntimed:risctrnsctrl.obj
 0001:00037150       ?UnwindNestedFrames@__FrameHandler3@@SAXPEA_KPEAUEHExceptionRecord@@PEAU_CONTEXT@@0PEAXPEBU_s_FuncInfo@@HHPEBU_s_HandlerType@@PEAU_xDISPATCHER_CONTEXT@@E@Z 0000000180038150 f   libvcruntimed:risctrnsctrl.obj
 0001:000372c0       ?UnwindNestedFrames@__FrameHandler4@@SAXPEA_KPEAUEHExceptionRecord@@PEAU_CONTEXT@@0PEAXPEAUFuncInfo4@FH4@@HHPEAUHandlerType4@5@PEAU_xDISPATCHER_CONTEXT@@E@Z 00000001800382c0 f   libvcruntimed:risctrnsctrl.obj
 0001:00037490       ?begin@TryBlockMap4@FH4@@QEAA?AViterator@12@XZ 0000000180038490 f i libvcruntimed:risctrnsctrl.obj
 0001:000374c0       ?end@TryBlockMap4@FH4@@QEAA?AViterator@12@XZ 00000001800384c0 f i libvcruntimed:risctrnsctrl.obj
 0001:000374f0       ?imageRelToByteBuffer@FH4@@YAPEAE_KH@Z 00000001800384f0 f i libvcruntimed:risctrnsctrl.obj
 0001:00037510       ?incrementToSentinel@iterator@TryBlockMap4@FH4@@QEAAXXZ 0000000180038510 f i libvcruntimed:risctrnsctrl.obj
 0001:00037530       ?setBuffer@TryBlockMap4@FH4@@QEAAXViterator@12@@Z 0000000180038530 f i libvcruntimed:risctrnsctrl.obj
 0001:000375a0       _CreateFrameInfo           00000001800385a0 f   libvcruntimed:risctrnsctrl.obj
 0001:00037610       _FindAndUnlinkFrame        0000000180038610 f   libvcruntimed:risctrnsctrl.obj
 0001:00037690       _GetImageBase              0000000180038690 f   libvcruntimed:risctrnsctrl.obj
 0001:000376b0       _GetThrowImageBase         00000001800386b0 f   libvcruntimed:risctrnsctrl.obj
 0001:000376d0       _SetImageBase              00000001800386d0 f   libvcruntimed:risctrnsctrl.obj
 0001:000376f0       _SetThrowImageBase         00000001800386f0 f   libvcruntimed:risctrnsctrl.obj
 0001:00037710       __CxxFrameHandler          0000000180038710 f   libvcruntimed:risctrnsctrl.obj
 0001:00037750       __CxxFrameHandler2         0000000180038750 f   libvcruntimed:risctrnsctrl.obj
 0001:00037790       __CxxFrameHandler3         0000000180038790 f   libvcruntimed:risctrnsctrl.obj
 0001:00037870       __CxxFrameHandler4         0000000180038870 f   libvcruntimed:risctrnsctrl.obj
 0001:00037980       __C_specific_handler_noexcept 0000000180038980 f   libvcruntimed:chandler_noexcept.obj
 0001:00037a10       __DestructExceptionObject  0000000180038a10 f   libvcruntimed:ehhelpers.obj
 0001:00037b10       ?_CallMemberFunction0@@YAXQEAX0@Z 0000000180038b10 f i libvcruntimed:ehhelpers.obj
 0001:00037be0       ?raw_name@type_info@@QEBAPEBDXZ 0000000180038be0 f i libvcruntimed:ehhelpers.obj
 0001:00037bf0       _IsExceptionObjectToBeDestroyed 0000000180038bf0 f   libvcruntimed:ehhelpers.obj
 0001:00037c40       _SetWinRTOutOfMemoryExceptionCallback 0000000180038c40 f   libvcruntimed:ehhelpers.obj
 0001:00037c60       __AdjustPointer            0000000180038c60 f   libvcruntimed:ehhelpers.obj
 0001:00037ce0       __FrameUnwindFilter        0000000180038ce0 f   libvcruntimed:ehhelpers.obj
 0001:00037d90       __GetPlatformExceptionInfo 0000000180038d90 f   libvcruntimed:ehhelpers.obj
 0001:00037e40       __current_exception        0000000180038e40 f   libvcruntimed:ehhelpers.obj
 0001:00037e60       __current_exception_context 0000000180038e60 f   libvcruntimed:ehhelpers.obj
 0001:00037e80       __processing_throw         0000000180038e80 f   libvcruntimed:ehhelpers.obj
 0001:00037ea0       __std_terminate            0000000180038ea0 f   libvcruntimed:ehhelpers.obj
 0001:00037eb0       _is_exception_typeof       0000000180038eb0 f   libvcruntimed:ehhelpers.obj
 0001:00038040       ??$?RD@__crt_internal_free_policy@@QEBAXQEBD@Z 0000000180039040 f i libvcruntimed:std_type_info.obj
 0001:00038070       ??$?RX@__crt_internal_free_policy@@QEBAXQEBX@Z 0000000180039070 f i libvcruntimed:std_type_info.obj
 0001:000380a0       ??$__crt_interlocked_compare_exchange_pointer@$$CBDPEAD$$T@@YAPEBDPEDSEBDQEAD$$T@Z 00000001800390a0 f i libvcruntimed:std_type_info.obj
 0001:000380e0       ??$__crt_interlocked_read_pointer@$$CBD@@YAPEBDPEDSEBD@Z 00000001800390e0 f i libvcruntimed:std_type_info.obj
 0001:00038100       ??0?$__crt_unique_heap_ptr@DU__crt_internal_free_policy@@@@QEAA@QEAD@Z 0000000180039100 f i libvcruntimed:std_type_info.obj
 0001:00038120       ??0?$__crt_unique_heap_ptr@XU__crt_internal_free_policy@@@@QEAA@QEAX@Z 0000000180039120 f i libvcruntimed:std_type_info.obj
 0001:00038140       ??1?$__crt_unique_heap_ptr@DU__crt_internal_free_policy@@@@QEAA@XZ 0000000180039140 f i libvcruntimed:std_type_info.obj
 0001:00038160       ??1?$__crt_unique_heap_ptr@XU__crt_internal_free_policy@@@@QEAA@XZ 0000000180039160 f i libvcruntimed:std_type_info.obj
 0001:00038180       ??B?$__crt_unique_heap_ptr@DU__crt_internal_free_policy@@@@QEBA_NXZ 0000000180039180 f i libvcruntimed:std_type_info.obj
 0001:000381a0       ??B?$__crt_unique_heap_ptr@XU__crt_internal_free_policy@@@@QEBA_NXZ 00000001800391a0 f i libvcruntimed:std_type_info.obj
 0001:00038240       ?detach@?$__crt_unique_heap_ptr@XU__crt_internal_free_policy@@@@QEAAPEAXXZ 0000000180039240 f i libvcruntimed:std_type_info.obj
 0001:00038270       ?get@?$__crt_unique_heap_ptr@DU__crt_internal_free_policy@@@@QEBAPEADXZ 0000000180039270 f i libvcruntimed:std_type_info.obj
 0001:00038280       ?get@?$__crt_unique_heap_ptr@XU__crt_internal_free_policy@@@@QEBAPEAXXZ 0000000180039280 f i libvcruntimed:std_type_info.obj
 0001:00038290       ?is_valid@?$__crt_unique_heap_ptr@DU__crt_internal_free_policy@@@@QEBA_NXZ 0000000180039290 f i libvcruntimed:std_type_info.obj
 0001:000382c0       ?is_valid@?$__crt_unique_heap_ptr@XU__crt_internal_free_policy@@@@QEBA_NXZ 00000001800392c0 f i libvcruntimed:std_type_info.obj
 0001:000382f0       ?release@?$__crt_unique_heap_ptr@DU__crt_internal_free_policy@@@@QEAAXXZ 00000001800392f0 f i libvcruntimed:std_type_info.obj
 0001:00038320       ?release@?$__crt_unique_heap_ptr@XU__crt_internal_free_policy@@@@QEAAXXZ 0000000180039320 f i libvcruntimed:std_type_info.obj
 0001:00038350       __std_type_info_compare    0000000180039350 f   libvcruntimed:std_type_info.obj
 0001:00038390       __std_type_info_destroy_list 0000000180039390 f   libvcruntimed:std_type_info.obj
 0001:000383f0       __std_type_info_hash       00000001800393f0 f   libvcruntimed:std_type_info.obj
 0001:000384a0       __std_type_info_name       00000001800394a0 f   libvcruntimed:std_type_info.obj
 0001:00038750       __vcrt_GetModuleFileNameW  0000000180039750 f   libvcruntimed:winapi_thunks.obj
 0001:00038780       __vcrt_GetModuleHandleW    0000000180039780 f   libvcruntimed:winapi_thunks.obj
 0001:000387a0       __vcrt_LoadLibraryExW      00000001800397a0 f   libvcruntimed:winapi_thunks.obj
 0001:000387d0       ??$?RD@__crt_public_free_policy@@QEBAXQEBD@Z 00000001800397d0 f i libvcruntimed:std_exception.obj
 0001:000387f0       ??0?$__crt_unique_heap_ptr@DU__crt_public_free_policy@@@@QEAA@QEAD@Z 00000001800397f0 f i libvcruntimed:std_exception.obj
 0001:00038810       ??1?$__crt_unique_heap_ptr@DU__crt_public_free_policy@@@@QEAA@XZ 0000000180039810 f i libvcruntimed:std_exception.obj
 0001:00038830       ??B?$__crt_unique_heap_ptr@DU__crt_public_free_policy@@@@QEBA_NXZ 0000000180039830 f i libvcruntimed:std_exception.obj
 0001:00038850       ?detach@?$__crt_unique_heap_ptr@DU__crt_public_free_policy@@@@QEAAPEADXZ 0000000180039850 f i libvcruntimed:std_exception.obj
 0001:00038880       ?get@?$__crt_unique_heap_ptr@DU__crt_public_free_policy@@@@QEBAPEADXZ 0000000180039880 f i libvcruntimed:std_exception.obj
 0001:00038890       ?is_valid@?$__crt_unique_heap_ptr@DU__crt_public_free_policy@@@@QEBA_NXZ 0000000180039890 f i libvcruntimed:std_exception.obj
 0001:000388c0       ?release@?$__crt_unique_heap_ptr@DU__crt_public_free_policy@@@@QEAAXXZ 00000001800398c0 f i libvcruntimed:std_exception.obj
 0001:000388f0       __std_exception_copy       00000001800398f0 f   libvcruntimed:std_exception.obj
 0001:00038a30       __std_exception_destroy    0000000180039a30 f   libvcruntimed:std_exception.obj
 0001:00038a70       _CxxThrowException         0000000180039a70 f   libvcruntimed:throw.obj
 0001:00038ba0       ??$?RU__vcrt_ptd@@@__crt_internal_free_policy@@QEBAXQEBU__vcrt_ptd@@@Z 0000000180039ba0 f i libvcruntimed:per_thread_data.obj
 0001:00038bd0       ??0?$__crt_unique_heap_ptr@U__vcrt_ptd@@U__crt_internal_free_policy@@@@QEAA@QEAU__vcrt_ptd@@@Z 0000000180039bd0 f i libvcruntimed:per_thread_data.obj
 0001:00038c10       ??1?$__crt_unique_heap_ptr@U__vcrt_ptd@@U__crt_internal_free_policy@@@@QEAA@XZ 0000000180039c10 f i libvcruntimed:per_thread_data.obj
 0001:00038c50       ??B?$__crt_unique_heap_ptr@U__vcrt_ptd@@U__crt_internal_free_policy@@@@QEBA_NXZ 0000000180039c50 f i libvcruntimed:per_thread_data.obj
 0001:00038c70       ?detach@?$__crt_unique_heap_ptr@U__vcrt_ptd@@U__crt_internal_free_policy@@@@QEAAPEAU__vcrt_ptd@@XZ 0000000180039c70 f i libvcruntimed:per_thread_data.obj
 0001:00038ca0       ?get@?$__crt_unique_heap_ptr@U__vcrt_ptd@@U__crt_internal_free_policy@@@@QEBAPEAU__vcrt_ptd@@XZ 0000000180039ca0 f i libvcruntimed:per_thread_data.obj
 0001:00038cb0       ?is_valid@?$__crt_unique_heap_ptr@U__vcrt_ptd@@U__crt_internal_free_policy@@@@QEBA_NXZ 0000000180039cb0 f i libvcruntimed:per_thread_data.obj
 0001:00038ce0       ?release@?$__crt_unique_heap_ptr@U__vcrt_ptd@@U__crt_internal_free_policy@@@@QEAAXXZ 0000000180039ce0 f i libvcruntimed:per_thread_data.obj
 0001:00038d50       __vcrt_freefls             0000000180039d50 f   libvcruntimed:per_thread_data.obj
 0001:00038d90       __vcrt_freeptd             0000000180039d90 f   libvcruntimed:per_thread_data.obj
 0001:00038df0       __vcrt_getptd              0000000180039df0 f   libvcruntimed:per_thread_data.obj
 0001:00038e20       __vcrt_getptd_noexit       0000000180039e20 f   libvcruntimed:per_thread_data.obj
 0001:00038fc0       __vcrt_getptd_noinit       0000000180039fc0 f   libvcruntimed:per_thread_data.obj
 0001:00039020       __vcrt_initialize_ptd      000000018003a020 f   libvcruntimed:per_thread_data.obj
 0001:00039070       __vcrt_uninitialize_ptd    000000018003a070 f   libvcruntimed:per_thread_data.obj
 0001:000390a0       __vcrt_initialize_locks    000000018003a0a0 f   libvcruntimed:locks.obj
 0001:00039110       __vcrt_lock                000000018003a110 f   libvcruntimed:locks.obj
 0001:00039140       __vcrt_uninitialize_locks  000000018003a140 f   libvcruntimed:locks.obj
 0001:000391a0       __vcrt_unlock              000000018003a1a0 f   libvcruntimed:locks.obj
 0001:000391e0       _NLG_Notify                000000018003a1e0 f   libvcruntimed:notify.obj
 0001:00039200       __NLG_Dispatch2            000000018003a200 f   libvcruntimed:notify.obj
 0001:00039210       __NLG_Return2              000000018003a210 f   libvcruntimed:notify.obj
 0001:00039230       __except_validate_context_record 000000018003a230 f   libvcruntimed:jbcxrval.obj
 0001:00039290       __except_validate_jump_buffer 000000018003a290 f   libvcruntimed:jbcxrval.obj
 0001:000392b0       __except_validate_jump_buffer_common 000000018003a2b0 f i libvcruntimed:jbcxrval.obj
 0001:00039330       ?GetCurrentState@__FrameHandler3@@SAHPEA_KPEAU_xDISPATCHER_CONTEXT@@PEBU_s_FuncInfo@@@Z 000000018003a330 f   libvcruntimed:ehstate.obj
 0001:00039390       ?GetUnwindTryBlock@__FrameHandler3@@SAHPEA_KPEAU_xDISPATCHER_CONTEXT@@PEBU_s_FuncInfo@@@Z 000000018003a390 f   libvcruntimed:ehstate.obj
 0001:000393e0       ?SetState@__FrameHandler3@@SAXPEA_KPEBU_s_FuncInfo@@H@Z 000000018003a3e0 f   libvcruntimed:ehstate.obj
 0001:00039410       ?SetUnwindTryBlock@__FrameHandler3@@SAXPEA_KPEAU_xDISPATCHER_CONTEXT@@PEBU_s_FuncInfo@@H@Z 000000018003a410 f   libvcruntimed:ehstate.obj
 0001:00039480       ?StateFromControlPc@__FrameHandler3@@SAHPEBU_s_FuncInfo@@PEAU_xDISPATCHER_CONTEXT@@@Z 000000018003a480 f   libvcruntimed:ehstate.obj
 0001:000394c0       ?StateFromControlPc@__FrameHandler4@@SAHPEAUFuncInfo4@FH4@@PEAU_xDISPATCHER_CONTEXT@@@Z 000000018003a4c0 f   libvcruntimed:ehstate.obj
 0001:00039500       ?StateFromIp@__FrameHandler3@@SAHPEBU_s_FuncInfo@@PEAU_xDISPATCHER_CONTEXT@@_K@Z 000000018003a500 f   libvcruntimed:ehstate.obj
 0001:000395f0       ?StateFromIp@__FrameHandler4@@SAHPEAUFuncInfo4@FH4@@PEAU_xDISPATCHER_CONTEXT@@_K@Z 000000018003a5f0 f   libvcruntimed:ehstate.obj
 0001:000396e0       ?__FuncRelToRealOffset@@YA_KPEAU_xDISPATCHER_CONTEXT@@I@Z 000000018003a6e0 f i libvcruntimed:ehstate.obj
 0001:00039710       ?__RVAtoRealOffset@@YA_KPEAU_xDISPATCHER_CONTEXT@@H@Z 000000018003a710 f i libvcruntimed:ehstate.obj
 0001:0003b970       ??$TypeMatchHelper@V__FrameHandler3@@@@YAHPEBU_s_HandlerType@@PEBU_s_CatchableType@@PEBU_s_ThrowInfo@@@Z 000000018003c970 f i libvcruntimed:frame.obj
 0001:0003bb70       ??$TypeMatchHelper@V__FrameHandler4@@@@YAHPEAUHandlerType4@FH4@@PEBU_s_CatchableType@@PEBU_s_ThrowInfo@@@Z 000000018003cb70 f i libvcruntimed:frame.obj
 0001:0003bd80       ??$__InternalCxxFrameHandler@V__FrameHandler3@@@@YA?AW4_EXCEPTION_DISPOSITION@@PEAUEHExceptionRecord@@PEA_KPEAU_CONTEXT@@PEAU_xDISPATCHER_CONTEXT@@PEBU_s_FuncInfo@@H1E@Z 000000018003cd80 f i libvcruntimed:frame.obj
 0001:0003c1f0       ??$__InternalCxxFrameHandler@V__FrameHandler4@@@@YA?AW4_EXCEPTION_DISPOSITION@@PEAUEHExceptionRecord@@PEA_KPEAU_CONTEXT@@PEAU_xDISPATCHER_CONTEXT@@PEAUFuncInfo4@FH4@@H1E@Z 000000018003d1f0 f i libvcruntimed:frame.obj
 0001:0003c680       ??0HandlerMap4@FH4@@QEAA@PEBUTryBlockMapEntry4@1@_KH@Z 000000018003d680 f i libvcruntimed:frame.obj
 0001:0003c740       ??0HandlerMap@__FrameHandler3@@QEAA@PEBU_s_TryBlockMapEntry@@_KI@Z 000000018003d740 f i libvcruntimed:frame.obj
 0001:0003c790       ??0HandlerType4@FH4@@QEAA@XZ 000000018003d790 f i libvcruntimed:frame.obj
 0001:0003c7b0       ??0TryBlockMap4@FH4@@QEAA@PEBUFuncInfo4@1@_K@Z 000000018003d7b0 f i libvcruntimed:frame.obj
 0001:0003c840       ??0TryBlockMap@__FrameHandler3@@QEAA@PEBU_s_FuncInfo@@_K@Z 000000018003d840 f i libvcruntimed:frame.obj
 0001:0003c870       ??0UWMap4@FH4@@QEAA@PEBUFuncInfo4@1@_K@Z 000000018003d870 f i libvcruntimed:frame.obj
 0001:0003c8e0       ??0bad_exception@std@@QEAA@AEBV01@@Z 000000018003d8e0 f i libvcruntimed:frame.obj
 0001:0003c920       ??0bad_exception@std@@QEAA@XZ 000000018003d920 f i libvcruntimed:frame.obj
 0001:0003c960       ??0iterator@HandlerMap4@FH4@@QEAA@AEAV12@I@Z 000000018003d960 f i libvcruntimed:frame.obj
 0001:0003c990       ??0iterator@HandlerMap@__FrameHandler3@@QEAA@AEAV12@I@Z 000000018003d990 f i libvcruntimed:frame.obj
 0001:0003c9c0       ??0iterator@UWMap4@FH4@@QEAA@AEAV12@PEAE@Z 000000018003d9c0 f i libvcruntimed:frame.obj
 0001:0003c9f0       ??1bad_exception@std@@UEAA@XZ 000000018003d9f0 f i libvcruntimed:frame.obj
 0001:0003ca10       ??4iterator@UWMap4@FH4@@QEAAAEAV012@AEBV012@@Z 000000018003da10 f i libvcruntimed:frame.obj
 0001:0003ca60       ??8iterator@HandlerMap4@FH4@@QEBA_NAEBV012@@Z 000000018003da60 f i libvcruntimed:frame.obj
 0001:0003caa0       ??8iterator@HandlerMap@__FrameHandler3@@QEBA_NAEBV012@@Z 000000018003daa0 f i libvcruntimed:frame.obj
 0001:0003cae0       ??8type_info@@QEBA_NAEBV0@@Z 000000018003dae0 f i libvcruntimed:frame.obj
 0001:0003cb30       ??9iterator@HandlerMap4@FH4@@QEBA_NAEBV012@@Z 000000018003db30 f i libvcruntimed:frame.obj
 0001:0003cb70       ??9iterator@HandlerMap@__FrameHandler3@@QEBA_NAEBV012@@Z 000000018003db70 f i libvcruntimed:frame.obj
 0001:0003cbb0       ??Diterator@HandlerMap4@FH4@@QEAA?AUHandlerType4@2@XZ 000000018003dbb0 f i libvcruntimed:frame.obj
 0001:0003cbe0       ??Diterator@HandlerMap@__FrameHandler3@@QEAA?BU_s_HandlerType@@XZ 000000018003dbe0 f i libvcruntimed:frame.obj
 0001:0003cc20       ??Diterator@TryBlockMap@__FrameHandler3@@QEAA?BU_s_TryBlockMapEntry@@XZ 000000018003dc20 f i libvcruntimed:frame.obj
 0001:0003cc70       ??Diterator@UWMap4@FH4@@QEAA?AUUnwindMapEntry4@2@XZ 000000018003dc70 f i libvcruntimed:frame.obj
 0001:0003ccf0       ??Eiterator@HandlerMap4@FH4@@QEAAAEAV012@XZ 000000018003dcf0 f i libvcruntimed:frame.obj
 0001:0003cd30       ??Eiterator@HandlerMap@__FrameHandler3@@QEAAAEAV012@XZ 000000018003dd30 f i libvcruntimed:frame.obj
 0001:0003cd50       ??Eiterator@TryBlockMap@__FrameHandler3@@QEAAAEAV012@XZ 000000018003dd50 f i libvcruntimed:frame.obj
 0001:0003cd70       ??Eiterator@UWMap4@FH4@@QEAAAEAV012@XZ 000000018003dd70 f i libvcruntimed:frame.obj
 0001:0003cdb0       ??Giterator@UWMap4@FH4@@QEBA_JAEBV012@@Z 000000018003ddb0 f i libvcruntimed:frame.obj
 0001:0003cdd0       ??Miterator@TryBlockMap4@FH4@@QEBA_NAEBV012@@Z 000000018003ddd0 f i libvcruntimed:frame.obj
 0001:0003ce10       ??Miterator@TryBlockMap@__FrameHandler3@@QEBA_NAEBV012@@Z 000000018003de10 f i libvcruntimed:frame.obj
 0001:0003ce50       ??Oiterator@UWMap4@FH4@@QEBA_NAEBV012@@Z 000000018003de50 f i libvcruntimed:frame.obj
 0001:0003ce90       ??Piterator@UWMap4@FH4@@QEBA_NAEBV012@@Z 000000018003de90 f i libvcruntimed:frame.obj
 0001:0003ced0       ??_Gbad_exception@std@@UEAAPEAXI@Z 000000018003ded0 f i libvcruntimed:frame.obj
 0001:0003ced0       ??_Ebad_exception@std@@UEAAPEAXI@Z 000000018003ded0 f i libvcruntimed:frame.obj
 0001:0003cf10       ?BuildCatchObject@__FrameHandler3@@SAXPEAUEHExceptionRecord@@PEAXPEBU_s_HandlerType@@PEBU_s_CatchableType@@@Z 000000018003df10 f   libvcruntimed:frame.obj
 0001:0003cf50       ?BuildCatchObject@__FrameHandler4@@SAXPEAUEHExceptionRecord@@PEAXPEAUHandlerType4@FH4@@PEBU_s_CatchableType@@@Z 000000018003df50 f   libvcruntimed:frame.obj
 0001:0003cf90       ?BuildCatchObjectHelper@__FrameHandler3@@SAHPEAUEHExceptionRecord@@PEAXPEBU_s_HandlerType@@PEBU_s_CatchableType@@@Z 000000018003df90 f   libvcruntimed:frame.obj
 0001:0003cfd0       ?BuildCatchObjectHelper@__FrameHandler4@@SAHPEAUEHExceptionRecord@@PEAXPEAUHandlerType4@FH4@@PEBU_s_CatchableType@@@Z 000000018003dfd0 f   libvcruntimed:frame.obj
 0001:0003d010       ?CxxCallCatchBlock@__FrameHandler3@@SAPEAXPEAU_EXCEPTION_RECORD@@@Z 000000018003e010 f   libvcruntimed:frame.obj
 0001:0003d270       ?CxxCallCatchBlock@__FrameHandler4@@SAPEAXPEAU_EXCEPTION_RECORD@@@Z 000000018003e270 f   libvcruntimed:frame.obj
 0001:0003d5a0       ?DecompHandler@HandlerMap4@FH4@@AEAAXXZ 000000018003e5a0 f i libvcruntimed:frame.obj
 0001:0003d970       ?FrameUnwindToState@__FrameHandler3@@SAXPEA_KPEAU_xDISPATCHER_CONTEXT@@PEBU_s_FuncInfo@@H@Z 000000018003e970 f   libvcruntimed:frame.obj
 0001:0003dbc0       ?FrameUnwindToState@__FrameHandler4@@SAXPEA_KPEAU_xDISPATCHER_CONTEXT@@PEAUFuncInfo4@FH4@@H@Z 000000018003ebc0 f   libvcruntimed:frame.obj
 0001:0003ded0       ?GetHandlerSearchState@__FrameHandler3@@SAHPEA_KPEAU_xDISPATCHER_CONTEXT@@PEBU_s_FuncInfo@@@Z 000000018003eed0 f i libvcruntimed:frame.obj
 0001:0003df80       ?GetHandlerSearchState@__FrameHandler4@@SAHPEA_KPEAU_xDISPATCHER_CONTEXT@@PEAUFuncInfo4@FH4@@@Z 000000018003ef80 f i libvcruntimed:frame.obj
 0001:0003e000       ?GetMaxState@__FrameHandler3@@SAHPEAU_xDISPATCHER_CONTEXT@@PEBU_s_FuncInfo@@@Z 000000018003f000 f i libvcruntimed:frame.obj
 0001:0003e020       ?GetMaxState@__FrameHandler4@@SAHPEAU_xDISPATCHER_CONTEXT@@PEAUFuncInfo4@FH4@@@Z 000000018003f020 f i libvcruntimed:frame.obj
 0001:0003e250       ?ReadEntry@UWMap4@FH4@@AEAAXPEAPEAE@Z 000000018003f250 f i libvcruntimed:frame.obj
 0001:0003e300       ?TypeMatch@__FrameHandler3@@SAHPEBU_s_HandlerType@@PEBU_s_CatchableType@@PEBU_s_ThrowInfo@@@Z 000000018003f300 f   libvcruntimed:frame.obj
 0001:0003e330       ?TypeMatch@__FrameHandler4@@SAHPEAUHandlerType4@FH4@@PEBU_s_CatchableType@@PEBU_s_ThrowInfo@@@Z 000000018003f330 f   libvcruntimed:frame.obj
 0001:0003e360       ?WalkBack@UWMap4@FH4@@AEAAXPEAPEAE@Z 000000018003f360 f i libvcruntimed:frame.obj
 0001:0003e3b0       ?WalkBack@iterator@UWMap4@FH4@@QEAAXXZ 000000018003f3b0 f i libvcruntimed:frame.obj
 0001:0003e3f0       ?WalkForward@UWMap4@FH4@@AEAAXPEAPEAE@Z 000000018003f3f0 f i libvcruntimed:frame.obj
 0001:0003e420       ?_CallMemberFunction1@@YAXQEAX00@Z 000000018003f420 f i libvcruntimed:frame.obj
 0001:0003e460       ?_CallMemberFunction2@@YAXQEAX00H@Z 000000018003f460 f i libvcruntimed:frame.obj
 0001:0003e4f0       ?begin@HandlerMap4@FH4@@QEAA?AViterator@12@XZ 000000018003f4f0 f i libvcruntimed:frame.obj
 0001:0003e520       ?begin@HandlerMap@__FrameHandler3@@QEAA?AViterator@12@XZ 000000018003f520 f i libvcruntimed:frame.obj
 0001:0003e550       ?begin@UWMap4@FH4@@QEAA?AViterator@12@XZ 000000018003f550 f i libvcruntimed:frame.obj
 0001:0003e580       ?end@HandlerMap4@FH4@@QEAA?AViterator@12@XZ 000000018003f580 f i libvcruntimed:frame.obj
 0001:0003e5b0       ?end@HandlerMap@__FrameHandler3@@QEAA?AViterator@12@XZ 000000018003f5b0 f i libvcruntimed:frame.obj
 0001:0003e5e0       ?getESTypes@__FrameHandler3@@SAPEBU_s_ESTypeList@@PEBU_s_FuncInfo@@@Z 000000018003f5e0 f i libvcruntimed:frame.obj
 0001:0003e620       ?getESTypes@__FrameHandler4@@SAPEBU_s_ESTypeList@@PEAUFuncInfo4@FH4@@@Z 000000018003f620 f i libvcruntimed:frame.obj
 0001:0003e630       ?getLastEntry@HandlerMap4@FH4@@QEAAPEAUHandlerType4@2@XZ 000000018003f630 f i libvcruntimed:frame.obj
 0001:0003e670       ?getLastEntry@HandlerMap@__FrameHandler3@@QEAAPEBU_s_HandlerType@@XZ 000000018003f670 f i libvcruntimed:frame.obj
 0001:0003e690       ?getMagicNum@__FrameHandler3@@SAIPEBU_s_FuncInfo@@@Z 000000018003f690 f i libvcruntimed:frame.obj
 0001:0003e6b0       ?getMagicNum@__FrameHandler4@@SAIPEAUFuncInfo4@FH4@@@Z 000000018003f6b0 f i libvcruntimed:frame.obj
 0001:0003e6c0       ?getNumTryBlocks@TryBlockMap4@FH4@@QEAAIXZ 000000018003f6c0 f i libvcruntimed:frame.obj
 0001:0003e6d0       ?getNumTryBlocks@TryBlockMap@__FrameHandler3@@QEAAIXZ 000000018003f6d0 f i libvcruntimed:frame.obj
 0001:0003e6f0       ?getStartStop@UWMap4@FH4@@QEAAXHHAEAViterator@12@0@Z 000000018003f6f0 f i libvcruntimed:frame.obj
 0001:0003e810       ?getStateFromIterators@UWMap4@FH4@@SAHAEBViterator@12@H0H0@Z 000000018003f810 f i libvcruntimed:frame.obj
 0001:0003e950       ?isEHs@__FrameHandler3@@SA_NPEBU_s_FuncInfo@@@Z 000000018003f950 f i libvcruntimed:frame.obj
 0001:0003e990       ?isEHs@__FrameHandler4@@SA_NPEAUFuncInfo4@FH4@@@Z 000000018003f990 f i libvcruntimed:frame.obj
 0001:0003e9b0       ?isNoExcept@__FrameHandler3@@SA_NPEBU_s_FuncInfo@@@Z 000000018003f9b0 f i libvcruntimed:frame.obj
 0001:0003e9f0       ?isNoExcept@__FrameHandler4@@SA_NPEAUFuncInfo4@FH4@@@Z 000000018003f9f0 f i libvcruntimed:frame.obj
 0001:0003ea10       ?reset@HandlerType4@FH4@@QEAAXXZ 000000018003fa10 f i libvcruntimed:frame.obj
 0001:0003ea70       ?resetBuffer@HandlerMap4@FH4@@QEAAXXZ 000000018003fa70 f i libvcruntimed:frame.obj
 0001:0003ea90       ?setBuffer@HandlerMap4@FH4@@QEAAXI@Z 000000018003fa90 f i libvcruntimed:frame.obj
 0001:0003eaf0       __BuildCatchObject         000000018003faf0 f   libvcruntimed:frame.obj
 0001:0003eb30       __BuildCatchObjectHelper   000000018003fb30 f   libvcruntimed:frame.obj
 0001:0003eb70       __TypeMatch                000000018003fb70 f   libvcruntimed:frame.obj
 0001:0003eba0       __vcrt_EncodePointer       000000018003fba0 f i libvcruntimed:frame.obj
 0001:0003ebc0       ??$?0$00@DName@@QEAA@PEBDU?$StringLifeSelector@$00@@@Z 000000018003fbc0 f i libvcruntimed:undname.obj
 0001:0003ec30       ??$?0$00@pcharNode@@QEAA@PEBDHU?$StringLifeSelector@$00@@@Z 000000018003fc30 f i libvcruntimed:undname.obj
 0001:0003ec90       ??$?0$01@DName@@QEAA@PEBDU?$StringLifeSelector@$01@@@Z 000000018003fc90 f i libvcruntimed:undname.obj
 0001:0003ed00       ??$?0$01@pcharNode@@QEAA@PEBDHU?$StringLifeSelector@$01@@@Z 000000018003fd00 f i libvcruntimed:undname.obj
 0001:0003edb0       ??$?0$0A@@DName@@QEAA@PEBDU?$StringLifeSelector@$0A@@@@Z 000000018003fdb0 f i libvcruntimed:undname.obj
 0001:0003ee20       ??$?0$0A@@pcharNode@@QEAA@PEBDHU?$StringLifeSelector@$0A@@@@Z 000000018003fe20 f i libvcruntimed:undname.obj
 0001:0003eed0       ??$?0_K$0A@@?$optional@_K@std@@QEAA@$$QEA_K@Z 000000018003fed0 f i libvcruntimed:undname.obj
 0001:0003ef20       ??$?0_K@?$_Optional_construct_base@_K@std@@QEAA@Uin_place_t@1@$$QEA_K@Z 000000018003ff20 f i libvcruntimed:undname.obj
 0001:0003ef50       ??$?0_K@?$_Optional_destruct_base@_K$00@std@@QEAA@Uin_place_t@1@$$QEA_K@Z 000000018003ff50 f i libvcruntimed:undname.obj
 0001:0003ef90       ??$append@VDNameNode@@@DName@@AEAAXPEBVDNameNode@@@Z 000000018003ff90 f i libvcruntimed:undname.obj
 0001:0003f040       ??$append@VDNameStatusNode@@@DName@@AEAAXPEBVDNameStatusNode@@@Z 0000000180040040 f i libvcruntimed:undname.obj
 0001:0003f0f0       ??$append@VcharNode@@@DName@@AEAAXPEBVcharNode@@@Z 00000001800400f0 f i libvcruntimed:undname.obj
 0001:0003f1a0       ??$append@VpDNameNode@@@DName@@AEAAXPEBVpDNameNode@@@Z 00000001800401a0 f i libvcruntimed:undname.obj
 0001:0003f250       ??$append@VpcharNode@@@DName@@AEAAXPEBVpcharNode@@@Z 0000000180040250 f i libvcruntimed:undname.obj
 0001:0003f300       ??$doPchar@$00@DName@@AEAAXPEBDH@Z 0000000180040300 f i libvcruntimed:undname.obj
 0001:0003f460       ??$doPchar@$01@DName@@AEAAXPEBDH@Z 0000000180040460 f i libvcruntimed:undname.obj
 0001:0003f5c0       ??$doPchar@$0A@@DName@@AEAAXPEBDH@Z 00000001800405c0 f i libvcruntimed:undname.obj
 0001:0003f720       ??$forward@_K@std@@YA$$QEA_KAEA_K@Z 0000000180040720 f i libvcruntimed:undname.obj
 0001:0003f730       ??$size@D$04@std@@YA_KAEAY04$$CBD@Z 0000000180040730 f i libvcruntimed:undname.obj
 0001:0003f740       ??$size@D$0EB@@std@@YA_KAEAY0EB@$$CBD@Z 0000000180040740 f i libvcruntimed:undname.obj
 0001:0003f750       ??0?$_Optional_construct_base@_K@std@@QEAA@XZ 0000000180040750 f i libvcruntimed:undname.obj
 0001:0003f770       ??0?$_Optional_destruct_base@_K$00@std@@QEAA@XZ 0000000180040770 f i libvcruntimed:undname.obj
 0001:0003f7a0       ??0?$optional@_K@std@@QEAA@XZ 00000001800407a0 f i libvcruntimed:undname.obj
 0001:0003f7c0       ??0Block@_HeapManager@@QEAA@XZ 00000001800407c0 f i libvcruntimed:undname.obj
 0001:0003f7e0       ??0DName@@QEAA@AEAPEBDD@Z  00000001800407e0 f   libvcruntimed:undname.obj
 0001:0003f9b0       ??0DName@@QEAA@AEBUStringLiteral@@@Z 00000001800409b0 f   libvcruntimed:undname.obj
 0001:0003fa10       ??0DName@@QEAA@AEBV0@@Z    0000000180040a10 f i libvcruntimed:undname.obj
 0001:0003fa40       ??0DName@@QEAA@D@Z         0000000180040a40 f   libvcruntimed:undname.obj
 0001:0003fa80       ??0DName@@QEAA@PEAV0@@Z    0000000180040a80 f   libvcruntimed:undname.obj
 0001:0003fb60       ??0DName@@QEAA@W4DNameStatus@@@Z 0000000180040b60 f   libvcruntimed:undname.obj
 0001:0003fc10       ??0DName@@QEAA@XZ          0000000180040c10 f i libvcruntimed:undname.obj
 0001:0003fc40       ??0DName@@QEAA@_J@Z        0000000180040c40 f   libvcruntimed:undname.obj
 0001:0003fd50       ??0DName@@QEAA@_K@Z        0000000180040d50 f   libvcruntimed:undname.obj
 0001:0003fe20       ??0DNameNode@@IEAA@XZ      0000000180040e20 f i libvcruntimed:undname.obj
 0001:0003fe40       ??0Replicator@@QEAA@XZ     0000000180040e40 f i libvcruntimed:undname.obj
 0001:0003fe80       ??0UnDecorator@@QEAA@PEBDP6APEADJ@ZK@Z 0000000180040e80 f i libvcruntimed:undname.obj
 0001:0003ff30       ??0_Nontrivial_dummy_type@std@@QEAA@XZ 0000000180040f30 f i libvcruntimed:undname.obj
 0001:0003ff40       ??0charNode@@QEAA@D@Z      0000000180040f40 f i libvcruntimed:undname.obj
 0001:0003ff80       ??0pDNameNode@@QEAA@PEAVDName@@@Z 0000000180040f80 f   libvcruntimed:undname.obj
 0001:00040000       ??0pairNode@@QEAA@PEBVDNameNode@@0@Z 0000000180041000 f i libvcruntimed:undname.obj
 0001:00040080       ??2@YAPEAX_KAEAV_HeapManager@@H@Z 0000000180041080 f   libvcruntimed:undname.obj
 0001:000400e0       ??4DName@@QEAAAEAV0@AEBUStringLiteral@@@Z 00000001800410e0 f   libvcruntimed:undname.obj
 0001:00040130       ??4DName@@QEAAAEAV0@AEBV0@@Z 0000000180041130 f   libvcruntimed:undname.obj
 0001:00040160       ??4DName@@QEAAAEAV0@D@Z    0000000180041160 f i libvcruntimed:undname.obj
 0001:000401a0       ??4DName@@QEAAAEAV0@PEAV0@@Z 00000001800411a0 f   libvcruntimed:undname.obj
 0001:00040270       ??4DName@@QEAAAEAV0@W4DNameStatus@@@Z 0000000180041270 f   libvcruntimed:undname.obj
 0001:00040300       ??AReplicator@@QEBA?AVDName@@H@Z 0000000180041300 f   libvcruntimed:undname.obj
 0001:00040390       ??B?$optional@_K@std@@QEBA_NXZ 0000000180041390 f i libvcruntimed:undname.obj
 0001:000403a0       ??D?$optional@_K@std@@QEGAAAEA_KXZ 00000001800413a0 f i libvcruntimed:undname.obj
 0001:00040440       ??H@YA?AVDName@@AEBUStringLiteral@@AEBV0@@Z 0000000180041440 f i libvcruntimed:undname.obj
 0001:00040490       ??H@YA?AVDName@@DAEBV0@@Z  0000000180041490 f i libvcruntimed:undname.obj
 0001:000404e0       ??H@YA?AVDName@@W4DNameStatus@@AEBV0@@Z 00000001800414e0 f i libvcruntimed:undname.obj
 0001:00040530       ??HDName@@QEBA?AV0@AEBUStringLiteral@@@Z 0000000180041530 f   libvcruntimed:undname.obj
 0001:00040580       ??HDName@@QEBA?AV0@AEBV0@@Z 0000000180041580 f   libvcruntimed:undname.obj
 0001:000405d0       ??HDName@@QEBA?AV0@D@Z     00000001800415d0 f   libvcruntimed:undname.obj
 0001:00040620       ??HDName@@QEBA?AV0@PEAV0@@Z 0000000180041620 f   libvcruntimed:undname.obj
 0001:00040670       ??HDName@@QEBA?AV0@W4DNameStatus@@@Z 0000000180041670 f   libvcruntimed:undname.obj
 0001:000406c0       ??HStringLiteral@@QEBA?AU0@H@Z 00000001800416c0 f i libvcruntimed:undname.obj
 0001:00040700       ??YDName@@QEAAAEAV0@AEBUStringLiteral@@@Z 0000000180041700 f   libvcruntimed:undname.obj
 0001:000407d0       ??YDName@@QEAAAEAV0@AEBV0@@Z 00000001800417d0 f   libvcruntimed:undname.obj
 0001:00040890       ??YDName@@QEAAAEAV0@D@Z    0000000180041890 f   libvcruntimed:undname.obj
 0001:00040930       ??YDName@@QEAAAEAV0@PEAV0@@Z 0000000180041930 f   libvcruntimed:undname.obj
 0001:00040a10       ??YDName@@QEAAAEAV0@W4DNameStatus@@@Z 0000000180041a10 f   libvcruntimed:undname.obj
 0001:00040a80       ??YReplicator@@QEAAAEAV0@AEBVDName@@@Z 0000000180041a80 f   libvcruntimed:undname.obj
 0001:00040b40       ??_5DName@@QEAAAEAV0@AEBV0@@Z 0000000180041b40 f   libvcruntimed:undname.obj
 0001:00040bb0       ??__K_l@@YA?AUStringLiteral@@PEBD_K@Z 0000000180041bb0 f i libvcruntimed:undname.obj
 0001:00040c00       ?Constructor@_HeapManager@@QEAAXP6APEAX_K@ZP6AXPEAX@Z@Z 0000000180041c00 f i libvcruntimed:undname.obj
 0001:00040c60       ?Destructor@_HeapManager@@QEAAXXZ 0000000180041c60 f i libvcruntimed:undname.obj
 0001:00040d00       ?UScore@UnDecorator@@SA?AUStringLiteral@@W4Tokens@@@Z 0000000180041d00 f   libvcruntimed:undname.obj
 0001:00040d90       ?composeDeclaration@UnDecorator@@CA?AVDName@@AEBV2@@Z 0000000180041d90 f i libvcruntimed:undname.obj
 0001:00043290       ?dbGetString@DName@@QEBAPEADXZ 0000000180044290 f   libvcruntimed:undname.obj
 0001:000432c0       ?doAccessSpecifiers@UnDecorator@@SAHXZ 00000001800442c0 f i libvcruntimed:undname.obj
 0001:000432f0       ?doAllocationLanguage@UnDecorator@@SAHXZ 00000001800442f0 f i libvcruntimed:undname.obj
 0001:00043320       ?doAllocationModel@UnDecorator@@SAHXZ 0000000180044320 f i libvcruntimed:undname.obj
 0001:00043350       ?doEcsu@UnDecorator@@SAHXZ 0000000180044350 f i libvcruntimed:undname.obj
 0001:00043380       ?doEllipsis@UnDecorator@@SAHXZ 0000000180044380 f i libvcruntimed:undname.obj
 0001:000433b0       ?doFunctionReturns@UnDecorator@@SAHXZ 00000001800443b0 f i libvcruntimed:undname.obj
 0001:000433e0       ?doMSKeywords@UnDecorator@@SAHXZ 00000001800443e0 f i libvcruntimed:undname.obj
 0001:00043410       ?doMemberTypes@UnDecorator@@SAHXZ 0000000180044410 f i libvcruntimed:undname.obj
 0001:00043440       ?doNameOnly@UnDecorator@@SAHXZ 0000000180044440 f i libvcruntimed:undname.obj
 0001:00043450       ?doNoIdentCharCheck@UnDecorator@@SAHXZ 0000000180044450 f i libvcruntimed:undname.obj
 0001:00043460       ?doPchar@DName@@AEAAXD@Z   0000000180044460 f   libvcruntimed:undname.obj
 0001:000434f0       ?doPtr64@UnDecorator@@SAHXZ 00000001800444f0 f i libvcruntimed:undname.obj
 0001:00043520       ?doRestrictionSpec@UnDecorator@@SAHXZ 0000000180044520 f i libvcruntimed:undname.obj
 0001:00043550       ?doThisTypes@UnDecorator@@SAHXZ 0000000180044550 f i libvcruntimed:undname.obj
 0001:00043580       ?doThrowTypes@UnDecorator@@SAHXZ 0000000180044580 f i libvcruntimed:undname.obj
 0001:000435b0       ?doTypeOnly@UnDecorator@@SAHXZ 00000001800445b0 f i libvcruntimed:undname.obj
 0001:000435c0       ?doUnderScore@UnDecorator@@SAHXZ 00000001800445c0 f i libvcruntimed:undname.obj
 0001:000435f0       ?getAddressOf@UnDecorator@@CA?AVDName@@XZ 00000001800445f0 f   libvcruntimed:undname.obj
 0001:00043690       ?getArgumentList@UnDecorator@@CA?AVDName@@XZ 0000000180044690 f   libvcruntimed:undname.obj
 0001:00043830       ?getArgumentTypes@UnDecorator@@CA?AVDName@@XZ 0000000180044830 f   libvcruntimed:undname.obj
 0001:00043b10       ?getArrayAccess@UnDecorator@@CA?AVDName@@XZ 0000000180044b10 f   libvcruntimed:undname.obj
 0001:00043bd0       ?getArrayObject@UnDecorator@@CA?AVDName@@XZ 0000000180044bd0 f   libvcruntimed:undname.obj
 0001:00043cf0       ?getArrayType@UnDecorator@@CA?AVDName@@AEBV2@@Z 0000000180044cf0 f i libvcruntimed:undname.obj
 0001:000440b0       ?getBasedType@UnDecorator@@CA?AVDName@@XZ 00000001800450b0 f   libvcruntimed:undname.obj
 0001:00044220       ?getBasicDataType@UnDecorator@@CA?AVDName@@AEBV2@@Z 0000000180045220 f   libvcruntimed:undname.obj
 0001:00044fc0       ?getCHPEName@UnDecorator@@QEAAPEADPEADH@Z 0000000180045fc0 f i libvcruntimed:undname.obj
 0001:00045190       ?getCallIndex@UnDecorator@@CA?AVDName@@XZ 0000000180046190 f i libvcruntimed:undname.obj
 0001:000451b0       ?getCallingConvention@UnDecorator@@CA?AVDName@@XZ 00000001800461b0 f   libvcruntimed:undname.obj
 0001:000455a0       ?getDataIndirectType@UnDecorator@@CA?AVDName@@AEBV2@W4IndirectionKind@@0H@Z 00000001800465a0 f   libvcruntimed:undname.obj
 0001:00046240       ?getDataIndirectType@UnDecorator@@CA?AVDName@@XZ 0000000180047240 f i libvcruntimed:undname.obj
 0001:00046290       ?getDataType@UnDecorator@@CA?AVDName@@PEAV2@@Z 0000000180047290 f   libvcruntimed:undname.obj
 0001:00046470       ?getDecoratedName@UnDecorator@@CA?AVDName@@XZ 0000000180047470 f   libvcruntimed:undname.obj
 0001:00046960       ?getDimension@UnDecorator@@CA?AVDName@@_N@Z 0000000180047960 f   libvcruntimed:undname.obj
 0001:00046c70       ?getDispatchTarget@UnDecorator@@CA?AVDName@@XZ 0000000180047c70 f   libvcruntimed:undname.obj
 0001:00046d40       ?getDisplacement@UnDecorator@@CA?AVDName@@XZ 0000000180047d40 f i libvcruntimed:undname.obj
 0001:00046d60       ?getECSUDataType@UnDecorator@@CA?AVDName@@XZ 0000000180047d60 f   libvcruntimed:undname.obj
 0001:000470f0       ?getECSUName@UnDecorator@@CA?AVDName@@XZ 00000001800480f0 f i libvcruntimed:undname.obj
 0001:00047110       ?getEnumType@UnDecorator@@CA?AVDName@@XZ 0000000180048110 f i libvcruntimed:undname.obj
 0001:000473a0       ?getExtendedDataIndirectType@UnDecorator@@CA?AVDName@@AEAW4IndirectionKind@@AEA_NH@Z 00000001800483a0 f   libvcruntimed:undname.obj
 0001:000476c0       ?getExternalDataType@UnDecorator@@CA?AVDName@@AEBV2@@Z 00000001800486c0 f i libvcruntimed:undname.obj
 0001:000477a0       ?getFloatingPoint@UnDecorator@@CA?AVDName@@H@Z 00000001800487a0 f   libvcruntimed:undname.obj
 0001:00047a20       ?getFunctionIndirectType@UnDecorator@@CA?AVDName@@AEBV2@@Z 0000000180048a20 f   libvcruntimed:undname.obj
 0001:00048050       ?getGuardNumber@UnDecorator@@CA?AVDName@@XZ 0000000180049050 f i libvcruntimed:undname.obj
 0001:00048070       ?getLastChar@DName@@QEBADXZ 0000000180049070 f i libvcruntimed:undname.obj
 0001:000480c0       ?getLastChar@DNameStatusNode@@UEBADXZ 00000001800490c0 f i libvcruntimed:undname.obj
 0001:00048100       ?getLastChar@charNode@@UEBADXZ 0000000180049100 f i libvcruntimed:undname.obj
 0001:00048110       ?getLastChar@pDNameNode@@UEBADXZ 0000000180049110 f i libvcruntimed:undname.obj
 0001:00048150       ?getLastChar@pairNode@@UEBADXZ 0000000180049150 f i libvcruntimed:undname.obj
 0001:000481d0       ?getLastChar@pcharNode@@UEBADXZ 00000001800491d0 f i libvcruntimed:undname.obj
 0001:00048210       ?getLexicalFrame@UnDecorator@@CA?AVDName@@XZ 0000000180049210 f i libvcruntimed:undname.obj
 0001:00048260       ?getMemberAccess@UnDecorator@@CA?AVDName@@XZ 0000000180049260 f   libvcruntimed:undname.obj
 0001:00048310       ?getMemoryWithBuffer@_HeapManager@@QEAAPEAX_K@Z 0000000180049310 f   libvcruntimed:undname.obj
 0001:00048460       ?getMemoryWithoutBuffer@_HeapManager@@QEAAPEAX_K@Z 0000000180049460 f   libvcruntimed:undname.obj
 0001:000484b0       ?getNoexcept@UnDecorator@@CA?AVDName@@XZ 00000001800494b0 f   libvcruntimed:undname.obj
 0001:00048560       ?getNumberOfDimensions@UnDecorator@@CAHXZ 0000000180049560 f   libvcruntimed:undname.obj
 0001:00048680       ?getOperatorName@UnDecorator@@CA?AVDName@@_NPEA_N@Z 0000000180049680 f i libvcruntimed:undname.obj
 0001:00049670       ?getPointerToMember@UnDecorator@@CA?AVDName@@XZ 000000018004a670 f   libvcruntimed:undname.obj
 0001:000497c0       ?getPointerType@UnDecorator@@CA?AVDName@@AEBV2@0@Z 000000018004a7c0 f i libvcruntimed:undname.obj
 0001:00049800       ?getPointerTypeArray@UnDecorator@@CA?AVDName@@AEBV2@0@Z 000000018004a800 f i libvcruntimed:undname.obj
 0001:00049840       ?getPrimaryDataType@UnDecorator@@CA?AVDName@@AEBV2@@Z 000000018004a840 f   libvcruntimed:undname.obj
 0001:00049e70       ?getPtrRefDataType@UnDecorator@@CA?AVDName@@AEBV2@H@Z 000000018004ae70 f   libvcruntimed:undname.obj
 0001:0004a260       ?getPtrRefType@UnDecorator@@CA?AVDName@@AEBV2@0W4IndirectionKind@@@Z 000000018004b260 f   libvcruntimed:undname.obj
 0001:0004a4a0       ?getReferenceType@UnDecorator@@CA?AVDName@@AEBV2@0W4IndirectionKind@@@Z 000000018004b4a0 f i libvcruntimed:undname.obj
 0001:0004a4e0       ?getRestrictionSpec@UnDecorator@@CA?AVDName@@XZ 000000018004b4e0 f   libvcruntimed:undname.obj
 0001:0004a770       ?getReturnType@UnDecorator@@CA?AVDName@@PEAV2@@Z 000000018004b770 f   libvcruntimed:undname.obj
 0001:0004a7d0       ?getScope@UnDecorator@@CA?AVDName@@XZ 000000018004b7d0 f   libvcruntimed:undname.obj
 0001:0004af30       ?getScopedName@UnDecorator@@CA?AVDName@@XZ 000000018004bf30 f   libvcruntimed:undname.obj
 0001:0004b130       ?getSignedDimension@UnDecorator@@CA?AVDName@@XZ 000000018004c130 f   libvcruntimed:undname.obj
 0001:0004b1c0       ?getStorageConvention@UnDecorator@@CA?AVDName@@XZ 000000018004c1c0 f i libvcruntimed:undname.obj
 0001:0004b1e0       ?getString@DName@@QEBAPEADPEAD0@Z 000000018004c1e0 f i libvcruntimed:undname.obj
 0001:0004b260       ?getString@DName@@QEBAPEADPEADH@Z 000000018004c260 f i libvcruntimed:undname.obj
 0001:0004b320       ?getString@DNameStatusNode@@UEBAPEADPEAD0@Z 000000018004c320 f i libvcruntimed:undname.obj
 0001:0004b370       ?getString@charNode@@UEBAPEADPEAD0@Z 000000018004c370 f i libvcruntimed:undname.obj
 0001:0004b3b0       ?getString@pDNameNode@@UEBAPEADPEAD0@Z 000000018004c3b0 f i libvcruntimed:undname.obj
 0001:0004b410       ?getString@pairNode@@UEBAPEADPEAD0@Z 000000018004c410 f i libvcruntimed:undname.obj
 0001:0004b4e0       ?getString@pcharNode@@UEBAPEADPEAD0@Z 000000018004c4e0 f i libvcruntimed:undname.obj
 0001:0004b520       ?getStringEncoding@UnDecorator@@CA?AVDName@@W4PrefixKind@@H@Z 000000018004c520 f   libvcruntimed:undname.obj
 0001:0004b680       ?getStringHelper@@YAPEADPEADPEBD1H@Z 000000018004c680 f i libvcruntimed:undname.obj
 0001:0004b6f0       ?getStringObject@UnDecorator@@CA?AVDName@@XZ 000000018004c6f0 f   libvcruntimed:undname.obj
 0001:0004b7d0       ?getSymbolName@UnDecorator@@CA?AVDName@@XZ 000000018004c7d0 f i libvcruntimed:undname.obj
 0001:0004b870       ?getTemplateArgumentList@UnDecorator@@CA?AVDName@@XZ 000000018004c870 f   libvcruntimed:undname.obj
 0001:0004bbb0       ?getTemplateName@UnDecorator@@CA?AVDName@@_N@Z 000000018004cbb0 f   libvcruntimed:undname.obj
 0001:0004bdf0       ?getTemplateNonTypeArgument@UnDecorator@@CA?AVDName@@XZ 000000018004cdf0 f   libvcruntimed:undname.obj
 0001:0004c690       ?getTemplateTypeArgument@UnDecorator@@CA?AVDName@@XZ 000000018004d690 f   libvcruntimed:undname.obj
 0001:0004c900       ?getThisType@UnDecorator@@CA?AVDName@@XZ 000000018004d900 f i libvcruntimed:undname.obj
 0001:0004c950       ?getThrowTypes@UnDecorator@@CA?AVDName@@XZ 000000018004d950 f   libvcruntimed:undname.obj
 0001:0004c9a0       ?getTypeEncoding@UnDecorator@@CAHXZ 000000018004d9a0 f i libvcruntimed:undname.obj
 0001:0004d600       ?getUndecoratedName@UnDecorator@@QEAAPEADPEADH@Z 000000018004e600 f i libvcruntimed:undname.obj
 0001:0004d7f0       ?getUnionObject@UnDecorator@@CA?AVDName@@XZ 000000018004e7f0 f   libvcruntimed:undname.obj
 0001:0004d900       ?getVCallThunkType@UnDecorator@@CA?AVDName@@XZ 000000018004e900 f i libvcruntimed:undname.obj
 0001:0004d9b0       ?getValue@UnDecorator@@CA?AV?$optional@_K@std@@XZ 000000018004e9b0 f   libvcruntimed:undname.obj
 0001:0004da80       ?getValueObject@UnDecorator@@CA?AVDName@@XZ 000000018004ea80 f   libvcruntimed:undname.obj
 0001:0004dca0       ?getVbTableType@UnDecorator@@CA?AVDName@@AEBV2@@Z 000000018004eca0 f i libvcruntimed:undname.obj
 0001:0004dcd0       ?getVdispMapType@UnDecorator@@CA?AVDName@@AEBV2@@Z 000000018004ecd0 f i libvcruntimed:undname.obj
 0001:0004dd90       ?getVfTableType@UnDecorator@@CA?AVDName@@AEBV2@@Z 000000018004ed90 f i libvcruntimed:undname.obj
 0001:0004e030       ?getZName@UnDecorator@@CA?AVDName@@_N0@Z 000000018004f030 f   libvcruntimed:undname.obj
 0001:0004e4a0       ?haveTemplateParameters@UnDecorator@@SAHXZ 000000018004f4a0 f i libvcruntimed:undname.obj
 0001:0004e4b0       ?isArray@DName@@QEBAHXZ    000000018004f4b0 f i libvcruntimed:undname.obj
 0001:0004e4d0       ?isComArray@DName@@QEBAHXZ 000000018004f4d0 f i libvcruntimed:undname.obj
 0001:0004e4f0       ?isEmpty@DName@@QEBAHXZ    000000018004f4f0 f i libvcruntimed:undname.obj
 0001:0004e520       ?isFull@Replicator@@QEBAHXZ 000000018004f520 f i libvcruntimed:undname.obj
 0001:0004e550       ?isNoTE@DName@@QEBAHXZ     000000018004f550 f i libvcruntimed:undname.obj
 0001:0004e570       ?isPinPtr@DName@@QEBAHXZ   000000018004f570 f i libvcruntimed:undname.obj
 0001:0004e590       ?isPtrRef@DName@@QEBAHXZ   000000018004f590 f i libvcruntimed:undname.obj
 0001:0004e5b0       ?isUDC@DName@@QEBAHXZ      000000018004f5b0 f i libvcruntimed:undname.obj
 0001:0004e600       ?isUDTThunk@DName@@QEBAHXZ 000000018004f600 f i libvcruntimed:undname.obj
 0001:0004e650       ?isVCallThunk@DName@@QEBAHXZ 000000018004f650 f i libvcruntimed:undname.obj
 0001:0004e670       ?isValid@DName@@QEBAHXZ    000000018004f670 f i libvcruntimed:undname.obj
 0001:0004e6b0       ?length@DName@@QEBAHXZ     000000018004f6b0 f i libvcruntimed:undname.obj
 0001:0004e700       ?length@DNameStatusNode@@UEBAHXZ 000000018004f700 f i libvcruntimed:undname.obj
 0001:0004e710       ?length@charNode@@UEBAHXZ  000000018004f710 f i libvcruntimed:undname.obj
 0001:0004e720       ?length@pDNameNode@@UEBAHXZ 000000018004f720 f i libvcruntimed:undname.obj
 0001:0004e760       ?length@pairNode@@UEBAHXZ  000000018004f760 f i libvcruntimed:undname.obj
 0001:0004e7f0       ?length@pcharNode@@UEBAHXZ 000000018004f7f0 f i libvcruntimed:undname.obj
 0001:0004e800       ?make@DNameStatusNode@@SAPEBV1@W4DNameStatus@@@Z 000000018004f800 f i libvcruntimed:undname.obj
 0001:0004e850       ?parseDecoratedName@UnDecorator@@CA?AVDName@@XZ 000000018004f850 f   libvcruntimed:undname.obj
 0001:0004ea40       ?raw_length@DNameStatusNode@@UEBAHXZ 000000018004fa40 f i libvcruntimed:undname.obj
 0001:0004ea60       ?raw_length@charNode@@UEBAHXZ 000000018004fa60 f i libvcruntimed:undname.obj
 0001:0004ea80       ?raw_length@pDNameNode@@UEBAHXZ 000000018004fa80 f i libvcruntimed:undname.obj
 0001:0004ea90       ?raw_length@pairNode@@UEBAHXZ 000000018004fa90 f i libvcruntimed:undname.obj
 0001:0004eaa0       ?raw_length@pcharNode@@UEBAHXZ 000000018004faa0 f i libvcruntimed:undname.obj
 0001:0004eac0       ?setIsArray@DName@@QEAAXXZ 000000018004fac0 f i libvcruntimed:undname.obj
 0001:0004eae0       ?setIsComArray@DName@@QEAAXXZ 000000018004fae0 f i libvcruntimed:undname.obj
 0001:0004eb00       ?setIsNoTE@DName@@QEAAXXZ  000000018004fb00 f i libvcruntimed:undname.obj
 0001:0004eb20       ?setIsPinPtr@DName@@QEAAXXZ 000000018004fb20 f i libvcruntimed:undname.obj
 0001:0004eb40       ?setIsUDC@DName@@QEAAXXZ   000000018004fb40 f i libvcruntimed:undname.obj
 0001:0004eb70       ?setIsVCallThunk@DName@@QEAAXXZ 000000018004fb70 f i libvcruntimed:undname.obj
 0001:0004eb90       ?setPtrRef@DName@@QEAAAEAV1@XZ 000000018004fb90 f i libvcruntimed:undname.obj
 0001:0004ebb0       ?status@DName@@QEBA?AW4DNameStatus@@XZ 000000018004fbb0 f i libvcruntimed:undname.obj
 0001:0004ece0       __unDName                  000000018004fce0 f   libvcruntimed:undname.obj
 0001:0004ed40       __unDNameEx                000000018004fd40 f   libvcruntimed:undname.obj
 0001:0004ee00       unDNameGenerateCHPE        000000018004fe00 f   libvcruntimed:undname.obj
 0001:0004eeb0       ??$__crt_interlocked_exchange_pointer@UHINSTANCE__@@PEAU1@@@YAPEAUHINSTANCE__@@PEDSEAU0@QEAU0@@Z 000000018004feb0 f i libvcruntimed:winapi_downlevel.obj
 0001:0004eed0       ??$__crt_interlocked_exchange_pointer@UHINSTANCE__@@PEAX@@YAPEAUHINSTANCE__@@PEDSEAU0@QEAX@Z 000000018004fed0 f i libvcruntimed:winapi_downlevel.obj
 0001:0004eef0       ??$__crt_interlocked_exchange_pointer@XPEAX@@YAPEAXPEDSEAXQEAX@Z 000000018004fef0 f i libvcruntimed:winapi_downlevel.obj
 0001:0004ef10       ??$__crt_interlocked_read_pointer@UHINSTANCE__@@@@YAPEAUHINSTANCE__@@PEDSEAU0@@Z 000000018004ff10 f i libvcruntimed:winapi_downlevel.obj
 0001:0004ef30       ??$__crt_interlocked_read_pointer@X@@YAPEAXPEDSEAX@Z 000000018004ff30 f i libvcruntimed:winapi_downlevel.obj
 0001:0004f440       __vcrt_FlsAlloc            0000000180050440 f   libvcruntimed:winapi_downlevel.obj
 0001:0004f490       __vcrt_FlsFree             0000000180050490 f   libvcruntimed:winapi_downlevel.obj
 0001:0004f4e0       __vcrt_FlsGetValue         00000001800504e0 f   libvcruntimed:winapi_downlevel.obj
 0001:0004f530       __vcrt_FlsSetValue         0000000180050530 f   libvcruntimed:winapi_downlevel.obj
 0001:0004f590       __vcrt_InitializeCriticalSectionEx 0000000180050590 f   libvcruntimed:winapi_downlevel.obj
 0001:0004f610       _CallSettingFrame          0000000180050610 f   libvcruntimed:handlers.obj
 0001:0004f660       _CallSettingFrame_LookupContinuationIndex 0000000180050660 f   libvcruntimed:handlers.obj
 0001:0004f690       _CallSettingFrame_NotifyContinuationAddr 0000000180050690 f   libvcruntimed:handlers.obj
 0001:0004f6c0       _CallSettingFrameEncoded   00000001800506c0 f   libvcruntimed:handlers.obj
 0001:0004f710       ??$?0AEBV?$stream_output_adapter@D@__crt_stdio_output@@AEB_KAEBQEBDAEAV__crt_cached_ptd_host@@AEBQEAD@?$format_validation_base@DV?$stream_output_adapter@D@__crt_stdio_output@@@__crt_stdio_output@@IEAA@AEBV?$stream_output_adapter@D@1@AEB_KAEBQEBDAEAV__crt_cached_ptd_host@@AEBQEAD@Z 0000000180050710 f i libucrtd:output.obj
 0001:0004f760       ??$?0AEBV?$stream_output_adapter@D@__crt_stdio_output@@AEB_KAEBQEBDAEAV__crt_cached_ptd_host@@AEBQEAD@?$positional_parameter_base@DV?$stream_output_adapter@D@__crt_stdio_output@@@__crt_stdio_output@@IEAA@AEBV?$stream_output_adapter@D@1@AEB_KAEBQEBDAEAV__crt_cached_ptd_host@@AEBQEAD@Z 0000000180050760 f i libucrtd:output.obj
 0001:0004f800       ??$?0AEBV?$stream_output_adapter@D@__crt_stdio_output@@AEB_KAEBQEBDAEAV__crt_cached_ptd_host@@AEBQEAD@?$standard_base@DV?$stream_output_adapter@D@__crt_stdio_output@@@__crt_stdio_output@@IEAA@AEBV?$stream_output_adapter@D@1@AEB_KAEBQEBDAEAV__crt_cached_ptd_host@@AEBQEAD@Z 0000000180050800 f i libucrtd:output.obj
 0001:0004f870       ??$?0AEBV?$stream_output_adapter@_W@__crt_stdio_output@@AEB_KAEBQEB_WAEAV__crt_cached_ptd_host@@AEBQEAD@?$format_validation_base@_WV?$stream_output_adapter@_W@__crt_stdio_output@@@__crt_stdio_output@@IEAA@AEBV?$stream_output_adapter@_W@1@AEB_KAEBQEB_WAEAV__crt_cached_ptd_host@@AEBQEAD@Z 0000000180050870 f i libucrtd:output.obj
 0001:0004f8c0       ??$?0AEBV?$stream_output_adapter@_W@__crt_stdio_output@@AEB_KAEBQEB_WAEAV__crt_cached_ptd_host@@AEBQEAD@?$positional_parameter_base@_WV?$stream_output_adapter@_W@__crt_stdio_output@@@__crt_stdio_output@@IEAA@AEBV?$stream_output_adapter@_W@1@AEB_KAEBQEB_WAEAV__crt_cached_ptd_host@@AEBQEAD@Z 00000001800508c0 f i libucrtd:output.obj
 0001:0004f960       ??$?0AEBV?$stream_output_adapter@_W@__crt_stdio_output@@AEB_KAEBQEB_WAEAV__crt_cached_ptd_host@@AEBQEAD@?$standard_base@_WV?$stream_output_adapter@_W@__crt_stdio_output@@@__crt_stdio_output@@IEAA@AEBV?$stream_output_adapter@_W@1@AEB_KAEBQEB_WAEAV__crt_cached_ptd_host@@AEBQEAD@Z 0000000180050960 f i libucrtd:output.obj
 0001:0004f9d0       ??$?0AEBV?$string_output_adapter@D@__crt_stdio_output@@AEB_KAEBQEBDAEAV__crt_cached_ptd_host@@AEBQEAD@?$format_validation_base@DV?$string_output_adapter@D@__crt_stdio_output@@@__crt_stdio_output@@IEAA@AEBV?$string_output_adapter@D@1@AEB_KAEBQEBDAEAV__crt_cached_ptd_host@@AEBQEAD@Z 00000001800509d0 f i libucrtd:output.obj
 0001:0004fa20       ??$?0AEBV?$string_output_adapter@D@__crt_stdio_output@@AEB_KAEBQEBDAEAV__crt_cached_ptd_host@@AEBQEAD@?$positional_parameter_base@DV?$string_output_adapter@D@__crt_stdio_output@@@__crt_stdio_output@@IEAA@AEBV?$string_output_adapter@D@1@AEB_KAEBQEBDAEAV__crt_cached_ptd_host@@AEBQEAD@Z 0000000180050a20 f i libucrtd:output.obj
 0001:0004fac0       ??$?0AEBV?$string_output_adapter@D@__crt_stdio_output@@AEB_KAEBQEBDAEAV__crt_cached_ptd_host@@AEBQEAD@?$standard_base@DV?$string_output_adapter@D@__crt_stdio_output@@@__crt_stdio_output@@IEAA@AEBV?$string_output_adapter@D@1@AEB_KAEBQEBDAEAV__crt_cached_ptd_host@@AEBQEAD@Z 0000000180050ac0 f i libucrtd:output.obj
 0001:0004fb30       ??$?0AEBV?$string_output_adapter@_W@__crt_stdio_output@@AEB_KAEBQEB_WAEAV__crt_cached_ptd_host@@AEBQEAD@?$format_validation_base@_WV?$string_output_adapter@_W@__crt_stdio_output@@@__crt_stdio_output@@IEAA@AEBV?$string_output_adapter@_W@1@AEB_KAEBQEB_WAEAV__crt_cached_ptd_host@@AEBQEAD@Z 0000000180050b30 f i libucrtd:output.obj
 0001:0004fb80       ??$?0AEBV?$string_output_adapter@_W@__crt_stdio_output@@AEB_KAEBQEB_WAEAV__crt_cached_ptd_host@@AEBQEAD@?$positional_parameter_base@_WV?$string_output_adapter@_W@__crt_stdio_output@@@__crt_stdio_output@@IEAA@AEBV?$string_output_adapter@_W@1@AEB_KAEBQEB_WAEAV__crt_cached_ptd_host@@AEBQEAD@Z 0000000180050b80 f i libucrtd:output.obj
 0001:0004fc20       ??$?0AEBV?$string_output_adapter@_W@__crt_stdio_output@@AEB_KAEBQEB_WAEAV__crt_cached_ptd_host@@AEBQEAD@?$standard_base@_WV?$string_output_adapter@_W@__crt_stdio_output@@@__crt_stdio_output@@IEAA@AEBV?$string_output_adapter@_W@1@AEB_KAEBQEB_WAEAV__crt_cached_ptd_host@@AEBQEAD@Z 0000000180050c20 f i libucrtd:output.obj
 0001:000500b0       ??$__crt_interlocked_read@J@@YAJPEDJ@Z 00000001800510b0 f i libucrtd:output.obj
 0001:000500d0       ??$_tcstol_internal@DPEAPEAD$0A@@@YAJAEAV__crt_cached_ptd_host@@QEBDQEAPEADH@Z 00000001800510d0 f i libucrtd:output.obj
 0001:00050120       ??$_tcstol_internal@_WPEAPEA_W$0A@@@YAJAEAV__crt_cached_ptd_host@@QEB_WQEAPEA_WH@Z 0000000180051120 f i libucrtd:output.obj
 0001:00054140       ??$count@D@formatting_buffer@__crt_stdio_output@@QEBA_KXZ 0000000180055140 f i libucrtd:output.obj
 0001:00054190       ??$count@_W@formatting_buffer@__crt_stdio_output@@QEBA_KXZ 0000000180055190 f i libucrtd:output.obj
 0001:000541e0       ??$data@D@formatting_buffer@__crt_stdio_output@@QEAAPEADXZ 00000001800551e0 f i libucrtd:output.obj
 0001:00054230       ??$data@_W@formatting_buffer@__crt_stdio_output@@QEAAPEA_WXZ 0000000180055230 f i libucrtd:output.obj
 0001:00054280       ??$ensure_buffer_is_big_enough@D@formatting_buffer@__crt_stdio_output@@QEAA_N_KAEAV__crt_cached_ptd_host@@@Z 0000000180055280 f i libucrtd:output.obj
 0001:000543c0       ??$ensure_buffer_is_big_enough@_W@formatting_buffer@__crt_stdio_output@@QEAA_N_KAEAV__crt_cached_ptd_host@@@Z 00000001800553c0 f i libucrtd:output.obj
 0001:00054500       ??$extract_argument_from_va_list@C_J@?$positional_parameter_base@DV?$stream_output_adapter@D@__crt_stdio_output@@@__crt_stdio_output@@IEAA_NAEA_J@Z 0000000180055500 f i libucrtd:output.obj
 0001:000546c0       ??$extract_argument_from_va_list@C_J@?$positional_parameter_base@DV?$string_output_adapter@D@__crt_stdio_output@@@__crt_stdio_output@@IEAA_NAEA_J@Z 00000001800556c0 f i libucrtd:output.obj
 0001:00054880       ??$extract_argument_from_va_list@C_J@?$positional_parameter_base@_WV?$stream_output_adapter@_W@__crt_stdio_output@@@__crt_stdio_output@@IEAA_NAEA_J@Z 0000000180055880 f i libucrtd:output.obj
 0001:00054a40       ??$extract_argument_from_va_list@C_J@?$positional_parameter_base@_WV?$string_output_adapter@_W@__crt_stdio_output@@@__crt_stdio_output@@IEAA_NAEA_J@Z 0000000180055a40 f i libucrtd:output.obj
 0001:00054c00       ??$extract_argument_from_va_list@C_J@?$standard_base@DV?$stream_output_adapter@D@__crt_stdio_output@@@__crt_stdio_output@@IEAA_NAEA_J@Z 0000000180055c00 f i libucrtd:output.obj
 0001:00054c40       ??$extract_argument_from_va_list@C_J@?$standard_base@DV?$string_output_adapter@D@__crt_stdio_output@@@__crt_stdio_output@@IEAA_NAEA_J@Z 0000000180055c40 f i libucrtd:output.obj
 0001:00054c80       ??$extract_argument_from_va_list@C_J@?$standard_base@_WV?$stream_output_adapter@_W@__crt_stdio_output@@@__crt_stdio_output@@IEAA_NAEA_J@Z 0000000180055c80 f i libucrtd:output.obj
 0001:00054cc0       ??$extract_argument_from_va_list@C_J@?$standard_base@_WV?$string_output_adapter@_W@__crt_stdio_output@@@__crt_stdio_output@@IEAA_NAEA_J@Z 0000000180055cc0 f i libucrtd:output.obj
 0001:00054d00       ??$extract_argument_from_va_list@E_J@?$positional_parameter_base@DV?$stream_output_adapter@D@__crt_stdio_output@@@__crt_stdio_output@@IEAA_NAEA_J@Z 0000000180055d00 f i libucrtd:output.obj
 0001:00054ec0       ??$extract_argument_from_va_list@E_J@?$positional_parameter_base@DV?$string_output_adapter@D@__crt_stdio_output@@@__crt_stdio_output@@IEAA_NAEA_J@Z 0000000180055ec0 f i libucrtd:output.obj
 0001:00055080       ??$extract_argument_from_va_list@E_J@?$positional_parameter_base@_WV?$stream_output_adapter@_W@__crt_stdio_output@@@__crt_stdio_output@@IEAA_NAEA_J@Z 0000000180056080 f i libucrtd:output.obj
 0001:00055240       ??$extract_argument_from_va_list@E_J@?$positional_parameter_base@_WV?$string_output_adapter@_W@__crt_stdio_output@@@__crt_stdio_output@@IEAA_NAEA_J@Z 0000000180056240 f i libucrtd:output.obj
 0001:00055400       ??$extract_argument_from_va_list@E_J@?$standard_base@DV?$stream_output_adapter@D@__crt_stdio_output@@@__crt_stdio_output@@IEAA_NAEA_J@Z 0000000180056400 f i libucrtd:output.obj
 0001:00055440       ??$extract_argument_from_va_list@E_J@?$standard_base@DV?$string_output_adapter@D@__crt_stdio_output@@@__crt_stdio_output@@IEAA_NAEA_J@Z 0000000180056440 f i libucrtd:output.obj
 0001:00055480       ??$extract_argument_from_va_list@E_J@?$standard_base@_WV?$stream_output_adapter@_W@__crt_stdio_output@@@__crt_stdio_output@@IEAA_NAEA_J@Z 0000000180056480 f i libucrtd:output.obj
 0001:000554c0       ??$extract_argument_from_va_list@E_J@?$standard_base@_WV?$string_output_adapter@_W@__crt_stdio_output@@@__crt_stdio_output@@IEAA_NAEA_J@Z 00000001800564c0 f i libucrtd:output.obj
 0001:00055500       ??$extract_argument_from_va_list@F_J@?$positional_parameter_base@DV?$stream_output_adapter@D@__crt_stdio_output@@@__crt_stdio_output@@IEAA_NAEA_J@Z 0000000180056500 f i libucrtd:output.obj
 0001:000556c0       ??$extract_argument_from_va_list@F_J@?$positional_parameter_base@DV?$string_output_adapter@D@__crt_stdio_output@@@__crt_stdio_output@@IEAA_NAEA_J@Z 00000001800566c0 f i libucrtd:output.obj
 0001:00055880       ??$extract_argument_from_va_list@F_J@?$positional_parameter_base@_WV?$stream_output_adapter@_W@__crt_stdio_output@@@__crt_stdio_output@@IEAA_NAEA_J@Z 0000000180056880 f i libucrtd:output.obj
 0001:00055a40       ??$extract_argument_from_va_list@F_J@?$positional_parameter_base@_WV?$string_output_adapter@_W@__crt_stdio_output@@@__crt_stdio_output@@IEAA_NAEA_J@Z 0000000180056a40 f i libucrtd:output.obj
 0001:00055c00       ??$extract_argument_from_va_list@F_J@?$standard_base@DV?$stream_output_adapter@D@__crt_stdio_output@@@__crt_stdio_output@@IEAA_NAEA_J@Z 0000000180056c00 f i libucrtd:output.obj
 0001:00055c40       ??$extract_argument_from_va_list@F_J@?$standard_base@DV?$string_output_adapter@D@__crt_stdio_output@@@__crt_stdio_output@@IEAA_NAEA_J@Z 0000000180056c40 f i libucrtd:output.obj
 0001:00055c80       ??$extract_argument_from_va_list@F_J@?$standard_base@_WV?$stream_output_adapter@_W@__crt_stdio_output@@@__crt_stdio_output@@IEAA_NAEA_J@Z 0000000180056c80 f i libucrtd:output.obj
 0001:00055cc0       ??$extract_argument_from_va_list@F_J@?$standard_base@_WV?$string_output_adapter@_W@__crt_stdio_output@@@__crt_stdio_output@@IEAA_NAEA_J@Z 0000000180056cc0 f i libucrtd:output.obj
 0001:00055d00       ??$extract_argument_from_va_list@GD@?$positional_parameter_base@DV?$stream_output_adapter@D@__crt_stdio_output@@@__crt_stdio_output@@IEAA_NAEAD@Z 0000000180056d00 f i libucrtd:output.obj
 0001:00055ec0       ??$extract_argument_from_va_list@GD@?$positional_parameter_base@DV?$string_output_adapter@D@__crt_stdio_output@@@__crt_stdio_output@@IEAA_NAEAD@Z 0000000180056ec0 f i libucrtd:output.obj
 0001:00056080       ??$extract_argument_from_va_list@GD@?$standard_base@DV?$stream_output_adapter@D@__crt_stdio_output@@@__crt_stdio_output@@IEAA_NAEAD@Z 0000000180057080 f i libucrtd:output.obj
 0001:000560b0       ??$extract_argument_from_va_list@GD@?$standard_base@DV?$string_output_adapter@D@__crt_stdio_output@@@__crt_stdio_output@@IEAA_NAEAD@Z 00000001800570b0 f i libucrtd:output.obj
 0001:000560e0       ??$extract_argument_from_va_list@G_J@?$positional_parameter_base@DV?$stream_output_adapter@D@__crt_stdio_output@@@__crt_stdio_output@@IEAA_NAEA_J@Z 00000001800570e0 f i libucrtd:output.obj
 0001:000562a0       ??$extract_argument_from_va_list@G_J@?$positional_parameter_base@DV?$string_output_adapter@D@__crt_stdio_output@@@__crt_stdio_output@@IEAA_NAEA_J@Z 00000001800572a0 f i libucrtd:output.obj
 0001:00056460       ??$extract_argument_from_va_list@G_J@?$positional_parameter_base@_WV?$stream_output_adapter@_W@__crt_stdio_output@@@__crt_stdio_output@@IEAA_NAEA_J@Z 0000000180057460 f i libucrtd:output.obj
 0001:00056620       ??$extract_argument_from_va_list@G_J@?$positional_parameter_base@_WV?$string_output_adapter@_W@__crt_stdio_output@@@__crt_stdio_output@@IEAA_NAEA_J@Z 0000000180057620 f i libucrtd:output.obj
 0001:000567e0       ??$extract_argument_from_va_list@G_J@?$standard_base@DV?$stream_output_adapter@D@__crt_stdio_output@@@__crt_stdio_output@@IEAA_NAEA_J@Z 00000001800577e0 f i libucrtd:output.obj
 0001:00056820       ??$extract_argument_from_va_list@G_J@?$standard_base@DV?$string_output_adapter@D@__crt_stdio_output@@@__crt_stdio_output@@IEAA_NAEA_J@Z 0000000180057820 f i libucrtd:output.obj
 0001:00056860       ??$extract_argument_from_va_list@G_J@?$standard_base@_WV?$stream_output_adapter@_W@__crt_stdio_output@@@__crt_stdio_output@@IEAA_NAEA_J@Z 0000000180057860 f i libucrtd:output.obj
 0001:000568a0       ??$extract_argument_from_va_list@G_J@?$standard_base@_WV?$string_output_adapter@_W@__crt_stdio_output@@@__crt_stdio_output@@IEAA_NAEA_J@Z 00000001800578a0 f i libucrtd:output.obj
 0001:000568e0       ??$extract_argument_from_va_list@H_J@?$positional_parameter_base@DV?$stream_output_adapter@D@__crt_stdio_output@@@__crt_stdio_output@@IEAA_NAEA_J@Z 00000001800578e0 f i libucrtd:output.obj
 0001:00056aa0       ??$extract_argument_from_va_list@H_J@?$positional_parameter_base@DV?$string_output_adapter@D@__crt_stdio_output@@@__crt_stdio_output@@IEAA_NAEA_J@Z 0000000180057aa0 f i libucrtd:output.obj
 0001:00056c60       ??$extract_argument_from_va_list@H_J@?$positional_parameter_base@_WV?$stream_output_adapter@_W@__crt_stdio_output@@@__crt_stdio_output@@IEAA_NAEA_J@Z 0000000180057c60 f i libucrtd:output.obj
 0001:00056e20       ??$extract_argument_from_va_list@H_J@?$positional_parameter_base@_WV?$string_output_adapter@_W@__crt_stdio_output@@@__crt_stdio_output@@IEAA_NAEA_J@Z 0000000180057e20 f i libucrtd:output.obj
 0001:00056fe0       ??$extract_argument_from_va_list@H_J@?$standard_base@DV?$stream_output_adapter@D@__crt_stdio_output@@@__crt_stdio_output@@IEAA_NAEA_J@Z 0000000180057fe0 f i libucrtd:output.obj
 0001:00057010       ??$extract_argument_from_va_list@H_J@?$standard_base@DV?$string_output_adapter@D@__crt_stdio_output@@@__crt_stdio_output@@IEAA_NAEA_J@Z 0000000180058010 f i libucrtd:output.obj
 0001:00057040       ??$extract_argument_from_va_list@H_J@?$standard_base@_WV?$stream_output_adapter@_W@__crt_stdio_output@@@__crt_stdio_output@@IEAA_NAEA_J@Z 0000000180058040 f i libucrtd:output.obj
 0001:00057070       ??$extract_argument_from_va_list@H_J@?$standard_base@_WV?$string_output_adapter@_W@__crt_stdio_output@@@__crt_stdio_output@@IEAA_NAEA_J@Z 0000000180058070 f i libucrtd:output.obj
 0001:000570a0       ??$extract_argument_from_va_list@I_J@?$positional_parameter_base@DV?$stream_output_adapter@D@__crt_stdio_output@@@__crt_stdio_output@@IEAA_NAEA_J@Z 00000001800580a0 f i libucrtd:output.obj
 0001:00057260       ??$extract_argument_from_va_list@I_J@?$positional_parameter_base@DV?$string_output_adapter@D@__crt_stdio_output@@@__crt_stdio_output@@IEAA_NAEA_J@Z 0000000180058260 f i libucrtd:output.obj
 0001:00057420       ??$extract_argument_from_va_list@I_J@?$positional_parameter_base@_WV?$stream_output_adapter@_W@__crt_stdio_output@@@__crt_stdio_output@@IEAA_NAEA_J@Z 0000000180058420 f i libucrtd:output.obj
 0001:000575e0       ??$extract_argument_from_va_list@I_J@?$positional_parameter_base@_WV?$string_output_adapter@_W@__crt_stdio_output@@@__crt_stdio_output@@IEAA_NAEA_J@Z 00000001800585e0 f i libucrtd:output.obj
 0001:000577a0       ??$extract_argument_from_va_list@I_J@?$standard_base@DV?$stream_output_adapter@D@__crt_stdio_output@@@__crt_stdio_output@@IEAA_NAEA_J@Z 00000001800587a0 f i libucrtd:output.obj
 0001:000577d0       ??$extract_argument_from_va_list@I_J@?$standard_base@DV?$string_output_adapter@D@__crt_stdio_output@@@__crt_stdio_output@@IEAA_NAEA_J@Z 00000001800587d0 f i libucrtd:output.obj
 0001:00057800       ??$extract_argument_from_va_list@I_J@?$standard_base@_WV?$stream_output_adapter@_W@__crt_stdio_output@@@__crt_stdio_output@@IEAA_NAEA_J@Z 0000000180058800 f i libucrtd:output.obj
 0001:00057830       ??$extract_argument_from_va_list@I_J@?$standard_base@_WV?$string_output_adapter@_W@__crt_stdio_output@@@__crt_stdio_output@@IEAA_NAEA_J@Z 0000000180058830 f i libucrtd:output.obj
 0001:00057860       ??$extract_argument_from_va_list@PEADPEAD@?$positional_parameter_base@DV?$stream_output_adapter@D@__crt_stdio_output@@@__crt_stdio_output@@IEAA_NAEAPEAD@Z 0000000180058860 f i libucrtd:output.obj
 0001:00057a20       ??$extract_argument_from_va_list@PEADPEAD@?$positional_parameter_base@DV?$string_output_adapter@D@__crt_stdio_output@@@__crt_stdio_output@@IEAA_NAEAPEAD@Z 0000000180058a20 f i libucrtd:output.obj
 0001:00057be0       ??$extract_argument_from_va_list@PEADPEAD@?$positional_parameter_base@_WV?$stream_output_adapter@_W@__crt_stdio_output@@@__crt_stdio_output@@IEAA_NAEAPEAD@Z 0000000180058be0 f i libucrtd:output.obj
 0001:00057da0       ??$extract_argument_from_va_list@PEADPEAD@?$positional_parameter_base@_WV?$string_output_adapter@_W@__crt_stdio_output@@@__crt_stdio_output@@IEAA_NAEAPEAD@Z 0000000180058da0 f i libucrtd:output.obj
 0001:00057f60       ??$extract_argument_from_va_list@PEADPEAD@?$standard_base@DV?$stream_output_adapter@D@__crt_stdio_output@@@__crt_stdio_output@@IEAA_NAEAPEAD@Z 0000000180058f60 f i libucrtd:output.obj
 0001:00057f90       ??$extract_argument_from_va_list@PEADPEAD@?$standard_base@DV?$string_output_adapter@D@__crt_stdio_output@@@__crt_stdio_output@@IEAA_NAEAPEAD@Z 0000000180058f90 f i libucrtd:output.obj
 0001:00057fc0       ??$extract_argument_from_va_list@PEADPEAD@?$standard_base@_WV?$stream_output_adapter@_W@__crt_stdio_output@@@__crt_stdio_output@@IEAA_NAEAPEAD@Z 0000000180058fc0 f i libucrtd:output.obj
 0001:00057ff0       ??$extract_argument_from_va_list@PEADPEAD@?$standard_base@_WV?$string_output_adapter@_W@__crt_stdio_output@@@__crt_stdio_output@@IEAA_NAEAPEAD@Z 0000000180058ff0 f i libucrtd:output.obj
 0001:00058020       ??$extract_argument_from_va_list@PEAUansi_string@?1??type_case_Z@?$output_processor@DV?$stream_output_adapter@D@__crt_stdio_output@@V?$format_validation_base@DV?$stream_output_adapter@D@__crt_stdio_output@@@2@@__crt_stdio_output@@AEAA_NXZ@PEAU1?1??234@AEAA_NXZ@@?$standard_base@DV?$stream_output_adapter@D@__crt_stdio_output@@@__crt_stdio_output@@IEAA_NAEAPEAUansi_string@?1??type_case_Z@?$output_processor@DV?$stream_output_adapter@D@__crt_stdio_output@@V?$format_validation_base@DV?$stream_output_adapter@D@__crt_stdio_output@@@2@@1@AEAA_NXZ@@Z 0000000180059020 f i libucrtd:output.obj
 0001:00058050       ??$extract_argument_from_va_list@PEAUansi_string@?1??type_case_Z@?$output_processor@DV?$stream_output_adapter@D@__crt_stdio_output@@V?$positional_parameter_base@DV?$stream_output_adapter@D@__crt_stdio_output@@@2@@__crt_stdio_output@@AEAA_NXZ@PEAU1?1??234@AEAA_NXZ@@?$positional_parameter_base@DV?$stream_output_adapter@D@__crt_stdio_output@@@__crt_stdio_output@@IEAA_NAEAPEAUansi_string@?1??type_case_Z@?$output_processor@DV?$stream_output_adapter@D@__crt_stdio_output@@V?$positional_parameter_base@DV?$stream_output_adapter@D@__crt_stdio_output@@@2@@1@AEAA_NXZ@@Z 0000000180059050 f i libucrtd:output.obj
 0001:00058210       ??$extract_argument_from_va_list@PEAUansi_string@?1??type_case_Z@?$output_processor@DV?$stream_output_adapter@D@__crt_stdio_output@@V?$positional_parameter_base@DV?$stream_output_adapter@D@__crt_stdio_output@@@2@@__crt_stdio_output@@AEAA_NXZ@PEAU1?1??234@AEAA_NXZ@@?$standard_base@DV?$stream_output_adapter@D@__crt_stdio_output@@@__crt_stdio_output@@IEAA_NAEAPEAUansi_string@?1??type_case_Z@?$output_processor@DV?$stream_output_adapter@D@__crt_stdio_output@@V?$positional_parameter_base@DV?$stream_output_adapter@D@__crt_stdio_output@@@2@@1@AEAA_NXZ@@Z 0000000180059210 f i libucrtd:output.obj
 0001:00058240       ??$extract_argument_from_va_list@PEAUansi_string@?1??type_case_Z@?$output_processor@DV?$stream_output_adapter@D@__crt_stdio_output@@V?$standard_base@DV?$stream_output_adapter@D@__crt_stdio_output@@@2@@__crt_stdio_output@@AEAA_NXZ@PEAU1?1??234@AEAA_NXZ@@?$standard_base@DV?$stream_output_adapter@D@__crt_stdio_output@@@__crt_stdio_output@@IEAA_NAEAPEAUansi_string@?1??type_case_Z@?$output_processor@DV?$stream_output_adapter@D@__crt_stdio_output@@V?$standard_base@DV?$stream_output_adapter@D@__crt_stdio_output@@@2@@1@AEAA_NXZ@@Z 0000000180059240 f i libucrtd:output.obj
 0001:00058270       ??$extract_argument_from_va_list@PEAUansi_string@?1??type_case_Z@?$output_processor@DV?$string_output_adapter@D@__crt_stdio_output@@V?$format_validation_base@DV?$string_output_adapter@D@__crt_stdio_output@@@2@@__crt_stdio_output@@AEAA_NXZ@PEAU1?1??234@AEAA_NXZ@@?$standard_base@DV?$string_output_adapter@D@__crt_stdio_output@@@__crt_stdio_output@@IEAA_NAEAPEAUansi_string@?1??type_case_Z@?$output_processor@DV?$string_output_adapter@D@__crt_stdio_output@@V?$format_validation_base@DV?$string_output_adapter@D@__crt_stdio_output@@@2@@1@AEAA_NXZ@@Z 0000000180059270 f i libucrtd:output.obj
 0001:000582a0       ??$extract_argument_from_va_list@PEAUansi_string@?1??type_case_Z@?$output_processor@DV?$string_output_adapter@D@__crt_stdio_output@@V?$positional_parameter_base@DV?$string_output_adapter@D@__crt_stdio_output@@@2@@__crt_stdio_output@@AEAA_NXZ@PEAU1?1??234@AEAA_NXZ@@?$positional_parameter_base@DV?$string_output_adapter@D@__crt_stdio_output@@@__crt_stdio_output@@IEAA_NAEAPEAUansi_string@?1??type_case_Z@?$output_processor@DV?$string_output_adapter@D@__crt_stdio_output@@V?$positional_parameter_base@DV?$string_output_adapter@D@__crt_stdio_output@@@2@@1@AEAA_NXZ@@Z 00000001800592a0 f i libucrtd:output.obj
 0001:00058460       ??$extract_argument_from_va_list@PEAUansi_string@?1??type_case_Z@?$output_processor@DV?$string_output_adapter@D@__crt_stdio_output@@V?$positional_parameter_base@DV?$string_output_adapter@D@__crt_stdio_output@@@2@@__crt_stdio_output@@AEAA_NXZ@PEAU1?1??234@AEAA_NXZ@@?$standard_base@DV?$string_output_adapter@D@__crt_stdio_output@@@__crt_stdio_output@@IEAA_NAEAPEAUansi_string@?1??type_case_Z@?$output_processor@DV?$string_output_adapter@D@__crt_stdio_output@@V?$positional_parameter_base@DV?$string_output_adapter@D@__crt_stdio_output@@@2@@1@AEAA_NXZ@@Z 0000000180059460 f i libucrtd:output.obj
 0001:00058490       ??$extract_argument_from_va_list@PEAUansi_string@?1??type_case_Z@?$output_processor@DV?$string_output_adapter@D@__crt_stdio_output@@V?$standard_base@DV?$string_output_adapter@D@__crt_stdio_output@@@2@@__crt_stdio_output@@AEAA_NXZ@PEAU1?1??234@AEAA_NXZ@@?$standard_base@DV?$string_output_adapter@D@__crt_stdio_output@@@__crt_stdio_output@@IEAA_NAEAPEAUansi_string@?1??type_case_Z@?$output_processor@DV?$string_output_adapter@D@__crt_stdio_output@@V?$standard_base@DV?$string_output_adapter@D@__crt_stdio_output@@@2@@1@AEAA_NXZ@@Z 0000000180059490 f i libucrtd:output.obj
 0001:000584c0       ??$extract_argument_from_va_list@PEAUansi_string@?1??type_case_Z@?$output_processor@_WV?$stream_output_adapter@_W@__crt_stdio_output@@V?$format_validation_base@_WV?$stream_output_adapter@_W@__crt_stdio_output@@@2@@__crt_stdio_output@@AEAA_NXZ@PEAU1?1??234@AEAA_NXZ@@?$standard_base@_WV?$stream_output_adapter@_W@__crt_stdio_output@@@__crt_stdio_output@@IEAA_NAEAPEAUansi_string@?1??type_case_Z@?$output_processor@_WV?$stream_output_adapter@_W@__crt_stdio_output@@V?$format_validation_base@_WV?$stream_output_adapter@_W@__crt_stdio_output@@@2@@1@AEAA_NXZ@@Z 00000001800594c0 f i libucrtd:output.obj
 0001:000584f0       ??$extract_argument_from_va_list@PEAUansi_string@?1??type_case_Z@?$output_processor@_WV?$stream_output_adapter@_W@__crt_stdio_output@@V?$positional_parameter_base@_WV?$stream_output_adapter@_W@__crt_stdio_output@@@2@@__crt_stdio_output@@AEAA_NXZ@PEAU1?1??234@AEAA_NXZ@@?$positional_parameter_base@_WV?$stream_output_adapter@_W@__crt_stdio_output@@@__crt_stdio_output@@IEAA_NAEAPEAUansi_string@?1??type_case_Z@?$output_processor@_WV?$stream_output_adapter@_W@__crt_stdio_output@@V?$positional_parameter_base@_WV?$stream_output_adapter@_W@__crt_stdio_output@@@2@@1@AEAA_NXZ@@Z 00000001800594f0 f i libucrtd:output.obj
 0001:000586b0       ??$extract_argument_from_va_list@PEAUansi_string@?1??type_case_Z@?$output_processor@_WV?$stream_output_adapter@_W@__crt_stdio_output@@V?$positional_parameter_base@_WV?$stream_output_adapter@_W@__crt_stdio_output@@@2@@__crt_stdio_output@@AEAA_NXZ@PEAU1?1??234@AEAA_NXZ@@?$standard_base@_WV?$stream_output_adapter@_W@__crt_stdio_output@@@__crt_stdio_output@@IEAA_NAEAPEAUansi_string@?1??type_case_Z@?$output_processor@_WV?$stream_output_adapter@_W@__crt_stdio_output@@V?$positional_parameter_base@_WV?$stream_output_adapter@_W@__crt_stdio_output@@@2@@1@AEAA_NXZ@@Z 00000001800596b0 f i libucrtd:output.obj
 0001:000586e0       ??$extract_argument_from_va_list@PEAUansi_string@?1??type_case_Z@?$output_processor@_WV?$stream_output_adapter@_W@__crt_stdio_output@@V?$standard_base@_WV?$stream_output_adapter@_W@__crt_stdio_output@@@2@@__crt_stdio_output@@AEAA_NXZ@PEAU1?1??234@AEAA_NXZ@@?$standard_base@_WV?$stream_output_adapter@_W@__crt_stdio_output@@@__crt_stdio_output@@IEAA_NAEAPEAUansi_string@?1??type_case_Z@?$output_processor@_WV?$stream_output_adapter@_W@__crt_stdio_output@@V?$standard_base@_WV?$stream_output_adapter@_W@__crt_stdio_output@@@2@@1@AEAA_NXZ@@Z 00000001800596e0 f i libucrtd:output.obj
 0001:00058710       ??$extract_argument_from_va_list@PEAUansi_string@?1??type_case_Z@?$output_processor@_WV?$string_output_adapter@_W@__crt_stdio_output@@V?$format_validation_base@_WV?$string_output_adapter@_W@__crt_stdio_output@@@2@@__crt_stdio_output@@AEAA_NXZ@PEAU1?1??234@AEAA_NXZ@@?$standard_base@_WV?$string_output_adapter@_W@__crt_stdio_output@@@__crt_stdio_output@@IEAA_NAEAPEAUansi_string@?1??type_case_Z@?$output_processor@_WV?$string_output_adapter@_W@__crt_stdio_output@@V?$format_validation_base@_WV?$string_output_adapter@_W@__crt_stdio_output@@@2@@1@AEAA_NXZ@@Z 0000000180059710 f i libucrtd:output.obj
 0001:00058740       ??$extract_argument_from_va_list@PEAUansi_string@?1??type_case_Z@?$output_processor@_WV?$string_output_adapter@_W@__crt_stdio_output@@V?$positional_parameter_base@_WV?$string_output_adapter@_W@__crt_stdio_output@@@2@@__crt_stdio_output@@AEAA_NXZ@PEAU1?1??234@AEAA_NXZ@@?$positional_parameter_base@_WV?$string_output_adapter@_W@__crt_stdio_output@@@__crt_stdio_output@@IEAA_NAEAPEAUansi_string@?1??type_case_Z@?$output_processor@_WV?$string_output_adapter@_W@__crt_stdio_output@@V?$positional_parameter_base@_WV?$string_output_adapter@_W@__crt_stdio_output@@@2@@1@AEAA_NXZ@@Z 0000000180059740 f i libucrtd:output.obj
 0001:00058900       ??$extract_argument_from_va_list@PEAUansi_string@?1??type_case_Z@?$output_processor@_WV?$string_output_adapter@_W@__crt_stdio_output@@V?$positional_parameter_base@_WV?$string_output_adapter@_W@__crt_stdio_output@@@2@@__crt_stdio_output@@AEAA_NXZ@PEAU1?1??234@AEAA_NXZ@@?$standard_base@_WV?$string_output_adapter@_W@__crt_stdio_output@@@__crt_stdio_output@@IEAA_NAEAPEAUansi_string@?1??type_case_Z@?$output_processor@_WV?$string_output_adapter@_W@__crt_stdio_output@@V?$positional_parameter_base@_WV?$string_output_adapter@_W@__crt_stdio_output@@@2@@1@AEAA_NXZ@@Z 0000000180059900 f i libucrtd:output.obj
 0001:00058930       ??$extract_argument_from_va_list@PEAUansi_string@?1??type_case_Z@?$output_processor@_WV?$string_output_adapter@_W@__crt_stdio_output@@V?$standard_base@_WV?$string_output_adapter@_W@__crt_stdio_output@@@2@@__crt_stdio_output@@AEAA_NXZ@PEAU1?1??234@AEAA_NXZ@@?$standard_base@_WV?$string_output_adapter@_W@__crt_stdio_output@@@__crt_stdio_output@@IEAA_NAEAPEAUansi_string@?1??type_case_Z@?$output_processor@_WV?$string_output_adapter@_W@__crt_stdio_output@@V?$standard_base@_WV?$string_output_adapter@_W@__crt_stdio_output@@@2@@1@AEAA_NXZ@@Z 0000000180059930 f i libucrtd:output.obj
 0001:00058960       ??$extract_argument_from_va_list@PEAXPEAX@?$positional_parameter_base@DV?$stream_output_adapter@D@__crt_stdio_output@@@__crt_stdio_output@@IEAA_NAEAPEAX@Z 0000000180059960 f i libucrtd:output.obj
 0001:00058b20       ??$extract_argument_from_va_list@PEAXPEAX@?$positional_parameter_base@DV?$string_output_adapter@D@__crt_stdio_output@@@__crt_stdio_output@@IEAA_NAEAPEAX@Z 0000000180059b20 f i libucrtd:output.obj
 0001:00058ce0       ??$extract_argument_from_va_list@PEAXPEAX@?$positional_parameter_base@_WV?$stream_output_adapter@_W@__crt_stdio_output@@@__crt_stdio_output@@IEAA_NAEAPEAX@Z 0000000180059ce0 f i libucrtd:output.obj
 0001:00058ea0       ??$extract_argument_from_va_list@PEAXPEAX@?$positional_parameter_base@_WV?$string_output_adapter@_W@__crt_stdio_output@@@__crt_stdio_output@@IEAA_NAEAPEAX@Z 0000000180059ea0 f i libucrtd:output.obj
 0001:00059060       ??$extract_argument_from_va_list@PEAXPEAX@?$standard_base@DV?$stream_output_adapter@D@__crt_stdio_output@@@__crt_stdio_output@@IEAA_NAEAPEAX@Z 000000018005a060 f i libucrtd:output.obj
 0001:00059090       ??$extract_argument_from_va_list@PEAXPEAX@?$standard_base@DV?$string_output_adapter@D@__crt_stdio_output@@@__crt_stdio_output@@IEAA_NAEAPEAX@Z 000000018005a090 f i libucrtd:output.obj
 0001:000590c0       ??$extract_argument_from_va_list@PEAXPEAX@?$standard_base@_WV?$stream_output_adapter@_W@__crt_stdio_output@@@__crt_stdio_output@@IEAA_NAEAPEAX@Z 000000018005a0c0 f i libucrtd:output.obj
 0001:000590f0       ??$extract_argument_from_va_list@PEAXPEAX@?$standard_base@_WV?$string_output_adapter@_W@__crt_stdio_output@@@__crt_stdio_output@@IEAA_NAEAPEAX@Z 000000018005a0f0 f i libucrtd:output.obj
 0001:00059120       ??$extract_argument_from_va_list@U_CRT_DOUBLE@@U1@@?$positional_parameter_base@DV?$stream_output_adapter@D@__crt_stdio_output@@@__crt_stdio_output@@IEAA_NAEAU_CRT_DOUBLE@@@Z 000000018005a120 f i libucrtd:output.obj
 0001:00059340       ??$extract_argument_from_va_list@U_CRT_DOUBLE@@U1@@?$positional_parameter_base@DV?$string_output_adapter@D@__crt_stdio_output@@@__crt_stdio_output@@IEAA_NAEAU_CRT_DOUBLE@@@Z 000000018005a340 f i libucrtd:output.obj
 0001:00059560       ??$extract_argument_from_va_list@U_CRT_DOUBLE@@U1@@?$positional_parameter_base@_WV?$stream_output_adapter@_W@__crt_stdio_output@@@__crt_stdio_output@@IEAA_NAEAU_CRT_DOUBLE@@@Z 000000018005a560 f i libucrtd:output.obj
 0001:00059780       ??$extract_argument_from_va_list@U_CRT_DOUBLE@@U1@@?$positional_parameter_base@_WV?$string_output_adapter@_W@__crt_stdio_output@@@__crt_stdio_output@@IEAA_NAEAU_CRT_DOUBLE@@@Z 000000018005a780 f i libucrtd:output.obj
 0001:000599a0       ??$extract_argument_from_va_list@U_CRT_DOUBLE@@U1@@?$standard_base@DV?$stream_output_adapter@D@__crt_stdio_output@@@__crt_stdio_output@@IEAA_NAEAU_CRT_DOUBLE@@@Z 000000018005a9a0 f i libucrtd:output.obj
 0001:000599f0       ??$extract_argument_from_va_list@U_CRT_DOUBLE@@U1@@?$standard_base@DV?$string_output_adapter@D@__crt_stdio_output@@@__crt_stdio_output@@IEAA_NAEAU_CRT_DOUBLE@@@Z 000000018005a9f0 f i libucrtd:output.obj
 0001:00059a40       ??$extract_argument_from_va_list@U_CRT_DOUBLE@@U1@@?$standard_base@_WV?$stream_output_adapter@_W@__crt_stdio_output@@@__crt_stdio_output@@IEAA_NAEAU_CRT_DOUBLE@@@Z 000000018005aa40 f i libucrtd:output.obj
 0001:00059a90       ??$extract_argument_from_va_list@U_CRT_DOUBLE@@U1@@?$standard_base@_WV?$string_output_adapter@_W@__crt_stdio_output@@@__crt_stdio_output@@IEAA_NAEAU_CRT_DOUBLE@@@Z 000000018005aa90 f i libucrtd:output.obj
 0001:00059ae0       ??$extract_argument_from_va_list@_J_J@?$positional_parameter_base@DV?$stream_output_adapter@D@__crt_stdio_output@@@__crt_stdio_output@@IEAA_NAEA_J@Z 000000018005aae0 f i libucrtd:output.obj
 0001:00059ca0       ??$extract_argument_from_va_list@_J_J@?$positional_parameter_base@DV?$string_output_adapter@D@__crt_stdio_output@@@__crt_stdio_output@@IEAA_NAEA_J@Z 000000018005aca0 f i libucrtd:output.obj
 0001:00059e60       ??$extract_argument_from_va_list@_J_J@?$positional_parameter_base@_WV?$stream_output_adapter@_W@__crt_stdio_output@@@__crt_stdio_output@@IEAA_NAEA_J@Z 000000018005ae60 f i libucrtd:output.obj
 0001:0005a020       ??$extract_argument_from_va_list@_J_J@?$positional_parameter_base@_WV?$string_output_adapter@_W@__crt_stdio_output@@@__crt_stdio_output@@IEAA_NAEA_J@Z 000000018005b020 f i libucrtd:output.obj
 0001:0005a1e0       ??$extract_argument_from_va_list@_J_J@?$standard_base@DV?$stream_output_adapter@D@__crt_stdio_output@@@__crt_stdio_output@@IEAA_NAEA_J@Z 000000018005b1e0 f i libucrtd:output.obj
 0001:0005a210       ??$extract_argument_from_va_list@_J_J@?$standard_base@DV?$string_output_adapter@D@__crt_stdio_output@@@__crt_stdio_output@@IEAA_NAEA_J@Z 000000018005b210 f i libucrtd:output.obj
 0001:0005a240       ??$extract_argument_from_va_list@_J_J@?$standard_base@_WV?$stream_output_adapter@_W@__crt_stdio_output@@@__crt_stdio_output@@IEAA_NAEA_J@Z 000000018005b240 f i libucrtd:output.obj
 0001:0005a270       ??$extract_argument_from_va_list@_J_J@?$standard_base@_WV?$string_output_adapter@_W@__crt_stdio_output@@@__crt_stdio_output@@IEAA_NAEA_J@Z 000000018005b270 f i libucrtd:output.obj
 0001:0005a2a0       ??$extract_argument_from_va_list@_K_J@?$positional_parameter_base@DV?$stream_output_adapter@D@__crt_stdio_output@@@__crt_stdio_output@@IEAA_NAEA_J@Z 000000018005b2a0 f i libucrtd:output.obj
 0001:0005a460       ??$extract_argument_from_va_list@_K_J@?$positional_parameter_base@DV?$string_output_adapter@D@__crt_stdio_output@@@__crt_stdio_output@@IEAA_NAEA_J@Z 000000018005b460 f i libucrtd:output.obj
 0001:0005a620       ??$extract_argument_from_va_list@_K_J@?$positional_parameter_base@_WV?$stream_output_adapter@_W@__crt_stdio_output@@@__crt_stdio_output@@IEAA_NAEA_J@Z 000000018005b620 f i libucrtd:output.obj
 0001:0005a7e0       ??$extract_argument_from_va_list@_K_J@?$positional_parameter_base@_WV?$string_output_adapter@_W@__crt_stdio_output@@@__crt_stdio_output@@IEAA_NAEA_J@Z 000000018005b7e0 f i libucrtd:output.obj
 0001:0005a9a0       ??$extract_argument_from_va_list@_K_J@?$standard_base@DV?$stream_output_adapter@D@__crt_stdio_output@@@__crt_stdio_output@@IEAA_NAEA_J@Z 000000018005b9a0 f i libucrtd:output.obj
 0001:0005a9d0       ??$extract_argument_from_va_list@_K_J@?$standard_base@DV?$string_output_adapter@D@__crt_stdio_output@@@__crt_stdio_output@@IEAA_NAEA_J@Z 000000018005b9d0 f i libucrtd:output.obj
 0001:0005aa00       ??$extract_argument_from_va_list@_K_J@?$standard_base@_WV?$stream_output_adapter@_W@__crt_stdio_output@@@__crt_stdio_output@@IEAA_NAEA_J@Z 000000018005ba00 f i libucrtd:output.obj
 0001:0005aa30       ??$extract_argument_from_va_list@_K_J@?$standard_base@_WV?$string_output_adapter@_W@__crt_stdio_output@@@__crt_stdio_output@@IEAA_NAEA_J@Z 000000018005ba30 f i libucrtd:output.obj
 0001:0005aa60       ??$extract_argument_from_va_list@_W_W@?$positional_parameter_base@DV?$stream_output_adapter@D@__crt_stdio_output@@@__crt_stdio_output@@IEAA_NAEA_W@Z 000000018005ba60 f i libucrtd:output.obj
 0001:0005ac20       ??$extract_argument_from_va_list@_W_W@?$positional_parameter_base@DV?$string_output_adapter@D@__crt_stdio_output@@@__crt_stdio_output@@IEAA_NAEA_W@Z 000000018005bc20 f i libucrtd:output.obj
 0001:0005ade0       ??$extract_argument_from_va_list@_W_W@?$positional_parameter_base@_WV?$stream_output_adapter@_W@__crt_stdio_output@@@__crt_stdio_output@@IEAA_NAEA_W@Z 000000018005bde0 f i libucrtd:output.obj
 0001:0005afa0       ??$extract_argument_from_va_list@_W_W@?$positional_parameter_base@_WV?$string_output_adapter@_W@__crt_stdio_output@@@__crt_stdio_output@@IEAA_NAEA_W@Z 000000018005bfa0 f i libucrtd:output.obj
 0001:0005b160       ??$extract_argument_from_va_list@_W_W@?$standard_base@DV?$stream_output_adapter@D@__crt_stdio_output@@@__crt_stdio_output@@IEAA_NAEA_W@Z 000000018005c160 f i libucrtd:output.obj
 0001:0005b190       ??$extract_argument_from_va_list@_W_W@?$standard_base@DV?$string_output_adapter@D@__crt_stdio_output@@@__crt_stdio_output@@IEAA_NAEA_W@Z 000000018005c190 f i libucrtd:output.obj
 0001:0005b1c0       ??$extract_argument_from_va_list@_W_W@?$standard_base@_WV?$stream_output_adapter@_W@__crt_stdio_output@@@__crt_stdio_output@@IEAA_NAEA_W@Z 000000018005c1c0 f i libucrtd:output.obj
 0001:0005b1f0       ??$extract_argument_from_va_list@_W_W@?$standard_base@_WV?$string_output_adapter@_W@__crt_stdio_output@@@__crt_stdio_output@@IEAA_NAEA_W@Z 000000018005c1f0 f i libucrtd:output.obj
 0001:0005b220       ??$get_parameter_type@D@?$positional_parameter_base@DV?$stream_output_adapter@D@__crt_stdio_output@@@__crt_stdio_output@@CA?AW4parameter_type@01@PEAD@Z 000000018005c220 f i libucrtd:output.obj
 0001:0005b230       ??$get_parameter_type@D@?$positional_parameter_base@DV?$string_output_adapter@D@__crt_stdio_output@@@__crt_stdio_output@@CA?AW4parameter_type@01@PEAD@Z 000000018005c230 f i libucrtd:output.obj
 0001:0005b240       ??$get_parameter_type@D@?$positional_parameter_base@_WV?$stream_output_adapter@_W@__crt_stdio_output@@@__crt_stdio_output@@CA?AW4parameter_type@01@PEAD@Z 000000018005c240 f i libucrtd:output.obj
 0001:0005b250       ??$get_parameter_type@D@?$positional_parameter_base@_WV?$string_output_adapter@_W@__crt_stdio_output@@@__crt_stdio_output@@CA?AW4parameter_type@01@PEAD@Z 000000018005c250 f i libucrtd:output.obj
 0001:0005b260       ??$get_parameter_type@Uansi_string@?1??type_case_Z@?$output_processor@DV?$stream_output_adapter@D@__crt_stdio_output@@V?$positional_parameter_base@DV?$stream_output_adapter@D@__crt_stdio_output@@@2@@__crt_stdio_output@@AEAA_NXZ@@?$positional_parameter_base@DV?$stream_output_adapter@D@__crt_stdio_output@@@__crt_stdio_output@@CA?AW4parameter_type@01@PEAUansi_string@?1??type_case_Z@?$output_processor@DV?$stream_output_adapter@D@__crt_stdio_output@@V?$positional_parameter_base@DV?$stream_output_adapter@D@__crt_stdio_output@@@2@@1@AEAA_NXZ@@Z 000000018005c260 f i libucrtd:output.obj
 0001:0005b270       ??$get_parameter_type@Uansi_string@?1??type_case_Z@?$output_processor@DV?$string_output_adapter@D@__crt_stdio_output@@V?$positional_parameter_base@DV?$string_output_adapter@D@__crt_stdio_output@@@2@@__crt_stdio_output@@AEAA_NXZ@@?$positional_parameter_base@DV?$string_output_adapter@D@__crt_stdio_output@@@__crt_stdio_output@@CA?AW4parameter_type@01@PEAUansi_string@?1??type_case_Z@?$output_processor@DV?$string_output_adapter@D@__crt_stdio_output@@V?$positional_parameter_base@DV?$string_output_adapter@D@__crt_stdio_output@@@2@@1@AEAA_NXZ@@Z 000000018005c270 f i libucrtd:output.obj
 0001:0005b280       ??$get_parameter_type@Uansi_string@?1??type_case_Z@?$output_processor@_WV?$stream_output_adapter@_W@__crt_stdio_output@@V?$positional_parameter_base@_WV?$stream_output_adapter@_W@__crt_stdio_output@@@2@@__crt_stdio_output@@AEAA_NXZ@@?$positional_parameter_base@_WV?$stream_output_adapter@_W@__crt_stdio_output@@@__crt_stdio_output@@CA?AW4parameter_type@01@PEAUansi_string@?1??type_case_Z@?$output_processor@_WV?$stream_output_adapter@_W@__crt_stdio_output@@V?$positional_parameter_base@_WV?$stream_output_adapter@_W@__crt_stdio_output@@@2@@1@AEAA_NXZ@@Z 000000018005c280 f i libucrtd:output.obj
 0001:0005b290       ??$get_parameter_type@Uansi_string@?1??type_case_Z@?$output_processor@_WV?$string_output_adapter@_W@__crt_stdio_output@@V?$positional_parameter_base@_WV?$string_output_adapter@_W@__crt_stdio_output@@@2@@__crt_stdio_output@@AEAA_NXZ@@?$positional_parameter_base@_WV?$string_output_adapter@_W@__crt_stdio_output@@@__crt_stdio_output@@CA?AW4parameter_type@01@PEAUansi_string@?1??type_case_Z@?$output_processor@_WV?$string_output_adapter@_W@__crt_stdio_output@@V?$positional_parameter_base@_WV?$string_output_adapter@_W@__crt_stdio_output@@@2@@1@AEAA_NXZ@@Z 000000018005c290 f i libucrtd:output.obj
 0001:0005b2a0       ??$get_parameter_type@X@?$positional_parameter_base@DV?$stream_output_adapter@D@__crt_stdio_output@@@__crt_stdio_output@@CA?AW4parameter_type@01@PEAX@Z 000000018005c2a0 f i libucrtd:output.obj
 0001:0005b2b0       ??$get_parameter_type@X@?$positional_parameter_base@DV?$string_output_adapter@D@__crt_stdio_output@@@__crt_stdio_output@@CA?AW4parameter_type@01@PEAX@Z 000000018005c2b0 f i libucrtd:output.obj
 0001:0005b2c0       ??$get_parameter_type@X@?$positional_parameter_base@_WV?$stream_output_adapter@_W@__crt_stdio_output@@@__crt_stdio_output@@CA?AW4parameter_type@01@PEAX@Z 000000018005c2c0 f i libucrtd:output.obj
 0001:0005b2d0       ??$get_parameter_type@X@?$positional_parameter_base@_WV?$string_output_adapter@_W@__crt_stdio_output@@@__crt_stdio_output@@CA?AW4parameter_type@01@PEAX@Z 000000018005c2d0 f i libucrtd:output.obj
 0001:0005b2e0       ??$is_character_specifier@D@?$positional_parameter_base@DV?$stream_output_adapter@D@__crt_stdio_output@@@__crt_stdio_output@@CA_ND@Z 000000018005c2e0 f i libucrtd:output.obj
 0001:0005b320       ??$is_character_specifier@D@?$positional_parameter_base@DV?$string_output_adapter@D@__crt_stdio_output@@@__crt_stdio_output@@CA_ND@Z 000000018005c320 f i libucrtd:output.obj
 0001:0005b360       ??$is_character_specifier@_W@?$positional_parameter_base@_WV?$stream_output_adapter@_W@__crt_stdio_output@@@__crt_stdio_output@@CA_N_W@Z 000000018005c360 f i libucrtd:output.obj
 0001:0005b3a0       ??$is_character_specifier@_W@?$positional_parameter_base@_WV?$string_output_adapter@_W@__crt_stdio_output@@@__crt_stdio_output@@CA_N_W@Z 000000018005c3a0 f i libucrtd:output.obj
 0001:0005b3e0       ??$is_integral_specifier@D@?$positional_parameter_base@DV?$stream_output_adapter@D@__crt_stdio_output@@@__crt_stdio_output@@CA_ND@Z 000000018005c3e0 f i libucrtd:output.obj
 0001:0005b450       ??$is_integral_specifier@D@?$positional_parameter_base@DV?$string_output_adapter@D@__crt_stdio_output@@@__crt_stdio_output@@CA_ND@Z 000000018005c450 f i libucrtd:output.obj
 0001:0005b4c0       ??$is_integral_specifier@_W@?$positional_parameter_base@_WV?$stream_output_adapter@_W@__crt_stdio_output@@@__crt_stdio_output@@CA_N_W@Z 000000018005c4c0 f i libucrtd:output.obj
 0001:0005b530       ??$is_integral_specifier@_W@?$positional_parameter_base@_WV?$string_output_adapter@_W@__crt_stdio_output@@@__crt_stdio_output@@CA_N_W@Z 000000018005c530 f i libucrtd:output.obj
 0001:0005b5a0       ??$is_overflow_condition@K@__crt_strtox@@YA_NIK@Z 000000018005c5a0 f i libucrtd:output.obj
 0001:0005b610       ??$is_pointer_specifier@D@?$positional_parameter_base@DV?$stream_output_adapter@D@__crt_stdio_output@@@__crt_stdio_output@@CA_ND@Z 000000018005c610 f i libucrtd:output.obj
 0001:0005b640       ??$is_pointer_specifier@D@?$positional_parameter_base@DV?$string_output_adapter@D@__crt_stdio_output@@@__crt_stdio_output@@CA_ND@Z 000000018005c640 f i libucrtd:output.obj
 0001:0005b670       ??$is_pointer_specifier@_W@?$positional_parameter_base@_WV?$stream_output_adapter@_W@__crt_stdio_output@@@__crt_stdio_output@@CA_N_W@Z 000000018005c670 f i libucrtd:output.obj
 0001:0005b6a0       ??$is_pointer_specifier@_W@?$positional_parameter_base@_WV?$string_output_adapter@_W@__crt_stdio_output@@@__crt_stdio_output@@CA_N_W@Z 000000018005c6a0 f i libucrtd:output.obj
 0001:0005b6d0       ??$is_string_specifier@D@?$positional_parameter_base@DV?$stream_output_adapter@D@__crt_stdio_output@@@__crt_stdio_output@@CA_ND@Z 000000018005c6d0 f i libucrtd:output.obj
 0001:0005b710       ??$is_string_specifier@D@?$positional_parameter_base@DV?$string_output_adapter@D@__crt_stdio_output@@@__crt_stdio_output@@CA_ND@Z 000000018005c710 f i libucrtd:output.obj
 0001:0005b750       ??$is_string_specifier@_W@?$positional_parameter_base@_WV?$stream_output_adapter@_W@__crt_stdio_output@@@__crt_stdio_output@@CA_N_W@Z 000000018005c750 f i libucrtd:output.obj
 0001:0005b790       ??$is_string_specifier@_W@?$positional_parameter_base@_WV?$string_output_adapter@_W@__crt_stdio_output@@@__crt_stdio_output@@CA_N_W@Z 000000018005c790 f i libucrtd:output.obj
 0001:0005b7d0       ??$is_wide_character_specifier@D@__crt_stdio_output@@YA_N_KDW4length_modifier@0@@Z 000000018005c7d0 f i libucrtd:output.obj
 0001:0005b870       ??$is_wide_character_specifier@_W@__crt_stdio_output@@YA_N_K_WW4length_modifier@0@@Z 000000018005c870 f i libucrtd:output.obj
 0001:0005b940       ??$make_c_string_character_source@DPEAPEAD@__crt_strtox@@YA?AV?$c_string_character_source@D@0@QEBDQEAPEAD@Z 000000018005c940 f i libucrtd:output.obj
 0001:0005b980       ??$make_c_string_character_source@_WPEAPEA_W@__crt_strtox@@YA?AV?$c_string_character_source@_W@0@QEB_WQEAPEA_W@Z 000000018005c980 f i libucrtd:output.obj
 0001:0005b9c0       ??$parse_integer@KV?$c_string_character_source@D@__crt_strtox@@$0A@@__crt_strtox@@YAKAEAV__crt_cached_ptd_host@@V?$c_string_character_source@D@0@H_N@Z 000000018005c9c0 f i libucrtd:output.obj
 0001:0005be40       ??$parse_integer@KV?$c_string_character_source@_W@__crt_strtox@@$0A@@__crt_strtox@@YAKAEAV__crt_cached_ptd_host@@V?$c_string_character_source@_W@0@H_N@Z 000000018005ce40 f i libucrtd:output.obj
 0001:0005c2c0       ??$peek_va_arg@C@__crt_stdio_output@@YACPEAD@Z 000000018005d2c0 f i libucrtd:output.obj
 0001:0005c320       ??$peek_va_arg@E@__crt_stdio_output@@YAEPEAD@Z 000000018005d320 f i libucrtd:output.obj
 0001:0005c380       ??$peek_va_arg@F@__crt_stdio_output@@YAFPEAD@Z 000000018005d380 f i libucrtd:output.obj
 0001:0005c3e0       ??$peek_va_arg@G@__crt_stdio_output@@YAGPEAD@Z 000000018005d3e0 f i libucrtd:output.obj
 0001:0005c440       ??$peek_va_arg@H@__crt_stdio_output@@YAHPEAD@Z 000000018005d440 f i libucrtd:output.obj
 0001:0005c490       ??$peek_va_arg@I@__crt_stdio_output@@YAIPEAD@Z 000000018005d490 f i libucrtd:output.obj
 0001:0005c4e0       ??$peek_va_arg@PEAD@__crt_stdio_output@@YAPEADPEAD@Z 000000018005d4e0 f i libucrtd:output.obj
 0001:0005c540       ??$peek_va_arg@PEAUansi_string@?1??type_case_Z@?$output_processor@DV?$stream_output_adapter@D@__crt_stdio_output@@V?$positional_parameter_base@DV?$stream_output_adapter@D@__crt_stdio_output@@@2@@__crt_stdio_output@@AEAA_NXZ@@__crt_stdio_output@@YAPEAUansi_string@?1??type_case_Z@?$output_processor@DV?$stream_output_adapter@D@__crt_stdio_output@@V?$positional_parameter_base@DV?$stream_output_adapter@D@__crt_stdio_output@@@2@@0@AEAA_NXZ@PEAD@Z 000000018005d540 f i libucrtd:output.obj
 0001:0005c5a0       ??$peek_va_arg@PEAUansi_string@?1??type_case_Z@?$output_processor@DV?$string_output_adapter@D@__crt_stdio_output@@V?$positional_parameter_base@DV?$string_output_adapter@D@__crt_stdio_output@@@2@@__crt_stdio_output@@AEAA_NXZ@@__crt_stdio_output@@YAPEAUansi_string@?1??type_case_Z@?$output_processor@DV?$string_output_adapter@D@__crt_stdio_output@@V?$positional_parameter_base@DV?$string_output_adapter@D@__crt_stdio_output@@@2@@0@AEAA_NXZ@PEAD@Z 000000018005d5a0 f i libucrtd:output.obj
 0001:0005c600       ??$peek_va_arg@PEAUansi_string@?1??type_case_Z@?$output_processor@_WV?$stream_output_adapter@_W@__crt_stdio_output@@V?$positional_parameter_base@_WV?$stream_output_adapter@_W@__crt_stdio_output@@@2@@__crt_stdio_output@@AEAA_NXZ@@__crt_stdio_output@@YAPEAUansi_string@?1??type_case_Z@?$output_processor@_WV?$stream_output_adapter@_W@__crt_stdio_output@@V?$positional_parameter_base@_WV?$stream_output_adapter@_W@__crt_stdio_output@@@2@@0@AEAA_NXZ@PEAD@Z 000000018005d600 f i libucrtd:output.obj
 0001:0005c660       ??$peek_va_arg@PEAUansi_string@?1??type_case_Z@?$output_processor@_WV?$string_output_adapter@_W@__crt_stdio_output@@V?$positional_parameter_base@_WV?$string_output_adapter@_W@__crt_stdio_output@@@2@@__crt_stdio_output@@AEAA_NXZ@@__crt_stdio_output@@YAPEAUansi_string@?1??type_case_Z@?$output_processor@_WV?$string_output_adapter@_W@__crt_stdio_output@@V?$positional_parameter_base@_WV?$string_output_adapter@_W@__crt_stdio_output@@@2@@0@AEAA_NXZ@PEAD@Z 000000018005d660 f i libucrtd:output.obj
 0001:0005c6c0       ??$peek_va_arg@PEAX@__crt_stdio_output@@YAPEAXPEAD@Z 000000018005d6c0 f i libucrtd:output.obj
 0001:0005c720       ??$peek_va_arg@U_CRT_DOUBLE@@@__crt_stdio_output@@YA?AU_CRT_DOUBLE@@PEAD@Z 000000018005d720 f i libucrtd:output.obj
 0001:0005c780       ??$peek_va_arg@_J@__crt_stdio_output@@YA_JPEAD@Z 000000018005d780 f i libucrtd:output.obj
 0001:0005c7e0       ??$peek_va_arg@_K@__crt_stdio_output@@YA_KPEAD@Z 000000018005d7e0 f i libucrtd:output.obj
 0001:0005c840       ??$peek_va_arg@_W@__crt_stdio_output@@YA_WPEAD@Z 000000018005d840 f i libucrtd:output.obj
 0001:0005c8a0       ??$puttc_nolock_internal@AEBDPEAU_iobuf@@AEAV__crt_cached_ptd_host@@@?$__crt_char_traits@D@@SAHAEBD$$QEAPEAU_iobuf@@AEAV__crt_cached_ptd_host@@@Z 000000018005d8a0 f i libucrtd:output.obj
 0001:0005c8e0       ??$puttc_nolock_internal@AEB_WPEAU_iobuf@@AEAV__crt_cached_ptd_host@@@?$__crt_char_traits@_W@@SAGAEB_W$$QEAPEAU_iobuf@@AEAV__crt_cached_ptd_host@@@Z 000000018005d8e0 f i libucrtd:output.obj
 0001:0005c920       ??$read_va_arg@C@__crt_stdio_output@@YACAEAPEAD@Z 000000018005d920 f i libucrtd:output.obj
 0001:0005c990       ??$read_va_arg@E@__crt_stdio_output@@YAEAEAPEAD@Z 000000018005d990 f i libucrtd:output.obj
 0001:0005ca00       ??$read_va_arg@F@__crt_stdio_output@@YAFAEAPEAD@Z 000000018005da00 f i libucrtd:output.obj
 0001:0005ca70       ??$read_va_arg@G@__crt_stdio_output@@YAGAEAPEAD@Z 000000018005da70 f i libucrtd:output.obj
 0001:0005cae0       ??$read_va_arg@H@__crt_stdio_output@@YAHAEAPEAD@Z 000000018005dae0 f i libucrtd:output.obj
 0001:0005cb40       ??$read_va_arg@I@__crt_stdio_output@@YAIAEAPEAD@Z 000000018005db40 f i libucrtd:output.obj
 0001:0005cba0       ??$read_va_arg@PEAD@__crt_stdio_output@@YAPEADAEAPEAD@Z 000000018005dba0 f i libucrtd:output.obj
 0001:0005cc10       ??$read_va_arg@PEAUansi_string@?1??type_case_Z@?$output_processor@DV?$stream_output_adapter@D@__crt_stdio_output@@V?$format_validation_base@DV?$stream_output_adapter@D@__crt_stdio_output@@@2@@__crt_stdio_output@@AEAA_NXZ@@__crt_stdio_output@@YAPEAUansi_string@?1??type_case_Z@?$output_processor@DV?$stream_output_adapter@D@__crt_stdio_output@@V?$format_validation_base@DV?$stream_output_adapter@D@__crt_stdio_output@@@2@@0@AEAA_NXZ@AEAPEAD@Z 000000018005dc10 f i libucrtd:output.obj
 0001:0005cc80       ??$read_va_arg@PEAUansi_string@?1??type_case_Z@?$output_processor@DV?$stream_output_adapter@D@__crt_stdio_output@@V?$positional_parameter_base@DV?$stream_output_adapter@D@__crt_stdio_output@@@2@@__crt_stdio_output@@AEAA_NXZ@@__crt_stdio_output@@YAPEAUansi_string@?1??type_case_Z@?$output_processor@DV?$stream_output_adapter@D@__crt_stdio_output@@V?$positional_parameter_base@DV?$stream_output_adapter@D@__crt_stdio_output@@@2@@0@AEAA_NXZ@AEAPEAD@Z 000000018005dc80 f i libucrtd:output.obj
 0001:0005ccf0       ??$read_va_arg@PEAUansi_string@?1??type_case_Z@?$output_processor@DV?$stream_output_adapter@D@__crt_stdio_output@@V?$standard_base@DV?$stream_output_adapter@D@__crt_stdio_output@@@2@@__crt_stdio_output@@AEAA_NXZ@@__crt_stdio_output@@YAPEAUansi_string@?1??type_case_Z@?$output_processor@DV?$stream_output_adapter@D@__crt_stdio_output@@V?$standard_base@DV?$stream_output_adapter@D@__crt_stdio_output@@@2@@0@AEAA_NXZ@AEAPEAD@Z 000000018005dcf0 f i libucrtd:output.obj
 0001:0005cd60       ??$read_va_arg@PEAUansi_string@?1??type_case_Z@?$output_processor@DV?$string_output_adapter@D@__crt_stdio_output@@V?$format_validation_base@DV?$string_output_adapter@D@__crt_stdio_output@@@2@@__crt_stdio_output@@AEAA_NXZ@@__crt_stdio_output@@YAPEAUansi_string@?1??type_case_Z@?$output_processor@DV?$string_output_adapter@D@__crt_stdio_output@@V?$format_validation_base@DV?$string_output_adapter@D@__crt_stdio_output@@@2@@0@AEAA_NXZ@AEAPEAD@Z 000000018005dd60 f i libucrtd:output.obj
 0001:0005cdd0       ??$read_va_arg@PEAUansi_string@?1??type_case_Z@?$output_processor@DV?$string_output_adapter@D@__crt_stdio_output@@V?$positional_parameter_base@DV?$string_output_adapter@D@__crt_stdio_output@@@2@@__crt_stdio_output@@AEAA_NXZ@@__crt_stdio_output@@YAPEAUansi_string@?1??type_case_Z@?$output_processor@DV?$string_output_adapter@D@__crt_stdio_output@@V?$positional_parameter_base@DV?$string_output_adapter@D@__crt_stdio_output@@@2@@0@AEAA_NXZ@AEAPEAD@Z 000000018005ddd0 f i libucrtd:output.obj
 0001:0005ce40       ??$read_va_arg@PEAUansi_string@?1??type_case_Z@?$output_processor@DV?$string_output_adapter@D@__crt_stdio_output@@V?$standard_base@DV?$string_output_adapter@D@__crt_stdio_output@@@2@@__crt_stdio_output@@AEAA_NXZ@@__crt_stdio_output@@YAPEAUansi_string@?1??type_case_Z@?$output_processor@DV?$string_output_adapter@D@__crt_stdio_output@@V?$standard_base@DV?$string_output_adapter@D@__crt_stdio_output@@@2@@0@AEAA_NXZ@AEAPEAD@Z 000000018005de40 f i libucrtd:output.obj
 0001:0005ceb0       ??$read_va_arg@PEAUansi_string@?1??type_case_Z@?$output_processor@_WV?$stream_output_adapter@_W@__crt_stdio_output@@V?$format_validation_base@_WV?$stream_output_adapter@_W@__crt_stdio_output@@@2@@__crt_stdio_output@@AEAA_NXZ@@__crt_stdio_output@@YAPEAUansi_string@?1??type_case_Z@?$output_processor@_WV?$stream_output_adapter@_W@__crt_stdio_output@@V?$format_validation_base@_WV?$stream_output_adapter@_W@__crt_stdio_output@@@2@@0@AEAA_NXZ@AEAPEAD@Z 000000018005deb0 f i libucrtd:output.obj
 0001:0005cf20       ??$read_va_arg@PEAUansi_string@?1??type_case_Z@?$output_processor@_WV?$stream_output_adapter@_W@__crt_stdio_output@@V?$positional_parameter_base@_WV?$stream_output_adapter@_W@__crt_stdio_output@@@2@@__crt_stdio_output@@AEAA_NXZ@@__crt_stdio_output@@YAPEAUansi_string@?1??type_case_Z@?$output_processor@_WV?$stream_output_adapter@_W@__crt_stdio_output@@V?$positional_parameter_base@_WV?$stream_output_adapter@_W@__crt_stdio_output@@@2@@0@AEAA_NXZ@AEAPEAD@Z 000000018005df20 f i libucrtd:output.obj
 0001:0005cf90       ??$read_va_arg@PEAUansi_string@?1??type_case_Z@?$output_processor@_WV?$stream_output_adapter@_W@__crt_stdio_output@@V?$standard_base@_WV?$stream_output_adapter@_W@__crt_stdio_output@@@2@@__crt_stdio_output@@AEAA_NXZ@@__crt_stdio_output@@YAPEAUansi_string@?1??type_case_Z@?$output_processor@_WV?$stream_output_adapter@_W@__crt_stdio_output@@V?$standard_base@_WV?$stream_output_adapter@_W@__crt_stdio_output@@@2@@0@AEAA_NXZ@AEAPEAD@Z 000000018005df90 f i libucrtd:output.obj
 0001:0005d000       ??$read_va_arg@PEAUansi_string@?1??type_case_Z@?$output_processor@_WV?$string_output_adapter@_W@__crt_stdio_output@@V?$format_validation_base@_WV?$string_output_adapter@_W@__crt_stdio_output@@@2@@__crt_stdio_output@@AEAA_NXZ@@__crt_stdio_output@@YAPEAUansi_string@?1??type_case_Z@?$output_processor@_WV?$string_output_adapter@_W@__crt_stdio_output@@V?$format_validation_base@_WV?$string_output_adapter@_W@__crt_stdio_output@@@2@@0@AEAA_NXZ@AEAPEAD@Z 000000018005e000 f i libucrtd:output.obj
 0001:0005d070       ??$read_va_arg@PEAUansi_string@?1??type_case_Z@?$output_processor@_WV?$string_output_adapter@_W@__crt_stdio_output@@V?$positional_parameter_base@_WV?$string_output_adapter@_W@__crt_stdio_output@@@2@@__crt_stdio_output@@AEAA_NXZ@@__crt_stdio_output@@YAPEAUansi_string@?1??type_case_Z@?$output_processor@_WV?$string_output_adapter@_W@__crt_stdio_output@@V?$positional_parameter_base@_WV?$string_output_adapter@_W@__crt_stdio_output@@@2@@0@AEAA_NXZ@AEAPEAD@Z 000000018005e070 f i libucrtd:output.obj
 0001:0005d0e0       ??$read_va_arg@PEAUansi_string@?1??type_case_Z@?$output_processor@_WV?$string_output_adapter@_W@__crt_stdio_output@@V?$standard_base@_WV?$string_output_adapter@_W@__crt_stdio_output@@@2@@__crt_stdio_output@@AEAA_NXZ@@__crt_stdio_output@@YAPEAUansi_string@?1??type_case_Z@?$output_processor@_WV?$string_output_adapter@_W@__crt_stdio_output@@V?$standard_base@_WV?$string_output_adapter@_W@__crt_stdio_output@@@2@@0@AEAA_NXZ@AEAPEAD@Z 000000018005e0e0 f i libucrtd:output.obj
 0001:0005d150       ??$read_va_arg@PEAX@__crt_stdio_output@@YAPEAXAEAPEAD@Z 000000018005e150 f i libucrtd:output.obj
 0001:0005d1c0       ??$read_va_arg@U_CRT_DOUBLE@@@__crt_stdio_output@@YA?AU_CRT_DOUBLE@@AEAPEAD@Z 000000018005e1c0 f i libucrtd:output.obj
 0001:0005d230       ??$read_va_arg@_J@__crt_stdio_output@@YA_JAEAPEAD@Z 000000018005e230 f i libucrtd:output.obj
 0001:0005d2a0       ??$read_va_arg@_K@__crt_stdio_output@@YA_KAEAPEAD@Z 000000018005e2a0 f i libucrtd:output.obj
 0001:0005d310       ??$read_va_arg@_W@__crt_stdio_output@@YA_WAEAPEAD@Z 000000018005e310 f i libucrtd:output.obj
 0001:0005d380       ??$scratch_count@D@formatting_buffer@__crt_stdio_output@@QEBA_KXZ 000000018005e380 f i libucrtd:output.obj
 0001:0005d3a0       ??$scratch_data@D@formatting_buffer@__crt_stdio_output@@QEAAPEADXZ 000000018005e3a0 f i libucrtd:output.obj
 0001:0005d410       ??$type_case_integer@$07@?$output_processor@DV?$stream_output_adapter@D@__crt_stdio_output@@V?$format_validation_base@DV?$stream_output_adapter@D@__crt_stdio_output@@@2@@__crt_stdio_output@@AEAA_N_N@Z 000000018005e410 f i libucrtd:output.obj
 0001:0005d890       ??$type_case_integer@$07@?$output_processor@DV?$stream_output_adapter@D@__crt_stdio_output@@V?$positional_parameter_base@DV?$stream_output_adapter@D@__crt_stdio_output@@@2@@__crt_stdio_output@@AEAA_N_N@Z 000000018005e890 f i libucrtd:output.obj
 0001:0005dd10       ??$type_case_integer@$07@?$output_processor@DV?$stream_output_adapter@D@__crt_stdio_output@@V?$standard_base@DV?$stream_output_adapter@D@__crt_stdio_output@@@2@@__crt_stdio_output@@AEAA_N_N@Z 000000018005ed10 f i libucrtd:output.obj
 0001:0005e190       ??$type_case_integer@$07@?$output_processor@DV?$string_output_adapter@D@__crt_stdio_output@@V?$format_validation_base@DV?$string_output_adapter@D@__crt_stdio_output@@@2@@__crt_stdio_output@@AEAA_N_N@Z 000000018005f190 f i libucrtd:output.obj
 0001:0005e610       ??$type_case_integer@$07@?$output_processor@DV?$string_output_adapter@D@__crt_stdio_output@@V?$positional_parameter_base@DV?$string_output_adapter@D@__crt_stdio_output@@@2@@__crt_stdio_output@@AEAA_N_N@Z 000000018005f610 f i libucrtd:output.obj
 0001:0005ea90       ??$type_case_integer@$07@?$output_processor@DV?$string_output_adapter@D@__crt_stdio_output@@V?$standard_base@DV?$string_output_adapter@D@__crt_stdio_output@@@2@@__crt_stdio_output@@AEAA_N_N@Z 000000018005fa90 f i libucrtd:output.obj
 0001:0005ef10       ??$type_case_integer@$07@?$output_processor@_WV?$stream_output_adapter@_W@__crt_stdio_output@@V?$format_validation_base@_WV?$stream_output_adapter@_W@__crt_stdio_output@@@2@@__crt_stdio_output@@AEAA_N_N@Z 000000018005ff10 f i libucrtd:output.obj
 0001:0005f390       ??$type_case_integer@$07@?$output_processor@_WV?$stream_output_adapter@_W@__crt_stdio_output@@V?$positional_parameter_base@_WV?$stream_output_adapter@_W@__crt_stdio_output@@@2@@__crt_stdio_output@@AEAA_N_N@Z 0000000180060390 f i libucrtd:output.obj
 0001:0005f810       ??$type_case_integer@$07@?$output_processor@_WV?$stream_output_adapter@_W@__crt_stdio_output@@V?$standard_base@_WV?$stream_output_adapter@_W@__crt_stdio_output@@@2@@__crt_stdio_output@@AEAA_N_N@Z 0000000180060810 f i libucrtd:output.obj
 0001:0005fc90       ??$type_case_integer@$07@?$output_processor@_WV?$string_output_adapter@_W@__crt_stdio_output@@V?$format_validation_base@_WV?$string_output_adapter@_W@__crt_stdio_output@@@2@@__crt_stdio_output@@AEAA_N_N@Z 0000000180060c90 f i libucrtd:output.obj
 0001:00060110       ??$type_case_integer@$07@?$output_processor@_WV?$string_output_adapter@_W@__crt_stdio_output@@V?$positional_parameter_base@_WV?$string_output_adapter@_W@__crt_stdio_output@@@2@@__crt_stdio_output@@AEAA_N_N@Z 0000000180061110 f i libucrtd:output.obj
 0001:00060590       ??$type_case_integer@$07@?$output_processor@_WV?$string_output_adapter@_W@__crt_stdio_output@@V?$standard_base@_WV?$string_output_adapter@_W@__crt_stdio_output@@@2@@__crt_stdio_output@@AEAA_N_N@Z 0000000180061590 f i libucrtd:output.obj
 0001:00060a10       ??$type_case_integer@$09@?$output_processor@DV?$stream_output_adapter@D@__crt_stdio_output@@V?$format_validation_base@DV?$stream_output_adapter@D@__crt_stdio_output@@@2@@__crt_stdio_output@@AEAA_N_N@Z 0000000180061a10 f i libucrtd:output.obj
 0001:00060e90       ??$type_case_integer@$09@?$output_processor@DV?$stream_output_adapter@D@__crt_stdio_output@@V?$positional_parameter_base@DV?$stream_output_adapter@D@__crt_stdio_output@@@2@@__crt_stdio_output@@AEAA_N_N@Z 0000000180061e90 f i libucrtd:output.obj
 0001:00061310       ??$type_case_integer@$09@?$output_processor@DV?$stream_output_adapter@D@__crt_stdio_output@@V?$standard_base@DV?$stream_output_adapter@D@__crt_stdio_output@@@2@@__crt_stdio_output@@AEAA_N_N@Z 0000000180062310 f i libucrtd:output.obj
 0001:00061790       ??$type_case_integer@$09@?$output_processor@DV?$string_output_adapter@D@__crt_stdio_output@@V?$format_validation_base@DV?$string_output_adapter@D@__crt_stdio_output@@@2@@__crt_stdio_output@@AEAA_N_N@Z 0000000180062790 f i libucrtd:output.obj
 0001:00061c10       ??$type_case_integer@$09@?$output_processor@DV?$string_output_adapter@D@__crt_stdio_output@@V?$positional_parameter_base@DV?$string_output_adapter@D@__crt_stdio_output@@@2@@__crt_stdio_output@@AEAA_N_N@Z 0000000180062c10 f i libucrtd:output.obj
 0001:00062090       ??$type_case_integer@$09@?$output_processor@DV?$string_output_adapter@D@__crt_stdio_output@@V?$standard_base@DV?$string_output_adapter@D@__crt_stdio_output@@@2@@__crt_stdio_output@@AEAA_N_N@Z 0000000180063090 f i libucrtd:output.obj
 0001:00062510       ??$type_case_integer@$09@?$output_processor@_WV?$stream_output_adapter@_W@__crt_stdio_output@@V?$format_validation_base@_WV?$stream_output_adapter@_W@__crt_stdio_output@@@2@@__crt_stdio_output@@AEAA_N_N@Z 0000000180063510 f i libucrtd:output.obj
 0001:00062990       ??$type_case_integer@$09@?$output_processor@_WV?$stream_output_adapter@_W@__crt_stdio_output@@V?$positional_parameter_base@_WV?$stream_output_adapter@_W@__crt_stdio_output@@@2@@__crt_stdio_output@@AEAA_N_N@Z 0000000180063990 f i libucrtd:output.obj
 0001:00062e10       ??$type_case_integer@$09@?$output_processor@_WV?$stream_output_adapter@_W@__crt_stdio_output@@V?$standard_base@_WV?$stream_output_adapter@_W@__crt_stdio_output@@@2@@__crt_stdio_output@@AEAA_N_N@Z 0000000180063e10 f i libucrtd:output.obj
 0001:00063290       ??$type_case_integer@$09@?$output_processor@_WV?$string_output_adapter@_W@__crt_stdio_output@@V?$format_validation_base@_WV?$string_output_adapter@_W@__crt_stdio_output@@@2@@__crt_stdio_output@@AEAA_N_N@Z 0000000180064290 f i libucrtd:output.obj
 0001:00063710       ??$type_case_integer@$09@?$output_processor@_WV?$string_output_adapter@_W@__crt_stdio_output@@V?$positional_parameter_base@_WV?$string_output_adapter@_W@__crt_stdio_output@@@2@@__crt_stdio_output@@AEAA_N_N@Z 0000000180064710 f i libucrtd:output.obj
 0001:00063b90       ??$type_case_integer@$09@?$output_processor@_WV?$string_output_adapter@_W@__crt_stdio_output@@V?$standard_base@_WV?$string_output_adapter@_W@__crt_stdio_output@@@2@@__crt_stdio_output@@AEAA_N_N@Z 0000000180064b90 f i libucrtd:output.obj
 0001:00064010       ??$type_case_integer@$0BA@@?$output_processor@DV?$stream_output_adapter@D@__crt_stdio_output@@V?$format_validation_base@DV?$stream_output_adapter@D@__crt_stdio_output@@@2@@__crt_stdio_output@@AEAA_N_N@Z 0000000180065010 f i libucrtd:output.obj
 0001:00064490       ??$type_case_integer@$0BA@@?$output_processor@DV?$stream_output_adapter@D@__crt_stdio_output@@V?$positional_parameter_base@DV?$stream_output_adapter@D@__crt_stdio_output@@@2@@__crt_stdio_output@@AEAA_N_N@Z 0000000180065490 f i libucrtd:output.obj
 0001:00064910       ??$type_case_integer@$0BA@@?$output_processor@DV?$stream_output_adapter@D@__crt_stdio_output@@V?$standard_base@DV?$stream_output_adapter@D@__crt_stdio_output@@@2@@__crt_stdio_output@@AEAA_N_N@Z 0000000180065910 f i libucrtd:output.obj
 0001:00064d90       ??$type_case_integer@$0BA@@?$output_processor@DV?$string_output_adapter@D@__crt_stdio_output@@V?$format_validation_base@DV?$string_output_adapter@D@__crt_stdio_output@@@2@@__crt_stdio_output@@AEAA_N_N@Z 0000000180065d90 f i libucrtd:output.obj
 0001:00065210       ??$type_case_integer@$0BA@@?$output_processor@DV?$string_output_adapter@D@__crt_stdio_output@@V?$positional_parameter_base@DV?$string_output_adapter@D@__crt_stdio_output@@@2@@__crt_stdio_output@@AEAA_N_N@Z 0000000180066210 f i libucrtd:output.obj
 0001:00065690       ??$type_case_integer@$0BA@@?$output_processor@DV?$string_output_adapter@D@__crt_stdio_output@@V?$standard_base@DV?$string_output_adapter@D@__crt_stdio_output@@@2@@__crt_stdio_output@@AEAA_N_N@Z 0000000180066690 f i libucrtd:output.obj
 0001:00065b10       ??$type_case_integer@$0BA@@?$output_processor@_WV?$stream_output_adapter@_W@__crt_stdio_output@@V?$format_validation_base@_WV?$stream_output_adapter@_W@__crt_stdio_output@@@2@@__crt_stdio_output@@AEAA_N_N@Z 0000000180066b10 f i libucrtd:output.obj
 0001:00065f90       ??$type_case_integer@$0BA@@?$output_processor@_WV?$stream_output_adapter@_W@__crt_stdio_output@@V?$positional_parameter_base@_WV?$stream_output_adapter@_W@__crt_stdio_output@@@2@@__crt_stdio_output@@AEAA_N_N@Z 0000000180066f90 f i libucrtd:output.obj
 0001:00066410       ??$type_case_integer@$0BA@@?$output_processor@_WV?$stream_output_adapter@_W@__crt_stdio_output@@V?$standard_base@_WV?$stream_output_adapter@_W@__crt_stdio_output@@@2@@__crt_stdio_output@@AEAA_N_N@Z 0000000180067410 f i libucrtd:output.obj
 0001:00066890       ??$type_case_integer@$0BA@@?$output_processor@_WV?$string_output_adapter@_W@__crt_stdio_output@@V?$format_validation_base@_WV?$string_output_adapter@_W@__crt_stdio_output@@@2@@__crt_stdio_output@@AEAA_N_N@Z 0000000180067890 f i libucrtd:output.obj
 0001:00066d10       ??$type_case_integer@$0BA@@?$output_processor@_WV?$string_output_adapter@_W@__crt_stdio_output@@V?$positional_parameter_base@_WV?$string_output_adapter@_W@__crt_stdio_output@@@2@@__crt_stdio_output@@AEAA_N_N@Z 0000000180067d10 f i libucrtd:output.obj
 0001:00067190       ??$type_case_integer@$0BA@@?$output_processor@_WV?$string_output_adapter@_W@__crt_stdio_output@@V?$standard_base@_WV?$string_output_adapter@_W@__crt_stdio_output@@@2@@__crt_stdio_output@@AEAA_N_N@Z 0000000180068190 f i libucrtd:output.obj
 0001:00067610       ??$type_case_integer_parse_into_buffer@I$07@?$output_processor@DV?$stream_output_adapter@D@__crt_stdio_output@@V?$format_validation_base@DV?$stream_output_adapter@D@__crt_stdio_output@@@2@@__crt_stdio_output@@AEAAXI_N@Z 0000000180068610 f i libucrtd:output.obj
 0001:00067740       ??$type_case_integer_parse_into_buffer@I$07@?$output_processor@DV?$stream_output_adapter@D@__crt_stdio_output@@V?$positional_parameter_base@DV?$stream_output_adapter@D@__crt_stdio_output@@@2@@__crt_stdio_output@@AEAAXI_N@Z 0000000180068740 f i libucrtd:output.obj
 0001:00067870       ??$type_case_integer_parse_into_buffer@I$07@?$output_processor@DV?$stream_output_adapter@D@__crt_stdio_output@@V?$standard_base@DV?$stream_output_adapter@D@__crt_stdio_output@@@2@@__crt_stdio_output@@AEAAXI_N@Z 0000000180068870 f i libucrtd:output.obj
 0001:000679a0       ??$type_case_integer_parse_into_buffer@I$07@?$output_processor@DV?$string_output_adapter@D@__crt_stdio_output@@V?$format_validation_base@DV?$string_output_adapter@D@__crt_stdio_output@@@2@@__crt_stdio_output@@AEAAXI_N@Z 00000001800689a0 f i libucrtd:output.obj
 0001:00067ad0       ??$type_case_integer_parse_into_buffer@I$07@?$output_processor@DV?$string_output_adapter@D@__crt_stdio_output@@V?$positional_parameter_base@DV?$string_output_adapter@D@__crt_stdio_output@@@2@@__crt_stdio_output@@AEAAXI_N@Z 0000000180068ad0 f i libucrtd:output.obj
 0001:00067c00       ??$type_case_integer_parse_into_buffer@I$07@?$output_processor@DV?$string_output_adapter@D@__crt_stdio_output@@V?$standard_base@DV?$string_output_adapter@D@__crt_stdio_output@@@2@@__crt_stdio_output@@AEAAXI_N@Z 0000000180068c00 f i libucrtd:output.obj
 0001:00067d30       ??$type_case_integer_parse_into_buffer@I$07@?$output_processor@_WV?$stream_output_adapter@_W@__crt_stdio_output@@V?$format_validation_base@_WV?$stream_output_adapter@_W@__crt_stdio_output@@@2@@__crt_stdio_output@@AEAAXI_N@Z 0000000180068d30 f i libucrtd:output.obj
 0001:00067e70       ??$type_case_integer_parse_into_buffer@I$07@?$output_processor@_WV?$stream_output_adapter@_W@__crt_stdio_output@@V?$positional_parameter_base@_WV?$stream_output_adapter@_W@__crt_stdio_output@@@2@@__crt_stdio_output@@AEAAXI_N@Z 0000000180068e70 f i libucrtd:output.obj
 0001:00067fb0       ??$type_case_integer_parse_into_buffer@I$07@?$output_processor@_WV?$stream_output_adapter@_W@__crt_stdio_output@@V?$standard_base@_WV?$stream_output_adapter@_W@__crt_stdio_output@@@2@@__crt_stdio_output@@AEAAXI_N@Z 0000000180068fb0 f i libucrtd:output.obj
 0001:000680f0       ??$type_case_integer_parse_into_buffer@I$07@?$output_processor@_WV?$string_output_adapter@_W@__crt_stdio_output@@V?$format_validation_base@_WV?$string_output_adapter@_W@__crt_stdio_output@@@2@@__crt_stdio_output@@AEAAXI_N@Z 00000001800690f0 f i libucrtd:output.obj
 0001:00068230       ??$type_case_integer_parse_into_buffer@I$07@?$output_processor@_WV?$string_output_adapter@_W@__crt_stdio_output@@V?$positional_parameter_base@_WV?$string_output_adapter@_W@__crt_stdio_output@@@2@@__crt_stdio_output@@AEAAXI_N@Z 0000000180069230 f i libucrtd:output.obj
 0001:00068370       ??$type_case_integer_parse_into_buffer@I$07@?$output_processor@_WV?$string_output_adapter@_W@__crt_stdio_output@@V?$standard_base@_WV?$string_output_adapter@_W@__crt_stdio_output@@@2@@__crt_stdio_output@@AEAAXI_N@Z 0000000180069370 f i libucrtd:output.obj
 0001:000684b0       ??$type_case_integer_parse_into_buffer@I$09@?$output_processor@DV?$stream_output_adapter@D@__crt_stdio_output@@V?$format_validation_base@DV?$stream_output_adapter@D@__crt_stdio_output@@@2@@__crt_stdio_output@@AEAAXI_N@Z 00000001800694b0 f i libucrtd:output.obj
 0001:000685e0       ??$type_case_integer_parse_into_buffer@I$09@?$output_processor@DV?$stream_output_adapter@D@__crt_stdio_output@@V?$positional_parameter_base@DV?$stream_output_adapter@D@__crt_stdio_output@@@2@@__crt_stdio_output@@AEAAXI_N@Z 00000001800695e0 f i libucrtd:output.obj
 0001:00068710       ??$type_case_integer_parse_into_buffer@I$09@?$output_processor@DV?$stream_output_adapter@D@__crt_stdio_output@@V?$standard_base@DV?$stream_output_adapter@D@__crt_stdio_output@@@2@@__crt_stdio_output@@AEAAXI_N@Z 0000000180069710 f i libucrtd:output.obj
 0001:00068840       ??$type_case_integer_parse_into_buffer@I$09@?$output_processor@DV?$string_output_adapter@D@__crt_stdio_output@@V?$format_validation_base@DV?$string_output_adapter@D@__crt_stdio_output@@@2@@__crt_stdio_output@@AEAAXI_N@Z 0000000180069840 f i libucrtd:output.obj
 0001:00068970       ??$type_case_integer_parse_into_buffer@I$09@?$output_processor@DV?$string_output_adapter@D@__crt_stdio_output@@V?$positional_parameter_base@DV?$string_output_adapter@D@__crt_stdio_output@@@2@@__crt_stdio_output@@AEAAXI_N@Z 0000000180069970 f i libucrtd:output.obj
 0001:00068aa0       ??$type_case_integer_parse_into_buffer@I$09@?$output_processor@DV?$string_output_adapter@D@__crt_stdio_output@@V?$standard_base@DV?$string_output_adapter@D@__crt_stdio_output@@@2@@__crt_stdio_output@@AEAAXI_N@Z 0000000180069aa0 f i libucrtd:output.obj
 0001:00068bd0       ??$type_case_integer_parse_into_buffer@I$09@?$output_processor@_WV?$stream_output_adapter@_W@__crt_stdio_output@@V?$format_validation_base@_WV?$stream_output_adapter@_W@__crt_stdio_output@@@2@@__crt_stdio_output@@AEAAXI_N@Z 0000000180069bd0 f i libucrtd:output.obj
 0001:00068d10       ??$type_case_integer_parse_into_buffer@I$09@?$output_processor@_WV?$stream_output_adapter@_W@__crt_stdio_output@@V?$positional_parameter_base@_WV?$stream_output_adapter@_W@__crt_stdio_output@@@2@@__crt_stdio_output@@AEAAXI_N@Z 0000000180069d10 f i libucrtd:output.obj
 0001:00068e50       ??$type_case_integer_parse_into_buffer@I$09@?$output_processor@_WV?$stream_output_adapter@_W@__crt_stdio_output@@V?$standard_base@_WV?$stream_output_adapter@_W@__crt_stdio_output@@@2@@__crt_stdio_output@@AEAAXI_N@Z 0000000180069e50 f i libucrtd:output.obj
 0001:00068f90       ??$type_case_integer_parse_into_buffer@I$09@?$output_processor@_WV?$string_output_adapter@_W@__crt_stdio_output@@V?$format_validation_base@_WV?$string_output_adapter@_W@__crt_stdio_output@@@2@@__crt_stdio_output@@AEAAXI_N@Z 0000000180069f90 f i libucrtd:output.obj
 0001:000690d0       ??$type_case_integer_parse_into_buffer@I$09@?$output_processor@_WV?$string_output_adapter@_W@__crt_stdio_output@@V?$positional_parameter_base@_WV?$string_output_adapter@_W@__crt_stdio_output@@@2@@__crt_stdio_output@@AEAAXI_N@Z 000000018006a0d0 f i libucrtd:output.obj
 0001:00069210       ??$type_case_integer_parse_into_buffer@I$09@?$output_processor@_WV?$string_output_adapter@_W@__crt_stdio_output@@V?$standard_base@_WV?$string_output_adapter@_W@__crt_stdio_output@@@2@@__crt_stdio_output@@AEAAXI_N@Z 000000018006a210 f i libucrtd:output.obj
 0001:00069350       ??$type_case_integer_parse_into_buffer@I$0BA@@?$output_processor@DV?$stream_output_adapter@D@__crt_stdio_output@@V?$format_validation_base@DV?$stream_output_adapter@D@__crt_stdio_output@@@2@@__crt_stdio_output@@AEAAXI_N@Z 000000018006a350 f i libucrtd:output.obj
 0001:00069480       ??$type_case_integer_parse_into_buffer@I$0BA@@?$output_processor@DV?$stream_output_adapter@D@__crt_stdio_output@@V?$positional_parameter_base@DV?$stream_output_adapter@D@__crt_stdio_output@@@2@@__crt_stdio_output@@AEAAXI_N@Z 000000018006a480 f i libucrtd:output.obj
 0001:000695b0       ??$type_case_integer_parse_into_buffer@I$0BA@@?$output_processor@DV?$stream_output_adapter@D@__crt_stdio_output@@V?$standard_base@DV?$stream_output_adapter@D@__crt_stdio_output@@@2@@__crt_stdio_output@@AEAAXI_N@Z 000000018006a5b0 f i libucrtd:output.obj
 0001:000696e0       ??$type_case_integer_parse_into_buffer@I$0BA@@?$output_processor@DV?$string_output_adapter@D@__crt_stdio_output@@V?$format_validation_base@DV?$string_output_adapter@D@__crt_stdio_output@@@2@@__crt_stdio_output@@AEAAXI_N@Z 000000018006a6e0 f i libucrtd:output.obj
 0001:00069810       ??$type_case_integer_parse_into_buffer@I$0BA@@?$output_processor@DV?$string_output_adapter@D@__crt_stdio_output@@V?$positional_parameter_base@DV?$string_output_adapter@D@__crt_stdio_output@@@2@@__crt_stdio_output@@AEAAXI_N@Z 000000018006a810 f i libucrtd:output.obj
 0001:00069940       ??$type_case_integer_parse_into_buffer@I$0BA@@?$output_processor@DV?$string_output_adapter@D@__crt_stdio_output@@V?$standard_base@DV?$string_output_adapter@D@__crt_stdio_output@@@2@@__crt_stdio_output@@AEAAXI_N@Z 000000018006a940 f i libucrtd:output.obj
 0001:00069a70       ??$type_case_integer_parse_into_buffer@I$0BA@@?$output_processor@_WV?$stream_output_adapter@_W@__crt_stdio_output@@V?$format_validation_base@_WV?$stream_output_adapter@_W@__crt_stdio_output@@@2@@__crt_stdio_output@@AEAAXI_N@Z 000000018006aa70 f i libucrtd:output.obj
 0001:00069bb0       ??$type_case_integer_parse_into_buffer@I$0BA@@?$output_processor@_WV?$stream_output_adapter@_W@__crt_stdio_output@@V?$positional_parameter_base@_WV?$stream_output_adapter@_W@__crt_stdio_output@@@2@@__crt_stdio_output@@AEAAXI_N@Z 000000018006abb0 f i libucrtd:output.obj
 0001:00069cf0       ??$type_case_integer_parse_into_buffer@I$0BA@@?$output_processor@_WV?$stream_output_adapter@_W@__crt_stdio_output@@V?$standard_base@_WV?$stream_output_adapter@_W@__crt_stdio_output@@@2@@__crt_stdio_output@@AEAAXI_N@Z 000000018006acf0 f i libucrtd:output.obj
 0001:00069e30       ??$type_case_integer_parse_into_buffer@I$0BA@@?$output_processor@_WV?$string_output_adapter@_W@__crt_stdio_output@@V?$format_validation_base@_WV?$string_output_adapter@_W@__crt_stdio_output@@@2@@__crt_stdio_output@@AEAAXI_N@Z 000000018006ae30 f i libucrtd:output.obj
 0001:00069f70       ??$type_case_integer_parse_into_buffer@I$0BA@@?$output_processor@_WV?$string_output_adapter@_W@__crt_stdio_output@@V?$positional_parameter_base@_WV?$string_output_adapter@_W@__crt_stdio_output@@@2@@__crt_stdio_output@@AEAAXI_N@Z 000000018006af70 f i libucrtd:output.obj
 0001:0006a0b0       ??$type_case_integer_parse_into_buffer@I$0BA@@?$output_processor@_WV?$string_output_adapter@_W@__crt_stdio_output@@V?$standard_base@_WV?$string_output_adapter@_W@__crt_stdio_output@@@2@@__crt_stdio_output@@AEAAXI_N@Z 000000018006b0b0 f i libucrtd:output.obj
 0001:0006a1f0       ??$type_case_integer_parse_into_buffer@_K$07@?$output_processor@DV?$stream_output_adapter@D@__crt_stdio_output@@V?$format_validation_base@DV?$stream_output_adapter@D@__crt_stdio_output@@@2@@__crt_stdio_output@@AEAAX_K_N@Z 000000018006b1f0 f i libucrtd:output.obj
 0001:0006a330       ??$type_case_integer_parse_into_buffer@_K$07@?$output_processor@DV?$stream_output_adapter@D@__crt_stdio_output@@V?$positional_parameter_base@DV?$stream_output_adapter@D@__crt_stdio_output@@@2@@__crt_stdio_output@@AEAAX_K_N@Z 000000018006b330 f i libucrtd:output.obj
 0001:0006a470       ??$type_case_integer_parse_into_buffer@_K$07@?$output_processor@DV?$stream_output_adapter@D@__crt_stdio_output@@V?$standard_base@DV?$stream_output_adapter@D@__crt_stdio_output@@@2@@__crt_stdio_output@@AEAAX_K_N@Z 000000018006b470 f i libucrtd:output.obj
 0001:0006a5b0       ??$type_case_integer_parse_into_buffer@_K$07@?$output_processor@DV?$string_output_adapter@D@__crt_stdio_output@@V?$format_validation_base@DV?$string_output_adapter@D@__crt_stdio_output@@@2@@__crt_stdio_output@@AEAAX_K_N@Z 000000018006b5b0 f i libucrtd:output.obj
 0001:0006a6f0       ??$type_case_integer_parse_into_buffer@_K$07@?$output_processor@DV?$string_output_adapter@D@__crt_stdio_output@@V?$positional_parameter_base@DV?$string_output_adapter@D@__crt_stdio_output@@@2@@__crt_stdio_output@@AEAAX_K_N@Z 000000018006b6f0 f i libucrtd:output.obj
 0001:0006a830       ??$type_case_integer_parse_into_buffer@_K$07@?$output_processor@DV?$string_output_adapter@D@__crt_stdio_output@@V?$standard_base@DV?$string_output_adapter@D@__crt_stdio_output@@@2@@__crt_stdio_output@@AEAAX_K_N@Z 000000018006b830 f i libucrtd:output.obj
 0001:0006a970       ??$type_case_integer_parse_into_buffer@_K$07@?$output_processor@_WV?$stream_output_adapter@_W@__crt_stdio_output@@V?$format_validation_base@_WV?$stream_output_adapter@_W@__crt_stdio_output@@@2@@__crt_stdio_output@@AEAAX_K_N@Z 000000018006b970 f i libucrtd:output.obj
 0001:0006aab0       ??$type_case_integer_parse_into_buffer@_K$07@?$output_processor@_WV?$stream_output_adapter@_W@__crt_stdio_output@@V?$positional_parameter_base@_WV?$stream_output_adapter@_W@__crt_stdio_output@@@2@@__crt_stdio_output@@AEAAX_K_N@Z 000000018006bab0 f i libucrtd:output.obj
 0001:0006abf0       ??$type_case_integer_parse_into_buffer@_K$07@?$output_processor@_WV?$stream_output_adapter@_W@__crt_stdio_output@@V?$standard_base@_WV?$stream_output_adapter@_W@__crt_stdio_output@@@2@@__crt_stdio_output@@AEAAX_K_N@Z 000000018006bbf0 f i libucrtd:output.obj
 0001:0006ad30       ??$type_case_integer_parse_into_buffer@_K$07@?$output_processor@_WV?$string_output_adapter@_W@__crt_stdio_output@@V?$format_validation_base@_WV?$string_output_adapter@_W@__crt_stdio_output@@@2@@__crt_stdio_output@@AEAAX_K_N@Z 000000018006bd30 f i libucrtd:output.obj
 0001:0006ae70       ??$type_case_integer_parse_into_buffer@_K$07@?$output_processor@_WV?$string_output_adapter@_W@__crt_stdio_output@@V?$positional_parameter_base@_WV?$string_output_adapter@_W@__crt_stdio_output@@@2@@__crt_stdio_output@@AEAAX_K_N@Z 000000018006be70 f i libucrtd:output.obj
 0001:0006afb0       ??$type_case_integer_parse_into_buffer@_K$07@?$output_processor@_WV?$string_output_adapter@_W@__crt_stdio_output@@V?$standard_base@_WV?$string_output_adapter@_W@__crt_stdio_output@@@2@@__crt_stdio_output@@AEAAX_K_N@Z 000000018006bfb0 f i libucrtd:output.obj
 0001:0006b0f0       ??$type_case_integer_parse_into_buffer@_K$09@?$output_processor@DV?$stream_output_adapter@D@__crt_stdio_output@@V?$format_validation_base@DV?$stream_output_adapter@D@__crt_stdio_output@@@2@@__crt_stdio_output@@AEAAX_K_N@Z 000000018006c0f0 f i libucrtd:output.obj
 0001:0006b230       ??$type_case_integer_parse_into_buffer@_K$09@?$output_processor@DV?$stream_output_adapter@D@__crt_stdio_output@@V?$positional_parameter_base@DV?$stream_output_adapter@D@__crt_stdio_output@@@2@@__crt_stdio_output@@AEAAX_K_N@Z 000000018006c230 f i libucrtd:output.obj
 0001:0006b370       ??$type_case_integer_parse_into_buffer@_K$09@?$output_processor@DV?$stream_output_adapter@D@__crt_stdio_output@@V?$standard_base@DV?$stream_output_adapter@D@__crt_stdio_output@@@2@@__crt_stdio_output@@AEAAX_K_N@Z 000000018006c370 f i libucrtd:output.obj
 0001:0006b4b0       ??$type_case_integer_parse_into_buffer@_K$09@?$output_processor@DV?$string_output_adapter@D@__crt_stdio_output@@V?$format_validation_base@DV?$string_output_adapter@D@__crt_stdio_output@@@2@@__crt_stdio_output@@AEAAX_K_N@Z 000000018006c4b0 f i libucrtd:output.obj
 0001:0006b5f0       ??$type_case_integer_parse_into_buffer@_K$09@?$output_processor@DV?$string_output_adapter@D@__crt_stdio_output@@V?$positional_parameter_base@DV?$string_output_adapter@D@__crt_stdio_output@@@2@@__crt_stdio_output@@AEAAX_K_N@Z 000000018006c5f0 f i libucrtd:output.obj
 0001:0006b730       ??$type_case_integer_parse_into_buffer@_K$09@?$output_processor@DV?$string_output_adapter@D@__crt_stdio_output@@V?$standard_base@DV?$string_output_adapter@D@__crt_stdio_output@@@2@@__crt_stdio_output@@AEAAX_K_N@Z 000000018006c730 f i libucrtd:output.obj
 0001:0006b870       ??$type_case_integer_parse_into_buffer@_K$09@?$output_processor@_WV?$stream_output_adapter@_W@__crt_stdio_output@@V?$format_validation_base@_WV?$stream_output_adapter@_W@__crt_stdio_output@@@2@@__crt_stdio_output@@AEAAX_K_N@Z 000000018006c870 f i libucrtd:output.obj
 0001:0006b9b0       ??$type_case_integer_parse_into_buffer@_K$09@?$output_processor@_WV?$stream_output_adapter@_W@__crt_stdio_output@@V?$positional_parameter_base@_WV?$stream_output_adapter@_W@__crt_stdio_output@@@2@@__crt_stdio_output@@AEAAX_K_N@Z 000000018006c9b0 f i libucrtd:output.obj
 0001:0006baf0       ??$type_case_integer_parse_into_buffer@_K$09@?$output_processor@_WV?$stream_output_adapter@_W@__crt_stdio_output@@V?$standard_base@_WV?$stream_output_adapter@_W@__crt_stdio_output@@@2@@__crt_stdio_output@@AEAAX_K_N@Z 000000018006caf0 f i libucrtd:output.obj
 0001:0006bc30       ??$type_case_integer_parse_into_buffer@_K$09@?$output_processor@_WV?$string_output_adapter@_W@__crt_stdio_output@@V?$format_validation_base@_WV?$string_output_adapter@_W@__crt_stdio_output@@@2@@__crt_stdio_output@@AEAAX_K_N@Z 000000018006cc30 f i libucrtd:output.obj
 0001:0006bd70       ??$type_case_integer_parse_into_buffer@_K$09@?$output_processor@_WV?$string_output_adapter@_W@__crt_stdio_output@@V?$positional_parameter_base@_WV?$string_output_adapter@_W@__crt_stdio_output@@@2@@__crt_stdio_output@@AEAAX_K_N@Z 000000018006cd70 f i libucrtd:output.obj
 0001:0006beb0       ??$type_case_integer_parse_into_buffer@_K$09@?$output_processor@_WV?$string_output_adapter@_W@__crt_stdio_output@@V?$standard_base@_WV?$string_output_adapter@_W@__crt_stdio_output@@@2@@__crt_stdio_output@@AEAAX_K_N@Z 000000018006ceb0 f i libucrtd:output.obj
 0001:0006bff0       ??$type_case_integer_parse_into_buffer@_K$0BA@@?$output_processor@DV?$stream_output_adapter@D@__crt_stdio_output@@V?$format_validation_base@DV?$stream_output_adapter@D@__crt_stdio_output@@@2@@__crt_stdio_output@@AEAAX_K_N@Z 000000018006cff0 f i libucrtd:output.obj
 0001:0006c130       ??$type_case_integer_parse_into_buffer@_K$0BA@@?$output_processor@DV?$stream_output_adapter@D@__crt_stdio_output@@V?$positional_parameter_base@DV?$stream_output_adapter@D@__crt_stdio_output@@@2@@__crt_stdio_output@@AEAAX_K_N@Z 000000018006d130 f i libucrtd:output.obj
 0001:0006c270       ??$type_case_integer_parse_into_buffer@_K$0BA@@?$output_processor@DV?$stream_output_adapter@D@__crt_stdio_output@@V?$standard_base@DV?$stream_output_adapter@D@__crt_stdio_output@@@2@@__crt_stdio_output@@AEAAX_K_N@Z 000000018006d270 f i libucrtd:output.obj
 0001:0006c3b0       ??$type_case_integer_parse_into_buffer@_K$0BA@@?$output_processor@DV?$string_output_adapter@D@__crt_stdio_output@@V?$format_validation_base@DV?$string_output_adapter@D@__crt_stdio_output@@@2@@__crt_stdio_output@@AEAAX_K_N@Z 000000018006d3b0 f i libucrtd:output.obj
 0001:0006c4f0       ??$type_case_integer_parse_into_buffer@_K$0BA@@?$output_processor@DV?$string_output_adapter@D@__crt_stdio_output@@V?$positional_parameter_base@DV?$string_output_adapter@D@__crt_stdio_output@@@2@@__crt_stdio_output@@AEAAX_K_N@Z 000000018006d4f0 f i libucrtd:output.obj
 0001:0006c630       ??$type_case_integer_parse_into_buffer@_K$0BA@@?$output_processor@DV?$string_output_adapter@D@__crt_stdio_output@@V?$standard_base@DV?$string_output_adapter@D@__crt_stdio_output@@@2@@__crt_stdio_output@@AEAAX_K_N@Z 000000018006d630 f i libucrtd:output.obj
 0001:0006c770       ??$type_case_integer_parse_into_buffer@_K$0BA@@?$output_processor@_WV?$stream_output_adapter@_W@__crt_stdio_output@@V?$format_validation_base@_WV?$stream_output_adapter@_W@__crt_stdio_output@@@2@@__crt_stdio_output@@AEAAX_K_N@Z 000000018006d770 f i libucrtd:output.obj
 0001:0006c8b0       ??$type_case_integer_parse_into_buffer@_K$0BA@@?$output_processor@_WV?$stream_output_adapter@_W@__crt_stdio_output@@V?$positional_parameter_base@_WV?$stream_output_adapter@_W@__crt_stdio_output@@@2@@__crt_stdio_output@@AEAAX_K_N@Z 000000018006d8b0 f i libucrtd:output.obj
 0001:0006c9f0       ??$type_case_integer_parse_into_buffer@_K$0BA@@?$output_processor@_WV?$stream_output_adapter@_W@__crt_stdio_output@@V?$standard_base@_WV?$stream_output_adapter@_W@__crt_stdio_output@@@2@@__crt_stdio_output@@AEAAX_K_N@Z 000000018006d9f0 f i libucrtd:output.obj
 0001:0006cb30       ??$type_case_integer_parse_into_buffer@_K$0BA@@?$output_processor@_WV?$string_output_adapter@_W@__crt_stdio_output@@V?$format_validation_base@_WV?$string_output_adapter@_W@__crt_stdio_output@@@2@@__crt_stdio_output@@AEAAX_K_N@Z 000000018006db30 f i libucrtd:output.obj
 0001:0006cc70       ??$type_case_integer_parse_into_buffer@_K$0BA@@?$output_processor@_WV?$string_output_adapter@_W@__crt_stdio_output@@V?$positional_parameter_base@_WV?$string_output_adapter@_W@__crt_stdio_output@@@2@@__crt_stdio_output@@AEAAX_K_N@Z 000000018006dc70 f i libucrtd:output.obj
 0001:0006cdb0       ??$type_case_integer_parse_into_buffer@_K$0BA@@?$output_processor@_WV?$string_output_adapter@_W@__crt_stdio_output@@V?$standard_base@_WV?$string_output_adapter@_W@__crt_stdio_output@@@2@@__crt_stdio_output@@AEAAX_K_N@Z 000000018006ddb0 f i libucrtd:output.obj
 0001:0006cef0       ??$write_multiple_characters@V?$stream_output_adapter@D@__crt_stdio_output@@D@__crt_stdio_output@@YAXAEBV?$stream_output_adapter@D@0@DHQEAHAEAV__crt_cached_ptd_host@@@Z 000000018006def0 f i libucrtd:output.obj
 0001:0006cf60       ??$write_multiple_characters@V?$stream_output_adapter@_W@__crt_stdio_output@@D@__crt_stdio_output@@YAXAEBV?$stream_output_adapter@_W@0@DHQEAHAEAV__crt_cached_ptd_host@@@Z 000000018006df60 f i libucrtd:output.obj
 0001:0006cfd0       ??$write_multiple_characters@V?$string_output_adapter@D@__crt_stdio_output@@D@__crt_stdio_output@@YAXAEBV?$string_output_adapter@D@0@DHQEAHAEAV__crt_cached_ptd_host@@@Z 000000018006dfd0 f i libucrtd:output.obj
 0001:0006d040       ??$write_multiple_characters@V?$string_output_adapter@_W@__crt_stdio_output@@D@__crt_stdio_output@@YAXAEBV?$string_output_adapter@_W@0@DHQEAHAEAV__crt_cached_ptd_host@@@Z 000000018006e040 f i libucrtd:output.obj
 0001:0006d470       ??0?$c_string_character_source@D@__crt_strtox@@QEAA@QEBDQEAPEBD@Z 000000018006e470 f i libucrtd:output.obj
 0001:0006d4c0       ??0?$c_string_character_source@_W@__crt_strtox@@QEAA@QEB_WQEAPEB_W@Z 000000018006e4c0 f i libucrtd:output.obj
 0001:0006d510       ??0?$cached@H@__crt_cached_ptd_host@@QEAA@XZ 000000018006e510 f i libucrtd:output.obj
 0001:0006d530       ??0?$cached@K@__crt_cached_ptd_host@@QEAA@XZ 000000018006e530 f i libucrtd:output.obj
 0001:0006d550       ??0?$common_data@D@__crt_stdio_output@@IEAA@AEAV__crt_cached_ptd_host@@@Z 000000018006e550 f i libucrtd:output.obj
 0001:0006d610       ??0?$common_data@_W@__crt_stdio_output@@IEAA@AEAV__crt_cached_ptd_host@@@Z 000000018006e610 f i libucrtd:output.obj
 0001:0006d6d0       ??0?$output_adapter_data@DV?$stream_output_adapter@D@__crt_stdio_output@@@__crt_stdio_output@@IEAA@AEBV?$stream_output_adapter@D@1@_KQEBDAEAV__crt_cached_ptd_host@@QEAD@Z 000000018006e6d0 f i libucrtd:output.obj
 0001:0006d750       ??0?$output_adapter_data@DV?$string_output_adapter@D@__crt_stdio_output@@@__crt_stdio_output@@IEAA@AEBV?$string_output_adapter@D@1@_KQEBDAEAV__crt_cached_ptd_host@@QEAD@Z 000000018006e750 f i libucrtd:output.obj
 0001:0006d7d0       ??0?$output_adapter_data@_WV?$stream_output_adapter@_W@__crt_stdio_output@@@__crt_stdio_output@@IEAA@AEBV?$stream_output_adapter@_W@1@_KQEB_WAEAV__crt_cached_ptd_host@@QEAD@Z 000000018006e7d0 f i libucrtd:output.obj
 0001:0006d850       ??0?$output_adapter_data@_WV?$string_output_adapter@_W@__crt_stdio_output@@@__crt_stdio_output@@IEAA@AEBV?$string_output_adapter@_W@1@_KQEB_WAEAV__crt_cached_ptd_host@@QEAD@Z 000000018006e850 f i libucrtd:output.obj
 0001:0006d8d0       ??0?$output_processor@DV?$stream_output_adapter@D@__crt_stdio_output@@V?$format_validation_base@DV?$stream_output_adapter@D@__crt_stdio_output@@@2@@__crt_stdio_output@@QEAA@AEBV?$stream_output_adapter@D@1@_KQEBDAEAV__crt_cached_ptd_host@@QEAD@Z 000000018006e8d0 f i libucrtd:output.obj
 0001:0006d920       ??0?$output_processor@DV?$stream_output_adapter@D@__crt_stdio_output@@V?$positional_parameter_base@DV?$stream_output_adapter@D@__crt_stdio_output@@@2@@__crt_stdio_output@@QEAA@AEBV?$stream_output_adapter@D@1@_KQEBDAEAV__crt_cached_ptd_host@@QEAD@Z 000000018006e920 f i libucrtd:output.obj
 0001:0006d970       ??0?$output_processor@DV?$stream_output_adapter@D@__crt_stdio_output@@V?$standard_base@DV?$stream_output_adapter@D@__crt_stdio_output@@@2@@__crt_stdio_output@@QEAA@AEBV?$stream_output_adapter@D@1@_KQEBDAEAV__crt_cached_ptd_host@@QEAD@Z 000000018006e970 f i libucrtd:output.obj
 0001:0006d9c0       ??0?$output_processor@DV?$string_output_adapter@D@__crt_stdio_output@@V?$format_validation_base@DV?$string_output_adapter@D@__crt_stdio_output@@@2@@__crt_stdio_output@@QEAA@AEBV?$string_output_adapter@D@1@_KQEBDAEAV__crt_cached_ptd_host@@QEAD@Z 000000018006e9c0 f i libucrtd:output.obj
 0001:0006da10       ??0?$output_processor@DV?$string_output_adapter@D@__crt_stdio_output@@V?$positional_parameter_base@DV?$string_output_adapter@D@__crt_stdio_output@@@2@@__crt_stdio_output@@QEAA@AEBV?$string_output_adapter@D@1@_KQEBDAEAV__crt_cached_ptd_host@@QEAD@Z 000000018006ea10 f i libucrtd:output.obj
 0001:0006da60       ??0?$output_processor@DV?$string_output_adapter@D@__crt_stdio_output@@V?$standard_base@DV?$string_output_adapter@D@__crt_stdio_output@@@2@@__crt_stdio_output@@QEAA@AEBV?$string_output_adapter@D@1@_KQEBDAEAV__crt_cached_ptd_host@@QEAD@Z 000000018006ea60 f i libucrtd:output.obj
 0001:0006dab0       ??0?$output_processor@_WV?$stream_output_adapter@_W@__crt_stdio_output@@V?$format_validation_base@_WV?$stream_output_adapter@_W@__crt_stdio_output@@@2@@__crt_stdio_output@@QEAA@AEBV?$stream_output_adapter@_W@1@_KQEB_WAEAV__crt_cached_ptd_host@@QEAD@Z 000000018006eab0 f i libucrtd:output.obj
 0001:0006db00       ??0?$output_processor@_WV?$stream_output_adapter@_W@__crt_stdio_output@@V?$positional_parameter_base@_WV?$stream_output_adapter@_W@__crt_stdio_output@@@2@@__crt_stdio_output@@QEAA@AEBV?$stream_output_adapter@_W@1@_KQEB_WAEAV__crt_cached_ptd_host@@QEAD@Z 000000018006eb00 f i libucrtd:output.obj
 0001:0006db50       ??0?$output_processor@_WV?$stream_output_adapter@_W@__crt_stdio_output@@V?$standard_base@_WV?$stream_output_adapter@_W@__crt_stdio_output@@@2@@__crt_stdio_output@@QEAA@AEBV?$stream_output_adapter@_W@1@_KQEB_WAEAV__crt_cached_ptd_host@@QEAD@Z 000000018006eb50 f i libucrtd:output.obj
 0001:0006dba0       ??0?$output_processor@_WV?$string_output_adapter@_W@__crt_stdio_output@@V?$format_validation_base@_WV?$string_output_adapter@_W@__crt_stdio_output@@@2@@__crt_stdio_output@@QEAA@AEBV?$string_output_adapter@_W@1@_KQEB_WAEAV__crt_cached_ptd_host@@QEAD@Z 000000018006eba0 f i libucrtd:output.obj
 0001:0006dbf0       ??0?$output_processor@_WV?$string_output_adapter@_W@__crt_stdio_output@@V?$positional_parameter_base@_WV?$string_output_adapter@_W@__crt_stdio_output@@@2@@__crt_stdio_output@@QEAA@AEBV?$string_output_adapter@_W@1@_KQEB_WAEAV__crt_cached_ptd_host@@QEAD@Z 000000018006ebf0 f i libucrtd:output.obj
 0001:0006dc40       ??0?$output_processor@_WV?$string_output_adapter@_W@__crt_stdio_output@@V?$standard_base@_WV?$string_output_adapter@_W@__crt_stdio_output@@@2@@__crt_stdio_output@@QEAA@AEBV?$string_output_adapter@_W@1@_KQEB_WAEAV__crt_cached_ptd_host@@QEAD@Z 000000018006ec40 f i libucrtd:output.obj
 0001:0006dc90       ??0?$stream_output_adapter@D@__crt_stdio_output@@QEAA@QEAU_iobuf@@@Z 000000018006ec90 f i libucrtd:output.obj
 0001:0006dcd0       ??0?$stream_output_adapter@_W@__crt_stdio_output@@QEAA@QEAU_iobuf@@@Z 000000018006ecd0 f i libucrtd:output.obj
 0001:0006dd10       ??0?$string_output_adapter@D@__crt_stdio_output@@QEAA@QEAU?$string_output_adapter_context@D@1@@Z 000000018006ed10 f i libucrtd:output.obj
 0001:0006dd30       ??0?$string_output_adapter@_W@__crt_stdio_output@@QEAA@QEAU?$string_output_adapter_context@_W@1@@Z 000000018006ed30 f i libucrtd:output.obj
 0001:0006dd50       ??0__acrt_stdio_temporary_buffering_guard@@QEAA@QEAU_iobuf@@AEAV__crt_cached_ptd_host@@@Z 000000018006ed50 f i libucrtd:output.obj
 0001:0006dda0       ??0__crt_cached_ptd_host@@QEAA@QEAU__crt_locale_pointers@@@Z 000000018006eda0 f i libucrtd:output.obj
 0001:0006de60       ??0__crt_scoped_get_last_error_reset@@QEAA@XZ 000000018006ee60 f i libucrtd:output.obj
 0001:0006de80       ??0__crt_stdio_stream@@QEAA@QEAU_iobuf@@@Z 000000018006ee80 f i libucrtd:output.obj
 0001:0006dea0       ??0formatting_buffer@__crt_stdio_output@@QEAA@XZ 000000018006eea0 f i libucrtd:output.obj
 0001:0006dee0       ??0guard@?$cached@H@__crt_cached_ptd_host@@QEAA@AEAU12@@Z 000000018006eee0 f i libucrtd:output.obj
 0001:0006df20       ??1?$c_string_character_source@D@__crt_strtox@@QEAA@XZ 000000018006ef20 f i libucrtd:output.obj
 0001:0006df50       ??1?$c_string_character_source@_W@__crt_strtox@@QEAA@XZ 000000018006ef50 f i libucrtd:output.obj
 0001:0006df80       ??1?$common_data@D@__crt_stdio_output@@QEAA@XZ 000000018006ef80 f i libucrtd:output.obj
 0001:0006dfa0       ??1?$common_data@_W@__crt_stdio_output@@QEAA@XZ 000000018006efa0 f i libucrtd:output.obj
 0001:0006dfc0       ??1?$format_validation_base@DV?$stream_output_adapter@D@__crt_stdio_output@@@__crt_stdio_output@@QEAA@XZ 000000018006efc0 f i libucrtd:output.obj
 0001:0006dfe0       ??1?$format_validation_base@DV?$string_output_adapter@D@__crt_stdio_output@@@__crt_stdio_output@@QEAA@XZ 000000018006efe0 f i libucrtd:output.obj
 0001:0006e000       ??1?$format_validation_base@_WV?$stream_output_adapter@_W@__crt_stdio_output@@@__crt_stdio_output@@QEAA@XZ 000000018006f000 f i libucrtd:output.obj
 0001:0006e020       ??1?$format_validation_base@_WV?$string_output_adapter@_W@__crt_stdio_output@@@__crt_stdio_output@@QEAA@XZ 000000018006f020 f i libucrtd:output.obj
 0001:0006e040       ??1?$output_adapter_data@DV?$stream_output_adapter@D@__crt_stdio_output@@@__crt_stdio_output@@QEAA@XZ 000000018006f040 f i libucrtd:output.obj
 0001:0006e060       ??1?$output_adapter_data@DV?$string_output_adapter@D@__crt_stdio_output@@@__crt_stdio_output@@QEAA@XZ 000000018006f060 f i libucrtd:output.obj
 0001:0006e080       ??1?$output_adapter_data@_WV?$stream_output_adapter@_W@__crt_stdio_output@@@__crt_stdio_output@@QEAA@XZ 000000018006f080 f i libucrtd:output.obj
 0001:0006e0a0       ??1?$output_adapter_data@_WV?$string_output_adapter@_W@__crt_stdio_output@@@__crt_stdio_output@@QEAA@XZ 000000018006f0a0 f i libucrtd:output.obj
 0001:0006e0c0       ??1?$output_processor@DV?$stream_output_adapter@D@__crt_stdio_output@@V?$format_validation_base@DV?$stream_output_adapter@D@__crt_stdio_output@@@2@@__crt_stdio_output@@QEAA@XZ 000000018006f0c0 f i libucrtd:output.obj
 0001:0006e0e0       ??1?$output_processor@DV?$stream_output_adapter@D@__crt_stdio_output@@V?$positional_parameter_base@DV?$stream_output_adapter@D@__crt_stdio_output@@@2@@__crt_stdio_output@@QEAA@XZ 000000018006f0e0 f i libucrtd:output.obj
 0001:0006e100       ??1?$output_processor@DV?$stream_output_adapter@D@__crt_stdio_output@@V?$standard_base@DV?$stream_output_adapter@D@__crt_stdio_output@@@2@@__crt_stdio_output@@QEAA@XZ 000000018006f100 f i libucrtd:output.obj
 0001:0006e120       ??1?$output_processor@DV?$string_output_adapter@D@__crt_stdio_output@@V?$format_validation_base@DV?$string_output_adapter@D@__crt_stdio_output@@@2@@__crt_stdio_output@@QEAA@XZ 000000018006f120 f i libucrtd:output.obj
 0001:0006e140       ??1?$output_processor@DV?$string_output_adapter@D@__crt_stdio_output@@V?$positional_parameter_base@DV?$string_output_adapter@D@__crt_stdio_output@@@2@@__crt_stdio_output@@QEAA@XZ 000000018006f140 f i libucrtd:output.obj
 0001:0006e160       ??1?$output_processor@DV?$string_output_adapter@D@__crt_stdio_output@@V?$standard_base@DV?$string_output_adapter@D@__crt_stdio_output@@@2@@__crt_stdio_output@@QEAA@XZ 000000018006f160 f i libucrtd:output.obj
 0001:0006e180       ??1?$output_processor@_WV?$stream_output_adapter@_W@__crt_stdio_output@@V?$format_validation_base@_WV?$stream_output_adapter@_W@__crt_stdio_output@@@2@@__crt_stdio_output@@QEAA@XZ 000000018006f180 f i libucrtd:output.obj
 0001:0006e1a0       ??1?$output_processor@_WV?$stream_output_adapter@_W@__crt_stdio_output@@V?$positional_parameter_base@_WV?$stream_output_adapter@_W@__crt_stdio_output@@@2@@__crt_stdio_output@@QEAA@XZ 000000018006f1a0 f i libucrtd:output.obj
 0001:0006e1c0       ??1?$output_processor@_WV?$stream_output_adapter@_W@__crt_stdio_output@@V?$standard_base@_WV?$stream_output_adapter@_W@__crt_stdio_output@@@2@@__crt_stdio_output@@QEAA@XZ 000000018006f1c0 f i libucrtd:output.obj
 0001:0006e1e0       ??1?$output_processor@_WV?$string_output_adapter@_W@__crt_stdio_output@@V?$format_validation_base@_WV?$string_output_adapter@_W@__crt_stdio_output@@@2@@__crt_stdio_output@@QEAA@XZ 000000018006f1e0 f i libucrtd:output.obj
 0001:0006e200       ??1?$output_processor@_WV?$string_output_adapter@_W@__crt_stdio_output@@V?$positional_parameter_base@_WV?$string_output_adapter@_W@__crt_stdio_output@@@2@@__crt_stdio_output@@QEAA@XZ 000000018006f200 f i libucrtd:output.obj
 0001:0006e220       ??1?$output_processor@_WV?$string_output_adapter@_W@__crt_stdio_output@@V?$standard_base@_WV?$string_output_adapter@_W@__crt_stdio_output@@@2@@__crt_stdio_output@@QEAA@XZ 000000018006f220 f i libucrtd:output.obj
 0001:0006e240       ??1?$positional_parameter_base@DV?$stream_output_adapter@D@__crt_stdio_output@@@__crt_stdio_output@@QEAA@XZ 000000018006f240 f i libucrtd:output.obj
 0001:0006e260       ??1?$positional_parameter_base@DV?$string_output_adapter@D@__crt_stdio_output@@@__crt_stdio_output@@QEAA@XZ 000000018006f260 f i libucrtd:output.obj
 0001:0006e280       ??1?$positional_parameter_base@_WV?$stream_output_adapter@_W@__crt_stdio_output@@@__crt_stdio_output@@QEAA@XZ 000000018006f280 f i libucrtd:output.obj
 0001:0006e2a0       ??1?$positional_parameter_base@_WV?$string_output_adapter@_W@__crt_stdio_output@@@__crt_stdio_output@@QEAA@XZ 000000018006f2a0 f i libucrtd:output.obj
 0001:0006e2c0       ??1?$standard_base@DV?$stream_output_adapter@D@__crt_stdio_output@@@__crt_stdio_output@@QEAA@XZ 000000018006f2c0 f i libucrtd:output.obj
 0001:0006e2e0       ??1?$standard_base@DV?$string_output_adapter@D@__crt_stdio_output@@@__crt_stdio_output@@QEAA@XZ 000000018006f2e0 f i libucrtd:output.obj
 0001:0006e300       ??1?$standard_base@_WV?$stream_output_adapter@_W@__crt_stdio_output@@@__crt_stdio_output@@QEAA@XZ 000000018006f300 f i libucrtd:output.obj
 0001:0006e320       ??1?$standard_base@_WV?$string_output_adapter@_W@__crt_stdio_output@@@__crt_stdio_output@@QEAA@XZ 000000018006f320 f i libucrtd:output.obj
 0001:0006e340       ??1__acrt_stdio_temporary_buffering_guard@@QEAA@XZ 000000018006f340 f i libucrtd:output.obj
 0001:0006e370       ??1__crt_cached_ptd_host@@QEAA@XZ 000000018006f370 f i libucrtd:output.obj
 0001:0006e420       ??1__crt_scoped_get_last_error_reset@@QEAA@XZ 000000018006f420 f i libucrtd:output.obj
 0001:0006e440       ??1formatting_buffer@__crt_stdio_output@@QEAA@XZ 000000018006f440 f i libucrtd:output.obj
 0001:0006e470       ??1guard@?$cached@H@__crt_cached_ptd_host@@QEAA@XZ 000000018006f470 f i libucrtd:output.obj
 0001:0006e4a0       ??4?$__crt_unique_heap_ptr@DU__crt_internal_free_policy@@@@QEAAAEAV0@$$QEAV0@@Z 000000018006f4a0 f i libucrtd:output.obj
 0001:0006e4e0       ??A?$spectre_mitigated_lookup_table@Ustate_transition_pair@__crt_stdio_output@@$0IA@@__crt_stdio_output@@QEBAAEBUstate_transition_pair@1@_K@Z 000000018006f4e0 f i libucrtd:output.obj
 0001:0006e500       ??C__crt_stdio_stream@@QEBAPEAU__crt_stdio_stream_data@@XZ 000000018006f500 f i libucrtd:output.obj
 0001:0006ed50       ?__crt_interlocked_read_32@@YAHPEDH@Z 000000018006fd50 f i libucrtd:output.obj
 0001:0006ed70       ?adjust_hexit@?$output_processor@DV?$stream_output_adapter@D@__crt_stdio_output@@V?$format_validation_base@DV?$stream_output_adapter@D@__crt_stdio_output@@@2@@__crt_stdio_output@@CADH_N@Z 000000018006fd70 f i libucrtd:output.obj
 0001:0006edc0       ?adjust_hexit@?$output_processor@DV?$stream_output_adapter@D@__crt_stdio_output@@V?$positional_parameter_base@DV?$stream_output_adapter@D@__crt_stdio_output@@@2@@__crt_stdio_output@@CADH_N@Z 000000018006fdc0 f i libucrtd:output.obj
 0001:0006ee10       ?adjust_hexit@?$output_processor@DV?$stream_output_adapter@D@__crt_stdio_output@@V?$standard_base@DV?$stream_output_adapter@D@__crt_stdio_output@@@2@@__crt_stdio_output@@CADH_N@Z 000000018006fe10 f i libucrtd:output.obj
 0001:0006ee60       ?adjust_hexit@?$output_processor@DV?$string_output_adapter@D@__crt_stdio_output@@V?$format_validation_base@DV?$string_output_adapter@D@__crt_stdio_output@@@2@@__crt_stdio_output@@CADH_N@Z 000000018006fe60 f i libucrtd:output.obj
 0001:0006eeb0       ?adjust_hexit@?$output_processor@DV?$string_output_adapter@D@__crt_stdio_output@@V?$positional_parameter_base@DV?$string_output_adapter@D@__crt_stdio_output@@@2@@__crt_stdio_output@@CADH_N@Z 000000018006feb0 f i libucrtd:output.obj
 0001:0006ef00       ?adjust_hexit@?$output_processor@DV?$string_output_adapter@D@__crt_stdio_output@@V?$standard_base@DV?$string_output_adapter@D@__crt_stdio_output@@@2@@__crt_stdio_output@@CADH_N@Z 000000018006ff00 f i libucrtd:output.obj
 0001:0006ef50       ?adjust_hexit@?$output_processor@_WV?$stream_output_adapter@_W@__crt_stdio_output@@V?$format_validation_base@_WV?$stream_output_adapter@_W@__crt_stdio_output@@@2@@__crt_stdio_output@@CADH_N@Z 000000018006ff50 f i libucrtd:output.obj
 0001:0006efa0       ?adjust_hexit@?$output_processor@_WV?$stream_output_adapter@_W@__crt_stdio_output@@V?$positional_parameter_base@_WV?$stream_output_adapter@_W@__crt_stdio_output@@@2@@__crt_stdio_output@@CADH_N@Z 000000018006ffa0 f i libucrtd:output.obj
 0001:0006eff0       ?adjust_hexit@?$output_processor@_WV?$stream_output_adapter@_W@__crt_stdio_output@@V?$standard_base@_WV?$stream_output_adapter@_W@__crt_stdio_output@@@2@@__crt_stdio_output@@CADH_N@Z 000000018006fff0 f i libucrtd:output.obj
 0001:0006f040       ?adjust_hexit@?$output_processor@_WV?$string_output_adapter@_W@__crt_stdio_output@@V?$format_validation_base@_WV?$string_output_adapter@_W@__crt_stdio_output@@@2@@__crt_stdio_output@@CADH_N@Z 0000000180070040 f i libucrtd:output.obj
 0001:0006f090       ?adjust_hexit@?$output_processor@_WV?$string_output_adapter@_W@__crt_stdio_output@@V?$positional_parameter_base@_WV?$string_output_adapter@_W@__crt_stdio_output@@@2@@__crt_stdio_output@@CADH_N@Z 0000000180070090 f i libucrtd:output.obj
 0001:0006f0e0       ?adjust_hexit@?$output_processor@_WV?$string_output_adapter@_W@__crt_stdio_output@@V?$standard_base@_WV?$string_output_adapter@_W@__crt_stdio_output@@@2@@__crt_stdio_output@@CADH_N@Z 00000001800700e0 f i libucrtd:output.obj
 0001:0006f130       ?advance_to_next_pass@?$positional_parameter_base@DV?$stream_output_adapter@D@__crt_stdio_output@@@__crt_stdio_output@@IEAA_NXZ 0000000180070130 f i libucrtd:output.obj
 0001:0006f1e0       ?advance_to_next_pass@?$positional_parameter_base@DV?$string_output_adapter@D@__crt_stdio_output@@@__crt_stdio_output@@IEAA_NXZ 00000001800701e0 f i libucrtd:output.obj
 0001:0006f290       ?advance_to_next_pass@?$positional_parameter_base@_WV?$stream_output_adapter@_W@__crt_stdio_output@@@__crt_stdio_output@@IEAA_NXZ 0000000180070290 f i libucrtd:output.obj
 0001:0006f340       ?advance_to_next_pass@?$positional_parameter_base@_WV?$string_output_adapter@_W@__crt_stdio_output@@@__crt_stdio_output@@IEAA_NXZ 0000000180070340 f i libucrtd:output.obj
 0001:0006f3f0       ?advance_to_next_pass@?$standard_base@DV?$stream_output_adapter@D@__crt_stdio_output@@@__crt_stdio_output@@IEAA_NXZ 00000001800703f0 f i libucrtd:output.obj
 0001:0006f440       ?advance_to_next_pass@?$standard_base@DV?$string_output_adapter@D@__crt_stdio_output@@@__crt_stdio_output@@IEAA_NXZ 0000000180070440 f i libucrtd:output.obj
 0001:0006f490       ?advance_to_next_pass@?$standard_base@_WV?$stream_output_adapter@_W@__crt_stdio_output@@@__crt_stdio_output@@IEAA_NXZ 0000000180070490 f i libucrtd:output.obj
 0001:0006f4e0       ?advance_to_next_pass@?$standard_base@_WV?$string_output_adapter@_W@__crt_stdio_output@@@__crt_stdio_output@@IEAA_NXZ 00000001800704e0 f i libucrtd:output.obj
 0001:0006f530       ?check@?$cached@H@__crt_cached_ptd_host@@QEBA_NH@Z 0000000180070530 f i libucrtd:output.obj
 0001:0006f570       ?check_synchronize_global_state_index@__crt_cached_ptd_host@@AEAA_KAEBV__crt_scoped_get_last_error_reset@@@Z 0000000180070570 f i libucrtd:output.obj
 0001:0006f5b0       ?check_synchronize_per_thread_data@__crt_cached_ptd_host@@AEAAPEAU__acrt_ptd@@XZ 00000001800705b0 f i libucrtd:output.obj
 0001:0006f5f0       ?create_guard@?$cached@H@__crt_cached_ptd_host@@QEAA?AVguard@12@XZ 00000001800705f0 f i libucrtd:output.obj
 0001:0006f620       ?crop_zeroes@__crt_stdio_output@@YAXPEADQEAU__crt_locale_pointers@@@Z 0000000180070620 f i libucrtd:output.obj
 0001:0006f770       ?disable@guard@?$cached@H@__crt_cached_ptd_host@@QEAAXXZ 0000000180070770 f i libucrtd:output.obj
 0001:0006f780       ?enable@guard@?$cached@H@__crt_cached_ptd_host@@QEAAXXZ 0000000180070780 f i libucrtd:output.obj
 0001:0006f790       ?find_next_state@?$output_processor@DV?$stream_output_adapter@D@__crt_stdio_output@@V?$format_validation_base@DV?$stream_output_adapter@D@__crt_stdio_output@@@2@@__crt_stdio_output@@AEBA?AW4state@2@DW432@@Z 0000000180070790 f i libucrtd:output.obj
 0001:0006f830       ?find_next_state@?$output_processor@DV?$stream_output_adapter@D@__crt_stdio_output@@V?$positional_parameter_base@DV?$stream_output_adapter@D@__crt_stdio_output@@@2@@__crt_stdio_output@@AEBA?AW4state@2@DW432@@Z 0000000180070830 f i libucrtd:output.obj
 0001:0006f8d0       ?find_next_state@?$output_processor@DV?$stream_output_adapter@D@__crt_stdio_output@@V?$standard_base@DV?$stream_output_adapter@D@__crt_stdio_output@@@2@@__crt_stdio_output@@AEBA?AW4state@2@DW432@@Z 00000001800708d0 f i libucrtd:output.obj
 0001:0006f970       ?find_next_state@?$output_processor@DV?$string_output_adapter@D@__crt_stdio_output@@V?$format_validation_base@DV?$string_output_adapter@D@__crt_stdio_output@@@2@@__crt_stdio_output@@AEBA?AW4state@2@DW432@@Z 0000000180070970 f i libucrtd:output.obj
 0001:0006fa10       ?find_next_state@?$output_processor@DV?$string_output_adapter@D@__crt_stdio_output@@V?$positional_parameter_base@DV?$string_output_adapter@D@__crt_stdio_output@@@2@@__crt_stdio_output@@AEBA?AW4state@2@DW432@@Z 0000000180070a10 f i libucrtd:output.obj
 0001:0006fab0       ?find_next_state@?$output_processor@DV?$string_output_adapter@D@__crt_stdio_output@@V?$standard_base@DV?$string_output_adapter@D@__crt_stdio_output@@@2@@__crt_stdio_output@@AEBA?AW4state@2@DW432@@Z 0000000180070ab0 f i libucrtd:output.obj
 0001:0006fb50       ?find_next_state@?$output_processor@_WV?$stream_output_adapter@_W@__crt_stdio_output@@V?$format_validation_base@_WV?$stream_output_adapter@_W@__crt_stdio_output@@@2@@__crt_stdio_output@@AEBA?AW4state@2@_WW432@@Z 0000000180070b50 f i libucrtd:output.obj
 0001:0006fbf0       ?find_next_state@?$output_processor@_WV?$stream_output_adapter@_W@__crt_stdio_output@@V?$positional_parameter_base@_WV?$stream_output_adapter@_W@__crt_stdio_output@@@2@@__crt_stdio_output@@AEBA?AW4state@2@_WW432@@Z 0000000180070bf0 f i libucrtd:output.obj
 0001:0006fc90       ?find_next_state@?$output_processor@_WV?$stream_output_adapter@_W@__crt_stdio_output@@V?$standard_base@_WV?$stream_output_adapter@_W@__crt_stdio_output@@@2@@__crt_stdio_output@@AEBA?AW4state@2@_WW432@@Z 0000000180070c90 f i libucrtd:output.obj
 0001:0006fd30       ?find_next_state@?$output_processor@_WV?$string_output_adapter@_W@__crt_stdio_output@@V?$format_validation_base@_WV?$string_output_adapter@_W@__crt_stdio_output@@@2@@__crt_stdio_output@@AEBA?AW4state@2@_WW432@@Z 0000000180070d30 f i libucrtd:output.obj
 0001:0006fdd0       ?find_next_state@?$output_processor@_WV?$string_output_adapter@_W@__crt_stdio_output@@V?$positional_parameter_base@_WV?$string_output_adapter@_W@__crt_stdio_output@@@2@@__crt_stdio_output@@AEBA?AW4state@2@_WW432@@Z 0000000180070dd0 f i libucrtd:output.obj
 0001:0006fe70       ?find_next_state@?$output_processor@_WV?$string_output_adapter@_W@__crt_stdio_output@@V?$standard_base@_WV?$string_output_adapter@_W@__crt_stdio_output@@@2@@__crt_stdio_output@@AEBA?AW4state@2@_WW432@@Z 0000000180070e70 f i libucrtd:output.obj
 0001:0006ff10       ?force_decimal_point@__crt_stdio_output@@YAXPEADQEAU__crt_locale_pointers@@@Z 0000000180070f10 f i libucrtd:output.obj
 0001:00070010       ?force_synchronize_global_state_index@__crt_cached_ptd_host@@AEAA_KAEBV__crt_scoped_get_last_error_reset@@@Z 0000000180071010 f i libucrtd:output.obj
 0001:00070050       ?force_synchronize_per_thread_data@__crt_cached_ptd_host@@AEAAPEAU__acrt_ptd@@XZ 0000000180071050 f i libucrtd:output.obj
 0001:000700b0       ?get@?$c_string_character_source@D@__crt_strtox@@QEAADXZ 00000001800710b0 f i libucrtd:output.obj
 0001:000700f0       ?get@?$c_string_character_source@_W@__crt_strtox@@QEAA_WXZ 00000001800710f0 f i libucrtd:output.obj
 0001:00070130       ?get_current_state_index@__crt_state_management@@YA_KAEBV__crt_scoped_get_last_error_reset@@@Z 0000000180071130 f i libucrtd:output.obj
 0001:00070140       ?get_errno@__crt_cached_ptd_host@@QEAAAEAU?$cached@H@1@XZ 0000000180071140 f i libucrtd:output.obj
 0001:00070150       ?get_flags@__crt_stdio_stream@@QEBAJXZ 0000000180071150 f i libucrtd:output.obj
 0001:00070180       ?get_locale@__crt_cached_ptd_host@@QEAAPEAU__crt_locale_pointers@@XZ 0000000180071180 f i libucrtd:output.obj
 0001:000701b0       ?get_parameter_type@?$positional_parameter_base@DV?$stream_output_adapter@D@__crt_stdio_output@@@__crt_stdio_output@@CA?AW4parameter_type@12@F@Z 00000001800711b0 f i libucrtd:output.obj
 0001:000701c0       ?get_parameter_type@?$positional_parameter_base@DV?$stream_output_adapter@D@__crt_stdio_output@@@__crt_stdio_output@@CA?AW4parameter_type@12@G@Z 00000001800711c0 f i libucrtd:output.obj
 0001:000701d0       ?get_parameter_type@?$positional_parameter_base@DV?$stream_output_adapter@D@__crt_stdio_output@@@__crt_stdio_output@@CA?AW4parameter_type@12@H@Z 00000001800711d0 f i libucrtd:output.obj
 0001:000701e0       ?get_parameter_type@?$positional_parameter_base@DV?$stream_output_adapter@D@__crt_stdio_output@@@__crt_stdio_output@@CA?AW4parameter_type@12@I@Z 00000001800711e0 f i libucrtd:output.obj
 0001:000701f0       ?get_parameter_type@?$positional_parameter_base@DV?$stream_output_adapter@D@__crt_stdio_output@@@__crt_stdio_output@@CA?AW4parameter_type@12@U_CRT_DOUBLE@@@Z 00000001800711f0 f i libucrtd:output.obj
 0001:00070200       ?get_parameter_type@?$positional_parameter_base@DV?$stream_output_adapter@D@__crt_stdio_output@@@__crt_stdio_output@@CA?AW4parameter_type@12@_J@Z 0000000180071200 f i libucrtd:output.obj
 0001:00070210       ?get_parameter_type@?$positional_parameter_base@DV?$stream_output_adapter@D@__crt_stdio_output@@@__crt_stdio_output@@CA?AW4parameter_type@12@_K@Z 0000000180071210 f i libucrtd:output.obj
 0001:00070220       ?get_parameter_type@?$positional_parameter_base@DV?$stream_output_adapter@D@__crt_stdio_output@@@__crt_stdio_output@@CA?AW4parameter_type@12@_W@Z 0000000180071220 f i libucrtd:output.obj
 0001:00070230       ?get_parameter_type@?$positional_parameter_base@DV?$string_output_adapter@D@__crt_stdio_output@@@__crt_stdio_output@@CA?AW4parameter_type@12@F@Z 0000000180071230 f i libucrtd:output.obj
 0001:00070240       ?get_parameter_type@?$positional_parameter_base@DV?$string_output_adapter@D@__crt_stdio_output@@@__crt_stdio_output@@CA?AW4parameter_type@12@G@Z 0000000180071240 f i libucrtd:output.obj
 0001:00070250       ?get_parameter_type@?$positional_parameter_base@DV?$string_output_adapter@D@__crt_stdio_output@@@__crt_stdio_output@@CA?AW4parameter_type@12@H@Z 0000000180071250 f i libucrtd:output.obj
 0001:00070260       ?get_parameter_type@?$positional_parameter_base@DV?$string_output_adapter@D@__crt_stdio_output@@@__crt_stdio_output@@CA?AW4parameter_type@12@I@Z 0000000180071260 f i libucrtd:output.obj
 0001:00070270       ?get_parameter_type@?$positional_parameter_base@DV?$string_output_adapter@D@__crt_stdio_output@@@__crt_stdio_output@@CA?AW4parameter_type@12@U_CRT_DOUBLE@@@Z 0000000180071270 f i libucrtd:output.obj
 0001:00070280       ?get_parameter_type@?$positional_parameter_base@DV?$string_output_adapter@D@__crt_stdio_output@@@__crt_stdio_output@@CA?AW4parameter_type@12@_J@Z 0000000180071280 f i libucrtd:output.obj
 0001:00070290       ?get_parameter_type@?$positional_parameter_base@DV?$string_output_adapter@D@__crt_stdio_output@@@__crt_stdio_output@@CA?AW4parameter_type@12@_K@Z 0000000180071290 f i libucrtd:output.obj
 0001:000702a0       ?get_parameter_type@?$positional_parameter_base@DV?$string_output_adapter@D@__crt_stdio_output@@@__crt_stdio_output@@CA?AW4parameter_type@12@_W@Z 00000001800712a0 f i libucrtd:output.obj
 0001:000702b0       ?get_parameter_type@?$positional_parameter_base@_WV?$stream_output_adapter@_W@__crt_stdio_output@@@__crt_stdio_output@@CA?AW4parameter_type@12@F@Z 00000001800712b0 f i libucrtd:output.obj
 0001:000702c0       ?get_parameter_type@?$positional_parameter_base@_WV?$stream_output_adapter@_W@__crt_stdio_output@@@__crt_stdio_output@@CA?AW4parameter_type@12@G@Z 00000001800712c0 f i libucrtd:output.obj
 0001:000702d0       ?get_parameter_type@?$positional_parameter_base@_WV?$stream_output_adapter@_W@__crt_stdio_output@@@__crt_stdio_output@@CA?AW4parameter_type@12@H@Z 00000001800712d0 f i libucrtd:output.obj
 0001:000702e0       ?get_parameter_type@?$positional_parameter_base@_WV?$stream_output_adapter@_W@__crt_stdio_output@@@__crt_stdio_output@@CA?AW4parameter_type@12@I@Z 00000001800712e0 f i libucrtd:output.obj
 0001:000702f0       ?get_parameter_type@?$positional_parameter_base@_WV?$stream_output_adapter@_W@__crt_stdio_output@@@__crt_stdio_output@@CA?AW4parameter_type@12@U_CRT_DOUBLE@@@Z 00000001800712f0 f i libucrtd:output.obj
 0001:00070300       ?get_parameter_type@?$positional_parameter_base@_WV?$stream_output_adapter@_W@__crt_stdio_output@@@__crt_stdio_output@@CA?AW4parameter_type@12@_J@Z 0000000180071300 f i libucrtd:output.obj
 0001:00070310       ?get_parameter_type@?$positional_parameter_base@_WV?$stream_output_adapter@_W@__crt_stdio_output@@@__crt_stdio_output@@CA?AW4parameter_type@12@_K@Z 0000000180071310 f i libucrtd:output.obj
 0001:00070320       ?get_parameter_type@?$positional_parameter_base@_WV?$stream_output_adapter@_W@__crt_stdio_output@@@__crt_stdio_output@@CA?AW4parameter_type@12@_W@Z 0000000180071320 f i libucrtd:output.obj
 0001:00070330       ?get_parameter_type@?$positional_parameter_base@_WV?$string_output_adapter@_W@__crt_stdio_output@@@__crt_stdio_output@@CA?AW4parameter_type@12@F@Z 0000000180071330 f i libucrtd:output.obj
 0001:00070340       ?get_parameter_type@?$positional_parameter_base@_WV?$string_output_adapter@_W@__crt_stdio_output@@@__crt_stdio_output@@CA?AW4parameter_type@12@G@Z 0000000180071340 f i libucrtd:output.obj
 0001:00070350       ?get_parameter_type@?$positional_parameter_base@_WV?$string_output_adapter@_W@__crt_stdio_output@@@__crt_stdio_output@@CA?AW4parameter_type@12@H@Z 0000000180071350 f i libucrtd:output.obj
 0001:00070360       ?get_parameter_type@?$positional_parameter_base@_WV?$string_output_adapter@_W@__crt_stdio_output@@@__crt_stdio_output@@CA?AW4parameter_type@12@I@Z 0000000180071360 f i libucrtd:output.obj
 0001:00070370       ?get_parameter_type@?$positional_parameter_base@_WV?$string_output_adapter@_W@__crt_stdio_output@@@__crt_stdio_output@@CA?AW4parameter_type@12@U_CRT_DOUBLE@@@Z 0000000180071370 f i libucrtd:output.obj
 0001:00070380       ?get_parameter_type@?$positional_parameter_base@_WV?$string_output_adapter@_W@__crt_stdio_output@@@__crt_stdio_output@@CA?AW4parameter_type@12@_J@Z 0000000180071380 f i libucrtd:output.obj
 0001:00070390       ?get_parameter_type@?$positional_parameter_base@_WV?$string_output_adapter@_W@__crt_stdio_output@@@__crt_stdio_output@@CA?AW4parameter_type@12@_K@Z 0000000180071390 f i libucrtd:output.obj
 0001:000703a0       ?get_parameter_type@?$positional_parameter_base@_WV?$string_output_adapter@_W@__crt_stdio_output@@@__crt_stdio_output@@CA?AW4parameter_type@12@_W@Z 00000001800713a0 f i libucrtd:output.obj
 0001:000703b0       ?get_raw_ptd@__crt_cached_ptd_host@@QEAAPEAU__acrt_ptd@@XZ 00000001800713b0 f i libucrtd:output.obj
 0001:000703d0       ?has_flag@?$output_processor@DV?$stream_output_adapter@D@__crt_stdio_output@@V?$format_validation_base@DV?$stream_output_adapter@D@__crt_stdio_output@@@2@@__crt_stdio_output@@AEBA_NI@Z 00000001800713d0 f i libucrtd:output.obj
 0001:00070410       ?has_flag@?$output_processor@DV?$stream_output_adapter@D@__crt_stdio_output@@V?$positional_parameter_base@DV?$stream_output_adapter@D@__crt_stdio_output@@@2@@__crt_stdio_output@@AEBA_NI@Z 0000000180071410 f i libucrtd:output.obj
 0001:00070450       ?has_flag@?$output_processor@DV?$stream_output_adapter@D@__crt_stdio_output@@V?$standard_base@DV?$stream_output_adapter@D@__crt_stdio_output@@@2@@__crt_stdio_output@@AEBA_NI@Z 0000000180071450 f i libucrtd:output.obj
 0001:00070490       ?has_flag@?$output_processor@DV?$string_output_adapter@D@__crt_stdio_output@@V?$format_validation_base@DV?$string_output_adapter@D@__crt_stdio_output@@@2@@__crt_stdio_output@@AEBA_NI@Z 0000000180071490 f i libucrtd:output.obj
 0001:000704d0       ?has_flag@?$output_processor@DV?$string_output_adapter@D@__crt_stdio_output@@V?$positional_parameter_base@DV?$string_output_adapter@D@__crt_stdio_output@@@2@@__crt_stdio_output@@AEBA_NI@Z 00000001800714d0 f i libucrtd:output.obj
 0001:00070510       ?has_flag@?$output_processor@DV?$string_output_adapter@D@__crt_stdio_output@@V?$standard_base@DV?$string_output_adapter@D@__crt_stdio_output@@@2@@__crt_stdio_output@@AEBA_NI@Z 0000000180071510 f i libucrtd:output.obj
 0001:00070550       ?has_flag@?$output_processor@_WV?$stream_output_adapter@_W@__crt_stdio_output@@V?$format_validation_base@_WV?$stream_output_adapter@_W@__crt_stdio_output@@@2@@__crt_stdio_output@@AEBA_NI@Z 0000000180071550 f i libucrtd:output.obj
 0001:00070590       ?has_flag@?$output_processor@_WV?$stream_output_adapter@_W@__crt_stdio_output@@V?$positional_parameter_base@_WV?$stream_output_adapter@_W@__crt_stdio_output@@@2@@__crt_stdio_output@@AEBA_NI@Z 0000000180071590 f i libucrtd:output.obj
 0001:000705d0       ?has_flag@?$output_processor@_WV?$stream_output_adapter@_W@__crt_stdio_output@@V?$standard_base@_WV?$stream_output_adapter@_W@__crt_stdio_output@@@2@@__crt_stdio_output@@AEBA_NI@Z 00000001800715d0 f i libucrtd:output.obj
 0001:00070610       ?has_flag@?$output_processor@_WV?$string_output_adapter@_W@__crt_stdio_output@@V?$format_validation_base@_WV?$string_output_adapter@_W@__crt_stdio_output@@@2@@__crt_stdio_output@@AEBA_NI@Z 0000000180071610 f i libucrtd:output.obj
 0001:00070650       ?has_flag@?$output_processor@_WV?$string_output_adapter@_W@__crt_stdio_output@@V?$positional_parameter_base@_WV?$string_output_adapter@_W@__crt_stdio_output@@@2@@__crt_stdio_output@@AEBA_NI@Z 0000000180071650 f i libucrtd:output.obj
 0001:00070690       ?has_flag@?$output_processor@_WV?$string_output_adapter@_W@__crt_stdio_output@@V?$standard_base@_WV?$string_output_adapter@_W@__crt_stdio_output@@@2@@__crt_stdio_output@@AEBA_NI@Z 0000000180071690 f i libucrtd:output.obj
 0001:000706d0       ?is_positional_parameter_reappearance_consistent@?$positional_parameter_base@DV?$stream_output_adapter@D@__crt_stdio_output@@@__crt_stdio_output@@AEAA_NAEBUparameter_data@12@W4parameter_type@12@DW4length_modifier@2@@Z 00000001800716d0 f i libucrtd:output.obj
 0001:00070930       ?is_positional_parameter_reappearance_consistent@?$positional_parameter_base@DV?$string_output_adapter@D@__crt_stdio_output@@@__crt_stdio_output@@AEAA_NAEBUparameter_data@12@W4parameter_type@12@DW4length_modifier@2@@Z 0000000180071930 f i libucrtd:output.obj
 0001:00070b90       ?is_positional_parameter_reappearance_consistent@?$positional_parameter_base@_WV?$stream_output_adapter@_W@__crt_stdio_output@@@__crt_stdio_output@@AEAA_NAEBUparameter_data@12@W4parameter_type@12@_WW4length_modifier@2@@Z 0000000180071b90 f i libucrtd:output.obj
 0001:00070df0       ?is_positional_parameter_reappearance_consistent@?$positional_parameter_base@_WV?$string_output_adapter@_W@__crt_stdio_output@@@__crt_stdio_output@@AEAA_NAEBUparameter_data@12@W4parameter_type@12@_WW4length_modifier@2@@Z 0000000180071df0 f i libucrtd:output.obj
 0001:00071050       ?is_string_backed@__crt_stdio_stream@@QEBA_NXZ 0000000180072050 f i libucrtd:output.obj
 0001:00071090       ?maximum_signed_value@__crt_strtox@@YAJK@Z 0000000180072090 f i libucrtd:output.obj
 0001:000710a0       ?minimum_signed_value@__crt_strtox@@YAJK@Z 00000001800720a0 f i libucrtd:output.obj
 0001:000710b0       ?narrow_null_string@?$output_processor@DV?$stream_output_adapter@D@__crt_stdio_output@@V?$format_validation_base@DV?$stream_output_adapter@D@__crt_stdio_output@@@2@@__crt_stdio_output@@CAPEADXZ 00000001800720b0 f i libucrtd:output.obj
 0001:000710c0       ?narrow_null_string@?$output_processor@DV?$stream_output_adapter@D@__crt_stdio_output@@V?$positional_parameter_base@DV?$stream_output_adapter@D@__crt_stdio_output@@@2@@__crt_stdio_output@@CAPEADXZ 00000001800720c0 f i libucrtd:output.obj
 0001:000710d0       ?narrow_null_string@?$output_processor@DV?$stream_output_adapter@D@__crt_stdio_output@@V?$standard_base@DV?$stream_output_adapter@D@__crt_stdio_output@@@2@@__crt_stdio_output@@CAPEADXZ 00000001800720d0 f i libucrtd:output.obj
 0001:000710e0       ?narrow_null_string@?$output_processor@DV?$string_output_adapter@D@__crt_stdio_output@@V?$format_validation_base@DV?$string_output_adapter@D@__crt_stdio_output@@@2@@__crt_stdio_output@@CAPEADXZ 00000001800720e0 f i libucrtd:output.obj
 0001:000710f0       ?narrow_null_string@?$output_processor@DV?$string_output_adapter@D@__crt_stdio_output@@V?$positional_parameter_base@DV?$string_output_adapter@D@__crt_stdio_output@@@2@@__crt_stdio_output@@CAPEADXZ 00000001800720f0 f i libucrtd:output.obj
 0001:00071100       ?narrow_null_string@?$output_processor@DV?$string_output_adapter@D@__crt_stdio_output@@V?$standard_base@DV?$string_output_adapter@D@__crt_stdio_output@@@2@@__crt_stdio_output@@CAPEADXZ 0000000180072100 f i libucrtd:output.obj
 0001:00071110       ?narrow_null_string@?$output_processor@_WV?$stream_output_adapter@_W@__crt_stdio_output@@V?$format_validation_base@_WV?$stream_output_adapter@_W@__crt_stdio_output@@@2@@__crt_stdio_output@@CAPEADXZ 0000000180072110 f i libucrtd:output.obj
 0001:00071120       ?narrow_null_string@?$output_processor@_WV?$stream_output_adapter@_W@__crt_stdio_output@@V?$positional_parameter_base@_WV?$stream_output_adapter@_W@__crt_stdio_output@@@2@@__crt_stdio_output@@CAPEADXZ 0000000180072120 f i libucrtd:output.obj
 0001:00071130       ?narrow_null_string@?$output_processor@_WV?$stream_output_adapter@_W@__crt_stdio_output@@V?$standard_base@_WV?$stream_output_adapter@_W@__crt_stdio_output@@@2@@__crt_stdio_output@@CAPEADXZ 0000000180072130 f i libucrtd:output.obj
 0001:00071140       ?narrow_null_string@?$output_processor@_WV?$string_output_adapter@_W@__crt_stdio_output@@V?$format_validation_base@_WV?$string_output_adapter@_W@__crt_stdio_output@@@2@@__crt_stdio_output@@CAPEADXZ 0000000180072140 f i libucrtd:output.obj
 0001:00071150       ?narrow_null_string@?$output_processor@_WV?$string_output_adapter@_W@__crt_stdio_output@@V?$positional_parameter_base@_WV?$string_output_adapter@_W@__crt_stdio_output@@@2@@__crt_stdio_output@@CAPEADXZ 0000000180072150 f i libucrtd:output.obj
 0001:00071160       ?narrow_null_string@?$output_processor@_WV?$string_output_adapter@_W@__crt_stdio_output@@V?$standard_base@_WV?$string_output_adapter@_W@__crt_stdio_output@@@2@@__crt_stdio_output@@CAPEADXZ 0000000180072160 f i libucrtd:output.obj
 0001:00071170       ?parse_digit@__crt_strtox@@YAID@Z 0000000180072170 f i libucrtd:output.obj
 0001:000711e0       ?parse_digit@__crt_strtox@@YAI_W@Z 00000001800721e0 f i libucrtd:output.obj
 0001:00071230       ?parse_int_from_format_string@?$output_processor@DV?$stream_output_adapter@D@__crt_stdio_output@@V?$format_validation_base@DV?$stream_output_adapter@D@__crt_stdio_output@@@2@@__crt_stdio_output@@AEAA_NQEAH@Z 0000000180072230 f i libucrtd:output.obj
 0001:00071330       ?parse_int_from_format_string@?$output_processor@DV?$stream_output_adapter@D@__crt_stdio_output@@V?$positional_parameter_base@DV?$stream_output_adapter@D@__crt_stdio_output@@@2@@__crt_stdio_output@@AEAA_NQEAH@Z 0000000180072330 f i libucrtd:output.obj
 0001:00071430       ?parse_int_from_format_string@?$output_processor@DV?$stream_output_adapter@D@__crt_stdio_output@@V?$standard_base@DV?$stream_output_adapter@D@__crt_stdio_output@@@2@@__crt_stdio_output@@AEAA_NQEAH@Z 0000000180072430 f i libucrtd:output.obj
 0001:00071530       ?parse_int_from_format_string@?$output_processor@DV?$string_output_adapter@D@__crt_stdio_output@@V?$format_validation_base@DV?$string_output_adapter@D@__crt_stdio_output@@@2@@__crt_stdio_output@@AEAA_NQEAH@Z 0000000180072530 f i libucrtd:output.obj
 0001:00071630       ?parse_int_from_format_string@?$output_processor@DV?$string_output_adapter@D@__crt_stdio_output@@V?$positional_parameter_base@DV?$string_output_adapter@D@__crt_stdio_output@@@2@@__crt_stdio_output@@AEAA_NQEAH@Z 0000000180072630 f i libucrtd:output.obj
 0001:00071730       ?parse_int_from_format_string@?$output_processor@DV?$string_output_adapter@D@__crt_stdio_output@@V?$standard_base@DV?$string_output_adapter@D@__crt_stdio_output@@@2@@__crt_stdio_output@@AEAA_NQEAH@Z 0000000180072730 f i libucrtd:output.obj
 0001:00071830       ?parse_int_from_format_string@?$output_processor@_WV?$stream_output_adapter@_W@__crt_stdio_output@@V?$format_validation_base@_WV?$stream_output_adapter@_W@__crt_stdio_output@@@2@@__crt_stdio_output@@AEAA_NQEAH@Z 0000000180072830 f i libucrtd:output.obj
 0001:00071930       ?parse_int_from_format_string@?$output_processor@_WV?$stream_output_adapter@_W@__crt_stdio_output@@V?$positional_parameter_base@_WV?$stream_output_adapter@_W@__crt_stdio_output@@@2@@__crt_stdio_output@@AEAA_NQEAH@Z 0000000180072930 f i libucrtd:output.obj
 0001:00071a30       ?parse_int_from_format_string@?$output_processor@_WV?$stream_output_adapter@_W@__crt_stdio_output@@V?$standard_base@_WV?$stream_output_adapter@_W@__crt_stdio_output@@@2@@__crt_stdio_output@@AEAA_NQEAH@Z 0000000180072a30 f i libucrtd:output.obj
 0001:00071b30       ?parse_int_from_format_string@?$output_processor@_WV?$string_output_adapter@_W@__crt_stdio_output@@V?$format_validation_base@_WV?$string_output_adapter@_W@__crt_stdio_output@@@2@@__crt_stdio_output@@AEAA_NQEAH@Z 0000000180072b30 f i libucrtd:output.obj
 0001:00071c30       ?parse_int_from_format_string@?$output_processor@_WV?$string_output_adapter@_W@__crt_stdio_output@@V?$positional_parameter_base@_WV?$string_output_adapter@_W@__crt_stdio_output@@@2@@__crt_stdio_output@@AEAA_NQEAH@Z 0000000180072c30 f i libucrtd:output.obj
 0001:00071d30       ?parse_int_from_format_string@?$output_processor@_WV?$string_output_adapter@_W@__crt_stdio_output@@V?$standard_base@_WV?$string_output_adapter@_W@__crt_stdio_output@@@2@@__crt_stdio_output@@AEAA_NQEAH@Z 0000000180072d30 f i libucrtd:output.obj
 0001:00071e30       ?process@?$output_processor@DV?$stream_output_adapter@D@__crt_stdio_output@@V?$format_validation_base@DV?$stream_output_adapter@D@__crt_stdio_output@@@2@@__crt_stdio_output@@QEAAHXZ 0000000180072e30 f i libucrtd:output.obj
 0001:000721f0       ?process@?$output_processor@DV?$stream_output_adapter@D@__crt_stdio_output@@V?$positional_parameter_base@DV?$stream_output_adapter@D@__crt_stdio_output@@@2@@__crt_stdio_output@@QEAAHXZ 00000001800731f0 f i libucrtd:output.obj
 0001:000725b0       ?process@?$output_processor@DV?$stream_output_adapter@D@__crt_stdio_output@@V?$standard_base@DV?$stream_output_adapter@D@__crt_stdio_output@@@2@@__crt_stdio_output@@QEAAHXZ 00000001800735b0 f i libucrtd:output.obj
 0001:00072970       ?process@?$output_processor@DV?$string_output_adapter@D@__crt_stdio_output@@V?$format_validation_base@DV?$string_output_adapter@D@__crt_stdio_output@@@2@@__crt_stdio_output@@QEAAHXZ 0000000180073970 f i libucrtd:output.obj
 0001:00072d30       ?process@?$output_processor@DV?$string_output_adapter@D@__crt_stdio_output@@V?$positional_parameter_base@DV?$string_output_adapter@D@__crt_stdio_output@@@2@@__crt_stdio_output@@QEAAHXZ 0000000180073d30 f i libucrtd:output.obj
 0001:000730f0       ?process@?$output_processor@DV?$string_output_adapter@D@__crt_stdio_output@@V?$standard_base@DV?$string_output_adapter@D@__crt_stdio_output@@@2@@__crt_stdio_output@@QEAAHXZ 00000001800740f0 f i libucrtd:output.obj
 0001:000734b0       ?process@?$output_processor@_WV?$stream_output_adapter@_W@__crt_stdio_output@@V?$format_validation_base@_WV?$stream_output_adapter@_W@__crt_stdio_output@@@2@@__crt_stdio_output@@QEAAHXZ 00000001800744b0 f i libucrtd:output.obj
 0001:00073870       ?process@?$output_processor@_WV?$stream_output_adapter@_W@__crt_stdio_output@@V?$positional_parameter_base@_WV?$stream_output_adapter@_W@__crt_stdio_output@@@2@@__crt_stdio_output@@QEAAHXZ 0000000180074870 f i libucrtd:output.obj
 0001:00073c30       ?process@?$output_processor@_WV?$stream_output_adapter@_W@__crt_stdio_output@@V?$standard_base@_WV?$stream_output_adapter@_W@__crt_stdio_output@@@2@@__crt_stdio_output@@QEAAHXZ 0000000180074c30 f i libucrtd:output.obj
 0001:00073ff0       ?process@?$output_processor@_WV?$string_output_adapter@_W@__crt_stdio_output@@V?$format_validation_base@_WV?$string_output_adapter@_W@__crt_stdio_output@@@2@@__crt_stdio_output@@QEAAHXZ 0000000180074ff0 f i libucrtd:output.obj
 0001:000743b0       ?process@?$output_processor@_WV?$string_output_adapter@_W@__crt_stdio_output@@V?$positional_parameter_base@_WV?$string_output_adapter@_W@__crt_stdio_output@@@2@@__crt_stdio_output@@QEAAHXZ 00000001800753b0 f i libucrtd:output.obj
 0001:00074770       ?process@?$output_processor@_WV?$string_output_adapter@_W@__crt_stdio_output@@V?$standard_base@_WV?$string_output_adapter@_W@__crt_stdio_output@@@2@@__crt_stdio_output@@QEAAHXZ 0000000180075770 f i libucrtd:output.obj
 0001:00074b30       ?public_stream@__crt_stdio_stream@@QEBAPEAU_iobuf@@XZ 0000000180075b30 f i libucrtd:output.obj
 0001:00074b40       ?restore_state@?$c_string_character_source@D@__crt_strtox@@QEAA_NQEBD@Z 0000000180075b40 f i libucrtd:output.obj
 0001:00074b60       ?restore_state@?$c_string_character_source@_W@__crt_strtox@@QEAA_NQEB_W@Z 0000000180075b60 f i libucrtd:output.obj
 0001:00074b80       ?save_state@?$c_string_character_source@D@__crt_strtox@@QEBAPEBDXZ 0000000180075b80 f i libucrtd:output.obj
 0001:00074b90       ?save_state@?$c_string_character_source@_W@__crt_strtox@@QEBAPEB_WXZ 0000000180075b90 f i libucrtd:output.obj
 0001:00074ba0       ?set@?$cached@H@__crt_cached_ptd_host@@QEAAHH@Z 0000000180075ba0 f i libucrtd:output.obj
 0001:00074bd0       ?set_flag@?$output_processor@DV?$stream_output_adapter@D@__crt_stdio_output@@V?$format_validation_base@DV?$stream_output_adapter@D@__crt_stdio_output@@@2@@__crt_stdio_output@@AEAAXI@Z 0000000180075bd0 f i libucrtd:output.obj
 0001:00074bf0       ?set_flag@?$output_processor@DV?$stream_output_adapter@D@__crt_stdio_output@@V?$positional_parameter_base@DV?$stream_output_adapter@D@__crt_stdio_output@@@2@@__crt_stdio_output@@AEAAXI@Z 0000000180075bf0 f i libucrtd:output.obj
 0001:00074c10       ?set_flag@?$output_processor@DV?$stream_output_adapter@D@__crt_stdio_output@@V?$standard_base@DV?$stream_output_adapter@D@__crt_stdio_output@@@2@@__crt_stdio_output@@AEAAXI@Z 0000000180075c10 f i libucrtd:output.obj
 0001:00074c30       ?set_flag@?$output_processor@DV?$string_output_adapter@D@__crt_stdio_output@@V?$format_validation_base@DV?$string_output_adapter@D@__crt_stdio_output@@@2@@__crt_stdio_output@@AEAAXI@Z 0000000180075c30 f i libucrtd:output.obj
 0001:00074c50       ?set_flag@?$output_processor@DV?$string_output_adapter@D@__crt_stdio_output@@V?$positional_parameter_base@DV?$string_output_adapter@D@__crt_stdio_output@@@2@@__crt_stdio_output@@AEAAXI@Z 0000000180075c50 f i libucrtd:output.obj
 0001:00074c70       ?set_flag@?$output_processor@DV?$string_output_adapter@D@__crt_stdio_output@@V?$standard_base@DV?$string_output_adapter@D@__crt_stdio_output@@@2@@__crt_stdio_output@@AEAAXI@Z 0000000180075c70 f i libucrtd:output.obj
 0001:00074c90       ?set_flag@?$output_processor@_WV?$stream_output_adapter@_W@__crt_stdio_output@@V?$format_validation_base@_WV?$stream_output_adapter@_W@__crt_stdio_output@@@2@@__crt_stdio_output@@AEAAXI@Z 0000000180075c90 f i libucrtd:output.obj
 0001:00074cb0       ?set_flag@?$output_processor@_WV?$stream_output_adapter@_W@__crt_stdio_output@@V?$positional_parameter_base@_WV?$stream_output_adapter@_W@__crt_stdio_output@@@2@@__crt_stdio_output@@AEAAXI@Z 0000000180075cb0 f i libucrtd:output.obj
 0001:00074cd0       ?set_flag@?$output_processor@_WV?$stream_output_adapter@_W@__crt_stdio_output@@V?$standard_base@_WV?$stream_output_adapter@_W@__crt_stdio_output@@@2@@__crt_stdio_output@@AEAAXI@Z 0000000180075cd0 f i libucrtd:output.obj
 0001:00074cf0       ?set_flag@?$output_processor@_WV?$string_output_adapter@_W@__crt_stdio_output@@V?$format_validation_base@_WV?$string_output_adapter@_W@__crt_stdio_output@@@2@@__crt_stdio_output@@AEAAXI@Z 0000000180075cf0 f i libucrtd:output.obj
 0001:00074d10       ?set_flag@?$output_processor@_WV?$string_output_adapter@_W@__crt_stdio_output@@V?$positional_parameter_base@_WV?$string_output_adapter@_W@__crt_stdio_output@@@2@@__crt_stdio_output@@AEAAXI@Z 0000000180075d10 f i libucrtd:output.obj
 0001:00074d30       ?set_flag@?$output_processor@_WV?$string_output_adapter@_W@__crt_stdio_output@@V?$standard_base@_WV?$string_output_adapter@_W@__crt_stdio_output@@@2@@__crt_stdio_output@@AEAAXI@Z 0000000180075d30 f i libucrtd:output.obj
 0001:00074d50       ?should_format@?$positional_parameter_base@DV?$stream_output_adapter@D@__crt_stdio_output@@@__crt_stdio_output@@IEAA_NXZ 0000000180075d50 f i libucrtd:output.obj
 0001:00074d90       ?should_format@?$positional_parameter_base@DV?$string_output_adapter@D@__crt_stdio_output@@@__crt_stdio_output@@IEAA_NXZ 0000000180075d90 f i libucrtd:output.obj
 0001:00074dd0       ?should_format@?$positional_parameter_base@_WV?$stream_output_adapter@_W@__crt_stdio_output@@@__crt_stdio_output@@IEAA_NXZ 0000000180075dd0 f i libucrtd:output.obj
 0001:00074e10       ?should_format@?$positional_parameter_base@_WV?$string_output_adapter@_W@__crt_stdio_output@@@__crt_stdio_output@@IEAA_NXZ 0000000180075e10 f i libucrtd:output.obj
 0001:00074e50       ?should_format@?$standard_base@DV?$stream_output_adapter@D@__crt_stdio_output@@@__crt_stdio_output@@IEAA_NXZ 0000000180075e50 f i libucrtd:output.obj
 0001:00074e60       ?should_format@?$standard_base@DV?$string_output_adapter@D@__crt_stdio_output@@@__crt_stdio_output@@IEAA_NXZ 0000000180075e60 f i libucrtd:output.obj
 0001:00074e70       ?should_format@?$standard_base@_WV?$stream_output_adapter@_W@__crt_stdio_output@@@__crt_stdio_output@@IEAA_NXZ 0000000180075e70 f i libucrtd:output.obj
 0001:00074e80       ?should_format@?$standard_base@_WV?$string_output_adapter@_W@__crt_stdio_output@@@__crt_stdio_output@@IEAA_NXZ 0000000180075e80 f i libucrtd:output.obj
 0001:00074e90       ?should_skip_normal_state_processing@?$positional_parameter_base@DV?$stream_output_adapter@D@__crt_stdio_output@@@__crt_stdio_output@@IEAA_NXZ 0000000180075e90 f i libucrtd:output.obj
 0001:00074ee0       ?should_skip_normal_state_processing@?$positional_parameter_base@DV?$string_output_adapter@D@__crt_stdio_output@@@__crt_stdio_output@@IEAA_NXZ 0000000180075ee0 f i libucrtd:output.obj
 0001:00074f30       ?should_skip_normal_state_processing@?$positional_parameter_base@_WV?$stream_output_adapter@_W@__crt_stdio_output@@@__crt_stdio_output@@IEAA_NXZ 0000000180075f30 f i libucrtd:output.obj
 0001:00074f80       ?should_skip_normal_state_processing@?$positional_parameter_base@_WV?$string_output_adapter@_W@__crt_stdio_output@@@__crt_stdio_output@@IEAA_NXZ 0000000180075f80 f i libucrtd:output.obj
 0001:00074fd0       ?should_skip_normal_state_processing@?$standard_base@DV?$stream_output_adapter@D@__crt_stdio_output@@@__crt_stdio_output@@IEAA_NXZ 0000000180075fd0 f i libucrtd:output.obj
 0001:00074fe0       ?should_skip_normal_state_processing@?$standard_base@DV?$string_output_adapter@D@__crt_stdio_output@@@__crt_stdio_output@@IEAA_NXZ 0000000180075fe0 f i libucrtd:output.obj
 0001:00074ff0       ?should_skip_normal_state_processing@?$standard_base@_WV?$stream_output_adapter@_W@__crt_stdio_output@@@__crt_stdio_output@@IEAA_NXZ 0000000180075ff0 f i libucrtd:output.obj
 0001:00075000       ?should_skip_normal_state_processing@?$standard_base@_WV?$string_output_adapter@_W@__crt_stdio_output@@@__crt_stdio_output@@IEAA_NXZ 0000000180076000 f i libucrtd:output.obj
 0001:00075010       ?should_skip_type_state_output@?$positional_parameter_base@DV?$stream_output_adapter@D@__crt_stdio_output@@@__crt_stdio_output@@IEBA_NXZ 0000000180076010 f i libucrtd:output.obj
 0001:00075050       ?should_skip_type_state_output@?$positional_parameter_base@DV?$string_output_adapter@D@__crt_stdio_output@@@__crt_stdio_output@@IEBA_NXZ 0000000180076050 f i libucrtd:output.obj
 0001:00075090       ?should_skip_type_state_output@?$positional_parameter_base@_WV?$stream_output_adapter@_W@__crt_stdio_output@@@__crt_stdio_output@@IEBA_NXZ 0000000180076090 f i libucrtd:output.obj
 0001:000750d0       ?should_skip_type_state_output@?$positional_parameter_base@_WV?$string_output_adapter@_W@__crt_stdio_output@@@__crt_stdio_output@@IEBA_NXZ 00000001800760d0 f i libucrtd:output.obj
 0001:00075110       ?should_skip_type_state_output@?$standard_base@DV?$stream_output_adapter@D@__crt_stdio_output@@@__crt_stdio_output@@IEBA_NXZ 0000000180076110 f i libucrtd:output.obj
 0001:00075120       ?should_skip_type_state_output@?$standard_base@DV?$string_output_adapter@D@__crt_stdio_output@@@__crt_stdio_output@@IEBA_NXZ 0000000180076120 f i libucrtd:output.obj
 0001:00075130       ?should_skip_type_state_output@?$standard_base@_WV?$stream_output_adapter@_W@__crt_stdio_output@@@__crt_stdio_output@@IEBA_NXZ 0000000180076130 f i libucrtd:output.obj
 0001:00075140       ?should_skip_type_state_output@?$standard_base@_WV?$string_output_adapter@_W@__crt_stdio_output@@@__crt_stdio_output@@IEBA_NXZ 0000000180076140 f i libucrtd:output.obj
 0001:00075150       ?state_case_dot@?$output_processor@DV?$stream_output_adapter@D@__crt_stdio_output@@V?$format_validation_base@DV?$stream_output_adapter@D@__crt_stdio_output@@@2@@__crt_stdio_output@@AEAA_NXZ 0000000180076150 f i libucrtd:output.obj
 0001:00075170       ?state_case_dot@?$output_processor@DV?$stream_output_adapter@D@__crt_stdio_output@@V?$positional_parameter_base@DV?$stream_output_adapter@D@__crt_stdio_output@@@2@@__crt_stdio_output@@AEAA_NXZ 0000000180076170 f i libucrtd:output.obj
 0001:00075190       ?state_case_dot@?$output_processor@DV?$stream_output_adapter@D@__crt_stdio_output@@V?$standard_base@DV?$stream_output_adapter@D@__crt_stdio_output@@@2@@__crt_stdio_output@@AEAA_NXZ 0000000180076190 f i libucrtd:output.obj
 0001:000751b0       ?state_case_dot@?$output_processor@DV?$string_output_adapter@D@__crt_stdio_output@@V?$format_validation_base@DV?$string_output_adapter@D@__crt_stdio_output@@@2@@__crt_stdio_output@@AEAA_NXZ 00000001800761b0 f i libucrtd:output.obj
 0001:000751d0       ?state_case_dot@?$output_processor@DV?$string_output_adapter@D@__crt_stdio_output@@V?$positional_parameter_base@DV?$string_output_adapter@D@__crt_stdio_output@@@2@@__crt_stdio_output@@AEAA_NXZ 00000001800761d0 f i libucrtd:output.obj
 0001:000751f0       ?state_case_dot@?$output_processor@DV?$string_output_adapter@D@__crt_stdio_output@@V?$standard_base@DV?$string_output_adapter@D@__crt_stdio_output@@@2@@__crt_stdio_output@@AEAA_NXZ 00000001800761f0 f i libucrtd:output.obj
 0001:00075210       ?state_case_dot@?$output_processor@_WV?$stream_output_adapter@_W@__crt_stdio_output@@V?$format_validation_base@_WV?$stream_output_adapter@_W@__crt_stdio_output@@@2@@__crt_stdio_output@@AEAA_NXZ 0000000180076210 f i libucrtd:output.obj
 0001:00075230       ?state_case_dot@?$output_processor@_WV?$stream_output_adapter@_W@__crt_stdio_output@@V?$positional_parameter_base@_WV?$stream_output_adapter@_W@__crt_stdio_output@@@2@@__crt_stdio_output@@AEAA_NXZ 0000000180076230 f i libucrtd:output.obj
 0001:00075250       ?state_case_dot@?$output_processor@_WV?$stream_output_adapter@_W@__crt_stdio_output@@V?$standard_base@_WV?$stream_output_adapter@_W@__crt_stdio_output@@@2@@__crt_stdio_output@@AEAA_NXZ 0000000180076250 f i libucrtd:output.obj
 0001:00075270       ?state_case_dot@?$output_processor@_WV?$string_output_adapter@_W@__crt_stdio_output@@V?$format_validation_base@_WV?$string_output_adapter@_W@__crt_stdio_output@@@2@@__crt_stdio_output@@AEAA_NXZ 0000000180076270 f i libucrtd:output.obj
 0001:00075290       ?state_case_dot@?$output_processor@_WV?$string_output_adapter@_W@__crt_stdio_output@@V?$positional_parameter_base@_WV?$string_output_adapter@_W@__crt_stdio_output@@@2@@__crt_stdio_output@@AEAA_NXZ 0000000180076290 f i libucrtd:output.obj
 0001:000752b0       ?state_case_dot@?$output_processor@_WV?$string_output_adapter@_W@__crt_stdio_output@@V?$standard_base@_WV?$string_output_adapter@_W@__crt_stdio_output@@@2@@__crt_stdio_output@@AEAA_NXZ 00000001800762b0 f i libucrtd:output.obj
 0001:000752d0       ?state_case_flag@?$output_processor@DV?$stream_output_adapter@D@__crt_stdio_output@@V?$format_validation_base@DV?$stream_output_adapter@D@__crt_stdio_output@@@2@@__crt_stdio_output@@AEAA_NXZ 00000001800762d0 f i libucrtd:output.obj
 0001:00075370       ?state_case_flag@?$output_processor@DV?$stream_output_adapter@D@__crt_stdio_output@@V?$positional_parameter_base@DV?$stream_output_adapter@D@__crt_stdio_output@@@2@@__crt_stdio_output@@AEAA_NXZ 0000000180076370 f i libucrtd:output.obj
 0001:00075410       ?state_case_flag@?$output_processor@DV?$stream_output_adapter@D@__crt_stdio_output@@V?$standard_base@DV?$stream_output_adapter@D@__crt_stdio_output@@@2@@__crt_stdio_output@@AEAA_NXZ 0000000180076410 f i libucrtd:output.obj
 0001:000754b0       ?state_case_flag@?$output_processor@DV?$string_output_adapter@D@__crt_stdio_output@@V?$format_validation_base@DV?$string_output_adapter@D@__crt_stdio_output@@@2@@__crt_stdio_output@@AEAA_NXZ 00000001800764b0 f i libucrtd:output.obj
 0001:00075550       ?state_case_flag@?$output_processor@DV?$string_output_adapter@D@__crt_stdio_output@@V?$positional_parameter_base@DV?$string_output_adapter@D@__crt_stdio_output@@@2@@__crt_stdio_output@@AEAA_NXZ 0000000180076550 f i libucrtd:output.obj
 0001:000755f0       ?state_case_flag@?$output_processor@DV?$string_output_adapter@D@__crt_stdio_output@@V?$standard_base@DV?$string_output_adapter@D@__crt_stdio_output@@@2@@__crt_stdio_output@@AEAA_NXZ 00000001800765f0 f i libucrtd:output.obj
 0001:00075690       ?state_case_flag@?$output_processor@_WV?$stream_output_adapter@_W@__crt_stdio_output@@V?$format_validation_base@_WV?$stream_output_adapter@_W@__crt_stdio_output@@@2@@__crt_stdio_output@@AEAA_NXZ 0000000180076690 f i libucrtd:output.obj
 0001:00075730       ?state_case_flag@?$output_processor@_WV?$stream_output_adapter@_W@__crt_stdio_output@@V?$positional_parameter_base@_WV?$stream_output_adapter@_W@__crt_stdio_output@@@2@@__crt_stdio_output@@AEAA_NXZ 0000000180076730 f i libucrtd:output.obj
 0001:000757d0       ?state_case_flag@?$output_processor@_WV?$stream_output_adapter@_W@__crt_stdio_output@@V?$standard_base@_WV?$stream_output_adapter@_W@__crt_stdio_output@@@2@@__crt_stdio_output@@AEAA_NXZ 00000001800767d0 f i libucrtd:output.obj
 0001:00075870       ?state_case_flag@?$output_processor@_WV?$string_output_adapter@_W@__crt_stdio_output@@V?$format_validation_base@_WV?$string_output_adapter@_W@__crt_stdio_output@@@2@@__crt_stdio_output@@AEAA_NXZ 0000000180076870 f i libucrtd:output.obj
 0001:00075910       ?state_case_flag@?$output_processor@_WV?$string_output_adapter@_W@__crt_stdio_output@@V?$positional_parameter_base@_WV?$string_output_adapter@_W@__crt_stdio_output@@@2@@__crt_stdio_output@@AEAA_NXZ 0000000180076910 f i libucrtd:output.obj
 0001:000759b0       ?state_case_flag@?$output_processor@_WV?$string_output_adapter@_W@__crt_stdio_output@@V?$standard_base@_WV?$string_output_adapter@_W@__crt_stdio_output@@@2@@__crt_stdio_output@@AEAA_NXZ 00000001800769b0 f i libucrtd:output.obj
 0001:00075a50       ?state_case_normal@?$output_processor@DV?$stream_output_adapter@D@__crt_stdio_output@@V?$format_validation_base@DV?$stream_output_adapter@D@__crt_stdio_output@@@2@@__crt_stdio_output@@AEAA_NXZ 0000000180076a50 f i libucrtd:output.obj
 0001:00075b50       ?state_case_normal@?$output_processor@DV?$stream_output_adapter@D@__crt_stdio_output@@V?$positional_parameter_base@DV?$stream_output_adapter@D@__crt_stdio_output@@@2@@__crt_stdio_output@@AEAA_NXZ 0000000180076b50 f i libucrtd:output.obj
 0001:00075c50       ?state_case_normal@?$output_processor@DV?$stream_output_adapter@D@__crt_stdio_output@@V?$standard_base@DV?$stream_output_adapter@D@__crt_stdio_output@@@2@@__crt_stdio_output@@AEAA_NXZ 0000000180076c50 f i libucrtd:output.obj
 0001:00075d50       ?state_case_normal@?$output_processor@DV?$string_output_adapter@D@__crt_stdio_output@@V?$format_validation_base@DV?$string_output_adapter@D@__crt_stdio_output@@@2@@__crt_stdio_output@@AEAA_NXZ 0000000180076d50 f i libucrtd:output.obj
 0001:00075e50       ?state_case_normal@?$output_processor@DV?$string_output_adapter@D@__crt_stdio_output@@V?$positional_parameter_base@DV?$string_output_adapter@D@__crt_stdio_output@@@2@@__crt_stdio_output@@AEAA_NXZ 0000000180076e50 f i libucrtd:output.obj
 0001:00075f50       ?state_case_normal@?$output_processor@DV?$string_output_adapter@D@__crt_stdio_output@@V?$standard_base@DV?$string_output_adapter@D@__crt_stdio_output@@@2@@__crt_stdio_output@@AEAA_NXZ 0000000180076f50 f i libucrtd:output.obj
 0001:00076050       ?state_case_normal@?$output_processor@_WV?$stream_output_adapter@_W@__crt_stdio_output@@V?$format_validation_base@_WV?$stream_output_adapter@_W@__crt_stdio_output@@@2@@__crt_stdio_output@@AEAA_NXZ 0000000180077050 f i libucrtd:output.obj
 0001:00076150       ?state_case_normal@?$output_processor@_WV?$stream_output_adapter@_W@__crt_stdio_output@@V?$positional_parameter_base@_WV?$stream_output_adapter@_W@__crt_stdio_output@@@2@@__crt_stdio_output@@AEAA_NXZ 0000000180077150 f i libucrtd:output.obj
 0001:00076250       ?state_case_normal@?$output_processor@_WV?$stream_output_adapter@_W@__crt_stdio_output@@V?$standard_base@_WV?$stream_output_adapter@_W@__crt_stdio_output@@@2@@__crt_stdio_output@@AEAA_NXZ 0000000180077250 f i libucrtd:output.obj
 0001:00076350       ?state_case_normal@?$output_processor@_WV?$string_output_adapter@_W@__crt_stdio_output@@V?$format_validation_base@_WV?$string_output_adapter@_W@__crt_stdio_output@@@2@@__crt_stdio_output@@AEAA_NXZ 0000000180077350 f i libucrtd:output.obj
 0001:00076450       ?state_case_normal@?$output_processor@_WV?$string_output_adapter@_W@__crt_stdio_output@@V?$positional_parameter_base@_WV?$string_output_adapter@_W@__crt_stdio_output@@@2@@__crt_stdio_output@@AEAA_NXZ 0000000180077450 f i libucrtd:output.obj
 0001:00076550       ?state_case_normal@?$output_processor@_WV?$string_output_adapter@_W@__crt_stdio_output@@V?$standard_base@_WV?$string_output_adapter@_W@__crt_stdio_output@@@2@@__crt_stdio_output@@AEAA_NXZ 0000000180077550 f i libucrtd:output.obj
 0001:00076650       ?state_case_normal_common@?$output_processor@DV?$stream_output_adapter@D@__crt_stdio_output@@V?$format_validation_base@DV?$stream_output_adapter@D@__crt_stdio_output@@@2@@__crt_stdio_output@@AEAA_NXZ 0000000180077650 f i libucrtd:output.obj
 0001:000766b0       ?state_case_normal_common@?$output_processor@DV?$stream_output_adapter@D@__crt_stdio_output@@V?$positional_parameter_base@DV?$stream_output_adapter@D@__crt_stdio_output@@@2@@__crt_stdio_output@@AEAA_NXZ 00000001800776b0 f i libucrtd:output.obj
 0001:00076710       ?state_case_normal_common@?$output_processor@DV?$stream_output_adapter@D@__crt_stdio_output@@V?$standard_base@DV?$stream_output_adapter@D@__crt_stdio_output@@@2@@__crt_stdio_output@@AEAA_NXZ 0000000180077710 f i libucrtd:output.obj
 0001:00076770       ?state_case_normal_common@?$output_processor@DV?$string_output_adapter@D@__crt_stdio_output@@V?$format_validation_base@DV?$string_output_adapter@D@__crt_stdio_output@@@2@@__crt_stdio_output@@AEAA_NXZ 0000000180077770 f i libucrtd:output.obj
 0001:000767d0       ?state_case_normal_common@?$output_processor@DV?$string_output_adapter@D@__crt_stdio_output@@V?$positional_parameter_base@DV?$string_output_adapter@D@__crt_stdio_output@@@2@@__crt_stdio_output@@AEAA_NXZ 00000001800777d0 f i libucrtd:output.obj
 0001:00076830       ?state_case_normal_common@?$output_processor@DV?$string_output_adapter@D@__crt_stdio_output@@V?$standard_base@DV?$string_output_adapter@D@__crt_stdio_output@@@2@@__crt_stdio_output@@AEAA_NXZ 0000000180077830 f i libucrtd:output.obj
 0001:00076890       ?state_case_normal_common@?$output_processor@_WV?$stream_output_adapter@_W@__crt_stdio_output@@V?$format_validation_base@_WV?$stream_output_adapter@_W@__crt_stdio_output@@@2@@__crt_stdio_output@@AEAA_NXZ 0000000180077890 f i libucrtd:output.obj
 0001:000768f0       ?state_case_normal_common@?$output_processor@_WV?$stream_output_adapter@_W@__crt_stdio_output@@V?$positional_parameter_base@_WV?$stream_output_adapter@_W@__crt_stdio_output@@@2@@__crt_stdio_output@@AEAA_NXZ 00000001800778f0 f i libucrtd:output.obj
 0001:00076950       ?state_case_normal_common@?$output_processor@_WV?$stream_output_adapter@_W@__crt_stdio_output@@V?$standard_base@_WV?$stream_output_adapter@_W@__crt_stdio_output@@@2@@__crt_stdio_output@@AEAA_NXZ 0000000180077950 f i libucrtd:output.obj
 0001:000769b0       ?state_case_normal_common@?$output_processor@_WV?$string_output_adapter@_W@__crt_stdio_output@@V?$format_validation_base@_WV?$string_output_adapter@_W@__crt_stdio_output@@@2@@__crt_stdio_output@@AEAA_NXZ 00000001800779b0 f i libucrtd:output.obj
 0001:00076a10       ?state_case_normal_common@?$output_processor@_WV?$string_output_adapter@_W@__crt_stdio_output@@V?$positional_parameter_base@_WV?$string_output_adapter@_W@__crt_stdio_output@@@2@@__crt_stdio_output@@AEAA_NXZ 0000000180077a10 f i libucrtd:output.obj
 0001:00076a70       ?state_case_normal_common@?$output_processor@_WV?$string_output_adapter@_W@__crt_stdio_output@@V?$standard_base@_WV?$string_output_adapter@_W@__crt_stdio_output@@@2@@__crt_stdio_output@@AEAA_NXZ 0000000180077a70 f i libucrtd:output.obj
 0001:00076ad0       ?state_case_normal_tchar@?$output_processor@DV?$stream_output_adapter@D@__crt_stdio_output@@V?$format_validation_base@DV?$stream_output_adapter@D@__crt_stdio_output@@@2@@__crt_stdio_output@@AEAA_ND@Z 0000000180077ad0 f i libucrtd:output.obj
 0001:00076c60       ?state_case_normal_tchar@?$output_processor@DV?$stream_output_adapter@D@__crt_stdio_output@@V?$positional_parameter_base@DV?$stream_output_adapter@D@__crt_stdio_output@@@2@@__crt_stdio_output@@AEAA_ND@Z 0000000180077c60 f i libucrtd:output.obj
 0001:00076df0       ?state_case_normal_tchar@?$output_processor@DV?$stream_output_adapter@D@__crt_stdio_output@@V?$standard_base@DV?$stream_output_adapter@D@__crt_stdio_output@@@2@@__crt_stdio_output@@AEAA_ND@Z 0000000180077df0 f i libucrtd:output.obj
 0001:00076f80       ?state_case_normal_tchar@?$output_processor@DV?$string_output_adapter@D@__crt_stdio_output@@V?$format_validation_base@DV?$string_output_adapter@D@__crt_stdio_output@@@2@@__crt_stdio_output@@AEAA_ND@Z 0000000180077f80 f i libucrtd:output.obj
 0001:00077110       ?state_case_normal_tchar@?$output_processor@DV?$string_output_adapter@D@__crt_stdio_output@@V?$positional_parameter_base@DV?$string_output_adapter@D@__crt_stdio_output@@@2@@__crt_stdio_output@@AEAA_ND@Z 0000000180078110 f i libucrtd:output.obj
 0001:000772a0       ?state_case_normal_tchar@?$output_processor@DV?$string_output_adapter@D@__crt_stdio_output@@V?$standard_base@DV?$string_output_adapter@D@__crt_stdio_output@@@2@@__crt_stdio_output@@AEAA_ND@Z 00000001800782a0 f i libucrtd:output.obj
 0001:00077430       ?state_case_normal_tchar@?$output_processor@_WV?$stream_output_adapter@_W@__crt_stdio_output@@V?$format_validation_base@_WV?$stream_output_adapter@_W@__crt_stdio_output@@@2@@__crt_stdio_output@@AEAA_N_W@Z 0000000180078430 f i libucrtd:output.obj
 0001:00077450       ?state_case_normal_tchar@?$output_processor@_WV?$stream_output_adapter@_W@__crt_stdio_output@@V?$positional_parameter_base@_WV?$stream_output_adapter@_W@__crt_stdio_output@@@2@@__crt_stdio_output@@AEAA_N_W@Z 0000000180078450 f i libucrtd:output.obj
 0001:00077470       ?state_case_normal_tchar@?$output_processor@_WV?$stream_output_adapter@_W@__crt_stdio_output@@V?$standard_base@_WV?$stream_output_adapter@_W@__crt_stdio_output@@@2@@__crt_stdio_output@@AEAA_N_W@Z 0000000180078470 f i libucrtd:output.obj
 0001:00077490       ?state_case_normal_tchar@?$output_processor@_WV?$string_output_adapter@_W@__crt_stdio_output@@V?$format_validation_base@_WV?$string_output_adapter@_W@__crt_stdio_output@@@2@@__crt_stdio_output@@AEAA_N_W@Z 0000000180078490 f i libucrtd:output.obj
 0001:000774b0       ?state_case_normal_tchar@?$output_processor@_WV?$string_output_adapter@_W@__crt_stdio_output@@V?$positional_parameter_base@_WV?$string_output_adapter@_W@__crt_stdio_output@@@2@@__crt_stdio_output@@AEAA_N_W@Z 00000001800784b0 f i libucrtd:output.obj
 0001:000774d0       ?state_case_normal_tchar@?$output_processor@_WV?$string_output_adapter@_W@__crt_stdio_output@@V?$standard_base@_WV?$string_output_adapter@_W@__crt_stdio_output@@@2@@__crt_stdio_output@@AEAA_N_W@Z 00000001800784d0 f i libucrtd:output.obj
 0001:000774f0       ?state_case_percent@?$output_processor@DV?$stream_output_adapter@D@__crt_stdio_output@@V?$format_validation_base@DV?$stream_output_adapter@D@__crt_stdio_output@@@2@@__crt_stdio_output@@AEAA_NXZ 00000001800784f0 f i libucrtd:output.obj
 0001:00077540       ?state_case_percent@?$output_processor@DV?$stream_output_adapter@D@__crt_stdio_output@@V?$positional_parameter_base@DV?$stream_output_adapter@D@__crt_stdio_output@@@2@@__crt_stdio_output@@AEAA_NXZ 0000000180078540 f i libucrtd:output.obj
 0001:00077590       ?state_case_percent@?$output_processor@DV?$stream_output_adapter@D@__crt_stdio_output@@V?$standard_base@DV?$stream_output_adapter@D@__crt_stdio_output@@@2@@__crt_stdio_output@@AEAA_NXZ 0000000180078590 f i libucrtd:output.obj
 0001:000775e0       ?state_case_percent@?$output_processor@DV?$string_output_adapter@D@__crt_stdio_output@@V?$format_validation_base@DV?$string_output_adapter@D@__crt_stdio_output@@@2@@__crt_stdio_output@@AEAA_NXZ 00000001800785e0 f i libucrtd:output.obj
 0001:00077630       ?state_case_percent@?$output_processor@DV?$string_output_adapter@D@__crt_stdio_output@@V?$positional_parameter_base@DV?$string_output_adapter@D@__crt_stdio_output@@@2@@__crt_stdio_output@@AEAA_NXZ 0000000180078630 f i libucrtd:output.obj
 0001:00077680       ?state_case_percent@?$output_processor@DV?$string_output_adapter@D@__crt_stdio_output@@V?$standard_base@DV?$string_output_adapter@D@__crt_stdio_output@@@2@@__crt_stdio_output@@AEAA_NXZ 0000000180078680 f i libucrtd:output.obj
 0001:000776d0       ?state_case_percent@?$output_processor@_WV?$stream_output_adapter@_W@__crt_stdio_output@@V?$format_validation_base@_WV?$stream_output_adapter@_W@__crt_stdio_output@@@2@@__crt_stdio_output@@AEAA_NXZ 00000001800786d0 f i libucrtd:output.obj
 0001:00077720       ?state_case_percent@?$output_processor@_WV?$stream_output_adapter@_W@__crt_stdio_output@@V?$positional_parameter_base@_WV?$stream_output_adapter@_W@__crt_stdio_output@@@2@@__crt_stdio_output@@AEAA_NXZ 0000000180078720 f i libucrtd:output.obj
 0001:00077770       ?state_case_percent@?$output_processor@_WV?$stream_output_adapter@_W@__crt_stdio_output@@V?$standard_base@_WV?$stream_output_adapter@_W@__crt_stdio_output@@@2@@__crt_stdio_output@@AEAA_NXZ 0000000180078770 f i libucrtd:output.obj
 0001:000777c0       ?state_case_percent@?$output_processor@_WV?$string_output_adapter@_W@__crt_stdio_output@@V?$format_validation_base@_WV?$string_output_adapter@_W@__crt_stdio_output@@@2@@__crt_stdio_output@@AEAA_NXZ 00000001800787c0 f i libucrtd:output.obj
 0001:00077810       ?state_case_percent@?$output_processor@_WV?$string_output_adapter@_W@__crt_stdio_output@@V?$positional_parameter_base@_WV?$string_output_adapter@_W@__crt_stdio_output@@@2@@__crt_stdio_output@@AEAA_NXZ 0000000180078810 f i libucrtd:output.obj
 0001:00077860       ?state_case_percent@?$output_processor@_WV?$string_output_adapter@_W@__crt_stdio_output@@V?$standard_base@_WV?$string_output_adapter@_W@__crt_stdio_output@@@2@@__crt_stdio_output@@AEAA_NXZ 0000000180078860 f i libucrtd:output.obj
 0001:000778b0       ?state_case_precision@?$output_processor@DV?$stream_output_adapter@D@__crt_stdio_output@@V?$format_validation_base@DV?$stream_output_adapter@D@__crt_stdio_output@@@2@@__crt_stdio_output@@AEAA_NXZ 00000001800788b0 f i libucrtd:output.obj
 0001:00077930       ?state_case_precision@?$output_processor@DV?$stream_output_adapter@D@__crt_stdio_output@@V?$positional_parameter_base@DV?$stream_output_adapter@D@__crt_stdio_output@@@2@@__crt_stdio_output@@AEAA_NXZ 0000000180078930 f i libucrtd:output.obj
 0001:000779b0       ?state_case_precision@?$output_processor@DV?$stream_output_adapter@D@__crt_stdio_output@@V?$standard_base@DV?$stream_output_adapter@D@__crt_stdio_output@@@2@@__crt_stdio_output@@AEAA_NXZ 00000001800789b0 f i libucrtd:output.obj
 0001:00077a30       ?state_case_precision@?$output_processor@DV?$string_output_adapter@D@__crt_stdio_output@@V?$format_validation_base@DV?$string_output_adapter@D@__crt_stdio_output@@@2@@__crt_stdio_output@@AEAA_NXZ 0000000180078a30 f i libucrtd:output.obj
 0001:00077ab0       ?state_case_precision@?$output_processor@DV?$string_output_adapter@D@__crt_stdio_output@@V?$positional_parameter_base@DV?$string_output_adapter@D@__crt_stdio_output@@@2@@__crt_stdio_output@@AEAA_NXZ 0000000180078ab0 f i libucrtd:output.obj
 0001:00077b30       ?state_case_precision@?$output_processor@DV?$string_output_adapter@D@__crt_stdio_output@@V?$standard_base@DV?$string_output_adapter@D@__crt_stdio_output@@@2@@__crt_stdio_output@@AEAA_NXZ 0000000180078b30 f i libucrtd:output.obj
 0001:00077bb0       ?state_case_precision@?$output_processor@_WV?$stream_output_adapter@_W@__crt_stdio_output@@V?$format_validation_base@_WV?$stream_output_adapter@_W@__crt_stdio_output@@@2@@__crt_stdio_output@@AEAA_NXZ 0000000180078bb0 f i libucrtd:output.obj
 0001:00077c30       ?state_case_precision@?$output_processor@_WV?$stream_output_adapter@_W@__crt_stdio_output@@V?$positional_parameter_base@_WV?$stream_output_adapter@_W@__crt_stdio_output@@@2@@__crt_stdio_output@@AEAA_NXZ 0000000180078c30 f i libucrtd:output.obj
 0001:00077cb0       ?state_case_precision@?$output_processor@_WV?$stream_output_adapter@_W@__crt_stdio_output@@V?$standard_base@_WV?$stream_output_adapter@_W@__crt_stdio_output@@@2@@__crt_stdio_output@@AEAA_NXZ 0000000180078cb0 f i libucrtd:output.obj
 0001:00077d30       ?state_case_precision@?$output_processor@_WV?$string_output_adapter@_W@__crt_stdio_output@@V?$format_validation_base@_WV?$string_output_adapter@_W@__crt_stdio_output@@@2@@__crt_stdio_output@@AEAA_NXZ 0000000180078d30 f i libucrtd:output.obj
 0001:00077db0       ?state_case_precision@?$output_processor@_WV?$string_output_adapter@_W@__crt_stdio_output@@V?$positional_parameter_base@_WV?$string_output_adapter@_W@__crt_stdio_output@@@2@@__crt_stdio_output@@AEAA_NXZ 0000000180078db0 f i libucrtd:output.obj
 0001:00077e30       ?state_case_precision@?$output_processor@_WV?$string_output_adapter@_W@__crt_stdio_output@@V?$standard_base@_WV?$string_output_adapter@_W@__crt_stdio_output@@@2@@__crt_stdio_output@@AEAA_NXZ 0000000180078e30 f i libucrtd:output.obj
 0001:00077eb0       ?state_case_size@?$output_processor@DV?$stream_output_adapter@D@__crt_stdio_output@@V?$format_validation_base@DV?$stream_output_adapter@D@__crt_stdio_output@@@2@@__crt_stdio_output@@AEAA_NXZ 0000000180078eb0 f i libucrtd:output.obj
 0001:00078370       ?state_case_size@?$output_processor@DV?$stream_output_adapter@D@__crt_stdio_output@@V?$positional_parameter_base@DV?$stream_output_adapter@D@__crt_stdio_output@@@2@@__crt_stdio_output@@AEAA_NXZ 0000000180079370 f i libucrtd:output.obj
 0001:00078830       ?state_case_size@?$output_processor@DV?$stream_output_adapter@D@__crt_stdio_output@@V?$standard_base@DV?$stream_output_adapter@D@__crt_stdio_output@@@2@@__crt_stdio_output@@AEAA_NXZ 0000000180079830 f i libucrtd:output.obj
 0001:00078cf0       ?state_case_size@?$output_processor@DV?$string_output_adapter@D@__crt_stdio_output@@V?$format_validation_base@DV?$string_output_adapter@D@__crt_stdio_output@@@2@@__crt_stdio_output@@AEAA_NXZ 0000000180079cf0 f i libucrtd:output.obj
 0001:000791b0       ?state_case_size@?$output_processor@DV?$string_output_adapter@D@__crt_stdio_output@@V?$positional_parameter_base@DV?$string_output_adapter@D@__crt_stdio_output@@@2@@__crt_stdio_output@@AEAA_NXZ 000000018007a1b0 f i libucrtd:output.obj
 0001:00079670       ?state_case_size@?$output_processor@DV?$string_output_adapter@D@__crt_stdio_output@@V?$standard_base@DV?$string_output_adapter@D@__crt_stdio_output@@@2@@__crt_stdio_output@@AEAA_NXZ 000000018007a670 f i libucrtd:output.obj
 0001:00079b30       ?state_case_size@?$output_processor@_WV?$stream_output_adapter@_W@__crt_stdio_output@@V?$format_validation_base@_WV?$stream_output_adapter@_W@__crt_stdio_output@@@2@@__crt_stdio_output@@AEAA_NXZ 000000018007ab30 f i libucrtd:output.obj
 0001:00079ff0       ?state_case_size@?$output_processor@_WV?$stream_output_adapter@_W@__crt_stdio_output@@V?$positional_parameter_base@_WV?$stream_output_adapter@_W@__crt_stdio_output@@@2@@__crt_stdio_output@@AEAA_NXZ 000000018007aff0 f i libucrtd:output.obj
 0001:0007a4b0       ?state_case_size@?$output_processor@_WV?$stream_output_adapter@_W@__crt_stdio_output@@V?$standard_base@_WV?$stream_output_adapter@_W@__crt_stdio_output@@@2@@__crt_stdio_output@@AEAA_NXZ 000000018007b4b0 f i libucrtd:output.obj
 0001:0007a970       ?state_case_size@?$output_processor@_WV?$string_output_adapter@_W@__crt_stdio_output@@V?$format_validation_base@_WV?$string_output_adapter@_W@__crt_stdio_output@@@2@@__crt_stdio_output@@AEAA_NXZ 000000018007b970 f i libucrtd:output.obj
 0001:0007ae30       ?state_case_size@?$output_processor@_WV?$string_output_adapter@_W@__crt_stdio_output@@V?$positional_parameter_base@_WV?$string_output_adapter@_W@__crt_stdio_output@@@2@@__crt_stdio_output@@AEAA_NXZ 000000018007be30 f i libucrtd:output.obj
 0001:0007b2f0       ?state_case_size@?$output_processor@_WV?$string_output_adapter@_W@__crt_stdio_output@@V?$standard_base@_WV?$string_output_adapter@_W@__crt_stdio_output@@@2@@__crt_stdio_output@@AEAA_NXZ 000000018007c2f0 f i libucrtd:output.obj
 0001:0007b7b0       ?state_case_type@?$output_processor@DV?$stream_output_adapter@D@__crt_stdio_output@@V?$format_validation_base@DV?$stream_output_adapter@D@__crt_stdio_output@@@2@@__crt_stdio_output@@AEAA_NXZ 000000018007c7b0 f i libucrtd:output.obj
 0001:0007bc70       ?state_case_type@?$output_processor@DV?$stream_output_adapter@D@__crt_stdio_output@@V?$positional_parameter_base@DV?$stream_output_adapter@D@__crt_stdio_output@@@2@@__crt_stdio_output@@AEAA_NXZ 000000018007cc70 f i libucrtd:output.obj
 0001:0007c130       ?state_case_type@?$output_processor@DV?$stream_output_adapter@D@__crt_stdio_output@@V?$standard_base@DV?$stream_output_adapter@D@__crt_stdio_output@@@2@@__crt_stdio_output@@AEAA_NXZ 000000018007d130 f i libucrtd:output.obj
 0001:0007c5f0       ?state_case_type@?$output_processor@DV?$string_output_adapter@D@__crt_stdio_output@@V?$format_validation_base@DV?$string_output_adapter@D@__crt_stdio_output@@@2@@__crt_stdio_output@@AEAA_NXZ 000000018007d5f0 f i libucrtd:output.obj
 0001:0007cab0       ?state_case_type@?$output_processor@DV?$string_output_adapter@D@__crt_stdio_output@@V?$positional_parameter_base@DV?$string_output_adapter@D@__crt_stdio_output@@@2@@__crt_stdio_output@@AEAA_NXZ 000000018007dab0 f i libucrtd:output.obj
 0001:0007cf70       ?state_case_type@?$output_processor@DV?$string_output_adapter@D@__crt_stdio_output@@V?$standard_base@DV?$string_output_adapter@D@__crt_stdio_output@@@2@@__crt_stdio_output@@AEAA_NXZ 000000018007df70 f i libucrtd:output.obj
 0001:0007d430       ?state_case_type@?$output_processor@_WV?$stream_output_adapter@_W@__crt_stdio_output@@V?$format_validation_base@_WV?$stream_output_adapter@_W@__crt_stdio_output@@@2@@__crt_stdio_output@@AEAA_NXZ 000000018007e430 f i libucrtd:output.obj
 0001:0007d9c0       ?state_case_type@?$output_processor@_WV?$stream_output_adapter@_W@__crt_stdio_output@@V?$positional_parameter_base@_WV?$stream_output_adapter@_W@__crt_stdio_output@@@2@@__crt_stdio_output@@AEAA_NXZ 000000018007e9c0 f i libucrtd:output.obj
 0001:0007df50       ?state_case_type@?$output_processor@_WV?$stream_output_adapter@_W@__crt_stdio_output@@V?$standard_base@_WV?$stream_output_adapter@_W@__crt_stdio_output@@@2@@__crt_stdio_output@@AEAA_NXZ 000000018007ef50 f i libucrtd:output.obj
 0001:0007e4e0       ?state_case_type@?$output_processor@_WV?$string_output_adapter@_W@__crt_stdio_output@@V?$format_validation_base@_WV?$string_output_adapter@_W@__crt_stdio_output@@@2@@__crt_stdio_output@@AEAA_NXZ 000000018007f4e0 f i libucrtd:output.obj
 0001:0007ea70       ?state_case_type@?$output_processor@_WV?$string_output_adapter@_W@__crt_stdio_output@@V?$positional_parameter_base@_WV?$string_output_adapter@_W@__crt_stdio_output@@@2@@__crt_stdio_output@@AEAA_NXZ 000000018007fa70 f i libucrtd:output.obj
 0001:0007f000       ?state_case_type@?$output_processor@_WV?$string_output_adapter@_W@__crt_stdio_output@@V?$standard_base@_WV?$string_output_adapter@_W@__crt_stdio_output@@@2@@__crt_stdio_output@@AEAA_NXZ 0000000180080000 f i libucrtd:output.obj
 0001:0007f590       ?state_case_width@?$output_processor@DV?$stream_output_adapter@D@__crt_stdio_output@@V?$format_validation_base@DV?$stream_output_adapter@D@__crt_stdio_output@@@2@@__crt_stdio_output@@AEAA_NXZ 0000000180080590 f i libucrtd:output.obj
 0001:0007f620       ?state_case_width@?$output_processor@DV?$stream_output_adapter@D@__crt_stdio_output@@V?$positional_parameter_base@DV?$stream_output_adapter@D@__crt_stdio_output@@@2@@__crt_stdio_output@@AEAA_NXZ 0000000180080620 f i libucrtd:output.obj
 0001:0007f6b0       ?state_case_width@?$output_processor@DV?$stream_output_adapter@D@__crt_stdio_output@@V?$standard_base@DV?$stream_output_adapter@D@__crt_stdio_output@@@2@@__crt_stdio_output@@AEAA_NXZ 00000001800806b0 f i libucrtd:output.obj
 0001:0007f740       ?state_case_width@?$output_processor@DV?$string_output_adapter@D@__crt_stdio_output@@V?$format_validation_base@DV?$string_output_adapter@D@__crt_stdio_output@@@2@@__crt_stdio_output@@AEAA_NXZ 0000000180080740 f i libucrtd:output.obj
 0001:0007f7d0       ?state_case_width@?$output_processor@DV?$string_output_adapter@D@__crt_stdio_output@@V?$positional_parameter_base@DV?$string_output_adapter@D@__crt_stdio_output@@@2@@__crt_stdio_output@@AEAA_NXZ 00000001800807d0 f i libucrtd:output.obj
 0001:0007f860       ?state_case_width@?$output_processor@DV?$string_output_adapter@D@__crt_stdio_output@@V?$standard_base@DV?$string_output_adapter@D@__crt_stdio_output@@@2@@__crt_stdio_output@@AEAA_NXZ 0000000180080860 f i libucrtd:output.obj
 0001:0007f8f0       ?state_case_width@?$output_processor@_WV?$stream_output_adapter@_W@__crt_stdio_output@@V?$format_validation_base@_WV?$stream_output_adapter@_W@__crt_stdio_output@@@2@@__crt_stdio_output@@AEAA_NXZ 00000001800808f0 f i libucrtd:output.obj
 0001:0007f980       ?state_case_width@?$output_processor@_WV?$stream_output_adapter@_W@__crt_stdio_output@@V?$positional_parameter_base@_WV?$stream_output_adapter@_W@__crt_stdio_output@@@2@@__crt_stdio_output@@AEAA_NXZ 0000000180080980 f i libucrtd:output.obj
 0001:0007fa10       ?state_case_width@?$output_processor@_WV?$stream_output_adapter@_W@__crt_stdio_output@@V?$standard_base@_WV?$stream_output_adapter@_W@__crt_stdio_output@@@2@@__crt_stdio_output@@AEAA_NXZ 0000000180080a10 f i libucrtd:output.obj
 0001:0007faa0       ?state_case_width@?$output_processor@_WV?$string_output_adapter@_W@__crt_stdio_output@@V?$format_validation_base@_WV?$string_output_adapter@_W@__crt_stdio_output@@@2@@__crt_stdio_output@@AEAA_NXZ 0000000180080aa0 f i libucrtd:output.obj
 0001:0007fb30       ?state_case_width@?$output_processor@_WV?$string_output_adapter@_W@__crt_stdio_output@@V?$positional_parameter_base@_WV?$string_output_adapter@_W@__crt_stdio_output@@@2@@__crt_stdio_output@@AEAA_NXZ 0000000180080b30 f i libucrtd:output.obj
 0001:0007fbc0       ?state_case_width@?$output_processor@_WV?$string_output_adapter@_W@__crt_stdio_output@@V?$standard_base@_WV?$string_output_adapter@_W@__crt_stdio_output@@@2@@__crt_stdio_output@@AEAA_NXZ 0000000180080bc0 f i libucrtd:output.obj
 0001:0007fc50       ?state_count@?$format_validation_base@DV?$stream_output_adapter@D@__crt_stdio_output@@@__crt_stdio_output@@KAIXZ 0000000180080c50 f i libucrtd:output.obj
 0001:0007fc60       ?state_count@?$format_validation_base@DV?$string_output_adapter@D@__crt_stdio_output@@@__crt_stdio_output@@KAIXZ 0000000180080c60 f i libucrtd:output.obj
 0001:0007fc70       ?state_count@?$format_validation_base@_WV?$stream_output_adapter@_W@__crt_stdio_output@@@__crt_stdio_output@@KAIXZ 0000000180080c70 f i libucrtd:output.obj
 0001:0007fc80       ?state_count@?$format_validation_base@_WV?$string_output_adapter@_W@__crt_stdio_output@@@__crt_stdio_output@@KAIXZ 0000000180080c80 f i libucrtd:output.obj
 0001:0007fc90       ?state_count@?$standard_base@DV?$stream_output_adapter@D@__crt_stdio_output@@@__crt_stdio_output@@KAIXZ 0000000180080c90 f i libucrtd:output.obj
 0001:0007fca0       ?state_count@?$standard_base@DV?$string_output_adapter@D@__crt_stdio_output@@@__crt_stdio_output@@KAIXZ 0000000180080ca0 f i libucrtd:output.obj
 0001:0007fcb0       ?state_count@?$standard_base@_WV?$stream_output_adapter@_W@__crt_stdio_output@@@__crt_stdio_output@@KAIXZ 0000000180080cb0 f i libucrtd:output.obj
 0001:0007fcc0       ?state_count@?$standard_base@_WV?$string_output_adapter@_W@__crt_stdio_output@@@__crt_stdio_output@@KAIXZ 0000000180080cc0 f i libucrtd:output.obj
 0001:0007fcd0       ?state_transition_table@?$format_validation_base@DV?$stream_output_adapter@D@__crt_stdio_output@@@__crt_stdio_output@@KAAEBV?$spectre_mitigated_lookup_table@Ustate_transition_pair@__crt_stdio_output@@$0IA@@2@XZ 0000000180080cd0 f i libucrtd:output.obj
 0001:0007fce0       ?state_transition_table@?$format_validation_base@DV?$string_output_adapter@D@__crt_stdio_output@@@__crt_stdio_output@@KAAEBV?$spectre_mitigated_lookup_table@Ustate_transition_pair@__crt_stdio_output@@$0IA@@2@XZ 0000000180080ce0 f i libucrtd:output.obj
 0001:0007fcf0       ?state_transition_table@?$format_validation_base@_WV?$stream_output_adapter@_W@__crt_stdio_output@@@__crt_stdio_output@@KAAEBV?$spectre_mitigated_lookup_table@Ustate_transition_pair@__crt_stdio_output@@$0IA@@2@XZ 0000000180080cf0 f i libucrtd:output.obj
 0001:0007fd00       ?state_transition_table@?$format_validation_base@_WV?$string_output_adapter@_W@__crt_stdio_output@@@__crt_stdio_output@@KAAEBV?$spectre_mitigated_lookup_table@Ustate_transition_pair@__crt_stdio_output@@$0IA@@2@XZ 0000000180080d00 f i libucrtd:output.obj
 0001:0007fd10       ?state_transition_table@?$standard_base@DV?$stream_output_adapter@D@__crt_stdio_output@@@__crt_stdio_output@@KAAEBV?$spectre_mitigated_lookup_table@Ustate_transition_pair@__crt_stdio_output@@$0IA@@2@XZ 0000000180080d10 f i libucrtd:output.obj
 0001:0007fd20       ?state_transition_table@?$standard_base@DV?$string_output_adapter@D@__crt_stdio_output@@@__crt_stdio_output@@KAAEBV?$spectre_mitigated_lookup_table@Ustate_transition_pair@__crt_stdio_output@@$0IA@@2@XZ 0000000180080d20 f i libucrtd:output.obj
 0001:0007fd30       ?state_transition_table@?$standard_base@_WV?$stream_output_adapter@_W@__crt_stdio_output@@@__crt_stdio_output@@KAAEBV?$spectre_mitigated_lookup_table@Ustate_transition_pair@__crt_stdio_output@@$0IA@@2@XZ 0000000180080d30 f i libucrtd:output.obj
 0001:0007fd40       ?state_transition_table@?$standard_base@_WV?$string_output_adapter@_W@__crt_stdio_output@@@__crt_stdio_output@@KAAEBV?$spectre_mitigated_lookup_table@Ustate_transition_pair@__crt_stdio_output@@$0IA@@2@XZ 0000000180080d40 f i libucrtd:output.obj
 0001:0007fd50       ?tchar_string@?$common_data@D@__crt_stdio_output@@IEAAAEAPEADD@Z 0000000180080d50 f i libucrtd:output.obj
 0001:0007fd70       ?tchar_string@?$common_data@D@__crt_stdio_output@@IEAAAEAPEADXZ 0000000180080d70 f i libucrtd:output.obj
 0001:0007fd90       ?tchar_string@?$common_data@_W@__crt_stdio_output@@IEAAAEAPEA_WXZ 0000000180080d90 f i libucrtd:output.obj
 0001:0007fdb0       ?tchar_string@?$common_data@_W@__crt_stdio_output@@IEAAAEAPEA_W_W@Z 0000000180080db0 f i libucrtd:output.obj
 0001:0007fdd0       ?to_integer_size@__crt_stdio_output@@YA_KW4length_modifier@1@@Z 0000000180080dd0 f i libucrtd:output.obj
 0001:0007fe80       ?type_case_X@?$output_processor@DV?$stream_output_adapter@D@__crt_stdio_output@@V?$format_validation_base@DV?$stream_output_adapter@D@__crt_stdio_output@@@2@@__crt_stdio_output@@AEAA_NXZ 0000000180080e80 f i libucrtd:output.obj
 0001:0007fea0       ?type_case_X@?$output_processor@DV?$stream_output_adapter@D@__crt_stdio_output@@V?$positional_parameter_base@DV?$stream_output_adapter@D@__crt_stdio_output@@@2@@__crt_stdio_output@@AEAA_NXZ 0000000180080ea0 f i libucrtd:output.obj
 0001:0007fec0       ?type_case_X@?$output_processor@DV?$stream_output_adapter@D@__crt_stdio_output@@V?$standard_base@DV?$stream_output_adapter@D@__crt_stdio_output@@@2@@__crt_stdio_output@@AEAA_NXZ 0000000180080ec0 f i libucrtd:output.obj
 0001:0007fee0       ?type_case_X@?$output_processor@DV?$string_output_adapter@D@__crt_stdio_output@@V?$format_validation_base@DV?$string_output_adapter@D@__crt_stdio_output@@@2@@__crt_stdio_output@@AEAA_NXZ 0000000180080ee0 f i libucrtd:output.obj
 0001:0007ff00       ?type_case_X@?$output_processor@DV?$string_output_adapter@D@__crt_stdio_output@@V?$positional_parameter_base@DV?$string_output_adapter@D@__crt_stdio_output@@@2@@__crt_stdio_output@@AEAA_NXZ 0000000180080f00 f i libucrtd:output.obj
 0001:0007ff20       ?type_case_X@?$output_processor@DV?$string_output_adapter@D@__crt_stdio_output@@V?$standard_base@DV?$string_output_adapter@D@__crt_stdio_output@@@2@@__crt_stdio_output@@AEAA_NXZ 0000000180080f20 f i libucrtd:output.obj
 0001:0007ff40       ?type_case_X@?$output_processor@_WV?$stream_output_adapter@_W@__crt_stdio_output@@V?$format_validation_base@_WV?$stream_output_adapter@_W@__crt_stdio_output@@@2@@__crt_stdio_output@@AEAA_NXZ 0000000180080f40 f i libucrtd:output.obj
 0001:0007ff60       ?type_case_X@?$output_processor@_WV?$stream_output_adapter@_W@__crt_stdio_output@@V?$positional_parameter_base@_WV?$stream_output_adapter@_W@__crt_stdio_output@@@2@@__crt_stdio_output@@AEAA_NXZ 0000000180080f60 f i libucrtd:output.obj
 0001:0007ff80       ?type_case_X@?$output_processor@_WV?$stream_output_adapter@_W@__crt_stdio_output@@V?$standard_base@_WV?$stream_output_adapter@_W@__crt_stdio_output@@@2@@__crt_stdio_output@@AEAA_NXZ 0000000180080f80 f i libucrtd:output.obj
 0001:0007ffa0       ?type_case_X@?$output_processor@_WV?$string_output_adapter@_W@__crt_stdio_output@@V?$format_validation_base@_WV?$string_output_adapter@_W@__crt_stdio_output@@@2@@__crt_stdio_output@@AEAA_NXZ 0000000180080fa0 f i libucrtd:output.obj
 0001:0007ffc0       ?type_case_X@?$output_processor@_WV?$string_output_adapter@_W@__crt_stdio_output@@V?$positional_parameter_base@_WV?$string_output_adapter@_W@__crt_stdio_output@@@2@@__crt_stdio_output@@AEAA_NXZ 0000000180080fc0 f i libucrtd:output.obj
 0001:0007ffe0       ?type_case_X@?$output_processor@_WV?$string_output_adapter@_W@__crt_stdio_output@@V?$standard_base@_WV?$string_output_adapter@_W@__crt_stdio_output@@@2@@__crt_stdio_output@@AEAA_NXZ 0000000180080fe0 f i libucrtd:output.obj
 0001:00080000       ?type_case_Z@?$output_processor@DV?$stream_output_adapter@D@__crt_stdio_output@@V?$format_validation_base@DV?$stream_output_adapter@D@__crt_stdio_output@@@2@@__crt_stdio_output@@AEAA_NXZ 0000000180081000 f i libucrtd:output.obj
 0001:00080120       ?type_case_Z@?$output_processor@DV?$stream_output_adapter@D@__crt_stdio_output@@V?$positional_parameter_base@DV?$stream_output_adapter@D@__crt_stdio_output@@@2@@__crt_stdio_output@@AEAA_NXZ 0000000180081120 f i libucrtd:output.obj
 0001:00080240       ?type_case_Z@?$output_processor@DV?$stream_output_adapter@D@__crt_stdio_output@@V?$standard_base@DV?$stream_output_adapter@D@__crt_stdio_output@@@2@@__crt_stdio_output@@AEAA_NXZ 0000000180081240 f i libucrtd:output.obj
 0001:00080360       ?type_case_Z@?$output_processor@DV?$string_output_adapter@D@__crt_stdio_output@@V?$format_validation_base@DV?$string_output_adapter@D@__crt_stdio_output@@@2@@__crt_stdio_output@@AEAA_NXZ 0000000180081360 f i libucrtd:output.obj
 0001:00080480       ?type_case_Z@?$output_processor@DV?$string_output_adapter@D@__crt_stdio_output@@V?$positional_parameter_base@DV?$string_output_adapter@D@__crt_stdio_output@@@2@@__crt_stdio_output@@AEAA_NXZ 0000000180081480 f i libucrtd:output.obj
 0001:000805a0       ?type_case_Z@?$output_processor@DV?$string_output_adapter@D@__crt_stdio_output@@V?$standard_base@DV?$string_output_adapter@D@__crt_stdio_output@@@2@@__crt_stdio_output@@AEAA_NXZ 00000001800815a0 f i libucrtd:output.obj
 0001:000806c0       ?type_case_Z@?$output_processor@_WV?$stream_output_adapter@_W@__crt_stdio_output@@V?$format_validation_base@_WV?$stream_output_adapter@_W@__crt_stdio_output@@@2@@__crt_stdio_output@@AEAA_NXZ 00000001800816c0 f i libucrtd:output.obj
 0001:000807e0       ?type_case_Z@?$output_processor@_WV?$stream_output_adapter@_W@__crt_stdio_output@@V?$positional_parameter_base@_WV?$stream_output_adapter@_W@__crt_stdio_output@@@2@@__crt_stdio_output@@AEAA_NXZ 00000001800817e0 f i libucrtd:output.obj
 0001:00080900       ?type_case_Z@?$output_processor@_WV?$stream_output_adapter@_W@__crt_stdio_output@@V?$standard_base@_WV?$stream_output_adapter@_W@__crt_stdio_output@@@2@@__crt_stdio_output@@AEAA_NXZ 0000000180081900 f i libucrtd:output.obj
 0001:00080a20       ?type_case_Z@?$output_processor@_WV?$string_output_adapter@_W@__crt_stdio_output@@V?$format_validation_base@_WV?$string_output_adapter@_W@__crt_stdio_output@@@2@@__crt_stdio_output@@AEAA_NXZ 0000000180081a20 f i libucrtd:output.obj
 0001:00080b40       ?type_case_Z@?$output_processor@_WV?$string_output_adapter@_W@__crt_stdio_output@@V?$positional_parameter_base@_WV?$string_output_adapter@_W@__crt_stdio_output@@@2@@__crt_stdio_output@@AEAA_NXZ 0000000180081b40 f i libucrtd:output.obj
 0001:00080c60       ?type_case_Z@?$output_processor@_WV?$string_output_adapter@_W@__crt_stdio_output@@V?$standard_base@_WV?$string_output_adapter@_W@__crt_stdio_output@@@2@@__crt_stdio_output@@AEAA_NXZ 0000000180081c60 f i libucrtd:output.obj
 0001:00080d80       ?type_case_a@?$output_processor@DV?$stream_output_adapter@D@__crt_stdio_output@@V?$format_validation_base@DV?$stream_output_adapter@D@__crt_stdio_output@@@2@@__crt_stdio_output@@AEAA_NXZ 0000000180081d80 f i libucrtd:output.obj
 0001:000811e0       ?type_case_a@?$output_processor@DV?$stream_output_adapter@D@__crt_stdio_output@@V?$positional_parameter_base@DV?$stream_output_adapter@D@__crt_stdio_output@@@2@@__crt_stdio_output@@AEAA_NXZ 00000001800821e0 f i libucrtd:output.obj
 0001:00081640       ?type_case_a@?$output_processor@DV?$stream_output_adapter@D@__crt_stdio_output@@V?$standard_base@DV?$stream_output_adapter@D@__crt_stdio_output@@@2@@__crt_stdio_output@@AEAA_NXZ 0000000180082640 f i libucrtd:output.obj
 0001:00081aa0       ?type_case_a@?$output_processor@DV?$string_output_adapter@D@__crt_stdio_output@@V?$format_validation_base@DV?$string_output_adapter@D@__crt_stdio_output@@@2@@__crt_stdio_output@@AEAA_NXZ 0000000180082aa0 f i libucrtd:output.obj
 0001:00081f00       ?type_case_a@?$output_processor@DV?$string_output_adapter@D@__crt_stdio_output@@V?$positional_parameter_base@DV?$string_output_adapter@D@__crt_stdio_output@@@2@@__crt_stdio_output@@AEAA_NXZ 0000000180082f00 f i libucrtd:output.obj
 0001:00082360       ?type_case_a@?$output_processor@DV?$string_output_adapter@D@__crt_stdio_output@@V?$standard_base@DV?$string_output_adapter@D@__crt_stdio_output@@@2@@__crt_stdio_output@@AEAA_NXZ 0000000180083360 f i libucrtd:output.obj
 0001:000827c0       ?type_case_a@?$output_processor@_WV?$stream_output_adapter@_W@__crt_stdio_output@@V?$format_validation_base@_WV?$stream_output_adapter@_W@__crt_stdio_output@@@2@@__crt_stdio_output@@AEAA_NXZ 00000001800837c0 f i libucrtd:output.obj
 0001:00082c30       ?type_case_a@?$output_processor@_WV?$stream_output_adapter@_W@__crt_stdio_output@@V?$positional_parameter_base@_WV?$stream_output_adapter@_W@__crt_stdio_output@@@2@@__crt_stdio_output@@AEAA_NXZ 0000000180083c30 f i libucrtd:output.obj
 0001:000830a0       ?type_case_a@?$output_processor@_WV?$stream_output_adapter@_W@__crt_stdio_output@@V?$standard_base@_WV?$stream_output_adapter@_W@__crt_stdio_output@@@2@@__crt_stdio_output@@AEAA_NXZ 00000001800840a0 f i libucrtd:output.obj
 0001:00083510       ?type_case_a@?$output_processor@_WV?$string_output_adapter@_W@__crt_stdio_output@@V?$format_validation_base@_WV?$string_output_adapter@_W@__crt_stdio_output@@@2@@__crt_stdio_output@@AEAA_NXZ 0000000180084510 f i libucrtd:output.obj
 0001:00083980       ?type_case_a@?$output_processor@_WV?$string_output_adapter@_W@__crt_stdio_output@@V?$positional_parameter_base@_WV?$string_output_adapter@_W@__crt_stdio_output@@@2@@__crt_stdio_output@@AEAA_NXZ 0000000180084980 f i libucrtd:output.obj
 0001:00083df0       ?type_case_a@?$output_processor@_WV?$string_output_adapter@_W@__crt_stdio_output@@V?$standard_base@_WV?$string_output_adapter@_W@__crt_stdio_output@@@2@@__crt_stdio_output@@AEAA_NXZ 0000000180084df0 f i libucrtd:output.obj
 0001:00084260       ?type_case_c@?$output_processor@DV?$stream_output_adapter@D@__crt_stdio_output@@V?$format_validation_base@DV?$stream_output_adapter@D@__crt_stdio_output@@@2@@__crt_stdio_output@@AEAA_NXZ 0000000180085260 f i libucrtd:output.obj
 0001:00084280       ?type_case_c@?$output_processor@DV?$stream_output_adapter@D@__crt_stdio_output@@V?$positional_parameter_base@DV?$stream_output_adapter@D@__crt_stdio_output@@@2@@__crt_stdio_output@@AEAA_NXZ 0000000180085280 f i libucrtd:output.obj
 0001:000842a0       ?type_case_c@?$output_processor@DV?$stream_output_adapter@D@__crt_stdio_output@@V?$standard_base@DV?$stream_output_adapter@D@__crt_stdio_output@@@2@@__crt_stdio_output@@AEAA_NXZ 00000001800852a0 f i libucrtd:output.obj
 0001:000842c0       ?type_case_c@?$output_processor@DV?$string_output_adapter@D@__crt_stdio_output@@V?$format_validation_base@DV?$string_output_adapter@D@__crt_stdio_output@@@2@@__crt_stdio_output@@AEAA_NXZ 00000001800852c0 f i libucrtd:output.obj
 0001:000842e0       ?type_case_c@?$output_processor@DV?$string_output_adapter@D@__crt_stdio_output@@V?$positional_parameter_base@DV?$string_output_adapter@D@__crt_stdio_output@@@2@@__crt_stdio_output@@AEAA_NXZ 00000001800852e0 f i libucrtd:output.obj
 0001:00084300       ?type_case_c@?$output_processor@DV?$string_output_adapter@D@__crt_stdio_output@@V?$standard_base@DV?$string_output_adapter@D@__crt_stdio_output@@@2@@__crt_stdio_output@@AEAA_NXZ 0000000180085300 f i libucrtd:output.obj
 0001:00084320       ?type_case_c@?$output_processor@_WV?$stream_output_adapter@_W@__crt_stdio_output@@V?$format_validation_base@_WV?$stream_output_adapter@_W@__crt_stdio_output@@@2@@__crt_stdio_output@@AEAA_NXZ 0000000180085320 f i libucrtd:output.obj
 0001:00084340       ?type_case_c@?$output_processor@_WV?$stream_output_adapter@_W@__crt_stdio_output@@V?$positional_parameter_base@_WV?$stream_output_adapter@_W@__crt_stdio_output@@@2@@__crt_stdio_output@@AEAA_NXZ 0000000180085340 f i libucrtd:output.obj
 0001:00084360       ?type_case_c@?$output_processor@_WV?$stream_output_adapter@_W@__crt_stdio_output@@V?$standard_base@_WV?$stream_output_adapter@_W@__crt_stdio_output@@@2@@__crt_stdio_output@@AEAA_NXZ 0000000180085360 f i libucrtd:output.obj
 0001:00084380       ?type_case_c@?$output_processor@_WV?$string_output_adapter@_W@__crt_stdio_output@@V?$format_validation_base@_WV?$string_output_adapter@_W@__crt_stdio_output@@@2@@__crt_stdio_output@@AEAA_NXZ 0000000180085380 f i libucrtd:output.obj
 0001:000843a0       ?type_case_c@?$output_processor@_WV?$string_output_adapter@_W@__crt_stdio_output@@V?$positional_parameter_base@_WV?$string_output_adapter@_W@__crt_stdio_output@@@2@@__crt_stdio_output@@AEAA_NXZ 00000001800853a0 f i libucrtd:output.obj
 0001:000843c0       ?type_case_c@?$output_processor@_WV?$string_output_adapter@_W@__crt_stdio_output@@V?$standard_base@_WV?$string_output_adapter@_W@__crt_stdio_output@@@2@@__crt_stdio_output@@AEAA_NXZ 00000001800853c0 f i libucrtd:output.obj
 0001:000843e0       ?type_case_c_tchar@?$output_processor@DV?$stream_output_adapter@D@__crt_stdio_output@@V?$format_validation_base@DV?$stream_output_adapter@D@__crt_stdio_output@@@2@@__crt_stdio_output@@AEAA_ND@Z 00000001800853e0 f i libucrtd:output.obj
 0001:00084550       ?type_case_c_tchar@?$output_processor@DV?$stream_output_adapter@D@__crt_stdio_output@@V?$positional_parameter_base@DV?$stream_output_adapter@D@__crt_stdio_output@@@2@@__crt_stdio_output@@AEAA_ND@Z 0000000180085550 f i libucrtd:output.obj
 0001:000846c0       ?type_case_c_tchar@?$output_processor@DV?$stream_output_adapter@D@__crt_stdio_output@@V?$standard_base@DV?$stream_output_adapter@D@__crt_stdio_output@@@2@@__crt_stdio_output@@AEAA_ND@Z 00000001800856c0 f i libucrtd:output.obj
 0001:00084830       ?type_case_c_tchar@?$output_processor@DV?$string_output_adapter@D@__crt_stdio_output@@V?$format_validation_base@DV?$string_output_adapter@D@__crt_stdio_output@@@2@@__crt_stdio_output@@AEAA_ND@Z 0000000180085830 f i libucrtd:output.obj
 0001:000849a0       ?type_case_c_tchar@?$output_processor@DV?$string_output_adapter@D@__crt_stdio_output@@V?$positional_parameter_base@DV?$string_output_adapter@D@__crt_stdio_output@@@2@@__crt_stdio_output@@AEAA_ND@Z 00000001800859a0 f i libucrtd:output.obj
 0001:00084b10       ?type_case_c_tchar@?$output_processor@DV?$string_output_adapter@D@__crt_stdio_output@@V?$standard_base@DV?$string_output_adapter@D@__crt_stdio_output@@@2@@__crt_stdio_output@@AEAA_ND@Z 0000000180085b10 f i libucrtd:output.obj
 0001:00084c80       ?type_case_c_tchar@?$output_processor@_WV?$stream_output_adapter@_W@__crt_stdio_output@@V?$format_validation_base@_WV?$stream_output_adapter@_W@__crt_stdio_output@@@2@@__crt_stdio_output@@AEAA_N_W@Z 0000000180085c80 f i libucrtd:output.obj
 0001:00084de0       ?type_case_c_tchar@?$output_processor@_WV?$stream_output_adapter@_W@__crt_stdio_output@@V?$positional_parameter_base@_WV?$stream_output_adapter@_W@__crt_stdio_output@@@2@@__crt_stdio_output@@AEAA_N_W@Z 0000000180085de0 f i libucrtd:output.obj
 0001:00084f40       ?type_case_c_tchar@?$output_processor@_WV?$stream_output_adapter@_W@__crt_stdio_output@@V?$standard_base@_WV?$stream_output_adapter@_W@__crt_stdio_output@@@2@@__crt_stdio_output@@AEAA_N_W@Z 0000000180085f40 f i libucrtd:output.obj
 0001:000850a0       ?type_case_c_tchar@?$output_processor@_WV?$string_output_adapter@_W@__crt_stdio_output@@V?$format_validation_base@_WV?$string_output_adapter@_W@__crt_stdio_output@@@2@@__crt_stdio_output@@AEAA_N_W@Z 00000001800860a0 f i libucrtd:output.obj
 0001:00085200       ?type_case_c_tchar@?$output_processor@_WV?$string_output_adapter@_W@__crt_stdio_output@@V?$positional_parameter_base@_WV?$string_output_adapter@_W@__crt_stdio_output@@@2@@__crt_stdio_output@@AEAA_N_W@Z 0000000180086200 f i libucrtd:output.obj
 0001:00085360       ?type_case_c_tchar@?$output_processor@_WV?$string_output_adapter@_W@__crt_stdio_output@@V?$standard_base@_WV?$string_output_adapter@_W@__crt_stdio_output@@@2@@__crt_stdio_output@@AEAA_N_W@Z 0000000180086360 f i libucrtd:output.obj
 0001:000854c0       ?type_case_d@?$output_processor@DV?$stream_output_adapter@D@__crt_stdio_output@@V?$format_validation_base@DV?$stream_output_adapter@D@__crt_stdio_output@@@2@@__crt_stdio_output@@AEAA_NXZ 00000001800864c0 f i libucrtd:output.obj
 0001:000854f0       ?type_case_d@?$output_processor@DV?$stream_output_adapter@D@__crt_stdio_output@@V?$positional_parameter_base@DV?$stream_output_adapter@D@__crt_stdio_output@@@2@@__crt_stdio_output@@AEAA_NXZ 00000001800864f0 f i libucrtd:output.obj
 0001:00085520       ?type_case_d@?$output_processor@DV?$stream_output_adapter@D@__crt_stdio_output@@V?$standard_base@DV?$stream_output_adapter@D@__crt_stdio_output@@@2@@__crt_stdio_output@@AEAA_NXZ 0000000180086520 f i libucrtd:output.obj
 0001:00085550       ?type_case_d@?$output_processor@DV?$string_output_adapter@D@__crt_stdio_output@@V?$format_validation_base@DV?$string_output_adapter@D@__crt_stdio_output@@@2@@__crt_stdio_output@@AEAA_NXZ 0000000180086550 f i libucrtd:output.obj
 0001:00085580       ?type_case_d@?$output_processor@DV?$string_output_adapter@D@__crt_stdio_output@@V?$positional_parameter_base@DV?$string_output_adapter@D@__crt_stdio_output@@@2@@__crt_stdio_output@@AEAA_NXZ 0000000180086580 f i libucrtd:output.obj
 0001:000855b0       ?type_case_d@?$output_processor@DV?$string_output_adapter@D@__crt_stdio_output@@V?$standard_base@DV?$string_output_adapter@D@__crt_stdio_output@@@2@@__crt_stdio_output@@AEAA_NXZ 00000001800865b0 f i libucrtd:output.obj
 0001:000855e0       ?type_case_d@?$output_processor@_WV?$stream_output_adapter@_W@__crt_stdio_output@@V?$format_validation_base@_WV?$stream_output_adapter@_W@__crt_stdio_output@@@2@@__crt_stdio_output@@AEAA_NXZ 00000001800865e0 f i libucrtd:output.obj
 0001:00085610       ?type_case_d@?$output_processor@_WV?$stream_output_adapter@_W@__crt_stdio_output@@V?$positional_parameter_base@_WV?$stream_output_adapter@_W@__crt_stdio_output@@@2@@__crt_stdio_output@@AEAA_NXZ 0000000180086610 f i libucrtd:output.obj
 0001:00085640       ?type_case_d@?$output_processor@_WV?$stream_output_adapter@_W@__crt_stdio_output@@V?$standard_base@_WV?$stream_output_adapter@_W@__crt_stdio_output@@@2@@__crt_stdio_output@@AEAA_NXZ 0000000180086640 f i libucrtd:output.obj
 0001:00085670       ?type_case_d@?$output_processor@_WV?$string_output_adapter@_W@__crt_stdio_output@@V?$format_validation_base@_WV?$string_output_adapter@_W@__crt_stdio_output@@@2@@__crt_stdio_output@@AEAA_NXZ 0000000180086670 f i libucrtd:output.obj
 0001:000856a0       ?type_case_d@?$output_processor@_WV?$string_output_adapter@_W@__crt_stdio_output@@V?$positional_parameter_base@_WV?$string_output_adapter@_W@__crt_stdio_output@@@2@@__crt_stdio_output@@AEAA_NXZ 00000001800866a0 f i libucrtd:output.obj
 0001:000856d0       ?type_case_d@?$output_processor@_WV?$string_output_adapter@_W@__crt_stdio_output@@V?$standard_base@_WV?$string_output_adapter@_W@__crt_stdio_output@@@2@@__crt_stdio_output@@AEAA_NXZ 00000001800866d0 f i libucrtd:output.obj
 0001:00085700       ?type_case_n@?$output_processor@DV?$stream_output_adapter@D@__crt_stdio_output@@V?$format_validation_base@DV?$stream_output_adapter@D@__crt_stdio_output@@@2@@__crt_stdio_output@@AEAA_NXZ 0000000180086700 f i libucrtd:output.obj
 0001:00085990       ?type_case_n@?$output_processor@DV?$stream_output_adapter@D@__crt_stdio_output@@V?$positional_parameter_base@DV?$stream_output_adapter@D@__crt_stdio_output@@@2@@__crt_stdio_output@@AEAA_NXZ 0000000180086990 f i libucrtd:output.obj
 0001:00085c20       ?type_case_n@?$output_processor@DV?$stream_output_adapter@D@__crt_stdio_output@@V?$standard_base@DV?$stream_output_adapter@D@__crt_stdio_output@@@2@@__crt_stdio_output@@AEAA_NXZ 0000000180086c20 f i libucrtd:output.obj
 0001:00085eb0       ?type_case_n@?$output_processor@DV?$string_output_adapter@D@__crt_stdio_output@@V?$format_validation_base@DV?$string_output_adapter@D@__crt_stdio_output@@@2@@__crt_stdio_output@@AEAA_NXZ 0000000180086eb0 f i libucrtd:output.obj
 0001:00086140       ?type_case_n@?$output_processor@DV?$string_output_adapter@D@__crt_stdio_output@@V?$positional_parameter_base@DV?$string_output_adapter@D@__crt_stdio_output@@@2@@__crt_stdio_output@@AEAA_NXZ 0000000180087140 f i libucrtd:output.obj
 0001:000863d0       ?type_case_n@?$output_processor@DV?$string_output_adapter@D@__crt_stdio_output@@V?$standard_base@DV?$string_output_adapter@D@__crt_stdio_output@@@2@@__crt_stdio_output@@AEAA_NXZ 00000001800873d0 f i libucrtd:output.obj
 0001:00086660       ?type_case_n@?$output_processor@_WV?$stream_output_adapter@_W@__crt_stdio_output@@V?$format_validation_base@_WV?$stream_output_adapter@_W@__crt_stdio_output@@@2@@__crt_stdio_output@@AEAA_NXZ 0000000180087660 f i libucrtd:output.obj
 0001:000868f0       ?type_case_n@?$output_processor@_WV?$stream_output_adapter@_W@__crt_stdio_output@@V?$positional_parameter_base@_WV?$stream_output_adapter@_W@__crt_stdio_output@@@2@@__crt_stdio_output@@AEAA_NXZ 00000001800878f0 f i libucrtd:output.obj
 0001:00086b80       ?type_case_n@?$output_processor@_WV?$stream_output_adapter@_W@__crt_stdio_output@@V?$standard_base@_WV?$stream_output_adapter@_W@__crt_stdio_output@@@2@@__crt_stdio_output@@AEAA_NXZ 0000000180087b80 f i libucrtd:output.obj
 0001:00086e10       ?type_case_n@?$output_processor@_WV?$string_output_adapter@_W@__crt_stdio_output@@V?$format_validation_base@_WV?$string_output_adapter@_W@__crt_stdio_output@@@2@@__crt_stdio_output@@AEAA_NXZ 0000000180087e10 f i libucrtd:output.obj
 0001:000870a0       ?type_case_n@?$output_processor@_WV?$string_output_adapter@_W@__crt_stdio_output@@V?$positional_parameter_base@_WV?$string_output_adapter@_W@__crt_stdio_output@@@2@@__crt_stdio_output@@AEAA_NXZ 00000001800880a0 f i libucrtd:output.obj
 0001:00087330       ?type_case_n@?$output_processor@_WV?$string_output_adapter@_W@__crt_stdio_output@@V?$standard_base@_WV?$string_output_adapter@_W@__crt_stdio_output@@@2@@__crt_stdio_output@@AEAA_NXZ 0000000180088330 f i libucrtd:output.obj
 0001:000875c0       ?type_case_o@?$output_processor@DV?$stream_output_adapter@D@__crt_stdio_output@@V?$format_validation_base@DV?$stream_output_adapter@D@__crt_stdio_output@@@2@@__crt_stdio_output@@AEAA_NXZ 00000001800885c0 f i libucrtd:output.obj
 0001:00087600       ?type_case_o@?$output_processor@DV?$stream_output_adapter@D@__crt_stdio_output@@V?$positional_parameter_base@DV?$stream_output_adapter@D@__crt_stdio_output@@@2@@__crt_stdio_output@@AEAA_NXZ 0000000180088600 f i libucrtd:output.obj
 0001:00087640       ?type_case_o@?$output_processor@DV?$stream_output_adapter@D@__crt_stdio_output@@V?$standard_base@DV?$stream_output_adapter@D@__crt_stdio_output@@@2@@__crt_stdio_output@@AEAA_NXZ 0000000180088640 f i libucrtd:output.obj
 0001:00087680       ?type_case_o@?$output_processor@DV?$string_output_adapter@D@__crt_stdio_output@@V?$format_validation_base@DV?$string_output_adapter@D@__crt_stdio_output@@@2@@__crt_stdio_output@@AEAA_NXZ 0000000180088680 f i libucrtd:output.obj
 0001:000876c0       ?type_case_o@?$output_processor@DV?$string_output_adapter@D@__crt_stdio_output@@V?$positional_parameter_base@DV?$string_output_adapter@D@__crt_stdio_output@@@2@@__crt_stdio_output@@AEAA_NXZ 00000001800886c0 f i libucrtd:output.obj
 0001:00087700       ?type_case_o@?$output_processor@DV?$string_output_adapter@D@__crt_stdio_output@@V?$standard_base@DV?$string_output_adapter@D@__crt_stdio_output@@@2@@__crt_stdio_output@@AEAA_NXZ 0000000180088700 f i libucrtd:output.obj
 0001:00087740       ?type_case_o@?$output_processor@_WV?$stream_output_adapter@_W@__crt_stdio_output@@V?$format_validation_base@_WV?$stream_output_adapter@_W@__crt_stdio_output@@@2@@__crt_stdio_output@@AEAA_NXZ 0000000180088740 f i libucrtd:output.obj
 0001:00087780       ?type_case_o@?$output_processor@_WV?$stream_output_adapter@_W@__crt_stdio_output@@V?$positional_parameter_base@_WV?$stream_output_adapter@_W@__crt_stdio_output@@@2@@__crt_stdio_output@@AEAA_NXZ 0000000180088780 f i libucrtd:output.obj
 0001:000877c0       ?type_case_o@?$output_processor@_WV?$stream_output_adapter@_W@__crt_stdio_output@@V?$standard_base@_WV?$stream_output_adapter@_W@__crt_stdio_output@@@2@@__crt_stdio_output@@AEAA_NXZ 00000001800887c0 f i libucrtd:output.obj
 0001:00087800       ?type_case_o@?$output_processor@_WV?$string_output_adapter@_W@__crt_stdio_output@@V?$format_validation_base@_WV?$string_output_adapter@_W@__crt_stdio_output@@@2@@__crt_stdio_output@@AEAA_NXZ 0000000180088800 f i libucrtd:output.obj
 0001:00087840       ?type_case_o@?$output_processor@_WV?$string_output_adapter@_W@__crt_stdio_output@@V?$positional_parameter_base@_WV?$string_output_adapter@_W@__crt_stdio_output@@@2@@__crt_stdio_output@@AEAA_NXZ 0000000180088840 f i libucrtd:output.obj
 0001:00087880       ?type_case_o@?$output_processor@_WV?$string_output_adapter@_W@__crt_stdio_output@@V?$standard_base@_WV?$string_output_adapter@_W@__crt_stdio_output@@@2@@__crt_stdio_output@@AEAA_NXZ 0000000180088880 f i libucrtd:output.obj
 0001:000878c0       ?type_case_p@?$output_processor@DV?$stream_output_adapter@D@__crt_stdio_output@@V?$format_validation_base@DV?$stream_output_adapter@D@__crt_stdio_output@@@2@@__crt_stdio_output@@AEAA_NXZ 00000001800888c0 f i libucrtd:output.obj
 0001:00087900       ?type_case_p@?$output_processor@DV?$stream_output_adapter@D@__crt_stdio_output@@V?$positional_parameter_base@DV?$stream_output_adapter@D@__crt_stdio_output@@@2@@__crt_stdio_output@@AEAA_NXZ 0000000180088900 f i libucrtd:output.obj
 0001:00087940       ?type_case_p@?$output_processor@DV?$stream_output_adapter@D@__crt_stdio_output@@V?$standard_base@DV?$stream_output_adapter@D@__crt_stdio_output@@@2@@__crt_stdio_output@@AEAA_NXZ 0000000180088940 f i libucrtd:output.obj
 0001:00087980       ?type_case_p@?$output_processor@DV?$string_output_adapter@D@__crt_stdio_output@@V?$format_validation_base@DV?$string_output_adapter@D@__crt_stdio_output@@@2@@__crt_stdio_output@@AEAA_NXZ 0000000180088980 f i libucrtd:output.obj
 0001:000879c0       ?type_case_p@?$output_processor@DV?$string_output_adapter@D@__crt_stdio_output@@V?$positional_parameter_base@DV?$string_output_adapter@D@__crt_stdio_output@@@2@@__crt_stdio_output@@AEAA_NXZ 00000001800889c0 f i libucrtd:output.obj
 0001:00087a00       ?type_case_p@?$output_processor@DV?$string_output_adapter@D@__crt_stdio_output@@V?$standard_base@DV?$string_output_adapter@D@__crt_stdio_output@@@2@@__crt_stdio_output@@AEAA_NXZ 0000000180088a00 f i libucrtd:output.obj
 0001:00087a40       ?type_case_p@?$output_processor@_WV?$stream_output_adapter@_W@__crt_stdio_output@@V?$format_validation_base@_WV?$stream_output_adapter@_W@__crt_stdio_output@@@2@@__crt_stdio_output@@AEAA_NXZ 0000000180088a40 f i libucrtd:output.obj
 0001:00087a80       ?type_case_p@?$output_processor@_WV?$stream_output_adapter@_W@__crt_stdio_output@@V?$positional_parameter_base@_WV?$stream_output_adapter@_W@__crt_stdio_output@@@2@@__crt_stdio_output@@AEAA_NXZ 0000000180088a80 f i libucrtd:output.obj
 0001:00087ac0       ?type_case_p@?$output_processor@_WV?$stream_output_adapter@_W@__crt_stdio_output@@V?$standard_base@_WV?$stream_output_adapter@_W@__crt_stdio_output@@@2@@__crt_stdio_output@@AEAA_NXZ 0000000180088ac0 f i libucrtd:output.obj
 0001:00087b00       ?type_case_p@?$output_processor@_WV?$string_output_adapter@_W@__crt_stdio_output@@V?$format_validation_base@_WV?$string_output_adapter@_W@__crt_stdio_output@@@2@@__crt_stdio_output@@AEAA_NXZ 0000000180088b00 f i libucrtd:output.obj
 0001:00087b40       ?type_case_p@?$output_processor@_WV?$string_output_adapter@_W@__crt_stdio_output@@V?$positional_parameter_base@_WV?$string_output_adapter@_W@__crt_stdio_output@@@2@@__crt_stdio_output@@AEAA_NXZ 0000000180088b40 f i libucrtd:output.obj
 0001:00087b80       ?type_case_p@?$output_processor@_WV?$string_output_adapter@_W@__crt_stdio_output@@V?$standard_base@_WV?$string_output_adapter@_W@__crt_stdio_output@@@2@@__crt_stdio_output@@AEAA_NXZ 0000000180088b80 f i libucrtd:output.obj
 0001:00087bc0       ?type_case_s@?$output_processor@DV?$stream_output_adapter@D@__crt_stdio_output@@V?$format_validation_base@DV?$stream_output_adapter@D@__crt_stdio_output@@@2@@__crt_stdio_output@@AEAA_NXZ 0000000180088bc0 f i libucrtd:output.obj
 0001:00087ce0       ?type_case_s@?$output_processor@DV?$stream_output_adapter@D@__crt_stdio_output@@V?$positional_parameter_base@DV?$stream_output_adapter@D@__crt_stdio_output@@@2@@__crt_stdio_output@@AEAA_NXZ 0000000180088ce0 f i libucrtd:output.obj
 0001:00087e00       ?type_case_s@?$output_processor@DV?$stream_output_adapter@D@__crt_stdio_output@@V?$standard_base@DV?$stream_output_adapter@D@__crt_stdio_output@@@2@@__crt_stdio_output@@AEAA_NXZ 0000000180088e00 f i libucrtd:output.obj
 0001:00087f20       ?type_case_s@?$output_processor@DV?$string_output_adapter@D@__crt_stdio_output@@V?$format_validation_base@DV?$string_output_adapter@D@__crt_stdio_output@@@2@@__crt_stdio_output@@AEAA_NXZ 0000000180088f20 f i libucrtd:output.obj
 0001:00088040       ?type_case_s@?$output_processor@DV?$string_output_adapter@D@__crt_stdio_output@@V?$positional_parameter_base@DV?$string_output_adapter@D@__crt_stdio_output@@@2@@__crt_stdio_output@@AEAA_NXZ 0000000180089040 f i libucrtd:output.obj
 0001:00088160       ?type_case_s@?$output_processor@DV?$string_output_adapter@D@__crt_stdio_output@@V?$standard_base@DV?$string_output_adapter@D@__crt_stdio_output@@@2@@__crt_stdio_output@@AEAA_NXZ 0000000180089160 f i libucrtd:output.obj
 0001:00088280       ?type_case_s@?$output_processor@_WV?$stream_output_adapter@_W@__crt_stdio_output@@V?$format_validation_base@_WV?$stream_output_adapter@_W@__crt_stdio_output@@@2@@__crt_stdio_output@@AEAA_NXZ 0000000180089280 f i libucrtd:output.obj
 0001:000883a0       ?type_case_s@?$output_processor@_WV?$stream_output_adapter@_W@__crt_stdio_output@@V?$positional_parameter_base@_WV?$stream_output_adapter@_W@__crt_stdio_output@@@2@@__crt_stdio_output@@AEAA_NXZ 00000001800893a0 f i libucrtd:output.obj
 0001:000884c0       ?type_case_s@?$output_processor@_WV?$stream_output_adapter@_W@__crt_stdio_output@@V?$standard_base@_WV?$stream_output_adapter@_W@__crt_stdio_output@@@2@@__crt_stdio_output@@AEAA_NXZ 00000001800894c0 f i libucrtd:output.obj
 0001:000885e0       ?type_case_s@?$output_processor@_WV?$string_output_adapter@_W@__crt_stdio_output@@V?$format_validation_base@_WV?$string_output_adapter@_W@__crt_stdio_output@@@2@@__crt_stdio_output@@AEAA_NXZ 00000001800895e0 f i libucrtd:output.obj
 0001:00088700       ?type_case_s@?$output_processor@_WV?$string_output_adapter@_W@__crt_stdio_output@@V?$positional_parameter_base@_WV?$string_output_adapter@_W@__crt_stdio_output@@@2@@__crt_stdio_output@@AEAA_NXZ 0000000180089700 f i libucrtd:output.obj
 0001:00088820       ?type_case_s@?$output_processor@_WV?$string_output_adapter@_W@__crt_stdio_output@@V?$standard_base@_WV?$string_output_adapter@_W@__crt_stdio_output@@@2@@__crt_stdio_output@@AEAA_NXZ 0000000180089820 f i libucrtd:output.obj
 0001:00088940       ?type_case_s_compute_narrow_string_length@?$output_processor@DV?$stream_output_adapter@D@__crt_stdio_output@@V?$format_validation_base@DV?$stream_output_adapter@D@__crt_stdio_output@@@2@@__crt_stdio_output@@AEAAHHD@Z 0000000180089940 f i libucrtd:output.obj
 0001:00088970       ?type_case_s_compute_narrow_string_length@?$output_processor@DV?$stream_output_adapter@D@__crt_stdio_output@@V?$positional_parameter_base@DV?$stream_output_adapter@D@__crt_stdio_output@@@2@@__crt_stdio_output@@AEAAHHD@Z 0000000180089970 f i libucrtd:output.obj
 0001:000889a0       ?type_case_s_compute_narrow_string_length@?$output_processor@DV?$stream_output_adapter@D@__crt_stdio_output@@V?$standard_base@DV?$stream_output_adapter@D@__crt_stdio_output@@@2@@__crt_stdio_output@@AEAAHHD@Z 00000001800899a0 f i libucrtd:output.obj
 0001:000889d0       ?type_case_s_compute_narrow_string_length@?$output_processor@DV?$string_output_adapter@D@__crt_stdio_output@@V?$format_validation_base@DV?$string_output_adapter@D@__crt_stdio_output@@@2@@__crt_stdio_output@@AEAAHHD@Z 00000001800899d0 f i libucrtd:output.obj
 0001:00088a00       ?type_case_s_compute_narrow_string_length@?$output_processor@DV?$string_output_adapter@D@__crt_stdio_output@@V?$positional_parameter_base@DV?$string_output_adapter@D@__crt_stdio_output@@@2@@__crt_stdio_output@@AEAAHHD@Z 0000000180089a00 f i libucrtd:output.obj
 0001:00088a30       ?type_case_s_compute_narrow_string_length@?$output_processor@DV?$string_output_adapter@D@__crt_stdio_output@@V?$standard_base@DV?$string_output_adapter@D@__crt_stdio_output@@@2@@__crt_stdio_output@@AEAAHHD@Z 0000000180089a30 f i libucrtd:output.obj
 0001:00088a60       ?type_case_s_compute_narrow_string_length@?$output_processor@_WV?$stream_output_adapter@_W@__crt_stdio_output@@V?$format_validation_base@_WV?$stream_output_adapter@_W@__crt_stdio_output@@@2@@__crt_stdio_output@@AEAAHH_W@Z 0000000180089a60 f i libucrtd:output.obj
 0001:00088b00       ?type_case_s_compute_narrow_string_length@?$output_processor@_WV?$stream_output_adapter@_W@__crt_stdio_output@@V?$positional_parameter_base@_WV?$stream_output_adapter@_W@__crt_stdio_output@@@2@@__crt_stdio_output@@AEAAHH_W@Z 0000000180089b00 f i libucrtd:output.obj
 0001:00088ba0       ?type_case_s_compute_narrow_string_length@?$output_processor@_WV?$stream_output_adapter@_W@__crt_stdio_output@@V?$standard_base@_WV?$stream_output_adapter@_W@__crt_stdio_output@@@2@@__crt_stdio_output@@AEAAHH_W@Z 0000000180089ba0 f i libucrtd:output.obj
 0001:00088c40       ?type_case_s_compute_narrow_string_length@?$output_processor@_WV?$string_output_adapter@_W@__crt_stdio_output@@V?$format_validation_base@_WV?$string_output_adapter@_W@__crt_stdio_output@@@2@@__crt_stdio_output@@AEAAHH_W@Z 0000000180089c40 f i libucrtd:output.obj
 0001:00088ce0       ?type_case_s_compute_narrow_string_length@?$output_processor@_WV?$string_output_adapter@_W@__crt_stdio_output@@V?$positional_parameter_base@_WV?$string_output_adapter@_W@__crt_stdio_output@@@2@@__crt_stdio_output@@AEAAHH_W@Z 0000000180089ce0 f i libucrtd:output.obj
 0001:00088d80       ?type_case_s_compute_narrow_string_length@?$output_processor@_WV?$string_output_adapter@_W@__crt_stdio_output@@V?$standard_base@_WV?$string_output_adapter@_W@__crt_stdio_output@@@2@@__crt_stdio_output@@AEAAHH_W@Z 0000000180089d80 f i libucrtd:output.obj
 0001:00088e20       ?type_case_u@?$output_processor@DV?$stream_output_adapter@D@__crt_stdio_output@@V?$format_validation_base@DV?$stream_output_adapter@D@__crt_stdio_output@@@2@@__crt_stdio_output@@AEAA_NXZ 0000000180089e20 f i libucrtd:output.obj
 0001:00088e40       ?type_case_u@?$output_processor@DV?$stream_output_adapter@D@__crt_stdio_output@@V?$positional_parameter_base@DV?$stream_output_adapter@D@__crt_stdio_output@@@2@@__crt_stdio_output@@AEAA_NXZ 0000000180089e40 f i libucrtd:output.obj
 0001:00088e60       ?type_case_u@?$output_processor@DV?$stream_output_adapter@D@__crt_stdio_output@@V?$standard_base@DV?$stream_output_adapter@D@__crt_stdio_output@@@2@@__crt_stdio_output@@AEAA_NXZ 0000000180089e60 f i libucrtd:output.obj
 0001:00088e80       ?type_case_u@?$output_processor@DV?$string_output_adapter@D@__crt_stdio_output@@V?$format_validation_base@DV?$string_output_adapter@D@__crt_stdio_output@@@2@@__crt_stdio_output@@AEAA_NXZ 0000000180089e80 f i libucrtd:output.obj
 0001:00088ea0       ?type_case_u@?$output_processor@DV?$string_output_adapter@D@__crt_stdio_output@@V?$positional_parameter_base@DV?$string_output_adapter@D@__crt_stdio_output@@@2@@__crt_stdio_output@@AEAA_NXZ 0000000180089ea0 f i libucrtd:output.obj
 0001:00088ec0       ?type_case_u@?$output_processor@DV?$string_output_adapter@D@__crt_stdio_output@@V?$standard_base@DV?$string_output_adapter@D@__crt_stdio_output@@@2@@__crt_stdio_output@@AEAA_NXZ 0000000180089ec0 f i libucrtd:output.obj
 0001:00088ee0       ?type_case_u@?$output_processor@_WV?$stream_output_adapter@_W@__crt_stdio_output@@V?$format_validation_base@_WV?$stream_output_adapter@_W@__crt_stdio_output@@@2@@__crt_stdio_output@@AEAA_NXZ 0000000180089ee0 f i libucrtd:output.obj
 0001:00088f00       ?type_case_u@?$output_processor@_WV?$stream_output_adapter@_W@__crt_stdio_output@@V?$positional_parameter_base@_WV?$stream_output_adapter@_W@__crt_stdio_output@@@2@@__crt_stdio_output@@AEAA_NXZ 0000000180089f00 f i libucrtd:output.obj
 0001:00088f20       ?type_case_u@?$output_processor@_WV?$stream_output_adapter@_W@__crt_stdio_output@@V?$standard_base@_WV?$stream_output_adapter@_W@__crt_stdio_output@@@2@@__crt_stdio_output@@AEAA_NXZ 0000000180089f20 f i libucrtd:output.obj
 0001:00088f40       ?type_case_u@?$output_processor@_WV?$string_output_adapter@_W@__crt_stdio_output@@V?$format_validation_base@_WV?$string_output_adapter@_W@__crt_stdio_output@@@2@@__crt_stdio_output@@AEAA_NXZ 0000000180089f40 f i libucrtd:output.obj
 0001:00088f60       ?type_case_u@?$output_processor@_WV?$string_output_adapter@_W@__crt_stdio_output@@V?$positional_parameter_base@_WV?$string_output_adapter@_W@__crt_stdio_output@@@2@@__crt_stdio_output@@AEAA_NXZ 0000000180089f60 f i libucrtd:output.obj
 0001:00088f80       ?type_case_u@?$output_processor@_WV?$string_output_adapter@_W@__crt_stdio_output@@V?$standard_base@_WV?$string_output_adapter@_W@__crt_stdio_output@@@2@@__crt_stdio_output@@AEAA_NXZ 0000000180089f80 f i libucrtd:output.obj
 0001:00088fa0       ?type_case_x@?$output_processor@DV?$stream_output_adapter@D@__crt_stdio_output@@V?$format_validation_base@DV?$stream_output_adapter@D@__crt_stdio_output@@@2@@__crt_stdio_output@@AEAA_NXZ 0000000180089fa0 f i libucrtd:output.obj
 0001:00088fc0       ?type_case_x@?$output_processor@DV?$stream_output_adapter@D@__crt_stdio_output@@V?$positional_parameter_base@DV?$stream_output_adapter@D@__crt_stdio_output@@@2@@__crt_stdio_output@@AEAA_NXZ 0000000180089fc0 f i libucrtd:output.obj
 0001:00088fe0       ?type_case_x@?$output_processor@DV?$stream_output_adapter@D@__crt_stdio_output@@V?$standard_base@DV?$stream_output_adapter@D@__crt_stdio_output@@@2@@__crt_stdio_output@@AEAA_NXZ 0000000180089fe0 f i libucrtd:output.obj
 0001:00089000       ?type_case_x@?$output_processor@DV?$string_output_adapter@D@__crt_stdio_output@@V?$format_validation_base@DV?$string_output_adapter@D@__crt_stdio_output@@@2@@__crt_stdio_output@@AEAA_NXZ 000000018008a000 f i libucrtd:output.obj
 0001:00089020       ?type_case_x@?$output_processor@DV?$string_output_adapter@D@__crt_stdio_output@@V?$positional_parameter_base@DV?$string_output_adapter@D@__crt_stdio_output@@@2@@__crt_stdio_output@@AEAA_NXZ 000000018008a020 f i libucrtd:output.obj
 0001:00089040       ?type_case_x@?$output_processor@DV?$string_output_adapter@D@__crt_stdio_output@@V?$standard_base@DV?$string_output_adapter@D@__crt_stdio_output@@@2@@__crt_stdio_output@@AEAA_NXZ 000000018008a040 f i libucrtd:output.obj
 0001:00089060       ?type_case_x@?$output_processor@_WV?$stream_output_adapter@_W@__crt_stdio_output@@V?$format_validation_base@_WV?$stream_output_adapter@_W@__crt_stdio_output@@@2@@__crt_stdio_output@@AEAA_NXZ 000000018008a060 f i libucrtd:output.obj
 0001:00089080       ?type_case_x@?$output_processor@_WV?$stream_output_adapter@_W@__crt_stdio_output@@V?$positional_parameter_base@_WV?$stream_output_adapter@_W@__crt_stdio_output@@@2@@__crt_stdio_output@@AEAA_NXZ 000000018008a080 f i libucrtd:output.obj
 0001:000890a0       ?type_case_x@?$output_processor@_WV?$stream_output_adapter@_W@__crt_stdio_output@@V?$standard_base@_WV?$stream_output_adapter@_W@__crt_stdio_output@@@2@@__crt_stdio_output@@AEAA_NXZ 000000018008a0a0 f i libucrtd:output.obj
 0001:000890c0       ?type_case_x@?$output_processor@_WV?$string_output_adapter@_W@__crt_stdio_output@@V?$format_validation_base@_WV?$string_output_adapter@_W@__crt_stdio_output@@@2@@__crt_stdio_output@@AEAA_NXZ 000000018008a0c0 f i libucrtd:output.obj
 0001:000890e0       ?type_case_x@?$output_processor@_WV?$string_output_adapter@_W@__crt_stdio_output@@V?$positional_parameter_base@_WV?$string_output_adapter@_W@__crt_stdio_output@@@2@@__crt_stdio_output@@AEAA_NXZ 000000018008a0e0 f i libucrtd:output.obj
 0001:00089100       ?type_case_x@?$output_processor@_WV?$string_output_adapter@_W@__crt_stdio_output@@V?$standard_base@_WV?$string_output_adapter@_W@__crt_stdio_output@@@2@@__crt_stdio_output@@AEAA_NXZ 000000018008a100 f i libucrtd:output.obj
 0001:00089120       ?unget@?$c_string_character_source@D@__crt_strtox@@QEAAXD@Z 000000018008a120 f i libucrtd:output.obj
 0001:00089200       ?unget@?$c_string_character_source@_W@__crt_strtox@@QEAAX_W@Z 000000018008a200 f i libucrtd:output.obj
 0001:000892e0       ?unsafe_value@?$cached@H@__crt_cached_ptd_host@@QEAAHXZ 000000018008a2e0 f i libucrtd:output.obj
 0001:000892f0       ?unsafe_value@?$cached@K@__crt_cached_ptd_host@@QEAAKXZ 000000018008a2f0 f i libucrtd:output.obj
 0001:00089300       ?unset_flag@?$output_processor@DV?$stream_output_adapter@D@__crt_stdio_output@@V?$format_validation_base@DV?$stream_output_adapter@D@__crt_stdio_output@@@2@@__crt_stdio_output@@AEAAXI@Z 000000018008a300 f i libucrtd:output.obj
 0001:00089330       ?unset_flag@?$output_processor@DV?$stream_output_adapter@D@__crt_stdio_output@@V?$positional_parameter_base@DV?$stream_output_adapter@D@__crt_stdio_output@@@2@@__crt_stdio_output@@AEAAXI@Z 000000018008a330 f i libucrtd:output.obj
 0001:00089360       ?unset_flag@?$output_processor@DV?$stream_output_adapter@D@__crt_stdio_output@@V?$standard_base@DV?$stream_output_adapter@D@__crt_stdio_output@@@2@@__crt_stdio_output@@AEAAXI@Z 000000018008a360 f i libucrtd:output.obj
 0001:00089390       ?unset_flag@?$output_processor@DV?$string_output_adapter@D@__crt_stdio_output@@V?$format_validation_base@DV?$string_output_adapter@D@__crt_stdio_output@@@2@@__crt_stdio_output@@AEAAXI@Z 000000018008a390 f i libucrtd:output.obj
 0001:000893c0       ?unset_flag@?$output_processor@DV?$string_output_adapter@D@__crt_stdio_output@@V?$positional_parameter_base@DV?$string_output_adapter@D@__crt_stdio_output@@@2@@__crt_stdio_output@@AEAAXI@Z 000000018008a3c0 f i libucrtd:output.obj
 0001:000893f0       ?unset_flag@?$output_processor@DV?$string_output_adapter@D@__crt_stdio_output@@V?$standard_base@DV?$string_output_adapter@D@__crt_stdio_output@@@2@@__crt_stdio_output@@AEAAXI@Z 000000018008a3f0 f i libucrtd:output.obj
 0001:00089420       ?unset_flag@?$output_processor@_WV?$stream_output_adapter@_W@__crt_stdio_output@@V?$format_validation_base@_WV?$stream_output_adapter@_W@__crt_stdio_output@@@2@@__crt_stdio_output@@AEAAXI@Z 000000018008a420 f i libucrtd:output.obj
 0001:00089450       ?unset_flag@?$output_processor@_WV?$stream_output_adapter@_W@__crt_stdio_output@@V?$positional_parameter_base@_WV?$stream_output_adapter@_W@__crt_stdio_output@@@2@@__crt_stdio_output@@AEAAXI@Z 000000018008a450 f i libucrtd:output.obj
 0001:00089480       ?unset_flag@?$output_processor@_WV?$stream_output_adapter@_W@__crt_stdio_output@@V?$standard_base@_WV?$stream_output_adapter@_W@__crt_stdio_output@@@2@@__crt_stdio_output@@AEAAXI@Z 000000018008a480 f i libucrtd:output.obj
 0001:000894b0       ?unset_flag@?$output_processor@_WV?$string_output_adapter@_W@__crt_stdio_output@@V?$format_validation_base@_WV?$string_output_adapter@_W@__crt_stdio_output@@@2@@__crt_stdio_output@@AEAAXI@Z 000000018008a4b0 f i libucrtd:output.obj
 0001:000894e0       ?unset_flag@?$output_processor@_WV?$string_output_adapter@_W@__crt_stdio_output@@V?$positional_parameter_base@_WV?$string_output_adapter@_W@__crt_stdio_output@@@2@@__crt_stdio_output@@AEAAXI@Z 000000018008a4e0 f i libucrtd:output.obj
 0001:00089510       ?unset_flag@?$output_processor@_WV?$string_output_adapter@_W@__crt_stdio_output@@V?$standard_base@_WV?$string_output_adapter@_W@__crt_stdio_output@@@2@@__crt_stdio_output@@AEAAXI@Z 000000018008a510 f i libucrtd:output.obj
 0001:00089540       ?update_field_width@?$positional_parameter_base@DV?$stream_output_adapter@D@__crt_stdio_output@@@__crt_stdio_output@@IEAA_NXZ 000000018008a540 f i libucrtd:output.obj
 0001:00089740       ?update_field_width@?$positional_parameter_base@DV?$string_output_adapter@D@__crt_stdio_output@@@__crt_stdio_output@@IEAA_NXZ 000000018008a740 f i libucrtd:output.obj
 0001:00089940       ?update_field_width@?$positional_parameter_base@_WV?$stream_output_adapter@_W@__crt_stdio_output@@@__crt_stdio_output@@IEAA_NXZ 000000018008a940 f i libucrtd:output.obj
 0001:00089b40       ?update_field_width@?$positional_parameter_base@_WV?$string_output_adapter@_W@__crt_stdio_output@@@__crt_stdio_output@@IEAA_NXZ 000000018008ab40 f i libucrtd:output.obj
 0001:00089d40       ?update_field_width@?$standard_base@DV?$stream_output_adapter@D@__crt_stdio_output@@@__crt_stdio_output@@IEAA_NXZ 000000018008ad40 f i libucrtd:output.obj
 0001:00089d70       ?update_field_width@?$standard_base@DV?$string_output_adapter@D@__crt_stdio_output@@@__crt_stdio_output@@IEAA_NXZ 000000018008ad70 f i libucrtd:output.obj
 0001:00089da0       ?update_field_width@?$standard_base@_WV?$stream_output_adapter@_W@__crt_stdio_output@@@__crt_stdio_output@@IEAA_NXZ 000000018008ada0 f i libucrtd:output.obj
 0001:00089dd0       ?update_field_width@?$standard_base@_WV?$string_output_adapter@_W@__crt_stdio_output@@@__crt_stdio_output@@IEAA_NXZ 000000018008add0 f i libucrtd:output.obj
 0001:00089e00       ?update_locale@__crt_cached_ptd_host@@AEAAXXZ 000000018008ae00 f i libucrtd:output.obj
 0001:00089e30       ?update_locale_slow@__crt_cached_ptd_host@@AEAAXXZ 000000018008ae30 f i libucrtd:output.obj
 0001:00089ee0       ?update_precision@?$positional_parameter_base@DV?$stream_output_adapter@D@__crt_stdio_output@@@__crt_stdio_output@@IEAA_NXZ 000000018008aee0 f i libucrtd:output.obj
 0001:0008a0e0       ?update_precision@?$positional_parameter_base@DV?$string_output_adapter@D@__crt_stdio_output@@@__crt_stdio_output@@IEAA_NXZ 000000018008b0e0 f i libucrtd:output.obj
 0001:0008a2e0       ?update_precision@?$positional_parameter_base@_WV?$stream_output_adapter@_W@__crt_stdio_output@@@__crt_stdio_output@@IEAA_NXZ 000000018008b2e0 f i libucrtd:output.obj
 0001:0008a4e0       ?update_precision@?$positional_parameter_base@_WV?$string_output_adapter@_W@__crt_stdio_output@@@__crt_stdio_output@@IEAA_NXZ 000000018008b4e0 f i libucrtd:output.obj
 0001:0008a6e0       ?update_precision@?$standard_base@DV?$stream_output_adapter@D@__crt_stdio_output@@@__crt_stdio_output@@IEAA_NXZ 000000018008b6e0 f i libucrtd:output.obj
 0001:0008a710       ?update_precision@?$standard_base@DV?$string_output_adapter@D@__crt_stdio_output@@@__crt_stdio_output@@IEAA_NXZ 000000018008b710 f i libucrtd:output.obj
 0001:0008a740       ?update_precision@?$standard_base@_WV?$stream_output_adapter@_W@__crt_stdio_output@@@__crt_stdio_output@@IEAA_NXZ 000000018008b740 f i libucrtd:output.obj
 0001:0008a770       ?update_precision@?$standard_base@_WV?$string_output_adapter@_W@__crt_stdio_output@@@__crt_stdio_output@@IEAA_NXZ 000000018008b770 f i libucrtd:output.obj
 0001:0008a7a0       ?valid@?$cached@H@__crt_cached_ptd_host@@QEBA_NXZ 000000018008b7a0 f i libucrtd:output.obj
 0001:0008a7b0       ?valid@?$cached@K@__crt_cached_ptd_host@@QEBA_NXZ 000000018008b7b0 f i libucrtd:output.obj
 0001:0008a7c0       ?valid@__crt_stdio_stream@@QEBA_NXZ 000000018008b7c0 f i libucrtd:output.obj
 0001:0008a7f0       ?validate@?$c_string_character_source@D@__crt_strtox@@QEBA_NXZ 000000018008b7f0 f i libucrtd:output.obj
 0001:0008a8b0       ?validate@?$c_string_character_source@_W@__crt_strtox@@QEBA_NXZ 000000018008b8b0 f i libucrtd:output.obj
 0001:0008a970       ?validate@?$stream_output_adapter@D@__crt_stdio_output@@QEBA_NAEAV__crt_cached_ptd_host@@@Z 000000018008b970 f i libucrtd:output.obj
 0001:0008aa70       ?validate@?$stream_output_adapter@_W@__crt_stdio_output@@QEBA_NAEAV__crt_cached_ptd_host@@@Z 000000018008ba70 f i libucrtd:output.obj
 0001:0008ab70       ?validate@?$string_output_adapter@D@__crt_stdio_output@@QEBA_NAEAV__crt_cached_ptd_host@@@Z 000000018008bb70 f i libucrtd:output.obj
 0001:0008ac50       ?validate@?$string_output_adapter@_W@__crt_stdio_output@@QEBA_NAEAV__crt_cached_ptd_host@@@Z 000000018008bc50 f i libucrtd:output.obj
 0001:0008ad30       ?validate_and_store_parameter_data@?$positional_parameter_base@DV?$stream_output_adapter@D@__crt_stdio_output@@@__crt_stdio_output@@AEAA_NAEAUparameter_data@12@W4parameter_type@12@DW4length_modifier@2@@Z 000000018008bd30 f i libucrtd:output.obj
 0001:0008ae70       ?validate_and_store_parameter_data@?$positional_parameter_base@DV?$string_output_adapter@D@__crt_stdio_output@@@__crt_stdio_output@@AEAA_NAEAUparameter_data@12@W4parameter_type@12@DW4length_modifier@2@@Z 000000018008be70 f i libucrtd:output.obj
 0001:0008afb0       ?validate_and_store_parameter_data@?$positional_parameter_base@_WV?$stream_output_adapter@_W@__crt_stdio_output@@@__crt_stdio_output@@AEAA_NAEAUparameter_data@12@W4parameter_type@12@_WW4length_modifier@2@@Z 000000018008bfb0 f i libucrtd:output.obj
 0001:0008b0f0       ?validate_and_store_parameter_data@?$positional_parameter_base@_WV?$string_output_adapter@_W@__crt_stdio_output@@@__crt_stdio_output@@AEAA_NAEAUparameter_data@12@W4parameter_type@12@_WW4length_modifier@2@@Z 000000018008c0f0 f i libucrtd:output.obj
 0001:0008b230       ?validate_and_update_state_at_beginning_of_format_character@?$positional_parameter_base@DV?$stream_output_adapter@D@__crt_stdio_output@@@__crt_stdio_output@@IEAA_NXZ 000000018008c230 f i libucrtd:output.obj
 0001:0008b4d0       ?validate_and_update_state_at_beginning_of_format_character@?$positional_parameter_base@DV?$string_output_adapter@D@__crt_stdio_output@@@__crt_stdio_output@@IEAA_NXZ 000000018008c4d0 f i libucrtd:output.obj
 0001:0008b770       ?validate_and_update_state_at_beginning_of_format_character@?$positional_parameter_base@_WV?$stream_output_adapter@_W@__crt_stdio_output@@@__crt_stdio_output@@IEAA_NXZ 000000018008c770 f i libucrtd:output.obj
 0001:0008ba10       ?validate_and_update_state_at_beginning_of_format_character@?$positional_parameter_base@_WV?$string_output_adapter@_W@__crt_stdio_output@@@__crt_stdio_output@@IEAA_NXZ 000000018008ca10 f i libucrtd:output.obj
 0001:0008bcb0       ?validate_and_update_state_at_beginning_of_format_character@?$standard_base@DV?$stream_output_adapter@D@__crt_stdio_output@@@__crt_stdio_output@@IEAA_NXZ 000000018008ccb0 f i libucrtd:output.obj
 0001:0008bcc0       ?validate_and_update_state_at_beginning_of_format_character@?$standard_base@DV?$string_output_adapter@D@__crt_stdio_output@@@__crt_stdio_output@@IEAA_NXZ 000000018008ccc0 f i libucrtd:output.obj
 0001:0008bcd0       ?validate_and_update_state_at_beginning_of_format_character@?$standard_base@_WV?$stream_output_adapter@_W@__crt_stdio_output@@@__crt_stdio_output@@IEAA_NXZ 000000018008ccd0 f i libucrtd:output.obj
 0001:0008bce0       ?validate_and_update_state_at_beginning_of_format_character@?$standard_base@_WV?$string_output_adapter@_W@__crt_stdio_output@@@__crt_stdio_output@@IEAA_NXZ 000000018008cce0 f i libucrtd:output.obj
 0001:0008bcf0       ?validate_and_update_state_at_end_of_format_string@?$format_validation_base@DV?$stream_output_adapter@D@__crt_stdio_output@@@__crt_stdio_output@@IEAA_NXZ 000000018008ccf0 f i libucrtd:output.obj
 0001:0008bde0       ?validate_and_update_state_at_end_of_format_string@?$format_validation_base@DV?$string_output_adapter@D@__crt_stdio_output@@@__crt_stdio_output@@IEAA_NXZ 000000018008cde0 f i libucrtd:output.obj
 0001:0008bed0       ?validate_and_update_state_at_end_of_format_string@?$format_validation_base@_WV?$stream_output_adapter@_W@__crt_stdio_output@@@__crt_stdio_output@@IEAA_NXZ 000000018008ced0 f i libucrtd:output.obj
 0001:0008bfc0       ?validate_and_update_state_at_end_of_format_string@?$format_validation_base@_WV?$string_output_adapter@_W@__crt_stdio_output@@@__crt_stdio_output@@IEAA_NXZ 000000018008cfc0 f i libucrtd:output.obj
 0001:0008c0b0       ?validate_and_update_state_at_end_of_format_string@?$positional_parameter_base@DV?$stream_output_adapter@D@__crt_stdio_output@@@__crt_stdio_output@@IEAA_NXZ 000000018008d0b0 f i libucrtd:output.obj
 0001:0008c2e0       ?validate_and_update_state_at_end_of_format_string@?$positional_parameter_base@DV?$string_output_adapter@D@__crt_stdio_output@@@__crt_stdio_output@@IEAA_NXZ 000000018008d2e0 f i libucrtd:output.obj
 0001:0008c510       ?validate_and_update_state_at_end_of_format_string@?$positional_parameter_base@_WV?$stream_output_adapter@_W@__crt_stdio_output@@@__crt_stdio_output@@IEAA_NXZ 000000018008d510 f i libucrtd:output.obj
 0001:0008c740       ?validate_and_update_state_at_end_of_format_string@?$positional_parameter_base@_WV?$string_output_adapter@_W@__crt_stdio_output@@@__crt_stdio_output@@IEAA_NXZ 000000018008d740 f i libucrtd:output.obj
 0001:0008c970       ?validate_and_update_state_at_end_of_format_string@?$standard_base@DV?$stream_output_adapter@D@__crt_stdio_output@@@__crt_stdio_output@@IEBA_NXZ 000000018008d970 f i libucrtd:output.obj
 0001:0008c980       ?validate_and_update_state_at_end_of_format_string@?$standard_base@DV?$string_output_adapter@D@__crt_stdio_output@@@__crt_stdio_output@@IEBA_NXZ 000000018008d980 f i libucrtd:output.obj
 0001:0008c990       ?validate_and_update_state_at_end_of_format_string@?$standard_base@_WV?$stream_output_adapter@_W@__crt_stdio_output@@@__crt_stdio_output@@IEBA_NXZ 000000018008d990 f i libucrtd:output.obj
 0001:0008c9a0       ?validate_and_update_state_at_end_of_format_string@?$standard_base@_WV?$string_output_adapter@_W@__crt_stdio_output@@@__crt_stdio_output@@IEBA_NXZ 000000018008d9a0 f i libucrtd:output.obj
 0001:0008c9b0       ?validate_state_for_type_case_a@?$positional_parameter_base@DV?$stream_output_adapter@D@__crt_stdio_output@@@__crt_stdio_output@@IEAA_NXZ 000000018008d9b0 f i libucrtd:output.obj
 0001:0008cb10       ?validate_state_for_type_case_a@?$positional_parameter_base@DV?$string_output_adapter@D@__crt_stdio_output@@@__crt_stdio_output@@IEAA_NXZ 000000018008db10 f i libucrtd:output.obj
 0001:0008cc70       ?validate_state_for_type_case_a@?$positional_parameter_base@_WV?$stream_output_adapter@_W@__crt_stdio_output@@@__crt_stdio_output@@IEAA_NXZ 000000018008dc70 f i libucrtd:output.obj
 0001:0008cdd0       ?validate_state_for_type_case_a@?$positional_parameter_base@_WV?$string_output_adapter@_W@__crt_stdio_output@@@__crt_stdio_output@@IEAA_NXZ 000000018008ddd0 f i libucrtd:output.obj
 0001:0008cf30       ?validate_state_for_type_case_a@?$standard_base@DV?$stream_output_adapter@D@__crt_stdio_output@@@__crt_stdio_output@@IEBA_NXZ 000000018008df30 f i libucrtd:output.obj
 0001:0008cf40       ?validate_state_for_type_case_a@?$standard_base@DV?$string_output_adapter@D@__crt_stdio_output@@@__crt_stdio_output@@IEBA_NXZ 000000018008df40 f i libucrtd:output.obj
 0001:0008cf50       ?validate_state_for_type_case_a@?$standard_base@_WV?$stream_output_adapter@_W@__crt_stdio_output@@@__crt_stdio_output@@IEBA_NXZ 000000018008df50 f i libucrtd:output.obj
 0001:0008cf60       ?validate_state_for_type_case_a@?$standard_base@_WV?$string_output_adapter@_W@__crt_stdio_output@@@__crt_stdio_output@@IEBA_NXZ 000000018008df60 f i libucrtd:output.obj
 0001:0008cf70       ?validate_stream_is_ansi_if_required@?$__acrt_stdio_char_traits@D@@SA_NQEAU_iobuf@@@Z 000000018008df70 f i libucrtd:output.obj
 0001:0008d100       ?validate_stream_is_ansi_if_required@?$__acrt_stdio_char_traits@_W@@SA_NQEAU_iobuf@@@Z 000000018008e100 f i libucrtd:output.obj
 0001:0008d110       ?wide_character_to_digit@__crt_strtox@@YAH_W@Z 000000018008e110 f i libucrtd:output.obj
 0001:0008d480       ?wide_null_string@?$output_processor@DV?$stream_output_adapter@D@__crt_stdio_output@@V?$format_validation_base@DV?$stream_output_adapter@D@__crt_stdio_output@@@2@@__crt_stdio_output@@CAPEA_WXZ 000000018008e480 f i libucrtd:output.obj
 0001:0008d490       ?wide_null_string@?$output_processor@DV?$stream_output_adapter@D@__crt_stdio_output@@V?$positional_parameter_base@DV?$stream_output_adapter@D@__crt_stdio_output@@@2@@__crt_stdio_output@@CAPEA_WXZ 000000018008e490 f i libucrtd:output.obj
 0001:0008d4a0       ?wide_null_string@?$output_processor@DV?$stream_output_adapter@D@__crt_stdio_output@@V?$standard_base@DV?$stream_output_adapter@D@__crt_stdio_output@@@2@@__crt_stdio_output@@CAPEA_WXZ 000000018008e4a0 f i libucrtd:output.obj
 0001:0008d4b0       ?wide_null_string@?$output_processor@DV?$string_output_adapter@D@__crt_stdio_output@@V?$format_validation_base@DV?$string_output_adapter@D@__crt_stdio_output@@@2@@__crt_stdio_output@@CAPEA_WXZ 000000018008e4b0 f i libucrtd:output.obj
 0001:0008d4c0       ?wide_null_string@?$output_processor@DV?$string_output_adapter@D@__crt_stdio_output@@V?$positional_parameter_base@DV?$string_output_adapter@D@__crt_stdio_output@@@2@@__crt_stdio_output@@CAPEA_WXZ 000000018008e4c0 f i libucrtd:output.obj
 0001:0008d4d0       ?wide_null_string@?$output_processor@DV?$string_output_adapter@D@__crt_stdio_output@@V?$standard_base@DV?$string_output_adapter@D@__crt_stdio_output@@@2@@__crt_stdio_output@@CAPEA_WXZ 000000018008e4d0 f i libucrtd:output.obj
 0001:0008d4e0       ?wide_null_string@?$output_processor@_WV?$stream_output_adapter@_W@__crt_stdio_output@@V?$format_validation_base@_WV?$stream_output_adapter@_W@__crt_stdio_output@@@2@@__crt_stdio_output@@CAPEA_WXZ 000000018008e4e0 f i libucrtd:output.obj
 0001:0008d4f0       ?wide_null_string@?$output_processor@_WV?$stream_output_adapter@_W@__crt_stdio_output@@V?$positional_parameter_base@_WV?$stream_output_adapter@_W@__crt_stdio_output@@@2@@__crt_stdio_output@@CAPEA_WXZ 000000018008e4f0 f i libucrtd:output.obj
 0001:0008d500       ?wide_null_string@?$output_processor@_WV?$stream_output_adapter@_W@__crt_stdio_output@@V?$standard_base@_WV?$stream_output_adapter@_W@__crt_stdio_output@@@2@@__crt_stdio_output@@CAPEA_WXZ 000000018008e500 f i libucrtd:output.obj
 0001:0008d510       ?wide_null_string@?$output_processor@_WV?$string_output_adapter@_W@__crt_stdio_output@@V?$format_validation_base@_WV?$string_output_adapter@_W@__crt_stdio_output@@@2@@__crt_stdio_output@@CAPEA_WXZ 000000018008e510 f i libucrtd:output.obj
 0001:0008d520       ?wide_null_string@?$output_processor@_WV?$string_output_adapter@_W@__crt_stdio_output@@V?$positional_parameter_base@_WV?$string_output_adapter@_W@__crt_stdio_output@@@2@@__crt_stdio_output@@CAPEA_WXZ 000000018008e520 f i libucrtd:output.obj
 0001:0008d530       ?wide_null_string@?$output_processor@_WV?$string_output_adapter@_W@__crt_stdio_output@@V?$standard_base@_WV?$string_output_adapter@_W@__crt_stdio_output@@@2@@__crt_stdio_output@@CAPEA_WXZ 000000018008e530 f i libucrtd:output.obj
 0001:0008d540       ?write_character@?$output_adapter_common@DV?$stream_output_adapter@D@__crt_stdio_output@@@__crt_stdio_output@@QEBAXDQEAHAEAV__crt_cached_ptd_host@@@Z 000000018008e540 f i libucrtd:output.obj
 0001:0008d5a0       ?write_character@?$output_adapter_common@_WV?$stream_output_adapter@_W@__crt_stdio_output@@@__crt_stdio_output@@QEBAX_WQEAHAEAV__crt_cached_ptd_host@@@Z 000000018008e5a0 f i libucrtd:output.obj
 0001:0008d600       ?write_character@?$string_output_adapter@D@__crt_stdio_output@@QEBA_NDQEAHAEAV__crt_cached_ptd_host@@@Z 000000018008e600 f i libucrtd:output.obj
 0001:0008d6d0       ?write_character@?$string_output_adapter@_W@__crt_stdio_output@@QEBA_N_WQEAHAEAV__crt_cached_ptd_host@@@Z 000000018008e6d0 f i libucrtd:output.obj
 0001:0008d7a0       ?write_character_without_count_update@?$stream_output_adapter@D@__crt_stdio_output@@QEBA_NDAEAV__crt_cached_ptd_host@@@Z 000000018008e7a0 f i libucrtd:output.obj
 0001:0008d830       ?write_character_without_count_update@?$stream_output_adapter@_W@__crt_stdio_output@@QEBA_N_WAEAV__crt_cached_ptd_host@@@Z 000000018008e830 f i libucrtd:output.obj
 0001:0008d8c0       ?write_stored_string_tchar@?$output_processor@DV?$stream_output_adapter@D@__crt_stdio_output@@V?$format_validation_base@DV?$stream_output_adapter@D@__crt_stdio_output@@@2@@__crt_stdio_output@@AEAA_ND@Z 000000018008e8c0 f i libucrtd:output.obj
 0001:0008da70       ?write_stored_string_tchar@?$output_processor@DV?$stream_output_adapter@D@__crt_stdio_output@@V?$positional_parameter_base@DV?$stream_output_adapter@D@__crt_stdio_output@@@2@@__crt_stdio_output@@AEAA_ND@Z 000000018008ea70 f i libucrtd:output.obj
 0001:0008dc20       ?write_stored_string_tchar@?$output_processor@DV?$stream_output_adapter@D@__crt_stdio_output@@V?$standard_base@DV?$stream_output_adapter@D@__crt_stdio_output@@@2@@__crt_stdio_output@@AEAA_ND@Z 000000018008ec20 f i libucrtd:output.obj
 0001:0008ddd0       ?write_stored_string_tchar@?$output_processor@DV?$string_output_adapter@D@__crt_stdio_output@@V?$format_validation_base@DV?$string_output_adapter@D@__crt_stdio_output@@@2@@__crt_stdio_output@@AEAA_ND@Z 000000018008edd0 f i libucrtd:output.obj
 0001:0008df80       ?write_stored_string_tchar@?$output_processor@DV?$string_output_adapter@D@__crt_stdio_output@@V?$positional_parameter_base@DV?$string_output_adapter@D@__crt_stdio_output@@@2@@__crt_stdio_output@@AEAA_ND@Z 000000018008ef80 f i libucrtd:output.obj
 0001:0008e130       ?write_stored_string_tchar@?$output_processor@DV?$string_output_adapter@D@__crt_stdio_output@@V?$standard_base@DV?$string_output_adapter@D@__crt_stdio_output@@@2@@__crt_stdio_output@@AEAA_ND@Z 000000018008f130 f i libucrtd:output.obj
 0001:0008e2e0       ?write_stored_string_tchar@?$output_processor@_WV?$stream_output_adapter@_W@__crt_stdio_output@@V?$format_validation_base@_WV?$stream_output_adapter@_W@__crt_stdio_output@@@2@@__crt_stdio_output@@AEAA_N_W@Z 000000018008f2e0 f i libucrtd:output.obj
 0001:0008e440       ?write_stored_string_tchar@?$output_processor@_WV?$stream_output_adapter@_W@__crt_stdio_output@@V?$positional_parameter_base@_WV?$stream_output_adapter@_W@__crt_stdio_output@@@2@@__crt_stdio_output@@AEAA_N_W@Z 000000018008f440 f i libucrtd:output.obj
 0001:0008e5a0       ?write_stored_string_tchar@?$output_processor@_WV?$stream_output_adapter@_W@__crt_stdio_output@@V?$standard_base@_WV?$stream_output_adapter@_W@__crt_stdio_output@@@2@@__crt_stdio_output@@AEAA_N_W@Z 000000018008f5a0 f i libucrtd:output.obj
 0001:0008e700       ?write_stored_string_tchar@?$output_processor@_WV?$string_output_adapter@_W@__crt_stdio_output@@V?$format_validation_base@_WV?$string_output_adapter@_W@__crt_stdio_output@@@2@@__crt_stdio_output@@AEAA_N_W@Z 000000018008f700 f i libucrtd:output.obj
 0001:0008e860       ?write_stored_string_tchar@?$output_processor@_WV?$string_output_adapter@_W@__crt_stdio_output@@V?$positional_parameter_base@_WV?$string_output_adapter@_W@__crt_stdio_output@@@2@@__crt_stdio_output@@AEAA_N_W@Z 000000018008f860 f i libucrtd:output.obj
 0001:0008e9c0       ?write_stored_string_tchar@?$output_processor@_WV?$string_output_adapter@_W@__crt_stdio_output@@V?$standard_base@_WV?$string_output_adapter@_W@__crt_stdio_output@@@2@@__crt_stdio_output@@AEAA_N_W@Z 000000018008f9c0 f i libucrtd:output.obj
 0001:0008eb20       ?write_string@?$stream_output_adapter@D@__crt_stdio_output@@QEBAXQEBDHQEAHAEAV__crt_cached_ptd_host@@@Z 000000018008fb20 f i libucrtd:output.obj
 0001:0008eba0       ?write_string@?$stream_output_adapter@_W@__crt_stdio_output@@QEBAXQEB_WHQEAHAEAV__crt_cached_ptd_host@@@Z 000000018008fba0 f i libucrtd:output.obj
 0001:0008ec20       ?write_string@?$string_output_adapter@D@__crt_stdio_output@@QEBAXQEBDHQEAHAEAV__crt_cached_ptd_host@@@Z 000000018008fc20 f i libucrtd:output.obj
 0001:0008ed90       ?write_string@?$string_output_adapter@_W@__crt_stdio_output@@QEBAXQEB_WHQEAHAEAV__crt_cached_ptd_host@@@Z 000000018008fd90 f i libucrtd:output.obj
 0001:0008ef00       ?write_string_impl@?$output_adapter_common@DV?$stream_output_adapter@D@__crt_stdio_output@@@__crt_stdio_output@@IEBAXQEBDHQEAHAEAV__crt_cached_ptd_host@@@Z 000000018008ff00 f i libucrtd:output.obj
 0001:0008f020       ?write_string_impl@?$output_adapter_common@_WV?$stream_output_adapter@_W@__crt_stdio_output@@@__crt_stdio_output@@IEBAXQEB_WHQEAHAEAV__crt_cached_ptd_host@@@Z 0000000180090020 f i libucrtd:output.obj
 0001:0008f140       __acrt_disable_global_locale_sync 0000000180090140 f i libucrtd:output.obj
 0001:0008f170       __acrt_enable_global_locale_sync 0000000180090170 f i libucrtd:output.obj
 0001:0008f1a0       __acrt_isleadbyte_l_noupdate 00000001800901a0 f i libucrtd:output.obj
 0001:0008f1d0       __acrt_locale_changed      00000001800901d0 f i libucrtd:output.obj
 0001:0008f200       __acrt_locale_get_ctype_array_value 0000000180090200 f i libucrtd:output.obj
 0001:0008f240       __ascii_iswalpha           0000000180090240 f i libucrtd:output.obj
 0001:0008f280       __ascii_toupper            0000000180090280 f i libucrtd:output.obj
 0001:0008f2a0       __ascii_towupper           00000001800902a0 f i libucrtd:output.obj
 0001:0008f2c0       __stdio_common_vfprintf    00000001800902c0 f   libucrtd:output.obj
 0001:0008f340       __stdio_common_vfprintf_p  0000000180090340 f   libucrtd:output.obj
 0001:0008f3c0       __stdio_common_vfprintf_s  00000001800903c0 f   libucrtd:output.obj
 0001:0008f440       __stdio_common_vfwprintf   0000000180090440 f   libucrtd:output.obj
 0001:0008f4c0       __stdio_common_vfwprintf_p 00000001800904c0 f   libucrtd:output.obj
 0001:0008f540       __stdio_common_vfwprintf_s 0000000180090540 f   libucrtd:output.obj
 0001:0008f5c0       __stdio_common_vsnprintf_s 00000001800905c0 f   libucrtd:output.obj
 0001:0008f650       __stdio_common_vsnwprintf_s 0000000180090650 f   libucrtd:output.obj
 0001:0008f6e0       __stdio_common_vsprintf    00000001800906e0 f   libucrtd:output.obj
 0001:0008f770       __stdio_common_vsprintf_p  0000000180090770 f   libucrtd:output.obj
 0001:0008f800       __stdio_common_vsprintf_s  0000000180090800 f   libucrtd:output.obj
 0001:0008f890       __stdio_common_vswprintf   0000000180090890 f   libucrtd:output.obj
 0001:0008f920       __stdio_common_vswprintf_p 0000000180090920 f   libucrtd:output.obj
 0001:0008f9b0       __stdio_common_vswprintf_s 00000001800909b0 f   libucrtd:output.obj
 0001:0008fa40       _ctype_fast_check_internal 0000000180090a40 f i libucrtd:output.obj
 0001:0008fa70       _isdigit_fast_internal     0000000180090a70 f i libucrtd:output.obj
 0001:0008faa0       _tolower_fast_internal     0000000180090aa0 f i libucrtd:output.obj
 0001:0008fad0       free                       0000000180090ad0 f   libucrtd:free.obj
 0001:0008fb00       malloc                     0000000180090b00 f   libucrtd:malloc.obj
 0001:0008fb30       ??$?RU?$__crt_report_hook_node@D@@@__crt_internal_free_policy@@QEBAXQEBU?$__crt_report_hook_node@D@@@Z 0000000180090b30 f i libucrtd:dbgrpt.obj
 0001:0008fb60       ??$?RU?$__crt_report_hook_node@_W@@@__crt_internal_free_policy@@QEBAXQEBU?$__crt_report_hook_node@_W@@@Z 0000000180090b60 f i libucrtd:dbgrpt.obj
 0001:00090dc0       ??$get_module_file_name@AEAPEAUHINSTANCE__@@AEAY0BAF@DK@?$__crt_char_traits@D@@SAKAEAPEAUHINSTANCE__@@AEAY0BAF@D$$QEAK@Z 0000000180091dc0 f i libucrtd:dbgrpt.obj
 0001:00090e00       ??$get_module_file_name@AEAPEAUHINSTANCE__@@AEAY0BAF@_WK@?$__crt_char_traits@_W@@SAKAEAPEAUHINSTANCE__@@AEAY0BAF@_W$$QEAK@Z 0000000180091e00 f i libucrtd:dbgrpt.obj
 0001:00090e40       ??$tcscpy_s@AEAY0BAF@D_KPEBD@?$__crt_char_traits@D@@SAHAEAY0BAF@D$$QEA_K$$QEAPEBD@Z 0000000180091e40 f i libucrtd:dbgrpt.obj
 0001:00090e80       ??$tcscpy_s@AEAY0BAF@_W_KPEB_W@?$__crt_char_traits@_W@@SAHAEAY0BAF@_W$$QEA_K$$QEAPEB_W@Z 0000000180091e80 f i libucrtd:dbgrpt.obj
 0001:00090ec0       ??$tcslen@AEAY0BAF@D@?$__crt_char_traits@D@@SA_KAEAY0BAF@D@Z 0000000180091ec0 f i libucrtd:dbgrpt.obj
 0001:00090ee0       ??$tcslen@AEAY0BAF@_W@?$__crt_char_traits@_W@@SA_KAEAY0BAF@_W@Z 0000000180091ee0 f i libucrtd:dbgrpt.obj
 0001:00090f00       ??$tcslen@AEBQEBD@?$__crt_char_traits@D@@SA_KAEBQEBD@Z 0000000180091f00 f i libucrtd:dbgrpt.obj
 0001:00090f20       ??$tcslen@AEBQEB_W@?$__crt_char_traits@_W@@SA_KAEBQEB_W@Z 0000000180091f20 f i libucrtd:dbgrpt.obj
 0001:00091020       ??0?$__crt_unique_heap_ptr@U?$__crt_report_hook_node@D@@U__crt_internal_free_policy@@@@QEAA@QEAU?$__crt_report_hook_node@D@@@Z 0000000180092020 f i libucrtd:dbgrpt.obj
 0001:00091040       ??0?$__crt_unique_heap_ptr@U?$__crt_report_hook_node@_W@@U__crt_internal_free_policy@@@@QEAA@QEAU?$__crt_report_hook_node@_W@@@Z 0000000180092040 f i libucrtd:dbgrpt.obj
 0001:00091060       ??1?$__crt_unique_heap_ptr@U?$__crt_report_hook_node@D@@U__crt_internal_free_policy@@@@QEAA@XZ 0000000180092060 f i libucrtd:dbgrpt.obj
 0001:00091080       ??1?$__crt_unique_heap_ptr@U?$__crt_report_hook_node@_W@@U__crt_internal_free_policy@@@@QEAA@XZ 0000000180092080 f i libucrtd:dbgrpt.obj
 0001:000910a0       ??B?$__crt_unique_heap_ptr@U?$__crt_report_hook_node@D@@U__crt_internal_free_policy@@@@QEBA_NXZ 00000001800920a0 f i libucrtd:dbgrpt.obj
 0001:000910c0       ??B?$__crt_unique_heap_ptr@U?$__crt_report_hook_node@_W@@U__crt_internal_free_policy@@@@QEBA_NXZ 00000001800920c0 f i libucrtd:dbgrpt.obj
 0001:000917e0       ?detach@?$__crt_unique_heap_ptr@U?$__crt_report_hook_node@D@@U__crt_internal_free_policy@@@@QEAAPEAU?$__crt_report_hook_node@D@@XZ 00000001800927e0 f i libucrtd:dbgrpt.obj
 0001:00091810       ?detach@?$__crt_unique_heap_ptr@U?$__crt_report_hook_node@_W@@U__crt_internal_free_policy@@@@QEAAPEAU?$__crt_report_hook_node@_W@@XZ 0000000180092810 f i libucrtd:dbgrpt.obj
 0001:00091840       ?get@?$__crt_unique_heap_ptr@U?$__crt_report_hook_node@D@@U__crt_internal_free_policy@@@@QEBAPEAU?$__crt_report_hook_node@D@@XZ 0000000180092840 f i libucrtd:dbgrpt.obj
 0001:00091850       ?get@?$__crt_unique_heap_ptr@U?$__crt_report_hook_node@_W@@U__crt_internal_free_policy@@@@QEBAPEAU?$__crt_report_hook_node@_W@@XZ 0000000180092850 f i libucrtd:dbgrpt.obj
 0001:000918c0       ?is_valid@?$__crt_unique_heap_ptr@U?$__crt_report_hook_node@D@@U__crt_internal_free_policy@@@@QEBA_NXZ 00000001800928c0 f i libucrtd:dbgrpt.obj
 0001:000918f0       ?is_valid@?$__crt_unique_heap_ptr@U?$__crt_report_hook_node@_W@@U__crt_internal_free_policy@@@@QEBA_NXZ 00000001800928f0 f i libucrtd:dbgrpt.obj
 0001:00091920       ?release@?$__crt_unique_heap_ptr@U?$__crt_report_hook_node@D@@U__crt_internal_free_policy@@@@QEAAXXZ 0000000180092920 f i libucrtd:dbgrpt.obj
 0001:00091950       ?release@?$__crt_unique_heap_ptr@U?$__crt_report_hook_node@_W@@U__crt_internal_free_policy@@@@QEAAXXZ 0000000180092950 f i libucrtd:dbgrpt.obj
 0001:00091980       _CrtDbgReport              0000000180092980 f   libucrtd:dbgrpt.obj
 0001:00091a00       _CrtDbgReportW             0000000180092a00 f   libucrtd:dbgrpt.obj
 0001:00091a80       _CrtSetReportHook2         0000000180092a80 f   libucrtd:dbgrpt.obj
 0001:00091aa0       _CrtSetReportHookW2        0000000180092aa0 f   libucrtd:dbgrpt.obj
 0001:00091ac0       __acrt_MessageWindowA      0000000180092ac0 f   libucrtd:dbgrpt.obj
 0001:00091b10       __acrt_MessageWindowW      0000000180092b10 f   libucrtd:dbgrpt.obj
 0001:00091b60       _invoke_watson_if_error    0000000180092b60 f i libucrtd:dbgrpt.obj
 0001:00091bb0       _invoke_watson_if_oneof    0000000180092bb0 f i libucrtd:dbgrpt.obj
 0001:00091c10       _snwprintf_s               0000000180092c10 f i libucrtd:dbgrpt.obj
 0001:00091c80       _vsnwprintf_s_l            0000000180092c80 f i libucrtd:dbgrpt.obj
 0001:00092200       wcscpy_s                   0000000180093200 f   libucrtd:wcscpy_s.obj
 0001:00093590       ??1?$__crt_simd_cleanup_guard@$00@@QEAA@XZ 0000000180094590 f i libucrtd:strnlen.obj
 0001:000935a0       ??1?$__crt_simd_cleanup_guard@$0A@@@QEAA@XZ 00000001800945a0 f i libucrtd:strnlen.obj
 0001:000935b0       ?compare_equals@?$__crt_simd_traits@$00E@@SA?AT__m256i@@T2@0@Z 00000001800945b0 f i libucrtd:strnlen.obj
 0001:000935f0       ?compare_equals@?$__crt_simd_traits@$00G@@SA?AT__m256i@@T2@0@Z 00000001800945f0 f i libucrtd:strnlen.obj
 0001:00093630       ?compare_equals@?$__crt_simd_traits@$0A@E@@SA?AT__m128i@@T2@0@Z 0000000180094630 f i libucrtd:strnlen.obj
 0001:00093660       ?compare_equals@?$__crt_simd_traits@$0A@G@@SA?AT__m128i@@T2@0@Z 0000000180094660 f i libucrtd:strnlen.obj
 0001:00093690       ?compute_byte_mask@?$__crt_simd_pack_traits@$00@@SAHT__m256i@@@Z 0000000180094690 f i libucrtd:strnlen.obj
 0001:000936b0       ?compute_byte_mask@?$__crt_simd_pack_traits@$0A@@@SAHT__m128i@@@Z 00000001800946b0 f i libucrtd:strnlen.obj
 0001:000936d0       ?get_zero_pack@?$__crt_simd_pack_traits@$00@@SA?AT__m256i@@XZ 00000001800946d0 f i libucrtd:strnlen.obj
 0001:00093700       ?get_zero_pack@?$__crt_simd_pack_traits@$0A@@@SA?AT__m128i@@XZ 0000000180094700 f i libucrtd:strnlen.obj
 0001:00093720       strnlen                    0000000180094720 f   libucrtd:strnlen.obj
 0001:00093750       wcslen                     0000000180094750 f   libucrtd:strnlen.obj
 0001:00093770       wcsnlen                    0000000180094770 f   libucrtd:strnlen.obj
 0001:000937a0       ??$__crt_fast_decode_pointer@P6AXPEB_W00I_K@Z@@YAP6AXPEB_W00I_K@ZQ6AX000I1@Z@Z 00000001800947a0 f i libucrtd:invalid_parameter.obj
 0001:000937e0       ??$__crt_fast_encode_pointer@P6AXPEB_W00I_K@Z@@YAP6AXPEB_W00I_K@ZQ6AX000I1@Z@Z 00000001800947e0 f i libucrtd:invalid_parameter.obj
 0001:00093820       ??$initialize_from_array@$$BY00Q6AXPEB_W00I_K@Z@?$dual_state_global@P6AXPEB_W00I_K@Z@__crt_state_management@@QEAAXAEAY00Q6AXPEB_W00I_K@Z@Z 0000000180094820 f i libucrtd:invalid_parameter.obj
 0001:00093880       ?__crt_rotate_pointer_value@@YA_K_KH@Z 0000000180094880 f i libucrtd:invalid_parameter.obj
 0001:00093940       ?check_synchronize_global_state_index@__crt_cached_ptd_host@@AEAA_KXZ 0000000180094940 f i libucrtd:invalid_parameter.obj
 0001:000939a0       ?dangerous_get_state_array@?$dual_state_global@P6AXPEB_W00I_K@Z@__crt_state_management@@QEAAPEAP6AXPEB_W00I_K@ZXZ 00000001800949a0 f i libucrtd:invalid_parameter.obj
 0001:000939b0       ?get_current_global_state_index@__crt_cached_ptd_host@@QEAA_KXZ 00000001800949b0 f i libucrtd:invalid_parameter.obj
 0001:000939d0       ?get_current_state_index@__crt_state_management@@YA_KXZ 00000001800949d0 f i libucrtd:invalid_parameter.obj
 0001:000939e0       ?get_raw_ptd_noexit@__crt_cached_ptd_host@@QEAAPEAU__acrt_ptd@@XZ 00000001800949e0 f i libucrtd:invalid_parameter.obj
 0001:00093a00       ?try_synchronize_per_thread_data@__crt_cached_ptd_host@@AEAAPEAU__acrt_ptd@@XZ 0000000180094a00 f i libucrtd:invalid_parameter.obj
 0001:00093a30       ?value@?$dual_state_global@P6AXPEB_W00I_K@Z@__crt_state_management@@QEAAAEAP6AXPEB_W00I_K@ZAEAV__crt_cached_ptd_host@@@Z 0000000180094a30 f i libucrtd:invalid_parameter.obj
 0001:00093a60       ?value@?$dual_state_global@P6AXPEB_W00I_K@Z@__crt_state_management@@QEAAAEAP6AXPEB_W00I_K@ZXZ 0000000180094a60 f i libucrtd:invalid_parameter.obj
 0001:00093a80       __acrt_call_reportfault    0000000180094a80 f   libucrtd:invalid_parameter.obj
 0001:00093bb0       __acrt_initialize_invalid_parameter_handler 0000000180094bb0 f   libucrtd:invalid_parameter.obj
 0001:00093be0       _get_invalid_parameter_handler 0000000180094be0 f   libucrtd:invalid_parameter.obj
 0001:00093c00       _get_thread_local_invalid_parameter_handler 0000000180094c00 f   libucrtd:invalid_parameter.obj
 0001:00093c30       _invalid_parameter         0000000180094c30 f   libucrtd:invalid_parameter.obj
 0001:00093ca0       _invalid_parameter_internal 0000000180094ca0 f   libucrtd:invalid_parameter.obj
 0001:00093df0       _invalid_parameter_noinfo  0000000180094df0 f   libucrtd:invalid_parameter.obj
 0001:00093e20       _invalid_parameter_noinfo_noreturn 0000000180094e20 f   libucrtd:invalid_parameter.obj
 0001:00093e60       _invoke_watson             0000000180094e60 f   libucrtd:invalid_parameter.obj
 0001:00093ec0       _set_invalid_parameter_handler 0000000180094ec0 f   libucrtd:invalid_parameter.obj
 0001:00093f10       _set_thread_local_invalid_parameter_handler 0000000180094f10 f   libucrtd:invalid_parameter.obj
 0001:00093f50       ?get_doserrno@__crt_cached_ptd_host@@QEAAAEAU?$cached@K@1@XZ 0000000180094f50 f i libucrtd:errno.obj
 0001:00093f60       ?set@?$cached@K@__crt_cached_ptd_host@@QEAAKK@Z 0000000180094f60 f i libucrtd:errno.obj
 0001:00093f90       __acrt_errno_from_os_error 0000000180094f90 f   libucrtd:errno.obj
 0001:00094020       __acrt_errno_map_os_error  0000000180095020 f   libucrtd:errno.obj
 0001:00094050       __acrt_errno_map_os_error_ptd 0000000180095050 f   libucrtd:errno.obj
 0001:000940b0       __doserrno                 00000001800950b0 f   libucrtd:errno.obj
 0001:000940e0       _errno                     00000001800950e0 f   libucrtd:errno.obj
 0001:00094110       _get_doserrno              0000000180095110 f   libucrtd:errno.obj
 0001:000941d0       _get_errno                 00000001800951d0 f   libucrtd:errno.obj
 0001:00094290       _set_doserrno              0000000180095290 f   libucrtd:errno.obj
 0001:000942d0       _set_errno                 00000001800952d0 f   libucrtd:errno.obj
 0001:00094310       calloc                     0000000180095310 f   libucrtd:calloc.obj
 0001:00094350       _recalloc                  0000000180095350 f   libucrtd:recalloc.obj
 0001:000943a0       _recalloc_base             00000001800953a0 f   libucrtd:recalloc.obj
 0001:00094480       _resetstkoflw              0000000180095480 f   libucrtd:resetstk.obj
 0001:00094c80       wcscat_s                   0000000180095c80 f   libucrtd:wcscat_s.obj
 0001:00095360       wcsncpy_s                  0000000180096360 f   libucrtd:wcsncpy_s.obj
 0001:000954e0       __isascii                  00000001800964e0 f   libucrtd:_ctype.obj
 0001:00095510       __iscsym                   0000000180096510 f   libucrtd:_ctype.obj
 0001:00095550       __iscsymf                  0000000180096550 f   libucrtd:_ctype.obj
 0001:00095590       __toascii                  0000000180096590 f   libucrtd:_ctype.obj
 0001:000955a0       _isalnum_l                 00000001800965a0 f   libucrtd:_ctype.obj
 0001:000955d0       _isalpha_l                 00000001800965d0 f   libucrtd:_ctype.obj
 0001:00095600       _isblank_l                 0000000180096600 f   libucrtd:_ctype.obj
 0001:00095630       _iscntrl_l                 0000000180096630 f   libucrtd:_ctype.obj
 0001:00095660       _iscsym_l                  0000000180096660 f   libucrtd:_ctype.obj
 0001:000956b0       _iscsymf_l                 00000001800966b0 f   libucrtd:_ctype.obj
 0001:00095700       _isdigit_l                 0000000180096700 f   libucrtd:_ctype.obj
 0001:00095730       _isgraph_l                 0000000180096730 f   libucrtd:_ctype.obj
 0001:00095760       _islower_l                 0000000180096760 f   libucrtd:_ctype.obj
 0001:00095790       _isprint_l                 0000000180096790 f   libucrtd:_ctype.obj
 0001:000957c0       _ispunct_l                 00000001800967c0 f   libucrtd:_ctype.obj
 0001:000957f0       _isspace_l                 00000001800967f0 f   libucrtd:_ctype.obj
 0001:00095820       _isupper_l                 0000000180096820 f   libucrtd:_ctype.obj
 0001:00095850       _isxdigit_l                0000000180096850 f   libucrtd:_ctype.obj
 0001:00095880       isalnum                    0000000180096880 f   libucrtd:_ctype.obj
 0001:000958a0       isalpha                    00000001800968a0 f   libucrtd:_ctype.obj
 0001:000958c0       isblank                    00000001800968c0 f   libucrtd:_ctype.obj
 0001:000958f0       iscntrl                    00000001800968f0 f   libucrtd:_ctype.obj
 0001:00095910       isdigit                    0000000180096910 f   libucrtd:_ctype.obj
 0001:00095930       isgraph                    0000000180096930 f   libucrtd:_ctype.obj
 0001:00095950       islower                    0000000180096950 f   libucrtd:_ctype.obj
 0001:00095970       isprint                    0000000180096970 f   libucrtd:_ctype.obj
 0001:00095990       ispunct                    0000000180096990 f   libucrtd:_ctype.obj
 0001:000959b0       isspace                    00000001800969b0 f   libucrtd:_ctype.obj
 0001:000959d0       isupper                    00000001800969d0 f   libucrtd:_ctype.obj
 0001:000959f0       isxdigit                   00000001800969f0 f   libucrtd:_ctype.obj
 0001:00095a10       wcscat                     0000000180096a10 f   libucrtd:wcscat.obj
 0001:00095aa0       wcscpy                     0000000180096aa0 f   libucrtd:wcscpy.obj
 0001:00096250       ??$open_file@AEBQEBDAEBQEBDAEBHPEAU_iobuf@@@?$__crt_char_traits@D@@SAPEAU_iobuf@@AEBQEBD0AEBH$$QEAPEAU1@@Z 0000000180097250 f i libucrtd:fopen.obj
 0001:000962a0       ??$open_file@AEBQEB_WAEBQEB_WAEBHPEAU_iobuf@@@?$__crt_char_traits@_W@@SAPEAU_iobuf@@AEBQEB_W0AEBH$$QEAPEAU1@@Z 00000001800972a0 f i libucrtd:fopen.obj
 0001:000962f0       ?unlock@__crt_stdio_stream@@QEBAXXZ 00000001800972f0 f i libucrtd:fopen.obj
 0001:00096310       _fsopen                    0000000180097310 f   libucrtd:fopen.obj
 0001:00096340       _wfopen                    0000000180097340 f   libucrtd:fopen.obj
 0001:00096370       _wfopen_s                  0000000180097370 f   libucrtd:fopen.obj
 0001:000963a0       _wfsopen                   00000001800973a0 f   libucrtd:fopen.obj
 0001:000963d0       fopen                      00000001800973d0 f   libucrtd:fopen.obj
 0001:00096400       fopen_s                    0000000180097400 f   libucrtd:fopen.obj
 0001:00096740       ?is_in_use@__crt_stdio_stream@@QEBA_NXZ 0000000180097740 f i libucrtd:fclose.obj
 0001:00096780       _fclose_nolock             0000000180097780 f   libucrtd:fclose.obj
 0001:000967c0       fclose                     00000001800977c0 f   libucrtd:fclose.obj
 0001:00096b00       _fputc_nolock              0000000180097b00 f   libucrtd:fputc.obj
 0001:00096b50       _fputc_nolock_internal     0000000180097b50 f   libucrtd:fputc.obj
 0001:00096c10       _fputchar                  0000000180097c10 f   libucrtd:fputc.obj
 0001:00096c40       _putc_nolock               0000000180097c40 f   libucrtd:fputc.obj
 0001:00096c60       fputc                      0000000180097c60 f   libucrtd:fputc.obj
 0001:00096cb0       putc                       0000000180097cb0 f   libucrtd:fputc.obj
 0001:00096cd0       putchar                    0000000180097cd0 f   libucrtd:fputc.obj
 0001:00096d60       _seh_filter_dll            0000000180097d60 f   libucrtd:exception_filter.obj
 0001:00096d90       _seh_filter_exe            0000000180097d90 f   libucrtd:exception_filter.obj
 0001:00097060       ??$?B$$A6AXPEAXK0@Z@__crt_fast_encoded_nullptr_t@@QEBAP6AXPEAXK0@ZXZ 0000000180098060 f i libucrtd:exit.obj
 0001:00097120       ??$__crt_fast_decode_pointer@P6AXPEAXK0@Z@@YAP6AXPEAXK0@ZQ6AX0K0@Z@Z 0000000180098120 f i libucrtd:exit.obj
 0001:00097160       ??$__crt_fast_encode_pointer@P6AXPEAXK0@Z@@YAP6AXPEAXK0@ZQ6AX0K0@Z@Z 0000000180098160 f i libucrtd:exit.obj
 0001:000971a0       ??$__crt_get_proc_address@P6AXI@Z@@YAP6AXI@ZQEAUHINSTANCE__@@QEBD@Z 00000001800981a0 f i libucrtd:exit.obj
 0001:00097260       ??0?$__crt_unique_handle_t@U__crt_hmodule_traits@@@@QEAA@QEAUHINSTANCE__@@@Z 0000000180098260 f i libucrtd:exit.obj
 0001:00097280       ??1?$__crt_unique_handle_t@U__crt_hmodule_traits@@@@QEAA@XZ 0000000180098280 f i libucrtd:exit.obj
 0001:00097400       ?__acrt_select_exit_lock@@YA?AW4__acrt_lock_id@@XZ 0000000180098400 f i libucrtd:exit.obj
 0001:00097410       ?__crt_fast_encode_pointer@@YA?AU__crt_fast_encoded_nullptr_t@@$$T@Z 0000000180098410 f i libucrtd:exit.obj
 0001:00097450       ?close@?$__crt_unique_handle_t@U__crt_hmodule_traits@@@@QEAAXXZ 0000000180098450 f i libucrtd:exit.obj
 0001:00097490       ?close@__crt_hmodule_traits@@SA_NPEAUHINSTANCE__@@@Z 0000000180098490 f i libucrtd:exit.obj
 0001:000975b0       ?get@?$__crt_unique_handle_t@U__crt_hmodule_traits@@@@QEBAPEAUHINSTANCE__@@XZ 00000001800985b0 f i libucrtd:exit.obj
 0001:000975c0       ?get_address_of@?$__crt_unique_handle_t@U__crt_hmodule_traits@@@@QEAAPEAPEAUHINSTANCE__@@XZ 00000001800985c0 f i libucrtd:exit.obj
 0001:000975d0       ?get_invalid_value@__crt_hmodule_traits@@SAPEAUHINSTANCE__@@XZ 00000001800985d0 f i libucrtd:exit.obj
 0001:000977b0       _Exit                      00000001800987b0 f   libucrtd:exit.obj
 0001:000977d0       __acrt_initialize_thread_local_exit_callback 00000001800987d0 f   libucrtd:exit.obj
 0001:000977f0       _c_exit                    00000001800987f0 f   libucrtd:exit.obj
 0001:00097810       _cexit                     0000000180098810 f   libucrtd:exit.obj
 0001:00097830       _exit                      0000000180098830 f   libucrtd:exit.obj
 0001:00097850       _is_c_termination_complete 0000000180098850 f   libucrtd:exit.obj
 0001:00097870       _register_thread_local_exe_atexit_callback 0000000180098870 f   libucrtd:exit.obj
 0001:000978c0       exit                       00000001800988c0 f   libucrtd:exit.obj
 0001:000978e0       quick_exit                 00000001800988e0 f   libucrtd:exit.obj
 0001:00097900       ??$?RE@__crt_internal_free_policy@@QEBAXQEBE@Z 0000000180098900 f i libucrtd:argv_parsing.obj
 0001:00097930       ??$?RPEAD@__crt_internal_free_policy@@QEBAXQEBQEAD@Z 0000000180098930 f i libucrtd:argv_parsing.obj
 0001:00097960       ??$?RPEA_W@__crt_internal_free_policy@@QEBAXQEBQEA_W@Z 0000000180098960 f i libucrtd:argv_parsing.obj
 0001:000980b0       ??$get_module_file_name@$$TAEAY0BAF@DH@?$__crt_char_traits@D@@SAK$$QEA$$TAEAY0BAF@D$$QEAH@Z 00000001800990b0 f i libucrtd:argv_parsing.obj
 0001:000980f0       ??$get_module_file_name@$$TAEAY0BAF@_WH@?$__crt_char_traits@_W@@SAK$$QEA$$TAEAY0BAF@_W$$QEAH@Z 00000001800990f0 f i libucrtd:argv_parsing.obj
 0001:00098af0       ??$set_program_name@PEAD@?$__crt_char_traits@D@@SAX$$QEAPEAD@Z 0000000180099af0 f i libucrtd:argv_parsing.obj
 0001:00098b10       ??$set_program_name@PEA_W@?$__crt_char_traits@_W@@SAX$$QEAPEA_W@Z 0000000180099b10 f i libucrtd:argv_parsing.obj
 0001:00098b70       ??0?$__crt_unique_heap_ptr@EU__crt_internal_free_policy@@@@QEAA@QEAE@Z 0000000180099b70 f i libucrtd:argv_parsing.obj
 0001:00098b90       ??0?$__crt_unique_heap_ptr@PEADU__crt_internal_free_policy@@@@QEAA@QEAPEAD@Z 0000000180099b90 f i libucrtd:argv_parsing.obj
 0001:00098bb0       ??0?$__crt_unique_heap_ptr@PEA_WU__crt_internal_free_policy@@@@QEAA@QEAPEA_W@Z 0000000180099bb0 f i libucrtd:argv_parsing.obj
 0001:00098bd0       ??1?$__crt_unique_heap_ptr@EU__crt_internal_free_policy@@@@QEAA@XZ 0000000180099bd0 f i libucrtd:argv_parsing.obj
 0001:00098bf0       ??1?$__crt_unique_heap_ptr@PEADU__crt_internal_free_policy@@@@QEAA@XZ 0000000180099bf0 f i libucrtd:argv_parsing.obj
 0001:00098c10       ??1?$__crt_unique_heap_ptr@PEA_WU__crt_internal_free_policy@@@@QEAA@XZ 0000000180099c10 f i libucrtd:argv_parsing.obj
 0001:00098c30       ??B?$__crt_unique_heap_ptr@EU__crt_internal_free_policy@@@@QEBA_NXZ 0000000180099c30 f i libucrtd:argv_parsing.obj
 0001:00098d10       ?detach@?$__crt_unique_heap_ptr@EU__crt_internal_free_policy@@@@QEAAPEAEXZ 0000000180099d10 f i libucrtd:argv_parsing.obj
 0001:00098d40       ?detach@?$__crt_unique_heap_ptr@PEADU__crt_internal_free_policy@@@@QEAAPEAPEADXZ 0000000180099d40 f i libucrtd:argv_parsing.obj
 0001:00098d70       ?detach@?$__crt_unique_heap_ptr@PEA_WU__crt_internal_free_policy@@@@QEAAPEAPEA_WXZ 0000000180099d70 f i libucrtd:argv_parsing.obj
 0001:00098e30       ?get@?$__crt_unique_heap_ptr@EU__crt_internal_free_policy@@@@QEBAPEAEXZ 0000000180099e30 f i libucrtd:argv_parsing.obj
