 OPOSCoinDispenser

 Timestamp is 5ed457ca (Mon Jun  1 10:20:10 2020)

 Preferred load address is 0000000180000000

 Start         Length     Name                   Class
 0001:00000000 00001400H .text$di                CODE
 0001:00001400 000d44a0H .text$mn                CODE
 0001:000d58a0 00000040H .text$mn$00             CODE
 0001:000d58e0 00001390H .text$x                 CODE
 0001:000d6c70 000001b4H .text$yd                CODE
 0002:00000000 000006d8H .idata$5                DATA
 0002:000006d8 00000028H .00cfg                  DATA
 0002:00000700 00000008H .CRT$XCA                DATA
 0002:00000708 00000008H .CRT$XCL                DATA
 0002:00000710 000000d8H .CRT$XCU                DATA
 0002:000007e8 00000008H .CRT$XCZ                DATA
 0002:000007f0 00000008H .CRT$XIA                DATA
 0002:000007f8 00000028H .CRT$XIC                DATA
 0002:00000820 00000008H .CRT$XIZ                DATA
 0002:00000828 00000008H .CRT$XLA                DATA
 0002:00000830 00000008H .CRT$XLZ                DATA
 0002:00000838 00000008H .CRT$XPA                DATA
 0002:00000840 00000010H .CRT$XPX                DATA
 0002:00000850 00000008H .CRT$XPXA               DATA
 0002:00000858 00000008H .CRT$XPZ                DATA
 0002:00000860 00000008H .CRT$XTA                DATA
 0002:00000868 00000008H .CRT$XTZ                DATA
 0002:00000870 00000000H .gfids$y                DATA
 0002:00000870 0003b680H .rdata                  DATA
 0002:0003bef0 00000028H .rdata$T                DATA
 0002:0003bf18 0000056cH .rdata$r                DATA
 0002:0003c484 00000434H .rdata$zzzdbg           DATA
 0002:0003c8b8 00000008H .rtc$IAA                DATA
 0002:0003c8c0 00000030H .rtc$IMZ                DATA
 0002:0003c8f0 00000008H .rtc$IZZ                DATA
 0002:0003c8f8 00000008H .rtc$TAA                DATA
 0002:0003c900 00000030H .rtc$TMZ                DATA
 0002:0003c930 00000008H .rtc$TZZ                DATA
 0002:0003c938 00000004H .tls                    DATA
 0002:0003c93c 00000004H .tls$                   DATA
 0002:0003c940 00000010H .tls$ZZZ                DATA
 0002:0003c950 00009758H .xdata                  DATA
 0002:000460a8 00000150H .xdata$x                DATA
 0002:000461f8 00000008H ATL$__a                 DATA
 0002:00046200 00000010H ATL$__z                 DATA
 0002:00046210 000000b0H .edata                  DATA
 0002:000462c0 00000078H .idata$2                DATA
 0002:00046338 00000018H .idata$3                DATA
 0002:00046350 000006d8H .idata$4                DATA
 0002:00046a28 00000dbeH .idata$6                DATA
 0003:00000000 00000ed8H .data                   DATA
 0003:00000ed8 00000198H .data$r                 DATA
 0003:00001070 00003e9cH .bss                    DATA
 0004:00000000 0000c0ccH .pdata                  DATA
 0005:00000000 00000094H _RDATA                  DATA
 0006:00000000 00000220H .rsrc$01                DATA
 0006:00000220 00003b08H .rsrc$02                DATA

  Address         Publics by Value              Rva+Base               Lib:Object

 0000:00000000       __guard_iat_table          0000000000000000     <absolute>
 0000:00000000       __hybrid_auxiliary_iat     0000000000000000     <absolute>
 0000:00000000       __volatile_metadata        0000000000000000     <absolute>
 0000:00000000       __x64_code_ranges_to_entry_points 0000000000000000     <absolute>
 0000:00000000       __hybrid_code_map          0000000000000000     <absolute>
 0000:00000000       __guard_eh_cont_count      0000000000000000     <absolute>
 0000:00000000       __guard_iat_count          0000000000000000     <absolute>
 0000:00000000       __arm64x_native_entrypoint 0000000000000000     <absolute>
 0000:00000000       ___safe_se_handler_count   0000000000000000     <absolute>
 0000:00000000       __hybrid_code_map_count    0000000000000000     <absolute>
 0000:00000000       __arm64x_redirection_metadata 0000000000000000     <absolute>
 0000:00000000       __guard_fids_table         0000000000000000     <absolute>
 0000:00000000       ___safe_se_handler_table   0000000000000000     <absolute>
 0000:00000000       __AbsoluteZero             0000000000000000     <absolute>
 0000:00000000       __dynamic_value_reloc_table 0000000000000000     <absolute>
 0000:00000000       __enclave_config           0000000000000000     <absolute>
 0000:00000000       __guard_longjmp_table      0000000000000000     <absolute>
 0000:00000000       __guard_fids_count         0000000000000000     <absolute>
 0000:00000000       __guard_eh_cont_table      0000000000000000     <absolute>
 0000:00000000       __guard_longjmp_count      0000000000000000     <absolute>
 0000:00000100       __guard_flags              0000000000000100     <absolute>
 0000:00000000       __ImageBase                0000000180000000     <linker-defined>
 0001:00001400       ?_assert@@YAXPEB_W0I@Z     0000000180002400 f   Assert.obj
 0001:00001500       __local_stdio_printf_options 0000000180002500 f i Assert.obj
 0001:00001510       __vswprintf_l              0000000180002510 f i Assert.obj
 0001:00001570       _swprintf                  0000000180002570 f i Assert.obj
 0001:000015f0       _vswprintf_c_l             00000001800025f0 f i Assert.obj
 0001:00001680       _vswprintf_l               0000000180002680 f i Assert.obj
 0001:000016e0       ?cw_memcpy@@YAHPEADPEB_WH@Z 00000001800026e0 f   CWString.obj
 0001:00001770       ?cw_memcpy@@YAHPEA_WPEBDH@Z 0000000180002770 f   CWString.obj
 0001:000017f0       ?cw_memcpy@@YAHPEADPEBDH@Z 00000001800027f0 f   CWString.obj
 0001:00001890       ?cw_memcpy@@YAHPEA_WPEB_WH@Z 0000000180002890 f   CWString.obj
 0001:00001900       ?cw_memset@@YAXPEADDH@Z    0000000180002900 f   CWString.obj
 0001:00001970       ?cw_memset@@YAXPEA_W_WH@Z  0000000180002970 f   CWString.obj
 0001:00001a10       ?cw_strlen@@YAHPEBD@Z      0000000180002a10 f   CWString.obj
 0001:00001a80       ?cw_strlen@@YAHPEB_W@Z     0000000180002a80 f   CWString.obj
 0001:00001af0       ?cw_strcpy@@YAHPEADPEB_W@Z 0000000180002af0 f   CWString.obj
 0001:00001b40       ?cw_strcpy@@YAHPEA_WPEBD@Z 0000000180002b40 f   CWString.obj
 0001:00001b90       ?cw_strcpy@@YAHPEADPEBD@Z  0000000180002b90 f   CWString.obj
 0001:00001be0       ?cw_strcpy@@YAHPEA_WPEB_W@Z 0000000180002be0 f   CWString.obj
 0001:00001c30       ?cw_strcat@@YAHPEADPEB_W@Z 0000000180002c30 f   CWString.obj
 0001:00001c90       ?cw_strcat@@YAHPEA_WPEBD@Z 0000000180002c90 f   CWString.obj
 0001:00001cf0       ?cw_strcat@@YAHPEADPEBD@Z  0000000180002cf0 f   CWString.obj
 0001:00001d50       ?cw_strcat@@YAHPEA_WPEB_W@Z 0000000180002d50 f   CWString.obj
 0001:00001db0       ?cw_dup@@YAXPEBDAEAHAEAPEA_W1@Z 0000000180002db0 f   CWString.obj
 0001:00001ec0       ?cw_dup@@YAXPEB_WAEAHAEAPEAD1@Z 0000000180002ec0 f   CWString.obj
 0001:00001fb0       ?DupChar@_CW@@AEAAXXZ      0000000180002fb0 f   CWString.obj
 0001:00002010       ?DupWide@_CW@@AEAAXXZ      0000000180003010 f   CWString.obj
 0001:00002080       ?GetCharsMbcs@_CW@@QEAAHXZ 0000000180003080 f   CWString.obj
 0001:000020f0       ?GetCharsWide@_CW@@QEAAHXZ 00000001800030f0 f   CWString.obj
 0001:00002160       ?SetVARIANT_BOOL@OposVariant@@QEAAXF@Z 0000000180003160 f   OposVariant.obj
 0001:000021d0       ?SetVARIANT_BOOL_Ptr@OposVariant@@QEAAXPEAFAEAJ@Z 00000001800031d0 f   OposVariant.obj
 0001:00002240       ?GetLONG@OposVariant@@QEAAJXZ 0000000180003240 f   OposVariant.obj
 0001:000022a0       ?ChangeLONG@OposVariant@@QEAAXPEAJAEAJ@Z 00000001800032a0 f   OposVariant.obj
 0001:00002350       ?SetLONG@OposVariant@@QEAAXJ@Z 0000000180003350 f   OposVariant.obj
 0001:000023b0       ?SetLONG_Ptr@OposVariant@@QEAAXPEAJAEAJ@Z 00000001800033b0 f   OposVariant.obj
 0001:00002420       ?ChangeCURRENCY@OposVariant@@QEAAXPEATtagCY@@AEAJ@Z 0000000180003420 f   OposVariant.obj
 0001:000024d0       ?SetCURRENCY@OposVariant@@QEAAXTtagCY@@@Z 00000001800034d0 f   OposVariant.obj
 0001:00002530       ?SetCURRENCY_Ptr@OposVariant@@QEAAXPEATtagCY@@AEAJ@Z 0000000180003530 f   OposVariant.obj
 0001:000025a0       ?ChangeBSTR@OposVariant@@QEAAXPEAPEA_WAEAJ@Z 00000001800035a0 f   OposVariant.obj
 0001:00002650       ?SetBSTR@OposVariant@@QEAAXPEA_WAEAJ@Z 0000000180003650 f   OposVariant.obj
 0001:000026d0       ?SetBSTR_Copy@OposVariant@@QEAAXPEA_WAEAJ@Z 00000001800036d0 f   OposVariant.obj
 0001:00002780       ?SetBSTR_OutPtr@OposVariant@@QEAA_NPEAPEA_WAEAJ@Z 0000000180003780 f   OposVariant.obj
 0001:000027f0       ?SetBSTR_InOutPtr@OposVariant@@QEAA_NPEAPEA_WAEAJ@Z 00000001800037f0 f   OposVariant.obj
 0001:00002870       ?SetVARIANT@OposVariant@@QEAAXAEAUtagVARIANT@@GAEAJ@Z 0000000180003870 f   OposVariant.obj
 0001:00002910       ?SetVARIANT_Ptr@OposVariant@@QEAAXAEAPEAUtagVARIANT@@GAEAJ@Z 0000000180003910 f   OposVariant.obj
 0001:000029c0       ?SetString@OposVariant@@QEAAXPEB_WAEAJ@Z 00000001800039c0 f   OposVariant.obj
 0001:00002a70       ?SetDispatch_Ptr@OposVariant@@QEAAXPEAUIDispatch@@AEAJ@Z 0000000180003a70 f   OposVariant.obj
 0001:00002b00       ??0OposDispParms@@QEAA@PEAVOposVariant@@H@Z 0000000180003b00 f   OposVariant.obj
 0001:00002c10       ??1OposDispParms@@QEAA@XZ  0000000180003c10 f   OposVariant.obj
 0001:00002c60       ??$AtlMultiply@_K@ATL@@YAJPEA_K_K1@Z 0000000180003c60 f i OposVariant.obj
 0001:00002ce0       ??0?$CHeapPtr@_WVCCRTAllocator@ATL@@@ATL@@QEAA@XZ 0000000180003ce0 f i OposVariant.obj
 0001:00002d20       ??0?$CHeapPtrBase@_WVCCRTAllocator@ATL@@@ATL@@IEAA@XZ 0000000180003d20 f i OposVariant.obj
 0001:00002d40       ??0?$CSimpleArray@GV?$CSimpleArrayEqualHelper@G@ATL@@@ATL@@QEAA@XZ 0000000180003d40 f i OposVariant.obj
 0001:00002d80       ??0?$CTraceCategoryEx@$00$0A@@ATL@@QEAA@PEB_W@Z 0000000180003d80 f i OposVariant.obj
 0001:00002dc0       ??0?$CTraceCategoryEx@$01$0A@@ATL@@QEAA@PEB_W@Z 0000000180003dc0 f i OposVariant.obj
 0001:00002e00       ??0?$CTraceCategoryEx@$03$0A@@ATL@@QEAA@PEB_W@Z 0000000180003e00 f i OposVariant.obj
 0001:00002e40       ??0?$CTraceCategoryEx@$07$0A@@ATL@@QEAA@PEB_W@Z 0000000180003e40 f i OposVariant.obj
 0001:00002e80       ??0?$CTraceCategoryEx@$0BA@$0A@@ATL@@QEAA@PEB_W@Z 0000000180003e80 f i OposVariant.obj
 0001:00002ec0       ??0?$CTraceCategoryEx@$0BAA@$0A@@ATL@@QEAA@PEB_W@Z 0000000180003ec0 f i OposVariant.obj
 0001:00002f00       ??0?$CTraceCategoryEx@$0BAAA@$0A@@ATL@@QEAA@PEB_W@Z 0000000180003f00 f i OposVariant.obj
 0001:00002f40       ??0?$CTraceCategoryEx@$0BAAAA@$0A@@ATL@@QEAA@PEB_W@Z 0000000180003f40 f i OposVariant.obj
 0001:00002f80       ??0?$CTraceCategoryEx@$0BAAAAA@$0A@@ATL@@QEAA@PEB_W@Z 0000000180003f80 f i OposVariant.obj
 0001:00002fc0       ??0?$CTraceCategoryEx@$0CA@$0A@@ATL@@QEAA@PEB_W@Z 0000000180003fc0 f i OposVariant.obj
 0001:00003000       ??0?$CTraceCategoryEx@$0CAA@$0A@@ATL@@QEAA@PEB_W@Z 0000000180004000 f i OposVariant.obj
 0001:00003040       ??0?$CTraceCategoryEx@$0CAAA@$0A@@ATL@@QEAA@PEB_W@Z 0000000180004040 f i OposVariant.obj
 0001:00003080       ??0?$CTraceCategoryEx@$0CAAAA@$0A@@ATL@@QEAA@PEB_W@Z 0000000180004080 f i OposVariant.obj
 0001:000030c0       ??0?$CTraceCategoryEx@$0CAAAAA@$0A@@ATL@@QEAA@PEB_W@Z 00000001800040c0 f i OposVariant.obj
 0001:00003100       ??0?$CTraceCategoryEx@$0EA@$0A@@ATL@@QEAA@PEB_W@Z 0000000180004100 f i OposVariant.obj
 0001:00003140       ??0?$CTraceCategoryEx@$0EAA@$0A@@ATL@@QEAA@PEB_W@Z 0000000180004140 f i OposVariant.obj
 0001:00003180       ??0?$CTraceCategoryEx@$0EAAA@$0A@@ATL@@QEAA@PEB_W@Z 0000000180004180 f i OposVariant.obj
 0001:000031c0       ??0?$CTraceCategoryEx@$0EAAAA@$0A@@ATL@@QEAA@PEB_W@Z 00000001800041c0 f i OposVariant.obj
 0001:00003200       ??0?$CTraceCategoryEx@$0EAAAAA@$0A@@ATL@@QEAA@PEB_W@Z 0000000180004200 f i OposVariant.obj
 0001:00003240       ??0?$CTraceCategoryEx@$0IA@$0A@@ATL@@QEAA@PEB_W@Z 0000000180004240 f i OposVariant.obj
 0001:00003280       ??0?$CTraceCategoryEx@$0IAA@$0A@@ATL@@QEAA@PEB_W@Z 0000000180004280 f i OposVariant.obj
 0001:000032c0       ??0?$CTraceCategoryEx@$0IAAA@$0A@@ATL@@QEAA@PEB_W@Z 00000001800042c0 f i OposVariant.obj
 0001:00003300       ??0?$CTraceCategoryEx@$0IAAAA@$0A@@ATL@@QEAA@PEB_W@Z 0000000180004300 f i OposVariant.obj
 0001:00003340       ??0CAtlComModule@ATL@@QEAA@XZ 0000000180004340 f i OposVariant.obj
 0001:00003460       ??0CAtlWinModule@ATL@@QEAA@XZ 0000000180004460 f i OposVariant.obj
 0001:00003510       ??0CComCriticalSection@ATL@@QEAA@XZ 0000000180004510 f i OposVariant.obj
 0001:00003550       ??0CPreserveLastError@ATL@@QEAA@XZ 0000000180004550 f i OposVariant.obj
 0001:00003590       ??0CTraceFileAndLineInfo@ATL@@QEAA@PEBDH@Z 0000000180004590 f i OposVariant.obj
 0001:000035c0       ??0_ATL_COM_MODULE70@ATL@@QEAA@XZ 00000001800045c0 f i OposVariant.obj
 0001:00003600       ??0_ATL_WIN_MODULE70@ATL@@QEAA@XZ 0000000180004600 f i OposVariant.obj
 0001:00003650       ??1?$CHeapPtr@_WVCCRTAllocator@ATL@@@ATL@@QEAA@XZ 0000000180004650 f i OposVariant.obj
 0001:00003680       ??1?$CHeapPtrBase@_WVCCRTAllocator@ATL@@@ATL@@QEAA@XZ 0000000180004680 f i OposVariant.obj
 0001:000036b0       ??1?$CSimpleArray@GV?$CSimpleArrayEqualHelper@G@ATL@@@ATL@@QEAA@XZ 00000001800046b0 f i OposVariant.obj
 0001:000036e0       ??1CAtlComModule@ATL@@QEAA@XZ 00000001800046e0 f i OposVariant.obj
 0001:00003720       ??1CAtlWinModule@ATL@@QEAA@XZ 0000000180004720 f i OposVariant.obj
 0001:00003760       ??1CComBSTR@ATL@@QEAA@XZ   0000000180004760 f i OposVariant.obj
 0001:000037a0       ??1CComCriticalSection@ATL@@QEAA@XZ 00000001800047a0 f i OposVariant.obj
 0001:000037b0       ??1CPreserveLastError@ATL@@QEAA@XZ 00000001800047b0 f i OposVariant.obj
 0001:000037f0       ??1_ATL_COM_MODULE70@ATL@@QEAA@XZ 00000001800047f0 f i OposVariant.obj
 0001:00003830       ??1_ATL_WIN_MODULE70@ATL@@QEAA@XZ 0000000180004830 f i OposVariant.obj
 0001:00003880       ??1stringdispid@CComTypeInfoHolder@ATL@@QEAA@XZ 0000000180004880 f i OposVariant.obj
 0001:000038c0       ??A?$CSimpleArray@GV?$CSimpleArrayEqualHelper@G@ATL@@@ATL@@QEAAAEAGH@Z 00000001800048c0 f i OposVariant.obj
 0001:00003970       ??B?$CHeapPtrBase@_WVCCRTAllocator@ATL@@@ATL@@QEBAPEA_WXZ 0000000180004970 f i OposVariant.obj
 0001:00003980       ??B?$CTraceCategoryEx@$01$0A@@ATL@@QEAAIXZ 0000000180004980 f i OposVariant.obj
 0001:00003990       ??B?$CTraceCategoryEx@$0CA@$0A@@ATL@@QEAAIXZ 0000000180004990 f i OposVariant.obj
 0001:000039a0       ??RCTraceFileAndLineInfo@ATL@@QEBAXHIPEB_WZZ 00000001800049a0 f i OposVariant.obj
 0001:00003a50       ??_Estringdispid@CComTypeInfoHolder@ATL@@QEAAPEAXI@Z 0000000180004a50 f i OposVariant.obj
 0001:00003b00       ??_H@YAXPEAX_K1P6APEAX0@Z@Z 0000000180004b00 f i OposVariant.obj
 0001:00003b90       ??_I@YAXPEAX_K1P6AX0@Z@Z   0000000180004b90 f i OposVariant.obj
 0001:00003c40       ?Allocate@?$CHeapPtr@_WVCCRTAllocator@ATL@@@ATL@@QEAA_N_K@Z 0000000180004c40 f i OposVariant.obj
 0001:00003cc0       ?Allocate@CCRTAllocator@ATL@@SAPEAX_K@Z 0000000180004cc0 f i OposVariant.obj
 0001:00003cf0       ?AllocateBytes@?$CHeapPtrBase@_WVCCRTAllocator@ATL@@@ATL@@QEAA_N_K@Z 0000000180004cf0 f i OposVariant.obj
 0001:00003d90       ?AtlWinModuleInit@ATL@@YAJPEAU_ATL_WIN_MODULE70@1@@Z 0000000180004d90 f i OposVariant.obj
 0001:00003e90       ?AtlWinModuleTerm@ATL@@YAJPEAU_ATL_WIN_MODULE70@1@PEAUHINSTANCE__@@@Z 0000000180004e90 f i OposVariant.obj
 0001:00003f80       ?Clear@OposVariant@@QEAAJXZ 0000000180004f80 f i OposVariant.obj
 0001:00003fc0       ?Free@?$CHeapPtrBase@_WVCCRTAllocator@ATL@@@ATL@@QEAAXXZ 0000000180004fc0 f i OposVariant.obj
 0001:00004000       ?Free@CCRTAllocator@ATL@@SAXPEAX@Z 0000000180005000 f i OposVariant.obj
 0001:00004030       ?GetCategoryName@CTrace@ATL@@CAPEA_WI@Z 0000000180005030 f i OposVariant.obj
 0001:000040b0       ?GetModuleInstance@CAtlBaseModule@ATL@@QEAAPEAUHINSTANCE__@@XZ 00000001800050b0 f i OposVariant.obj
 0001:000040d0       ?GetSize@?$CSimpleArray@GV?$CSimpleArrayEqualHelper@G@ATL@@@ATL@@QEBAHXZ 00000001800050d0 f i OposVariant.obj
 0001:000040e0       ?Init@CComCriticalSection@ATL@@QEAAJXZ 00000001800050e0 f i OposVariant.obj
 0001:00004140       ?RegisterCategory@CTrace@ATL@@SAXPEB_WI@Z 0000000180005140 f i OposVariant.obj
 0001:00004220       ?RemoveAll@?$CSimpleArray@GV?$CSimpleArrayEqualHelper@G@ATL@@@ATL@@QEAAXXZ 0000000180005220 f i OposVariant.obj
 0001:000042b0       ?Term@CAtlComModule@ATL@@QEAAXXZ 00000001800052b0 f i OposVariant.obj
 0001:00004390       ?Term@CAtlWinModule@ATL@@QEAAXXZ 0000000180005390 f i OposVariant.obj
 0001:000043d0       ?Term@CComCriticalSection@ATL@@QEAAJXZ 00000001800053d0 f i OposVariant.obj
 0001:00004410       ?TraceV@CTrace@ATL@@CAXPEBDHIIPEB_W@Z 0000000180005410 f i OposVariant.obj
 0001:000046c0       ?TraceV@CTrace@ATL@@SAXPEBDHIIPEB_WPEAD@Z 00000001800056c0 f i OposVariant.obj
 0001:00004870       ?_AtlInitializeCriticalSectionEx@ATL@@YAHPEAU_RTL_CRITICAL_SECTION@@KK@Z 0000000180005870 f i OposVariant.obj
 0001:000048c0       ?_AtlRaiseException@ATL@@YAXKK@Z 00000001800058c0 f i OposVariant.obj
 0001:00004900       HRESULT_FROM_WIN32         0000000180005900 f i OposVariant.obj
 0001:00004950       _vswprintf_s_l             0000000180005950 f i OposVariant.obj
 0001:000049e0       swprintf_s                 00000001800059e0 f i OposVariant.obj
 0001:00004a70       ?ObjectMain@CComObjectRootBase@ATL@@SAX_N@Z 0000000180005a70 f i CoinDispenser.obj
 0001:00004a80       ?GetCategoryMap@CComObjectRootBase@ATL@@SAPEBU_ATL_CATMAP_ENTRY@2@XZ 0000000180005a80 f i CoinDispenser.obj
 0001:00004a90       ?GetObjectDescription@?$CComCoClass@VCOPOSCoinDispenser@@$1?CLSID_OPOSCoinDispenser@@3U_GUID@@B@ATL@@SAPEB_WXZ 0000000180005a90 f i CoinDispenser.obj
 0001:00004aa0       ?UpdateRegistry@COPOSCoinDispenser@@SAJH@Z 0000000180005aa0 f i CoinDispenser.obj
 0001:00004ae0       ?CreateInstance@?$CComCreator@V?$CComObjectCached@VCComClassFactory@ATL@@@ATL@@@ATL@@SAJPEAXAEBU_GUID@@PEAPEAX@Z 0000000180005ae0 f i CoinDispenser.obj
 0001:00004cd0       ?CreateInstance@?$CComCreator2@V?$CComCreator@V?$CComObject@VCOPOSCoinDispenser@@@ATL@@@ATL@@V?$CComCreator@V?$CComAggObject@VCOPOSCoinDispenser@@@ATL@@@2@@ATL@@SAJPEAXAEBU_GUID@@PEAPEAX@Z 0000000180005cd0 f i CoinDispenser.obj
 0001:00004ee0       DllGetClassObject          0000000180005ee0 f   CoinDispenser.obj
 0001:00004f30       DllCanUnloadNow            0000000180005f30 f   CoinDispenser.obj
 0001:00004f80       DllRegisterServer          0000000180005f80 f   CoinDispenser.obj
 0001:00004fc0       DllUnregisterServer        0000000180005fc0 f   CoinDispenser.obj
 0001:000051c0       DllMain                    00000001800061c0 f   CoinDispenser.obj
 0001:00005240       ??$?2G@Wrapper@?$CSimpleArray@GV?$CSimpleArrayEqualHelper@G@ATL@@@ATL@@SAPEAX_KPEAG@Z 0000000180006240 f i CoinDispenser.obj
 0001:00005260       ??$?2PEA_W@?$Wrapper@PEA_W@?$CSimpleMap@PEA_WPEA_WVCExpansionVectorEqualHelper@ATL@@@ATL@@SAPEAX_KPEAPEA_W@Z 0000000180006260 f i CoinDispenser.obj
 0001:00005280       ??$?4UITypeInfo2@@@?$CComPtr@UITypeInfo@@@ATL@@QEAAPEAUITypeInfo@@AEBV?$CComPtr@UITypeInfo2@@@1@@Z 0000000180006280 f i CoinDispenser.obj
 0001:000052f0       ??$AtlAdd@_K@ATL@@YAJPEA_K_K1@Z 00000001800062f0 f i CoinDispenser.obj
 0001:00005360       ??$AtlAddThrow@_K@ATL@@YA_K_K0@Z 0000000180006360 f i CoinDispenser.obj
 0001:000053d0       ??$AtlModuleRegisterWndClassInfoT@VAtlModuleRegisterWndClassInfoParamW@ATL@@@ATL@@YAGPEAU_ATL_BASE_MODULE70@0@PEAU_ATL_WIN_MODULE70@0@PEAU_ATL_WNDCLASSINFOW@0@PEAP6A_JPEAUHWND__@@I_K_J@ZVAtlModuleRegisterWndClassInfoParamW@0@@Z 00000001800063d0 f i CoinDispenser.obj
 0001:000059a0       ??$AtlMultiply@H@ATL@@YAJPEAHHH@Z 00000001800069a0 f i CoinDispenser.obj
 0001:00005a10       ??$AtlMultiply@K@ATL@@YAJPEAKKK@Z 0000000180006a10 f i CoinDispenser.obj
 0001:00005a80       ??$AtlMultiplyThrow@_K@ATL@@YA_K_K0@Z 0000000180006a80 f i CoinDispenser.obj
 0001:00005af0       ??$QueryInterface@UIPersistStream@@@IUnknown@@QEAAJPEAPEAUIPersistStream@@@Z 0000000180006af0 f i CoinDispenser.obj
 0001:00005b40       ??$QueryInterface@UITypeInfo2@@@IUnknown@@QEAAJPEAPEAUITypeInfo2@@@Z 0000000180006b40 f i CoinDispenser.obj
 0001:00005b90       ??0?$CAtlModuleT@VCComModule@ATL@@@ATL@@QEAA@XZ 0000000180006b90 f i CoinDispenser.obj
 0001:00005bd0       ??0?$CAtlSafeAllocBufferManager@VCCRTAllocator@ATL@@@_ATL_SAFE_ALLOCA_IMPL@ATL@@QEAA@XZ 0000000180006bd0 f i CoinDispenser.obj
 0001:00005bf0       ??0?$CAutoVectorPtr@_W@ATL@@QEAA@XZ 0000000180006bf0 f i CoinDispenser.obj
 0001:00005c10       ??0?$CComAggObject@VCOPOSCoinDispenser@@@ATL@@QEAA@PEAX@Z 0000000180006c10 f i CoinDispenser.obj
 0001:00005ca0       ??0?$CComContainedObject@VCOPOSCoinDispenser@@@ATL@@QEAA@PEAX@Z 0000000180006ca0 f i CoinDispenser.obj
 0001:00005e40       ??0?$CComCritSecLock@VCComCriticalSection@ATL@@@ATL@@QEAA@AEAVCComCriticalSection@1@_N@Z 0000000180006e40 f i CoinDispenser.obj
 0001:00005eb0       ??0?$CComEnum@UIEnumConnectionPoints@@$1?_GUID_b196b285_bab4_101a_b69c_00aa00341d07@@3U__s_GUID@@BPEAUIConnectionPoint@@V?$_CopyInterface@UIConnectionPoint@@@ATL@@VCComSingleThreadModel@6@@ATL@@QEAA@XZ 0000000180006eb0 f i CoinDispenser.obj
 0001:00005f00       ??0?$CComEnum@UIEnumConnections@@$1?_GUID_b196b287_bab4_101a_b69c_00aa00341d07@@3U__s_GUID@@BUtagCONNECTDATA@@V?$_Copy@UtagCONNECTDATA@@@ATL@@VCComSingleThreadModel@6@@ATL@@QEAA@XZ 0000000180006f00 f i CoinDispenser.obj
 0001:00005f50       ??0?$CComEnumImpl@UIEnumConnectionPoints@@$1?_GUID_b196b285_bab4_101a_b69c_00aa00341d07@@3U__s_GUID@@BPEAUIConnectionPoint@@V?$_CopyInterface@UIConnectionPoint@@@ATL@@@ATL@@QEAA@XZ 0000000180006f50 f i CoinDispenser.obj
 0001:00005fd0       ??0?$CComEnumImpl@UIEnumConnections@@$1?_GUID_b196b287_bab4_101a_b69c_00aa00341d07@@3U__s_GUID@@BUtagCONNECTDATA@@V?$_Copy@UtagCONNECTDATA@@@ATL@@@ATL@@QEAA@XZ 0000000180006fd0 f i CoinDispenser.obj
 0001:00006050       ??0?$CComObject@V?$CComEnum@UIEnumConnectionPoints@@$1?_GUID_b196b285_bab4_101a_b69c_00aa00341d07@@3U__s_GUID@@BPEAUIConnectionPoint@@V?$_CopyInterface@UIConnectionPoint@@@ATL@@VCComSingleThreadModel@6@@ATL@@@ATL@@QEAA@PEAX@Z 0000000180007050 f i CoinDispenser.obj
 0001:000060b0       ??0?$CComObject@V?$CComEnum@UIEnumConnections@@$1?_GUID_b196b287_bab4_101a_b69c_00aa00341d07@@3U__s_GUID@@BUtagCONNECTDATA@@V?$_Copy@UtagCONNECTDATA@@@ATL@@VCComSingleThreadModel@6@@ATL@@@ATL@@QEAA@PEAX@Z 00000001800070b0 f i CoinDispenser.obj
 0001:00006110       ??0?$CComObject@VCOPOSCoinDispenser@@@ATL@@QEAA@PEAX@Z 0000000180007110 f i CoinDispenser.obj
 0001:000062b0       ??0?$CComObjectCached@VCComClassFactory@ATL@@@ATL@@QEAA@PEAX@Z 00000001800072b0 f i CoinDispenser.obj
 0001:00006300       ??0?$CComObjectRootEx@VCComMultiThreadModel@ATL@@@ATL@@QEAA@XZ 0000000180007300 f i CoinDispenser.obj
 0001:00006350       ??0?$CComObjectRootEx@VCComSingleThreadModel@ATL@@@ATL@@QEAA@XZ 0000000180007350 f i CoinDispenser.obj
 0001:00006390       ??0?$CComPtr@UIAdviseSink@@@ATL@@QEAA@PEAUIAdviseSink@@@Z 0000000180007390 f i CoinDispenser.obj
 0001:000063d0       ??0?$CComPtr@UICatRegister@@@ATL@@QEAA@XZ 00000001800073d0 f i CoinDispenser.obj
 0001:00006410       ??0?$CComPtr@UIConnectionPoint@@@ATL@@QEAA@XZ 0000000180007410 f i CoinDispenser.obj
 0001:00006450       ??0?$CComPtr@UIConnectionPointContainer@@@ATL@@QEAA@XZ 0000000180007450 f i CoinDispenser.obj
 0001:00006490       ??0?$CComPtr@UIDataObject@@@ATL@@QEAA@XZ 0000000180007490 f i CoinDispenser.obj
 0001:000064d0       ??0?$CComPtr@UIDispatch@@@ATL@@QEAA@XZ 00000001800074d0 f i CoinDispenser.obj
 0001:00006510       ??0?$CComPtr@UIOleClientSite@@@ATL@@QEAA@PEAUIOleClientSite@@@Z 0000000180007510 f i CoinDispenser.obj
 0001:00006550       ??0?$CComPtr@UIOleControlSite@@@ATL@@QEAA@XZ 0000000180007550 f i CoinDispenser.obj
 0001:00006590       ??0?$CComPtr@UIOleInPlaceActiveObject@@@ATL@@QEAA@XZ 0000000180007590 f i CoinDispenser.obj
 0001:000065d0       ??0?$CComPtr@UIOleInPlaceFrame@@@ATL@@QEAA@XZ 00000001800075d0 f i CoinDispenser.obj
 0001:00006610       ??0?$CComPtr@UIOleInPlaceObject@@@ATL@@QEAA@XZ 0000000180007610 f i CoinDispenser.obj
 0001:00006650       ??0?$CComPtr@UIOleInPlaceUIWindow@@@ATL@@QEAA@XZ 0000000180007650 f i CoinDispenser.obj
 0001:00006690       ??0?$CComPtr@UIOleObject@@@ATL@@QEAA@XZ 0000000180007690 f i CoinDispenser.obj
 0001:000066d0       ??0?$CComPtr@UIPersistStream@@@ATL@@QEAA@XZ 00000001800076d0 f i CoinDispenser.obj
 0001:00006710       ??0?$CComPtr@UIPersistStreamInit@@@ATL@@QEAA@XZ 0000000180007710 f i CoinDispenser.obj
 0001:00006750       ??0?$CComPtr@UIPointerInactive@@@ATL@@QEAA@XZ 0000000180007750 f i CoinDispenser.obj
 0001:00006790       ??0?$CComPtr@UIProvideClassInfo2@@@ATL@@QEAA@XZ 0000000180007790 f i CoinDispenser.obj
 0001:000067d0       ??0?$CComPtr@UISpecifyPropertyPages@@@ATL@@QEAA@XZ 00000001800077d0 f i CoinDispenser.obj
 0001:00006810       ??0?$CComPtr@UIStream@@@ATL@@QEAA@XZ 0000000180007810 f i CoinDispenser.obj
 0001:00006850       ??0?$CComPtr@UITypeInfo2@@@ATL@@QEAA@XZ 0000000180007850 f i CoinDispenser.obj
 0001:00006890       ??0?$CComPtr@UITypeInfo@@@ATL@@QEAA@AEBV01@@Z 0000000180007890 f i CoinDispenser.obj
 0001:000068d0       ??0?$CComPtr@UITypeInfo@@@ATL@@QEAA@XZ 00000001800078d0 f i CoinDispenser.obj
 0001:00006910       ??0?$CComPtr@UITypeLib@@@ATL@@QEAA@XZ 0000000180007910 f i CoinDispenser.obj
 0001:00006950       ??0?$CComPtr@UIUnknown@@@ATL@@QEAA@AEBV01@@Z 0000000180007950 f i CoinDispenser.obj
 0001:00006990       ??0?$CComPtr@UIUnknown@@@ATL@@QEAA@PEAUIUnknown@@@Z 0000000180007990 f i CoinDispenser.obj
 0001:000069d0       ??0?$CComPtr@UIUnknown@@@ATL@@QEAA@XZ 00000001800079d0 f i CoinDispenser.obj
 0001:00006a10       ??0?$CComPtr@UIViewObjectEx@@@ATL@@QEAA@XZ 0000000180007a10 f i CoinDispenser.obj
 0001:00006a50       ??0?$CComPtrBase@UIAdviseSink@@@ATL@@IEAA@PEAUIAdviseSink@@@Z 0000000180007a50 f i CoinDispenser.obj
 0001:00006ab0       ??0?$CComPtrBase@UICatRegister@@@ATL@@IEAA@XZ 0000000180007ab0 f i CoinDispenser.obj
 0001:00006ad0       ??0?$CComPtrBase@UIConnectionPoint@@@ATL@@IEAA@XZ 0000000180007ad0 f i CoinDispenser.obj
 0001:00006af0       ??0?$CComPtrBase@UIConnectionPointContainer@@@ATL@@IEAA@XZ 0000000180007af0 f i CoinDispenser.obj
 0001:00006b10       ??0?$CComPtrBase@UIDataObject@@@ATL@@IEAA@XZ 0000000180007b10 f i CoinDispenser.obj
 0001:00006b30       ??0?$CComPtrBase@UIDispatch@@@ATL@@IEAA@XZ 0000000180007b30 f i CoinDispenser.obj
 0001:00006b50       ??0?$CComPtrBase@UIOleClientSite@@@ATL@@IEAA@PEAUIOleClientSite@@@Z 0000000180007b50 f i CoinDispenser.obj
 0001:00006bb0       ??0?$CComPtrBase@UIOleControlSite@@@ATL@@IEAA@XZ 0000000180007bb0 f i CoinDispenser.obj
 0001:00006bd0       ??0?$CComPtrBase@UIOleInPlaceActiveObject@@@ATL@@IEAA@XZ 0000000180007bd0 f i CoinDispenser.obj
 0001:00006bf0       ??0?$CComPtrBase@UIOleInPlaceFrame@@@ATL@@IEAA@XZ 0000000180007bf0 f i CoinDispenser.obj
 0001:00006c10       ??0?$CComPtrBase@UIOleInPlaceObject@@@ATL@@IEAA@XZ 0000000180007c10 f i CoinDispenser.obj
 0001:00006c30       ??0?$CComPtrBase@UIOleInPlaceUIWindow@@@ATL@@IEAA@XZ 0000000180007c30 f i CoinDispenser.obj
 0001:00006c50       ??0?$CComPtrBase@UIOleObject@@@ATL@@IEAA@XZ 0000000180007c50 f i CoinDispenser.obj
 0001:00006c70       ??0?$CComPtrBase@UIPersistStream@@@ATL@@IEAA@XZ 0000000180007c70 f i CoinDispenser.obj
 0001:00006c90       ??0?$CComPtrBase@UIPersistStreamInit@@@ATL@@IEAA@XZ 0000000180007c90 f i CoinDispenser.obj
 0001:00006cb0       ??0?$CComPtrBase@UIPointerInactive@@@ATL@@IEAA@XZ 0000000180007cb0 f i CoinDispenser.obj
 0001:00006cd0       ??0?$CComPtrBase@UIProvideClassInfo2@@@ATL@@IEAA@XZ 0000000180007cd0 f i CoinDispenser.obj
 0001:00006cf0       ??0?$CComPtrBase@UISpecifyPropertyPages@@@ATL@@IEAA@XZ 0000000180007cf0 f i CoinDispenser.obj
 0001:00006d10       ??0?$CComPtrBase@UIStream@@@ATL@@IEAA@XZ 0000000180007d10 f i CoinDispenser.obj
 0001:00006d30       ??0?$CComPtrBase@UITypeInfo2@@@ATL@@IEAA@XZ 0000000180007d30 f i CoinDispenser.obj
 0001:00006d50       ??0?$CComPtrBase@UITypeInfo@@@ATL@@IEAA@PEAUITypeInfo@@@Z 0000000180007d50 f i CoinDispenser.obj
 0001:00006db0       ??0?$CComPtrBase@UITypeInfo@@@ATL@@IEAA@XZ 0000000180007db0 f i CoinDispenser.obj
 0001:00006dd0       ??0?$CComPtrBase@UITypeLib@@@ATL@@IEAA@XZ 0000000180007dd0 f i CoinDispenser.obj
 0001:00006df0       ??0?$CComPtrBase@UIUnknown@@@ATL@@IEAA@PEAUIUnknown@@@Z 0000000180007df0 f i CoinDispenser.obj
 0001:00006e50       ??0?$CComPtrBase@UIUnknown@@@ATL@@IEAA@XZ 0000000180007e50 f i CoinDispenser.obj
 0001:00006e70       ??0?$CComPtrBase@UIViewObjectEx@@@ATL@@IEAA@XZ 0000000180007e70 f i CoinDispenser.obj
 0001:00006e90       ??0?$CComQIPtr@UIOleControlSite@@$1?_GUID_b196b289_bab4_101a_b69c_00aa00341d07@@3U__s_GUID@@B@ATL@@QEAA@PEAUIUnknown@@@Z 0000000180007e90 f i CoinDispenser.obj
 0001:00006f00       ??0?$CComQIPtr@UIOleObject@@$1?_GUID_00000112_0000_0000_c000_000000000046@@3U__s_GUID@@B@ATL@@QEAA@XZ 0000000180007f00 f i CoinDispenser.obj
 0001:00006f40       ??0?$CComQIPtr@UISpecifyPropertyPages@@$1?_GUID_b196b28b_bab4_101a_b69c_00aa00341d07@@3U__s_GUID@@B@ATL@@QEAA@XZ 0000000180007f40 f i CoinDispenser.obj
 0001:00006f80       ??0?$CSimpleMap@PEA_WPEA_WVCExpansionVectorEqualHelper@ATL@@@ATL@@QEAA@XZ 0000000180007f80 f i CoinDispenser.obj
 0001:00006fc0       ??0?$CTempBuffer@E$0BAA@VCCRTAllocator@ATL@@@ATL@@QEAA@XZ 0000000180007fc0 f i CoinDispenser.obj
 0001:00006fe0       ??0?$CTempBuffer@_W$0BAA@VCCRTAllocator@ATL@@@ATL@@QEAA@XZ 0000000180007fe0 f i CoinDispenser.obj
 0001:00007000       ??0?$CTempBuffer@_W$0EAA@VCCRTAllocator@ATL@@@ATL@@QEAA@XZ 0000000180008000 f i CoinDispenser.obj
 0001:00007020       ??0?$Wrapper@PEA_W@?$CSimpleMap@PEA_WPEA_WVCExpansionVectorEqualHelper@ATL@@@ATL@@QEAA@AEBQEA_W@Z 0000000180008020 f i CoinDispenser.obj
 0001:00007050       ??0CAtlModule@ATL@@QEAA@XZ 0000000180008050 f i CoinDispenser.obj
 0001:000071c0       ??0CComAutoDeleteCriticalSection@ATL@@QEAA@XZ 00000001800081c0 f i CoinDispenser.obj
 0001:00007200       ??0CComBSTR@ATL@@QEAA@XZ   0000000180008200 f i CoinDispenser.obj
 0001:00007220       ??0CComClassFactory@ATL@@QEAA@XZ 0000000180008220 f i CoinDispenser.obj
 0001:00007280       ??0CComModule@ATL@@QEAA@XZ 0000000180008280 f i CoinDispenser.obj
 0001:00007320       ??0CComObjectRootBase@ATL@@QEAA@XZ 0000000180008320 f i CoinDispenser.obj
 0001:00007340       ??0CComSafeDeleteCriticalSection@ATL@@QEAA@XZ 0000000180008340 f i CoinDispenser.obj
 0001:00007380       ??0CComVariant@ATL@@QEAA@XZ 0000000180008380 f i CoinDispenser.obj
 0001:000073d0       ??0CExpansionVector@ATL@@QEAA@XZ 00000001800083d0 f i CoinDispenser.obj
 0001:00007410       ??0CParseBuffer@CRegParser@ATL@@QEAA@H@Z 0000000180008410 f i CoinDispenser.obj
 0001:000074a0       ??0CRegKey@ATL@@QEAA@PEAUHKEY__@@@Z 00000001800084a0 f i CoinDispenser.obj
 0001:000074e0       ??0CRegKey@ATL@@QEAA@PEAVCAtlTransactionManager@1@@Z 00000001800084e0 f i CoinDispenser.obj
 0001:00007520       ??0CRegObject@ATL@@QEAA@XZ 0000000180008520 f i CoinDispenser.obj
 0001:00007580       ??0CRegParser@ATL@@QEAA@PEAVCRegObject@1@@Z 0000000180008580 f i CoinDispenser.obj
 0001:000075b0       ??0IClassFactory@@QEAA@XZ  00000001800085b0 f i CoinDispenser.obj
 0001:000075f0       ??0IEnumConnectionPoints@@QEAA@XZ 00000001800085f0 f i CoinDispenser.obj
 0001:00007630       ??0IEnumConnections@@QEAA@XZ 0000000180008630 f i CoinDispenser.obj
 0001:00007670       ??0IRegistrarBase@@QEAA@XZ 0000000180008670 f i CoinDispenser.obj
 0001:000076b0       ??0IUnknown@@QEAA@XZ       00000001800086b0 f i CoinDispenser.obj
 0001:000076c0       ??0ModuleLockHelper@ATL@@QEAA@XZ 00000001800086c0 f i CoinDispenser.obj
 0001:00007700       ??0OposVariant@@QEAA@XZ    0000000180008700 f i CoinDispenser.obj
 0001:00007720       ??0Wrapper@?$CSimpleArray@GV?$CSimpleArrayEqualHelper@G@ATL@@@ATL@@QEAA@AEBG@Z 0000000180008720 f i CoinDispenser.obj
 0001:00007750       ??0_ATL_MODULE70@ATL@@QEAA@XZ 0000000180008750 f i CoinDispenser.obj
 0001:00007790       ??0_ATL_MSG@ATL@@QEAA@PEAUHWND__@@I_K_JH@Z 0000000180008790 f i CoinDispenser.obj
 0001:00007820       ??0_U_MENUorID@ATL@@QEAA@I@Z 0000000180008820 f i CoinDispenser.obj
 0001:00007840       ??0_U_RECT@ATL@@QEAA@AEAUtagRECT@@@Z 0000000180008840 f i CoinDispenser.obj
 0001:00007860       ??0stringdispid@CComTypeInfoHolder@ATL@@QEAA@XZ 0000000180008860 f i CoinDispenser.obj
 0001:000078b0       ??1?$CAtlModuleT@VCComModule@ATL@@@ATL@@UEAA@XZ 00000001800088b0 f i CoinDispenser.obj
 0001:000078e0       ??1?$CAtlSafeAllocBufferManager@VCCRTAllocator@ATL@@@_ATL_SAFE_ALLOCA_IMPL@ATL@@QEAA@XZ 00000001800088e0 f i CoinDispenser.obj
 0001:00007940       ??1?$CAutoVectorPtr@_W@ATL@@QEAA@XZ 0000000180008940 f i CoinDispenser.obj
 0001:00007970       ??1?$CComAggObject@VCOPOSCoinDispenser@@@ATL@@UEAA@XZ 0000000180008970 f i CoinDispenser.obj
 0001:000079f0       ??1?$CComContainedObject@VCOPOSCoinDispenser@@@ATL@@UEAA@XZ 00000001800089f0 f i CoinDispenser.obj
 0001:00007a20       ??1?$CComCritSecLock@VCComCriticalSection@ATL@@@ATL@@QEAA@XZ 0000000180008a20 f i CoinDispenser.obj
 0001:00007a60       ??1?$CComEnum@UIEnumConnectionPoints@@$1?_GUID_b196b285_bab4_101a_b69c_00aa00341d07@@3U__s_GUID@@BPEAUIConnectionPoint@@V?$_CopyInterface@UIConnectionPoint@@@ATL@@VCComSingleThreadModel@6@@ATL@@UEAA@XZ 0000000180008a60 f i CoinDispenser.obj
 0001:00007aa0       ??1?$CComEnum@UIEnumConnections@@$1?_GUID_b196b287_bab4_101a_b69c_00aa00341d07@@3U__s_GUID@@BUtagCONNECTDATA@@V?$_Copy@UtagCONNECTDATA@@@ATL@@VCComSingleThreadModel@6@@ATL@@UEAA@XZ 0000000180008aa0 f i CoinDispenser.obj
 0001:00007ae0       ??1?$CComEnumImpl@UIEnumConnectionPoints@@$1?_GUID_b196b285_bab4_101a_b69c_00aa00341d07@@3U__s_GUID@@BPEAUIConnectionPoint@@V?$_CopyInterface@UIConnectionPoint@@@ATL@@@ATL@@UEAA@XZ 0000000180008ae0 f i CoinDispenser.obj
 0001:00007b80       ??1?$CComEnumImpl@UIEnumConnections@@$1?_GUID_b196b287_bab4_101a_b69c_00aa00341d07@@3U__s_GUID@@BUtagCONNECTDATA@@V?$_Copy@UtagCONNECTDATA@@@ATL@@@ATL@@UEAA@XZ 0000000180008b80 f i CoinDispenser.obj
 0001:00007c20       ??1?$CComObject@V?$CComEnum@UIEnumConnectionPoints@@$1?_GUID_b196b285_bab4_101a_b69c_00aa00341d07@@3U__s_GUID@@BPEAUIConnectionPoint@@V?$_CopyInterface@UIConnectionPoint@@@ATL@@VCComSingleThreadModel@6@@ATL@@@ATL@@UEAA@XZ 0000000180008c20 f i CoinDispenser.obj
 0001:00007c90       ??1?$CComObject@V?$CComEnum@UIEnumConnections@@$1?_GUID_b196b287_bab4_101a_b69c_00aa00341d07@@3U__s_GUID@@BUtagCONNECTDATA@@V?$_Copy@UtagCONNECTDATA@@@ATL@@VCComSingleThreadModel@6@@ATL@@@ATL@@UEAA@XZ 0000000180008c90 f i CoinDispenser.obj
 0001:00007d00       ??1?$CComObject@VCOPOSCoinDispenser@@@ATL@@UEAA@XZ 0000000180008d00 f i CoinDispenser.obj
 0001:00007eb0       ??1?$CComObjectCached@VCComClassFactory@ATL@@@ATL@@UEAA@XZ 0000000180008eb0 f i CoinDispenser.obj
 0001:00007f10       ??1?$CComObjectRootEx@VCComMultiThreadModel@ATL@@@ATL@@QEAA@XZ 0000000180008f10 f i CoinDispenser.obj
 0001:00007f50       ??1?$CComObjectRootEx@VCComSingleThreadModel@ATL@@@ATL@@QEAA@XZ 0000000180008f50 f i CoinDispenser.obj
 0001:00007f80       ??1?$CComPtr@UIAdviseSink@@@ATL@@QEAA@XZ 0000000180008f80 f i CoinDispenser.obj
 0001:00007fb0       ??1?$CComPtr@UICatRegister@@@ATL@@QEAA@XZ 0000000180008fb0 f i CoinDispenser.obj
 0001:00007fe0       ??1?$CComPtr@UIConnectionPoint@@@ATL@@QEAA@XZ 0000000180008fe0 f i CoinDispenser.obj
 0001:00008010       ??1?$CComPtr@UIConnectionPointContainer@@@ATL@@QEAA@XZ 0000000180009010 f i CoinDispenser.obj
 0001:00008040       ??1?$CComPtr@UIDataObject@@@ATL@@QEAA@XZ 0000000180009040 f i CoinDispenser.obj
 0001:00008070       ??1?$CComPtr@UIDispatch@@@ATL@@QEAA@XZ 0000000180009070 f i CoinDispenser.obj
 0001:000080a0       ??1?$CComPtr@UIOleClientSite@@@ATL@@QEAA@XZ 00000001800090a0 f i CoinDispenser.obj
 0001:000080d0       ??1?$CComPtr@UIOleControlSite@@@ATL@@QEAA@XZ 00000001800090d0 f i CoinDispenser.obj
 0001:00008100       ??1?$CComPtr@UIOleInPlaceActiveObject@@@ATL@@QEAA@XZ 0000000180009100 f i CoinDispenser.obj
 0001:00008130       ??1?$CComPtr@UIOleInPlaceFrame@@@ATL@@QEAA@XZ 0000000180009130 f i CoinDispenser.obj
 0001:00008160       ??1?$CComPtr@UIOleInPlaceObject@@@ATL@@QEAA@XZ 0000000180009160 f i CoinDispenser.obj
 0001:00008190       ??1?$CComPtr@UIOleInPlaceUIWindow@@@ATL@@QEAA@XZ 0000000180009190 f i CoinDispenser.obj
 0001:000081c0       ??1?$CComPtr@UIOleObject@@@ATL@@QEAA@XZ 00000001800091c0 f i CoinDispenser.obj
 0001:000081f0       ??1?$CComPtr@UIPersistStream@@@ATL@@QEAA@XZ 00000001800091f0 f i CoinDispenser.obj
 0001:00008220       ??1?$CComPtr@UIPersistStreamInit@@@ATL@@QEAA@XZ 0000000180009220 f i CoinDispenser.obj
 0001:00008250       ??1?$CComPtr@UIPointerInactive@@@ATL@@QEAA@XZ 0000000180009250 f i CoinDispenser.obj
 0001:00008280       ??1?$CComPtr@UIProvideClassInfo2@@@ATL@@QEAA@XZ 0000000180009280 f i CoinDispenser.obj
 0001:000082b0       ??1?$CComPtr@UISpecifyPropertyPages@@@ATL@@QEAA@XZ 00000001800092b0 f i CoinDispenser.obj
 0001:000082e0       ??1?$CComPtr@UIStream@@@ATL@@QEAA@XZ 00000001800092e0 f i CoinDispenser.obj
 0001:00008310       ??1?$CComPtr@UITypeInfo2@@@ATL@@QEAA@XZ 0000000180009310 f i CoinDispenser.obj
 0001:00008340       ??1?$CComPtr@UITypeInfo@@@ATL@@QEAA@XZ 0000000180009340 f i CoinDispenser.obj
 0001:00008370       ??1?$CComPtr@UITypeLib@@@ATL@@QEAA@XZ 0000000180009370 f i CoinDispenser.obj
 0001:000083a0       ??1?$CComPtr@UIUnknown@@@ATL@@QEAA@XZ 00000001800093a0 f i CoinDispenser.obj
 0001:000083d0       ??1?$CComPtr@UIViewObjectEx@@@ATL@@QEAA@XZ 00000001800093d0 f i CoinDispenser.obj
 0001:00008400       ??1?$CComPtrBase@UIAdviseSink@@@ATL@@QEAA@XZ 0000000180009400 f i CoinDispenser.obj
 0001:00008450       ??1?$CComPtrBase@UICatRegister@@@ATL@@QEAA@XZ 0000000180009450 f i CoinDispenser.obj
 0001:000084a0       ??1?$CComPtrBase@UIConnectionPoint@@@ATL@@QEAA@XZ 00000001800094a0 f i CoinDispenser.obj
 0001:000084f0       ??1?$CComPtrBase@UIConnectionPointContainer@@@ATL@@QEAA@XZ 00000001800094f0 f i CoinDispenser.obj
 0001:00008540       ??1?$CComPtrBase@UIDataObject@@@ATL@@QEAA@XZ 0000000180009540 f i CoinDispenser.obj
 0001:00008590       ??1?$CComPtrBase@UIDispatch@@@ATL@@QEAA@XZ 0000000180009590 f i CoinDispenser.obj
 0001:000085e0       ??1?$CComPtrBase@UIOleClientSite@@@ATL@@QEAA@XZ 00000001800095e0 f i CoinDispenser.obj
 0001:00008630       ??1?$CComPtrBase@UIOleControlSite@@@ATL@@QEAA@XZ 0000000180009630 f i CoinDispenser.obj
 0001:00008680       ??1?$CComPtrBase@UIOleInPlaceActiveObject@@@ATL@@QEAA@XZ 0000000180009680 f i CoinDispenser.obj
 0001:000086d0       ??1?$CComPtrBase@UIOleInPlaceFrame@@@ATL@@QEAA@XZ 00000001800096d0 f i CoinDispenser.obj
 0001:00008720       ??1?$CComPtrBase@UIOleInPlaceObject@@@ATL@@QEAA@XZ 0000000180009720 f i CoinDispenser.obj
 0001:00008770       ??1?$CComPtrBase@UIOleInPlaceUIWindow@@@ATL@@QEAA@XZ 0000000180009770 f i CoinDispenser.obj
 0001:000087c0       ??1?$CComPtrBase@UIOleObject@@@ATL@@QEAA@XZ 00000001800097c0 f i CoinDispenser.obj
 0001:00008810       ??1?$CComPtrBase@UIPersistStream@@@ATL@@QEAA@XZ 0000000180009810 f i CoinDispenser.obj
 0001:00008860       ??1?$CComPtrBase@UIPersistStreamInit@@@ATL@@QEAA@XZ 0000000180009860 f i CoinDispenser.obj
 0001:000088b0       ??1?$CComPtrBase@UIPointerInactive@@@ATL@@QEAA@XZ 00000001800098b0 f i CoinDispenser.obj
 0001:00008900       ??1?$CComPtrBase@UIProvideClassInfo2@@@ATL@@QEAA@XZ 0000000180009900 f i CoinDispenser.obj
 0001:00008950       ??1?$CComPtrBase@UISpecifyPropertyPages@@@ATL@@QEAA@XZ 0000000180009950 f i CoinDispenser.obj
 0001:000089a0       ??1?$CComPtrBase@UIStream@@@ATL@@QEAA@XZ 00000001800099a0 f i CoinDispenser.obj
 0001:000089f0       ??1?$CComPtrBase@UITypeInfo2@@@ATL@@QEAA@XZ 00000001800099f0 f i CoinDispenser.obj
 0001:00008a40       ??1?$CComPtrBase@UITypeInfo@@@ATL@@QEAA@XZ 0000000180009a40 f i CoinDispenser.obj
 0001:00008a90       ??1?$CComPtrBase@UITypeLib@@@ATL@@QEAA@XZ 0000000180009a90 f i CoinDispenser.obj
 0001:00008ae0       ??1?$CComPtrBase@UIUnknown@@@ATL@@QEAA@XZ 0000000180009ae0 f i CoinDispenser.obj
 0001:00008b30       ??1?$CComPtrBase@UIViewObjectEx@@@ATL@@QEAA@XZ 0000000180009b30 f i CoinDispenser.obj
 0001:00008b80       ??1?$CComQIPtr@UIOleControlSite@@$1?_GUID_b196b289_bab4_101a_b69c_00aa00341d07@@3U__s_GUID@@B@ATL@@QEAA@XZ 0000000180009b80 f i CoinDispenser.obj
 0001:00008bb0       ??1?$CComQIPtr@UIOleObject@@$1?_GUID_00000112_0000_0000_c000_000000000046@@3U__s_GUID@@B@ATL@@QEAA@XZ 0000000180009bb0 f i CoinDispenser.obj
 0001:00008be0       ??1?$CComQIPtr@UISpecifyPropertyPages@@$1?_GUID_b196b28b_bab4_101a_b69c_00aa00341d07@@3U__s_GUID@@B@ATL@@QEAA@XZ 0000000180009be0 f i CoinDispenser.obj
 0001:00008c10       ??1?$CSimpleMap@PEA_WPEA_WVCExpansionVectorEqualHelper@ATL@@@ATL@@QEAA@XZ 0000000180009c10 f i CoinDispenser.obj
 0001:00008c40       ??1?$CTempBuffer@E$0BAA@VCCRTAllocator@ATL@@@ATL@@QEAA@XZ 0000000180009c40 f i CoinDispenser.obj
 0001:00008c90       ??1?$CTempBuffer@_W$0BAA@VCCRTAllocator@ATL@@@ATL@@QEAA@XZ 0000000180009c90 f i CoinDispenser.obj
 0001:00008ce0       ??1?$CTempBuffer@_W$0EAA@VCCRTAllocator@ATL@@@ATL@@QEAA@XZ 0000000180009ce0 f i CoinDispenser.obj
 0001:00008d30       ??1CAtlModule@ATL@@UEAA@XZ 0000000180009d30 f i CoinDispenser.obj
 0001:00008d70       ??1CComAutoDeleteCriticalSection@ATL@@QEAA@XZ 0000000180009d70 f i CoinDispenser.obj
 0001:00008da0       ??1CComClassFactory@ATL@@UEAA@XZ 0000000180009da0 f i CoinDispenser.obj
 0001:00008df0       ??1CComModule@ATL@@UEAA@XZ 0000000180009df0 f i CoinDispenser.obj
 0001:00008e30       ??1CComObjectRootBase@ATL@@QEAA@XZ 0000000180009e30 f i CoinDispenser.obj
 0001:00008e40       ??1CComSafeDeleteCriticalSection@ATL@@QEAA@XZ 0000000180009e40 f i CoinDispenser.obj
 0001:00008e90       ??1CComVariant@ATL@@QEAA@XZ 0000000180009e90 f i CoinDispenser.obj
 0001:00008f10       ??1CExpansionVector@ATL@@QEAA@XZ 0000000180009f10 f i CoinDispenser.obj
 0001:00008f50       ??1CParseBuffer@CRegParser@ATL@@QEAA@XZ 0000000180009f50 f i CoinDispenser.obj
 0001:00008f90       ??1CRegKey@ATL@@QEAA@XZ    0000000180009f90 f i CoinDispenser.obj
 0001:00008fc0       ??1CRegObject@ATL@@UEAA@XZ 0000000180009fc0 f i CoinDispenser.obj
 0001:00009010       ??1ModuleLockHelper@ATL@@QEAA@XZ 000000018000a010 f i CoinDispenser.obj
 0001:00009050       ??1OposVariant@@QEAA@XZ    000000018000a050 f i CoinDispenser.obj
 0001:00009090       ??1_ATL_MODULE70@ATL@@QEAA@XZ 000000018000a090 f i CoinDispenser.obj
 0001:000090d0       ??4?$CComPtr@UIAdviseSink@@@ATL@@QEAAPEAUIAdviseSink@@PEAU2@@Z 000000018000a0d0 f i CoinDispenser.obj
 0001:00009140       ??4?$CComPtr@UIOleClientSite@@@ATL@@QEAAPEAUIOleClientSite@@PEAU2@@Z 000000018000a140 f i CoinDispenser.obj
 0001:000091b0       ??4?$CComPtr@UIUnknown@@@ATL@@QEAAPEAUIUnknown@@PEAU2@@Z 000000018000a1b0 f i CoinDispenser.obj
 0001:00009220       ??4?$CComQIPtr@UIOleObject@@$1?_GUID_00000112_0000_0000_c000_000000000046@@3U__s_GUID@@B@ATL@@QEAAPEAUIOleObject@@PEAUIUnknown@@@Z 000000018000a220 f i CoinDispenser.obj
 0001:00009280       ??4?$CComQIPtr@UISpecifyPropertyPages@@$1?_GUID_b196b28b_bab4_101a_b69c_00aa00341d07@@3U__s_GUID@@B@ATL@@QEAAPEAUISpecifyPropertyPages@@PEAUIUnknown@@@Z 000000018000a280 f i CoinDispenser.obj
 0001:000092e0       ??7?$CComPtrBase@UIOleClientSite@@@ATL@@QEBA_NXZ 000000018000a2e0 f i CoinDispenser.obj
 0001:00009330       ??7?$CComPtrBase@UIOleInPlaceSiteWindowless@@@ATL@@QEBA_NXZ 000000018000a330 f i CoinDispenser.obj
 0001:00009380       ??7CComBSTR@ATL@@QEBA_NXZ  000000018000a380 f i CoinDispenser.obj
 0001:000093d0       ??8?$CComPtrBase@UIAdviseSink@@@ATL@@QEBA_NPEAUIAdviseSink@@@Z 000000018000a3d0 f i CoinDispenser.obj
 0001:00009420       ??8?$CComPtrBase@UIConnectionPointContainer@@@ATL@@QEBA_NPEAUIConnectionPointContainer@@@Z 000000018000a420 f i CoinDispenser.obj
 0001:00009470       ??8?$CComPtrBase@UIDataAdviseHolder@@@ATL@@QEBA_NPEAUIDataAdviseHolder@@@Z 000000018000a470 f i CoinDispenser.obj
 0001:000094c0       ??8?$CComPtrBase@UIOleAdviseHolder@@@ATL@@QEBA_NPEAUIOleAdviseHolder@@@Z 000000018000a4c0 f i CoinDispenser.obj
 0001:00009510       ??8?$CComPtrBase@UIOleClientSite@@@ATL@@QEBA_NPEAUIOleClientSite@@@Z 000000018000a510 f i CoinDispenser.obj
 0001:00009560       ??8?$CComPtrBase@UIOleControlSite@@@ATL@@QEBA_NPEAUIOleControlSite@@@Z 000000018000a560 f i CoinDispenser.obj
 0001:000095b0       ??8?$CComPtrBase@UIOleInPlaceObject@@@ATL@@QEBA_NPEAUIOleInPlaceObject@@@Z 000000018000a5b0 f i CoinDispenser.obj
 0001:00009600       ??8?$CComPtrBase@UIOleInPlaceSiteWindowless@@@ATL@@QEBA_NPEAUIOleInPlaceSiteWindowless@@@Z 000000018000a600 f i CoinDispenser.obj
 0001:00009650       ??8?$CComPtrBase@UIOleObject@@@ATL@@QEBA_NPEAUIOleObject@@@Z 000000018000a650 f i CoinDispenser.obj
 0001:000096a0       ??8?$CComPtrBase@UIPersistStream@@@ATL@@QEBA_NPEAUIPersistStream@@@Z 000000018000a6a0 f i CoinDispenser.obj
 0001:000096f0       ??8?$CComPtrBase@UIPersistStreamInit@@@ATL@@QEBA_NPEAUIPersistStreamInit@@@Z 000000018000a6f0 f i CoinDispenser.obj
 0001:00009740       ??8?$CComPtrBase@UIPointerInactive@@@ATL@@QEBA_NPEAUIPointerInactive@@@Z 000000018000a740 f i CoinDispenser.obj
 0001:00009790       ??8?$CComPtrBase@UIUnknown@@@ATL@@QEBA_NPEAUIUnknown@@@Z 000000018000a790 f i CoinDispenser.obj
 0001:000097e0       ??8?$CComPtrBase@UIViewObjectEx@@@ATL@@QEBA_NPEAUIViewObjectEx@@@Z 000000018000a7e0 f i CoinDispenser.obj
 0001:00009830       ??8CComBSTR@ATL@@QEBA_NH@Z 000000018000a830 f i CoinDispenser.obj
 0001:000098b0       ??9?$CComPtrBase@UIAdviseSink@@@ATL@@QEBA_NPEAUIAdviseSink@@@Z 000000018000a8b0 f i CoinDispenser.obj
 0001:00009910       ??9?$CComPtrBase@UIConnectionPointContainer@@@ATL@@QEBA_NPEAUIConnectionPointContainer@@@Z 000000018000a910 f i CoinDispenser.obj
 0001:00009970       ??9?$CComPtrBase@UIDataAdviseHolder@@@ATL@@QEBA_NPEAUIDataAdviseHolder@@@Z 000000018000a970 f i CoinDispenser.obj
 0001:000099d0       ??9?$CComPtrBase@UIOleAdviseHolder@@@ATL@@QEBA_NPEAUIOleAdviseHolder@@@Z 000000018000a9d0 f i CoinDispenser.obj
 0001:00009a30       ??9?$CComPtrBase@UIOleClientSite@@@ATL@@QEBA_NPEAUIOleClientSite@@@Z 000000018000aa30 f i CoinDispenser.obj
 0001:00009a90       ??9?$CComPtrBase@UIOleControlSite@@@ATL@@QEBA_NPEAUIOleControlSite@@@Z 000000018000aa90 f i CoinDispenser.obj
 0001:00009af0       ??9?$CComPtrBase@UIOleInPlaceObject@@@ATL@@QEBA_NPEAUIOleInPlaceObject@@@Z 000000018000aaf0 f i CoinDispenser.obj
 0001:00009b50       ??9?$CComPtrBase@UIOleInPlaceSiteWindowless@@@ATL@@QEBA_NPEAUIOleInPlaceSiteWindowless@@@Z 000000018000ab50 f i CoinDispenser.obj
 0001:00009bb0       ??9?$CComPtrBase@UIOleObject@@@ATL@@QEBA_NPEAUIOleObject@@@Z 000000018000abb0 f i CoinDispenser.obj
 0001:00009c10       ??9?$CComPtrBase@UIPersistStream@@@ATL@@QEBA_NPEAUIPersistStream@@@Z 000000018000ac10 f i CoinDispenser.obj
 0001:00009c70       ??9?$CComPtrBase@UIPersistStreamInit@@@ATL@@QEBA_NPEAUIPersistStreamInit@@@Z 000000018000ac70 f i CoinDispenser.obj
 0001:00009cd0       ??9?$CComPtrBase@UIPointerInactive@@@ATL@@QEBA_NPEAUIPointerInactive@@@Z 000000018000acd0 f i CoinDispenser.obj
 0001:00009d30       ??9?$CComPtrBase@UIUnknown@@@ATL@@QEBA_NPEAUIUnknown@@@Z 000000018000ad30 f i CoinDispenser.obj
 0001:00009d90       ??9?$CComPtrBase@UIViewObjectEx@@@ATL@@QEBA_NPEAUIViewObjectEx@@@Z 000000018000ad90 f i CoinDispenser.obj
 0001:00009df0       ??9CComBSTR@ATL@@QEBA_NH@Z 000000018000adf0 f i CoinDispenser.obj
 0001:00009e50       ??B?$CComPtrBase@UIAdviseSink@@@ATL@@QEBAPEAUIAdviseSink@@XZ 000000018000ae50 f i CoinDispenser.obj
 0001:00009e60       ??B?$CComPtrBase@UIDataAdviseHolder@@@ATL@@QEBAPEAUIDataAdviseHolder@@XZ 000000018000ae60 f i CoinDispenser.obj
 0001:00009e70       ??B?$CComPtrBase@UIDataObject@@@ATL@@QEBAPEAUIDataObject@@XZ 000000018000ae70 f i CoinDispenser.obj
 0001:00009e80       ??B?$CComPtrBase@UIOleAdviseHolder@@@ATL@@QEBAPEAUIOleAdviseHolder@@XZ 000000018000ae80 f i CoinDispenser.obj
 0001:00009e90       ??B?$CComPtrBase@UIOleClientSite@@@ATL@@QEBAPEAUIOleClientSite@@XZ 000000018000ae90 f i CoinDispenser.obj
 0001:00009ea0       ??B?$CComPtrBase@UIOleControlSite@@@ATL@@QEBAPEAUIOleControlSite@@XZ 000000018000aea0 f i CoinDispenser.obj
 0001:00009eb0       ??B?$CComPtrBase@UIOleInPlaceActiveObject@@@ATL@@QEBAPEAUIOleInPlaceActiveObject@@XZ 000000018000aeb0 f i CoinDispenser.obj
 0001:00009ec0       ??B?$CComPtrBase@UIOleInPlaceFrame@@@ATL@@QEBAPEAUIOleInPlaceFrame@@XZ 000000018000aec0 f i CoinDispenser.obj
 0001:00009ed0       ??B?$CComPtrBase@UIOleInPlaceSiteWindowless@@@ATL@@QEBAPEAUIOleInPlaceSiteWindowless@@XZ 000000018000aed0 f i CoinDispenser.obj
 0001:00009ee0       ??B?$CComPtrBase@UIOleInPlaceUIWindow@@@ATL@@QEBAPEAUIOleInPlaceUIWindow@@XZ 000000018000aee0 f i CoinDispenser.obj
 0001:00009ef0       ??B?$CComPtrBase@UIOleObject@@@ATL@@QEBAPEAUIOleObject@@XZ 000000018000aef0 f i CoinDispenser.obj
 0001:00009f00       ??B?$CComPtrBase@UIPersistStream@@@ATL@@QEBAPEAUIPersistStream@@XZ 000000018000af00 f i CoinDispenser.obj
 0001:00009f10       ??B?$CComPtrBase@UIProvideClassInfo2@@@ATL@@QEBAPEAUIProvideClassInfo2@@XZ 000000018000af10 f i CoinDispenser.obj
 0001:00009f20       ??B?$CComPtrBase@UISpecifyPropertyPages@@@ATL@@QEBAPEAUISpecifyPropertyPages@@XZ 000000018000af20 f i CoinDispenser.obj
 0001:00009f30       ??B?$CComPtrBase@UIStream@@@ATL@@QEBAPEAUIStream@@XZ 000000018000af30 f i CoinDispenser.obj
 0001:00009f40       ??B?$CComPtrBase@UITypeInfo2@@@ATL@@QEBAPEAUITypeInfo2@@XZ 000000018000af40 f i CoinDispenser.obj
 0001:00009f50       ??B?$CComPtrBase@UITypeInfo@@@ATL@@QEBAPEAUITypeInfo@@XZ 000000018000af50 f i CoinDispenser.obj
 0001:00009f60       ??B?$CComPtrBase@UITypeLib@@@ATL@@QEBAPEAUITypeLib@@XZ 000000018000af60 f i CoinDispenser.obj
 0001:00009f70       ??B?$CComPtrBase@UIUnknown@@@ATL@@QEBAPEAUIUnknown@@XZ 000000018000af70 f i CoinDispenser.obj
 0001:00009f80       ??B?$CTempBuffer@E$0BAA@VCCRTAllocator@ATL@@@ATL@@QEBAPEAEXZ 000000018000af80 f i CoinDispenser.obj
 0001:00009f90       ??B?$CTempBuffer@_W$0BAA@VCCRTAllocator@ATL@@@ATL@@QEBAPEA_WXZ 000000018000af90 f i CoinDispenser.obj
 0001:00009fa0       ??B?$CTempBuffer@_W$0EAA@VCCRTAllocator@ATL@@@ATL@@QEBAPEA_WXZ 000000018000afa0 f i CoinDispenser.obj
 0001:00009fb0       ??B?$CTraceCategoryEx@$00$0A@@ATL@@QEAAIXZ 000000018000afb0 f i CoinDispenser.obj
 0001:00009fc0       ??B?$CTraceCategoryEx@$07$0A@@ATL@@QEAAIXZ 000000018000afc0 f i CoinDispenser.obj
 0001:00009fd0       ??B?$CTraceCategoryEx@$0CAAA@$0A@@ATL@@QEAAIXZ 000000018000afd0 f i CoinDispenser.obj
 0001:00009fe0       ??B?$CTraceCategoryEx@$0EA@$0A@@ATL@@QEAAIXZ 000000018000afe0 f i CoinDispenser.obj
 0001:00009ff0       ??B?$CTraceCategoryEx@$0IAA@$0A@@ATL@@QEAAIXZ 000000018000aff0 f i CoinDispenser.obj
 0001:0000a000       ??BCComBSTR@ATL@@QEBAPEA_WXZ 000000018000b000 f i CoinDispenser.obj
 0001:0000a010       ??BCRegKey@ATL@@QEBAPEAUHKEY__@@XZ 000000018000b010 f i CoinDispenser.obj
 0001:0000a020       ??C?$CComPtrBase@UIAdviseSink@@@ATL@@QEBAPEAV?$_NoAddRefReleaseOnCComPtr@UIAdviseSink@@@1@XZ 000000018000b020 f i CoinDispenser.obj
 0001:0000a0a0       ??C?$CComPtrBase@UICatRegister@@@ATL@@QEBAPEAV?$_NoAddRefReleaseOnCComPtr@UICatRegister@@@1@XZ 000000018000b0a0 f i CoinDispenser.obj
 0001:0000a120       ??C?$CComPtrBase@UIConnectionPoint@@@ATL@@QEBAPEAV?$_NoAddRefReleaseOnCComPtr@UIConnectionPoint@@@1@XZ 000000018000b120 f i CoinDispenser.obj
 0001:0000a1a0       ??C?$CComPtrBase@UIConnectionPointContainer@@@ATL@@QEBAPEAV?$_NoAddRefReleaseOnCComPtr@UIConnectionPointContainer@@@1@XZ 000000018000b1a0 f i CoinDispenser.obj
 0001:0000a220       ??C?$CComPtrBase@UIDataAdviseHolder@@@ATL@@QEBAPEAV?$_NoAddRefReleaseOnCComPtr@UIDataAdviseHolder@@@1@XZ 000000018000b220 f i CoinDispenser.obj
 0001:0000a2a0       ??C?$CComPtrBase@UIOleAdviseHolder@@@ATL@@QEBAPEAV?$_NoAddRefReleaseOnCComPtr@UIOleAdviseHolder@@@1@XZ 000000018000b2a0 f i CoinDispenser.obj
 0001:0000a320       ??C?$CComPtrBase@UIOleClientSite@@@ATL@@QEBAPEAV?$_NoAddRefReleaseOnCComPtr@UIOleClientSite@@@1@XZ 000000018000b320 f i CoinDispenser.obj
 0001:0000a3a0       ??C?$CComPtrBase@UIOleControlSite@@@ATL@@QEBAPEAV?$_NoAddRefReleaseOnCComPtr@UIOleControlSite@@@1@XZ 000000018000b3a0 f i CoinDispenser.obj
 0001:0000a420       ??C?$CComPtrBase@UIOleInPlaceFrame@@@ATL@@QEBAPEAV?$_NoAddRefReleaseOnCComPtr@UIOleInPlaceFrame@@@1@XZ 000000018000b420 f i CoinDispenser.obj
 0001:0000a4a0       ??C?$CComPtrBase@UIOleInPlaceObject@@@ATL@@QEBAPEAV?$_NoAddRefReleaseOnCComPtr@UIOleInPlaceObject@@@1@XZ 000000018000b4a0 f i CoinDispenser.obj
 0001:0000a520       ??C?$CComPtrBase@UIOleInPlaceSiteWindowless@@@ATL@@QEBAPEAV?$_NoAddRefReleaseOnCComPtr@UIOleInPlaceSiteWindowless@@@1@XZ 000000018000b520 f i CoinDispenser.obj
 0001:0000a5a0       ??C?$CComPtrBase@UIOleInPlaceUIWindow@@@ATL@@QEBAPEAV?$_NoAddRefReleaseOnCComPtr@UIOleInPlaceUIWindow@@@1@XZ 000000018000b5a0 f i CoinDispenser.obj
 0001:0000a620       ??C?$CComPtrBase@UIOleObject@@@ATL@@QEBAPEAV?$_NoAddRefReleaseOnCComPtr@UIOleObject@@@1@XZ 000000018000b620 f i CoinDispenser.obj
 0001:0000a6a0       ??C?$CComPtrBase@UIPersistStream@@@ATL@@QEBAPEAV?$_NoAddRefReleaseOnCComPtr@UIPersistStream@@@1@XZ 000000018000b6a0 f i CoinDispenser.obj
 0001:0000a720       ??C?$CComPtrBase@UIPersistStreamInit@@@ATL@@QEBAPEAV?$_NoAddRefReleaseOnCComPtr@UIPersistStreamInit@@@1@XZ 000000018000b720 f i CoinDispenser.obj
 0001:0000a7a0       ??C?$CComPtrBase@UIPointerInactive@@@ATL@@QEBAPEAV?$_NoAddRefReleaseOnCComPtr@UIPointerInactive@@@1@XZ 000000018000b7a0 f i CoinDispenser.obj
 0001:0000a820       ??C?$CComPtrBase@UIProvideClassInfo2@@@ATL@@QEBAPEAV?$_NoAddRefReleaseOnCComPtr@UIProvideClassInfo2@@@1@XZ 000000018000b820 f i CoinDispenser.obj
 0001:0000a8a0       ??C?$CComPtrBase@UISpecifyPropertyPages@@@ATL@@QEBAPEAV?$_NoAddRefReleaseOnCComPtr@UISpecifyPropertyPages@@@1@XZ 000000018000b8a0 f i CoinDispenser.obj
 0001:0000a920       ??C?$CComPtrBase@UITypeInfo@@@ATL@@QEBAPEAV?$_NoAddRefReleaseOnCComPtr@UITypeInfo@@@1@XZ 000000018000b920 f i CoinDispenser.obj
 0001:0000a9a0       ??C?$CComPtrBase@UITypeLib@@@ATL@@QEBAPEAV?$_NoAddRefReleaseOnCComPtr@UITypeLib@@@1@XZ 000000018000b9a0 f i CoinDispenser.obj
 0001:0000aa20       ??C?$CComPtrBase@UIUnknown@@@ATL@@QEBAPEAV?$_NoAddRefReleaseOnCComPtr@UIUnknown@@@1@XZ 000000018000ba20 f i CoinDispenser.obj
 0001:0000aaa0       ??C?$CComPtrBase@UIViewObjectEx@@@ATL@@QEBAPEAV?$_NoAddRefReleaseOnCComPtr@UIViewObjectEx@@@1@XZ 000000018000baa0 f i CoinDispenser.obj
 0001:0000ab20       ??I?$CComPtrBase@UICatRegister@@@ATL@@QEAAPEAPEAUICatRegister@@XZ 000000018000bb20 f i CoinDispenser.obj
 0001:0000ab90       ??I?$CComPtrBase@UIConnectionPoint@@@ATL@@QEAAPEAPEAUIConnectionPoint@@XZ 000000018000bb90 f i CoinDispenser.obj
 0001:0000ac00       ??I?$CComPtrBase@UIConnectionPointContainer@@@ATL@@QEAAPEAPEAUIConnectionPointContainer@@XZ 000000018000bc00 f i CoinDispenser.obj
 0001:0000ac70       ??I?$CComPtrBase@UIDataAdviseHolder@@@ATL@@QEAAPEAPEAUIDataAdviseHolder@@XZ 000000018000bc70 f i CoinDispenser.obj
 0001:0000ace0       ??I?$CComPtrBase@UIDataObject@@@ATL@@QEAAPEAPEAUIDataObject@@XZ 000000018000bce0 f i CoinDispenser.obj
 0001:0000ad50       ??I?$CComPtrBase@UIDispatch@@@ATL@@QEAAPEAPEAUIDispatch@@XZ 000000018000bd50 f i CoinDispenser.obj
 0001:0000adc0       ??I?$CComPtrBase@UIOleAdviseHolder@@@ATL@@QEAAPEAPEAUIOleAdviseHolder@@XZ 000000018000bdc0 f i CoinDispenser.obj
 0001:0000ae30       ??I?$CComPtrBase@UIOleControlSite@@@ATL@@QEAAPEAPEAUIOleControlSite@@XZ 000000018000be30 f i CoinDispenser.obj
 0001:0000aea0       ??I?$CComPtrBase@UIOleInPlaceActiveObject@@@ATL@@QEAAPEAPEAUIOleInPlaceActiveObject@@XZ 000000018000bea0 f i CoinDispenser.obj
 0001:0000af10       ??I?$CComPtrBase@UIOleInPlaceFrame@@@ATL@@QEAAPEAPEAUIOleInPlaceFrame@@XZ 000000018000bf10 f i CoinDispenser.obj
 0001:0000af80       ??I?$CComPtrBase@UIOleInPlaceObject@@@ATL@@QEAAPEAPEAUIOleInPlaceObject@@XZ 000000018000bf80 f i CoinDispenser.obj
 0001:0000aff0       ??I?$CComPtrBase@UIOleInPlaceSiteWindowless@@@ATL@@QEAAPEAPEAUIOleInPlaceSiteWindowless@@XZ 000000018000bff0 f i CoinDispenser.obj
 0001:0000b060       ??I?$CComPtrBase@UIOleInPlaceUIWindow@@@ATL@@QEAAPEAPEAUIOleInPlaceUIWindow@@XZ 000000018000c060 f i CoinDispenser.obj
 0001:0000b0d0       ??I?$CComPtrBase@UIOleObject@@@ATL@@QEAAPEAPEAUIOleObject@@XZ 000000018000c0d0 f i CoinDispenser.obj
 0001:0000b140       ??I?$CComPtrBase@UIPersistStream@@@ATL@@QEAAPEAPEAUIPersistStream@@XZ 000000018000c140 f i CoinDispenser.obj
 0001:0000b1b0       ??I?$CComPtrBase@UIPointerInactive@@@ATL@@QEAAPEAPEAUIPointerInactive@@XZ 000000018000c1b0 f i CoinDispenser.obj
 0001:0000b220       ??I?$CComPtrBase@UIProvideClassInfo2@@@ATL@@QEAAPEAPEAUIProvideClassInfo2@@XZ 000000018000c220 f i CoinDispenser.obj
 0001:0000b290       ??I?$CComPtrBase@UIStream@@@ATL@@QEAAPEAPEAUIStream@@XZ 000000018000c290 f i CoinDispenser.obj
 0001:0000b300       ??I?$CComPtrBase@UITypeInfo2@@@ATL@@QEAAPEAPEAUITypeInfo2@@XZ 000000018000c300 f i CoinDispenser.obj
 0001:0000b370       ??I?$CComPtrBase@UITypeInfo@@@ATL@@QEAAPEAPEAUITypeInfo@@XZ 000000018000c370 f i CoinDispenser.obj
 0001:0000b3e0       ??I?$CComPtrBase@UITypeLib@@@ATL@@QEAAPEAPEAUITypeLib@@XZ 000000018000c3e0 f i CoinDispenser.obj
 0001:0000b450       ??I?$CComPtrBase@UIUnknown@@@ATL@@QEAAPEAPEAUIUnknown@@XZ 000000018000c450 f i CoinDispenser.obj
 0001:0000b4c0       ??I?$CComPtrBase@UIViewObjectEx@@@ATL@@QEAAPEAPEAUIViewObjectEx@@XZ 000000018000c4c0 f i CoinDispenser.obj
 0001:0000b530       ??ICComBSTR@ATL@@QEAAPEAPEA_WXZ 000000018000c530 f i CoinDispenser.obj
 0001:0000b540       ??_E?$CComContainedObject@VCOPOSCoinDispenser@@@ATL@@W7EAAPEAXI@Z 000000018000c540 f i CoinDispenser.obj
 0001:0000b54c       ??_E?$CComContainedObject@VCOPOSCoinDispenser@@@ATL@@WHA@EAAPEAXI@Z 000000018000c54c f i CoinDispenser.obj
 0001:0000b558       ??_E?$CComObject@VCOPOSCoinDispenser@@@ATL@@W7EAAPEAXI@Z 000000018000c558 f i CoinDispenser.obj
 0001:0000b564       ??_E?$CComObject@VCOPOSCoinDispenser@@@ATL@@WHA@EAAPEAXI@Z 000000018000c564 f i CoinDispenser.obj
 0001:0000b570       ??_E?$CComAggObject@VCOPOSCoinDispenser@@@ATL@@UEAAPEAXI@Z 000000018000c570 f i CoinDispenser.obj
 0001:0000b570       ??_G?$CComAggObject@VCOPOSCoinDispenser@@@ATL@@UEAAPEAXI@Z 000000018000c570 f i CoinDispenser.obj
 0001:0000b5d0       ??_E?$CComContainedObject@VCOPOSCoinDispenser@@@ATL@@UEAAPEAXI@Z 000000018000c5d0 f i CoinDispenser.obj
 0001:0000b5d0       ??_G?$CComContainedObject@VCOPOSCoinDispenser@@@ATL@@UEAAPEAXI@Z 000000018000c5d0 f i CoinDispenser.obj
 0001:0000b630       ??_E?$CComObject@V?$CComEnum@UIEnumConnectionPoints@@$1?_GUID_b196b285_bab4_101a_b69c_00aa00341d07@@3U__s_GUID@@BPEAUIConnectionPoint@@V?$_CopyInterface@UIConnectionPoint@@@ATL@@VCComSingleThreadModel@6@@ATL@@@ATL@@UEAAPEAXI@Z 000000018000c630 f i CoinDispenser.obj
 0001:0000b630       ??_G?$CComObject@V?$CComEnum@UIEnumConnectionPoints@@$1?_GUID_b196b285_bab4_101a_b69c_00aa00341d07@@3U__s_GUID@@BPEAUIConnectionPoint@@V?$_CopyInterface@UIConnectionPoint@@@ATL@@VCComSingleThreadModel@6@@ATL@@@ATL@@UEAAPEAXI@Z 000000018000c630 f i CoinDispenser.obj
 0001:0000b690       ??_E?$CComObject@V?$CComEnum@UIEnumConnections@@$1?_GUID_b196b287_bab4_101a_b69c_00aa00341d07@@3U__s_GUID@@BUtagCONNECTDATA@@V?$_Copy@UtagCONNECTDATA@@@ATL@@VCComSingleThreadModel@6@@ATL@@@ATL@@UEAAPEAXI@Z 000000018000c690 f i CoinDispenser.obj
 0001:0000b690       ??_G?$CComObject@V?$CComEnum@UIEnumConnections@@$1?_GUID_b196b287_bab4_101a_b69c_00aa00341d07@@3U__s_GUID@@BUtagCONNECTDATA@@V?$_Copy@UtagCONNECTDATA@@@ATL@@VCComSingleThreadModel@6@@ATL@@@ATL@@UEAAPEAXI@Z 000000018000c690 f i CoinDispenser.obj
 0001:0000b6f0       ??_G?$CComObject@VCOPOSCoinDispenser@@@ATL@@UEAAPEAXI@Z 000000018000c6f0 f i CoinDispenser.obj
 0001:0000b6f0       ??_E?$CComObject@VCOPOSCoinDispenser@@@ATL@@UEAAPEAXI@Z 000000018000c6f0 f i CoinDispenser.obj
 0001:0000b750       ??_G?$CComObjectCached@VCComClassFactory@ATL@@@ATL@@UEAAPEAXI@Z 000000018000c750 f i CoinDispenser.obj
 0001:0000b750       ??_E?$CComObjectCached@VCComClassFactory@ATL@@@ATL@@UEAAPEAXI@Z 000000018000c750 f i CoinDispenser.obj
 0001:0000b7b0       ??_GCComClassFactory@ATL@@UEAAPEAXI@Z 000000018000c7b0 f i CoinDispenser.obj
 0001:0000b7b0       ??_ECComClassFactory@ATL@@UEAAPEAXI@Z 000000018000c7b0 f i CoinDispenser.obj
 0001:0000b810       ??_GCComModule@ATL@@UEAAPEAXI@Z 000000018000c810 f i CoinDispenser.obj
 0001:0000b810       ??_ECComModule@ATL@@UEAAPEAXI@Z 000000018000c810 f i CoinDispenser.obj
 0001:0000b870       ??_ECRegObject@ATL@@UEAAPEAXI@Z 000000018000c870 f i CoinDispenser.obj
 0001:0000b870       ??_GCRegObject@ATL@@UEAAPEAXI@Z 000000018000c870 f i CoinDispenser.obj
 0001:0000b8d0       ?Add@?$CSimpleArray@GV?$CSimpleArrayEqualHelper@G@ATL@@@ATL@@QEAAHAEBG@Z 000000018000c8d0 f i CoinDispenser.obj
 0001:0000ba70       ?Add@?$CSimpleMap@PEA_WPEA_WVCExpansionVectorEqualHelper@ATL@@@ATL@@QEAAHAEBQEA_W0@Z 000000018000ca70 f i CoinDispenser.obj
 0001:0000bb60       ?Add@CComDynamicUnkArray@ATL@@QEAAKPEAUIUnknown@@@Z 000000018000cb60 f i CoinDispenser.obj
 0001:0000bd40       ?Add@CExpansionVector@ATL@@QEAAHPEB_W0@Z 000000018000cd40 f i CoinDispenser.obj
 0001:0000c070       ?AddChar@CParseBuffer@CRegParser@ATL@@QEAAHPEB_W@Z 000000018000d070 f i CoinDispenser.obj
 0001:0000c0c0       ?AddCommonRGSReplacements@?$CAtlModuleT@VCComModule@ATL@@@ATL@@UEAAJPEAUIRegistrarBase@@@Z 000000018000d0c0 f i CoinDispenser.obj
 0001:0000c120       ?AddCreateWndData@CAtlWinModule@ATL@@QEAAXPEAU_AtlCreateWndData@2@PEAX@Z 000000018000d120 f i CoinDispenser.obj
 0001:0000c170       ?AddRef@?$CComAggObject@VCOPOSCoinDispenser@@@ATL@@UEAAKXZ 000000018000d170 f i CoinDispenser.obj
 0001:0000c1b0       ?AddRef@?$CComContainedObject@VCOPOSCoinDispenser@@@ATL@@UEAAKXZ 000000018000d1b0 f i CoinDispenser.obj
 0001:0000c1e8       ?AddRef@?$CComContainedObject@VCOPOSCoinDispenser@@@ATL@@WBAA@EAAKXZ 000000018000d1e8 f i CoinDispenser.obj
 0001:0000c1f4       ?AddRef@?$CComContainedObject@VCOPOSCoinDispenser@@@ATL@@WBAI@EAAKXZ 000000018000d1f4 f i CoinDispenser.obj
 0001:0000c200       ?AddRef@?$CComContainedObject@VCOPOSCoinDispenser@@@ATL@@WBBA@EAAKXZ 000000018000d200 f i CoinDispenser.obj
 0001:0000c20c       ?AddRef@?$CComContainedObject@VCOPOSCoinDispenser@@@ATL@@WBBI@EAAKXZ 000000018000d20c f i CoinDispenser.obj
 0001:0000c218       ?AddRef@?$CComContainedObject@VCOPOSCoinDispenser@@@ATL@@WBCI@EAAKXZ 000000018000d218 f i CoinDispenser.obj
 0001:0000c224       ?AddRef@?$CComContainedObject@VCOPOSCoinDispenser@@@ATL@@WBEA@EAAKXZ 000000018000d224 f i CoinDispenser.obj
 0001:0000c230       ?AddRef@?$CComContainedObject@VCOPOSCoinDispenser@@@ATL@@WLI@EAAKXZ 000000018000d230 f i CoinDispenser.obj
 0001:0000c23c       ?AddRef@?$CComContainedObject@VCOPOSCoinDispenser@@@ATL@@WMA@EAAKXZ 000000018000d23c f i CoinDispenser.obj
 0001:0000c248       ?AddRef@?$CComContainedObject@VCOPOSCoinDispenser@@@ATL@@WMI@EAAKXZ 000000018000d248 f i CoinDispenser.obj
 0001:0000c254       ?AddRef@?$CComContainedObject@VCOPOSCoinDispenser@@@ATL@@WNA@EAAKXZ 000000018000d254 f i CoinDispenser.obj
 0001:0000c260       ?AddRef@?$CComContainedObject@VCOPOSCoinDispenser@@@ATL@@WNI@EAAKXZ 000000018000d260 f i CoinDispenser.obj
 0001:0000c26c       ?AddRef@?$CComContainedObject@VCOPOSCoinDispenser@@@ATL@@WOA@EAAKXZ 000000018000d26c f i CoinDispenser.obj
 0001:0000c278       ?AddRef@?$CComContainedObject@VCOPOSCoinDispenser@@@ATL@@WOI@EAAKXZ 000000018000d278 f i CoinDispenser.obj
 0001:0000c284       ?AddRef@?$CComContainedObject@VCOPOSCoinDispenser@@@ATL@@WPA@EAAKXZ 000000018000d284 f i CoinDispenser.obj
 0001:0000c290       ?AddRef@?$CComContainedObject@VCOPOSCoinDispenser@@@ATL@@WPI@EAAKXZ 000000018000d290 f i CoinDispenser.obj
 0001:0000c2a0       ?AddRef@?$CComObject@V?$CComEnum@UIEnumConnectionPoints@@$1?_GUID_b196b285_bab4_101a_b69c_00aa00341d07@@3U__s_GUID@@BPEAUIConnectionPoint@@V?$_CopyInterface@UIConnectionPoint@@@ATL@@VCComSingleThreadModel@6@@ATL@@@ATL@@UEAAKXZ 000000018000d2a0 f i CoinDispenser.obj
 0001:0000c2e0       ?AddRef@?$CComObject@V?$CComEnum@UIEnumConnections@@$1?_GUID_b196b287_bab4_101a_b69c_00aa00341d07@@3U__s_GUID@@BUtagCONNECTDATA@@V?$_Copy@UtagCONNECTDATA@@@ATL@@VCComSingleThreadModel@6@@ATL@@@ATL@@UEAAKXZ 000000018000d2e0 f i CoinDispenser.obj
 0001:0000c320       ?AddRef@?$CComObject@VCOPOSCoinDispenser@@@ATL@@UEAAKXZ 000000018000d320 f i CoinDispenser.obj
 0001:0000c358       ?AddRef@?$CComObject@VCOPOSCoinDispenser@@@ATL@@WBAA@EAAKXZ 000000018000d358 f i CoinDispenser.obj
 0001:0000c364       ?AddRef@?$CComObject@VCOPOSCoinDispenser@@@ATL@@WBAI@EAAKXZ 000000018000d364 f i CoinDispenser.obj
 0001:0000c370       ?AddRef@?$CComObject@VCOPOSCoinDispenser@@@ATL@@WBBA@EAAKXZ 000000018000d370 f i CoinDispenser.obj
 0001:0000c37c       ?AddRef@?$CComObject@VCOPOSCoinDispenser@@@ATL@@WBBI@EAAKXZ 000000018000d37c f i CoinDispenser.obj
 0001:0000c388       ?AddRef@?$CComObject@VCOPOSCoinDispenser@@@ATL@@WBCI@EAAKXZ 000000018000d388 f i CoinDispenser.obj
 0001:0000c394       ?AddRef@?$CComObject@VCOPOSCoinDispenser@@@ATL@@WBEA@EAAKXZ 000000018000d394 f i CoinDispenser.obj
 0001:0000c3a0       ?AddRef@?$CComObject@VCOPOSCoinDispenser@@@ATL@@WLI@EAAKXZ 000000018000d3a0 f i CoinDispenser.obj
 0001:0000c3ac       ?AddRef@?$CComObject@VCOPOSCoinDispenser@@@ATL@@WMA@EAAKXZ 000000018000d3ac f i CoinDispenser.obj
 0001:0000c3b8       ?AddRef@?$CComObject@VCOPOSCoinDispenser@@@ATL@@WMI@EAAKXZ 000000018000d3b8 f i CoinDispenser.obj
 0001:0000c3c4       ?AddRef@?$CComObject@VCOPOSCoinDispenser@@@ATL@@WNA@EAAKXZ 000000018000d3c4 f i CoinDispenser.obj
 0001:0000c3d0       ?AddRef@?$CComObject@VCOPOSCoinDispenser@@@ATL@@WNI@EAAKXZ 000000018000d3d0 f i CoinDispenser.obj
 0001:0000c3dc       ?AddRef@?$CComObject@VCOPOSCoinDispenser@@@ATL@@WOA@EAAKXZ 000000018000d3dc f i CoinDispenser.obj
 0001:0000c3e8       ?AddRef@?$CComObject@VCOPOSCoinDispenser@@@ATL@@WOI@EAAKXZ 000000018000d3e8 f i CoinDispenser.obj
 0001:0000c3f4       ?AddRef@?$CComObject@VCOPOSCoinDispenser@@@ATL@@WPA@EAAKXZ 000000018000d3f4 f i CoinDispenser.obj
 0001:0000c400       ?AddRef@?$CComObject@VCOPOSCoinDispenser@@@ATL@@WPI@EAAKXZ 000000018000d400 f i CoinDispenser.obj
 0001:0000c410       ?AddRef@?$CComObjectCached@VCComClassFactory@ATL@@@ATL@@UEAAKXZ 000000018000d410 f i CoinDispenser.obj
 0001:0000c470       ?AddRef@CRegObject@ATL@@UEAAKXZ 000000018000d470 f i CoinDispenser.obj
 0001:0000c4e0       ?AddReplacement@CRegObject@ATL@@UEAAJPEB_W0@Z 000000018000d4e0 f i CoinDispenser.obj
 0001:0000c610       ?AddString@CParseBuffer@CRegParser@ATL@@QEAAHPEB_W@Z 000000018000d610 f i CoinDispenser.obj
 0001:0000c700       ?AddTermFunc@CAtlModule@ATL@@QEAAJP6AX_K@Z0@Z 000000018000d700 f i CoinDispenser.obj
 0001:0000c770       ?AddValue@CRegParser@ATL@@IEAAJAEAVCRegKey@2@PEB_WPEA_W@Z 000000018000d770 f i CoinDispenser.obj
 0001:0000d040       ?Advise@?$CProxy_IOPOSEvents@VCOPOSCoinDispenser@@@@UEAAJPEAUIUnknown@@PEAK@Z 000000018000e040 f i CoinDispenser.obj
 0001:0000d0b0       ?Advise@?$IConnectionPointImpl@VCOPOSCoinDispenser@@$1?DIID__IOPOSCoinDispenserEvents@@3U_GUID@@BVCComDynamicUnkArray@ATL@@@ATL@@UEAAJPEAUIUnknown@@PEAK@Z 000000018000e0b0 f i CoinDispenser.obj
 0001:0000d2b0       ?Advise@?$IConnectionPointImpl@VCOPOSCoinDispenser@@$1?IID_IPropertyNotifySink@@3U_GUID@@BVCComDynamicUnkArray@ATL@@@ATL@@UEAAJPEAUIUnknown@@PEAK@Z 000000018000e2b0 f i CoinDispenser.obj
 0001:0000d4b0       ?Advise@?$IOleObjectImpl@VCOPOSCoinDispenser@@@ATL@@UEAAJPEAUIAdviseSink@@PEAK@Z 000000018000e4b0 f i CoinDispenser.obj
 0001:0000d570       ?Allocate@?$CAtlSafeAllocBufferManager@VCCRTAllocator@ATL@@@_ATL_SAFE_ALLOCA_IMPL@ATL@@QEAAPEAX_K@Z 000000018000e570 f i CoinDispenser.obj
 0001:0000d5f0       ?Allocate@?$CTempBuffer@E$0BAA@VCCRTAllocator@ATL@@@ATL@@QEAAPEAE_K@Z 000000018000e5f0 f i CoinDispenser.obj
 0001:0000d640       ?Allocate@?$CTempBuffer@_W$0BAA@VCCRTAllocator@ATL@@@ATL@@QEAAPEA_W_K@Z 000000018000e640 f i CoinDispenser.obj
 0001:0000d690       ?Allocate@?$CTempBuffer@_W$0EAA@VCCRTAllocator@ATL@@@ATL@@QEAAPEA_W_K@Z 000000018000e690 f i CoinDispenser.obj
 0001:0000d6e0       ?AllocateBytes@?$CTempBuffer@E$0BAA@VCCRTAllocator@ATL@@@ATL@@QEAAPEAE_K@Z 000000018000e6e0 f i CoinDispenser.obj
 0001:0000d790       ?AllocateBytes@?$CTempBuffer@_W$0BAA@VCCRTAllocator@ATL@@@ATL@@QEAAPEA_W_K@Z 000000018000e790 f i CoinDispenser.obj
 0001:0000d840       ?AllocateBytes@?$CTempBuffer@_W$0EAA@VCCRTAllocator@ATL@@@ATL@@QEAAPEA_W_K@Z 000000018000e840 f i CoinDispenser.obj
 0001:0000d8f0       ?AllocateHeap@?$CTempBuffer@E$0BAA@VCCRTAllocator@ATL@@@ATL@@AEAAX_K@Z 000000018000e8f0 f i CoinDispenser.obj
 0001:0000d950       ?AllocateHeap@?$CTempBuffer@_W$0BAA@VCCRTAllocator@ATL@@@ATL@@AEAAX_K@Z 000000018000e950 f i CoinDispenser.obj
 0001:0000d9b0       ?AllocateHeap@?$CTempBuffer@_W$0EAA@VCCRTAllocator@ATL@@@ATL@@AEAAX_K@Z 000000018000e9b0 f i CoinDispenser.obj
 0001:0000da10       ?Append@CParseBuffer@CRegParser@ATL@@QEAAHPEB_WH@Z 000000018000ea10 f i CoinDispenser.obj
 0001:0000dc40       ?AtlCallTermFunc@ATL@@YAXPEAU_ATL_MODULE70@1@@Z 000000018000ec40 f i CoinDispenser.obj
 0001:0000dcf0       ?AtlCoTaskMemCAlloc@ATL@@YAPEAXKK@Z 000000018000ecf0 f i CoinDispenser.obj
 0001:0000dd70       ?AtlCoTaskMemRecalloc@ATL@@YAPEAXPEAXKK@Z 000000018000ed70 f i CoinDispenser.obj
 0001:0000ddf0       ?AtlComModuleGetClassObject@ATL@@YAJPEAU_ATL_COM_MODULE70@1@AEBU_GUID@@1PEAPEAX@Z 000000018000edf0 f i CoinDispenser.obj
 0001:0000e120       ?AtlComModuleRegisterServer@ATL@@YAJPEAU_ATL_COM_MODULE70@1@HPEBU_GUID@@@Z 000000018000f120 f i CoinDispenser.obj
 0001:0000e320       ?AtlComModuleUnregisterServer@ATL@@YAJPEAU_ATL_COM_MODULE70@1@HPEBU_GUID@@@Z 000000018000f320 f i CoinDispenser.obj
 0001:0000e480       ?AtlComQIPtrAssign2@ATL@@YAXPEAPEAUIUnknown@@PEAU2@AEBU_GUID@@@Z 000000018000f480 f i CoinDispenser.obj
 0001:0000e510       ?AtlCreateTargetDC@ATL@@YAPEAUHDC__@@PEAU2@PEAUtagDVTARGETDEVICE@@@Z 000000018000f510 f i CoinDispenser.obj
 0001:0000e740       ?AtlCrtErrorCheck@ATL@@YAHH@Z 000000018000f740 f i CoinDispenser.obj
 0001:0000e7c0       ?AtlGetPerUserRegistration@ATL@@YAJPEA_N@Z 000000018000f7c0 f i CoinDispenser.obj
 0001:0000e7f0       ?AtlHiMetricToPixel@ATL@@YAXPEBUtagSIZE@@PEAU2@@Z 000000018000f7f0 f i CoinDispenser.obj
 0001:0000e9f0       ?AtlHresultFromLastError@ATL@@YAJXZ 000000018000f9f0 f i CoinDispenser.obj
 0001:0000ea20       ?AtlHresultFromWin32@ATL@@YAJK@Z 000000018000fa20 f i CoinDispenser.obj
 0001:0000ea50       ?AtlIPersistStreamInit_Load@ATL@@YAJPEAUIStream@@PEBUATL_PROPMAP_ENTRY@1@PEAXPEAUIUnknown@@@Z 000000018000fa50 f i CoinDispenser.obj
 0001:0000f0c0       ?AtlIPersistStreamInit_Save@ATL@@YAJPEAUIStream@@HPEBUATL_PROPMAP_ENTRY@1@PEAXPEAUIUnknown@@@Z 00000001800100c0 f i CoinDispenser.obj
 0001:0000f650       ?AtlInternalOleLoadFromStream@ATL@@YAJPEAUIStream@@AEBU_GUID@@PEAPEAXTClassesAllowedInStream@1@K@Z 0000000180010650 f i CoinDispenser.obj
 0001:0000f990       ?AtlInternalQueryInterface@ATL@@YAJPEAXPEBU_ATL_INTMAP_ENTRY@1@AEBU_GUID@@PEAPEAX@Z 0000000180010990 f i CoinDispenser.obj
 0001:0000fc50       ?AtlLoadTypeLib@ATL@@YAJPEAUHINSTANCE__@@PEB_WPEAPEA_WPEAPEAUITypeLib@@@Z 0000000180010c50 f i CoinDispenser.obj
 0001:00010120       ?AtlModuleAddTermFunc@ATL@@YAJPEAU_ATL_MODULE70@1@P6AX_K@Z1@Z 0000000180011120 f i CoinDispenser.obj
 0001:000102f0       ?AtlRegisterClassCategoriesHelper@ATL@@YAJAEBU_GUID@@PEBU_ATL_CATMAP_ENTRY@1@H@Z 00000001800112f0 f i CoinDispenser.obj
 0001:00010ac0       ?AtlRegisterTypeLib@ATL@@YAJPEAUHINSTANCE__@@PEB_W@Z 0000000180011ac0 f i CoinDispenser.obj
 0001:00010e20       ?AtlThrowImpl@ATL@@YAXJ@Z  0000000180011e20 f i CoinDispenser.obj
 0001:00010f00       ?AtlUnRegisterTypeLib@ATL@@YAJPEAUHINSTANCE__@@PEB_W@Z 0000000180011f00 f i CoinDispenser.obj
 0001:00011130       ?AtlWinModuleAddCreateWndData@ATL@@YAXPEAU_ATL_WIN_MODULE70@1@PEAU_AtlCreateWndData@1@PEAX@Z 0000000180012130 f i CoinDispenser.obj
 0001:00011320       ?AtlWinModuleExtractCreateWndData@ATL@@YAPEAXPEAU_ATL_WIN_MODULE70@1@@Z 0000000180012320 f i CoinDispenser.obj
 0001:00011520       ?AtlWinModuleRegisterClassExW@ATL@@YAGPEAU_ATL_WIN_MODULE70@1@PEBUtagWNDCLASSEXW@@@Z 0000000180012520 f i CoinDispenser.obj
 0001:000115f0       ?AtlWinModuleRegisterWndClassInfoW@ATL@@YAGPEAU_ATL_WIN_MODULE70@1@PEAU_ATL_BASE_MODULE70@1@PEAU_ATL_WNDCLASSINFOW@1@PEAP6A_JPEAUHWND__@@I_K_J@Z@Z 00000001800125f0 f i CoinDispenser.obj
 0001:00011660       ?Attach@?$CAutoVectorPtr@_W@ATL@@QEAAXPEA_W@Z 0000000180012660 f i CoinDispenser.obj
 0001:000116f0       ?Attach@CComBSTR@ATL@@QEAAXPEA_W@Z 00000001800126f0 f i CoinDispenser.obj
 0001:00011750       ?Attach@CRegKey@ATL@@QEAAXPEAUHKEY__@@@Z 0000000180012750 f i CoinDispenser.obj
 0001:000117f0       ?CanForceRemoveKey@CRegParser@ATL@@IEAAHPEB_W@Z 00000001800127f0 f i CoinDispenser.obj
 0001:00011860       ?ChToByte@CRegParser@ATL@@KAE_W@Z 0000000180012860 f i CoinDispenser.obj
 0001:000119c0       ?ChangeType@CComVariant@ATL@@QEAAJGPEBUtagVARIANT@@@Z 00000001800129c0 f i CoinDispenser.obj
 0001:00011a30       ?Cleanup@CComTypeInfoHolder@ATL@@SAX_K@Z 0000000180012a30 f i CoinDispenser.obj
 0001:00011b20       ?Clear@CComVariant@ATL@@QEAAJXZ 0000000180012b20 f i CoinDispenser.obj
 0001:00011b50       ?ClearReplacements@CExpansionVector@ATL@@QEAAJXZ 0000000180012b50 f i CoinDispenser.obj
 0001:00011bf0       ?ClearReplacements@CRegObject@ATL@@UEAAJXZ 0000000180012bf0 f i CoinDispenser.obj
 0001:00011c50       ?Clone@?$CComEnumImpl@UIEnumConnectionPoints@@$1?_GUID_b196b285_bab4_101a_b69c_00aa00341d07@@3U__s_GUID@@BPEAUIConnectionPoint@@V?$_CopyInterface@UIConnectionPoint@@@ATL@@@ATL@@UEAAJPEAPEAUIEnumConnectionPoints@@@Z 0000000180012c50 f i CoinDispenser.obj
 0001:00011e40       ?Clone@?$CComEnumImpl@UIEnumConnections@@$1?_GUID_b196b287_bab4_101a_b69c_00aa00341d07@@3U__s_GUID@@BUtagCONNECTDATA@@V?$_Copy@UtagCONNECTDATA@@@ATL@@@ATL@@UEAAJPEAPEAUIEnumConnections@@@Z 0000000180012e40 f i CoinDispenser.obj
 0001:00012030       ?Close@?$IOleObjectImpl@VCOPOSCoinDispenser@@@ATL@@UEAAJK@Z 0000000180013030 f i CoinDispenser.obj
 0001:000120e0       ?Close@CRegKey@ATL@@QEAAJXZ 00000001800130e0 f i CoinDispenser.obj
 0001:00012150       ?ContextSensitiveHelp@?$IOleInPlaceActiveObjectImpl@VCOPOSCoinDispenser@@@ATL@@UEAAJH@Z 0000000180013150 f i CoinDispenser.obj
 0001:000121d0       ?ContextSensitiveHelp@?$IOleInPlaceObjectWindowlessImpl@VCOPOSCoinDispenser@@@ATL@@UEAAJH@Z 00000001800131d0 f i CoinDispenser.obj
 0001:00012250       ?ControlQueryInterface@?$CComControl@VCOPOSCoinDispenser@@V?$CWindowImpl@VCOPOSCoinDispenser@@VCWindow@ATL@@V?$CWinTraits@$0FGAAAAAA@$0A@@3@@ATL@@@ATL@@UEAAJAEBU_GUID@@PEAPEAX@Z 0000000180013250 f i CoinDispenser.obj
 0001:000122e0       ?CreateControlWindow@?$CComControl@VCOPOSCoinDispenser@@V?$CWindowImpl@VCOPOSCoinDispenser@@VCWindow@ATL@@V?$CWinTraits@$0FGAAAAAA@$0A@@3@@ATL@@@ATL@@UEAAPEAUHWND__@@PEAU3@AEAUtagRECT@@@Z 00000001800132e0 f i CoinDispenser.obj
 0001:000123d0       ?CreateInstance@?$CComCreator@V?$CComAggObject@VCOPOSCoinDispenser@@@ATL@@@ATL@@SAJPEAXAEBU_GUID@@PEAPEAX@Z 00000001800133d0 f i CoinDispenser.obj
 0001:000125b0       ?CreateInstance@?$CComCreator@V?$CComObject@VCOPOSCoinDispenser@@@ATL@@@ATL@@SAJPEAXAEBU_GUID@@PEAPEAX@Z 00000001800135b0 f i CoinDispenser.obj
 0001:000127b0       ?CreateInstance@?$CComObject@V?$CComEnum@UIEnumConnectionPoints@@$1?_GUID_b196b285_bab4_101a_b69c_00aa00341d07@@3U__s_GUID@@BPEAUIConnectionPoint@@V?$_CopyInterface@UIConnectionPoint@@@ATL@@VCComSingleThreadModel@6@@ATL@@@ATL@@SAJPEAPEAV12@@Z 00000001800137b0 f i CoinDispenser.obj
 0001:00012970       ?CreateInstance@?$CComObject@V?$CComEnum@UIEnumConnections@@$1?_GUID_b196b287_bab4_101a_b69c_00aa00341d07@@3U__s_GUID@@BUtagCONNECTDATA@@V?$_Copy@UtagCONNECTDATA@@@ATL@@VCComSingleThreadModel@6@@ATL@@@ATL@@SAJPEAPEAV12@@Z 0000000180013970 f i CoinDispenser.obj
 0001:00012b30       ?CreateInstance@CComClassFactory@ATL@@UEAAJPEAUIUnknown@@AEBU_GUID@@PEAPEAX@Z 0000000180013b30 f i CoinDispenser.obj
 0001:00012c50       ?DAdvise@?$IDataObjectImpl@VCOPOSCoinDispenser@@@ATL@@UEAAJPEAUtagFORMATETC@@KPEAUIAdviseSink@@PEAK@Z 0000000180013c50 f i CoinDispenser.obj
 0001:00012db0       ?DEVMODEOLE2T_EX@@YAPEAU_devicemodeW@@PEAU1@@Z 0000000180013db0 f i CoinDispenser.obj
 0001:00012dc0       ?DUnadvise@?$IDataObjectImpl@VCOPOSCoinDispenser@@@ATL@@UEAAJK@Z 0000000180013dc0 f i CoinDispenser.obj
 0001:00012ec0       ?Decrement@CComMultiThreadModel@ATL@@SAKPEAJ@Z 0000000180013ec0 f i CoinDispenser.obj
 0001:00012ee0       ?Decrement@CComSingleThreadModel@ATL@@SAKPEAJ@Z 0000000180013ee0 f i CoinDispenser.obj
 0001:00012f00       ?DefWindowProcW@?$CWindowImplBaseT@VCWindow@ATL@@V?$CWinTraits@$0FGAAAAAA@$0A@@2@@ATL@@QEAA_JI_K_J@Z 0000000180013f00 f i CoinDispenser.obj
 0001:00012f60       ?DefaultReflectionHandler@?$CWindowImplRoot@VCWindow@ATL@@@ATL@@SAHPEAUHWND__@@I_K_JAEA_J@Z 0000000180013f60 f i CoinDispenser.obj
 0001:00013050       ?DeleteSubKey@CRegKey@ATL@@QEAAJPEB_W@Z 0000000180014050 f i CoinDispenser.obj
 0001:00013180       ?DeleteValue@CRegKey@ATL@@QEAAJPEB_W@Z 0000000180014180 f i CoinDispenser.obj
 0001:00013210       ?Detach@?$CAutoVectorPtr@_W@ATL@@QEAAPEA_WXZ 0000000180014210 f i CoinDispenser.obj
 0001:00013250       ?Detach@?$CComPtrBase@UIPersistStream@@@ATL@@QEAAPEAUIPersistStream@@XZ 0000000180014250 f i CoinDispenser.obj
 0001:00013290       ?Detach@?$CComPtrBase@UITypeInfo@@@ATL@@QEAAPEAUITypeInfo@@XZ 0000000180014290 f i CoinDispenser.obj
 0001:000132d0       ?Detach@?$CComPtrBase@UIUnknown@@@ATL@@QEAAPEAUIUnknown@@XZ 00000001800142d0 f i CoinDispenser.obj
 0001:00013310       ?Detach@CComBSTR@ATL@@QEAAPEA_WXZ 0000000180014310 f i CoinDispenser.obj
 0001:00013350       ?Detach@CParseBuffer@CRegParser@ATL@@QEAAPEA_WXZ 0000000180014350 f i CoinDispenser.obj
 0001:000133b0       ?Detach@CRegKey@ATL@@QEAAPEAUHKEY__@@XZ 00000001800143b0 f i CoinDispenser.obj
 0001:00013410       ?DoEvent@COPOSCoinDispenser@@IEAAXI_K_J@Z 0000000180014410 f i CoinDispenser.obj
 0001:00013550       ?DoVerb@?$IOleObjectImpl@VCOPOSCoinDispenser@@@ATL@@UEAAJJPEAUtagMSG@@PEAUIOleClientSite@@JPEAUHWND__@@PEBUtagRECT@@@Z 0000000180014550 f i CoinDispenser.obj
 0001:00013860       ?DoVerbDiscardUndo@?$IOleObjectImpl@VCOPOSCoinDispenser@@@ATL@@QEAAJPEBUtagRECT@@PEAUHWND__@@@Z 0000000180014860 f i CoinDispenser.obj
 0001:00013900       ?DoVerbHide@?$IOleObjectImpl@VCOPOSCoinDispenser@@@ATL@@QEAAJPEBUtagRECT@@PEAUHWND__@@@Z 0000000180014900 f i CoinDispenser.obj
 0001:000139e0       ?DoVerbInPlaceActivate@?$IOleObjectImpl@VCOPOSCoinDispenser@@@ATL@@QEAAJPEBUtagRECT@@PEAUHWND__@@@Z 00000001800149e0 f i CoinDispenser.obj
 0001:00013ac0       ?DoVerbOpen@?$IOleObjectImpl@VCOPOSCoinDispenser@@@ATL@@QEAAJPEBUtagRECT@@PEAUHWND__@@@Z 0000000180014ac0 f i CoinDispenser.obj
 0001:00013b60       ?DoVerbPrimary@?$IOleObjectImpl@VCOPOSCoinDispenser@@@ATL@@QEAAJPEBUtagRECT@@PEAUHWND__@@@Z 0000000180014b60 f i CoinDispenser.obj
 0001:00013ca0       ?DoVerbProperties@CComControlBase@ATL@@QEAAJPEBUtagRECT@@PEAUHWND__@@@Z 0000000180014ca0 f i CoinDispenser.obj
 0001:00014050       ?DoVerbShow@?$IOleObjectImpl@VCOPOSCoinDispenser@@@ATL@@QEAAJPEBUtagRECT@@PEAUHWND__@@@Z 0000000180015050 f i CoinDispenser.obj
 0001:00014110       ?DoVerbUIActivate@?$IOleObjectImpl@VCOPOSCoinDispenser@@@ATL@@QEAAJPEBUtagRECT@@PEAUHWND__@@@Z 0000000180015110 f i CoinDispenser.obj
 0001:000141f0       ?DoesVerbActivate@CComControlBase@ATL@@QEAAHJ@Z 00000001800151f0 f i CoinDispenser.obj
 0001:00014250       ?DoesVerbUIActivate@CComControlBase@ATL@@QEAAHJ@Z 0000000180015250 f i CoinDispenser.obj
 0001:000142d0       ?Draw@?$IViewObjectExImpl@VCOPOSCoinDispenser@@@ATL@@UEAAJKJPEAXPEAUtagDVTARGETDEVICE@@PEAUHDC__@@2PEBU_RECTL@@3P6AH_K@Z4@Z 00000001800152d0 f i CoinDispenser.obj
 0001:000143f0       ?Empty@CComBSTR@ATL@@QEAAXXZ 00000001800153f0 f i CoinDispenser.obj
 0001:00014430       ?EnableModeless@?$IOleInPlaceActiveObjectImpl@VCOPOSCoinDispenser@@@ATL@@UEAAJH@Z 0000000180015430 f i CoinDispenser.obj
 0001:000144a0       ?EndOfVar@CRegParser@ATL@@IEAAHXZ 00000001800154a0 f i CoinDispenser.obj
 0001:00014500       ?EnsureTI@CComTypeInfoHolder@ATL@@QEAAJK@Z 0000000180015500 f i CoinDispenser.obj
 0001:00014560       ?EnumAdvise@?$IOleObjectImpl@VCOPOSCoinDispenser@@@ATL@@UEAAJPEAPEAUIEnumSTATDATA@@@Z 0000000180015560 f i CoinDispenser.obj
 0001:000146c0       ?EnumConnectionPoints@?$IConnectionPointContainerImpl@VCOPOSCoinDispenser@@@ATL@@UEAAJPEAPEAUIEnumConnectionPoints@@@Z 00000001800156c0 f i CoinDispenser.obj
 0001:00014bb0       ?EnumConnections@?$IConnectionPointImpl@VCOPOSCoinDispenser@@$1?DIID__IOPOSCoinDispenserEvents@@3U_GUID@@BVCComDynamicUnkArray@ATL@@@ATL@@UEAAJPEAPEAUIEnumConnections@@@Z 0000000180015bb0 f i CoinDispenser.obj
 0001:00014f00       ?EnumConnections@?$IConnectionPointImpl@VCOPOSCoinDispenser@@$1?IID_IPropertyNotifySink@@3U_GUID@@BVCComDynamicUnkArray@ATL@@@ATL@@UEAAJPEAPEAUIEnumConnections@@@Z 0000000180015f00 f i CoinDispenser.obj
 0001:00015250       ?EnumDAdvise@?$IDataObjectImpl@VCOPOSCoinDispenser@@@ATL@@UEAAJPEAPEAUIEnumSTATDATA@@@Z 0000000180016250 f i CoinDispenser.obj
 0001:000153a0       ?EnumFormatEtc@?$IDataObjectImpl@VCOPOSCoinDispenser@@@ATL@@UEAAJKPEAPEAUIEnumFORMATETC@@@Z 00000001800163a0 f i CoinDispenser.obj
 0001:00015430       ?EnumVerbs@?$IOleObjectImpl@VCOPOSCoinDispenser@@@ATL@@UEAAJPEAPEAUIEnumOLEVERB@@@Z 0000000180016430 f i CoinDispenser.obj
 0001:00015500       ?EscapeSingleQuote@CAtlModule@ATL@@SAXPEA_W_KPEB_W@Z 0000000180016500 f i CoinDispenser.obj
 0001:00015600       ?ExtractCreateWndData@CAtlWinModule@ATL@@QEAAPEAXXZ 0000000180016600 f i CoinDispenser.obj
 0001:00015630       ?FAccessAllowed@?$IObjectSafetyImpl@VCOPOSCoinDispenser@@$02@ATL@@MEAAHXZ 0000000180016630 f i CoinDispenser.obj
 0001:00015640       ?FinalConstruct@?$CComAggObject@VCOPOSCoinDispenser@@@ATL@@QEAAJXZ 0000000180016640 f i CoinDispenser.obj
 0001:00015690       ?FinalConstruct@CComObjectRootBase@ATL@@QEAAJXZ 0000000180016690 f i CoinDispenser.obj
 0001:000156a0       ?FinalConstruct@CRegObject@ATL@@QEAAJXZ 00000001800166a0 f i CoinDispenser.obj
 0001:000156e0       ?FinalRelease@?$CComAggObject@VCOPOSCoinDispenser@@@ATL@@QEAAXXZ 00000001800166e0 f i CoinDispenser.obj
 0001:00015730       ?FinalRelease@CComObjectRootBase@ATL@@QEAAXXZ 0000000180016730 f i CoinDispenser.obj
 0001:00015740       ?FindConnectionPoint@?$IConnectionPointContainerImpl@VCOPOSCoinDispenser@@@ATL@@UEAAJAEBU_GUID@@PEAPEAUIConnectionPoint@@@Z 0000000180016740 f i CoinDispenser.obj
 0001:000158b0       ?FindKey@?$CSimpleMap@PEA_WPEA_WVCExpansionVectorEqualHelper@ATL@@@ATL@@QEBAHAEBQEA_W@Z 00000001800168b0 f i CoinDispenser.obj
 0001:00015930       ?FireTheEvent@?$CProxy_IOPOSEvents@VCOPOSCoinDispenser@@@@IEAAXPEAUIUnknown@@PEAVOposVariant@@IAEAJPEB_WJ@Z 0000000180016930 f i CoinDispenser.obj
 0001:00015b10       ?FireViewChange@CComControlBase@ATL@@QEAAJXZ 0000000180016b10 f i CoinDispenser.obj
 0001:00015bf0       ?Fire_DirectIOEvent@?$CProxy_IOPOSEvents@VCOPOSCoinDispenser@@@@QEAAXJPEAJPEAPEA_W@Z 0000000180016bf0 f i CoinDispenser.obj
 0001:00015e80       ?Fire_StatusUpdateEvent@?$CProxy_IOPOSEvents@VCOPOSCoinDispenser@@@@QEAAXJ@Z 0000000180016e80 f i CoinDispenser.obj
 0001:00016070       ?FormatWindowClassName@AtlModuleRegisterWndClassInfoParamW@ATL@@SAXPEA_WKPEAX@Z 0000000180017070 f i CoinDispenser.obj
 0001:000160c0       ?Free@?$CAutoVectorPtr@_W@ATL@@QEAAXXZ 00000001800170c0 f i CoinDispenser.obj
 0001:00016110       ?FreeHeap@?$CTempBuffer@E$0BAA@VCCRTAllocator@ATL@@@ATL@@AEAAXXZ 0000000180017110 f i CoinDispenser.obj
 0001:00016150       ?FreeHeap@?$CTempBuffer@_W$0BAA@VCCRTAllocator@ATL@@@ATL@@AEAAXXZ 0000000180017150 f i CoinDispenser.obj
 0001:00016190       ?FreeHeap@?$CTempBuffer@_W$0EAA@VCCRTAllocator@ATL@@@ATL@@AEAAXXZ 0000000180017190 f i CoinDispenser.obj
 0001:000161d0       ?Freeze@?$IViewObjectExImpl@VCOPOSCoinDispenser@@@ATL@@UEAAJKJPEAXPEAK@Z 00000001800171d0 f i CoinDispenser.obj
 0001:00016260       ?GenerateError@CRegParser@ATL@@IEAAJI@Z 0000000180017260 f i CoinDispenser.obj
 0001:00016280       ?GetAdvise@?$IViewObjectExImpl@VCOPOSCoinDispenser@@@ATL@@UEAAJPEAK0PEAPEAUIAdviseSink@@@Z 0000000180017280 f i CoinDispenser.obj
 0001:000163d0       ?GetAmbientLocaleID@CComControlBase@ATL@@QEAAJAEAK@Z 00000001800173d0 f i CoinDispenser.obj
 0001:000164b0       ?GetAmbientProperty@CComControlBase@ATL@@QEAAJJAEAUtagVARIANT@@@Z 00000001800174b0 f i CoinDispenser.obj
 0001:00016520       ?GetAmbientUserMode@CComControlBase@ATL@@QEAAJAEAH@Z 0000000180017520 f i CoinDispenser.obj
 0001:00016640       ?GetAppId@?$CAtlModuleT@VCComModule@ATL@@@ATL@@SAPEB_WXZ 0000000180017640 f i CoinDispenser.obj
 0001:00016650       ?GetAt@CComDynamicUnkArray@ATL@@QEAAPEAUIUnknown@@H@Z 0000000180017650 f i CoinDispenser.obj
 0001:00016700       ?GetCanonicalFormatEtc@?$IDataObjectImpl@VCOPOSCoinDispenser@@@ATL@@UEAAJPEAUtagFORMATETC@@0@Z 0000000180017700 f i CoinDispenser.obj
 0001:00016790       ?GetClassID@?$IPersistStorageImpl@VCOPOSCoinDispenser@@@ATL@@UEAAJPEAU_GUID@@@Z 0000000180017790 f i CoinDispenser.obj
 0001:00016830       ?GetClassID@?$IPersistStreamInitImpl@VCOPOSCoinDispenser@@@ATL@@UEAAJPEAU_GUID@@@Z 0000000180017830 f i CoinDispenser.obj
 0001:000168d0       ?GetClassInfoExW@AtlModuleRegisterWndClassInfoParamW@ATL@@SAHPEAUHINSTANCE__@@PEB_WPEAUtagWNDCLASSEXW@@@Z 00000001800178d0 f i CoinDispenser.obj
 0001:00016920       ?GetClassInfoW@?$IProvideClassInfo2Impl@$1?CLSID_OPOSCoinDispenser@@3U_GUID@@B$1?DIID__IOPOSCoinDispenserEvents@@3U2@B$1?LIBID_OposCoinDispenser_CCO@@3U2@B$00$0A@VCComTypeInfoHolder@ATL@@@ATL@@UEAAJPEAPEAUITypeInfo@@@Z 0000000180017920 f i CoinDispenser.obj
 0001:00016960       ?GetClassObject@CComModule@ATL@@QEAAJAEBU_GUID@@0PEAPEAX@Z 0000000180017960 f i CoinDispenser.obj
 0001:00016bd0       ?GetClientSite@?$IOleObjectImpl@VCOPOSCoinDispenser@@@ATL@@UEAAJPEAPEAUIOleClientSite@@@Z 0000000180017bd0 f i CoinDispenser.obj
 0001:00016c80       ?GetClipboardData@?$IOleObjectImpl@VCOPOSCoinDispenser@@@ATL@@UEAAJKPEAPEAUIDataObject@@@Z 0000000180017c80 f i CoinDispenser.obj
 0001:00016d10       ?GetCodeAddress@CDynamicStdCallThunk2@ATL@@QEAAPEAXXZ 0000000180017d10 f i CoinDispenser.obj
 0001:00016d50       ?GetColorSet@?$IViewObjectExImpl@VCOPOSCoinDispenser@@@ATL@@UEAAJKJPEAXPEAUtagDVTARGETDEVICE@@PEAUHDC__@@PEAPEAUtagLOGPALETTE@@@Z 0000000180017d50 f i CoinDispenser.obj
 0001:00016de0       ?GetConnMap@COPOSCoinDispenser@@SAPEBU_ATL_CONNMAP_ENTRY@ATL@@PEAH@Z 0000000180017de0 f i CoinDispenser.obj
 0001:00016f40       ?GetConnectionInterface@?$IConnectionPointImpl@VCOPOSCoinDispenser@@$1?DIID__IOPOSCoinDispenserEvents@@3U_GUID@@BVCComDynamicUnkArray@ATL@@@ATL@@UEAAJPEAU_GUID@@@Z 0000000180017f40 f i CoinDispenser.obj
 0001:00016f80       ?GetConnectionInterface@?$IConnectionPointImpl@VCOPOSCoinDispenser@@$1?IID_IPropertyNotifySink@@3U_GUID@@BVCComDynamicUnkArray@ATL@@@ATL@@UEAAJPEAU_GUID@@@Z 0000000180017f80 f i CoinDispenser.obj
 0001:00016fc0       ?GetConnectionPointContainer@?$IConnectionPointImpl@VCOPOSCoinDispenser@@$1?DIID__IOPOSCoinDispenserEvents@@3U_GUID@@BVCComDynamicUnkArray@ATL@@@ATL@@UEAAJPEAPEAUIConnectionPointContainer@@@Z 0000000180017fc0 f i CoinDispenser.obj
 0001:00017040       ?GetConnectionPointContainer@?$IConnectionPointImpl@VCOPOSCoinDispenser@@$1?IID_IPropertyNotifySink@@3U_GUID@@BVCComDynamicUnkArray@ATL@@@ATL@@UEAAJPEAPEAUIConnectionPointContainer@@@Z 0000000180018040 f i CoinDispenser.obj
 0001:000170c0       ?GetContentExtent@?$IQuickActivateImpl@VCOPOSCoinDispenser@@@ATL@@UEAAJPEAUtagSIZE@@@Z 00000001800180c0 f i CoinDispenser.obj
 0001:00017180       ?GetControlInfo@?$IOleControlImpl@VCOPOSCoinDispenser@@@ATL@@UEAAJPEAUtagCONTROLINFO@@@Z 0000000180018180 f i CoinDispenser.obj
 0001:00017210       ?GetCookie@CComDynamicUnkArray@ATL@@QEAAKPEAPEAUIUnknown@@@Z 0000000180018210 f i CoinDispenser.obj
 0001:00017300       ?GetData@?$IDataObjectImpl@VCOPOSCoinDispenser@@@ATL@@UEAAJPEAUtagFORMATETC@@PEAUtagSTGMEDIUM@@@Z 0000000180018300 f i CoinDispenser.obj
 0001:000173c0       ?GetData@CAtlSafeAllocBufferNode@?$CAtlSafeAllocBufferManager@VCCRTAllocator@ATL@@@_ATL_SAFE_ALLOCA_IMPL@ATL@@QEAAPEAXXZ 00000001800183c0 f i CoinDispenser.obj
 0001:000173e0       ?GetDataHere@?$IDataObjectImpl@VCOPOSCoinDispenser@@@ATL@@UEAAJPEAUtagFORMATETC@@PEAUtagSTGMEDIUM@@@Z 00000001800183e0 f i CoinDispenser.obj
 0001:00017470       ?GetDropTarget@?$IOleInPlaceObjectWindowlessImpl@VCOPOSCoinDispenser@@@ATL@@UEAAJPEAPEAUIDropTarget@@@Z 0000000180018470 f i CoinDispenser.obj
 0001:00017500       ?GetExtent@?$IOleObjectImpl@VCOPOSCoinDispenser@@@ATL@@UEAAJKPEAUtagSIZE@@@Z 0000000180018500 f i CoinDispenser.obj
 0001:000175d0       ?GetExtent@?$IViewObjectExImpl@VCOPOSCoinDispenser@@@ATL@@UEAAJKJPEAUtagDVTARGETDEVICE@@PEAUtagSIZE@@@Z 00000001800185d0 f i CoinDispenser.obj
 0001:000176e0       ?GetGITPtr@CAtlModule@ATL@@UEAAJPEAPEAUIGlobalInterfaceTable@@@Z 00000001800186e0 f i CoinDispenser.obj
 0001:00017820       ?GetGUID@?$IProvideClassInfo2Impl@$1?CLSID_OPOSCoinDispenser@@3U_GUID@@B$1?DIID__IOPOSCoinDispenserEvents@@3U2@B$1?LIBID_OposCoinDispenser_CCO@@3U2@B$00$0A@VCComTypeInfoHolder@ATL@@@ATL@@UEAAJKPEAU_GUID@@@Z 0000000180018820 f i CoinDispenser.obj
 0001:000178a0       ?GetIDsOfNames@?$IDispatchImpl@UIOPOSCoinDispenser@@$1?IID_IOPOSCoinDispenser@@3U_GUID@@B$1?LIBID_OposCoinDispenser_CCO@@3U3@B$00$0A@VCComTypeInfoHolder@ATL@@@ATL@@UEAAJAEBU_GUID@@PEAPEA_WIKPEAJ@Z 00000001800188a0 f i CoinDispenser.obj
 0001:00017900       ?GetIDsOfNames@CComTypeInfoHolder@ATL@@QEAAJAEBU_GUID@@PEAPEA_WIKPEAJ@Z 0000000180018900 f i CoinDispenser.obj
 0001:00017b20       ?GetInterfaceSafetyOptions@?$IObjectSafetyImpl@VCOPOSCoinDispenser@@$02@ATL@@UEAAJAEBU_GUID@@PEAK1@Z 0000000180018b20 f i CoinDispenser.obj
 0001:00017cc0       ?GetKeyAt@?$CSimpleMap@PEA_WPEA_WVCExpansionVectorEqualHelper@ATL@@@ATL@@QEBAAEAPEA_WH@Z 0000000180018cc0 f i CoinDispenser.obj
 0001:00017d70       ?GetLockCount@CAtlModule@ATL@@UEAAJXZ 0000000180018d70 f i CoinDispenser.obj
 0001:00017d80       ?GetMiscStatus@?$IOleObjectImpl@VCOPOSCoinDispenser@@@ATL@@UEAAJKPEAK@Z 0000000180018d80 f i CoinDispenser.obj
 0001:00017e10       ?GetMoniker@?$IOleObjectImpl@VCOPOSCoinDispenser@@@ATL@@UEAAJKKPEAPEAUIMoniker@@@Z 0000000180018e10 f i CoinDispenser.obj
 0001:00017ea0       ?GetNaturalExtent@?$IViewObjectExImpl@VCOPOSCoinDispenser@@@ATL@@UEAAJKJPEAUtagDVTARGETDEVICE@@PEAUHDC__@@PEAUtagExtentInfo@@PEAUtagSIZE@@@Z 0000000180018ea0 f i CoinDispenser.obj
 0001:00018030       ?GetObjectCLSID@?$CComCoClass@VCOPOSCoinDispenser@@$1?CLSID_OPOSCoinDispenser@@3U_GUID@@B@ATL@@SAAEBU_GUID@@XZ 0000000180019030 f i CoinDispenser.obj
 0001:00018040       ?GetPages@?$ISpecifyPropertyPagesImpl@VCOPOSCoinDispenser@@@ATL@@UEAAJPEAUtagCAUUID@@@Z 0000000180019040 f i CoinDispenser.obj
 0001:000180d0       ?GetPagesHelper@?$ISpecifyPropertyPagesImpl@VCOPOSCoinDispenser@@@ATL@@IEAAJPEAUtagCAUUID@@PEBUATL_PROPMAP_ENTRY@2@@Z 00000001800190d0 f i CoinDispenser.obj
 0001:00018340       ?GetProperty@?$CComPtr@UIDispatch@@@ATL@@QEAAJJPEAUtagVARIANT@@@Z 0000000180019340 f i CoinDispenser.obj
 0001:00018390       ?GetProperty@?$CComPtr@UIDispatch@@@ATL@@SAJPEAUIDispatch@@JPEAUtagVARIANT@@@Z 0000000180019390 f i CoinDispenser.obj
 0001:00018560       ?GetPropertyMap@COPOSCoinDispenser@@SAPEBUATL_PROPMAP_ENTRY@ATL@@XZ 0000000180019560 f i CoinDispenser.obj
 0001:00018570       ?GetRect@?$IViewObjectExImpl@VCOPOSCoinDispenser@@@ATL@@UEAAJKPEAU_RECTL@@@Z 0000000180019570 f i CoinDispenser.obj
 0001:00018600       ?GetSize@?$CSimpleMap@PEA_WPEA_WVCExpansionVectorEqualHelper@ATL@@@ATL@@QEBAHXZ 0000000180019600 f i CoinDispenser.obj
 0001:00018610       ?GetSize@CComDynamicUnkArray@ATL@@QEBAHXZ 0000000180019610 f i CoinDispenser.obj
 0001:00018620       ?GetSizeMax@?$IPersistStreamInitImpl@VCOPOSCoinDispenser@@@ATL@@UEAAJPEAT_ULARGE_INTEGER@@@Z 0000000180019620 f i CoinDispenser.obj
 0001:00018db0       ?GetSizeMax@CComVariant@ATL@@QEBAJPEAT_ULARGE_INTEGER@@@Z 0000000180019db0 f i CoinDispenser.obj
 0001:000191e0       ?GetStreamSize@CComBSTR@ATL@@SAKPEA_W@Z 000000018001a1e0 f i CoinDispenser.obj
 0001:00019240       ?GetTI@CComTypeInfoHolder@ATL@@QEAAJK@Z 000000018001a240 f i CoinDispenser.obj
 0001:00019b10       ?GetTI@CComTypeInfoHolder@ATL@@QEAAJKPEAPEAUITypeInfo@@@Z 000000018001ab10 f i CoinDispenser.obj
 0001:00019c00       ?GetTypeInfo@?$IDispatchImpl@UIOPOSCoinDispenser@@$1?IID_IOPOSCoinDispenser@@3U_GUID@@B$1?LIBID_OposCoinDispenser_CCO@@3U3@B$00$0A@VCComTypeInfoHolder@ATL@@@ATL@@UEAAJIKPEAPEAUITypeInfo@@@Z 000000018001ac00 f i CoinDispenser.obj
 0001:00019c50       ?GetTypeInfo@CComTypeInfoHolder@ATL@@QEAAJIKPEAPEAUITypeInfo@@@Z 000000018001ac50 f i CoinDispenser.obj
 0001:00019cb0       ?GetTypeInfoCount@?$IDispatchImpl@UIOPOSCoinDispenser@@$1?IID_IOPOSCoinDispenser@@3U_GUID@@B$1?LIBID_OposCoinDispenser_CCO@@3U3@B$00$0A@VCComTypeInfoHolder@ATL@@@ATL@@UEAAJPEAI@Z 000000018001acb0 f i CoinDispenser.obj
 0001:00019ce0       ?GetUnknown@CComDynamicUnkArray@ATL@@QEAAPEAUIUnknown@@K@Z 000000018001ace0 f i CoinDispenser.obj
 0001:00019d90       ?GetUnknown@COPOSCoinDispenser@@QEAAPEAUIUnknown@@XZ 000000018001ad90 f i CoinDispenser.obj
 0001:00019dc0       ?GetUserClassID@?$IOleObjectImpl@VCOPOSCoinDispenser@@@ATL@@UEAAJPEAU_GUID@@@Z 000000018001adc0 f i CoinDispenser.obj
 0001:00019ea0       ?GetUserType@?$IOleObjectImpl@VCOPOSCoinDispenser@@@ATL@@UEAAJKPEAPEA_W@Z 000000018001aea0 f i CoinDispenser.obj
 0001:00019f30       ?GetValueAt@?$CSimpleMap@PEA_WPEA_WVCExpansionVectorEqualHelper@ATL@@@ATL@@QEBAAEAPEA_WH@Z 000000018001af30 f i CoinDispenser.obj
 0001:00019fe0       ?GetViewStatus@?$IViewObjectExImpl@VCOPOSCoinDispenser@@@ATL@@UEAAJPEAK@Z 000000018001afe0 f i CoinDispenser.obj
 0001:0001a0e0       ?GetWNDPROC@CWndProcThunk@ATL@@QEAAP6A_JPEAUHWND__@@I_K_J@ZXZ 000000018001b0e0 f i CoinDispenser.obj
 0001:0001a120       ?GetWindow@?$IOleInPlaceActiveObjectImpl@VCOPOSCoinDispenser@@@ATL@@UEAAJPEAPEAUHWND__@@@Z 000000018001b120 f i CoinDispenser.obj
 0001:0001a220       ?GetWindow@?$IOleInPlaceObjectWindowlessImpl@VCOPOSCoinDispenser@@@ATL@@UEAAJPEAPEAUHWND__@@@Z 000000018001b220 f i CoinDispenser.obj
 0001:0001a320       ?GetWindowProc@?$CWindowImplBaseT@VCWindow@ATL@@V?$CWinTraits@$0FGAAAAAA@$0A@@2@@ATL@@UEAAP6A_JPEAUHWND__@@I_K_J@ZXZ 000000018001b320 f i CoinDispenser.obj
 0001:0001a330       ?GetWndCaption@?$CWindowImpl@VCOPOSCoinDispenser@@VCWindow@ATL@@V?$CWinTraits@$0FGAAAAAA@$0A@@3@@ATL@@SAPEB_WXZ 000000018001b330 f i CoinDispenser.obj
 0001:0001a340       ?GetWndClassInfo@?$CWindowImpl@VCOPOSCoinDispenser@@VCWindow@ATL@@V?$CWinTraits@$0FGAAAAAA@$0A@@3@@ATL@@SAAEAU_ATL_WNDCLASSINFOW@2@XZ 000000018001b340 f i CoinDispenser.obj
 0001:0001a350       ?GetWndClassName@CWindow@ATL@@SAPEB_WXZ 000000018001b350 f i CoinDispenser.obj
 0001:0001a360       ?GetWndExStyle@?$CWinTraits@$0FGAAAAAA@$0A@@ATL@@SAKK@Z 000000018001b360 f i CoinDispenser.obj
 0001:0001a3a0       ?GetWndExStyle@?$CWindowImplBaseT@VCWindow@ATL@@V?$CWinTraits@$0FGAAAAAA@$0A@@2@@ATL@@SAKK@Z 000000018001b3a0 f i CoinDispenser.obj
 0001:0001a3d0       ?GetWndStyle@?$CWinTraits@$0FGAAAAAA@$0A@@ATL@@SAKK@Z 000000018001b3d0 f i CoinDispenser.obj
 0001:0001a410       ?GetWndStyle@?$CWindowImplBaseT@VCWindow@ATL@@V?$CWinTraits@$0FGAAAAAA@$0A@@2@@ATL@@SAKK@Z 000000018001b410 f i CoinDispenser.obj
 0001:0001a440       ?GetZoomInfo@CComControlBase@ATL@@QEAAXAEAUATL_DRAWINFO@@@Z 000000018001b440 f i CoinDispenser.obj
 0001:0001a5f0       ?HKeyFromString@CRegParser@ATL@@KAPEAUHKEY__@@PEA_W@Z 000000018001b5f0 f i CoinDispenser.obj
 0001:0001a680       ?HandsOffStorage@?$IPersistStorageImpl@VCOPOSCoinDispenser@@@ATL@@UEAAJXZ 000000018001b680 f i CoinDispenser.obj
 0001:0001a6f0       ?HasSubKeys@CRegParser@ATL@@IEAAHPEAUHKEY__@@@Z 000000018001b6f0 f i CoinDispenser.obj
 0001:0001a860       ?IDataObject_GetData@CComControlBase@ATL@@QEAAJPEAUtagFORMATETC@@PEAUtagSTGMEDIUM@@@Z 000000018001b860 f i CoinDispenser.obj
 0001:0001ad10       ?IOleInPlaceObject_InPlaceDeactivate@CComControlBase@ATL@@QEAAJXZ 000000018001bd10 f i CoinDispenser.obj
 0001:0001af80       ?IOleInPlaceObject_SetObjectRects@CComControlBase@ATL@@QEAAJPEBUtagRECT@@0@Z 000000018001bf80 f i CoinDispenser.obj
 0001:0001b160       ?IOleInPlaceObject_UIDeactivate@CComControlBase@ATL@@QEAAJXZ 000000018001c160 f i CoinDispenser.obj
 0001:0001b3d0       ?IOleObject_Advise@CComControlBase@ATL@@QEAAJPEAUIAdviseSink@@PEAK@Z 000000018001c3d0 f i CoinDispenser.obj
 0001:0001b480       ?IOleObject_Close@CComControlBase@ATL@@QEAAJK@Z 000000018001c480 f i CoinDispenser.obj
 0001:0001b7f0       ?IOleObject_GetClientSite@CComControlBase@ATL@@QEAAJPEAPEAUIOleClientSite@@@Z 000000018001c7f0 f i CoinDispenser.obj
 0001:0001b8c0       ?IOleObject_SetClientSite@CComControlBase@ATL@@QEAAJPEAUIOleClientSite@@@Z 000000018001c8c0 f i CoinDispenser.obj
 0001:0001b9d0       ?IOleObject_SetExtent@CComControlBase@ATL@@QEAAJKPEAUtagSIZE@@@Z 000000018001c9d0 f i CoinDispenser.obj
 0001:0001bb40       ?IPSI_GetIPersistStreamInit@?$IPersistStorageImpl@VCOPOSCoinDispenser@@@ATL@@AEAAPEAUIPersistStreamInit@@XZ 000000018001cb40 f i CoinDispenser.obj
 0001:0001bc00       ?IPersistStreamInit_Load@?$IPersistStreamInitImpl@VCOPOSCoinDispenser@@@ATL@@QEAAJPEAUIStream@@PEBUATL_PROPMAP_ENTRY@2@@Z 000000018001cc00 f i CoinDispenser.obj
 0001:0001bca0       ?IPersistStreamInit_Save@?$IPersistStreamInitImpl@VCOPOSCoinDispenser@@@ATL@@QEAAJPEAUIStream@@HPEBUATL_PROPMAP_ENTRY@2@@Z 000000018001cca0 f i CoinDispenser.obj
 0001:0001bd60       ?IQuickActivate_QuickActivate@CComControlBase@ATL@@QEAAJPEAUtagQACONTAINER@@PEAUtagQACONTROL@@@Z 000000018001cd60 f i CoinDispenser.obj
 0001:0001c5a0       ?IViewObject_Draw@CComControlBase@ATL@@QEAAJKJPEAXPEAUtagDVTARGETDEVICE@@PEAUHDC__@@2PEBU_RECTL@@3@Z 000000018001d5a0 f i CoinDispenser.obj
 0001:0001c9f0       ?InPlaceActivate@CComControlBase@ATL@@QEAAJJPEBUtagRECT@@@Z 000000018001d9f0 f i CoinDispenser.obj
 0001:0001d590       ?InPlaceDeactivate@?$IOleInPlaceObjectWindowlessImpl@VCOPOSCoinDispenser@@@ATL@@UEAAJXZ 000000018001e590 f i CoinDispenser.obj
 0001:0001d640       ?Increment@CComMultiThreadModel@ATL@@SAKPEAJ@Z 000000018001e640 f i CoinDispenser.obj
 0001:0001d660       ?Increment@CComSingleThreadModel@ATL@@SAKPEAJ@Z 000000018001e660 f i CoinDispenser.obj
 0001:0001d680       ?Init@?$CComEnumImpl@UIEnumConnectionPoints@@$1?_GUID_b196b285_bab4_101a_b69c_00aa00341d07@@3U__s_GUID@@BPEAUIConnectionPoint@@V?$_CopyInterface@UIConnectionPoint@@@ATL@@@ATL@@QEAAJPEAPEAUIConnectionPoint@@0PEAUIUnknown@@W4CComEnumFlags@2@@Z 000000018001e680 f i CoinDispenser.obj
 0001:0001d970       ?Init@?$CComEnumImpl@UIEnumConnections@@$1?_GUID_b196b287_bab4_101a_b69c_00aa00341d07@@3U__s_GUID@@BUtagCONNECTDATA@@V?$_Copy@UtagCONNECTDATA@@@ATL@@@ATL@@QEAAJPEAUtagCONNECTDATA@@0PEAUIUnknown@@W4CComEnumFlags@2@@Z 000000018001e970 f i CoinDispenser.obj
 0001:0001dc60       ?Init@CComFakeCriticalSection@ATL@@QEAAJXZ 000000018001ec60 f i CoinDispenser.obj
 0001:0001dc70       ?Init@CComModule@ATL@@QEAAJPEAU_ATL_OBJMAP_ENTRY30@2@PEAUHINSTANCE__@@PEBU_GUID@@@Z 000000018001ec70 f i CoinDispenser.obj
 0001:0001dd60       ?Init@CComSafeDeleteCriticalSection@ATL@@QEAAJXZ 000000018001ed60 f i CoinDispenser.obj
 0001:0001ddf0       ?Init@CDynamicStdCallThunk2@ATL@@QEAAH_KPEAX@Z 000000018001edf0 f i CoinDispenser.obj
 0001:0001de70       ?Init@CWndProcThunk@ATL@@QEAAHP6A_JPEAUHWND__@@I_K_J@ZPEAX@Z 000000018001ee70 f i CoinDispenser.obj
 0001:0001dec0       ?InitFromData@?$IOleObjectImpl@VCOPOSCoinDispenser@@@ATL@@UEAAJPEAUIDataObject@@HK@Z 000000018001eec0 f i CoinDispenser.obj
 0001:0001df50       ?InitLibId@?$CAtlModuleT@VCComModule@ATL@@@ATL@@SAXXZ 000000018001ef50 f i CoinDispenser.obj
 0001:0001df60       ?InitNew@?$IPersistStorageImpl@VCOPOSCoinDispenser@@@ATL@@UEAAJPEAUIStorage@@@Z 000000018001ef60 f i CoinDispenser.obj
 0001:0001e050       ?InitNew@?$IPersistStreamInitImpl@VCOPOSCoinDispenser@@@ATL@@UEAAJXZ 000000018001f050 f i CoinDispenser.obj
 0001:0001e100       ?InlineIsEqualUnknown@ATL@@YAHAEBU_GUID@@@Z 000000018001f100 f i CoinDispenser.obj
 0001:0001e190       ?InternalAddRef@?$CComObjectRootEx@VCComMultiThreadModel@ATL@@@ATL@@QEAAKXZ 000000018001f190 f i CoinDispenser.obj
 0001:0001e210       ?InternalAddRef@?$CComObjectRootEx@VCComSingleThreadModel@ATL@@@ATL@@QEAAKXZ 000000018001f210 f i CoinDispenser.obj
 0001:0001e290       ?InternalFinalConstructAddRef@CComObjectRootBase@ATL@@QEAAXXZ 000000018001f290 f i CoinDispenser.obj
 0001:0001e2a0       ?InternalFinalConstructAddRef@COPOSCoinDispenser@@QEAAXXZ 000000018001f2a0 f i CoinDispenser.obj
 0001:0001e2e0       ?InternalFinalConstructRelease@CComObjectRootBase@ATL@@QEAAXXZ 000000018001f2e0 f i CoinDispenser.obj
 0001:0001e350       ?InternalFinalConstructRelease@COPOSCoinDispenser@@QEAAXXZ 000000018001f350 f i CoinDispenser.obj
 0001:0001e390       ?InternalGetSite@CComControlBase@ATL@@QEAAJAEBU_GUID@@PEAPEAX@Z 000000018001f390 f i CoinDispenser.obj
 0001:0001e470       ?InternalQueryInterface@CComObjectRootBase@ATL@@SAJPEAXPEBU_ATL_INTMAP_ENTRY@2@AEBU_GUID@@PEAPEAX@Z 000000018001f470 f i CoinDispenser.obj
 0001:0001e590       ?InternalRelease@?$CComObjectRootEx@VCComMultiThreadModel@ATL@@@ATL@@QEAAKXZ 000000018001f590 f i CoinDispenser.obj
 0001:0001e610       ?InternalRelease@?$CComObjectRootEx@VCComSingleThreadModel@ATL@@@ATL@@QEAAKXZ 000000018001f610 f i CoinDispenser.obj
 0001:0001e690       ?InternalSetAtIndex@?$CSimpleArray@GV?$CSimpleArrayEqualHelper@G@ATL@@@ATL@@QEAAXHAEBG@Z 000000018001f690 f i CoinDispenser.obj
 0001:0001e710       ?InternalSetAtIndex@?$CSimpleMap@PEA_WPEA_WVCExpansionVectorEqualHelper@ATL@@@ATL@@QEAAXHAEBQEA_W0@Z 000000018001f710 f i CoinDispenser.obj
 0001:0001e7e0       ?Invoke@?$IDispatchImpl@UIOPOSCoinDispenser@@$1?IID_IOPOSCoinDispenser@@3U_GUID@@B$1?LIBID_OposCoinDispenser_CCO@@3U3@B$00$0A@VCComTypeInfoHolder@ATL@@@ATL@@UEAAJJAEBU_GUID@@KGPEAUtagDISPPARAMS@@PEAUtagVARIANT@@PEAUtagEXCEPINFO@@PEAI@Z 000000018001f7e0 f i CoinDispenser.obj
 0001:0001e880       ?Invoke@CComTypeInfoHolder@ATL@@QEAAJPEAUIDispatch@@JAEBU_GUID@@KGPEAUtagDISPPARAMS@@PEAUtagVARIANT@@PEAUtagEXCEPINFO@@PEAI@Z 000000018001f880 f i CoinDispenser.obj
 0001:0001e940       ?IsDirty@?$IPersistStorageImpl@VCOPOSCoinDispenser@@@ATL@@UEAAJXZ 000000018001f940 f i CoinDispenser.obj
 0001:0001ea30       ?IsDirty@?$IPersistStreamInitImpl@VCOPOSCoinDispenser@@@ATL@@UEAAJXZ 000000018001fa30 f i CoinDispenser.obj
 0001:0001eaf0       ?IsEqualKey@CExpansionVectorEqualHelper@ATL@@SA_NQEA_W0@Z 000000018001faf0 f i CoinDispenser.obj
 0001:0001eb40       ?IsEqualObject@?$CComPtrBase@UIOleClientSite@@@ATL@@QEAA_NPEAUIUnknown@@@Z 000000018001fb40 f i CoinDispenser.obj
 0001:0001ec90       ?IsEqualObject@?$CComPtrBase@UITypeInfo@@@ATL@@QEAA_NPEAUIUnknown@@@Z 000000018001fc90 f i CoinDispenser.obj
 0001:0001ede0       ?IsSpace@CRegParser@ATL@@IEAAH_W@Z 000000018001fde0 f i CoinDispenser.obj
 0001:0001ee40       ?IsUpToDate@?$IOleObjectImpl@VCOPOSCoinDispenser@@@ATL@@UEAAJXZ 000000018001fe40 f i CoinDispenser.obj
 0001:0001eeb0       ?Length@CComBSTR@ATL@@QEBAIXZ 000000018001feb0 f i CoinDispenser.obj
 0001:0001eef0       ?Load@?$IPersistStorageImpl@VCOPOSCoinDispenser@@@ATL@@UEAAJPEAUIStorage@@@Z 000000018001fef0 f i CoinDispenser.obj
 0001:0001f0a0       ?Load@?$IPersistStreamInitImpl@VCOPOSCoinDispenser@@@ATL@@UEAAJPEAUIStream@@@Z 00000001800200a0 f i CoinDispenser.obj
 0001:0001f160       ?LoadCursorW@AtlModuleRegisterWndClassInfoParamW@ATL@@SAPEAUHICON__@@PEAUHINSTANCE__@@PEB_W@Z 0000000180020160 f i CoinDispenser.obj
 0001:0001f1a0       ?LoadNameCache@CComTypeInfoHolder@ATL@@QEAAJPEAUITypeInfo@@@Z 00000001800201a0 f i CoinDispenser.obj
 0001:0001f4e0       ?Lock@?$CComCritSecLock@VCComCriticalSection@ATL@@@ATL@@QEAAJXZ 00000001800204e0 f i CoinDispenser.obj
 0001:0001f5d0       ?Lock@?$CComObjectRootEx@VCComSingleThreadModel@ATL@@@ATL@@QEAAXXZ 00000001800205d0 f i CoinDispenser.obj
 0001:0001f5e0       ?Lock@CAtlModule@ATL@@UEAAJXZ 00000001800205e0 f i CoinDispenser.obj
 0001:0001f620       ?Lock@CComCriticalSection@ATL@@QEAAJXZ 0000000180020620 f i CoinDispenser.obj
 0001:0001f660       ?Lock@CComFakeCriticalSection@ATL@@QEAAJXZ 0000000180020660 f i CoinDispenser.obj
 0001:0001f670       ?LockServer@CComClassFactory@ATL@@UEAAJH@Z 0000000180020670 f i CoinDispenser.obj
 0001:0001f6d0       ?Lookup@?$CSimpleMap@PEA_WPEA_WVCExpansionVectorEqualHelper@ATL@@@ATL@@QEBAPEA_WAEBQEA_W@Z 00000001800206d0 f i CoinDispenser.obj
 0001:0001f730       ?Next@?$CComEnumImpl@UIEnumConnectionPoints@@$1?_GUID_b196b285_bab4_101a_b69c_00aa00341d07@@3U__s_GUID@@BPEAUIConnectionPoint@@V?$_CopyInterface@UIConnectionPoint@@@ATL@@@ATL@@UEAAJKPEAPEAUIConnectionPoint@@PEAK@Z 0000000180020730 f i CoinDispenser.obj
 0001:0001f8f0       ?Next@?$CComEnumImpl@UIEnumConnections@@$1?_GUID_b196b287_bab4_101a_b69c_00aa00341d07@@3U__s_GUID@@BUtagCONNECTDATA@@V?$_Copy@UtagCONNECTDATA@@@ATL@@@ATL@@UEAAJKPEAUtagCONNECTDATA@@PEAK@Z 00000001800208f0 f i CoinDispenser.obj
 0001:0001fab0       ?NextToken@CRegParser@ATL@@IEAAJPEA_W@Z 0000000180020ab0 f i CoinDispenser.obj
 0001:0001fe40       ?OLE2CT_EX@@YAPEB_WPEB_WI@Z 0000000180020e40 f i CoinDispenser.obj
 0001:0001fe60       ?OLE2CT_EX_DEF@@YAPEB_WPEB_W@Z 0000000180020e60 f i CoinDispenser.obj
 0001:0001fe70       ?OLE2T_EX@@YAPEA_WPEA_WI@Z 0000000180020e70 f i CoinDispenser.obj
 0001:0001fe90       ?OnAmbientPropertyChange@?$IOleControlImpl@VCOPOSCoinDispenser@@@ATL@@UEAAJJ@Z 0000000180020e90 f i CoinDispenser.obj
 0001:0001ff50       ?OnDocWindowActivate@?$IOleInPlaceActiveObjectImpl@VCOPOSCoinDispenser@@@ATL@@UEAAJH@Z 0000000180020f50 f i CoinDispenser.obj
 0001:00020010       ?OnDrawAdvanced@CComControlBase@ATL@@UEAAJAEAUATL_DRAWINFO@@@Z 0000000180021010 f i CoinDispenser.obj
 0001:00020260       ?OnFinalMessage@?$CWindowImplBaseT@VCWindow@ATL@@V?$CWinTraits@$0FGAAAAAA@$0A@@2@@ATL@@UEAAXPEAUHWND__@@@Z 0000000180021260 f i CoinDispenser.obj
 0001:00020270       ?OnFrameWindowActivate@?$IOleInPlaceActiveObjectImpl@VCOPOSCoinDispenser@@@ATL@@UEAAJH@Z 0000000180021270 f i CoinDispenser.obj
 0001:000202e0       ?OnKillFocus@CComControlBase@ATL@@QEAA_JI_K_JAEAH@Z 00000001800212e0 f i CoinDispenser.obj
 0001:000203d0       ?OnMnemonic@?$IOleControlImpl@VCOPOSCoinDispenser@@@ATL@@UEAAJPEAUtagMSG@@@Z 00000001800213d0 f i CoinDispenser.obj
 0001:00020460       ?OnMouseActivate@CComControlBase@ATL@@QEAA_JI_K_JAEAH@Z 0000000180021460 f i CoinDispenser.obj
 0001:00020600       ?OnPaint@CComControlBase@ATL@@QEAA_JI_K_JAEAH@Z 0000000180021600 f i CoinDispenser.obj
 0001:00020790       ?OnPostVerbDiscardUndo@?$IOleObjectImpl@VCOPOSCoinDispenser@@@ATL@@QEAAJXZ 0000000180021790 f i CoinDispenser.obj
 0001:000207a0       ?OnPostVerbHide@?$IOleObjectImpl@VCOPOSCoinDispenser@@@ATL@@QEAAJXZ 00000001800217a0 f i CoinDispenser.obj
 0001:000207b0       ?OnPostVerbInPlaceActivate@?$IOleObjectImpl@VCOPOSCoinDispenser@@@ATL@@QEAAJXZ 00000001800217b0 f i CoinDispenser.obj
 0001:000207c0       ?OnPostVerbOpen@?$IOleObjectImpl@VCOPOSCoinDispenser@@@ATL@@QEAAJXZ 00000001800217c0 f i CoinDispenser.obj
 0001:000207d0       ?OnPostVerbShow@?$IOleObjectImpl@VCOPOSCoinDispenser@@@ATL@@QEAAJXZ 00000001800217d0 f i CoinDispenser.obj
 0001:000207e0       ?OnPostVerbUIActivate@?$IOleObjectImpl@VCOPOSCoinDispenser@@@ATL@@QEAAJXZ 00000001800217e0 f i CoinDispenser.obj
 0001:000207f0       ?OnPreVerbDiscardUndo@?$IOleObjectImpl@VCOPOSCoinDispenser@@@ATL@@QEAAJXZ 00000001800217f0 f i CoinDispenser.obj
 0001:00020800       ?OnPreVerbHide@?$IOleObjectImpl@VCOPOSCoinDispenser@@@ATL@@QEAAJXZ 0000000180021800 f i CoinDispenser.obj
 0001:00020810       ?OnPreVerbInPlaceActivate@?$IOleObjectImpl@VCOPOSCoinDispenser@@@ATL@@QEAAJXZ 0000000180021810 f i CoinDispenser.obj
 0001:00020820       ?OnPreVerbOpen@?$IOleObjectImpl@VCOPOSCoinDispenser@@@ATL@@QEAAJXZ 0000000180021820 f i CoinDispenser.obj
 0001:00020830       ?OnPreVerbShow@?$IOleObjectImpl@VCOPOSCoinDispenser@@@ATL@@QEAAJXZ 0000000180021830 f i CoinDispenser.obj
 0001:00020840       ?OnPreVerbUIActivate@?$IOleObjectImpl@VCOPOSCoinDispenser@@@ATL@@QEAAJXZ 0000000180021840 f i CoinDispenser.obj
 0001:00020850       ?OnSetFocus@CComControlBase@ATL@@QEAA_JI_K_JAEAH@Z 0000000180021850 f i CoinDispenser.obj
 0001:00020a50       ?OnWindowMessage@?$IOleInPlaceObjectWindowlessImpl@VCOPOSCoinDispenser@@@ATL@@UEAAJI_K_JPEA_J@Z 0000000180021a50 f i CoinDispenser.obj
 0001:00020c70       ?Open@CRegKey@ATL@@QEAAJPEAUHKEY__@@PEB_WK@Z 0000000180021c70 f i CoinDispenser.obj
 0001:00020df0       ?OuterAddRef@CComObjectRootBase@ATL@@QEAAKXZ 0000000180021df0 f i CoinDispenser.obj
 0001:00020e30       ?OuterQueryInterface@CComObjectRootBase@ATL@@QEAAJAEBU_GUID@@PEAPEAX@Z 0000000180021e30 f i CoinDispenser.obj
 0001:00020e80       ?OuterRelease@CComObjectRootBase@ATL@@QEAAKXZ 0000000180021e80 f i CoinDispenser.obj
 0001:00020ec0       ?PreProcessBuffer@CRegParser@ATL@@QEAAJPEA_WPEAPEA_W@Z 0000000180021ec0 f i CoinDispenser.obj
 0001:000215a0       ?PreTranslateAccelerator@CComControlBase@ATL@@QEAAHPEAUtagMSG@@AEAJ@Z 00000001800225a0 f i CoinDispenser.obj
 0001:000215c0       ?ProcessWindowMessage@?$CComControl@VCOPOSCoinDispenser@@V?$CWindowImpl@VCOPOSCoinDispenser@@VCWindow@ATL@@V?$CWinTraits@$0FGAAAAAA@$0A@@3@@ATL@@@ATL@@UEAAHPEAUHWND__@@I_K_JAEA_JK@Z 00000001800225c0 f i CoinDispenser.obj
 0001:00021840       ?ProcessWindowMessage@COPOSCoinDispenser@@UEAAHPEAUHWND__@@I_K_JAEA_JK@Z 0000000180022840 f i CoinDispenser.obj
 0001:000219c0       ?PutProperty@?$CComPtr@UIDispatch@@@ATL@@QEAAJJPEAUtagVARIANT@@@Z 00000001800229c0 f i CoinDispenser.obj
 0001:00021a10       ?PutProperty@?$CComPtr@UIDispatch@@@ATL@@SAJPEAUIDispatch@@JPEAUtagVARIANT@@@Z 0000000180022a10 f i CoinDispenser.obj
 0001:00021cb0       ?QueryGetData@?$IDataObjectImpl@VCOPOSCoinDispenser@@@ATL@@UEAAJPEAUtagFORMATETC@@@Z 0000000180022cb0 f i CoinDispenser.obj
 0001:00021d40       ?QueryHitPoint@?$IViewObjectExImpl@VCOPOSCoinDispenser@@@ATL@@UEAAJKPEBUtagRECT@@UtagPOINT@@JPEAK@Z 0000000180022d40 f i CoinDispenser.obj
 0001:00021eb0       ?QueryHitRect@?$IViewObjectExImpl@VCOPOSCoinDispenser@@@ATL@@UEAAJKPEBUtagRECT@@0JPEAK@Z 0000000180022eb0 f i CoinDispenser.obj
 0001:00022080       ?QueryInterface@?$CComAggObject@VCOPOSCoinDispenser@@@ATL@@UEAAJAEBU_GUID@@PEAPEAX@Z 0000000180023080 f i CoinDispenser.obj
 0001:00022170       ?QueryInterface@?$CComContainedObject@VCOPOSCoinDispenser@@@ATL@@UEAAJAEBU_GUID@@PEAPEAX@Z 0000000180023170 f i CoinDispenser.obj
 0001:000221bc       ?QueryInterface@?$CComContainedObject@VCOPOSCoinDispenser@@@ATL@@WBAA@EAAJAEBU_GUID@@PEAPEAX@Z 00000001800231bc f i CoinDispenser.obj
 0001:000221c8       ?QueryInterface@?$CComContainedObject@VCOPOSCoinDispenser@@@ATL@@WBAI@EAAJAEBU_GUID@@PEAPEAX@Z 00000001800231c8 f i CoinDispenser.obj
 0001:000221d4       ?QueryInterface@?$CComContainedObject@VCOPOSCoinDispenser@@@ATL@@WBBA@EAAJAEBU_GUID@@PEAPEAX@Z 00000001800231d4 f i CoinDispenser.obj
 0001:000221e0       ?QueryInterface@?$CComContainedObject@VCOPOSCoinDispenser@@@ATL@@WBBI@EAAJAEBU_GUID@@PEAPEAX@Z 00000001800231e0 f i CoinDispenser.obj
 0001:000221ec       ?QueryInterface@?$CComContainedObject@VCOPOSCoinDispenser@@@ATL@@WLI@EAAJAEBU_GUID@@PEAPEAX@Z 00000001800231ec f i CoinDispenser.obj
 0001:000221f8       ?QueryInterface@?$CComContainedObject@VCOPOSCoinDispenser@@@ATL@@WMA@EAAJAEBU_GUID@@PEAPEAX@Z 00000001800231f8 f i CoinDispenser.obj
 0001:00022204       ?QueryInterface@?$CComContainedObject@VCOPOSCoinDispenser@@@ATL@@WMI@EAAJAEBU_GUID@@PEAPEAX@Z 0000000180023204 f i CoinDispenser.obj
 0001:00022210       ?QueryInterface@?$CComContainedObject@VCOPOSCoinDispenser@@@ATL@@WNA@EAAJAEBU_GUID@@PEAPEAX@Z 0000000180023210 f i CoinDispenser.obj
 0001:0002221c       ?QueryInterface@?$CComContainedObject@VCOPOSCoinDispenser@@@ATL@@WNI@EAAJAEBU_GUID@@PEAPEAX@Z 000000018002321c f i CoinDispenser.obj
 0001:00022228       ?QueryInterface@?$CComContainedObject@VCOPOSCoinDispenser@@@ATL@@WOA@EAAJAEBU_GUID@@PEAPEAX@Z 0000000180023228 f i CoinDispenser.obj
 0001:00022234       ?QueryInterface@?$CComContainedObject@VCOPOSCoinDispenser@@@ATL@@WOI@EAAJAEBU_GUID@@PEAPEAX@Z 0000000180023234 f i CoinDispenser.obj
 0001:00022240       ?QueryInterface@?$CComContainedObject@VCOPOSCoinDispenser@@@ATL@@WPA@EAAJAEBU_GUID@@PEAPEAX@Z 0000000180023240 f i CoinDispenser.obj
 0001:0002224c       ?QueryInterface@?$CComContainedObject@VCOPOSCoinDispenser@@@ATL@@WPI@EAAJAEBU_GUID@@PEAPEAX@Z 000000018002324c f i CoinDispenser.obj
 0001:00022260       ?QueryInterface@?$CComObject@V?$CComEnum@UIEnumConnectionPoints@@$1?_GUID_b196b285_bab4_101a_b69c_00aa00341d07@@3U__s_GUID@@BPEAUIConnectionPoint@@V?$_CopyInterface@UIConnectionPoint@@@ATL@@VCComSingleThreadModel@6@@ATL@@@ATL@@UEAAJAEBU_GUID@@PEAPEAX@Z 0000000180023260 f i CoinDispenser.obj
 0001:000222b0       ?QueryInterface@?$CComObject@V?$CComEnum@UIEnumConnections@@$1?_GUID_b196b287_bab4_101a_b69c_00aa00341d07@@3U__s_GUID@@BUtagCONNECTDATA@@V?$_Copy@UtagCONNECTDATA@@@ATL@@VCComSingleThreadModel@6@@ATL@@@ATL@@UEAAJAEBU_GUID@@PEAPEAX@Z 00000001800232b0 f i CoinDispenser.obj
 0001:00022300       ?QueryInterface@?$CComObject@VCOPOSCoinDispenser@@@ATL@@UEAAJAEBU_GUID@@PEAPEAX@Z 0000000180023300 f i CoinDispenser.obj
 0001:00022344       ?QueryInterface@?$CComObject@VCOPOSCoinDispenser@@@ATL@@WBAA@EAAJAEBU_GUID@@PEAPEAX@Z 0000000180023344 f i CoinDispenser.obj
 0001:00022350       ?QueryInterface@?$CComObject@VCOPOSCoinDispenser@@@ATL@@WBAI@EAAJAEBU_GUID@@PEAPEAX@Z 0000000180023350 f i CoinDispenser.obj
 0001:0002235c       ?QueryInterface@?$CComObject@VCOPOSCoinDispenser@@@ATL@@WBBA@EAAJAEBU_GUID@@PEAPEAX@Z 000000018002335c f i CoinDispenser.obj
 0001:00022368       ?QueryInterface@?$CComObject@VCOPOSCoinDispenser@@@ATL@@WBBI@EAAJAEBU_GUID@@PEAPEAX@Z 0000000180023368 f i CoinDispenser.obj
 0001:00022374       ?QueryInterface@?$CComObject@VCOPOSCoinDispenser@@@ATL@@WLI@EAAJAEBU_GUID@@PEAPEAX@Z 0000000180023374 f i CoinDispenser.obj
 0001:00022380       ?QueryInterface@?$CComObject@VCOPOSCoinDispenser@@@ATL@@WMA@EAAJAEBU_GUID@@PEAPEAX@Z 0000000180023380 f i CoinDispenser.obj
 0001:0002238c       ?QueryInterface@?$CComObject@VCOPOSCoinDispenser@@@ATL@@WMI@EAAJAEBU_GUID@@PEAPEAX@Z 000000018002338c f i CoinDispenser.obj
 0001:00022398       ?QueryInterface@?$CComObject@VCOPOSCoinDispenser@@@ATL@@WNA@EAAJAEBU_GUID@@PEAPEAX@Z 0000000180023398 f i CoinDispenser.obj
 0001:000223a4       ?QueryInterface@?$CComObject@VCOPOSCoinDispenser@@@ATL@@WNI@EAAJAEBU_GUID@@PEAPEAX@Z 00000001800233a4 f i CoinDispenser.obj
 0001:000223b0       ?QueryInterface@?$CComObject@VCOPOSCoinDispenser@@@ATL@@WOA@EAAJAEBU_GUID@@PEAPEAX@Z 00000001800233b0 f i CoinDispenser.obj
 0001:000223bc       ?QueryInterface@?$CComObject@VCOPOSCoinDispenser@@@ATL@@WOI@EAAJAEBU_GUID@@PEAPEAX@Z 00000001800233bc f i CoinDispenser.obj
 0001:000223c8       ?QueryInterface@?$CComObject@VCOPOSCoinDispenser@@@ATL@@WPA@EAAJAEBU_GUID@@PEAPEAX@Z 00000001800233c8 f i CoinDispenser.obj
 0001:000223d4       ?QueryInterface@?$CComObject@VCOPOSCoinDispenser@@@ATL@@WPI@EAAJAEBU_GUID@@PEAPEAX@Z 00000001800233d4 f i CoinDispenser.obj
 0001:000223e0       ?QueryInterface@?$CComObjectCached@VCComClassFactory@ATL@@@ATL@@UEAAJAEBU_GUID@@PEAPEAX@Z 00000001800233e0 f i CoinDispenser.obj
 0001:00022430       ?QueryInterface@CRegObject@ATL@@UEAAJAEBU_GUID@@PEAPEAX@Z 0000000180023430 f i CoinDispenser.obj
 0001:000224b0       ?QuickActivate@?$IQuickActivateImpl@VCOPOSCoinDispenser@@@ATL@@UEAAJPEAUtagQACONTAINER@@PEAUtagQACONTROL@@@Z 00000001800234b0 f i CoinDispenser.obj
 0001:00022570       ?ReactivateAndUndo@?$IOleInPlaceObjectWindowlessImpl@VCOPOSCoinDispenser@@@ATL@@UEAAJXZ 0000000180023570 f i CoinDispenser.obj
 0001:000225f0       ?ReadFromStream@CComBSTR@ATL@@QEAAJPEAUIStream@@@Z 00000001800235f0 f i CoinDispenser.obj
 0001:00022ad0       ?ReadFromStream@CComVariant@ATL@@QEAAJPEAUIStream@@GTClassesAllowedInStream@2@K@Z 0000000180023ad0 f i CoinDispenser.obj
 0001:00022f00       ?RecurseDeleteKey@CRegKey@ATL@@QEAAJPEB_W@Z 0000000180023f00 f i CoinDispenser.obj
 0001:00023120       ?RegCreateKeyExW@CAtlTransactionManager@ATL@@QEAAJPEAUHKEY__@@PEB_WKPEA_WKKQEAU_SECURITY_ATTRIBUTES@@PEAPEAU3@PEAK@Z 0000000180024120 f i CoinDispenser.obj
 0001:000232f0       ?RegDeleteKeyW@CAtlTransactionManager@ATL@@QEAAJPEAUHKEY__@@PEB_W@Z 00000001800242f0 f i CoinDispenser.obj
 0001:00023400       ?RegOpenKeyExW@CAtlTransactionManager@ATL@@QEAAJPEAUHKEY__@@PEB_WKKPEAPEAU3@@Z 0000000180024400 f i CoinDispenser.obj
 0001:00023550       ?Register@_ATL_WNDCLASSINFOW@ATL@@QEAAGPEAP6A_JPEAUHWND__@@I_K_J@Z@Z 0000000180024550 f i CoinDispenser.obj
 0001:000235a0       ?RegisterBuffer@CRegParser@ATL@@QEAAJPEA_WH@Z 00000001800245a0 f i CoinDispenser.obj
 0001:00023990       ?RegisterClassExW@AtlModuleRegisterWndClassInfoParamW@ATL@@SAGPEAU_ATL_WIN_MODULE70@2@PEBUtagWNDCLASSEXW@@@Z 0000000180024990 f i CoinDispenser.obj
 0001:000239d0       ?RegisterFromResource@CRegObject@ATL@@IEAAJPEB_W00H@Z 00000001800249d0 f i CoinDispenser.obj
 0001:00023e30       ?RegisterServer@?$CAtlModuleT@VCComModule@ATL@@@ATL@@QEAAJHPEBU_GUID@@@Z 0000000180024e30 f i CoinDispenser.obj
 0001:00023eb0       ?RegisterServer@CAtlComModule@ATL@@QEAAJHPEBU_GUID@@@Z 0000000180024eb0 f i CoinDispenser.obj
 0001:00023ef0       ?RegisterServer@CComModule@ATL@@QEAAJHPEBU_GUID@@@Z 0000000180024ef0 f i CoinDispenser.obj
 0001:00023ff0       ?RegisterSubkeys@CRegParser@ATL@@IEAAJPEA_WPEAUHKEY__@@HH@Z 0000000180024ff0 f i CoinDispenser.obj
 0001:00024dd0       ?Release@?$CComAggObject@VCOPOSCoinDispenser@@@ATL@@UEAAKXZ 0000000180025dd0 f i CoinDispenser.obj
 0001:00024e80       ?Release@?$CComContainedObject@VCOPOSCoinDispenser@@@ATL@@UEAAKXZ 0000000180025e80 f i CoinDispenser.obj
 0001:00024eb8       ?Release@?$CComContainedObject@VCOPOSCoinDispenser@@@ATL@@WBAA@EAAKXZ 0000000180025eb8 f i CoinDispenser.obj
 0001:00024ec4       ?Release@?$CComContainedObject@VCOPOSCoinDispenser@@@ATL@@WBAI@EAAKXZ 0000000180025ec4 f i CoinDispenser.obj
 0001:00024ed0       ?Release@?$CComContainedObject@VCOPOSCoinDispenser@@@ATL@@WBBA@EAAKXZ 0000000180025ed0 f i CoinDispenser.obj
 0001:00024edc       ?Release@?$CComContainedObject@VCOPOSCoinDispenser@@@ATL@@WBBI@EAAKXZ 0000000180025edc f i CoinDispenser.obj
 0001:00024ee8       ?Release@?$CComContainedObject@VCOPOSCoinDispenser@@@ATL@@WBCI@EAAKXZ 0000000180025ee8 f i CoinDispenser.obj
 0001:00024ef4       ?Release@?$CComContainedObject@VCOPOSCoinDispenser@@@ATL@@WBEA@EAAKXZ 0000000180025ef4 f i CoinDispenser.obj
 0001:00024f00       ?Release@?$CComContainedObject@VCOPOSCoinDispenser@@@ATL@@WLI@EAAKXZ 0000000180025f00 f i CoinDispenser.obj
 0001:00024f0c       ?Release@?$CComContainedObject@VCOPOSCoinDispenser@@@ATL@@WMA@EAAKXZ 0000000180025f0c f i CoinDispenser.obj
 0001:00024f18       ?Release@?$CComContainedObject@VCOPOSCoinDispenser@@@ATL@@WMI@EAAKXZ 0000000180025f18 f i CoinDispenser.obj
 0001:00024f24       ?Release@?$CComContainedObject@VCOPOSCoinDispenser@@@ATL@@WNA@EAAKXZ 0000000180025f24 f i CoinDispenser.obj
 0001:00024f30       ?Release@?$CComContainedObject@VCOPOSCoinDispenser@@@ATL@@WNI@EAAKXZ 0000000180025f30 f i CoinDispenser.obj
 0001:00024f3c       ?Release@?$CComContainedObject@VCOPOSCoinDispenser@@@ATL@@WOA@EAAKXZ 0000000180025f3c f i CoinDispenser.obj
 0001:00024f48       ?Release@?$CComContainedObject@VCOPOSCoinDispenser@@@ATL@@WOI@EAAKXZ 0000000180025f48 f i CoinDispenser.obj
 0001:00024f54       ?Release@?$CComContainedObject@VCOPOSCoinDispenser@@@ATL@@WPA@EAAKXZ 0000000180025f54 f i CoinDispenser.obj
 0001:00024f60       ?Release@?$CComContainedObject@VCOPOSCoinDispenser@@@ATL@@WPI@EAAKXZ 0000000180025f60 f i CoinDispenser.obj
 0001:00024f70       ?Release@?$CComObject@V?$CComEnum@UIEnumConnectionPoints@@$1?_GUID_b196b285_bab4_101a_b69c_00aa00341d07@@3U__s_GUID@@BPEAUIConnectionPoint@@V?$_CopyInterface@UIConnectionPoint@@@ATL@@VCComSingleThreadModel@6@@ATL@@@ATL@@UEAAKXZ 0000000180025f70 f i CoinDispenser.obj
 0001:00025020       ?Release@?$CComObject@V?$CComEnum@UIEnumConnections@@$1?_GUID_b196b287_bab4_101a_b69c_00aa00341d07@@3U__s_GUID@@BUtagCONNECTDATA@@V?$_Copy@UtagCONNECTDATA@@@ATL@@VCComSingleThreadModel@6@@ATL@@@ATL@@UEAAKXZ 0000000180026020 f i CoinDispenser.obj
 0001:000250d0       ?Release@?$CComObject@VCOPOSCoinDispenser@@@ATL@@UEAAKXZ 00000001800260d0 f i CoinDispenser.obj
 0001:00025188       ?Release@?$CComObject@VCOPOSCoinDispenser@@@ATL@@WBAA@EAAKXZ 0000000180026188 f i CoinDispenser.obj
 0001:00025194       ?Release@?$CComObject@VCOPOSCoinDispenser@@@ATL@@WBAI@EAAKXZ 0000000180026194 f i CoinDispenser.obj
 0001:000251a0       ?Release@?$CComObject@VCOPOSCoinDispenser@@@ATL@@WBBA@EAAKXZ 00000001800261a0 f i CoinDispenser.obj
 0001:000251ac       ?Release@?$CComObject@VCOPOSCoinDispenser@@@ATL@@WBBI@EAAKXZ 00000001800261ac f i CoinDispenser.obj
 0001:000251b8       ?Release@?$CComObject@VCOPOSCoinDispenser@@@ATL@@WBCI@EAAKXZ 00000001800261b8 f i CoinDispenser.obj
 0001:000251c4       ?Release@?$CComObject@VCOPOSCoinDispenser@@@ATL@@WBEA@EAAKXZ 00000001800261c4 f i CoinDispenser.obj
 0001:000251d0       ?Release@?$CComObject@VCOPOSCoinDispenser@@@ATL@@WLI@EAAKXZ 00000001800261d0 f i CoinDispenser.obj
 0001:000251dc       ?Release@?$CComObject@VCOPOSCoinDispenser@@@ATL@@WMA@EAAKXZ 00000001800261dc f i CoinDispenser.obj
 0001:000251e8       ?Release@?$CComObject@VCOPOSCoinDispenser@@@ATL@@WMI@EAAKXZ 00000001800261e8 f i CoinDispenser.obj
 0001:000251f4       ?Release@?$CComObject@VCOPOSCoinDispenser@@@ATL@@WNA@EAAKXZ 00000001800261f4 f i CoinDispenser.obj
 0001:00025200       ?Release@?$CComObject@VCOPOSCoinDispenser@@@ATL@@WNI@EAAKXZ 0000000180026200 f i CoinDispenser.obj
 0001:0002520c       ?Release@?$CComObject@VCOPOSCoinDispenser@@@ATL@@WOA@EAAKXZ 000000018002620c f i CoinDispenser.obj
 0001:00025218       ?Release@?$CComObject@VCOPOSCoinDispenser@@@ATL@@WOI@EAAKXZ 0000000180026218 f i CoinDispenser.obj
 0001:00025224       ?Release@?$CComObject@VCOPOSCoinDispenser@@@ATL@@WPA@EAAKXZ 0000000180026224 f i CoinDispenser.obj
 0001:00025230       ?Release@?$CComObject@VCOPOSCoinDispenser@@@ATL@@WPI@EAAKXZ 0000000180026230 f i CoinDispenser.obj
 0001:00025240       ?Release@?$CComObjectCached@VCComClassFactory@ATL@@@ATL@@UEAAKXZ 0000000180026240 f i CoinDispenser.obj
 0001:000252e0       ?Release@?$CComPtrBase@UIAdviseSink@@@ATL@@QEAAXXZ 00000001800262e0 f i CoinDispenser.obj
 0001:00025340       ?Release@?$CComPtrBase@UIDispatch@@@ATL@@QEAAXXZ 0000000180026340 f i CoinDispenser.obj
 0001:000253a0       ?Release@?$CComPtrBase@UIOleInPlaceSiteWindowless@@@ATL@@QEAAXXZ 00000001800263a0 f i CoinDispenser.obj
 0001:00025400       ?Release@CRegObject@ATL@@UEAAKXZ 0000000180026400 f i CoinDispenser.obj
 0001:00025470       ?Remove@CComDynamicUnkArray@ATL@@QEAAHK@Z 0000000180026470 f i CoinDispenser.obj
 0001:00025550       ?RemoveAll@?$CSimpleMap@PEA_WPEA_WVCExpansionVectorEqualHelper@ATL@@@ATL@@QEAAXXZ 0000000180026550 f i CoinDispenser.obj
 0001:000255f0       ?Reset@?$CComEnumImpl@UIEnumConnectionPoints@@$1?_GUID_b196b285_bab4_101a_b69c_00aa00341d07@@3U__s_GUID@@BPEAUIConnectionPoint@@V?$_CopyInterface@UIConnectionPoint@@@ATL@@@ATL@@UEAAJXZ 00000001800265f0 f i CoinDispenser.obj
 0001:00025610       ?Reset@?$CComEnumImpl@UIEnumConnections@@$1?_GUID_b196b287_bab4_101a_b69c_00aa00341d07@@3U__s_GUID@@BUtagCONNECTDATA@@V?$_Copy@UtagCONNECTDATA@@@ATL@@@ATL@@UEAAJXZ 0000000180026610 f i CoinDispenser.obj
 0001:00025630       ?ResizeBorder@?$IOleInPlaceActiveObjectImpl@VCOPOSCoinDispenser@@@ATL@@UEAAJPEBUtagRECT@@PEAUIOleInPlaceUIWindow@@H@Z 0000000180026630 f i CoinDispenser.obj
 0001:000256b0       ?ResourceRegister@CRegObject@ATL@@QEAAJPEB_WI0@Z 00000001800266b0 f i CoinDispenser.obj
 0001:00025790       ?ResourceRegisterSz@CRegObject@ATL@@QEAAJPEB_W00@Z 0000000180026790 f i CoinDispenser.obj
 0001:000258b0       ?ResourceUnregister@CRegObject@ATL@@QEAAJPEB_WI0@Z 00000001800268b0 f i CoinDispenser.obj
 0001:00025990       ?ResourceUnregisterSz@CRegObject@ATL@@QEAAJPEB_W00@Z 0000000180026990 f i CoinDispenser.obj
 0001:00025ab0       ?SODataDummy@COPOSCoinDispenser@@MEAAJJ@Z 0000000180026ab0 f i CoinDispenser.obj
 0001:00025ad0       ?SODirectIO@COPOSCoinDispenser@@MEAAJJPEAJPEAPEA_W@Z 0000000180026ad0 f i CoinDispenser.obj
 0001:00025d10       ?SOErrorDummy@COPOSCoinDispenser@@MEAAJJJJPEAJ@Z 0000000180026d10 f i CoinDispenser.obj
 0001:00025d30       ?SOOutputCompleteDummy@COPOSCoinDispenser@@MEAAJJ@Z 0000000180026d30 f i CoinDispenser.obj
 0001:00025d50       ?SOStatusUpdate@COPOSCoinDispenser@@MEAAJJ@Z 0000000180026d50 f i CoinDispenser.obj
 0001:00025df0       ?Save@?$IPersistStorageImpl@VCOPOSCoinDispenser@@@ATL@@UEAAJPEAUIStorage@@H@Z 0000000180026df0 f i CoinDispenser.obj
 0001:00025fb0       ?Save@?$IPersistStreamInitImpl@VCOPOSCoinDispenser@@@ATL@@UEAAJPEAUIStream@@H@Z 0000000180026fb0 f i CoinDispenser.obj
 0001:00026070       ?SaveCompleted@?$IPersistStorageImpl@VCOPOSCoinDispenser@@@ATL@@UEAAJPEAUIStorage@@@Z 0000000180027070 f i CoinDispenser.obj
 0001:000260e0       ?SendOnDataChange@CComControlBase@ATL@@QEAAJK@Z 00000001800270e0 f i CoinDispenser.obj
 0001:000261d0       ?SendOnSave@CComControlBase@ATL@@QEAAJXZ 00000001800271d0 f i CoinDispenser.obj
 0001:00026240       ?SendOnViewChange@CComControlBase@ATL@@QEAAJKJ@Z 0000000180027240 f i CoinDispenser.obj
 0001:000262c0       ?SetAdvise@?$IViewObjectExImpl@VCOPOSCoinDispenser@@@ATL@@UEAAJKKPEAUIAdviseSink@@@Z 00000001800272c0 f i CoinDispenser.obj
 0001:00026380       ?SetClientSite@?$IOleObjectImpl@VCOPOSCoinDispenser@@@ATL@@UEAAJPEAUIOleClientSite@@@Z 0000000180027380 f i CoinDispenser.obj
 0001:00026430       ?SetColorScheme@?$IOleObjectImpl@VCOPOSCoinDispenser@@@ATL@@UEAAJPEAUtagLOGPALETTE@@@Z 0000000180027430 f i CoinDispenser.obj
 0001:000264c0       ?SetContentExtent@?$IQuickActivateImpl@VCOPOSCoinDispenser@@@ATL@@UEAAJPEAUtagSIZE@@@Z 00000001800274c0 f i CoinDispenser.obj
 0001:00026580       ?SetControlFocus@CComControlBase@ATL@@QEAAHH@Z 0000000180027580 f i CoinDispenser.obj
 0001:00026710       ?SetDWORDValue@CRegKey@ATL@@QEAAJPEB_WK@Z 0000000180027710 f i CoinDispenser.obj
 0001:000267c0       ?SetData@?$IDataObjectImpl@VCOPOSCoinDispenser@@@ATL@@UEAAJPEAUtagFORMATETC@@PEAUtagSTGMEDIUM@@H@Z 00000001800277c0 f i CoinDispenser.obj
 0001:00026850       ?SetExtent@?$IOleObjectImpl@VCOPOSCoinDispenser@@@ATL@@UEAAJKPEAUtagSIZE@@@Z 0000000180027850 f i CoinDispenser.obj
 0001:00026910       ?SetHostNames@?$IOleObjectImpl@VCOPOSCoinDispenser@@@ATL@@UEAAJPEB_W0@Z 0000000180027910 f i CoinDispenser.obj
 0001:00026990       ?SetInterfaceSafetyOptions@?$IObjectSafetyImpl@VCOPOSCoinDispenser@@$02@ATL@@UEAAJAEBU_GUID@@KK@Z 0000000180027990 f i CoinDispenser.obj
 0001:00026b30       ?SetMoniker@?$IOleObjectImpl@VCOPOSCoinDispenser@@@ATL@@UEAAJKPEAUIMoniker@@@Z 0000000180027b30 f i CoinDispenser.obj
 0001:00026bc0       ?SetMultiStringValue@CRegKey@ATL@@QEAAJPEB_W0@Z 0000000180027bc0 f i CoinDispenser.obj
 0001:00026d30       ?SetObjectRects@?$IOleInPlaceObjectWindowlessImpl@VCOPOSCoinDispenser@@@ATL@@UEAAJPEBUtagRECT@@0@Z 0000000180027d30 f i CoinDispenser.obj
 0001:00026df0       ?SetStringValue@CRegKey@ATL@@QEAAJPEB_W0K@Z 0000000180027df0 f i CoinDispenser.obj
 0001:00026f70       ?SetVoid@CComClassFactory@ATL@@QEAAXPEAX@Z 0000000180027f70 f i CoinDispenser.obj
 0001:00026f90       ?SetVoid@CComObjectRootBase@ATL@@QEAAXPEAX@Z 0000000180027f90 f i CoinDispenser.obj
 0001:00026fa0       ?ShowWindow@CWindow@ATL@@QEAAHH@Z 0000000180027fa0 f i CoinDispenser.obj
 0001:00027030       ?Skip@?$CComEnumImpl@UIEnumConnectionPoints@@$1?_GUID_b196b285_bab4_101a_b69c_00aa00341d07@@3U__s_GUID@@BPEAUIConnectionPoint@@V?$_CopyInterface@UIConnectionPoint@@@ATL@@@ATL@@UEAAJK@Z 0000000180028030 f i CoinDispenser.obj
 0001:000270d0       ?Skip@?$CComEnumImpl@UIEnumConnections@@$1?_GUID_b196b287_bab4_101a_b69c_00aa00341d07@@3U__s_GUID@@BUtagCONNECTDATA@@V?$_Copy@UtagCONNECTDATA@@@ATL@@@ATL@@UEAAJK@Z 00000001800280d0 f i CoinDispenser.obj
 0001:00027170       ?SkipAssignment@CRegParser@ATL@@IEAAJPEA_W@Z 0000000180028170 f i CoinDispenser.obj
 0001:00027270       ?SkipWhiteSpace@CRegParser@ATL@@IEAAXXZ 0000000180028270 f i CoinDispenser.obj
 0001:000272d0       ?StartWindowProc@?$CWindowImplBaseT@VCWindow@ATL@@V?$CWinTraits@$0FGAAAAAA@$0A@@2@@ATL@@SA_JPEAUHWND__@@I_K_J@Z 00000001800282d0 f i CoinDispenser.obj
 0001:00027440       ?StrChrW@CRegParser@ATL@@KAPEA_WPEA_W_W@Z 0000000180028440 f i CoinDispenser.obj
 0001:000274c0       ?StrFromMap@CRegObject@ATL@@QEAAPEB_WPEA_W@Z 00000001800284c0 f i CoinDispenser.obj
 0001:00027580       ?Swap@?$CComPtrBase@UIAdviseSink@@@ATL@@IEAAXAEAV12@@Z 0000000180028580 f i CoinDispenser.obj
 0001:000275e0       ?Swap@?$CComPtrBase@UIOleClientSite@@@ATL@@IEAAXAEAV12@@Z 00000001800285e0 f i CoinDispenser.obj
 0001:00027640       ?Swap@?$CComPtrBase@UIUnknown@@@ATL@@IEAAXAEAV12@@Z 0000000180028640 f i CoinDispenser.obj
 0001:000276a0       ?T2COLE_EX@@YAPEB_WPEB_WI@Z 00000001800286a0 f i CoinDispenser.obj
 0001:000276c0       ?T2OLE_EX@@YAPEA_WPEA_WI@Z 00000001800286c0 f i CoinDispenser.obj
 0001:000276e0       ?Term@CAtlModule@ATL@@QEAAXXZ 00000001800286e0 f i CoinDispenser.obj
 0001:000277a0       ?Term@CComModule@ATL@@QEAAXXZ 00000001800287a0 f i CoinDispenser.obj
 0001:00027890       ?TranslateAcceleratorW@?$IOleInPlaceActiveObjectImpl@VCOPOSCoinDispenser@@@ATL@@UEAAJPEAUtagMSG@@@Z 0000000180028890 f i CoinDispenser.obj
 0001:00027b00       ?UIDeactivate@?$IOleInPlaceObjectWindowlessImpl@VCOPOSCoinDispenser@@@ATL@@UEAAJXZ 0000000180028b00 f i CoinDispenser.obj
 0001:00027bb0       ?Unadvise@?$CProxy_IOPOSEvents@VCOPOSCoinDispenser@@@@UEAAJK@Z 0000000180028bb0 f i CoinDispenser.obj
 0001:00027c00       ?Unadvise@?$IConnectionPointImpl@VCOPOSCoinDispenser@@$1?DIID__IOPOSCoinDispenserEvents@@3U_GUID@@BVCComDynamicUnkArray@ATL@@@ATL@@UEAAJK@Z 0000000180028c00 f i CoinDispenser.obj
 0001:00027cf0       ?Unadvise@?$IConnectionPointImpl@VCOPOSCoinDispenser@@$1?IID_IPropertyNotifySink@@3U_GUID@@BVCComDynamicUnkArray@ATL@@@ATL@@UEAAJK@Z 0000000180028cf0 f i CoinDispenser.obj
 0001:00027de0       ?Unadvise@?$IOleObjectImpl@VCOPOSCoinDispenser@@@ATL@@UEAAJK@Z 0000000180028de0 f i CoinDispenser.obj
 0001:00027ed0       ?Unfreeze@?$IViewObjectExImpl@VCOPOSCoinDispenser@@@ATL@@UEAAJK@Z 0000000180028ed0 f i CoinDispenser.obj
 0001:00027f50       ?Unlock@?$CComCritSecLock@VCComCriticalSection@ATL@@@ATL@@QEAAXXZ 0000000180028f50 f i CoinDispenser.obj
 0001:00027fe0       ?Unlock@?$CComObjectRootEx@VCComSingleThreadModel@ATL@@@ATL@@QEAAXXZ 0000000180028fe0 f i CoinDispenser.obj
 0001:00027ff0       ?Unlock@CAtlModule@ATL@@UEAAJXZ 0000000180028ff0 f i CoinDispenser.obj
 0001:00028030       ?Unlock@CComCriticalSection@ATL@@QEAAJXZ 0000000180029030 f i CoinDispenser.obj
 0001:00028070       ?Unlock@CComFakeCriticalSection@ATL@@QEAAJXZ 0000000180029070 f i CoinDispenser.obj
 0001:00028080       ?UnregisterServer@?$CAtlModuleT@VCComModule@ATL@@@ATL@@QEAAJHPEBU_GUID@@@Z 0000000180029080 f i CoinDispenser.obj
 0001:000280f0       ?UnregisterServer@CAtlComModule@ATL@@QEAAJHPEBU_GUID@@@Z 00000001800290f0 f i CoinDispenser.obj
 0001:00028130       ?UnregisterServer@CComModule@ATL@@QEAAJHPEBU_GUID@@@Z 0000000180029130 f i CoinDispenser.obj
 0001:00028220       ?Update@?$IOleObjectImpl@VCOPOSCoinDispenser@@@ATL@@UEAAJXZ 0000000180029220 f i CoinDispenser.obj
 0001:00028290       ?UpdateRegistryFromResource@CAtlModule@ATL@@QEAAJIHPEAU_ATL_REGMAP_ENTRY@2@@Z 0000000180029290 f i CoinDispenser.obj
 0001:000287c0       ?UpdateRegistryFromResource@CAtlModule@ATL@@QEAAJPEB_WHPEAU_ATL_REGMAP_ENTRY@2@@Z 00000001800297c0 f i CoinDispenser.obj
 0001:00028d10       ?UpdateRegistryFromResource@CComModule@ATL@@UEAAJIHPEAU_ATL_REGMAP_ENTRY@2@@Z 0000000180029d10 f i CoinDispenser.obj
 0001:00028d60       ?UpdateRegistryFromResource@CComModule@ATL@@UEAAJPEB_WHPEAU_ATL_REGMAP_ENTRY@2@@Z 0000000180029d60 f i CoinDispenser.obj
 0001:00028db0       ?UpdateRegistryFromResourceD@CComModule@ATL@@UEAAJIHPEAU_ATL_REGMAP_ENTRY@2@@Z 0000000180029db0 f i CoinDispenser.obj
 0001:00028dd0       ?UpdateRegistryFromResourceD@CComModule@ATL@@UEAAJPEB_WHPEAU_ATL_REGMAP_ENTRY@2@@Z 0000000180029dd0 f i CoinDispenser.obj
 0001:00028df0       ?VTFromRegType@CRegParser@ATL@@KAHPEB_WAEAG@Z 0000000180029df0 f i CoinDispenser.obj
 0001:00028ed0       ?WindowProc@?$CWindowImplBaseT@VCWindow@ATL@@V?$CWinTraits@$0FGAAAAAA@$0A@@2@@ATL@@SA_JPEAUHWND__@@I_K_J@Z 0000000180029ed0 f i CoinDispenser.obj
 0001:000291b0       ?WriteToStream@CComBSTR@ATL@@QEAAJPEAUIStream@@@Z 000000018002a1b0 f i CoinDispenser.obj
 0001:00029320       ?WriteToStream@CComVariant@ATL@@QEAAJPEAUIStream@@@Z 000000018002a320 f i CoinDispenser.obj
 0001:00029730       ?WriteToStream@CComVariant@ATL@@QEAAJPEAUIStream@@G@Z 000000018002a730 f i CoinDispenser.obj
 0001:00029810       ?_AtlFinalConstruct@CComObjectRootBase@ATL@@QEAAJXZ 000000018002a810 f i CoinDispenser.obj
 0001:00029820       ?_AtlGetConversionACP@ATL@@YAIXZ 000000018002a820 f i CoinDispenser.obj
 0001:00029830       ?_AtlInitialConstruct@?$CComAggObject@VCOPOSCoinDispenser@@@ATL@@QEAAJXZ 000000018002a830 f i CoinDispenser.obj
 0001:00029890       ?_AtlInitialConstruct@?$CComObjectRootEx@VCComMultiThreadModel@ATL@@@ATL@@QEAAJXZ 000000018002a890 f i CoinDispenser.obj
 0001:000298d0       ?_AtlInitialConstruct@?$CComObjectRootEx@VCComSingleThreadModel@ATL@@@ATL@@QEAAJXZ 000000018002a8d0 f i CoinDispenser.obj
 0001:000298e0       ?_AtlVerifyStackAvailable@_ATL_SAFE_ALLOCA_IMPL@ATL@@YA_N_K@Z 000000018002a8e0 f i CoinDispenser.obj
 0001:00029a40       ?_GetEntries@?$CComEnum@UIEnumConnectionPoints@@$1?_GUID_b196b285_bab4_101a_b69c_00aa00341d07@@3U__s_GUID@@BPEAUIConnectionPoint@@V?$_CopyInterface@UIConnectionPoint@@@ATL@@VCComSingleThreadModel@6@@ATL@@SAPEBU_ATL_INTMAP_ENTRY@2@XZ 000000018002aa40 f i CoinDispenser.obj
 0001:00029a60       ?_GetEntries@?$CComEnum@UIEnumConnections@@$1?_GUID_b196b287_bab4_101a_b69c_00aa00341d07@@3U__s_GUID@@BUtagCONNECTDATA@@V?$_Copy@UtagCONNECTDATA@@@ATL@@VCComSingleThreadModel@6@@ATL@@SAPEBU_ATL_INTMAP_ENTRY@2@XZ 000000018002aa60 f i CoinDispenser.obj
 0001:00029a80       ?_GetEntries@CComClassFactory@ATL@@SAPEBU_ATL_INTMAP_ENTRY@2@XZ 000000018002aa80 f i CoinDispenser.obj
 0001:00029aa0       ?_GetEntries@COPOSCoinDispenser@@SAPEBU_ATL_INTMAP_ENTRY@ATL@@XZ 000000018002aaa0 f i CoinDispenser.obj
 0001:00029ac0       ?_GetRawUnknown@COPOSCoinDispenser@@QEAAPEAUIUnknown@@XZ 000000018002aac0 f i CoinDispenser.obj
 0001:00029b50       ?_GetViewStatus@COPOSCoinDispenser@@QEAAKXZ 000000018002ab50 f i CoinDispenser.obj
 0001:00029b60       ?_InternalQueryInterface@?$CComEnum@UIEnumConnectionPoints@@$1?_GUID_b196b285_bab4_101a_b69c_00aa00341d07@@3U__s_GUID@@BPEAUIConnectionPoint@@V?$_CopyInterface@UIConnectionPoint@@@ATL@@VCComSingleThreadModel@6@@ATL@@QEAAJAEBU_GUID@@PEAPEAX@Z 000000018002ab60 f i CoinDispenser.obj
 0001:00029bb0       ?_InternalQueryInterface@?$CComEnum@UIEnumConnections@@$1?_GUID_b196b287_bab4_101a_b69c_00aa00341d07@@3U__s_GUID@@BUtagCONNECTDATA@@V?$_Copy@UtagCONNECTDATA@@@ATL@@VCComSingleThreadModel@6@@ATL@@QEAAJAEBU_GUID@@PEAPEAX@Z 000000018002abb0 f i CoinDispenser.obj
 0001:00029c00       ?_InternalQueryInterface@CComClassFactory@ATL@@QEAAJAEBU_GUID@@PEAPEAX@Z 000000018002ac00 f i CoinDispenser.obj
 0001:00029c50       ?_InternalQueryInterface@COPOSCoinDispenser@@QEAAJAEBU_GUID@@PEAPEAX@Z 000000018002ac50 f i CoinDispenser.obj
 0001:00029ca0       ?_LocCPQueryInterface@?$IConnectionPointImpl@VCOPOSCoinDispenser@@$1?DIID__IOPOSCoinDispenserEvents@@3U_GUID@@BVCComDynamicUnkArray@ATL@@@ATL@@UEAAJAEBU_GUID@@PEAPEAX@Z 000000018002aca0 f i CoinDispenser.obj
 0001:00029d80       ?_LocCPQueryInterface@?$IConnectionPointImpl@VCOPOSCoinDispenser@@$1?IID_IPropertyNotifySink@@3U_GUID@@BVCComDynamicUnkArray@ATL@@@ATL@@UEAAJAEBU_GUID@@PEAPEAX@Z 000000018002ad80 f i CoinDispenser.obj
 0001:00029e60       ?atlCreate@?$CWindowImpl@VCOPOSCoinDispenser@@VCWindow@ATL@@V?$CWinTraits@$0FGAAAAAA@$0A@@3@@ATL@@QEAAPEAUHWND__@@PEAU3@V_U_RECT@2@PEB_WKKV_U_MENUorID@2@PEAX@Z 000000018002ae60 f i CoinDispenser.obj
 0001:00029f90       ?atlCreate@?$CWindowImplBaseT@VCWindow@ATL@@V?$CWinTraits@$0FGAAAAAA@$0A@@2@@ATL@@QEAAPEAUHWND__@@PEAU3@V_U_RECT@2@PEB_WKKV_U_MENUorID@2@GPEAX@Z 000000018002af90 f i CoinDispenser.obj
 0001:0002a1f0       ?atlCreate@CRegKey@ATL@@QEAAJPEAUHKEY__@@PEB_WPEA_WKKPEAU_SECURITY_ATTRIBUTES@@PEAK@Z 000000018002b1f0 f i CoinDispenser.obj
 0001:0002a3e0       ?begin@CComDynamicUnkArray@ATL@@QEAAPEAPEAUIUnknown@@XZ 000000018002b3e0 f i CoinDispenser.obj
 0001:0002a3f0       ?copy@?$_Copy@UtagCONNECTDATA@@@ATL@@SAJPEAUtagCONNECTDATA@@PEBU3@@Z 000000018002b3f0 f i CoinDispenser.obj
 0001:0002a4e0       ?copy@?$_CopyInterface@UIConnectionPoint@@@ATL@@SAJPEAPEAUIConnectionPoint@@PEBQEAU3@@Z 000000018002b4e0 f i CoinDispenser.obj
 0001:0002a5d0       ?destroy@?$_Copy@UtagCONNECTDATA@@@ATL@@SAXPEAUtagCONNECTDATA@@@Z 000000018002b5d0 f i CoinDispenser.obj
 0001:0002a620       ?destroy@?$_CopyInterface@UIConnectionPoint@@@ATL@@SAXPEAPEAUIConnectionPoint@@@Z 000000018002b620 f i CoinDispenser.obj
 0001:0002a670       ?end@CComDynamicUnkArray@ATL@@QEAAPEAPEAUIUnknown@@XZ 000000018002b670 f i CoinDispenser.obj
 0001:0002a690       ?init@?$_Copy@UtagCONNECTDATA@@@ATL@@SAXPEAUtagCONNECTDATA@@@Z 000000018002b690 f i CoinDispenser.obj
 0001:0002a6a0       ?init@?$_CopyInterface@UIConnectionPoint@@@ATL@@SAXPEAPEAUIConnectionPoint@@@Z 000000018002b6a0 f i CoinDispenser.obj
 0001:0002a6b0       ?memcpy_s@Checked@ATL@@YAXPEAX_KPEBX1@Z 000000018002b6b0 f i CoinDispenser.obj
 0001:0002a710       ?ocscpy_s@@YA_NPEA_W_KPEB_W@Z 000000018002b710 f i CoinDispenser.obj
 0001:0002a790       ?ocslen@@YAHPEB_W@Z        000000018002b790 f i CoinDispenser.obj
 0001:0002a7d0       ?tcsncpy_s@Checked@ATL@@YAHPEA_W_KPEB_W1@Z 000000018002b7d0 f i CoinDispenser.obj
 0001:0002a830       ?wcscat_s@Checked@ATL@@YAXPEA_W_KPEB_W@Z 000000018002b830 f i CoinDispenser.obj
 0001:0002a880       ?wcscpy_s@Checked@ATL@@YAXPEA_W_KPEB_W@Z 000000018002b880 f i CoinDispenser.obj
 0001:0002a8d0       ?wcsncpy_s@Checked@ATL@@YAHPEA_W_KPEB_W1@Z 000000018002b8d0 f i CoinDispenser.obj
 0001:0002a930       ?wcsstr@@YAPEA_WPEA_WPEB_W@Z 000000018002b930 f i CoinDispenser.obj
 0001:0002a970       InlineIsEqualGUID          000000018002b970 f i CoinDispenser.obj
 0001:0002aa40       IsEqualGUID                000000018002ba40 f i CoinDispenser.obj
 0001:0002aaa0       ??0COPOSCoinDispenser@@QEAA@XZ 000000018002baa0 f   CoinDispenserImpl.obj
 0001:0002ac20       ?FinalConstruct@COPOSCoinDispenser@@QEAAJXZ 000000018002bc20 f   CoinDispenserImpl.obj
 0001:0002ad10       ??1COPOSCoinDispenser@@UEAA@XZ 000000018002bd10 f   CoinDispenserImpl.obj
 0001:0002adf0       ?WriteTrace@COPOSCoinDispenser@@QEAAXPEB_WZZ 000000018002bdf0 f   CoinDispenserImpl.obj
 0001:0002aeb0       ?WriteTraceString@COPOSCoinDispenser@@QEAAXPEB_WPEA_W@Z 000000018002beb0 f   CoinDispenserImpl.obj
 0001:0002b2f0       ?WriteTraceString@COPOSCoinDispenser@@QEAAXPEAXHHHPEB_WZZ 000000018002c2f0 f   CoinDispenserImpl.obj
 0001:0002b580       ?WriteTraceError@COPOSCoinDispenser@@QEAAXPEB_WK@Z 000000018002c580 f   CoinDispenserImpl.obj
 0001:0002b680       ?WriteTraceMethods@COPOSCoinDispenser@@QEAAXPEAJH@Z 000000018002c680 f   CoinDispenserImpl.obj
 0001:0002b710       ?GetOposProp@COPOSCoinDispenser@@IEAAJPEBDJPEAJJ@Z 000000018002c710 f   CoinDispenserImpl.obj
 0001:0002ba30       ?SetOposProp@COPOSCoinDispenser@@IEAAJPEBDJJJ@Z 000000018002ca30 f   CoinDispenserImpl.obj
 0001:0002bd90       ?GetOposProp@COPOSCoinDispenser@@IEAAJPEBDJPEAFJ@Z 000000018002cd90 f   CoinDispenserImpl.obj
 0001:0002be30       ?SetOposProp@COPOSCoinDispenser@@IEAAJPEBDJFJ@Z 000000018002ce30 f   CoinDispenserImpl.obj
 0001:0002beb0       ?GetOposProp@COPOSCoinDispenser@@IEAAJPEBDJPEAPEA_WJ@Z 000000018002ceb0 f   CoinDispenserImpl.obj
 0001:0002c1d0       ?SetOposProp@COPOSCoinDispenser@@IEAAJPEBDJPEA_WJ@Z 000000018002d1d0 f   CoinDispenserImpl.obj
 0001:0002c5b0       ?DoInvoke@COPOSCoinDispenser@@IEAAJPEBDJPEAVOposVariant@@IHPEAJ_N@Z 000000018002d5b0 f   CoinDispenserImpl.obj
 0001:0002d100       ?SetCOFreezeEvents@COPOSCoinDispenser@@IEAAXF@Z 000000018002e100 f   CoinDispenserImpl.obj
 0001:0002d290       ?FreezeEvents@COPOSCoinDispenser@@MEAAJH@Z 000000018002e290 f   CoinDispenserImpl.obj
 0001:0002d3c0       ?OnDraw@COPOSCoinDispenser@@MEAAJAEAUATL_DRAWINFO@@@Z 000000018002e3c0 f   CoinDispenserImpl.obj
 0001:0002d590       ?SOProcessID@COPOSCoinDispenser@@UEAAJPEAJ@Z 000000018002e590 f   CoinDispenserImpl.obj
 0001:0002d5f0       ?get_OpenResult@COPOSCoinDispenser@@UEAAJPEAJ@Z 000000018002e5f0 f   CoinDispenserImpl.obj
 0001:0002d650       ?get_CheckHealthText@COPOSCoinDispenser@@UEAAJPEAPEA_W@Z 000000018002e650 f   CoinDispenserImpl.obj
 0001:0002d6b0       ?get_Claimed@COPOSCoinDispenser@@UEAAJPEAF@Z 000000018002e6b0 f   CoinDispenserImpl.obj
 0001:0002d710       ?get_DeviceEnabled@COPOSCoinDispenser@@UEAAJPEAF@Z 000000018002e710 f   CoinDispenserImpl.obj
 0001:0002d770       ?put_DeviceEnabled@COPOSCoinDispenser@@UEAAJF@Z 000000018002e770 f   CoinDispenserImpl.obj
 0001:0002d7d0       ?get_FreezeEvents@COPOSCoinDispenser@@UEAAJPEAF@Z 000000018002e7d0 f   CoinDispenserImpl.obj
 0001:0002d830       ?put_FreezeEvents@COPOSCoinDispenser@@UEAAJF@Z 000000018002e830 f   CoinDispenserImpl.obj
 0001:0002d910       ?get_ResultCode@COPOSCoinDispenser@@UEAAJPEAJ@Z 000000018002e910 f   CoinDispenserImpl.obj
 0001:0002d9e0       ?get_ResultCodeExtended@COPOSCoinDispenser@@UEAAJPEAJ@Z 000000018002e9e0 f   CoinDispenserImpl.obj
 0001:0002da40       ?get_State@COPOSCoinDispenser@@UEAAJPEAJ@Z 000000018002ea40 f   CoinDispenserImpl.obj
 0001:0002dad0       ?get_ControlObjectDescription@COPOSCoinDispenser@@UEAAJPEAPEA_W@Z 000000018002ead0 f   CoinDispenserImpl.obj
 0001:0002db50       ?get_ControlObjectVersion@COPOSCoinDispenser@@UEAAJPEAJ@Z 000000018002eb50 f   CoinDispenserImpl.obj
 0001:0002dbb0       ?get_ServiceObjectDescription@COPOSCoinDispenser@@UEAAJPEAPEA_W@Z 000000018002ebb0 f   CoinDispenserImpl.obj
 0001:0002dc10       ?get_ServiceObjectVersion@COPOSCoinDispenser@@UEAAJPEAJ@Z 000000018002ec10 f   CoinDispenserImpl.obj
 0001:0002dc70       ?get_DeviceDescription@COPOSCoinDispenser@@UEAAJPEAPEA_W@Z 000000018002ec70 f   CoinDispenserImpl.obj
 0001:0002dcd0       ?get_DeviceName@COPOSCoinDispenser@@UEAAJPEAPEA_W@Z 000000018002ecd0 f   CoinDispenserImpl.obj
 0001:0002dd30       ?CheckHealth@COPOSCoinDispenser@@UEAAJJPEAJ@Z 000000018002ed30 f   CoinDispenserImpl.obj
 0001:0002ddf0       ?ClaimDevice@COPOSCoinDispenser@@UEAAJJPEAJ@Z 000000018002edf0 f   CoinDispenserImpl.obj
 0001:0002df10       ?Close@COPOSCoinDispenser@@UEAAJPEAJ@Z 000000018002ef10 f   CoinDispenserImpl.obj
 0001:0002e020       ?DirectIO@COPOSCoinDispenser@@UEAAJJPEAJPEAPEA_W0@Z 000000018002f020 f   CoinDispenserImpl.obj
 0001:0002e1a0       ?Open@COPOSCoinDispenser@@UEAAJPEA_WPEAJ@Z 000000018002f1a0 f   CoinDispenserImpl.obj
 0001:0002f670       ?ReleaseDevice@COPOSCoinDispenser@@UEAAJPEAJ@Z 0000000180030670 f   CoinDispenserImpl.obj
 0001:0002f720       ?get_CapEmptySensor@COPOSCoinDispenser@@UEAAJPEAF@Z 0000000180030720 f   CoinDispenserImpl.obj
 0001:0002f780       ?get_CapJamSensor@COPOSCoinDispenser@@UEAAJPEAF@Z 0000000180030780 f   CoinDispenserImpl.obj
 0001:0002f7e0       ?get_CapNearEmptySensor@COPOSCoinDispenser@@UEAAJPEAF@Z 00000001800307e0 f   CoinDispenserImpl.obj
 0001:0002f840       ?get_DispenserStatus@COPOSCoinDispenser@@UEAAJPEAJ@Z 0000000180030840 f   CoinDispenserImpl.obj
 0001:0002f8a0       ?DispenseChange@COPOSCoinDispenser@@UEAAJJPEAJ@Z 00000001800308a0 f   CoinDispenserImpl.obj
 0001:0002f960       ?get_BinaryConversion@COPOSCoinDispenser@@UEAAJPEAJ@Z 0000000180030960 f   CoinDispenserImpl.obj
 0001:0002f9c0       ?put_BinaryConversion@COPOSCoinDispenser@@UEAAJJ@Z 00000001800309c0 f   CoinDispenserImpl.obj
 0001:0002fa30       ?get_CapPowerReporting@COPOSCoinDispenser@@UEAAJPEAJ@Z 0000000180030a30 f   CoinDispenserImpl.obj
 0001:0002fa90       ?get_PowerNotify@COPOSCoinDispenser@@UEAAJPEAJ@Z 0000000180030a90 f   CoinDispenserImpl.obj
 0001:0002faf0       ?put_PowerNotify@COPOSCoinDispenser@@UEAAJJ@Z 0000000180030af0 f   CoinDispenserImpl.obj
 0001:0002fb50       ?get_PowerState@COPOSCoinDispenser@@UEAAJPEAJ@Z 0000000180030b50 f   CoinDispenserImpl.obj
 0001:0002fbb0       ?get_CapStatisticsReporting@COPOSCoinDispenser@@UEAAJPEAF@Z 0000000180030bb0 f   CoinDispenserImpl.obj
 0001:0002fc10       ?get_CapUpdateStatistics@COPOSCoinDispenser@@UEAAJPEAF@Z 0000000180030c10 f   CoinDispenserImpl.obj
 0001:0002fc70       ?ResetStatistics@COPOSCoinDispenser@@UEAAJPEA_WPEAJ@Z 0000000180030c70 f   CoinDispenserImpl.obj
 0001:0002fd50       ?RetrieveStatistics@COPOSCoinDispenser@@UEAAJPEAPEA_WPEAJ@Z 0000000180030d50 f   CoinDispenserImpl.obj
 0001:0002fe30       ?UpdateStatistics@COPOSCoinDispenser@@UEAAJPEA_WPEAJ@Z 0000000180030e30 f   CoinDispenserImpl.obj
 0001:0002ff10       ?get_CapCompareFirmwareVersion@COPOSCoinDispenser@@UEAAJPEAF@Z 0000000180030f10 f   CoinDispenserImpl.obj
 0001:0002ff70       ?get_CapUpdateFirmware@COPOSCoinDispenser@@UEAAJPEAF@Z 0000000180030f70 f   CoinDispenserImpl.obj
 0001:0002ffd0       ?CompareFirmwareVersion@COPOSCoinDispenser@@UEAAJPEA_WPEAJ1@Z 0000000180030fd0 f   CoinDispenserImpl.obj
 0001:00030110       ?UpdateFirmware@COPOSCoinDispenser@@UEAAJPEA_WPEAJ@Z 0000000180031110 f   CoinDispenserImpl.obj
 0001:000301f0       ?AdjustCashCounts@COPOSCoinDispenser@@UEAAJPEA_WPEAJ@Z 00000001800311f0 f   CoinDispenserImpl.obj
 0001:000302d0       ?ReadCashCounts@COPOSCoinDispenser@@UEAAJPEAPEA_WPEAFPEAJ@Z 00000001800312d0 f   CoinDispenserImpl.obj
 0001:00030400       ??0?$CComControl@VCOPOSCoinDispenser@@V?$CWindowImpl@VCOPOSCoinDispenser@@VCWindow@ATL@@V?$CWinTraits@$0FGAAAAAA@$0A@@3@@ATL@@@ATL@@QEAA@XZ 0000000180031400 f i CoinDispenserImpl.obj
 0001:00030450       ??0?$CComPtr@UIAdviseSink@@@ATL@@QEAA@XZ 0000000180031450 f i CoinDispenserImpl.obj
 0001:00030490       ??0?$CComPtr@UIDataAdviseHolder@@@ATL@@QEAA@XZ 0000000180031490 f i CoinDispenserImpl.obj
 0001:000304d0       ??0?$CComPtr@UIOleAdviseHolder@@@ATL@@QEAA@XZ 00000001800314d0 f i CoinDispenserImpl.obj
 0001:00030510       ??0?$CComPtr@UIOleClientSite@@@ATL@@QEAA@XZ 0000000180031510 f i CoinDispenserImpl.obj
 0001:00030550       ??0?$CComPtr@UIOleInPlaceSiteWindowless@@@ATL@@QEAA@XZ 0000000180031550 f i CoinDispenserImpl.obj
 0001:00030590       ??0?$CComPtrBase@UIAdviseSink@@@ATL@@IEAA@XZ 0000000180031590 f i CoinDispenserImpl.obj
 0001:000305b0       ??0?$CComPtrBase@UIDataAdviseHolder@@@ATL@@IEAA@XZ 00000001800315b0 f i CoinDispenserImpl.obj
 0001:000305d0       ??0?$CComPtrBase@UIOleAdviseHolder@@@ATL@@IEAA@XZ 00000001800315d0 f i CoinDispenserImpl.obj
 0001:000305f0       ??0?$CComPtrBase@UIOleClientSite@@@ATL@@IEAA@XZ 00000001800315f0 f i CoinDispenserImpl.obj
 0001:00030610       ??0?$CComPtrBase@UIOleInPlaceSiteWindowless@@@ATL@@IEAA@XZ 0000000180031610 f i CoinDispenserImpl.obj
 0001:00030630       ??0?$CComQIPtr@UIDispatch@@$1?_GUID_00020400_0000_0000_c000_000000000046@@3U__s_GUID@@B@ATL@@QEAA@XZ 0000000180031630 f i CoinDispenserImpl.obj
 0001:00030670       ??0?$CProxy_IOPOSEvents@VCOPOSCoinDispenser@@@@QEAA@PEAVCOPOSCoinDispenser@@@Z 0000000180031670 f i CoinDispenserImpl.obj
 0001:000306e0       ??0?$CWindowImpl@VCOPOSCoinDispenser@@VCWindow@ATL@@V?$CWinTraits@$0FGAAAAAA@$0A@@3@@ATL@@QEAA@XZ 00000001800316e0 f i CoinDispenserImpl.obj
 0001:00030720       ??0?$CWindowImplBaseT@VCWindow@ATL@@V?$CWinTraits@$0FGAAAAAA@$0A@@2@@ATL@@QEAA@XZ 0000000180031720 f i CoinDispenserImpl.obj
 0001:00030770       ??0?$CWindowImplRoot@VCWindow@ATL@@@ATL@@QEAA@XZ 0000000180031770 f i CoinDispenserImpl.obj
 0001:000307e0       ??0?$IConnectionPointContainerImpl@VCOPOSCoinDispenser@@@ATL@@QEAA@XZ 00000001800317e0 f i CoinDispenserImpl.obj
 0001:00030820       ??0?$IConnectionPointImpl@VCOPOSCoinDispenser@@$1?DIID__IOPOSCoinDispenserEvents@@3U_GUID@@BVCComDynamicUnkArray@ATL@@@ATL@@QEAA@XZ 0000000180031820 f i CoinDispenserImpl.obj
 0001:00030870       ??0?$IConnectionPointImpl@VCOPOSCoinDispenser@@$1?IID_IPropertyNotifySink@@3U_GUID@@BVCComDynamicUnkArray@ATL@@@ATL@@QEAA@XZ 0000000180031870 f i CoinDispenserImpl.obj
 0001:000308c0       ??0?$IDataObjectImpl@VCOPOSCoinDispenser@@@ATL@@QEAA@XZ 00000001800318c0 f i CoinDispenserImpl.obj
 0001:00030900       ??0?$IDispatchImpl@UIOPOSCoinDispenser@@$1?IID_IOPOSCoinDispenser@@3U_GUID@@B$1?LIBID_OposCoinDispenser_CCO@@3U3@B$00$0A@VCComTypeInfoHolder@ATL@@@ATL@@QEAA@XZ 0000000180031900 f i CoinDispenserImpl.obj
 0001:00030940       ??0?$IObjectSafetyImpl@VCOPOSCoinDispenser@@$02@ATL@@QEAA@XZ 0000000180031940 f i CoinDispenserImpl.obj
 0001:00030980       ??0?$IOleControlImpl@VCOPOSCoinDispenser@@@ATL@@QEAA@XZ 0000000180031980 f i CoinDispenserImpl.obj
 0001:000309c0       ??0?$IOleInPlaceActiveObjectImpl@VCOPOSCoinDispenser@@@ATL@@QEAA@XZ 00000001800319c0 f i CoinDispenserImpl.obj
 0001:00030a00       ??0?$IOleInPlaceObjectWindowlessImpl@VCOPOSCoinDispenser@@@ATL@@QEAA@XZ 0000000180031a00 f i CoinDispenserImpl.obj
 0001:00030a40       ??0?$IOleObjectImpl@VCOPOSCoinDispenser@@@ATL@@QEAA@XZ 0000000180031a40 f i CoinDispenserImpl.obj
 0001:00030a80       ??0?$IPersistStorageImpl@VCOPOSCoinDispenser@@@ATL@@QEAA@XZ 0000000180031a80 f i CoinDispenserImpl.obj
 0001:00030ac0       ??0?$IPersistStreamInitImpl@VCOPOSCoinDispenser@@@ATL@@QEAA@XZ 0000000180031ac0 f i CoinDispenserImpl.obj
 0001:00030b00       ??0?$IPropertyNotifySinkCP@VCOPOSCoinDispenser@@VCComDynamicUnkArray@ATL@@@ATL@@QEAA@XZ 0000000180031b00 f i CoinDispenserImpl.obj
 0001:00030b40       ??0?$IProvideClassInfo2Impl@$1?CLSID_OPOSCoinDispenser@@3U_GUID@@B$1?DIID__IOPOSCoinDispenserEvents@@3U2@B$1?LIBID_OposCoinDispenser_CCO@@3U2@B$00$0A@VCComTypeInfoHolder@ATL@@@ATL@@QEAA@XZ 0000000180031b40 f i CoinDispenserImpl.obj
 0001:00030b80       ??0?$IQuickActivateImpl@VCOPOSCoinDispenser@@@ATL@@QEAA@XZ 0000000180031b80 f i CoinDispenserImpl.obj
 0001:00030bc0       ??0?$ISpecifyPropertyPagesImpl@VCOPOSCoinDispenser@@@ATL@@QEAA@XZ 0000000180031bc0 f i CoinDispenserImpl.obj
 0001:00030c00       ??0?$IViewObjectExImpl@VCOPOSCoinDispenser@@@ATL@@QEAA@XZ 0000000180031c00 f i CoinDispenserImpl.obj
 0001:00030c40       ??0?$_ICPLocator@$1?DIID__IOPOSCoinDispenserEvents@@3U_GUID@@B@ATL@@QEAA@XZ 0000000180031c40 f i CoinDispenserImpl.obj
 0001:00030c50       ??0?$_ICPLocator@$1?IID_IPropertyNotifySink@@3U_GUID@@B@ATL@@QEAA@XZ 0000000180031c50 f i CoinDispenserImpl.obj
 0001:00030c60       ??0CComControlBase@ATL@@QEAA@AEAPEAUHWND__@@@Z 0000000180031c60 f i CoinDispenserImpl.obj
 0001:00030e80       ??0CComDynamicUnkArray@ATL@@QEAA@XZ 0000000180031e80 f i CoinDispenserImpl.obj
 0001:00030eb0       ??0CDynamicStdCallThunk2@ATL@@QEAA@XZ 0000000180031eb0 f i CoinDispenserImpl.obj
 0001:00030ed0       ??0CMessageMap@ATL@@QEAA@XZ 0000000180031ed0 f i CoinDispenserImpl.obj
 0001:00030ee0       ??0CWindow@ATL@@QEAA@PEAUHWND__@@@Z 0000000180031ee0 f i CoinDispenserImpl.obj
 0001:00030f00       ??0CWndProcThunk@ATL@@QEAA@XZ 0000000180031f00 f i CoinDispenserImpl.obj
 0001:00030f40       ??0IConnectionPointContainer@@QEAA@XZ 0000000180031f40 f i CoinDispenserImpl.obj
 0001:00030f80       ??0IDataObject@@QEAA@XZ    0000000180031f80 f i CoinDispenserImpl.obj
 0001:00030fc0       ??0IDispatch@@QEAA@XZ      0000000180031fc0 f i CoinDispenserImpl.obj
 0001:00031000       ??0IOPOSCoinDispenser@@QEAA@XZ 0000000180032000 f i CoinDispenserImpl.obj
 0001:00031040       ??0IOPOSCoinDispenser_1_11@@QEAA@XZ 0000000180032040 f i CoinDispenserImpl.obj
 0001:00031080       ??0IOPOSCoinDispenser_1_5@@QEAA@XZ 0000000180032080 f i CoinDispenserImpl.obj
 0001:000310c0       ??0IOPOSCoinDispenser_1_8@@QEAA@XZ 00000001800320c0 f i CoinDispenserImpl.obj
 0001:00031100       ??0IOPOSCoinDispenser_1_9@@QEAA@XZ 0000000180032100 f i CoinDispenserImpl.obj
 0001:00031140       ??0IObjectSafety@@QEAA@XZ  0000000180032140 f i CoinDispenserImpl.obj
 0001:00031180       ??0IOleControl@@QEAA@XZ    0000000180032180 f i CoinDispenserImpl.obj
 0001:000311c0       ??0IOleInPlaceActiveObject@@QEAA@XZ 00000001800321c0 f i CoinDispenserImpl.obj
 0001:00031200       ??0IOleInPlaceObject@@QEAA@XZ 0000000180032200 f i CoinDispenserImpl.obj
 0001:00031240       ??0IOleInPlaceObjectWindowless@@QEAA@XZ 0000000180032240 f i CoinDispenserImpl.obj
 0001:00031280       ??0IOleObject@@QEAA@XZ     0000000180032280 f i CoinDispenserImpl.obj
 0001:000312c0       ??0IOleWindow@@QEAA@XZ     00000001800322c0 f i CoinDispenserImpl.obj
 0001:00031300       ??0IPersist@@QEAA@XZ       0000000180032300 f i CoinDispenserImpl.obj
 0001:00031340       ??0IPersistStorage@@QEAA@XZ 0000000180032340 f i CoinDispenserImpl.obj
 0001:00031380       ??0IPersistStreamInit@@QEAA@XZ 0000000180032380 f i CoinDispenserImpl.obj
 0001:000313c0       ??0IProvideClassInfo2@@QEAA@XZ 00000001800323c0 f i CoinDispenserImpl.obj
 0001:00031400       ??0IProvideClassInfo@@QEAA@XZ 0000000180032400 f i CoinDispenserImpl.obj
 0001:00031440       ??0IQuickActivate@@QEAA@XZ 0000000180032440 f i CoinDispenserImpl.obj
 0001:00031480       ??0ISpecifyPropertyPages@@QEAA@XZ 0000000180032480 f i CoinDispenserImpl.obj
 0001:000314c0       ??0IViewObject2@@QEAA@XZ   00000001800324c0 f i CoinDispenserImpl.obj
 0001:00031500       ??0IViewObject@@QEAA@XZ    0000000180032500 f i CoinDispenserImpl.obj
 0001:00031540       ??0IViewObjectEx@@QEAA@XZ  0000000180032540 f i CoinDispenserImpl.obj
 0001:00031580       ??0OposVariantResult@@QEAA@XZ 0000000180032580 f i CoinDispenserImpl.obj
 0001:000315c0       ??0_CW@@QEAA@PEBD@Z        00000001800325c0 f i CoinDispenserImpl.obj
 0001:00031610       ??0_CW@@QEAA@PEB_W@Z       0000000180032610 f i CoinDispenserImpl.obj
 0001:00031660       ??0_CWNCC@@QEAA@PEBD@Z     0000000180032660 f i CoinDispenserImpl.obj
 0001:000316a0       ??1?$CComControl@VCOPOSCoinDispenser@@V?$CWindowImpl@VCOPOSCoinDispenser@@VCWindow@ATL@@V?$CWinTraits@$0FGAAAAAA@$0A@@3@@ATL@@@ATL@@UEAA@XZ 00000001800326a0 f i CoinDispenserImpl.obj
 0001:000316e0       ??1?$CComPtr@UIDataAdviseHolder@@@ATL@@QEAA@XZ 00000001800326e0 f i CoinDispenserImpl.obj
 0001:00031710       ??1?$CComPtr@UIOleAdviseHolder@@@ATL@@QEAA@XZ 0000000180032710 f i CoinDispenserImpl.obj
 0001:00031740       ??1?$CComPtr@UIOleInPlaceSiteWindowless@@@ATL@@QEAA@XZ 0000000180032740 f i CoinDispenserImpl.obj
 0001:00031770       ??1?$CComPtrBase@UIDataAdviseHolder@@@ATL@@QEAA@XZ 0000000180032770 f i CoinDispenserImpl.obj
 0001:000317c0       ??1?$CComPtrBase@UIOleAdviseHolder@@@ATL@@QEAA@XZ 00000001800327c0 f i CoinDispenserImpl.obj
 0001:00031810       ??1?$CComPtrBase@UIOleInPlaceSiteWindowless@@@ATL@@QEAA@XZ 0000000180032810 f i CoinDispenserImpl.obj
 0001:00031860       ??1?$CComQIPtr@UIDispatch@@$1?_GUID_00020400_0000_0000_c000_000000000046@@3U__s_GUID@@B@ATL@@QEAA@XZ 0000000180032860 f i CoinDispenserImpl.obj
 0001:00031890       ??1?$CProxy_IOPOSEvents@VCOPOSCoinDispenser@@@@QEAA@XZ 0000000180032890 f i CoinDispenserImpl.obj
 0001:000318c0       ??1?$CWindowImpl@VCOPOSCoinDispenser@@VCWindow@ATL@@V?$CWinTraits@$0FGAAAAAA@$0A@@3@@ATL@@UEAA@XZ 00000001800328c0 f i CoinDispenserImpl.obj
 0001:000318f0       ??1?$CWindowImplBaseT@VCWindow@ATL@@V?$CWinTraits@$0FGAAAAAA@$0A@@2@@ATL@@UEAA@XZ 00000001800328f0 f i CoinDispenserImpl.obj
 0001:00031920       ??1?$CWindowImplRoot@VCWindow@ATL@@@ATL@@UEAA@XZ 0000000180032920 f i CoinDispenserImpl.obj
 0001:000319e0       ??1?$IConnectionPointImpl@VCOPOSCoinDispenser@@$1?DIID__IOPOSCoinDispenserEvents@@3U_GUID@@BVCComDynamicUnkArray@ATL@@@ATL@@QEAA@XZ 00000001800329e0 f i CoinDispenserImpl.obj
 0001:00031a80       ??1?$IConnectionPointImpl@VCOPOSCoinDispenser@@$1?IID_IPropertyNotifySink@@3U_GUID@@BVCComDynamicUnkArray@ATL@@@ATL@@QEAA@XZ 0000000180032a80 f i CoinDispenserImpl.obj
 0001:00031b20       ??1?$IPropertyNotifySinkCP@VCOPOSCoinDispenser@@VCComDynamicUnkArray@ATL@@@ATL@@QEAA@XZ 0000000180032b20 f i CoinDispenserImpl.obj
 0001:00031b50       ??1CComControlBase@ATL@@UEAA@XZ 0000000180032b50 f i CoinDispenserImpl.obj
 0001:00031c40       ??1CComDynamicUnkArray@ATL@@QEAA@XZ 0000000180032c40 f i CoinDispenserImpl.obj
 0001:00031c80       ??1CDynamicStdCallThunk2@ATL@@QEAA@XZ 0000000180032c80 f i CoinDispenserImpl.obj
 0001:00031cc0       ??1CWndProcThunk@ATL@@QEAA@XZ 0000000180032cc0 f i CoinDispenserImpl.obj
 0001:00031d00       ??1OposVariantResult@@QEAA@XZ 0000000180032d00 f i CoinDispenserImpl.obj
 0001:00031d40       ??1_CW@@QEAA@XZ            0000000180032d40 f i CoinDispenserImpl.obj
 0001:00031dc0       ??1_CWNCC@@QEAA@XZ         0000000180032dc0 f i CoinDispenserImpl.obj
 0001:00031df0       ??B_CW@@QEAAPEB_WXZ        0000000180032df0 f i CoinDispenserImpl.obj
 0001:00031e40       ??B_CWNCC@@QEAAPEA_WXZ     0000000180032e40 f i CoinDispenserImpl.obj
 0001:00031e70       ??_EOposVariant@@QEAAPEAXI@Z 0000000180032e70 f i CoinDispenserImpl.obj
 0001:00031f20       ?EventClaim@COPOSCoinDispenser@@IEAAXXZ 0000000180032f20 f i CoinDispenserImpl.obj
 0001:00031f70       ?EventClose@COPOSCoinDispenser@@IEAAXXZ 0000000180032f70 f i CoinDispenserImpl.obj
 0001:00032010       ?EventInit@COPOSCoinDispenser@@IEAAJXZ 0000000180033010 f i CoinDispenserImpl.obj
 0001:000322c0       ?EventOpen@COPOSCoinDispenser@@IEAAXXZ 00000001800332c0 f i CoinDispenserImpl.obj
 0001:00032300       ?EventPreCloseRelease@COPOSCoinDispenser@@IEAAXXZ 0000000180033300 f i CoinDispenserImpl.obj
 0001:00032380       ?EventUninit@COPOSCoinDispenser@@IEAAXXZ 0000000180033380 f i CoinDispenserImpl.obj
 0001:000324b0       ?EventWindowProc@COPOSCoinDispenser@@IEAA_JI_K_J@Z 00000001800334b0 f i CoinDispenserImpl.obj
 0001:000325b0       ?FireEventCleanup@COPOSCoinDispenser@@IEAAXXZ 00000001800335b0 f i CoinDispenserImpl.obj
 0001:00032600       ?FireEventSetup@COPOSCoinDispenser@@IEAA_NXZ 0000000180033600 f i CoinDispenserImpl.obj
 0001:00032680       ?GetModuleInstance@CComModule@ATL@@QEAAPEAUHINSTANCE__@@XZ 0000000180033680 f i CoinDispenserImpl.obj
 0001:00032690       ?SetRC@COPOSCoinDispenser@@IEAAJJ@Z 0000000180033690 f i CoinDispenserImpl.obj
 0001:000326b0       ?s_EventWindowProc@COPOSCoinDispenser@@KA_JPEAUHWND__@@I_K_J@Z 00000001800336b0 f i CoinDispenserImpl.obj
 0001:00032760       _snwprintf                 0000000180033760 f i CoinDispenserImpl.obj
 0001:000327f0       _vfwprintf_l               00000001800337f0 f i CoinDispenserImpl.obj
 0001:00032850       _vsnwprintf                0000000180033850 f i CoinDispenserImpl.obj
 0001:000328b0       _vsnwprintf_l              00000001800338b0 f i CoinDispenserImpl.obj
 0001:00032940       vfwprintf                  0000000180033940 f i CoinDispenserImpl.obj
 0001:00032985       DebugBreak                 0000000180033985 f   kernel32:KERNEL32.dll
 0001:0003298b       Sleep                      000000018003398b f   kernel32:KERNEL32.dll
 0001:00032991       GetCurrentProcess          0000000180033991 f   kernel32:KERNEL32.dll
 0001:00032997       TerminateProcess           0000000180033997 f   kernel32:KERNEL32.dll
 0001:0003299d       MultiByteToWideChar        000000018003399d f   kernel32:KERNEL32.dll
 0001:000329a3       WideCharToMultiByte        00000001800339a3 f   kernel32:KERNEL32.dll
 0001:000329a9       DecodePointer              00000001800339a9 f   kernel32:KERNEL32.dll
 0001:000329af       RaiseException             00000001800339af f   kernel32:KERNEL32.dll
 0001:000329b5       GetLastError               00000001800339b5 f   kernel32:KERNEL32.dll
 0001:000329bb       SetLastError               00000001800339bb f   kernel32:KERNEL32.dll
 0001:000329c1       InitializeCriticalSectionEx 00000001800339c1 f   kernel32:KERNEL32.dll
 0001:000329c7       DeleteCriticalSection      00000001800339c7 f   kernel32:KERNEL32.dll
 0001:000329cd       EncodePointer              00000001800339cd f   kernel32:KERNEL32.dll
 0001:000329d3       EnterCriticalSection       00000001800339d3 f   kernel32:KERNEL32.dll
 0001:000329d9       LeaveCriticalSection       00000001800339d9 f   kernel32:KERNEL32.dll
 0001:000329df       ResetEvent                 00000001800339df f   kernel32:KERNEL32.dll
 0001:000329e5       ReleaseMutex               00000001800339e5 f   kernel32:KERNEL32.dll
 0001:000329eb       WaitForSingleObject        00000001800339eb f   kernel32:KERNEL32.dll
 0001:000329f1       GetCurrentThreadId         00000001800339f1 f   kernel32:KERNEL32.dll
 0001:000329f7       DisableThreadLibraryCalls  00000001800339f7 f   kernel32:KERNEL32.dll
 0001:000329fd       FreeLibrary                00000001800339fd f   kernel32:KERNEL32.dll
 0001:00032a03       GetModuleFileNameW         0000000180033a03 f   kernel32:KERNEL32.dll
 0001:00032a09       GetModuleHandleW           0000000180033a09 f   kernel32:KERNEL32.dll
 0001:00032a0f       GetProcAddress             0000000180033a0f f   kernel32:KERNEL32.dll
 0001:00032a15       LoadLibraryExW             0000000180033a15 f   kernel32:KERNEL32.dll
 0001:00032a1b       LoadResource               0000000180033a1b f   kernel32:KERNEL32.dll
 0001:00032a21       SizeofResource             0000000180033a21 f   kernel32:KERNEL32.dll
 0001:00032a27       FindResourceW              0000000180033a27 f   kernel32:KERNEL32.dll
 0001:00032a2d       GlobalAlloc                0000000180033a2d f   kernel32:KERNEL32.dll
 0001:00032a33       GlobalUnlock               0000000180033a33 f   kernel32:KERNEL32.dll
 0001:00032a39       GlobalLock                 0000000180033a39 f   kernel32:KERNEL32.dll
 0001:00032a3f       MulDiv                     0000000180033a3f f   kernel32:KERNEL32.dll
 0001:00032a45       lstrcmpiW                  0000000180033a45 f   kernel32:KERNEL32.dll
 0001:00032a4b       DeleteFileW                0000000180033a4b f   kernel32:KERNEL32.dll
 0001:00032a51       CloseHandle                0000000180033a51 f   kernel32:KERNEL32.dll
 0001:00032a57       SetEvent                   0000000180033a57 f   kernel32:KERNEL32.dll
 0001:00032a5d       CreateMutexW               0000000180033a5d f   kernel32:KERNEL32.dll
 0001:00032a63       CreateEventW               0000000180033a63 f   kernel32:KERNEL32.dll
 0001:00032a69       GetCurrentProcessId        0000000180033a69 f   kernel32:KERNEL32.dll
 0001:00032a6f       LocalFree                  0000000180033a6f f   kernel32:KERNEL32.dll
 0001:00032a75       FormatMessageW             0000000180033a75 f   kernel32:KERNEL32.dll
 0001:00032a7b       GetActiveWindow            0000000180033a7b f   user32:USER32.dll
 0001:00032a81       MessageBoxW                0000000180033a81 f   user32:USER32.dll
 0001:00032a87       UnregisterClassW           0000000180033a87 f   user32:USER32.dll
 0001:00032a8d       PostMessageW               0000000180033a8d f   user32:USER32.dll
 0001:00032a93       DefWindowProcW             0000000180033a93 f   user32:USER32.dll
 0001:00032a99       CallWindowProcW            0000000180033a99 f   user32:USER32.dll
 0001:00032a9f       RegisterClassExW           0000000180033a9f f   user32:USER32.dll
 0001:00032aa5       GetClassInfoExW            0000000180033aa5 f   user32:USER32.dll
 0001:00032aab       CreateWindowExW            0000000180033aab f   user32:USER32.dll
 0001:00032ab1       IsWindow                   0000000180033ab1 f   user32:USER32.dll
 0001:00032ab7       IsChild                    0000000180033ab7 f   user32:USER32.dll
 0001:00032abd       DestroyWindow              0000000180033abd f   user32:USER32.dll
 0001:00032ac3       ShowWindow                 0000000180033ac3 f   user32:USER32.dll
 0001:00032ac9       SetWindowPos               0000000180033ac9 f   user32:USER32.dll
 0001:00032acf       CharNextW                  0000000180033acf f   user32:USER32.dll
 0001:00032ad5       SetFocus                   0000000180033ad5 f   user32:USER32.dll
 0001:00032adb       GetFocus                   0000000180033adb f   user32:USER32.dll
 0001:00032ae1       GetKeyState                0000000180033ae1 f   user32:USER32.dll
 0001:00032ae7       GetDC                      0000000180033ae7 f   user32:USER32.dll
 0001:00032aed       ReleaseDC                  0000000180033aed f   user32:USER32.dll
 0001:00032af3       BeginPaint                 0000000180033af3 f   user32:USER32.dll
 0001:00032af9       EndPaint                   0000000180033af9 f   user32:USER32.dll
 0001:00032aff       SetWindowRgn               0000000180033aff f   user32:USER32.dll
 0001:00032b05       InvalidateRect             0000000180033b05 f   user32:USER32.dll
 0001:00032b0b       GetClientRect              0000000180033b0b f   user32:USER32.dll
 0001:00032b11       IntersectRect              0000000180033b11 f   user32:USER32.dll
 0001:00032b17       UnionRect                  0000000180033b17 f   user32:USER32.dll
 0001:00032b1d       OffsetRect                 0000000180033b1d f   user32:USER32.dll
 0001:00032b23       EqualRect                  0000000180033b23 f   user32:USER32.dll
 0001:00032b29       PtInRect                   0000000180033b29 f   user32:USER32.dll
 0001:00032b2f       GetWindowLongPtrW          0000000180033b2f f   user32:USER32.dll
 0001:00032b35       SetWindowLongPtrW          0000000180033b35 f   user32:USER32.dll
 0001:00032b3b       GetParent                  0000000180033b3b f   user32:USER32.dll
 0001:00032b41       LoadCursorW                0000000180033b41 f   user32:USER32.dll
 0001:00032b47       PeekMessageW               0000000180033b47 f   user32:USER32.dll
 0001:00032b4d       RegisterClassW             0000000180033b4d f   user32:USER32.dll
 0001:00032b53       LoadBitmapW                0000000180033b53 f   user32:USER32.dll
 0001:00032b59       CloseMetaFile              0000000180033b59 f   gdi32:GDI32.dll
 0001:00032b5f       CreateDCW                  0000000180033b5f f   gdi32:GDI32.dll
 0001:00032b65       CreateMetaFileW            0000000180033b65 f   gdi32:GDI32.dll
 0001:00032b6b       CreateRectRgnIndirect      0000000180033b6b f   gdi32:GDI32.dll
 0001:00032b71       DeleteDC                   0000000180033b71 f   gdi32:GDI32.dll
 0001:00032b77       DeleteMetaFile             0000000180033b77 f   gdi32:GDI32.dll
 0001:00032b7d       GetDeviceCaps              0000000180033b7d f   gdi32:GDI32.dll
 0001:00032b83       RestoreDC                  0000000180033b83 f   gdi32:GDI32.dll
 0001:00032b89       SaveDC                     0000000180033b89 f   gdi32:GDI32.dll
 0001:00032b8f       SetMapMode                 0000000180033b8f f   gdi32:GDI32.dll
 0001:00032b95       LPtoDP                     0000000180033b95 f   gdi32:GDI32.dll
 0001:00032b9b       SetViewportOrgEx           0000000180033b9b f   gdi32:GDI32.dll
 0001:00032ba1       SetWindowExtEx             0000000180033ba1 f   gdi32:GDI32.dll
 0001:00032ba7       SetWindowOrgEx             0000000180033ba7 f   gdi32:GDI32.dll
 0001:00032bad       BitBlt                     0000000180033bad f   gdi32:GDI32.dll
 0001:00032bb3       CreateCompatibleDC         0000000180033bb3 f   gdi32:GDI32.dll
 0001:00032bb9       DeleteObject               0000000180033bb9 f   gdi32:GDI32.dll
 0001:00032bbf       SelectObject               0000000180033bbf f   gdi32:GDI32.dll
 0001:00032bc5       GetObjectW                 0000000180033bc5 f   gdi32:GDI32.dll
 0001:00032bcb       RegCloseKey                0000000180033bcb f   advapi32:ADVAPI32.dll
 0001:00032bd1       RegCreateKeyExW            0000000180033bd1 f   advapi32:ADVAPI32.dll
 0001:00032bd7       RegDeleteKeyW              0000000180033bd7 f   advapi32:ADVAPI32.dll
 0001:00032bdd       RegDeleteValueW            0000000180033bdd f   advapi32:ADVAPI32.dll
 0001:00032be3       RegEnumKeyExW              0000000180033be3 f   advapi32:ADVAPI32.dll
 0001:00032be9       RegOpenKeyExW              0000000180033be9 f   advapi32:ADVAPI32.dll
 0001:00032bef       RegQueryInfoKeyW           0000000180033bef f   advapi32:ADVAPI32.dll
 0001:00032bf5       RegSetValueExW             0000000180033bf5 f   advapi32:ADVAPI32.dll
 0001:00032bfb       RegQueryValueExW           0000000180033bfb f   advapi32:ADVAPI32.dll
 0001:00032c01       CoCreateInstance           0000000180033c01 f   ole32:ole32.dll
 0001:00032c07       StringFromGUID2            0000000180033c07 f   ole32:ole32.dll
 0001:00032c0d       CoTaskMemAlloc             0000000180033c0d f   ole32:ole32.dll
 0001:00032c13       CoTaskMemRealloc           0000000180033c13 f   ole32:ole32.dll
 0001:00032c19       CoTaskMemFree              0000000180033c19 f   ole32:ole32.dll
 0001:00032c1f       ReadClassStm               0000000180033c1f f   ole32:ole32.dll
 0001:00032c25       WriteClassStm              0000000180033c25 f   ole32:ole32.dll
 0001:00032c2b       CreateDataAdviseHolder     0000000180033c2b f   ole32:ole32.dll
 0001:00032c31       OleSaveToStream            0000000180033c31 f   ole32:ole32.dll
 0001:00032c37       CreateOleAdviseHolder      0000000180033c37 f   ole32:ole32.dll
 0001:00032c3d       OleRegGetUserType          0000000180033c3d f   ole32:ole32.dll
 0001:00032c43       OleRegGetMiscStatus        0000000180033c43 f   ole32:ole32.dll
 0001:00032c49       OleRegEnumVerbs            0000000180033c49 f   ole32:ole32.dll
 0001:00032c4f       CLSIDFromProgID            0000000180033c4f f   ole32:ole32.dll
 0001:00032c55       SysAllocString             0000000180033c55 f   oleaut32:OLEAUT32.dll
 0001:00032c5b       SysAllocStringLen          0000000180033c5b f   oleaut32:OLEAUT32.dll
 0001:00032c61       SysFreeString              0000000180033c61 f   oleaut32:OLEAUT32.dll
 0001:00032c67       SysStringLen               0000000180033c67 f   oleaut32:OLEAUT32.dll
 0001:00032c6d       VariantClear               0000000180033c6d f   oleaut32:OLEAUT32.dll
 0001:00032c73       VariantCopyInd             0000000180033c73 f   oleaut32:OLEAUT32.dll
 0001:00032c79       VariantChangeType          0000000180033c79 f   oleaut32:OLEAUT32.dll
 0001:00032c7f       SysStringByteLen           0000000180033c7f f   oleaut32:OLEAUT32.dll
 0001:00032c85       SysAllocStringByteLen      0000000180033c85 f   oleaut32:OLEAUT32.dll
 0001:00032c8b       VariantInit                0000000180033c8b f   oleaut32:OLEAUT32.dll
 0001:00032c91       VarUI4FromStr              0000000180033c91 f   oleaut32:OLEAUT32.dll
 0001:00032c97       LoadTypeLib                0000000180033c97 f   oleaut32:OLEAUT32.dll
 0001:00032c9d       LoadRegTypeLib             0000000180033c9d f   oleaut32:OLEAUT32.dll
 0001:00032ca3       RegisterTypeLib            0000000180033ca3 f   oleaut32:OLEAUT32.dll
 0001:00032ca9       UnRegisterTypeLib          0000000180033ca9 f   oleaut32:OLEAUT32.dll
 0001:00032caf       OleCreatePropertyFrame     0000000180033caf f   oleaut32:OLEAUT32.dll
 0001:00032cc0       _RTC_AllocaHelper          0000000180033cc0 f   LIBCMTD:stack.obj
 0001:00032d00       _RTC_CheckStackVars        0000000180033d00 f   LIBCMTD:stack.obj
 0001:00032d90       _RTC_CheckStackVars2       0000000180033d90 f   LIBCMTD:stack.obj
 0001:00032ea0       _CRT_RTC_INIT              0000000180033ea0 f   LIBCMTD:init.obj
 0001:00032eb0       _CRT_RTC_INITW             0000000180033eb0 f   LIBCMTD:init.obj
 0001:00032ec0       _RTC_InitBase              0000000180033ec0 f   LIBCMTD:init.obj
 0001:00032f00       _RTC_Shutdown              0000000180033f00 f   LIBCMTD:init.obj
 0001:00032f30       __GSHandlerCheck           0000000180033f30 f   LIBCMTD:gshandler.obj
 0001:00032f70       __GSHandlerCheckCommon     0000000180033f70 f   LIBCMTD:gshandler.obj
 0001:00033080       __security_check_cookie    0000000180034080 f   LIBCMTD:amdsecgs.obj
 0001:000330b0       ??_U@YAPEAX_K@Z            00000001800340b0 f   LIBCMTD:new_array.obj
 0001:000330d0       ??3@YAXPEAX_K@Z            00000001800340d0 f   LIBCMTD:delete_scalar_size.obj
 0001:000330f0       ??_V@YAXPEAX@Z             00000001800340f0 f   LIBCMTD:delete_array.obj
 0001:00033110       ??_V@YAXPEAX_K@Z           0000000180034110 f   LIBCMTD:delete_array_size.obj
 0001:00033130       ?configure_argv@__scrt_narrow_argv_policy@@SAHXZ 0000000180034130 f i LIBCMTD:utility.obj
 0001:00033220       ?initialize_environment@__scrt_narrow_environment_policy@@SAHXZ 0000000180034220 f i LIBCMTD:utility.obj
 0001:000332c0       NtCurrentTeb               00000001800342c0 f i LIBCMTD:utility.obj
 0001:000332d0       __scrt_acquire_startup_lock 00000001800342d0 f   LIBCMTD:utility.obj
 0001:00033340       __scrt_dllmain_after_initialize_c 0000000180034340 f   LIBCMTD:utility.obj
 0001:00033370       __scrt_dllmain_before_initialize_c 0000000180034370 f   LIBCMTD:utility.obj
 0001:00033390       __scrt_dllmain_crt_thread_attach 0000000180034390 f   LIBCMTD:utility.obj
 0001:000333c0       __scrt_dllmain_crt_thread_detach 00000001800343c0 f   LIBCMTD:utility.obj
 0001:000333e0       __scrt_dllmain_exception_filter 00000001800343e0 f   LIBCMTD:utility.obj
 0001:00033450       __scrt_dllmain_uninitialize_c 0000000180034450 f   LIBCMTD:utility.obj
 0001:00033480       __scrt_dllmain_uninitialize_critical 0000000180034480 f   LIBCMTD:utility.obj
 0001:000334a0       __scrt_initialize_crt      00000001800344a0 f   LIBCMTD:utility.obj
 0001:000334f0       __scrt_initialize_onexit_tables 00000001800344f0 f   LIBCMTD:utility.obj
 0001:00033600       __scrt_is_nonwritable_in_current_image 0000000180034600 f   LIBCMTD:utility.obj
 0001:00033690       __scrt_release_startup_lock 0000000180034690 f   LIBCMTD:utility.obj
 0001:000336c0       __scrt_uninitialize_crt    00000001800346c0 f   LIBCMTD:utility.obj
 0001:00033700       _onexit                    0000000180034700 f   LIBCMTD:utility.obj
 0001:00033780       at_quick_exit              0000000180034780 f   LIBCMTD:utility.obj
 0001:000337d0       atexit                     00000001800347d0 f   LIBCMTD:utility.obj
 0001:00033810       ??3@YAXPEAX@Z              0000000180034810 f   LIBCMTD:delete_scalar.obj
 0001:00033830       __raise_securityfailure    0000000180034830 f   LIBCMTD:gs_report.obj
 0001:00033870       __report_gsfailure         0000000180034870 f   LIBCMTD:gs_report.obj
 0001:00033950       __report_rangecheckfailure 0000000180034950 f   LIBCMTD:gs_report.obj
 0001:00033970       __report_securityfailure   0000000180034970 f   LIBCMTD:gs_report.obj
 0001:00033a10       __report_securityfailureEx 0000000180034a10 f   LIBCMTD:gs_report.obj
 0001:00033dd0       _Init_thread_abort         0000000180034dd0 f   LIBCMTD:thread_safe_statics.obj
 0001:00033e00       _Init_thread_footer        0000000180034e00 f   LIBCMTD:thread_safe_statics.obj
 0001:00033e60       _Init_thread_header        0000000180034e60 f   LIBCMTD:thread_safe_statics.obj
 0001:00033ef0       _Init_thread_lock          0000000180034ef0 f   LIBCMTD:thread_safe_statics.obj
 0001:00033f10       _Init_thread_notify        0000000180034f10 f   LIBCMTD:thread_safe_statics.obj
 0001:00033f70       _Init_thread_unlock        0000000180034f70 f   LIBCMTD:thread_safe_statics.obj
 0001:00033f90       _Init_thread_wait          0000000180034f90 f   LIBCMTD:thread_safe_statics.obj
 0001:00034040       ??2@YAPEAX_KAEBUnothrow_t@std@@@Z 0000000180035040 f   LIBCMTD:new_scalar_nothrow.obj
 0001:00034080       ??_U@YAPEAX_KAEBUnothrow_t@std@@@Z 0000000180035080 f   LIBCMTD:new_array_nothrow.obj
 0001:000340b0       __GSHandlerCheck_SEH       00000001800350b0 f   LIBCMTD:gshandlerseh.obj
 0001:00034180       __chkstk                   0000000180035180 f   LIBCMTD:chkstk.obj
 0001:00034180       _alloca_probe              0000000180035180 f   LIBCMTD:chkstk.obj
 0001:000345f0       _CRT_INIT                  00000001800355f0 f   LIBCMTD:dll_dllmain.obj
 0001:00034620       _DllMainCRTStartup         0000000180035620 f   LIBCMTD:dll_dllmain.obj
 0001:000346f0       ?_RTC_AllocaFailure@@YAXPEAXPEAU_RTC_ALLOCA_NODE@@H@Z 00000001800356f0 f   LIBCMTD:error.obj
 0001:00034850       ?_RTC_Failure@@YAXPEAXH@Z  0000000180035850 f   LIBCMTD:error.obj
 0001:000348a0       ?_RTC_StackFailure@@YAXPEAXPEBD@Z 00000001800358a0 f   LIBCMTD:error.obj
 0001:00034cd0       _RTC_UninitUse             0000000180035cd0 f   LIBCMTD:error.obj
 0001:00034da0       _vsprintf_s_l              0000000180035da0 f i LIBCMTD:error.obj
 0001:00034e10       sprintf_s                  0000000180035e10 f i LIBCMTD:error.obj
 0001:00034e40       ?_RTC_GetErrorFunc@@YAP6AHHPEBDH00ZZPEBX@Z 0000000180035e40 f   LIBCMTD:userapi.obj
 0001:00034e50       ?_RTC_GetErrorFuncW@@YAP6AHHPEB_WH00ZZPEBX@Z 0000000180035e50 f   LIBCMTD:userapi.obj
 0001:00034e60       _RTC_GetErrDesc            0000000180035e60 f   LIBCMTD:userapi.obj
 0001:00034e80       _RTC_NumErrors             0000000180035e80 f   LIBCMTD:userapi.obj
 0001:00034e90       _RTC_SetErrorFunc          0000000180035e90 f   LIBCMTD:userapi.obj
 0001:00034eb0       _RTC_SetErrorFuncW         0000000180035eb0 f   LIBCMTD:userapi.obj
 0001:00034ed0       _RTC_SetErrorType          0000000180035ed0 f   LIBCMTD:userapi.obj
 0001:00034ef0       ??2@YAPEAX_K@Z             0000000180035ef0 f   LIBCMTD:new_scalar.obj
 0001:00034f40       __isa_available_init       0000000180035f40 f   LIBCMTD:cpu_disp.obj
 0001:000352e0       _get_startup_argv_mode     00000001800362e0 f   LIBCMTD:argv_mode.obj
 0001:000352f0       __scrt_is_ucrt_dll_in_use  00000001800362f0 f   LIBCMTD:ucrt_detection.obj
 0001:00035320       __crt_debugger_hook        0000000180036320 f   LIBCMTD:utility_desktop.obj
 0001:00035330       __scrt_fastfail            0000000180036330 f   LIBCMTD:utility_desktop.obj
 0001:000354d0       __scrt_get_show_window_mode 00000001800364d0 f   LIBCMTD:utility_desktop.obj
 0001:00035530       __scrt_initialize_mta      0000000180036530 f   LIBCMTD:utility_desktop.obj
 0001:00035540       __scrt_initialize_winrt    0000000180036540 f   LIBCMTD:utility_desktop.obj
 0001:00035550       __scrt_is_managed_app      0000000180036550 f   LIBCMTD:utility_desktop.obj
 0001:00035600       __scrt_set_unhandled_exception_filter 0000000180036600 f   LIBCMTD:utility_desktop.obj
 0001:00035620       __scrt_exe_initialize_mta  0000000180036620 f   LIBCMTD:utility_desktop.obj
 0001:00035620       __scrt_stub_for_initialize_mta 0000000180036620 f   LIBCMTD:utility_desktop.obj
 0001:00035630       __scrt_unhandled_exception_filter 0000000180036630 f   LIBCMTD:utility_desktop.obj
 0001:000356d0       _guard_check_icall_nop     00000001800366d0 f i LIBCMTD:guard_support.obj
 0001:000356e0       ReadNoFence64              00000001800366e0 f i LIBCMTD:guard_support.obj
 0001:00035700       ReadPointerNoFence         0000000180036700 f i LIBCMTD:guard_support.obj
 0001:00035720       _guard_icall_checks_enforced 0000000180036720 f i LIBCMTD:guard_support.obj
 0001:00035760       _guard_rf_checks_enforced  0000000180036760 f i LIBCMTD:guard_support.obj
 0001:00035830       __security_init_cookie     0000000180036830 f   LIBCMTD:gs_support.obj
 0001:000358b0       ?__scrt_initialize_type_info@@YAXXZ 00000001800368b0 f   LIBCMTD:tncleanup.obj
 0001:000358d0       ?__scrt_uninitialize_type_info@@YAXXZ 00000001800368d0 f   LIBCMTD:tncleanup.obj
 0001:000358f0       __local_stdio_scanf_options 00000001800368f0 f i LIBCMTD:default_local_stdio_options.obj
 0001:00035900       __scrt_initialize_default_local_stdio_options 0000000180036900 f   LIBCMTD:default_local_stdio_options.obj
 0001:00035950       __scrt_get_dyn_tls_init_callback 0000000180036950 f   LIBCMTD:dyn_tls_init.obj
 0001:00035960       _RTC_Initialize            0000000180036960 f   LIBCMTD:initsect.obj
 0001:000359b0       _RTC_Terminate             00000001800369b0 f   LIBCMTD:initsect.obj
 0001:00035f10       ?_RTC_GetSrcLine@@YAHPEAEPEA_WKPEAH1K@Z 0000000180036f10 f   LIBCMTD:pdblkup.obj
 0001:000362e0       ??0bad_alloc@std@@AEAA@QEBD@Z 00000001800372e0 f i LIBCMTD:throw_bad_alloc.obj
 0001:00036320       ??0bad_alloc@std@@QEAA@AEBV01@@Z 0000000180037320 f i LIBCMTD:throw_bad_alloc.obj
 0001:00036360       ??0bad_alloc@std@@QEAA@XZ  0000000180037360 f i LIBCMTD:throw_bad_alloc.obj
 0001:000363a0       ??0bad_array_new_length@std@@QEAA@AEBV01@@Z 00000001800373a0 f i LIBCMTD:throw_bad_alloc.obj
 0001:000363e0       ??0bad_array_new_length@std@@QEAA@XZ 00000001800373e0 f i LIBCMTD:throw_bad_alloc.obj
 0001:00036420       ??0exception@std@@QEAA@AEBV01@@Z 0000000180037420 f i LIBCMTD:throw_bad_alloc.obj
 0001:00036480       ??0exception@std@@QEAA@QEBDH@Z 0000000180037480 f i LIBCMTD:throw_bad_alloc.obj
 0001:000364d0       ??1bad_alloc@std@@UEAA@XZ  00000001800374d0 f i LIBCMTD:throw_bad_alloc.obj
 0001:000364f0       ??1bad_array_new_length@std@@UEAA@XZ 00000001800374f0 f i LIBCMTD:throw_bad_alloc.obj
 0001:00036510       ??1exception@std@@UEAA@XZ  0000000180037510 f i LIBCMTD:throw_bad_alloc.obj
 0001:00036540       ??_Ebad_alloc@std@@UEAAPEAXI@Z 0000000180037540 f i LIBCMTD:throw_bad_alloc.obj
 0001:00036540       ??_Gbad_alloc@std@@UEAAPEAXI@Z 0000000180037540 f i LIBCMTD:throw_bad_alloc.obj
 0001:00036580       ??_Gbad_array_new_length@std@@UEAAPEAXI@Z 0000000180037580 f i LIBCMTD:throw_bad_alloc.obj
 0001:00036580       ??_Ebad_array_new_length@std@@UEAAPEAXI@Z 0000000180037580 f i LIBCMTD:throw_bad_alloc.obj
 0001:000365c0       ??_Eexception@std@@UEAAPEAXI@Z 00000001800375c0 f i LIBCMTD:throw_bad_alloc.obj
 0001:000365c0       ??_Gexception@std@@UEAAPEAXI@Z 00000001800375c0 f i LIBCMTD:throw_bad_alloc.obj
 0001:00036600       ?__scrt_throw_std_bad_alloc@@YAXXZ 0000000180037600 f   LIBCMTD:throw_bad_alloc.obj
 0001:00036630       ?__scrt_throw_std_bad_array_new_length@@YAXXZ 0000000180037630 f   LIBCMTD:throw_bad_alloc.obj
 0001:00036660       ?what@exception@std@@UEBAPEBDXZ 0000000180037660 f i LIBCMTD:throw_bad_alloc.obj
 0001:000366a0       ??1type_info@@UEAA@XZ      00000001800376a0 f   LIBCMTD:std_type_info_static.obj
 0001:000366c0       ??_Etype_info@@UEAAPEAXI@Z 00000001800376c0 f i LIBCMTD:std_type_info_static.obj
 0001:000366c0       ??_Gtype_info@@UEAAPEAXI@Z 00000001800376c0 f i LIBCMTD:std_type_info_static.obj
 0001:000366fc       ??$?2PEAUHINSTANCE__@@@Wrapper@?$CSimpleArray@PEAUHINSTANCE__@@V?$CSimpleArrayEqualHelper@PEAUHINSTANCE__@@@ATL@@@ATL@@SAPEAX_KPEAPEAUHINSTANCE__@@@Z 00000001800376fc f i atls:atlbase.obj
 0001:00036700       ??0?$CSimpleArray@PEAUHINSTANCE__@@V?$CSimpleArrayEqualHelper@PEAUHINSTANCE__@@@ATL@@@ATL@@QEAA@XZ 0000000180037700 f i atls:atlbase.obj
 0001:00036710       ??0CAtlBaseModule@ATL@@QEAA@XZ 0000000180037710 f   atls:atlbase.obj
 0001:000367b8       ??0Wrapper@?$CSimpleArray@PEAUHINSTANCE__@@V?$CSimpleArrayEqualHelper@PEAUHINSTANCE__@@@ATL@@@ATL@@QEAA@AEBQEAUHINSTANCE__@@@Z 00000001800377b8 f i atls:atlbase.obj
 0001:000367c4       ??0_ATL_BASE_MODULE70@ATL@@QEAA@XZ 00000001800377c4 f i atls:atlbase.obj
 0001:000367f0       ??1?$CSimpleArray@PEAUHINSTANCE__@@V?$CSimpleArrayEqualHelper@PEAUHINSTANCE__@@@ATL@@@ATL@@QEAA@XZ 00000001800377f0 f i atls:atlbase.obj
 0001:00036818       ??1CAtlBaseModule@ATL@@QEAA@XZ 0000000180037818 f   atls:atlbase.obj
 0001:0003684c       ??1_ATL_BASE_MODULE70@ATL@@QEAA@XZ 000000018003784c f i atls:atlbase.obj
 0001:00036878       ??A?$CSimpleArray@PEAUHINSTANCE__@@V?$CSimpleArrayEqualHelper@PEAUHINSTANCE__@@@ATL@@@ATL@@QEAAAEAPEAUHINSTANCE__@@H@Z 0000000180037878 f i atls:atlbase.obj
 0001:000368a4       ?Add@?$CSimpleArray@PEAUHINSTANCE__@@V?$CSimpleArrayEqualHelper@PEAUHINSTANCE__@@@ATL@@@ATL@@QEAAHAEBQEAUHINSTANCE__@@@Z 00000001800378a4 f i atls:atlbase.obj
 0001:00036958       ?AddResourceInstance@CAtlBaseModule@ATL@@QEAA_NPEAUHINSTANCE__@@@Z 0000000180037958 f   atls:atlbase.obj
 0001:000369a0       ?GetHInstanceAt@CAtlBaseModule@ATL@@QEAAPEAUHINSTANCE__@@H@Z 00000001800379a0 f   atls:atlbase.obj
 0001:00036a18       ?GetSize@?$CSimpleArray@PEAUHINSTANCE__@@V?$CSimpleArrayEqualHelper@PEAUHINSTANCE__@@@ATL@@@ATL@@QEBAHXZ 0000000180037a18 f i atls:atlbase.obj
 0001:00036a1c       ?InternalSetAtIndex@?$CSimpleArray@PEAUHINSTANCE__@@V?$CSimpleArrayEqualHelper@PEAUHINSTANCE__@@@ATL@@@ATL@@QEAAXHAEBQEAUHINSTANCE__@@@Z 0000000180037a1c f i atls:atlbase.obj
 0001:00036a34       ?RemoveAll@?$CSimpleArray@PEAUHINSTANCE__@@V?$CSimpleArrayEqualHelper@PEAUHINSTANCE__@@@ATL@@@ATL@@QEAAXXZ 0000000180037a34 f i atls:atlbase.obj
 0001:00036a5c       ?RemoveAt@?$CSimpleArray@PEAUHINSTANCE__@@V?$CSimpleArrayEqualHelper@PEAUHINSTANCE__@@@ATL@@@ATL@@QEAAHH@Z 0000000180037a5c f i atls:atlbase.obj
 0001:00036b00       ?RemoveResourceInstance@CAtlBaseModule@ATL@@QEAA_NPEAUHINSTANCE__@@@Z 0000000180037b00 f   atls:atlbase.obj
 0001:00036b80       ?memmove_s@Checked@ATL@@YAXPEAX_KPEBX1@Z 0000000180037b80 f i atls:atlbase.obj
 0001:00037028       ?GetCodeAddress@_stdcallthunk@ATL@@QEAAPEAXXZ 0000000180038028 f i atls:atlthunk.obj
 0001:00037054       ?Init@_stdcallthunk@ATL@@QEAAH_KPEAX@Z 0000000180038054 f i atls:atlthunk.obj
 0001:000370a4       ?__AllocStdCallThunk@@YAPEAXXZ 00000001800380a4 f   atls:atlthunk.obj
 0001:000370ac       ?__AllocStdCallThunk@ATL@@YAPEAXXZ 00000001800380ac f   atls:atlthunk.obj
 0001:000370b4       ?__AllocStdCallThunk_cmn@@YAPEAXXZ 00000001800380b4 f   atls:atlthunk.obj
 0001:0003718c       ?__FreeStdCallThunk@@YAXPEAX@Z 000000018003818c f   atls:atlthunk.obj
 0001:000371ac       ?__FreeStdCallThunk@ATL@@YAXPEAX@Z 00000001800381ac f   atls:atlthunk.obj
 0001:000371cc       ?__FreeStdCallThunk_cmn@@YAXPEAX@Z 00000001800381cc f   atls:atlthunk.obj
 0001:0003726c       AtlThunk_AllocateData      000000018003826c f   atls:atlthunk.obj
 0001:000372e8       AtlThunk_DataToCode        00000001800382e8 f   atls:atlthunk.obj
 0001:0003733c       AtlThunk_FreeData          000000018003833c f   atls:atlthunk.obj
 0001:0003739c       AtlThunk_InitData          000000018003839c f   atls:atlthunk.obj
 0001:00037460       memset_repmovs             0000000180038460 f   libvcruntimed:memset.obj
 0001:00037480       memset                     0000000180038480 f   libvcruntimed:memset.obj
 0001:00037610       ??$__crt_interlocked_exchange_pointer@$$A6AXXZP6AXXZ@@YAP6AXXZPEDS6AXXZQ6AXXZ@Z 0000000180038610 f i libvcruntimed:purevirt.obj
 0001:00037630       ??$__crt_interlocked_read_pointer@$$A6AXXZ@@YAP6AXXZPEDS6AXXZ@Z 0000000180038630 f i libvcruntimed:purevirt.obj
 0001:00037650       ?__crt_interlocked_read_64@@YA_JPED_J@Z 0000000180038650 f i libvcruntimed:purevirt.obj
 0001:00037670       _get_purecall_handler      0000000180038670 f   libvcruntimed:purevirt.obj
 0001:00037690       _purecall                  0000000180038690 f   libvcruntimed:purevirt.obj
 0001:000376d0       _set_purecall_handler      00000001800386d0 f   libvcruntimed:purevirt.obj
 0001:00037700       memcmp                     0000000180038700 f   libvcruntimed:memcmp.obj
 0001:000377e0       memcpy_repmovs             00000001800387e0 f   libvcruntimed:memcpy.obj
 0001:00037800       memcpy                     0000000180038800 f   libvcruntimed:memcpy.obj
 0001:00037800       memmove                    0000000180038800 f   libvcruntimed:memcpy.obj
 0001:00037be0       wcsstr                     0000000180038be0 f   libvcruntimed:wcsstr.obj
 0001:00038240       __vcrt_initialize          0000000180039240 f   libvcruntimed:initialization.obj
 0001:00038280       __vcrt_thread_attach       0000000180039280 f   libvcruntimed:initialization.obj
 0001:000382a0       __vcrt_thread_detach       00000001800392a0 f   libvcruntimed:initialization.obj
 0001:000382c0       __vcrt_uninitialize        00000001800392c0 f   libvcruntimed:initialization.obj
 0001:000382e0       __vcrt_uninitialize_critical 00000001800392e0 f   libvcruntimed:initialization.obj
 0001:00038300       __C_specific_handler       0000000180039300 f   libvcruntimed:riscchandler.obj
 0001:00038770       ??$?0AEAViterator@TryBlockMap4@FH4@@AEAV012@$0A@@?$pair@Viterator@TryBlockMap4@FH4@@V123@@std@@QEAA@AEAViterator@TryBlockMap4@FH4@@0@Z 0000000180039770 f i libvcruntimed:risctrnsctrl.obj
 0001:000387d0       ??$?0AEAViterator@TryBlockMap@__FrameHandler3@@AEAV012@$0A@@?$pair@Viterator@TryBlockMap@__FrameHandler3@@V123@@std@@QEAA@AEAViterator@TryBlockMap@__FrameHandler3@@0@Z 00000001800397d0 f i libvcruntimed:risctrnsctrl.obj
 0001:000389a0       ??$_CallSETranslator@V__FrameHandler3@@@@YAHPEAUEHExceptionRecord@@PEA_KPEAU_CONTEXT@@PEAU_xDISPATCHER_CONTEXT@@PEBU_s_FuncInfo@@K1H@Z 00000001800399a0 f i libvcruntimed:risctrnsctrl.obj
 0001:00038a30       ??$_CallSETranslator@V__FrameHandler4@@@@YAHPEAUEHExceptionRecord@@PEA_KPEAU_CONTEXT@@PEAU_xDISPATCHER_CONTEXT@@PEAUFuncInfo4@FH4@@K1H@Z 0000000180039a30 f i libvcruntimed:risctrnsctrl.obj
 0001:00038ac0       ??$forward@AEAViterator@TryBlockMap4@FH4@@@std@@YAAEAViterator@TryBlockMap4@FH4@@AEAV123@@Z 0000000180039ac0 f i libvcruntimed:risctrnsctrl.obj
 0001:00038ad0       ??$forward@AEAViterator@TryBlockMap@__FrameHandler3@@@std@@YAAEAViterator@TryBlockMap@__FrameHandler3@@AEAV123@@Z 0000000180039ad0 f i libvcruntimed:risctrnsctrl.obj
 0001:00038ae0       ??0FuncInfo4@FH4@@QEAA@XZ  0000000180039ae0 f i libvcruntimed:risctrnsctrl.obj
 0001:00038b50       ??0FuncInfoHeader@FH4@@QEAA@XZ 0000000180039b50 f i libvcruntimed:risctrnsctrl.obj
 0001:00038b70       ??0iterator@TryBlockMap4@FH4@@QEAA@AEAV12@I@Z 0000000180039b70 f i libvcruntimed:risctrnsctrl.obj
 0001:00038ba0       ??0iterator@TryBlockMap@__FrameHandler3@@QEAA@AEAV12@I@Z 0000000180039ba0 f i libvcruntimed:risctrnsctrl.obj
 0001:00038bd0       ??4iterator@TryBlockMap4@FH4@@QEAAAEAV012@AEBV012@@Z 0000000180039bd0 f i libvcruntimed:risctrnsctrl.obj
 0001:00038bf0       ??9iterator@TryBlockMap4@FH4@@QEBA_NAEBV012@@Z 0000000180039bf0 f i libvcruntimed:risctrnsctrl.obj
 0001:00038c30       ??Diterator@TryBlockMap4@FH4@@QEAA?AUTryBlockMapEntry4@2@XZ 0000000180039c30 f i libvcruntimed:risctrnsctrl.obj
 0001:00038c60       ??Eiterator@TryBlockMap4@FH4@@QEAAAEAV012@XZ 0000000180039c60 f i libvcruntimed:risctrnsctrl.obj
 0001:00038ca0       ?CatchTryBlock@__FrameHandler3@@SAPEBU_s_TryBlockMapEntry@@PEBU_s_FuncInfo@@H@Z 0000000180039ca0 f   libvcruntimed:risctrnsctrl.obj
 0001:00038d30       ?DecompFuncInfo@FH4@@YA_JPEAEAEAUFuncInfo4@1@_KH@Z 0000000180039d30 f i libvcruntimed:risctrnsctrl.obj
 0001:00038d70       ?DecompFuncInfo@FH4@@YA_JPEAEAEAUFuncInfo4@1@_KH_N@Z 0000000180039d70 f i libvcruntimed:risctrnsctrl.obj
 0001:00038f40       ?DecompTryBlock@TryBlockMap4@FH4@@AEAAXXZ 0000000180039f40 f i libvcruntimed:risctrnsctrl.obj
 0001:00038fc0       ?ExecutionInCatch@__FrameHandler3@@SA_NPEAU_xDISPATCHER_CONTEXT@@PEBU_s_FuncInfo@@@Z 0000000180039fc0 f   libvcruntimed:risctrnsctrl.obj
 0001:00039010       ?ExecutionInCatch@__FrameHandler4@@SA_NPEAU_xDISPATCHER_CONTEXT@@PEAUFuncInfo4@FH4@@@Z 000000018003a010 f   libvcruntimed:risctrnsctrl.obj
 0001:00039030       ?FrameUnwindToEmptyState@__FrameHandler3@@SAXPEA_KPEAU_xDISPATCHER_CONTEXT@@PEBU_s_FuncInfo@@@Z 000000018003a030 f   libvcruntimed:risctrnsctrl.obj
 0001:000390d0       ?FrameUnwindToEmptyState@__FrameHandler4@@SAXPEA_KPEAU_xDISPATCHER_CONTEXT@@PEAUFuncInfo4@FH4@@@Z 000000018003a0d0 f   libvcruntimed:risctrnsctrl.obj
 0001:00039120       ?GetEstablisherFrame@__FrameHandler3@@SAPEA_KPEA_KPEAU_xDISPATCHER_CONTEXT@@PEBU_s_FuncInfo@@0@Z 000000018003a120 f   libvcruntimed:risctrnsctrl.obj
 0001:00039290       ?GetEstablisherFrame@__FrameHandler4@@SAPEA_KPEA_KPEAU_xDISPATCHER_CONTEXT@@PEAUFuncInfo4@FH4@@0@Z 000000018003a290 f   libvcruntimed:risctrnsctrl.obj
 0001:00039300       ?GetRangeOfTrysToCheck@__FrameHandler3@@SA?AU?$pair@Viterator@TryBlockMap@__FrameHandler3@@V123@@std@@AEAVTryBlockMap@1@HPEAU_xDISPATCHER_CONTEXT@@PEBU_s_FuncInfo@@H@Z 000000018003a300 f   libvcruntimed:risctrnsctrl.obj
 0001:00039540       ?GetRangeOfTrysToCheck@__FrameHandler4@@SA?AU?$pair@Viterator@TryBlockMap4@FH4@@V123@@std@@AEAVTryBlockMap4@FH4@@HPEAU_xDISPATCHER_CONTEXT@@PEAUFuncInfo4@5@H@Z 000000018003a540 f   libvcruntimed:risctrnsctrl.obj
 0001:000396f0       ?ReadInt@FH4@@YAHPEAPEAE@Z 000000018003a6f0 f i libvcruntimed:risctrnsctrl.obj
 0001:00039730       ?ReadUnsigned@FH4@@YAIPEAPEAE@Z 000000018003a730 f i libvcruntimed:risctrnsctrl.obj
 0001:000397c0       ?UnwindNestedFrames@__FrameHandler3@@SAXPEA_KPEAUEHExceptionRecord@@PEAU_CONTEXT@@0PEAXPEBU_s_FuncInfo@@HHPEBU_s_HandlerType@@PEAU_xDISPATCHER_CONTEXT@@E@Z 000000018003a7c0 f   libvcruntimed:risctrnsctrl.obj
 0001:00039930       ?UnwindNestedFrames@__FrameHandler4@@SAXPEA_KPEAUEHExceptionRecord@@PEAU_CONTEXT@@0PEAXPEAUFuncInfo4@FH4@@HHPEAUHandlerType4@5@PEAU_xDISPATCHER_CONTEXT@@E@Z 000000018003a930 f   libvcruntimed:risctrnsctrl.obj
 0001:00039b00       ?begin@TryBlockMap4@FH4@@QEAA?AViterator@12@XZ 000000018003ab00 f i libvcruntimed:risctrnsctrl.obj
 0001:00039b30       ?end@TryBlockMap4@FH4@@QEAA?AViterator@12@XZ 000000018003ab30 f i libvcruntimed:risctrnsctrl.obj
 0001:00039b60       ?imageRelToByteBuffer@FH4@@YAPEAE_KH@Z 000000018003ab60 f i libvcruntimed:risctrnsctrl.obj
 0001:00039b80       ?incrementToSentinel@iterator@TryBlockMap4@FH4@@QEAAXXZ 000000018003ab80 f i libvcruntimed:risctrnsctrl.obj
 0001:00039ba0       ?setBuffer@TryBlockMap4@FH4@@QEAAXViterator@12@@Z 000000018003aba0 f i libvcruntimed:risctrnsctrl.obj
 0001:00039c10       _CreateFrameInfo           000000018003ac10 f   libvcruntimed:risctrnsctrl.obj
 0001:00039c80       _FindAndUnlinkFrame        000000018003ac80 f   libvcruntimed:risctrnsctrl.obj
 0001:00039d00       _GetImageBase              000000018003ad00 f   libvcruntimed:risctrnsctrl.obj
 0001:00039d20       _GetThrowImageBase         000000018003ad20 f   libvcruntimed:risctrnsctrl.obj
 0001:00039d40       _SetImageBase              000000018003ad40 f   libvcruntimed:risctrnsctrl.obj
 0001:00039d60       _SetThrowImageBase         000000018003ad60 f   libvcruntimed:risctrnsctrl.obj
 0001:00039d80       __CxxFrameHandler          000000018003ad80 f   libvcruntimed:risctrnsctrl.obj
 0001:00039dc0       __CxxFrameHandler2         000000018003adc0 f   libvcruntimed:risctrnsctrl.obj
 0001:00039e00       __CxxFrameHandler3         000000018003ae00 f   libvcruntimed:risctrnsctrl.obj
 0001:00039ee0       __CxxFrameHandler4         000000018003aee0 f   libvcruntimed:risctrnsctrl.obj
 0001:00039ff0       __C_specific_handler_noexcept 000000018003aff0 f   libvcruntimed:chandler_noexcept.obj
 0001:0003a080       __DestructExceptionObject  000000018003b080 f   libvcruntimed:ehhelpers.obj
 0001:0003a180       ?_CallMemberFunction0@@YAXQEAX0@Z 000000018003b180 f i libvcruntimed:ehhelpers.obj
 0001:0003a250       ?raw_name@type_info@@QEBAPEBDXZ 000000018003b250 f i libvcruntimed:ehhelpers.obj
 0001:0003a260       _IsExceptionObjectToBeDestroyed 000000018003b260 f   libvcruntimed:ehhelpers.obj
 0001:0003a2b0       _SetWinRTOutOfMemoryExceptionCallback 000000018003b2b0 f   libvcruntimed:ehhelpers.obj
 0001:0003a2d0       __AdjustPointer            000000018003b2d0 f   libvcruntimed:ehhelpers.obj
 0001:0003a350       __FrameUnwindFilter        000000018003b350 f   libvcruntimed:ehhelpers.obj
 0001:0003a400       __GetPlatformExceptionInfo 000000018003b400 f   libvcruntimed:ehhelpers.obj
 0001:0003a4b0       __current_exception        000000018003b4b0 f   libvcruntimed:ehhelpers.obj
 0001:0003a4d0       __current_exception_context 000000018003b4d0 f   libvcruntimed:ehhelpers.obj
 0001:0003a4f0       __processing_throw         000000018003b4f0 f   libvcruntimed:ehhelpers.obj
 0001:0003a510       __std_terminate            000000018003b510 f   libvcruntimed:ehhelpers.obj
 0001:0003a520       _is_exception_typeof       000000018003b520 f   libvcruntimed:ehhelpers.obj
 0001:0003a6b0       ??$?RD@__crt_internal_free_policy@@QEBAXQEBD@Z 000000018003b6b0 f i libvcruntimed:std_type_info.obj
 0001:0003a6e0       ??$?RX@__crt_internal_free_policy@@QEBAXQEBX@Z 000000018003b6e0 f i libvcruntimed:std_type_info.obj
 0001:0003a710       ??$__crt_interlocked_compare_exchange_pointer@$$CBDPEAD$$T@@YAPEBDPEDSEBDQEAD$$T@Z 000000018003b710 f i libvcruntimed:std_type_info.obj
 0001:0003a750       ??$__crt_interlocked_read_pointer@$$CBD@@YAPEBDPEDSEBD@Z 000000018003b750 f i libvcruntimed:std_type_info.obj
 0001:0003a770       ??0?$__crt_unique_heap_ptr@DU__crt_internal_free_policy@@@@QEAA@QEAD@Z 000000018003b770 f i libvcruntimed:std_type_info.obj
 0001:0003a790       ??0?$__crt_unique_heap_ptr@XU__crt_internal_free_policy@@@@QEAA@QEAX@Z 000000018003b790 f i libvcruntimed:std_type_info.obj
 0001:0003a7b0       ??1?$__crt_unique_heap_ptr@DU__crt_internal_free_policy@@@@QEAA@XZ 000000018003b7b0 f i libvcruntimed:std_type_info.obj
 0001:0003a7d0       ??1?$__crt_unique_heap_ptr@XU__crt_internal_free_policy@@@@QEAA@XZ 000000018003b7d0 f i libvcruntimed:std_type_info.obj
 0001:0003a7f0       ??B?$__crt_unique_heap_ptr@DU__crt_internal_free_policy@@@@QEBA_NXZ 000000018003b7f0 f i libvcruntimed:std_type_info.obj
 0001:0003a810       ??B?$__crt_unique_heap_ptr@XU__crt_internal_free_policy@@@@QEBA_NXZ 000000018003b810 f i libvcruntimed:std_type_info.obj
 0001:0003a8b0       ?detach@?$__crt_unique_heap_ptr@XU__crt_internal_free_policy@@@@QEAAPEAXXZ 000000018003b8b0 f i libvcruntimed:std_type_info.obj
 0001:0003a8e0       ?get@?$__crt_unique_heap_ptr@DU__crt_internal_free_policy@@@@QEBAPEADXZ 000000018003b8e0 f i libvcruntimed:std_type_info.obj
 0001:0003a8f0       ?get@?$__crt_unique_heap_ptr@XU__crt_internal_free_policy@@@@QEBAPEAXXZ 000000018003b8f0 f i libvcruntimed:std_type_info.obj
 0001:0003a900       ?is_valid@?$__crt_unique_heap_ptr@DU__crt_internal_free_policy@@@@QEBA_NXZ 000000018003b900 f i libvcruntimed:std_type_info.obj
 0001:0003a930       ?is_valid@?$__crt_unique_heap_ptr@XU__crt_internal_free_policy@@@@QEBA_NXZ 000000018003b930 f i libvcruntimed:std_type_info.obj
 0001:0003a960       ?release@?$__crt_unique_heap_ptr@DU__crt_internal_free_policy@@@@QEAAXXZ 000000018003b960 f i libvcruntimed:std_type_info.obj
 0001:0003a990       ?release@?$__crt_unique_heap_ptr@XU__crt_internal_free_policy@@@@QEAAXXZ 000000018003b990 f i libvcruntimed:std_type_info.obj
 0001:0003a9c0       __std_type_info_compare    000000018003b9c0 f   libvcruntimed:std_type_info.obj
 0001:0003aa00       __std_type_info_destroy_list 000000018003ba00 f   libvcruntimed:std_type_info.obj
 0001:0003aa60       __std_type_info_hash       000000018003ba60 f   libvcruntimed:std_type_info.obj
 0001:0003ab10       __std_type_info_name       000000018003bb10 f   libvcruntimed:std_type_info.obj
 0001:0003adc0       __vcrt_GetModuleFileNameW  000000018003bdc0 f   libvcruntimed:winapi_thunks.obj
 0001:0003adf0       __vcrt_GetModuleHandleW    000000018003bdf0 f   libvcruntimed:winapi_thunks.obj
 0001:0003ae10       __vcrt_LoadLibraryExW      000000018003be10 f   libvcruntimed:winapi_thunks.obj
 0001:0003ae40       ??$?RD@__crt_public_free_policy@@QEBAXQEBD@Z 000000018003be40 f i libvcruntimed:std_exception.obj
 0001:0003ae60       ??0?$__crt_unique_heap_ptr@DU__crt_public_free_policy@@@@QEAA@QEAD@Z 000000018003be60 f i libvcruntimed:std_exception.obj
 0001:0003ae80       ??1?$__crt_unique_heap_ptr@DU__crt_public_free_policy@@@@QEAA@XZ 000000018003be80 f i libvcruntimed:std_exception.obj
 0001:0003aea0       ??B?$__crt_unique_heap_ptr@DU__crt_public_free_policy@@@@QEBA_NXZ 000000018003bea0 f i libvcruntimed:std_exception.obj
 0001:0003aec0       ?detach@?$__crt_unique_heap_ptr@DU__crt_public_free_policy@@@@QEAAPEADXZ 000000018003bec0 f i libvcruntimed:std_exception.obj
 0001:0003aef0       ?get@?$__crt_unique_heap_ptr@DU__crt_public_free_policy@@@@QEBAPEADXZ 000000018003bef0 f i libvcruntimed:std_exception.obj
 0001:0003af00       ?is_valid@?$__crt_unique_heap_ptr@DU__crt_public_free_policy@@@@QEBA_NXZ 000000018003bf00 f i libvcruntimed:std_exception.obj
 0001:0003af30       ?release@?$__crt_unique_heap_ptr@DU__crt_public_free_policy@@@@QEAAXXZ 000000018003bf30 f i libvcruntimed:std_exception.obj
 0001:0003af60       __std_exception_copy       000000018003bf60 f   libvcruntimed:std_exception.obj
 0001:0003b0a0       __std_exception_destroy    000000018003c0a0 f   libvcruntimed:std_exception.obj
 0001:0003b0e0       _CxxThrowException         000000018003c0e0 f   libvcruntimed:throw.obj
 0001:0003b210       ??$?RU__vcrt_ptd@@@__crt_internal_free_policy@@QEBAXQEBU__vcrt_ptd@@@Z 000000018003c210 f i libvcruntimed:per_thread_data.obj
 0001:0003b240       ??0?$__crt_unique_heap_ptr@U__vcrt_ptd@@U__crt_internal_free_policy@@@@QEAA@QEAU__vcrt_ptd@@@Z 000000018003c240 f i libvcruntimed:per_thread_data.obj
 0001:0003b280       ??1?$__crt_unique_heap_ptr@U__vcrt_ptd@@U__crt_internal_free_policy@@@@QEAA@XZ 000000018003c280 f i libvcruntimed:per_thread_data.obj
 0001:0003b2c0       ??B?$__crt_unique_heap_ptr@U__vcrt_ptd@@U__crt_internal_free_policy@@@@QEBA_NXZ 000000018003c2c0 f i libvcruntimed:per_thread_data.obj
 0001:0003b2e0       ?detach@?$__crt_unique_heap_ptr@U__vcrt_ptd@@U__crt_internal_free_policy@@@@QEAAPEAU__vcrt_ptd@@XZ 000000018003c2e0 f i libvcruntimed:per_thread_data.obj
 0001:0003b310       ?get@?$__crt_unique_heap_ptr@U__vcrt_ptd@@U__crt_internal_free_policy@@@@QEBAPEAU__vcrt_ptd@@XZ 000000018003c310 f i libvcruntimed:per_thread_data.obj
 0001:0003b320       ?is_valid@?$__crt_unique_heap_ptr@U__vcrt_ptd@@U__crt_internal_free_policy@@@@QEBA_NXZ 000000018003c320 f i libvcruntimed:per_thread_data.obj
 0001:0003b350       ?release@?$__crt_unique_heap_ptr@U__vcrt_ptd@@U__crt_internal_free_policy@@@@QEAAXXZ 000000018003c350 f i libvcruntimed:per_thread_data.obj
 0001:0003b3c0       __vcrt_freefls             000000018003c3c0 f   libvcruntimed:per_thread_data.obj
 0001:0003b400       __vcrt_freeptd             000000018003c400 f   libvcruntimed:per_thread_data.obj
 0001:0003b460       __vcrt_getptd              000000018003c460 f   libvcruntimed:per_thread_data.obj
 0001:0003b490       __vcrt_getptd_noexit       000000018003c490 f   libvcruntimed:per_thread_data.obj
 0001:0003b630       __vcrt_getptd_noinit       000000018003c630 f   libvcruntimed:per_thread_data.obj
 0001:0003b690       __vcrt_initialize_ptd      000000018003c690 f   libvcruntimed:per_thread_data.obj
 0001:0003b6e0       __vcrt_uninitialize_ptd    000000018003c6e0 f   libvcruntimed:per_thread_data.obj
 0001:0003b710       __vcrt_initialize_locks    000000018003c710 f   libvcruntimed:locks.obj
 0001:0003b780       __vcrt_lock                000000018003c780 f   libvcruntimed:locks.obj
 0001:0003b7b0       __vcrt_uninitialize_locks  000000018003c7b0 f   libvcruntimed:locks.obj
 0001:0003b810       __vcrt_unlock              000000018003c810 f   libvcruntimed:locks.obj
 0001:0003b850       _NLG_Notify                000000018003c850 f   libvcruntimed:notify.obj
 0001:0003b870       __NLG_Dispatch2            000000018003c870 f   libvcruntimed:notify.obj
 0001:0003b880       __NLG_Return2              000000018003c880 f   libvcruntimed:notify.obj
 0001:0003b8a0       __except_validate_context_record 000000018003c8a0 f   libvcruntimed:jbcxrval.obj
 0001:0003b900       __except_validate_jump_buffer 000000018003c900 f   libvcruntimed:jbcxrval.obj
 0001:0003b920       __except_validate_jump_buffer_common 000000018003c920 f i libvcruntimed:jbcxrval.obj
 0001:0003b9a0       ?GetCurrentState@__FrameHandler3@@SAHPEA_KPEAU_xDISPATCHER_CONTEXT@@PEBU_s_FuncInfo@@@Z 000000018003c9a0 f   libvcruntimed:ehstate.obj
 0001:0003ba00       ?GetUnwindTryBlock@__FrameHandler3@@SAHPEA_KPEAU_xDISPATCHER_CONTEXT@@PEBU_s_FuncInfo@@@Z 000000018003ca00 f   libvcruntimed:ehstate.obj
 0001:0003ba50       ?SetState@__FrameHandler3@@SAXPEA_KPEBU_s_FuncInfo@@H@Z 000000018003ca50 f   libvcruntimed:ehstate.obj
 0001:0003ba80       ?SetUnwindTryBlock@__FrameHandler3@@SAXPEA_KPEAU_xDISPATCHER_CONTEXT@@PEBU_s_FuncInfo@@H@Z 000000018003ca80 f   libvcruntimed:ehstate.obj
 0001:0003baf0       ?StateFromControlPc@__FrameHandler3@@SAHPEBU_s_FuncInfo@@PEAU_xDISPATCHER_CONTEXT@@@Z 000000018003caf0 f   libvcruntimed:ehstate.obj
 0001:0003bb30       ?StateFromControlPc@__FrameHandler4@@SAHPEAUFuncInfo4@FH4@@PEAU_xDISPATCHER_CONTEXT@@@Z 000000018003cb30 f   libvcruntimed:ehstate.obj
 0001:0003bb70       ?StateFromIp@__FrameHandler3@@SAHPEBU_s_FuncInfo@@PEAU_xDISPATCHER_CONTEXT@@_K@Z 000000018003cb70 f   libvcruntimed:ehstate.obj
 0001:0003bc60       ?StateFromIp@__FrameHandler4@@SAHPEAUFuncInfo4@FH4@@PEAU_xDISPATCHER_CONTEXT@@_K@Z 000000018003cc60 f   libvcruntimed:ehstate.obj
 0001:0003bd50       ?__FuncRelToRealOffset@@YA_KPEAU_xDISPATCHER_CONTEXT@@I@Z 000000018003cd50 f i libvcruntimed:ehstate.obj
 0001:0003bd80       ?__RVAtoRealOffset@@YA_KPEAU_xDISPATCHER_CONTEXT@@H@Z 000000018003cd80 f i libvcruntimed:ehstate.obj
 0001:0003e000       ??$TypeMatchHelper@V__FrameHandler3@@@@YAHPEBU_s_HandlerType@@PEBU_s_CatchableType@@PEBU_s_ThrowInfo@@@Z 000000018003f000 f i libvcruntimed:frame.obj
 0001:0003e200       ??$TypeMatchHelper@V__FrameHandler4@@@@YAHPEAUHandlerType4@FH4@@PEBU_s_CatchableType@@PEBU_s_ThrowInfo@@@Z 000000018003f200 f i libvcruntimed:frame.obj
 0001:0003e410       ??$__InternalCxxFrameHandler@V__FrameHandler3@@@@YA?AW4_EXCEPTION_DISPOSITION@@PEAUEHExceptionRecord@@PEA_KPEAU_CONTEXT@@PEAU_xDISPATCHER_CONTEXT@@PEBU_s_FuncInfo@@H1E@Z 000000018003f410 f i libvcruntimed:frame.obj
 0001:0003e880       ??$__InternalCxxFrameHandler@V__FrameHandler4@@@@YA?AW4_EXCEPTION_DISPOSITION@@PEAUEHExceptionRecord@@PEA_KPEAU_CONTEXT@@PEAU_xDISPATCHER_CONTEXT@@PEAUFuncInfo4@FH4@@H1E@Z 000000018003f880 f i libvcruntimed:frame.obj
 0001:0003ed10       ??0HandlerMap4@FH4@@QEAA@PEBUTryBlockMapEntry4@1@_KH@Z 000000018003fd10 f i libvcruntimed:frame.obj
 0001:0003edd0       ??0HandlerMap@__FrameHandler3@@QEAA@PEBU_s_TryBlockMapEntry@@_KI@Z 000000018003fdd0 f i libvcruntimed:frame.obj
 0001:0003ee20       ??0HandlerType4@FH4@@QEAA@XZ 000000018003fe20 f i libvcruntimed:frame.obj
 0001:0003ee40       ??0TryBlockMap4@FH4@@QEAA@PEBUFuncInfo4@1@_K@Z 000000018003fe40 f i libvcruntimed:frame.obj
 0001:0003eed0       ??0TryBlockMap@__FrameHandler3@@QEAA@PEBU_s_FuncInfo@@_K@Z 000000018003fed0 f i libvcruntimed:frame.obj
 0001:0003ef00       ??0UWMap4@FH4@@QEAA@PEBUFuncInfo4@1@_K@Z 000000018003ff00 f i libvcruntimed:frame.obj
 0001:0003ef70       ??0bad_exception@std@@QEAA@AEBV01@@Z 000000018003ff70 f i libvcruntimed:frame.obj
 0001:0003efb0       ??0bad_exception@std@@QEAA@XZ 000000018003ffb0 f i libvcruntimed:frame.obj
 0001:0003eff0       ??0iterator@HandlerMap4@FH4@@QEAA@AEAV12@I@Z 000000018003fff0 f i libvcruntimed:frame.obj
 0001:0003f020       ??0iterator@HandlerMap@__FrameHandler3@@QEAA@AEAV12@I@Z 0000000180040020 f i libvcruntimed:frame.obj
 0001:0003f050       ??0iterator@UWMap4@FH4@@QEAA@AEAV12@PEAE@Z 0000000180040050 f i libvcruntimed:frame.obj
 0001:0003f080       ??1bad_exception@std@@UEAA@XZ 0000000180040080 f i libvcruntimed:frame.obj
 0001:0003f0a0       ??4iterator@UWMap4@FH4@@QEAAAEAV012@AEBV012@@Z 00000001800400a0 f i libvcruntimed:frame.obj
 0001:0003f0f0       ??8iterator@HandlerMap4@FH4@@QEBA_NAEBV012@@Z 00000001800400f0 f i libvcruntimed:frame.obj
 0001:0003f130       ??8iterator@HandlerMap@__FrameHandler3@@QEBA_NAEBV012@@Z 0000000180040130 f i libvcruntimed:frame.obj
 0001:0003f170       ??8type_info@@QEBA_NAEBV0@@Z 0000000180040170 f i libvcruntimed:frame.obj
 0001:0003f1c0       ??9iterator@HandlerMap4@FH4@@QEBA_NAEBV012@@Z 00000001800401c0 f i libvcruntimed:frame.obj
 0001:0003f200       ??9iterator@HandlerMap@__FrameHandler3@@QEBA_NAEBV012@@Z 0000000180040200 f i libvcruntimed:frame.obj
 0001:0003f240       ??Diterator@HandlerMap4@FH4@@QEAA?AUHandlerType4@2@XZ 0000000180040240 f i libvcruntimed:frame.obj
 0001:0003f270       ??Diterator@HandlerMap@__FrameHandler3@@QEAA?BU_s_HandlerType@@XZ 0000000180040270 f i libvcruntimed:frame.obj
 0001:0003f2b0       ??Diterator@TryBlockMap@__FrameHandler3@@QEAA?BU_s_TryBlockMapEntry@@XZ 00000001800402b0 f i libvcruntimed:frame.obj
 0001:0003f300       ??Diterator@UWMap4@FH4@@QEAA?AUUnwindMapEntry4@2@XZ 0000000180040300 f i libvcruntimed:frame.obj
 0001:0003f380       ??Eiterator@HandlerMap4@FH4@@QEAAAEAV012@XZ 0000000180040380 f i libvcruntimed:frame.obj
 0001:0003f3c0       ??Eiterator@HandlerMap@__FrameHandler3@@QEAAAEAV012@XZ 00000001800403c0 f i libvcruntimed:frame.obj
 0001:0003f3e0       ??Eiterator@TryBlockMap@__FrameHandler3@@QEAAAEAV012@XZ 00000001800403e0 f i libvcruntimed:frame.obj
 0001:0003f400       ??Eiterator@UWMap4@FH4@@QEAAAEAV012@XZ 0000000180040400 f i libvcruntimed:frame.obj
 0001:0003f440       ??Giterator@UWMap4@FH4@@QEBA_JAEBV012@@Z 0000000180040440 f i libvcruntimed:frame.obj
 0001:0003f460       ??Miterator@TryBlockMap4@FH4@@QEBA_NAEBV012@@Z 0000000180040460 f i libvcruntimed:frame.obj
 0001:0003f4a0       ??Miterator@TryBlockMap@__FrameHandler3@@QEBA_NAEBV012@@Z 00000001800404a0 f i libvcruntimed:frame.obj
 0001:0003f4e0       ??Oiterator@UWMap4@FH4@@QEBA_NAEBV012@@Z 00000001800404e0 f i libvcruntimed:frame.obj
 0001:0003f520       ??Piterator@UWMap4@FH4@@QEBA_NAEBV012@@Z 0000000180040520 f i libvcruntimed:frame.obj
 0001:0003f560       ??_Gbad_exception@std@@UEAAPEAXI@Z 0000000180040560 f i libvcruntimed:frame.obj
 0001:0003f560       ??_Ebad_exception@std@@UEAAPEAXI@Z 0000000180040560 f i libvcruntimed:frame.obj
 0001:0003f5a0       ?BuildCatchObject@__FrameHandler3@@SAXPEAUEHExceptionRecord@@PEAXPEBU_s_HandlerType@@PEBU_s_CatchableType@@@Z 00000001800405a0 f   libvcruntimed:frame.obj
 0001:0003f5e0       ?BuildCatchObject@__FrameHandler4@@SAXPEAUEHExceptionRecord@@PEAXPEAUHandlerType4@FH4@@PEBU_s_CatchableType@@@Z 00000001800405e0 f   libvcruntimed:frame.obj
 0001:0003f620       ?BuildCatchObjectHelper@__FrameHandler3@@SAHPEAUEHExceptionRecord@@PEAXPEBU_s_HandlerType@@PEBU_s_CatchableType@@@Z 0000000180040620 f   libvcruntimed:frame.obj
 0001:0003f660       ?BuildCatchObjectHelper@__FrameHandler4@@SAHPEAUEHExceptionRecord@@PEAXPEAUHandlerType4@FH4@@PEBU_s_CatchableType@@@Z 0000000180040660 f   libvcruntimed:frame.obj
 0001:0003f6a0       ?CxxCallCatchBlock@__FrameHandler3@@SAPEAXPEAU_EXCEPTION_RECORD@@@Z 00000001800406a0 f   libvcruntimed:frame.obj
 0001:0003f900       ?CxxCallCatchBlock@__FrameHandler4@@SAPEAXPEAU_EXCEPTION_RECORD@@@Z 0000000180040900 f   libvcruntimed:frame.obj
 0001:0003fc30       ?DecompHandler@HandlerMap4@FH4@@AEAAXXZ 0000000180040c30 f i libvcruntimed:frame.obj
 0001:00040000       ?FrameUnwindToState@__FrameHandler3@@SAXPEA_KPEAU_xDISPATCHER_CONTEXT@@PEBU_s_FuncInfo@@H@Z 0000000180041000 f   libvcruntimed:frame.obj
 0001:00040250       ?FrameUnwindToState@__FrameHandler4@@SAXPEA_KPEAU_xDISPATCHER_CONTEXT@@PEAUFuncInfo4@FH4@@H@Z 0000000180041250 f   libvcruntimed:frame.obj
 0001:00040560       ?GetHandlerSearchState@__FrameHandler3@@SAHPEA_KPEAU_xDISPATCHER_CONTEXT@@PEBU_s_FuncInfo@@@Z 0000000180041560 f i libvcruntimed:frame.obj
 0001:00040610       ?GetHandlerSearchState@__FrameHandler4@@SAHPEA_KPEAU_xDISPATCHER_CONTEXT@@PEAUFuncInfo4@FH4@@@Z 0000000180041610 f i libvcruntimed:frame.obj
 0001:00040690       ?GetMaxState@__FrameHandler3@@SAHPEAU_xDISPATCHER_CONTEXT@@PEBU_s_FuncInfo@@@Z 0000000180041690 f i libvcruntimed:frame.obj
 0001:000406b0       ?GetMaxState@__FrameHandler4@@SAHPEAU_xDISPATCHER_CONTEXT@@PEAUFuncInfo4@FH4@@@Z 00000001800416b0 f i libvcruntimed:frame.obj
 0001:000408e0       ?ReadEntry@UWMap4@FH4@@AEAAXPEAPEAE@Z 00000001800418e0 f i libvcruntimed:frame.obj
 0001:00040990       ?TypeMatch@__FrameHandler3@@SAHPEBU_s_HandlerType@@PEBU_s_CatchableType@@PEBU_s_ThrowInfo@@@Z 0000000180041990 f   libvcruntimed:frame.obj
 0001:000409c0       ?TypeMatch@__FrameHandler4@@SAHPEAUHandlerType4@FH4@@PEBU_s_CatchableType@@PEBU_s_ThrowInfo@@@Z 00000001800419c0 f   libvcruntimed:frame.obj
 0001:000409f0       ?WalkBack@UWMap4@FH4@@AEAAXPEAPEAE@Z 00000001800419f0 f i libvcruntimed:frame.obj
 0001:00040a40       ?WalkBack@iterator@UWMap4@FH4@@QEAAXXZ 0000000180041a40 f i libvcruntimed:frame.obj
 0001:00040a80       ?WalkForward@UWMap4@FH4@@AEAAXPEAPEAE@Z 0000000180041a80 f i libvcruntimed:frame.obj
 0001:00040ab0       ?_CallMemberFunction1@@YAXQEAX00@Z 0000000180041ab0 f i libvcruntimed:frame.obj
 0001:00040af0       ?_CallMemberFunction2@@YAXQEAX00H@Z 0000000180041af0 f i libvcruntimed:frame.obj
 0001:00040b80       ?begin@HandlerMap4@FH4@@QEAA?AViterator@12@XZ 0000000180041b80 f i libvcruntimed:frame.obj
 0001:00040bb0       ?begin@HandlerMap@__FrameHandler3@@QEAA?AViterator@12@XZ 0000000180041bb0 f i libvcruntimed:frame.obj
 0001:00040be0       ?begin@UWMap4@FH4@@QEAA?AViterator@12@XZ 0000000180041be0 f i libvcruntimed:frame.obj
 0001:00040c10       ?end@HandlerMap4@FH4@@QEAA?AViterator@12@XZ 0000000180041c10 f i libvcruntimed:frame.obj
 0001:00040c40       ?end@HandlerMap@__FrameHandler3@@QEAA?AViterator@12@XZ 0000000180041c40 f i libvcruntimed:frame.obj
 0001:00040c70       ?getESTypes@__FrameHandler3@@SAPEBU_s_ESTypeList@@PEBU_s_FuncInfo@@@Z 0000000180041c70 f i libvcruntimed:frame.obj
 0001:00040cb0       ?getESTypes@__FrameHandler4@@SAPEBU_s_ESTypeList@@PEAUFuncInfo4@FH4@@@Z 0000000180041cb0 f i libvcruntimed:frame.obj
 0001:00040cc0       ?getLastEntry@HandlerMap4@FH4@@QEAAPEAUHandlerType4@2@XZ 0000000180041cc0 f i libvcruntimed:frame.obj
 0001:00040d00       ?getLastEntry@HandlerMap@__FrameHandler3@@QEAAPEBU_s_HandlerType@@XZ 0000000180041d00 f i libvcruntimed:frame.obj
 0001:00040d20       ?getMagicNum@__FrameHandler3@@SAIPEBU_s_FuncInfo@@@Z 0000000180041d20 f i libvcruntimed:frame.obj
 0001:00040d40       ?getMagicNum@__FrameHandler4@@SAIPEAUFuncInfo4@FH4@@@Z 0000000180041d40 f i libvcruntimed:frame.obj
 0001:00040d50       ?getNumTryBlocks@TryBlockMap4@FH4@@QEAAIXZ 0000000180041d50 f i libvcruntimed:frame.obj
 0001:00040d60       ?getNumTryBlocks@TryBlockMap@__FrameHandler3@@QEAAIXZ 0000000180041d60 f i libvcruntimed:frame.obj
 0001:00040d80       ?getStartStop@UWMap4@FH4@@QEAAXHHAEAViterator@12@0@Z 0000000180041d80 f i libvcruntimed:frame.obj
 0001:00040ea0       ?getStateFromIterators@UWMap4@FH4@@SAHAEBViterator@12@H0H0@Z 0000000180041ea0 f i libvcruntimed:frame.obj
 0001:00040fe0       ?isEHs@__FrameHandler3@@SA_NPEBU_s_FuncInfo@@@Z 0000000180041fe0 f i libvcruntimed:frame.obj
 0001:00041020       ?isEHs@__FrameHandler4@@SA_NPEAUFuncInfo4@FH4@@@Z 0000000180042020 f i libvcruntimed:frame.obj
 0001:00041040       ?isNoExcept@__FrameHandler3@@SA_NPEBU_s_FuncInfo@@@Z 0000000180042040 f i libvcruntimed:frame.obj
 0001:00041080       ?isNoExcept@__FrameHandler4@@SA_NPEAUFuncInfo4@FH4@@@Z 0000000180042080 f i libvcruntimed:frame.obj
 0001:000410a0       ?reset@HandlerType4@FH4@@QEAAXXZ 00000001800420a0 f i libvcruntimed:frame.obj
 0001:00041100       ?resetBuffer@HandlerMap4@FH4@@QEAAXXZ 0000000180042100 f i libvcruntimed:frame.obj
 0001:00041120       ?setBuffer@HandlerMap4@FH4@@QEAAXI@Z 0000000180042120 f i libvcruntimed:frame.obj
 0001:00041180       __BuildCatchObject         0000000180042180 f   libvcruntimed:frame.obj
 0001:000411c0       __BuildCatchObjectHelper   00000001800421c0 f   libvcruntimed:frame.obj
 0001:00041200       __TypeMatch                0000000180042200 f   libvcruntimed:frame.obj
 0001:00041230       __vcrt_EncodePointer       0000000180042230 f i libvcruntimed:frame.obj
 0001:00041250       ??$?0$00@DName@@QEAA@PEBDU?$StringLifeSelector@$00@@@Z 0000000180042250 f i libvcruntimed:undname.obj
 0001:000412c0       ??$?0$00@pcharNode@@QEAA@PEBDHU?$StringLifeSelector@$00@@@Z 00000001800422c0 f i libvcruntimed:undname.obj
 0001:00041320       ??$?0$01@DName@@QEAA@PEBDU?$StringLifeSelector@$01@@@Z 0000000180042320 f i libvcruntimed:undname.obj
 0001:00041390       ??$?0$01@pcharNode@@QEAA@PEBDHU?$StringLifeSelector@$01@@@Z 0000000180042390 f i libvcruntimed:undname.obj
 0001:00041440       ??$?0$0A@@DName@@QEAA@PEBDU?$StringLifeSelector@$0A@@@@Z 0000000180042440 f i libvcruntimed:undname.obj
 0001:000414b0       ??$?0$0A@@pcharNode@@QEAA@PEBDHU?$StringLifeSelector@$0A@@@@Z 00000001800424b0 f i libvcruntimed:undname.obj
 0001:00041560       ??$?0_K$0A@@?$optional@_K@std@@QEAA@$$QEA_K@Z 0000000180042560 f i libvcruntimed:undname.obj
 0001:000415b0       ??$?0_K@?$_Optional_construct_base@_K@std@@QEAA@Uin_place_t@1@$$QEA_K@Z 00000001800425b0 f i libvcruntimed:undname.obj
 0001:000415e0       ??$?0_K@?$_Optional_destruct_base@_K$00@std@@QEAA@Uin_place_t@1@$$QEA_K@Z 00000001800425e0 f i libvcruntimed:undname.obj
 0001:00041620       ??$append@VDNameNode@@@DName@@AEAAXPEBVDNameNode@@@Z 0000000180042620 f i libvcruntimed:undname.obj
 0001:000416d0       ??$append@VDNameStatusNode@@@DName@@AEAAXPEBVDNameStatusNode@@@Z 00000001800426d0 f i libvcruntimed:undname.obj
 0001:00041780       ??$append@VcharNode@@@DName@@AEAAXPEBVcharNode@@@Z 0000000180042780 f i libvcruntimed:undname.obj
 0001:00041830       ??$append@VpDNameNode@@@DName@@AEAAXPEBVpDNameNode@@@Z 0000000180042830 f i libvcruntimed:undname.obj
 0001:000418e0       ??$append@VpcharNode@@@DName@@AEAAXPEBVpcharNode@@@Z 00000001800428e0 f i libvcruntimed:undname.obj
 0001:00041990       ??$doPchar@$00@DName@@AEAAXPEBDH@Z 0000000180042990 f i libvcruntimed:undname.obj
 0001:00041af0       ??$doPchar@$01@DName@@AEAAXPEBDH@Z 0000000180042af0 f i libvcruntimed:undname.obj
 0001:00041c50       ??$doPchar@$0A@@DName@@AEAAXPEBDH@Z 0000000180042c50 f i libvcruntimed:undname.obj
 0001:00041db0       ??$forward@_K@std@@YA$$QEA_KAEA_K@Z 0000000180042db0 f i libvcruntimed:undname.obj
 0001:00041dc0       ??$size@D$04@std@@YA_KAEAY04$$CBD@Z 0000000180042dc0 f i libvcruntimed:undname.obj
 0001:00041dd0       ??$size@D$0EB@@std@@YA_KAEAY0EB@$$CBD@Z 0000000180042dd0 f i libvcruntimed:undname.obj
 0001:00041de0       ??0?$_Optional_construct_base@_K@std@@QEAA@XZ 0000000180042de0 f i libvcruntimed:undname.obj
 0001:00041e00       ??0?$_Optional_destruct_base@_K$00@std@@QEAA@XZ 0000000180042e00 f i libvcruntimed:undname.obj
 0001:00041e20       ??0?$optional@_K@std@@QEAA@XZ 0000000180042e20 f i libvcruntimed:undname.obj
 0001:00041e50       ??0Block@_HeapManager@@QEAA@XZ 0000000180042e50 f i libvcruntimed:undname.obj
 0001:00041e70       ??0DName@@QEAA@AEAPEBDD@Z  0000000180042e70 f   libvcruntimed:undname.obj
 0001:00042040       ??0DName@@QEAA@AEBUStringLiteral@@@Z 0000000180043040 f   libvcruntimed:undname.obj
 0001:000420a0       ??0DName@@QEAA@AEBV0@@Z    00000001800430a0 f i libvcruntimed:undname.obj
 0001:000420d0       ??0DName@@QEAA@D@Z         00000001800430d0 f   libvcruntimed:undname.obj
 0001:00042110       ??0DName@@QEAA@PEAV0@@Z    0000000180043110 f   libvcruntimed:undname.obj
 0001:000421f0       ??0DName@@QEAA@W4DNameStatus@@@Z 00000001800431f0 f   libvcruntimed:undname.obj
 0001:000422a0       ??0DName@@QEAA@XZ          00000001800432a0 f i libvcruntimed:undname.obj
 0001:000422d0       ??0DName@@QEAA@_J@Z        00000001800432d0 f   libvcruntimed:undname.obj
 0001:000423e0       ??0DName@@QEAA@_K@Z        00000001800433e0 f   libvcruntimed:undname.obj
 0001:000424b0       ??0DNameNode@@IEAA@XZ      00000001800434b0 f i libvcruntimed:undname.obj
 0001:000424d0       ??0Replicator@@QEAA@XZ     00000001800434d0 f i libvcruntimed:undname.obj
 0001:00042510       ??0UnDecorator@@QEAA@PEBDP6APEADJ@ZK@Z 0000000180043510 f i libvcruntimed:undname.obj
 0001:000425c0       ??0charNode@@QEAA@D@Z      00000001800435c0 f i libvcruntimed:undname.obj
 0001:00042600       ??0pDNameNode@@QEAA@PEAVDName@@@Z 0000000180043600 f   libvcruntimed:undname.obj
 0001:00042680       ??0pairNode@@QEAA@PEBVDNameNode@@0@Z 0000000180043680 f i libvcruntimed:undname.obj
 0001:00042700       ??2@YAPEAX_KAEAV_HeapManager@@H@Z 0000000180043700 f   libvcruntimed:undname.obj
 0001:00042760       ??4DName@@QEAAAEAV0@AEBUStringLiteral@@@Z 0000000180043760 f   libvcruntimed:undname.obj
 0001:000427b0       ??4DName@@QEAAAEAV0@AEBV0@@Z 00000001800437b0 f   libvcruntimed:undname.obj
 0001:000427e0       ??4DName@@QEAAAEAV0@D@Z    00000001800437e0 f i libvcruntimed:undname.obj
 0001:00042820       ??4DName@@QEAAAEAV0@PEAV0@@Z 0000000180043820 f   libvcruntimed:undname.obj
 0001:000428f0       ??4DName@@QEAAAEAV0@W4DNameStatus@@@Z 00000001800438f0 f   libvcruntimed:undname.obj
 0001:00042980       ??AReplicator@@QEBA?AVDName@@H@Z 0000000180043980 f   libvcruntimed:undname.obj
 0001:00042a10       ??B?$optional@_K@std@@QEBA_NXZ 0000000180043a10 f i libvcruntimed:undname.obj
 0001:00042a20       ??D?$optional@_K@std@@QEGAAAEA_KXZ 0000000180043a20 f i libvcruntimed:undname.obj
 0001:00042a30       ??H@YA?AVDName@@AEBUStringLiteral@@AEBV0@@Z 0000000180043a30 f i libvcruntimed:undname.obj
 0001:00042a80       ??H@YA?AVDName@@DAEBV0@@Z  0000000180043a80 f i libvcruntimed:undname.obj
 0001:00042ad0       ??H@YA?AVDName@@W4DNameStatus@@AEBV0@@Z 0000000180043ad0 f i libvcruntimed:undname.obj
 0001:00042b20       ??HDName@@QEBA?AV0@AEBUStringLiteral@@@Z 0000000180043b20 f   libvcruntimed:undname.obj
 0001:00042b70       ??HDName@@QEBA?AV0@AEBV0@@Z 0000000180043b70 f   libvcruntimed:undname.obj
 0001:00042bc0       ??HDName@@QEBA?AV0@D@Z     0000000180043bc0 f   libvcruntimed:undname.obj
 0001:00042c10       ??HDName@@QEBA?AV0@PEAV0@@Z 0000000180043c10 f   libvcruntimed:undname.obj
 0001:00042c60       ??HDName@@QEBA?AV0@W4DNameStatus@@@Z 0000000180043c60 f   libvcruntimed:undname.obj
 0001:00042cb0       ??HStringLiteral@@QEBA?AU0@H@Z 0000000180043cb0 f i libvcruntimed:undname.obj
 0001:00042cf0       ??YDName@@QEAAAEAV0@AEBUStringLiteral@@@Z 0000000180043cf0 f   libvcruntimed:undname.obj
 0001:00042dc0       ??YDName@@QEAAAEAV0@AEBV0@@Z 0000000180043dc0 f   libvcruntimed:undname.obj
 0001:00042e80       ??YDName@@QEAAAEAV0@D@Z    0000000180043e80 f   libvcruntimed:undname.obj
 0001:00042f20       ??YDName@@QEAAAEAV0@PEAV0@@Z 0000000180043f20 f   libvcruntimed:undname.obj
 0001:00043000       ??YDName@@QEAAAEAV0@W4DNameStatus@@@Z 0000000180044000 f   libvcruntimed:undname.obj
 0001:00043070       ??YReplicator@@QEAAAEAV0@AEBVDName@@@Z 0000000180044070 f   libvcruntimed:undname.obj
 0001:00043130       ??_5DName@@QEAAAEAV0@AEBV0@@Z 0000000180044130 f   libvcruntimed:undname.obj
 0001:000431a0       ??__K_l@@YA?AUStringLiteral@@PEBD_K@Z 00000001800441a0 f i libvcruntimed:undname.obj
 0001:000431f0       ?Constructor@_HeapManager@@QEAAXP6APEAX_K@ZP6AXPEAX@Z@Z 00000001800441f0 f i libvcruntimed:undname.obj
 0001:00043250       ?Destructor@_HeapManager@@QEAAXXZ 0000000180044250 f i libvcruntimed:undname.obj
 0001:000432f0       ?UScore@UnDecorator@@SA?AUStringLiteral@@W4Tokens@@@Z 00000001800442f0 f   libvcruntimed:undname.obj
 0001:00043380       ?composeDeclaration@UnDecorator@@CA?AVDName@@AEBV2@@Z 0000000180044380 f i libvcruntimed:undname.obj
 0001:00045880       ?dbGetString@DName@@QEBAPEADXZ 0000000180046880 f   libvcruntimed:undname.obj
 0001:000458b0       ?doAccessSpecifiers@UnDecorator@@SAHXZ 00000001800468b0 f i libvcruntimed:undname.obj
 0001:000458e0       ?doAllocationLanguage@UnDecorator@@SAHXZ 00000001800468e0 f i libvcruntimed:undname.obj
 0001:00045910       ?doAllocationModel@UnDecorator@@SAHXZ 0000000180046910 f i libvcruntimed:undname.obj
 0001:00045940       ?doEcsu@UnDecorator@@SAHXZ 0000000180046940 f i libvcruntimed:undname.obj
 0001:00045970       ?doEllipsis@UnDecorator@@SAHXZ 0000000180046970 f i libvcruntimed:undname.obj
 0001:000459a0       ?doFunctionReturns@UnDecorator@@SAHXZ 00000001800469a0 f i libvcruntimed:undname.obj
 0001:000459d0       ?doMSKeywords@UnDecorator@@SAHXZ 00000001800469d0 f i libvcruntimed:undname.obj
 0001:00045a00       ?doMemberTypes@UnDecorator@@SAHXZ 0000000180046a00 f i libvcruntimed:undname.obj
 0001:00045a30       ?doNameOnly@UnDecorator@@SAHXZ 0000000180046a30 f i libvcruntimed:undname.obj
 0001:00045a40       ?doNoIdentCharCheck@UnDecorator@@SAHXZ 0000000180046a40 f i libvcruntimed:undname.obj
 0001:00045a50       ?doPchar@DName@@AEAAXD@Z   0000000180046a50 f   libvcruntimed:undname.obj
 0001:00045ae0       ?doPtr64@UnDecorator@@SAHXZ 0000000180046ae0 f i libvcruntimed:undname.obj
 0001:00045b10       ?doRestrictionSpec@UnDecorator@@SAHXZ 0000000180046b10 f i libvcruntimed:undname.obj
 0001:00045b40       ?doThisTypes@UnDecorator@@SAHXZ 0000000180046b40 f i libvcruntimed:undname.obj
 0001:00045b70       ?doThrowTypes@UnDecorator@@SAHXZ 0000000180046b70 f i libvcruntimed:undname.obj
 0001:00045ba0       ?doTypeOnly@UnDecorator@@SAHXZ 0000000180046ba0 f i libvcruntimed:undname.obj
 0001:00045bb0       ?doUnderScore@UnDecorator@@SAHXZ 0000000180046bb0 f i libvcruntimed:undname.obj
 0001:00045be0       ?getArgumentList@UnDecorator@@CA?AVDName@@XZ 0000000180046be0 f   libvcruntimed:undname.obj
 0001:00045d80       ?getArgumentTypes@UnDecorator@@CA?AVDName@@XZ 0000000180046d80 f   libvcruntimed:undname.obj
 0001:000460e0       ?getArrayObject@UnDecorator@@CA?AVDName@@XZ 00000001800470e0 f   libvcruntimed:undname.obj
 0001:00046200       ?getArrayType@UnDecorator@@CA?AVDName@@AEBV2@@Z 0000000180047200 f i libvcruntimed:undname.obj
 0001:000465c0       ?getBasedType@UnDecorator@@CA?AVDName@@XZ 00000001800475c0 f   libvcruntimed:undname.obj
 0001:00046730       ?getBasicDataType@UnDecorator@@CA?AVDName@@AEBV2@@Z 0000000180047730 f   libvcruntimed:undname.obj
 0001:00047400       ?getCHPEName@UnDecorator@@QEAAPEADPEADH@Z 0000000180048400 f i libvcruntimed:undname.obj
 0001:000475d0       ?getCallIndex@UnDecorator@@CA?AVDName@@XZ 00000001800485d0 f i libvcruntimed:undname.obj
 0001:000475f0       ?getCallingConvention@UnDecorator@@CA?AVDName@@XZ 00000001800485f0 f   libvcruntimed:undname.obj
 0001:00047990       ?getDataIndirectType@UnDecorator@@CA?AVDName@@AEBV2@W4IndirectionKind@@0H@Z 0000000180048990 f   libvcruntimed:undname.obj
 0001:00048630       ?getDataIndirectType@UnDecorator@@CA?AVDName@@XZ 0000000180049630 f i libvcruntimed:undname.obj
 0001:00048680       ?getDataType@UnDecorator@@CA?AVDName@@PEAV2@@Z 0000000180049680 f   libvcruntimed:undname.obj
 0001:00048860       ?getDecoratedName@UnDecorator@@CA?AVDName@@XZ 0000000180049860 f   libvcruntimed:undname.obj
 0001:00048d50       ?getDimension@UnDecorator@@CA?AVDName@@_N@Z 0000000180049d50 f   libvcruntimed:undname.obj
 0001:00049060       ?getDispatchTarget@UnDecorator@@CA?AVDName@@XZ 000000018004a060 f   libvcruntimed:undname.obj
 0001:00049130       ?getDisplacement@UnDecorator@@CA?AVDName@@XZ 000000018004a130 f i libvcruntimed:undname.obj
 0001:00049150       ?getECSUDataType@UnDecorator@@CA?AVDName@@XZ 000000018004a150 f   libvcruntimed:undname.obj
 0001:000494e0       ?getECSUName@UnDecorator@@CA?AVDName@@XZ 000000018004a4e0 f i libvcruntimed:undname.obj
 0001:00049500       ?getEnumType@UnDecorator@@CA?AVDName@@XZ 000000018004a500 f i libvcruntimed:undname.obj
 0001:00049790       ?getExtendedDataIndirectType@UnDecorator@@CA?AVDName@@AEAW4IndirectionKind@@AEA_NH@Z 000000018004a790 f   libvcruntimed:undname.obj
 0001:00049ab0       ?getExternalDataType@UnDecorator@@CA?AVDName@@AEBV2@@Z 000000018004aab0 f i libvcruntimed:undname.obj
 0001:00049b90       ?getFloatingPoint@UnDecorator@@CA?AVDName@@H@Z 000000018004ab90 f   libvcruntimed:undname.obj
 0001:00049e00       ?getFunctionIndirectType@UnDecorator@@CA?AVDName@@AEBV2@@Z 000000018004ae00 f   libvcruntimed:undname.obj
 0001:0004a430       ?getGuardNumber@UnDecorator@@CA?AVDName@@XZ 000000018004b430 f i libvcruntimed:undname.obj
 0001:0004a450       ?getLastChar@DName@@QEBADXZ 000000018004b450 f i libvcruntimed:undname.obj
 0001:0004a4a0       ?getLastChar@DNameStatusNode@@UEBADXZ 000000018004b4a0 f i libvcruntimed:undname.obj
 0001:0004a4e0       ?getLastChar@charNode@@UEBADXZ 000000018004b4e0 f i libvcruntimed:undname.obj
 0001:0004a4f0       ?getLastChar@pDNameNode@@UEBADXZ 000000018004b4f0 f i libvcruntimed:undname.obj
 0001:0004a530       ?getLastChar@pairNode@@UEBADXZ 000000018004b530 f i libvcruntimed:undname.obj
 0001:0004a5b0       ?getLastChar@pcharNode@@UEBADXZ 000000018004b5b0 f i libvcruntimed:undname.obj
 0001:0004a5f0       ?getLexicalFrame@UnDecorator@@CA?AVDName@@XZ 000000018004b5f0 f i libvcruntimed:undname.obj
 0001:0004a640       ?getMemoryWithBuffer@_HeapManager@@QEAAPEAX_K@Z 000000018004b640 f   libvcruntimed:undname.obj
 0001:0004a790       ?getMemoryWithoutBuffer@_HeapManager@@QEAAPEAX_K@Z 000000018004b790 f   libvcruntimed:undname.obj
 0001:0004a7e0       ?getNoexcept@UnDecorator@@CA?AVDName@@XZ 000000018004b7e0 f   libvcruntimed:undname.obj
 0001:0004a890       ?getNumberOfDimensions@UnDecorator@@CAHXZ 000000018004b890 f   libvcruntimed:undname.obj
 0001:0004a9b0       ?getOperatorName@UnDecorator@@CA?AVDName@@_NPEA_N@Z 000000018004b9b0 f i libvcruntimed:undname.obj
 0001:0004b8c0       ?getPointerType@UnDecorator@@CA?AVDName@@AEBV2@0@Z 000000018004c8c0 f i libvcruntimed:undname.obj
 0001:0004b900       ?getPointerTypeArray@UnDecorator@@CA?AVDName@@AEBV2@0@Z 000000018004c900 f i libvcruntimed:undname.obj
 0001:0004b940       ?getPrimaryDataType@UnDecorator@@CA?AVDName@@AEBV2@@Z 000000018004c940 f   libvcruntimed:undname.obj
 0001:0004bf30       ?getPtrRefDataType@UnDecorator@@CA?AVDName@@AEBV2@H@Z 000000018004cf30 f   libvcruntimed:undname.obj
 0001:0004c320       ?getPtrRefType@UnDecorator@@CA?AVDName@@AEBV2@0W4IndirectionKind@@@Z 000000018004d320 f   libvcruntimed:undname.obj
 0001:0004c560       ?getReferenceType@UnDecorator@@CA?AVDName@@AEBV2@0W4IndirectionKind@@@Z 000000018004d560 f i libvcruntimed:undname.obj
 0001:0004c5a0       ?getRestrictionSpec@UnDecorator@@CA?AVDName@@XZ 000000018004d5a0 f   libvcruntimed:undname.obj
 0001:0004c830       ?getReturnType@UnDecorator@@CA?AVDName@@PEAV2@@Z 000000018004d830 f   libvcruntimed:undname.obj
 0001:0004c890       ?getScope@UnDecorator@@CA?AVDName@@XZ 000000018004d890 f   libvcruntimed:undname.obj
 0001:0004cfe0       ?getScopedName@UnDecorator@@CA?AVDName@@XZ 000000018004dfe0 f   libvcruntimed:undname.obj
 0001:0004d1e0       ?getSignedDimension@UnDecorator@@CA?AVDName@@XZ 000000018004e1e0 f   libvcruntimed:undname.obj
 0001:0004d270       ?getStorageConvention@UnDecorator@@CA?AVDName@@XZ 000000018004e270 f i libvcruntimed:undname.obj
 0001:0004d290       ?getString@DName@@QEBAPEADPEAD0@Z 000000018004e290 f i libvcruntimed:undname.obj
 0001:0004d310       ?getString@DName@@QEBAPEADPEADH@Z 000000018004e310 f i libvcruntimed:undname.obj
 0001:0004d3d0       ?getString@DNameStatusNode@@UEBAPEADPEAD0@Z 000000018004e3d0 f i libvcruntimed:undname.obj
 0001:0004d420       ?getString@charNode@@UEBAPEADPEAD0@Z 000000018004e420 f i libvcruntimed:undname.obj
 0001:0004d460       ?getString@pDNameNode@@UEBAPEADPEAD0@Z 000000018004e460 f i libvcruntimed:undname.obj
 0001:0004d4c0       ?getString@pairNode@@UEBAPEADPEAD0@Z 000000018004e4c0 f i libvcruntimed:undname.obj
 0001:0004d590       ?getString@pcharNode@@UEBAPEADPEAD0@Z 000000018004e590 f i libvcruntimed:undname.obj
 0001:0004d5d0       ?getStringEncoding@UnDecorator@@CA?AVDName@@W4PrefixKind@@H@Z 000000018004e5d0 f   libvcruntimed:undname.obj
 0001:0004d730       ?getStringHelper@@YAPEADPEADPEBD1H@Z 000000018004e730 f i libvcruntimed:undname.obj
 0001:0004d7a0       ?getStringObject@UnDecorator@@CA?AVDName@@XZ 000000018004e7a0 f   libvcruntimed:undname.obj
 0001:0004d880       ?getSymbolName@UnDecorator@@CA?AVDName@@XZ 000000018004e880 f i libvcruntimed:undname.obj
 0001:0004d920       ?getTemplateArgumentList@UnDecorator@@CA?AVDName@@XZ 000000018004e920 f   libvcruntimed:undname.obj
 0001:0004dc30       ?getTemplateName@UnDecorator@@CA?AVDName@@_N@Z 000000018004ec30 f   libvcruntimed:undname.obj
 0001:0004de70       ?getTemplateNonTypeArgument@UnDecorator@@CA?AVDName@@XZ 000000018004ee70 f   libvcruntimed:undname.obj
 0001:0004e560       ?getTemplateTypeArgument@UnDecorator@@CA?AVDName@@XZ 000000018004f560 f   libvcruntimed:undname.obj
 0001:0004e7d0       ?getThisType@UnDecorator@@CA?AVDName@@XZ 000000018004f7d0 f i libvcruntimed:undname.obj
 0001:0004e820       ?getThrowTypes@UnDecorator@@CA?AVDName@@XZ 000000018004f820 f   libvcruntimed:undname.obj
 0001:0004e870       ?getTypeEncoding@UnDecorator@@CAHXZ 000000018004f870 f i libvcruntimed:undname.obj
 0001:0004f4a0       ?getUndecoratedName@UnDecorator@@QEAAPEADPEADH@Z 00000001800504a0 f i libvcruntimed:undname.obj
 0001:0004f690       ?getVCallThunkType@UnDecorator@@CA?AVDName@@XZ 0000000180050690 f i libvcruntimed:undname.obj
 0001:0004f740       ?getValue@UnDecorator@@CA?AV?$optional@_K@std@@XZ 0000000180050740 f   libvcruntimed:undname.obj
 0001:0004f810       ?getValueObject@UnDecorator@@CA?AVDName@@XZ 0000000180050810 f   libvcruntimed:undname.obj
 0001:0004f9d0       ?getVbTableType@UnDecorator@@CA?AVDName@@AEBV2@@Z 00000001800509d0 f i libvcruntimed:undname.obj
 0001:0004fa00       ?getVdispMapType@UnDecorator@@CA?AVDName@@AEBV2@@Z 0000000180050a00 f i libvcruntimed:undname.obj
 0001:0004fac0       ?getVfTableType@UnDecorator@@CA?AVDName@@AEBV2@@Z 0000000180050ac0 f i libvcruntimed:undname.obj
 0001:0004fd60       ?getZName@UnDecorator@@CA?AVDName@@_N0@Z 0000000180050d60 f   libvcruntimed:undname.obj
 0001:000501f0       ?haveTemplateParameters@UnDecorator@@SAHXZ 00000001800511f0 f i libvcruntimed:undname.obj
 0001:00050200       ?isArray@DName@@QEBAHXZ    0000000180051200 f i libvcruntimed:undname.obj
 0001:00050220       ?isComArray@DName@@QEBAHXZ 0000000180051220 f i libvcruntimed:undname.obj
 0001:00050240       ?isEmpty@DName@@QEBAHXZ    0000000180051240 f i libvcruntimed:undname.obj
 0001:00050270       ?isFull@Replicator@@QEBAHXZ 0000000180051270 f i libvcruntimed:undname.obj
 0001:000502a0       ?isNoTE@DName@@QEBAHXZ     00000001800512a0 f i libvcruntimed:undname.obj
 0001:000502c0       ?isPinPtr@DName@@QEBAHXZ   00000001800512c0 f i libvcruntimed:undname.obj
 0001:000502e0       ?isPtrRef@DName@@QEBAHXZ   00000001800512e0 f i libvcruntimed:undname.obj
 0001:00050300       ?isUDC@DName@@QEBAHXZ      0000000180051300 f i libvcruntimed:undname.obj
 0001:00050350       ?isUDTThunk@DName@@QEBAHXZ 0000000180051350 f i libvcruntimed:undname.obj
 0001:000503a0       ?isVCallThunk@DName@@QEBAHXZ 00000001800513a0 f i libvcruntimed:undname.obj
 0001:000503c0       ?isValid@DName@@QEBAHXZ    00000001800513c0 f i libvcruntimed:undname.obj
 0001:00050400       ?length@DName@@QEBAHXZ     0000000180051400 f i libvcruntimed:undname.obj
 0001:00050450       ?length@DNameStatusNode@@UEBAHXZ 0000000180051450 f i libvcruntimed:undname.obj
 0001:00050460       ?length@charNode@@UEBAHXZ  0000000180051460 f i libvcruntimed:undname.obj
 0001:00050470       ?length@pDNameNode@@UEBAHXZ 0000000180051470 f i libvcruntimed:undname.obj
 0001:000504b0       ?length@pairNode@@UEBAHXZ  00000001800514b0 f i libvcruntimed:undname.obj
 0001:00050540       ?length@pcharNode@@UEBAHXZ 0000000180051540 f i libvcruntimed:undname.obj
 0001:00050550       ?make@DNameStatusNode@@SAPEBV1@W4DNameStatus@@@Z 0000000180051550 f i libvcruntimed:undname.obj
 0001:000505a0       ?parseDecoratedName@UnDecorator@@CA?AVDName@@XZ 00000001800515a0 f   libvcruntimed:undname.obj
 0001:00050790       ?raw_length@DNameStatusNode@@UEBAHXZ 0000000180051790 f i libvcruntimed:undname.obj
 0001:000507b0       ?raw_length@charNode@@UEBAHXZ 00000001800517b0 f i libvcruntimed:undname.obj
 0001:000507d0       ?raw_length@pDNameNode@@UEBAHXZ 00000001800517d0 f i libvcruntimed:undname.obj
 0001:000507e0       ?raw_length@pairNode@@UEBAHXZ 00000001800517e0 f i libvcruntimed:undname.obj
 0001:000507f0       ?raw_length@pcharNode@@UEBAHXZ 00000001800517f0 f i libvcruntimed:undname.obj
 0001:00050810       ?setIsArray@DName@@QEAAXXZ 0000000180051810 f i libvcruntimed:undname.obj
 0001:00050830       ?setIsComArray@DName@@QEAAXXZ 0000000180051830 f i libvcruntimed:undname.obj
 0001:00050850       ?setIsNoTE@DName@@QEAAXXZ  0000000180051850 f i libvcruntimed:undname.obj
 0001:00050870       ?setIsPinPtr@DName@@QEAAXXZ 0000000180051870 f i libvcruntimed:undname.obj
 0001:00050890       ?setIsUDC@DName@@QEAAXXZ   0000000180051890 f i libvcruntimed:undname.obj
 0001:000508c0       ?setIsVCallThunk@DName@@QEAAXXZ 00000001800518c0 f i libvcruntimed:undname.obj
 0001:000508e0       ?setPtrRef@DName@@QEAAAEAV1@XZ 00000001800518e0 f i libvcruntimed:undname.obj
 0001:00050900       ?status@DName@@QEBA?AW4DNameStatus@@XZ 0000000180051900 f i libvcruntimed:undname.obj
 0001:00050a30       __unDName                  0000000180051a30 f   libvcruntimed:undname.obj
 0001:00050a90       __unDNameEx                0000000180051a90 f   libvcruntimed:undname.obj
 0001:00050b50       unDNameGenerateCHPE        0000000180051b50 f   libvcruntimed:undname.obj
 0001:00050c00       ??$__crt_interlocked_exchange_pointer@UHINSTANCE__@@PEAU1@@@YAPEAUHINSTANCE__@@PEDSEAU0@QEAU0@@Z 0000000180051c00 f i libvcruntimed:winapi_downlevel.obj
 0001:00050c20       ??$__crt_interlocked_exchange_pointer@UHINSTANCE__@@PEAX@@YAPEAUHINSTANCE__@@PEDSEAU0@QEAX@Z 0000000180051c20 f i libvcruntimed:winapi_downlevel.obj
 0001:00050c40       ??$__crt_interlocked_exchange_pointer@XPEAX@@YAPEAXPEDSEAXQEAX@Z 0000000180051c40 f i libvcruntimed:winapi_downlevel.obj
 0001:00050c60       ??$__crt_interlocked_read_pointer@UHINSTANCE__@@@@YAPEAUHINSTANCE__@@PEDSEAU0@@Z 0000000180051c60 f i libvcruntimed:winapi_downlevel.obj
 0001:00050c80       ??$__crt_interlocked_read_pointer@X@@YAPEAXPEDSEAX@Z 0000000180051c80 f i libvcruntimed:winapi_downlevel.obj
 0001:00051190       __vcrt_FlsAlloc            0000000180052190 f   libvcruntimed:winapi_downlevel.obj
 0001:000511e0       __vcrt_FlsFree             00000001800521e0 f   libvcruntimed:winapi_downlevel.obj
 0001:00051230       __vcrt_FlsGetValue         0000000180052230 f   libvcruntimed:winapi_downlevel.obj
 0001:00051280       __vcrt_FlsSetValue         0000000180052280 f   libvcruntimed:winapi_downlevel.obj
 0001:000512e0       __vcrt_InitializeCriticalSectionEx 00000001800522e0 f   libvcruntimed:winapi_downlevel.obj
 0001:00051360       _CallSettingFrame          0000000180052360 f   libvcruntimed:handlers.obj
 0001:000513b0       _CallSettingFrame_LookupContinuationIndex 00000001800523b0 f   libvcruntimed:handlers.obj
 0001:000513e0       _CallSettingFrame_NotifyContinuationAddr 00000001800523e0 f   libvcruntimed:handlers.obj
 0001:00051410       _CallSettingFrameEncoded   0000000180052410 f   libvcruntimed:handlers.obj
 0001:00051460       ??$?0AEBV?$stream_output_adapter@D@__crt_stdio_output@@AEB_KAEBQEBDAEBQEAU__crt_locale_pointers@@AEBQEAD@?$format_validation_base@DV?$stream_output_adapter@D@__crt_stdio_output@@@__crt_stdio_output@@IEAA@AEBV?$stream_output_adapter@D@1@AEB_KAEBQEBDAEBQEAU__crt_locale_pointers@@AEBQEAD@Z 0000000180052460 f i libucrtd:output.obj
 0001:000514b0       ??$?0AEBV?$stream_output_adapter@D@__crt_stdio_output@@AEB_KAEBQEBDAEBQEAU__crt_locale_pointers@@AEBQEAD@?$positional_parameter_base@DV?$stream_output_adapter@D@__crt_stdio_output@@@__crt_stdio_output@@IEAA@AEBV?$stream_output_adapter@D@1@AEB_KAEBQEBDAEBQEAU__crt_locale_pointers@@AEBQEAD@Z 00000001800524b0 f i libucrtd:output.obj
 0001:00051550       ??$?0AEBV?$stream_output_adapter@D@__crt_stdio_output@@AEB_KAEBQEBDAEBQEAU__crt_locale_pointers@@AEBQEAD@?$standard_base@DV?$stream_output_adapter@D@__crt_stdio_output@@@__crt_stdio_output@@IEAA@AEBV?$stream_output_adapter@D@1@AEB_KAEBQEBDAEBQEAU__crt_locale_pointers@@AEBQEAD@Z 0000000180052550 f i libucrtd:output.obj
 0001:000515c0       ??$?0AEBV?$stream_output_adapter@_W@__crt_stdio_output@@AEB_KAEBQEB_WAEBQEAU__crt_locale_pointers@@AEBQEAD@?$format_validation_base@_WV?$stream_output_adapter@_W@__crt_stdio_output@@@__crt_stdio_output@@IEAA@AEBV?$stream_output_adapter@_W@1@AEB_KAEBQEB_WAEBQEAU__crt_locale_pointers@@AEBQEAD@Z 00000001800525c0 f i libucrtd:output.obj
 0001:00051610       ??$?0AEBV?$stream_output_adapter@_W@__crt_stdio_output@@AEB_KAEBQEB_WAEBQEAU__crt_locale_pointers@@AEBQEAD@?$positional_parameter_base@_WV?$stream_output_adapter@_W@__crt_stdio_output@@@__crt_stdio_output@@IEAA@AEBV?$stream_output_adapter@_W@1@AEB_KAEBQEB_WAEBQEAU__crt_locale_pointers@@AEBQEAD@Z 0000000180052610 f i libucrtd:output.obj
 0001:000516b0       ??$?0AEBV?$stream_output_adapter@_W@__crt_stdio_output@@AEB_KAEBQEB_WAEBQEAU__crt_locale_pointers@@AEBQEAD@?$standard_base@_WV?$stream_output_adapter@_W@__crt_stdio_output@@@__crt_stdio_output@@IEAA@AEBV?$stream_output_adapter@_W@1@AEB_KAEBQEB_WAEBQEAU__crt_locale_pointers@@AEBQEAD@Z 00000001800526b0 f i libucrtd:output.obj
 0001:00051720       ??$?0AEBV?$string_output_adapter@D@__crt_stdio_output@@AEB_KAEBQEBDAEBQEAU__crt_locale_pointers@@AEBQEAD@?$format_validation_base@DV?$string_output_adapter@D@__crt_stdio_output@@@__crt_stdio_output@@IEAA@AEBV?$string_output_adapter@D@1@AEB_KAEBQEBDAEBQEAU__crt_locale_pointers@@AEBQEAD@Z 0000000180052720 f i libucrtd:output.obj
 0001:00051770       ??$?0AEBV?$string_output_adapter@D@__crt_stdio_output@@AEB_KAEBQEBDAEBQEAU__crt_locale_pointers@@AEBQEAD@?$positional_parameter_base@DV?$string_output_adapter@D@__crt_stdio_output@@@__crt_stdio_output@@IEAA@AEBV?$string_output_adapter@D@1@AEB_KAEBQEBDAEBQEAU__crt_locale_pointers@@AEBQEAD@Z 0000000180052770 f i libucrtd:output.obj
 0001:00051810       ??$?0AEBV?$string_output_adapter@D@__crt_stdio_output@@AEB_KAEBQEBDAEBQEAU__crt_locale_pointers@@AEBQEAD@?$standard_base@DV?$string_output_adapter@D@__crt_stdio_output@@@__crt_stdio_output@@IEAA@AEBV?$string_output_adapter@D@1@AEB_KAEBQEBDAEBQEAU__crt_locale_pointers@@AEBQEAD@Z 0000000180052810 f i libucrtd:output.obj
 0001:00051880       ??$?0AEBV?$string_output_adapter@_W@__crt_stdio_output@@AEB_KAEBQEB_WAEBQEAU__crt_locale_pointers@@AEBQEAD@?$format_validation_base@_WV?$string_output_adapter@_W@__crt_stdio_output@@@__crt_stdio_output@@IEAA@AEBV?$string_output_adapter@_W@1@AEB_KAEBQEB_WAEBQEAU__crt_locale_pointers@@AEBQEAD@Z 0000000180052880 f i libucrtd:output.obj
 0001:000518d0       ??$?0AEBV?$string_output_adapter@_W@__crt_stdio_output@@AEB_KAEBQEB_WAEBQEAU__crt_locale_pointers@@AEBQEAD@?$positional_parameter_base@_WV?$string_output_adapter@_W@__crt_stdio_output@@@__crt_stdio_output@@IEAA@AEBV?$string_output_adapter@_W@1@AEB_KAEBQEB_WAEBQEAU__crt_locale_pointers@@AEBQEAD@Z 00000001800528d0 f i libucrtd:output.obj
 0001:00051970       ??$?0AEBV?$string_output_adapter@_W@__crt_stdio_output@@AEB_KAEBQEB_WAEBQEAU__crt_locale_pointers@@AEBQEAD@?$standard_base@_WV?$string_output_adapter@_W@__crt_stdio_output@@@__crt_stdio_output@@IEAA@AEBV?$string_output_adapter@_W@1@AEB_KAEBQEB_WAEBQEAU__crt_locale_pointers@@AEBQEAD@Z 0000000180052970 f i libucrtd:output.obj
 0001:00051da0       ??$__crt_interlocked_read@J@@YAJPEDJ@Z 0000000180052da0 f i libucrtd:output.obj
 0001:00055880       ??$count@D@formatting_buffer@__crt_stdio_output@@QEBA_KXZ 0000000180056880 f i libucrtd:output.obj
 0001:000558d0       ??$count@_W@formatting_buffer@__crt_stdio_output@@QEBA_KXZ 00000001800568d0 f i libucrtd:output.obj
 0001:00055920       ??$data@D@formatting_buffer@__crt_stdio_output@@QEAAPEADXZ 0000000180056920 f i libucrtd:output.obj
 0001:00055970       ??$data@_W@formatting_buffer@__crt_stdio_output@@QEAAPEA_WXZ 0000000180056970 f i libucrtd:output.obj
 0001:000559c0       ??$ensure_buffer_is_big_enough@D@formatting_buffer@__crt_stdio_output@@QEAA_N_K@Z 00000001800569c0 f i libucrtd:output.obj
 0001:00055af0       ??$ensure_buffer_is_big_enough@_W@formatting_buffer@__crt_stdio_output@@QEAA_N_K@Z 0000000180056af0 f i libucrtd:output.obj
 0001:00055c20       ??$extract_argument_from_va_list@C_J@?$positional_parameter_base@DV?$stream_output_adapter@D@__crt_stdio_output@@@__crt_stdio_output@@IEAA_NAEA_J@Z 0000000180056c20 f i libucrtd:output.obj
 0001:00055da0       ??$extract_argument_from_va_list@C_J@?$positional_parameter_base@DV?$string_output_adapter@D@__crt_stdio_output@@@__crt_stdio_output@@IEAA_NAEA_J@Z 0000000180056da0 f i libucrtd:output.obj
 0001:00055f20       ??$extract_argument_from_va_list@C_J@?$positional_parameter_base@_WV?$stream_output_adapter@_W@__crt_stdio_output@@@__crt_stdio_output@@IEAA_NAEA_J@Z 0000000180056f20 f i libucrtd:output.obj
 0001:000560a0       ??$extract_argument_from_va_list@C_J@?$positional_parameter_base@_WV?$string_output_adapter@_W@__crt_stdio_output@@@__crt_stdio_output@@IEAA_NAEA_J@Z 00000001800570a0 f i libucrtd:output.obj
 0001:00056220       ??$extract_argument_from_va_list@C_J@?$standard_base@DV?$stream_output_adapter@D@__crt_stdio_output@@@__crt_stdio_output@@IEAA_NAEA_J@Z 0000000180057220 f i libucrtd:output.obj
 0001:00056260       ??$extract_argument_from_va_list@C_J@?$standard_base@DV?$string_output_adapter@D@__crt_stdio_output@@@__crt_stdio_output@@IEAA_NAEA_J@Z 0000000180057260 f i libucrtd:output.obj
 0001:000562a0       ??$extract_argument_from_va_list@C_J@?$standard_base@_WV?$stream_output_adapter@_W@__crt_stdio_output@@@__crt_stdio_output@@IEAA_NAEA_J@Z 00000001800572a0 f i libucrtd:output.obj
 0001:000562e0       ??$extract_argument_from_va_list@C_J@?$standard_base@_WV?$string_output_adapter@_W@__crt_stdio_output@@@__crt_stdio_output@@IEAA_NAEA_J@Z 00000001800572e0 f i libucrtd:output.obj
 0001:00056320       ??$extract_argument_from_va_list@E_J@?$positional_parameter_base@DV?$stream_output_adapter@D@__crt_stdio_output@@@__crt_stdio_output@@IEAA_NAEA_J@Z 0000000180057320 f i libucrtd:output.obj
 0001:000564a0       ??$extract_argument_from_va_list@E_J@?$positional_parameter_base@DV?$string_output_adapter@D@__crt_stdio_output@@@__crt_stdio_output@@IEAA_NAEA_J@Z 00000001800574a0 f i libucrtd:output.obj
 0001:00056620       ??$extract_argument_from_va_list@E_J@?$positional_parameter_base@_WV?$stream_output_adapter@_W@__crt_stdio_output@@@__crt_stdio_output@@IEAA_NAEA_J@Z 0000000180057620 f i libucrtd:output.obj
 0001:000567a0       ??$extract_argument_from_va_list@E_J@?$positional_parameter_base@_WV?$string_output_adapter@_W@__crt_stdio_output@@@__crt_stdio_output@@IEAA_NAEA_J@Z 00000001800577a0 f i libucrtd:output.obj
 0001:00056920       ??$extract_argument_from_va_list@E_J@?$standard_base@DV?$stream_output_adapter@D@__crt_stdio_output@@@__crt_stdio_output@@IEAA_NAEA_J@Z 0000000180057920 f i libucrtd:output.obj
 0001:00056960       ??$extract_argument_from_va_list@E_J@?$standard_base@DV?$string_output_adapter@D@__crt_stdio_output@@@__crt_stdio_output@@IEAA_NAEA_J@Z 0000000180057960 f i libucrtd:output.obj
 0001:000569a0       ??$extract_argument_from_va_list@E_J@?$standard_base@_WV?$stream_output_adapter@_W@__crt_stdio_output@@@__crt_stdio_output@@IEAA_NAEA_J@Z 00000001800579a0 f i libucrtd:output.obj
 0001:000569e0       ??$extract_argument_from_va_list@E_J@?$standard_base@_WV?$string_output_adapter@_W@__crt_stdio_output@@@__crt_stdio_output@@IEAA_NAEA_J@Z 00000001800579e0 f i libucrtd:output.obj
 0001:00056a20       ??$extract_argument_from_va_list@F_J@?$positional_parameter_base@DV?$stream_output_adapter@D@__crt_stdio_output@@@__crt_stdio_output@@IEAA_NAEA_J@Z 0000000180057a20 f i libucrtd:output.obj
 0001:00056ba0       ??$extract_argument_from_va_list@F_J@?$positional_parameter_base@DV?$string_output_adapter@D@__crt_stdio_output@@@__crt_stdio_output@@IEAA_NAEA_J@Z 0000000180057ba0 f i libucrtd:output.obj
 0001:00056d20       ??$extract_argument_from_va_list@F_J@?$positional_parameter_base@_WV?$stream_output_adapter@_W@__crt_stdio_output@@@__crt_stdio_output@@IEAA_NAEA_J@Z 0000000180057d20 f i libucrtd:output.obj
 0001:00056ea0       ??$extract_argument_from_va_list@F_J@?$positional_parameter_base@_WV?$string_output_adapter@_W@__crt_stdio_output@@@__crt_stdio_output@@IEAA_NAEA_J@Z 0000000180057ea0 f i libucrtd:output.obj
 0001:00057020       ??$extract_argument_from_va_list@F_J@?$standard_base@DV?$stream_output_adapter@D@__crt_stdio_output@@@__crt_stdio_output@@IEAA_NAEA_J@Z 0000000180058020 f i libucrtd:output.obj
 0001:00057060       ??$extract_argument_from_va_list@F_J@?$standard_base@DV?$string_output_adapter@D@__crt_stdio_output@@@__crt_stdio_output@@IEAA_NAEA_J@Z 0000000180058060 f i libucrtd:output.obj
 0001:000570a0       ??$extract_argument_from_va_list@F_J@?$standard_base@_WV?$stream_output_adapter@_W@__crt_stdio_output@@@__crt_stdio_output@@IEAA_NAEA_J@Z 00000001800580a0 f i libucrtd:output.obj
 0001:000570e0       ??$extract_argument_from_va_list@F_J@?$standard_base@_WV?$string_output_adapter@_W@__crt_stdio_output@@@__crt_stdio_output@@IEAA_NAEA_J@Z 00000001800580e0 f i libucrtd:output.obj
 0001:00057120       ??$extract_argument_from_va_list@GD@?$positional_parameter_base@DV?$stream_output_adapter@D@__crt_stdio_output@@@__crt_stdio_output@@IEAA_NAEAD@Z 0000000180058120 f i libucrtd:output.obj
 0001:000572a0       ??$extract_argument_from_va_list@GD@?$positional_parameter_base@DV?$string_output_adapter@D@__crt_stdio_output@@@__crt_stdio_output@@IEAA_NAEAD@Z 00000001800582a0 f i libucrtd:output.obj
 0001:00057420       ??$extract_argument_from_va_list@GD@?$standard_base@DV?$stream_output_adapter@D@__crt_stdio_output@@@__crt_stdio_output@@IEAA_NAEAD@Z 0000000180058420 f i libucrtd:output.obj
 0001:00057450       ??$extract_argument_from_va_list@GD@?$standard_base@DV?$string_output_adapter@D@__crt_stdio_output@@@__crt_stdio_output@@IEAA_NAEAD@Z 0000000180058450 f i libucrtd:output.obj
 0001:00057480       ??$extract_argument_from_va_list@G_J@?$positional_parameter_base@DV?$stream_output_adapter@D@__crt_stdio_output@@@__crt_stdio_output@@IEAA_NAEA_J@Z 0000000180058480 f i libucrtd:output.obj
 0001:00057600       ??$extract_argument_from_va_list@G_J@?$positional_parameter_base@DV?$string_output_adapter@D@__crt_stdio_output@@@__crt_stdio_output@@IEAA_NAEA_J@Z 0000000180058600 f i libucrtd:output.obj
 0001:00057780       ??$extract_argument_from_va_list@G_J@?$positional_parameter_base@_WV?$stream_output_adapter@_W@__crt_stdio_output@@@__crt_stdio_output@@IEAA_NAEA_J@Z 0000000180058780 f i libucrtd:output.obj
 0001:00057900       ??$extract_argument_from_va_list@G_J@?$positional_parameter_base@_WV?$string_output_adapter@_W@__crt_stdio_output@@@__crt_stdio_output@@IEAA_NAEA_J@Z 0000000180058900 f i libucrtd:output.obj
 0001:00057a80       ??$extract_argument_from_va_list@G_J@?$standard_base@DV?$stream_output_adapter@D@__crt_stdio_output@@@__crt_stdio_output@@IEAA_NAEA_J@Z 0000000180058a80 f i libucrtd:output.obj
 0001:00057ac0       ??$extract_argument_from_va_list@G_J@?$standard_base@DV?$string_output_adapter@D@__crt_stdio_output@@@__crt_stdio_output@@IEAA_NAEA_J@Z 0000000180058ac0 f i libucrtd:output.obj
 0001:00057b00       ??$extract_argument_from_va_list@G_J@?$standard_base@_WV?$stream_output_adapter@_W@__crt_stdio_output@@@__crt_stdio_output@@IEAA_NAEA_J@Z 0000000180058b00 f i libucrtd:output.obj
 0001:00057b40       ??$extract_argument_from_va_list@G_J@?$standard_base@_WV?$string_output_adapter@_W@__crt_stdio_output@@@__crt_stdio_output@@IEAA_NAEA_J@Z 0000000180058b40 f i libucrtd:output.obj
 0001:00057b80       ??$extract_argument_from_va_list@H_J@?$positional_parameter_base@DV?$stream_output_adapter@D@__crt_stdio_output@@@__crt_stdio_output@@IEAA_NAEA_J@Z 0000000180058b80 f i libucrtd:output.obj
 0001:00057d00       ??$extract_argument_from_va_list@H_J@?$positional_parameter_base@DV?$string_output_adapter@D@__crt_stdio_output@@@__crt_stdio_output@@IEAA_NAEA_J@Z 0000000180058d00 f i libucrtd:output.obj
 0001:00057e80       ??$extract_argument_from_va_list@H_J@?$positional_parameter_base@_WV?$stream_output_adapter@_W@__crt_stdio_output@@@__crt_stdio_output@@IEAA_NAEA_J@Z 0000000180058e80 f i libucrtd:output.obj
 0001:00058000       ??$extract_argument_from_va_list@H_J@?$positional_parameter_base@_WV?$string_output_adapter@_W@__crt_stdio_output@@@__crt_stdio_output@@IEAA_NAEA_J@Z 0000000180059000 f i libucrtd:output.obj
 0001:00058180       ??$extract_argument_from_va_list@H_J@?$standard_base@DV?$stream_output_adapter@D@__crt_stdio_output@@@__crt_stdio_output@@IEAA_NAEA_J@Z 0000000180059180 f i libucrtd:output.obj
 0001:000581b0       ??$extract_argument_from_va_list@H_J@?$standard_base@DV?$string_output_adapter@D@__crt_stdio_output@@@__crt_stdio_output@@IEAA_NAEA_J@Z 00000001800591b0 f i libucrtd:output.obj
 0001:000581e0       ??$extract_argument_from_va_list@H_J@?$standard_base@_WV?$stream_output_adapter@_W@__crt_stdio_output@@@__crt_stdio_output@@IEAA_NAEA_J@Z 00000001800591e0 f i libucrtd:output.obj
 0001:00058210       ??$extract_argument_from_va_list@H_J@?$standard_base@_WV?$string_output_adapter@_W@__crt_stdio_output@@@__crt_stdio_output@@IEAA_NAEA_J@Z 0000000180059210 f i libucrtd:output.obj
 0001:00058240       ??$extract_argument_from_va_list@I_J@?$positional_parameter_base@DV?$stream_output_adapter@D@__crt_stdio_output@@@__crt_stdio_output@@IEAA_NAEA_J@Z 0000000180059240 f i libucrtd:output.obj
 0001:000583c0       ??$extract_argument_from_va_list@I_J@?$positional_parameter_base@DV?$string_output_adapter@D@__crt_stdio_output@@@__crt_stdio_output@@IEAA_NAEA_J@Z 00000001800593c0 f i libucrtd:output.obj
 0001:00058540       ??$extract_argument_from_va_list@I_J@?$positional_parameter_base@_WV?$stream_output_adapter@_W@__crt_stdio_output@@@__crt_stdio_output@@IEAA_NAEA_J@Z 0000000180059540 f i libucrtd:output.obj
 0001:000586c0       ??$extract_argument_from_va_list@I_J@?$positional_parameter_base@_WV?$string_output_adapter@_W@__crt_stdio_output@@@__crt_stdio_output@@IEAA_NAEA_J@Z 00000001800596c0 f i libucrtd:output.obj
 0001:00058840       ??$extract_argument_from_va_list@I_J@?$standard_base@DV?$stream_output_adapter@D@__crt_stdio_output@@@__crt_stdio_output@@IEAA_NAEA_J@Z 0000000180059840 f i libucrtd:output.obj
 0001:00058870       ??$extract_argument_from_va_list@I_J@?$standard_base@DV?$string_output_adapter@D@__crt_stdio_output@@@__crt_stdio_output@@IEAA_NAEA_J@Z 0000000180059870 f i libucrtd:output.obj
 0001:000588a0       ??$extract_argument_from_va_list@I_J@?$standard_base@_WV?$stream_output_adapter@_W@__crt_stdio_output@@@__crt_stdio_output@@IEAA_NAEA_J@Z 00000001800598a0 f i libucrtd:output.obj
 0001:000588d0       ??$extract_argument_from_va_list@I_J@?$standard_base@_WV?$string_output_adapter@_W@__crt_stdio_output@@@__crt_stdio_output@@IEAA_NAEA_J@Z 00000001800598d0 f i libucrtd:output.obj
 0001:00058900       ??$extract_argument_from_va_list@PEADPEAD@?$positional_parameter_base@DV?$stream_output_adapter@D@__crt_stdio_output@@@__crt_stdio_output@@IEAA_NAEAPEAD@Z 0000000180059900 f i libucrtd:output.obj
 0001:00058a80       ??$extract_argument_from_va_list@PEADPEAD@?$positional_parameter_base@DV?$string_output_adapter@D@__crt_stdio_output@@@__crt_stdio_output@@IEAA_NAEAPEAD@Z 0000000180059a80 f i libucrtd:output.obj
 0001:00058c00       ??$extract_argument_from_va_list@PEADPEAD@?$positional_parameter_base@_WV?$stream_output_adapter@_W@__crt_stdio_output@@@__crt_stdio_output@@IEAA_NAEAPEAD@Z 0000000180059c00 f i libucrtd:output.obj
 0001:00058d80       ??$extract_argument_from_va_list@PEADPEAD@?$positional_parameter_base@_WV?$string_output_adapter@_W@__crt_stdio_output@@@__crt_stdio_output@@IEAA_NAEAPEAD@Z 0000000180059d80 f i libucrtd:output.obj
 0001:00058f00       ??$extract_argument_from_va_list@PEADPEAD@?$standard_base@DV?$stream_output_adapter@D@__crt_stdio_output@@@__crt_stdio_output@@IEAA_NAEAPEAD@Z 0000000180059f00 f i libucrtd:output.obj
 0001:00058f30       ??$extract_argument_from_va_list@PEADPEAD@?$standard_base@DV?$string_output_adapter@D@__crt_stdio_output@@@__crt_stdio_output@@IEAA_NAEAPEAD@Z 0000000180059f30 f i libucrtd:output.obj
 0001:00058f60       ??$extract_argument_from_va_list@PEADPEAD@?$standard_base@_WV?$stream_output_adapter@_W@__crt_stdio_output@@@__crt_stdio_output@@IEAA_NAEAPEAD@Z 0000000180059f60 f i libucrtd:output.obj
 0001:00058f90       ??$extract_argument_from_va_list@PEADPEAD@?$standard_base@_WV?$string_output_adapter@_W@__crt_stdio_output@@@__crt_stdio_output@@IEAA_NAEAPEAD@Z 0000000180059f90 f i libucrtd:output.obj
 0001:00058fc0       ??$extract_argument_from_va_list@PEAUansi_string@?1??type_case_Z@?$output_processor@DV?$stream_output_adapter@D@__crt_stdio_output@@V?$format_validation_base@DV?$stream_output_adapter@D@__crt_stdio_output@@@2@@__crt_stdio_output@@AEAA_NXZ@PEAU1?1??234@AEAA_NXZ@@?$standard_base@DV?$stream_output_adapter@D@__crt_stdio_output@@@__crt_stdio_output@@IEAA_NAEAPEAUansi_string@?1??type_case_Z@?$output_processor@DV?$stream_output_adapter@D@__crt_stdio_output@@V?$format_validation_base@DV?$stream_output_adapter@D@__crt_stdio_output@@@2@@1@AEAA_NXZ@@Z 0000000180059fc0 f i libucrtd:output.obj
 0001:00058ff0       ??$extract_argument_from_va_list@PEAUansi_string@?1??type_case_Z@?$output_processor@DV?$stream_output_adapter@D@__crt_stdio_output@@V?$positional_parameter_base@DV?$stream_output_adapter@D@__crt_stdio_output@@@2@@__crt_stdio_output@@AEAA_NXZ@PEAU1?1??234@AEAA_NXZ@@?$positional_parameter_base@DV?$stream_output_adapter@D@__crt_stdio_output@@@__crt_stdio_output@@IEAA_NAEAPEAUansi_string@?1??type_case_Z@?$output_processor@DV?$stream_output_adapter@D@__crt_stdio_output@@V?$positional_parameter_base@DV?$stream_output_adapter@D@__crt_stdio_output@@@2@@1@AEAA_NXZ@@Z 0000000180059ff0 f i libucrtd:output.obj
 0001:00059170       ??$extract_argument_from_va_list@PEAUansi_string@?1??type_case_Z@?$output_processor@DV?$stream_output_adapter@D@__crt_stdio_output@@V?$positional_parameter_base@DV?$stream_output_adapter@D@__crt_stdio_output@@@2@@__crt_stdio_output@@AEAA_NXZ@PEAU1?1??234@AEAA_NXZ@@?$standard_base@DV?$stream_output_adapter@D@__crt_stdio_output@@@__crt_stdio_output@@IEAA_NAEAPEAUansi_string@?1??type_case_Z@?$output_processor@DV?$stream_output_adapter@D@__crt_stdio_output@@V?$positional_parameter_base@DV?$stream_output_adapter@D@__crt_stdio_output@@@2@@1@AEAA_NXZ@@Z 000000018005a170 f i libucrtd:output.obj
 0001:000591a0       ??$extract_argument_from_va_list@PEAUansi_string@?1??type_case_Z@?$output_processor@DV?$stream_output_adapter@D@__crt_stdio_output@@V?$standard_base@DV?$stream_output_adapter@D@__crt_stdio_output@@@2@@__crt_stdio_output@@AEAA_NXZ@PEAU1?1??234@AEAA_NXZ@@?$standard_base@DV?$stream_output_adapter@D@__crt_stdio_output@@@__crt_stdio_output@@IEAA_NAEAPEAUansi_string@?1??type_case_Z@?$output_processor@DV?$stream_output_adapter@D@__crt_stdio_output@@V?$standard_base@DV?$stream_output_adapter@D@__crt_stdio_output@@@2@@1@AEAA_NXZ@@Z 000000018005a1a0 f i libucrtd:output.obj
 0001:000591d0       ??$extract_argument_from_va_list@PEAUansi_string@?1??type_case_Z@?$output_processor@DV?$string_output_adapter@D@__crt_stdio_output@@V?$format_validation_base@DV?$string_output_adapter@D@__crt_stdio_output@@@2@@__crt_stdio_output@@AEAA_NXZ@PEAU1?1??234@AEAA_NXZ@@?$standard_base@DV?$string_output_adapter@D@__crt_stdio_output@@@__crt_stdio_output@@IEAA_NAEAPEAUansi_string@?1??type_case_Z@?$output_processor@DV?$string_output_adapter@D@__crt_stdio_output@@V?$format_validation_base@DV?$string_output_adapter@D@__crt_stdio_output@@@2@@1@AEAA_NXZ@@Z 000000018005a1d0 f i libucrtd:output.obj
 0001:00059200       ??$extract_argument_from_va_list@PEAUansi_string@?1??type_case_Z@?$output_processor@DV?$string_output_adapter@D@__crt_stdio_output@@V?$positional_parameter_base@DV?$string_output_adapter@D@__crt_stdio_output@@@2@@__crt_stdio_output@@AEAA_NXZ@PEAU1?1??234@AEAA_NXZ@@?$positional_parameter_base@DV?$string_output_adapter@D@__crt_stdio_output@@@__crt_stdio_output@@IEAA_NAEAPEAUansi_string@?1??type_case_Z@?$output_processor@DV?$string_output_adapter@D@__crt_stdio_output@@V?$positional_parameter_base@DV?$string_output_adapter@D@__crt_stdio_output@@@2@@1@AEAA_NXZ@@Z 000000018005a200 f i libucrtd:output.obj
 0001:00059380       ??$extract_argument_from_va_list@PEAUansi_string@?1??type_case_Z@?$output_processor@DV?$string_output_adapter@D@__crt_stdio_output@@V?$positional_parameter_base@DV?$string_output_adapter@D@__crt_stdio_output@@@2@@__crt_stdio_output@@AEAA_NXZ@PEAU1?1??234@AEAA_NXZ@@?$standard_base@DV?$string_output_adapter@D@__crt_stdio_output@@@__crt_stdio_output@@IEAA_NAEAPEAUansi_string@?1??type_case_Z@?$output_processor@DV?$string_output_adapter@D@__crt_stdio_output@@V?$positional_parameter_base@DV?$string_output_adapter@D@__crt_stdio_output@@@2@@1@AEAA_NXZ@@Z 000000018005a380 f i libucrtd:output.obj
 0001:000593b0       ??$extract_argument_from_va_list@PEAUansi_string@?1??type_case_Z@?$output_processor@DV?$string_output_adapter@D@__crt_stdio_output@@V?$standard_base@DV?$string_output_adapter@D@__crt_stdio_output@@@2@@__crt_stdio_output@@AEAA_NXZ@PEAU1?1??234@AEAA_NXZ@@?$standard_base@DV?$string_output_adapter@D@__crt_stdio_output@@@__crt_stdio_output@@IEAA_NAEAPEAUansi_string@?1??type_case_Z@?$output_processor@DV?$string_output_adapter@D@__crt_stdio_output@@V?$standard_base@DV?$string_output_adapter@D@__crt_stdio_output@@@2@@1@AEAA_NXZ@@Z 000000018005a3b0 f i libucrtd:output.obj
 0001:000593e0       ??$extract_argument_from_va_list@PEAUansi_string@?1??type_case_Z@?$output_processor@_WV?$stream_output_adapter@_W@__crt_stdio_output@@V?$format_validation_base@_WV?$stream_output_adapter@_W@__crt_stdio_output@@@2@@__crt_stdio_output@@AEAA_NXZ@PEAU1?1??234@AEAA_NXZ@@?$standard_base@_WV?$stream_output_adapter@_W@__crt_stdio_output@@@__crt_stdio_output@@IEAA_NAEAPEAUansi_string@?1??type_case_Z@?$output_processor@_WV?$stream_output_adapter@_W@__crt_stdio_output@@V?$format_validation_base@_WV?$stream_output_adapter@_W@__crt_stdio_output@@@2@@1@AEAA_NXZ@@Z 000000018005a3e0 f i libucrtd:output.obj
 0001:00059410       ??$extract_argument_from_va_list@PEAUansi_string@?1??type_case_Z@?$output_processor@_WV?$stream_output_adapter@_W@__crt_stdio_output@@V?$positional_parameter_base@_WV?$stream_output_adapter@_W@__crt_stdio_output@@@2@@__crt_stdio_output@@AEAA_NXZ@PEAU1?1??234@AEAA_NXZ@@?$positional_parameter_base@_WV?$stream_output_adapter@_W@__crt_stdio_output@@@__crt_stdio_output@@IEAA_NAEAPEAUansi_string@?1??type_case_Z@?$output_processor@_WV?$stream_output_adapter@_W@__crt_stdio_output@@V?$positional_parameter_base@_WV?$stream_output_adapter@_W@__crt_stdio_output@@@2@@1@AEAA_NXZ@@Z 000000018005a410 f i libucrtd:output.obj
 0001:00059590       ??$extract_argument_from_va_list@PEAUansi_string@?1??type_case_Z@?$output_processor@_WV?$stream_output_adapter@_W@__crt_stdio_output@@V?$positional_parameter_base@_WV?$stream_output_adapter@_W@__crt_stdio_output@@@2@@__crt_stdio_output@@AEAA_NXZ@PEAU1?1??234@AEAA_NXZ@@?$standard_base@_WV?$stream_output_adapter@_W@__crt_stdio_output@@@__crt_stdio_output@@IEAA_NAEAPEAUansi_string@?1??type_case_Z@?$output_processor@_WV?$stream_output_adapter@_W@__crt_stdio_output@@V?$positional_parameter_base@_WV?$stream_output_adapter@_W@__crt_stdio_output@@@2@@1@AEAA_NXZ@@Z 000000018005a590 f i libucrtd:output.obj
 0001:000595c0       ??$extract_argument_from_va_list@PEAUansi_string@?1??type_case_Z@?$output_processor@_WV?$stream_output_adapter@_W@__crt_stdio_output@@V?$standard_base@_WV?$stream_output_adapter@_W@__crt_stdio_output@@@2@@__crt_stdio_output@@AEAA_NXZ@PEAU1?1??234@AEAA_NXZ@@?$standard_base@_WV?$stream_output_adapter@_W@__crt_stdio_output@@@__crt_stdio_output@@IEAA_NAEAPEAUansi_string@?1??type_case_Z@?$output_processor@_WV?$stream_output_adapter@_W@__crt_stdio_output@@V?$standard_base@_WV?$stream_output_adapter@_W@__crt_stdio_output@@@2@@1@AEAA_NXZ@@Z 000000018005a5c0 f i libucrtd:output.obj
 0001:000595f0       ??$extract_argument_from_va_list@PEAUansi_string@?1??type_case_Z@?$output_processor@_WV?$string_output_adapter@_W@__crt_stdio_output@@V?$format_validation_base@_WV?$string_output_adapter@_W@__crt_stdio_output@@@2@@__crt_stdio_output@@AEAA_NXZ@PEAU1?1??234@AEAA_NXZ@@?$standard_base@_WV?$string_output_adapter@_W@__crt_stdio_output@@@__crt_stdio_output@@IEAA_NAEAPEAUansi_string@?1??type_case_Z@?$output_processor@_WV?$string_output_adapter@_W@__crt_stdio_output@@V?$format_validation_base@_WV?$string_output_adapter@_W@__crt_stdio_output@@@2@@1@AEAA_NXZ@@Z 000000018005a5f0 f i libucrtd:output.obj
 0001:00059620       ??$extract_argument_from_va_list@PEAUansi_string@?1??type_case_Z@?$output_processor@_WV?$string_output_adapter@_W@__crt_stdio_output@@V?$positional_parameter_base@_WV?$string_output_adapter@_W@__crt_stdio_output@@@2@@__crt_stdio_output@@AEAA_NXZ@PEAU1?1??234@AEAA_NXZ@@?$positional_parameter_base@_WV?$string_output_adapter@_W@__crt_stdio_output@@@__crt_stdio_output@@IEAA_NAEAPEAUansi_string@?1??type_case_Z@?$output_processor@_WV?$string_output_adapter@_W@__crt_stdio_output@@V?$positional_parameter_base@_WV?$string_output_adapter@_W@__crt_stdio_output@@@2@@1@AEAA_NXZ@@Z 000000018005a620 f i libucrtd:output.obj
 0001:000597a0       ??$extract_argument_from_va_list@PEAUansi_string@?1??type_case_Z@?$output_processor@_WV?$string_output_adapter@_W@__crt_stdio_output@@V?$positional_parameter_base@_WV?$string_output_adapter@_W@__crt_stdio_output@@@2@@__crt_stdio_output@@AEAA_NXZ@PEAU1?1??234@AEAA_NXZ@@?$standard_base@_WV?$string_output_adapter@_W@__crt_stdio_output@@@__crt_stdio_output@@IEAA_NAEAPEAUansi_string@?1??type_case_Z@?$output_processor@_WV?$string_output_adapter@_W@__crt_stdio_output@@V?$positional_parameter_base@_WV?$string_output_adapter@_W@__crt_stdio_output@@@2@@1@AEAA_NXZ@@Z 000000018005a7a0 f i libucrtd:output.obj
 0001:000597d0       ??$extract_argument_from_va_list@PEAUansi_string@?1??type_case_Z@?$output_processor@_WV?$string_output_adapter@_W@__crt_stdio_output@@V?$standard_base@_WV?$string_output_adapter@_W@__crt_stdio_output@@@2@@__crt_stdio_output@@AEAA_NXZ@PEAU1?1??234@AEAA_NXZ@@?$standard_base@_WV?$string_output_adapter@_W@__crt_stdio_output@@@__crt_stdio_output@@IEAA_NAEAPEAUansi_string@?1??type_case_Z@?$output_processor@_WV?$string_output_adapter@_W@__crt_stdio_output@@V?$standard_base@_WV?$string_output_adapter@_W@__crt_stdio_output@@@2@@1@AEAA_NXZ@@Z 000000018005a7d0 f i libucrtd:output.obj
 0001:00059800       ??$extract_argument_from_va_list@PEAXPEAX@?$positional_parameter_base@DV?$stream_output_adapter@D@__crt_stdio_output@@@__crt_stdio_output@@IEAA_NAEAPEAX@Z 000000018005a800 f i libucrtd:output.obj
 0001:00059980       ??$extract_argument_from_va_list@PEAXPEAX@?$positional_parameter_base@DV?$string_output_adapter@D@__crt_stdio_output@@@__crt_stdio_output@@IEAA_NAEAPEAX@Z 000000018005a980 f i libucrtd:output.obj
 0001:00059b00       ??$extract_argument_from_va_list@PEAXPEAX@?$positional_parameter_base@_WV?$stream_output_adapter@_W@__crt_stdio_output@@@__crt_stdio_output@@IEAA_NAEAPEAX@Z 000000018005ab00 f i libucrtd:output.obj
 0001:00059c80       ??$extract_argument_from_va_list@PEAXPEAX@?$positional_parameter_base@_WV?$string_output_adapter@_W@__crt_stdio_output@@@__crt_stdio_output@@IEAA_NAEAPEAX@Z 000000018005ac80 f i libucrtd:output.obj
 0001:00059e00       ??$extract_argument_from_va_list@PEAXPEAX@?$standard_base@DV?$stream_output_adapter@D@__crt_stdio_output@@@__crt_stdio_output@@IEAA_NAEAPEAX@Z 000000018005ae00 f i libucrtd:output.obj
 0001:00059e30       ??$extract_argument_from_va_list@PEAXPEAX@?$standard_base@DV?$string_output_adapter@D@__crt_stdio_output@@@__crt_stdio_output@@IEAA_NAEAPEAX@Z 000000018005ae30 f i libucrtd:output.obj
 0001:00059e60       ??$extract_argument_from_va_list@PEAXPEAX@?$standard_base@_WV?$stream_output_adapter@_W@__crt_stdio_output@@@__crt_stdio_output@@IEAA_NAEAPEAX@Z 000000018005ae60 f i libucrtd:output.obj
 0001:00059e90       ??$extract_argument_from_va_list@PEAXPEAX@?$standard_base@_WV?$string_output_adapter@_W@__crt_stdio_output@@@__crt_stdio_output@@IEAA_NAEAPEAX@Z 000000018005ae90 f i libucrtd:output.obj
 0001:00059ec0       ??$extract_argument_from_va_list@U_CRT_DOUBLE@@U1@@?$positional_parameter_base@DV?$stream_output_adapter@D@__crt_stdio_output@@@__crt_stdio_output@@IEAA_NAEAU_CRT_DOUBLE@@@Z 000000018005aec0 f i libucrtd:output.obj
 0001:0005a060       ??$extract_argument_from_va_list@U_CRT_DOUBLE@@U1@@?$positional_parameter_base@DV?$string_output_adapter@D@__crt_stdio_output@@@__crt_stdio_output@@IEAA_NAEAU_CRT_DOUBLE@@@Z 000000018005b060 f i libucrtd:output.obj
 0001:0005a200       ??$extract_argument_from_va_list@U_CRT_DOUBLE@@U1@@?$positional_parameter_base@_WV?$stream_output_adapter@_W@__crt_stdio_output@@@__crt_stdio_output@@IEAA_NAEAU_CRT_DOUBLE@@@Z 000000018005b200 f i libucrtd:output.obj
 0001:0005a3a0       ??$extract_argument_from_va_list@U_CRT_DOUBLE@@U1@@?$positional_parameter_base@_WV?$string_output_adapter@_W@__crt_stdio_output@@@__crt_stdio_output@@IEAA_NAEAU_CRT_DOUBLE@@@Z 000000018005b3a0 f i libucrtd:output.obj
 0001:0005a540       ??$extract_argument_from_va_list@U_CRT_DOUBLE@@U1@@?$standard_base@DV?$stream_output_adapter@D@__crt_stdio_output@@@__crt_stdio_output@@IEAA_NAEAU_CRT_DOUBLE@@@Z 000000018005b540 f i libucrtd:output.obj
 0001:0005a590       ??$extract_argument_from_va_list@U_CRT_DOUBLE@@U1@@?$standard_base@DV?$string_output_adapter@D@__crt_stdio_output@@@__crt_stdio_output@@IEAA_NAEAU_CRT_DOUBLE@@@Z 000000018005b590 f i libucrtd:output.obj
 0001:0005a5e0       ??$extract_argument_from_va_list@U_CRT_DOUBLE@@U1@@?$standard_base@_WV?$stream_output_adapter@_W@__crt_stdio_output@@@__crt_stdio_output@@IEAA_NAEAU_CRT_DOUBLE@@@Z 000000018005b5e0 f i libucrtd:output.obj
 0001:0005a630       ??$extract_argument_from_va_list@U_CRT_DOUBLE@@U1@@?$standard_base@_WV?$string_output_adapter@_W@__crt_stdio_output@@@__crt_stdio_output@@IEAA_NAEAU_CRT_DOUBLE@@@Z 000000018005b630 f i libucrtd:output.obj
 0001:0005a680       ??$extract_argument_from_va_list@_J_J@?$positional_parameter_base@DV?$stream_output_adapter@D@__crt_stdio_output@@@__crt_stdio_output@@IEAA_NAEA_J@Z 000000018005b680 f i libucrtd:output.obj
 0001:0005a800       ??$extract_argument_from_va_list@_J_J@?$positional_parameter_base@DV?$string_output_adapter@D@__crt_stdio_output@@@__crt_stdio_output@@IEAA_NAEA_J@Z 000000018005b800 f i libucrtd:output.obj
 0001:0005a980       ??$extract_argument_from_va_list@_J_J@?$positional_parameter_base@_WV?$stream_output_adapter@_W@__crt_stdio_output@@@__crt_stdio_output@@IEAA_NAEA_J@Z 000000018005b980 f i libucrtd:output.obj
 0001:0005ab00       ??$extract_argument_from_va_list@_J_J@?$positional_parameter_base@_WV?$string_output_adapter@_W@__crt_stdio_output@@@__crt_stdio_output@@IEAA_NAEA_J@Z 000000018005bb00 f i libucrtd:output.obj
 0001:0005ac80       ??$extract_argument_from_va_list@_J_J@?$standard_base@DV?$stream_output_adapter@D@__crt_stdio_output@@@__crt_stdio_output@@IEAA_NAEA_J@Z 000000018005bc80 f i libucrtd:output.obj
 0001:0005acb0       ??$extract_argument_from_va_list@_J_J@?$standard_base@DV?$string_output_adapter@D@__crt_stdio_output@@@__crt_stdio_output@@IEAA_NAEA_J@Z 000000018005bcb0 f i libucrtd:output.obj
 0001:0005ace0       ??$extract_argument_from_va_list@_J_J@?$standard_base@_WV?$stream_output_adapter@_W@__crt_stdio_output@@@__crt_stdio_output@@IEAA_NAEA_J@Z 000000018005bce0 f i libucrtd:output.obj
 0001:0005ad10       ??$extract_argument_from_va_list@_J_J@?$standard_base@_WV?$string_output_adapter@_W@__crt_stdio_output@@@__crt_stdio_output@@IEAA_NAEA_J@Z 000000018005bd10 f i libucrtd:output.obj
 0001:0005ad40       ??$extract_argument_from_va_list@_K_J@?$positional_parameter_base@DV?$stream_output_adapter@D@__crt_stdio_output@@@__crt_stdio_output@@IEAA_NAEA_J@Z 000000018005bd40 f i libucrtd:output.obj
 0001:0005aec0       ??$extract_argument_from_va_list@_K_J@?$positional_parameter_base@DV?$string_output_adapter@D@__crt_stdio_output@@@__crt_stdio_output@@IEAA_NAEA_J@Z 000000018005bec0 f i libucrtd:output.obj
 0001:0005b040       ??$extract_argument_from_va_list@_K_J@?$positional_parameter_base@_WV?$stream_output_adapter@_W@__crt_stdio_output@@@__crt_stdio_output@@IEAA_NAEA_J@Z 000000018005c040 f i libucrtd:output.obj
 0001:0005b1c0       ??$extract_argument_from_va_list@_K_J@?$positional_parameter_base@_WV?$string_output_adapter@_W@__crt_stdio_output@@@__crt_stdio_output@@IEAA_NAEA_J@Z 000000018005c1c0 f i libucrtd:output.obj
 0001:0005b340       ??$extract_argument_from_va_list@_K_J@?$standard_base@DV?$stream_output_adapter@D@__crt_stdio_output@@@__crt_stdio_output@@IEAA_NAEA_J@Z 000000018005c340 f i libucrtd:output.obj
 0001:0005b370       ??$extract_argument_from_va_list@_K_J@?$standard_base@DV?$string_output_adapter@D@__crt_stdio_output@@@__crt_stdio_output@@IEAA_NAEA_J@Z 000000018005c370 f i libucrtd:output.obj
 0001:0005b3a0       ??$extract_argument_from_va_list@_K_J@?$standard_base@_WV?$stream_output_adapter@_W@__crt_stdio_output@@@__crt_stdio_output@@IEAA_NAEA_J@Z 000000018005c3a0 f i libucrtd:output.obj
 0001:0005b3d0       ??$extract_argument_from_va_list@_K_J@?$standard_base@_WV?$string_output_adapter@_W@__crt_stdio_output@@@__crt_stdio_output@@IEAA_NAEA_J@Z 000000018005c3d0 f i libucrtd:output.obj
 0001:0005b400       ??$extract_argument_from_va_list@_W_W@?$positional_parameter_base@DV?$stream_output_adapter@D@__crt_stdio_output@@@__crt_stdio_output@@IEAA_NAEA_W@Z 000000018005c400 f i libucrtd:output.obj
 0001:0005b580       ??$extract_argument_from_va_list@_W_W@?$positional_parameter_base@DV?$string_output_adapter@D@__crt_stdio_output@@@__crt_stdio_output@@IEAA_NAEA_W@Z 000000018005c580 f i libucrtd:output.obj
 0001:0005b700       ??$extract_argument_from_va_list@_W_W@?$positional_parameter_base@_WV?$stream_output_adapter@_W@__crt_stdio_output@@@__crt_stdio_output@@IEAA_NAEA_W@Z 000000018005c700 f i libucrtd:output.obj
 0001:0005b880       ??$extract_argument_from_va_list@_W_W@?$positional_parameter_base@_WV?$string_output_adapter@_W@__crt_stdio_output@@@__crt_stdio_output@@IEAA_NAEA_W@Z 000000018005c880 f i libucrtd:output.obj
 0001:0005ba00       ??$extract_argument_from_va_list@_W_W@?$standard_base@DV?$stream_output_adapter@D@__crt_stdio_output@@@__crt_stdio_output@@IEAA_NAEA_W@Z 000000018005ca00 f i libucrtd:output.obj
 0001:0005ba30       ??$extract_argument_from_va_list@_W_W@?$standard_base@DV?$string_output_adapter@D@__crt_stdio_output@@@__crt_stdio_output@@IEAA_NAEA_W@Z 000000018005ca30 f i libucrtd:output.obj
 0001:0005ba60       ??$extract_argument_from_va_list@_W_W@?$standard_base@_WV?$stream_output_adapter@_W@__crt_stdio_output@@@__crt_stdio_output@@IEAA_NAEA_W@Z 000000018005ca60 f i libucrtd:output.obj
 0001:0005ba90       ??$extract_argument_from_va_list@_W_W@?$standard_base@_WV?$string_output_adapter@_W@__crt_stdio_output@@@__crt_stdio_output@@IEAA_NAEA_W@Z 000000018005ca90 f i libucrtd:output.obj
 0001:0005bac0       ??$get_parameter_type@D@?$positional_parameter_base@DV?$stream_output_adapter@D@__crt_stdio_output@@@__crt_stdio_output@@CA?AW4parameter_type@01@PEAD@Z 000000018005cac0 f i libucrtd:output.obj
 0001:0005bad0       ??$get_parameter_type@D@?$positional_parameter_base@DV?$string_output_adapter@D@__crt_stdio_output@@@__crt_stdio_output@@CA?AW4parameter_type@01@PEAD@Z 000000018005cad0 f i libucrtd:output.obj
 0001:0005bae0       ??$get_parameter_type@D@?$positional_parameter_base@_WV?$stream_output_adapter@_W@__crt_stdio_output@@@__crt_stdio_output@@CA?AW4parameter_type@01@PEAD@Z 000000018005cae0 f i libucrtd:output.obj
 0001:0005baf0       ??$get_parameter_type@D@?$positional_parameter_base@_WV?$string_output_adapter@_W@__crt_stdio_output@@@__crt_stdio_output@@CA?AW4parameter_type@01@PEAD@Z 000000018005caf0 f i libucrtd:output.obj
 0001:0005bb00       ??$get_parameter_type@Uansi_string@?1??type_case_Z@?$output_processor@DV?$stream_output_adapter@D@__crt_stdio_output@@V?$positional_parameter_base@DV?$stream_output_adapter@D@__crt_stdio_output@@@2@@__crt_stdio_output@@AEAA_NXZ@@?$positional_parameter_base@DV?$stream_output_adapter@D@__crt_stdio_output@@@__crt_stdio_output@@CA?AW4parameter_type@01@PEAUansi_string@?1??type_case_Z@?$output_processor@DV?$stream_output_adapter@D@__crt_stdio_output@@V?$positional_parameter_base@DV?$stream_output_adapter@D@__crt_stdio_output@@@2@@1@AEAA_NXZ@@Z 000000018005cb00 f i libucrtd:output.obj
 0001:0005bb10       ??$get_parameter_type@Uansi_string@?1??type_case_Z@?$output_processor@DV?$string_output_adapter@D@__crt_stdio_output@@V?$positional_parameter_base@DV?$string_output_adapter@D@__crt_stdio_output@@@2@@__crt_stdio_output@@AEAA_NXZ@@?$positional_parameter_base@DV?$string_output_adapter@D@__crt_stdio_output@@@__crt_stdio_output@@CA?AW4parameter_type@01@PEAUansi_string@?1??type_case_Z@?$output_processor@DV?$string_output_adapter@D@__crt_stdio_output@@V?$positional_parameter_base@DV?$string_output_adapter@D@__crt_stdio_output@@@2@@1@AEAA_NXZ@@Z 000000018005cb10 f i libucrtd:output.obj
 0001:0005bb20       ??$get_parameter_type@Uansi_string@?1??type_case_Z@?$output_processor@_WV?$stream_output_adapter@_W@__crt_stdio_output@@V?$positional_parameter_base@_WV?$stream_output_adapter@_W@__crt_stdio_output@@@2@@__crt_stdio_output@@AEAA_NXZ@@?$positional_parameter_base@_WV?$stream_output_adapter@_W@__crt_stdio_output@@@__crt_stdio_output@@CA?AW4parameter_type@01@PEAUansi_string@?1??type_case_Z@?$output_processor@_WV?$stream_output_adapter@_W@__crt_stdio_output@@V?$positional_parameter_base@_WV?$stream_output_adapter@_W@__crt_stdio_output@@@2@@1@AEAA_NXZ@@Z 000000018005cb20 f i libucrtd:output.obj
 0001:0005bb30       ??$get_parameter_type@Uansi_string@?1??type_case_Z@?$output_processor@_WV?$string_output_adapter@_W@__crt_stdio_output@@V?$positional_parameter_base@_WV?$string_output_adapter@_W@__crt_stdio_output@@@2@@__crt_stdio_output@@AEAA_NXZ@@?$positional_parameter_base@_WV?$string_output_adapter@_W@__crt_stdio_output@@@__crt_stdio_output@@CA?AW4parameter_type@01@PEAUansi_string@?1??type_case_Z@?$output_processor@_WV?$string_output_adapter@_W@__crt_stdio_output@@V?$positional_parameter_base@_WV?$string_output_adapter@_W@__crt_stdio_output@@@2@@1@AEAA_NXZ@@Z 000000018005cb30 f i libucrtd:output.obj
 0001:0005bb40       ??$get_parameter_type@X@?$positional_parameter_base@DV?$stream_output_adapter@D@__crt_stdio_output@@@__crt_stdio_output@@CA?AW4parameter_type@01@PEAX@Z 000000018005cb40 f i libucrtd:output.obj
 0001:0005bb50       ??$get_parameter_type@X@?$positional_parameter_base@DV?$string_output_adapter@D@__crt_stdio_output@@@__crt_stdio_output@@CA?AW4parameter_type@01@PEAX@Z 000000018005cb50 f i libucrtd:output.obj
 0001:0005bb60       ??$get_parameter_type@X@?$positional_parameter_base@_WV?$stream_output_adapter@_W@__crt_stdio_output@@@__crt_stdio_output@@CA?AW4parameter_type@01@PEAX@Z 000000018005cb60 f i libucrtd:output.obj
 0001:0005bb70       ??$get_parameter_type@X@?$positional_parameter_base@_WV?$string_output_adapter@_W@__crt_stdio_output@@@__crt_stdio_output@@CA?AW4parameter_type@01@PEAX@Z 000000018005cb70 f i libucrtd:output.obj
 0001:0005bb80       ??$is_character_specifier@D@?$positional_parameter_base@DV?$stream_output_adapter@D@__crt_stdio_output@@@__crt_stdio_output@@CA_ND@Z 000000018005cb80 f i libucrtd:output.obj
 0001:0005bbc0       ??$is_character_specifier@D@?$positional_parameter_base@DV?$string_output_adapter@D@__crt_stdio_output@@@__crt_stdio_output@@CA_ND@Z 000000018005cbc0 f i libucrtd:output.obj
 0001:0005bc00       ??$is_character_specifier@_W@?$positional_parameter_base@_WV?$stream_output_adapter@_W@__crt_stdio_output@@@__crt_stdio_output@@CA_N_W@Z 000000018005cc00 f i libucrtd:output.obj
 0001:0005bc40       ??$is_character_specifier@_W@?$positional_parameter_base@_WV?$string_output_adapter@_W@__crt_stdio_output@@@__crt_stdio_output@@CA_N_W@Z 000000018005cc40 f i libucrtd:output.obj
 0001:0005bc80       ??$is_integral_specifier@D@?$positional_parameter_base@DV?$stream_output_adapter@D@__crt_stdio_output@@@__crt_stdio_output@@CA_ND@Z 000000018005cc80 f i libucrtd:output.obj
 0001:0005bcf0       ??$is_integral_specifier@D@?$positional_parameter_base@DV?$string_output_adapter@D@__crt_stdio_output@@@__crt_stdio_output@@CA_ND@Z 000000018005ccf0 f i libucrtd:output.obj
 0001:0005bd60       ??$is_integral_specifier@_W@?$positional_parameter_base@_WV?$stream_output_adapter@_W@__crt_stdio_output@@@__crt_stdio_output@@CA_N_W@Z 000000018005cd60 f i libucrtd:output.obj
 0001:0005bdd0       ??$is_integral_specifier@_W@?$positional_parameter_base@_WV?$string_output_adapter@_W@__crt_stdio_output@@@__crt_stdio_output@@CA_N_W@Z 000000018005cdd0 f i libucrtd:output.obj
 0001:0005be40       ??$is_pointer_specifier@D@?$positional_parameter_base@DV?$stream_output_adapter@D@__crt_stdio_output@@@__crt_stdio_output@@CA_ND@Z 000000018005ce40 f i libucrtd:output.obj
 0001:0005be70       ??$is_pointer_specifier@D@?$positional_parameter_base@DV?$string_output_adapter@D@__crt_stdio_output@@@__crt_stdio_output@@CA_ND@Z 000000018005ce70 f i libucrtd:output.obj
 0001:0005bea0       ??$is_pointer_specifier@_W@?$positional_parameter_base@_WV?$stream_output_adapter@_W@__crt_stdio_output@@@__crt_stdio_output@@CA_N_W@Z 000000018005cea0 f i libucrtd:output.obj
 0001:0005bed0       ??$is_pointer_specifier@_W@?$positional_parameter_base@_WV?$string_output_adapter@_W@__crt_stdio_output@@@__crt_stdio_output@@CA_N_W@Z 000000018005ced0 f i libucrtd:output.obj
 0001:0005bf00       ??$is_string_specifier@D@?$positional_parameter_base@DV?$stream_output_adapter@D@__crt_stdio_output@@@__crt_stdio_output@@CA_ND@Z 000000018005cf00 f i libucrtd:output.obj
 0001:0005bf40       ??$is_string_specifier@D@?$positional_parameter_base@DV?$string_output_adapter@D@__crt_stdio_output@@@__crt_stdio_output@@CA_ND@Z 000000018005cf40 f i libucrtd:output.obj
 0001:0005bf80       ??$is_string_specifier@_W@?$positional_parameter_base@_WV?$stream_output_adapter@_W@__crt_stdio_output@@@__crt_stdio_output@@CA_N_W@Z 000000018005cf80 f i libucrtd:output.obj
 0001:0005bfc0       ??$is_string_specifier@_W@?$positional_parameter_base@_WV?$string_output_adapter@_W@__crt_stdio_output@@@__crt_stdio_output@@CA_N_W@Z 000000018005cfc0 f i libucrtd:output.obj
 0001:0005c000       ??$is_wide_character_specifier@D@__crt_stdio_output@@YA_N_KDW4length_modifier@0@@Z 000000018005d000 f i libucrtd:output.obj
 0001:0005c0a0       ??$is_wide_character_specifier@_W@__crt_stdio_output@@YA_N_K_WW4length_modifier@0@@Z 000000018005d0a0 f i libucrtd:output.obj
 0001:0005c170       ??$peek_va_arg@C@__crt_stdio_output@@YACPEAD@Z 000000018005d170 f i libucrtd:output.obj
 0001:0005c1d0       ??$peek_va_arg@E@__crt_stdio_output@@YAEPEAD@Z 000000018005d1d0 f i libucrtd:output.obj
 0001:0005c230       ??$peek_va_arg@F@__crt_stdio_output@@YAFPEAD@Z 000000018005d230 f i libucrtd:output.obj
 0001:0005c290       ??$peek_va_arg@G@__crt_stdio_output@@YAGPEAD@Z 000000018005d290 f i libucrtd:output.obj
 0001:0005c2f0       ??$peek_va_arg@H@__crt_stdio_output@@YAHPEAD@Z 000000018005d2f0 f i libucrtd:output.obj
 0001:0005c340       ??$peek_va_arg@I@__crt_stdio_output@@YAIPEAD@Z 000000018005d340 f i libucrtd:output.obj
 0001:0005c390       ??$peek_va_arg@PEAD@__crt_stdio_output@@YAPEADPEAD@Z 000000018005d390 f i libucrtd:output.obj
 0001:0005c3f0       ??$peek_va_arg@PEAUansi_string@?1??type_case_Z@?$output_processor@DV?$stream_output_adapter@D@__crt_stdio_output@@V?$positional_parameter_base@DV?$stream_output_adapter@D@__crt_stdio_output@@@2@@__crt_stdio_output@@AEAA_NXZ@@__crt_stdio_output@@YAPEAUansi_string@?1??type_case_Z@?$output_processor@DV?$stream_output_adapter@D@__crt_stdio_output@@V?$positional_parameter_base@DV?$stream_output_adapter@D@__crt_stdio_output@@@2@@0@AEAA_NXZ@PEAD@Z 000000018005d3f0 f i libucrtd:output.obj
 0001:0005c450       ??$peek_va_arg@PEAUansi_string@?1??type_case_Z@?$output_processor@DV?$string_output_adapter@D@__crt_stdio_output@@V?$positional_parameter_base@DV?$string_output_adapter@D@__crt_stdio_output@@@2@@__crt_stdio_output@@AEAA_NXZ@@__crt_stdio_output@@YAPEAUansi_string@?1??type_case_Z@?$output_processor@DV?$string_output_adapter@D@__crt_stdio_output@@V?$positional_parameter_base@DV?$string_output_adapter@D@__crt_stdio_output@@@2@@0@AEAA_NXZ@PEAD@Z 000000018005d450 f i libucrtd:output.obj
 0001:0005c4b0       ??$peek_va_arg@PEAUansi_string@?1??type_case_Z@?$output_processor@_WV?$stream_output_adapter@_W@__crt_stdio_output@@V?$positional_parameter_base@_WV?$stream_output_adapter@_W@__crt_stdio_output@@@2@@__crt_stdio_output@@AEAA_NXZ@@__crt_stdio_output@@YAPEAUansi_string@?1??type_case_Z@?$output_processor@_WV?$stream_output_adapter@_W@__crt_stdio_output@@V?$positional_parameter_base@_WV?$stream_output_adapter@_W@__crt_stdio_output@@@2@@0@AEAA_NXZ@PEAD@Z 000000018005d4b0 f i libucrtd:output.obj
 0001:0005c510       ??$peek_va_arg@PEAUansi_string@?1??type_case_Z@?$output_processor@_WV?$string_output_adapter@_W@__crt_stdio_output@@V?$positional_parameter_base@_WV?$string_output_adapter@_W@__crt_stdio_output@@@2@@__crt_stdio_output@@AEAA_NXZ@@__crt_stdio_output@@YAPEAUansi_string@?1??type_case_Z@?$output_processor@_WV?$string_output_adapter@_W@__crt_stdio_output@@V?$positional_parameter_base@_WV?$string_output_adapter@_W@__crt_stdio_output@@@2@@0@AEAA_NXZ@PEAD@Z 000000018005d510 f i libucrtd:output.obj
 0001:0005c570       ??$peek_va_arg@PEAX@__crt_stdio_output@@YAPEAXPEAD@Z 000000018005d570 f i libucrtd:output.obj
 0001:0005c5d0       ??$peek_va_arg@U_CRT_DOUBLE@@@__crt_stdio_output@@YA?AU_CRT_DOUBLE@@PEAD@Z 000000018005d5d0 f i libucrtd:output.obj
 0001:0005c630       ??$peek_va_arg@_J@__crt_stdio_output@@YA_JPEAD@Z 000000018005d630 f i libucrtd:output.obj
 0001:0005c690       ??$peek_va_arg@_K@__crt_stdio_output@@YA_KPEAD@Z 000000018005d690 f i libucrtd:output.obj
 0001:0005c6f0       ??$peek_va_arg@_W@__crt_stdio_output@@YA_WPEAD@Z 000000018005d6f0 f i libucrtd:output.obj
 0001:0005c750       ??$puttc_nolock@AEBDPEAU_iobuf@@@?$__crt_char_traits@D@@SAHAEBD$$QEAPEAU_iobuf@@@Z 000000018005d750 f i libucrtd:output.obj
 0001:0005c780       ??$puttc_nolock@AEB_WPEAU_iobuf@@@?$__crt_char_traits@_W@@SAGAEB_W$$QEAPEAU_iobuf@@@Z 000000018005d780 f i libucrtd:output.obj
 0001:0005c7b0       ??$read_va_arg@C@__crt_stdio_output@@YACAEAPEAD@Z 000000018005d7b0 f i libucrtd:output.obj
 0001:0005c820       ??$read_va_arg@E@__crt_stdio_output@@YAEAEAPEAD@Z 000000018005d820 f i libucrtd:output.obj
 0001:0005c890       ??$read_va_arg@F@__crt_stdio_output@@YAFAEAPEAD@Z 000000018005d890 f i libucrtd:output.obj
 0001:0005c900       ??$read_va_arg@G@__crt_stdio_output@@YAGAEAPEAD@Z 000000018005d900 f i libucrtd:output.obj
 0001:0005c970       ??$read_va_arg@H@__crt_stdio_output@@YAHAEAPEAD@Z 000000018005d970 f i libucrtd:output.obj
 0001:0005c9d0       ??$read_va_arg@I@__crt_stdio_output@@YAIAEAPEAD@Z 000000018005d9d0 f i libucrtd:output.obj
 0001:0005ca30       ??$read_va_arg@PEAD@__crt_stdio_output@@YAPEADAEAPEAD@Z 000000018005da30 f i libucrtd:output.obj
 0001:0005caa0       ??$read_va_arg@PEAUansi_string@?1??type_case_Z@?$output_processor@DV?$stream_output_adapter@D@__crt_stdio_output@@V?$format_validation_base@DV?$stream_output_adapter@D@__crt_stdio_output@@@2@@__crt_stdio_output@@AEAA_NXZ@@__crt_stdio_output@@YAPEAUansi_string@?1??type_case_Z@?$output_processor@DV?$stream_output_adapter@D@__crt_stdio_output@@V?$format_validation_base@DV?$stream_output_adapter@D@__crt_stdio_output@@@2@@0@AEAA_NXZ@AEAPEAD@Z 000000018005daa0 f i libucrtd:output.obj
 0001:0005cb10       ??$read_va_arg@PEAUansi_string@?1??type_case_Z@?$output_processor@DV?$stream_output_adapter@D@__crt_stdio_output@@V?$positional_parameter_base@DV?$stream_output_adapter@D@__crt_stdio_output@@@2@@__crt_stdio_output@@AEAA_NXZ@@__crt_stdio_output@@YAPEAUansi_string@?1??type_case_Z@?$output_processor@DV?$stream_output_adapter@D@__crt_stdio_output@@V?$positional_parameter_base@DV?$stream_output_adapter@D@__crt_stdio_output@@@2@@0@AEAA_NXZ@AEAPEAD@Z 000000018005db10 f i libucrtd:output.obj
 0001:0005cb80       ??$read_va_arg@PEAUansi_string@?1??type_case_Z@?$output_processor@DV?$stream_output_adapter@D@__crt_stdio_output@@V?$standard_base@DV?$stream_output_adapter@D@__crt_stdio_output@@@2@@__crt_stdio_output@@AEAA_NXZ@@__crt_stdio_output@@YAPEAUansi_string@?1??type_case_Z@?$output_processor@DV?$stream_output_adapter@D@__crt_stdio_output@@V?$standard_base@DV?$stream_output_adapter@D@__crt_stdio_output@@@2@@0@AEAA_NXZ@AEAPEAD@Z 000000018005db80 f i libucrtd:output.obj
 0001:0005cbf0       ??$read_va_arg@PEAUansi_string@?1??type_case_Z@?$output_processor@DV?$string_output_adapter@D@__crt_stdio_output@@V?$format_validation_base@DV?$string_output_adapter@D@__crt_stdio_output@@@2@@__crt_stdio_output@@AEAA_NXZ@@__crt_stdio_output@@YAPEAUansi_string@?1??type_case_Z@?$output_processor@DV?$string_output_adapter@D@__crt_stdio_output@@V?$format_validation_base@DV?$string_output_adapter@D@__crt_stdio_output@@@2@@0@AEAA_NXZ@AEAPEAD@Z 000000018005dbf0 f i libucrtd:output.obj
 0001:0005cc60       ??$read_va_arg@PEAUansi_string@?1??type_case_Z@?$output_processor@DV?$string_output_adapter@D@__crt_stdio_output@@V?$positional_parameter_base@DV?$string_output_adapter@D@__crt_stdio_output@@@2@@__crt_stdio_output@@AEAA_NXZ@@__crt_stdio_output@@YAPEAUansi_string@?1??type_case_Z@?$output_processor@DV?$string_output_adapter@D@__crt_stdio_output@@V?$positional_parameter_base@DV?$string_output_adapter@D@__crt_stdio_output@@@2@@0@AEAA_NXZ@AEAPEAD@Z 000000018005dc60 f i libucrtd:output.obj
 0001:0005ccd0       ??$read_va_arg@PEAUansi_string@?1??type_case_Z@?$output_processor@DV?$string_output_adapter@D@__crt_stdio_output@@V?$standard_base@DV?$string_output_adapter@D@__crt_stdio_output@@@2@@__crt_stdio_output@@AEAA_NXZ@@__crt_stdio_output@@YAPEAUansi_string@?1??type_case_Z@?$output_processor@DV?$string_output_adapter@D@__crt_stdio_output@@V?$standard_base@DV?$string_output_adapter@D@__crt_stdio_output@@@2@@0@AEAA_NXZ@AEAPEAD@Z 000000018005dcd0 f i libucrtd:output.obj
 0001:0005cd40       ??$read_va_arg@PEAUansi_string@?1??type_case_Z@?$output_processor@_WV?$stream_output_adapter@_W@__crt_stdio_output@@V?$format_validation_base@_WV?$stream_output_adapter@_W@__crt_stdio_output@@@2@@__crt_stdio_output@@AEAA_NXZ@@__crt_stdio_output@@YAPEAUansi_string@?1??type_case_Z@?$output_processor@_WV?$stream_output_adapter@_W@__crt_stdio_output@@V?$format_validation_base@_WV?$stream_output_adapter@_W@__crt_stdio_output@@@2@@0@AEAA_NXZ@AEAPEAD@Z 000000018005dd40 f i libucrtd:output.obj
 0001:0005cdb0       ??$read_va_arg@PEAUansi_string@?1??type_case_Z@?$output_processor@_WV?$stream_output_adapter@_W@__crt_stdio_output@@V?$positional_parameter_base@_WV?$stream_output_adapter@_W@__crt_stdio_output@@@2@@__crt_stdio_output@@AEAA_NXZ@@__crt_stdio_output@@YAPEAUansi_string@?1??type_case_Z@?$output_processor@_WV?$stream_output_adapter@_W@__crt_stdio_output@@V?$positional_parameter_base@_WV?$stream_output_adapter@_W@__crt_stdio_output@@@2@@0@AEAA_NXZ@AEAPEAD@Z 000000018005ddb0 f i libucrtd:output.obj
 0001:0005ce20       ??$read_va_arg@PEAUansi_string@?1??type_case_Z@?$output_processor@_WV?$stream_output_adapter@_W@__crt_stdio_output@@V?$standard_base@_WV?$stream_output_adapter@_W@__crt_stdio_output@@@2@@__crt_stdio_output@@AEAA_NXZ@@__crt_stdio_output@@YAPEAUansi_string@?1??type_case_Z@?$output_processor@_WV?$stream_output_adapter@_W@__crt_stdio_output@@V?$standard_base@_WV?$stream_output_adapter@_W@__crt_stdio_output@@@2@@0@AEAA_NXZ@AEAPEAD@Z 000000018005de20 f i libucrtd:output.obj
 0001:0005ce90       ??$read_va_arg@PEAUansi_string@?1??type_case_Z@?$output_processor@_WV?$string_output_adapter@_W@__crt_stdio_output@@V?$format_validation_base@_WV?$string_output_adapter@_W@__crt_stdio_output@@@2@@__crt_stdio_output@@AEAA_NXZ@@__crt_stdio_output@@YAPEAUansi_string@?1??type_case_Z@?$output_processor@_WV?$string_output_adapter@_W@__crt_stdio_output@@V?$format_validation_base@_WV?$string_output_adapter@_W@__crt_stdio_output@@@2@@0@AEAA_NXZ@AEAPEAD@Z 000000018005de90 f i libucrtd:output.obj
 0001:0005cf00       ??$read_va_arg@PEAUansi_string@?1??type_case_Z@?$output_processor@_WV?$string_output_adapter@_W@__crt_stdio_output@@V?$positional_parameter_base@_WV?$string_output_adapter@_W@__crt_stdio_output@@@2@@__crt_stdio_output@@AEAA_NXZ@@__crt_stdio_output@@YAPEAUansi_string@?1??type_case_Z@?$output_processor@_WV?$string_output_adapter@_W@__crt_stdio_output@@V?$positional_parameter_base@_WV?$string_output_adapter@_W@__crt_stdio_output@@@2@@0@AEAA_NXZ@AEAPEAD@Z 000000018005df00 f i libucrtd:output.obj
 0001:0005cf70       ??$read_va_arg@PEAUansi_string@?1??type_case_Z@?$output_processor@_WV?$string_output_adapter@_W@__crt_stdio_output@@V?$standard_base@_WV?$string_output_adapter@_W@__crt_stdio_output@@@2@@__crt_stdio_output@@AEAA_NXZ@@__crt_stdio_output@@YAPEAUansi_string@?1??type_case_Z@?$output_processor@_WV?$string_output_adapter@_W@__crt_stdio_output@@V?$standard_base@_WV?$string_output_adapter@_W@__crt_stdio_output@@@2@@0@AEAA_NXZ@AEAPEAD@Z 000000018005df70 f i libucrtd:output.obj
 0001:0005cfe0       ??$read_va_arg@PEAX@__crt_stdio_output@@YAPEAXAEAPEAD@Z 000000018005dfe0 f i libucrtd:output.obj
 0001:0005d050       ??$read_va_arg@U_CRT_DOUBLE@@@__crt_stdio_output@@YA?AU_CRT_DOUBLE@@AEAPEAD@Z 000000018005e050 f i libucrtd:output.obj
 0001:0005d0c0       ??$read_va_arg@_J@__crt_stdio_output@@YA_JAEAPEAD@Z 000000018005e0c0 f i libucrtd:output.obj
 0001:0005d130       ??$read_va_arg@_K@__crt_stdio_output@@YA_KAEAPEAD@Z 000000018005e130 f i libucrtd:output.obj
 0001:0005d1a0       ??$read_va_arg@_W@__crt_stdio_output@@YA_WAEAPEAD@Z 000000018005e1a0 f i libucrtd:output.obj
 0001:0005d210       ??$scratch_count@D@formatting_buffer@__crt_stdio_output@@QEBA_KXZ 000000018005e210 f i libucrtd:output.obj
 0001:0005d230       ??$scratch_data@D@formatting_buffer@__crt_stdio_output@@QEAAPEADXZ 000000018005e230 f i libucrtd:output.obj
 0001:0005d2a0       ??$tcstol@AEAPEBDPEAPEADH@?$__crt_char_traits@D@@SAJAEAPEBD$$QEAPEAPEAD$$QEAH@Z 000000018005e2a0 f i libucrtd:output.obj
 0001:0005d2e0       ??$tcstol@AEAPEB_WPEAPEA_WH@?$__crt_char_traits@_W@@SAJAEAPEB_W$$QEAPEAPEA_W$$QEAH@Z 000000018005e2e0 f i libucrtd:output.obj
 0001:0005d320       ??$tcstol@PEBDPEAPEADH@?$__crt_char_traits@D@@SAJ$$QEAPEBD$$QEAPEAPEAD$$QEAH@Z 000000018005e320 f i libucrtd:output.obj
 0001:0005d360       ??$tcstol@PEB_WPEAPEA_WH@?$__crt_char_traits@_W@@SAJ$$QEAPEB_W$$QEAPEAPEA_W$$QEAH@Z 000000018005e360 f i libucrtd:output.obj
 0001:0005d3a0       ??$type_case_integer_parse_into_buffer@I@?$output_processor@DV?$stream_output_adapter@D@__crt_stdio_output@@V?$format_validation_base@DV?$stream_output_adapter@D@__crt_stdio_output@@@2@@__crt_stdio_output@@AEAAXII_N@Z 000000018005e3a0 f i libucrtd:output.obj
 0001:0005d4d0       ??$type_case_integer_parse_into_buffer@I@?$output_processor@DV?$stream_output_adapter@D@__crt_stdio_output@@V?$positional_parameter_base@DV?$stream_output_adapter@D@__crt_stdio_output@@@2@@__crt_stdio_output@@AEAAXII_N@Z 000000018005e4d0 f i libucrtd:output.obj
 0001:0005d600       ??$type_case_integer_parse_into_buffer@I@?$output_processor@DV?$stream_output_adapter@D@__crt_stdio_output@@V?$standard_base@DV?$stream_output_adapter@D@__crt_stdio_output@@@2@@__crt_stdio_output@@AEAAXII_N@Z 000000018005e600 f i libucrtd:output.obj
 0001:0005d730       ??$type_case_integer_parse_into_buffer@I@?$output_processor@DV?$string_output_adapter@D@__crt_stdio_output@@V?$format_validation_base@DV?$string_output_adapter@D@__crt_stdio_output@@@2@@__crt_stdio_output@@AEAAXII_N@Z 000000018005e730 f i libucrtd:output.obj
 0001:0005d860       ??$type_case_integer_parse_into_buffer@I@?$output_processor@DV?$string_output_adapter@D@__crt_stdio_output@@V?$positional_parameter_base@DV?$string_output_adapter@D@__crt_stdio_output@@@2@@__crt_stdio_output@@AEAAXII_N@Z 000000018005e860 f i libucrtd:output.obj
 0001:0005d990       ??$type_case_integer_parse_into_buffer@I@?$output_processor@DV?$string_output_adapter@D@__crt_stdio_output@@V?$standard_base@DV?$string_output_adapter@D@__crt_stdio_output@@@2@@__crt_stdio_output@@AEAAXII_N@Z 000000018005e990 f i libucrtd:output.obj
 0001:0005dac0       ??$type_case_integer_parse_into_buffer@I@?$output_processor@_WV?$stream_output_adapter@_W@__crt_stdio_output@@V?$format_validation_base@_WV?$stream_output_adapter@_W@__crt_stdio_output@@@2@@__crt_stdio_output@@AEAAXII_N@Z 000000018005eac0 f i libucrtd:output.obj
 0001:0005dc00       ??$type_case_integer_parse_into_buffer@I@?$output_processor@_WV?$stream_output_adapter@_W@__crt_stdio_output@@V?$positional_parameter_base@_WV?$stream_output_adapter@_W@__crt_stdio_output@@@2@@__crt_stdio_output@@AEAAXII_N@Z 000000018005ec00 f i libucrtd:output.obj
 0001:0005dd40       ??$type_case_integer_parse_into_buffer@I@?$output_processor@_WV?$stream_output_adapter@_W@__crt_stdio_output@@V?$standard_base@_WV?$stream_output_adapter@_W@__crt_stdio_output@@@2@@__crt_stdio_output@@AEAAXII_N@Z 000000018005ed40 f i libucrtd:output.obj
 0001:0005de80       ??$type_case_integer_parse_into_buffer@I@?$output_processor@_WV?$string_output_adapter@_W@__crt_stdio_output@@V?$format_validation_base@_WV?$string_output_adapter@_W@__crt_stdio_output@@@2@@__crt_stdio_output@@AEAAXII_N@Z 000000018005ee80 f i libucrtd:output.obj
 0001:0005dfc0       ??$type_case_integer_parse_into_buffer@I@?$output_processor@_WV?$string_output_adapter@_W@__crt_stdio_output@@V?$positional_parameter_base@_WV?$string_output_adapter@_W@__crt_stdio_output@@@2@@__crt_stdio_output@@AEAAXII_N@Z 000000018005efc0 f i libucrtd:output.obj
 0001:0005e100       ??$type_case_integer_parse_into_buffer@I@?$output_processor@_WV?$string_output_adapter@_W@__crt_stdio_output@@V?$standard_base@_WV?$string_output_adapter@_W@__crt_stdio_output@@@2@@__crt_stdio_output@@AEAAXII_N@Z 000000018005f100 f i libucrtd:output.obj
 0001:0005e240       ??$type_case_integer_parse_into_buffer@_K@?$output_processor@DV?$stream_output_adapter@D@__crt_stdio_output@@V?$format_validation_base@DV?$stream_output_adapter@D@__crt_stdio_output@@@2@@__crt_stdio_output@@AEAAX_KI_N@Z 000000018005f240 f i libucrtd:output.obj
 0001:0005e390       ??$type_case_integer_parse_into_buffer@_K@?$output_processor@DV?$stream_output_adapter@D@__crt_stdio_output@@V?$positional_parameter_base@DV?$stream_output_adapter@D@__crt_stdio_output@@@2@@__crt_stdio_output@@AEAAX_KI_N@Z 000000018005f390 f i libucrtd:output.obj
 0001:0005e4e0       ??$type_case_integer_parse_into_buffer@_K@?$output_processor@DV?$stream_output_adapter@D@__crt_stdio_output@@V?$standard_base@DV?$stream_output_adapter@D@__crt_stdio_output@@@2@@__crt_stdio_output@@AEAAX_KI_N@Z 000000018005f4e0 f i libucrtd:output.obj
 0001:0005e630       ??$type_case_integer_parse_into_buffer@_K@?$output_processor@DV?$string_output_adapter@D@__crt_stdio_output@@V?$format_validation_base@DV?$string_output_adapter@D@__crt_stdio_output@@@2@@__crt_stdio_output@@AEAAX_KI_N@Z 000000018005f630 f i libucrtd:output.obj
 0001:0005e780       ??$type_case_integer_parse_into_buffer@_K@?$output_processor@DV?$string_output_adapter@D@__crt_stdio_output@@V?$positional_parameter_base@DV?$string_output_adapter@D@__crt_stdio_output@@@2@@__crt_stdio_output@@AEAAX_KI_N@Z 000000018005f780 f i libucrtd:output.obj
 0001:0005e8d0       ??$type_case_integer_parse_into_buffer@_K@?$output_processor@DV?$string_output_adapter@D@__crt_stdio_output@@V?$standard_base@DV?$string_output_adapter@D@__crt_stdio_output@@@2@@__crt_stdio_output@@AEAAX_KI_N@Z 000000018005f8d0 f i libucrtd:output.obj
 0001:0005ea20       ??$type_case_integer_parse_into_buffer@_K@?$output_processor@_WV?$stream_output_adapter@_W@__crt_stdio_output@@V?$format_validation_base@_WV?$stream_output_adapter@_W@__crt_stdio_output@@@2@@__crt_stdio_output@@AEAAX_KI_N@Z 000000018005fa20 f i libucrtd:output.obj
 0001:0005eb80       ??$type_case_integer_parse_into_buffer@_K@?$output_processor@_WV?$stream_output_adapter@_W@__crt_stdio_output@@V?$positional_parameter_base@_WV?$stream_output_adapter@_W@__crt_stdio_output@@@2@@__crt_stdio_output@@AEAAX_KI_N@Z 000000018005fb80 f i libucrtd:output.obj
 0001:0005ece0       ??$type_case_integer_parse_into_buffer@_K@?$output_processor@_WV?$stream_output_adapter@_W@__crt_stdio_output@@V?$standard_base@_WV?$stream_output_adapter@_W@__crt_stdio_output@@@2@@__crt_stdio_output@@AEAAX_KI_N@Z 000000018005fce0 f i libucrtd:output.obj
 0001:0005ee40       ??$type_case_integer_parse_into_buffer@_K@?$output_processor@_WV?$string_output_adapter@_W@__crt_stdio_output@@V?$format_validation_base@_WV?$string_output_adapter@_W@__crt_stdio_output@@@2@@__crt_stdio_output@@AEAAX_KI_N@Z 000000018005fe40 f i libucrtd:output.obj
 0001:0005efa0       ??$type_case_integer_parse_into_buffer@_K@?$output_processor@_WV?$string_output_adapter@_W@__crt_stdio_output@@V?$positional_parameter_base@_WV?$string_output_adapter@_W@__crt_stdio_output@@@2@@__crt_stdio_output@@AEAAX_KI_N@Z 000000018005ffa0 f i libucrtd:output.obj
 0001:0005f100       ??$type_case_integer_parse_into_buffer@_K@?$output_processor@_WV?$string_output_adapter@_W@__crt_stdio_output@@V?$standard_base@_WV?$string_output_adapter@_W@__crt_stdio_output@@@2@@__crt_stdio_output@@AEAAX_KI_N@Z 0000000180060100 f i libucrtd:output.obj
 0001:0005f260       ??$write_multiple_characters@V?$stream_output_adapter@D@__crt_stdio_output@@D@__crt_stdio_output@@YAXAEBV?$stream_output_adapter@D@0@DHQEAH@Z 0000000180060260 f i libucrtd:output.obj
 0001:0005f2c0       ??$write_multiple_characters@V?$stream_output_adapter@_W@__crt_stdio_output@@D@__crt_stdio_output@@YAXAEBV?$stream_output_adapter@_W@0@DHQEAH@Z 00000001800602c0 f i libucrtd:output.obj
 0001:0005f320       ??$write_multiple_characters@V?$string_output_adapter@D@__crt_stdio_output@@D@__crt_stdio_output@@YAXAEBV?$string_output_adapter@D@0@DHQEAH@Z 0000000180060320 f i libucrtd:output.obj
 0001:0005f380       ??$write_multiple_characters@V?$string_output_adapter@_W@__crt_stdio_output@@D@__crt_stdio_output@@YAXAEBV?$string_output_adapter@_W@0@DHQEAH@Z 0000000180060380 f i libucrtd:output.obj
 0001:0005f7a0       ??0?$common_data@D@__crt_stdio_output@@IEAA@XZ 00000001800607a0 f i libucrtd:output.obj
 0001:0005f870       ??0?$common_data@_W@__crt_stdio_output@@IEAA@XZ 0000000180060870 f i libucrtd:output.obj
 0001:0005f940       ??0?$output_adapter_data@DV?$stream_output_adapter@D@__crt_stdio_output@@@__crt_stdio_output@@IEAA@AEBV?$stream_output_adapter@D@1@_KQEBDQEAU__crt_locale_pointers@@QEAD@Z 0000000180060940 f i libucrtd:output.obj
 0001:0005f9c0       ??0?$output_adapter_data@DV?$string_output_adapter@D@__crt_stdio_output@@@__crt_stdio_output@@IEAA@AEBV?$string_output_adapter@D@1@_KQEBDQEAU__crt_locale_pointers@@QEAD@Z 00000001800609c0 f i libucrtd:output.obj
 0001:0005fa40       ??0?$output_adapter_data@_WV?$stream_output_adapter@_W@__crt_stdio_output@@@__crt_stdio_output@@IEAA@AEBV?$stream_output_adapter@_W@1@_KQEB_WQEAU__crt_locale_pointers@@QEAD@Z 0000000180060a40 f i libucrtd:output.obj
 0001:0005fac0       ??0?$output_adapter_data@_WV?$string_output_adapter@_W@__crt_stdio_output@@@__crt_stdio_output@@IEAA@AEBV?$string_output_adapter@_W@1@_KQEB_WQEAU__crt_locale_pointers@@QEAD@Z 0000000180060ac0 f i libucrtd:output.obj
 0001:0005fb40       ??0?$output_processor@DV?$stream_output_adapter@D@__crt_stdio_output@@V?$format_validation_base@DV?$stream_output_adapter@D@__crt_stdio_output@@@2@@__crt_stdio_output@@QEAA@AEBV?$stream_output_adapter@D@1@_KQEBDQEAU__crt_locale_pointers@@QEAD@Z 0000000180060b40 f i libucrtd:output.obj
 0001:0005fb90       ??0?$output_processor@DV?$stream_output_adapter@D@__crt_stdio_output@@V?$positional_parameter_base@DV?$stream_output_adapter@D@__crt_stdio_output@@@2@@__crt_stdio_output@@QEAA@AEBV?$stream_output_adapter@D@1@_KQEBDQEAU__crt_locale_pointers@@QEAD@Z 0000000180060b90 f i libucrtd:output.obj
 0001:0005fbe0       ??0?$output_processor@DV?$stream_output_adapter@D@__crt_stdio_output@@V?$standard_base@DV?$stream_output_adapter@D@__crt_stdio_output@@@2@@__crt_stdio_output@@QEAA@AEBV?$stream_output_adapter@D@1@_KQEBDQEAU__crt_locale_pointers@@QEAD@Z 0000000180060be0 f i libucrtd:output.obj
 0001:0005fc30       ??0?$output_processor@DV?$string_output_adapter@D@__crt_stdio_output@@V?$format_validation_base@DV?$string_output_adapter@D@__crt_stdio_output@@@2@@__crt_stdio_output@@QEAA@AEBV?$string_output_adapter@D@1@_KQEBDQEAU__crt_locale_pointers@@QEAD@Z 0000000180060c30 f i libucrtd:output.obj
 0001:0005fc80       ??0?$output_processor@DV?$string_output_adapter@D@__crt_stdio_output@@V?$positional_parameter_base@DV?$string_output_adapter@D@__crt_stdio_output@@@2@@__crt_stdio_output@@QEAA@AEBV?$string_output_adapter@D@1@_KQEBDQEAU__crt_locale_pointers@@QEAD@Z 0000000180060c80 f i libucrtd:output.obj
 0001:0005fcd0       ??0?$output_processor@DV?$string_output_adapter@D@__crt_stdio_output@@V?$standard_base@DV?$string_output_adapter@D@__crt_stdio_output@@@2@@__crt_stdio_output@@QEAA@AEBV?$string_output_adapter@D@1@_KQEBDQEAU__crt_locale_pointers@@QEAD@Z 0000000180060cd0 f i libucrtd:output.obj
 0001:0005fd20       ??0?$output_processor@_WV?$stream_output_adapter@_W@__crt_stdio_output@@V?$format_validation_base@_WV?$stream_output_adapter@_W@__crt_stdio_output@@@2@@__crt_stdio_output@@QEAA@AEBV?$stream_output_adapter@_W@1@_KQEB_WQEAU__crt_locale_pointers@@QEAD@Z 0000000180060d20 f i libucrtd:output.obj
 0001:0005fd70       ??0?$output_processor@_WV?$stream_output_adapter@_W@__crt_stdio_output@@V?$positional_parameter_base@_WV?$stream_output_adapter@_W@__crt_stdio_output@@@2@@__crt_stdio_output@@QEAA@AEBV?$stream_output_adapter@_W@1@_KQEB_WQEAU__crt_locale_pointers@@QEAD@Z 0000000180060d70 f i libucrtd:output.obj
 0001:0005fdc0       ??0?$output_processor@_WV?$stream_output_adapter@_W@__crt_stdio_output@@V?$standard_base@_WV?$stream_output_adapter@_W@__crt_stdio_output@@@2@@__crt_stdio_output@@QEAA@AEBV?$stream_output_adapter@_W@1@_KQEB_WQEAU__crt_locale_pointers@@QEAD@Z 0000000180060dc0 f i libucrtd:output.obj
 0001:0005fe10       ??0?$output_processor@_WV?$string_output_adapter@_W@__crt_stdio_output@@V?$format_validation_base@_WV?$string_output_adapter@_W@__crt_stdio_output@@@2@@__crt_stdio_output@@QEAA@AEBV?$string_output_adapter@_W@1@_KQEB_WQEAU__crt_locale_pointers@@QEAD@Z 0000000180060e10 f i libucrtd:output.obj
 0001:0005fe60       ??0?$output_processor@_WV?$string_output_adapter@_W@__crt_stdio_output@@V?$positional_parameter_base@_WV?$string_output_adapter@_W@__crt_stdio_output@@@2@@__crt_stdio_output@@QEAA@AEBV?$string_output_adapter@_W@1@_KQEB_WQEAU__crt_locale_pointers@@QEAD@Z 0000000180060e60 f i libucrtd:output.obj
 0001:0005feb0       ??0?$output_processor@_WV?$string_output_adapter@_W@__crt_stdio_output@@V?$standard_base@_WV?$string_output_adapter@_W@__crt_stdio_output@@@2@@__crt_stdio_output@@QEAA@AEBV?$string_output_adapter@_W@1@_KQEB_WQEAU__crt_locale_pointers@@QEAD@Z 0000000180060eb0 f i libucrtd:output.obj
 0001:0005ff00       ??0?$stream_output_adapter@D@__crt_stdio_output@@QEAA@QEAU_iobuf@@@Z 0000000180060f00 f i libucrtd:output.obj
 0001:0005ff30       ??0?$stream_output_adapter@_W@__crt_stdio_output@@QEAA@QEAU_iobuf@@@Z 0000000180060f30 f i libucrtd:output.obj
 0001:0005ff60       ??0?$string_output_adapter@D@__crt_stdio_output@@QEAA@QEAU?$string_output_adapter_context@D@1@@Z 0000000180060f60 f i libucrtd:output.obj
 0001:0005ff80       ??0?$string_output_adapter@_W@__crt_stdio_output@@QEAA@QEAU?$string_output_adapter_context@_W@1@@Z 0000000180060f80 f i libucrtd:output.obj
 0001:0005ffa0       ??0_LocaleUpdate@@QEAA@QEAU__crt_locale_pointers@@@Z 0000000180060fa0 f i libucrtd:output.obj
 0001:000600c0       ??0__acrt_stdio_temporary_buffering_guard@@QEAA@QEAU_iobuf@@@Z 00000001800610c0 f i libucrtd:output.obj
 0001:00060100       ??0__crt_deferred_errno_cache@@QEAA@XZ 0000000180061100 f i libucrtd:output.obj
 0001:00060120       ??0__crt_errno_guard@@QEAA@QEAH@Z 0000000180061120 f i libucrtd:output.obj
 0001:00060160       ??0__crt_stdio_stream@@QEAA@QEAU_iobuf@@@Z 0000000180061160 f i libucrtd:output.obj
 0001:00060180       ??0formatting_buffer@__crt_stdio_output@@QEAA@XZ 0000000180061180 f i libucrtd:output.obj
 0001:000601c0       ??1?$common_data@D@__crt_stdio_output@@QEAA@XZ 00000001800611c0 f i libucrtd:output.obj
 0001:000601e0       ??1?$common_data@_W@__crt_stdio_output@@QEAA@XZ 00000001800611e0 f i libucrtd:output.obj
 0001:00060200       ??1?$format_validation_base@DV?$stream_output_adapter@D@__crt_stdio_output@@@__crt_stdio_output@@QEAA@XZ 0000000180061200 f i libucrtd:output.obj
 0001:00060220       ??1?$format_validation_base@DV?$string_output_adapter@D@__crt_stdio_output@@@__crt_stdio_output@@QEAA@XZ 0000000180061220 f i libucrtd:output.obj
 0001:00060240       ??1?$format_validation_base@_WV?$stream_output_adapter@_W@__crt_stdio_output@@@__crt_stdio_output@@QEAA@XZ 0000000180061240 f i libucrtd:output.obj
 0001:00060260       ??1?$format_validation_base@_WV?$string_output_adapter@_W@__crt_stdio_output@@@__crt_stdio_output@@QEAA@XZ 0000000180061260 f i libucrtd:output.obj
 0001:00060280       ??1?$output_adapter_data@DV?$stream_output_adapter@D@__crt_stdio_output@@@__crt_stdio_output@@QEAA@XZ 0000000180061280 f i libucrtd:output.obj
 0001:000602a0       ??1?$output_adapter_data@DV?$string_output_adapter@D@__crt_stdio_output@@@__crt_stdio_output@@QEAA@XZ 00000001800612a0 f i libucrtd:output.obj
 0001:000602c0       ??1?$output_adapter_data@_WV?$stream_output_adapter@_W@__crt_stdio_output@@@__crt_stdio_output@@QEAA@XZ 00000001800612c0 f i libucrtd:output.obj
 0001:000602e0       ??1?$output_adapter_data@_WV?$string_output_adapter@_W@__crt_stdio_output@@@__crt_stdio_output@@QEAA@XZ 00000001800612e0 f i libucrtd:output.obj
 0001:00060300       ??1?$output_processor@DV?$stream_output_adapter@D@__crt_stdio_output@@V?$format_validation_base@DV?$stream_output_adapter@D@__crt_stdio_output@@@2@@__crt_stdio_output@@QEAA@XZ 0000000180061300 f i libucrtd:output.obj
 0001:00060320       ??1?$output_processor@DV?$stream_output_adapter@D@__crt_stdio_output@@V?$positional_parameter_base@DV?$stream_output_adapter@D@__crt_stdio_output@@@2@@__crt_stdio_output@@QEAA@XZ 0000000180061320 f i libucrtd:output.obj
 0001:00060340       ??1?$output_processor@DV?$stream_output_adapter@D@__crt_stdio_output@@V?$standard_base@DV?$stream_output_adapter@D@__crt_stdio_output@@@2@@__crt_stdio_output@@QEAA@XZ 0000000180061340 f i libucrtd:output.obj
 0001:00060360       ??1?$output_processor@DV?$string_output_adapter@D@__crt_stdio_output@@V?$format_validation_base@DV?$string_output_adapter@D@__crt_stdio_output@@@2@@__crt_stdio_output@@QEAA@XZ 0000000180061360 f i libucrtd:output.obj
 0001:00060380       ??1?$output_processor@DV?$string_output_adapter@D@__crt_stdio_output@@V?$positional_parameter_base@DV?$string_output_adapter@D@__crt_stdio_output@@@2@@__crt_stdio_output@@QEAA@XZ 0000000180061380 f i libucrtd:output.obj
 0001:000603a0       ??1?$output_processor@DV?$string_output_adapter@D@__crt_stdio_output@@V?$standard_base@DV?$string_output_adapter@D@__crt_stdio_output@@@2@@__crt_stdio_output@@QEAA@XZ 00000001800613a0 f i libucrtd:output.obj
 0001:000603c0       ??1?$output_processor@_WV?$stream_output_adapter@_W@__crt_stdio_output@@V?$format_validation_base@_WV?$stream_output_adapter@_W@__crt_stdio_output@@@2@@__crt_stdio_output@@QEAA@XZ 00000001800613c0 f i libucrtd:output.obj
 0001:000603e0       ??1?$output_processor@_WV?$stream_output_adapter@_W@__crt_stdio_output@@V?$positional_parameter_base@_WV?$stream_output_adapter@_W@__crt_stdio_output@@@2@@__crt_stdio_output@@QEAA@XZ 00000001800613e0 f i libucrtd:output.obj
 0001:00060400       ??1?$output_processor@_WV?$stream_output_adapter@_W@__crt_stdio_output@@V?$standard_base@_WV?$stream_output_adapter@_W@__crt_stdio_output@@@2@@__crt_stdio_output@@QEAA@XZ 0000000180061400 f i libucrtd:output.obj
 0001:00060420       ??1?$output_processor@_WV?$string_output_adapter@_W@__crt_stdio_output@@V?$format_validation_base@_WV?$string_output_adapter@_W@__crt_stdio_output@@@2@@__crt_stdio_output@@QEAA@XZ 0000000180061420 f i libucrtd:output.obj
 0001:00060440       ??1?$output_processor@_WV?$string_output_adapter@_W@__crt_stdio_output@@V?$positional_parameter_base@_WV?$string_output_adapter@_W@__crt_stdio_output@@@2@@__crt_stdio_output@@QEAA@XZ 0000000180061440 f i libucrtd:output.obj
 0001:00060460       ??1?$output_processor@_WV?$string_output_adapter@_W@__crt_stdio_output@@V?$standard_base@_WV?$string_output_adapter@_W@__crt_stdio_output@@@2@@__crt_stdio_output@@QEAA@XZ 0000000180061460 f i libucrtd:output.obj
 0001:00060480       ??1?$positional_parameter_base@DV?$stream_output_adapter@D@__crt_stdio_output@@@__crt_stdio_output@@QEAA@XZ 0000000180061480 f i libucrtd:output.obj
 0001:000604a0       ??1?$positional_parameter_base@DV?$string_output_adapter@D@__crt_stdio_output@@@__crt_stdio_output@@QEAA@XZ 00000001800614a0 f i libucrtd:output.obj
 0001:000604c0       ??1?$positional_parameter_base@_WV?$stream_output_adapter@_W@__crt_stdio_output@@@__crt_stdio_output@@QEAA@XZ 00000001800614c0 f i libucrtd:output.obj
 0001:000604e0       ??1?$positional_parameter_base@_WV?$string_output_adapter@_W@__crt_stdio_output@@@__crt_stdio_output@@QEAA@XZ 00000001800614e0 f i libucrtd:output.obj
 0001:00060500       ??1?$standard_base@DV?$stream_output_adapter@D@__crt_stdio_output@@@__crt_stdio_output@@QEAA@XZ 0000000180061500 f i libucrtd:output.obj
 0001:00060520       ??1?$standard_base@DV?$string_output_adapter@D@__crt_stdio_output@@@__crt_stdio_output@@QEAA@XZ 0000000180061520 f i libucrtd:output.obj
 0001:00060540       ??1?$standard_base@_WV?$stream_output_adapter@_W@__crt_stdio_output@@@__crt_stdio_output@@QEAA@XZ 0000000180061540 f i libucrtd:output.obj
 0001:00060560       ??1?$standard_base@_WV?$string_output_adapter@_W@__crt_stdio_output@@@__crt_stdio_output@@QEAA@XZ 0000000180061560 f i libucrtd:output.obj
 0001:00060580       ??1_LocaleUpdate@@QEAA@XZ  0000000180061580 f i libucrtd:output.obj
 0001:000605b0       ??1__acrt_stdio_temporary_buffering_guard@@QEAA@XZ 00000001800615b0 f i libucrtd:output.obj
 0001:000605e0       ??1__crt_errno_guard@@QEAA@XZ 00000001800615e0 f i libucrtd:output.obj
 0001:00060610       ??1formatting_buffer@__crt_stdio_output@@QEAA@XZ 0000000180061610 f i libucrtd:output.obj
 0001:00060640       ??4?$__crt_unique_heap_ptr@DU__crt_internal_free_policy@@@@QEAAAEAV0@$$QEAV0@@Z 0000000180061640 f i libucrtd:output.obj
 0001:00060680       ??A?$spectre_mitigated_lookup_table@Ustate_transition_pair@__crt_stdio_output@@$0IA@@__crt_stdio_output@@QEBAAEBUstate_transition_pair@1@_K@Z 0000000180061680 f i libucrtd:output.obj
 0001:000606a0       ??C__crt_stdio_stream@@QEBAPEAU__crt_stdio_stream_data@@XZ 00000001800616a0 f i libucrtd:output.obj
 0001:00060f50       ?GetLocaleT@_LocaleUpdate@@QEAAPEAU__crt_locale_pointers@@XZ 0000000180061f50 f i libucrtd:output.obj
 0001:00060f60       ?__crt_interlocked_read_32@@YAHPEDH@Z 0000000180061f60 f i libucrtd:output.obj
 0001:00060f80       ?adjust_hexit@?$output_processor@DV?$stream_output_adapter@D@__crt_stdio_output@@V?$format_validation_base@DV?$stream_output_adapter@D@__crt_stdio_output@@@2@@__crt_stdio_output@@CADH_N@Z 0000000180061f80 f i libucrtd:output.obj
 0001:00060fd0       ?adjust_hexit@?$output_processor@DV?$stream_output_adapter@D@__crt_stdio_output@@V?$positional_parameter_base@DV?$stream_output_adapter@D@__crt_stdio_output@@@2@@__crt_stdio_output@@CADH_N@Z 0000000180061fd0 f i libucrtd:output.obj
 0001:00061020       ?adjust_hexit@?$output_processor@DV?$stream_output_adapter@D@__crt_stdio_output@@V?$standard_base@DV?$stream_output_adapter@D@__crt_stdio_output@@@2@@__crt_stdio_output@@CADH_N@Z 0000000180062020 f i libucrtd:output.obj
 0001:00061070       ?adjust_hexit@?$output_processor@DV?$string_output_adapter@D@__crt_stdio_output@@V?$format_validation_base@DV?$string_output_adapter@D@__crt_stdio_output@@@2@@__crt_stdio_output@@CADH_N@Z 0000000180062070 f i libucrtd:output.obj
 0001:000610c0       ?adjust_hexit@?$output_processor@DV?$string_output_adapter@D@__crt_stdio_output@@V?$positional_parameter_base@DV?$string_output_adapter@D@__crt_stdio_output@@@2@@__crt_stdio_output@@CADH_N@Z 00000001800620c0 f i libucrtd:output.obj
 0001:00061110       ?adjust_hexit@?$output_processor@DV?$string_output_adapter@D@__crt_stdio_output@@V?$standard_base@DV?$string_output_adapter@D@__crt_stdio_output@@@2@@__crt_stdio_output@@CADH_N@Z 0000000180062110 f i libucrtd:output.obj
 0001:00061160       ?adjust_hexit@?$output_processor@_WV?$stream_output_adapter@_W@__crt_stdio_output@@V?$format_validation_base@_WV?$stream_output_adapter@_W@__crt_stdio_output@@@2@@__crt_stdio_output@@CADH_N@Z 0000000180062160 f i libucrtd:output.obj
 0001:000611b0       ?adjust_hexit@?$output_processor@_WV?$stream_output_adapter@_W@__crt_stdio_output@@V?$positional_parameter_base@_WV?$stream_output_adapter@_W@__crt_stdio_output@@@2@@__crt_stdio_output@@CADH_N@Z 00000001800621b0 f i libucrtd:output.obj
 0001:00061200       ?adjust_hexit@?$output_processor@_WV?$stream_output_adapter@_W@__crt_stdio_output@@V?$standard_base@_WV?$stream_output_adapter@_W@__crt_stdio_output@@@2@@__crt_stdio_output@@CADH_N@Z 0000000180062200 f i libucrtd:output.obj
 0001:00061250       ?adjust_hexit@?$output_processor@_WV?$string_output_adapter@_W@__crt_stdio_output@@V?$format_validation_base@_WV?$string_output_adapter@_W@__crt_stdio_output@@@2@@__crt_stdio_output@@CADH_N@Z 0000000180062250 f i libucrtd:output.obj
 0001:000612a0       ?adjust_hexit@?$output_processor@_WV?$string_output_adapter@_W@__crt_stdio_output@@V?$positional_parameter_base@_WV?$string_output_adapter@_W@__crt_stdio_output@@@2@@__crt_stdio_output@@CADH_N@Z 00000001800622a0 f i libucrtd:output.obj
 0001:000612f0       ?adjust_hexit@?$output_processor@_WV?$string_output_adapter@_W@__crt_stdio_output@@V?$standard_base@_WV?$string_output_adapter@_W@__crt_stdio_output@@@2@@__crt_stdio_output@@CADH_N@Z 00000001800622f0 f i libucrtd:output.obj
 0001:00061340       ?advance_to_next_pass@?$positional_parameter_base@DV?$stream_output_adapter@D@__crt_stdio_output@@@__crt_stdio_output@@IEAA_NXZ 0000000180062340 f i libucrtd:output.obj
 0001:000613f0       ?advance_to_next_pass@?$positional_parameter_base@DV?$string_output_adapter@D@__crt_stdio_output@@@__crt_stdio_output@@IEAA_NXZ 00000001800623f0 f i libucrtd:output.obj
 0001:000614a0       ?advance_to_next_pass@?$positional_parameter_base@_WV?$stream_output_adapter@_W@__crt_stdio_output@@@__crt_stdio_output@@IEAA_NXZ 00000001800624a0 f i libucrtd:output.obj
 0001:00061550       ?advance_to_next_pass@?$positional_parameter_base@_WV?$string_output_adapter@_W@__crt_stdio_output@@@__crt_stdio_output@@IEAA_NXZ 0000000180062550 f i libucrtd:output.obj
 0001:00061600       ?advance_to_next_pass@?$standard_base@DV?$stream_output_adapter@D@__crt_stdio_output@@@__crt_stdio_output@@IEAA_NXZ 0000000180062600 f i libucrtd:output.obj
 0001:00061650       ?advance_to_next_pass@?$standard_base@DV?$string_output_adapter@D@__crt_stdio_output@@@__crt_stdio_output@@IEAA_NXZ 0000000180062650 f i libucrtd:output.obj
 0001:000616a0       ?advance_to_next_pass@?$standard_base@_WV?$stream_output_adapter@_W@__crt_stdio_output@@@__crt_stdio_output@@IEAA_NXZ 00000001800626a0 f i libucrtd:output.obj
 0001:000616f0       ?advance_to_next_pass@?$standard_base@_WV?$string_output_adapter@_W@__crt_stdio_output@@@__crt_stdio_output@@IEAA_NXZ 00000001800626f0 f i libucrtd:output.obj
 0001:00061740       ?crop_zeroes@__crt_stdio_output@@YAXPEADQEAU__crt_locale_pointers@@@Z 0000000180062740 f i libucrtd:output.obj
 0001:00061880       ?find_next_state@?$output_processor@DV?$stream_output_adapter@D@__crt_stdio_output@@V?$format_validation_base@DV?$stream_output_adapter@D@__crt_stdio_output@@@2@@__crt_stdio_output@@AEBA?AW4state@2@DW432@@Z 0000000180062880 f i libucrtd:output.obj
 0001:00061910       ?find_next_state@?$output_processor@DV?$stream_output_adapter@D@__crt_stdio_output@@V?$positional_parameter_base@DV?$stream_output_adapter@D@__crt_stdio_output@@@2@@__crt_stdio_output@@AEBA?AW4state@2@DW432@@Z 0000000180062910 f i libucrtd:output.obj
 0001:000619a0       ?find_next_state@?$output_processor@DV?$stream_output_adapter@D@__crt_stdio_output@@V?$standard_base@DV?$stream_output_adapter@D@__crt_stdio_output@@@2@@__crt_stdio_output@@AEBA?AW4state@2@DW432@@Z 00000001800629a0 f i libucrtd:output.obj
 0001:00061a30       ?find_next_state@?$output_processor@DV?$string_output_adapter@D@__crt_stdio_output@@V?$format_validation_base@DV?$string_output_adapter@D@__crt_stdio_output@@@2@@__crt_stdio_output@@AEBA?AW4state@2@DW432@@Z 0000000180062a30 f i libucrtd:output.obj
 0001:00061ac0       ?find_next_state@?$output_processor@DV?$string_output_adapter@D@__crt_stdio_output@@V?$positional_parameter_base@DV?$string_output_adapter@D@__crt_stdio_output@@@2@@__crt_stdio_output@@AEBA?AW4state@2@DW432@@Z 0000000180062ac0 f i libucrtd:output.obj
 0001:00061b50       ?find_next_state@?$output_processor@DV?$string_output_adapter@D@__crt_stdio_output@@V?$standard_base@DV?$string_output_adapter@D@__crt_stdio_output@@@2@@__crt_stdio_output@@AEBA?AW4state@2@DW432@@Z 0000000180062b50 f i libucrtd:output.obj
 0001:00061be0       ?find_next_state@?$output_processor@_WV?$stream_output_adapter@_W@__crt_stdio_output@@V?$format_validation_base@_WV?$stream_output_adapter@_W@__crt_stdio_output@@@2@@__crt_stdio_output@@AEBA?AW4state@2@_WW432@@Z 0000000180062be0 f i libucrtd:output.obj
 0001:00061c70       ?find_next_state@?$output_processor@_WV?$stream_output_adapter@_W@__crt_stdio_output@@V?$positional_parameter_base@_WV?$stream_output_adapter@_W@__crt_stdio_output@@@2@@__crt_stdio_output@@AEBA?AW4state@2@_WW432@@Z 0000000180062c70 f i libucrtd:output.obj
 0001:00061d00       ?find_next_state@?$output_processor@_WV?$stream_output_adapter@_W@__crt_stdio_output@@V?$standard_base@_WV?$stream_output_adapter@_W@__crt_stdio_output@@@2@@__crt_stdio_output@@AEBA?AW4state@2@_WW432@@Z 0000000180062d00 f i libucrtd:output.obj
 0001:00061d90       ?find_next_state@?$output_processor@_WV?$string_output_adapter@_W@__crt_stdio_output@@V?$format_validation_base@_WV?$string_output_adapter@_W@__crt_stdio_output@@@2@@__crt_stdio_output@@AEBA?AW4state@2@_WW432@@Z 0000000180062d90 f i libucrtd:output.obj
 0001:00061e20       ?find_next_state@?$output_processor@_WV?$string_output_adapter@_W@__crt_stdio_output@@V?$positional_parameter_base@_WV?$string_output_adapter@_W@__crt_stdio_output@@@2@@__crt_stdio_output@@AEBA?AW4state@2@_WW432@@Z 0000000180062e20 f i libucrtd:output.obj
 0001:00061eb0       ?find_next_state@?$output_processor@_WV?$string_output_adapter@_W@__crt_stdio_output@@V?$standard_base@_WV?$string_output_adapter@_W@__crt_stdio_output@@@2@@__crt_stdio_output@@AEBA?AW4state@2@_WW432@@Z 0000000180062eb0 f i libucrtd:output.obj
 0001:00061f40       ?force_decimal_point@__crt_stdio_output@@YAXPEADQEAU__crt_locale_pointers@@@Z 0000000180062f40 f i libucrtd:output.obj
 0001:00062040       ?get@__crt_deferred_errno_cache@@QEAAAEAHXZ 0000000180063040 f i libucrtd:output.obj
 0001:00062070       ?get_flags@__crt_stdio_stream@@QEBAJXZ 0000000180063070 f i libucrtd:output.obj
 0001:000620a0       ?get_parameter_type@?$positional_parameter_base@DV?$stream_output_adapter@D@__crt_stdio_output@@@__crt_stdio_output@@CA?AW4parameter_type@12@F@Z 00000001800630a0 f i libucrtd:output.obj
 0001:000620b0       ?get_parameter_type@?$positional_parameter_base@DV?$stream_output_adapter@D@__crt_stdio_output@@@__crt_stdio_output@@CA?AW4parameter_type@12@G@Z 00000001800630b0 f i libucrtd:output.obj
 0001:000620c0       ?get_parameter_type@?$positional_parameter_base@DV?$stream_output_adapter@D@__crt_stdio_output@@@__crt_stdio_output@@CA?AW4parameter_type@12@H@Z 00000001800630c0 f i libucrtd:output.obj
 0001:000620d0       ?get_parameter_type@?$positional_parameter_base@DV?$stream_output_adapter@D@__crt_stdio_output@@@__crt_stdio_output@@CA?AW4parameter_type@12@I@Z 00000001800630d0 f i libucrtd:output.obj
 0001:000620e0       ?get_parameter_type@?$positional_parameter_base@DV?$stream_output_adapter@D@__crt_stdio_output@@@__crt_stdio_output@@CA?AW4parameter_type@12@U_CRT_DOUBLE@@@Z 00000001800630e0 f i libucrtd:output.obj
 0001:000620f0       ?get_parameter_type@?$positional_parameter_base@DV?$stream_output_adapter@D@__crt_stdio_output@@@__crt_stdio_output@@CA?AW4parameter_type@12@_J@Z 00000001800630f0 f i libucrtd:output.obj
 0001:00062100       ?get_parameter_type@?$positional_parameter_base@DV?$stream_output_adapter@D@__crt_stdio_output@@@__crt_stdio_output@@CA?AW4parameter_type@12@_K@Z 0000000180063100 f i libucrtd:output.obj
 0001:00062110       ?get_parameter_type@?$positional_parameter_base@DV?$stream_output_adapter@D@__crt_stdio_output@@@__crt_stdio_output@@CA?AW4parameter_type@12@_W@Z 0000000180063110 f i libucrtd:output.obj
 0001:00062120       ?get_parameter_type@?$positional_parameter_base@DV?$string_output_adapter@D@__crt_stdio_output@@@__crt_stdio_output@@CA?AW4parameter_type@12@F@Z 0000000180063120 f i libucrtd:output.obj
 0001:00062130       ?get_parameter_type@?$positional_parameter_base@DV?$string_output_adapter@D@__crt_stdio_output@@@__crt_stdio_output@@CA?AW4parameter_type@12@G@Z 0000000180063130 f i libucrtd:output.obj
 0001:00062140       ?get_parameter_type@?$positional_parameter_base@DV?$string_output_adapter@D@__crt_stdio_output@@@__crt_stdio_output@@CA?AW4parameter_type@12@H@Z 0000000180063140 f i libucrtd:output.obj
 0001:00062150       ?get_parameter_type@?$positional_parameter_base@DV?$string_output_adapter@D@__crt_stdio_output@@@__crt_stdio_output@@CA?AW4parameter_type@12@I@Z 0000000180063150 f i libucrtd:output.obj
 0001:00062160       ?get_parameter_type@?$positional_parameter_base@DV?$string_output_adapter@D@__crt_stdio_output@@@__crt_stdio_output@@CA?AW4parameter_type@12@U_CRT_DOUBLE@@@Z 0000000180063160 f i libucrtd:output.obj
 0001:00062170       ?get_parameter_type@?$positional_parameter_base@DV?$string_output_adapter@D@__crt_stdio_output@@@__crt_stdio_output@@CA?AW4parameter_type@12@_J@Z 0000000180063170 f i libucrtd:output.obj
 0001:00062180       ?get_parameter_type@?$positional_parameter_base@DV?$string_output_adapter@D@__crt_stdio_output@@@__crt_stdio_output@@CA?AW4parameter_type@12@_K@Z 0000000180063180 f i libucrtd:output.obj
 0001:00062190       ?get_parameter_type@?$positional_parameter_base@DV?$string_output_adapter@D@__crt_stdio_output@@@__crt_stdio_output@@CA?AW4parameter_type@12@_W@Z 0000000180063190 f i libucrtd:output.obj
 0001:000621a0       ?get_parameter_type@?$positional_parameter_base@_WV?$stream_output_adapter@_W@__crt_stdio_output@@@__crt_stdio_output@@CA?AW4parameter_type@12@F@Z 00000001800631a0 f i libucrtd:output.obj
 0001:000621b0       ?get_parameter_type@?$positional_parameter_base@_WV?$stream_output_adapter@_W@__crt_stdio_output@@@__crt_stdio_output@@CA?AW4parameter_type@12@G@Z 00000001800631b0 f i libucrtd:output.obj
 0001:000621c0       ?get_parameter_type@?$positional_parameter_base@_WV?$stream_output_adapter@_W@__crt_stdio_output@@@__crt_stdio_output@@CA?AW4parameter_type@12@H@Z 00000001800631c0 f i libucrtd:output.obj
 0001:000621d0       ?get_parameter_type@?$positional_parameter_base@_WV?$stream_output_adapter@_W@__crt_stdio_output@@@__crt_stdio_output@@CA?AW4parameter_type@12@I@Z 00000001800631d0 f i libucrtd:output.obj
 0001:000621e0       ?get_parameter_type@?$positional_parameter_base@_WV?$stream_output_adapter@_W@__crt_stdio_output@@@__crt_stdio_output@@CA?AW4parameter_type@12@U_CRT_DOUBLE@@@Z 00000001800631e0 f i libucrtd:output.obj
 0001:000621f0       ?get_parameter_type@?$positional_parameter_base@_WV?$stream_output_adapter@_W@__crt_stdio_output@@@__crt_stdio_output@@CA?AW4parameter_type@12@_J@Z 00000001800631f0 f i libucrtd:output.obj
 0001:00062200       ?get_parameter_type@?$positional_parameter_base@_WV?$stream_output_adapter@_W@__crt_stdio_output@@@__crt_stdio_output@@CA?AW4parameter_type@12@_K@Z 0000000180063200 f i libucrtd:output.obj
 0001:00062210       ?get_parameter_type@?$positional_parameter_base@_WV?$stream_output_adapter@_W@__crt_stdio_output@@@__crt_stdio_output@@CA?AW4parameter_type@12@_W@Z 0000000180063210 f i libucrtd:output.obj
 0001:00062220       ?get_parameter_type@?$positional_parameter_base@_WV?$string_output_adapter@_W@__crt_stdio_output@@@__crt_stdio_output@@CA?AW4parameter_type@12@F@Z 0000000180063220 f i libucrtd:output.obj
 0001:00062230       ?get_parameter_type@?$positional_parameter_base@_WV?$string_output_adapter@_W@__crt_stdio_output@@@__crt_stdio_output@@CA?AW4parameter_type@12@G@Z 0000000180063230 f i libucrtd:output.obj
 0001:00062240       ?get_parameter_type@?$positional_parameter_base@_WV?$string_output_adapter@_W@__crt_stdio_output@@@__crt_stdio_output@@CA?AW4parameter_type@12@H@Z 0000000180063240 f i libucrtd:output.obj
 0001:00062250       ?get_parameter_type@?$positional_parameter_base@_WV?$string_output_adapter@_W@__crt_stdio_output@@@__crt_stdio_output@@CA?AW4parameter_type@12@I@Z 0000000180063250 f i libucrtd:output.obj
 0001:00062260       ?get_parameter_type@?$positional_parameter_base@_WV?$string_output_adapter@_W@__crt_stdio_output@@@__crt_stdio_output@@CA?AW4parameter_type@12@U_CRT_DOUBLE@@@Z 0000000180063260 f i libucrtd:output.obj
 0001:00062270       ?get_parameter_type@?$positional_parameter_base@_WV?$string_output_adapter@_W@__crt_stdio_output@@@__crt_stdio_output@@CA?AW4parameter_type@12@_J@Z 0000000180063270 f i libucrtd:output.obj
 0001:00062280       ?get_parameter_type@?$positional_parameter_base@_WV?$string_output_adapter@_W@__crt_stdio_output@@@__crt_stdio_output@@CA?AW4parameter_type@12@_K@Z 0000000180063280 f i libucrtd:output.obj
 0001:00062290       ?get_parameter_type@?$positional_parameter_base@_WV?$string_output_adapter@_W@__crt_stdio_output@@@__crt_stdio_output@@CA?AW4parameter_type@12@_W@Z 0000000180063290 f i libucrtd:output.obj
 0001:000622a0       ?has_flag@?$output_processor@DV?$stream_output_adapter@D@__crt_stdio_output@@V?$format_validation_base@DV?$stream_output_adapter@D@__crt_stdio_output@@@2@@__crt_stdio_output@@AEBA_NI@Z 00000001800632a0 f i libucrtd:output.obj
 0001:000622e0       ?has_flag@?$output_processor@DV?$stream_output_adapter@D@__crt_stdio_output@@V?$positional_parameter_base@DV?$stream_output_adapter@D@__crt_stdio_output@@@2@@__crt_stdio_output@@AEBA_NI@Z 00000001800632e0 f i libucrtd:output.obj
 0001:00062320       ?has_flag@?$output_processor@DV?$stream_output_adapter@D@__crt_stdio_output@@V?$standard_base@DV?$stream_output_adapter@D@__crt_stdio_output@@@2@@__crt_stdio_output@@AEBA_NI@Z 0000000180063320 f i libucrtd:output.obj
 0001:00062360       ?has_flag@?$output_processor@DV?$string_output_adapter@D@__crt_stdio_output@@V?$format_validation_base@DV?$string_output_adapter@D@__crt_stdio_output@@@2@@__crt_stdio_output@@AEBA_NI@Z 0000000180063360 f i libucrtd:output.obj
 0001:000623a0       ?has_flag@?$output_processor@DV?$string_output_adapter@D@__crt_stdio_output@@V?$positional_parameter_base@DV?$string_output_adapter@D@__crt_stdio_output@@@2@@__crt_stdio_output@@AEBA_NI@Z 00000001800633a0 f i libucrtd:output.obj
 0001:000623e0       ?has_flag@?$output_processor@DV?$string_output_adapter@D@__crt_stdio_output@@V?$standard_base@DV?$string_output_adapter@D@__crt_stdio_output@@@2@@__crt_stdio_output@@AEBA_NI@Z 00000001800633e0 f i libucrtd:output.obj
 0001:00062420       ?has_flag@?$output_processor@_WV?$stream_output_adapter@_W@__crt_stdio_output@@V?$format_validation_base@_WV?$stream_output_adapter@_W@__crt_stdio_output@@@2@@__crt_stdio_output@@AEBA_NI@Z 0000000180063420 f i libucrtd:output.obj
 0001:00062460       ?has_flag@?$output_processor@_WV?$stream_output_adapter@_W@__crt_stdio_output@@V?$positional_parameter_base@_WV?$stream_output_adapter@_W@__crt_stdio_output@@@2@@__crt_stdio_output@@AEBA_NI@Z 0000000180063460 f i libucrtd:output.obj
 0001:000624a0       ?has_flag@?$output_processor@_WV?$stream_output_adapter@_W@__crt_stdio_output@@V?$standard_base@_WV?$stream_output_adapter@_W@__crt_stdio_output@@@2@@__crt_stdio_output@@AEBA_NI@Z 00000001800634a0 f i libucrtd:output.obj
 0001:000624e0       ?has_flag@?$output_processor@_WV?$string_output_adapter@_W@__crt_stdio_output@@V?$format_validation_base@_WV?$string_output_adapter@_W@__crt_stdio_output@@@2@@__crt_stdio_output@@AEBA_NI@Z 00000001800634e0 f i libucrtd:output.obj
 0001:00062520       ?has_flag@?$output_processor@_WV?$string_output_adapter@_W@__crt_stdio_output@@V?$positional_parameter_base@_WV?$string_output_adapter@_W@__crt_stdio_output@@@2@@__crt_stdio_output@@AEBA_NI@Z 0000000180063520 f i libucrtd:output.obj
 0001:00062560       ?has_flag@?$output_processor@_WV?$string_output_adapter@_W@__crt_stdio_output@@V?$standard_base@_WV?$string_output_adapter@_W@__crt_stdio_output@@@2@@__crt_stdio_output@@AEBA_NI@Z 0000000180063560 f i libucrtd:output.obj
 0001:000625a0       ?is_positional_parameter_reappearance_consistent@?$positional_parameter_base@DV?$stream_output_adapter@D@__crt_stdio_output@@@__crt_stdio_output@@AEAA_NAEBUparameter_data@12@W4parameter_type@12@DW4length_modifier@2@@Z 00000001800635a0 f i libucrtd:output.obj
 0001:00062800       ?is_positional_parameter_reappearance_consistent@?$positional_parameter_base@DV?$string_output_adapter@D@__crt_stdio_output@@@__crt_stdio_output@@AEAA_NAEBUparameter_data@12@W4parameter_type@12@DW4length_modifier@2@@Z 0000000180063800 f i libucrtd:output.obj
 0001:00062a60       ?is_positional_parameter_reappearance_consistent@?$positional_parameter_base@_WV?$stream_output_adapter@_W@__crt_stdio_output@@@__crt_stdio_output@@AEAA_NAEBUparameter_data@12@W4parameter_type@12@_WW4length_modifier@2@@Z 0000000180063a60 f i libucrtd:output.obj
 0001:00062cc0       ?is_positional_parameter_reappearance_consistent@?$positional_parameter_base@_WV?$string_output_adapter@_W@__crt_stdio_output@@@__crt_stdio_output@@AEAA_NAEBUparameter_data@12@W4parameter_type@12@_WW4length_modifier@2@@Z 0000000180063cc0 f i libucrtd:output.obj
 0001:00062f20       ?is_string_backed@__crt_stdio_stream@@QEBA_NXZ 0000000180063f20 f i libucrtd:output.obj
 0001:00062f60       ?narrow_null_string@?$output_processor@DV?$stream_output_adapter@D@__crt_stdio_output@@V?$format_validation_base@DV?$stream_output_adapter@D@__crt_stdio_output@@@2@@__crt_stdio_output@@CAPEADXZ 0000000180063f60 f i libucrtd:output.obj
 0001:00062f70       ?narrow_null_string@?$output_processor@DV?$stream_output_adapter@D@__crt_stdio_output@@V?$positional_parameter_base@DV?$stream_output_adapter@D@__crt_stdio_output@@@2@@__crt_stdio_output@@CAPEADXZ 0000000180063f70 f i libucrtd:output.obj
 0001:00062f80       ?narrow_null_string@?$output_processor@DV?$stream_output_adapter@D@__crt_stdio_output@@V?$standard_base@DV?$stream_output_adapter@D@__crt_stdio_output@@@2@@__crt_stdio_output@@CAPEADXZ 0000000180063f80 f i libucrtd:output.obj
 0001:00062f90       ?narrow_null_string@?$output_processor@DV?$string_output_adapter@D@__crt_stdio_output@@V?$format_validation_base@DV?$string_output_adapter@D@__crt_stdio_output@@@2@@__crt_stdio_output@@CAPEADXZ 0000000180063f90 f i libucrtd:output.obj
 0001:00062fa0       ?narrow_null_string@?$output_processor@DV?$string_output_adapter@D@__crt_stdio_output@@V?$positional_parameter_base@DV?$string_output_adapter@D@__crt_stdio_output@@@2@@__crt_stdio_output@@CAPEADXZ 0000000180063fa0 f i libucrtd:output.obj
 0001:00062fb0       ?narrow_null_string@?$output_processor@DV?$string_output_adapter@D@__crt_stdio_output@@V?$standard_base@DV?$string_output_adapter@D@__crt_stdio_output@@@2@@__crt_stdio_output@@CAPEADXZ 0000000180063fb0 f i libucrtd:output.obj
 0001:00062fc0       ?narrow_null_string@?$output_processor@_WV?$stream_output_adapter@_W@__crt_stdio_output@@V?$format_validation_base@_WV?$stream_output_adapter@_W@__crt_stdio_output@@@2@@__crt_stdio_output@@CAPEADXZ 0000000180063fc0 f i libucrtd:output.obj
 0001:00062fd0       ?narrow_null_string@?$output_processor@_WV?$stream_output_adapter@_W@__crt_stdio_output@@V?$positional_parameter_base@_WV?$stream_output_adapter@_W@__crt_stdio_output@@@2@@__crt_stdio_output@@CAPEADXZ 0000000180063fd0 f i libucrtd:output.obj
 0001:00062fe0       ?narrow_null_string@?$output_processor@_WV?$stream_output_adapter@_W@__crt_stdio_output@@V?$standard_base@_WV?$stream_output_adapter@_W@__crt_stdio_output@@@2@@__crt_stdio_output@@CAPEADXZ 0000000180063fe0 f i libucrtd:output.obj
 0001:00062ff0       ?narrow_null_string@?$output_processor@_WV?$string_output_adapter@_W@__crt_stdio_output@@V?$format_validation_base@_WV?$string_output_adapter@_W@__crt_stdio_output@@@2@@__crt_stdio_output@@CAPEADXZ 0000000180063ff0 f i libucrtd:output.obj
 0001:00063000       ?narrow_null_string@?$output_processor@_WV?$string_output_adapter@_W@__crt_stdio_output@@V?$positional_parameter_base@_WV?$string_output_adapter@_W@__crt_stdio_output@@@2@@__crt_stdio_output@@CAPEADXZ 0000000180064000 f i libucrtd:output.obj
 0001:00063010       ?narrow_null_string@?$output_processor@_WV?$string_output_adapter@_W@__crt_stdio_output@@V?$standard_base@_WV?$string_output_adapter@_W@__crt_stdio_output@@@2@@__crt_stdio_output@@CAPEADXZ 0000000180064010 f i libucrtd:output.obj
 0001:00063020       ?parse_int_from_format_string@?$output_processor@DV?$stream_output_adapter@D@__crt_stdio_output@@V?$format_validation_base@DV?$stream_output_adapter@D@__crt_stdio_output@@@2@@__crt_stdio_output@@AEAA_NQEAH@Z 0000000180064020 f i libucrtd:output.obj
 0001:00063110       ?parse_int_from_format_string@?$output_processor@DV?$stream_output_adapter@D@__crt_stdio_output@@V?$positional_parameter_base@DV?$stream_output_adapter@D@__crt_stdio_output@@@2@@__crt_stdio_output@@AEAA_NQEAH@Z 0000000180064110 f i libucrtd:output.obj
 0001:00063200       ?parse_int_from_format_string@?$output_processor@DV?$stream_output_adapter@D@__crt_stdio_output@@V?$standard_base@DV?$stream_output_adapter@D@__crt_stdio_output@@@2@@__crt_stdio_output@@AEAA_NQEAH@Z 0000000180064200 f i libucrtd:output.obj
 0001:000632f0       ?parse_int_from_format_string@?$output_processor@DV?$string_output_adapter@D@__crt_stdio_output@@V?$format_validation_base@DV?$string_output_adapter@D@__crt_stdio_output@@@2@@__crt_stdio_output@@AEAA_NQEAH@Z 00000001800642f0 f i libucrtd:output.obj
 0001:000633e0       ?parse_int_from_format_string@?$output_processor@DV?$string_output_adapter@D@__crt_stdio_output@@V?$positional_parameter_base@DV?$string_output_adapter@D@__crt_stdio_output@@@2@@__crt_stdio_output@@AEAA_NQEAH@Z 00000001800643e0 f i libucrtd:output.obj
 0001:000634d0       ?parse_int_from_format_string@?$output_processor@DV?$string_output_adapter@D@__crt_stdio_output@@V?$standard_base@DV?$string_output_adapter@D@__crt_stdio_output@@@2@@__crt_stdio_output@@AEAA_NQEAH@Z 00000001800644d0 f i libucrtd:output.obj
 0001:000635c0       ?parse_int_from_format_string@?$output_processor@_WV?$stream_output_adapter@_W@__crt_stdio_output@@V?$format_validation_base@_WV?$stream_output_adapter@_W@__crt_stdio_output@@@2@@__crt_stdio_output@@AEAA_NQEAH@Z 00000001800645c0 f i libucrtd:output.obj
 0001:000636b0       ?parse_int_from_format_string@?$output_processor@_WV?$stream_output_adapter@_W@__crt_stdio_output@@V?$positional_parameter_base@_WV?$stream_output_adapter@_W@__crt_stdio_output@@@2@@__crt_stdio_output@@AEAA_NQEAH@Z 00000001800646b0 f i libucrtd:output.obj
 0001:000637a0       ?parse_int_from_format_string@?$output_processor@_WV?$stream_output_adapter@_W@__crt_stdio_output@@V?$standard_base@_WV?$stream_output_adapter@_W@__crt_stdio_output@@@2@@__crt_stdio_output@@AEAA_NQEAH@Z 00000001800647a0 f i libucrtd:output.obj
 0001:00063890       ?parse_int_from_format_string@?$output_processor@_WV?$string_output_adapter@_W@__crt_stdio_output@@V?$format_validation_base@_WV?$string_output_adapter@_W@__crt_stdio_output@@@2@@__crt_stdio_output@@AEAA_NQEAH@Z 0000000180064890 f i libucrtd:output.obj
 0001:00063980       ?parse_int_from_format_string@?$output_processor@_WV?$string_output_adapter@_W@__crt_stdio_output@@V?$positional_parameter_base@_WV?$string_output_adapter@_W@__crt_stdio_output@@@2@@__crt_stdio_output@@AEAA_NQEAH@Z 0000000180064980 f i libucrtd:output.obj
 0001:00063a70       ?parse_int_from_format_string@?$output_processor@_WV?$string_output_adapter@_W@__crt_stdio_output@@V?$standard_base@_WV?$string_output_adapter@_W@__crt_stdio_output@@@2@@__crt_stdio_output@@AEAA_NQEAH@Z 0000000180064a70 f i libucrtd:output.obj
 0001:00063b60       ?process@?$output_processor@DV?$stream_output_adapter@D@__crt_stdio_output@@V?$format_validation_base@DV?$stream_output_adapter@D@__crt_stdio_output@@@2@@__crt_stdio_output@@QEAAHXZ 0000000180064b60 f i libucrtd:output.obj
 0001:00063ec0       ?process@?$output_processor@DV?$stream_output_adapter@D@__crt_stdio_output@@V?$positional_parameter_base@DV?$stream_output_adapter@D@__crt_stdio_output@@@2@@__crt_stdio_output@@QEAAHXZ 0000000180064ec0 f i libucrtd:output.obj
 0001:00064220       ?process@?$output_processor@DV?$stream_output_adapter@D@__crt_stdio_output@@V?$standard_base@DV?$stream_output_adapter@D@__crt_stdio_output@@@2@@__crt_stdio_output@@QEAAHXZ 0000000180065220 f i libucrtd:output.obj
 0001:00064580       ?process@?$output_processor@DV?$string_output_adapter@D@__crt_stdio_output@@V?$format_validation_base@DV?$string_output_adapter@D@__crt_stdio_output@@@2@@__crt_stdio_output@@QEAAHXZ 0000000180065580 f i libucrtd:output.obj
 0001:000648e0       ?process@?$output_processor@DV?$string_output_adapter@D@__crt_stdio_output@@V?$positional_parameter_base@DV?$string_output_adapter@D@__crt_stdio_output@@@2@@__crt_stdio_output@@QEAAHXZ 00000001800658e0 f i libucrtd:output.obj
 0001:00064c40       ?process@?$output_processor@DV?$string_output_adapter@D@__crt_stdio_output@@V?$standard_base@DV?$string_output_adapter@D@__crt_stdio_output@@@2@@__crt_stdio_output@@QEAAHXZ 0000000180065c40 f i libucrtd:output.obj
 0001:00064fa0       ?process@?$output_processor@_WV?$stream_output_adapter@_W@__crt_stdio_output@@V?$format_validation_base@_WV?$stream_output_adapter@_W@__crt_stdio_output@@@2@@__crt_stdio_output@@QEAAHXZ 0000000180065fa0 f i libucrtd:output.obj
 0001:00065300       ?process@?$output_processor@_WV?$stream_output_adapter@_W@__crt_stdio_output@@V?$positional_parameter_base@_WV?$stream_output_adapter@_W@__crt_stdio_output@@@2@@__crt_stdio_output@@QEAAHXZ 0000000180066300 f i libucrtd:output.obj
 0001:00065660       ?process@?$output_processor@_WV?$stream_output_adapter@_W@__crt_stdio_output@@V?$standard_base@_WV?$stream_output_adapter@_W@__crt_stdio_output@@@2@@__crt_stdio_output@@QEAAHXZ 0000000180066660 f i libucrtd:output.obj
 0001:000659c0       ?process@?$output_processor@_WV?$string_output_adapter@_W@__crt_stdio_output@@V?$format_validation_base@_WV?$string_output_adapter@_W@__crt_stdio_output@@@2@@__crt_stdio_output@@QEAAHXZ 00000001800669c0 f i libucrtd:output.obj
 0001:00065d20       ?process@?$output_processor@_WV?$string_output_adapter@_W@__crt_stdio_output@@V?$positional_parameter_base@_WV?$string_output_adapter@_W@__crt_stdio_output@@@2@@__crt_stdio_output@@QEAAHXZ 0000000180066d20 f i libucrtd:output.obj
 0001:00066080       ?process@?$output_processor@_WV?$string_output_adapter@_W@__crt_stdio_output@@V?$standard_base@_WV?$string_output_adapter@_W@__crt_stdio_output@@@2@@__crt_stdio_output@@QEAAHXZ 0000000180067080 f i libucrtd:output.obj
 0001:000663e0       ?public_stream@__crt_stdio_stream@@QEBAPEAU_iobuf@@XZ 00000001800673e0 f i libucrtd:output.obj
 0001:000663f0       ?set_flag@?$output_processor@DV?$stream_output_adapter@D@__crt_stdio_output@@V?$format_validation_base@DV?$stream_output_adapter@D@__crt_stdio_output@@@2@@__crt_stdio_output@@AEAAXI@Z 00000001800673f0 f i libucrtd:output.obj
 0001:00066410       ?set_flag@?$output_processor@DV?$stream_output_adapter@D@__crt_stdio_output@@V?$positional_parameter_base@DV?$stream_output_adapter@D@__crt_stdio_output@@@2@@__crt_stdio_output@@AEAAXI@Z 0000000180067410 f i libucrtd:output.obj
 0001:00066430       ?set_flag@?$output_processor@DV?$stream_output_adapter@D@__crt_stdio_output@@V?$standard_base@DV?$stream_output_adapter@D@__crt_stdio_output@@@2@@__crt_stdio_output@@AEAAXI@Z 0000000180067430 f i libucrtd:output.obj
 0001:00066450       ?set_flag@?$output_processor@DV?$string_output_adapter@D@__crt_stdio_output@@V?$format_validation_base@DV?$string_output_adapter@D@__crt_stdio_output@@@2@@__crt_stdio_output@@AEAAXI@Z 0000000180067450 f i libucrtd:output.obj
 0001:00066470       ?set_flag@?$output_processor@DV?$string_output_adapter@D@__crt_stdio_output@@V?$positional_parameter_base@DV?$string_output_adapter@D@__crt_stdio_output@@@2@@__crt_stdio_output@@AEAAXI@Z 0000000180067470 f i libucrtd:output.obj
 0001:00066490       ?set_flag@?$output_processor@DV?$string_output_adapter@D@__crt_stdio_output@@V?$standard_base@DV?$string_output_adapter@D@__crt_stdio_output@@@2@@__crt_stdio_output@@AEAAXI@Z 0000000180067490 f i libucrtd:output.obj
 0001:000664b0       ?set_flag@?$output_processor@_WV?$stream_output_adapter@_W@__crt_stdio_output@@V?$format_validation_base@_WV?$stream_output_adapter@_W@__crt_stdio_output@@@2@@__crt_stdio_output@@AEAAXI@Z 00000001800674b0 f i libucrtd:output.obj
 0001:000664d0       ?set_flag@?$output_processor@_WV?$stream_output_adapter@_W@__crt_stdio_output@@V?$positional_parameter_base@_WV?$stream_output_adapter@_W@__crt_stdio_output@@@2@@__crt_stdio_output@@AEAAXI@Z 00000001800674d0 f i libucrtd:output.obj
 0001:000664f0       ?set_flag@?$output_processor@_WV?$stream_output_adapter@_W@__crt_stdio_output@@V?$standard_base@_WV?$stream_output_adapter@_W@__crt_stdio_output@@@2@@__crt_stdio_output@@AEAAXI@Z 00000001800674f0 f i libucrtd:output.obj
 0001:00066510       ?set_flag@?$output_processor@_WV?$string_output_adapter@_W@__crt_stdio_output@@V?$format_validation_base@_WV?$string_output_adapter@_W@__crt_stdio_output@@@2@@__crt_stdio_output@@AEAAXI@Z 0000000180067510 f i libucrtd:output.obj
 0001:00066530       ?set_flag@?$output_processor@_WV?$string_output_adapter@_W@__crt_stdio_output@@V?$positional_parameter_base@_WV?$string_output_adapter@_W@__crt_stdio_output@@@2@@__crt_stdio_output@@AEAAXI@Z 0000000180067530 f i libucrtd:output.obj
 0001:00066550       ?set_flag@?$output_processor@_WV?$string_output_adapter@_W@__crt_stdio_output@@V?$standard_base@_WV?$string_output_adapter@_W@__crt_stdio_output@@@2@@__crt_stdio_output@@AEAAXI@Z 0000000180067550 f i libucrtd:output.obj
 0001:00066570       ?should_format@?$positional_parameter_base@DV?$stream_output_adapter@D@__crt_stdio_output@@@__crt_stdio_output@@IEAA_NXZ 0000000180067570 f i libucrtd:output.obj
 0001:000665b0       ?should_format@?$positional_parameter_base@DV?$string_output_adapter@D@__crt_stdio_output@@@__crt_stdio_output@@IEAA_NXZ 00000001800675b0 f i libucrtd:output.obj
 0001:000665f0       ?should_format@?$positional_parameter_base@_WV?$stream_output_adapter@_W@__crt_stdio_output@@@__crt_stdio_output@@IEAA_NXZ 00000001800675f0 f i libucrtd:output.obj
 0001:00066630       ?should_format@?$positional_parameter_base@_WV?$string_output_adapter@_W@__crt_stdio_output@@@__crt_stdio_output@@IEAA_NXZ 0000000180067630 f i libucrtd:output.obj
 0001:00066670       ?should_format@?$standard_base@DV?$stream_output_adapter@D@__crt_stdio_output@@@__crt_stdio_output@@IEAA_NXZ 0000000180067670 f i libucrtd:output.obj
 0001:00066680       ?should_format@?$standard_base@DV?$string_output_adapter@D@__crt_stdio_output@@@__crt_stdio_output@@IEAA_NXZ 0000000180067680 f i libucrtd:output.obj
 0001:00066690       ?should_format@?$standard_base@_WV?$stream_output_adapter@_W@__crt_stdio_output@@@__crt_stdio_output@@IEAA_NXZ 0000000180067690 f i libucrtd:output.obj
 0001:000666a0       ?should_format@?$standard_base@_WV?$string_output_adapter@_W@__crt_stdio_output@@@__crt_stdio_output@@IEAA_NXZ 00000001800676a0 f i libucrtd:output.obj
 0001:000666b0       ?should_skip_normal_state_processing@?$positional_parameter_base@DV?$stream_output_adapter@D@__crt_stdio_output@@@__crt_stdio_output@@IEAA_NXZ 00000001800676b0 f i libucrtd:output.obj
 0001:00066700       ?should_skip_normal_state_processing@?$positional_parameter_base@DV?$string_output_adapter@D@__crt_stdio_output@@@__crt_stdio_output@@IEAA_NXZ 0000000180067700 f i libucrtd:output.obj
 0001:00066750       ?should_skip_normal_state_processing@?$positional_parameter_base@_WV?$stream_output_adapter@_W@__crt_stdio_output@@@__crt_stdio_output@@IEAA_NXZ 0000000180067750 f i libucrtd:output.obj
 0001:000667a0       ?should_skip_normal_state_processing@?$positional_parameter_base@_WV?$string_output_adapter@_W@__crt_stdio_output@@@__crt_stdio_output@@IEAA_NXZ 00000001800677a0 f i libucrtd:output.obj
 0001:000667f0       ?should_skip_normal_state_processing@?$standard_base@DV?$stream_output_adapter@D@__crt_stdio_output@@@__crt_stdio_output@@IEAA_NXZ 00000001800677f0 f i libucrtd:output.obj
 0001:00066800       ?should_skip_normal_state_processing@?$standard_base@DV?$string_output_adapter@D@__crt_stdio_output@@@__crt_stdio_output@@IEAA_NXZ 0000000180067800 f i libucrtd:output.obj
 0001:00066810       ?should_skip_normal_state_processing@?$standard_base@_WV?$stream_output_adapter@_W@__crt_stdio_output@@@__crt_stdio_output@@IEAA_NXZ 0000000180067810 f i libucrtd:output.obj
 0001:00066820       ?should_skip_normal_state_processing@?$standard_base@_WV?$string_output_adapter@_W@__crt_stdio_output@@@__crt_stdio_output@@IEAA_NXZ 0000000180067820 f i libucrtd:output.obj
 0001:00066830       ?should_skip_type_state_output@?$positional_parameter_base@DV?$stream_output_adapter@D@__crt_stdio_output@@@__crt_stdio_output@@IEBA_NXZ 0000000180067830 f i libucrtd:output.obj
 0001:00066870       ?should_skip_type_state_output@?$positional_parameter_base@DV?$string_output_adapter@D@__crt_stdio_output@@@__crt_stdio_output@@IEBA_NXZ 0000000180067870 f i libucrtd:output.obj
 0001:000668b0       ?should_skip_type_state_output@?$positional_parameter_base@_WV?$stream_output_adapter@_W@__crt_stdio_output@@@__crt_stdio_output@@IEBA_NXZ 00000001800678b0 f i libucrtd:output.obj
 0001:000668f0       ?should_skip_type_state_output@?$positional_parameter_base@_WV?$string_output_adapter@_W@__crt_stdio_output@@@__crt_stdio_output@@IEBA_NXZ 00000001800678f0 f i libucrtd:output.obj
 0001:00066930       ?should_skip_type_state_output@?$standard_base@DV?$stream_output_adapter@D@__crt_stdio_output@@@__crt_stdio_output@@IEBA_NXZ 0000000180067930 f i libucrtd:output.obj
 0001:00066940       ?should_skip_type_state_output@?$standard_base@DV?$string_output_adapter@D@__crt_stdio_output@@@__crt_stdio_output@@IEBA_NXZ 0000000180067940 f i libucrtd:output.obj
 0001:00066950       ?should_skip_type_state_output@?$standard_base@_WV?$stream_output_adapter@_W@__crt_stdio_output@@@__crt_stdio_output@@IEBA_NXZ 0000000180067950 f i libucrtd:output.obj
 0001:00066960       ?should_skip_type_state_output@?$standard_base@_WV?$string_output_adapter@_W@__crt_stdio_output@@@__crt_stdio_output@@IEBA_NXZ 0000000180067960 f i libucrtd:output.obj
 0001:00066970       ?state_case_dot@?$output_processor@DV?$stream_output_adapter@D@__crt_stdio_output@@V?$format_validation_base@DV?$stream_output_adapter@D@__crt_stdio_output@@@2@@__crt_stdio_output@@AEAA_NXZ 0000000180067970 f i libucrtd:output.obj
 0001:00066990       ?state_case_dot@?$output_processor@DV?$stream_output_adapter@D@__crt_stdio_output@@V?$positional_parameter_base@DV?$stream_output_adapter@D@__crt_stdio_output@@@2@@__crt_stdio_output@@AEAA_NXZ 0000000180067990 f i libucrtd:output.obj
 0001:000669b0       ?state_case_dot@?$output_processor@DV?$stream_output_adapter@D@__crt_stdio_output@@V?$standard_base@DV?$stream_output_adapter@D@__crt_stdio_output@@@2@@__crt_stdio_output@@AEAA_NXZ 00000001800679b0 f i libucrtd:output.obj
 0001:000669d0       ?state_case_dot@?$output_processor@DV?$string_output_adapter@D@__crt_stdio_output@@V?$format_validation_base@DV?$string_output_adapter@D@__crt_stdio_output@@@2@@__crt_stdio_output@@AEAA_NXZ 00000001800679d0 f i libucrtd:output.obj
 0001:000669f0       ?state_case_dot@?$output_processor@DV?$string_output_adapter@D@__crt_stdio_output@@V?$positional_parameter_base@DV?$string_output_adapter@D@__crt_stdio_output@@@2@@__crt_stdio_output@@AEAA_NXZ 00000001800679f0 f i libucrtd:output.obj
 0001:00066a10       ?state_case_dot@?$output_processor@DV?$string_output_adapter@D@__crt_stdio_output@@V?$standard_base@DV?$string_output_adapter@D@__crt_stdio_output@@@2@@__crt_stdio_output@@AEAA_NXZ 0000000180067a10 f i libucrtd:output.obj
 0001:00066a30       ?state_case_dot@?$output_processor@_WV?$stream_output_adapter@_W@__crt_stdio_output@@V?$format_validation_base@_WV?$stream_output_adapter@_W@__crt_stdio_output@@@2@@__crt_stdio_output@@AEAA_NXZ 0000000180067a30 f i libucrtd:output.obj
 0001:00066a50       ?state_case_dot@?$output_processor@_WV?$stream_output_adapter@_W@__crt_stdio_output@@V?$positional_parameter_base@_WV?$stream_output_adapter@_W@__crt_stdio_output@@@2@@__crt_stdio_output@@AEAA_NXZ 0000000180067a50 f i libucrtd:output.obj
 0001:00066a70       ?state_case_dot@?$output_processor@_WV?$stream_output_adapter@_W@__crt_stdio_output@@V?$standard_base@_WV?$stream_output_adapter@_W@__crt_stdio_output@@@2@@__crt_stdio_output@@AEAA_NXZ 0000000180067a70 f i libucrtd:output.obj
 0001:00066a90       ?state_case_dot@?$output_processor@_WV?$string_output_adapter@_W@__crt_stdio_output@@V?$format_validation_base@_WV?$string_output_adapter@_W@__crt_stdio_output@@@2@@__crt_stdio_output@@AEAA_NXZ 0000000180067a90 f i libucrtd:output.obj
 0001:00066ab0       ?state_case_dot@?$output_processor@_WV?$string_output_adapter@_W@__crt_stdio_output@@V?$positional_parameter_base@_WV?$string_output_adapter@_W@__crt_stdio_output@@@2@@__crt_stdio_output@@AEAA_NXZ 0000000180067ab0 f i libucrtd:output.obj
 0001:00066ad0       ?state_case_dot@?$output_processor@_WV?$string_output_adapter@_W@__crt_stdio_output@@V?$standard_base@_WV?$string_output_adapter@_W@__crt_stdio_output@@@2@@__crt_stdio_output@@AEAA_NXZ 0000000180067ad0 f i libucrtd:output.obj
 0001:00066af0       ?state_case_flag@?$output_processor@DV?$stream_output_adapter@D@__crt_stdio_output@@V?$format_validation_base@DV?$stream_output_adapter@D@__crt_stdio_output@@@2@@__crt_stdio_output@@AEAA_NXZ 0000000180067af0 f i libucrtd:output.obj
 0001:00066b90       ?state_case_flag@?$output_processor@DV?$stream_output_adapter@D@__crt_stdio_output@@V?$positional_parameter_base@DV?$stream_output_adapter@D@__crt_stdio_output@@@2@@__crt_stdio_output@@AEAA_NXZ 0000000180067b90 f i libucrtd:output.obj
 0001:00066c30       ?state_case_flag@?$output_processor@DV?$stream_output_adapter@D@__crt_stdio_output@@V?$standard_base@DV?$stream_output_adapter@D@__crt_stdio_output@@@2@@__crt_stdio_output@@AEAA_NXZ 0000000180067c30 f i libucrtd:output.obj
 0001:00066cd0       ?state_case_flag@?$output_processor@DV?$string_output_adapter@D@__crt_stdio_output@@V?$format_validation_base@DV?$string_output_adapter@D@__crt_stdio_output@@@2@@__crt_stdio_output@@AEAA_NXZ 0000000180067cd0 f i libucrtd:output.obj
 0001:00066d70       ?state_case_flag@?$output_processor@DV?$string_output_adapter@D@__crt_stdio_output@@V?$positional_parameter_base@DV?$string_output_adapter@D@__crt_stdio_output@@@2@@__crt_stdio_output@@AEAA_NXZ 0000000180067d70 f i libucrtd:output.obj
 0001:00066e10       ?state_case_flag@?$output_processor@DV?$string_output_adapter@D@__crt_stdio_output@@V?$standard_base@DV?$string_output_adapter@D@__crt_stdio_output@@@2@@__crt_stdio_output@@AEAA_NXZ 0000000180067e10 f i libucrtd:output.obj
 0001:00066eb0       ?state_case_flag@?$output_processor@_WV?$stream_output_adapter@_W@__crt_stdio_output@@V?$format_validation_base@_WV?$stream_output_adapter@_W@__crt_stdio_output@@@2@@__crt_stdio_output@@AEAA_NXZ 0000000180067eb0 f i libucrtd:output.obj
 0001:00066f50       ?state_case_flag@?$output_processor@_WV?$stream_output_adapter@_W@__crt_stdio_output@@V?$positional_parameter_base@_WV?$stream_output_adapter@_W@__crt_stdio_output@@@2@@__crt_stdio_output@@AEAA_NXZ 0000000180067f50 f i libucrtd:output.obj
 0001:00066ff0       ?state_case_flag@?$output_processor@_WV?$stream_output_adapter@_W@__crt_stdio_output@@V?$standard_base@_WV?$stream_output_adapter@_W@__crt_stdio_output@@@2@@__crt_stdio_output@@AEAA_NXZ 0000000180067ff0 f i libucrtd:output.obj
 0001:00067090       ?state_case_flag@?$output_processor@_WV?$string_output_adapter@_W@__crt_stdio_output@@V?$format_validation_base@_WV?$string_output_adapter@_W@__crt_stdio_output@@@2@@__crt_stdio_output@@AEAA_NXZ 0000000180068090 f i libucrtd:output.obj
 0001:00067130       ?state_case_flag@?$output_processor@_WV?$string_output_adapter@_W@__crt_stdio_output@@V?$positional_parameter_base@_WV?$string_output_adapter@_W@__crt_stdio_output@@@2@@__crt_stdio_output@@AEAA_NXZ 0000000180068130 f i libucrtd:output.obj
 0001:000671d0       ?state_case_flag@?$output_processor@_WV?$string_output_adapter@_W@__crt_stdio_output@@V?$standard_base@_WV?$string_output_adapter@_W@__crt_stdio_output@@@2@@__crt_stdio_output@@AEAA_NXZ 00000001800681d0 f i libucrtd:output.obj
 0001:00067270       ?state_case_normal@?$output_processor@DV?$stream_output_adapter@D@__crt_stdio_output@@V?$format_validation_base@DV?$stream_output_adapter@D@__crt_stdio_output@@@2@@__crt_stdio_output@@AEAA_NXZ 0000000180068270 f i libucrtd:output.obj
 0001:00067350       ?state_case_normal@?$output_processor@DV?$stream_output_adapter@D@__crt_stdio_output@@V?$positional_parameter_base@DV?$stream_output_adapter@D@__crt_stdio_output@@@2@@__crt_stdio_output@@AEAA_NXZ 0000000180068350 f i libucrtd:output.obj
 0001:00067430       ?state_case_normal@?$output_processor@DV?$stream_output_adapter@D@__crt_stdio_output@@V?$standard_base@DV?$stream_output_adapter@D@__crt_stdio_output@@@2@@__crt_stdio_output@@AEAA_NXZ 0000000180068430 f i libucrtd:output.obj
 0001:00067510       ?state_case_normal@?$output_processor@DV?$string_output_adapter@D@__crt_stdio_output@@V?$format_validation_base@DV?$string_output_adapter@D@__crt_stdio_output@@@2@@__crt_stdio_output@@AEAA_NXZ 0000000180068510 f i libucrtd:output.obj
 0001:000675f0       ?state_case_normal@?$output_processor@DV?$string_output_adapter@D@__crt_stdio_output@@V?$positional_parameter_base@DV?$string_output_adapter@D@__crt_stdio_output@@@2@@__crt_stdio_output@@AEAA_NXZ 00000001800685f0 f i libucrtd:output.obj
 0001:000676d0       ?state_case_normal@?$output_processor@DV?$string_output_adapter@D@__crt_stdio_output@@V?$standard_base@DV?$string_output_adapter@D@__crt_stdio_output@@@2@@__crt_stdio_output@@AEAA_NXZ 00000001800686d0 f i libucrtd:output.obj
 0001:000677b0       ?state_case_normal@?$output_processor@_WV?$stream_output_adapter@_W@__crt_stdio_output@@V?$format_validation_base@_WV?$stream_output_adapter@_W@__crt_stdio_output@@@2@@__crt_stdio_output@@AEAA_NXZ 00000001800687b0 f i libucrtd:output.obj
 0001:00067890       ?state_case_normal@?$output_processor@_WV?$stream_output_adapter@_W@__crt_stdio_output@@V?$positional_parameter_base@_WV?$stream_output_adapter@_W@__crt_stdio_output@@@2@@__crt_stdio_output@@AEAA_NXZ 0000000180068890 f i libucrtd:output.obj
 0001:00067970       ?state_case_normal@?$output_processor@_WV?$stream_output_adapter@_W@__crt_stdio_output@@V?$standard_base@_WV?$stream_output_adapter@_W@__crt_stdio_output@@@2@@__crt_stdio_output@@AEAA_NXZ 0000000180068970 f i libucrtd:output.obj
 0001:00067a50       ?state_case_normal@?$output_processor@_WV?$string_output_adapter@_W@__crt_stdio_output@@V?$format_validation_base@_WV?$string_output_adapter@_W@__crt_stdio_output@@@2@@__crt_stdio_output@@AEAA_NXZ 0000000180068a50 f i libucrtd:output.obj
 0001:00067b30       ?state_case_normal@?$output_processor@_WV?$string_output_adapter@_W@__crt_stdio_output@@V?$positional_parameter_base@_WV?$string_output_adapter@_W@__crt_stdio_output@@@2@@__crt_stdio_output@@AEAA_NXZ 0000000180068b30 f i libucrtd:output.obj
 0001:00067c10       ?state_case_normal@?$output_processor@_WV?$string_output_adapter@_W@__crt_stdio_output@@V?$standard_base@_WV?$string_output_adapter@_W@__crt_stdio_output@@@2@@__crt_stdio_output@@AEAA_NXZ 0000000180068c10 f i libucrtd:output.obj
 0001:00067cf0       ?state_case_normal_common@?$output_processor@DV?$stream_output_adapter@D@__crt_stdio_output@@V?$format_validation_base@DV?$stream_output_adapter@D@__crt_stdio_output@@@2@@__crt_stdio_output@@AEAA_NXZ 0000000180068cf0 f i libucrtd:output.obj
 0001:00067d40       ?state_case_normal_common@?$output_processor@DV?$stream_output_adapter@D@__crt_stdio_output@@V?$positional_parameter_base@DV?$stream_output_adapter@D@__crt_stdio_output@@@2@@__crt_stdio_output@@AEAA_NXZ 0000000180068d40 f i libucrtd:output.obj
 0001:00067d90       ?state_case_normal_common@?$output_processor@DV?$stream_output_adapter@D@__crt_stdio_output@@V?$standard_base@DV?$stream_output_adapter@D@__crt_stdio_output@@@2@@__crt_stdio_output@@AEAA_NXZ 0000000180068d90 f i libucrtd:output.obj
 0001:00067de0       ?state_case_normal_common@?$output_processor@DV?$string_output_adapter@D@__crt_stdio_output@@V?$format_validation_base@DV?$string_output_adapter@D@__crt_stdio_output@@@2@@__crt_stdio_output@@AEAA_NXZ 0000000180068de0 f i libucrtd:output.obj
 0001:00067e30       ?state_case_normal_common@?$output_processor@DV?$string_output_adapter@D@__crt_stdio_output@@V?$positional_parameter_base@DV?$string_output_adapter@D@__crt_stdio_output@@@2@@__crt_stdio_output@@AEAA_NXZ 0000000180068e30 f i libucrtd:output.obj
 0001:00067e80       ?state_case_normal_common@?$output_processor@DV?$string_output_adapter@D@__crt_stdio_output@@V?$standard_base@DV?$string_output_adapter@D@__crt_stdio_output@@@2@@__crt_stdio_output@@AEAA_NXZ 0000000180068e80 f i libucrtd:output.obj
 0001:00067ed0       ?state_case_normal_common@?$output_processor@_WV?$stream_output_adapter@_W@__crt_stdio_output@@V?$format_validation_base@_WV?$stream_output_adapter@_W@__crt_stdio_output@@@2@@__crt_stdio_output@@AEAA_NXZ 0000000180068ed0 f i libucrtd:output.obj
 0001:00067f20       ?state_case_normal_common@?$output_processor@_WV?$stream_output_adapter@_W@__crt_stdio_output@@V?$positional_parameter_base@_WV?$stream_output_adapter@_W@__crt_stdio_output@@@2@@__crt_stdio_output@@AEAA_NXZ 0000000180068f20 f i libucrtd:output.obj
 0001:00067f70       ?state_case_normal_common@?$output_processor@_WV?$stream_output_adapter@_W@__crt_stdio_output@@V?$standard_base@_WV?$stream_output_adapter@_W@__crt_stdio_output@@@2@@__crt_stdio_output@@AEAA_NXZ 0000000180068f70 f i libucrtd:output.obj
 0001:00067fc0       ?state_case_normal_common@?$output_processor@_WV?$string_output_adapter@_W@__crt_stdio_output@@V?$format_validation_base@_WV?$string_output_adapter@_W@__crt_stdio_output@@@2@@__crt_stdio_output@@AEAA_NXZ 0000000180068fc0 f i libucrtd:output.obj
 0001:00068010       ?state_case_normal_common@?$output_processor@_WV?$string_output_adapter@_W@__crt_stdio_output@@V?$positional_parameter_base@_WV?$string_output_adapter@_W@__crt_stdio_output@@@2@@__crt_stdio_output@@AEAA_NXZ 0000000180069010 f i libucrtd:output.obj
 0001:00068060       ?state_case_normal_common@?$output_processor@_WV?$string_output_adapter@_W@__crt_stdio_output@@V?$standard_base@_WV?$string_output_adapter@_W@__crt_stdio_output@@@2@@__crt_stdio_output@@AEAA_NXZ 0000000180069060 f i libucrtd:output.obj
 0001:000680b0       ?state_case_normal_tchar@?$output_processor@DV?$stream_output_adapter@D@__crt_stdio_output@@V?$format_validation_base@DV?$stream_output_adapter@D@__crt_stdio_output@@@2@@__crt_stdio_output@@AEAA_ND@Z 00000001800690b0 f i libucrtd:output.obj
 0001:000681f0       ?state_case_normal_tchar@?$output_processor@DV?$stream_output_adapter@D@__crt_stdio_output@@V?$positional_parameter_base@DV?$stream_output_adapter@D@__crt_stdio_output@@@2@@__crt_stdio_output@@AEAA_ND@Z 00000001800691f0 f i libucrtd:output.obj
 0001:00068330       ?state_case_normal_tchar@?$output_processor@DV?$stream_output_adapter@D@__crt_stdio_output@@V?$standard_base@DV?$stream_output_adapter@D@__crt_stdio_output@@@2@@__crt_stdio_output@@AEAA_ND@Z 0000000180069330 f i libucrtd:output.obj
 0001:00068470       ?state_case_normal_tchar@?$output_processor@DV?$string_output_adapter@D@__crt_stdio_output@@V?$format_validation_base@DV?$string_output_adapter@D@__crt_stdio_output@@@2@@__crt_stdio_output@@AEAA_ND@Z 0000000180069470 f i libucrtd:output.obj
 0001:000685b0       ?state_case_normal_tchar@?$output_processor@DV?$string_output_adapter@D@__crt_stdio_output@@V?$positional_parameter_base@DV?$string_output_adapter@D@__crt_stdio_output@@@2@@__crt_stdio_output@@AEAA_ND@Z 00000001800695b0 f i libucrtd:output.obj
 0001:000686f0       ?state_case_normal_tchar@?$output_processor@DV?$string_output_adapter@D@__crt_stdio_output@@V?$standard_base@DV?$string_output_adapter@D@__crt_stdio_output@@@2@@__crt_stdio_output@@AEAA_ND@Z 00000001800696f0 f i libucrtd:output.obj
 0001:00068830       ?state_case_normal_tchar@?$output_processor@_WV?$stream_output_adapter@_W@__crt_stdio_output@@V?$format_validation_base@_WV?$stream_output_adapter@_W@__crt_stdio_output@@@2@@__crt_stdio_output@@AEAA_N_W@Z 0000000180069830 f i libucrtd:output.obj
 0001:00068850       ?state_case_normal_tchar@?$output_processor@_WV?$stream_output_adapter@_W@__crt_stdio_output@@V?$positional_parameter_base@_WV?$stream_output_adapter@_W@__crt_stdio_output@@@2@@__crt_stdio_output@@AEAA_N_W@Z 0000000180069850 f i libucrtd:output.obj
 0001:00068870       ?state_case_normal_tchar@?$output_processor@_WV?$stream_output_adapter@_W@__crt_stdio_output@@V?$standard_base@_WV?$stream_output_adapter@_W@__crt_stdio_output@@@2@@__crt_stdio_output@@AEAA_N_W@Z 0000000180069870 f i libucrtd:output.obj
 0001:00068890       ?state_case_normal_tchar@?$output_processor@_WV?$string_output_adapter@_W@__crt_stdio_output@@V?$format_validation_base@_WV?$string_output_adapter@_W@__crt_stdio_output@@@2@@__crt_stdio_output@@AEAA_N_W@Z 0000000180069890 f i libucrtd:output.obj
 0001:000688b0       ?state_case_normal_tchar@?$output_processor@_WV?$string_output_adapter@_W@__crt_stdio_output@@V?$positional_parameter_base@_WV?$string_output_adapter@_W@__crt_stdio_output@@@2@@__crt_stdio_output@@AEAA_N_W@Z 00000001800698b0 f i libucrtd:output.obj
 0001:000688d0       ?state_case_normal_tchar@?$output_processor@_WV?$string_output_adapter@_W@__crt_stdio_output@@V?$standard_base@_WV?$string_output_adapter@_W@__crt_stdio_output@@@2@@__crt_stdio_output@@AEAA_N_W@Z 00000001800698d0 f i libucrtd:output.obj
 0001:000688f0       ?state_case_percent@?$output_processor@DV?$stream_output_adapter@D@__crt_stdio_output@@V?$format_validation_base@DV?$stream_output_adapter@D@__crt_stdio_output@@@2@@__crt_stdio_output@@AEAA_NXZ 00000001800698f0 f i libucrtd:output.obj
 0001:00068940       ?state_case_percent@?$output_processor@DV?$stream_output_adapter@D@__crt_stdio_output@@V?$positional_parameter_base@DV?$stream_output_adapter@D@__crt_stdio_output@@@2@@__crt_stdio_output@@AEAA_NXZ 0000000180069940 f i libucrtd:output.obj
 0001:00068990       ?state_case_percent@?$output_processor@DV?$stream_output_adapter@D@__crt_stdio_output@@V?$standard_base@DV?$stream_output_adapter@D@__crt_stdio_output@@@2@@__crt_stdio_output@@AEAA_NXZ 0000000180069990 f i libucrtd:output.obj
 0001:000689e0       ?state_case_percent@?$output_processor@DV?$string_output_adapter@D@__crt_stdio_output@@V?$format_validation_base@DV?$string_output_adapter@D@__crt_stdio_output@@@2@@__crt_stdio_output@@AEAA_NXZ 00000001800699e0 f i libucrtd:output.obj
 0001:00068a30       ?state_case_percent@?$output_processor@DV?$string_output_adapter@D@__crt_stdio_output@@V?$positional_parameter_base@DV?$string_output_adapter@D@__crt_stdio_output@@@2@@__crt_stdio_output@@AEAA_NXZ 0000000180069a30 f i libucrtd:output.obj
 0001:00068a80       ?state_case_percent@?$output_processor@DV?$string_output_adapter@D@__crt_stdio_output@@V?$standard_base@DV?$string_output_adapter@D@__crt_stdio_output@@@2@@__crt_stdio_output@@AEAA_NXZ 0000000180069a80 f i libucrtd:output.obj
 0001:00068ad0       ?state_case_percent@?$output_processor@_WV?$stream_output_adapter@_W@__crt_stdio_output@@V?$format_validation_base@_WV?$stream_output_adapter@_W@__crt_stdio_output@@@2@@__crt_stdio_output@@AEAA_NXZ 0000000180069ad0 f i libucrtd:output.obj
 0001:00068b20       ?state_case_percent@?$output_processor@_WV?$stream_output_adapter@_W@__crt_stdio_output@@V?$positional_parameter_base@_WV?$stream_output_adapter@_W@__crt_stdio_output@@@2@@__crt_stdio_output@@AEAA_NXZ 0000000180069b20 f i libucrtd:output.obj
 0001:00068b70       ?state_case_percent@?$output_processor@_WV?$stream_output_adapter@_W@__crt_stdio_output@@V?$standard_base@_WV?$stream_output_adapter@_W@__crt_stdio_output@@@2@@__crt_stdio_output@@AEAA_NXZ 0000000180069b70 f i libucrtd:output.obj
 0001:00068bc0       ?state_case_percent@?$output_processor@_WV?$string_output_adapter@_W@__crt_stdio_output@@V?$format_validation_base@_WV?$string_output_adapter@_W@__crt_stdio_output@@@2@@__crt_stdio_output@@AEAA_NXZ 0000000180069bc0 f i libucrtd:output.obj
 0001:00068c10       ?state_case_percent@?$output_processor@_WV?$string_output_adapter@_W@__crt_stdio_output@@V?$positional_parameter_base@_WV?$string_output_adapter@_W@__crt_stdio_output@@@2@@__crt_stdio_output@@AEAA_NXZ 0000000180069c10 f i libucrtd:output.obj
 0001:00068c60       ?state_case_percent@?$output_processor@_WV?$string_output_adapter@_W@__crt_stdio_output@@V?$standard_base@_WV?$string_output_adapter@_W@__crt_stdio_output@@@2@@__crt_stdio_output@@AEAA_NXZ 0000000180069c60 f i libucrtd:output.obj
 0001:00068cb0       ?state_case_precision@?$output_processor@DV?$stream_output_adapter@D@__crt_stdio_output@@V?$format_validation_base@DV?$stream_output_adapter@D@__crt_stdio_output@@@2@@__crt_stdio_output@@AEAA_NXZ 0000000180069cb0 f i libucrtd:output.obj
 0001:00068d30       ?state_case_precision@?$output_processor@DV?$stream_output_adapter@D@__crt_stdio_output@@V?$positional_parameter_base@DV?$stream_output_adapter@D@__crt_stdio_output@@@2@@__crt_stdio_output@@AEAA_NXZ 0000000180069d30 f i libucrtd:output.obj
 0001:00068db0       ?state_case_precision@?$output_processor@DV?$stream_output_adapter@D@__crt_stdio_output@@V?$standard_base@DV?$stream_output_adapter@D@__crt_stdio_output@@@2@@__crt_stdio_output@@AEAA_NXZ 0000000180069db0 f i libucrtd:output.obj
 0001:00068e30       ?state_case_precision@?$output_processor@DV?$string_output_adapter@D@__crt_stdio_output@@V?$format_validation_base@DV?$string_output_adapter@D@__crt_stdio_output@@@2@@__crt_stdio_output@@AEAA_NXZ 0000000180069e30 f i libucrtd:output.obj
 0001:00068eb0       ?state_case_precision@?$output_processor@DV?$string_output_adapter@D@__crt_stdio_output@@V?$positional_parameter_base@DV?$string_output_adapter@D@__crt_stdio_output@@@2@@__crt_stdio_output@@AEAA_NXZ 0000000180069eb0 f i libucrtd:output.obj
 0001:00068f30       ?state_case_precision@?$output_processor@DV?$string_output_adapter@D@__crt_stdio_output@@V?$standard_base@DV?$string_output_adapter@D@__crt_stdio_output@@@2@@__crt_stdio_output@@AEAA_NXZ 0000000180069f30 f i libucrtd:output.obj
 0001:00068fb0       ?state_case_precision@?$output_processor@_WV?$stream_output_adapter@_W@__crt_stdio_output@@V?$format_validation_base@_WV?$stream_output_adapter@_W@__crt_stdio_output@@@2@@__crt_stdio_output@@AEAA_NXZ 0000000180069fb0 f i libucrtd:output.obj
 0001:00069030       ?state_case_precision@?$output_processor@_WV?$stream_output_adapter@_W@__crt_stdio_output@@V?$positional_parameter_base@_WV?$stream_output_adapter@_W@__crt_stdio_output@@@2@@__crt_stdio_output@@AEAA_NXZ 000000018006a030 f i libucrtd:output.obj
 0001:000690b0       ?state_case_precision@?$output_processor@_WV?$stream_output_adapter@_W@__crt_stdio_output@@V?$standard_base@_WV?$stream_output_adapter@_W@__crt_stdio_output@@@2@@__crt_stdio_output@@AEAA_NXZ 000000018006a0b0 f i libucrtd:output.obj
 0001:00069130       ?state_case_precision@?$output_processor@_WV?$string_output_adapter@_W@__crt_stdio_output@@V?$format_validation_base@_WV?$string_output_adapter@_W@__crt_stdio_output@@@2@@__crt_stdio_output@@AEAA_NXZ 000000018006a130 f i libucrtd:output.obj
 0001:000691b0       ?state_case_precision@?$output_processor@_WV?$string_output_adapter@_W@__crt_stdio_output@@V?$positional_parameter_base@_WV?$string_output_adapter@_W@__crt_stdio_output@@@2@@__crt_stdio_output@@AEAA_NXZ 000000018006a1b0 f i libucrtd:output.obj
 0001:00069230       ?state_case_precision@?$output_processor@_WV?$string_output_adapter@_W@__crt_stdio_output@@V?$standard_base@_WV?$string_output_adapter@_W@__crt_stdio_output@@@2@@__crt_stdio_output@@AEAA_NXZ 000000018006a230 f i libucrtd:output.obj
 0001:000692b0       ?state_case_size@?$output_processor@DV?$stream_output_adapter@D@__crt_stdio_output@@V?$format_validation_base@DV?$stream_output_adapter@D@__crt_stdio_output@@@2@@__crt_stdio_output@@AEAA_NXZ 000000018006a2b0 f i libucrtd:output.obj
 0001:00069730       ?state_case_size@?$output_processor@DV?$stream_output_adapter@D@__crt_stdio_output@@V?$positional_parameter_base@DV?$stream_output_adapter@D@__crt_stdio_output@@@2@@__crt_stdio_output@@AEAA_NXZ 000000018006a730 f i libucrtd:output.obj
 0001:00069bb0       ?state_case_size@?$output_processor@DV?$stream_output_adapter@D@__crt_stdio_output@@V?$standard_base@DV?$stream_output_adapter@D@__crt_stdio_output@@@2@@__crt_stdio_output@@AEAA_NXZ 000000018006abb0 f i libucrtd:output.obj
 0001:0006a030       ?state_case_size@?$output_processor@DV?$string_output_adapter@D@__crt_stdio_output@@V?$format_validation_base@DV?$string_output_adapter@D@__crt_stdio_output@@@2@@__crt_stdio_output@@AEAA_NXZ 000000018006b030 f i libucrtd:output.obj
 0001:0006a4b0       ?state_case_size@?$output_processor@DV?$string_output_adapter@D@__crt_stdio_output@@V?$positional_parameter_base@DV?$string_output_adapter@D@__crt_stdio_output@@@2@@__crt_stdio_output@@AEAA_NXZ 000000018006b4b0 f i libucrtd:output.obj
 0001:0006a930       ?state_case_size@?$output_processor@DV?$string_output_adapter@D@__crt_stdio_output@@V?$standard_base@DV?$string_output_adapter@D@__crt_stdio_output@@@2@@__crt_stdio_output@@AEAA_NXZ 000000018006b930 f i libucrtd:output.obj
 0001:0006adb0       ?state_case_size@?$output_processor@_WV?$stream_output_adapter@_W@__crt_stdio_output@@V?$format_validation_base@_WV?$stream_output_adapter@_W@__crt_stdio_output@@@2@@__crt_stdio_output@@AEAA_NXZ 000000018006bdb0 f i libucrtd:output.obj
 0001:0006b230       ?state_case_size@?$output_processor@_WV?$stream_output_adapter@_W@__crt_stdio_output@@V?$positional_parameter_base@_WV?$stream_output_adapter@_W@__crt_stdio_output@@@2@@__crt_stdio_output@@AEAA_NXZ 000000018006c230 f i libucrtd:output.obj
 0001:0006b6b0       ?state_case_size@?$output_processor@_WV?$stream_output_adapter@_W@__crt_stdio_output@@V?$standard_base@_WV?$stream_output_adapter@_W@__crt_stdio_output@@@2@@__crt_stdio_output@@AEAA_NXZ 000000018006c6b0 f i libucrtd:output.obj
 0001:0006bb30       ?state_case_size@?$output_processor@_WV?$string_output_adapter@_W@__crt_stdio_output@@V?$format_validation_base@_WV?$string_output_adapter@_W@__crt_stdio_output@@@2@@__crt_stdio_output@@AEAA_NXZ 000000018006cb30 f i libucrtd:output.obj
 0001:0006bfb0       ?state_case_size@?$output_processor@_WV?$string_output_adapter@_W@__crt_stdio_output@@V?$positional_parameter_base@_WV?$string_output_adapter@_W@__crt_stdio_output@@@2@@__crt_stdio_output@@AEAA_NXZ 000000018006cfb0 f i libucrtd:output.obj
 0001:0006c430       ?state_case_size@?$output_processor@_WV?$string_output_adapter@_W@__crt_stdio_output@@V?$standard_base@_WV?$string_output_adapter@_W@__crt_stdio_output@@@2@@__crt_stdio_output@@AEAA_NXZ 000000018006d430 f i libucrtd:output.obj
 0001:0006c8b0       ?state_case_type@?$output_processor@DV?$stream_output_adapter@D@__crt_stdio_output@@V?$format_validation_base@DV?$stream_output_adapter@D@__crt_stdio_output@@@2@@__crt_stdio_output@@AEAA_NXZ 000000018006d8b0 f i libucrtd:output.obj
 0001:0006cd50       ?state_case_type@?$output_processor@DV?$stream_output_adapter@D@__crt_stdio_output@@V?$positional_parameter_base@DV?$stream_output_adapter@D@__crt_stdio_output@@@2@@__crt_stdio_output@@AEAA_NXZ 000000018006dd50 f i libucrtd:output.obj
 0001:0006d1f0       ?state_case_type@?$output_processor@DV?$stream_output_adapter@D@__crt_stdio_output@@V?$standard_base@DV?$stream_output_adapter@D@__crt_stdio_output@@@2@@__crt_stdio_output@@AEAA_NXZ 000000018006e1f0 f i libucrtd:output.obj
 0001:0006d690       ?state_case_type@?$output_processor@DV?$string_output_adapter@D@__crt_stdio_output@@V?$format_validation_base@DV?$string_output_adapter@D@__crt_stdio_output@@@2@@__crt_stdio_output@@AEAA_NXZ 000000018006e690 f i libucrtd:output.obj
 0001:0006db30       ?state_case_type@?$output_processor@DV?$string_output_adapter@D@__crt_stdio_output@@V?$positional_parameter_base@DV?$string_output_adapter@D@__crt_stdio_output@@@2@@__crt_stdio_output@@AEAA_NXZ 000000018006eb30 f i libucrtd:output.obj
 0001:0006dfd0       ?state_case_type@?$output_processor@DV?$string_output_adapter@D@__crt_stdio_output@@V?$standard_base@DV?$string_output_adapter@D@__crt_stdio_output@@@2@@__crt_stdio_output@@AEAA_NXZ 000000018006efd0 f i libucrtd:output.obj
 0001:0006e470       ?state_case_type@?$output_processor@_WV?$stream_output_adapter@_W@__crt_stdio_output@@V?$format_validation_base@_WV?$stream_output_adapter@_W@__crt_stdio_output@@@2@@__crt_stdio_output@@AEAA_NXZ 000000018006f470 f i libucrtd:output.obj
 0001:0006e9d0       ?state_case_type@?$output_processor@_WV?$stream_output_adapter@_W@__crt_stdio_output@@V?$positional_parameter_base@_WV?$stream_output_adapter@_W@__crt_stdio_output@@@2@@__crt_stdio_output@@AEAA_NXZ 000000018006f9d0 f i libucrtd:output.obj
 0001:0006ef30       ?state_case_type@?$output_processor@_WV?$stream_output_adapter@_W@__crt_stdio_output@@V?$standard_base@_WV?$stream_output_adapter@_W@__crt_stdio_output@@@2@@__crt_stdio_output@@AEAA_NXZ 000000018006ff30 f i libucrtd:output.obj
 0001:0006f490       ?state_case_type@?$output_processor@_WV?$string_output_adapter@_W@__crt_stdio_output@@V?$format_validation_base@_WV?$string_output_adapter@_W@__crt_stdio_output@@@2@@__crt_stdio_output@@AEAA_NXZ 0000000180070490 f i libucrtd:output.obj
 0001:0006f9f0       ?state_case_type@?$output_processor@_WV?$string_output_adapter@_W@__crt_stdio_output@@V?$positional_parameter_base@_WV?$string_output_adapter@_W@__crt_stdio_output@@@2@@__crt_stdio_output@@AEAA_NXZ 00000001800709f0 f i libucrtd:output.obj
 0001:0006ff50       ?state_case_type@?$output_processor@_WV?$string_output_adapter@_W@__crt_stdio_output@@V?$standard_base@_WV?$string_output_adapter@_W@__crt_stdio_output@@@2@@__crt_stdio_output@@AEAA_NXZ 0000000180070f50 f i libucrtd:output.obj
 0001:000704b0       ?state_case_width@?$output_processor@DV?$stream_output_adapter@D@__crt_stdio_output@@V?$format_validation_base@DV?$stream_output_adapter@D@__crt_stdio_output@@@2@@__crt_stdio_output@@AEAA_NXZ 00000001800714b0 f i libucrtd:output.obj
 0001:00070540       ?state_case_width@?$output_processor@DV?$stream_output_adapter@D@__crt_stdio_output@@V?$positional_parameter_base@DV?$stream_output_adapter@D@__crt_stdio_output@@@2@@__crt_stdio_output@@AEAA_NXZ 0000000180071540 f i libucrtd:output.obj
 0001:000705d0       ?state_case_width@?$output_processor@DV?$stream_output_adapter@D@__crt_stdio_output@@V?$standard_base@DV?$stream_output_adapter@D@__crt_stdio_output@@@2@@__crt_stdio_output@@AEAA_NXZ 00000001800715d0 f i libucrtd:output.obj
 0001:00070660       ?state_case_width@?$output_processor@DV?$string_output_adapter@D@__crt_stdio_output@@V?$format_validation_base@DV?$string_output_adapter@D@__crt_stdio_output@@@2@@__crt_stdio_output@@AEAA_NXZ 0000000180071660 f i libucrtd:output.obj
 0001:000706f0       ?state_case_width@?$output_processor@DV?$string_output_adapter@D@__crt_stdio_output@@V?$positional_parameter_base@DV?$string_output_adapter@D@__crt_stdio_output@@@2@@__crt_stdio_output@@AEAA_NXZ 00000001800716f0 f i libucrtd:output.obj
 0001:00070780       ?state_case_width@?$output_processor@DV?$string_output_adapter@D@__crt_stdio_output@@V?$standard_base@DV?$string_output_adapter@D@__crt_stdio_output@@@2@@__crt_stdio_output@@AEAA_NXZ 0000000180071780 f i libucrtd:output.obj
 0001:00070810       ?state_case_width@?$output_processor@_WV?$stream_output_adapter@_W@__crt_stdio_output@@V?$format_validation_base@_WV?$stream_output_adapter@_W@__crt_stdio_output@@@2@@__crt_stdio_output@@AEAA_NXZ 0000000180071810 f i libucrtd:output.obj
 0001:000708a0       ?state_case_width@?$output_processor@_WV?$stream_output_adapter@_W@__crt_stdio_output@@V?$positional_parameter_base@_WV?$stream_output_adapter@_W@__crt_stdio_output@@@2@@__crt_stdio_output@@AEAA_NXZ 00000001800718a0 f i libucrtd:output.obj
 0001:00070930       ?state_case_width@?$output_processor@_WV?$stream_output_adapter@_W@__crt_stdio_output@@V?$standard_base@_WV?$stream_output_adapter@_W@__crt_stdio_output@@@2@@__crt_stdio_output@@AEAA_NXZ 0000000180071930 f i libucrtd:output.obj
 0001:000709c0       ?state_case_width@?$output_processor@_WV?$string_output_adapter@_W@__crt_stdio_output@@V?$format_validation_base@_WV?$string_output_adapter@_W@__crt_stdio_output@@@2@@__crt_stdio_output@@AEAA_NXZ 00000001800719c0 f i libucrtd:output.obj
 0001:00070a50       ?state_case_width@?$output_processor@_WV?$string_output_adapter@_W@__crt_stdio_output@@V?$positional_parameter_base@_WV?$string_output_adapter@_W@__crt_stdio_output@@@2@@__crt_stdio_output@@AEAA_NXZ 0000000180071a50 f i libucrtd:output.obj
 0001:00070ae0       ?state_case_width@?$output_processor@_WV?$string_output_adapter@_W@__crt_stdio_output@@V?$standard_base@_WV?$string_output_adapter@_W@__crt_stdio_output@@@2@@__crt_stdio_output@@AEAA_NXZ 0000000180071ae0 f i libucrtd:output.obj
 0001:00070b70       ?state_count@?$format_validation_base@DV?$stream_output_adapter@D@__crt_stdio_output@@@__crt_stdio_output@@KAIXZ 0000000180071b70 f i libucrtd:output.obj
 0001:00070b80       ?state_count@?$format_validation_base@DV?$string_output_adapter@D@__crt_stdio_output@@@__crt_stdio_output@@KAIXZ 0000000180071b80 f i libucrtd:output.obj
 0001:00070b90       ?state_count@?$format_validation_base@_WV?$stream_output_adapter@_W@__crt_stdio_output@@@__crt_stdio_output@@KAIXZ 0000000180071b90 f i libucrtd:output.obj
 0001:00070ba0       ?state_count@?$format_validation_base@_WV?$string_output_adapter@_W@__crt_stdio_output@@@__crt_stdio_output@@KAIXZ 0000000180071ba0 f i libucrtd:output.obj
 0001:00070bb0       ?state_count@?$standard_base@DV?$stream_output_adapter@D@__crt_stdio_output@@@__crt_stdio_output@@KAIXZ 0000000180071bb0 f i libucrtd:output.obj
 0001:00070bc0       ?state_count@?$standard_base@DV?$string_output_adapter@D@__crt_stdio_output@@@__crt_stdio_output@@KAIXZ 0000000180071bc0 f i libucrtd:output.obj
 0001:00070bd0       ?state_count@?$standard_base@_WV?$stream_output_adapter@_W@__crt_stdio_output@@@__crt_stdio_output@@KAIXZ 0000000180071bd0 f i libucrtd:output.obj
 0001:00070be0       ?state_count@?$standard_base@_WV?$string_output_adapter@_W@__crt_stdio_output@@@__crt_stdio_output@@KAIXZ 0000000180071be0 f i libucrtd:output.obj
 0001:00070bf0       ?state_transition_table@?$format_validation_base@DV?$stream_output_adapter@D@__crt_stdio_output@@@__crt_stdio_output@@KAAEBV?$spectre_mitigated_lookup_table@Ustate_transition_pair@__crt_stdio_output@@$0IA@@2@XZ 0000000180071bf0 f i libucrtd:output.obj
 0001:00070c00       ?state_transition_table@?$format_validation_base@DV?$string_output_adapter@D@__crt_stdio_output@@@__crt_stdio_output@@KAAEBV?$spectre_mitigated_lookup_table@Ustate_transition_pair@__crt_stdio_output@@$0IA@@2@XZ 0000000180071c00 f i libucrtd:output.obj
 0001:00070c10       ?state_transition_table@?$format_validation_base@_WV?$stream_output_adapter@_W@__crt_stdio_output@@@__crt_stdio_output@@KAAEBV?$spectre_mitigated_lookup_table@Ustate_transition_pair@__crt_stdio_output@@$0IA@@2@XZ 0000000180071c10 f i libucrtd:output.obj
 0001:00070c20       ?state_transition_table@?$format_validation_base@_WV?$string_output_adapter@_W@__crt_stdio_output@@@__crt_stdio_output@@KAAEBV?$spectre_mitigated_lookup_table@Ustate_transition_pair@__crt_stdio_output@@$0IA@@2@XZ 0000000180071c20 f i libucrtd:output.obj
 0001:00070c30       ?state_transition_table@?$standard_base@DV?$stream_output_adapter@D@__crt_stdio_output@@@__crt_stdio_output@@KAAEBV?$spectre_mitigated_lookup_table@Ustate_transition_pair@__crt_stdio_output@@$0IA@@2@XZ 0000000180071c30 f i libucrtd:output.obj
 0001:00070c40       ?state_transition_table@?$standard_base@DV?$string_output_adapter@D@__crt_stdio_output@@@__crt_stdio_output@@KAAEBV?$spectre_mitigated_lookup_table@Ustate_transition_pair@__crt_stdio_output@@$0IA@@2@XZ 0000000180071c40 f i libucrtd:output.obj
 0001:00070c50       ?state_transition_table@?$standard_base@_WV?$stream_output_adapter@_W@__crt_stdio_output@@@__crt_stdio_output@@KAAEBV?$spectre_mitigated_lookup_table@Ustate_transition_pair@__crt_stdio_output@@$0IA@@2@XZ 0000000180071c50 f i libucrtd:output.obj
 0001:00070c60       ?state_transition_table@?$standard_base@_WV?$string_output_adapter@_W@__crt_stdio_output@@@__crt_stdio_output@@KAAEBV?$spectre_mitigated_lookup_table@Ustate_transition_pair@__crt_stdio_output@@$0IA@@2@XZ 0000000180071c60 f i libucrtd:output.obj
 0001:00070c70       ?tchar_string@?$common_data@D@__crt_stdio_output@@IEAAAEAPEADD@Z 0000000180071c70 f i libucrtd:output.obj
 0001:00070c90       ?tchar_string@?$common_data@D@__crt_stdio_output@@IEAAAEAPEADXZ 0000000180071c90 f i libucrtd:output.obj
 0001:00070cb0       ?tchar_string@?$common_data@_W@__crt_stdio_output@@IEAAAEAPEA_WXZ 0000000180071cb0 f i libucrtd:output.obj
 0001:00070cd0       ?tchar_string@?$common_data@_W@__crt_stdio_output@@IEAAAEAPEA_W_W@Z 0000000180071cd0 f i libucrtd:output.obj
 0001:00070cf0       ?to_integer_size@__crt_stdio_output@@YA_KW4length_modifier@1@@Z 0000000180071cf0 f i libucrtd:output.obj
 0001:00070da0       ?type_case_X@?$output_processor@DV?$stream_output_adapter@D@__crt_stdio_output@@V?$format_validation_base@DV?$stream_output_adapter@D@__crt_stdio_output@@@2@@__crt_stdio_output@@AEAA_NXZ 0000000180071da0 f i libucrtd:output.obj
 0001:00070dc0       ?type_case_X@?$output_processor@DV?$stream_output_adapter@D@__crt_stdio_output@@V?$positional_parameter_base@DV?$stream_output_adapter@D@__crt_stdio_output@@@2@@__crt_stdio_output@@AEAA_NXZ 0000000180071dc0 f i libucrtd:output.obj
 0001:00070de0       ?type_case_X@?$output_processor@DV?$stream_output_adapter@D@__crt_stdio_output@@V?$standard_base@DV?$stream_output_adapter@D@__crt_stdio_output@@@2@@__crt_stdio_output@@AEAA_NXZ 0000000180071de0 f i libucrtd:output.obj
 0001:00070e00       ?type_case_X@?$output_processor@DV?$string_output_adapter@D@__crt_stdio_output@@V?$format_validation_base@DV?$string_output_adapter@D@__crt_stdio_output@@@2@@__crt_stdio_output@@AEAA_NXZ 0000000180071e00 f i libucrtd:output.obj
 0001:00070e20       ?type_case_X@?$output_processor@DV?$string_output_adapter@D@__crt_stdio_output@@V?$positional_parameter_base@DV?$string_output_adapter@D@__crt_stdio_output@@@2@@__crt_stdio_output@@AEAA_NXZ 0000000180071e20 f i libucrtd:output.obj
 0001:00070e40       ?type_case_X@?$output_processor@DV?$string_output_adapter@D@__crt_stdio_output@@V?$standard_base@DV?$string_output_adapter@D@__crt_stdio_output@@@2@@__crt_stdio_output@@AEAA_NXZ 0000000180071e40 f i libucrtd:output.obj
 0001:00070e60       ?type_case_X@?$output_processor@_WV?$stream_output_adapter@_W@__crt_stdio_output@@V?$format_validation_base@_WV?$stream_output_adapter@_W@__crt_stdio_output@@@2@@__crt_stdio_output@@AEAA_NXZ 0000000180071e60 f i libucrtd:output.obj
 0001:00070e80       ?type_case_X@?$output_processor@_WV?$stream_output_adapter@_W@__crt_stdio_output@@V?$positional_parameter_base@_WV?$stream_output_adapter@_W@__crt_stdio_output@@@2@@__crt_stdio_output@@AEAA_NXZ 0000000180071e80 f i libucrtd:output.obj
 0001:00070ea0       ?type_case_X@?$output_processor@_WV?$stream_output_adapter@_W@__crt_stdio_output@@V?$standard_base@_WV?$stream_output_adapter@_W@__crt_stdio_output@@@2@@__crt_stdio_output@@AEAA_NXZ 0000000180071ea0 f i libucrtd:output.obj
 0001:00070ec0       ?type_case_X@?$output_processor@_WV?$string_output_adapter@_W@__crt_stdio_output@@V?$format_validation_base@_WV?$string_output_adapter@_W@__crt_stdio_output@@@2@@__crt_stdio_output@@AEAA_NXZ 0000000180071ec0 f i libucrtd:output.obj
 0001:00070ee0       ?type_case_X@?$output_processor@_WV?$string_output_adapter@_W@__crt_stdio_output@@V?$positional_parameter_base@_WV?$string_output_adapter@_W@__crt_stdio_output@@@2@@__crt_stdio_output@@AEAA_NXZ 0000000180071ee0 f i libucrtd:output.obj
 0001:00070f00       ?type_case_X@?$output_processor@_WV?$string_output_adapter@_W@__crt_stdio_output@@V?$standard_base@_WV?$string_output_adapter@_W@__crt_stdio_output@@@2@@__crt_stdio_output@@AEAA_NXZ 0000000180071f00 f i libucrtd:output.obj
 0001:00070f20       ?type_case_Z@?$output_processor@DV?$stream_output_adapter@D@__crt_stdio_output@@V?$format_validation_base@DV?$stream_output_adapter@D@__crt_stdio_output@@@2@@__crt_stdio_output@@AEAA_NXZ 0000000180071f20 f i libucrtd:output.obj
 0001:00071040       ?type_case_Z@?$output_processor@DV?$stream_output_adapter@D@__crt_stdio_output@@V?$positional_parameter_base@DV?$stream_output_adapter@D@__crt_stdio_output@@@2@@__crt_stdio_output@@AEAA_NXZ 0000000180072040 f i libucrtd:output.obj
 0001:00071160       ?type_case_Z@?$output_processor@DV?$stream_output_adapter@D@__crt_stdio_output@@V?$standard_base@DV?$stream_output_adapter@D@__crt_stdio_output@@@2@@__crt_stdio_output@@AEAA_NXZ 0000000180072160 f i libucrtd:output.obj
 0001:00071280       ?type_case_Z@?$output_processor@DV?$string_output_adapter@D@__crt_stdio_output@@V?$format_validation_base@DV?$string_output_adapter@D@__crt_stdio_output@@@2@@__crt_stdio_output@@AEAA_NXZ 0000000180072280 f i libucrtd:output.obj
 0001:000713a0       ?type_case_Z@?$output_processor@DV?$string_output_adapter@D@__crt_stdio_output@@V?$positional_parameter_base@DV?$string_output_adapter@D@__crt_stdio_output@@@2@@__crt_stdio_output@@AEAA_NXZ 00000001800723a0 f i libucrtd:output.obj
 0001:000714c0       ?type_case_Z@?$output_processor@DV?$string_output_adapter@D@__crt_stdio_output@@V?$standard_base@DV?$string_output_adapter@D@__crt_stdio_output@@@2@@__crt_stdio_output@@AEAA_NXZ 00000001800724c0 f i libucrtd:output.obj
 0001:000715e0       ?type_case_Z@?$output_processor@_WV?$stream_output_adapter@_W@__crt_stdio_output@@V?$format_validation_base@_WV?$stream_output_adapter@_W@__crt_stdio_output@@@2@@__crt_stdio_output@@AEAA_NXZ 00000001800725e0 f i libucrtd:output.obj
 0001:00071700       ?type_case_Z@?$output_processor@_WV?$stream_output_adapter@_W@__crt_stdio_output@@V?$positional_parameter_base@_WV?$stream_output_adapter@_W@__crt_stdio_output@@@2@@__crt_stdio_output@@AEAA_NXZ 0000000180072700 f i libucrtd:output.obj
 0001:00071820       ?type_case_Z@?$output_processor@_WV?$stream_output_adapter@_W@__crt_stdio_output@@V?$standard_base@_WV?$stream_output_adapter@_W@__crt_stdio_output@@@2@@__crt_stdio_output@@AEAA_NXZ 0000000180072820 f i libucrtd:output.obj
 0001:00071940       ?type_case_Z@?$output_processor@_WV?$string_output_adapter@_W@__crt_stdio_output@@V?$format_validation_base@_WV?$string_output_adapter@_W@__crt_stdio_output@@@2@@__crt_stdio_output@@AEAA_NXZ 0000000180072940 f i libucrtd:output.obj
 0001:00071a60       ?type_case_Z@?$output_processor@_WV?$string_output_adapter@_W@__crt_stdio_output@@V?$positional_parameter_base@_WV?$string_output_adapter@_W@__crt_stdio_output@@@2@@__crt_stdio_output@@AEAA_NXZ 0000000180072a60 f i libucrtd:output.obj
 0001:00071b80       ?type_case_Z@?$output_processor@_WV?$string_output_adapter@_W@__crt_stdio_output@@V?$standard_base@_WV?$string_output_adapter@_W@__crt_stdio_output@@@2@@__crt_stdio_output@@AEAA_NXZ 0000000180072b80 f i libucrtd:output.obj
 0001:00071ca0       ?type_case_a@?$output_processor@DV?$stream_output_adapter@D@__crt_stdio_output@@V?$format_validation_base@DV?$stream_output_adapter@D@__crt_stdio_output@@@2@@__crt_stdio_output@@AEAA_NXZ 0000000180072ca0 f i libucrtd:output.obj
 0001:00072070       ?type_case_a@?$output_processor@DV?$stream_output_adapter@D@__crt_stdio_output@@V?$positional_parameter_base@DV?$stream_output_adapter@D@__crt_stdio_output@@@2@@__crt_stdio_output@@AEAA_NXZ 0000000180073070 f i libucrtd:output.obj
 0001:00072440       ?type_case_a@?$output_processor@DV?$stream_output_adapter@D@__crt_stdio_output@@V?$standard_base@DV?$stream_output_adapter@D@__crt_stdio_output@@@2@@__crt_stdio_output@@AEAA_NXZ 0000000180073440 f i libucrtd:output.obj
 0001:00072810       ?type_case_a@?$output_processor@DV?$string_output_adapter@D@__crt_stdio_output@@V?$format_validation_base@DV?$string_output_adapter@D@__crt_stdio_output@@@2@@__crt_stdio_output@@AEAA_NXZ 0000000180073810 f i libucrtd:output.obj
 0001:00072be0       ?type_case_a@?$output_processor@DV?$string_output_adapter@D@__crt_stdio_output@@V?$positional_parameter_base@DV?$string_output_adapter@D@__crt_stdio_output@@@2@@__crt_stdio_output@@AEAA_NXZ 0000000180073be0 f i libucrtd:output.obj
 0001:00072fb0       ?type_case_a@?$output_processor@DV?$string_output_adapter@D@__crt_stdio_output@@V?$standard_base@DV?$string_output_adapter@D@__crt_stdio_output@@@2@@__crt_stdio_output@@AEAA_NXZ 0000000180073fb0 f i libucrtd:output.obj
 0001:00073380       ?type_case_a@?$output_processor@_WV?$stream_output_adapter@_W@__crt_stdio_output@@V?$format_validation_base@_WV?$stream_output_adapter@_W@__crt_stdio_output@@@2@@__crt_stdio_output@@AEAA_NXZ 0000000180074380 f i libucrtd:output.obj
 0001:00073750       ?type_case_a@?$output_processor@_WV?$stream_output_adapter@_W@__crt_stdio_output@@V?$positional_parameter_base@_WV?$stream_output_adapter@_W@__crt_stdio_output@@@2@@__crt_stdio_output@@AEAA_NXZ 0000000180074750 f i libucrtd:output.obj
 0001:00073b20       ?type_case_a@?$output_processor@_WV?$stream_output_adapter@_W@__crt_stdio_output@@V?$standard_base@_WV?$stream_output_adapter@_W@__crt_stdio_output@@@2@@__crt_stdio_output@@AEAA_NXZ 0000000180074b20 f i libucrtd:output.obj
 0001:00073ef0       ?type_case_a@?$output_processor@_WV?$string_output_adapter@_W@__crt_stdio_output@@V?$format_validation_base@_WV?$string_output_adapter@_W@__crt_stdio_output@@@2@@__crt_stdio_output@@AEAA_NXZ 0000000180074ef0 f i libucrtd:output.obj
 0001:000742c0       ?type_case_a@?$output_processor@_WV?$string_output_adapter@_W@__crt_stdio_output@@V?$positional_parameter_base@_WV?$string_output_adapter@_W@__crt_stdio_output@@@2@@__crt_stdio_output@@AEAA_NXZ 00000001800752c0 f i libucrtd:output.obj
 0001:00074690       ?type_case_a@?$output_processor@_WV?$string_output_adapter@_W@__crt_stdio_output@@V?$standard_base@_WV?$string_output_adapter@_W@__crt_stdio_output@@@2@@__crt_stdio_output@@AEAA_NXZ 0000000180075690 f i libucrtd:output.obj
 0001:00074a60       ?type_case_c@?$output_processor@DV?$stream_output_adapter@D@__crt_stdio_output@@V?$format_validation_base@DV?$stream_output_adapter@D@__crt_stdio_output@@@2@@__crt_stdio_output@@AEAA_NXZ 0000000180075a60 f i libucrtd:output.obj
 0001:00074a80       ?type_case_c@?$output_processor@DV?$stream_output_adapter@D@__crt_stdio_output@@V?$positional_parameter_base@DV?$stream_output_adapter@D@__crt_stdio_output@@@2@@__crt_stdio_output@@AEAA_NXZ 0000000180075a80 f i libucrtd:output.obj
 0001:00074aa0       ?type_case_c@?$output_processor@DV?$stream_output_adapter@D@__crt_stdio_output@@V?$standard_base@DV?$stream_output_adapter@D@__crt_stdio_output@@@2@@__crt_stdio_output@@AEAA_NXZ 0000000180075aa0 f i libucrtd:output.obj
 0001:00074ac0       ?type_case_c@?$output_processor@DV?$string_output_adapter@D@__crt_stdio_output@@V?$format_validation_base@DV?$string_output_adapter@D@__crt_stdio_output@@@2@@__crt_stdio_output@@AEAA_NXZ 0000000180075ac0 f i libucrtd:output.obj
 0001:00074ae0       ?type_case_c@?$output_processor@DV?$string_output_adapter@D@__crt_stdio_output@@V?$positional_parameter_base@DV?$string_output_adapter@D@__crt_stdio_output@@@2@@__crt_stdio_output@@AEAA_NXZ 0000000180075ae0 f i libucrtd:output.obj
 0001:00074b00       ?type_case_c@?$output_processor@DV?$string_output_adapter@D@__crt_stdio_output@@V?$standard_base@DV?$string_output_adapter@D@__crt_stdio_output@@@2@@__crt_stdio_output@@AEAA_NXZ 0000000180075b00 f i libucrtd:output.obj
 0001:00074b20       ?type_case_c@?$output_processor@_WV?$stream_output_adapter@_W@__crt_stdio_output@@V?$format_validation_base@_WV?$stream_output_adapter@_W@__crt_stdio_output@@@2@@__crt_stdio_output@@AEAA_NXZ 0000000180075b20 f i libucrtd:output.obj
 0001:00074b40       ?type_case_c@?$output_processor@_WV?$stream_output_adapter@_W@__crt_stdio_output@@V?$positional_parameter_base@_WV?$stream_output_adapter@_W@__crt_stdio_output@@@2@@__crt_stdio_output@@AEAA_NXZ 0000000180075b40 f i libucrtd:output.obj
 0001:00074b60       ?type_case_c@?$output_processor@_WV?$stream_output_adapter@_W@__crt_stdio_output@@V?$standard_base@_WV?$stream_output_adapter@_W@__crt_stdio_output@@@2@@__crt_stdio_output@@AEAA_NXZ 0000000180075b60 f i libucrtd:output.obj
 0001:00074b80       ?type_case_c@?$output_processor@_WV?$string_output_adapter@_W@__crt_stdio_output@@V?$format_validation_base@_WV?$string_output_adapter@_W@__crt_stdio_output@@@2@@__crt_stdio_output@@AEAA_NXZ 0000000180075b80 f i libucrtd:output.obj
 0001:00074ba0       ?type_case_c@?$output_processor@_WV?$string_output_adapter@_W@__crt_stdio_output@@V?$positional_parameter_base@_WV?$string_output_adapter@_W@__crt_stdio_output@@@2@@__crt_stdio_output@@AEAA_NXZ 0000000180075ba0 f i libucrtd:output.obj
 0001:00074bc0       ?type_case_c@?$output_processor@_WV?$string_output_adapter@_W@__crt_stdio_output@@V?$standard_base@_WV?$string_output_adapter@_W@__crt_stdio_output@@@2@@__crt_stdio_output@@AEAA_NXZ 0000000180075bc0 f i libucrtd:output.obj
 0001:00074be0       ?type_case_c_tchar@?$output_processor@DV?$stream_output_adapter@D@__crt_stdio_output@@V?$format_validation_base@DV?$stream_output_adapter@D@__crt_stdio_output@@@2@@__crt_stdio_output@@AEAA_ND@Z 0000000180075be0 f i libucrtd:output.obj
 0001:00074d40       ?type_case_c_tchar@?$output_processor@DV?$stream_output_adapter@D@__crt_stdio_output@@V?$positional_parameter_base@DV?$stream_output_adapter@D@__crt_stdio_output@@@2@@__crt_stdio_output@@AEAA_ND@Z 0000000180075d40 f i libucrtd:output.obj
 0001:00074ea0       ?type_case_c_tchar@?$output_processor@DV?$stream_output_adapter@D@__crt_stdio_output@@V?$standard_base@DV?$stream_output_adapter@D@__crt_stdio_output@@@2@@__crt_stdio_output@@AEAA_ND@Z 0000000180075ea0 f i libucrtd:output.obj
 0001:00075000       ?type_case_c_tchar@?$output_processor@DV?$string_output_adapter@D@__crt_stdio_output@@V?$format_validation_base@DV?$string_output_adapter@D@__crt_stdio_output@@@2@@__crt_stdio_output@@AEAA_ND@Z 0000000180076000 f i libucrtd:output.obj
 0001:00075160       ?type_case_c_tchar@?$output_processor@DV?$string_output_adapter@D@__crt_stdio_output@@V?$positional_parameter_base@DV?$string_output_adapter@D@__crt_stdio_output@@@2@@__crt_stdio_output@@AEAA_ND@Z 0000000180076160 f i libucrtd:output.obj
 0001:000752c0       ?type_case_c_tchar@?$output_processor@DV?$string_output_adapter@D@__crt_stdio_output@@V?$standard_base@DV?$string_output_adapter@D@__crt_stdio_output@@@2@@__crt_stdio_output@@AEAA_ND@Z 00000001800762c0 f i libucrtd:output.obj
 0001:00075420       ?type_case_c_tchar@?$output_processor@_WV?$stream_output_adapter@_W@__crt_stdio_output@@V?$format_validation_base@_WV?$stream_output_adapter@_W@__crt_stdio_output@@@2@@__crt_stdio_output@@AEAA_N_W@Z 0000000180076420 f i libucrtd:output.obj
 0001:00075550       ?type_case_c_tchar@?$output_processor@_WV?$stream_output_adapter@_W@__crt_stdio_output@@V?$positional_parameter_base@_WV?$stream_output_adapter@_W@__crt_stdio_output@@@2@@__crt_stdio_output@@AEAA_N_W@Z 0000000180076550 f i libucrtd:output.obj
 0001:00075680       ?type_case_c_tchar@?$output_processor@_WV?$stream_output_adapter@_W@__crt_stdio_output@@V?$standard_base@_WV?$stream_output_adapter@_W@__crt_stdio_output@@@2@@__crt_stdio_output@@AEAA_N_W@Z 0000000180076680 f i libucrtd:output.obj
 0001:000757b0       ?type_case_c_tchar@?$output_processor@_WV?$string_output_adapter@_W@__crt_stdio_output@@V?$format_validation_base@_WV?$string_output_adapter@_W@__crt_stdio_output@@@2@@__crt_stdio_output@@AEAA_N_W@Z 00000001800767b0 f i libucrtd:output.obj
 0001:000758e0       ?type_case_c_tchar@?$output_processor@_WV?$string_output_adapter@_W@__crt_stdio_output@@V?$positional_parameter_base@_WV?$string_output_adapter@_W@__crt_stdio_output@@@2@@__crt_stdio_output@@AEAA_N_W@Z 00000001800768e0 f i libucrtd:output.obj
 0001:00075a10       ?type_case_c_tchar@?$output_processor@_WV?$string_output_adapter@_W@__crt_stdio_output@@V?$standard_base@_WV?$string_output_adapter@_W@__crt_stdio_output@@@2@@__crt_stdio_output@@AEAA_N_W@Z 0000000180076a10 f i libucrtd:output.obj
 0001:00075b40       ?type_case_d@?$output_processor@DV?$stream_output_adapter@D@__crt_stdio_output@@V?$format_validation_base@DV?$stream_output_adapter@D@__crt_stdio_output@@@2@@__crt_stdio_output@@AEAA_NXZ 0000000180076b40 f i libucrtd:output.obj
 0001:00075b70       ?type_case_d@?$output_processor@DV?$stream_output_adapter@D@__crt_stdio_output@@V?$positional_parameter_base@DV?$stream_output_adapter@D@__crt_stdio_output@@@2@@__crt_stdio_output@@AEAA_NXZ 0000000180076b70 f i libucrtd:output.obj
 0001:00075ba0       ?type_case_d@?$output_processor@DV?$stream_output_adapter@D@__crt_stdio_output@@V?$standard_base@DV?$stream_output_adapter@D@__crt_stdio_output@@@2@@__crt_stdio_output@@AEAA_NXZ 0000000180076ba0 f i libucrtd:output.obj
 0001:00075bd0       ?type_case_d@?$output_processor@DV?$string_output_adapter@D@__crt_stdio_output@@V?$format_validation_base@DV?$string_output_adapter@D@__crt_stdio_output@@@2@@__crt_stdio_output@@AEAA_NXZ 0000000180076bd0 f i libucrtd:output.obj
 0001:00075c00       ?type_case_d@?$output_processor@DV?$string_output_adapter@D@__crt_stdio_output@@V?$positional_parameter_base@DV?$string_output_adapter@D@__crt_stdio_output@@@2@@__crt_stdio_output@@AEAA_NXZ 0000000180076c00 f i libucrtd:output.obj
 0001:00075c30       ?type_case_d@?$output_processor@DV?$string_output_adapter@D@__crt_stdio_output@@V?$standard_base@DV?$string_output_adapter@D@__crt_stdio_output@@@2@@__crt_stdio_output@@AEAA_NXZ 0000000180076c30 f i libucrtd:output.obj
 0001:00075c60       ?type_case_d@?$output_processor@_WV?$stream_output_adapter@_W@__crt_stdio_output@@V?$format_validation_base@_WV?$stream_output_adapter@_W@__crt_stdio_output@@@2@@__crt_stdio_output@@AEAA_NXZ 0000000180076c60 f i libucrtd:output.obj
 0001:00075c90       ?type_case_d@?$output_processor@_WV?$stream_output_adapter@_W@__crt_stdio_output@@V?$positional_parameter_base@_WV?$stream_output_adapter@_W@__crt_stdio_output@@@2@@__crt_stdio_output@@AEAA_NXZ 0000000180076c90 f i libucrtd:output.obj
 0001:00075cc0       ?type_case_d@?$output_processor@_WV?$stream_output_adapter@_W@__crt_stdio_output@@V?$standard_base@_WV?$stream_output_adapter@_W@__crt_stdio_output@@@2@@__crt_stdio_output@@AEAA_NXZ 0000000180076cc0 f i libucrtd:output.obj
 0001:00075cf0       ?type_case_d@?$output_processor@_WV?$string_output_adapter@_W@__crt_stdio_output@@V?$format_validation_base@_WV?$string_output_adapter@_W@__crt_stdio_output@@@2@@__crt_stdio_output@@AEAA_NXZ 0000000180076cf0 f i libucrtd:output.obj
 0001:00075d20       ?type_case_d@?$output_processor@_WV?$string_output_adapter@_W@__crt_stdio_output@@V?$positional_parameter_base@_WV?$string_output_adapter@_W@__crt_stdio_output@@@2@@__crt_stdio_output@@AEAA_NXZ 0000000180076d20 f i libucrtd:output.obj
 0001:00075d50       ?type_case_d@?$output_processor@_WV?$string_output_adapter@_W@__crt_stdio_output@@V?$standard_base@_WV?$string_output_adapter@_W@__crt_stdio_output@@@2@@__crt_stdio_output@@AEAA_NXZ 0000000180076d50 f i libucrtd:output.obj
 0001:00075d80       ?type_case_integer@?$output_processor@DV?$stream_output_adapter@D@__crt_stdio_output@@V?$format_validation_base@DV?$stream_output_adapter@D@__crt_stdio_output@@@2@@__crt_stdio_output@@AEAA_NI_N@Z 0000000180076d80 f i libucrtd:output.obj
 0001:000761d0       ?type_case_integer@?$output_processor@DV?$stream_output_adapter@D@__crt_stdio_output@@V?$positional_parameter_base@DV?$stream_output_adapter@D@__crt_stdio_output@@@2@@__crt_stdio_output@@AEAA_NI_N@Z 00000001800771d0 f i libucrtd:output.obj
 0001:00076620       ?type_case_integer@?$output_processor@DV?$stream_output_adapter@D@__crt_stdio_output@@V?$standard_base@DV?$stream_output_adapter@D@__crt_stdio_output@@@2@@__crt_stdio_output@@AEAA_NI_N@Z 0000000180077620 f i libucrtd:output.obj
 0001:00076a70       ?type_case_integer@?$output_processor@DV?$string_output_adapter@D@__crt_stdio_output@@V?$format_validation_base@DV?$string_output_adapter@D@__crt_stdio_output@@@2@@__crt_stdio_output@@AEAA_NI_N@Z 0000000180077a70 f i libucrtd:output.obj
 0001:00076ec0       ?type_case_integer@?$output_processor@DV?$string_output_adapter@D@__crt_stdio_output@@V?$positional_parameter_base@DV?$string_output_adapter@D@__crt_stdio_output@@@2@@__crt_stdio_output@@AEAA_NI_N@Z 0000000180077ec0 f i libucrtd:output.obj
 0001:00077310       ?type_case_integer@?$output_processor@DV?$string_output_adapter@D@__crt_stdio_output@@V?$standard_base@DV?$string_output_adapter@D@__crt_stdio_output@@@2@@__crt_stdio_output@@AEAA_NI_N@Z 0000000180078310 f i libucrtd:output.obj
 0001:00077760       ?type_case_integer@?$output_processor@_WV?$stream_output_adapter@_W@__crt_stdio_output@@V?$format_validation_base@_WV?$stream_output_adapter@_W@__crt_stdio_output@@@2@@__crt_stdio_output@@AEAA_NI_N@Z 0000000180078760 f i libucrtd:output.obj
 0001:00077bb0       ?type_case_integer@?$output_processor@_WV?$stream_output_adapter@_W@__crt_stdio_output@@V?$positional_parameter_base@_WV?$stream_output_adapter@_W@__crt_stdio_output@@@2@@__crt_stdio_output@@AEAA_NI_N@Z 0000000180078bb0 f i libucrtd:output.obj
 0001:00078000       ?type_case_integer@?$output_processor@_WV?$stream_output_adapter@_W@__crt_stdio_output@@V?$standard_base@_WV?$stream_output_adapter@_W@__crt_stdio_output@@@2@@__crt_stdio_output@@AEAA_NI_N@Z 0000000180079000 f i libucrtd:output.obj
 0001:00078450       ?type_case_integer@?$output_processor@_WV?$string_output_adapter@_W@__crt_stdio_output@@V?$format_validation_base@_WV?$string_output_adapter@_W@__crt_stdio_output@@@2@@__crt_stdio_output@@AEAA_NI_N@Z 0000000180079450 f i libucrtd:output.obj
 0001:000788a0       ?type_case_integer@?$output_processor@_WV?$string_output_adapter@_W@__crt_stdio_output@@V?$positional_parameter_base@_WV?$string_output_adapter@_W@__crt_stdio_output@@@2@@__crt_stdio_output@@AEAA_NI_N@Z 00000001800798a0 f i libucrtd:output.obj
 0001:00078cf0       ?type_case_integer@?$output_processor@_WV?$string_output_adapter@_W@__crt_stdio_output@@V?$standard_base@_WV?$string_output_adapter@_W@__crt_stdio_output@@@2@@__crt_stdio_output@@AEAA_NI_N@Z 0000000180079cf0 f i libucrtd:output.obj
 0001:00079140       ?type_case_n@?$output_processor@DV?$stream_output_adapter@D@__crt_stdio_output@@V?$format_validation_base@DV?$stream_output_adapter@D@__crt_stdio_output@@@2@@__crt_stdio_output@@AEAA_NXZ 000000018007a140 f i libucrtd:output.obj
 0001:00079380       ?type_case_n@?$output_processor@DV?$stream_output_adapter@D@__crt_stdio_output@@V?$positional_parameter_base@DV?$stream_output_adapter@D@__crt_stdio_output@@@2@@__crt_stdio_output@@AEAA_NXZ 000000018007a380 f i libucrtd:output.obj
 0001:000795c0       ?type_case_n@?$output_processor@DV?$stream_output_adapter@D@__crt_stdio_output@@V?$standard_base@DV?$stream_output_adapter@D@__crt_stdio_output@@@2@@__crt_stdio_output@@AEAA_NXZ 000000018007a5c0 f i libucrtd:output.obj
 0001:00079800       ?type_case_n@?$output_processor@DV?$string_output_adapter@D@__crt_stdio_output@@V?$format_validation_base@DV?$string_output_adapter@D@__crt_stdio_output@@@2@@__crt_stdio_output@@AEAA_NXZ 000000018007a800 f i libucrtd:output.obj
 0001:00079a40       ?type_case_n@?$output_processor@DV?$string_output_adapter@D@__crt_stdio_output@@V?$positional_parameter_base@DV?$string_output_adapter@D@__crt_stdio_output@@@2@@__crt_stdio_output@@AEAA_NXZ 000000018007aa40 f i libucrtd:output.obj
 0001:00079c80       ?type_case_n@?$output_processor@DV?$string_output_adapter@D@__crt_stdio_output@@V?$standard_base@DV?$string_output_adapter@D@__crt_stdio_output@@@2@@__crt_stdio_output@@AEAA_NXZ 000000018007ac80 f i libucrtd:output.obj
 0001:00079ec0       ?type_case_n@?$output_processor@_WV?$stream_output_adapter@_W@__crt_stdio_output@@V?$format_validation_base@_WV?$stream_output_adapter@_W@__crt_stdio_output@@@2@@__crt_stdio_output@@AEAA_NXZ 000000018007aec0 f i libucrtd:output.obj
 0001:0007a100       ?type_case_n@?$output_processor@_WV?$stream_output_adapter@_W@__crt_stdio_output@@V?$positional_parameter_base@_WV?$stream_output_adapter@_W@__crt_stdio_output@@@2@@__crt_stdio_output@@AEAA_NXZ 000000018007b100 f i libucrtd:output.obj
 0001:0007a340       ?type_case_n@?$output_processor@_WV?$stream_output_adapter@_W@__crt_stdio_output@@V?$standard_base@_WV?$stream_output_adapter@_W@__crt_stdio_output@@@2@@__crt_stdio_output@@AEAA_NXZ 000000018007b340 f i libucrtd:output.obj
 0001:0007a580       ?type_case_n@?$output_processor@_WV?$string_output_adapter@_W@__crt_stdio_output@@V?$format_validation_base@_WV?$string_output_adapter@_W@__crt_stdio_output@@@2@@__crt_stdio_output@@AEAA_NXZ 000000018007b580 f i libucrtd:output.obj
 0001:0007a7c0       ?type_case_n@?$output_processor@_WV?$string_output_adapter@_W@__crt_stdio_output@@V?$positional_parameter_base@_WV?$string_output_adapter@_W@__crt_stdio_output@@@2@@__crt_stdio_output@@AEAA_NXZ 000000018007b7c0 f i libucrtd:output.obj
 0001:0007aa00       ?type_case_n@?$output_processor@_WV?$string_output_adapter@_W@__crt_stdio_output@@V?$standard_base@_WV?$string_output_adapter@_W@__crt_stdio_output@@@2@@__crt_stdio_output@@AEAA_NXZ 000000018007ba00 f i libucrtd:output.obj
 0001:0007ac40       ?type_case_o@?$output_processor@DV?$stream_output_adapter@D@__crt_stdio_output@@V?$format_validation_base@DV?$stream_output_adapter@D@__crt_stdio_output@@@2@@__crt_stdio_output@@AEAA_NXZ 000000018007bc40 f i libucrtd:output.obj
 0001:0007ac90       ?type_case_o@?$output_processor@DV?$stream_output_adapter@D@__crt_stdio_output@@V?$positional_parameter_base@DV?$stream_output_adapter@D@__crt_stdio_output@@@2@@__crt_stdio_output@@AEAA_NXZ 000000018007bc90 f i libucrtd:output.obj
 0001:0007ace0       ?type_case_o@?$output_processor@DV?$stream_output_adapter@D@__crt_stdio_output@@V?$standard_base@DV?$stream_output_adapter@D@__crt_stdio_output@@@2@@__crt_stdio_output@@AEAA_NXZ 000000018007bce0 f i libucrtd:output.obj
 0001:0007ad30       ?type_case_o@?$output_processor@DV?$string_output_adapter@D@__crt_stdio_output@@V?$format_validation_base@DV?$string_output_adapter@D@__crt_stdio_output@@@2@@__crt_stdio_output@@AEAA_NXZ 000000018007bd30 f i libucrtd:output.obj
 0001:0007ad80       ?type_case_o@?$output_processor@DV?$string_output_adapter@D@__crt_stdio_output@@V?$positional_parameter_base@DV?$string_output_adapter@D@__crt_stdio_output@@@2@@__crt_stdio_output@@AEAA_NXZ 000000018007bd80 f i libucrtd:output.obj
 0001:0007add0       ?type_case_o@?$output_processor@DV?$string_output_adapter@D@__crt_stdio_output@@V?$standard_base@DV?$string_output_adapter@D@__crt_stdio_output@@@2@@__crt_stdio_output@@AEAA_NXZ 000000018007bdd0 f i libucrtd:output.obj
 0001:0007ae20       ?type_case_o@?$output_processor@_WV?$stream_output_adapter@_W@__crt_stdio_output@@V?$format_validation_base@_WV?$stream_output_adapter@_W@__crt_stdio_output@@@2@@__crt_stdio_output@@AEAA_NXZ 000000018007be20 f i libucrtd:output.obj
 0001:0007ae70       ?type_case_o@?$output_processor@_WV?$stream_output_adapter@_W@__crt_stdio_output@@V?$positional_parameter_base@_WV?$stream_output_adapter@_W@__crt_stdio_output@@@2@@__crt_stdio_output@@AEAA_NXZ 000000018007be70 f i libucrtd:output.obj
 0001:0007aec0       ?type_case_o@?$output_processor@_WV?$stream_output_adapter@_W@__crt_stdio_output@@V?$standard_base@_WV?$stream_output_adapter@_W@__crt_stdio_output@@@2@@__crt_stdio_output@@AEAA_NXZ 000000018007bec0 f i libucrtd:output.obj
 0001:0007af10       ?type_case_o@?$output_processor@_WV?$string_output_adapter@_W@__crt_stdio_output@@V?$format_validation_base@_WV?$string_output_adapter@_W@__crt_stdio_output@@@2@@__crt_stdio_output@@AEAA_NXZ 000000018007bf10 f i libucrtd:output.obj
 0001:0007af60       ?type_case_o@?$output_processor@_WV?$string_output_adapter@_W@__crt_stdio_output@@V?$positional_parameter_base@_WV?$string_output_adapter@_W@__crt_stdio_output@@@2@@__crt_stdio_output@@AEAA_NXZ 000000018007bf60 f i libucrtd:output.obj
 0001:0007afb0       ?type_case_o@?$output_processor@_WV?$string_output_adapter@_W@__crt_stdio_output@@V?$standard_base@_WV?$string_output_adapter@_W@__crt_stdio_output@@@2@@__crt_stdio_output@@AEAA_NXZ 000000018007bfb0 f i libucrtd:output.obj
 0001:0007b000       ?type_case_p@?$output_processor@DV?$stream_output_adapter@D@__crt_stdio_output@@V?$format_validation_base@DV?$stream_output_adapter@D@__crt_stdio_output@@@2@@__crt_stdio_output@@AEAA_NXZ 000000018007c000 f i libucrtd:output.obj
 0001:0007b040       ?type_case_p@?$output_processor@DV?$stream_output_adapter@D@__crt_stdio_output@@V?$positional_parameter_base@DV?$stream_output_adapter@D@__crt_stdio_output@@@2@@__crt_stdio_output@@AEAA_NXZ 000000018007c040 f i libucrtd:output.obj
 0001:0007b080       ?type_case_p@?$output_processor@DV?$stream_output_adapter@D@__crt_stdio_output@@V?$standard_base@DV?$stream_output_adapter@D@__crt_stdio_output@@@2@@__crt_stdio_output@@AEAA_NXZ 000000018007c080 f i libucrtd:output.obj
 0001:0007b0c0       ?type_case_p@?$output_processor@DV?$string_output_adapter@D@__crt_stdio_output@@V?$format_validation_base@DV?$string_output_adapter@D@__crt_stdio_output@@@2@@__crt_stdio_output@@AEAA_NXZ 000000018007c0c0 f i libucrtd:output.obj
 0001:0007b100       ?type_case_p@?$output_processor@DV?$string_output_adapter@D@__crt_stdio_output@@V?$positional_parameter_base@DV?$string_output_adapter@D@__crt_stdio_output@@@2@@__crt_stdio_output@@AEAA_NXZ 000000018007c100 f i libucrtd:output.obj
 0001:0007b140       ?type_case_p@?$output_processor@DV?$string_output_adapter@D@__crt_stdio_output@@V?$standard_base@DV?$string_output_adapter@D@__crt_stdio_output@@@2@@__crt_stdio_output@@AEAA_NXZ 000000018007c140 f i libucrtd:output.obj
 0001:0007b180       ?type_case_p@?$output_processor@_WV?$stream_output_adapter@_W@__crt_stdio_output@@V?$format_validation_base@_WV?$stream_output_adapter@_W@__crt_stdio_output@@@2@@__crt_stdio_output@@AEAA_NXZ 000000018007c180 f i libucrtd:output.obj
 0001:0007b1c0       ?type_case_p@?$output_processor@_WV?$stream_output_adapter@_W@__crt_stdio_output@@V?$positional_parameter_base@_WV?$stream_output_adapter@_W@__crt_stdio_output@@@2@@__crt_stdio_output@@AEAA_NXZ 000000018007c1c0 f i libucrtd:output.obj
 0001:0007b200       ?type_case_p@?$output_processor@_WV?$stream_output_adapter@_W@__crt_stdio_output@@V?$standard_base@_WV?$stream_output_adapter@_W@__crt_stdio_output@@@2@@__crt_stdio_output@@AEAA_NXZ 000000018007c200 f i libucrtd:output.obj
 0001:0007b240       ?type_case_p@?$output_processor@_WV?$string_output_adapter@_W@__crt_stdio_output@@V?$format_validation_base@_WV?$string_output_adapter@_W@__crt_stdio_output@@@2@@__crt_stdio_output@@AEAA_NXZ 000000018007c240 f i libucrtd:output.obj
 0001:0007b280       ?type_case_p@?$output_processor@_WV?$string_output_adapter@_W@__crt_stdio_output@@V?$positional_parameter_base@_WV?$string_output_adapter@_W@__crt_stdio_output@@@2@@__crt_stdio_output@@AEAA_NXZ 000000018007c280 f i libucrtd:output.obj
 0001:0007b2c0       ?type_case_p@?$output_processor@_WV?$string_output_adapter@_W@__crt_stdio_output@@V?$standard_base@_WV?$string_output_adapter@_W@__crt_stdio_output@@@2@@__crt_stdio_output@@AEAA_NXZ 000000018007c2c0 f i libucrtd:output.obj
 0001:0007b300       ?type_case_s@?$output_processor@DV?$stream_output_adapter@D@__crt_stdio_output@@V?$format_validation_base@DV?$stream_output_adapter@D@__crt_stdio_output@@@2@@__crt_stdio_output@@AEAA_NXZ 000000018007c300 f i libucrtd:output.obj
 0001:0007b420       ?type_case_s@?$output_processor@DV?$stream_output_adapter@D@__crt_stdio_output@@V?$positional_parameter_base@DV?$stream_output_adapter@D@__crt_stdio_output@@@2@@__crt_stdio_output@@AEAA_NXZ 000000018007c420 f i libucrtd:output.obj
 0001:0007b540       ?type_case_s@?$output_processor@DV?$stream_output_adapter@D@__crt_stdio_output@@V?$standard_base@DV?$stream_output_adapter@D@__crt_stdio_output@@@2@@__crt_stdio_output@@AEAA_NXZ 000000018007c540 f i libucrtd:output.obj
 0001:0007b660       ?type_case_s@?$output_processor@DV?$string_output_adapter@D@__crt_stdio_output@@V?$format_validation_base@DV?$string_output_adapter@D@__crt_stdio_output@@@2@@__crt_stdio_output@@AEAA_NXZ 000000018007c660 f i libucrtd:output.obj
 0001:0007b780       ?type_case_s@?$output_processor@DV?$string_output_adapter@D@__crt_stdio_output@@V?$positional_parameter_base@DV?$string_output_adapter@D@__crt_stdio_output@@@2@@__crt_stdio_output@@AEAA_NXZ 000000018007c780 f i libucrtd:output.obj
 0001:0007b8a0       ?type_case_s@?$output_processor@DV?$string_output_adapter@D@__crt_stdio_output@@V?$standard_base@DV?$string_output_adapter@D@__crt_stdio_output@@@2@@__crt_stdio_output@@AEAA_NXZ 000000018007c8a0 f i libucrtd:output.obj
 0001:0007b9c0       ?type_case_s@?$output_processor@_WV?$stream_output_adapter@_W@__crt_stdio_output@@V?$format_validation_base@_WV?$stream_output_adapter@_W@__crt_stdio_output@@@2@@__crt_stdio_output@@AEAA_NXZ 000000018007c9c0 f i libucrtd:output.obj
 0001:0007bae0       ?type_case_s@?$output_processor@_WV?$stream_output_adapter@_W@__crt_stdio_output@@V?$positional_parameter_base@_WV?$stream_output_adapter@_W@__crt_stdio_output@@@2@@__crt_stdio_output@@AEAA_NXZ 000000018007cae0 f i libucrtd:output.obj
 0001:0007bc00       ?type_case_s@?$output_processor@_WV?$stream_output_adapter@_W@__crt_stdio_output@@V?$standard_base@_WV?$stream_output_adapter@_W@__crt_stdio_output@@@2@@__crt_stdio_output@@AEAA_NXZ 000000018007cc00 f i libucrtd:output.obj
 0001:0007bd20       ?type_case_s@?$output_processor@_WV?$string_output_adapter@_W@__crt_stdio_output@@V?$format_validation_base@_WV?$string_output_adapter@_W@__crt_stdio_output@@@2@@__crt_stdio_output@@AEAA_NXZ 000000018007cd20 f i libucrtd:output.obj
 0001:0007be40       ?type_case_s@?$output_processor@_WV?$string_output_adapter@_W@__crt_stdio_output@@V?$positional_parameter_base@_WV?$string_output_adapter@_W@__crt_stdio_output@@@2@@__crt_stdio_output@@AEAA_NXZ 000000018007ce40 f i libucrtd:output.obj
 0001:0007bf60       ?type_case_s@?$output_processor@_WV?$string_output_adapter@_W@__crt_stdio_output@@V?$standard_base@_WV?$string_output_adapter@_W@__crt_stdio_output@@@2@@__crt_stdio_output@@AEAA_NXZ 000000018007cf60 f i libucrtd:output.obj
 0001:0007c080       ?type_case_s_compute_narrow_string_length@?$output_processor@DV?$stream_output_adapter@D@__crt_stdio_output@@V?$format_validation_base@DV?$stream_output_adapter@D@__crt_stdio_output@@@2@@__crt_stdio_output@@AEBAHHD@Z 000000018007d080 f i libucrtd:output.obj
 0001:0007c0b0       ?type_case_s_compute_narrow_string_length@?$output_processor@DV?$stream_output_adapter@D@__crt_stdio_output@@V?$positional_parameter_base@DV?$stream_output_adapter@D@__crt_stdio_output@@@2@@__crt_stdio_output@@AEBAHHD@Z 000000018007d0b0 f i libucrtd:output.obj
 0001:0007c0e0       ?type_case_s_compute_narrow_string_length@?$output_processor@DV?$stream_output_adapter@D@__crt_stdio_output@@V?$standard_base@DV?$stream_output_adapter@D@__crt_stdio_output@@@2@@__crt_stdio_output@@AEBAHHD@Z 000000018007d0e0 f i libucrtd:output.obj
 0001:0007c110       ?type_case_s_compute_narrow_string_length@?$output_processor@DV?$string_output_adapter@D@__crt_stdio_output@@V?$format_validation_base@DV?$string_output_adapter@D@__crt_stdio_output@@@2@@__crt_stdio_output@@AEBAHHD@Z 000000018007d110 f i libucrtd:output.obj
 0001:0007c140       ?type_case_s_compute_narrow_string_length@?$output_processor@DV?$string_output_adapter@D@__crt_stdio_output@@V?$positional_parameter_base@DV?$string_output_adapter@D@__crt_stdio_output@@@2@@__crt_stdio_output@@AEBAHHD@Z 000000018007d140 f i libucrtd:output.obj
 0001:0007c170       ?type_case_s_compute_narrow_string_length@?$output_processor@DV?$string_output_adapter@D@__crt_stdio_output@@V?$standard_base@DV?$string_output_adapter@D@__crt_stdio_output@@@2@@__crt_stdio_output@@AEBAHHD@Z 000000018007d170 f i libucrtd:output.obj
 0001:0007c1a0       ?type_case_s_compute_narrow_string_length@?$output_processor@_WV?$stream_output_adapter@_W@__crt_stdio_output@@V?$format_validation_base@_WV?$stream_output_adapter@_W@__crt_stdio_output@@@2@@__crt_stdio_output@@AEBAHH_W@Z 000000018007d1a0 f i libucrtd:output.obj
 0001:0007c230       ?type_case_s_compute_narrow_string_length@?$output_processor@_WV?$stream_output_adapter@_W@__crt_stdio_output@@V?$positional_parameter_base@_WV?$stream_output_adapter@_W@__crt_stdio_output@@@2@@__crt_stdio_output@@AEBAHH_W@Z 000000018007d230 f i libucrtd:output.obj
 0001:0007c2c0       ?type_case_s_compute_narrow_string_length@?$output_processor@_WV?$stream_output_adapter@_W@__crt_stdio_output@@V?$standard_base@_WV?$stream_output_adapter@_W@__crt_stdio_output@@@2@@__crt_stdio_output@@AEBAHH_W@Z 000000018007d2c0 f i libucrtd:output.obj
 0001:0007c350       ?type_case_s_compute_narrow_string_length@?$output_processor@_WV?$string_output_adapter@_W@__crt_stdio_output@@V?$format_validation_base@_WV?$string_output_adapter@_W@__crt_stdio_output@@@2@@__crt_stdio_output@@AEBAHH_W@Z 000000018007d350 f i libucrtd:output.obj
 0001:0007c3e0       ?type_case_s_compute_narrow_string_length@?$output_processor@_WV?$string_output_adapter@_W@__crt_stdio_output@@V?$positional_parameter_base@_WV?$string_output_adapter@_W@__crt_stdio_output@@@2@@__crt_stdio_output@@AEBAHH_W@Z 000000018007d3e0 f i libucrtd:output.obj
 0001:0007c470       ?type_case_s_compute_narrow_string_length@?$output_processor@_WV?$string_output_adapter@_W@__crt_stdio_output@@V?$standard_base@_WV?$string_output_adapter@_W@__crt_stdio_output@@@2@@__crt_stdio_output@@AEBAHH_W@Z 000000018007d470 f i libucrtd:output.obj
 0001:0007c500       ?type_case_u@?$output_processor@DV?$stream_output_adapter@D@__crt_stdio_output@@V?$format_validation_base@DV?$stream_output_adapter@D@__crt_stdio_output@@@2@@__crt_stdio_output@@AEAA_NXZ 000000018007d500 f i libucrtd:output.obj
 0001:0007c520       ?type_case_u@?$output_processor@DV?$stream_output_adapter@D@__crt_stdio_output@@V?$positional_parameter_base@DV?$stream_output_adapter@D@__crt_stdio_output@@@2@@__crt_stdio_output@@AEAA_NXZ 000000018007d520 f i libucrtd:output.obj
 0001:0007c540       ?type_case_u@?$output_processor@DV?$stream_output_adapter@D@__crt_stdio_output@@V?$standard_base@DV?$stream_output_adapter@D@__crt_stdio_output@@@2@@__crt_stdio_output@@AEAA_NXZ 000000018007d540 f i libucrtd:output.obj
 0001:0007c560       ?type_case_u@?$output_processor@DV?$string_output_adapter@D@__crt_stdio_output@@V?$format_validation_base@DV?$string_output_adapter@D@__crt_stdio_output@@@2@@__crt_stdio_output@@AEAA_NXZ 000000018007d560 f i libucrtd:output.obj
 0001:0007c580       ?type_case_u@?$output_processor@DV?$string_output_adapter@D@__crt_stdio_output@@V?$positional_parameter_base@DV?$string_output_adapter@D@__crt_stdio_output@@@2@@__crt_stdio_output@@AEAA_NXZ 000000018007d580 f i libucrtd:output.obj
 0001:0007c5a0       ?type_case_u@?$output_processor@DV?$string_output_adapter@D@__crt_stdio_output@@V?$standard_base@DV?$string_output_adapter@D@__crt_stdio_output@@@2@@__crt_stdio_output@@AEAA_NXZ 000000018007d5a0 f i libucrtd:output.obj
 0001:0007c5c0       ?type_case_u@?$output_processor@_WV?$stream_output_adapter@_W@__crt_stdio_output@@V?$format_validation_base@_WV?$stream_output_adapter@_W@__crt_stdio_output@@@2@@__crt_stdio_output@@AEAA_NXZ 000000018007d5c0 f i libucrtd:output.obj
 0001:0007c5e0       ?type_case_u@?$output_processor@_WV?$stream_output_adapter@_W@__crt_stdio_output@@V?$positional_parameter_base@_WV?$stream_output_adapter@_W@__crt_stdio_output@@@2@@__crt_stdio_output@@AEAA_NXZ 000000018007d5e0 f i libucrtd:output.obj
 0001:0007c600       ?type_case_u@?$output_processor@_WV?$stream_output_adapter@_W@__crt_stdio_output@@V?$standard_base@_WV?$stream_output_adapter@_W@__crt_stdio_output@@@2@@__crt_stdio_output@@AEAA_NXZ 000000018007d600 f i libucrtd:output.obj
 0001:0007c620       ?type_case_u@?$output_processor@_WV?$string_output_adapter@_W@__crt_stdio_output@@V?$format_validation_base@_WV?$string_output_adapter@_W@__crt_stdio_output@@@2@@__crt_stdio_output@@AEAA_NXZ 000000018007d620 f i libucrtd:output.obj
 0001:0007c640       ?type_case_u@?$output_processor@_WV?$string_output_adapter@_W@__crt_stdio_output@@V?$positional_parameter_base@_WV?$string_output_adapter@_W@__crt_stdio_output@@@2@@__crt_stdio_output@@AEAA_NXZ 000000018007d640 f i libucrtd:output.obj
 0001:0007c660       ?type_case_u@?$output_processor@_WV?$string_output_adapter@_W@__crt_stdio_output@@V?$standard_base@_WV?$string_output_adapter@_W@__crt_stdio_output@@@2@@__crt_stdio_output@@AEAA_NXZ 000000018007d660 f i libucrtd:output.obj
 0001:0007c680       ?type_case_x@?$output_processor@DV?$stream_output_adapter@D@__crt_stdio_output@@V?$format_validation_base@DV?$stream_output_adapter@D@__crt_stdio_output@@@2@@__crt_stdio_output@@AEAA_NXZ 000000018007d680 f i libucrtd:output.obj
 0001:0007c6a0       ?type_case_x@?$output_processor@DV?$stream_output_adapter@D@__crt_stdio_output@@V?$positional_parameter_base@DV?$stream_output_adapter@D@__crt_stdio_output@@@2@@__crt_stdio_output@@AEAA_NXZ 000000018007d6a0 f i libucrtd:output.obj
 0001:0007c6c0       ?type_case_x@?$output_processor@DV?$stream_output_adapter@D@__crt_stdio_output@@V?$standard_base@DV?$stream_output_adapter@D@__crt_stdio_output@@@2@@__crt_stdio_output@@AEAA_NXZ 000000018007d6c0 f i libucrtd:output.obj
 0001:0007c6e0       ?type_case_x@?$output_processor@DV?$string_output_adapter@D@__crt_stdio_output@@V?$format_validation_base@DV?$string_output_adapter@D@__crt_stdio_output@@@2@@__crt_stdio_output@@AEAA_NXZ 000000018007d6e0 f i libucrtd:output.obj
 0001:0007c700       ?type_case_x@?$output_processor@DV?$string_output_adapter@D@__crt_stdio_output@@V?$positional_parameter_base@DV?$string_output_adapter@D@__crt_stdio_output@@@2@@__crt_stdio_output@@AEAA_NXZ 000000018007d700 f i libucrtd:output.obj
 0001:0007c720       ?type_case_x@?$output_processor@DV?$string_output_adapter@D@__crt_stdio_output@@V?$standard_base@DV?$string_output_adapter@D@__crt_stdio_output@@@2@@__crt_stdio_output@@AEAA_NXZ 000000018007d720 f i libucrtd:output.obj
 0001:0007c740       ?type_case_x@?$output_processor@_WV?$stream_output_adapter@_W@__crt_stdio_output@@V?$format_validation_base@_WV?$stream_output_adapter@_W@__crt_stdio_output@@@2@@__crt_stdio_output@@AEAA_NXZ 000000018007d740 f i libucrtd:output.obj
 0001:0007c760       ?type_case_x@?$output_processor@_WV?$stream_output_adapter@_W@__crt_stdio_output@@V?$positional_parameter_base@_WV?$stream_output_adapter@_W@__crt_stdio_output@@@2@@__crt_stdio_output@@AEAA_NXZ 000000018007d760 f i libucrtd:output.obj
 0001:0007c780       ?type_case_x@?$output_processor@_WV?$stream_output_adapter@_W@__crt_stdio_output@@V?$standard_base@_WV?$stream_output_adapter@_W@__crt_stdio_output@@@2@@__crt_stdio_output@@AEAA_NXZ 000000018007d780 f i libucrtd:output.obj
 0001:0007c7a0       ?type_case_x@?$output_processor@_WV?$string_output_adapter@_W@__crt_stdio_output@@V?$format_validation_base@_WV?$string_output_adapter@_W@__crt_stdio_output@@@2@@__crt_stdio_output@@AEAA_NXZ 000000018007d7a0 f i libucrtd:output.obj
 0001:0007c7c0       ?type_case_x@?$output_processor@_WV?$string_output_adapter@_W@__crt_stdio_output@@V?$positional_parameter_base@_WV?$string_output_adapter@_W@__crt_stdio_output@@@2@@__crt_stdio_output@@AEAA_NXZ 000000018007d7c0 f i libucrtd:output.obj
 0001:0007c7e0       ?type_case_x@?$output_processor@_WV?$string_output_adapter@_W@__crt_stdio_output@@V?$standard_base@_WV?$string_output_adapter@_W@__crt_stdio_output@@@2@@__crt_stdio_output@@AEAA_NXZ 000000018007d7e0 f i libucrtd:output.obj
 0001:0007c800       ?unset_flag@?$output_processor@DV?$stream_output_adapter@D@__crt_stdio_output@@V?$format_validation_base@DV?$stream_output_adapter@D@__crt_stdio_output@@@2@@__crt_stdio_output@@AEAAXI@Z 000000018007d800 f i libucrtd:output.obj
 0001:0007c830       ?unset_flag@?$output_processor@DV?$stream_output_adapter@D@__crt_stdio_output@@V?$positional_parameter_base@DV?$stream_output_adapter@D@__crt_stdio_output@@@2@@__crt_stdio_output@@AEAAXI@Z 000000018007d830 f i libucrtd:output.obj
 0001:0007c860       ?unset_flag@?$output_processor@DV?$stream_output_adapter@D@__crt_stdio_output@@V?$standard_base@DV?$stream_output_adapter@D@__crt_stdio_output@@@2@@__crt_stdio_output@@AEAAXI@Z 000000018007d860 f i libucrtd:output.obj
 0001:0007c890       ?unset_flag@?$output_processor@DV?$string_output_adapter@D@__crt_stdio_output@@V?$format_validation_base@DV?$string_output_adapter@D@__crt_stdio_output@@@2@@__crt_stdio_output@@AEAAXI@Z 000000018007d890 f i libucrtd:output.obj
 0001:0007c8c0       ?unset_flag@?$output_processor@DV?$string_output_adapter@D@__crt_stdio_output@@V?$positional_parameter_base@DV?$string_output_adapter@D@__crt_stdio_output@@@2@@__crt_stdio_output@@AEAAXI@Z 000000018007d8c0 f i libucrtd:output.obj
 0001:0007c8f0       ?unset_flag@?$output_processor@DV?$string_output_adapter@D@__crt_stdio_output@@V?$standard_base@DV?$string_output_adapter@D@__crt_stdio_output@@@2@@__crt_stdio_output@@AEAAXI@Z 000000018007d8f0 f i libucrtd:output.obj
 0001:0007c920       ?unset_flag@?$output_processor@_WV?$stream_output_adapter@_W@__crt_stdio_output@@V?$format_validation_base@_WV?$stream_output_adapter@_W@__crt_stdio_output@@@2@@__crt_stdio_output@@AEAAXI@Z 000000018007d920 f i libucrtd:output.obj
 0001:0007c950       ?unset_flag@?$output_processor@_WV?$stream_output_adapter@_W@__crt_stdio_output@@V?$positional_parameter_base@_WV?$stream_output_adapter@_W@__crt_stdio_output@@@2@@__crt_stdio_output@@AEAAXI@Z 000000018007d950 f i libucrtd:output.obj
 0001:0007c980       ?unset_flag@?$output_processor@_WV?$stream_output_adapter@_W@__crt_stdio_output@@V?$standard_base@_WV?$stream_output_adapter@_W@__crt_stdio_output@@@2@@__crt_stdio_output@@AEAAXI@Z 000000018007d980 f i libucrtd:output.obj
 0001:0007c9b0       ?unset_flag@?$output_processor@_WV?$string_output_adapter@_W@__crt_stdio_output@@V?$format_validation_base@_WV?$string_output_adapter@_W@__crt_stdio_output@@@2@@__crt_stdio_output@@AEAAXI@Z 000000018007d9b0 f i libucrtd:output.obj
 0001:0007c9e0       ?unset_flag@?$output_processor@_WV?$string_output_adapter@_W@__crt_stdio_output@@V?$positional_parameter_base@_WV?$string_output_adapter@_W@__crt_stdio_output@@@2@@__crt_stdio_output@@AEAAXI@Z 000000018007d9e0 f i libucrtd:output.obj
 0001:0007ca10       ?unset_flag@?$output_processor@_WV?$string_output_adapter@_W@__crt_stdio_output@@V?$standard_base@_WV?$string_output_adapter@_W@__crt_stdio_output@@@2@@__crt_stdio_output@@AEAAXI@Z 000000018007da10 f i libucrtd:output.obj
 0001:0007ca40       ?update_field_width@?$positional_parameter_base@DV?$stream_output_adapter@D@__crt_stdio_output@@@__crt_stdio_output@@IEAA_NXZ 000000018007da40 f i libucrtd:output.obj
 0001:0007cc30       ?update_field_width@?$positional_parameter_base@DV?$string_output_adapter@D@__crt_stdio_output@@@__crt_stdio_output@@IEAA_NXZ 000000018007dc30 f i libucrtd:output.obj
 0001:0007ce20       ?update_field_width@?$positional_parameter_base@_WV?$stream_output_adapter@_W@__crt_stdio_output@@@__crt_stdio_output@@IEAA_NXZ 000000018007de20 f i libucrtd:output.obj
 0001:0007d010       ?update_field_width@?$positional_parameter_base@_WV?$string_output_adapter@_W@__crt_stdio_output@@@__crt_stdio_output@@IEAA_NXZ 000000018007e010 f i libucrtd:output.obj
 0001:0007d200       ?update_field_width@?$standard_base@DV?$stream_output_adapter@D@__crt_stdio_output@@@__crt_stdio_output@@IEAA_NXZ 000000018007e200 f i libucrtd:output.obj
 0001:0007d230       ?update_field_width@?$standard_base@DV?$string_output_adapter@D@__crt_stdio_output@@@__crt_stdio_output@@IEAA_NXZ 000000018007e230 f i libucrtd:output.obj
 0001:0007d260       ?update_field_width@?$standard_base@_WV?$stream_output_adapter@_W@__crt_stdio_output@@@__crt_stdio_output@@IEAA_NXZ 000000018007e260 f i libucrtd:output.obj
 0001:0007d290       ?update_field_width@?$standard_base@_WV?$string_output_adapter@_W@__crt_stdio_output@@@__crt_stdio_output@@IEAA_NXZ 000000018007e290 f i libucrtd:output.obj
 0001:0007d2c0       ?update_precision@?$positional_parameter_base@DV?$stream_output_adapter@D@__crt_stdio_output@@@__crt_stdio_output@@IEAA_NXZ 000000018007e2c0 f i libucrtd:output.obj
 0001:0007d4b0       ?update_precision@?$positional_parameter_base@DV?$string_output_adapter@D@__crt_stdio_output@@@__crt_stdio_output@@IEAA_NXZ 000000018007e4b0 f i libucrtd:output.obj
 0001:0007d6a0       ?update_precision@?$positional_parameter_base@_WV?$stream_output_adapter@_W@__crt_stdio_output@@@__crt_stdio_output@@IEAA_NXZ 000000018007e6a0 f i libucrtd:output.obj
 0001:0007d890       ?update_precision@?$positional_parameter_base@_WV?$string_output_adapter@_W@__crt_stdio_output@@@__crt_stdio_output@@IEAA_NXZ 000000018007e890 f i libucrtd:output.obj
 0001:0007da80       ?update_precision@?$standard_base@DV?$stream_output_adapter@D@__crt_stdio_output@@@__crt_stdio_output@@IEAA_NXZ 000000018007ea80 f i libucrtd:output.obj
 0001:0007dab0       ?update_precision@?$standard_base@DV?$string_output_adapter@D@__crt_stdio_output@@@__crt_stdio_output@@IEAA_NXZ 000000018007eab0 f i libucrtd:output.obj
 0001:0007dae0       ?update_precision@?$standard_base@_WV?$stream_output_adapter@_W@__crt_stdio_output@@@__crt_stdio_output@@IEAA_NXZ 000000018007eae0 f i libucrtd:output.obj
 0001:0007db10       ?update_precision@?$standard_base@_WV?$string_output_adapter@_W@__crt_stdio_output@@@__crt_stdio_output@@IEAA_NXZ 000000018007eb10 f i libucrtd:output.obj
 0001:0007db40       ?valid@__crt_stdio_stream@@QEBA_NXZ 000000018007eb40 f i libucrtd:output.obj
 0001:0007db70       ?validate@?$stream_output_adapter@D@__crt_stdio_output@@QEBA_NXZ 000000018007eb70 f i libucrtd:output.obj
 0001:0007dc50       ?validate@?$stream_output_adapter@_W@__crt_stdio_output@@QEBA_NXZ 000000018007ec50 f i libucrtd:output.obj
 0001:0007dd30       ?validate@?$string_output_adapter@D@__crt_stdio_output@@QEBA_NXZ 000000018007ed30 f i libucrtd:output.obj
 0001:0007ddf0       ?validate@?$string_output_adapter@_W@__crt_stdio_output@@QEBA_NXZ 000000018007edf0 f i libucrtd:output.obj
 0001:0007deb0       ?validate_and_store_parameter_data@?$positional_parameter_base@DV?$stream_output_adapter@D@__crt_stdio_output@@@__crt_stdio_output@@AEAA_NAEAUparameter_data@12@W4parameter_type@12@DW4length_modifier@2@@Z 000000018007eeb0 f i libucrtd:output.obj
 0001:0007dfd0       ?validate_and_store_parameter_data@?$positional_parameter_base@DV?$string_output_adapter@D@__crt_stdio_output@@@__crt_stdio_output@@AEAA_NAEAUparameter_data@12@W4parameter_type@12@DW4length_modifier@2@@Z 000000018007efd0 f i libucrtd:output.obj
 0001:0007e0f0       ?validate_and_store_parameter_data@?$positional_parameter_base@_WV?$stream_output_adapter@_W@__crt_stdio_output@@@__crt_stdio_output@@AEAA_NAEAUparameter_data@12@W4parameter_type@12@_WW4length_modifier@2@@Z 000000018007f0f0 f i libucrtd:output.obj
 0001:0007e210       ?validate_and_store_parameter_data@?$positional_parameter_base@_WV?$string_output_adapter@_W@__crt_stdio_output@@@__crt_stdio_output@@AEAA_NAEAUparameter_data@12@W4parameter_type@12@_WW4length_modifier@2@@Z 000000018007f210 f i libucrtd:output.obj
 0001:0007e330       ?validate_and_update_state_at_beginning_of_format_character@?$positional_parameter_base@DV?$stream_output_adapter@D@__crt_stdio_output@@@__crt_stdio_output@@IEAA_NXZ 000000018007f330 f i libucrtd:output.obj
 0001:0007e610       ?validate_and_update_state_at_beginning_of_format_character@?$positional_parameter_base@DV?$string_output_adapter@D@__crt_stdio_output@@@__crt_stdio_output@@IEAA_NXZ 000000018007f610 f i libucrtd:output.obj
 0001:0007e8f0       ?validate_and_update_state_at_beginning_of_format_character@?$positional_parameter_base@_WV?$stream_output_adapter@_W@__crt_stdio_output@@@__crt_stdio_output@@IEAA_NXZ 000000018007f8f0 f i libucrtd:output.obj
 0001:0007ebd0       ?validate_and_update_state_at_beginning_of_format_character@?$positional_parameter_base@_WV?$string_output_adapter@_W@__crt_stdio_output@@@__crt_stdio_output@@IEAA_NXZ 000000018007fbd0 f i libucrtd:output.obj
 0001:0007eeb0       ?validate_and_update_state_at_beginning_of_format_character@?$standard_base@DV?$stream_output_adapter@D@__crt_stdio_output@@@__crt_stdio_output@@IEAA_NXZ 000000018007feb0 f i libucrtd:output.obj
 0001:0007eec0       ?validate_and_update_state_at_beginning_of_format_character@?$standard_base@DV?$string_output_adapter@D@__crt_stdio_output@@@__crt_stdio_output@@IEAA_NXZ 000000018007fec0 f i libucrtd:output.obj
 0001:0007eed0       ?validate_and_update_state_at_beginning_of_format_character@?$standard_base@_WV?$stream_output_adapter@_W@__crt_stdio_output@@@__crt_stdio_output@@IEAA_NXZ 000000018007fed0 f i libucrtd:output.obj
 0001:0007eee0       ?validate_and_update_state_at_beginning_of_format_character@?$standard_base@_WV?$string_output_adapter@_W@__crt_stdio_output@@@__crt_stdio_output@@IEAA_NXZ 000000018007fee0 f i libucrtd:output.obj
 0001:0007eef0       ?validate_and_update_state_at_end_of_format_string@?$format_validation_base@DV?$stream_output_adapter@D@__crt_stdio_output@@@__crt_stdio_output@@IEBA_NXZ 000000018007fef0 f i libucrtd:output.obj
 0001:0007efb0       ?validate_and_update_state_at_end_of_format_string@?$format_validation_base@DV?$string_output_adapter@D@__crt_stdio_output@@@__crt_stdio_output@@IEBA_NXZ 000000018007ffb0 f i libucrtd:output.obj
 0001:0007f070       ?validate_and_update_state_at_end_of_format_string@?$format_validation_base@_WV?$stream_output_adapter@_W@__crt_stdio_output@@@__crt_stdio_output@@IEBA_NXZ 0000000180080070 f i libucrtd:output.obj
 0001:0007f130       ?validate_and_update_state_at_end_of_format_string@?$format_validation_base@_WV?$string_output_adapter@_W@__crt_stdio_output@@@__crt_stdio_output@@IEBA_NXZ 0000000180080130 f i libucrtd:output.obj
 0001:0007f1f0       ?validate_and_update_state_at_end_of_format_string@?$positional_parameter_base@DV?$stream_output_adapter@D@__crt_stdio_output@@@__crt_stdio_output@@IEAA_NXZ 00000001800801f0 f i libucrtd:output.obj
 0001:0007f3e0       ?validate_and_update_state_at_end_of_format_string@?$positional_parameter_base@DV?$string_output_adapter@D@__crt_stdio_output@@@__crt_stdio_output@@IEAA_NXZ 00000001800803e0 f i libucrtd:output.obj
 0001:0007f5d0       ?validate_and_update_state_at_end_of_format_string@?$positional_parameter_base@_WV?$stream_output_adapter@_W@__crt_stdio_output@@@__crt_stdio_output@@IEAA_NXZ 00000001800805d0 f i libucrtd:output.obj
 0001:0007f7c0       ?validate_and_update_state_at_end_of_format_string@?$positional_parameter_base@_WV?$string_output_adapter@_W@__crt_stdio_output@@@__crt_stdio_output@@IEAA_NXZ 00000001800807c0 f i libucrtd:output.obj
 0001:0007f9b0       ?validate_and_update_state_at_end_of_format_string@?$standard_base@DV?$stream_output_adapter@D@__crt_stdio_output@@@__crt_stdio_output@@IEBA_NXZ 00000001800809b0 f i libucrtd:output.obj
 0001:0007f9c0       ?validate_and_update_state_at_end_of_format_string@?$standard_base@DV?$string_output_adapter@D@__crt_stdio_output@@@__crt_stdio_output@@IEBA_NXZ 00000001800809c0 f i libucrtd:output.obj
 0001:0007f9d0       ?validate_and_update_state_at_end_of_format_string@?$standard_base@_WV?$stream_output_adapter@_W@__crt_stdio_output@@@__crt_stdio_output@@IEBA_NXZ 00000001800809d0 f i libucrtd:output.obj
 0001:0007f9e0       ?validate_and_update_state_at_end_of_format_string@?$standard_base@_WV?$string_output_adapter@_W@__crt_stdio_output@@@__crt_stdio_output@@IEBA_NXZ 00000001800809e0 f i libucrtd:output.obj
 0001:0007f9f0       ?validate_state_for_type_case_a@?$positional_parameter_base@DV?$stream_output_adapter@D@__crt_stdio_output@@@__crt_stdio_output@@IEAA_NXZ 00000001800809f0 f i libucrtd:output.obj
 0001:0007fb30       ?validate_state_for_type_case_a@?$positional_parameter_base@DV?$string_output_adapter@D@__crt_stdio_output@@@__crt_stdio_output@@IEAA_NXZ 0000000180080b30 f i libucrtd:output.obj
 0001:0007fc70       ?validate_state_for_type_case_a@?$positional_parameter_base@_WV?$stream_output_adapter@_W@__crt_stdio_output@@@__crt_stdio_output@@IEAA_NXZ 0000000180080c70 f i libucrtd:output.obj
 0001:0007fdb0       ?validate_state_for_type_case_a@?$positional_parameter_base@_WV?$string_output_adapter@_W@__crt_stdio_output@@@__crt_stdio_output@@IEAA_NXZ 0000000180080db0 f i libucrtd:output.obj
 0001:0007fef0       ?validate_state_for_type_case_a@?$standard_base@DV?$stream_output_adapter@D@__crt_stdio_output@@@__crt_stdio_output@@IEBA_NXZ 0000000180080ef0 f i libucrtd:output.obj
 0001:0007ff00       ?validate_state_for_type_case_a@?$standard_base@DV?$string_output_adapter@D@__crt_stdio_output@@@__crt_stdio_output@@IEBA_NXZ 0000000180080f00 f i libucrtd:output.obj
 0001:0007ff10       ?validate_state_for_type_case_a@?$standard_base@_WV?$stream_output_adapter@_W@__crt_stdio_output@@@__crt_stdio_output@@IEBA_NXZ 0000000180080f10 f i libucrtd:output.obj
 0001:0007ff20       ?validate_state_for_type_case_a@?$standard_base@_WV?$string_output_adapter@_W@__crt_stdio_output@@@__crt_stdio_output@@IEBA_NXZ 0000000180080f20 f i libucrtd:output.obj
 0001:0007ff30       ?validate_stream_is_ansi_if_required@?$__acrt_stdio_char_traits@D@@SA_NQEAU_iobuf@@@Z 0000000180080f30 f i libucrtd:output.obj
 0001:000800c0       ?validate_stream_is_ansi_if_required@?$__acrt_stdio_char_traits@_W@@SA_NQEAU_iobuf@@@Z 00000001800810c0 f i libucrtd:output.obj
 0001:000800d0       ?wide_null_string@?$output_processor@DV?$stream_output_adapter@D@__crt_stdio_output@@V?$format_validation_base@DV?$stream_output_adapter@D@__crt_stdio_output@@@2@@__crt_stdio_output@@CAPEA_WXZ 00000001800810d0 f i libucrtd:output.obj
 0001:000800e0       ?wide_null_string@?$output_processor@DV?$stream_output_adapter@D@__crt_stdio_output@@V?$positional_parameter_base@DV?$stream_output_adapter@D@__crt_stdio_output@@@2@@__crt_stdio_output@@CAPEA_WXZ 00000001800810e0 f i libucrtd:output.obj
 0001:000800f0       ?wide_null_string@?$output_processor@DV?$stream_output_adapter@D@__crt_stdio_output@@V?$standard_base@DV?$stream_output_adapter@D@__crt_stdio_output@@@2@@__crt_stdio_output@@CAPEA_WXZ 00000001800810f0 f i libucrtd:output.obj
 0001:00080100       ?wide_null_string@?$output_processor@DV?$string_output_adapter@D@__crt_stdio_output@@V?$format_validation_base@DV?$string_output_adapter@D@__crt_stdio_output@@@2@@__crt_stdio_output@@CAPEA_WXZ 0000000180081100 f i libucrtd:output.obj
 0001:00080110       ?wide_null_string@?$output_processor@DV?$string_output_adapter@D@__crt_stdio_output@@V?$positional_parameter_base@DV?$string_output_adapter@D@__crt_stdio_output@@@2@@__crt_stdio_output@@CAPEA_WXZ 0000000180081110 f i libucrtd:output.obj
 0001:00080120       ?wide_null_string@?$output_processor@DV?$string_output_adapter@D@__crt_stdio_output@@V?$standard_base@DV?$string_output_adapter@D@__crt_stdio_output@@@2@@__crt_stdio_output@@CAPEA_WXZ 0000000180081120 f i libucrtd:output.obj
 0001:00080130       ?wide_null_string@?$output_processor@_WV?$stream_output_adapter@_W@__crt_stdio_output@@V?$format_validation_base@_WV?$stream_output_adapter@_W@__crt_stdio_output@@@2@@__crt_stdio_output@@CAPEA_WXZ 0000000180081130 f i libucrtd:output.obj
 0001:00080140       ?wide_null_string@?$output_processor@_WV?$stream_output_adapter@_W@__crt_stdio_output@@V?$positional_parameter_base@_WV?$stream_output_adapter@_W@__crt_stdio_output@@@2@@__crt_stdio_output@@CAPEA_WXZ 0000000180081140 f i libucrtd:output.obj
 0001:00080150       ?wide_null_string@?$output_processor@_WV?$stream_output_adapter@_W@__crt_stdio_output@@V?$standard_base@_WV?$stream_output_adapter@_W@__crt_stdio_output@@@2@@__crt_stdio_output@@CAPEA_WXZ 0000000180081150 f i libucrtd:output.obj
 0001:00080160       ?wide_null_string@?$output_processor@_WV?$string_output_adapter@_W@__crt_stdio_output@@V?$format_validation_base@_WV?$string_output_adapter@_W@__crt_stdio_output@@@2@@__crt_stdio_output@@CAPEA_WXZ 0000000180081160 f i libucrtd:output.obj
 0001:00080170       ?wide_null_string@?$output_processor@_WV?$string_output_adapter@_W@__crt_stdio_output@@V?$positional_parameter_base@_WV?$string_output_adapter@_W@__crt_stdio_output@@@2@@__crt_stdio_output@@CAPEA_WXZ 0000000180081170 f i libucrtd:output.obj
 0001:00080180       ?wide_null_string@?$output_processor@_WV?$string_output_adapter@_W@__crt_stdio_output@@V?$standard_base@_WV?$string_output_adapter@_W@__crt_stdio_output@@@2@@__crt_stdio_output@@CAPEA_WXZ 0000000180081180 f i libucrtd:output.obj
 0001:00080190       ?write_character@?$output_adapter_common@DV?$stream_output_adapter@D@__crt_stdio_output@@@__crt_stdio_output@@QEBAXDQEAH@Z 0000000180081190 f i libucrtd:output.obj
 0001:000801e0       ?write_character@?$output_adapter_common@_WV?$stream_output_adapter@_W@__crt_stdio_output@@@__crt_stdio_output@@QEBAX_WQEAH@Z 00000001800811e0 f i libucrtd:output.obj
 0001:00080230       ?write_character@?$string_output_adapter@D@__crt_stdio_output@@QEBA_NDQEAH@Z 0000000180081230 f i libucrtd:output.obj
 0001:000802f0       ?write_character@?$string_output_adapter@_W@__crt_stdio_output@@QEBA_N_WQEAH@Z 00000001800812f0 f i libucrtd:output.obj
 0001:000803b0       ?write_character_without_count_update@?$stream_output_adapter@D@__crt_stdio_output@@QEBA_ND@Z 00000001800813b0 f i libucrtd:output.obj
 0001:00080430       ?write_character_without_count_update@?$stream_output_adapter@_W@__crt_stdio_output@@QEBA_N_W@Z 0000000180081430 f i libucrtd:output.obj
 0001:000804c0       ?write_stored_string_tchar@?$output_processor@DV?$stream_output_adapter@D@__crt_stdio_output@@V?$format_validation_base@DV?$stream_output_adapter@D@__crt_stdio_output@@@2@@__crt_stdio_output@@AEAA_ND@Z 00000001800814c0 f i libucrtd:output.obj
 0001:00080680       ?write_stored_string_tchar@?$output_processor@DV?$stream_output_adapter@D@__crt_stdio_output@@V?$positional_parameter_base@DV?$stream_output_adapter@D@__crt_stdio_output@@@2@@__crt_stdio_output@@AEAA_ND@Z 0000000180081680 f i libucrtd:output.obj
 0001:00080840       ?write_stored_string_tchar@?$output_processor@DV?$stream_output_adapter@D@__crt_stdio_output@@V?$standard_base@DV?$stream_output_adapter@D@__crt_stdio_output@@@2@@__crt_stdio_output@@AEAA_ND@Z 0000000180081840 f i libucrtd:output.obj
 0001:00080a00       ?write_stored_string_tchar@?$output_processor@DV?$string_output_adapter@D@__crt_stdio_output@@V?$format_validation_base@DV?$string_output_adapter@D@__crt_stdio_output@@@2@@__crt_stdio_output@@AEAA_ND@Z 0000000180081a00 f i libucrtd:output.obj
 0001:00080bc0       ?write_stored_string_tchar@?$output_processor@DV?$string_output_adapter@D@__crt_stdio_output@@V?$positional_parameter_base@DV?$string_output_adapter@D@__crt_stdio_output@@@2@@__crt_stdio_output@@AEAA_ND@Z 0000000180081bc0 f i libucrtd:output.obj
 0001:00080d80       ?write_stored_string_tchar@?$output_processor@DV?$string_output_adapter@D@__crt_stdio_output@@V?$standard_base@DV?$string_output_adapter@D@__crt_stdio_output@@@2@@__crt_stdio_output@@AEAA_ND@Z 0000000180081d80 f i libucrtd:output.obj
 0001:00080f40       ?write_stored_string_tchar@?$output_processor@_WV?$stream_output_adapter@_W@__crt_stdio_output@@V?$format_validation_base@_WV?$stream_output_adapter@_W@__crt_stdio_output@@@2@@__crt_stdio_output@@AEAA_N_W@Z 0000000180081f40 f i libucrtd:output.obj
 0001:00081090       ?write_stored_string_tchar@?$output_processor@_WV?$stream_output_adapter@_W@__crt_stdio_output@@V?$positional_parameter_base@_WV?$stream_output_adapter@_W@__crt_stdio_output@@@2@@__crt_stdio_output@@AEAA_N_W@Z 0000000180082090 f i libucrtd:output.obj
 0001:000811e0       ?write_stored_string_tchar@?$output_processor@_WV?$stream_output_adapter@_W@__crt_stdio_output@@V?$standard_base@_WV?$stream_output_adapter@_W@__crt_stdio_output@@@2@@__crt_stdio_output@@AEAA_N_W@Z 00000001800821e0 f i libucrtd:output.obj
 0001:00081330       ?write_stored_string_tchar@?$output_processor@_WV?$string_output_adapter@_W@__crt_stdio_output@@V?$format_validation_base@_WV?$string_output_adapter@_W@__crt_stdio_output@@@2@@__crt_stdio_output@@AEAA_N_W@Z 0000000180082330 f i libucrtd:output.obj
 0001:00081480       ?write_stored_string_tchar@?$output_processor@_WV?$string_output_adapter@_W@__crt_stdio_output@@V?$positional_parameter_base@_WV?$string_output_adapter@_W@__crt_stdio_output@@@2@@__crt_stdio_output@@AEAA_N_W@Z 0000000180082480 f i libucrtd:output.obj
 0001:000815d0       ?write_stored_string_tchar@?$output_processor@_WV?$string_output_adapter@_W@__crt_stdio_output@@V?$standard_base@_WV?$string_output_adapter@_W@__crt_stdio_output@@@2@@__crt_stdio_output@@AEAA_N_W@Z 00000001800825d0 f i libucrtd:output.obj
 0001:00081720       ?write_string@?$stream_output_adapter@D@__crt_stdio_output@@QEBAXQEBDHQEAHAEAV__crt_deferred_errno_cache@@@Z 0000000180082720 f i libucrtd:output.obj
 0001:000817a0       ?write_string@?$stream_output_adapter@_W@__crt_stdio_output@@QEBAXQEB_WHQEAHAEAV__crt_deferred_errno_cache@@@Z 00000001800827a0 f i libucrtd:output.obj
 0001:00081820       ?write_string@?$string_output_adapter@D@__crt_stdio_output@@QEBAXQEBDHQEAHAEAV__crt_deferred_errno_cache@@@Z 0000000180082820 f i libucrtd:output.obj
 0001:00081990       ?write_string@?$string_output_adapter@_W@__crt_stdio_output@@QEBAXQEB_WHQEAHAEAV__crt_deferred_errno_cache@@@Z 0000000180082990 f i libucrtd:output.obj
 0001:00081b00       ?write_string_impl@?$output_adapter_common@DV?$stream_output_adapter@D@__crt_stdio_output@@@__crt_stdio_output@@IEBAXQEBDHQEAHAEAV__crt_deferred_errno_cache@@@Z 0000000180082b00 f i libucrtd:output.obj
 0001:00081be0       ?write_string_impl@?$output_adapter_common@_WV?$stream_output_adapter@_W@__crt_stdio_output@@@__crt_stdio_output@@IEBAXQEB_WHQEAHAEAV__crt_deferred_errno_cache@@@Z 0000000180082be0 f i libucrtd:output.obj
 0001:00081cc0       __acrt_disable_global_locale_sync 0000000180082cc0 f i libucrtd:output.obj
 0001:00081cf0       __acrt_enable_global_locale_sync 0000000180082cf0 f i libucrtd:output.obj
 0001:00081d20       __acrt_isleadbyte_l_noupdate 0000000180082d20 f i libucrtd:output.obj
 0001:00081d50       __acrt_locale_changed      0000000180082d50 f i libucrtd:output.obj
 0001:00081d80       __acrt_locale_get_ctype_array_value 0000000180082d80 f i libucrtd:output.obj
 0001:00081dc0       __stdio_common_vfprintf    0000000180082dc0 f   libucrtd:output.obj
 0001:00081e00       __stdio_common_vfprintf_p  0000000180082e00 f   libucrtd:output.obj
 0001:00081e40       __stdio_common_vfprintf_s  0000000180082e40 f   libucrtd:output.obj
 0001:00081e80       __stdio_common_vfwprintf   0000000180082e80 f   libucrtd:output.obj
 0001:00081ec0       __stdio_common_vfwprintf_p 0000000180082ec0 f   libucrtd:output.obj
 0001:00081f00       __stdio_common_vfwprintf_s 0000000180082f00 f   libucrtd:output.obj
 0001:00081f40       __stdio_common_vsnprintf_s 0000000180082f40 f   libucrtd:output.obj
 0001:00081fa0       __stdio_common_vsnwprintf_s 0000000180082fa0 f   libucrtd:output.obj
 0001:00082000       __stdio_common_vsprintf    0000000180083000 f   libucrtd:output.obj
 0001:00082050       __stdio_common_vsprintf_p  0000000180083050 f   libucrtd:output.obj
 0001:000820a0       __stdio_common_vsprintf_s  00000001800830a0 f   libucrtd:output.obj
 0001:000820f0       __stdio_common_vswprintf   00000001800830f0 f   libucrtd:output.obj
 0001:00082140       __stdio_common_vswprintf_p 0000000180083140 f   libucrtd:output.obj
 0001:00082190       __stdio_common_vswprintf_s 0000000180083190 f   libucrtd:output.obj
 0001:000821e0       _ctype_fast_check_internal 00000001800831e0 f i libucrtd:output.obj
 0001:00082210       _isdigit_fast_internal     0000000180083210 f i libucrtd:output.obj
 0001:00082240       _tolower_fast_internal     0000000180083240 f i libucrtd:output.obj
 0001:00082270       free                       0000000180083270 f   libucrtd:free.obj
 0001:000822a0       malloc                     00000001800832a0 f   libucrtd:malloc.obj
 0001:000822d0       ??$?RU?$__crt_report_hook_node@D@@@__crt_internal_free_policy@@QEBAXQEBU?$__crt_report_hook_node@D@@@Z 00000001800832d0 f i libucrtd:dbgrpt.obj
 0001:00082300       ??$?RU?$__crt_report_hook_node@_W@@@__crt_internal_free_policy@@QEBAXQEBU?$__crt_report_hook_node@_W@@@Z 0000000180083300 f i libucrtd:dbgrpt.obj
 0001:00083540       ??$get_module_file_name@AEAPEAUHINSTANCE__@@AEAY0BAF@DK@?$__crt_char_traits@D@@SAKAEAPEAUHINSTANCE__@@AEAY0BAF@D$$QEAK@Z 0000000180084540 f i libucrtd:dbgrpt.obj
 0001:00083580       ??$get_module_file_name@AEAPEAUHINSTANCE__@@AEAY0BAF@_WK@?$__crt_char_traits@_W@@SAKAEAPEAUHINSTANCE__@@AEAY0BAF@_W$$QEAK@Z 0000000180084580 f i libucrtd:dbgrpt.obj
 0001:000835c0       ??$tcscpy_s@AEAY0BAF@D_KPEBD@?$__crt_char_traits@D@@SAHAEAY0BAF@D$$QEA_K$$QEAPEBD@Z 00000001800845c0 f i libucrtd:dbgrpt.obj
 0001:00083600       ??$tcscpy_s@AEAY0BAF@_W_KPEB_W@?$__crt_char_traits@_W@@SAHAEAY0BAF@_W$$QEA_K$$QEAPEB_W@Z 0000000180084600 f i libucrtd:dbgrpt.obj
 0001:00083640       ??$tcslen@AEAY0BAF@D@?$__crt_char_traits@D@@SA_KAEAY0BAF@D@Z 0000000180084640 f i libucrtd:dbgrpt.obj
 0001:00083660       ??$tcslen@AEAY0BAF@_W@?$__crt_char_traits@_W@@SA_KAEAY0BAF@_W@Z 0000000180084660 f i libucrtd:dbgrpt.obj
 0001:00083680       ??$tcslen@AEBQEBD@?$__crt_char_traits@D@@SA_KAEBQEBD@Z 0000000180084680 f i libucrtd:dbgrpt.obj
 0001:000836a0       ??$tcslen@AEBQEB_W@?$__crt_char_traits@_W@@SA_KAEBQEB_W@Z 00000001800846a0 f i libucrtd:dbgrpt.obj
 0001:000837a0       ??0?$__crt_unique_heap_ptr@U?$__crt_report_hook_node@D@@U__crt_internal_free_policy@@@@QEAA@QEAU?$__crt_report_hook_node@D@@@Z 00000001800847a0 f i libucrtd:dbgrpt.obj
 0001:000837c0       ??0?$__crt_unique_heap_ptr@U?$__crt_report_hook_node@_W@@U__crt_internal_free_policy@@@@QEAA@QEAU?$__crt_report_hook_node@_W@@@Z 00000001800847c0 f i libucrtd:dbgrpt.obj
 0001:000837e0       ??1?$__crt_unique_heap_ptr@U?$__crt_report_hook_node@D@@U__crt_internal_free_policy@@@@QEAA@XZ 00000001800847e0 f i libucrtd:dbgrpt.obj
 0001:00083800       ??1?$__crt_unique_heap_ptr@U?$__crt_report_hook_node@_W@@U__crt_internal_free_policy@@@@QEAA@XZ 0000000180084800 f i libucrtd:dbgrpt.obj
 0001:00083820       ??B?$__crt_unique_heap_ptr@U?$__crt_report_hook_node@D@@U__crt_internal_free_policy@@@@QEBA_NXZ 0000000180084820 f i libucrtd:dbgrpt.obj
 0001:00083840       ??B?$__crt_unique_heap_ptr@U?$__crt_report_hook_node@_W@@U__crt_internal_free_policy@@@@QEBA_NXZ 0000000180084840 f i libucrtd:dbgrpt.obj
 0001:00083f20       ?detach@?$__crt_unique_heap_ptr@U?$__crt_report_hook_node@D@@U__crt_internal_free_policy@@@@QEAAPEAU?$__crt_report_hook_node@D@@XZ 0000000180084f20 f i libucrtd:dbgrpt.obj
 0001:00083f50       ?detach@?$__crt_unique_heap_ptr@U?$__crt_report_hook_node@_W@@U__crt_internal_free_policy@@@@QEAAPEAU?$__crt_report_hook_node@_W@@XZ 0000000180084f50 f i libucrtd:dbgrpt.obj
 0001:00083f80       ?get@?$__crt_unique_heap_ptr@U?$__crt_report_hook_node@D@@U__crt_internal_free_policy@@@@QEBAPEAU?$__crt_report_hook_node@D@@XZ 0000000180084f80 f i libucrtd:dbgrpt.obj
 0001:00083f90       ?get@?$__crt_unique_heap_ptr@U?$__crt_report_hook_node@_W@@U__crt_internal_free_policy@@@@QEBAPEAU?$__crt_report_hook_node@_W@@XZ 0000000180084f90 f i libucrtd:dbgrpt.obj
 0001:00084000       ?is_valid@?$__crt_unique_heap_ptr@U?$__crt_report_hook_node@D@@U__crt_internal_free_policy@@@@QEBA_NXZ 0000000180085000 f i libucrtd:dbgrpt.obj
 0001:00084030       ?is_valid@?$__crt_unique_heap_ptr@U?$__crt_report_hook_node@_W@@U__crt_internal_free_policy@@@@QEBA_NXZ 0000000180085030 f i libucrtd:dbgrpt.obj
 0001:00084060       ?release@?$__crt_unique_heap_ptr@U?$__crt_report_hook_node@D@@U__crt_internal_free_policy@@@@QEAAXXZ 0000000180085060 f i libucrtd:dbgrpt.obj
 0001:00084090       ?release@?$__crt_unique_heap_ptr@U?$__crt_report_hook_node@_W@@U__crt_internal_free_policy@@@@QEAAXXZ 0000000180085090 f i libucrtd:dbgrpt.obj
 0001:000840c0       _CrtDbgReport              00000001800850c0 f   libucrtd:dbgrpt.obj
 0001:00084140       _CrtDbgReportW             0000000180085140 f   libucrtd:dbgrpt.obj
 0001:000841c0       _CrtSetReportHook2         00000001800851c0 f   libucrtd:dbgrpt.obj
 0001:000841e0       _CrtSetReportHookW2        00000001800851e0 f   libucrtd:dbgrpt.obj
 0001:00084200       __acrt_MessageWindowA      0000000180085200 f   libucrtd:dbgrpt.obj
 0001:00084250       __acrt_MessageWindowW      0000000180085250 f   libucrtd:dbgrpt.obj
 0001:000842a0       _invoke_watson_if_error    00000001800852a0 f i libucrtd:dbgrpt.obj
 0001:000842f0       _invoke_watson_if_oneof    00000001800852f0 f i libucrtd:dbgrpt.obj
 0001:00084350       _snwprintf_s               0000000180085350 f i libucrtd:dbgrpt.obj
 0001:000843c0       _vsnwprintf_s_l            00000001800853c0 f i libucrtd:dbgrpt.obj
 0001:00084920       wcscpy_s                   0000000180085920 f   libucrtd:wcscpy_s.obj
 0001:00085cb0       ??1?$__crt_simd_cleanup_guard@$00@@QEAA@XZ 0000000180086cb0 f i libucrtd:strnlen.obj
 0001:00085cc0       ??1?$__crt_simd_cleanup_guard@$0A@@@QEAA@XZ 0000000180086cc0 f i libucrtd:strnlen.obj
 0001:00085cd0       ?compare_equals@?$__crt_simd_traits@$00E@@SA?AT__m256i@@T2@0@Z 0000000180086cd0 f i libucrtd:strnlen.obj
 0001:00085d10       ?compare_equals@?$__crt_simd_traits@$00G@@SA?AT__m256i@@T2@0@Z 0000000180086d10 f i libucrtd:strnlen.obj
 0001:00085d50       ?compare_equals@?$__crt_simd_traits@$0A@E@@SA?AT__m128i@@T2@0@Z 0000000180086d50 f i libucrtd:strnlen.obj
 0001:00085d80       ?compare_equals@?$__crt_simd_traits@$0A@G@@SA?AT__m128i@@T2@0@Z 0000000180086d80 f i libucrtd:strnlen.obj
 0001:00085db0       ?compute_byte_mask@?$__crt_simd_pack_traits@$00@@SAHT__m256i@@@Z 0000000180086db0 f i libucrtd:strnlen.obj
 0001:00085dd0       ?compute_byte_mask@?$__crt_simd_pack_traits@$0A@@@SAHT__m128i@@@Z 0000000180086dd0 f i libucrtd:strnlen.obj
 0001:00085df0       ?get_zero_pack@?$__crt_simd_pack_traits@$00@@SA?AT__m256i@@XZ 0000000180086df0 f i libucrtd:strnlen.obj
 0001:00085e20       ?get_zero_pack@?$__crt_simd_pack_traits@$0A@@@SA?AT__m128i@@XZ 0000000180086e20 f i libucrtd:strnlen.obj
 0001:00085e40       strnlen                    0000000180086e40 f   libucrtd:strnlen.obj
 0001:00085e70       wcslen                     0000000180086e70 f   libucrtd:strnlen.obj
 0001:00085e90       wcsnlen                    0000000180086e90 f   libucrtd:strnlen.obj
 0001:00085ec0       ??$__crt_fast_decode_pointer@P6AXPEB_W00I_K@Z@@YAP6AXPEB_W00I_K@ZQ6AX000I1@Z@Z 0000000180086ec0 f i libucrtd:invalid_parameter.obj
 0001:00085f00       ??$__crt_fast_encode_pointer@P6AXPEB_W00I_K@Z@@YAP6AXPEB_W00I_K@ZQ6AX000I1@Z@Z 0000000180086f00 f i libucrtd:invalid_parameter.obj
 0001:00085f40       ??$initialize_from_array@$$BY00Q6AXPEB_W00I_K@Z@?$dual_state_global@P6AXPEB_W00I_K@Z@__crt_state_management@@QEAAXAEAY00Q6AXPEB_W00I_K@Z@Z 0000000180086f40 f i libucrtd:invalid_parameter.obj
 0001:00085fa0       ?__crt_rotate_pointer_value@@YA_K_KH@Z 0000000180086fa0 f i libucrtd:invalid_parameter.obj
 0001:00086060       ?dangerous_get_state_array@?$dual_state_global@P6AXPEB_W00I_K@Z@__crt_state_management@@QEAAPEAP6AXPEB_W00I_K@ZXZ 0000000180087060 f i libucrtd:invalid_parameter.obj
 0001:00086070       ?get_current_state_index@__crt_state_management@@YA_KXZ 0000000180087070 f i libucrtd:invalid_parameter.obj
 0001:00086080       ?value@?$dual_state_global@P6AXPEB_W00I_K@Z@__crt_state_management@@QEAAAEAP6AXPEB_W00I_K@ZXZ 0000000180087080 f i libucrtd:invalid_parameter.obj
 0001:000860a0       __acrt_call_reportfault    00000001800870a0 f   libucrtd:invalid_parameter.obj
 0001:000861d0       __acrt_initialize_invalid_parameter_handler 00000001800871d0 f   libucrtd:invalid_parameter.obj
 0001:00086200       _get_invalid_parameter_handler 0000000180087200 f   libucrtd:invalid_parameter.obj
 0001:00086220       _get_thread_local_invalid_parameter_handler 0000000180087220 f   libucrtd:invalid_parameter.obj
 0001:00086250       _invalid_parameter         0000000180087250 f   libucrtd:invalid_parameter.obj
 0001:00086350       _invalid_parameter_noinfo  0000000180087350 f   libucrtd:invalid_parameter.obj
 0001:00086380       _invalid_parameter_noinfo_noreturn 0000000180087380 f   libucrtd:invalid_parameter.obj
 0001:000863c0       _invoke_watson             00000001800873c0 f   libucrtd:invalid_parameter.obj
 0001:00086420       _set_invalid_parameter_handler 0000000180087420 f   libucrtd:invalid_parameter.obj
 0001:00086470       _set_thread_local_invalid_parameter_handler 0000000180087470 f   libucrtd:invalid_parameter.obj
 0001:000864b0       __acrt_errno_from_os_error 00000001800874b0 f   libucrtd:errno.obj
 0001:00086540       __acrt_errno_map_os_error  0000000180087540 f   libucrtd:errno.obj
 0001:00086570       __doserrno                 0000000180087570 f   libucrtd:errno.obj
 0001:000865a0       _errno                     00000001800875a0 f   libucrtd:errno.obj
 0001:000865d0       _get_doserrno              00000001800875d0 f   libucrtd:errno.obj
 0001:00086690       _get_errno                 0000000180087690 f   libucrtd:errno.obj
 0001:00086750       _set_doserrno              0000000180087750 f   libucrtd:errno.obj
 0001:00086790       _set_errno                 0000000180087790 f   libucrtd:errno.obj
 0001:000867d0       calloc                     00000001800877d0 f   libucrtd:calloc.obj
 0001:00086810       _recalloc                  0000000180087810 f   libucrtd:recalloc.obj
 0001:00086860       _recalloc_base             0000000180087860 f   libucrtd:recalloc.obj
 0001:0008693c       _resetstkoflw              000000018008793c f   libucrtd:resetstk.obj
 0001:000870f0       wcscat_s                   00000001800880f0 f   libucrtd:wcscat_s.obj
 0001:000877c0       wcsncpy_s                  00000001800887c0 f   libucrtd:wcsncpy_s.obj
 0001:00087940       __isascii                  0000000180088940 f   libucrtd:_ctype.obj
 0001:00087970       __iscsym                   0000000180088970 f   libucrtd:_ctype.obj
 0001:000879b0       __iscsymf                  00000001800889b0 f   libucrtd:_ctype.obj
 0001:000879f0       __toascii                  00000001800889f0 f   libucrtd:_ctype.obj
 0001:00087a00       _isalnum_l                 0000000180088a00 f   libucrtd:_ctype.obj
 0001:00087a30       _isalpha_l                 0000000180088a30 f   libucrtd:_ctype.obj
 0001:00087a60       _isblank_l                 0000000180088a60 f   libucrtd:_ctype.obj
 0001:00087a90       _iscntrl_l                 0000000180088a90 f   libucrtd:_ctype.obj
 0001:00087ac0       _iscsym_l                  0000000180088ac0 f   libucrtd:_ctype.obj
 0001:00087b10       _iscsymf_l                 0000000180088b10 f   libucrtd:_ctype.obj
 0001:00087b60       _isdigit_l                 0000000180088b60 f   libucrtd:_ctype.obj
 0001:00087b90       _isgraph_l                 0000000180088b90 f   libucrtd:_ctype.obj
 0001:00087bc0       _islower_l                 0000000180088bc0 f   libucrtd:_ctype.obj
 0001:00087bf0       _isprint_l                 0000000180088bf0 f   libucrtd:_ctype.obj
 0001:00087c20       _ispunct_l                 0000000180088c20 f   libucrtd:_ctype.obj
 0001:00087c50       _isspace_l                 0000000180088c50 f   libucrtd:_ctype.obj
 0001:00087c80       _isupper_l                 0000000180088c80 f   libucrtd:_ctype.obj
 0001:00087cb0       _isxdigit_l                0000000180088cb0 f   libucrtd:_ctype.obj
 0001:00087ce0       isalnum                    0000000180088ce0 f   libucrtd:_ctype.obj
 0001:00087d00       isalpha                    0000000180088d00 f   libucrtd:_ctype.obj
 0001:00087d20       isblank                    0000000180088d20 f   libucrtd:_ctype.obj
 0001:00087d50       iscntrl                    0000000180088d50 f   libucrtd:_ctype.obj
 0001:00087d70       isdigit                    0000000180088d70 f   libucrtd:_ctype.obj
 0001:00087d90       isgraph                    0000000180088d90 f   libucrtd:_ctype.obj
 0001:00087db0       islower                    0000000180088db0 f   libucrtd:_ctype.obj
 0001:00087dd0       isprint                    0000000180088dd0 f   libucrtd:_ctype.obj
 0001:00087df0       ispunct                    0000000180088df0 f   libucrtd:_ctype.obj
 0001:00087e10       isspace                    0000000180088e10 f   libucrtd:_ctype.obj
 0001:00087e30       isupper                    0000000180088e30 f   libucrtd:_ctype.obj
 0001:00087e50       isxdigit                   0000000180088e50 f   libucrtd:_ctype.obj
 0001:00087e70       wcscat                     0000000180088e70 f   libucrtd:wcscat.obj
 0001:00087ef0       wcscpy                     0000000180088ef0 f   libucrtd:wcscpy.obj
 0001:000886a0       ??$open_file@AEBQEBDAEBQEBDAEBHPEAU_iobuf@@@?$__crt_char_traits@D@@SAPEAU_iobuf@@AEBQEBD0AEBH$$QEAPEAU1@@Z 00000001800896a0 f i libucrtd:fopen.obj
 0001:000886f0       ??$open_file@AEBQEB_WAEBQEB_WAEBHPEAU_iobuf@@@?$__crt_char_traits@_W@@SAPEAU_iobuf@@AEBQEB_W0AEBH$$QEAPEAU1@@Z 00000001800896f0 f i libucrtd:fopen.obj
 0001:00088740       ?unlock@__crt_stdio_stream@@QEBAXXZ 0000000180089740 f i libucrtd:fopen.obj
 0001:00088760       _fsopen                    0000000180089760 f   libucrtd:fopen.obj
 0001:00088790       _wfopen                    0000000180089790 f   libucrtd:fopen.obj
 0001:000887c0       _wfopen_s                  00000001800897c0 f   libucrtd:fopen.obj
 0001:000887f0       _wfsopen                   00000001800897f0 f   libucrtd:fopen.obj
 0001:00088820       fopen                      0000000180089820 f   libucrtd:fopen.obj
 0001:00088850       fopen_s                    0000000180089850 f   libucrtd:fopen.obj
 0001:00088880       ?is_in_use@__crt_stdio_stream@@QEBA_NXZ 0000000180089880 f i libucrtd:fclose.obj
 0001:000888c0       _fclose_nolock             00000001800898c0 f   libucrtd:fclose.obj
 0001:00088a50       fclose                     0000000180089a50 f   libucrtd:fclose.obj
 0001:00088b90       _fputc_nolock              0000000180089b90 f   libucrtd:fputc.obj
 0001:00088c40       _fputchar                  0000000180089c40 f   libucrtd:fputc.obj
 0001:00088c70       _putc_nolock               0000000180089c70 f   libucrtd:fputc.obj
 0001:00088c90       fputc                      0000000180089c90 f   libucrtd:fputc.obj
 0001:00088f30       putc                       0000000180089f30 f   libucrtd:fputc.obj
 0001:00088f50       putchar                    0000000180089f50 f   libucrtd:fputc.obj
 0001:00088fe0       _seh_filter_dll            0000000180089fe0 f   libucrtd:exception_filter.obj
 0001:00089010       _seh_filter_exe            000000018008a010 f   libucrtd:exception_filter.obj
 0001:000892b0       ??$?B$$A6AXPEAXK0@Z@__crt_fast_encoded_nullptr_t@@QEBAP6AXPEAXK0@ZXZ 000000018008a2b0 f i libucrtd:exit.obj
 0001:00089360       ??$__crt_fast_decode_pointer@P6AXPEAXK0@Z@@YAP6AXPEAXK0@ZQ6AX0K0@Z@Z 000000018008a360 f i libucrtd:exit.obj
 0001:000893a0       ??$__crt_fast_encode_pointer@P6AXPEAXK0@Z@@YAP6AXPEAXK0@ZQ6AX0K0@Z@Z 000000018008a3a0 f i libucrtd:exit.obj
 0001:000893e0       ??$__crt_get_proc_address@P6AXI@Z@@YAP6AXI@ZQEAUHINSTANCE__@@QEBD@Z 000000018008a3e0 f i libucrtd:exit.obj
 0001:000894a0       ??0?$__crt_unique_handle_t@U__crt_hmodule_traits@@@@QEAA@QEAUHINSTANCE__@@@Z 000000018008a4a0 f i libucrtd:exit.obj
 0001:000894c0       ??1?$__crt_unique_handle_t@U__crt_hmodule_traits@@@@QEAA@XZ 000000018008a4c0 f i libucrtd:exit.obj
 0001:00089620       ?__acrt_select_exit_lock@@YA?AW4__acrt_lock_id@@XZ 000000018008a620 f i libucrtd:exit.obj
 0001:00089630       ?__crt_fast_encode_pointer@@YA?AU__crt_fast_encoded_nullptr_t@@$$T@Z 000000018008a630 f i libucrtd:exit.obj
 0001:00089670       ?close@?$__crt_unique_handle_t@U__crt_hmodule_traits@@@@QEAAXXZ 000000018008a670 f i libucrtd:exit.obj
 0001:000896b0       ?close@__crt_hmodule_traits@@SA_NPEAUHINSTANCE__@@@Z 000000018008a6b0 f i libucrtd:exit.obj
 0001:000897c0       ?get@?$__crt_unique_handle_t@U__crt_hmodule_traits@@@@QEBAPEAUHINSTANCE__@@XZ 000000018008a7c0 f i libucrtd:exit.obj
 0001:000897d0       ?get_address_of@?$__crt_unique_handle_t@U__crt_hmodule_traits@@@@QEAAPEAPEAUHINSTANCE__@@XZ 000000018008a7d0 f i libucrtd:exit.obj
 0001:000897e0       ?get_invalid_value@__crt_hmodule_traits@@SAPEAUHINSTANCE__@@XZ 000000018008a7e0 f i libucrtd:exit.obj
 0001:000899a0       _Exit                      000000018008a9a0 f   libucrtd:exit.obj
 0001:000899c0       __acrt_initialize_thread_local_exit_callback 000000018008a9c0 f   libucrtd:exit.obj
 0001:000899e0       _c_exit                    000000018008a9e0 f   libucrtd:exit.obj
 0001:00089a00       _cexit                     000000018008aa00 f   libucrtd:exit.obj
 0001:00089a20       _exit                      000000018008aa20 f   libucrtd:exit.obj
 0001:00089a40       _is_c_termination_complete 000000018008aa40 f   libucrtd:exit.obj
 0001:00089a60       _register_thread_local_exe_atexit_callback 000000018008aa60 f   libucrtd:exit.obj
 0001:00089ab0       exit                       000000018008aab0 f   libucrtd:exit.obj
 0001:00089ad0       quick_exit                 000000018008aad0 f   libucrtd:exit.obj
 0001:00089af0       ??$?RE@__crt_internal_free_policy@@QEBAXQEBE@Z 000000018008aaf0 f i libucrtd:argv_parsing.obj
 0001:00089b20       ??$?RPEAD@__crt_internal_free_policy@@QEBAXQEBQEAD@Z 000000018008ab20 f i libucrtd:argv_parsing.obj
 0001:00089b50       ??$?RPEA_W@__crt_internal_free_policy@@QEBAXQEBQEA_W@Z 000000018008ab50 f i libucrtd:argv_parsing.obj
 0001:0008a2a0       ??$get_module_file_name@$$TAEAY0BAF@DH@?$__crt_char_traits@D@@SAK$$QEA$$TAEAY0BAF@D$$QEAH@Z 000000018008b2a0 f i libucrtd:argv_parsing.obj
 0001:0008a2e0       ??$get_module_file_name@$$TAEAY0BAF@_WH@?$__crt_char_traits@_W@@SAK$$QEA$$TAEAY0BAF@_W$$QEAH@Z 000000018008b2e0 f i libucrtd:argv_parsing.obj
 0001:0008ac90       ??$set_program_name@PEAD@?$__crt_char_traits@D@@SAX$$QEAPEAD@Z 000000018008bc90 f i libucrtd:argv_parsing.obj
 0001:0008acb0       ??$set_program_name@PEA_W@?$__crt_char_traits@_W@@SAX$$QEAPEA_W@Z 000000018008bcb0 f i libucrtd:argv_parsing.obj
 0001:0008ad10       ??0?$__crt_unique_heap_ptr@EU__crt_internal_free_policy@@@@QEAA@QEAE@Z 000000018008bd10 f i libucrtd:argv_parsing.obj
 0001:0008ad30       ??0?$__crt_unique_heap_ptr@PEADU__crt_internal_free_policy@@@@QEAA@QEAPEAD@Z 000000018008bd30 f i libucrtd:argv_parsing.obj
 0001:0008ad50       ??0?$__crt_unique_heap_ptr@PEA_WU__crt_internal_free_policy@@@@QEAA@QEAPEA_W@Z 000000018008bd50 f i libucrtd:argv_parsing.obj
 0001:0008ad70       ??1?$__crt_unique_heap_ptr@EU__crt_internal_free_policy@@@@QEAA@XZ 000000018008bd70 f i libucrtd:argv_parsing.obj
 0001:0008ad90       ??1?$__crt_unique_heap_ptr@PEADU__crt_internal_free_policy@@@@QEAA@XZ 000000018008bd90 f i libucrtd:argv_parsing.obj
 0001:0008adb0       ??1?$__crt_unique_heap_ptr@PEA_WU__crt_internal_free_policy@@@@QEAA@XZ 000000018008bdb0 f i libucrtd:argv_parsing.obj
 0001:0008add0       ??B?$__crt_unique_heap_ptr@EU__crt_internal_free_policy@@@@QEBA_NXZ 000000018008bdd0 f i libucrtd:argv_parsing.obj
 0001:0008aeb0       ?detach@?$__crt_unique_heap_ptr@EU__crt_internal_free_policy@@@@QEAAPEAEXZ 000000018008beb0 f i libucrtd:argv_parsing.obj
 0001:0008aee0       ?detach@?$__crt_unique_heap_ptr@PEADU__crt_internal_free_policy@@@@QEAAPEAPEADXZ 000000018008bee0 f i libucrtd:argv_parsing.obj
 0001:0008af10       ?detach@?$__crt_unique_heap_ptr@PEA_WU__crt_internal_free_policy@@@@QEAAPEAPEA_WXZ 000000018008bf10 f i libucrtd:argv_parsing.obj
 0001:0008afd0       ?get@?$__crt_unique_heap_ptr@EU__crt_internal_free_policy@@@@QEBAPEAEXZ 000000018008bfd0 f i libucrtd:argv_parsing.obj
 0001:0008afe0       ?get@?$__crt_unique_heap_ptr@PEADU__crt_internal_free_policy@@@@QEBAPEAPEADXZ 000000018008bfe0 f i libucrtd:argv_parsing.obj
 0001:0008aff0       ?get@?$__crt_unique_heap_ptr@PEA_WU__crt_internal_free_policy@@@@QEBAPEAPEA_WXZ 000000018008bff0 f i libucrtd:argv_parsing.obj
 0001:0008b000       ?get_address_of@?$__crt_unique_heap_ptr@PEADU__crt_internal_free_policy@@@@QEAAPEAPEAPEADXZ 000000018008c000 f i libucrtd:argv_parsing.obj
 0001:0008b010       ?get_address_of@?$__crt_unique_heap_ptr@PEA_WU__crt_internal_free_policy@@@@QEAAPEAPEAPEA_WXZ 000000018008c010 f i libucrtd:argv_parsing.obj
 0001:0008b060       ?is_valid@?$__crt_unique_heap_ptr@EU__crt_internal_free_policy@@@@QEBA_NXZ 000000018008c060 f i libucrtd:argv_parsing.obj
 0001:0008b090       ?release@?$__crt_unique_heap_ptr@EU__crt_internal_free_policy@@@@QEAAXXZ 000000018008c090 f i libucrtd:argv_parsing.obj
 0001:0008b0c0       ?release@?$__crt_unique_heap_ptr@PEADU__crt_internal_free_policy@@@@QEAAXXZ 000000018008c0c0 f i libucrtd:argv_parsing.obj
 0001:0008b0f0       ?release@?$__crt_unique_heap_ptr@PEA_WU__crt_internal_free_policy@@@@QEAAXXZ 000000018008c0f0 f i libucrtd:argv_parsing.obj
 0001:0008b170       __acrt_allocate_buffer_for_argv 000000018008c170 f   libucrtd:argv_parsing.obj
 0001:0008b290       _configure_narrow_argv     000000018008c290 f   libucrtd:argv_parsing.obj
 0001:0008b2b0       _configure_wide_argv       000000018008c2b0 f   libucrtd:argv_parsing.obj
 0001:0008b2d0       _set_pgmptr                000000018008c2d0 f i libucrtd:argv_parsing.obj
 0001:0008b2f0       _set_wpgmptr               000000018008c2f0 f i libucrtd:argv_parsing.obj
 0001:0008b304       ??$?R_W@__crt_internal_free_policy@@QEBAXQEB_W@Z 000000018008c304 f i libucrtd:environment_initialization.obj
 0001:0008b8dc       ??$get_environment_from_os@$$V@?$__crt_char_traits@D@@SAPEADXZ 000000018008c8dc f i libucrtd:environment_initialization.obj
 0001:0008b8e4       ??$get_environment_from_os@$$V@?$__crt_char_traits@_W@@SAPEA_WXZ 000000018008c8e4 f i libucrtd:environment_initialization.obj
 0001:0008bab4       ??$set_variable_in_environment_nolock@PEADH@?$__crt_char_traits@D@@SAH$$QEAPEAD$$QEAH@Z 000000018008cab4 f i libucrtd:environment_initialization.obj
 0001:0008bac0       ??$set_variable_in_environment_nolock@PEA_WH@?$__crt_char_traits@_W@@SAH$$QEAPEA_W$$QEAH@Z 000000018008cac0 f i libucrtd:environment_initialization.obj
 0001:0008bacc       ??$tcscpy_s@PEADAEB_KAEAPEAD@?$__crt_char_traits@D@@SAH$$QEAPEADAEB_KAEAPEAD@Z 000000018008cacc f i libucrtd:environment_initialization.obj
 0001:0008badc       ??$tcscpy_s@PEA_WAEB_KAEAPEA_W@?$__crt_char_traits@_W@@SAH$$QEAPEA_WAEB_KAEAPEA_W@Z 000000018008cadc f i libucrtd:environment_initialization.obj
 0001:0008baec       ??$tcslen@AEAPEAD@?$__crt_char_traits@D@@SA_KAEAPEAD@Z 000000018008caec f i libucrtd:environment_initialization.obj
 0001:0008bb00       ??$tcslen@AEAPEA_W@?$__crt_char_traits@_W@@SA_KAEAPEA_W@Z 000000018008cb00 f i libucrtd:environment_initialization.obj
 0001:0008bb14       ??$uninitialize@A6AXAEAPEAPEAD@Z@?$dual_state_global@PEAPEAD@__crt_state_management@@QEAAXA6AXAEAPEAPEAD@Z@Z 000000018008cb14 f i libucrtd:environment_initialization.obj
 0001:0008bb58       ??$uninitialize@A6AXAEAPEAPEA_W@Z@?$dual_state_global@PEAPEA_W@__crt_state_management@@QEAAXA6AXAEAPEAPEA_W@Z@Z 000000018008cb58 f i libucrtd:environment_initialization.obj
 0001:0008bbd4       ??0?$__crt_unique_heap_ptr@_WU__crt_internal_free_policy@@@@QEAA@QEA_W@Z 000000018008cbd4 f i libucrtd:environment_initialization.obj
 0001:0008bbdc       ??1?$__crt_unique_heap_ptr@_WU__crt_internal_free_policy@@@@QEAA@XZ 000000018008cbdc f i libucrtd:environment_initialization.obj
 0001:0008bbfc       ??B?$__crt_unique_heap_ptr@PEADU__crt_internal_free_policy@@@@QEBA_NXZ 000000018008cbfc f i libucrtd:environment_initialization.obj
 0001:0008bc04       ??B?$__crt_unique_heap_ptr@PEA_WU__crt_internal_free_policy@@@@QEBA_NXZ 000000018008cc04 f i libucrtd:environment_initialization.obj
 0001:0008bc0c       ??B?$__crt_unique_heap_ptr@_WU__crt_internal_free_policy@@@@QEBA_NXZ 000000018008cc0c f i libucrtd:environment_initialization.obj
 0001:0008bc14       ?__crt_compute_required_transform_buffer_count@@YA_KIQEBD@Z 000000018008cc14 f i libucrtd:environment_initialization.obj
 0001:0008bc38       ?__crt_compute_required_transform_buffer_count@@YA_KIQEB_W@Z 000000018008cc38 f i libucrtd:environment_initialization.obj
 0001:0008bc68       ?__crt_transform_string@@YA_KIQEBDQEA_W_K@Z 000000018008cc68 f i libucrtd:environment_initialization.obj
 0001:0008bc8c       ?__crt_transform_string@@YA_KIQEB_WQEAD_K@Z 000000018008cc8c f i libucrtd:environment_initialization.obj
 0001:0008bcbc       ?detach@?$__crt_unique_heap_ptr@DU__crt_internal_free_policy@@@@QEAAPEADXZ 000000018008ccbc f i libucrtd:environment_initialization.obj
 0001:0008bcc4       ?detach@?$__crt_unique_heap_ptr@_WU__crt_internal_free_policy@@@@QEAAPEA_WXZ 000000018008ccc4 f i libucrtd:environment_initialization.obj
 0001:0008bccc       ?get@?$__crt_unique_heap_ptr@_WU__crt_internal_free_policy@@@@QEBAPEA_WXZ 000000018008cccc f i libucrtd:environment_initialization.obj
 0001:0008bd00       ?initialize@?$dual_state_global@PEAPEAD@__crt_state_management@@QEAAXQEAPEAD@Z 000000018008cd00 f i libucrtd:environment_initialization.obj
 0001:0008bd28       ?initialize@?$dual_state_global@PEAPEA_W@__crt_state_management@@QEAAXQEAPEA_W@Z 000000018008cd28 f i libucrtd:environment_initialization.obj
 0001:0008bd50       ?is_valid@?$__crt_unique_heap_ptr@PEADU__crt_internal_free_policy@@@@QEBA_NXZ 000000018008cd50 f i libucrtd:environment_initialization.obj
 0001:0008bd58       ?is_valid@?$__crt_unique_heap_ptr@PEA_WU__crt_internal_free_policy@@@@QEBA_NXZ 000000018008cd58 f i libucrtd:environment_initialization.obj
 0001:0008bd60       ?is_valid@?$__crt_unique_heap_ptr@_WU__crt_internal_free_policy@@@@QEBA_NXZ 000000018008cd60 f i libucrtd:environment_initialization.obj
 0001:0008bd74       ?release@?$__crt_unique_heap_ptr@_WU__crt_internal_free_policy@@@@QEAAXXZ 000000018008cd74 f i libucrtd:environment_initialization.obj
 0001:0008bd94       ?value@?$dual_state_global@PEAPEAD@__crt_state_management@@QEAAAEAPEAPEADXZ 000000018008cd94 f i libucrtd:environment_initialization.obj
 0001:0008bd98       ?value@?$dual_state_global@PEAPEA_W@__crt_state_management@@QEAAAEAPEAPEA_WXZ 000000018008cd98 f i libucrtd:environment_initialization.obj
 0001:0008bd9c       __dcrt_get_or_create_narrow_environment_nolock 000000018008cd9c f   libucrtd:environment_initialization.obj
 0001:0008bdd8       __dcrt_get_or_create_wide_environment_nolock 000000018008cdd8 f   libucrtd:environment_initialization.obj
 0001:0008be14       __dcrt_uninitialize_environments_nolock 000000018008ce14 f   libucrtd:environment_initialization.obj
 0001:0008be4c       __p__environ               000000018008ce4c f   libucrtd:environment_initialization.obj
 0001:0008be54       __p__wenviron              000000018008ce54 f   libucrtd:environment_initialization.obj
 0001:0008be5c       _get_initial_narrow_environment 000000018008ce5c f   libucrtd:environment_initialization.obj
 0001:0008beac       _get_initial_wide_environment 000000018008ceac f   libucrtd:environment_initialization.obj
 0001:0008befc       _initialize_narrow_environment 000000018008cefc f   libucrtd:environment_initialization.obj
 0001:0008bf04       _initialize_wide_environment 000000018008cf04 f   libucrtd:environment_initialization.obj
 0001:0008bf10       ??$?B$$A6AXXZ@__crt_fast_encoded_nullptr_t@@QEBAP6AXXZXZ 000000018008cf10 f i libucrtd:onexit.obj
 0001:0008bf30       ??$?BP6AXXZ@__crt_fast_encoded_nullptr_t@@QEBAPEAP6AXXZXZ 000000018008cf30 f i libucrtd:onexit.obj
 0001:0008bf50       ??$?RP6AXXZ@__crt_internal_free_policy@@QEBAXQEBQ6AXXZ@Z 000000018008cf50 f i libucrtd:onexit.obj
 0001:0008c0c0       ??$__crt_fast_decode_pointer@P6AXXZ@@YAP6AXXZQ6AXXZ@Z 000000018008d0c0 f i libucrtd:onexit.obj
 0001:0008c100       ??$__crt_fast_decode_pointer@PEAP6AXXZ@@YAPEAP6AXXZQEAP6AXXZ@Z 000000018008d100 f i libucrtd:onexit.obj
 0001:0008c140       ??$__crt_fast_encode_pointer@P6AHXZ@@YAP6AHXZQ6AHXZ@Z 000000018008d140 f i libucrtd:onexit.obj
 0001:0008c180       ??$__crt_fast_encode_pointer@P6AXXZ@@YAP6AXXZQ6AXXZ@Z 000000018008d180 f i libucrtd:onexit.obj
 0001:0008c1c0       ??$__crt_fast_encode_pointer@PEAP6AXXZ@@YAPEAP6AXXZQEAP6AXXZ@Z 000000018008d1c0 f i libucrtd:onexit.obj
 0001:0008c2d0       ??0?$__crt_unique_heap_ptr@P6AXXZU__crt_internal_free_policy@@@@QEAA@QEAP6AXXZ@Z 000000018008d2d0 f i libucrtd:onexit.obj
 0001:0008c2f0       ??1?$__crt_unique_heap_ptr@P6AXXZU__crt_internal_free_policy@@@@QEAA@XZ 000000018008d2f0 f i libucrtd:onexit.obj
 0001:0008c310       ??1scoped_global_state_reset@__crt_state_management@@QEAA@XZ 000000018008d310 f i libucrtd:onexit.obj
 0001:0008c8e0       ?detach@?$__crt_unique_heap_ptr@P6AXXZU__crt_internal_free_policy@@@@QEAAPEAP6AXXZXZ 000000018008d8e0 f i libucrtd:onexit.obj
 0001:0008c910       ?release@?$__crt_unique_heap_ptr@P6AXXZU__crt_internal_free_policy@@@@QEAAXXZ 000000018008d910 f i libucrtd:onexit.obj
 0001:0008c940       _crt_at_quick_exit         000000018008d940 f   libucrtd:onexit.obj
 0001:0008c960       _crt_atexit                000000018008d960 f   libucrtd:onexit.obj
 0001:0008c980       _execute_onexit_table      000000018008d980 f   libucrtd:onexit.obj
 0001:0008c9c0       _initialize_onexit_table   000000018008d9c0 f   libucrtd:onexit.obj
 0001:0008ca40       _register_onexit_function  000000018008da40 f   libucrtd:onexit.obj
 0001:0008ccb0       ??$?BX@__crt_fast_encoded_nullptr_t@@QEBAPEAXXZ 000000018008dcb0 f i libucrtd:initialization.obj
 0001:0008ccd0       ??$__crt_fast_encode_pointer@PEAX@@YAPEAXQEAX@Z 000000018008dcd0 f i libucrtd:initialization.obj
 0001:0008cdc0       ?initialize@?$dual_state_global@PEAU__crt_locale_data@@@__crt_state_management@@QEAAXQEAU__crt_locale_data@@@Z 000000018008ddc0 f i libucrtd:initialization.obj
 0001:0008ce10       __acrt_initialize          000000018008de10 f   libucrtd:initialization.obj
 0001:0008ce40       __acrt_thread_attach       000000018008de40 f   libucrtd:initialization.obj
 0001:0008ce60       __acrt_thread_detach       000000018008de60 f   libucrtd:initialization.obj
 0001:0008ce70       __acrt_uninitialize        000000018008de70 f   libucrtd:initialization.obj
 0001:0008cea0       __acrt_uninitialize_critical 000000018008dea0 f   libucrtd:initialization.obj
 0001:0008ee90       _CrtCheckMemory            000000018008fe90 f   libucrtd:debug_heap.obj
 0001:0008f020       _CrtDoForAllClientObjects  0000000180090020 f   libucrtd:debug_heap.obj
 0001:0008f150       _CrtDumpMemoryLeaks        0000000180090150 f   libucrtd:debug_heap.obj
 0001:0008f210       _CrtGetAllocHook           0000000180090210 f   libucrtd:debug_heap.obj
 0001:0008f220       _CrtGetDumpClient          0000000180090220 f   libucrtd:debug_heap.obj
 0001:0008f230       _CrtIsMemoryBlock          0000000180090230 f   libucrtd:debug_heap.obj
 0001:0008f370       _CrtIsValidHeapPointer     0000000180090370 f   libucrtd:debug_heap.obj
 0001:0008f3b0       _CrtIsValidPointer         00000001800903b0 f   libucrtd:debug_heap.obj
 0001:0008f3f0       _CrtMemCheckpoint          00000001800903f0 f   libucrtd:debug_heap.obj
 0001:0008f670       _CrtMemDifference          0000000180090670 f   libucrtd:debug_heap.obj
 0001:0008f9d0       _CrtMemDumpAllObjectsSince 00000001800909d0 f   libucrtd:debug_heap.obj
 0001:0008fa30       _CrtMemDumpStatistics      0000000180090a30 f   libucrtd:debug_heap.obj
 0001:0008fbd0       _CrtReportBlockType        0000000180090bd0 f   libucrtd:debug_heap.obj
 0001:0008fc00       _CrtSetAllocHook           0000000180090c00 f   libucrtd:debug_heap.obj
 0001:0008fc30       _CrtSetBreakAlloc          0000000180090c30 f   libucrtd:debug_heap.obj
 0001:0008fc60       _CrtSetDbgBlockType        0000000180090c60 f   libucrtd:debug_heap.obj
 0001:0008fd00       _CrtSetDbgFlag             0000000180090d00 f   libucrtd:debug_heap.obj
 0001:0008fe60       _CrtSetDumpClient          0000000180090e60 f   libucrtd:debug_heap.obj
 0001:0008fe90       __acrt_get_locale_data_prefix 0000000180090e90 f i libucrtd:debug_heap.obj
 0001:0008feb0       __p__crtBreakAlloc         0000000180090eb0 f   libucrtd:debug_heap.obj
 0001:0008fec0       __p__crtDbgFlag            0000000180090ec0 f   libucrtd:debug_heap.obj
 0001:0008fed0       _aligned_free_dbg          0000000180090ed0 f   libucrtd:debug_heap.obj
 0001:0008ffc0       _aligned_malloc_dbg        0000000180090fc0 f   libucrtd:debug_heap.obj
 0001:00090000       _aligned_msize_dbg         0000000180091000 f   libucrtd:debug_heap.obj
 0001:000901d0       _aligned_offset_malloc_dbg 00000001800911d0 f   libucrtd:debug_heap.obj
 0001:000904c0       _aligned_offset_realloc_dbg 00000001800914c0 f   libucrtd:debug_heap.obj
 0001:00090970       _aligned_offset_recalloc_dbg 0000000180091970 f   libucrtd:debug_heap.obj
 0001:00090a90       _aligned_realloc_dbg       0000000180091a90 f   libucrtd:debug_heap.obj
 0001:00090ae0       _aligned_recalloc_dbg      0000000180091ae0 f   libucrtd:debug_heap.obj
 0001:00090b40       _calloc_dbg                0000000180091b40 f   libucrtd:debug_heap.obj
 0001:00090be0       _chvalidchk_l              0000000180091be0 f i libucrtd:debug_heap.obj
 0001:00090c10       _expand_dbg                0000000180091c10 f   libucrtd:debug_heap.obj
 0001:00090d40       _free_dbg                  0000000180091d40 f   libucrtd:debug_heap.obj
 0001:00090db0       _ischartype_l              0000000180091db0 f i libucrtd:debug_heap.obj
 0001:00090e40       _malloc_dbg                0000000180091e40 f   libucrtd:debug_heap.obj
 0001:00090e80       _msize_dbg                 0000000180091e80 f   libucrtd:debug_heap.obj
 0001:00091020       _realloc_dbg               0000000180092020 f   libucrtd:debug_heap.obj
 0001:00091090       _recalloc_dbg              0000000180092090 f   libucrtd:debug_heap.obj
 0001:00091190       _initterm                  0000000180092190 f   libucrtd:initterm.obj
 0001:000911f0       _initterm_e                00000001800921f0 f   libucrtd:initterm.obj
 0001:00091740       strcpy_s                   0000000180092740 f   libucrtd:strcpy_s.obj
 0001:00091de0       strcat_s                   0000000180092de0 f   libucrtd:strcat_s.obj
 0001:00091e10       ??$?B$$A6AH_K@Z@__crt_fast_encoded_nullptr_t@@QEBAP6AH_K@ZXZ 0000000180092e10 f i libucrtd:new_handler.obj
 0001:00091e30       ??$__crt_fast_decode_pointer@P6AH_K@Z@@YAP6AH_K@ZQ6AH0@Z@Z 0000000180092e30 f i libucrtd:new_handler.obj
 0001:00091e70       ??$__crt_fast_encode_pointer@P6AH_K@Z@@YAP6AH_K@ZQ6AH0@Z@Z 0000000180092e70 f i libucrtd:new_handler.obj
 0001:00091eb0       ?_set_new_handler@@YAP6AH_K@ZH@Z 0000000180092eb0 f   libucrtd:new_handler.obj
 0001:00091f20       ?initialize@?$dual_state_global@P6AH_K@Z@__crt_state_management@@QEAAXQ6AH_K@Z@Z 0000000180092f20 f i libucrtd:new_handler.obj
 0001:00091f70       ?value@?$dual_state_global@P6AH_K@Z@__crt_state_management@@QEAAAEAP6AH_K@ZXZ 0000000180092f70 f i libucrtd:new_handler.obj
 0001:00091f90       __acrt_initialize_new_handler 0000000180092f90 f   libucrtd:new_handler.obj
 0001:00091fb0       _callnewh                  0000000180092fb0 f   libucrtd:new_handler.obj
 0001:00092000       _query_new_handler         0000000180093000 f   libucrtd:new_handler.obj
 0001:00092040       _set_new_handler           0000000180093040 f   libucrtd:new_handler.obj
 0001:000920f0       _get_terminate             00000001800930f0 f   libucrtd:terminate.obj
 0001:00092110       set_terminate              0000000180093110 f   libucrtd:terminate.obj
 0001:00092150       terminate                  0000000180093150 f   libucrtd:terminate.obj
 0001:00092f50       _makepath                  0000000180093f50 f   libucrtd:makepath.obj
 0001:00092fa0       _makepath_s                0000000180093fa0 f   libucrtd:makepath.obj
 0001:00092ff0       _wmakepath                 0000000180093ff0 f   libucrtd:makepath.obj
 0001:00093040       _wmakepath_s               0000000180094040 f   libucrtd:makepath.obj
 0001:00095670       ??$tcsncpy_s@AEAPEAD_KAEAPEBDAEB_K@?$__crt_char_traits@D@@SAHAEAPEAD$$QEA_KAEAPEBDAEB_K@Z 0000000180096670 f i libucrtd:splitpath.obj
 0001:000956c0       ??$tcsncpy_s@AEAPEAD_KAEAPEBDH@?$__crt_char_traits@D@@SAHAEAPEAD$$QEA_KAEAPEBD$$QEAH@Z 00000001800966c0 f i libucrtd:splitpath.obj
 0001:00095710       ??$tcsncpy_s@AEAPEA_W_KAEAPEB_WAEB_K@?$__crt_char_traits@_W@@SAHAEAPEA_W$$QEA_KAEAPEB_WAEB_K@Z 0000000180096710 f i libucrtd:splitpath.obj
 0001:00095760       ??$tcsncpy_s@AEAPEA_W_KAEAPEB_WH@?$__crt_char_traits@_W@@SAHAEAPEA_W$$QEA_KAEAPEB_W$$QEAH@Z 0000000180096760 f i libucrtd:splitpath.obj
 0001:00095a10       _splitpath                 0000000180096a10 f   libucrtd:splitpath.obj
 0001:00095a50       _splitpath_s               0000000180096a50 f   libucrtd:splitpath.obj
 0001:00095af0       _wsplitpath                0000000180096af0 f   libucrtd:splitpath.obj
 0001:00095b30       _wsplitpath_s              0000000180096b30 f   libucrtd:splitpath.obj
 0001:00095bd0       _set_abort_behavior        0000000180096bd0 f   libucrtd:abort.obj
 0001:00095c10       abort                      0000000180096c10 f   libucrtd:abort.obj
 0001:00095ca0       strcmp                     0000000180096ca0 f   libucrtd:strcmp.obj
 0001:00095d20       strlen                     0000000180096d20 f   libucrtd:strlen.obj
 0001:00095dd0       ??$is_overflow_condition@K@__crt_strtox@@YA_NIK@Z 0000000180096dd0 f i libucrtd:atox.obj
 0001:00095e40       ??$is_overflow_condition@_K@__crt_strtox@@YA_NI_K@Z 0000000180096e40 f i libucrtd:atox.obj
 0001:00095eb0       ??$make_c_string_character_source@D$$T@__crt_strtox@@YA?AV?$c_string_character_source@D@0@QEBD$$T@Z 0000000180096eb0 f i libucrtd:atox.obj
 0001:00095ef0       ??$make_c_string_character_source@_W$$T@__crt_strtox@@YA?AV?$c_string_character_source@_W@0@QEB_W$$T@Z 0000000180096ef0 f i libucrtd:atox.obj
 0001:00095f30       ??$parse_integer@KV?$c_string_character_source@D@__crt_strtox@@@__crt_strtox@@YAKQEAU__crt_locale_pointers@@V?$c_string_character_source@D@0@H_N@Z 0000000180096f30 f i libucrtd:atox.obj
 0001:000963c0       ??$parse_integer@KV?$c_string_character_source@_W@__crt_strtox@@@__crt_strtox@@YAKQEAU__crt_locale_pointers@@V?$c_string_character_source@_W@0@H_N@Z 00000001800973c0 f i libucrtd:atox.obj
 0001:00096870       ??$parse_integer@_KV?$c_string_character_source@D@__crt_strtox@@@__crt_strtox@@YA_KQEAU__crt_locale_pointers@@V?$c_string_character_source@D@0@H_N@Z 0000000180097870 f i libucrtd:atox.obj
 0001:00096d90       ??$parse_integer@_KV?$c_string_character_source@_W@__crt_strtox@@@__crt_strtox@@YA_KQEAU__crt_locale_pointers@@V?$c_string_character_source@_W@0@H_N@Z 0000000180097d90 f i libucrtd:atox.obj
 0001:000972b0       ??$parse_integer_from_string@JD$$T@__crt_strtox@@YAJQEBD$$THQEAU__crt_locale_pointers@@@Z 00000001800982b0 f i libucrtd:atox.obj
 0001:00097300       ??$parse_integer_from_string@J_W$$T@__crt_strtox@@YAJQEB_W$$THQEAU__crt_locale_pointers@@@Z 0000000180098300 f i libucrtd:atox.obj
 0001:00097350       ??$parse_integer_from_string@_JD$$T@__crt_strtox@@YA_JQEBD$$THQEAU__crt_locale_pointers@@@Z 0000000180098350 f i libucrtd:atox.obj
 0001:000973a0       ??$parse_integer_from_string@_J_W$$T@__crt_strtox@@YA_JQEB_W$$THQEAU__crt_locale_pointers@@@Z 00000001800983a0 f i libucrtd:atox.obj
 0001:000973f0       ??0?$c_string_character_source@D@__crt_strtox@@QEAA@QEBDQEAPEBD@Z 00000001800983f0 f i libucrtd:atox.obj
 0001:00097440       ??0?$c_string_character_source@_W@__crt_strtox@@QEAA@QEB_WQEAPEB_W@Z 0000000180098440 f i libucrtd:atox.obj
 0001:00097490       ??1?$c_string_character_source@D@__crt_strtox@@QEAA@XZ 0000000180098490 f i libucrtd:atox.obj
 0001:000974c0       ??1?$c_string_character_source@_W@__crt_strtox@@QEAA@XZ 00000001800984c0 f i libucrtd:atox.obj
 0001:000974f0       ?get@?$c_string_character_source@D@__crt_strtox@@QEAADXZ 00000001800984f0 f i libucrtd:atox.obj
 0001:00097530       ?get@?$c_string_character_source@_W@__crt_strtox@@QEAA_WXZ 0000000180098530 f i libucrtd:atox.obj
 0001:00097570       ?is_space@__crt_strtox@@YA_NDQEAU__crt_locale_pointers@@@Z 0000000180098570 f i libucrtd:atox.obj
 0001:000975c0       ?is_space@__crt_strtox@@YA_N_WPEAU__crt_locale_pointers@@@Z 00000001800985c0 f i libucrtd:atox.obj
 0001:00097600       ?maximum_signed_value@__crt_strtox@@YAJK@Z 0000000180098600 f i libucrtd:atox.obj
 0001:00097610       ?maximum_signed_value@__crt_strtox@@YA_J_K@Z 0000000180098610 f i libucrtd:atox.obj
 0001:00097620       ?minimum_signed_value@__crt_strtox@@YAJK@Z 0000000180098620 f i libucrtd:atox.obj
 0001:00097630       ?minimum_signed_value@__crt_strtox@@YA_J_K@Z 0000000180098630 f i libucrtd:atox.obj
 0001:00097640       ?parse_digit@__crt_strtox@@YAID@Z 0000000180098640 f i libucrtd:atox.obj
 0001:000976b0       ?parse_digit@__crt_strtox@@YAI_W@Z 00000001800986b0 f i libucrtd:atox.obj
 0001:00097700       ?restore_state@?$c_string_character_source@D@__crt_strtox@@QEAA_NQEBD@Z 0000000180098700 f i libucrtd:atox.obj
 0001:00097720       ?restore_state@?$c_string_character_source@_W@__crt_strtox@@QEAA_NQEB_W@Z 0000000180098720 f i libucrtd:atox.obj
 0001:00097740       ?save_state@?$c_string_character_source@D@__crt_strtox@@QEBAPEBDXZ 0000000180098740 f i libucrtd:atox.obj
 0001:00097750       ?save_state@?$c_string_character_source@_W@__crt_strtox@@QEBAPEB_WXZ 0000000180098750 f i libucrtd:atox.obj
 0001:00097760       ?unget@?$c_string_character_source@D@__crt_strtox@@QEAAXD@Z 0000000180098760 f i libucrtd:atox.obj
 0001:00097840       ?unget@?$c_string_character_source@_W@__crt_strtox@@QEAAX_W@Z 0000000180098840 f i libucrtd:atox.obj
 0001:00097920       ?validate@?$c_string_character_source@D@__crt_strtox@@QEBA_NXZ 0000000180098920 f i libucrtd:atox.obj
 0001:000979e0       ?validate@?$c_string_character_source@_W@__crt_strtox@@QEBA_NXZ 00000001800989e0 f i libucrtd:atox.obj
 0001:00097aa0       ?wide_character_to_digit@__crt_strtox@@YAH_W@Z 0000000180098aa0 f i libucrtd:atox.obj
 0001:00097e10       __ascii_iswalpha           0000000180098e10 f i libucrtd:atox.obj
 0001:00097e50       __ascii_toupper            0000000180098e50 f i libucrtd:atox.obj
 0001:00097e70       __ascii_towupper           0000000180098e70 f i libucrtd:atox.obj
 0001:00097e90       _atoi64                    0000000180098e90 f   libucrtd:atox.obj
 0001:00097ec0       _atoi64_l                  0000000180098ec0 f   libucrtd:atox.obj
 0001:00097ef0       _atoi_l                    0000000180098ef0 f   libucrtd:atox.obj
 0001:00097f20       _atol_l                    0000000180098f20 f   libucrtd:atox.obj
 0001:00097f50       _atoll_l                   0000000180098f50 f   libucrtd:atox.obj
 0001:00097f80       _wtoi                      0000000180098f80 f   libucrtd:atox.obj
 0001:00097fb0       _wtoi64                    0000000180098fb0 f   libucrtd:atox.obj
 0001:00097fe0       _wtoi64_l                  0000000180098fe0 f   libucrtd:atox.obj
 0001:00098010       _wtoi_l                    0000000180099010 f   libucrtd:atox.obj
 0001:00098040       _wtol                      0000000180099040 f   libucrtd:atox.obj
 0001:00098070       _wtol_l                    0000000180099070 f   libucrtd:atox.obj
 0001:000980a0       _wtoll                     00000001800990a0 f   libucrtd:atox.obj
 0001:000980d0       _wtoll_l                   00000001800990d0 f   libucrtd:atox.obj
 0001:00098100       atoi                       0000000180099100 f   libucrtd:atox.obj
 0001:00098130       atol                       0000000180099130 f   libucrtd:atox.obj
 0001:00098160       atoll                      0000000180099160 f   libucrtd:atox.obj
 0001:000981a0       strncmp                    00000001800991a0 f   libucrtd:strncmp.obj
 0001:00098220       wcsncmp                    0000000180099220 f   libucrtd:wcsncmp.obj
 0001:000982b0       _CrtGetDebugFillThreshold  00000001800992b0 f   libucrtd:debug_fill_threshold.obj
 0001:000982c0       _CrtSetDebugFillThreshold  00000001800992c0 f   libucrtd:debug_fill_threshold.obj
 0001:000982f0       ??$make_c_string_character_source@DPEAPEAD@__crt_strtox@@YA?AV?$c_string_character_source@D@0@QEBDQEAPEAD@Z 00000001800992f0 f i libucrtd:strtox.obj
 0001:00098330       ??$make_c_string_character_source@_WPEAPEA_W@__crt_strtox@@YA?AV?$c_string_character_source@_W@0@QEB_WQEAPEA_W@Z 0000000180099330 f i libucrtd:strtox.obj
 0001:00098370       ??$parse_integer_from_string@JDPEAPEAD@__crt_strtox@@YAJQEBDQEAPEADHQEAU__crt_locale_pointers@@@Z 0000000180099370 f i libucrtd:strtox.obj
 0001:000983c0       ??$parse_integer_from_string@J_WPEAPEA_W@__crt_strtox@@YAJQEB_WQEAPEA_WHQEAU__crt_locale_pointers@@@Z 00000001800993c0 f i libucrtd:strtox.obj
 0001:00098410       ??$parse_integer_from_string@KDPEAPEAD@__crt_strtox@@YAKQEBDQEAPEADHQEAU__crt_locale_pointers@@@Z 0000000180099410 f i libucrtd:strtox.obj
 0001:00098460       ??$parse_integer_from_string@K_WPEAPEA_W@__crt_strtox@@YAKQEB_WQEAPEA_WHQEAU__crt_locale_pointers@@@Z 0000000180099460 f i libucrtd:strtox.obj
 0001:000984b0       ??$parse_integer_from_string@_JDPEAPEAD@__crt_strtox@@YA_JQEBDQEAPEADHQEAU__crt_locale_pointers@@@Z 00000001800994b0 f i libucrtd:strtox.obj
 0001:00098500       ??$parse_integer_from_string@_J_WPEAPEA_W@__crt_strtox@@YA_JQEB_WQEAPEA_WHQEAU__crt_locale_pointers@@@Z 0000000180099500 f i libucrtd:strtox.obj
 0001:00098550       ??$parse_integer_from_string@_KDPEAPEAD@__crt_strtox@@YA_KQEBDQEAPEADHQEAU__crt_locale_pointers@@@Z 0000000180099550 f i libucrtd:strtox.obj
 0001:000985a0       ??$parse_integer_from_string@_K_WPEAPEA_W@__crt_strtox@@YA_KQEB_WQEAPEA_WHQEAU__crt_locale_pointers@@@Z 00000001800995a0 f i libucrtd:strtox.obj
 0001:000985f0       _strtoi64                  00000001800995f0 f   libucrtd:strtox.obj
 0001:00098620       _strtoi64_l                0000000180099620 f   libucrtd:strtox.obj
 0001:00098660       _strtoimax_l               0000000180099660 f   libucrtd:strtox.obj
 0001:000986a0       _strtol_l                  00000001800996a0 f   libucrtd:strtox.obj
 0001:000986e0       _strtoll_l                 00000001800996e0 f   libucrtd:strtox.obj
 0001:00098720       _strtoui64                 0000000180099720 f   libucrtd:strtox.obj
 0001:00098750       _strtoui64_l               0000000180099750 f   libucrtd:strtox.obj
 0001:00098790       _strtoul_l                 0000000180099790 f   libucrtd:strtox.obj
 0001:000987d0       _strtoull_l                00000001800997d0 f   libucrtd:strtox.obj
 0001:00098810       _strtoumax_l               0000000180099810 f   libucrtd:strtox.obj
 0001:00098850       _wcstoi64                  0000000180099850 f   libucrtd:strtox.obj
 0001:00098880       _wcstoi64_l                0000000180099880 f   libucrtd:strtox.obj
 0001:000988c0       _wcstoimax_l               00000001800998c0 f   libucrtd:strtox.obj
 0001:00098900       _wcstol_l                  0000000180099900 f   libucrtd:strtox.obj
 0001:00098940       _wcstoll_l                 0000000180099940 f   libucrtd:strtox.obj
 0001:00098980       _wcstoui64                 0000000180099980 f   libucrtd:strtox.obj
 0001:000989b0       _wcstoui64_l               00000001800999b0 f   libucrtd:strtox.obj
 0001:000989f0       _wcstoul_l                 00000001800999f0 f   libucrtd:strtox.obj
 0001:00098a30       _wcstoull_l                0000000180099a30 f   libucrtd:strtox.obj
 0001:00098a70       _wcstoumax_l               0000000180099a70 f   libucrtd:strtox.obj
 0001:00098ab0       strtoimax                  0000000180099ab0 f   libucrtd:strtox.obj
 0001:00098ae0       strtol                     0000000180099ae0 f   libucrtd:strtox.obj
 0001:00098b10       strtoll                    0000000180099b10 f   libucrtd:strtox.obj
 0001:00098b40       strtoul                    0000000180099b40 f   libucrtd:strtox.obj
 0001:00098b70       strtoull                   0000000180099b70 f   libucrtd:strtox.obj
 0001:00098ba0       strtoumax                  0000000180099ba0 f   libucrtd:strtox.obj
 0001:00098bd0       wcstoimax                  0000000180099bd0 f   libucrtd:strtox.obj
 0001:00098c00       wcstol                     0000000180099c00 f   libucrtd:strtox.obj
 0001:00098c30       wcstoll                    0000000180099c30 f   libucrtd:strtox.obj
 0001:00098c60       wcstoul                    0000000180099c60 f   libucrtd:strtox.obj
 0001:00098c90       wcstoull                   0000000180099c90 f   libucrtd:strtox.obj
 0001:00098cc0       wcstoumax                  0000000180099cc0 f   libucrtd:strtox.obj
 0001:00098cf0       _mbtowc_l                  0000000180099cf0 f   libucrtd:mbtowc.obj
