 OPOSGate

 Timestamp is 5defa951 (Tue Dec 10 23:18:57 2019)

 Preferred load address is 0000000180000000

 Start         Length     Name                   Class
 0001:00000000 00001400H .text$di                CODE
 0001:00001400 000d3460H .text$mn                CODE
 0001:000d4860 00000020H .text$mn$00             CODE
 0001:000d4880 00001370H .text$x                 CODE
 0001:000d5bf0 000001b4H .text$yd                CODE
 0002:00000000 000006d8H .idata$5                DATA
 0002:000006d8 00000010H .00cfg                  DATA
 0002:000006e8 00000008H .CRT$XCA                DATA
 0002:000006f0 00000008H .CRT$XCL                DATA
 0002:000006f8 000000d8H .CRT$XCU                DATA
 0002:000007d0 00000008H .CRT$XCZ                DATA
 0002:000007d8 00000008H .CRT$XIA                DATA
 0002:000007e0 00000020H .CRT$XIC                DATA
 0002:00000800 00000008H .CRT$XIZ                DATA
 0002:00000808 00000008H .CRT$XLA                DATA
 0002:00000810 00000008H .CRT$XLZ                DATA
 0002:00000818 00000008H .CRT$XPA                DATA
 0002:00000820 00000010H .CRT$XPX                DATA
 0002:00000830 00000008H .CRT$XPXA               DATA
 0002:00000838 00000008H .CRT$XPZ                DATA
 0002:00000840 00000008H .CRT$XTA                DATA
 0002:00000848 00000008H .CRT$XTZ                DATA
 0002:00000850 00000000H .gfids$y                DATA
 0002:00000850 0003abc8H .rdata                  DATA
 0002:0003b418 00000028H .rdata$T                DATA
 0002:0003b440 0000056cH .rdata$r                DATA
 0002:0003b9ac 0000042cH .rdata$zzzdbg           DATA
 0002:0003bdd8 00000008H .rtc$IAA                DATA
 0002:0003bde0 00000030H .rtc$IMZ                DATA
 0002:0003be10 00000008H .rtc$IZZ                DATA
 0002:0003be18 00000008H .rtc$TAA                DATA
 0002:0003be20 00000030H .rtc$TMZ                DATA
 0002:0003be50 00000008H .rtc$TZZ                DATA
 0002:0003be58 00000004H .tls                    DATA
 0002:0003be5c 00000004H .tls$                   DATA
 0002:0003be60 00000010H .tls$ZZZ                DATA
 0002:0003be70 000096f8H .xdata                  DATA
 0002:00045568 00000150H .xdata$x                DATA
 0002:000456b8 00000008H ATL$__a                 DATA
 0002:000456c0 00000010H ATL$__z                 DATA
 0002:000456d0 000000a8H .edata                  DATA
 0002:00045778 00000078H .idata$2                DATA
 0002:000457f0 00000018H .idata$3                DATA
 0002:00045808 000006d8H .idata$4                DATA
 0002:00045ee0 00000db8H .idata$6                DATA
 0003:00000000 00000e78H .data                   DATA
 0003:00000e78 00000198H .data$r                 DATA
 0003:00001010 00003e9cH .bss                    DATA
 0004:00000000 0000bf58H .pdata                  DATA
 0005:00000000 00000094H _RDATA                  DATA
 0006:00000000 00000220H .rsrc$01                DATA
 0006:00000220 00003508H .rsrc$02                DATA

  Address         Publics by Value              Rva+Base               Lib:Object

 0000:00000000       __AbsoluteZero             0000000000000000     <absolute>
 0000:00000000       __guard_fids_count         0000000000000000     <absolute>
 0000:00000000       ___safe_se_handler_table   0000000000000000     <absolute>
 0000:00000000       __guard_iat_count          0000000000000000     <absolute>
 0000:00000000       __hybrid_code_map          0000000000000000     <absolute>
 0000:00000000       __dynamic_value_reloc_table 0000000000000000     <absolute>
 0000:00000000       __guard_longjmp_table      0000000000000000     <absolute>
 0000:00000000       __hybrid_code_map_count    0000000000000000     <absolute>
 0000:00000000       __volatile_metadata        0000000000000000     <absolute>
 0000:00000000       __guard_fids_table         0000000000000000     <absolute>
 0000:00000000       __enclave_config           0000000000000000     <absolute>
 0000:00000000       __hybrid_auxiliary_iat     0000000000000000     <absolute>
 0000:00000000       __guard_iat_table          0000000000000000     <absolute>
 0000:00000000       __guard_longjmp_count      0000000000000000     <absolute>
 0000:00000000       ___safe_se_handler_count   0000000000000000     <absolute>
 0000:00000100       __guard_flags              0000000000000100     <absolute>
 0000:00000000       __ImageBase                0000000180000000     <linker-defined>
 0001:00001400       ?_assert@@YAXPEB_W0I@Z     0000000180002400 f   Assert.obj
 0001:00001500       __local_stdio_printf_options 0000000180002500 f i Assert.obj
 0001:00001510       __vswprintf_l              0000000180002510 f i Assert.obj
 0001:00001570       _swprintf                  0000000180002570 f i Assert.obj
 0001:000015f0       _vswprintf_c_l             00000001800025f0 f i Assert.obj
 0001:00001680       _vswprintf_l               0000000180002680 f i Assert.obj
 0001:000016e0       ?cw_memcpy@@YAHPEADPEB_WH@Z 00000001800026e0 f   CWString.obj
 0001:00001770       ?cw_memcpy@@YAHPEA_WPEBDH@Z 0000000180002770 f   CWString.obj
 0001:000017f0       ?cw_memcpy@@YAHPEADPEBDH@Z 00000001800027f0 f   CWString.obj
 0001:00001890       ?cw_memcpy@@YAHPEA_WPEB_WH@Z 0000000180002890 f   CWString.obj
 0001:00001900       ?cw_memset@@YAXPEADDH@Z    0000000180002900 f   CWString.obj
 0001:00001970       ?cw_memset@@YAXPEA_W_WH@Z  0000000180002970 f   CWString.obj
 0001:00001a10       ?cw_strlen@@YAHPEBD@Z      0000000180002a10 f   CWString.obj
 0001:00001a80       ?cw_strlen@@YAHPEB_W@Z     0000000180002a80 f   CWString.obj
 0001:00001af0       ?cw_strcpy@@YAHPEADPEB_W@Z 0000000180002af0 f   CWString.obj
 0001:00001b40       ?cw_strcpy@@YAHPEA_WPEBD@Z 0000000180002b40 f   CWString.obj
 0001:00001b90       ?cw_strcpy@@YAHPEADPEBD@Z  0000000180002b90 f   CWString.obj
 0001:00001be0       ?cw_strcpy@@YAHPEA_WPEB_W@Z 0000000180002be0 f   CWString.obj
 0001:00001c30       ?cw_strcat@@YAHPEADPEB_W@Z 0000000180002c30 f   CWString.obj
 0001:00001c90       ?cw_strcat@@YAHPEA_WPEBD@Z 0000000180002c90 f   CWString.obj
 0001:00001cf0       ?cw_strcat@@YAHPEADPEBD@Z  0000000180002cf0 f   CWString.obj
 0001:00001d50       ?cw_strcat@@YAHPEA_WPEB_W@Z 0000000180002d50 f   CWString.obj
 0001:00001db0       ?cw_dup@@YAXPEBDAEAHAEAPEA_W1@Z 0000000180002db0 f   CWString.obj
 0001:00001ec0       ?cw_dup@@YAXPEB_WAEAHAEAPEAD1@Z 0000000180002ec0 f   CWString.obj
 0001:00001fb0       ?DupChar@_CW@@AEAAXXZ      0000000180002fb0 f   CWString.obj
 0001:00002010       ?DupWide@_CW@@AEAAXXZ      0000000180003010 f   CWString.obj
 0001:00002080       ?GetCharsMbcs@_CW@@QEAAHXZ 0000000180003080 f   CWString.obj
 0001:000020f0       ?GetCharsWide@_CW@@QEAAHXZ 00000001800030f0 f   CWString.obj
 0001:00002160       ?SetVARIANT_BOOL@OposVariant@@QEAAXF@Z 0000000180003160 f   OposVariant.obj
 0001:000021d0       ?SetVARIANT_BOOL_Ptr@OposVariant@@QEAAXPEAFAEAJ@Z 00000001800031d0 f   OposVariant.obj
 0001:00002240       ?GetLONG@OposVariant@@QEAAJXZ 0000000180003240 f   OposVariant.obj
 0001:000022a0       ?ChangeLONG@OposVariant@@QEAAXPEAJAEAJ@Z 00000001800032a0 f   OposVariant.obj
 0001:00002350       ?SetLONG@OposVariant@@QEAAXJ@Z 0000000180003350 f   OposVariant.obj
 0001:000023b0       ?SetLONG_Ptr@OposVariant@@QEAAXPEAJAEAJ@Z 00000001800033b0 f   OposVariant.obj
 0001:00002420       ?ChangeCURRENCY@OposVariant@@QEAAXPEATtagCY@@AEAJ@Z 0000000180003420 f   OposVariant.obj
 0001:000024d0       ?SetCURRENCY@OposVariant@@QEAAXTtagCY@@@Z 00000001800034d0 f   OposVariant.obj
 0001:00002530       ?SetCURRENCY_Ptr@OposVariant@@QEAAXPEATtagCY@@AEAJ@Z 0000000180003530 f   OposVariant.obj
 0001:000025a0       ?ChangeBSTR@OposVariant@@QEAAXPEAPEA_WAEAJ@Z 00000001800035a0 f   OposVariant.obj
 0001:00002650       ?SetBSTR@OposVariant@@QEAAXPEA_WAEAJ@Z 0000000180003650 f   OposVariant.obj
 0001:000026d0       ?SetBSTR_Copy@OposVariant@@QEAAXPEA_WAEAJ@Z 00000001800036d0 f   OposVariant.obj
 0001:00002780       ?SetBSTR_OutPtr@OposVariant@@QEAA_NPEAPEA_WAEAJ@Z 0000000180003780 f   OposVariant.obj
 0001:000027f0       ?SetBSTR_InOutPtr@OposVariant@@QEAA_NPEAPEA_WAEAJ@Z 00000001800037f0 f   OposVariant.obj
 0001:00002870       ?SetVARIANT@OposVariant@@QEAAXAEAUtagVARIANT@@GAEAJ@Z 0000000180003870 f   OposVariant.obj
 0001:00002910       ?SetVARIANT_Ptr@OposVariant@@QEAAXAEAPEAUtagVARIANT@@GAEAJ@Z 0000000180003910 f   OposVariant.obj
 0001:000029c0       ?SetString@OposVariant@@QEAAXPEB_WAEAJ@Z 00000001800039c0 f   OposVariant.obj
 0001:00002a70       ?SetDispatch_Ptr@OposVariant@@QEAAXPEAUIDispatch@@AEAJ@Z 0000000180003a70 f   OposVariant.obj
 0001:00002b00       ??0OposDispParms@@QEAA@PEAVOposVariant@@H@Z 0000000180003b00 f   OposVariant.obj
 0001:00002c10       ??1OposDispParms@@QEAA@XZ  0000000180003c10 f   OposVariant.obj
 0001:00002c60       ??$AtlMultiply@_K@ATL@@YAJPEA_K_K1@Z 0000000180003c60 f i OposVariant.obj
 0001:00002ce0       ??0?$CHeapPtr@_WVCCRTAllocator@ATL@@@ATL@@QEAA@XZ 0000000180003ce0 f i OposVariant.obj
 0001:00002d20       ??0?$CHeapPtrBase@_WVCCRTAllocator@ATL@@@ATL@@IEAA@XZ 0000000180003d20 f i OposVariant.obj
 0001:00002d40       ??0?$CSimpleArray@GV?$CSimpleArrayEqualHelper@G@ATL@@@ATL@@QEAA@XZ 0000000180003d40 f i OposVariant.obj
 0001:00002d80       ??0?$CTraceCategoryEx@$00$0A@@ATL@@QEAA@PEB_W@Z 0000000180003d80 f i OposVariant.obj
 0001:00002dc0       ??0?$CTraceCategoryEx@$01$0A@@ATL@@QEAA@PEB_W@Z 0000000180003dc0 f i OposVariant.obj
 0001:00002e00       ??0?$CTraceCategoryEx@$03$0A@@ATL@@QEAA@PEB_W@Z 0000000180003e00 f i OposVariant.obj
 0001:00002e40       ??0?$CTraceCategoryEx@$07$0A@@ATL@@QEAA@PEB_W@Z 0000000180003e40 f i OposVariant.obj
 0001:00002e80       ??0?$CTraceCategoryEx@$0BA@$0A@@ATL@@QEAA@PEB_W@Z 0000000180003e80 f i OposVariant.obj
 0001:00002ec0       ??0?$CTraceCategoryEx@$0BAA@$0A@@ATL@@QEAA@PEB_W@Z 0000000180003ec0 f i OposVariant.obj
 0001:00002f00       ??0?$CTraceCategoryEx@$0BAAA@$0A@@ATL@@QEAA@PEB_W@Z 0000000180003f00 f i OposVariant.obj
 0001:00002f40       ??0?$CTraceCategoryEx@$0BAAAA@$0A@@ATL@@QEAA@PEB_W@Z 0000000180003f40 f i OposVariant.obj
 0001:00002f80       ??0?$CTraceCategoryEx@$0BAAAAA@$0A@@ATL@@QEAA@PEB_W@Z 0000000180003f80 f i OposVariant.obj
 0001:00002fc0       ??0?$CTraceCategoryEx@$0CA@$0A@@ATL@@QEAA@PEB_W@Z 0000000180003fc0 f i OposVariant.obj
 0001:00003000       ??0?$CTraceCategoryEx@$0CAA@$0A@@ATL@@QEAA@PEB_W@Z 0000000180004000 f i OposVariant.obj
 0001:00003040       ??0?$CTraceCategoryEx@$0CAAA@$0A@@ATL@@QEAA@PEB_W@Z 0000000180004040 f i OposVariant.obj
 0001:00003080       ??0?$CTraceCategoryEx@$0CAAAA@$0A@@ATL@@QEAA@PEB_W@Z 0000000180004080 f i OposVariant.obj
 0001:000030c0       ??0?$CTraceCategoryEx@$0CAAAAA@$0A@@ATL@@QEAA@PEB_W@Z 00000001800040c0 f i OposVariant.obj
 0001:00003100       ??0?$CTraceCategoryEx@$0EA@$0A@@ATL@@QEAA@PEB_W@Z 0000000180004100 f i OposVariant.obj
 0001:00003140       ??0?$CTraceCategoryEx@$0EAA@$0A@@ATL@@QEAA@PEB_W@Z 0000000180004140 f i OposVariant.obj
 0001:00003180       ??0?$CTraceCategoryEx@$0EAAA@$0A@@ATL@@QEAA@PEB_W@Z 0000000180004180 f i OposVariant.obj
 0001:000031c0       ??0?$CTraceCategoryEx@$0EAAAA@$0A@@ATL@@QEAA@PEB_W@Z 00000001800041c0 f i OposVariant.obj
 0001:00003200       ??0?$CTraceCategoryEx@$0EAAAAA@$0A@@ATL@@QEAA@PEB_W@Z 0000000180004200 f i OposVariant.obj
 0001:00003240       ??0?$CTraceCategoryEx@$0IA@$0A@@ATL@@QEAA@PEB_W@Z 0000000180004240 f i OposVariant.obj
 0001:00003280       ??0?$CTraceCategoryEx@$0IAA@$0A@@ATL@@QEAA@PEB_W@Z 0000000180004280 f i OposVariant.obj
 0001:000032c0       ??0?$CTraceCategoryEx@$0IAAA@$0A@@ATL@@QEAA@PEB_W@Z 00000001800042c0 f i OposVariant.obj
 0001:00003300       ??0?$CTraceCategoryEx@$0IAAAA@$0A@@ATL@@QEAA@PEB_W@Z 0000000180004300 f i OposVariant.obj
 0001:00003340       ??0CAtlComModule@ATL@@QEAA@XZ 0000000180004340 f i OposVariant.obj
 0001:00003460       ??0CAtlWinModule@ATL@@QEAA@XZ 0000000180004460 f i OposVariant.obj
 0001:00003510       ??0CComCriticalSection@ATL@@QEAA@XZ 0000000180004510 f i OposVariant.obj
 0001:00003550       ??0CPreserveLastError@ATL@@QEAA@XZ 0000000180004550 f i OposVariant.obj
 0001:00003590       ??0CTraceFileAndLineInfo@ATL@@QEAA@PEBDH@Z 0000000180004590 f i OposVariant.obj
 0001:000035c0       ??0_ATL_COM_MODULE70@ATL@@QEAA@XZ 00000001800045c0 f i OposVariant.obj
 0001:00003600       ??0_ATL_WIN_MODULE70@ATL@@QEAA@XZ 0000000180004600 f i OposVariant.obj
 0001:00003650       ??1?$CHeapPtr@_WVCCRTAllocator@ATL@@@ATL@@QEAA@XZ 0000000180004650 f i OposVariant.obj
 0001:00003680       ??1?$CHeapPtrBase@_WVCCRTAllocator@ATL@@@ATL@@QEAA@XZ 0000000180004680 f i OposVariant.obj
 0001:000036b0       ??1?$CSimpleArray@GV?$CSimpleArrayEqualHelper@G@ATL@@@ATL@@QEAA@XZ 00000001800046b0 f i OposVariant.obj
 0001:000036e0       ??1CAtlComModule@ATL@@QEAA@XZ 00000001800046e0 f i OposVariant.obj
 0001:00003720       ??1CAtlWinModule@ATL@@QEAA@XZ 0000000180004720 f i OposVariant.obj
 0001:00003760       ??1CComBSTR@ATL@@QEAA@XZ   0000000180004760 f i OposVariant.obj
 0001:000037a0       ??1CComCriticalSection@ATL@@QEAA@XZ 00000001800047a0 f i OposVariant.obj
 0001:000037b0       ??1CPreserveLastError@ATL@@QEAA@XZ 00000001800047b0 f i OposVariant.obj
 0001:000037f0       ??1_ATL_COM_MODULE70@ATL@@QEAA@XZ 00000001800047f0 f i OposVariant.obj
 0001:00003830       ??1_ATL_WIN_MODULE70@ATL@@QEAA@XZ 0000000180004830 f i OposVariant.obj
 0001:00003880       ??1stringdispid@CComTypeInfoHolder@ATL@@QEAA@XZ 0000000180004880 f i OposVariant.obj
 0001:000038c0       ??A?$CSimpleArray@GV?$CSimpleArrayEqualHelper@G@ATL@@@ATL@@QEAAAEAGH@Z 00000001800048c0 f i OposVariant.obj
 0001:00003970       ??B?$CHeapPtrBase@_WVCCRTAllocator@ATL@@@ATL@@QEBAPEA_WXZ 0000000180004970 f i OposVariant.obj
 0001:00003980       ??B?$CTraceCategoryEx@$01$0A@@ATL@@QEAAIXZ 0000000180004980 f i OposVariant.obj
 0001:00003990       ??B?$CTraceCategoryEx@$0CA@$0A@@ATL@@QEAAIXZ 0000000180004990 f i OposVariant.obj
 0001:000039a0       ??RCTraceFileAndLineInfo@ATL@@QEBAXHIPEB_WZZ 00000001800049a0 f i OposVariant.obj
 0001:00003a50       ??_Estringdispid@CComTypeInfoHolder@ATL@@QEAAPEAXI@Z 0000000180004a50 f i OposVariant.obj
 0001:00003b00       ??_H@YAXPEAX_K1P6APEAX0@Z@Z 0000000180004b00 f i OposVariant.obj
 0001:00003b90       ??_I@YAXPEAX_K1P6AX0@Z@Z   0000000180004b90 f i OposVariant.obj
 0001:00003c40       ?Allocate@?$CHeapPtr@_WVCCRTAllocator@ATL@@@ATL@@QEAA_N_K@Z 0000000180004c40 f i OposVariant.obj
 0001:00003cc0       ?Allocate@CCRTAllocator@ATL@@SAPEAX_K@Z 0000000180004cc0 f i OposVariant.obj
 0001:00003cf0       ?AllocateBytes@?$CHeapPtrBase@_WVCCRTAllocator@ATL@@@ATL@@QEAA_N_K@Z 0000000180004cf0 f i OposVariant.obj
 0001:00003d90       ?AtlWinModuleInit@ATL@@YAJPEAU_ATL_WIN_MODULE70@1@@Z 0000000180004d90 f i OposVariant.obj
 0001:00003e90       ?AtlWinModuleTerm@ATL@@YAJPEAU_ATL_WIN_MODULE70@1@PEAUHINSTANCE__@@@Z 0000000180004e90 f i OposVariant.obj
 0001:00003f80       ?Clear@OposVariant@@QEAAJXZ 0000000180004f80 f i OposVariant.obj
 0001:00003fc0       ?Free@?$CHeapPtrBase@_WVCCRTAllocator@ATL@@@ATL@@QEAAXXZ 0000000180004fc0 f i OposVariant.obj
 0001:00004000       ?Free@CCRTAllocator@ATL@@SAXPEAX@Z 0000000180005000 f i OposVariant.obj
 0001:00004030       ?GetCategoryName@CTrace@ATL@@CAPEA_WI@Z 0000000180005030 f i OposVariant.obj
 0001:000040b0       ?GetModuleInstance@CAtlBaseModule@ATL@@QEAAPEAUHINSTANCE__@@XZ 00000001800050b0 f i OposVariant.obj
 0001:000040d0       ?GetSize@?$CSimpleArray@GV?$CSimpleArrayEqualHelper@G@ATL@@@ATL@@QEBAHXZ 00000001800050d0 f i OposVariant.obj
 0001:000040e0       ?Init@CComCriticalSection@ATL@@QEAAJXZ 00000001800050e0 f i OposVariant.obj
 0001:00004140       ?RegisterCategory@CTrace@ATL@@SAXPEB_WI@Z 0000000180005140 f i OposVariant.obj
 0001:00004220       ?RemoveAll@?$CSimpleArray@GV?$CSimpleArrayEqualHelper@G@ATL@@@ATL@@QEAAXXZ 0000000180005220 f i OposVariant.obj
 0001:000042b0       ?Term@CAtlComModule@ATL@@QEAAXXZ 00000001800052b0 f i OposVariant.obj
 0001:00004390       ?Term@CAtlWinModule@ATL@@QEAAXXZ 0000000180005390 f i OposVariant.obj
 0001:000043d0       ?Term@CComCriticalSection@ATL@@QEAAJXZ 00000001800053d0 f i OposVariant.obj
 0001:00004410       ?TraceV@CTrace@ATL@@CAXPEBDHIIPEB_W@Z 0000000180005410 f i OposVariant.obj
 0001:000046c0       ?TraceV@CTrace@ATL@@SAXPEBDHIIPEB_WPEAD@Z 00000001800056c0 f i OposVariant.obj
 0001:00004870       ?_AtlInitializeCriticalSectionEx@ATL@@YAHPEAU_RTL_CRITICAL_SECTION@@KK@Z 0000000180005870 f i OposVariant.obj
 0001:000048c0       ?_AtlRaiseException@ATL@@YAXKK@Z 00000001800058c0 f i OposVariant.obj
 0001:00004900       HRESULT_FROM_WIN32         0000000180005900 f i OposVariant.obj
 0001:00004950       _vswprintf_s_l             0000000180005950 f i OposVariant.obj
 0001:000049e0       swprintf_s                 00000001800059e0 f i OposVariant.obj
 0001:00004a70       ?ObjectMain@CComObjectRootBase@ATL@@SAX_N@Z 0000000180005a70 f i Gate.obj
 0001:00004a80       ?GetCategoryMap@CComObjectRootBase@ATL@@SAPEBU_ATL_CATMAP_ENTRY@2@XZ 0000000180005a80 f i Gate.obj
 0001:00004a90       ?GetObjectDescription@?$CComCoClass@VCOPOSGate@@$1?CLSID_OPOSGate@@3U_GUID@@B@ATL@@SAPEB_WXZ 0000000180005a90 f i Gate.obj
 0001:00004aa0       ?UpdateRegistry@COPOSGate@@SAJH@Z 0000000180005aa0 f i Gate.obj
 0001:00004ae0       ?CreateInstance@?$CComCreator@V?$CComObjectCached@VCComClassFactory@ATL@@@ATL@@@ATL@@SAJPEAXAEBU_GUID@@PEAPEAX@Z 0000000180005ae0 f i Gate.obj
 0001:00004cd0       ?CreateInstance@?$CComCreator2@V?$CComCreator@V?$CComObject@VCOPOSGate@@@ATL@@@ATL@@V?$CComCreator@V?$CComAggObject@VCOPOSGate@@@ATL@@@2@@ATL@@SAJPEAXAEBU_GUID@@PEAPEAX@Z 0000000180005cd0 f i Gate.obj
 0001:00004ee0       DllGetClassObject          0000000180005ee0 f   Gate.obj
 0001:00004f30       DllCanUnloadNow            0000000180005f30 f   Gate.obj
 0001:00004f80       DllRegisterServer          0000000180005f80 f   Gate.obj
 0001:00004fc0       DllUnregisterServer        0000000180005fc0 f   Gate.obj
 0001:000051c0       DllMain                    00000001800061c0 f   Gate.obj
 0001:00005240       ??$?2G@Wrapper@?$CSimpleArray@GV?$CSimpleArrayEqualHelper@G@ATL@@@ATL@@SAPEAX_KPEAG@Z 0000000180006240 f i Gate.obj
 0001:00005260       ??$?2PEA_W@?$Wrapper@PEA_W@?$CSimpleMap@PEA_WPEA_WVCExpansionVectorEqualHelper@ATL@@@ATL@@SAPEAX_KPEAPEA_W@Z 0000000180006260 f i Gate.obj
 0001:00005280       ??$?4UITypeInfo2@@@?$CComPtr@UITypeInfo@@@ATL@@QEAAPEAUITypeInfo@@AEBV?$CComPtr@UITypeInfo2@@@1@@Z 0000000180006280 f i Gate.obj
 0001:000052f0       ??$AtlAdd@_K@ATL@@YAJPEA_K_K1@Z 00000001800062f0 f i Gate.obj
 0001:00005360       ??$AtlAddThrow@_K@ATL@@YA_K_K0@Z 0000000180006360 f i Gate.obj
 0001:000053d0       ??$AtlModuleRegisterWndClassInfoT@VAtlModuleRegisterWndClassInfoParamW@ATL@@@ATL@@YAGPEAU_ATL_BASE_MODULE70@0@PEAU_ATL_WIN_MODULE70@0@PEAU_ATL_WNDCLASSINFOW@0@PEAP6A_JPEAUHWND__@@I_K_J@ZVAtlModuleRegisterWndClassInfoParamW@0@@Z 00000001800063d0 f i Gate.obj
 0001:000059a0       ??$AtlMultiply@H@ATL@@YAJPEAHHH@Z 00000001800069a0 f i Gate.obj
 0001:00005a10       ??$AtlMultiply@K@ATL@@YAJPEAKKK@Z 0000000180006a10 f i Gate.obj
 0001:00005a80       ??$AtlMultiplyThrow@_K@ATL@@YA_K_K0@Z 0000000180006a80 f i Gate.obj
 0001:00005af0       ??$QueryInterface@UIPersistStream@@@IUnknown@@QEAAJPEAPEAUIPersistStream@@@Z 0000000180006af0 f i Gate.obj
 0001:00005b40       ??$QueryInterface@UITypeInfo2@@@IUnknown@@QEAAJPEAPEAUITypeInfo2@@@Z 0000000180006b40 f i Gate.obj
 0001:00005b90       ??0?$CAtlModuleT@VCComModule@ATL@@@ATL@@QEAA@XZ 0000000180006b90 f i Gate.obj
 0001:00005bd0       ??0?$CAtlSafeAllocBufferManager@VCCRTAllocator@ATL@@@_ATL_SAFE_ALLOCA_IMPL@ATL@@QEAA@XZ 0000000180006bd0 f i Gate.obj
 0001:00005bf0       ??0?$CAutoVectorPtr@_W@ATL@@QEAA@XZ 0000000180006bf0 f i Gate.obj
 0001:00005c10       ??0?$CComAggObject@VCOPOSGate@@@ATL@@QEAA@PEAX@Z 0000000180006c10 f i Gate.obj
 0001:00005ca0       ??0?$CComContainedObject@VCOPOSGate@@@ATL@@QEAA@PEAX@Z 0000000180006ca0 f i Gate.obj
 0001:00005e40       ??0?$CComCritSecLock@VCComCriticalSection@ATL@@@ATL@@QEAA@AEAVCComCriticalSection@1@_N@Z 0000000180006e40 f i Gate.obj
 0001:00005eb0       ??0?$CComEnum@UIEnumConnectionPoints@@$1?_GUID_b196b285_bab4_101a_b69c_00aa00341d07@@3U__s_GUID@@BPEAUIConnectionPoint@@V?$_CopyInterface@UIConnectionPoint@@@ATL@@VCComSingleThreadModel@6@@ATL@@QEAA@XZ 0000000180006eb0 f i Gate.obj
 0001:00005f00       ??0?$CComEnum@UIEnumConnections@@$1?_GUID_b196b287_bab4_101a_b69c_00aa00341d07@@3U__s_GUID@@BUtagCONNECTDATA@@V?$_Copy@UtagCONNECTDATA@@@ATL@@VCComSingleThreadModel@6@@ATL@@QEAA@XZ 0000000180006f00 f i Gate.obj
 0001:00005f50       ??0?$CComEnumImpl@UIEnumConnectionPoints@@$1?_GUID_b196b285_bab4_101a_b69c_00aa00341d07@@3U__s_GUID@@BPEAUIConnectionPoint@@V?$_CopyInterface@UIConnectionPoint@@@ATL@@@ATL@@QEAA@XZ 0000000180006f50 f i Gate.obj
 0001:00005fd0       ??0?$CComEnumImpl@UIEnumConnections@@$1?_GUID_b196b287_bab4_101a_b69c_00aa00341d07@@3U__s_GUID@@BUtagCONNECTDATA@@V?$_Copy@UtagCONNECTDATA@@@ATL@@@ATL@@QEAA@XZ 0000000180006fd0 f i Gate.obj
 0001:00006050       ??0?$CComObject@V?$CComEnum@UIEnumConnectionPoints@@$1?_GUID_b196b285_bab4_101a_b69c_00aa00341d07@@3U__s_GUID@@BPEAUIConnectionPoint@@V?$_CopyInterface@UIConnectionPoint@@@ATL@@VCComSingleThreadModel@6@@ATL@@@ATL@@QEAA@PEAX@Z 0000000180007050 f i Gate.obj
 0001:000060b0       ??0?$CComObject@V?$CComEnum@UIEnumConnections@@$1?_GUID_b196b287_bab4_101a_b69c_00aa00341d07@@3U__s_GUID@@BUtagCONNECTDATA@@V?$_Copy@UtagCONNECTDATA@@@ATL@@VCComSingleThreadModel@6@@ATL@@@ATL@@QEAA@PEAX@Z 00000001800070b0 f i Gate.obj
 0001:00006110       ??0?$CComObject@VCOPOSGate@@@ATL@@QEAA@PEAX@Z 0000000180007110 f i Gate.obj
 0001:000062b0       ??0?$CComObjectCached@VCComClassFactory@ATL@@@ATL@@QEAA@PEAX@Z 00000001800072b0 f i Gate.obj
 0001:00006300       ??0?$CComObjectRootEx@VCComMultiThreadModel@ATL@@@ATL@@QEAA@XZ 0000000180007300 f i Gate.obj
 0001:00006350       ??0?$CComObjectRootEx@VCComSingleThreadModel@ATL@@@ATL@@QEAA@XZ 0000000180007350 f i Gate.obj
 0001:00006390       ??0?$CComPtr@UIAdviseSink@@@ATL@@QEAA@PEAUIAdviseSink@@@Z 0000000180007390 f i Gate.obj
 0001:000063d0       ??0?$CComPtr@UICatRegister@@@ATL@@QEAA@XZ 00000001800073d0 f i Gate.obj
 0001:00006410       ??0?$CComPtr@UIConnectionPoint@@@ATL@@QEAA@XZ 0000000180007410 f i Gate.obj
 0001:00006450       ??0?$CComPtr@UIConnectionPointContainer@@@ATL@@QEAA@XZ 0000000180007450 f i Gate.obj
 0001:00006490       ??0?$CComPtr@UIDataObject@@@ATL@@QEAA@XZ 0000000180007490 f i Gate.obj
 0001:000064d0       ??0?$CComPtr@UIDispatch@@@ATL@@QEAA@XZ 00000001800074d0 f i Gate.obj
 0001:00006510       ??0?$CComPtr@UIOleClientSite@@@ATL@@QEAA@PEAUIOleClientSite@@@Z 0000000180007510 f i Gate.obj
 0001:00006550       ??0?$CComPtr@UIOleControlSite@@@ATL@@QEAA@XZ 0000000180007550 f i Gate.obj
 0001:00006590       ??0?$CComPtr@UIOleInPlaceActiveObject@@@ATL@@QEAA@XZ 0000000180007590 f i Gate.obj
 0001:000065d0       ??0?$CComPtr@UIOleInPlaceFrame@@@ATL@@QEAA@XZ 00000001800075d0 f i Gate.obj
 0001:00006610       ??0?$CComPtr@UIOleInPlaceObject@@@ATL@@QEAA@XZ 0000000180007610 f i Gate.obj
 0001:00006650       ??0?$CComPtr@UIOleInPlaceUIWindow@@@ATL@@QEAA@XZ 0000000180007650 f i Gate.obj
 0001:00006690       ??0?$CComPtr@UIOleObject@@@ATL@@QEAA@XZ 0000000180007690 f i Gate.obj
 0001:000066d0       ??0?$CComPtr@UIPersistStream@@@ATL@@QEAA@XZ 00000001800076d0 f i Gate.obj
 0001:00006710       ??0?$CComPtr@UIPersistStreamInit@@@ATL@@QEAA@XZ 0000000180007710 f i Gate.obj
 0001:00006750       ??0?$CComPtr@UIPointerInactive@@@ATL@@QEAA@XZ 0000000180007750 f i Gate.obj
 0001:00006790       ??0?$CComPtr@UIProvideClassInfo2@@@ATL@@QEAA@XZ 0000000180007790 f i Gate.obj
 0001:000067d0       ??0?$CComPtr@UISpecifyPropertyPages@@@ATL@@QEAA@XZ 00000001800077d0 f i Gate.obj
 0001:00006810       ??0?$CComPtr@UIStream@@@ATL@@QEAA@XZ 0000000180007810 f i Gate.obj
 0001:00006850       ??0?$CComPtr@UITypeInfo2@@@ATL@@QEAA@XZ 0000000180007850 f i Gate.obj
 0001:00006890       ??0?$CComPtr@UITypeInfo@@@ATL@@QEAA@AEBV01@@Z 0000000180007890 f i Gate.obj
 0001:000068d0       ??0?$CComPtr@UITypeInfo@@@ATL@@QEAA@XZ 00000001800078d0 f i Gate.obj
 0001:00006910       ??0?$CComPtr@UITypeLib@@@ATL@@QEAA@XZ 0000000180007910 f i Gate.obj
 0001:00006950       ??0?$CComPtr@UIUnknown@@@ATL@@QEAA@AEBV01@@Z 0000000180007950 f i Gate.obj
 0001:00006990       ??0?$CComPtr@UIUnknown@@@ATL@@QEAA@PEAUIUnknown@@@Z 0000000180007990 f i Gate.obj
 0001:000069d0       ??0?$CComPtr@UIUnknown@@@ATL@@QEAA@XZ 00000001800079d0 f i Gate.obj
 0001:00006a10       ??0?$CComPtr@UIViewObjectEx@@@ATL@@QEAA@XZ 0000000180007a10 f i Gate.obj
 0001:00006a50       ??0?$CComPtrBase@UIAdviseSink@@@ATL@@IEAA@PEAUIAdviseSink@@@Z 0000000180007a50 f i Gate.obj
 0001:00006ab0       ??0?$CComPtrBase@UICatRegister@@@ATL@@IEAA@XZ 0000000180007ab0 f i Gate.obj
 0001:00006ad0       ??0?$CComPtrBase@UIConnectionPoint@@@ATL@@IEAA@XZ 0000000180007ad0 f i Gate.obj
 0001:00006af0       ??0?$CComPtrBase@UIConnectionPointContainer@@@ATL@@IEAA@XZ 0000000180007af0 f i Gate.obj
 0001:00006b10       ??0?$CComPtrBase@UIDataObject@@@ATL@@IEAA@XZ 0000000180007b10 f i Gate.obj
 0001:00006b30       ??0?$CComPtrBase@UIDispatch@@@ATL@@IEAA@XZ 0000000180007b30 f i Gate.obj
 0001:00006b50       ??0?$CComPtrBase@UIOleClientSite@@@ATL@@IEAA@PEAUIOleClientSite@@@Z 0000000180007b50 f i Gate.obj
 0001:00006bb0       ??0?$CComPtrBase@UIOleControlSite@@@ATL@@IEAA@XZ 0000000180007bb0 f i Gate.obj
 0001:00006bd0       ??0?$CComPtrBase@UIOleInPlaceActiveObject@@@ATL@@IEAA@XZ 0000000180007bd0 f i Gate.obj
 0001:00006bf0       ??0?$CComPtrBase@UIOleInPlaceFrame@@@ATL@@IEAA@XZ 0000000180007bf0 f i Gate.obj
 0001:00006c10       ??0?$CComPtrBase@UIOleInPlaceObject@@@ATL@@IEAA@XZ 0000000180007c10 f i Gate.obj
 0001:00006c30       ??0?$CComPtrBase@UIOleInPlaceUIWindow@@@ATL@@IEAA@XZ 0000000180007c30 f i Gate.obj
 0001:00006c50       ??0?$CComPtrBase@UIOleObject@@@ATL@@IEAA@XZ 0000000180007c50 f i Gate.obj
 0001:00006c70       ??0?$CComPtrBase@UIPersistStream@@@ATL@@IEAA@XZ 0000000180007c70 f i Gate.obj
 0001:00006c90       ??0?$CComPtrBase@UIPersistStreamInit@@@ATL@@IEAA@XZ 0000000180007c90 f i Gate.obj
 0001:00006cb0       ??0?$CComPtrBase@UIPointerInactive@@@ATL@@IEAA@XZ 0000000180007cb0 f i Gate.obj
 0001:00006cd0       ??0?$CComPtrBase@UIProvideClassInfo2@@@ATL@@IEAA@XZ 0000000180007cd0 f i Gate.obj
 0001:00006cf0       ??0?$CComPtrBase@UISpecifyPropertyPages@@@ATL@@IEAA@XZ 0000000180007cf0 f i Gate.obj
 0001:00006d10       ??0?$CComPtrBase@UIStream@@@ATL@@IEAA@XZ 0000000180007d10 f i Gate.obj
 0001:00006d30       ??0?$CComPtrBase@UITypeInfo2@@@ATL@@IEAA@XZ 0000000180007d30 f i Gate.obj
 0001:00006d50       ??0?$CComPtrBase@UITypeInfo@@@ATL@@IEAA@PEAUITypeInfo@@@Z 0000000180007d50 f i Gate.obj
 0001:00006db0       ??0?$CComPtrBase@UITypeInfo@@@ATL@@IEAA@XZ 0000000180007db0 f i Gate.obj
 0001:00006dd0       ??0?$CComPtrBase@UITypeLib@@@ATL@@IEAA@XZ 0000000180007dd0 f i Gate.obj
 0001:00006df0       ??0?$CComPtrBase@UIUnknown@@@ATL@@IEAA@PEAUIUnknown@@@Z 0000000180007df0 f i Gate.obj
 0001:00006e50       ??0?$CComPtrBase@UIUnknown@@@ATL@@IEAA@XZ 0000000180007e50 f i Gate.obj
 0001:00006e70       ??0?$CComPtrBase@UIViewObjectEx@@@ATL@@IEAA@XZ 0000000180007e70 f i Gate.obj
 0001:00006e90       ??0?$CComQIPtr@UIOleControlSite@@$1?_GUID_b196b289_bab4_101a_b69c_00aa00341d07@@3U__s_GUID@@B@ATL@@QEAA@PEAUIUnknown@@@Z 0000000180007e90 f i Gate.obj
 0001:00006f00       ??0?$CComQIPtr@UIOleObject@@$1?_GUID_00000112_0000_0000_c000_000000000046@@3U__s_GUID@@B@ATL@@QEAA@XZ 0000000180007f00 f i Gate.obj
 0001:00006f40       ??0?$CComQIPtr@UISpecifyPropertyPages@@$1?_GUID_b196b28b_bab4_101a_b69c_00aa00341d07@@3U__s_GUID@@B@ATL@@QEAA@XZ 0000000180007f40 f i Gate.obj
 0001:00006f80       ??0?$CSimpleMap@PEA_WPEA_WVCExpansionVectorEqualHelper@ATL@@@ATL@@QEAA@XZ 0000000180007f80 f i Gate.obj
 0001:00006fc0       ??0?$CTempBuffer@E$0BAA@VCCRTAllocator@ATL@@@ATL@@QEAA@XZ 0000000180007fc0 f i Gate.obj
 0001:00006fe0       ??0?$CTempBuffer@_W$0BAA@VCCRTAllocator@ATL@@@ATL@@QEAA@XZ 0000000180007fe0 f i Gate.obj
 0001:00007000       ??0?$CTempBuffer@_W$0EAA@VCCRTAllocator@ATL@@@ATL@@QEAA@XZ 0000000180008000 f i Gate.obj
 0001:00007020       ??0?$Wrapper@PEA_W@?$CSimpleMap@PEA_WPEA_WVCExpansionVectorEqualHelper@ATL@@@ATL@@QEAA@AEBQEA_W@Z 0000000180008020 f i Gate.obj
 0001:00007050       ??0CAtlModule@ATL@@QEAA@XZ 0000000180008050 f i Gate.obj
 0001:000071c0       ??0CComAutoDeleteCriticalSection@ATL@@QEAA@XZ 00000001800081c0 f i Gate.obj
 0001:00007200       ??0CComBSTR@ATL@@QEAA@XZ   0000000180008200 f i Gate.obj
 0001:00007220       ??0CComClassFactory@ATL@@QEAA@XZ 0000000180008220 f i Gate.obj
 0001:00007280       ??0CComModule@ATL@@QEAA@XZ 0000000180008280 f i Gate.obj
 0001:00007320       ??0CComObjectRootBase@ATL@@QEAA@XZ 0000000180008320 f i Gate.obj
 0001:00007340       ??0CComSafeDeleteCriticalSection@ATL@@QEAA@XZ 0000000180008340 f i Gate.obj
 0001:00007380       ??0CComVariant@ATL@@QEAA@XZ 0000000180008380 f i Gate.obj
 0001:000073d0       ??0CExpansionVector@ATL@@QEAA@XZ 00000001800083d0 f i Gate.obj
 0001:00007410       ??0CParseBuffer@CRegParser@ATL@@QEAA@H@Z 0000000180008410 f i Gate.obj
 0001:000074a0       ??0CRegKey@ATL@@QEAA@PEAUHKEY__@@@Z 00000001800084a0 f i Gate.obj
 0001:000074e0       ??0CRegKey@ATL@@QEAA@PEAVCAtlTransactionManager@1@@Z 00000001800084e0 f i Gate.obj
 0001:00007520       ??0CRegObject@ATL@@QEAA@XZ 0000000180008520 f i Gate.obj
 0001:00007580       ??0CRegParser@ATL@@QEAA@PEAVCRegObject@1@@Z 0000000180008580 f i Gate.obj
 0001:000075b0       ??0IClassFactory@@QEAA@XZ  00000001800085b0 f i Gate.obj
 0001:000075f0       ??0IEnumConnectionPoints@@QEAA@XZ 00000001800085f0 f i Gate.obj
 0001:00007630       ??0IEnumConnections@@QEAA@XZ 0000000180008630 f i Gate.obj
 0001:00007670       ??0IRegistrarBase@@QEAA@XZ 0000000180008670 f i Gate.obj
 0001:000076b0       ??0IUnknown@@QEAA@XZ       00000001800086b0 f i Gate.obj
 0001:000076c0       ??0ModuleLockHelper@ATL@@QEAA@XZ 00000001800086c0 f i Gate.obj
 0001:00007700       ??0OposVariant@@QEAA@XZ    0000000180008700 f i Gate.obj
 0001:00007720       ??0Wrapper@?$CSimpleArray@GV?$CSimpleArrayEqualHelper@G@ATL@@@ATL@@QEAA@AEBG@Z 0000000180008720 f i Gate.obj
 0001:00007750       ??0_ATL_MODULE70@ATL@@QEAA@XZ 0000000180008750 f i Gate.obj
 0001:00007790       ??0_ATL_MSG@ATL@@QEAA@PEAUHWND__@@I_K_JH@Z 0000000180008790 f i Gate.obj
 0001:00007820       ??0_U_MENUorID@ATL@@QEAA@I@Z 0000000180008820 f i Gate.obj
 0001:00007840       ??0_U_RECT@ATL@@QEAA@AEAUtagRECT@@@Z 0000000180008840 f i Gate.obj
 0001:00007860       ??0stringdispid@CComTypeInfoHolder@ATL@@QEAA@XZ 0000000180008860 f i Gate.obj
 0001:000078b0       ??1?$CAtlModuleT@VCComModule@ATL@@@ATL@@UEAA@XZ 00000001800088b0 f i Gate.obj
 0001:000078e0       ??1?$CAtlSafeAllocBufferManager@VCCRTAllocator@ATL@@@_ATL_SAFE_ALLOCA_IMPL@ATL@@QEAA@XZ 00000001800088e0 f i Gate.obj
 0001:00007940       ??1?$CAutoVectorPtr@_W@ATL@@QEAA@XZ 0000000180008940 f i Gate.obj
 0001:00007970       ??1?$CComAggObject@VCOPOSGate@@@ATL@@UEAA@XZ 0000000180008970 f i Gate.obj
 0001:000079f0       ??1?$CComContainedObject@VCOPOSGate@@@ATL@@UEAA@XZ 00000001800089f0 f i Gate.obj
 0001:00007a20       ??1?$CComCritSecLock@VCComCriticalSection@ATL@@@ATL@@QEAA@XZ 0000000180008a20 f i Gate.obj
 0001:00007a60       ??1?$CComEnum@UIEnumConnectionPoints@@$1?_GUID_b196b285_bab4_101a_b69c_00aa00341d07@@3U__s_GUID@@BPEAUIConnectionPoint@@V?$_CopyInterface@UIConnectionPoint@@@ATL@@VCComSingleThreadModel@6@@ATL@@UEAA@XZ 0000000180008a60 f i Gate.obj
 0001:00007aa0       ??1?$CComEnum@UIEnumConnections@@$1?_GUID_b196b287_bab4_101a_b69c_00aa00341d07@@3U__s_GUID@@BUtagCONNECTDATA@@V?$_Copy@UtagCONNECTDATA@@@ATL@@VCComSingleThreadModel@6@@ATL@@UEAA@XZ 0000000180008aa0 f i Gate.obj
 0001:00007ae0       ??1?$CComEnumImpl@UIEnumConnectionPoints@@$1?_GUID_b196b285_bab4_101a_b69c_00aa00341d07@@3U__s_GUID@@BPEAUIConnectionPoint@@V?$_CopyInterface@UIConnectionPoint@@@ATL@@@ATL@@UEAA@XZ 0000000180008ae0 f i Gate.obj
 0001:00007b80       ??1?$CComEnumImpl@UIEnumConnections@@$1?_GUID_b196b287_bab4_101a_b69c_00aa00341d07@@3U__s_GUID@@BUtagCONNECTDATA@@V?$_Copy@UtagCONNECTDATA@@@ATL@@@ATL@@UEAA@XZ 0000000180008b80 f i Gate.obj
 0001:00007c20       ??1?$CComObject@V?$CComEnum@UIEnumConnectionPoints@@$1?_GUID_b196b285_bab4_101a_b69c_00aa00341d07@@3U__s_GUID@@BPEAUIConnectionPoint@@V?$_CopyInterface@UIConnectionPoint@@@ATL@@VCComSingleThreadModel@6@@ATL@@@ATL@@UEAA@XZ 0000000180008c20 f i Gate.obj
 0001:00007c90       ??1?$CComObject@V?$CComEnum@UIEnumConnections@@$1?_GUID_b196b287_bab4_101a_b69c_00aa00341d07@@3U__s_GUID@@BUtagCONNECTDATA@@V?$_Copy@UtagCONNECTDATA@@@ATL@@VCComSingleThreadModel@6@@ATL@@@ATL@@UEAA@XZ 0000000180008c90 f i Gate.obj
 0001:00007d00       ??1?$CComObject@VCOPOSGate@@@ATL@@UEAA@XZ 0000000180008d00 f i Gate.obj
 0001:00007eb0       ??1?$CComObjectCached@VCComClassFactory@ATL@@@ATL@@UEAA@XZ 0000000180008eb0 f i Gate.obj
 0001:00007f10       ??1?$CComObjectRootEx@VCComMultiThreadModel@ATL@@@ATL@@QEAA@XZ 0000000180008f10 f i Gate.obj
 0001:00007f50       ??1?$CComObjectRootEx@VCComSingleThreadModel@ATL@@@ATL@@QEAA@XZ 0000000180008f50 f i Gate.obj
 0001:00007f80       ??1?$CComPtr@UIAdviseSink@@@ATL@@QEAA@XZ 0000000180008f80 f i Gate.obj
 0001:00007fb0       ??1?$CComPtr@UICatRegister@@@ATL@@QEAA@XZ 0000000180008fb0 f i Gate.obj
 0001:00007fe0       ??1?$CComPtr@UIConnectionPoint@@@ATL@@QEAA@XZ 0000000180008fe0 f i Gate.obj
 0001:00008010       ??1?$CComPtr@UIConnectionPointContainer@@@ATL@@QEAA@XZ 0000000180009010 f i Gate.obj
 0001:00008040       ??1?$CComPtr@UIDataObject@@@ATL@@QEAA@XZ 0000000180009040 f i Gate.obj
 0001:00008070       ??1?$CComPtr@UIDispatch@@@ATL@@QEAA@XZ 0000000180009070 f i Gate.obj
 0001:000080a0       ??1?$CComPtr@UIOleClientSite@@@ATL@@QEAA@XZ 00000001800090a0 f i Gate.obj
 0001:000080d0       ??1?$CComPtr@UIOleControlSite@@@ATL@@QEAA@XZ 00000001800090d0 f i Gate.obj
 0001:00008100       ??1?$CComPtr@UIOleInPlaceActiveObject@@@ATL@@QEAA@XZ 0000000180009100 f i Gate.obj
 0001:00008130       ??1?$CComPtr@UIOleInPlaceFrame@@@ATL@@QEAA@XZ 0000000180009130 f i Gate.obj
 0001:00008160       ??1?$CComPtr@UIOleInPlaceObject@@@ATL@@QEAA@XZ 0000000180009160 f i Gate.obj
 0001:00008190       ??1?$CComPtr@UIOleInPlaceUIWindow@@@ATL@@QEAA@XZ 0000000180009190 f i Gate.obj
 0001:000081c0       ??1?$CComPtr@UIOleObject@@@ATL@@QEAA@XZ 00000001800091c0 f i Gate.obj
 0001:000081f0       ??1?$CComPtr@UIPersistStream@@@ATL@@QEAA@XZ 00000001800091f0 f i Gate.obj
 0001:00008220       ??1?$CComPtr@UIPersistStreamInit@@@ATL@@QEAA@XZ 0000000180009220 f i Gate.obj
 0001:00008250       ??1?$CComPtr@UIPointerInactive@@@ATL@@QEAA@XZ 0000000180009250 f i Gate.obj
 0001:00008280       ??1?$CComPtr@UIProvideClassInfo2@@@ATL@@QEAA@XZ 0000000180009280 f i Gate.obj
 0001:000082b0       ??1?$CComPtr@UISpecifyPropertyPages@@@ATL@@QEAA@XZ 00000001800092b0 f i Gate.obj
 0001:000082e0       ??1?$CComPtr@UIStream@@@ATL@@QEAA@XZ 00000001800092e0 f i Gate.obj
 0001:00008310       ??1?$CComPtr@UITypeInfo2@@@ATL@@QEAA@XZ 0000000180009310 f i Gate.obj
 0001:00008340       ??1?$CComPtr@UITypeInfo@@@ATL@@QEAA@XZ 0000000180009340 f i Gate.obj
 0001:00008370       ??1?$CComPtr@UITypeLib@@@ATL@@QEAA@XZ 0000000180009370 f i Gate.obj
 0001:000083a0       ??1?$CComPtr@UIUnknown@@@ATL@@QEAA@XZ 00000001800093a0 f i Gate.obj
 0001:000083d0       ??1?$CComPtr@UIViewObjectEx@@@ATL@@QEAA@XZ 00000001800093d0 f i Gate.obj
 0001:00008400       ??1?$CComPtrBase@UIAdviseSink@@@ATL@@QEAA@XZ 0000000180009400 f i Gate.obj
 0001:00008450       ??1?$CComPtrBase@UICatRegister@@@ATL@@QEAA@XZ 0000000180009450 f i Gate.obj
 0001:000084a0       ??1?$CComPtrBase@UIConnectionPoint@@@ATL@@QEAA@XZ 00000001800094a0 f i Gate.obj
 0001:000084f0       ??1?$CComPtrBase@UIConnectionPointContainer@@@ATL@@QEAA@XZ 00000001800094f0 f i Gate.obj
 0001:00008540       ??1?$CComPtrBase@UIDataObject@@@ATL@@QEAA@XZ 0000000180009540 f i Gate.obj
 0001:00008590       ??1?$CComPtrBase@UIDispatch@@@ATL@@QEAA@XZ 0000000180009590 f i Gate.obj
 0001:000085e0       ??1?$CComPtrBase@UIOleClientSite@@@ATL@@QEAA@XZ 00000001800095e0 f i Gate.obj
 0001:00008630       ??1?$CComPtrBase@UIOleControlSite@@@ATL@@QEAA@XZ 0000000180009630 f i Gate.obj
 0001:00008680       ??1?$CComPtrBase@UIOleInPlaceActiveObject@@@ATL@@QEAA@XZ 0000000180009680 f i Gate.obj
 0001:000086d0       ??1?$CComPtrBase@UIOleInPlaceFrame@@@ATL@@QEAA@XZ 00000001800096d0 f i Gate.obj
 0001:00008720       ??1?$CComPtrBase@UIOleInPlaceObject@@@ATL@@QEAA@XZ 0000000180009720 f i Gate.obj
 0001:00008770       ??1?$CComPtrBase@UIOleInPlaceUIWindow@@@ATL@@QEAA@XZ 0000000180009770 f i Gate.obj
 0001:000087c0       ??1?$CComPtrBase@UIOleObject@@@ATL@@QEAA@XZ 00000001800097c0 f i Gate.obj
 0001:00008810       ??1?$CComPtrBase@UIPersistStream@@@ATL@@QEAA@XZ 0000000180009810 f i Gate.obj
 0001:00008860       ??1?$CComPtrBase@UIPersistStreamInit@@@ATL@@QEAA@XZ 0000000180009860 f i Gate.obj
 0001:000088b0       ??1?$CComPtrBase@UIPointerInactive@@@ATL@@QEAA@XZ 00000001800098b0 f i Gate.obj
 0001:00008900       ??1?$CComPtrBase@UIProvideClassInfo2@@@ATL@@QEAA@XZ 0000000180009900 f i Gate.obj
 0001:00008950       ??1?$CComPtrBase@UISpecifyPropertyPages@@@ATL@@QEAA@XZ 0000000180009950 f i Gate.obj
 0001:000089a0       ??1?$CComPtrBase@UIStream@@@ATL@@QEAA@XZ 00000001800099a0 f i Gate.obj
 0001:000089f0       ??1?$CComPtrBase@UITypeInfo2@@@ATL@@QEAA@XZ 00000001800099f0 f i Gate.obj
 0001:00008a40       ??1?$CComPtrBase@UITypeInfo@@@ATL@@QEAA@XZ 0000000180009a40 f i Gate.obj
 0001:00008a90       ??1?$CComPtrBase@UITypeLib@@@ATL@@QEAA@XZ 0000000180009a90 f i Gate.obj
 0001:00008ae0       ??1?$CComPtrBase@UIUnknown@@@ATL@@QEAA@XZ 0000000180009ae0 f i Gate.obj
 0001:00008b30       ??1?$CComPtrBase@UIViewObjectEx@@@ATL@@QEAA@XZ 0000000180009b30 f i Gate.obj
 0001:00008b80       ??1?$CComQIPtr@UIOleControlSite@@$1?_GUID_b196b289_bab4_101a_b69c_00aa00341d07@@3U__s_GUID@@B@ATL@@QEAA@XZ 0000000180009b80 f i Gate.obj
 0001:00008bb0       ??1?$CComQIPtr@UIOleObject@@$1?_GUID_00000112_0000_0000_c000_000000000046@@3U__s_GUID@@B@ATL@@QEAA@XZ 0000000180009bb0 f i Gate.obj
 0001:00008be0       ??1?$CComQIPtr@UISpecifyPropertyPages@@$1?_GUID_b196b28b_bab4_101a_b69c_00aa00341d07@@3U__s_GUID@@B@ATL@@QEAA@XZ 0000000180009be0 f i Gate.obj
 0001:00008c10       ??1?$CSimpleMap@PEA_WPEA_WVCExpansionVectorEqualHelper@ATL@@@ATL@@QEAA@XZ 0000000180009c10 f i Gate.obj
 0001:00008c40       ??1?$CTempBuffer@E$0BAA@VCCRTAllocator@ATL@@@ATL@@QEAA@XZ 0000000180009c40 f i Gate.obj
 0001:00008c90       ??1?$CTempBuffer@_W$0BAA@VCCRTAllocator@ATL@@@ATL@@QEAA@XZ 0000000180009c90 f i Gate.obj
 0001:00008ce0       ??1?$CTempBuffer@_W$0EAA@VCCRTAllocator@ATL@@@ATL@@QEAA@XZ 0000000180009ce0 f i Gate.obj
 0001:00008d30       ??1CAtlModule@ATL@@UEAA@XZ 0000000180009d30 f i Gate.obj
 0001:00008d70       ??1CComAutoDeleteCriticalSection@ATL@@QEAA@XZ 0000000180009d70 f i Gate.obj
 0001:00008da0       ??1CComClassFactory@ATL@@UEAA@XZ 0000000180009da0 f i Gate.obj
 0001:00008df0       ??1CComModule@ATL@@UEAA@XZ 0000000180009df0 f i Gate.obj
 0001:00008e30       ??1CComObjectRootBase@ATL@@QEAA@XZ 0000000180009e30 f i Gate.obj
 0001:00008e40       ??1CComSafeDeleteCriticalSection@ATL@@QEAA@XZ 0000000180009e40 f i Gate.obj
 0001:00008e90       ??1CComVariant@ATL@@QEAA@XZ 0000000180009e90 f i Gate.obj
 0001:00008f10       ??1CExpansionVector@ATL@@QEAA@XZ 0000000180009f10 f i Gate.obj
 0001:00008f50       ??1CParseBuffer@CRegParser@ATL@@QEAA@XZ 0000000180009f50 f i Gate.obj
 0001:00008f90       ??1CRegKey@ATL@@QEAA@XZ    0000000180009f90 f i Gate.obj
 0001:00008fc0       ??1CRegObject@ATL@@UEAA@XZ 0000000180009fc0 f i Gate.obj
 0001:00009010       ??1ModuleLockHelper@ATL@@QEAA@XZ 000000018000a010 f i Gate.obj
 0001:00009050       ??1OposVariant@@QEAA@XZ    000000018000a050 f i Gate.obj
 0001:00009090       ??1_ATL_MODULE70@ATL@@QEAA@XZ 000000018000a090 f i Gate.obj
 0001:000090d0       ??4?$CComPtr@UIAdviseSink@@@ATL@@QEAAPEAUIAdviseSink@@PEAU2@@Z 000000018000a0d0 f i Gate.obj
 0001:00009140       ??4?$CComPtr@UIOleClientSite@@@ATL@@QEAAPEAUIOleClientSite@@PEAU2@@Z 000000018000a140 f i Gate.obj
 0001:000091b0       ??4?$CComPtr@UIUnknown@@@ATL@@QEAAPEAUIUnknown@@PEAU2@@Z 000000018000a1b0 f i Gate.obj
 0001:00009220       ??4?$CComQIPtr@UIOleObject@@$1?_GUID_00000112_0000_0000_c000_000000000046@@3U__s_GUID@@B@ATL@@QEAAPEAUIOleObject@@PEAUIUnknown@@@Z 000000018000a220 f i Gate.obj
 0001:00009280       ??4?$CComQIPtr@UISpecifyPropertyPages@@$1?_GUID_b196b28b_bab4_101a_b69c_00aa00341d07@@3U__s_GUID@@B@ATL@@QEAAPEAUISpecifyPropertyPages@@PEAUIUnknown@@@Z 000000018000a280 f i Gate.obj
 0001:000092e0       ??7?$CComPtrBase@UIOleClientSite@@@ATL@@QEBA_NXZ 000000018000a2e0 f i Gate.obj
 0001:00009330       ??7?$CComPtrBase@UIOleInPlaceSiteWindowless@@@ATL@@QEBA_NXZ 000000018000a330 f i Gate.obj
 0001:00009380       ??7CComBSTR@ATL@@QEBA_NXZ  000000018000a380 f i Gate.obj
 0001:000093d0       ??8?$CComPtrBase@UIAdviseSink@@@ATL@@QEBA_NPEAUIAdviseSink@@@Z 000000018000a3d0 f i Gate.obj
 0001:00009420       ??8?$CComPtrBase@UIConnectionPointContainer@@@ATL@@QEBA_NPEAUIConnectionPointContainer@@@Z 000000018000a420 f i Gate.obj
 0001:00009470       ??8?$CComPtrBase@UIDataAdviseHolder@@@ATL@@QEBA_NPEAUIDataAdviseHolder@@@Z 000000018000a470 f i Gate.obj
 0001:000094c0       ??8?$CComPtrBase@UIOleAdviseHolder@@@ATL@@QEBA_NPEAUIOleAdviseHolder@@@Z 000000018000a4c0 f i Gate.obj
 0001:00009510       ??8?$CComPtrBase@UIOleClientSite@@@ATL@@QEBA_NPEAUIOleClientSite@@@Z 000000018000a510 f i Gate.obj
 0001:00009560       ??8?$CComPtrBase@UIOleControlSite@@@ATL@@QEBA_NPEAUIOleControlSite@@@Z 000000018000a560 f i Gate.obj
 0001:000095b0       ??8?$CComPtrBase@UIOleInPlaceObject@@@ATL@@QEBA_NPEAUIOleInPlaceObject@@@Z 000000018000a5b0 f i Gate.obj
 0001:00009600       ??8?$CComPtrBase@UIOleInPlaceSiteWindowless@@@ATL@@QEBA_NPEAUIOleInPlaceSiteWindowless@@@Z 000000018000a600 f i Gate.obj
 0001:00009650       ??8?$CComPtrBase@UIOleObject@@@ATL@@QEBA_NPEAUIOleObject@@@Z 000000018000a650 f i Gate.obj
 0001:000096a0       ??8?$CComPtrBase@UIPersistStream@@@ATL@@QEBA_NPEAUIPersistStream@@@Z 000000018000a6a0 f i Gate.obj
 0001:000096f0       ??8?$CComPtrBase@UIPersistStreamInit@@@ATL@@QEBA_NPEAUIPersistStreamInit@@@Z 000000018000a6f0 f i Gate.obj
 0001:00009740       ??8?$CComPtrBase@UIPointerInactive@@@ATL@@QEBA_NPEAUIPointerInactive@@@Z 000000018000a740 f i Gate.obj
 0001:00009790       ??8?$CComPtrBase@UIUnknown@@@ATL@@QEBA_NPEAUIUnknown@@@Z 000000018000a790 f i Gate.obj
 0001:000097e0       ??8?$CComPtrBase@UIViewObjectEx@@@ATL@@QEBA_NPEAUIViewObjectEx@@@Z 000000018000a7e0 f i Gate.obj
 0001:00009830       ??8CComBSTR@ATL@@QEBA_NH@Z 000000018000a830 f i Gate.obj
 0001:000098b0       ??9?$CComPtrBase@UIAdviseSink@@@ATL@@QEBA_NPEAUIAdviseSink@@@Z 000000018000a8b0 f i Gate.obj
 0001:00009910       ??9?$CComPtrBase@UIConnectionPointContainer@@@ATL@@QEBA_NPEAUIConnectionPointContainer@@@Z 000000018000a910 f i Gate.obj
 0001:00009970       ??9?$CComPtrBase@UIDataAdviseHolder@@@ATL@@QEBA_NPEAUIDataAdviseHolder@@@Z 000000018000a970 f i Gate.obj
 0001:000099d0       ??9?$CComPtrBase@UIOleAdviseHolder@@@ATL@@QEBA_NPEAUIOleAdviseHolder@@@Z 000000018000a9d0 f i Gate.obj
 0001:00009a30       ??9?$CComPtrBase@UIOleClientSite@@@ATL@@QEBA_NPEAUIOleClientSite@@@Z 000000018000aa30 f i Gate.obj
 0001:00009a90       ??9?$CComPtrBase@UIOleControlSite@@@ATL@@QEBA_NPEAUIOleControlSite@@@Z 000000018000aa90 f i Gate.obj
 0001:00009af0       ??9?$CComPtrBase@UIOleInPlaceObject@@@ATL@@QEBA_NPEAUIOleInPlaceObject@@@Z 000000018000aaf0 f i Gate.obj
 0001:00009b50       ??9?$CComPtrBase@UIOleInPlaceSiteWindowless@@@ATL@@QEBA_NPEAUIOleInPlaceSiteWindowless@@@Z 000000018000ab50 f i Gate.obj
 0001:00009bb0       ??9?$CComPtrBase@UIOleObject@@@ATL@@QEBA_NPEAUIOleObject@@@Z 000000018000abb0 f i Gate.obj
 0001:00009c10       ??9?$CComPtrBase@UIPersistStream@@@ATL@@QEBA_NPEAUIPersistStream@@@Z 000000018000ac10 f i Gate.obj
 0001:00009c70       ??9?$CComPtrBase@UIPersistStreamInit@@@ATL@@QEBA_NPEAUIPersistStreamInit@@@Z 000000018000ac70 f i Gate.obj
 0001:00009cd0       ??9?$CComPtrBase@UIPointerInactive@@@ATL@@QEBA_NPEAUIPointerInactive@@@Z 000000018000acd0 f i Gate.obj
 0001:00009d30       ??9?$CComPtrBase@UIUnknown@@@ATL@@QEBA_NPEAUIUnknown@@@Z 000000018000ad30 f i Gate.obj
 0001:00009d90       ??9?$CComPtrBase@UIViewObjectEx@@@ATL@@QEBA_NPEAUIViewObjectEx@@@Z 000000018000ad90 f i Gate.obj
 0001:00009df0       ??9CComBSTR@ATL@@QEBA_NH@Z 000000018000adf0 f i Gate.obj
 0001:00009e50       ??B?$CComPtrBase@UIAdviseSink@@@ATL@@QEBAPEAUIAdviseSink@@XZ 000000018000ae50 f i Gate.obj
 0001:00009e60       ??B?$CComPtrBase@UIDataAdviseHolder@@@ATL@@QEBAPEAUIDataAdviseHolder@@XZ 000000018000ae60 f i Gate.obj
 0001:00009e70       ??B?$CComPtrBase@UIDataObject@@@ATL@@QEBAPEAUIDataObject@@XZ 000000018000ae70 f i Gate.obj
 0001:00009e80       ??B?$CComPtrBase@UIOleAdviseHolder@@@ATL@@QEBAPEAUIOleAdviseHolder@@XZ 000000018000ae80 f i Gate.obj
 0001:00009e90       ??B?$CComPtrBase@UIOleClientSite@@@ATL@@QEBAPEAUIOleClientSite@@XZ 000000018000ae90 f i Gate.obj
 0001:00009ea0       ??B?$CComPtrBase@UIOleControlSite@@@ATL@@QEBAPEAUIOleControlSite@@XZ 000000018000aea0 f i Gate.obj
 0001:00009eb0       ??B?$CComPtrBase@UIOleInPlaceActiveObject@@@ATL@@QEBAPEAUIOleInPlaceActiveObject@@XZ 000000018000aeb0 f i Gate.obj
 0001:00009ec0       ??B?$CComPtrBase@UIOleInPlaceFrame@@@ATL@@QEBAPEAUIOleInPlaceFrame@@XZ 000000018000aec0 f i Gate.obj
 0001:00009ed0       ??B?$CComPtrBase@UIOleInPlaceSiteWindowless@@@ATL@@QEBAPEAUIOleInPlaceSiteWindowless@@XZ 000000018000aed0 f i Gate.obj
 0001:00009ee0       ??B?$CComPtrBase@UIOleInPlaceUIWindow@@@ATL@@QEBAPEAUIOleInPlaceUIWindow@@XZ 000000018000aee0 f i Gate.obj
 0001:00009ef0       ??B?$CComPtrBase@UIOleObject@@@ATL@@QEBAPEAUIOleObject@@XZ 000000018000aef0 f i Gate.obj
 0001:00009f00       ??B?$CComPtrBase@UIPersistStream@@@ATL@@QEBAPEAUIPersistStream@@XZ 000000018000af00 f i Gate.obj
 0001:00009f10       ??B?$CComPtrBase@UIProvideClassInfo2@@@ATL@@QEBAPEAUIProvideClassInfo2@@XZ 000000018000af10 f i Gate.obj
 0001:00009f20       ??B?$CComPtrBase@UISpecifyPropertyPages@@@ATL@@QEBAPEAUISpecifyPropertyPages@@XZ 000000018000af20 f i Gate.obj
 0001:00009f30       ??B?$CComPtrBase@UIStream@@@ATL@@QEBAPEAUIStream@@XZ 000000018000af30 f i Gate.obj
 0001:00009f40       ??B?$CComPtrBase@UITypeInfo2@@@ATL@@QEBAPEAUITypeInfo2@@XZ 000000018000af40 f i Gate.obj
 0001:00009f50       ??B?$CComPtrBase@UITypeInfo@@@ATL@@QEBAPEAUITypeInfo@@XZ 000000018000af50 f i Gate.obj
 0001:00009f60       ??B?$CComPtrBase@UITypeLib@@@ATL@@QEBAPEAUITypeLib@@XZ 000000018000af60 f i Gate.obj
 0001:00009f70       ??B?$CComPtrBase@UIUnknown@@@ATL@@QEBAPEAUIUnknown@@XZ 000000018000af70 f i Gate.obj
 0001:00009f80       ??B?$CTempBuffer@E$0BAA@VCCRTAllocator@ATL@@@ATL@@QEBAPEAEXZ 000000018000af80 f i Gate.obj
 0001:00009f90       ??B?$CTempBuffer@_W$0BAA@VCCRTAllocator@ATL@@@ATL@@QEBAPEA_WXZ 000000018000af90 f i Gate.obj
 0001:00009fa0       ??B?$CTempBuffer@_W$0EAA@VCCRTAllocator@ATL@@@ATL@@QEBAPEA_WXZ 000000018000afa0 f i Gate.obj
 0001:00009fb0       ??B?$CTraceCategoryEx@$00$0A@@ATL@@QEAAIXZ 000000018000afb0 f i Gate.obj
 0001:00009fc0       ??B?$CTraceCategoryEx@$07$0A@@ATL@@QEAAIXZ 000000018000afc0 f i Gate.obj
 0001:00009fd0       ??B?$CTraceCategoryEx@$0CAAA@$0A@@ATL@@QEAAIXZ 000000018000afd0 f i Gate.obj
 0001:00009fe0       ??B?$CTraceCategoryEx@$0EA@$0A@@ATL@@QEAAIXZ 000000018000afe0 f i Gate.obj
 0001:00009ff0       ??B?$CTraceCategoryEx@$0IAA@$0A@@ATL@@QEAAIXZ 000000018000aff0 f i Gate.obj
 0001:0000a000       ??BCComBSTR@ATL@@QEBAPEA_WXZ 000000018000b000 f i Gate.obj
 0001:0000a010       ??BCRegKey@ATL@@QEBAPEAUHKEY__@@XZ 000000018000b010 f i Gate.obj
 0001:0000a020       ??C?$CComPtrBase@UIAdviseSink@@@ATL@@QEBAPEAV?$_NoAddRefReleaseOnCComPtr@UIAdviseSink@@@1@XZ 000000018000b020 f i Gate.obj
 0001:0000a0a0       ??C?$CComPtrBase@UICatRegister@@@ATL@@QEBAPEAV?$_NoAddRefReleaseOnCComPtr@UICatRegister@@@1@XZ 000000018000b0a0 f i Gate.obj
 0001:0000a120       ??C?$CComPtrBase@UIConnectionPoint@@@ATL@@QEBAPEAV?$_NoAddRefReleaseOnCComPtr@UIConnectionPoint@@@1@XZ 000000018000b120 f i Gate.obj
 0001:0000a1a0       ??C?$CComPtrBase@UIConnectionPointContainer@@@ATL@@QEBAPEAV?$_NoAddRefReleaseOnCComPtr@UIConnectionPointContainer@@@1@XZ 000000018000b1a0 f i Gate.obj
 0001:0000a220       ??C?$CComPtrBase@UIDataAdviseHolder@@@ATL@@QEBAPEAV?$_NoAddRefReleaseOnCComPtr@UIDataAdviseHolder@@@1@XZ 000000018000b220 f i Gate.obj
 0001:0000a2a0       ??C?$CComPtrBase@UIOleAdviseHolder@@@ATL@@QEBAPEAV?$_NoAddRefReleaseOnCComPtr@UIOleAdviseHolder@@@1@XZ 000000018000b2a0 f i Gate.obj
 0001:0000a320       ??C?$CComPtrBase@UIOleClientSite@@@ATL@@QEBAPEAV?$_NoAddRefReleaseOnCComPtr@UIOleClientSite@@@1@XZ 000000018000b320 f i Gate.obj
 0001:0000a3a0       ??C?$CComPtrBase@UIOleControlSite@@@ATL@@QEBAPEAV?$_NoAddRefReleaseOnCComPtr@UIOleControlSite@@@1@XZ 000000018000b3a0 f i Gate.obj
 0001:0000a420       ??C?$CComPtrBase@UIOleInPlaceFrame@@@ATL@@QEBAPEAV?$_NoAddRefReleaseOnCComPtr@UIOleInPlaceFrame@@@1@XZ 000000018000b420 f i Gate.obj
 0001:0000a4a0       ??C?$CComPtrBase@UIOleInPlaceObject@@@ATL@@QEBAPEAV?$_NoAddRefReleaseOnCComPtr@UIOleInPlaceObject@@@1@XZ 000000018000b4a0 f i Gate.obj
 0001:0000a520       ??C?$CComPtrBase@UIOleInPlaceSiteWindowless@@@ATL@@QEBAPEAV?$_NoAddRefReleaseOnCComPtr@UIOleInPlaceSiteWindowless@@@1@XZ 000000018000b520 f i Gate.obj
 0001:0000a5a0       ??C?$CComPtrBase@UIOleInPlaceUIWindow@@@ATL@@QEBAPEAV?$_NoAddRefReleaseOnCComPtr@UIOleInPlaceUIWindow@@@1@XZ 000000018000b5a0 f i Gate.obj
 0001:0000a620       ??C?$CComPtrBase@UIOleObject@@@ATL@@QEBAPEAV?$_NoAddRefReleaseOnCComPtr@UIOleObject@@@1@XZ 000000018000b620 f i Gate.obj
 0001:0000a6a0       ??C?$CComPtrBase@UIPersistStream@@@ATL@@QEBAPEAV?$_NoAddRefReleaseOnCComPtr@UIPersistStream@@@1@XZ 000000018000b6a0 f i Gate.obj
 0001:0000a720       ??C?$CComPtrBase@UIPersistStreamInit@@@ATL@@QEBAPEAV?$_NoAddRefReleaseOnCComPtr@UIPersistStreamInit@@@1@XZ 000000018000b720 f i Gate.obj
 0001:0000a7a0       ??C?$CComPtrBase@UIPointerInactive@@@ATL@@QEBAPEAV?$_NoAddRefReleaseOnCComPtr@UIPointerInactive@@@1@XZ 000000018000b7a0 f i Gate.obj
 0001:0000a820       ??C?$CComPtrBase@UIProvideClassInfo2@@@ATL@@QEBAPEAV?$_NoAddRefReleaseOnCComPtr@UIProvideClassInfo2@@@1@XZ 000000018000b820 f i Gate.obj
 0001:0000a8a0       ??C?$CComPtrBase@UISpecifyPropertyPages@@@ATL@@QEBAPEAV?$_NoAddRefReleaseOnCComPtr@UISpecifyPropertyPages@@@1@XZ 000000018000b8a0 f i Gate.obj
 0001:0000a920       ??C?$CComPtrBase@UITypeInfo@@@ATL@@QEBAPEAV?$_NoAddRefReleaseOnCComPtr@UITypeInfo@@@1@XZ 000000018000b920 f i Gate.obj
 0001:0000a9a0       ??C?$CComPtrBase@UITypeLib@@@ATL@@QEBAPEAV?$_NoAddRefReleaseOnCComPtr@UITypeLib@@@1@XZ 000000018000b9a0 f i Gate.obj
 0001:0000aa20       ??C?$CComPtrBase@UIUnknown@@@ATL@@QEBAPEAV?$_NoAddRefReleaseOnCComPtr@UIUnknown@@@1@XZ 000000018000ba20 f i Gate.obj
 0001:0000aaa0       ??C?$CComPtrBase@UIViewObjectEx@@@ATL@@QEBAPEAV?$_NoAddRefReleaseOnCComPtr@UIViewObjectEx@@@1@XZ 000000018000baa0 f i Gate.obj
 0001:0000ab20       ??I?$CComPtrBase@UICatRegister@@@ATL@@QEAAPEAPEAUICatRegister@@XZ 000000018000bb20 f i Gate.obj
 0001:0000ab90       ??I?$CComPtrBase@UIConnectionPoint@@@ATL@@QEAAPEAPEAUIConnectionPoint@@XZ 000000018000bb90 f i Gate.obj
 0001:0000ac00       ??I?$CComPtrBase@UIConnectionPointContainer@@@ATL@@QEAAPEAPEAUIConnectionPointContainer@@XZ 000000018000bc00 f i Gate.obj
 0001:0000ac70       ??I?$CComPtrBase@UIDataAdviseHolder@@@ATL@@QEAAPEAPEAUIDataAdviseHolder@@XZ 000000018000bc70 f i Gate.obj
 0001:0000ace0       ??I?$CComPtrBase@UIDataObject@@@ATL@@QEAAPEAPEAUIDataObject@@XZ 000000018000bce0 f i Gate.obj
 0001:0000ad50       ??I?$CComPtrBase@UIDispatch@@@ATL@@QEAAPEAPEAUIDispatch@@XZ 000000018000bd50 f i Gate.obj
 0001:0000adc0       ??I?$CComPtrBase@UIOleAdviseHolder@@@ATL@@QEAAPEAPEAUIOleAdviseHolder@@XZ 000000018000bdc0 f i Gate.obj
 0001:0000ae30       ??I?$CComPtrBase@UIOleControlSite@@@ATL@@QEAAPEAPEAUIOleControlSite@@XZ 000000018000be30 f i Gate.obj
 0001:0000aea0       ??I?$CComPtrBase@UIOleInPlaceActiveObject@@@ATL@@QEAAPEAPEAUIOleInPlaceActiveObject@@XZ 000000018000bea0 f i Gate.obj
 0001:0000af10       ??I?$CComPtrBase@UIOleInPlaceFrame@@@ATL@@QEAAPEAPEAUIOleInPlaceFrame@@XZ 000000018000bf10 f i Gate.obj
 0001:0000af80       ??I?$CComPtrBase@UIOleInPlaceObject@@@ATL@@QEAAPEAPEAUIOleInPlaceObject@@XZ 000000018000bf80 f i Gate.obj
 0001:0000aff0       ??I?$CComPtrBase@UIOleInPlaceSiteWindowless@@@ATL@@QEAAPEAPEAUIOleInPlaceSiteWindowless@@XZ 000000018000bff0 f i Gate.obj
 0001:0000b060       ??I?$CComPtrBase@UIOleInPlaceUIWindow@@@ATL@@QEAAPEAPEAUIOleInPlaceUIWindow@@XZ 000000018000c060 f i Gate.obj
 0001:0000b0d0       ??I?$CComPtrBase@UIOleObject@@@ATL@@QEAAPEAPEAUIOleObject@@XZ 000000018000c0d0 f i Gate.obj
 0001:0000b140       ??I?$CComPtrBase@UIPersistStream@@@ATL@@QEAAPEAPEAUIPersistStream@@XZ 000000018000c140 f i Gate.obj
 0001:0000b1b0       ??I?$CComPtrBase@UIPointerInactive@@@ATL@@QEAAPEAPEAUIPointerInactive@@XZ 000000018000c1b0 f i Gate.obj
 0001:0000b220       ??I?$CComPtrBase@UIProvideClassInfo2@@@ATL@@QEAAPEAPEAUIProvideClassInfo2@@XZ 000000018000c220 f i Gate.obj
 0001:0000b290       ??I?$CComPtrBase@UIStream@@@ATL@@QEAAPEAPEAUIStream@@XZ 000000018000c290 f i Gate.obj
 0001:0000b300       ??I?$CComPtrBase@UITypeInfo2@@@ATL@@QEAAPEAPEAUITypeInfo2@@XZ 000000018000c300 f i Gate.obj
 0001:0000b370       ??I?$CComPtrBase@UITypeInfo@@@ATL@@QEAAPEAPEAUITypeInfo@@XZ 000000018000c370 f i Gate.obj
 0001:0000b3e0       ??I?$CComPtrBase@UITypeLib@@@ATL@@QEAAPEAPEAUITypeLib@@XZ 000000018000c3e0 f i Gate.obj
 0001:0000b450       ??I?$CComPtrBase@UIUnknown@@@ATL@@QEAAPEAPEAUIUnknown@@XZ 000000018000c450 f i Gate.obj
 0001:0000b4c0       ??I?$CComPtrBase@UIViewObjectEx@@@ATL@@QEAAPEAPEAUIViewObjectEx@@XZ 000000018000c4c0 f i Gate.obj
 0001:0000b530       ??ICComBSTR@ATL@@QEAAPEAPEA_WXZ 000000018000c530 f i Gate.obj
 0001:0000b540       ??_E?$CComContainedObject@VCOPOSGate@@@ATL@@W7EAAPEAXI@Z 000000018000c540 f i Gate.obj
 0001:0000b54c       ??_E?$CComContainedObject@VCOPOSGate@@@ATL@@WHA@EAAPEAXI@Z 000000018000c54c f i Gate.obj
 0001:0000b558       ??_E?$CComObject@VCOPOSGate@@@ATL@@W7EAAPEAXI@Z 000000018000c558 f i Gate.obj
 0001:0000b564       ??_E?$CComObject@VCOPOSGate@@@ATL@@WHA@EAAPEAXI@Z 000000018000c564 f i Gate.obj
 0001:0000b570       ??_G?$CComAggObject@VCOPOSGate@@@ATL@@UEAAPEAXI@Z 000000018000c570 f i Gate.obj
 0001:0000b570       ??_E?$CComAggObject@VCOPOSGate@@@ATL@@UEAAPEAXI@Z 000000018000c570 f i Gate.obj
 0001:0000b5d0       ??_G?$CComContainedObject@VCOPOSGate@@@ATL@@UEAAPEAXI@Z 000000018000c5d0 f i Gate.obj
 0001:0000b5d0       ??_E?$CComContainedObject@VCOPOSGate@@@ATL@@UEAAPEAXI@Z 000000018000c5d0 f i Gate.obj
 0001:0000b630       ??_G?$CComObject@V?$CComEnum@UIEnumConnectionPoints@@$1?_GUID_b196b285_bab4_101a_b69c_00aa00341d07@@3U__s_GUID@@BPEAUIConnectionPoint@@V?$_CopyInterface@UIConnectionPoint@@@ATL@@VCComSingleThreadModel@6@@ATL@@@ATL@@UEAAPEAXI@Z 000000018000c630 f i Gate.obj
 0001:0000b630       ??_E?$CComObject@V?$CComEnum@UIEnumConnectionPoints@@$1?_GUID_b196b285_bab4_101a_b69c_00aa00341d07@@3U__s_GUID@@BPEAUIConnectionPoint@@V?$_CopyInterface@UIConnectionPoint@@@ATL@@VCComSingleThreadModel@6@@ATL@@@ATL@@UEAAPEAXI@Z 000000018000c630 f i Gate.obj
 0001:0000b690       ??_G?$CComObject@V?$CComEnum@UIEnumConnections@@$1?_GUID_b196b287_bab4_101a_b69c_00aa00341d07@@3U__s_GUID@@BUtagCONNECTDATA@@V?$_Copy@UtagCONNECTDATA@@@ATL@@VCComSingleThreadModel@6@@ATL@@@ATL@@UEAAPEAXI@Z 000000018000c690 f i Gate.obj
 0001:0000b690       ??_E?$CComObject@V?$CComEnum@UIEnumConnections@@$1?_GUID_b196b287_bab4_101a_b69c_00aa00341d07@@3U__s_GUID@@BUtagCONNECTDATA@@V?$_Copy@UtagCONNECTDATA@@@ATL@@VCComSingleThreadModel@6@@ATL@@@ATL@@UEAAPEAXI@Z 000000018000c690 f i Gate.obj
 0001:0000b6f0       ??_G?$CComObject@VCOPOSGate@@@ATL@@UEAAPEAXI@Z 000000018000c6f0 f i Gate.obj
 0001:0000b6f0       ??_E?$CComObject@VCOPOSGate@@@ATL@@UEAAPEAXI@Z 000000018000c6f0 f i Gate.obj
 0001:0000b750       ??_E?$CComObjectCached@VCComClassFactory@ATL@@@ATL@@UEAAPEAXI@Z 000000018000c750 f i Gate.obj
 0001:0000b750       ??_G?$CComObjectCached@VCComClassFactory@ATL@@@ATL@@UEAAPEAXI@Z 000000018000c750 f i Gate.obj
 0001:0000b7b0       ??_GCComClassFactory@ATL@@UEAAPEAXI@Z 000000018000c7b0 f i Gate.obj
 0001:0000b7b0       ??_ECComClassFactory@ATL@@UEAAPEAXI@Z 000000018000c7b0 f i Gate.obj
 0001:0000b810       ??_ECComModule@ATL@@UEAAPEAXI@Z 000000018000c810 f i Gate.obj
 0001:0000b810       ??_GCComModule@ATL@@UEAAPEAXI@Z 000000018000c810 f i Gate.obj
 0001:0000b870       ??_GCRegObject@ATL@@UEAAPEAXI@Z 000000018000c870 f i Gate.obj
 0001:0000b870       ??_ECRegObject@ATL@@UEAAPEAXI@Z 000000018000c870 f i Gate.obj
 0001:0000b8d0       ?Add@?$CSimpleArray@GV?$CSimpleArrayEqualHelper@G@ATL@@@ATL@@QEAAHAEBG@Z 000000018000c8d0 f i Gate.obj
 0001:0000ba70       ?Add@?$CSimpleMap@PEA_WPEA_WVCExpansionVectorEqualHelper@ATL@@@ATL@@QEAAHAEBQEA_W0@Z 000000018000ca70 f i Gate.obj
 0001:0000bb60       ?Add@CComDynamicUnkArray@ATL@@QEAAKPEAUIUnknown@@@Z 000000018000cb60 f i Gate.obj
 0001:0000bd40       ?Add@CExpansionVector@ATL@@QEAAHPEB_W0@Z 000000018000cd40 f i Gate.obj
 0001:0000c070       ?AddChar@CParseBuffer@CRegParser@ATL@@QEAAHPEB_W@Z 000000018000d070 f i Gate.obj
 0001:0000c0c0       ?AddCommonRGSReplacements@?$CAtlModuleT@VCComModule@ATL@@@ATL@@UEAAJPEAUIRegistrarBase@@@Z 000000018000d0c0 f i Gate.obj
 0001:0000c120       ?AddCreateWndData@CAtlWinModule@ATL@@QEAAXPEAU_AtlCreateWndData@2@PEAX@Z 000000018000d120 f i Gate.obj
 0001:0000c170       ?AddRef@?$CComAggObject@VCOPOSGate@@@ATL@@UEAAKXZ 000000018000d170 f i Gate.obj
 0001:0000c1b0       ?AddRef@?$CComContainedObject@VCOPOSGate@@@ATL@@UEAAKXZ 000000018000d1b0 f i Gate.obj
 0001:0000c1e8       ?AddRef@?$CComContainedObject@VCOPOSGate@@@ATL@@WBAA@EAAKXZ 000000018000d1e8 f i Gate.obj
 0001:0000c1f4       ?AddRef@?$CComContainedObject@VCOPOSGate@@@ATL@@WBAI@EAAKXZ 000000018000d1f4 f i Gate.obj
 0001:0000c200       ?AddRef@?$CComContainedObject@VCOPOSGate@@@ATL@@WBBA@EAAKXZ 000000018000d200 f i Gate.obj
 0001:0000c20c       ?AddRef@?$CComContainedObject@VCOPOSGate@@@ATL@@WBBI@EAAKXZ 000000018000d20c f i Gate.obj
 0001:0000c218       ?AddRef@?$CComContainedObject@VCOPOSGate@@@ATL@@WBCI@EAAKXZ 000000018000d218 f i Gate.obj
 0001:0000c224       ?AddRef@?$CComContainedObject@VCOPOSGate@@@ATL@@WBEA@EAAKXZ 000000018000d224 f i Gate.obj
 0001:0000c230       ?AddRef@?$CComContainedObject@VCOPOSGate@@@ATL@@WLI@EAAKXZ 000000018000d230 f i Gate.obj
 0001:0000c23c       ?AddRef@?$CComContainedObject@VCOPOSGate@@@ATL@@WMA@EAAKXZ 000000018000d23c f i Gate.obj
 0001:0000c248       ?AddRef@?$CComContainedObject@VCOPOSGate@@@ATL@@WMI@EAAKXZ 000000018000d248 f i Gate.obj
 0001:0000c254       ?AddRef@?$CComContainedObject@VCOPOSGate@@@ATL@@WNA@EAAKXZ 000000018000d254 f i Gate.obj
 0001:0000c260       ?AddRef@?$CComContainedObject@VCOPOSGate@@@ATL@@WNI@EAAKXZ 000000018000d260 f i Gate.obj
 0001:0000c26c       ?AddRef@?$CComContainedObject@VCOPOSGate@@@ATL@@WOA@EAAKXZ 000000018000d26c f i Gate.obj
 0001:0000c278       ?AddRef@?$CComContainedObject@VCOPOSGate@@@ATL@@WOI@EAAKXZ 000000018000d278 f i Gate.obj
 0001:0000c284       ?AddRef@?$CComContainedObject@VCOPOSGate@@@ATL@@WPA@EAAKXZ 000000018000d284 f i Gate.obj
 0001:0000c290       ?AddRef@?$CComContainedObject@VCOPOSGate@@@ATL@@WPI@EAAKXZ 000000018000d290 f i Gate.obj
 0001:0000c2a0       ?AddRef@?$CComObject@V?$CComEnum@UIEnumConnectionPoints@@$1?_GUID_b196b285_bab4_101a_b69c_00aa00341d07@@3U__s_GUID@@BPEAUIConnectionPoint@@V?$_CopyInterface@UIConnectionPoint@@@ATL@@VCComSingleThreadModel@6@@ATL@@@ATL@@UEAAKXZ 000000018000d2a0 f i Gate.obj
 0001:0000c2e0       ?AddRef@?$CComObject@V?$CComEnum@UIEnumConnections@@$1?_GUID_b196b287_bab4_101a_b69c_00aa00341d07@@3U__s_GUID@@BUtagCONNECTDATA@@V?$_Copy@UtagCONNECTDATA@@@ATL@@VCComSingleThreadModel@6@@ATL@@@ATL@@UEAAKXZ 000000018000d2e0 f i Gate.obj
 0001:0000c320       ?AddRef@?$CComObject@VCOPOSGate@@@ATL@@UEAAKXZ 000000018000d320 f i Gate.obj
 0001:0000c358       ?AddRef@?$CComObject@VCOPOSGate@@@ATL@@WBAA@EAAKXZ 000000018000d358 f i Gate.obj
 0001:0000c364       ?AddRef@?$CComObject@VCOPOSGate@@@ATL@@WBAI@EAAKXZ 000000018000d364 f i Gate.obj
 0001:0000c370       ?AddRef@?$CComObject@VCOPOSGate@@@ATL@@WBBA@EAAKXZ 000000018000d370 f i Gate.obj
 0001:0000c37c       ?AddRef@?$CComObject@VCOPOSGate@@@ATL@@WBBI@EAAKXZ 000000018000d37c f i Gate.obj
 0001:0000c388       ?AddRef@?$CComObject@VCOPOSGate@@@ATL@@WBCI@EAAKXZ 000000018000d388 f i Gate.obj
 0001:0000c394       ?AddRef@?$CComObject@VCOPOSGate@@@ATL@@WBEA@EAAKXZ 000000018000d394 f i Gate.obj
 0001:0000c3a0       ?AddRef@?$CComObject@VCOPOSGate@@@ATL@@WLI@EAAKXZ 000000018000d3a0 f i Gate.obj
 0001:0000c3ac       ?AddRef@?$CComObject@VCOPOSGate@@@ATL@@WMA@EAAKXZ 000000018000d3ac f i Gate.obj
 0001:0000c3b8       ?AddRef@?$CComObject@VCOPOSGate@@@ATL@@WMI@EAAKXZ 000000018000d3b8 f i Gate.obj
 0001:0000c3c4       ?AddRef@?$CComObject@VCOPOSGate@@@ATL@@WNA@EAAKXZ 000000018000d3c4 f i Gate.obj
 0001:0000c3d0       ?AddRef@?$CComObject@VCOPOSGate@@@ATL@@WNI@EAAKXZ 000000018000d3d0 f i Gate.obj
 0001:0000c3dc       ?AddRef@?$CComObject@VCOPOSGate@@@ATL@@WOA@EAAKXZ 000000018000d3dc f i Gate.obj
 0001:0000c3e8       ?AddRef@?$CComObject@VCOPOSGate@@@ATL@@WOI@EAAKXZ 000000018000d3e8 f i Gate.obj
 0001:0000c3f4       ?AddRef@?$CComObject@VCOPOSGate@@@ATL@@WPA@EAAKXZ 000000018000d3f4 f i Gate.obj
 0001:0000c400       ?AddRef@?$CComObject@VCOPOSGate@@@ATL@@WPI@EAAKXZ 000000018000d400 f i Gate.obj
 0001:0000c410       ?AddRef@?$CComObjectCached@VCComClassFactory@ATL@@@ATL@@UEAAKXZ 000000018000d410 f i Gate.obj
 0001:0000c470       ?AddRef@CRegObject@ATL@@UEAAKXZ 000000018000d470 f i Gate.obj
 0001:0000c4e0       ?AddReplacement@CRegObject@ATL@@UEAAJPEB_W0@Z 000000018000d4e0 f i Gate.obj
 0001:0000c610       ?AddString@CParseBuffer@CRegParser@ATL@@QEAAHPEB_W@Z 000000018000d610 f i Gate.obj
 0001:0000c700       ?AddTermFunc@CAtlModule@ATL@@QEAAJP6AX_K@Z0@Z 000000018000d700 f i Gate.obj
 0001:0000c770       ?AddValue@CRegParser@ATL@@IEAAJAEAVCRegKey@2@PEB_WPEA_W@Z 000000018000d770 f i Gate.obj
 0001:0000d040       ?Advise@?$CProxy_IOPOSEvents@VCOPOSGate@@@@UEAAJPEAUIUnknown@@PEAK@Z 000000018000e040 f i Gate.obj
 0001:0000d0b0       ?Advise@?$IConnectionPointImpl@VCOPOSGate@@$1?DIID__IOPOSGateEvents@@3U_GUID@@BVCComDynamicUnkArray@ATL@@@ATL@@UEAAJPEAUIUnknown@@PEAK@Z 000000018000e0b0 f i Gate.obj
 0001:0000d2b0       ?Advise@?$IConnectionPointImpl@VCOPOSGate@@$1?IID_IPropertyNotifySink@@3U_GUID@@BVCComDynamicUnkArray@ATL@@@ATL@@UEAAJPEAUIUnknown@@PEAK@Z 000000018000e2b0 f i Gate.obj
 0001:0000d4b0       ?Advise@?$IOleObjectImpl@VCOPOSGate@@@ATL@@UEAAJPEAUIAdviseSink@@PEAK@Z 000000018000e4b0 f i Gate.obj
 0001:0000d570       ?Allocate@?$CAtlSafeAllocBufferManager@VCCRTAllocator@ATL@@@_ATL_SAFE_ALLOCA_IMPL@ATL@@QEAAPEAX_K@Z 000000018000e570 f i Gate.obj
 0001:0000d5f0       ?Allocate@?$CTempBuffer@E$0BAA@VCCRTAllocator@ATL@@@ATL@@QEAAPEAE_K@Z 000000018000e5f0 f i Gate.obj
 0001:0000d640       ?Allocate@?$CTempBuffer@_W$0BAA@VCCRTAllocator@ATL@@@ATL@@QEAAPEA_W_K@Z 000000018000e640 f i Gate.obj
 0001:0000d690       ?Allocate@?$CTempBuffer@_W$0EAA@VCCRTAllocator@ATL@@@ATL@@QEAAPEA_W_K@Z 000000018000e690 f i Gate.obj
 0001:0000d6e0       ?AllocateBytes@?$CTempBuffer@E$0BAA@VCCRTAllocator@ATL@@@ATL@@QEAAPEAE_K@Z 000000018000e6e0 f i Gate.obj
 0001:0000d790       ?AllocateBytes@?$CTempBuffer@_W$0BAA@VCCRTAllocator@ATL@@@ATL@@QEAAPEA_W_K@Z 000000018000e790 f i Gate.obj
 0001:0000d840       ?AllocateBytes@?$CTempBuffer@_W$0EAA@VCCRTAllocator@ATL@@@ATL@@QEAAPEA_W_K@Z 000000018000e840 f i Gate.obj
 0001:0000d8f0       ?AllocateHeap@?$CTempBuffer@E$0BAA@VCCRTAllocator@ATL@@@ATL@@AEAAX_K@Z 000000018000e8f0 f i Gate.obj
 0001:0000d950       ?AllocateHeap@?$CTempBuffer@_W$0BAA@VCCRTAllocator@ATL@@@ATL@@AEAAX_K@Z 000000018000e950 f i Gate.obj
 0001:0000d9b0       ?AllocateHeap@?$CTempBuffer@_W$0EAA@VCCRTAllocator@ATL@@@ATL@@AEAAX_K@Z 000000018000e9b0 f i Gate.obj
 0001:0000da10       ?Append@CParseBuffer@CRegParser@ATL@@QEAAHPEB_WH@Z 000000018000ea10 f i Gate.obj
 0001:0000dc40       ?AtlCallTermFunc@ATL@@YAXPEAU_ATL_MODULE70@1@@Z 000000018000ec40 f i Gate.obj
 0001:0000dcf0       ?AtlCoTaskMemCAlloc@ATL@@YAPEAXKK@Z 000000018000ecf0 f i Gate.obj
 0001:0000dd70       ?AtlCoTaskMemRecalloc@ATL@@YAPEAXPEAXKK@Z 000000018000ed70 f i Gate.obj
 0001:0000ddf0       ?AtlComModuleGetClassObject@ATL@@YAJPEAU_ATL_COM_MODULE70@1@AEBU_GUID@@1PEAPEAX@Z 000000018000edf0 f i Gate.obj
 0001:0000e120       ?AtlComModuleRegisterServer@ATL@@YAJPEAU_ATL_COM_MODULE70@1@HPEBU_GUID@@@Z 000000018000f120 f i Gate.obj
 0001:0000e320       ?AtlComModuleUnregisterServer@ATL@@YAJPEAU_ATL_COM_MODULE70@1@HPEBU_GUID@@@Z 000000018000f320 f i Gate.obj
 0001:0000e480       ?AtlComQIPtrAssign2@ATL@@YAXPEAPEAUIUnknown@@PEAU2@AEBU_GUID@@@Z 000000018000f480 f i Gate.obj
 0001:0000e510       ?AtlCreateTargetDC@ATL@@YAPEAUHDC__@@PEAU2@PEAUtagDVTARGETDEVICE@@@Z 000000018000f510 f i Gate.obj
 0001:0000e740       ?AtlCrtErrorCheck@ATL@@YAHH@Z 000000018000f740 f i Gate.obj
 0001:0000e7c0       ?AtlGetPerUserRegistration@ATL@@YAJPEA_N@Z 000000018000f7c0 f i Gate.obj
 0001:0000e7f0       ?AtlHiMetricToPixel@ATL@@YAXPEBUtagSIZE@@PEAU2@@Z 000000018000f7f0 f i Gate.obj
 0001:0000e9f0       ?AtlHresultFromLastError@ATL@@YAJXZ 000000018000f9f0 f i Gate.obj
 0001:0000ea20       ?AtlHresultFromWin32@ATL@@YAJK@Z 000000018000fa20 f i Gate.obj
 0001:0000ea50       ?AtlIPersistStreamInit_Load@ATL@@YAJPEAUIStream@@PEBUATL_PROPMAP_ENTRY@1@PEAXPEAUIUnknown@@@Z 000000018000fa50 f i Gate.obj
 0001:0000f0c0       ?AtlIPersistStreamInit_Save@ATL@@YAJPEAUIStream@@HPEBUATL_PROPMAP_ENTRY@1@PEAXPEAUIUnknown@@@Z 00000001800100c0 f i Gate.obj
 0001:0000f650       ?AtlInternalOleLoadFromStream@ATL@@YAJPEAUIStream@@AEBU_GUID@@PEAPEAXTClassesAllowedInStream@1@K@Z 0000000180010650 f i Gate.obj
 0001:0000f990       ?AtlInternalQueryInterface@ATL@@YAJPEAXPEBU_ATL_INTMAP_ENTRY@1@AEBU_GUID@@PEAPEAX@Z 0000000180010990 f i Gate.obj
 0001:0000fc50       ?AtlLoadTypeLib@ATL@@YAJPEAUHINSTANCE__@@PEB_WPEAPEA_WPEAPEAUITypeLib@@@Z 0000000180010c50 f i Gate.obj
 0001:00010120       ?AtlModuleAddTermFunc@ATL@@YAJPEAU_ATL_MODULE70@1@P6AX_K@Z1@Z 0000000180011120 f i Gate.obj
 0001:000102f0       ?AtlRegisterClassCategoriesHelper@ATL@@YAJAEBU_GUID@@PEBU_ATL_CATMAP_ENTRY@1@H@Z 00000001800112f0 f i Gate.obj
 0001:00010ac0       ?AtlRegisterTypeLib@ATL@@YAJPEAUHINSTANCE__@@PEB_W@Z 0000000180011ac0 f i Gate.obj
 0001:00010e20       ?AtlThrowImpl@ATL@@YAXJ@Z  0000000180011e20 f i Gate.obj
 0001:00010f00       ?AtlUnRegisterTypeLib@ATL@@YAJPEAUHINSTANCE__@@PEB_W@Z 0000000180011f00 f i Gate.obj
 0001:00011130       ?AtlWinModuleAddCreateWndData@ATL@@YAXPEAU_ATL_WIN_MODULE70@1@PEAU_AtlCreateWndData@1@PEAX@Z 0000000180012130 f i Gate.obj
 0001:00011320       ?AtlWinModuleExtractCreateWndData@ATL@@YAPEAXPEAU_ATL_WIN_MODULE70@1@@Z 0000000180012320 f i Gate.obj
 0001:00011520       ?AtlWinModuleRegisterClassExW@ATL@@YAGPEAU_ATL_WIN_MODULE70@1@PEBUtagWNDCLASSEXW@@@Z 0000000180012520 f i Gate.obj
 0001:000115f0       ?AtlWinModuleRegisterWndClassInfoW@ATL@@YAGPEAU_ATL_WIN_MODULE70@1@PEAU_ATL_BASE_MODULE70@1@PEAU_ATL_WNDCLASSINFOW@1@PEAP6A_JPEAUHWND__@@I_K_J@Z@Z 00000001800125f0 f i Gate.obj
 0001:00011660       ?Attach@?$CAutoVectorPtr@_W@ATL@@QEAAXPEA_W@Z 0000000180012660 f i Gate.obj
 0001:000116f0       ?Attach@CComBSTR@ATL@@QEAAXPEA_W@Z 00000001800126f0 f i Gate.obj
 0001:00011750       ?Attach@CRegKey@ATL@@QEAAXPEAUHKEY__@@@Z 0000000180012750 f i Gate.obj
 0001:000117f0       ?CanForceRemoveKey@CRegParser@ATL@@IEAAHPEB_W@Z 00000001800127f0 f i Gate.obj
 0001:00011860       ?ChToByte@CRegParser@ATL@@KAE_W@Z 0000000180012860 f i Gate.obj
 0001:000119c0       ?ChangeType@CComVariant@ATL@@QEAAJGPEBUtagVARIANT@@@Z 00000001800129c0 f i Gate.obj
 0001:00011a30       ?Cleanup@CComTypeInfoHolder@ATL@@SAX_K@Z 0000000180012a30 f i Gate.obj
 0001:00011b20       ?Clear@CComVariant@ATL@@QEAAJXZ 0000000180012b20 f i Gate.obj
 0001:00011b50       ?ClearReplacements@CExpansionVector@ATL@@QEAAJXZ 0000000180012b50 f i Gate.obj
 0001:00011bf0       ?ClearReplacements@CRegObject@ATL@@UEAAJXZ 0000000180012bf0 f i Gate.obj
 0001:00011c50       ?Clone@?$CComEnumImpl@UIEnumConnectionPoints@@$1?_GUID_b196b285_bab4_101a_b69c_00aa00341d07@@3U__s_GUID@@BPEAUIConnectionPoint@@V?$_CopyInterface@UIConnectionPoint@@@ATL@@@ATL@@UEAAJPEAPEAUIEnumConnectionPoints@@@Z 0000000180012c50 f i Gate.obj
 0001:00011e40       ?Clone@?$CComEnumImpl@UIEnumConnections@@$1?_GUID_b196b287_bab4_101a_b69c_00aa00341d07@@3U__s_GUID@@BUtagCONNECTDATA@@V?$_Copy@UtagCONNECTDATA@@@ATL@@@ATL@@UEAAJPEAPEAUIEnumConnections@@@Z 0000000180012e40 f i Gate.obj
 0001:00012030       ?Close@?$IOleObjectImpl@VCOPOSGate@@@ATL@@UEAAJK@Z 0000000180013030 f i Gate.obj
 0001:000120e0       ?Close@CRegKey@ATL@@QEAAJXZ 00000001800130e0 f i Gate.obj
 0001:00012150       ?ContextSensitiveHelp@?$IOleInPlaceActiveObjectImpl@VCOPOSGate@@@ATL@@UEAAJH@Z 0000000180013150 f i Gate.obj
 0001:000121d0       ?ContextSensitiveHelp@?$IOleInPlaceObjectWindowlessImpl@VCOPOSGate@@@ATL@@UEAAJH@Z 00000001800131d0 f i Gate.obj
 0001:00012250       ?ControlQueryInterface@?$CComControl@VCOPOSGate@@V?$CWindowImpl@VCOPOSGate@@VCWindow@ATL@@V?$CWinTraits@$0FGAAAAAA@$0A@@3@@ATL@@@ATL@@UEAAJAEBU_GUID@@PEAPEAX@Z 0000000180013250 f i Gate.obj
 0001:000122e0       ?CreateControlWindow@?$CComControl@VCOPOSGate@@V?$CWindowImpl@VCOPOSGate@@VCWindow@ATL@@V?$CWinTraits@$0FGAAAAAA@$0A@@3@@ATL@@@ATL@@UEAAPEAUHWND__@@PEAU3@AEAUtagRECT@@@Z 00000001800132e0 f i Gate.obj
 0001:000123d0       ?CreateInstance@?$CComCreator@V?$CComAggObject@VCOPOSGate@@@ATL@@@ATL@@SAJPEAXAEBU_GUID@@PEAPEAX@Z 00000001800133d0 f i Gate.obj
 0001:000125b0       ?CreateInstance@?$CComCreator@V?$CComObject@VCOPOSGate@@@ATL@@@ATL@@SAJPEAXAEBU_GUID@@PEAPEAX@Z 00000001800135b0 f i Gate.obj
 0001:000127b0       ?CreateInstance@?$CComObject@V?$CComEnum@UIEnumConnectionPoints@@$1?_GUID_b196b285_bab4_101a_b69c_00aa00341d07@@3U__s_GUID@@BPEAUIConnectionPoint@@V?$_CopyInterface@UIConnectionPoint@@@ATL@@VCComSingleThreadModel@6@@ATL@@@ATL@@SAJPEAPEAV12@@Z 00000001800137b0 f i Gate.obj
 0001:00012970       ?CreateInstance@?$CComObject@V?$CComEnum@UIEnumConnections@@$1?_GUID_b196b287_bab4_101a_b69c_00aa00341d07@@3U__s_GUID@@BUtagCONNECTDATA@@V?$_Copy@UtagCONNECTDATA@@@ATL@@VCComSingleThreadModel@6@@ATL@@@ATL@@SAJPEAPEAV12@@Z 0000000180013970 f i Gate.obj
 0001:00012b30       ?CreateInstance@CComClassFactory@ATL@@UEAAJPEAUIUnknown@@AEBU_GUID@@PEAPEAX@Z 0000000180013b30 f i Gate.obj
 0001:00012c50       ?DAdvise@?$IDataObjectImpl@VCOPOSGate@@@ATL@@UEAAJPEAUtagFORMATETC@@KPEAUIAdviseSink@@PEAK@Z 0000000180013c50 f i Gate.obj
 0001:00012db0       ?DEVMODEOLE2T_EX@@YAPEAU_devicemodeW@@PEAU1@@Z 0000000180013db0 f i Gate.obj
 0001:00012dc0       ?DUnadvise@?$IDataObjectImpl@VCOPOSGate@@@ATL@@UEAAJK@Z 0000000180013dc0 f i Gate.obj
 0001:00012ec0       ?Decrement@CComMultiThreadModel@ATL@@SAKPEAJ@Z 0000000180013ec0 f i Gate.obj
 0001:00012ee0       ?Decrement@CComSingleThreadModel@ATL@@SAKPEAJ@Z 0000000180013ee0 f i Gate.obj
 0001:00012f00       ?DefWindowProcW@?$CWindowImplBaseT@VCWindow@ATL@@V?$CWinTraits@$0FGAAAAAA@$0A@@2@@ATL@@QEAA_JI_K_J@Z 0000000180013f00 f i Gate.obj
 0001:00012f60       ?DefaultReflectionHandler@?$CWindowImplRoot@VCWindow@ATL@@@ATL@@SAHPEAUHWND__@@I_K_JAEA_J@Z 0000000180013f60 f i Gate.obj
 0001:00013050       ?DeleteSubKey@CRegKey@ATL@@QEAAJPEB_W@Z 0000000180014050 f i Gate.obj
 0001:00013180       ?DeleteValue@CRegKey@ATL@@QEAAJPEB_W@Z 0000000180014180 f i Gate.obj
 0001:00013210       ?Detach@?$CAutoVectorPtr@_W@ATL@@QEAAPEA_WXZ 0000000180014210 f i Gate.obj
 0001:00013250       ?Detach@?$CComPtrBase@UIPersistStream@@@ATL@@QEAAPEAUIPersistStream@@XZ 0000000180014250 f i Gate.obj
 0001:00013290       ?Detach@?$CComPtrBase@UITypeInfo@@@ATL@@QEAAPEAUITypeInfo@@XZ 0000000180014290 f i Gate.obj
 0001:000132d0       ?Detach@?$CComPtrBase@UIUnknown@@@ATL@@QEAAPEAUIUnknown@@XZ 00000001800142d0 f i Gate.obj
 0001:00013310       ?Detach@CComBSTR@ATL@@QEAAPEA_WXZ 0000000180014310 f i Gate.obj
 0001:00013350       ?Detach@CParseBuffer@CRegParser@ATL@@QEAAPEA_WXZ 0000000180014350 f i Gate.obj
 0001:000133b0       ?Detach@CRegKey@ATL@@QEAAPEAUHKEY__@@XZ 00000001800143b0 f i Gate.obj
 0001:00013410       ?DoEvent@COPOSGate@@IEAAXI_K_J@Z 0000000180014410 f i Gate.obj
 0001:00013550       ?DoVerb@?$IOleObjectImpl@VCOPOSGate@@@ATL@@UEAAJJPEAUtagMSG@@PEAUIOleClientSite@@JPEAUHWND__@@PEBUtagRECT@@@Z 0000000180014550 f i Gate.obj
 0001:00013860       ?DoVerbDiscardUndo@?$IOleObjectImpl@VCOPOSGate@@@ATL@@QEAAJPEBUtagRECT@@PEAUHWND__@@@Z 0000000180014860 f i Gate.obj
 0001:00013900       ?DoVerbHide@?$IOleObjectImpl@VCOPOSGate@@@ATL@@QEAAJPEBUtagRECT@@PEAUHWND__@@@Z 0000000180014900 f i Gate.obj
 0001:000139e0       ?DoVerbInPlaceActivate@?$IOleObjectImpl@VCOPOSGate@@@ATL@@QEAAJPEBUtagRECT@@PEAUHWND__@@@Z 00000001800149e0 f i Gate.obj
 0001:00013ac0       ?DoVerbOpen@?$IOleObjectImpl@VCOPOSGate@@@ATL@@QEAAJPEBUtagRECT@@PEAUHWND__@@@Z 0000000180014ac0 f i Gate.obj
 0001:00013b60       ?DoVerbPrimary@?$IOleObjectImpl@VCOPOSGate@@@ATL@@QEAAJPEBUtagRECT@@PEAUHWND__@@@Z 0000000180014b60 f i Gate.obj
 0001:00013ca0       ?DoVerbProperties@CComControlBase@ATL@@QEAAJPEBUtagRECT@@PEAUHWND__@@@Z 0000000180014ca0 f i Gate.obj
 0001:00014050       ?DoVerbShow@?$IOleObjectImpl@VCOPOSGate@@@ATL@@QEAAJPEBUtagRECT@@PEAUHWND__@@@Z 0000000180015050 f i Gate.obj
 0001:00014110       ?DoVerbUIActivate@?$IOleObjectImpl@VCOPOSGate@@@ATL@@QEAAJPEBUtagRECT@@PEAUHWND__@@@Z 0000000180015110 f i Gate.obj
 0001:000141f0       ?DoesVerbActivate@CComControlBase@ATL@@QEAAHJ@Z 00000001800151f0 f i Gate.obj
 0001:00014250       ?DoesVerbUIActivate@CComControlBase@ATL@@QEAAHJ@Z 0000000180015250 f i Gate.obj
 0001:000142d0       ?Draw@?$IViewObjectExImpl@VCOPOSGate@@@ATL@@UEAAJKJPEAXPEAUtagDVTARGETDEVICE@@PEAUHDC__@@2PEBU_RECTL@@3P6AH_K@Z4@Z 00000001800152d0 f i Gate.obj
 0001:000143f0       ?Empty@CComBSTR@ATL@@QEAAXXZ 00000001800153f0 f i Gate.obj
 0001:00014430       ?EnableModeless@?$IOleInPlaceActiveObjectImpl@VCOPOSGate@@@ATL@@UEAAJH@Z 0000000180015430 f i Gate.obj
 0001:000144a0       ?EndOfVar@CRegParser@ATL@@IEAAHXZ 00000001800154a0 f i Gate.obj
 0001:00014500       ?EnsureTI@CComTypeInfoHolder@ATL@@QEAAJK@Z 0000000180015500 f i Gate.obj
 0001:00014560       ?EnumAdvise@?$IOleObjectImpl@VCOPOSGate@@@ATL@@UEAAJPEAPEAUIEnumSTATDATA@@@Z 0000000180015560 f i Gate.obj
 0001:000146c0       ?EnumConnectionPoints@?$IConnectionPointContainerImpl@VCOPOSGate@@@ATL@@UEAAJPEAPEAUIEnumConnectionPoints@@@Z 00000001800156c0 f i Gate.obj
 0001:00014bb0       ?EnumConnections@?$IConnectionPointImpl@VCOPOSGate@@$1?DIID__IOPOSGateEvents@@3U_GUID@@BVCComDynamicUnkArray@ATL@@@ATL@@UEAAJPEAPEAUIEnumConnections@@@Z 0000000180015bb0 f i Gate.obj
 0001:00014f00       ?EnumConnections@?$IConnectionPointImpl@VCOPOSGate@@$1?IID_IPropertyNotifySink@@3U_GUID@@BVCComDynamicUnkArray@ATL@@@ATL@@UEAAJPEAPEAUIEnumConnections@@@Z 0000000180015f00 f i Gate.obj
 0001:00015250       ?EnumDAdvise@?$IDataObjectImpl@VCOPOSGate@@@ATL@@UEAAJPEAPEAUIEnumSTATDATA@@@Z 0000000180016250 f i Gate.obj
 0001:000153a0       ?EnumFormatEtc@?$IDataObjectImpl@VCOPOSGate@@@ATL@@UEAAJKPEAPEAUIEnumFORMATETC@@@Z 00000001800163a0 f i Gate.obj
 0001:00015430       ?EnumVerbs@?$IOleObjectImpl@VCOPOSGate@@@ATL@@UEAAJPEAPEAUIEnumOLEVERB@@@Z 0000000180016430 f i Gate.obj
 0001:00015500       ?EscapeSingleQuote@CAtlModule@ATL@@SAXPEA_W_KPEB_W@Z 0000000180016500 f i Gate.obj
 0001:00015600       ?ExtractCreateWndData@CAtlWinModule@ATL@@QEAAPEAXXZ 0000000180016600 f i Gate.obj
 0001:00015630       ?FAccessAllowed@?$IObjectSafetyImpl@VCOPOSGate@@$02@ATL@@MEAAHXZ 0000000180016630 f i Gate.obj
 0001:00015640       ?FinalConstruct@?$CComAggObject@VCOPOSGate@@@ATL@@QEAAJXZ 0000000180016640 f i Gate.obj
 0001:00015690       ?FinalConstruct@CComObjectRootBase@ATL@@QEAAJXZ 0000000180016690 f i Gate.obj
 0001:000156a0       ?FinalConstruct@CRegObject@ATL@@QEAAJXZ 00000001800166a0 f i Gate.obj
 0001:000156e0       ?FinalRelease@?$CComAggObject@VCOPOSGate@@@ATL@@QEAAXXZ 00000001800166e0 f i Gate.obj
 0001:00015730       ?FinalRelease@CComObjectRootBase@ATL@@QEAAXXZ 0000000180016730 f i Gate.obj
 0001:00015740       ?FindConnectionPoint@?$IConnectionPointContainerImpl@VCOPOSGate@@@ATL@@UEAAJAEBU_GUID@@PEAPEAUIConnectionPoint@@@Z 0000000180016740 f i Gate.obj
 0001:000158b0       ?FindKey@?$CSimpleMap@PEA_WPEA_WVCExpansionVectorEqualHelper@ATL@@@ATL@@QEBAHAEBQEA_W@Z 00000001800168b0 f i Gate.obj
 0001:00015930       ?FireTheEvent@?$CProxy_IOPOSEvents@VCOPOSGate@@@@IEAAXPEAUIUnknown@@PEAVOposVariant@@IAEAJPEB_WJ@Z 0000000180016930 f i Gate.obj
 0001:00015b10       ?FireViewChange@CComControlBase@ATL@@QEAAJXZ 0000000180016b10 f i Gate.obj
 0001:00015bf0       ?Fire_DirectIOEvent@?$CProxy_IOPOSEvents@VCOPOSGate@@@@QEAAXJPEAJPEAPEA_W@Z 0000000180016bf0 f i Gate.obj
 0001:00015e80       ?Fire_StatusUpdateEvent@?$CProxy_IOPOSEvents@VCOPOSGate@@@@QEAAXJ@Z 0000000180016e80 f i Gate.obj
 0001:00016070       ?FormatWindowClassName@AtlModuleRegisterWndClassInfoParamW@ATL@@SAXPEA_WKPEAX@Z 0000000180017070 f i Gate.obj
 0001:000160c0       ?Free@?$CAutoVectorPtr@_W@ATL@@QEAAXXZ 00000001800170c0 f i Gate.obj
 0001:00016110       ?FreeHeap@?$CTempBuffer@E$0BAA@VCCRTAllocator@ATL@@@ATL@@AEAAXXZ 0000000180017110 f i Gate.obj
 0001:00016150       ?FreeHeap@?$CTempBuffer@_W$0BAA@VCCRTAllocator@ATL@@@ATL@@AEAAXXZ 0000000180017150 f i Gate.obj
 0001:00016190       ?FreeHeap@?$CTempBuffer@_W$0EAA@VCCRTAllocator@ATL@@@ATL@@AEAAXXZ 0000000180017190 f i Gate.obj
 0001:000161d0       ?Freeze@?$IViewObjectExImpl@VCOPOSGate@@@ATL@@UEAAJKJPEAXPEAK@Z 00000001800171d0 f i Gate.obj
 0001:00016260       ?GenerateError@CRegParser@ATL@@IEAAJI@Z 0000000180017260 f i Gate.obj
 0001:00016280       ?GetAdvise@?$IViewObjectExImpl@VCOPOSGate@@@ATL@@UEAAJPEAK0PEAPEAUIAdviseSink@@@Z 0000000180017280 f i Gate.obj
 0001:000163d0       ?GetAmbientLocaleID@CComControlBase@ATL@@QEAAJAEAK@Z 00000001800173d0 f i Gate.obj
 0001:000164b0       ?GetAmbientProperty@CComControlBase@ATL@@QEAAJJAEAUtagVARIANT@@@Z 00000001800174b0 f i Gate.obj
 0001:00016520       ?GetAmbientUserMode@CComControlBase@ATL@@QEAAJAEAH@Z 0000000180017520 f i Gate.obj
 0001:00016640       ?GetAppId@?$CAtlModuleT@VCComModule@ATL@@@ATL@@SAPEB_WXZ 0000000180017640 f i Gate.obj
 0001:00016650       ?GetAt@CComDynamicUnkArray@ATL@@QEAAPEAUIUnknown@@H@Z 0000000180017650 f i Gate.obj
 0001:00016700       ?GetCanonicalFormatEtc@?$IDataObjectImpl@VCOPOSGate@@@ATL@@UEAAJPEAUtagFORMATETC@@0@Z 0000000180017700 f i Gate.obj
 0001:00016790       ?GetClassID@?$IPersistStorageImpl@VCOPOSGate@@@ATL@@UEAAJPEAU_GUID@@@Z 0000000180017790 f i Gate.obj
 0001:00016830       ?GetClassID@?$IPersistStreamInitImpl@VCOPOSGate@@@ATL@@UEAAJPEAU_GUID@@@Z 0000000180017830 f i Gate.obj
 0001:000168d0       ?GetClassInfoExW@AtlModuleRegisterWndClassInfoParamW@ATL@@SAHPEAUHINSTANCE__@@PEB_WPEAUtagWNDCLASSEXW@@@Z 00000001800178d0 f i Gate.obj
 0001:00016920       ?GetClassInfoW@?$IProvideClassInfo2Impl@$1?CLSID_OPOSGate@@3U_GUID@@B$1?DIID__IOPOSGateEvents@@3U2@B$1?LIBID_OposGate_CCO@@3U2@B$00$0A@VCComTypeInfoHolder@ATL@@@ATL@@UEAAJPEAPEAUITypeInfo@@@Z 0000000180017920 f i Gate.obj
 0001:00016960       ?GetClassObject@CComModule@ATL@@QEAAJAEBU_GUID@@0PEAPEAX@Z 0000000180017960 f i Gate.obj
 0001:00016bd0       ?GetClientSite@?$IOleObjectImpl@VCOPOSGate@@@ATL@@UEAAJPEAPEAUIOleClientSite@@@Z 0000000180017bd0 f i Gate.obj
 0001:00016c80       ?GetClipboardData@?$IOleObjectImpl@VCOPOSGate@@@ATL@@UEAAJKPEAPEAUIDataObject@@@Z 0000000180017c80 f i Gate.obj
 0001:00016d10       ?GetCodeAddress@CDynamicStdCallThunk2@ATL@@QEAAPEAXXZ 0000000180017d10 f i Gate.obj
 0001:00016d50       ?GetColorSet@?$IViewObjectExImpl@VCOPOSGate@@@ATL@@UEAAJKJPEAXPEAUtagDVTARGETDEVICE@@PEAUHDC__@@PEAPEAUtagLOGPALETTE@@@Z 0000000180017d50 f i Gate.obj
 0001:00016de0       ?GetConnMap@COPOSGate@@SAPEBU_ATL_CONNMAP_ENTRY@ATL@@PEAH@Z 0000000180017de0 f i Gate.obj
 0001:00016f40       ?GetConnectionInterface@?$IConnectionPointImpl@VCOPOSGate@@$1?DIID__IOPOSGateEvents@@3U_GUID@@BVCComDynamicUnkArray@ATL@@@ATL@@UEAAJPEAU_GUID@@@Z 0000000180017f40 f i Gate.obj
 0001:00016f80       ?GetConnectionInterface@?$IConnectionPointImpl@VCOPOSGate@@$1?IID_IPropertyNotifySink@@3U_GUID@@BVCComDynamicUnkArray@ATL@@@ATL@@UEAAJPEAU_GUID@@@Z 0000000180017f80 f i Gate.obj
 0001:00016fc0       ?GetConnectionPointContainer@?$IConnectionPointImpl@VCOPOSGate@@$1?DIID__IOPOSGateEvents@@3U_GUID@@BVCComDynamicUnkArray@ATL@@@ATL@@UEAAJPEAPEAUIConnectionPointContainer@@@Z 0000000180017fc0 f i Gate.obj
 0001:00017040       ?GetConnectionPointContainer@?$IConnectionPointImpl@VCOPOSGate@@$1?IID_IPropertyNotifySink@@3U_GUID@@BVCComDynamicUnkArray@ATL@@@ATL@@UEAAJPEAPEAUIConnectionPointContainer@@@Z 0000000180018040 f i Gate.obj
 0001:000170c0       ?GetContentExtent@?$IQuickActivateImpl@VCOPOSGate@@@ATL@@UEAAJPEAUtagSIZE@@@Z 00000001800180c0 f i Gate.obj
 0001:00017180       ?GetControlInfo@?$IOleControlImpl@VCOPOSGate@@@ATL@@UEAAJPEAUtagCONTROLINFO@@@Z 0000000180018180 f i Gate.obj
 0001:00017210       ?GetCookie@CComDynamicUnkArray@ATL@@QEAAKPEAPEAUIUnknown@@@Z 0000000180018210 f i Gate.obj
 0001:00017300       ?GetData@?$IDataObjectImpl@VCOPOSGate@@@ATL@@UEAAJPEAUtagFORMATETC@@PEAUtagSTGMEDIUM@@@Z 0000000180018300 f i Gate.obj
 0001:000173c0       ?GetData@CAtlSafeAllocBufferNode@?$CAtlSafeAllocBufferManager@VCCRTAllocator@ATL@@@_ATL_SAFE_ALLOCA_IMPL@ATL@@QEAAPEAXXZ 00000001800183c0 f i Gate.obj
 0001:000173e0       ?GetDataHere@?$IDataObjectImpl@VCOPOSGate@@@ATL@@UEAAJPEAUtagFORMATETC@@PEAUtagSTGMEDIUM@@@Z 00000001800183e0 f i Gate.obj
 0001:00017470       ?GetDropTarget@?$IOleInPlaceObjectWindowlessImpl@VCOPOSGate@@@ATL@@UEAAJPEAPEAUIDropTarget@@@Z 0000000180018470 f i Gate.obj
 0001:00017500       ?GetExtent@?$IOleObjectImpl@VCOPOSGate@@@ATL@@UEAAJKPEAUtagSIZE@@@Z 0000000180018500 f i Gate.obj
 0001:000175d0       ?GetExtent@?$IViewObjectExImpl@VCOPOSGate@@@ATL@@UEAAJKJPEAUtagDVTARGETDEVICE@@PEAUtagSIZE@@@Z 00000001800185d0 f i Gate.obj
 0001:000176e0       ?GetGITPtr@CAtlModule@ATL@@UEAAJPEAPEAUIGlobalInterfaceTable@@@Z 00000001800186e0 f i Gate.obj
 0001:00017820       ?GetGUID@?$IProvideClassInfo2Impl@$1?CLSID_OPOSGate@@3U_GUID@@B$1?DIID__IOPOSGateEvents@@3U2@B$1?LIBID_OposGate_CCO@@3U2@B$00$0A@VCComTypeInfoHolder@ATL@@@ATL@@UEAAJKPEAU_GUID@@@Z 0000000180018820 f i Gate.obj
 0001:000178a0       ?GetIDsOfNames@?$IDispatchImpl@UIOPOSGate@@$1?IID_IOPOSGate@@3U_GUID@@B$1?LIBID_OposGate_CCO@@3U3@B$00$0A@VCComTypeInfoHolder@ATL@@@ATL@@UEAAJAEBU_GUID@@PEAPEA_WIKPEAJ@Z 00000001800188a0 f i Gate.obj
 0001:00017900       ?GetIDsOfNames@CComTypeInfoHolder@ATL@@QEAAJAEBU_GUID@@PEAPEA_WIKPEAJ@Z 0000000180018900 f i Gate.obj
 0001:00017b20       ?GetInterfaceSafetyOptions@?$IObjectSafetyImpl@VCOPOSGate@@$02@ATL@@UEAAJAEBU_GUID@@PEAK1@Z 0000000180018b20 f i Gate.obj
 0001:00017cc0       ?GetKeyAt@?$CSimpleMap@PEA_WPEA_WVCExpansionVectorEqualHelper@ATL@@@ATL@@QEBAAEAPEA_WH@Z 0000000180018cc0 f i Gate.obj
 0001:00017d70       ?GetLockCount@CAtlModule@ATL@@UEAAJXZ 0000000180018d70 f i Gate.obj
 0001:00017d80       ?GetMiscStatus@?$IOleObjectImpl@VCOPOSGate@@@ATL@@UEAAJKPEAK@Z 0000000180018d80 f i Gate.obj
 0001:00017e10       ?GetMoniker@?$IOleObjectImpl@VCOPOSGate@@@ATL@@UEAAJKKPEAPEAUIMoniker@@@Z 0000000180018e10 f i Gate.obj
 0001:00017ea0       ?GetNaturalExtent@?$IViewObjectExImpl@VCOPOSGate@@@ATL@@UEAAJKJPEAUtagDVTARGETDEVICE@@PEAUHDC__@@PEAUtagExtentInfo@@PEAUtagSIZE@@@Z 0000000180018ea0 f i Gate.obj
 0001:00018030       ?GetObjectCLSID@?$CComCoClass@VCOPOSGate@@$1?CLSID_OPOSGate@@3U_GUID@@B@ATL@@SAAEBU_GUID@@XZ 0000000180019030 f i Gate.obj
 0001:00018040       ?GetPages@?$ISpecifyPropertyPagesImpl@VCOPOSGate@@@ATL@@UEAAJPEAUtagCAUUID@@@Z 0000000180019040 f i Gate.obj
 0001:000180d0       ?GetPagesHelper@?$ISpecifyPropertyPagesImpl@VCOPOSGate@@@ATL@@IEAAJPEAUtagCAUUID@@PEBUATL_PROPMAP_ENTRY@2@@Z 00000001800190d0 f i Gate.obj
 0001:00018340       ?GetProperty@?$CComPtr@UIDispatch@@@ATL@@QEAAJJPEAUtagVARIANT@@@Z 0000000180019340 f i Gate.obj
 0001:00018390       ?GetProperty@?$CComPtr@UIDispatch@@@ATL@@SAJPEAUIDispatch@@JPEAUtagVARIANT@@@Z 0000000180019390 f i Gate.obj
 0001:00018560       ?GetPropertyMap@COPOSGate@@SAPEBUATL_PROPMAP_ENTRY@ATL@@XZ 0000000180019560 f i Gate.obj
 0001:00018570       ?GetRect@?$IViewObjectExImpl@VCOPOSGate@@@ATL@@UEAAJKPEAU_RECTL@@@Z 0000000180019570 f i Gate.obj
 0001:00018600       ?GetSize@?$CSimpleMap@PEA_WPEA_WVCExpansionVectorEqualHelper@ATL@@@ATL@@QEBAHXZ 0000000180019600 f i Gate.obj
 0001:00018610       ?GetSize@CComDynamicUnkArray@ATL@@QEBAHXZ 0000000180019610 f i Gate.obj
 0001:00018620       ?GetSizeMax@?$IPersistStreamInitImpl@VCOPOSGate@@@ATL@@UEAAJPEAT_ULARGE_INTEGER@@@Z 0000000180019620 f i Gate.obj
 0001:00018db0       ?GetSizeMax@CComVariant@ATL@@QEBAJPEAT_ULARGE_INTEGER@@@Z 0000000180019db0 f i Gate.obj
 0001:000191e0       ?GetStreamSize@CComBSTR@ATL@@SAKPEA_W@Z 000000018001a1e0 f i Gate.obj
 0001:00019240       ?GetTI@CComTypeInfoHolder@ATL@@QEAAJK@Z 000000018001a240 f i Gate.obj
 0001:00019b10       ?GetTI@CComTypeInfoHolder@ATL@@QEAAJKPEAPEAUITypeInfo@@@Z 000000018001ab10 f i Gate.obj
 0001:00019c00       ?GetTypeInfo@?$IDispatchImpl@UIOPOSGate@@$1?IID_IOPOSGate@@3U_GUID@@B$1?LIBID_OposGate_CCO@@3U3@B$00$0A@VCComTypeInfoHolder@ATL@@@ATL@@UEAAJIKPEAPEAUITypeInfo@@@Z 000000018001ac00 f i Gate.obj
 0001:00019c50       ?GetTypeInfo@CComTypeInfoHolder@ATL@@QEAAJIKPEAPEAUITypeInfo@@@Z 000000018001ac50 f i Gate.obj
 0001:00019cb0       ?GetTypeInfoCount@?$IDispatchImpl@UIOPOSGate@@$1?IID_IOPOSGate@@3U_GUID@@B$1?LIBID_OposGate_CCO@@3U3@B$00$0A@VCComTypeInfoHolder@ATL@@@ATL@@UEAAJPEAI@Z 000000018001acb0 f i Gate.obj
 0001:00019ce0       ?GetUnknown@CComDynamicUnkArray@ATL@@QEAAPEAUIUnknown@@K@Z 000000018001ace0 f i Gate.obj
 0001:00019d90       ?GetUnknown@COPOSGate@@QEAAPEAUIUnknown@@XZ 000000018001ad90 f i Gate.obj
 0001:00019dc0       ?GetUserClassID@?$IOleObjectImpl@VCOPOSGate@@@ATL@@UEAAJPEAU_GUID@@@Z 000000018001adc0 f i Gate.obj
 0001:00019ea0       ?GetUserType@?$IOleObjectImpl@VCOPOSGate@@@ATL@@UEAAJKPEAPEA_W@Z 000000018001aea0 f i Gate.obj
 0001:00019f30       ?GetValueAt@?$CSimpleMap@PEA_WPEA_WVCExpansionVectorEqualHelper@ATL@@@ATL@@QEBAAEAPEA_WH@Z 000000018001af30 f i Gate.obj
 0001:00019fe0       ?GetViewStatus@?$IViewObjectExImpl@VCOPOSGate@@@ATL@@UEAAJPEAK@Z 000000018001afe0 f i Gate.obj
 0001:0001a0e0       ?GetWNDPROC@CWndProcThunk@ATL@@QEAAP6A_JPEAUHWND__@@I_K_J@ZXZ 000000018001b0e0 f i Gate.obj
 0001:0001a120       ?GetWindow@?$IOleInPlaceActiveObjectImpl@VCOPOSGate@@@ATL@@UEAAJPEAPEAUHWND__@@@Z 000000018001b120 f i Gate.obj
 0001:0001a220       ?GetWindow@?$IOleInPlaceObjectWindowlessImpl@VCOPOSGate@@@ATL@@UEAAJPEAPEAUHWND__@@@Z 000000018001b220 f i Gate.obj
 0001:0001a320       ?GetWindowProc@?$CWindowImplBaseT@VCWindow@ATL@@V?$CWinTraits@$0FGAAAAAA@$0A@@2@@ATL@@UEAAP6A_JPEAUHWND__@@I_K_J@ZXZ 000000018001b320 f i Gate.obj
 0001:0001a330       ?GetWndCaption@?$CWindowImpl@VCOPOSGate@@VCWindow@ATL@@V?$CWinTraits@$0FGAAAAAA@$0A@@3@@ATL@@SAPEB_WXZ 000000018001b330 f i Gate.obj
 0001:0001a340       ?GetWndClassInfo@?$CWindowImpl@VCOPOSGate@@VCWindow@ATL@@V?$CWinTraits@$0FGAAAAAA@$0A@@3@@ATL@@SAAEAU_ATL_WNDCLASSINFOW@2@XZ 000000018001b340 f i Gate.obj
 0001:0001a350       ?GetWndClassName@CWindow@ATL@@SAPEB_WXZ 000000018001b350 f i Gate.obj
 0001:0001a360       ?GetWndExStyle@?$CWinTraits@$0FGAAAAAA@$0A@@ATL@@SAKK@Z 000000018001b360 f i Gate.obj
 0001:0001a3a0       ?GetWndExStyle@?$CWindowImplBaseT@VCWindow@ATL@@V?$CWinTraits@$0FGAAAAAA@$0A@@2@@ATL@@SAKK@Z 000000018001b3a0 f i Gate.obj
 0001:0001a3d0       ?GetWndStyle@?$CWinTraits@$0FGAAAAAA@$0A@@ATL@@SAKK@Z 000000018001b3d0 f i Gate.obj
 0001:0001a410       ?GetWndStyle@?$CWindowImplBaseT@VCWindow@ATL@@V?$CWinTraits@$0FGAAAAAA@$0A@@2@@ATL@@SAKK@Z 000000018001b410 f i Gate.obj
 0001:0001a440       ?GetZoomInfo@CComControlBase@ATL@@QEAAXAEAUATL_DRAWINFO@@@Z 000000018001b440 f i Gate.obj
 0001:0001a5f0       ?HKeyFromString@CRegParser@ATL@@KAPEAUHKEY__@@PEA_W@Z 000000018001b5f0 f i Gate.obj
 0001:0001a680       ?HandsOffStorage@?$IPersistStorageImpl@VCOPOSGate@@@ATL@@UEAAJXZ 000000018001b680 f i Gate.obj
 0001:0001a6f0       ?HasSubKeys@CRegParser@ATL@@IEAAHPEAUHKEY__@@@Z 000000018001b6f0 f i Gate.obj
 0001:0001a860       ?IDataObject_GetData@CComControlBase@ATL@@QEAAJPEAUtagFORMATETC@@PEAUtagSTGMEDIUM@@@Z 000000018001b860 f i Gate.obj
 0001:0001ad10       ?IOleInPlaceObject_InPlaceDeactivate@CComControlBase@ATL@@QEAAJXZ 000000018001bd10 f i Gate.obj
 0001:0001af80       ?IOleInPlaceObject_SetObjectRects@CComControlBase@ATL@@QEAAJPEBUtagRECT@@0@Z 000000018001bf80 f i Gate.obj
 0001:0001b160       ?IOleInPlaceObject_UIDeactivate@CComControlBase@ATL@@QEAAJXZ 000000018001c160 f i Gate.obj
 0001:0001b3d0       ?IOleObject_Advise@CComControlBase@ATL@@QEAAJPEAUIAdviseSink@@PEAK@Z 000000018001c3d0 f i Gate.obj
 0001:0001b480       ?IOleObject_Close@CComControlBase@ATL@@QEAAJK@Z 000000018001c480 f i Gate.obj
 0001:0001b7f0       ?IOleObject_GetClientSite@CComControlBase@ATL@@QEAAJPEAPEAUIOleClientSite@@@Z 000000018001c7f0 f i Gate.obj
 0001:0001b8c0       ?IOleObject_SetClientSite@CComControlBase@ATL@@QEAAJPEAUIOleClientSite@@@Z 000000018001c8c0 f i Gate.obj
 0001:0001b9d0       ?IOleObject_SetExtent@CComControlBase@ATL@@QEAAJKPEAUtagSIZE@@@Z 000000018001c9d0 f i Gate.obj
 0001:0001bb40       ?IPSI_GetIPersistStreamInit@?$IPersistStorageImpl@VCOPOSGate@@@ATL@@AEAAPEAUIPersistStreamInit@@XZ 000000018001cb40 f i Gate.obj
 0001:0001bc00       ?IPersistStreamInit_Load@?$IPersistStreamInitImpl@VCOPOSGate@@@ATL@@QEAAJPEAUIStream@@PEBUATL_PROPMAP_ENTRY@2@@Z 000000018001cc00 f i Gate.obj
 0001:0001bca0       ?IPersistStreamInit_Save@?$IPersistStreamInitImpl@VCOPOSGate@@@ATL@@QEAAJPEAUIStream@@HPEBUATL_PROPMAP_ENTRY@2@@Z 000000018001cca0 f i Gate.obj
 0001:0001bd60       ?IQuickActivate_QuickActivate@CComControlBase@ATL@@QEAAJPEAUtagQACONTAINER@@PEAUtagQACONTROL@@@Z 000000018001cd60 f i Gate.obj
 0001:0001c5a0       ?IViewObject_Draw@CComControlBase@ATL@@QEAAJKJPEAXPEAUtagDVTARGETDEVICE@@PEAUHDC__@@2PEBU_RECTL@@3@Z 000000018001d5a0 f i Gate.obj
 0001:0001c9f0       ?InPlaceActivate@CComControlBase@ATL@@QEAAJJPEBUtagRECT@@@Z 000000018001d9f0 f i Gate.obj
 0001:0001d590       ?InPlaceDeactivate@?$IOleInPlaceObjectWindowlessImpl@VCOPOSGate@@@ATL@@UEAAJXZ 000000018001e590 f i Gate.obj
 0001:0001d640       ?Increment@CComMultiThreadModel@ATL@@SAKPEAJ@Z 000000018001e640 f i Gate.obj
 0001:0001d660       ?Increment@CComSingleThreadModel@ATL@@SAKPEAJ@Z 000000018001e660 f i Gate.obj
 0001:0001d680       ?Init@?$CComEnumImpl@UIEnumConnectionPoints@@$1?_GUID_b196b285_bab4_101a_b69c_00aa00341d07@@3U__s_GUID@@BPEAUIConnectionPoint@@V?$_CopyInterface@UIConnectionPoint@@@ATL@@@ATL@@QEAAJPEAPEAUIConnectionPoint@@0PEAUIUnknown@@W4CComEnumFlags@2@@Z 000000018001e680 f i Gate.obj
 0001:0001d970       ?Init@?$CComEnumImpl@UIEnumConnections@@$1?_GUID_b196b287_bab4_101a_b69c_00aa00341d07@@3U__s_GUID@@BUtagCONNECTDATA@@V?$_Copy@UtagCONNECTDATA@@@ATL@@@ATL@@QEAAJPEAUtagCONNECTDATA@@0PEAUIUnknown@@W4CComEnumFlags@2@@Z 000000018001e970 f i Gate.obj
 0001:0001dc60       ?Init@CComFakeCriticalSection@ATL@@QEAAJXZ 000000018001ec60 f i Gate.obj
 0001:0001dc70       ?Init@CComModule@ATL@@QEAAJPEAU_ATL_OBJMAP_ENTRY30@2@PEAUHINSTANCE__@@PEBU_GUID@@@Z 000000018001ec70 f i Gate.obj
 0001:0001dd60       ?Init@CComSafeDeleteCriticalSection@ATL@@QEAAJXZ 000000018001ed60 f i Gate.obj
 0001:0001ddf0       ?Init@CDynamicStdCallThunk2@ATL@@QEAAH_KPEAX@Z 000000018001edf0 f i Gate.obj
 0001:0001de70       ?Init@CWndProcThunk@ATL@@QEAAHP6A_JPEAUHWND__@@I_K_J@ZPEAX@Z 000000018001ee70 f i Gate.obj
 0001:0001dec0       ?InitFromData@?$IOleObjectImpl@VCOPOSGate@@@ATL@@UEAAJPEAUIDataObject@@HK@Z 000000018001eec0 f i Gate.obj
 0001:0001df50       ?InitLibId@?$CAtlModuleT@VCComModule@ATL@@@ATL@@SAXXZ 000000018001ef50 f i Gate.obj
 0001:0001df60       ?InitNew@?$IPersistStorageImpl@VCOPOSGate@@@ATL@@UEAAJPEAUIStorage@@@Z 000000018001ef60 f i Gate.obj
 0001:0001e050       ?InitNew@?$IPersistStreamInitImpl@VCOPOSGate@@@ATL@@UEAAJXZ 000000018001f050 f i Gate.obj
 0001:0001e100       ?InlineIsEqualUnknown@ATL@@YAHAEBU_GUID@@@Z 000000018001f100 f i Gate.obj
 0001:0001e190       ?InternalAddRef@?$CComObjectRootEx@VCComMultiThreadModel@ATL@@@ATL@@QEAAKXZ 000000018001f190 f i Gate.obj
 0001:0001e210       ?InternalAddRef@?$CComObjectRootEx@VCComSingleThreadModel@ATL@@@ATL@@QEAAKXZ 000000018001f210 f i Gate.obj
 0001:0001e290       ?InternalFinalConstructAddRef@CComObjectRootBase@ATL@@QEAAXXZ 000000018001f290 f i Gate.obj
 0001:0001e2a0       ?InternalFinalConstructAddRef@COPOSGate@@QEAAXXZ 000000018001f2a0 f i Gate.obj
 0001:0001e2e0       ?InternalFinalConstructRelease@CComObjectRootBase@ATL@@QEAAXXZ 000000018001f2e0 f i Gate.obj
 0001:0001e350       ?InternalFinalConstructRelease@COPOSGate@@QEAAXXZ 000000018001f350 f i Gate.obj
 0001:0001e390       ?InternalGetSite@CComControlBase@ATL@@QEAAJAEBU_GUID@@PEAPEAX@Z 000000018001f390 f i Gate.obj
 0001:0001e470       ?InternalQueryInterface@CComObjectRootBase@ATL@@SAJPEAXPEBU_ATL_INTMAP_ENTRY@2@AEBU_GUID@@PEAPEAX@Z 000000018001f470 f i Gate.obj
 0001:0001e590       ?InternalRelease@?$CComObjectRootEx@VCComMultiThreadModel@ATL@@@ATL@@QEAAKXZ 000000018001f590 f i Gate.obj
 0001:0001e610       ?InternalRelease@?$CComObjectRootEx@VCComSingleThreadModel@ATL@@@ATL@@QEAAKXZ 000000018001f610 f i Gate.obj
 0001:0001e690       ?InternalSetAtIndex@?$CSimpleArray@GV?$CSimpleArrayEqualHelper@G@ATL@@@ATL@@QEAAXHAEBG@Z 000000018001f690 f i Gate.obj
 0001:0001e710       ?InternalSetAtIndex@?$CSimpleMap@PEA_WPEA_WVCExpansionVectorEqualHelper@ATL@@@ATL@@QEAAXHAEBQEA_W0@Z 000000018001f710 f i Gate.obj
 0001:0001e7e0       ?Invoke@?$IDispatchImpl@UIOPOSGate@@$1?IID_IOPOSGate@@3U_GUID@@B$1?LIBID_OposGate_CCO@@3U3@B$00$0A@VCComTypeInfoHolder@ATL@@@ATL@@UEAAJJAEBU_GUID@@KGPEAUtagDISPPARAMS@@PEAUtagVARIANT@@PEAUtagEXCEPINFO@@PEAI@Z 000000018001f7e0 f i Gate.obj
 0001:0001e880       ?Invoke@CComTypeInfoHolder@ATL@@QEAAJPEAUIDispatch@@JAEBU_GUID@@KGPEAUtagDISPPARAMS@@PEAUtagVARIANT@@PEAUtagEXCEPINFO@@PEAI@Z 000000018001f880 f i Gate.obj
 0001:0001e940       ?IsDirty@?$IPersistStorageImpl@VCOPOSGate@@@ATL@@UEAAJXZ 000000018001f940 f i Gate.obj
 0001:0001ea30       ?IsDirty@?$IPersistStreamInitImpl@VCOPOSGate@@@ATL@@UEAAJXZ 000000018001fa30 f i Gate.obj
 0001:0001eaf0       ?IsEqualKey@CExpansionVectorEqualHelper@ATL@@SA_NQEA_W0@Z 000000018001faf0 f i Gate.obj
 0001:0001eb40       ?IsEqualObject@?$CComPtrBase@UIOleClientSite@@@ATL@@QEAA_NPEAUIUnknown@@@Z 000000018001fb40 f i Gate.obj
 0001:0001ec90       ?IsEqualObject@?$CComPtrBase@UITypeInfo@@@ATL@@QEAA_NPEAUIUnknown@@@Z 000000018001fc90 f i Gate.obj
 0001:0001ede0       ?IsSpace@CRegParser@ATL@@IEAAH_W@Z 000000018001fde0 f i Gate.obj
 0001:0001ee40       ?IsUpToDate@?$IOleObjectImpl@VCOPOSGate@@@ATL@@UEAAJXZ 000000018001fe40 f i Gate.obj
 0001:0001eeb0       ?Length@CComBSTR@ATL@@QEBAIXZ 000000018001feb0 f i Gate.obj
 0001:0001eef0       ?Load@?$IPersistStorageImpl@VCOPOSGate@@@ATL@@UEAAJPEAUIStorage@@@Z 000000018001fef0 f i Gate.obj
 0001:0001f0a0       ?Load@?$IPersistStreamInitImpl@VCOPOSGate@@@ATL@@UEAAJPEAUIStream@@@Z 00000001800200a0 f i Gate.obj
 0001:0001f160       ?LoadCursorW@AtlModuleRegisterWndClassInfoParamW@ATL@@SAPEAUHICON__@@PEAUHINSTANCE__@@PEB_W@Z 0000000180020160 f i Gate.obj
 0001:0001f1a0       ?LoadNameCache@CComTypeInfoHolder@ATL@@QEAAJPEAUITypeInfo@@@Z 00000001800201a0 f i Gate.obj
 0001:0001f4e0       ?Lock@?$CComCritSecLock@VCComCriticalSection@ATL@@@ATL@@QEAAJXZ 00000001800204e0 f i Gate.obj
 0001:0001f5d0       ?Lock@?$CComObjectRootEx@VCComSingleThreadModel@ATL@@@ATL@@QEAAXXZ 00000001800205d0 f i Gate.obj
 0001:0001f5e0       ?Lock@CAtlModule@ATL@@UEAAJXZ 00000001800205e0 f i Gate.obj
 0001:0001f620       ?Lock@CComCriticalSection@ATL@@QEAAJXZ 0000000180020620 f i Gate.obj
 0001:0001f660       ?Lock@CComFakeCriticalSection@ATL@@QEAAJXZ 0000000180020660 f i Gate.obj
 0001:0001f670       ?LockServer@CComClassFactory@ATL@@UEAAJH@Z 0000000180020670 f i Gate.obj
 0001:0001f6d0       ?Lookup@?$CSimpleMap@PEA_WPEA_WVCExpansionVectorEqualHelper@ATL@@@ATL@@QEBAPEA_WAEBQEA_W@Z 00000001800206d0 f i Gate.obj
 0001:0001f730       ?Next@?$CComEnumImpl@UIEnumConnectionPoints@@$1?_GUID_b196b285_bab4_101a_b69c_00aa00341d07@@3U__s_GUID@@BPEAUIConnectionPoint@@V?$_CopyInterface@UIConnectionPoint@@@ATL@@@ATL@@UEAAJKPEAPEAUIConnectionPoint@@PEAK@Z 0000000180020730 f i Gate.obj
 0001:0001f8f0       ?Next@?$CComEnumImpl@UIEnumConnections@@$1?_GUID_b196b287_bab4_101a_b69c_00aa00341d07@@3U__s_GUID@@BUtagCONNECTDATA@@V?$_Copy@UtagCONNECTDATA@@@ATL@@@ATL@@UEAAJKPEAUtagCONNECTDATA@@PEAK@Z 00000001800208f0 f i Gate.obj
 0001:0001fab0       ?NextToken@CRegParser@ATL@@IEAAJPEA_W@Z 0000000180020ab0 f i Gate.obj
 0001:0001fe40       ?OLE2CT_EX@@YAPEB_WPEB_WI@Z 0000000180020e40 f i Gate.obj
 0001:0001fe60       ?OLE2CT_EX_DEF@@YAPEB_WPEB_W@Z 0000000180020e60 f i Gate.obj
 0001:0001fe70       ?OLE2T_EX@@YAPEA_WPEA_WI@Z 0000000180020e70 f i Gate.obj
 0001:0001fe90       ?OnAmbientPropertyChange@?$IOleControlImpl@VCOPOSGate@@@ATL@@UEAAJJ@Z 0000000180020e90 f i Gate.obj
 0001:0001ff50       ?OnDocWindowActivate@?$IOleInPlaceActiveObjectImpl@VCOPOSGate@@@ATL@@UEAAJH@Z 0000000180020f50 f i Gate.obj
 0001:00020010       ?OnDrawAdvanced@CComControlBase@ATL@@UEAAJAEAUATL_DRAWINFO@@@Z 0000000180021010 f i Gate.obj
 0001:00020260       ?OnFinalMessage@?$CWindowImplBaseT@VCWindow@ATL@@V?$CWinTraits@$0FGAAAAAA@$0A@@2@@ATL@@UEAAXPEAUHWND__@@@Z 0000000180021260 f i Gate.obj
 0001:00020270       ?OnFrameWindowActivate@?$IOleInPlaceActiveObjectImpl@VCOPOSGate@@@ATL@@UEAAJH@Z 0000000180021270 f i Gate.obj
 0001:000202e0       ?OnKillFocus@CComControlBase@ATL@@QEAA_JI_K_JAEAH@Z 00000001800212e0 f i Gate.obj
 0001:000203d0       ?OnMnemonic@?$IOleControlImpl@VCOPOSGate@@@ATL@@UEAAJPEAUtagMSG@@@Z 00000001800213d0 f i Gate.obj
 0001:00020460       ?OnMouseActivate@CComControlBase@ATL@@QEAA_JI_K_JAEAH@Z 0000000180021460 f i Gate.obj
 0001:00020600       ?OnPaint@CComControlBase@ATL@@QEAA_JI_K_JAEAH@Z 0000000180021600 f i Gate.obj
 0001:00020790       ?OnPostVerbDiscardUndo@?$IOleObjectImpl@VCOPOSGate@@@ATL@@QEAAJXZ 0000000180021790 f i Gate.obj
 0001:000207a0       ?OnPostVerbHide@?$IOleObjectImpl@VCOPOSGate@@@ATL@@QEAAJXZ 00000001800217a0 f i Gate.obj
 0001:000207b0       ?OnPostVerbInPlaceActivate@?$IOleObjectImpl@VCOPOSGate@@@ATL@@QEAAJXZ 00000001800217b0 f i Gate.obj
 0001:000207c0       ?OnPostVerbOpen@?$IOleObjectImpl@VCOPOSGate@@@ATL@@QEAAJXZ 00000001800217c0 f i Gate.obj
 0001:000207d0       ?OnPostVerbShow@?$IOleObjectImpl@VCOPOSGate@@@ATL@@QEAAJXZ 00000001800217d0 f i Gate.obj
 0001:000207e0       ?OnPostVerbUIActivate@?$IOleObjectImpl@VCOPOSGate@@@ATL@@QEAAJXZ 00000001800217e0 f i Gate.obj
 0001:000207f0       ?OnPreVerbDiscardUndo@?$IOleObjectImpl@VCOPOSGate@@@ATL@@QEAAJXZ 00000001800217f0 f i Gate.obj
 0001:00020800       ?OnPreVerbHide@?$IOleObjectImpl@VCOPOSGate@@@ATL@@QEAAJXZ 0000000180021800 f i Gate.obj
 0001:00020810       ?OnPreVerbInPlaceActivate@?$IOleObjectImpl@VCOPOSGate@@@ATL@@QEAAJXZ 0000000180021810 f i Gate.obj
 0001:00020820       ?OnPreVerbOpen@?$IOleObjectImpl@VCOPOSGate@@@ATL@@QEAAJXZ 0000000180021820 f i Gate.obj
 0001:00020830       ?OnPreVerbShow@?$IOleObjectImpl@VCOPOSGate@@@ATL@@QEAAJXZ 0000000180021830 f i Gate.obj
 0001:00020840       ?OnPreVerbUIActivate@?$IOleObjectImpl@VCOPOSGate@@@ATL@@QEAAJXZ 0000000180021840 f i Gate.obj
 0001:00020850       ?OnSetFocus@CComControlBase@ATL@@QEAA_JI_K_JAEAH@Z 0000000180021850 f i Gate.obj
 0001:00020a50       ?OnWindowMessage@?$IOleInPlaceObjectWindowlessImpl@VCOPOSGate@@@ATL@@UEAAJI_K_JPEA_J@Z 0000000180021a50 f i Gate.obj
 0001:00020c70       ?Open@CRegKey@ATL@@QEAAJPEAUHKEY__@@PEB_WK@Z 0000000180021c70 f i Gate.obj
 0001:00020df0       ?OuterAddRef@CComObjectRootBase@ATL@@QEAAKXZ 0000000180021df0 f i Gate.obj
 0001:00020e30       ?OuterQueryInterface@CComObjectRootBase@ATL@@QEAAJAEBU_GUID@@PEAPEAX@Z 0000000180021e30 f i Gate.obj
 0001:00020e80       ?OuterRelease@CComObjectRootBase@ATL@@QEAAKXZ 0000000180021e80 f i Gate.obj
 0001:00020ec0       ?PreProcessBuffer@CRegParser@ATL@@QEAAJPEA_WPEAPEA_W@Z 0000000180021ec0 f i Gate.obj
 0001:000215a0       ?PreTranslateAccelerator@CComControlBase@ATL@@QEAAHPEAUtagMSG@@AEAJ@Z 00000001800225a0 f i Gate.obj
 0001:000215c0       ?ProcessWindowMessage@?$CComControl@VCOPOSGate@@V?$CWindowImpl@VCOPOSGate@@VCWindow@ATL@@V?$CWinTraits@$0FGAAAAAA@$0A@@3@@ATL@@@ATL@@UEAAHPEAUHWND__@@I_K_JAEA_JK@Z 00000001800225c0 f i Gate.obj
 0001:00021840       ?ProcessWindowMessage@COPOSGate@@UEAAHPEAUHWND__@@I_K_JAEA_JK@Z 0000000180022840 f i Gate.obj
 0001:000219c0       ?PutProperty@?$CComPtr@UIDispatch@@@ATL@@QEAAJJPEAUtagVARIANT@@@Z 00000001800229c0 f i Gate.obj
 0001:00021a10       ?PutProperty@?$CComPtr@UIDispatch@@@ATL@@SAJPEAUIDispatch@@JPEAUtagVARIANT@@@Z 0000000180022a10 f i Gate.obj
 0001:00021cb0       ?QueryGetData@?$IDataObjectImpl@VCOPOSGate@@@ATL@@UEAAJPEAUtagFORMATETC@@@Z 0000000180022cb0 f i Gate.obj
 0001:00021d40       ?QueryHitPoint@?$IViewObjectExImpl@VCOPOSGate@@@ATL@@UEAAJKPEBUtagRECT@@UtagPOINT@@JPEAK@Z 0000000180022d40 f i Gate.obj
 0001:00021eb0       ?QueryHitRect@?$IViewObjectExImpl@VCOPOSGate@@@ATL@@UEAAJKPEBUtagRECT@@0JPEAK@Z 0000000180022eb0 f i Gate.obj
 0001:00022080       ?QueryInterface@?$CComAggObject@VCOPOSGate@@@ATL@@UEAAJAEBU_GUID@@PEAPEAX@Z 0000000180023080 f i Gate.obj
 0001:00022170       ?QueryInterface@?$CComContainedObject@VCOPOSGate@@@ATL@@UEAAJAEBU_GUID@@PEAPEAX@Z 0000000180023170 f i Gate.obj
 0001:000221bc       ?QueryInterface@?$CComContainedObject@VCOPOSGate@@@ATL@@WBAA@EAAJAEBU_GUID@@PEAPEAX@Z 00000001800231bc f i Gate.obj
 0001:000221c8       ?QueryInterface@?$CComContainedObject@VCOPOSGate@@@ATL@@WBAI@EAAJAEBU_GUID@@PEAPEAX@Z 00000001800231c8 f i Gate.obj
 0001:000221d4       ?QueryInterface@?$CComContainedObject@VCOPOSGate@@@ATL@@WBBA@EAAJAEBU_GUID@@PEAPEAX@Z 00000001800231d4 f i Gate.obj
 0001:000221e0       ?QueryInterface@?$CComContainedObject@VCOPOSGate@@@ATL@@WBBI@EAAJAEBU_GUID@@PEAPEAX@Z 00000001800231e0 f i Gate.obj
 0001:000221ec       ?QueryInterface@?$CComContainedObject@VCOPOSGate@@@ATL@@WLI@EAAJAEBU_GUID@@PEAPEAX@Z 00000001800231ec f i Gate.obj
 0001:000221f8       ?QueryInterface@?$CComContainedObject@VCOPOSGate@@@ATL@@WMA@EAAJAEBU_GUID@@PEAPEAX@Z 00000001800231f8 f i Gate.obj
 0001:00022204       ?QueryInterface@?$CComContainedObject@VCOPOSGate@@@ATL@@WMI@EAAJAEBU_GUID@@PEAPEAX@Z 0000000180023204 f i Gate.obj
 0001:00022210       ?QueryInterface@?$CComContainedObject@VCOPOSGate@@@ATL@@WNA@EAAJAEBU_GUID@@PEAPEAX@Z 0000000180023210 f i Gate.obj
 0001:0002221c       ?QueryInterface@?$CComContainedObject@VCOPOSGate@@@ATL@@WNI@EAAJAEBU_GUID@@PEAPEAX@Z 000000018002321c f i Gate.obj
 0001:00022228       ?QueryInterface@?$CComContainedObject@VCOPOSGate@@@ATL@@WOA@EAAJAEBU_GUID@@PEAPEAX@Z 0000000180023228 f i Gate.obj
 0001:00022234       ?QueryInterface@?$CComContainedObject@VCOPOSGate@@@ATL@@WOI@EAAJAEBU_GUID@@PEAPEAX@Z 0000000180023234 f i Gate.obj
 0001:00022240       ?QueryInterface@?$CComContainedObject@VCOPOSGate@@@ATL@@WPA@EAAJAEBU_GUID@@PEAPEAX@Z 0000000180023240 f i Gate.obj
 0001:0002224c       ?QueryInterface@?$CComContainedObject@VCOPOSGate@@@ATL@@WPI@EAAJAEBU_GUID@@PEAPEAX@Z 000000018002324c f i Gate.obj
 0001:00022260       ?QueryInterface@?$CComObject@V?$CComEnum@UIEnumConnectionPoints@@$1?_GUID_b196b285_bab4_101a_b69c_00aa00341d07@@3U__s_GUID@@BPEAUIConnectionPoint@@V?$_CopyInterface@UIConnectionPoint@@@ATL@@VCComSingleThreadModel@6@@ATL@@@ATL@@UEAAJAEBU_GUID@@PEAPEAX@Z 0000000180023260 f i Gate.obj
 0001:000222b0       ?QueryInterface@?$CComObject@V?$CComEnum@UIEnumConnections@@$1?_GUID_b196b287_bab4_101a_b69c_00aa00341d07@@3U__s_GUID@@BUtagCONNECTDATA@@V?$_Copy@UtagCONNECTDATA@@@ATL@@VCComSingleThreadModel@6@@ATL@@@ATL@@UEAAJAEBU_GUID@@PEAPEAX@Z 00000001800232b0 f i Gate.obj
 0001:00022300       ?QueryInterface@?$CComObject@VCOPOSGate@@@ATL@@UEAAJAEBU_GUID@@PEAPEAX@Z 0000000180023300 f i Gate.obj
 0001:00022344       ?QueryInterface@?$CComObject@VCOPOSGate@@@ATL@@WBAA@EAAJAEBU_GUID@@PEAPEAX@Z 0000000180023344 f i Gate.obj
 0001:00022350       ?QueryInterface@?$CComObject@VCOPOSGate@@@ATL@@WBAI@EAAJAEBU_GUID@@PEAPEAX@Z 0000000180023350 f i Gate.obj
 0001:0002235c       ?QueryInterface@?$CComObject@VCOPOSGate@@@ATL@@WBBA@EAAJAEBU_GUID@@PEAPEAX@Z 000000018002335c f i Gate.obj
 0001:00022368       ?QueryInterface@?$CComObject@VCOPOSGate@@@ATL@@WBBI@EAAJAEBU_GUID@@PEAPEAX@Z 0000000180023368 f i Gate.obj
 0001:00022374       ?QueryInterface@?$CComObject@VCOPOSGate@@@ATL@@WLI@EAAJAEBU_GUID@@PEAPEAX@Z 0000000180023374 f i Gate.obj
 0001:00022380       ?QueryInterface@?$CComObject@VCOPOSGate@@@ATL@@WMA@EAAJAEBU_GUID@@PEAPEAX@Z 0000000180023380 f i Gate.obj
 0001:0002238c       ?QueryInterface@?$CComObject@VCOPOSGate@@@ATL@@WMI@EAAJAEBU_GUID@@PEAPEAX@Z 000000018002338c f i Gate.obj
 0001:00022398       ?QueryInterface@?$CComObject@VCOPOSGate@@@ATL@@WNA@EAAJAEBU_GUID@@PEAPEAX@Z 0000000180023398 f i Gate.obj
 0001:000223a4       ?QueryInterface@?$CComObject@VCOPOSGate@@@ATL@@WNI@EAAJAEBU_GUID@@PEAPEAX@Z 00000001800233a4 f i Gate.obj
 0001:000223b0       ?QueryInterface@?$CComObject@VCOPOSGate@@@ATL@@WOA@EAAJAEBU_GUID@@PEAPEAX@Z 00000001800233b0 f i Gate.obj
 0001:000223bc       ?QueryInterface@?$CComObject@VCOPOSGate@@@ATL@@WOI@EAAJAEBU_GUID@@PEAPEAX@Z 00000001800233bc f i Gate.obj
 0001:000223c8       ?QueryInterface@?$CComObject@VCOPOSGate@@@ATL@@WPA@EAAJAEBU_GUID@@PEAPEAX@Z 00000001800233c8 f i Gate.obj
 0001:000223d4       ?QueryInterface@?$CComObject@VCOPOSGate@@@ATL@@WPI@EAAJAEBU_GUID@@PEAPEAX@Z 00000001800233d4 f i Gate.obj
 0001:000223e0       ?QueryInterface@?$CComObjectCached@VCComClassFactory@ATL@@@ATL@@UEAAJAEBU_GUID@@PEAPEAX@Z 00000001800233e0 f i Gate.obj
 0001:00022430       ?QueryInterface@CRegObject@ATL@@UEAAJAEBU_GUID@@PEAPEAX@Z 0000000180023430 f i Gate.obj
 0001:000224b0       ?QuickActivate@?$IQuickActivateImpl@VCOPOSGate@@@ATL@@UEAAJPEAUtagQACONTAINER@@PEAUtagQACONTROL@@@Z 00000001800234b0 f i Gate.obj
 0001:00022570       ?ReactivateAndUndo@?$IOleInPlaceObjectWindowlessImpl@VCOPOSGate@@@ATL@@UEAAJXZ 0000000180023570 f i Gate.obj
 0001:000225f0       ?ReadFromStream@CComBSTR@ATL@@QEAAJPEAUIStream@@@Z 00000001800235f0 f i Gate.obj
 0001:00022ad0       ?ReadFromStream@CComVariant@ATL@@QEAAJPEAUIStream@@GTClassesAllowedInStream@2@K@Z 0000000180023ad0 f i Gate.obj
 0001:00022f00       ?RecurseDeleteKey@CRegKey@ATL@@QEAAJPEB_W@Z 0000000180023f00 f i Gate.obj
 0001:00023120       ?RegCreateKeyExW@CAtlTransactionManager@ATL@@QEAAJPEAUHKEY__@@PEB_WKPEA_WKKQEAU_SECURITY_ATTRIBUTES@@PEAPEAU3@PEAK@Z 0000000180024120 f i Gate.obj
 0001:000232f0       ?RegDeleteKeyW@CAtlTransactionManager@ATL@@QEAAJPEAUHKEY__@@PEB_W@Z 00000001800242f0 f i Gate.obj
 0001:00023400       ?RegOpenKeyExW@CAtlTransactionManager@ATL@@QEAAJPEAUHKEY__@@PEB_WKKPEAPEAU3@@Z 0000000180024400 f i Gate.obj
 0001:00023550       ?Register@_ATL_WNDCLASSINFOW@ATL@@QEAAGPEAP6A_JPEAUHWND__@@I_K_J@Z@Z 0000000180024550 f i Gate.obj
 0001:000235a0       ?RegisterBuffer@CRegParser@ATL@@QEAAJPEA_WH@Z 00000001800245a0 f i Gate.obj
 0001:00023990       ?RegisterClassExW@AtlModuleRegisterWndClassInfoParamW@ATL@@SAGPEAU_ATL_WIN_MODULE70@2@PEBUtagWNDCLASSEXW@@@Z 0000000180024990 f i Gate.obj
 0001:000239d0       ?RegisterFromResource@CRegObject@ATL@@IEAAJPEB_W00H@Z 00000001800249d0 f i Gate.obj
 0001:00023e30       ?RegisterServer@?$CAtlModuleT@VCComModule@ATL@@@ATL@@QEAAJHPEBU_GUID@@@Z 0000000180024e30 f i Gate.obj
 0001:00023eb0       ?RegisterServer@CAtlComModule@ATL@@QEAAJHPEBU_GUID@@@Z 0000000180024eb0 f i Gate.obj
 0001:00023ef0       ?RegisterServer@CComModule@ATL@@QEAAJHPEBU_GUID@@@Z 0000000180024ef0 f i Gate.obj
 0001:00023ff0       ?RegisterSubkeys@CRegParser@ATL@@IEAAJPEA_WPEAUHKEY__@@HH@Z 0000000180024ff0 f i Gate.obj
 0001:00024dd0       ?Release@?$CComAggObject@VCOPOSGate@@@ATL@@UEAAKXZ 0000000180025dd0 f i Gate.obj
 0001:00024e80       ?Release@?$CComContainedObject@VCOPOSGate@@@ATL@@UEAAKXZ 0000000180025e80 f i Gate.obj
 0001:00024eb8       ?Release@?$CComContainedObject@VCOPOSGate@@@ATL@@WBAA@EAAKXZ 0000000180025eb8 f i Gate.obj
 0001:00024ec4       ?Release@?$CComContainedObject@VCOPOSGate@@@ATL@@WBAI@EAAKXZ 0000000180025ec4 f i Gate.obj
 0001:00024ed0       ?Release@?$CComContainedObject@VCOPOSGate@@@ATL@@WBBA@EAAKXZ 0000000180025ed0 f i Gate.obj
 0001:00024edc       ?Release@?$CComContainedObject@VCOPOSGate@@@ATL@@WBBI@EAAKXZ 0000000180025edc f i Gate.obj
 0001:00024ee8       ?Release@?$CComContainedObject@VCOPOSGate@@@ATL@@WBCI@EAAKXZ 0000000180025ee8 f i Gate.obj
 0001:00024ef4       ?Release@?$CComContainedObject@VCOPOSGate@@@ATL@@WBEA@EAAKXZ 0000000180025ef4 f i Gate.obj
 0001:00024f00       ?Release@?$CComContainedObject@VCOPOSGate@@@ATL@@WLI@EAAKXZ 0000000180025f00 f i Gate.obj
 0001:00024f0c       ?Release@?$CComContainedObject@VCOPOSGate@@@ATL@@WMA@EAAKXZ 0000000180025f0c f i Gate.obj
 0001:00024f18       ?Release@?$CComContainedObject@VCOPOSGate@@@ATL@@WMI@EAAKXZ 0000000180025f18 f i Gate.obj
 0001:00024f24       ?Release@?$CComContainedObject@VCOPOSGate@@@ATL@@WNA@EAAKXZ 0000000180025f24 f i Gate.obj
 0001:00024f30       ?Release@?$CComContainedObject@VCOPOSGate@@@ATL@@WNI@EAAKXZ 0000000180025f30 f i Gate.obj
 0001:00024f3c       ?Release@?$CComContainedObject@VCOPOSGate@@@ATL@@WOA@EAAKXZ 0000000180025f3c f i Gate.obj
 0001:00024f48       ?Release@?$CComContainedObject@VCOPOSGate@@@ATL@@WOI@EAAKXZ 0000000180025f48 f i Gate.obj
 0001:00024f54       ?Release@?$CComContainedObject@VCOPOSGate@@@ATL@@WPA@EAAKXZ 0000000180025f54 f i Gate.obj
 0001:00024f60       ?Release@?$CComContainedObject@VCOPOSGate@@@ATL@@WPI@EAAKXZ 0000000180025f60 f i Gate.obj
 0001:00024f70       ?Release@?$CComObject@V?$CComEnum@UIEnumConnectionPoints@@$1?_GUID_b196b285_bab4_101a_b69c_00aa00341d07@@3U__s_GUID@@BPEAUIConnectionPoint@@V?$_CopyInterface@UIConnectionPoint@@@ATL@@VCComSingleThreadModel@6@@ATL@@@ATL@@UEAAKXZ 0000000180025f70 f i Gate.obj
 0001:00025020       ?Release@?$CComObject@V?$CComEnum@UIEnumConnections@@$1?_GUID_b196b287_bab4_101a_b69c_00aa00341d07@@3U__s_GUID@@BUtagCONNECTDATA@@V?$_Copy@UtagCONNECTDATA@@@ATL@@VCComSingleThreadModel@6@@ATL@@@ATL@@UEAAKXZ 0000000180026020 f i Gate.obj
 0001:000250d0       ?Release@?$CComObject@VCOPOSGate@@@ATL@@UEAAKXZ 00000001800260d0 f i Gate.obj
 0001:00025188       ?Release@?$CComObject@VCOPOSGate@@@ATL@@WBAA@EAAKXZ 0000000180026188 f i Gate.obj
 0001:00025194       ?Release@?$CComObject@VCOPOSGate@@@ATL@@WBAI@EAAKXZ 0000000180026194 f i Gate.obj
 0001:000251a0       ?Release@?$CComObject@VCOPOSGate@@@ATL@@WBBA@EAAKXZ 00000001800261a0 f i Gate.obj
 0001:000251ac       ?Release@?$CComObject@VCOPOSGate@@@ATL@@WBBI@EAAKXZ 00000001800261ac f i Gate.obj
 0001:000251b8       ?Release@?$CComObject@VCOPOSGate@@@ATL@@WBCI@EAAKXZ 00000001800261b8 f i Gate.obj
 0001:000251c4       ?Release@?$CComObject@VCOPOSGate@@@ATL@@WBEA@EAAKXZ 00000001800261c4 f i Gate.obj
 0001:000251d0       ?Release@?$CComObject@VCOPOSGate@@@ATL@@WLI@EAAKXZ 00000001800261d0 f i Gate.obj
 0001:000251dc       ?Release@?$CComObject@VCOPOSGate@@@ATL@@WMA@EAAKXZ 00000001800261dc f i Gate.obj
 0001:000251e8       ?Release@?$CComObject@VCOPOSGate@@@ATL@@WMI@EAAKXZ 00000001800261e8 f i Gate.obj
 0001:000251f4       ?Release@?$CComObject@VCOPOSGate@@@ATL@@WNA@EAAKXZ 00000001800261f4 f i Gate.obj
 0001:00025200       ?Release@?$CComObject@VCOPOSGate@@@ATL@@WNI@EAAKXZ 0000000180026200 f i Gate.obj
 0001:0002520c       ?Release@?$CComObject@VCOPOSGate@@@ATL@@WOA@EAAKXZ 000000018002620c f i Gate.obj
 0001:00025218       ?Release@?$CComObject@VCOPOSGate@@@ATL@@WOI@EAAKXZ 0000000180026218 f i Gate.obj
 0001:00025224       ?Release@?$CComObject@VCOPOSGate@@@ATL@@WPA@EAAKXZ 0000000180026224 f i Gate.obj
 0001:00025230       ?Release@?$CComObject@VCOPOSGate@@@ATL@@WPI@EAAKXZ 0000000180026230 f i Gate.obj
 0001:00025240       ?Release@?$CComObjectCached@VCComClassFactory@ATL@@@ATL@@UEAAKXZ 0000000180026240 f i Gate.obj
 0001:000252e0       ?Release@?$CComPtrBase@UIAdviseSink@@@ATL@@QEAAXXZ 00000001800262e0 f i Gate.obj
 0001:00025340       ?Release@?$CComPtrBase@UIDispatch@@@ATL@@QEAAXXZ 0000000180026340 f i Gate.obj
 0001:000253a0       ?Release@?$CComPtrBase@UIOleInPlaceSiteWindowless@@@ATL@@QEAAXXZ 00000001800263a0 f i Gate.obj
 0001:00025400       ?Release@CRegObject@ATL@@UEAAKXZ 0000000180026400 f i Gate.obj
 0001:00025470       ?Remove@CComDynamicUnkArray@ATL@@QEAAHK@Z 0000000180026470 f i Gate.obj
 0001:00025550       ?RemoveAll@?$CSimpleMap@PEA_WPEA_WVCExpansionVectorEqualHelper@ATL@@@ATL@@QEAAXXZ 0000000180026550 f i Gate.obj
 0001:000255f0       ?Reset@?$CComEnumImpl@UIEnumConnectionPoints@@$1?_GUID_b196b285_bab4_101a_b69c_00aa00341d07@@3U__s_GUID@@BPEAUIConnectionPoint@@V?$_CopyInterface@UIConnectionPoint@@@ATL@@@ATL@@UEAAJXZ 00000001800265f0 f i Gate.obj
 0001:00025610       ?Reset@?$CComEnumImpl@UIEnumConnections@@$1?_GUID_b196b287_bab4_101a_b69c_00aa00341d07@@3U__s_GUID@@BUtagCONNECTDATA@@V?$_Copy@UtagCONNECTDATA@@@ATL@@@ATL@@UEAAJXZ 0000000180026610 f i Gate.obj
 0001:00025630       ?ResizeBorder@?$IOleInPlaceActiveObjectImpl@VCOPOSGate@@@ATL@@UEAAJPEBUtagRECT@@PEAUIOleInPlaceUIWindow@@H@Z 0000000180026630 f i Gate.obj
 0001:000256b0       ?ResourceRegister@CRegObject@ATL@@QEAAJPEB_WI0@Z 00000001800266b0 f i Gate.obj
 0001:00025790       ?ResourceRegisterSz@CRegObject@ATL@@QEAAJPEB_W00@Z 0000000180026790 f i Gate.obj
 0001:000258b0       ?ResourceUnregister@CRegObject@ATL@@QEAAJPEB_WI0@Z 00000001800268b0 f i Gate.obj
 0001:00025990       ?ResourceUnregisterSz@CRegObject@ATL@@QEAAJPEB_W00@Z 0000000180026990 f i Gate.obj
 0001:00025ab0       ?SODataDummy@COPOSGate@@MEAAJJ@Z 0000000180026ab0 f i Gate.obj
 0001:00025ad0       ?SODirectIO@COPOSGate@@MEAAJJPEAJPEAPEA_W@Z 0000000180026ad0 f i Gate.obj
 0001:00025d10       ?SOErrorDummy@COPOSGate@@MEAAJJJJPEAJ@Z 0000000180026d10 f i Gate.obj
 0001:00025d30       ?SOOutputCompleteDummy@COPOSGate@@MEAAJJ@Z 0000000180026d30 f i Gate.obj
 0001:00025d50       ?SOStatusUpdate@COPOSGate@@MEAAJJ@Z 0000000180026d50 f i Gate.obj
 0001:00025df0       ?Save@?$IPersistStorageImpl@VCOPOSGate@@@ATL@@UEAAJPEAUIStorage@@H@Z 0000000180026df0 f i Gate.obj
 0001:00025fb0       ?Save@?$IPersistStreamInitImpl@VCOPOSGate@@@ATL@@UEAAJPEAUIStream@@H@Z 0000000180026fb0 f i Gate.obj
 0001:00026070       ?SaveCompleted@?$IPersistStorageImpl@VCOPOSGate@@@ATL@@UEAAJPEAUIStorage@@@Z 0000000180027070 f i Gate.obj
 0001:000260e0       ?SendOnDataChange@CComControlBase@ATL@@QEAAJK@Z 00000001800270e0 f i Gate.obj
 0001:000261d0       ?SendOnSave@CComControlBase@ATL@@QEAAJXZ 00000001800271d0 f i Gate.obj
 0001:00026240       ?SendOnViewChange@CComControlBase@ATL@@QEAAJKJ@Z 0000000180027240 f i Gate.obj
 0001:000262c0       ?SetAdvise@?$IViewObjectExImpl@VCOPOSGate@@@ATL@@UEAAJKKPEAUIAdviseSink@@@Z 00000001800272c0 f i Gate.obj
 0001:00026380       ?SetClientSite@?$IOleObjectImpl@VCOPOSGate@@@ATL@@UEAAJPEAUIOleClientSite@@@Z 0000000180027380 f i Gate.obj
 0001:00026430       ?SetColorScheme@?$IOleObjectImpl@VCOPOSGate@@@ATL@@UEAAJPEAUtagLOGPALETTE@@@Z 0000000180027430 f i Gate.obj
 0001:000264c0       ?SetContentExtent@?$IQuickActivateImpl@VCOPOSGate@@@ATL@@UEAAJPEAUtagSIZE@@@Z 00000001800274c0 f i Gate.obj
 0001:00026580       ?SetControlFocus@CComControlBase@ATL@@QEAAHH@Z 0000000180027580 f i Gate.obj
 0001:00026710       ?SetDWORDValue@CRegKey@ATL@@QEAAJPEB_WK@Z 0000000180027710 f i Gate.obj
 0001:000267c0       ?SetData@?$IDataObjectImpl@VCOPOSGate@@@ATL@@UEAAJPEAUtagFORMATETC@@PEAUtagSTGMEDIUM@@H@Z 00000001800277c0 f i Gate.obj
 0001:00026850       ?SetExtent@?$IOleObjectImpl@VCOPOSGate@@@ATL@@UEAAJKPEAUtagSIZE@@@Z 0000000180027850 f i Gate.obj
 0001:00026910       ?SetHostNames@?$IOleObjectImpl@VCOPOSGate@@@ATL@@UEAAJPEB_W0@Z 0000000180027910 f i Gate.obj
 0001:00026990       ?SetInterfaceSafetyOptions@?$IObjectSafetyImpl@VCOPOSGate@@$02@ATL@@UEAAJAEBU_GUID@@KK@Z 0000000180027990 f i Gate.obj
 0001:00026b30       ?SetMoniker@?$IOleObjectImpl@VCOPOSGate@@@ATL@@UEAAJKPEAUIMoniker@@@Z 0000000180027b30 f i Gate.obj
 0001:00026bc0       ?SetMultiStringValue@CRegKey@ATL@@QEAAJPEB_W0@Z 0000000180027bc0 f i Gate.obj
 0001:00026d30       ?SetObjectRects@?$IOleInPlaceObjectWindowlessImpl@VCOPOSGate@@@ATL@@UEAAJPEBUtagRECT@@0@Z 0000000180027d30 f i Gate.obj
 0001:00026df0       ?SetStringValue@CRegKey@ATL@@QEAAJPEB_W0K@Z 0000000180027df0 f i Gate.obj
 0001:00026f70       ?SetVoid@CComClassFactory@ATL@@QEAAXPEAX@Z 0000000180027f70 f i Gate.obj
 0001:00026f90       ?SetVoid@CComObjectRootBase@ATL@@QEAAXPEAX@Z 0000000180027f90 f i Gate.obj
 0001:00026fa0       ?ShowWindow@CWindow@ATL@@QEAAHH@Z 0000000180027fa0 f i Gate.obj
 0001:00027030       ?Skip@?$CComEnumImpl@UIEnumConnectionPoints@@$1?_GUID_b196b285_bab4_101a_b69c_00aa00341d07@@3U__s_GUID@@BPEAUIConnectionPoint@@V?$_CopyInterface@UIConnectionPoint@@@ATL@@@ATL@@UEAAJK@Z 0000000180028030 f i Gate.obj
 0001:000270d0       ?Skip@?$CComEnumImpl@UIEnumConnections@@$1?_GUID_b196b287_bab4_101a_b69c_00aa00341d07@@3U__s_GUID@@BUtagCONNECTDATA@@V?$_Copy@UtagCONNECTDATA@@@ATL@@@ATL@@UEAAJK@Z 00000001800280d0 f i Gate.obj
 0001:00027170       ?SkipAssignment@CRegParser@ATL@@IEAAJPEA_W@Z 0000000180028170 f i Gate.obj
 0001:00027270       ?SkipWhiteSpace@CRegParser@ATL@@IEAAXXZ 0000000180028270 f i Gate.obj
 0001:000272d0       ?StartWindowProc@?$CWindowImplBaseT@VCWindow@ATL@@V?$CWinTraits@$0FGAAAAAA@$0A@@2@@ATL@@SA_JPEAUHWND__@@I_K_J@Z 00000001800282d0 f i Gate.obj
 0001:00027440       ?StrChrW@CRegParser@ATL@@KAPEA_WPEA_W_W@Z 0000000180028440 f i Gate.obj
 0001:000274c0       ?StrFromMap@CRegObject@ATL@@QEAAPEB_WPEA_W@Z 00000001800284c0 f i Gate.obj
 0001:00027580       ?Swap@?$CComPtrBase@UIAdviseSink@@@ATL@@IEAAXAEAV12@@Z 0000000180028580 f i Gate.obj
 0001:000275e0       ?Swap@?$CComPtrBase@UIOleClientSite@@@ATL@@IEAAXAEAV12@@Z 00000001800285e0 f i Gate.obj
 0001:00027640       ?Swap@?$CComPtrBase@UIUnknown@@@ATL@@IEAAXAEAV12@@Z 0000000180028640 f i Gate.obj
 0001:000276a0       ?T2COLE_EX@@YAPEB_WPEB_WI@Z 00000001800286a0 f i Gate.obj
 0001:000276c0       ?T2OLE_EX@@YAPEA_WPEA_WI@Z 00000001800286c0 f i Gate.obj
 0001:000276e0       ?Term@CAtlModule@ATL@@QEAAXXZ 00000001800286e0 f i Gate.obj
 0001:000277a0       ?Term@CComModule@ATL@@QEAAXXZ 00000001800287a0 f i Gate.obj
 0001:00027890       ?TranslateAcceleratorW@?$IOleInPlaceActiveObjectImpl@VCOPOSGate@@@ATL@@UEAAJPEAUtagMSG@@@Z 0000000180028890 f i Gate.obj
 0001:00027b00       ?UIDeactivate@?$IOleInPlaceObjectWindowlessImpl@VCOPOSGate@@@ATL@@UEAAJXZ 0000000180028b00 f i Gate.obj
 0001:00027bb0       ?Unadvise@?$CProxy_IOPOSEvents@VCOPOSGate@@@@UEAAJK@Z 0000000180028bb0 f i Gate.obj
 0001:00027c00       ?Unadvise@?$IConnectionPointImpl@VCOPOSGate@@$1?DIID__IOPOSGateEvents@@3U_GUID@@BVCComDynamicUnkArray@ATL@@@ATL@@UEAAJK@Z 0000000180028c00 f i Gate.obj
 0001:00027cf0       ?Unadvise@?$IConnectionPointImpl@VCOPOSGate@@$1?IID_IPropertyNotifySink@@3U_GUID@@BVCComDynamicUnkArray@ATL@@@ATL@@UEAAJK@Z 0000000180028cf0 f i Gate.obj
 0001:00027de0       ?Unadvise@?$IOleObjectImpl@VCOPOSGate@@@ATL@@UEAAJK@Z 0000000180028de0 f i Gate.obj
 0001:00027ed0       ?Unfreeze@?$IViewObjectExImpl@VCOPOSGate@@@ATL@@UEAAJK@Z 0000000180028ed0 f i Gate.obj
 0001:00027f50       ?Unlock@?$CComCritSecLock@VCComCriticalSection@ATL@@@ATL@@QEAAXXZ 0000000180028f50 f i Gate.obj
 0001:00027fe0       ?Unlock@?$CComObjectRootEx@VCComSingleThreadModel@ATL@@@ATL@@QEAAXXZ 0000000180028fe0 f i Gate.obj
 0001:00027ff0       ?Unlock@CAtlModule@ATL@@UEAAJXZ 0000000180028ff0 f i Gate.obj
 0001:00028030       ?Unlock@CComCriticalSection@ATL@@QEAAJXZ 0000000180029030 f i Gate.obj
 0001:00028070       ?Unlock@CComFakeCriticalSection@ATL@@QEAAJXZ 0000000180029070 f i Gate.obj
 0001:00028080       ?UnregisterServer@?$CAtlModuleT@VCComModule@ATL@@@ATL@@QEAAJHPEBU_GUID@@@Z 0000000180029080 f i Gate.obj
 0001:000280f0       ?UnregisterServer@CAtlComModule@ATL@@QEAAJHPEBU_GUID@@@Z 00000001800290f0 f i Gate.obj
 0001:00028130       ?UnregisterServer@CComModule@ATL@@QEAAJHPEBU_GUID@@@Z 0000000180029130 f i Gate.obj
 0001:00028220       ?Update@?$IOleObjectImpl@VCOPOSGate@@@ATL@@UEAAJXZ 0000000180029220 f i Gate.obj
 0001:00028290       ?UpdateRegistryFromResource@CAtlModule@ATL@@QEAAJIHPEAU_ATL_REGMAP_ENTRY@2@@Z 0000000180029290 f i Gate.obj
 0001:000287c0       ?UpdateRegistryFromResource@CAtlModule@ATL@@QEAAJPEB_WHPEAU_ATL_REGMAP_ENTRY@2@@Z 00000001800297c0 f i Gate.obj
 0001:00028d10       ?UpdateRegistryFromResource@CComModule@ATL@@UEAAJIHPEAU_ATL_REGMAP_ENTRY@2@@Z 0000000180029d10 f i Gate.obj
 0001:00028d60       ?UpdateRegistryFromResource@CComModule@ATL@@UEAAJPEB_WHPEAU_ATL_REGMAP_ENTRY@2@@Z 0000000180029d60 f i Gate.obj
 0001:00028db0       ?UpdateRegistryFromResourceD@CComModule@ATL@@UEAAJIHPEAU_ATL_REGMAP_ENTRY@2@@Z 0000000180029db0 f i Gate.obj
 0001:00028dd0       ?UpdateRegistryFromResourceD@CComModule@ATL@@UEAAJPEB_WHPEAU_ATL_REGMAP_ENTRY@2@@Z 0000000180029dd0 f i Gate.obj
 0001:00028df0       ?VTFromRegType@CRegParser@ATL@@KAHPEB_WAEAG@Z 0000000180029df0 f i Gate.obj
 0001:00028ed0       ?WindowProc@?$CWindowImplBaseT@VCWindow@ATL@@V?$CWinTraits@$0FGAAAAAA@$0A@@2@@ATL@@SA_JPEAUHWND__@@I_K_J@Z 0000000180029ed0 f i Gate.obj
 0001:000291b0       ?WriteToStream@CComBSTR@ATL@@QEAAJPEAUIStream@@@Z 000000018002a1b0 f i Gate.obj
 0001:00029320       ?WriteToStream@CComVariant@ATL@@QEAAJPEAUIStream@@@Z 000000018002a320 f i Gate.obj
 0001:00029730       ?WriteToStream@CComVariant@ATL@@QEAAJPEAUIStream@@G@Z 000000018002a730 f i Gate.obj
 0001:00029810       ?_AtlFinalConstruct@CComObjectRootBase@ATL@@QEAAJXZ 000000018002a810 f i Gate.obj
 0001:00029820       ?_AtlGetConversionACP@ATL@@YAIXZ 000000018002a820 f i Gate.obj
 0001:00029830       ?_AtlInitialConstruct@?$CComAggObject@VCOPOSGate@@@ATL@@QEAAJXZ 000000018002a830 f i Gate.obj
 0001:00029890       ?_AtlInitialConstruct@?$CComObjectRootEx@VCComMultiThreadModel@ATL@@@ATL@@QEAAJXZ 000000018002a890 f i Gate.obj
 0001:000298d0       ?_AtlInitialConstruct@?$CComObjectRootEx@VCComSingleThreadModel@ATL@@@ATL@@QEAAJXZ 000000018002a8d0 f i Gate.obj
 0001:000298e0       ?_AtlVerifyStackAvailable@_ATL_SAFE_ALLOCA_IMPL@ATL@@YA_N_K@Z 000000018002a8e0 f i Gate.obj
 0001:00029a40       ?_GetEntries@?$CComEnum@UIEnumConnectionPoints@@$1?_GUID_b196b285_bab4_101a_b69c_00aa00341d07@@3U__s_GUID@@BPEAUIConnectionPoint@@V?$_CopyInterface@UIConnectionPoint@@@ATL@@VCComSingleThreadModel@6@@ATL@@SAPEBU_ATL_INTMAP_ENTRY@2@XZ 000000018002aa40 f i Gate.obj
 0001:00029a60       ?_GetEntries@?$CComEnum@UIEnumConnections@@$1?_GUID_b196b287_bab4_101a_b69c_00aa00341d07@@3U__s_GUID@@BUtagCONNECTDATA@@V?$_Copy@UtagCONNECTDATA@@@ATL@@VCComSingleThreadModel@6@@ATL@@SAPEBU_ATL_INTMAP_ENTRY@2@XZ 000000018002aa60 f i Gate.obj
 0001:00029a80       ?_GetEntries@CComClassFactory@ATL@@SAPEBU_ATL_INTMAP_ENTRY@2@XZ 000000018002aa80 f i Gate.obj
 0001:00029aa0       ?_GetEntries@COPOSGate@@SAPEBU_ATL_INTMAP_ENTRY@ATL@@XZ 000000018002aaa0 f i Gate.obj
 0001:00029ac0       ?_GetRawUnknown@COPOSGate@@QEAAPEAUIUnknown@@XZ 000000018002aac0 f i Gate.obj
 0001:00029b50       ?_GetViewStatus@COPOSGate@@QEAAKXZ 000000018002ab50 f i Gate.obj
 0001:00029b60       ?_InternalQueryInterface@?$CComEnum@UIEnumConnectionPoints@@$1?_GUID_b196b285_bab4_101a_b69c_00aa00341d07@@3U__s_GUID@@BPEAUIConnectionPoint@@V?$_CopyInterface@UIConnectionPoint@@@ATL@@VCComSingleThreadModel@6@@ATL@@QEAAJAEBU_GUID@@PEAPEAX@Z 000000018002ab60 f i Gate.obj
 0001:00029bb0       ?_InternalQueryInterface@?$CComEnum@UIEnumConnections@@$1?_GUID_b196b287_bab4_101a_b69c_00aa00341d07@@3U__s_GUID@@BUtagCONNECTDATA@@V?$_Copy@UtagCONNECTDATA@@@ATL@@VCComSingleThreadModel@6@@ATL@@QEAAJAEBU_GUID@@PEAPEAX@Z 000000018002abb0 f i Gate.obj
 0001:00029c00       ?_InternalQueryInterface@CComClassFactory@ATL@@QEAAJAEBU_GUID@@PEAPEAX@Z 000000018002ac00 f i Gate.obj
 0001:00029c50       ?_InternalQueryInterface@COPOSGate@@QEAAJAEBU_GUID@@PEAPEAX@Z 000000018002ac50 f i Gate.obj
 0001:00029ca0       ?_LocCPQueryInterface@?$IConnectionPointImpl@VCOPOSGate@@$1?DIID__IOPOSGateEvents@@3U_GUID@@BVCComDynamicUnkArray@ATL@@@ATL@@UEAAJAEBU_GUID@@PEAPEAX@Z 000000018002aca0 f i Gate.obj
 0001:00029d80       ?_LocCPQueryInterface@?$IConnectionPointImpl@VCOPOSGate@@$1?IID_IPropertyNotifySink@@3U_GUID@@BVCComDynamicUnkArray@ATL@@@ATL@@UEAAJAEBU_GUID@@PEAPEAX@Z 000000018002ad80 f i Gate.obj
 0001:00029e60       ?atlCreate@?$CWindowImpl@VCOPOSGate@@VCWindow@ATL@@V?$CWinTraits@$0FGAAAAAA@$0A@@3@@ATL@@QEAAPEAUHWND__@@PEAU3@V_U_RECT@2@PEB_WKKV_U_MENUorID@2@PEAX@Z 000000018002ae60 f i Gate.obj
 0001:00029f90       ?atlCreate@?$CWindowImplBaseT@VCWindow@ATL@@V?$CWinTraits@$0FGAAAAAA@$0A@@2@@ATL@@QEAAPEAUHWND__@@PEAU3@V_U_RECT@2@PEB_WKKV_U_MENUorID@2@GPEAX@Z 000000018002af90 f i Gate.obj
 0001:0002a1f0       ?atlCreate@CRegKey@ATL@@QEAAJPEAUHKEY__@@PEB_WPEA_WKKPEAU_SECURITY_ATTRIBUTES@@PEAK@Z 000000018002b1f0 f i Gate.obj
 0001:0002a3e0       ?begin@CComDynamicUnkArray@ATL@@QEAAPEAPEAUIUnknown@@XZ 000000018002b3e0 f i Gate.obj
 0001:0002a3f0       ?copy@?$_Copy@UtagCONNECTDATA@@@ATL@@SAJPEAUtagCONNECTDATA@@PEBU3@@Z 000000018002b3f0 f i Gate.obj
 0001:0002a4e0       ?copy@?$_CopyInterface@UIConnectionPoint@@@ATL@@SAJPEAPEAUIConnectionPoint@@PEBQEAU3@@Z 000000018002b4e0 f i Gate.obj
 0001:0002a5d0       ?destroy@?$_Copy@UtagCONNECTDATA@@@ATL@@SAXPEAUtagCONNECTDATA@@@Z 000000018002b5d0 f i Gate.obj
 0001:0002a620       ?destroy@?$_CopyInterface@UIConnectionPoint@@@ATL@@SAXPEAPEAUIConnectionPoint@@@Z 000000018002b620 f i Gate.obj
 0001:0002a670       ?end@CComDynamicUnkArray@ATL@@QEAAPEAPEAUIUnknown@@XZ 000000018002b670 f i Gate.obj
 0001:0002a690       ?init@?$_Copy@UtagCONNECTDATA@@@ATL@@SAXPEAUtagCONNECTDATA@@@Z 000000018002b690 f i Gate.obj
 0001:0002a6a0       ?init@?$_CopyInterface@UIConnectionPoint@@@ATL@@SAXPEAPEAUIConnectionPoint@@@Z 000000018002b6a0 f i Gate.obj
 0001:0002a6b0       ?memcpy_s@Checked@ATL@@YAXPEAX_KPEBX1@Z 000000018002b6b0 f i Gate.obj
 0001:0002a710       ?ocscpy_s@@YA_NPEA_W_KPEB_W@Z 000000018002b710 f i Gate.obj
 0001:0002a790       ?ocslen@@YAHPEB_W@Z        000000018002b790 f i Gate.obj
 0001:0002a7d0       ?tcsncpy_s@Checked@ATL@@YAHPEA_W_KPEB_W1@Z 000000018002b7d0 f i Gate.obj
 0001:0002a830       ?wcscat_s@Checked@ATL@@YAXPEA_W_KPEB_W@Z 000000018002b830 f i Gate.obj
 0001:0002a880       ?wcscpy_s@Checked@ATL@@YAXPEA_W_KPEB_W@Z 000000018002b880 f i Gate.obj
 0001:0002a8d0       ?wcsncpy_s@Checked@ATL@@YAHPEA_W_KPEB_W1@Z 000000018002b8d0 f i Gate.obj
 0001:0002a930       ?wcsstr@@YAPEA_WPEA_WPEB_W@Z 000000018002b930 f i Gate.obj
 0001:0002a970       InlineIsEqualGUID          000000018002b970 f i Gate.obj
 0001:0002aa40       IsEqualGUID                000000018002ba40 f i Gate.obj
 0001:0002aaa0       ??0COPOSGate@@QEAA@XZ      000000018002baa0 f   GateImpl.obj
 0001:0002ac20       ?FinalConstruct@COPOSGate@@QEAAJXZ 000000018002bc20 f   GateImpl.obj
 0001:0002ad10       ??1COPOSGate@@UEAA@XZ      000000018002bd10 f   GateImpl.obj
 0001:0002adf0       ?WriteTrace@COPOSGate@@QEAAXPEB_WZZ 000000018002bdf0 f   GateImpl.obj
 0001:0002aeb0       ?WriteTraceString@COPOSGate@@QEAAXPEB_WPEA_W@Z 000000018002beb0 f   GateImpl.obj
 0001:0002b2f0       ?WriteTraceString@COPOSGate@@QEAAXPEAXHHHPEB_WZZ 000000018002c2f0 f   GateImpl.obj
 0001:0002b580       ?WriteTraceError@COPOSGate@@QEAAXPEB_WK@Z 000000018002c580 f   GateImpl.obj
 0001:0002b680       ?WriteTraceMethods@COPOSGate@@QEAAXPEAJH@Z 000000018002c680 f   GateImpl.obj
 0001:0002b710       ?GetOposProp@COPOSGate@@IEAAJPEBDJPEAJJ@Z 000000018002c710 f   GateImpl.obj
 0001:0002ba30       ?SetOposProp@COPOSGate@@IEAAJPEBDJJJ@Z 000000018002ca30 f   GateImpl.obj
 0001:0002bd90       ?GetOposProp@COPOSGate@@IEAAJPEBDJPEAFJ@Z 000000018002cd90 f   GateImpl.obj
 0001:0002be30       ?SetOposProp@COPOSGate@@IEAAJPEBDJFJ@Z 000000018002ce30 f   GateImpl.obj
 0001:0002beb0       ?GetOposProp@COPOSGate@@IEAAJPEBDJPEAPEA_WJ@Z 000000018002ceb0 f   GateImpl.obj
 0001:0002c1d0       ?SetOposProp@COPOSGate@@IEAAJPEBDJPEA_WJ@Z 000000018002d1d0 f   GateImpl.obj
 0001:0002c5b0       ?DoInvoke@COPOSGate@@IEAAJPEBDJPEAVOposVariant@@IHPEAJ_N@Z 000000018002d5b0 f   GateImpl.obj
 0001:0002d100       ?SetCOFreezeEvents@COPOSGate@@IEAAXF@Z 000000018002e100 f   GateImpl.obj
 0001:0002d290       ?FreezeEvents@COPOSGate@@MEAAJH@Z 000000018002e290 f   GateImpl.obj
 0001:0002d3c0       ?OnDraw@COPOSGate@@MEAAJAEAUATL_DRAWINFO@@@Z 000000018002e3c0 f   GateImpl.obj
 0001:0002d590       ?SOProcessID@COPOSGate@@UEAAJPEAJ@Z 000000018002e590 f   GateImpl.obj
 0001:0002d5f0       ?get_OpenResult@COPOSGate@@UEAAJPEAJ@Z 000000018002e5f0 f   GateImpl.obj
 0001:0002d650       ?get_BinaryConversion@COPOSGate@@UEAAJPEAJ@Z 000000018002e650 f   GateImpl.obj
 0001:0002d6b0       ?put_BinaryConversion@COPOSGate@@UEAAJJ@Z 000000018002e6b0 f   GateImpl.obj
 0001:0002d720       ?get_CapPowerReporting@COPOSGate@@UEAAJPEAJ@Z 000000018002e720 f   GateImpl.obj
 0001:0002d780       ?get_CheckHealthText@COPOSGate@@UEAAJPEAPEA_W@Z 000000018002e780 f   GateImpl.obj
 0001:0002d7e0       ?get_Claimed@COPOSGate@@UEAAJPEAF@Z 000000018002e7e0 f   GateImpl.obj
 0001:0002d840       ?get_DeviceEnabled@COPOSGate@@UEAAJPEAF@Z 000000018002e840 f   GateImpl.obj
 0001:0002d8a0       ?put_DeviceEnabled@COPOSGate@@UEAAJF@Z 000000018002e8a0 f   GateImpl.obj
 0001:0002d900       ?get_FreezeEvents@COPOSGate@@UEAAJPEAF@Z 000000018002e900 f   GateImpl.obj
 0001:0002d960       ?put_FreezeEvents@COPOSGate@@UEAAJF@Z 000000018002e960 f   GateImpl.obj
 0001:0002da40       ?get_PowerNotify@COPOSGate@@UEAAJPEAJ@Z 000000018002ea40 f   GateImpl.obj
 0001:0002daa0       ?put_PowerNotify@COPOSGate@@UEAAJJ@Z 000000018002eaa0 f   GateImpl.obj
 0001:0002db00       ?get_PowerState@COPOSGate@@UEAAJPEAJ@Z 000000018002eb00 f   GateImpl.obj
 0001:0002db60       ?get_ResultCode@COPOSGate@@UEAAJPEAJ@Z 000000018002eb60 f   GateImpl.obj
 0001:0002dc30       ?get_ResultCodeExtended@COPOSGate@@UEAAJPEAJ@Z 000000018002ec30 f   GateImpl.obj
 0001:0002dc90       ?get_State@COPOSGate@@UEAAJPEAJ@Z 000000018002ec90 f   GateImpl.obj
 0001:0002dd20       ?get_ControlObjectDescription@COPOSGate@@UEAAJPEAPEA_W@Z 000000018002ed20 f   GateImpl.obj
 0001:0002dda0       ?get_ControlObjectVersion@COPOSGate@@UEAAJPEAJ@Z 000000018002eda0 f   GateImpl.obj
 0001:0002de00       ?get_ServiceObjectDescription@COPOSGate@@UEAAJPEAPEA_W@Z 000000018002ee00 f   GateImpl.obj
 0001:0002de60       ?get_ServiceObjectVersion@COPOSGate@@UEAAJPEAJ@Z 000000018002ee60 f   GateImpl.obj
 0001:0002dec0       ?get_DeviceDescription@COPOSGate@@UEAAJPEAPEA_W@Z 000000018002eec0 f   GateImpl.obj
 0001:0002df20       ?get_DeviceName@COPOSGate@@UEAAJPEAPEA_W@Z 000000018002ef20 f   GateImpl.obj
 0001:0002df80       ?get_CapStatisticsReporting@COPOSGate@@UEAAJPEAF@Z 000000018002ef80 f   GateImpl.obj
 0001:0002dfe0       ?get_CapUpdateStatistics@COPOSGate@@UEAAJPEAF@Z 000000018002efe0 f   GateImpl.obj
 0001:0002e040       ?get_CapCompareFirmwareVersion@COPOSGate@@UEAAJPEAF@Z 000000018002f040 f   GateImpl.obj
 0001:0002e0a0       ?get_CapUpdateFirmware@COPOSGate@@UEAAJPEAF@Z 000000018002f0a0 f   GateImpl.obj
 0001:0002e100       ?CheckHealth@COPOSGate@@UEAAJJPEAJ@Z 000000018002f100 f   GateImpl.obj
 0001:0002e1c0       ?ClaimDevice@COPOSGate@@UEAAJJPEAJ@Z 000000018002f1c0 f   GateImpl.obj
 0001:0002e2d0       ?Close@COPOSGate@@UEAAJPEAJ@Z 000000018002f2d0 f   GateImpl.obj
 0001:0002e3e0       ?DirectIO@COPOSGate@@UEAAJJPEAJPEAPEA_W0@Z 000000018002f3e0 f   GateImpl.obj
 0001:0002e560       ?Open@COPOSGate@@UEAAJPEA_WPEAJ@Z 000000018002f560 f   GateImpl.obj
 0001:0002fa40       ?ReleaseDevice@COPOSGate@@UEAAJPEAJ@Z 0000000180030a40 f   GateImpl.obj
 0001:0002faf0       ?ResetStatistics@COPOSGate@@UEAAJPEA_WPEAJ@Z 0000000180030af0 f   GateImpl.obj
 0001:0002fbd0       ?RetrieveStatistics@COPOSGate@@UEAAJPEAPEA_WPEAJ@Z 0000000180030bd0 f   GateImpl.obj
 0001:0002fcb0       ?UpdateStatistics@COPOSGate@@UEAAJPEA_WPEAJ@Z 0000000180030cb0 f   GateImpl.obj
 0001:0002fd90       ?CompareFirmwareVersion@COPOSGate@@UEAAJPEA_WPEAJ1@Z 0000000180030d90 f   GateImpl.obj
 0001:0002fed0       ?UpdateFirmware@COPOSGate@@UEAAJPEA_WPEAJ@Z 0000000180030ed0 f   GateImpl.obj
 0001:0002ffb0       ?get_CapGateStatus@COPOSGate@@UEAAJPEAF@Z 0000000180030fb0 f   GateImpl.obj
 0001:00030010       ?get_GateStatus@COPOSGate@@UEAAJPEAJ@Z 0000000180031010 f   GateImpl.obj
 0001:00030070       ?OpenGate@COPOSGate@@UEAAJPEAJ@Z 0000000180031070 f   GateImpl.obj
 0001:000300e0       ?WaitForGateClose@COPOSGate@@UEAAJJPEAJ@Z 00000001800310e0 f   GateImpl.obj
 0001:000301a0       ??0?$CComControl@VCOPOSGate@@V?$CWindowImpl@VCOPOSGate@@VCWindow@ATL@@V?$CWinTraits@$0FGAAAAAA@$0A@@3@@ATL@@@ATL@@QEAA@XZ 00000001800311a0 f i GateImpl.obj
 0001:000301f0       ??0?$CComPtr@UIAdviseSink@@@ATL@@QEAA@XZ 00000001800311f0 f i GateImpl.obj
 0001:00030230       ??0?$CComPtr@UIDataAdviseHolder@@@ATL@@QEAA@XZ 0000000180031230 f i GateImpl.obj
 0001:00030270       ??0?$CComPtr@UIOleAdviseHolder@@@ATL@@QEAA@XZ 0000000180031270 f i GateImpl.obj
 0001:000302b0       ??0?$CComPtr@UIOleClientSite@@@ATL@@QEAA@XZ 00000001800312b0 f i GateImpl.obj
 0001:000302f0       ??0?$CComPtr@UIOleInPlaceSiteWindowless@@@ATL@@QEAA@XZ 00000001800312f0 f i GateImpl.obj
 0001:00030330       ??0?$CComPtrBase@UIAdviseSink@@@ATL@@IEAA@XZ 0000000180031330 f i GateImpl.obj
 0001:00030350       ??0?$CComPtrBase@UIDataAdviseHolder@@@ATL@@IEAA@XZ 0000000180031350 f i GateImpl.obj
 0001:00030370       ??0?$CComPtrBase@UIOleAdviseHolder@@@ATL@@IEAA@XZ 0000000180031370 f i GateImpl.obj
 0001:00030390       ??0?$CComPtrBase@UIOleClientSite@@@ATL@@IEAA@XZ 0000000180031390 f i GateImpl.obj
 0001:000303b0       ??0?$CComPtrBase@UIOleInPlaceSiteWindowless@@@ATL@@IEAA@XZ 00000001800313b0 f i GateImpl.obj
 0001:000303d0       ??0?$CComQIPtr@UIDispatch@@$1?_GUID_00020400_0000_0000_c000_000000000046@@3U__s_GUID@@B@ATL@@QEAA@XZ 00000001800313d0 f i GateImpl.obj
 0001:00030410       ??0?$CProxy_IOPOSEvents@VCOPOSGate@@@@QEAA@PEAVCOPOSGate@@@Z 0000000180031410 f i GateImpl.obj
 0001:00030480       ??0?$CWindowImpl@VCOPOSGate@@VCWindow@ATL@@V?$CWinTraits@$0FGAAAAAA@$0A@@3@@ATL@@QEAA@XZ 0000000180031480 f i GateImpl.obj
 0001:000304c0       ??0?$CWindowImplBaseT@VCWindow@ATL@@V?$CWinTraits@$0FGAAAAAA@$0A@@2@@ATL@@QEAA@XZ 00000001800314c0 f i GateImpl.obj
 0001:00030510       ??0?$CWindowImplRoot@VCWindow@ATL@@@ATL@@QEAA@XZ 0000000180031510 f i GateImpl.obj
 0001:00030580       ??0?$IConnectionPointContainerImpl@VCOPOSGate@@@ATL@@QEAA@XZ 0000000180031580 f i GateImpl.obj
 0001:000305c0       ??0?$IConnectionPointImpl@VCOPOSGate@@$1?DIID__IOPOSGateEvents@@3U_GUID@@BVCComDynamicUnkArray@ATL@@@ATL@@QEAA@XZ 00000001800315c0 f i GateImpl.obj
 0001:00030610       ??0?$IConnectionPointImpl@VCOPOSGate@@$1?IID_IPropertyNotifySink@@3U_GUID@@BVCComDynamicUnkArray@ATL@@@ATL@@QEAA@XZ 0000000180031610 f i GateImpl.obj
 0001:00030660       ??0?$IDataObjectImpl@VCOPOSGate@@@ATL@@QEAA@XZ 0000000180031660 f i GateImpl.obj
 0001:000306a0       ??0?$IDispatchImpl@UIOPOSGate@@$1?IID_IOPOSGate@@3U_GUID@@B$1?LIBID_OposGate_CCO@@3U3@B$00$0A@VCComTypeInfoHolder@ATL@@@ATL@@QEAA@XZ 00000001800316a0 f i GateImpl.obj
 0001:000306e0       ??0?$IObjectSafetyImpl@VCOPOSGate@@$02@ATL@@QEAA@XZ 00000001800316e0 f i GateImpl.obj
 0001:00030720       ??0?$IOleControlImpl@VCOPOSGate@@@ATL@@QEAA@XZ 0000000180031720 f i GateImpl.obj
 0001:00030760       ??0?$IOleInPlaceActiveObjectImpl@VCOPOSGate@@@ATL@@QEAA@XZ 0000000180031760 f i GateImpl.obj
 0001:000307a0       ??0?$IOleInPlaceObjectWindowlessImpl@VCOPOSGate@@@ATL@@QEAA@XZ 00000001800317a0 f i GateImpl.obj
 0001:000307e0       ??0?$IOleObjectImpl@VCOPOSGate@@@ATL@@QEAA@XZ 00000001800317e0 f i GateImpl.obj
 0001:00030820       ??0?$IPersistStorageImpl@VCOPOSGate@@@ATL@@QEAA@XZ 0000000180031820 f i GateImpl.obj
 0001:00030860       ??0?$IPersistStreamInitImpl@VCOPOSGate@@@ATL@@QEAA@XZ 0000000180031860 f i GateImpl.obj
 0001:000308a0       ??0?$IPropertyNotifySinkCP@VCOPOSGate@@VCComDynamicUnkArray@ATL@@@ATL@@QEAA@XZ 00000001800318a0 f i GateImpl.obj
 0001:000308e0       ??0?$IProvideClassInfo2Impl@$1?CLSID_OPOSGate@@3U_GUID@@B$1?DIID__IOPOSGateEvents@@3U2@B$1?LIBID_OposGate_CCO@@3U2@B$00$0A@VCComTypeInfoHolder@ATL@@@ATL@@QEAA@XZ 00000001800318e0 f i GateImpl.obj
 0001:00030920       ??0?$IQuickActivateImpl@VCOPOSGate@@@ATL@@QEAA@XZ 0000000180031920 f i GateImpl.obj
 0001:00030960       ??0?$ISpecifyPropertyPagesImpl@VCOPOSGate@@@ATL@@QEAA@XZ 0000000180031960 f i GateImpl.obj
 0001:000309a0       ??0?$IViewObjectExImpl@VCOPOSGate@@@ATL@@QEAA@XZ 00000001800319a0 f i GateImpl.obj
 0001:000309e0       ??0?$_ICPLocator@$1?DIID__IOPOSGateEvents@@3U_GUID@@B@ATL@@QEAA@XZ 00000001800319e0 f i GateImpl.obj
 0001:000309f0       ??0?$_ICPLocator@$1?IID_IPropertyNotifySink@@3U_GUID@@B@ATL@@QEAA@XZ 00000001800319f0 f i GateImpl.obj
 0001:00030a00       ??0CComControlBase@ATL@@QEAA@AEAPEAUHWND__@@@Z 0000000180031a00 f i GateImpl.obj
 0001:00030c20       ??0CComDynamicUnkArray@ATL@@QEAA@XZ 0000000180031c20 f i GateImpl.obj
 0001:00030c50       ??0CDynamicStdCallThunk2@ATL@@QEAA@XZ 0000000180031c50 f i GateImpl.obj
 0001:00030c70       ??0CMessageMap@ATL@@QEAA@XZ 0000000180031c70 f i GateImpl.obj
 0001:00030c80       ??0CWindow@ATL@@QEAA@PEAUHWND__@@@Z 0000000180031c80 f i GateImpl.obj
 0001:00030ca0       ??0CWndProcThunk@ATL@@QEAA@XZ 0000000180031ca0 f i GateImpl.obj
 0001:00030ce0       ??0IConnectionPointContainer@@QEAA@XZ 0000000180031ce0 f i GateImpl.obj
 0001:00030d20       ??0IDataObject@@QEAA@XZ    0000000180031d20 f i GateImpl.obj
 0001:00030d60       ??0IDispatch@@QEAA@XZ      0000000180031d60 f i GateImpl.obj
 0001:00030da0       ??0IOPOSGate@@QEAA@XZ      0000000180031da0 f i GateImpl.obj
 0001:00030de0       ??0IOPOSGate_1_12@@QEAA@XZ 0000000180031de0 f i GateImpl.obj
 0001:00030e20       ??0IObjectSafety@@QEAA@XZ  0000000180031e20 f i GateImpl.obj
 0001:00030e60       ??0IOleControl@@QEAA@XZ    0000000180031e60 f i GateImpl.obj
 0001:00030ea0       ??0IOleInPlaceActiveObject@@QEAA@XZ 0000000180031ea0 f i GateImpl.obj
 0001:00030ee0       ??0IOleInPlaceObject@@QEAA@XZ 0000000180031ee0 f i GateImpl.obj
 0001:00030f20       ??0IOleInPlaceObjectWindowless@@QEAA@XZ 0000000180031f20 f i GateImpl.obj
 0001:00030f60       ??0IOleObject@@QEAA@XZ     0000000180031f60 f i GateImpl.obj
 0001:00030fa0       ??0IOleWindow@@QEAA@XZ     0000000180031fa0 f i GateImpl.obj
 0001:00030fe0       ??0IPersist@@QEAA@XZ       0000000180031fe0 f i GateImpl.obj
 0001:00031020       ??0IPersistStorage@@QEAA@XZ 0000000180032020 f i GateImpl.obj
 0001:00031060       ??0IPersistStreamInit@@QEAA@XZ 0000000180032060 f i GateImpl.obj
 0001:000310a0       ??0IProvideClassInfo2@@QEAA@XZ 00000001800320a0 f i GateImpl.obj
 0001:000310e0       ??0IProvideClassInfo@@QEAA@XZ 00000001800320e0 f i GateImpl.obj
 0001:00031120       ??0IQuickActivate@@QEAA@XZ 0000000180032120 f i GateImpl.obj
 0001:00031160       ??0ISpecifyPropertyPages@@QEAA@XZ 0000000180032160 f i GateImpl.obj
 0001:000311a0       ??0IViewObject2@@QEAA@XZ   00000001800321a0 f i GateImpl.obj
 0001:000311e0       ??0IViewObject@@QEAA@XZ    00000001800321e0 f i GateImpl.obj
 0001:00031220       ??0IViewObjectEx@@QEAA@XZ  0000000180032220 f i GateImpl.obj
 0001:00031260       ??0OposVariantResult@@QEAA@XZ 0000000180032260 f i GateImpl.obj
 0001:000312a0       ??0_CW@@QEAA@PEBD@Z        00000001800322a0 f i GateImpl.obj
 0001:000312f0       ??0_CW@@QEAA@PEB_W@Z       00000001800322f0 f i GateImpl.obj
 0001:00031340       ??0_CWNCC@@QEAA@PEBD@Z     0000000180032340 f i GateImpl.obj
 0001:00031380       ??1?$CComControl@VCOPOSGate@@V?$CWindowImpl@VCOPOSGate@@VCWindow@ATL@@V?$CWinTraits@$0FGAAAAAA@$0A@@3@@ATL@@@ATL@@UEAA@XZ 0000000180032380 f i GateImpl.obj
 0001:000313c0       ??1?$CComPtr@UIDataAdviseHolder@@@ATL@@QEAA@XZ 00000001800323c0 f i GateImpl.obj
 0001:000313f0       ??1?$CComPtr@UIOleAdviseHolder@@@ATL@@QEAA@XZ 00000001800323f0 f i GateImpl.obj
 0001:00031420       ??1?$CComPtr@UIOleInPlaceSiteWindowless@@@ATL@@QEAA@XZ 0000000180032420 f i GateImpl.obj
 0001:00031450       ??1?$CComPtrBase@UIDataAdviseHolder@@@ATL@@QEAA@XZ 0000000180032450 f i GateImpl.obj
 0001:000314a0       ??1?$CComPtrBase@UIOleAdviseHolder@@@ATL@@QEAA@XZ 00000001800324a0 f i GateImpl.obj
 0001:000314f0       ??1?$CComPtrBase@UIOleInPlaceSiteWindowless@@@ATL@@QEAA@XZ 00000001800324f0 f i GateImpl.obj
 0001:00031540       ??1?$CComQIPtr@UIDispatch@@$1?_GUID_00020400_0000_0000_c000_000000000046@@3U__s_GUID@@B@ATL@@QEAA@XZ 0000000180032540 f i GateImpl.obj
 0001:00031570       ??1?$CProxy_IOPOSEvents@VCOPOSGate@@@@QEAA@XZ 0000000180032570 f i GateImpl.obj
 0001:000315a0       ??1?$CWindowImpl@VCOPOSGate@@VCWindow@ATL@@V?$CWinTraits@$0FGAAAAAA@$0A@@3@@ATL@@UEAA@XZ 00000001800325a0 f i GateImpl.obj
 0001:000315d0       ??1?$CWindowImplBaseT@VCWindow@ATL@@V?$CWinTraits@$0FGAAAAAA@$0A@@2@@ATL@@UEAA@XZ 00000001800325d0 f i GateImpl.obj
 0001:00031600       ??1?$CWindowImplRoot@VCWindow@ATL@@@ATL@@UEAA@XZ 0000000180032600 f i GateImpl.obj
 0001:000316c0       ??1?$IConnectionPointImpl@VCOPOSGate@@$1?DIID__IOPOSGateEvents@@3U_GUID@@BVCComDynamicUnkArray@ATL@@@ATL@@QEAA@XZ 00000001800326c0 f i GateImpl.obj
 0001:00031760       ??1?$IConnectionPointImpl@VCOPOSGate@@$1?IID_IPropertyNotifySink@@3U_GUID@@BVCComDynamicUnkArray@ATL@@@ATL@@QEAA@XZ 0000000180032760 f i GateImpl.obj
 0001:00031800       ??1?$IPropertyNotifySinkCP@VCOPOSGate@@VCComDynamicUnkArray@ATL@@@ATL@@QEAA@XZ 0000000180032800 f i GateImpl.obj
 0001:00031830       ??1CComControlBase@ATL@@UEAA@XZ 0000000180032830 f i GateImpl.obj
 0001:00031920       ??1CComDynamicUnkArray@ATL@@QEAA@XZ 0000000180032920 f i GateImpl.obj
 0001:00031960       ??1CDynamicStdCallThunk2@ATL@@QEAA@XZ 0000000180032960 f i GateImpl.obj
 0001:000319a0       ??1CWndProcThunk@ATL@@QEAA@XZ 00000001800329a0 f i GateImpl.obj
 0001:000319e0       ??1OposVariantResult@@QEAA@XZ 00000001800329e0 f i GateImpl.obj
 0001:00031a20       ??1_CW@@QEAA@XZ            0000000180032a20 f i GateImpl.obj
 0001:00031aa0       ??1_CWNCC@@QEAA@XZ         0000000180032aa0 f i GateImpl.obj
 0001:00031ad0       ??B_CW@@QEAAPEB_WXZ        0000000180032ad0 f i GateImpl.obj
 0001:00031b20       ??B_CWNCC@@QEAAPEA_WXZ     0000000180032b20 f i GateImpl.obj
 0001:00031b50       ??_EOposVariant@@QEAAPEAXI@Z 0000000180032b50 f i GateImpl.obj
 0001:00031c00       ?EventClose@COPOSGate@@IEAAXXZ 0000000180032c00 f i GateImpl.obj
 0001:00031ca0       ?EventInit@COPOSGate@@IEAAJXZ 0000000180032ca0 f i GateImpl.obj
 0001:00031f50       ?EventOpen@COPOSGate@@IEAAXXZ 0000000180032f50 f i GateImpl.obj
 0001:00031f90       ?EventPreClose@COPOSGate@@IEAAXXZ 0000000180032f90 f i GateImpl.obj
 0001:00032010       ?EventUninit@COPOSGate@@IEAAXXZ 0000000180033010 f i GateImpl.obj
 0001:00032140       ?EventWindowProc@COPOSGate@@IEAA_JI_K_J@Z 0000000180033140 f i GateImpl.obj
 0001:00032240       ?FireEventCleanup@COPOSGate@@IEAAXXZ 0000000180033240 f i GateImpl.obj
 0001:00032290       ?FireEventSetup@COPOSGate@@IEAA_NXZ 0000000180033290 f i GateImpl.obj
 0001:00032310       ?GetModuleInstance@CComModule@ATL@@QEAAPEAUHINSTANCE__@@XZ 0000000180033310 f i GateImpl.obj
 0001:00032320       ?SetRC@COPOSGate@@IEAAJJ@Z 0000000180033320 f i GateImpl.obj
 0001:00032340       ?s_EventWindowProc@COPOSGate@@KA_JPEAUHWND__@@I_K_J@Z 0000000180033340 f i GateImpl.obj
 0001:000323f0       _snwprintf                 00000001800333f0 f i GateImpl.obj
 0001:00032480       _vfwprintf_l               0000000180033480 f i GateImpl.obj
 0001:000324e0       _vsnwprintf                00000001800334e0 f i GateImpl.obj
 0001:00032540       _vsnwprintf_l              0000000180033540 f i GateImpl.obj
 0001:000325d0       vfwprintf                  00000001800335d0 f i GateImpl.obj
 0001:00032615       DebugBreak                 0000000180033615 f   kernel32:KERNEL32.dll
 0001:0003261b       Sleep                      000000018003361b f   kernel32:KERNEL32.dll
 0001:00032621       GetCurrentProcess          0000000180033621 f   kernel32:KERNEL32.dll
 0001:00032627       TerminateProcess           0000000180033627 f   kernel32:KERNEL32.dll
 0001:0003262d       MultiByteToWideChar        000000018003362d f   kernel32:KERNEL32.dll
 0001:00032633       WideCharToMultiByte        0000000180033633 f   kernel32:KERNEL32.dll
 0001:00032639       DecodePointer              0000000180033639 f   kernel32:KERNEL32.dll
 0001:0003263f       RaiseException             000000018003363f f   kernel32:KERNEL32.dll
 0001:00032645       GetLastError               0000000180033645 f   kernel32:KERNEL32.dll
 0001:0003264b       SetLastError               000000018003364b f   kernel32:KERNEL32.dll
 0001:00032651       InitializeCriticalSectionEx 0000000180033651 f   kernel32:KERNEL32.dll
 0001:00032657       DeleteCriticalSection      0000000180033657 f   kernel32:KERNEL32.dll
 0001:0003265d       EncodePointer              000000018003365d f   kernel32:KERNEL32.dll
 0001:00032663       EnterCriticalSection       0000000180033663 f   kernel32:KERNEL32.dll
 0001:00032669       LeaveCriticalSection       0000000180033669 f   kernel32:KERNEL32.dll
 0001:0003266f       ResetEvent                 000000018003366f f   kernel32:KERNEL32.dll
 0001:00032675       ReleaseMutex               0000000180033675 f   kernel32:KERNEL32.dll
 0001:0003267b       WaitForSingleObject        000000018003367b f   kernel32:KERNEL32.dll
 0001:00032681       GetCurrentThreadId         0000000180033681 f   kernel32:KERNEL32.dll
 0001:00032687       DisableThreadLibraryCalls  0000000180033687 f   kernel32:KERNEL32.dll
 0001:0003268d       FreeLibrary                000000018003368d f   kernel32:KERNEL32.dll
 0001:00032693       GetModuleFileNameW         0000000180033693 f   kernel32:KERNEL32.dll
 0001:00032699       GetModuleHandleW           0000000180033699 f   kernel32:KERNEL32.dll
 0001:0003269f       GetProcAddress             000000018003369f f   kernel32:KERNEL32.dll
 0001:000326a5       LoadLibraryExW             00000001800336a5 f   kernel32:KERNEL32.dll
 0001:000326ab       LoadResource               00000001800336ab f   kernel32:KERNEL32.dll
 0001:000326b1       SizeofResource             00000001800336b1 f   kernel32:KERNEL32.dll
 0001:000326b7       FindResourceW              00000001800336b7 f   kernel32:KERNEL32.dll
 0001:000326bd       GlobalAlloc                00000001800336bd f   kernel32:KERNEL32.dll
 0001:000326c3       GlobalUnlock               00000001800336c3 f   kernel32:KERNEL32.dll
 0001:000326c9       GlobalLock                 00000001800336c9 f   kernel32:KERNEL32.dll
 0001:000326cf       MulDiv                     00000001800336cf f   kernel32:KERNEL32.dll
 0001:000326d5       lstrcmpiW                  00000001800336d5 f   kernel32:KERNEL32.dll
 0001:000326db       DeleteFileW                00000001800336db f   kernel32:KERNEL32.dll
 0001:000326e1       CloseHandle                00000001800336e1 f   kernel32:KERNEL32.dll
 0001:000326e7       SetEvent                   00000001800336e7 f   kernel32:KERNEL32.dll
 0001:000326ed       CreateMutexW               00000001800336ed f   kernel32:KERNEL32.dll
 0001:000326f3       CreateEventW               00000001800336f3 f   kernel32:KERNEL32.dll
 0001:000326f9       GetCurrentProcessId        00000001800336f9 f   kernel32:KERNEL32.dll
 0001:000326ff       LocalFree                  00000001800336ff f   kernel32:KERNEL32.dll
 0001:00032705       FormatMessageW             0000000180033705 f   kernel32:KERNEL32.dll
 0001:0003270b       GetActiveWindow            000000018003370b f   user32:USER32.dll
 0001:00032711       MessageBoxW                0000000180033711 f   user32:USER32.dll
 0001:00032717       UnregisterClassW           0000000180033717 f   user32:USER32.dll
 0001:0003271d       PostMessageW               000000018003371d f   user32:USER32.dll
 0001:00032723       DefWindowProcW             0000000180033723 f   user32:USER32.dll
 0001:00032729       CallWindowProcW            0000000180033729 f   user32:USER32.dll
 0001:0003272f       RegisterClassExW           000000018003372f f   user32:USER32.dll
 0001:00032735       GetClassInfoExW            0000000180033735 f   user32:USER32.dll
 0001:0003273b       CreateWindowExW            000000018003373b f   user32:USER32.dll
 0001:00032741       IsWindow                   0000000180033741 f   user32:USER32.dll
 0001:00032747       IsChild                    0000000180033747 f   user32:USER32.dll
 0001:0003274d       DestroyWindow              000000018003374d f   user32:USER32.dll
 0001:00032753       ShowWindow                 0000000180033753 f   user32:USER32.dll
 0001:00032759       SetWindowPos               0000000180033759 f   user32:USER32.dll
 0001:0003275f       CharNextW                  000000018003375f f   user32:USER32.dll
 0001:00032765       SetFocus                   0000000180033765 f   user32:USER32.dll
 0001:0003276b       GetFocus                   000000018003376b f   user32:USER32.dll
 0001:00032771       GetKeyState                0000000180033771 f   user32:USER32.dll
 0001:00032777       GetDC                      0000000180033777 f   user32:USER32.dll
 0001:0003277d       ReleaseDC                  000000018003377d f   user32:USER32.dll
 0001:00032783       BeginPaint                 0000000180033783 f   user32:USER32.dll
 0001:00032789       EndPaint                   0000000180033789 f   user32:USER32.dll
 0001:0003278f       SetWindowRgn               000000018003378f f   user32:USER32.dll
 0001:00032795       InvalidateRect             0000000180033795 f   user32:USER32.dll
 0001:0003279b       GetClientRect              000000018003379b f   user32:USER32.dll
 0001:000327a1       IntersectRect              00000001800337a1 f   user32:USER32.dll
 0001:000327a7       UnionRect                  00000001800337a7 f   user32:USER32.dll
 0001:000327ad       OffsetRect                 00000001800337ad f   user32:USER32.dll
 0001:000327b3       EqualRect                  00000001800337b3 f   user32:USER32.dll
 0001:000327b9       PtInRect                   00000001800337b9 f   user32:USER32.dll
 0001:000327bf       GetWindowLongPtrW          00000001800337bf f   user32:USER32.dll
 0001:000327c5       SetWindowLongPtrW          00000001800337c5 f   user32:USER32.dll
 0001:000327cb       GetParent                  00000001800337cb f   user32:USER32.dll
 0001:000327d1       LoadCursorW                00000001800337d1 f   user32:USER32.dll
 0001:000327d7       PeekMessageW               00000001800337d7 f   user32:USER32.dll
 0001:000327dd       RegisterClassW             00000001800337dd f   user32:USER32.dll
 0001:000327e3       LoadBitmapW                00000001800337e3 f   user32:USER32.dll
 0001:000327e9       CloseMetaFile              00000001800337e9 f   gdi32:GDI32.dll
 0001:000327ef       CreateDCW                  00000001800337ef f   gdi32:GDI32.dll
 0001:000327f5       CreateMetaFileW            00000001800337f5 f   gdi32:GDI32.dll
 0001:000327fb       CreateRectRgnIndirect      00000001800337fb f   gdi32:GDI32.dll
 0001:00032801       DeleteDC                   0000000180033801 f   gdi32:GDI32.dll
 0001:00032807       DeleteMetaFile             0000000180033807 f   gdi32:GDI32.dll
 0001:0003280d       GetDeviceCaps              000000018003380d f   gdi32:GDI32.dll
 0001:00032813       RestoreDC                  0000000180033813 f   gdi32:GDI32.dll
 0001:00032819       SaveDC                     0000000180033819 f   gdi32:GDI32.dll
 0001:0003281f       SetMapMode                 000000018003381f f   gdi32:GDI32.dll
 0001:00032825       LPtoDP                     0000000180033825 f   gdi32:GDI32.dll
 0001:0003282b       SetViewportOrgEx           000000018003382b f   gdi32:GDI32.dll
 0001:00032831       SetWindowExtEx             0000000180033831 f   gdi32:GDI32.dll
 0001:00032837       SetWindowOrgEx             0000000180033837 f   gdi32:GDI32.dll
 0001:0003283d       BitBlt                     000000018003383d f   gdi32:GDI32.dll
 0001:00032843       CreateCompatibleDC         0000000180033843 f   gdi32:GDI32.dll
 0001:00032849       DeleteObject               0000000180033849 f   gdi32:GDI32.dll
 0001:0003284f       SelectObject               000000018003384f f   gdi32:GDI32.dll
 0001:00032855       GetObjectW                 0000000180033855 f   gdi32:GDI32.dll
 0001:0003285b       RegCloseKey                000000018003385b f   advapi32:ADVAPI32.dll
 0001:00032861       RegCreateKeyExW            0000000180033861 f   advapi32:ADVAPI32.dll
 0001:00032867       RegDeleteKeyW              0000000180033867 f   advapi32:ADVAPI32.dll
 0001:0003286d       RegDeleteValueW            000000018003386d f   advapi32:ADVAPI32.dll
 0001:00032873       RegEnumKeyExW              0000000180033873 f   advapi32:ADVAPI32.dll
 0001:00032879       RegOpenKeyExW              0000000180033879 f   advapi32:ADVAPI32.dll
 0001:0003287f       RegQueryInfoKeyW           000000018003387f f   advapi32:ADVAPI32.dll
 0001:00032885       RegSetValueExW             0000000180033885 f   advapi32:ADVAPI32.dll
 0001:0003288b       RegQueryValueExW           000000018003388b f   advapi32:ADVAPI32.dll
 0001:00032891       CoCreateInstance           0000000180033891 f   ole32:ole32.dll
 0001:00032897       StringFromGUID2            0000000180033897 f   ole32:ole32.dll
 0001:0003289d       CoTaskMemAlloc             000000018003389d f   ole32:ole32.dll
 0001:000328a3       CoTaskMemRealloc           00000001800338a3 f   ole32:ole32.dll
 0001:000328a9       CoTaskMemFree              00000001800338a9 f   ole32:ole32.dll
 0001:000328af       ReadClassStm               00000001800338af f   ole32:ole32.dll
 0001:000328b5       WriteClassStm              00000001800338b5 f   ole32:ole32.dll
 0001:000328bb       CreateDataAdviseHolder     00000001800338bb f   ole32:ole32.dll
 0001:000328c1       OleSaveToStream            00000001800338c1 f   ole32:ole32.dll
 0001:000328c7       CreateOleAdviseHolder      00000001800338c7 f   ole32:ole32.dll
 0001:000328cd       OleRegGetUserType          00000001800338cd f   ole32:ole32.dll
 0001:000328d3       OleRegGetMiscStatus        00000001800338d3 f   ole32:ole32.dll
 0001:000328d9       OleRegEnumVerbs            00000001800338d9 f   ole32:ole32.dll
 0001:000328df       CLSIDFromProgID            00000001800338df f   ole32:ole32.dll
 0001:000328e5       SysAllocString             00000001800338e5 f   oleaut32:OLEAUT32.dll
 0001:000328eb       SysAllocStringLen          00000001800338eb f   oleaut32:OLEAUT32.dll
 0001:000328f1       SysFreeString              00000001800338f1 f   oleaut32:OLEAUT32.dll
 0001:000328f7       SysStringLen               00000001800338f7 f   oleaut32:OLEAUT32.dll
 0001:000328fd       VariantClear               00000001800338fd f   oleaut32:OLEAUT32.dll
 0001:00032903       VariantCopyInd             0000000180033903 f   oleaut32:OLEAUT32.dll
 0001:00032909       VariantChangeType          0000000180033909 f   oleaut32:OLEAUT32.dll
 0001:0003290f       SysStringByteLen           000000018003390f f   oleaut32:OLEAUT32.dll
 0001:00032915       SysAllocStringByteLen      0000000180033915 f   oleaut32:OLEAUT32.dll
 0001:0003291b       VariantInit                000000018003391b f   oleaut32:OLEAUT32.dll
 0001:00032921       VarUI4FromStr              0000000180033921 f   oleaut32:OLEAUT32.dll
 0001:00032927       LoadTypeLib                0000000180033927 f   oleaut32:OLEAUT32.dll
 0001:0003292d       LoadRegTypeLib             000000018003392d f   oleaut32:OLEAUT32.dll
 0001:00032933       RegisterTypeLib            0000000180033933 f   oleaut32:OLEAUT32.dll
 0001:00032939       UnRegisterTypeLib          0000000180033939 f   oleaut32:OLEAUT32.dll
 0001:0003293f       OleCreatePropertyFrame     000000018003393f f   oleaut32:OLEAUT32.dll
 0001:00032950       _RTC_AllocaHelper          0000000180033950 f   LIBCMTD:stack.obj
 0001:00032990       _RTC_CheckStackVars        0000000180033990 f   LIBCMTD:stack.obj
 0001:00032a20       _RTC_CheckStackVars2       0000000180033a20 f   LIBCMTD:stack.obj
 0001:00032b30       _CRT_RTC_INIT              0000000180033b30 f   LIBCMTD:init.obj
 0001:00032b40       _CRT_RTC_INITW             0000000180033b40 f   LIBCMTD:init.obj
 0001:00032b50       _RTC_InitBase              0000000180033b50 f   LIBCMTD:init.obj
 0001:00032b90       _RTC_Shutdown              0000000180033b90 f   LIBCMTD:init.obj
 0001:00032bc0       __GSHandlerCheck           0000000180033bc0 f   LIBCMTD:gshandler.obj
 0001:00032c00       __GSHandlerCheckCommon     0000000180033c00 f   LIBCMTD:gshandler.obj
 0001:00032d10       __security_check_cookie    0000000180033d10 f   LIBCMTD:amdsecgs.obj
 0001:00032d40       ??_U@YAPEAX_K@Z            0000000180033d40 f   LIBCMTD:new_array.obj
 0001:00032d60       ??3@YAXPEAX_K@Z            0000000180033d60 f   LIBCMTD:delete_scalar_size.obj
 0001:00032d80       ??_V@YAXPEAX@Z             0000000180033d80 f   LIBCMTD:delete_array.obj
 0001:00032da0       ??_V@YAXPEAX_K@Z           0000000180033da0 f   LIBCMTD:delete_array_size.obj
 0001:00032dc0       ?configure_argv@__scrt_narrow_argv_policy@@SAHXZ 0000000180033dc0 f i LIBCMTD:utility.obj
 0001:00032eb0       ?initialize_environment@__scrt_narrow_environment_policy@@SAHXZ 0000000180033eb0 f i LIBCMTD:utility.obj
 0001:00032f50       NtCurrentTeb               0000000180033f50 f i LIBCMTD:utility.obj
 0001:00032f60       __scrt_acquire_startup_lock 0000000180033f60 f   LIBCMTD:utility.obj
 0001:00032fd0       __scrt_dllmain_after_initialize_c 0000000180033fd0 f   LIBCMTD:utility.obj
 0001:00033000       __scrt_dllmain_before_initialize_c 0000000180034000 f   LIBCMTD:utility.obj
 0001:00033020       __scrt_dllmain_crt_thread_attach 0000000180034020 f   LIBCMTD:utility.obj
 0001:00033050       __scrt_dllmain_crt_thread_detach 0000000180034050 f   LIBCMTD:utility.obj
 0001:00033070       __scrt_dllmain_exception_filter 0000000180034070 f   LIBCMTD:utility.obj
 0001:000330e0       __scrt_dllmain_uninitialize_c 00000001800340e0 f   LIBCMTD:utility.obj
 0001:00033110       __scrt_dllmain_uninitialize_critical 0000000180034110 f   LIBCMTD:utility.obj
 0001:00033130       __scrt_initialize_crt      0000000180034130 f   LIBCMTD:utility.obj
 0001:00033180       __scrt_initialize_onexit_tables 0000000180034180 f   LIBCMTD:utility.obj
 0001:00033290       __scrt_is_nonwritable_in_current_image 0000000180034290 f   LIBCMTD:utility.obj
 0001:00033320       __scrt_release_startup_lock 0000000180034320 f   LIBCMTD:utility.obj
 0001:00033350       __scrt_uninitialize_crt    0000000180034350 f   LIBCMTD:utility.obj
 0001:00033390       _onexit                    0000000180034390 f   LIBCMTD:utility.obj
 0001:00033410       at_quick_exit              0000000180034410 f   LIBCMTD:utility.obj
 0001:00033460       atexit                     0000000180034460 f   LIBCMTD:utility.obj
 0001:000334a0       ??3@YAXPEAX@Z              00000001800344a0 f   LIBCMTD:delete_scalar.obj
 0001:000334c0       __raise_securityfailure    00000001800344c0 f   LIBCMTD:gs_report.obj
 0001:00033500       __report_gsfailure         0000000180034500 f   LIBCMTD:gs_report.obj
 0001:000335e0       __report_rangecheckfailure 00000001800345e0 f   LIBCMTD:gs_report.obj
 0001:00033600       __report_securityfailure   0000000180034600 f   LIBCMTD:gs_report.obj
 0001:000336a0       __report_securityfailureEx 00000001800346a0 f   LIBCMTD:gs_report.obj
 0001:00033a60       _Init_thread_abort         0000000180034a60 f   LIBCMTD:thread_safe_statics.obj
 0001:00033a90       _Init_thread_footer        0000000180034a90 f   LIBCMTD:thread_safe_statics.obj
 0001:00033af0       _Init_thread_header        0000000180034af0 f   LIBCMTD:thread_safe_statics.obj
 0001:00033b80       _Init_thread_lock          0000000180034b80 f   LIBCMTD:thread_safe_statics.obj
 0001:00033ba0       _Init_thread_notify        0000000180034ba0 f   LIBCMTD:thread_safe_statics.obj
 0001:00033c00       _Init_thread_unlock        0000000180034c00 f   LIBCMTD:thread_safe_statics.obj
 0001:00033c20       _Init_thread_wait          0000000180034c20 f   LIBCMTD:thread_safe_statics.obj
 0001:00033cd0       ??2@YAPEAX_KAEBUnothrow_t@std@@@Z 0000000180034cd0 f   LIBCMTD:new_scalar_nothrow.obj
 0001:00033d10       ??_U@YAPEAX_KAEBUnothrow_t@std@@@Z 0000000180034d10 f   LIBCMTD:new_array_nothrow.obj
 0001:00033d40       __GSHandlerCheck_SEH       0000000180034d40 f   LIBCMTD:gshandlerseh.obj
 0001:00033e10       _alloca_probe              0000000180034e10 f   LIBCMTD:chkstk.obj
 0001:00033e10       __chkstk                   0000000180034e10 f   LIBCMTD:chkstk.obj
 0001:00034280       _CRT_INIT                  0000000180035280 f   LIBCMTD:dll_dllmain.obj
 0001:000342b0       _DllMainCRTStartup         00000001800352b0 f   LIBCMTD:dll_dllmain.obj
 0001:00034380       ?_RTC_AllocaFailure@@YAXPEAXPEAU_RTC_ALLOCA_NODE@@H@Z 0000000180035380 f   LIBCMTD:error.obj
 0001:000344e0       ?_RTC_Failure@@YAXPEAXH@Z  00000001800354e0 f   LIBCMTD:error.obj
 0001:00034530       ?_RTC_StackFailure@@YAXPEAXPEBD@Z 0000000180035530 f   LIBCMTD:error.obj
 0001:00034960       _RTC_UninitUse             0000000180035960 f   LIBCMTD:error.obj
 0001:00034a30       _vsprintf_s_l              0000000180035a30 f i LIBCMTD:error.obj
 0001:00034aa0       sprintf_s                  0000000180035aa0 f i LIBCMTD:error.obj
 0001:00034ad0       ?_RTC_GetErrorFunc@@YAP6AHHPEBDH00ZZPEBX@Z 0000000180035ad0 f   LIBCMTD:userapi.obj
 0001:00034ae0       ?_RTC_GetErrorFuncW@@YAP6AHHPEB_WH00ZZPEBX@Z 0000000180035ae0 f   LIBCMTD:userapi.obj
 0001:00034af0       _RTC_GetErrDesc            0000000180035af0 f   LIBCMTD:userapi.obj
 0001:00034b10       _RTC_NumErrors             0000000180035b10 f   LIBCMTD:userapi.obj
 0001:00034b20       _RTC_SetErrorFunc          0000000180035b20 f   LIBCMTD:userapi.obj
 0001:00034b40       _RTC_SetErrorFuncW         0000000180035b40 f   LIBCMTD:userapi.obj
 0001:00034b60       _RTC_SetErrorType          0000000180035b60 f   LIBCMTD:userapi.obj
 0001:00034b80       ??2@YAPEAX_K@Z             0000000180035b80 f   LIBCMTD:new_scalar.obj
 0001:00034bd0       __isa_available_init       0000000180035bd0 f   LIBCMTD:cpu_disp.obj
 0001:00034f70       _get_startup_argv_mode     0000000180035f70 f   LIBCMTD:argv_mode.obj
 0001:00034f80       __scrt_is_ucrt_dll_in_use  0000000180035f80 f   LIBCMTD:ucrt_detection.obj
 0001:00034fb0       __crt_debugger_hook        0000000180035fb0 f   LIBCMTD:utility_desktop.obj
 0001:00034fc0       __scrt_fastfail            0000000180035fc0 f   LIBCMTD:utility_desktop.obj
 0001:00035160       __scrt_get_show_window_mode 0000000180036160 f   LIBCMTD:utility_desktop.obj
 0001:000351c0       __scrt_initialize_mta      00000001800361c0 f   LIBCMTD:utility_desktop.obj
 0001:000351d0       __scrt_initialize_winrt    00000001800361d0 f   LIBCMTD:utility_desktop.obj
 0001:000351e0       __scrt_is_managed_app      00000001800361e0 f   LIBCMTD:utility_desktop.obj
 0001:00035290       __scrt_set_unhandled_exception_filter 0000000180036290 f   LIBCMTD:utility_desktop.obj
 0001:000352b0       __scrt_stub_for_initialize_mta 00000001800362b0 f   LIBCMTD:utility_desktop.obj
 0001:000352b0       __scrt_exe_initialize_mta  00000001800362b0 f   LIBCMTD:utility_desktop.obj
 0001:000352c0       __scrt_unhandled_exception_filter 00000001800362c0 f   LIBCMTD:utility_desktop.obj
 0001:00035360       _guard_check_icall_nop     0000000180036360 f i LIBCMTD:guard_support.obj
 0001:00035370       ReadNoFence64              0000000180036370 f i LIBCMTD:guard_support.obj
 0001:00035390       ReadPointerNoFence         0000000180036390 f i LIBCMTD:guard_support.obj
 0001:000353b0       _guard_icall_checks_enforced 00000001800363b0 f i LIBCMTD:guard_support.obj
 0001:000353f0       _guard_rf_checks_enforced  00000001800363f0 f i LIBCMTD:guard_support.obj
 0001:000354c0       __security_init_cookie     00000001800364c0 f   LIBCMTD:gs_support.obj
 0001:00035540       ?__scrt_initialize_type_info@@YAXXZ 0000000180036540 f   LIBCMTD:tncleanup.obj
 0001:00035560       ?__scrt_uninitialize_type_info@@YAXXZ 0000000180036560 f   LIBCMTD:tncleanup.obj
 0001:00035580       __local_stdio_scanf_options 0000000180036580 f i LIBCMTD:default_local_stdio_options.obj
 0001:00035590       __scrt_initialize_default_local_stdio_options 0000000180036590 f   LIBCMTD:default_local_stdio_options.obj
 0001:000355e0       __scrt_get_dyn_tls_init_callback 00000001800365e0 f   LIBCMTD:dyn_tls_init.obj
 0001:000355f0       _RTC_Initialize            00000001800365f0 f   LIBCMTD:initsect.obj
 0001:00035640       _RTC_Terminate             0000000180036640 f   LIBCMTD:initsect.obj
 0001:00035ba0       ?_RTC_GetSrcLine@@YAHPEAEPEA_WKPEAH1K@Z 0000000180036ba0 f   LIBCMTD:pdblkup.obj
 0001:00035f70       ??0bad_alloc@std@@AEAA@QEBD@Z 0000000180036f70 f i LIBCMTD:throw_bad_alloc.obj
 0001:00035fb0       ??0bad_alloc@std@@QEAA@AEBV01@@Z 0000000180036fb0 f i LIBCMTD:throw_bad_alloc.obj
 0001:00035ff0       ??0bad_alloc@std@@QEAA@XZ  0000000180036ff0 f i LIBCMTD:throw_bad_alloc.obj
 0001:00036030       ??0bad_array_new_length@std@@QEAA@AEBV01@@Z 0000000180037030 f i LIBCMTD:throw_bad_alloc.obj
 0001:00036070       ??0bad_array_new_length@std@@QEAA@XZ 0000000180037070 f i LIBCMTD:throw_bad_alloc.obj
 0001:000360b0       ??0exception@std@@QEAA@AEBV01@@Z 00000001800370b0 f i LIBCMTD:throw_bad_alloc.obj
 0001:00036110       ??0exception@std@@QEAA@QEBDH@Z 0000000180037110 f i LIBCMTD:throw_bad_alloc.obj
 0001:00036160       ??1bad_alloc@std@@UEAA@XZ  0000000180037160 f i LIBCMTD:throw_bad_alloc.obj
 0001:00036180       ??1bad_array_new_length@std@@UEAA@XZ 0000000180037180 f i LIBCMTD:throw_bad_alloc.obj
 0001:000361a0       ??1exception@std@@UEAA@XZ  00000001800371a0 f i LIBCMTD:throw_bad_alloc.obj
 0001:000361d0       ??_Ebad_alloc@std@@UEAAPEAXI@Z 00000001800371d0 f i LIBCMTD:throw_bad_alloc.obj
 0001:000361d0       ??_Gbad_alloc@std@@UEAAPEAXI@Z 00000001800371d0 f i LIBCMTD:throw_bad_alloc.obj
 0001:00036210       ??_Ebad_array_new_length@std@@UEAAPEAXI@Z 0000000180037210 f i LIBCMTD:throw_bad_alloc.obj
 0001:00036210       ??_Gbad_array_new_length@std@@UEAAPEAXI@Z 0000000180037210 f i LIBCMTD:throw_bad_alloc.obj
 0001:00036250       ??_Eexception@std@@UEAAPEAXI@Z 0000000180037250 f i LIBCMTD:throw_bad_alloc.obj
 0001:00036250       ??_Gexception@std@@UEAAPEAXI@Z 0000000180037250 f i LIBCMTD:throw_bad_alloc.obj
 0001:00036290       ?__scrt_throw_std_bad_alloc@@YAXXZ 0000000180037290 f   LIBCMTD:throw_bad_alloc.obj
 0001:000362c0       ?__scrt_throw_std_bad_array_new_length@@YAXXZ 00000001800372c0 f   LIBCMTD:throw_bad_alloc.obj
 0001:000362f0       ?what@exception@std@@UEBAPEBDXZ 00000001800372f0 f i LIBCMTD:throw_bad_alloc.obj
 0001:00036330       ??1type_info@@UEAA@XZ      0000000180037330 f   LIBCMTD:std_type_info_static.obj
 0001:00036350       ??_Gtype_info@@UEAAPEAXI@Z 0000000180037350 f i LIBCMTD:std_type_info_static.obj
 0001:00036350       ??_Etype_info@@UEAAPEAXI@Z 0000000180037350 f i LIBCMTD:std_type_info_static.obj
 0001:0003638c       ??$?2PEAUHINSTANCE__@@@Wrapper@?$CSimpleArray@PEAUHINSTANCE__@@V?$CSimpleArrayEqualHelper@PEAUHINSTANCE__@@@ATL@@@ATL@@SAPEAX_KPEAPEAUHINSTANCE__@@@Z 000000018003738c f i atls:atlbase.obj
 0001:00036390       ??0?$CSimpleArray@PEAUHINSTANCE__@@V?$CSimpleArrayEqualHelper@PEAUHINSTANCE__@@@ATL@@@ATL@@QEAA@XZ 0000000180037390 f i atls:atlbase.obj
 0001:000363a0       ??0CAtlBaseModule@ATL@@QEAA@XZ 00000001800373a0 f   atls:atlbase.obj
 0001:00036448       ??0Wrapper@?$CSimpleArray@PEAUHINSTANCE__@@V?$CSimpleArrayEqualHelper@PEAUHINSTANCE__@@@ATL@@@ATL@@QEAA@AEBQEAUHINSTANCE__@@@Z 0000000180037448 f i atls:atlbase.obj
 0001:00036454       ??0_ATL_BASE_MODULE70@ATL@@QEAA@XZ 0000000180037454 f i atls:atlbase.obj
 0001:00036480       ??1?$CSimpleArray@PEAUHINSTANCE__@@V?$CSimpleArrayEqualHelper@PEAUHINSTANCE__@@@ATL@@@ATL@@QEAA@XZ 0000000180037480 f i atls:atlbase.obj
 0001:000364a8       ??1CAtlBaseModule@ATL@@QEAA@XZ 00000001800374a8 f   atls:atlbase.obj
 0001:000364dc       ??1_ATL_BASE_MODULE70@ATL@@QEAA@XZ 00000001800374dc f i atls:atlbase.obj
 0001:00036508       ??A?$CSimpleArray@PEAUHINSTANCE__@@V?$CSimpleArrayEqualHelper@PEAUHINSTANCE__@@@ATL@@@ATL@@QEAAAEAPEAUHINSTANCE__@@H@Z 0000000180037508 f i atls:atlbase.obj
 0001:00036534       ?Add@?$CSimpleArray@PEAUHINSTANCE__@@V?$CSimpleArrayEqualHelper@PEAUHINSTANCE__@@@ATL@@@ATL@@QEAAHAEBQEAUHINSTANCE__@@@Z 0000000180037534 f i atls:atlbase.obj
 0001:000365e8       ?AddResourceInstance@CAtlBaseModule@ATL@@QEAA_NPEAUHINSTANCE__@@@Z 00000001800375e8 f   atls:atlbase.obj
 0001:00036630       ?GetHInstanceAt@CAtlBaseModule@ATL@@QEAAPEAUHINSTANCE__@@H@Z 0000000180037630 f   atls:atlbase.obj
 0001:000366a8       ?GetSize@?$CSimpleArray@PEAUHINSTANCE__@@V?$CSimpleArrayEqualHelper@PEAUHINSTANCE__@@@ATL@@@ATL@@QEBAHXZ 00000001800376a8 f i atls:atlbase.obj
 0001:000366ac       ?InternalSetAtIndex@?$CSimpleArray@PEAUHINSTANCE__@@V?$CSimpleArrayEqualHelper@PEAUHINSTANCE__@@@ATL@@@ATL@@QEAAXHAEBQEAUHINSTANCE__@@@Z 00000001800376ac f i atls:atlbase.obj
 0001:000366c4       ?RemoveAll@?$CSimpleArray@PEAUHINSTANCE__@@V?$CSimpleArrayEqualHelper@PEAUHINSTANCE__@@@ATL@@@ATL@@QEAAXXZ 00000001800376c4 f i atls:atlbase.obj
 0001:000366ec       ?RemoveAt@?$CSimpleArray@PEAUHINSTANCE__@@V?$CSimpleArrayEqualHelper@PEAUHINSTANCE__@@@ATL@@@ATL@@QEAAHH@Z 00000001800376ec f i atls:atlbase.obj
 0001:00036790       ?RemoveResourceInstance@CAtlBaseModule@ATL@@QEAA_NPEAUHINSTANCE__@@@Z 0000000180037790 f   atls:atlbase.obj
 0001:00036810       ?memmove_s@Checked@ATL@@YAXPEAX_KPEBX1@Z 0000000180037810 f i atls:atlbase.obj
 0001:00036cb8       ?GetCodeAddress@_stdcallthunk@ATL@@QEAAPEAXXZ 0000000180037cb8 f i atls:atlthunk.obj
 0001:00036ce4       ?Init@_stdcallthunk@ATL@@QEAAH_KPEAX@Z 0000000180037ce4 f i atls:atlthunk.obj
 0001:00036d34       ?__AllocStdCallThunk@@YAPEAXXZ 0000000180037d34 f   atls:atlthunk.obj
 0001:00036d3c       ?__AllocStdCallThunk@ATL@@YAPEAXXZ 0000000180037d3c f   atls:atlthunk.obj
 0001:00036d44       ?__AllocStdCallThunk_cmn@@YAPEAXXZ 0000000180037d44 f   atls:atlthunk.obj
 0001:00036e1c       ?__FreeStdCallThunk@@YAXPEAX@Z 0000000180037e1c f   atls:atlthunk.obj
 0001:00036e3c       ?__FreeStdCallThunk@ATL@@YAXPEAX@Z 0000000180037e3c f   atls:atlthunk.obj
 0001:00036e5c       ?__FreeStdCallThunk_cmn@@YAXPEAX@Z 0000000180037e5c f   atls:atlthunk.obj
 0001:00036efc       AtlThunk_AllocateData      0000000180037efc f   atls:atlthunk.obj
 0001:00036f78       AtlThunk_DataToCode        0000000180037f78 f   atls:atlthunk.obj
 0001:00036fcc       AtlThunk_FreeData          0000000180037fcc f   atls:atlthunk.obj
 0001:0003702c       AtlThunk_InitData          000000018003802c f   atls:atlthunk.obj
 0001:000370f0       memset_repmovs             00000001800380f0 f   libvcruntimed:memset.obj
 0001:00037110       memset                     0000000180038110 f   libvcruntimed:memset.obj
 0001:000372a0       ??$__crt_interlocked_exchange_pointer@$$A6AXXZP6AXXZ@@YAP6AXXZPEDS6AXXZQ6AXXZ@Z 00000001800382a0 f i libvcruntimed:purevirt.obj
 0001:000372c0       ??$__crt_interlocked_read_pointer@$$A6AXXZ@@YAP6AXXZPEDS6AXXZ@Z 00000001800382c0 f i libvcruntimed:purevirt.obj
 0001:000372e0       ?__crt_interlocked_read_64@@YA_JPED_J@Z 00000001800382e0 f i libvcruntimed:purevirt.obj
 0001:00037300       _get_purecall_handler      0000000180038300 f   libvcruntimed:purevirt.obj
 0001:00037320       _purecall                  0000000180038320 f   libvcruntimed:purevirt.obj
 0001:00037360       _set_purecall_handler      0000000180038360 f   libvcruntimed:purevirt.obj
 0001:00037390       memcmp                     0000000180038390 f   libvcruntimed:memcmp.obj
 0001:00037470       memcpy_repmovs             0000000180038470 f   libvcruntimed:memcpy.obj
 0001:00037490       memcpy                     0000000180038490 f   libvcruntimed:memcpy.obj
 0001:00037490       memmove                    0000000180038490 f   libvcruntimed:memcpy.obj
 0001:00037870       wcsstr                     0000000180038870 f   libvcruntimed:wcsstr.obj
 0001:00037ed0       __vcrt_initialize          0000000180038ed0 f   libvcruntimed:initialization.obj
 0001:00037f10       __vcrt_thread_attach       0000000180038f10 f   libvcruntimed:initialization.obj
 0001:00037f30       __vcrt_thread_detach       0000000180038f30 f   libvcruntimed:initialization.obj
 0001:00037f50       __vcrt_uninitialize        0000000180038f50 f   libvcruntimed:initialization.obj
 0001:00037f70       __vcrt_uninitialize_critical 0000000180038f70 f   libvcruntimed:initialization.obj
 0001:00037f90       __C_specific_handler       0000000180038f90 f   libvcruntimed:riscchandler.obj
 0001:00038400       ??$?0AEAViterator@TryBlockMap4@FH4@@AEAV012@$0A@@?$pair@Viterator@TryBlockMap4@FH4@@V123@@std@@QEAA@AEAViterator@TryBlockMap4@FH4@@0@Z 0000000180039400 f i libvcruntimed:risctrnsctrl.obj
 0001:00038460       ??$?0AEAViterator@TryBlockMap@__FrameHandler3@@AEAV012@$0A@@?$pair@Viterator@TryBlockMap@__FrameHandler3@@V123@@std@@QEAA@AEAViterator@TryBlockMap@__FrameHandler3@@0@Z 0000000180039460 f i libvcruntimed:risctrnsctrl.obj
 0001:00038620       ??$_CallSETranslator@V__FrameHandler3@@@@YAHPEAUEHExceptionRecord@@PEA_KPEAU_CONTEXT@@PEAU_xDISPATCHER_CONTEXT@@PEBU_s_FuncInfo@@K1@Z 0000000180039620 f i libvcruntimed:risctrnsctrl.obj
 0001:000386b0       ??$_CallSETranslator@V__FrameHandler4@@@@YAHPEAUEHExceptionRecord@@PEA_KPEAU_CONTEXT@@PEAU_xDISPATCHER_CONTEXT@@PEAUFuncInfo4@FH4@@K1@Z 00000001800396b0 f i libvcruntimed:risctrnsctrl.obj
 0001:00038740       ??$forward@AEAViterator@TryBlockMap4@FH4@@@std@@YAAEAViterator@TryBlockMap4@FH4@@AEAV123@@Z 0000000180039740 f i libvcruntimed:risctrnsctrl.obj
 0001:00038750       ??$forward@AEAViterator@TryBlockMap@__FrameHandler3@@@std@@YAAEAViterator@TryBlockMap@__FrameHandler3@@AEAV123@@Z 0000000180039750 f i libvcruntimed:risctrnsctrl.obj
 0001:00038760       ??0FuncInfo4@FH4@@QEAA@XZ  0000000180039760 f i libvcruntimed:risctrnsctrl.obj
 0001:000387d0       ??0FuncInfoHeader@FH4@@QEAA@XZ 00000001800397d0 f i libvcruntimed:risctrnsctrl.obj
 0001:000387f0       ??0iterator@TryBlockMap4@FH4@@QEAA@AEAV12@I@Z 00000001800397f0 f i libvcruntimed:risctrnsctrl.obj
 0001:00038820       ??0iterator@TryBlockMap@__FrameHandler3@@QEAA@AEAV12@I@Z 0000000180039820 f i libvcruntimed:risctrnsctrl.obj
 0001:00038850       ??4iterator@TryBlockMap4@FH4@@QEAAAEAV012@AEBV012@@Z 0000000180039850 f i libvcruntimed:risctrnsctrl.obj
 0001:00038870       ??9iterator@TryBlockMap4@FH4@@QEBA_NAEBV012@@Z 0000000180039870 f i libvcruntimed:risctrnsctrl.obj
 0001:000388b0       ??Diterator@TryBlockMap4@FH4@@QEAA?AUTryBlockMapEntry4@2@XZ 00000001800398b0 f i libvcruntimed:risctrnsctrl.obj
 0001:000388e0       ??Eiterator@TryBlockMap4@FH4@@QEAAAEAV012@XZ 00000001800398e0 f i libvcruntimed:risctrnsctrl.obj
 0001:00038920       ?CatchTryBlock@__FrameHandler3@@SAPEBU_s_TryBlockMapEntry@@PEBU_s_FuncInfo@@H@Z 0000000180039920 f   libvcruntimed:risctrnsctrl.obj
 0001:000389b0       ?DecompFuncInfo@FH4@@YA_JPEAEAEAUFuncInfo4@1@_KH@Z 00000001800399b0 f i libvcruntimed:risctrnsctrl.obj
 0001:000389f0       ?DecompFuncInfo@FH4@@YA_JPEAEAEAUFuncInfo4@1@_KH_N@Z 00000001800399f0 f i libvcruntimed:risctrnsctrl.obj
 0001:00038bc0       ?DecompTryBlock@TryBlockMap4@FH4@@AEAAXXZ 0000000180039bc0 f i libvcruntimed:risctrnsctrl.obj
 0001:00038c40       ?ExecutionInCatch@__FrameHandler3@@SA_NPEAU_xDISPATCHER_CONTEXT@@PEBU_s_FuncInfo@@@Z 0000000180039c40 f   libvcruntimed:risctrnsctrl.obj
 0001:00038c90       ?ExecutionInCatch@__FrameHandler4@@SA_NPEAU_xDISPATCHER_CONTEXT@@PEAUFuncInfo4@FH4@@@Z 0000000180039c90 f   libvcruntimed:risctrnsctrl.obj
 0001:00038cb0       ?FrameUnwindToEmptyState@__FrameHandler3@@SAXPEA_KPEAU_xDISPATCHER_CONTEXT@@PEBU_s_FuncInfo@@@Z 0000000180039cb0 f   libvcruntimed:risctrnsctrl.obj
 0001:00038d50       ?FrameUnwindToEmptyState@__FrameHandler4@@SAXPEA_KPEAU_xDISPATCHER_CONTEXT@@PEAUFuncInfo4@FH4@@@Z 0000000180039d50 f   libvcruntimed:risctrnsctrl.obj
 0001:00038da0       ?GetEstablisherFrame@__FrameHandler3@@SAPEA_KPEA_KPEAU_xDISPATCHER_CONTEXT@@PEBU_s_FuncInfo@@0@Z 0000000180039da0 f   libvcruntimed:risctrnsctrl.obj
 0001:00038f10       ?GetEstablisherFrame@__FrameHandler4@@SAPEA_KPEA_KPEAU_xDISPATCHER_CONTEXT@@PEAUFuncInfo4@FH4@@0@Z 0000000180039f10 f   libvcruntimed:risctrnsctrl.obj
 0001:00038f80       ?GetRangeOfTrysToCheck@__FrameHandler3@@SA?AU?$pair@Viterator@TryBlockMap@__FrameHandler3@@V123@@std@@AEAVTryBlockMap@1@HPEAU_xDISPATCHER_CONTEXT@@PEBU_s_FuncInfo@@H@Z 0000000180039f80 f   libvcruntimed:risctrnsctrl.obj
 0001:000391c0       ?GetRangeOfTrysToCheck@__FrameHandler4@@SA?AU?$pair@Viterator@TryBlockMap4@FH4@@V123@@std@@AEAVTryBlockMap4@FH4@@HPEAU_xDISPATCHER_CONTEXT@@PEAUFuncInfo4@5@H@Z 000000018003a1c0 f   libvcruntimed:risctrnsctrl.obj
 0001:00039370       ?ReadInt@FH4@@YAHPEAPEAE@Z 000000018003a370 f i libvcruntimed:risctrnsctrl.obj
 0001:000393b0       ?ReadUnsigned@FH4@@YAIPEAPEAE@Z 000000018003a3b0 f i libvcruntimed:risctrnsctrl.obj
 0001:00039440       ?UnwindNestedFrames@__FrameHandler3@@SAXPEA_KPEAUEHExceptionRecord@@PEAU_CONTEXT@@0PEAXPEBU_s_FuncInfo@@HHPEBU_s_HandlerType@@PEAU_xDISPATCHER_CONTEXT@@E@Z 000000018003a440 f   libvcruntimed:risctrnsctrl.obj
 0001:000395b0       ?UnwindNestedFrames@__FrameHandler4@@SAXPEA_KPEAUEHExceptionRecord@@PEAU_CONTEXT@@0PEAXPEAUFuncInfo4@FH4@@HHPEAUHandlerType4@5@PEAU_xDISPATCHER_CONTEXT@@E@Z 000000018003a5b0 f   libvcruntimed:risctrnsctrl.obj
 0001:00039780       ?begin@TryBlockMap4@FH4@@QEAA?AViterator@12@XZ 000000018003a780 f i libvcruntimed:risctrnsctrl.obj
 0001:000397b0       ?end@TryBlockMap4@FH4@@QEAA?AViterator@12@XZ 000000018003a7b0 f i libvcruntimed:risctrnsctrl.obj
 0001:000397e0       ?imageRelToByteBuffer@FH4@@YAPEAE_KH@Z 000000018003a7e0 f i libvcruntimed:risctrnsctrl.obj
 0001:00039800       ?incrementToSentinel@iterator@TryBlockMap4@FH4@@QEAAXXZ 000000018003a800 f i libvcruntimed:risctrnsctrl.obj
 0001:00039820       ?setBuffer@TryBlockMap4@FH4@@QEAAXViterator@12@@Z 000000018003a820 f i libvcruntimed:risctrnsctrl.obj
 0001:00039890       _CreateFrameInfo           000000018003a890 f   libvcruntimed:risctrnsctrl.obj
 0001:00039900       _FindAndUnlinkFrame        000000018003a900 f   libvcruntimed:risctrnsctrl.obj
 0001:00039980       _GetImageBase              000000018003a980 f   libvcruntimed:risctrnsctrl.obj
 0001:000399a0       _GetThrowImageBase         000000018003a9a0 f   libvcruntimed:risctrnsctrl.obj
 0001:000399c0       _SetImageBase              000000018003a9c0 f   libvcruntimed:risctrnsctrl.obj
 0001:000399e0       _SetThrowImageBase         000000018003a9e0 f   libvcruntimed:risctrnsctrl.obj
 0001:00039a00       __CxxFrameHandler          000000018003aa00 f   libvcruntimed:risctrnsctrl.obj
 0001:00039a40       __CxxFrameHandler2         000000018003aa40 f   libvcruntimed:risctrnsctrl.obj
 0001:00039a80       __CxxFrameHandler3         000000018003aa80 f   libvcruntimed:risctrnsctrl.obj
 0001:00039b60       __CxxFrameHandler4         000000018003ab60 f   libvcruntimed:risctrnsctrl.obj
 0001:00039c70       __C_specific_handler_noexcept 000000018003ac70 f   libvcruntimed:chandler_noexcept.obj
 0001:00039d00       __DestructExceptionObject  000000018003ad00 f   libvcruntimed:ehhelpers.obj
 0001:00039e00       ?_CallMemberFunction0@@YAXQEAX0@Z 000000018003ae00 f i libvcruntimed:ehhelpers.obj
 0001:00039ed0       ?raw_name@type_info@@QEBAPEBDXZ 000000018003aed0 f i libvcruntimed:ehhelpers.obj
 0001:00039ee0       _IsExceptionObjectToBeDestroyed 000000018003aee0 f   libvcruntimed:ehhelpers.obj
 0001:00039f30       _SetWinRTOutOfMemoryExceptionCallback 000000018003af30 f   libvcruntimed:ehhelpers.obj
 0001:00039f50       __AdjustPointer            000000018003af50 f   libvcruntimed:ehhelpers.obj
 0001:00039fd0       __FrameUnwindFilter        000000018003afd0 f   libvcruntimed:ehhelpers.obj
 0001:0003a080       __GetPlatformExceptionInfo 000000018003b080 f   libvcruntimed:ehhelpers.obj
 0001:0003a130       __current_exception        000000018003b130 f   libvcruntimed:ehhelpers.obj
 0001:0003a150       __current_exception_context 000000018003b150 f   libvcruntimed:ehhelpers.obj
 0001:0003a170       __processing_throw         000000018003b170 f   libvcruntimed:ehhelpers.obj
 0001:0003a190       __std_terminate            000000018003b190 f   libvcruntimed:ehhelpers.obj
 0001:0003a1a0       _is_exception_typeof       000000018003b1a0 f   libvcruntimed:ehhelpers.obj
 0001:0003a330       ??$?RD@__crt_internal_free_policy@@QEBAXQEBD@Z 000000018003b330 f i libvcruntimed:std_type_info.obj
 0001:0003a360       ??$?RX@__crt_internal_free_policy@@QEBAXQEBX@Z 000000018003b360 f i libvcruntimed:std_type_info.obj
 0001:0003a390       ??$__crt_interlocked_compare_exchange_pointer@$$CBDPEAD$$T@@YAPEBDPEDSEBDQEAD$$T@Z 000000018003b390 f i libvcruntimed:std_type_info.obj
 0001:0003a3d0       ??$__crt_interlocked_read_pointer@$$CBD@@YAPEBDPEDSEBD@Z 000000018003b3d0 f i libvcruntimed:std_type_info.obj
 0001:0003a3f0       ??0?$__crt_unique_heap_ptr@DU__crt_internal_free_policy@@@@QEAA@QEAD@Z 000000018003b3f0 f i libvcruntimed:std_type_info.obj
 0001:0003a410       ??0?$__crt_unique_heap_ptr@XU__crt_internal_free_policy@@@@QEAA@QEAX@Z 000000018003b410 f i libvcruntimed:std_type_info.obj
 0001:0003a430       ??1?$__crt_unique_heap_ptr@DU__crt_internal_free_policy@@@@QEAA@XZ 000000018003b430 f i libvcruntimed:std_type_info.obj
 0001:0003a450       ??1?$__crt_unique_heap_ptr@XU__crt_internal_free_policy@@@@QEAA@XZ 000000018003b450 f i libvcruntimed:std_type_info.obj
 0001:0003a470       ??B?$__crt_unique_heap_ptr@DU__crt_internal_free_policy@@@@QEBA_NXZ 000000018003b470 f i libvcruntimed:std_type_info.obj
 0001:0003a490       ??B?$__crt_unique_heap_ptr@XU__crt_internal_free_policy@@@@QEBA_NXZ 000000018003b490 f i libvcruntimed:std_type_info.obj
 0001:0003a530       ?detach@?$__crt_unique_heap_ptr@XU__crt_internal_free_policy@@@@QEAAPEAXXZ 000000018003b530 f i libvcruntimed:std_type_info.obj
 0001:0003a560       ?get@?$__crt_unique_heap_ptr@DU__crt_internal_free_policy@@@@QEBAPEADXZ 000000018003b560 f i libvcruntimed:std_type_info.obj
 0001:0003a570       ?get@?$__crt_unique_heap_ptr@XU__crt_internal_free_policy@@@@QEBAPEAXXZ 000000018003b570 f i libvcruntimed:std_type_info.obj
 0001:0003a580       ?is_valid@?$__crt_unique_heap_ptr@DU__crt_internal_free_policy@@@@QEBA_NXZ 000000018003b580 f i libvcruntimed:std_type_info.obj
 0001:0003a5b0       ?is_valid@?$__crt_unique_heap_ptr@XU__crt_internal_free_policy@@@@QEBA_NXZ 000000018003b5b0 f i libvcruntimed:std_type_info.obj
 0001:0003a5e0       ?release@?$__crt_unique_heap_ptr@DU__crt_internal_free_policy@@@@QEAAXXZ 000000018003b5e0 f i libvcruntimed:std_type_info.obj
 0001:0003a610       ?release@?$__crt_unique_heap_ptr@XU__crt_internal_free_policy@@@@QEAAXXZ 000000018003b610 f i libvcruntimed:std_type_info.obj
 0001:0003a640       __std_type_info_compare    000000018003b640 f   libvcruntimed:std_type_info.obj
 0001:0003a680       __std_type_info_destroy_list 000000018003b680 f   libvcruntimed:std_type_info.obj
 0001:0003a6e0       __std_type_info_hash       000000018003b6e0 f   libvcruntimed:std_type_info.obj
 0001:0003a790       __std_type_info_name       000000018003b790 f   libvcruntimed:std_type_info.obj
 0001:0003aa40       __vcrt_GetModuleFileNameW  000000018003ba40 f   libvcruntimed:winapi_thunks.obj
 0001:0003aa70       __vcrt_GetModuleHandleW    000000018003ba70 f   libvcruntimed:winapi_thunks.obj
 0001:0003aa90       __vcrt_LoadLibraryExW      000000018003ba90 f   libvcruntimed:winapi_thunks.obj
 0001:0003aac0       ??$?RD@__crt_public_free_policy@@QEBAXQEBD@Z 000000018003bac0 f i libvcruntimed:std_exception.obj
 0001:0003aae0       ??0?$__crt_unique_heap_ptr@DU__crt_public_free_policy@@@@QEAA@QEAD@Z 000000018003bae0 f i libvcruntimed:std_exception.obj
 0001:0003ab00       ??1?$__crt_unique_heap_ptr@DU__crt_public_free_policy@@@@QEAA@XZ 000000018003bb00 f i libvcruntimed:std_exception.obj
 0001:0003ab20       ??B?$__crt_unique_heap_ptr@DU__crt_public_free_policy@@@@QEBA_NXZ 000000018003bb20 f i libvcruntimed:std_exception.obj
 0001:0003ab40       ?detach@?$__crt_unique_heap_ptr@DU__crt_public_free_policy@@@@QEAAPEADXZ 000000018003bb40 f i libvcruntimed:std_exception.obj
 0001:0003ab70       ?get@?$__crt_unique_heap_ptr@DU__crt_public_free_policy@@@@QEBAPEADXZ 000000018003bb70 f i libvcruntimed:std_exception.obj
 0001:0003ab80       ?is_valid@?$__crt_unique_heap_ptr@DU__crt_public_free_policy@@@@QEBA_NXZ 000000018003bb80 f i libvcruntimed:std_exception.obj
 0001:0003abb0       ?release@?$__crt_unique_heap_ptr@DU__crt_public_free_policy@@@@QEAAXXZ 000000018003bbb0 f i libvcruntimed:std_exception.obj
 0001:0003abe0       __std_exception_copy       000000018003bbe0 f   libvcruntimed:std_exception.obj
 0001:0003ad20       __std_exception_destroy    000000018003bd20 f   libvcruntimed:std_exception.obj
 0001:0003ad60       _CxxThrowException         000000018003bd60 f   libvcruntimed:throw.obj
 0001:0003ae90       ??$?RU__vcrt_ptd@@@__crt_internal_free_policy@@QEBAXQEBU__vcrt_ptd@@@Z 000000018003be90 f i libvcruntimed:per_thread_data.obj
 0001:0003aec0       ??0?$__crt_unique_heap_ptr@U__vcrt_ptd@@U__crt_internal_free_policy@@@@QEAA@QEAU__vcrt_ptd@@@Z 000000018003bec0 f i libvcruntimed:per_thread_data.obj
 0001:0003af00       ??1?$__crt_unique_heap_ptr@U__vcrt_ptd@@U__crt_internal_free_policy@@@@QEAA@XZ 000000018003bf00 f i libvcruntimed:per_thread_data.obj
 0001:0003af40       ??B?$__crt_unique_heap_ptr@U__vcrt_ptd@@U__crt_internal_free_policy@@@@QEBA_NXZ 000000018003bf40 f i libvcruntimed:per_thread_data.obj
 0001:0003af60       ?detach@?$__crt_unique_heap_ptr@U__vcrt_ptd@@U__crt_internal_free_policy@@@@QEAAPEAU__vcrt_ptd@@XZ 000000018003bf60 f i libvcruntimed:per_thread_data.obj
 0001:0003af90       ?get@?$__crt_unique_heap_ptr@U__vcrt_ptd@@U__crt_internal_free_policy@@@@QEBAPEAU__vcrt_ptd@@XZ 000000018003bf90 f i libvcruntimed:per_thread_data.obj
 0001:0003afa0       ?is_valid@?$__crt_unique_heap_ptr@U__vcrt_ptd@@U__crt_internal_free_policy@@@@QEBA_NXZ 000000018003bfa0 f i libvcruntimed:per_thread_data.obj
 0001:0003afd0       ?release@?$__crt_unique_heap_ptr@U__vcrt_ptd@@U__crt_internal_free_policy@@@@QEAAXXZ 000000018003bfd0 f i libvcruntimed:per_thread_data.obj
 0001:0003b040       __vcrt_freefls             000000018003c040 f   libvcruntimed:per_thread_data.obj
 0001:0003b080       __vcrt_freeptd             000000018003c080 f   libvcruntimed:per_thread_data.obj
 0001:0003b0e0       __vcrt_getptd              000000018003c0e0 f   libvcruntimed:per_thread_data.obj
 0001:0003b110       __vcrt_getptd_noexit       000000018003c110 f   libvcruntimed:per_thread_data.obj
 0001:0003b2b0       __vcrt_getptd_noinit       000000018003c2b0 f   libvcruntimed:per_thread_data.obj
 0001:0003b310       __vcrt_initialize_ptd      000000018003c310 f   libvcruntimed:per_thread_data.obj
 0001:0003b360       __vcrt_uninitialize_ptd    000000018003c360 f   libvcruntimed:per_thread_data.obj
 0001:0003b390       __vcrt_initialize_locks    000000018003c390 f   libvcruntimed:locks.obj
 0001:0003b400       __vcrt_lock                000000018003c400 f   libvcruntimed:locks.obj
 0001:0003b430       __vcrt_uninitialize_locks  000000018003c430 f   libvcruntimed:locks.obj
 0001:0003b490       __vcrt_unlock              000000018003c490 f   libvcruntimed:locks.obj
 0001:0003b4d0       _NLG_Notify                000000018003c4d0 f   libvcruntimed:notify.obj
 0001:0003b4f0       __NLG_Dispatch2            000000018003c4f0 f   libvcruntimed:notify.obj
 0001:0003b500       __NLG_Return2              000000018003c500 f   libvcruntimed:notify.obj
 0001:0003b520       __except_validate_context_record 000000018003c520 f   libvcruntimed:jbcxrval.obj
 0001:0003b580       __except_validate_jump_buffer 000000018003c580 f   libvcruntimed:jbcxrval.obj
 0001:0003b5a0       __except_validate_jump_buffer_common 000000018003c5a0 f i libvcruntimed:jbcxrval.obj
 0001:0003b620       ?GetCurrentState@__FrameHandler3@@SAHPEA_KPEAU_xDISPATCHER_CONTEXT@@PEBU_s_FuncInfo@@@Z 000000018003c620 f   libvcruntimed:ehstate.obj
 0001:0003b680       ?GetUnwindTryBlock@__FrameHandler3@@SAHPEA_KPEAU_xDISPATCHER_CONTEXT@@PEBU_s_FuncInfo@@@Z 000000018003c680 f   libvcruntimed:ehstate.obj
 0001:0003b6d0       ?SetState@__FrameHandler3@@SAXPEA_KPEBU_s_FuncInfo@@H@Z 000000018003c6d0 f   libvcruntimed:ehstate.obj
 0001:0003b700       ?SetUnwindTryBlock@__FrameHandler3@@SAXPEA_KPEAU_xDISPATCHER_CONTEXT@@PEBU_s_FuncInfo@@H@Z 000000018003c700 f   libvcruntimed:ehstate.obj
 0001:0003b770       ?StateFromControlPc@__FrameHandler3@@SAHPEBU_s_FuncInfo@@PEAU_xDISPATCHER_CONTEXT@@@Z 000000018003c770 f   libvcruntimed:ehstate.obj
 0001:0003b7b0       ?StateFromControlPc@__FrameHandler4@@SAHPEAUFuncInfo4@FH4@@PEAU_xDISPATCHER_CONTEXT@@@Z 000000018003c7b0 f   libvcruntimed:ehstate.obj
 0001:0003b7f0       ?StateFromIp@__FrameHandler3@@SAHPEBU_s_FuncInfo@@PEAU_xDISPATCHER_CONTEXT@@_K@Z 000000018003c7f0 f   libvcruntimed:ehstate.obj
 0001:0003b8e0       ?StateFromIp@__FrameHandler4@@SAHPEAUFuncInfo4@FH4@@PEAU_xDISPATCHER_CONTEXT@@_K@Z 000000018003c8e0 f   libvcruntimed:ehstate.obj
 0001:0003b9d0       ?__FuncRelToRealOffset@@YA_KPEAU_xDISPATCHER_CONTEXT@@I@Z 000000018003c9d0 f i libvcruntimed:ehstate.obj
 0001:0003ba00       ?__RVAtoRealOffset@@YA_KPEAU_xDISPATCHER_CONTEXT@@H@Z 000000018003ca00 f i libvcruntimed:ehstate.obj
 0001:0003dc70       ??$TypeMatchHelper@V__FrameHandler3@@@@YAHPEBU_s_HandlerType@@PEBU_s_CatchableType@@PEBU_s_ThrowInfo@@@Z 000000018003ec70 f i libvcruntimed:frame.obj
 0001:0003de70       ??$TypeMatchHelper@V__FrameHandler4@@@@YAHPEAUHandlerType4@FH4@@PEBU_s_CatchableType@@PEBU_s_ThrowInfo@@@Z 000000018003ee70 f i libvcruntimed:frame.obj
 0001:0003e080       ??$__InternalCxxFrameHandler@V__FrameHandler3@@@@YA?AW4_EXCEPTION_DISPOSITION@@PEAUEHExceptionRecord@@PEA_KPEAU_CONTEXT@@PEAU_xDISPATCHER_CONTEXT@@PEBU_s_FuncInfo@@H1E@Z 000000018003f080 f i libvcruntimed:frame.obj
 0001:0003e4f0       ??$__InternalCxxFrameHandler@V__FrameHandler4@@@@YA?AW4_EXCEPTION_DISPOSITION@@PEAUEHExceptionRecord@@PEA_KPEAU_CONTEXT@@PEAU_xDISPATCHER_CONTEXT@@PEAUFuncInfo4@FH4@@H1E@Z 000000018003f4f0 f i libvcruntimed:frame.obj
 0001:0003e980       ??0HandlerMap4@FH4@@QEAA@PEBUTryBlockMapEntry4@1@_KH@Z 000000018003f980 f i libvcruntimed:frame.obj
 0001:0003ea40       ??0HandlerMap@__FrameHandler3@@QEAA@PEBU_s_TryBlockMapEntry@@_KI@Z 000000018003fa40 f i libvcruntimed:frame.obj
 0001:0003ea90       ??0HandlerType4@FH4@@QEAA@XZ 000000018003fa90 f i libvcruntimed:frame.obj
 0001:0003eab0       ??0TryBlockMap4@FH4@@QEAA@PEBUFuncInfo4@1@_K@Z 000000018003fab0 f i libvcruntimed:frame.obj
 0001:0003eb40       ??0TryBlockMap@__FrameHandler3@@QEAA@PEBU_s_FuncInfo@@_K@Z 000000018003fb40 f i libvcruntimed:frame.obj
 0001:0003eb70       ??0UWMap4@FH4@@QEAA@PEBUFuncInfo4@1@_K@Z 000000018003fb70 f i libvcruntimed:frame.obj
 0001:0003ebe0       ??0bad_exception@std@@QEAA@AEBV01@@Z 000000018003fbe0 f i libvcruntimed:frame.obj
 0001:0003ec20       ??0bad_exception@std@@QEAA@XZ 000000018003fc20 f i libvcruntimed:frame.obj
 0001:0003ec60       ??0iterator@HandlerMap4@FH4@@QEAA@AEAV12@I@Z 000000018003fc60 f i libvcruntimed:frame.obj
 0001:0003ec90       ??0iterator@HandlerMap@__FrameHandler3@@QEAA@AEAV12@I@Z 000000018003fc90 f i libvcruntimed:frame.obj
 0001:0003ecc0       ??0iterator@UWMap4@FH4@@QEAA@AEAV12@PEAE@Z 000000018003fcc0 f i libvcruntimed:frame.obj
 0001:0003ecf0       ??1bad_exception@std@@UEAA@XZ 000000018003fcf0 f i libvcruntimed:frame.obj
 0001:0003ed10       ??4iterator@UWMap4@FH4@@QEAAAEAV012@AEBV012@@Z 000000018003fd10 f i libvcruntimed:frame.obj
 0001:0003ed60       ??8iterator@HandlerMap4@FH4@@QEBA_NAEBV012@@Z 000000018003fd60 f i libvcruntimed:frame.obj
 0001:0003eda0       ??8iterator@HandlerMap@__FrameHandler3@@QEBA_NAEBV012@@Z 000000018003fda0 f i libvcruntimed:frame.obj
 0001:0003ede0       ??8type_info@@QEBA_NAEBV0@@Z 000000018003fde0 f i libvcruntimed:frame.obj
 0001:0003ee30       ??9iterator@HandlerMap4@FH4@@QEBA_NAEBV012@@Z 000000018003fe30 f i libvcruntimed:frame.obj
 0001:0003ee70       ??9iterator@HandlerMap@__FrameHandler3@@QEBA_NAEBV012@@Z 000000018003fe70 f i libvcruntimed:frame.obj
 0001:0003eeb0       ??Diterator@HandlerMap4@FH4@@QEAA?AUHandlerType4@2@XZ 000000018003feb0 f i libvcruntimed:frame.obj
 0001:0003eee0       ??Diterator@HandlerMap@__FrameHandler3@@QEAA?BU_s_HandlerType@@XZ 000000018003fee0 f i libvcruntimed:frame.obj
 0001:0003ef20       ??Diterator@TryBlockMap@__FrameHandler3@@QEAA?BU_s_TryBlockMapEntry@@XZ 000000018003ff20 f i libvcruntimed:frame.obj
 0001:0003ef70       ??Diterator@UWMap4@FH4@@QEAA?AUUnwindMapEntry4@2@XZ 000000018003ff70 f i libvcruntimed:frame.obj
 0001:0003eff0       ??Eiterator@HandlerMap4@FH4@@QEAAAEAV012@XZ 000000018003fff0 f i libvcruntimed:frame.obj
 0001:0003f030       ??Eiterator@HandlerMap@__FrameHandler3@@QEAAAEAV012@XZ 0000000180040030 f i libvcruntimed:frame.obj
 0001:0003f050       ??Eiterator@TryBlockMap@__FrameHandler3@@QEAAAEAV012@XZ 0000000180040050 f i libvcruntimed:frame.obj
 0001:0003f070       ??Eiterator@UWMap4@FH4@@QEAAAEAV012@XZ 0000000180040070 f i libvcruntimed:frame.obj
 0001:0003f0b0       ??Giterator@UWMap4@FH4@@QEBA_JAEBV012@@Z 00000001800400b0 f i libvcruntimed:frame.obj
 0001:0003f0d0       ??Miterator@TryBlockMap4@FH4@@QEBA_NAEBV012@@Z 00000001800400d0 f i libvcruntimed:frame.obj
 0001:0003f110       ??Miterator@TryBlockMap@__FrameHandler3@@QEBA_NAEBV012@@Z 0000000180040110 f i libvcruntimed:frame.obj
 0001:0003f150       ??Oiterator@UWMap4@FH4@@QEBA_NAEBV012@@Z 0000000180040150 f i libvcruntimed:frame.obj
 0001:0003f190       ??Piterator@UWMap4@FH4@@QEBA_NAEBV012@@Z 0000000180040190 f i libvcruntimed:frame.obj
 0001:0003f1d0       ??_Ebad_exception@std@@UEAAPEAXI@Z 00000001800401d0 f i libvcruntimed:frame.obj
 0001:0003f1d0       ??_Gbad_exception@std@@UEAAPEAXI@Z 00000001800401d0 f i libvcruntimed:frame.obj
 0001:0003f210       ?BuildCatchObject@__FrameHandler3@@SAXPEAUEHExceptionRecord@@PEAXPEBU_s_HandlerType@@PEBU_s_CatchableType@@@Z 0000000180040210 f   libvcruntimed:frame.obj
 0001:0003f250       ?BuildCatchObject@__FrameHandler4@@SAXPEAUEHExceptionRecord@@PEAXPEAUHandlerType4@FH4@@PEBU_s_CatchableType@@@Z 0000000180040250 f   libvcruntimed:frame.obj
 0001:0003f290       ?BuildCatchObjectHelper@__FrameHandler3@@SAHPEAUEHExceptionRecord@@PEAXPEBU_s_HandlerType@@PEBU_s_CatchableType@@@Z 0000000180040290 f   libvcruntimed:frame.obj
 0001:0003f2d0       ?BuildCatchObjectHelper@__FrameHandler4@@SAHPEAUEHExceptionRecord@@PEAXPEAUHandlerType4@FH4@@PEBU_s_CatchableType@@@Z 00000001800402d0 f   libvcruntimed:frame.obj
 0001:0003f310       ?CxxCallCatchBlock@__FrameHandler3@@SAPEAXPEAU_EXCEPTION_RECORD@@@Z 0000000180040310 f   libvcruntimed:frame.obj
 0001:0003f570       ?CxxCallCatchBlock@__FrameHandler4@@SAPEAXPEAU_EXCEPTION_RECORD@@@Z 0000000180040570 f   libvcruntimed:frame.obj
 0001:0003f8a0       ?DecompHandler@HandlerMap4@FH4@@AEAAXXZ 00000001800408a0 f i libvcruntimed:frame.obj
 0001:0003fc70       ?FrameUnwindToState@__FrameHandler3@@SAXPEA_KPEAU_xDISPATCHER_CONTEXT@@PEBU_s_FuncInfo@@H@Z 0000000180040c70 f   libvcruntimed:frame.obj
 0001:0003fec0       ?FrameUnwindToState@__FrameHandler4@@SAXPEA_KPEAU_xDISPATCHER_CONTEXT@@PEAUFuncInfo4@FH4@@H@Z 0000000180040ec0 f   libvcruntimed:frame.obj
 0001:00040210       ?GetHandlerSearchState@__FrameHandler3@@SAHPEA_KPEAU_xDISPATCHER_CONTEXT@@PEBU_s_FuncInfo@@@Z 0000000180041210 f i libvcruntimed:frame.obj
 0001:000402c0       ?GetHandlerSearchState@__FrameHandler4@@SAHPEA_KPEAU_xDISPATCHER_CONTEXT@@PEAUFuncInfo4@FH4@@@Z 00000001800412c0 f i libvcruntimed:frame.obj
 0001:00040340       ?GetMaxState@__FrameHandler3@@SAHPEAU_xDISPATCHER_CONTEXT@@PEBU_s_FuncInfo@@@Z 0000000180041340 f i libvcruntimed:frame.obj
 0001:00040360       ?GetMaxState@__FrameHandler4@@SAHPEAU_xDISPATCHER_CONTEXT@@PEAUFuncInfo4@FH4@@@Z 0000000180041360 f i libvcruntimed:frame.obj
 0001:00040590       ?ReadEntry@UWMap4@FH4@@AEAAXPEAPEAE@Z 0000000180041590 f i libvcruntimed:frame.obj
 0001:00040640       ?TypeMatch@__FrameHandler3@@SAHPEBU_s_HandlerType@@PEBU_s_CatchableType@@PEBU_s_ThrowInfo@@@Z 0000000180041640 f   libvcruntimed:frame.obj
 0001:00040670       ?TypeMatch@__FrameHandler4@@SAHPEAUHandlerType4@FH4@@PEBU_s_CatchableType@@PEBU_s_ThrowInfo@@@Z 0000000180041670 f   libvcruntimed:frame.obj
 0001:000406a0       ?WalkBack@UWMap4@FH4@@AEAAXPEAPEAE@Z 00000001800416a0 f i libvcruntimed:frame.obj
 0001:000406f0       ?WalkBack@iterator@UWMap4@FH4@@QEAAXXZ 00000001800416f0 f i libvcruntimed:frame.obj
 0001:00040730       ?WalkForward@UWMap4@FH4@@AEAAXPEAPEAE@Z 0000000180041730 f i libvcruntimed:frame.obj
 0001:00040760       ?_CallMemberFunction1@@YAXQEAX00@Z 0000000180041760 f i libvcruntimed:frame.obj
 0001:000407a0       ?_CallMemberFunction2@@YAXQEAX00H@Z 00000001800417a0 f i libvcruntimed:frame.obj
 0001:00040830       ?begin@HandlerMap4@FH4@@QEAA?AViterator@12@XZ 0000000180041830 f i libvcruntimed:frame.obj
 0001:00040860       ?begin@HandlerMap@__FrameHandler3@@QEAA?AViterator@12@XZ 0000000180041860 f i libvcruntimed:frame.obj
 0001:00040890       ?begin@UWMap4@FH4@@QEAA?AViterator@12@XZ 0000000180041890 f i libvcruntimed:frame.obj
 0001:000408c0       ?end@HandlerMap4@FH4@@QEAA?AViterator@12@XZ 00000001800418c0 f i libvcruntimed:frame.obj
 0001:000408f0       ?end@HandlerMap@__FrameHandler3@@QEAA?AViterator@12@XZ 00000001800418f0 f i libvcruntimed:frame.obj
 0001:00040920       ?getESTypes@__FrameHandler3@@SAPEBU_s_ESTypeList@@PEBU_s_FuncInfo@@@Z 0000000180041920 f i libvcruntimed:frame.obj
 0001:00040960       ?getESTypes@__FrameHandler4@@SAPEBU_s_ESTypeList@@PEAUFuncInfo4@FH4@@@Z 0000000180041960 f i libvcruntimed:frame.obj
 0001:00040970       ?getLastEntry@HandlerMap4@FH4@@QEAAPEAUHandlerType4@2@XZ 0000000180041970 f i libvcruntimed:frame.obj
 0001:000409b0       ?getLastEntry@HandlerMap@__FrameHandler3@@QEAAPEBU_s_HandlerType@@XZ 00000001800419b0 f i libvcruntimed:frame.obj
 0001:000409d0       ?getMagicNum@__FrameHandler3@@SAIPEBU_s_FuncInfo@@@Z 00000001800419d0 f i libvcruntimed:frame.obj
 0001:000409f0       ?getMagicNum@__FrameHandler4@@SAIPEAUFuncInfo4@FH4@@@Z 00000001800419f0 f i libvcruntimed:frame.obj
 0001:00040a00       ?getNumTryBlocks@TryBlockMap4@FH4@@QEAAIXZ 0000000180041a00 f i libvcruntimed:frame.obj
 0001:00040a10       ?getNumTryBlocks@TryBlockMap@__FrameHandler3@@QEAAIXZ 0000000180041a10 f i libvcruntimed:frame.obj
 0001:00040a30       ?getStartStop@UWMap4@FH4@@QEAAXHHAEAViterator@12@0@Z 0000000180041a30 f i libvcruntimed:frame.obj
 0001:00040b50       ?getStateFromIterators@UWMap4@FH4@@SAHAEBViterator@12@H0H0@Z 0000000180041b50 f i libvcruntimed:frame.obj
 0001:00040c90       ?isEHs@__FrameHandler3@@SA_NPEBU_s_FuncInfo@@@Z 0000000180041c90 f i libvcruntimed:frame.obj
 0001:00040cd0       ?isEHs@__FrameHandler4@@SA_NPEAUFuncInfo4@FH4@@@Z 0000000180041cd0 f i libvcruntimed:frame.obj
 0001:00040cf0       ?isNoExcept@__FrameHandler3@@SA_NPEBU_s_FuncInfo@@@Z 0000000180041cf0 f i libvcruntimed:frame.obj
 0001:00040d30       ?isNoExcept@__FrameHandler4@@SA_NPEAUFuncInfo4@FH4@@@Z 0000000180041d30 f i libvcruntimed:frame.obj
 0001:00040d50       ?reset@HandlerType4@FH4@@QEAAXXZ 0000000180041d50 f i libvcruntimed:frame.obj
 0001:00040db0       ?resetBuffer@HandlerMap4@FH4@@QEAAXXZ 0000000180041db0 f i libvcruntimed:frame.obj
 0001:00040dd0       ?setBuffer@HandlerMap4@FH4@@QEAAXI@Z 0000000180041dd0 f i libvcruntimed:frame.obj
 0001:00040e30       __BuildCatchObject         0000000180041e30 f   libvcruntimed:frame.obj
 0001:00040e70       __BuildCatchObjectHelper   0000000180041e70 f   libvcruntimed:frame.obj
 0001:00040eb0       __TypeMatch                0000000180041eb0 f   libvcruntimed:frame.obj
 0001:00040ee0       __vcrt_EncodePointer       0000000180041ee0 f i libvcruntimed:frame.obj
 0001:00040f00       ??$?0$00@DName@@QEAA@PEBDU?$StringLifeSelector@$00@@@Z 0000000180041f00 f i libvcruntimed:undname.obj
 0001:00040f70       ??$?0$00@pcharNode@@QEAA@PEBDHU?$StringLifeSelector@$00@@@Z 0000000180041f70 f i libvcruntimed:undname.obj
 0001:00040fd0       ??$?0$01@DName@@QEAA@PEBDU?$StringLifeSelector@$01@@@Z 0000000180041fd0 f i libvcruntimed:undname.obj
 0001:00041040       ??$?0$01@pcharNode@@QEAA@PEBDHU?$StringLifeSelector@$01@@@Z 0000000180042040 f i libvcruntimed:undname.obj
 0001:000410f0       ??$?0$0A@@DName@@QEAA@PEBDU?$StringLifeSelector@$0A@@@@Z 00000001800420f0 f i libvcruntimed:undname.obj
 0001:00041160       ??$?0$0A@@pcharNode@@QEAA@PEBDHU?$StringLifeSelector@$0A@@@@Z 0000000180042160 f i libvcruntimed:undname.obj
 0001:00041210       ??$append@VDNameNode@@@DName@@AEAAXPEBVDNameNode@@@Z 0000000180042210 f i libvcruntimed:undname.obj
 0001:000412c0       ??$append@VDNameStatusNode@@@DName@@AEAAXPEBVDNameStatusNode@@@Z 00000001800422c0 f i libvcruntimed:undname.obj
 0001:00041370       ??$append@VcharNode@@@DName@@AEAAXPEBVcharNode@@@Z 0000000180042370 f i libvcruntimed:undname.obj
 0001:00041420       ??$append@VpDNameNode@@@DName@@AEAAXPEBVpDNameNode@@@Z 0000000180042420 f i libvcruntimed:undname.obj
 0001:000414d0       ??$append@VpcharNode@@@DName@@AEAAXPEBVpcharNode@@@Z 00000001800424d0 f i libvcruntimed:undname.obj
 0001:00041580       ??$doPchar@$00@DName@@AEAAXPEBDH@Z 0000000180042580 f i libvcruntimed:undname.obj
 0001:000416e0       ??$doPchar@$01@DName@@AEAAXPEBDH@Z 00000001800426e0 f i libvcruntimed:undname.obj
 0001:00041840       ??$doPchar@$0A@@DName@@AEAAXPEBDH@Z 0000000180042840 f i libvcruntimed:undname.obj
 0001:000419a0       ??0Block@_HeapManager@@QEAA@XZ 00000001800429a0 f i libvcruntimed:undname.obj
 0001:000419c0       ??0DName@@QEAA@AEAPEBDD@Z  00000001800429c0 f   libvcruntimed:undname.obj
 0001:00041b90       ??0DName@@QEAA@AEBUStringLiteral@@@Z 0000000180042b90 f   libvcruntimed:undname.obj
 0001:00041bf0       ??0DName@@QEAA@AEBV0@@Z    0000000180042bf0 f i libvcruntimed:undname.obj
 0001:00041c20       ??0DName@@QEAA@D@Z         0000000180042c20 f   libvcruntimed:undname.obj
 0001:00041c60       ??0DName@@QEAA@PEAV0@@Z    0000000180042c60 f   libvcruntimed:undname.obj
 0001:00041d40       ??0DName@@QEAA@W4DNameStatus@@@Z 0000000180042d40 f   libvcruntimed:undname.obj
 0001:00041df0       ??0DName@@QEAA@XZ          0000000180042df0 f i libvcruntimed:undname.obj
 0001:00041e20       ??0DName@@QEAA@_J@Z        0000000180042e20 f   libvcruntimed:undname.obj
 0001:00041f30       ??0DName@@QEAA@_K@Z        0000000180042f30 f   libvcruntimed:undname.obj
 0001:00042000       ??0DNameNode@@IEAA@XZ      0000000180043000 f i libvcruntimed:undname.obj
 0001:00042020       ??0Replicator@@QEAA@XZ     0000000180043020 f i libvcruntimed:undname.obj
 0001:00042060       ??0UnDecorator@@QEAA@PEBDP6APEADJ@ZK@Z 0000000180043060 f i libvcruntimed:undname.obj
 0001:00042110       ??0charNode@@QEAA@D@Z      0000000180043110 f i libvcruntimed:undname.obj
 0001:00042150       ??0pDNameNode@@QEAA@PEAVDName@@@Z 0000000180043150 f   libvcruntimed:undname.obj
 0001:000421d0       ??0pairNode@@QEAA@PEBVDNameNode@@0@Z 00000001800431d0 f i libvcruntimed:undname.obj
 0001:00042250       ??2@YAPEAX_KAEAV_HeapManager@@H@Z 0000000180043250 f   libvcruntimed:undname.obj
 0001:000422b0       ??4DName@@QEAAAEAV0@AEBUStringLiteral@@@Z 00000001800432b0 f   libvcruntimed:undname.obj
 0001:00042300       ??4DName@@QEAAAEAV0@AEBV0@@Z 0000000180043300 f   libvcruntimed:undname.obj
 0001:00042330       ??4DName@@QEAAAEAV0@D@Z    0000000180043330 f i libvcruntimed:undname.obj
 0001:00042370       ??4DName@@QEAAAEAV0@PEAV0@@Z 0000000180043370 f   libvcruntimed:undname.obj
 0001:00042440       ??4DName@@QEAAAEAV0@W4DNameStatus@@@Z 0000000180043440 f   libvcruntimed:undname.obj
 0001:000424d0       ??AReplicator@@QEBA?AVDName@@H@Z 00000001800434d0 f   libvcruntimed:undname.obj
 0001:00042560       ??H@YA?AVDName@@AEBUStringLiteral@@AEBV0@@Z 0000000180043560 f i libvcruntimed:undname.obj
 0001:000425b0       ??H@YA?AVDName@@DAEBV0@@Z  00000001800435b0 f i libvcruntimed:undname.obj
 0001:00042600       ??H@YA?AVDName@@W4DNameStatus@@AEBV0@@Z 0000000180043600 f i libvcruntimed:undname.obj
 0001:00042650       ??HDName@@QEBA?AV0@AEBUStringLiteral@@@Z 0000000180043650 f   libvcruntimed:undname.obj
 0001:000426a0       ??HDName@@QEBA?AV0@AEBV0@@Z 00000001800436a0 f   libvcruntimed:undname.obj
 0001:000426f0       ??HDName@@QEBA?AV0@D@Z     00000001800436f0 f   libvcruntimed:undname.obj
 0001:00042740       ??HDName@@QEBA?AV0@PEAV0@@Z 0000000180043740 f   libvcruntimed:undname.obj
 0001:00042790       ??HDName@@QEBA?AV0@W4DNameStatus@@@Z 0000000180043790 f   libvcruntimed:undname.obj
 0001:000427e0       ??HStringLiteral@@QEBA?AU0@H@Z 00000001800437e0 f i libvcruntimed:undname.obj
 0001:00042820       ??YDName@@QEAAAEAV0@AEBUStringLiteral@@@Z 0000000180043820 f   libvcruntimed:undname.obj
 0001:000428f0       ??YDName@@QEAAAEAV0@AEBV0@@Z 00000001800438f0 f   libvcruntimed:undname.obj
 0001:000429b0       ??YDName@@QEAAAEAV0@D@Z    00000001800439b0 f   libvcruntimed:undname.obj
 0001:00042a50       ??YDName@@QEAAAEAV0@PEAV0@@Z 0000000180043a50 f   libvcruntimed:undname.obj
 0001:00042b30       ??YDName@@QEAAAEAV0@W4DNameStatus@@@Z 0000000180043b30 f   libvcruntimed:undname.obj
 0001:00042ba0       ??YReplicator@@QEAAAEAV0@AEBVDName@@@Z 0000000180043ba0 f   libvcruntimed:undname.obj
 0001:00042c60       ??_5DName@@QEAAAEAV0@AEBV0@@Z 0000000180043c60 f   libvcruntimed:undname.obj
 0001:00042cd0       ??__K_l@@YA?AUStringLiteral@@PEBD_K@Z 0000000180043cd0 f i libvcruntimed:undname.obj
 0001:00042d20       ?Constructor@_HeapManager@@QEAAXP6APEAX_K@ZP6AXPEAX@Z@Z 0000000180043d20 f i libvcruntimed:undname.obj
 0001:00042d80       ?Destructor@_HeapManager@@QEAAXXZ 0000000180043d80 f i libvcruntimed:undname.obj
 0001:00042e20       ?UScore@UnDecorator@@SA?AUStringLiteral@@W4Tokens@@@Z 0000000180043e20 f   libvcruntimed:undname.obj
 0001:00042eb0       ?composeDeclaration@UnDecorator@@CA?AVDName@@AEBV2@@Z 0000000180043eb0 f i libvcruntimed:undname.obj
 0001:000453b0       ?dbGetString@DName@@QEBAPEADXZ 00000001800463b0 f   libvcruntimed:undname.obj
 0001:000453e0       ?doAccessSpecifiers@UnDecorator@@SAHXZ 00000001800463e0 f i libvcruntimed:undname.obj
 0001:00045410       ?doAllocationLanguage@UnDecorator@@SAHXZ 0000000180046410 f i libvcruntimed:undname.obj
 0001:00045440       ?doAllocationModel@UnDecorator@@SAHXZ 0000000180046440 f i libvcruntimed:undname.obj
 0001:00045470       ?doEcsu@UnDecorator@@SAHXZ 0000000180046470 f i libvcruntimed:undname.obj
 0001:000454a0       ?doEllipsis@UnDecorator@@SAHXZ 00000001800464a0 f i libvcruntimed:undname.obj
 0001:000454d0       ?doFunctionReturns@UnDecorator@@SAHXZ 00000001800464d0 f i libvcruntimed:undname.obj
 0001:00045500       ?doMSKeywords@UnDecorator@@SAHXZ 0000000180046500 f i libvcruntimed:undname.obj
 0001:00045530       ?doMemberTypes@UnDecorator@@SAHXZ 0000000180046530 f i libvcruntimed:undname.obj
 0001:00045560       ?doNameOnly@UnDecorator@@SAHXZ 0000000180046560 f i libvcruntimed:undname.obj
 0001:00045570       ?doNoIdentCharCheck@UnDecorator@@SAHXZ 0000000180046570 f i libvcruntimed:undname.obj
 0001:00045580       ?doPchar@DName@@AEAAXD@Z   0000000180046580 f   libvcruntimed:undname.obj
 0001:00045610       ?doPtr64@UnDecorator@@SAHXZ 0000000180046610 f i libvcruntimed:undname.obj
 0001:00045640       ?doRestrictionSpec@UnDecorator@@SAHXZ 0000000180046640 f i libvcruntimed:undname.obj
 0001:00045670       ?doThisTypes@UnDecorator@@SAHXZ 0000000180046670 f i libvcruntimed:undname.obj
 0001:000456a0       ?doThrowTypes@UnDecorator@@SAHXZ 00000001800466a0 f i libvcruntimed:undname.obj
 0001:000456d0       ?doTypeOnly@UnDecorator@@SAHXZ 00000001800466d0 f i libvcruntimed:undname.obj
 0001:000456e0       ?doUnderScore@UnDecorator@@SAHXZ 00000001800466e0 f i libvcruntimed:undname.obj
 0001:00045710       ?getArgumentList@UnDecorator@@CA?AVDName@@XZ 0000000180046710 f   libvcruntimed:undname.obj
 0001:000458b0       ?getArgumentTypes@UnDecorator@@CA?AVDName@@XZ 00000001800468b0 f   libvcruntimed:undname.obj
 0001:00045c10       ?getArrayType@UnDecorator@@CA?AVDName@@AEBV2@@Z 0000000180046c10 f i libvcruntimed:undname.obj
 0001:00045fd0       ?getBasedType@UnDecorator@@CA?AVDName@@XZ 0000000180046fd0 f   libvcruntimed:undname.obj
 0001:00046140       ?getBasicDataType@UnDecorator@@CA?AVDName@@AEBV2@@Z 0000000180047140 f   libvcruntimed:undname.obj
 0001:00046e10       ?getCHPEName@UnDecorator@@QEAAPEADPEADH@Z 0000000180047e10 f i libvcruntimed:undname.obj
 0001:00046fe0       ?getCallIndex@UnDecorator@@CA?AVDName@@XZ 0000000180047fe0 f i libvcruntimed:undname.obj
 0001:00047000       ?getCallingConvention@UnDecorator@@CA?AVDName@@XZ 0000000180048000 f   libvcruntimed:undname.obj
 0001:000473a0       ?getDataIndirectType@UnDecorator@@CA?AVDName@@AEBV2@W4IndirectionKind@@0H@Z 00000001800483a0 f   libvcruntimed:undname.obj
 0001:00048040       ?getDataIndirectType@UnDecorator@@CA?AVDName@@XZ 0000000180049040 f i libvcruntimed:undname.obj
 0001:00048090       ?getDataType@UnDecorator@@CA?AVDName@@PEAV2@@Z 0000000180049090 f   libvcruntimed:undname.obj
 0001:00048270       ?getDecoratedName@UnDecorator@@CA?AVDName@@XZ 0000000180049270 f   libvcruntimed:undname.obj
 0001:00048770       ?getDimension@UnDecorator@@CA?AVDName@@_N@Z 0000000180049770 f   libvcruntimed:undname.obj
 0001:00048b20       ?getDispatchTarget@UnDecorator@@CA?AVDName@@XZ 0000000180049b20 f   libvcruntimed:undname.obj
 0001:00048bf0       ?getDisplacement@UnDecorator@@CA?AVDName@@XZ 0000000180049bf0 f i libvcruntimed:undname.obj
 0001:00048c10       ?getECSUDataType@UnDecorator@@CA?AVDName@@XZ 0000000180049c10 f   libvcruntimed:undname.obj
 0001:00048f80       ?getECSUName@UnDecorator@@CA?AVDName@@XZ 0000000180049f80 f i libvcruntimed:undname.obj
 0001:00048fa0       ?getEnumType@UnDecorator@@CA?AVDName@@XZ 0000000180049fa0 f i libvcruntimed:undname.obj
 0001:00049230       ?getExtendedDataIndirectType@UnDecorator@@CA?AVDName@@AEAW4IndirectionKind@@AEA_NH@Z 000000018004a230 f   libvcruntimed:undname.obj
 0001:00049550       ?getExternalDataType@UnDecorator@@CA?AVDName@@AEBV2@@Z 000000018004a550 f i libvcruntimed:undname.obj
 0001:00049630       ?getFunctionIndirectType@UnDecorator@@CA?AVDName@@AEBV2@@Z 000000018004a630 f   libvcruntimed:undname.obj
 0001:00049c60       ?getGuardNumber@UnDecorator@@CA?AVDName@@XZ 000000018004ac60 f i libvcruntimed:undname.obj
 0001:00049c80       ?getLastChar@DName@@QEBADXZ 000000018004ac80 f i libvcruntimed:undname.obj
 0001:00049cd0       ?getLastChar@DNameStatusNode@@UEBADXZ 000000018004acd0 f i libvcruntimed:undname.obj
 0001:00049d10       ?getLastChar@charNode@@UEBADXZ 000000018004ad10 f i libvcruntimed:undname.obj
 0001:00049d20       ?getLastChar@pDNameNode@@UEBADXZ 000000018004ad20 f i libvcruntimed:undname.obj
 0001:00049d60       ?getLastChar@pairNode@@UEBADXZ 000000018004ad60 f i libvcruntimed:undname.obj
 0001:00049de0       ?getLastChar@pcharNode@@UEBADXZ 000000018004ade0 f i libvcruntimed:undname.obj
 0001:00049e20       ?getLexicalFrame@UnDecorator@@CA?AVDName@@XZ 000000018004ae20 f i libvcruntimed:undname.obj
 0001:00049e70       ?getMemoryWithBuffer@_HeapManager@@QEAAPEAX_K@Z 000000018004ae70 f   libvcruntimed:undname.obj
 0001:00049fc0       ?getMemoryWithoutBuffer@_HeapManager@@QEAAPEAX_K@Z 000000018004afc0 f   libvcruntimed:undname.obj
 0001:0004a010       ?getNoexcept@UnDecorator@@CA?AVDName@@XZ 000000018004b010 f   libvcruntimed:undname.obj
 0001:0004a0c0       ?getNumberOfDimensions@UnDecorator@@CAHXZ 000000018004b0c0 f   libvcruntimed:undname.obj
 0001:0004a1e0       ?getOperatorName@UnDecorator@@CA?AVDName@@_NPEA_N@Z 000000018004b1e0 f i libvcruntimed:undname.obj
 0001:0004b090       ?getPointerType@UnDecorator@@CA?AVDName@@AEBV2@0@Z 000000018004c090 f i libvcruntimed:undname.obj
 0001:0004b0d0       ?getPointerTypeArray@UnDecorator@@CA?AVDName@@AEBV2@0@Z 000000018004c0d0 f i libvcruntimed:undname.obj
 0001:0004b110       ?getPrimaryDataType@UnDecorator@@CA?AVDName@@AEBV2@@Z 000000018004c110 f   libvcruntimed:undname.obj
 0001:0004b700       ?getPtrRefDataType@UnDecorator@@CA?AVDName@@AEBV2@H@Z 000000018004c700 f   libvcruntimed:undname.obj
 0001:0004baf0       ?getPtrRefType@UnDecorator@@CA?AVDName@@AEBV2@0W4IndirectionKind@@@Z 000000018004caf0 f   libvcruntimed:undname.obj
 0001:0004bd30       ?getReferenceType@UnDecorator@@CA?AVDName@@AEBV2@0W4IndirectionKind@@@Z 000000018004cd30 f i libvcruntimed:undname.obj
 0001:0004bd70       ?getRestrictionSpec@UnDecorator@@CA?AVDName@@XZ 000000018004cd70 f   libvcruntimed:undname.obj
 0001:0004c000       ?getReturnType@UnDecorator@@CA?AVDName@@PEAV2@@Z 000000018004d000 f   libvcruntimed:undname.obj
 0001:0004c060       ?getScope@UnDecorator@@CA?AVDName@@XZ 000000018004d060 f   libvcruntimed:undname.obj
 0001:0004c7b0       ?getScopedName@UnDecorator@@CA?AVDName@@XZ 000000018004d7b0 f   libvcruntimed:undname.obj
 0001:0004c9b0       ?getSignedDimension@UnDecorator@@CA?AVDName@@XZ 000000018004d9b0 f   libvcruntimed:undname.obj
 0001:0004ca40       ?getStorageConvention@UnDecorator@@CA?AVDName@@XZ 000000018004da40 f i libvcruntimed:undname.obj
 0001:0004ca60       ?getString@DName@@QEBAPEADPEAD0@Z 000000018004da60 f i libvcruntimed:undname.obj
 0001:0004cae0       ?getString@DName@@QEBAPEADPEADH@Z 000000018004dae0 f i libvcruntimed:undname.obj
 0001:0004cba0       ?getString@DNameStatusNode@@UEBAPEADPEAD0@Z 000000018004dba0 f i libvcruntimed:undname.obj
 0001:0004cbf0       ?getString@charNode@@UEBAPEADPEAD0@Z 000000018004dbf0 f i libvcruntimed:undname.obj
 0001:0004cc30       ?getString@pDNameNode@@UEBAPEADPEAD0@Z 000000018004dc30 f i libvcruntimed:undname.obj
 0001:0004cc90       ?getString@pairNode@@UEBAPEADPEAD0@Z 000000018004dc90 f i libvcruntimed:undname.obj
 0001:0004cd60       ?getString@pcharNode@@UEBAPEADPEAD0@Z 000000018004dd60 f i libvcruntimed:undname.obj
 0001:0004cda0       ?getStringEncoding@UnDecorator@@CA?AVDName@@W4PrefixKind@@H@Z 000000018004dda0 f   libvcruntimed:undname.obj
 0001:0004cf00       ?getStringHelper@@YAPEADPEADPEBD1H@Z 000000018004df00 f i libvcruntimed:undname.obj
 0001:0004cf70       ?getSymbolName@UnDecorator@@CA?AVDName@@XZ 000000018004df70 f i libvcruntimed:undname.obj
 0001:0004d010       ?getTemplateArgumentList@UnDecorator@@CA?AVDName@@XZ 000000018004e010 f   libvcruntimed:undname.obj
 0001:0004d320       ?getTemplateName@UnDecorator@@CA?AVDName@@_N@Z 000000018004e320 f   libvcruntimed:undname.obj
 0001:0004d560       ?getTemplateNonTypeArgument@UnDecorator@@CA?AVDName@@XZ 000000018004e560 f   libvcruntimed:undname.obj
 0001:0004dda0       ?getTemplateTypeArgument@UnDecorator@@CA?AVDName@@XZ 000000018004eda0 f   libvcruntimed:undname.obj
 0001:0004e010       ?getThisType@UnDecorator@@CA?AVDName@@XZ 000000018004f010 f i libvcruntimed:undname.obj
 0001:0004e060       ?getThrowTypes@UnDecorator@@CA?AVDName@@XZ 000000018004f060 f   libvcruntimed:undname.obj
 0001:0004e0b0       ?getTypeEncoding@UnDecorator@@CAHXZ 000000018004f0b0 f i libvcruntimed:undname.obj
 0001:0004ece0       ?getUndecoratedName@UnDecorator@@QEAAPEADPEADH@Z 000000018004fce0 f i libvcruntimed:undname.obj
 0001:0004eed0       ?getVCallThunkType@UnDecorator@@CA?AVDName@@XZ 000000018004fed0 f i libvcruntimed:undname.obj
 0001:0004ef80       ?getVbTableType@UnDecorator@@CA?AVDName@@AEBV2@@Z 000000018004ff80 f i libvcruntimed:undname.obj
 0001:0004efb0       ?getVdispMapType@UnDecorator@@CA?AVDName@@AEBV2@@Z 000000018004ffb0 f i libvcruntimed:undname.obj
 0001:0004f070       ?getVfTableType@UnDecorator@@CA?AVDName@@AEBV2@@Z 0000000180050070 f i libvcruntimed:undname.obj
 0001:0004f310       ?getZName@UnDecorator@@CA?AVDName@@_N0@Z 0000000180050310 f   libvcruntimed:undname.obj
 0001:0004f7a0       ?haveTemplateParameters@UnDecorator@@SAHXZ 00000001800507a0 f i libvcruntimed:undname.obj
 0001:0004f7b0       ?isArray@DName@@QEBAHXZ    00000001800507b0 f i libvcruntimed:undname.obj
 0001:0004f7d0       ?isComArray@DName@@QEBAHXZ 00000001800507d0 f i libvcruntimed:undname.obj
 0001:0004f7f0       ?isEmpty@DName@@QEBAHXZ    00000001800507f0 f i libvcruntimed:undname.obj
 0001:0004f820       ?isFull@Replicator@@QEBAHXZ 0000000180050820 f i libvcruntimed:undname.obj
 0001:0004f850       ?isNoTE@DName@@QEBAHXZ     0000000180050850 f i libvcruntimed:undname.obj
 0001:0004f870       ?isPinPtr@DName@@QEBAHXZ   0000000180050870 f i libvcruntimed:undname.obj
 0001:0004f890       ?isPtrRef@DName@@QEBAHXZ   0000000180050890 f i libvcruntimed:undname.obj
 0001:0004f8b0       ?isUDC@DName@@QEBAHXZ      00000001800508b0 f i libvcruntimed:undname.obj
 0001:0004f900       ?isUDTThunk@DName@@QEBAHXZ 0000000180050900 f i libvcruntimed:undname.obj
 0001:0004f950       ?isVCallThunk@DName@@QEBAHXZ 0000000180050950 f i libvcruntimed:undname.obj
 0001:0004f970       ?isValid@DName@@QEBAHXZ    0000000180050970 f i libvcruntimed:undname.obj
 0001:0004f9b0       ?length@DName@@QEBAHXZ     00000001800509b0 f i libvcruntimed:undname.obj
 0001:0004fa00       ?length@DNameStatusNode@@UEBAHXZ 0000000180050a00 f i libvcruntimed:undname.obj
 0001:0004fa10       ?length@charNode@@UEBAHXZ  0000000180050a10 f i libvcruntimed:undname.obj
 0001:0004fa20       ?length@pDNameNode@@UEBAHXZ 0000000180050a20 f i libvcruntimed:undname.obj
 0001:0004fa60       ?length@pairNode@@UEBAHXZ  0000000180050a60 f i libvcruntimed:undname.obj
 0001:0004faf0       ?length@pcharNode@@UEBAHXZ 0000000180050af0 f i libvcruntimed:undname.obj
 0001:0004fb00       ?make@DNameStatusNode@@SAPEBV1@W4DNameStatus@@@Z 0000000180050b00 f i libvcruntimed:undname.obj
 0001:0004fb50       ?parseDecoratedName@UnDecorator@@CA?AVDName@@XZ 0000000180050b50 f   libvcruntimed:undname.obj
 0001:0004fd40       ?raw_length@DNameStatusNode@@UEBAHXZ 0000000180050d40 f i libvcruntimed:undname.obj
 0001:0004fd60       ?raw_length@charNode@@UEBAHXZ 0000000180050d60 f i libvcruntimed:undname.obj
 0001:0004fd80       ?raw_length@pDNameNode@@UEBAHXZ 0000000180050d80 f i libvcruntimed:undname.obj
 0001:0004fd90       ?raw_length@pairNode@@UEBAHXZ 0000000180050d90 f i libvcruntimed:undname.obj
 0001:0004fda0       ?raw_length@pcharNode@@UEBAHXZ 0000000180050da0 f i libvcruntimed:undname.obj
 0001:0004fdc0       ?setIsArray@DName@@QEAAXXZ 0000000180050dc0 f i libvcruntimed:undname.obj
 0001:0004fde0       ?setIsComArray@DName@@QEAAXXZ 0000000180050de0 f i libvcruntimed:undname.obj
 0001:0004fe00       ?setIsNoTE@DName@@QEAAXXZ  0000000180050e00 f i libvcruntimed:undname.obj
 0001:0004fe20       ?setIsPinPtr@DName@@QEAAXXZ 0000000180050e20 f i libvcruntimed:undname.obj
 0001:0004fe40       ?setIsUDC@DName@@QEAAXXZ   0000000180050e40 f i libvcruntimed:undname.obj
 0001:0004fe70       ?setIsVCallThunk@DName@@QEAAXXZ 0000000180050e70 f i libvcruntimed:undname.obj
 0001:0004fe90       ?setPtrRef@DName@@QEAAAEAV1@XZ 0000000180050e90 f i libvcruntimed:undname.obj
 0001:0004feb0       ?status@DName@@QEBA?AW4DNameStatus@@XZ 0000000180050eb0 f i libvcruntimed:undname.obj
 0001:0004ffe0       __unDName                  0000000180050fe0 f   libvcruntimed:undname.obj
 0001:00050040       __unDNameEx                0000000180051040 f   libvcruntimed:undname.obj
 0001:00050100       unDNameGenerateCHPE        0000000180051100 f   libvcruntimed:undname.obj
 0001:000501b0       ??$__crt_interlocked_exchange_pointer@UHINSTANCE__@@PEAU1@@@YAPEAUHINSTANCE__@@PEDSEAU0@QEAU0@@Z 00000001800511b0 f i libvcruntimed:winapi_downlevel.obj
 0001:000501d0       ??$__crt_interlocked_exchange_pointer@UHINSTANCE__@@PEAX@@YAPEAUHINSTANCE__@@PEDSEAU0@QEAX@Z 00000001800511d0 f i libvcruntimed:winapi_downlevel.obj
 0001:000501f0       ??$__crt_interlocked_exchange_pointer@XPEAX@@YAPEAXPEDSEAXQEAX@Z 00000001800511f0 f i libvcruntimed:winapi_downlevel.obj
 0001:00050210       ??$__crt_interlocked_read_pointer@UHINSTANCE__@@@@YAPEAUHINSTANCE__@@PEDSEAU0@@Z 0000000180051210 f i libvcruntimed:winapi_downlevel.obj
 0001:00050230       ??$__crt_interlocked_read_pointer@X@@YAPEAXPEDSEAX@Z 0000000180051230 f i libvcruntimed:winapi_downlevel.obj
 0001:00050740       __vcrt_FlsAlloc            0000000180051740 f   libvcruntimed:winapi_downlevel.obj
 0001:00050790       __vcrt_FlsFree             0000000180051790 f   libvcruntimed:winapi_downlevel.obj
 0001:000507e0       __vcrt_FlsGetValue         00000001800517e0 f   libvcruntimed:winapi_downlevel.obj
 0001:00050830       __vcrt_FlsSetValue         0000000180051830 f   libvcruntimed:winapi_downlevel.obj
 0001:00050890       __vcrt_InitializeCriticalSectionEx 0000000180051890 f   libvcruntimed:winapi_downlevel.obj
 0001:00050910       _CallSettingFrame          0000000180051910 f   libvcruntimed:handlers.obj
 0001:00050960       _CallSettingFrame_LookupContinuationIndex 0000000180051960 f   libvcruntimed:handlers.obj
 0001:00050990       _CallSettingFrame_NotifyContinuationAddr 0000000180051990 f   libvcruntimed:handlers.obj
 0001:000509c0       _CallSettingFrameEncoded   00000001800519c0 f   libvcruntimed:handlers.obj
 0001:00050a10       ??$?0AEBV?$stream_output_adapter@D@__crt_stdio_output@@AEB_KAEBQEBDAEBQEAU__crt_locale_pointers@@AEBQEAD@?$format_validation_base@DV?$stream_output_adapter@D@__crt_stdio_output@@@__crt_stdio_output@@IEAA@AEBV?$stream_output_adapter@D@1@AEB_KAEBQEBDAEBQEAU__crt_locale_pointers@@AEBQEAD@Z 0000000180051a10 f i libucrtd:output.obj
 0001:00050a60       ??$?0AEBV?$stream_output_adapter@D@__crt_stdio_output@@AEB_KAEBQEBDAEBQEAU__crt_locale_pointers@@AEBQEAD@?$positional_parameter_base@DV?$stream_output_adapter@D@__crt_stdio_output@@@__crt_stdio_output@@IEAA@AEBV?$stream_output_adapter@D@1@AEB_KAEBQEBDAEBQEAU__crt_locale_pointers@@AEBQEAD@Z 0000000180051a60 f i libucrtd:output.obj
 0001:00050b00       ??$?0AEBV?$stream_output_adapter@D@__crt_stdio_output@@AEB_KAEBQEBDAEBQEAU__crt_locale_pointers@@AEBQEAD@?$standard_base@DV?$stream_output_adapter@D@__crt_stdio_output@@@__crt_stdio_output@@IEAA@AEBV?$stream_output_adapter@D@1@AEB_KAEBQEBDAEBQEAU__crt_locale_pointers@@AEBQEAD@Z 0000000180051b00 f i libucrtd:output.obj
 0001:00050b70       ??$?0AEBV?$stream_output_adapter@_W@__crt_stdio_output@@AEB_KAEBQEB_WAEBQEAU__crt_locale_pointers@@AEBQEAD@?$format_validation_base@_WV?$stream_output_adapter@_W@__crt_stdio_output@@@__crt_stdio_output@@IEAA@AEBV?$stream_output_adapter@_W@1@AEB_KAEBQEB_WAEBQEAU__crt_locale_pointers@@AEBQEAD@Z 0000000180051b70 f i libucrtd:output.obj
 0001:00050bc0       ??$?0AEBV?$stream_output_adapter@_W@__crt_stdio_output@@AEB_KAEBQEB_WAEBQEAU__crt_locale_pointers@@AEBQEAD@?$positional_parameter_base@_WV?$stream_output_adapter@_W@__crt_stdio_output@@@__crt_stdio_output@@IEAA@AEBV?$stream_output_adapter@_W@1@AEB_KAEBQEB_WAEBQEAU__crt_locale_pointers@@AEBQEAD@Z 0000000180051bc0 f i libucrtd:output.obj
 0001:00050c60       ??$?0AEBV?$stream_output_adapter@_W@__crt_stdio_output@@AEB_KAEBQEB_WAEBQEAU__crt_locale_pointers@@AEBQEAD@?$standard_base@_WV?$stream_output_adapter@_W@__crt_stdio_output@@@__crt_stdio_output@@IEAA@AEBV?$stream_output_adapter@_W@1@AEB_KAEBQEB_WAEBQEAU__crt_locale_pointers@@AEBQEAD@Z 0000000180051c60 f i libucrtd:output.obj
 0001:00050cd0       ??$?0AEBV?$string_output_adapter@D@__crt_stdio_output@@AEB_KAEBQEBDAEBQEAU__crt_locale_pointers@@AEBQEAD@?$format_validation_base@DV?$string_output_adapter@D@__crt_stdio_output@@@__crt_stdio_output@@IEAA@AEBV?$string_output_adapter@D@1@AEB_KAEBQEBDAEBQEAU__crt_locale_pointers@@AEBQEAD@Z 0000000180051cd0 f i libucrtd:output.obj
 0001:00050d20       ??$?0AEBV?$string_output_adapter@D@__crt_stdio_output@@AEB_KAEBQEBDAEBQEAU__crt_locale_pointers@@AEBQEAD@?$positional_parameter_base@DV?$string_output_adapter@D@__crt_stdio_output@@@__crt_stdio_output@@IEAA@AEBV?$string_output_adapter@D@1@AEB_KAEBQEBDAEBQEAU__crt_locale_pointers@@AEBQEAD@Z 0000000180051d20 f i libucrtd:output.obj
 0001:00050dc0       ??$?0AEBV?$string_output_adapter@D@__crt_stdio_output@@AEB_KAEBQEBDAEBQEAU__crt_locale_pointers@@AEBQEAD@?$standard_base@DV?$string_output_adapter@D@__crt_stdio_output@@@__crt_stdio_output@@IEAA@AEBV?$string_output_adapter@D@1@AEB_KAEBQEBDAEBQEAU__crt_locale_pointers@@AEBQEAD@Z 0000000180051dc0 f i libucrtd:output.obj
 0001:00050e30       ??$?0AEBV?$string_output_adapter@_W@__crt_stdio_output@@AEB_KAEBQEB_WAEBQEAU__crt_locale_pointers@@AEBQEAD@?$format_validation_base@_WV?$string_output_adapter@_W@__crt_stdio_output@@@__crt_stdio_output@@IEAA@AEBV?$string_output_adapter@_W@1@AEB_KAEBQEB_WAEBQEAU__crt_locale_pointers@@AEBQEAD@Z 0000000180051e30 f i libucrtd:output.obj
 0001:00050e80       ??$?0AEBV?$string_output_adapter@_W@__crt_stdio_output@@AEB_KAEBQEB_WAEBQEAU__crt_locale_pointers@@AEBQEAD@?$positional_parameter_base@_WV?$string_output_adapter@_W@__crt_stdio_output@@@__crt_stdio_output@@IEAA@AEBV?$string_output_adapter@_W@1@AEB_KAEBQEB_WAEBQEAU__crt_locale_pointers@@AEBQEAD@Z 0000000180051e80 f i libucrtd:output.obj
 0001:00050f20       ??$?0AEBV?$string_output_adapter@_W@__crt_stdio_output@@AEB_KAEBQEB_WAEBQEAU__crt_locale_pointers@@AEBQEAD@?$standard_base@_WV?$string_output_adapter@_W@__crt_stdio_output@@@__crt_stdio_output@@IEAA@AEBV?$string_output_adapter@_W@1@AEB_KAEBQEB_WAEBQEAU__crt_locale_pointers@@AEBQEAD@Z 0000000180051f20 f i libucrtd:output.obj
 0001:00051350       ??$__crt_interlocked_read@J@@YAJPEDJ@Z 0000000180052350 f i libucrtd:output.obj
 0001:00054e30       ??$count@D@formatting_buffer@__crt_stdio_output@@QEBA_KXZ 0000000180055e30 f i libucrtd:output.obj
 0001:00054e80       ??$count@_W@formatting_buffer@__crt_stdio_output@@QEBA_KXZ 0000000180055e80 f i libucrtd:output.obj
 0001:00054ed0       ??$data@D@formatting_buffer@__crt_stdio_output@@QEAAPEADXZ 0000000180055ed0 f i libucrtd:output.obj
 0001:00054f20       ??$data@_W@formatting_buffer@__crt_stdio_output@@QEAAPEA_WXZ 0000000180055f20 f i libucrtd:output.obj
 0001:00054f70       ??$ensure_buffer_is_big_enough@D@formatting_buffer@__crt_stdio_output@@QEAA_N_K@Z 0000000180055f70 f i libucrtd:output.obj
 0001:000550a0       ??$ensure_buffer_is_big_enough@_W@formatting_buffer@__crt_stdio_output@@QEAA_N_K@Z 00000001800560a0 f i libucrtd:output.obj
 0001:000551d0       ??$extract_argument_from_va_list@C_J@?$positional_parameter_base@DV?$stream_output_adapter@D@__crt_stdio_output@@@__crt_stdio_output@@IEAA_NAEA_J@Z 00000001800561d0 f i libucrtd:output.obj
 0001:00055350       ??$extract_argument_from_va_list@C_J@?$positional_parameter_base@DV?$string_output_adapter@D@__crt_stdio_output@@@__crt_stdio_output@@IEAA_NAEA_J@Z 0000000180056350 f i libucrtd:output.obj
 0001:000554d0       ??$extract_argument_from_va_list@C_J@?$positional_parameter_base@_WV?$stream_output_adapter@_W@__crt_stdio_output@@@__crt_stdio_output@@IEAA_NAEA_J@Z 00000001800564d0 f i libucrtd:output.obj
 0001:00055650       ??$extract_argument_from_va_list@C_J@?$positional_parameter_base@_WV?$string_output_adapter@_W@__crt_stdio_output@@@__crt_stdio_output@@IEAA_NAEA_J@Z 0000000180056650 f i libucrtd:output.obj
 0001:000557d0       ??$extract_argument_from_va_list@C_J@?$standard_base@DV?$stream_output_adapter@D@__crt_stdio_output@@@__crt_stdio_output@@IEAA_NAEA_J@Z 00000001800567d0 f i libucrtd:output.obj
 0001:00055810       ??$extract_argument_from_va_list@C_J@?$standard_base@DV?$string_output_adapter@D@__crt_stdio_output@@@__crt_stdio_output@@IEAA_NAEA_J@Z 0000000180056810 f i libucrtd:output.obj
 0001:00055850       ??$extract_argument_from_va_list@C_J@?$standard_base@_WV?$stream_output_adapter@_W@__crt_stdio_output@@@__crt_stdio_output@@IEAA_NAEA_J@Z 0000000180056850 f i libucrtd:output.obj
 0001:00055890       ??$extract_argument_from_va_list@C_J@?$standard_base@_WV?$string_output_adapter@_W@__crt_stdio_output@@@__crt_stdio_output@@IEAA_NAEA_J@Z 0000000180056890 f i libucrtd:output.obj
 0001:000558d0       ??$extract_argument_from_va_list@E_J@?$positional_parameter_base@DV?$stream_output_adapter@D@__crt_stdio_output@@@__crt_stdio_output@@IEAA_NAEA_J@Z 00000001800568d0 f i libucrtd:output.obj
 0001:00055a50       ??$extract_argument_from_va_list@E_J@?$positional_parameter_base@DV?$string_output_adapter@D@__crt_stdio_output@@@__crt_stdio_output@@IEAA_NAEA_J@Z 0000000180056a50 f i libucrtd:output.obj
 0001:00055bd0       ??$extract_argument_from_va_list@E_J@?$positional_parameter_base@_WV?$stream_output_adapter@_W@__crt_stdio_output@@@__crt_stdio_output@@IEAA_NAEA_J@Z 0000000180056bd0 f i libucrtd:output.obj
 0001:00055d50       ??$extract_argument_from_va_list@E_J@?$positional_parameter_base@_WV?$string_output_adapter@_W@__crt_stdio_output@@@__crt_stdio_output@@IEAA_NAEA_J@Z 0000000180056d50 f i libucrtd:output.obj
 0001:00055ed0       ??$extract_argument_from_va_list@E_J@?$standard_base@DV?$stream_output_adapter@D@__crt_stdio_output@@@__crt_stdio_output@@IEAA_NAEA_J@Z 0000000180056ed0 f i libucrtd:output.obj
 0001:00055f10       ??$extract_argument_from_va_list@E_J@?$standard_base@DV?$string_output_adapter@D@__crt_stdio_output@@@__crt_stdio_output@@IEAA_NAEA_J@Z 0000000180056f10 f i libucrtd:output.obj
 0001:00055f50       ??$extract_argument_from_va_list@E_J@?$standard_base@_WV?$stream_output_adapter@_W@__crt_stdio_output@@@__crt_stdio_output@@IEAA_NAEA_J@Z 0000000180056f50 f i libucrtd:output.obj
 0001:00055f90       ??$extract_argument_from_va_list@E_J@?$standard_base@_WV?$string_output_adapter@_W@__crt_stdio_output@@@__crt_stdio_output@@IEAA_NAEA_J@Z 0000000180056f90 f i libucrtd:output.obj
 0001:00055fd0       ??$extract_argument_from_va_list@F_J@?$positional_parameter_base@DV?$stream_output_adapter@D@__crt_stdio_output@@@__crt_stdio_output@@IEAA_NAEA_J@Z 0000000180056fd0 f i libucrtd:output.obj
 0001:00056150       ??$extract_argument_from_va_list@F_J@?$positional_parameter_base@DV?$string_output_adapter@D@__crt_stdio_output@@@__crt_stdio_output@@IEAA_NAEA_J@Z 0000000180057150 f i libucrtd:output.obj
 0001:000562d0       ??$extract_argument_from_va_list@F_J@?$positional_parameter_base@_WV?$stream_output_adapter@_W@__crt_stdio_output@@@__crt_stdio_output@@IEAA_NAEA_J@Z 00000001800572d0 f i libucrtd:output.obj
 0001:00056450       ??$extract_argument_from_va_list@F_J@?$positional_parameter_base@_WV?$string_output_adapter@_W@__crt_stdio_output@@@__crt_stdio_output@@IEAA_NAEA_J@Z 0000000180057450 f i libucrtd:output.obj
 0001:000565d0       ??$extract_argument_from_va_list@F_J@?$standard_base@DV?$stream_output_adapter@D@__crt_stdio_output@@@__crt_stdio_output@@IEAA_NAEA_J@Z 00000001800575d0 f i libucrtd:output.obj
 0001:00056610       ??$extract_argument_from_va_list@F_J@?$standard_base@DV?$string_output_adapter@D@__crt_stdio_output@@@__crt_stdio_output@@IEAA_NAEA_J@Z 0000000180057610 f i libucrtd:output.obj
 0001:00056650       ??$extract_argument_from_va_list@F_J@?$standard_base@_WV?$stream_output_adapter@_W@__crt_stdio_output@@@__crt_stdio_output@@IEAA_NAEA_J@Z 0000000180057650 f i libucrtd:output.obj
 0001:00056690       ??$extract_argument_from_va_list@F_J@?$standard_base@_WV?$string_output_adapter@_W@__crt_stdio_output@@@__crt_stdio_output@@IEAA_NAEA_J@Z 0000000180057690 f i libucrtd:output.obj
 0001:000566d0       ??$extract_argument_from_va_list@GD@?$positional_parameter_base@DV?$stream_output_adapter@D@__crt_stdio_output@@@__crt_stdio_output@@IEAA_NAEAD@Z 00000001800576d0 f i libucrtd:output.obj
 0001:00056850       ??$extract_argument_from_va_list@GD@?$positional_parameter_base@DV?$string_output_adapter@D@__crt_stdio_output@@@__crt_stdio_output@@IEAA_NAEAD@Z 0000000180057850 f i libucrtd:output.obj
 0001:000569d0       ??$extract_argument_from_va_list@GD@?$standard_base@DV?$stream_output_adapter@D@__crt_stdio_output@@@__crt_stdio_output@@IEAA_NAEAD@Z 00000001800579d0 f i libucrtd:output.obj
 0001:00056a00       ??$extract_argument_from_va_list@GD@?$standard_base@DV?$string_output_adapter@D@__crt_stdio_output@@@__crt_stdio_output@@IEAA_NAEAD@Z 0000000180057a00 f i libucrtd:output.obj
 0001:00056a30       ??$extract_argument_from_va_list@G_J@?$positional_parameter_base@DV?$stream_output_adapter@D@__crt_stdio_output@@@__crt_stdio_output@@IEAA_NAEA_J@Z 0000000180057a30 f i libucrtd:output.obj
 0001:00056bb0       ??$extract_argument_from_va_list@G_J@?$positional_parameter_base@DV?$string_output_adapter@D@__crt_stdio_output@@@__crt_stdio_output@@IEAA_NAEA_J@Z 0000000180057bb0 f i libucrtd:output.obj
 0001:00056d30       ??$extract_argument_from_va_list@G_J@?$positional_parameter_base@_WV?$stream_output_adapter@_W@__crt_stdio_output@@@__crt_stdio_output@@IEAA_NAEA_J@Z 0000000180057d30 f i libucrtd:output.obj
 0001:00056eb0       ??$extract_argument_from_va_list@G_J@?$positional_parameter_base@_WV?$string_output_adapter@_W@__crt_stdio_output@@@__crt_stdio_output@@IEAA_NAEA_J@Z 0000000180057eb0 f i libucrtd:output.obj
 0001:00057030       ??$extract_argument_from_va_list@G_J@?$standard_base@DV?$stream_output_adapter@D@__crt_stdio_output@@@__crt_stdio_output@@IEAA_NAEA_J@Z 0000000180058030 f i libucrtd:output.obj
 0001:00057070       ??$extract_argument_from_va_list@G_J@?$standard_base@DV?$string_output_adapter@D@__crt_stdio_output@@@__crt_stdio_output@@IEAA_NAEA_J@Z 0000000180058070 f i libucrtd:output.obj
 0001:000570b0       ??$extract_argument_from_va_list@G_J@?$standard_base@_WV?$stream_output_adapter@_W@__crt_stdio_output@@@__crt_stdio_output@@IEAA_NAEA_J@Z 00000001800580b0 f i libucrtd:output.obj
 0001:000570f0       ??$extract_argument_from_va_list@G_J@?$standard_base@_WV?$string_output_adapter@_W@__crt_stdio_output@@@__crt_stdio_output@@IEAA_NAEA_J@Z 00000001800580f0 f i libucrtd:output.obj
 0001:00057130       ??$extract_argument_from_va_list@H_J@?$positional_parameter_base@DV?$stream_output_adapter@D@__crt_stdio_output@@@__crt_stdio_output@@IEAA_NAEA_J@Z 0000000180058130 f i libucrtd:output.obj
 0001:000572b0       ??$extract_argument_from_va_list@H_J@?$positional_parameter_base@DV?$string_output_adapter@D@__crt_stdio_output@@@__crt_stdio_output@@IEAA_NAEA_J@Z 00000001800582b0 f i libucrtd:output.obj
 0001:00057430       ??$extract_argument_from_va_list@H_J@?$positional_parameter_base@_WV?$stream_output_adapter@_W@__crt_stdio_output@@@__crt_stdio_output@@IEAA_NAEA_J@Z 0000000180058430 f i libucrtd:output.obj
 0001:000575b0       ??$extract_argument_from_va_list@H_J@?$positional_parameter_base@_WV?$string_output_adapter@_W@__crt_stdio_output@@@__crt_stdio_output@@IEAA_NAEA_J@Z 00000001800585b0 f i libucrtd:output.obj
 0001:00057730       ??$extract_argument_from_va_list@H_J@?$standard_base@DV?$stream_output_adapter@D@__crt_stdio_output@@@__crt_stdio_output@@IEAA_NAEA_J@Z 0000000180058730 f i libucrtd:output.obj
 0001:00057760       ??$extract_argument_from_va_list@H_J@?$standard_base@DV?$string_output_adapter@D@__crt_stdio_output@@@__crt_stdio_output@@IEAA_NAEA_J@Z 0000000180058760 f i libucrtd:output.obj
 0001:00057790       ??$extract_argument_from_va_list@H_J@?$standard_base@_WV?$stream_output_adapter@_W@__crt_stdio_output@@@__crt_stdio_output@@IEAA_NAEA_J@Z 0000000180058790 f i libucrtd:output.obj
 0001:000577c0       ??$extract_argument_from_va_list@H_J@?$standard_base@_WV?$string_output_adapter@_W@__crt_stdio_output@@@__crt_stdio_output@@IEAA_NAEA_J@Z 00000001800587c0 f i libucrtd:output.obj
 0001:000577f0       ??$extract_argument_from_va_list@I_J@?$positional_parameter_base@DV?$stream_output_adapter@D@__crt_stdio_output@@@__crt_stdio_output@@IEAA_NAEA_J@Z 00000001800587f0 f i libucrtd:output.obj
 0001:00057970       ??$extract_argument_from_va_list@I_J@?$positional_parameter_base@DV?$string_output_adapter@D@__crt_stdio_output@@@__crt_stdio_output@@IEAA_NAEA_J@Z 0000000180058970 f i libucrtd:output.obj
 0001:00057af0       ??$extract_argument_from_va_list@I_J@?$positional_parameter_base@_WV?$stream_output_adapter@_W@__crt_stdio_output@@@__crt_stdio_output@@IEAA_NAEA_J@Z 0000000180058af0 f i libucrtd:output.obj
 0001:00057c70       ??$extract_argument_from_va_list@I_J@?$positional_parameter_base@_WV?$string_output_adapter@_W@__crt_stdio_output@@@__crt_stdio_output@@IEAA_NAEA_J@Z 0000000180058c70 f i libucrtd:output.obj
 0001:00057df0       ??$extract_argument_from_va_list@I_J@?$standard_base@DV?$stream_output_adapter@D@__crt_stdio_output@@@__crt_stdio_output@@IEAA_NAEA_J@Z 0000000180058df0 f i libucrtd:output.obj
 0001:00057e20       ??$extract_argument_from_va_list@I_J@?$standard_base@DV?$string_output_adapter@D@__crt_stdio_output@@@__crt_stdio_output@@IEAA_NAEA_J@Z 0000000180058e20 f i libucrtd:output.obj
 0001:00057e50       ??$extract_argument_from_va_list@I_J@?$standard_base@_WV?$stream_output_adapter@_W@__crt_stdio_output@@@__crt_stdio_output@@IEAA_NAEA_J@Z 0000000180058e50 f i libucrtd:output.obj
 0001:00057e80       ??$extract_argument_from_va_list@I_J@?$standard_base@_WV?$string_output_adapter@_W@__crt_stdio_output@@@__crt_stdio_output@@IEAA_NAEA_J@Z 0000000180058e80 f i libucrtd:output.obj
 0001:00057eb0       ??$extract_argument_from_va_list@PEADPEAD@?$positional_parameter_base@DV?$stream_output_adapter@D@__crt_stdio_output@@@__crt_stdio_output@@IEAA_NAEAPEAD@Z 0000000180058eb0 f i libucrtd:output.obj
 0001:00058030       ??$extract_argument_from_va_list@PEADPEAD@?$positional_parameter_base@DV?$string_output_adapter@D@__crt_stdio_output@@@__crt_stdio_output@@IEAA_NAEAPEAD@Z 0000000180059030 f i libucrtd:output.obj
 0001:000581b0       ??$extract_argument_from_va_list@PEADPEAD@?$positional_parameter_base@_WV?$stream_output_adapter@_W@__crt_stdio_output@@@__crt_stdio_output@@IEAA_NAEAPEAD@Z 00000001800591b0 f i libucrtd:output.obj
 0001:00058330       ??$extract_argument_from_va_list@PEADPEAD@?$positional_parameter_base@_WV?$string_output_adapter@_W@__crt_stdio_output@@@__crt_stdio_output@@IEAA_NAEAPEAD@Z 0000000180059330 f i libucrtd:output.obj
 0001:000584b0       ??$extract_argument_from_va_list@PEADPEAD@?$standard_base@DV?$stream_output_adapter@D@__crt_stdio_output@@@__crt_stdio_output@@IEAA_NAEAPEAD@Z 00000001800594b0 f i libucrtd:output.obj
 0001:000584e0       ??$extract_argument_from_va_list@PEADPEAD@?$standard_base@DV?$string_output_adapter@D@__crt_stdio_output@@@__crt_stdio_output@@IEAA_NAEAPEAD@Z 00000001800594e0 f i libucrtd:output.obj
 0001:00058510       ??$extract_argument_from_va_list@PEADPEAD@?$standard_base@_WV?$stream_output_adapter@_W@__crt_stdio_output@@@__crt_stdio_output@@IEAA_NAEAPEAD@Z 0000000180059510 f i libucrtd:output.obj
 0001:00058540       ??$extract_argument_from_va_list@PEADPEAD@?$standard_base@_WV?$string_output_adapter@_W@__crt_stdio_output@@@__crt_stdio_output@@IEAA_NAEAPEAD@Z 0000000180059540 f i libucrtd:output.obj
 0001:00058db0       ??$extract_argument_from_va_list@PEAXPEAX@?$positional_parameter_base@DV?$stream_output_adapter@D@__crt_stdio_output@@@__crt_stdio_output@@IEAA_NAEAPEAX@Z 0000000180059db0 f i libucrtd:output.obj
 0001:00058f30       ??$extract_argument_from_va_list@PEAXPEAX@?$positional_parameter_base@DV?$string_output_adapter@D@__crt_stdio_output@@@__crt_stdio_output@@IEAA_NAEAPEAX@Z 0000000180059f30 f i libucrtd:output.obj
 0001:000590b0       ??$extract_argument_from_va_list@PEAXPEAX@?$positional_parameter_base@_WV?$stream_output_adapter@_W@__crt_stdio_output@@@__crt_stdio_output@@IEAA_NAEAPEAX@Z 000000018005a0b0 f i libucrtd:output.obj
 0001:00059230       ??$extract_argument_from_va_list@PEAXPEAX@?$positional_parameter_base@_WV?$string_output_adapter@_W@__crt_stdio_output@@@__crt_stdio_output@@IEAA_NAEAPEAX@Z 000000018005a230 f i libucrtd:output.obj
 0001:000593b0       ??$extract_argument_from_va_list@PEAXPEAX@?$standard_base@DV?$stream_output_adapter@D@__crt_stdio_output@@@__crt_stdio_output@@IEAA_NAEAPEAX@Z 000000018005a3b0 f i libucrtd:output.obj
 0001:000593e0       ??$extract_argument_from_va_list@PEAXPEAX@?$standard_base@DV?$string_output_adapter@D@__crt_stdio_output@@@__crt_stdio_output@@IEAA_NAEAPEAX@Z 000000018005a3e0 f i libucrtd:output.obj
 0001:00059410       ??$extract_argument_from_va_list@PEAXPEAX@?$standard_base@_WV?$stream_output_adapter@_W@__crt_stdio_output@@@__crt_stdio_output@@IEAA_NAEAPEAX@Z 000000018005a410 f i libucrtd:output.obj
 0001:00059440       ??$extract_argument_from_va_list@PEAXPEAX@?$standard_base@_WV?$string_output_adapter@_W@__crt_stdio_output@@@__crt_stdio_output@@IEAA_NAEAPEAX@Z 000000018005a440 f i libucrtd:output.obj
 0001:00059470       ??$extract_argument_from_va_list@U_CRT_DOUBLE@@U1@@?$positional_parameter_base@DV?$stream_output_adapter@D@__crt_stdio_output@@@__crt_stdio_output@@IEAA_NAEAU_CRT_DOUBLE@@@Z 000000018005a470 f i libucrtd:output.obj
 0001:00059610       ??$extract_argument_from_va_list@U_CRT_DOUBLE@@U1@@?$positional_parameter_base@DV?$string_output_adapter@D@__crt_stdio_output@@@__crt_stdio_output@@IEAA_NAEAU_CRT_DOUBLE@@@Z 000000018005a610 f i libucrtd:output.obj
 0001:000597b0       ??$extract_argument_from_va_list@U_CRT_DOUBLE@@U1@@?$positional_parameter_base@_WV?$stream_output_adapter@_W@__crt_stdio_output@@@__crt_stdio_output@@IEAA_NAEAU_CRT_DOUBLE@@@Z 000000018005a7b0 f i libucrtd:output.obj
 0001:00059950       ??$extract_argument_from_va_list@U_CRT_DOUBLE@@U1@@?$positional_parameter_base@_WV?$string_output_adapter@_W@__crt_stdio_output@@@__crt_stdio_output@@IEAA_NAEAU_CRT_DOUBLE@@@Z 000000018005a950 f i libucrtd:output.obj
 0001:00059af0       ??$extract_argument_from_va_list@U_CRT_DOUBLE@@U1@@?$standard_base@DV?$stream_output_adapter@D@__crt_stdio_output@@@__crt_stdio_output@@IEAA_NAEAU_CRT_DOUBLE@@@Z 000000018005aaf0 f i libucrtd:output.obj
 0001:00059b40       ??$extract_argument_from_va_list@U_CRT_DOUBLE@@U1@@?$standard_base@DV?$string_output_adapter@D@__crt_stdio_output@@@__crt_stdio_output@@IEAA_NAEAU_CRT_DOUBLE@@@Z 000000018005ab40 f i libucrtd:output.obj
 0001:00059b90       ??$extract_argument_from_va_list@U_CRT_DOUBLE@@U1@@?$standard_base@_WV?$stream_output_adapter@_W@__crt_stdio_output@@@__crt_stdio_output@@IEAA_NAEAU_CRT_DOUBLE@@@Z 000000018005ab90 f i libucrtd:output.obj
 0001:00059be0       ??$extract_argument_from_va_list@U_CRT_DOUBLE@@U1@@?$standard_base@_WV?$string_output_adapter@_W@__crt_stdio_output@@@__crt_stdio_output@@IEAA_NAEAU_CRT_DOUBLE@@@Z 000000018005abe0 f i libucrtd:output.obj
 0001:00059c30       ??$extract_argument_from_va_list@_J_J@?$positional_parameter_base@DV?$stream_output_adapter@D@__crt_stdio_output@@@__crt_stdio_output@@IEAA_NAEA_J@Z 000000018005ac30 f i libucrtd:output.obj
 0001:00059db0       ??$extract_argument_from_va_list@_J_J@?$positional_parameter_base@DV?$string_output_adapter@D@__crt_stdio_output@@@__crt_stdio_output@@IEAA_NAEA_J@Z 000000018005adb0 f i libucrtd:output.obj
 0001:00059f30       ??$extract_argument_from_va_list@_J_J@?$positional_parameter_base@_WV?$stream_output_adapter@_W@__crt_stdio_output@@@__crt_stdio_output@@IEAA_NAEA_J@Z 000000018005af30 f i libucrtd:output.obj
 0001:0005a0b0       ??$extract_argument_from_va_list@_J_J@?$positional_parameter_base@_WV?$string_output_adapter@_W@__crt_stdio_output@@@__crt_stdio_output@@IEAA_NAEA_J@Z 000000018005b0b0 f i libucrtd:output.obj
 0001:0005a230       ??$extract_argument_from_va_list@_J_J@?$standard_base@DV?$stream_output_adapter@D@__crt_stdio_output@@@__crt_stdio_output@@IEAA_NAEA_J@Z 000000018005b230 f i libucrtd:output.obj
 0001:0005a260       ??$extract_argument_from_va_list@_J_J@?$standard_base@DV?$string_output_adapter@D@__crt_stdio_output@@@__crt_stdio_output@@IEAA_NAEA_J@Z 000000018005b260 f i libucrtd:output.obj
 0001:0005a290       ??$extract_argument_from_va_list@_J_J@?$standard_base@_WV?$stream_output_adapter@_W@__crt_stdio_output@@@__crt_stdio_output@@IEAA_NAEA_J@Z 000000018005b290 f i libucrtd:output.obj
 0001:0005a2c0       ??$extract_argument_from_va_list@_J_J@?$standard_base@_WV?$string_output_adapter@_W@__crt_stdio_output@@@__crt_stdio_output@@IEAA_NAEA_J@Z 000000018005b2c0 f i libucrtd:output.obj
 0001:0005a2f0       ??$extract_argument_from_va_list@_K_J@?$positional_parameter_base@DV?$stream_output_adapter@D@__crt_stdio_output@@@__crt_stdio_output@@IEAA_NAEA_J@Z 000000018005b2f0 f i libucrtd:output.obj
 0001:0005a470       ??$extract_argument_from_va_list@_K_J@?$positional_parameter_base@DV?$string_output_adapter@D@__crt_stdio_output@@@__crt_stdio_output@@IEAA_NAEA_J@Z 000000018005b470 f i libucrtd:output.obj
 0001:0005a5f0       ??$extract_argument_from_va_list@_K_J@?$positional_parameter_base@_WV?$stream_output_adapter@_W@__crt_stdio_output@@@__crt_stdio_output@@IEAA_NAEA_J@Z 000000018005b5f0 f i libucrtd:output.obj
 0001:0005a770       ??$extract_argument_from_va_list@_K_J@?$positional_parameter_base@_WV?$string_output_adapter@_W@__crt_stdio_output@@@__crt_stdio_output@@IEAA_NAEA_J@Z 000000018005b770 f i libucrtd:output.obj
 0001:0005a8f0       ??$extract_argument_from_va_list@_K_J@?$standard_base@DV?$stream_output_adapter@D@__crt_stdio_output@@@__crt_stdio_output@@IEAA_NAEA_J@Z 000000018005b8f0 f i libucrtd:output.obj
 0001:0005a920       ??$extract_argument_from_va_list@_K_J@?$standard_base@DV?$string_output_adapter@D@__crt_stdio_output@@@__crt_stdio_output@@IEAA_NAEA_J@Z 000000018005b920 f i libucrtd:output.obj
 0001:0005a950       ??$extract_argument_from_va_list@_K_J@?$standard_base@_WV?$stream_output_adapter@_W@__crt_stdio_output@@@__crt_stdio_output@@IEAA_NAEA_J@Z 000000018005b950 f i libucrtd:output.obj
 0001:0005a980       ??$extract_argument_from_va_list@_K_J@?$standard_base@_WV?$string_output_adapter@_W@__crt_stdio_output@@@__crt_stdio_output@@IEAA_NAEA_J@Z 000000018005b980 f i libucrtd:output.obj
 0001:0005a9b0       ??$extract_argument_from_va_list@_W_W@?$positional_parameter_base@DV?$stream_output_adapter@D@__crt_stdio_output@@@__crt_stdio_output@@IEAA_NAEA_W@Z 000000018005b9b0 f i libucrtd:output.obj
 0001:0005ab30       ??$extract_argument_from_va_list@_W_W@?$positional_parameter_base@DV?$string_output_adapter@D@__crt_stdio_output@@@__crt_stdio_output@@IEAA_NAEA_W@Z 000000018005bb30 f i libucrtd:output.obj
 0001:0005acb0       ??$extract_argument_from_va_list@_W_W@?$positional_parameter_base@_WV?$stream_output_adapter@_W@__crt_stdio_output@@@__crt_stdio_output@@IEAA_NAEA_W@Z 000000018005bcb0 f i libucrtd:output.obj
 0001:0005ae30       ??$extract_argument_from_va_list@_W_W@?$positional_parameter_base@_WV?$string_output_adapter@_W@__crt_stdio_output@@@__crt_stdio_output@@IEAA_NAEA_W@Z 000000018005be30 f i libucrtd:output.obj
 0001:0005afb0       ??$extract_argument_from_va_list@_W_W@?$standard_base@DV?$stream_output_adapter@D@__crt_stdio_output@@@__crt_stdio_output@@IEAA_NAEA_W@Z 000000018005bfb0 f i libucrtd:output.obj
 0001:0005afe0       ??$extract_argument_from_va_list@_W_W@?$standard_base@DV?$string_output_adapter@D@__crt_stdio_output@@@__crt_stdio_output@@IEAA_NAEA_W@Z 000000018005bfe0 f i libucrtd:output.obj
 0001:0005b010       ??$extract_argument_from_va_list@_W_W@?$standard_base@_WV?$stream_output_adapter@_W@__crt_stdio_output@@@__crt_stdio_output@@IEAA_NAEA_W@Z 000000018005c010 f i libucrtd:output.obj
 0001:0005b040       ??$extract_argument_from_va_list@_W_W@?$standard_base@_WV?$string_output_adapter@_W@__crt_stdio_output@@@__crt_stdio_output@@IEAA_NAEA_W@Z 000000018005c040 f i libucrtd:output.obj
 0001:0005b070       ??$get_parameter_type@D@?$positional_parameter_base@DV?$stream_output_adapter@D@__crt_stdio_output@@@__crt_stdio_output@@CA?AW4parameter_type@01@PEAD@Z 000000018005c070 f i libucrtd:output.obj
 0001:0005b080       ??$get_parameter_type@D@?$positional_parameter_base@DV?$string_output_adapter@D@__crt_stdio_output@@@__crt_stdio_output@@CA?AW4parameter_type@01@PEAD@Z 000000018005c080 f i libucrtd:output.obj
 0001:0005b090       ??$get_parameter_type@D@?$positional_parameter_base@_WV?$stream_output_adapter@_W@__crt_stdio_output@@@__crt_stdio_output@@CA?AW4parameter_type@01@PEAD@Z 000000018005c090 f i libucrtd:output.obj
 0001:0005b0a0       ??$get_parameter_type@D@?$positional_parameter_base@_WV?$string_output_adapter@_W@__crt_stdio_output@@@__crt_stdio_output@@CA?AW4parameter_type@01@PEAD@Z 000000018005c0a0 f i libucrtd:output.obj
 0001:0005b0f0       ??$get_parameter_type@X@?$positional_parameter_base@DV?$stream_output_adapter@D@__crt_stdio_output@@@__crt_stdio_output@@CA?AW4parameter_type@01@PEAX@Z 000000018005c0f0 f i libucrtd:output.obj
 0001:0005b100       ??$get_parameter_type@X@?$positional_parameter_base@DV?$string_output_adapter@D@__crt_stdio_output@@@__crt_stdio_output@@CA?AW4parameter_type@01@PEAX@Z 000000018005c100 f i libucrtd:output.obj
 0001:0005b110       ??$get_parameter_type@X@?$positional_parameter_base@_WV?$stream_output_adapter@_W@__crt_stdio_output@@@__crt_stdio_output@@CA?AW4parameter_type@01@PEAX@Z 000000018005c110 f i libucrtd:output.obj
 0001:0005b120       ??$get_parameter_type@X@?$positional_parameter_base@_WV?$string_output_adapter@_W@__crt_stdio_output@@@__crt_stdio_output@@CA?AW4parameter_type@01@PEAX@Z 000000018005c120 f i libucrtd:output.obj
 0001:0005b130       ??$is_character_specifier@D@?$positional_parameter_base@DV?$stream_output_adapter@D@__crt_stdio_output@@@__crt_stdio_output@@CA_ND@Z 000000018005c130 f i libucrtd:output.obj
 0001:0005b170       ??$is_character_specifier@D@?$positional_parameter_base@DV?$string_output_adapter@D@__crt_stdio_output@@@__crt_stdio_output@@CA_ND@Z 000000018005c170 f i libucrtd:output.obj
 0001:0005b1b0       ??$is_character_specifier@_W@?$positional_parameter_base@_WV?$stream_output_adapter@_W@__crt_stdio_output@@@__crt_stdio_output@@CA_N_W@Z 000000018005c1b0 f i libucrtd:output.obj
 0001:0005b1f0       ??$is_character_specifier@_W@?$positional_parameter_base@_WV?$string_output_adapter@_W@__crt_stdio_output@@@__crt_stdio_output@@CA_N_W@Z 000000018005c1f0 f i libucrtd:output.obj
 0001:0005b230       ??$is_integral_specifier@D@?$positional_parameter_base@DV?$stream_output_adapter@D@__crt_stdio_output@@@__crt_stdio_output@@CA_ND@Z 000000018005c230 f i libucrtd:output.obj
 0001:0005b2a0       ??$is_integral_specifier@D@?$positional_parameter_base@DV?$string_output_adapter@D@__crt_stdio_output@@@__crt_stdio_output@@CA_ND@Z 000000018005c2a0 f i libucrtd:output.obj
 0001:0005b310       ??$is_integral_specifier@_W@?$positional_parameter_base@_WV?$stream_output_adapter@_W@__crt_stdio_output@@@__crt_stdio_output@@CA_N_W@Z 000000018005c310 f i libucrtd:output.obj
 0001:0005b380       ??$is_integral_specifier@_W@?$positional_parameter_base@_WV?$string_output_adapter@_W@__crt_stdio_output@@@__crt_stdio_output@@CA_N_W@Z 000000018005c380 f i libucrtd:output.obj
 0001:0005b3f0       ??$is_pointer_specifier@D@?$positional_parameter_base@DV?$stream_output_adapter@D@__crt_stdio_output@@@__crt_stdio_output@@CA_ND@Z 000000018005c3f0 f i libucrtd:output.obj
 0001:0005b420       ??$is_pointer_specifier@D@?$positional_parameter_base@DV?$string_output_adapter@D@__crt_stdio_output@@@__crt_stdio_output@@CA_ND@Z 000000018005c420 f i libucrtd:output.obj
 0001:0005b450       ??$is_pointer_specifier@_W@?$positional_parameter_base@_WV?$stream_output_adapter@_W@__crt_stdio_output@@@__crt_stdio_output@@CA_N_W@Z 000000018005c450 f i libucrtd:output.obj
 0001:0005b480       ??$is_pointer_specifier@_W@?$positional_parameter_base@_WV?$string_output_adapter@_W@__crt_stdio_output@@@__crt_stdio_output@@CA_N_W@Z 000000018005c480 f i libucrtd:output.obj
 0001:0005b4b0       ??$is_string_specifier@D@?$positional_parameter_base@DV?$stream_output_adapter@D@__crt_stdio_output@@@__crt_stdio_output@@CA_ND@Z 000000018005c4b0 f i libucrtd:output.obj
 0001:0005b4f0       ??$is_string_specifier@D@?$positional_parameter_base@DV?$string_output_adapter@D@__crt_stdio_output@@@__crt_stdio_output@@CA_ND@Z 000000018005c4f0 f i libucrtd:output.obj
 0001:0005b530       ??$is_string_specifier@_W@?$positional_parameter_base@_WV?$stream_output_adapter@_W@__crt_stdio_output@@@__crt_stdio_output@@CA_N_W@Z 000000018005c530 f i libucrtd:output.obj
 0001:0005b570       ??$is_string_specifier@_W@?$positional_parameter_base@_WV?$string_output_adapter@_W@__crt_stdio_output@@@__crt_stdio_output@@CA_N_W@Z 000000018005c570 f i libucrtd:output.obj
 0001:0005b5b0       ??$is_wide_character_specifier@D@__crt_stdio_output@@YA_N_KDW4length_modifier@0@@Z 000000018005c5b0 f i libucrtd:output.obj
 0001:0005b650       ??$is_wide_character_specifier@_W@__crt_stdio_output@@YA_N_K_WW4length_modifier@0@@Z 000000018005c650 f i libucrtd:output.obj
 0001:0005b720       ??$peek_va_arg@C@__crt_stdio_output@@YACPEAD@Z 000000018005c720 f i libucrtd:output.obj
 0001:0005b780       ??$peek_va_arg@E@__crt_stdio_output@@YAEPEAD@Z 000000018005c780 f i libucrtd:output.obj
 0001:0005b7e0       ??$peek_va_arg@F@__crt_stdio_output@@YAFPEAD@Z 000000018005c7e0 f i libucrtd:output.obj
 0001:0005b840       ??$peek_va_arg@G@__crt_stdio_output@@YAGPEAD@Z 000000018005c840 f i libucrtd:output.obj
 0001:0005b8a0       ??$peek_va_arg@H@__crt_stdio_output@@YAHPEAD@Z 000000018005c8a0 f i libucrtd:output.obj
 0001:0005b8f0       ??$peek_va_arg@I@__crt_stdio_output@@YAIPEAD@Z 000000018005c8f0 f i libucrtd:output.obj
 0001:0005b940       ??$peek_va_arg@PEAD@__crt_stdio_output@@YAPEADPEAD@Z 000000018005c940 f i libucrtd:output.obj
 0001:0005bb20       ??$peek_va_arg@PEAX@__crt_stdio_output@@YAPEAXPEAD@Z 000000018005cb20 f i libucrtd:output.obj
 0001:0005bb80       ??$peek_va_arg@U_CRT_DOUBLE@@@__crt_stdio_output@@YA?AU_CRT_DOUBLE@@PEAD@Z 000000018005cb80 f i libucrtd:output.obj
 0001:0005bbe0       ??$peek_va_arg@_J@__crt_stdio_output@@YA_JPEAD@Z 000000018005cbe0 f i libucrtd:output.obj
 0001:0005bc40       ??$peek_va_arg@_K@__crt_stdio_output@@YA_KPEAD@Z 000000018005cc40 f i libucrtd:output.obj
 0001:0005bca0       ??$peek_va_arg@_W@__crt_stdio_output@@YA_WPEAD@Z 000000018005cca0 f i libucrtd:output.obj
 0001:0005bd00       ??$puttc_nolock@AEBDPEAU_iobuf@@@?$__crt_char_traits@D@@SAHAEBD$$QEAPEAU_iobuf@@@Z 000000018005cd00 f i libucrtd:output.obj
 0001:0005bd30       ??$puttc_nolock@AEB_WPEAU_iobuf@@@?$__crt_char_traits@_W@@SAGAEB_W$$QEAPEAU_iobuf@@@Z 000000018005cd30 f i libucrtd:output.obj
 0001:0005bd60       ??$read_va_arg@C@__crt_stdio_output@@YACAEAPEAD@Z 000000018005cd60 f i libucrtd:output.obj
 0001:0005bdd0       ??$read_va_arg@E@__crt_stdio_output@@YAEAEAPEAD@Z 000000018005cdd0 f i libucrtd:output.obj
 0001:0005be40       ??$read_va_arg@F@__crt_stdio_output@@YAFAEAPEAD@Z 000000018005ce40 f i libucrtd:output.obj
 0001:0005beb0       ??$read_va_arg@G@__crt_stdio_output@@YAGAEAPEAD@Z 000000018005ceb0 f i libucrtd:output.obj
 0001:0005bf20       ??$read_va_arg@H@__crt_stdio_output@@YAHAEAPEAD@Z 000000018005cf20 f i libucrtd:output.obj
 0001:0005bf80       ??$read_va_arg@I@__crt_stdio_output@@YAIAEAPEAD@Z 000000018005cf80 f i libucrtd:output.obj
 0001:0005bfe0       ??$read_va_arg@PEAD@__crt_stdio_output@@YAPEADAEAPEAD@Z 000000018005cfe0 f i libucrtd:output.obj
 0001:0005c590       ??$read_va_arg@PEAX@__crt_stdio_output@@YAPEAXAEAPEAD@Z 000000018005d590 f i libucrtd:output.obj
 0001:0005c600       ??$read_va_arg@U_CRT_DOUBLE@@@__crt_stdio_output@@YA?AU_CRT_DOUBLE@@AEAPEAD@Z 000000018005d600 f i libucrtd:output.obj
 0001:0005c670       ??$read_va_arg@_J@__crt_stdio_output@@YA_JAEAPEAD@Z 000000018005d670 f i libucrtd:output.obj
 0001:0005c6e0       ??$read_va_arg@_K@__crt_stdio_output@@YA_KAEAPEAD@Z 000000018005d6e0 f i libucrtd:output.obj
 0001:0005c750       ??$read_va_arg@_W@__crt_stdio_output@@YA_WAEAPEAD@Z 000000018005d750 f i libucrtd:output.obj
 0001:0005c7c0       ??$scratch_count@D@formatting_buffer@__crt_stdio_output@@QEBA_KXZ 000000018005d7c0 f i libucrtd:output.obj
 0001:0005c7e0       ??$scratch_data@D@formatting_buffer@__crt_stdio_output@@QEAAPEADXZ 000000018005d7e0 f i libucrtd:output.obj
 0001:0005c850       ??$tcstol@AEAPEBDPEAPEADH@?$__crt_char_traits@D@@SAJAEAPEBD$$QEAPEAPEAD$$QEAH@Z 000000018005d850 f i libucrtd:output.obj
 0001:0005c890       ??$tcstol@AEAPEB_WPEAPEA_WH@?$__crt_char_traits@_W@@SAJAEAPEB_W$$QEAPEAPEA_W$$QEAH@Z 000000018005d890 f i libucrtd:output.obj
 0001:0005c8d0       ??$tcstol@PEBDPEAPEADH@?$__crt_char_traits@D@@SAJ$$QEAPEBD$$QEAPEAPEAD$$QEAH@Z 000000018005d8d0 f i libucrtd:output.obj
 0001:0005c910       ??$tcstol@PEB_WPEAPEA_WH@?$__crt_char_traits@_W@@SAJ$$QEAPEB_W$$QEAPEAPEA_W$$QEAH@Z 000000018005d910 f i libucrtd:output.obj
 0001:0005c950       ??$type_case_integer_parse_into_buffer@I@?$output_processor@DV?$stream_output_adapter@D@__crt_stdio_output@@V?$format_validation_base@DV?$stream_output_adapter@D@__crt_stdio_output@@@2@@__crt_stdio_output@@AEAAXII_N@Z 000000018005d950 f i libucrtd:output.obj
 0001:0005ca80       ??$type_case_integer_parse_into_buffer@I@?$output_processor@DV?$stream_output_adapter@D@__crt_stdio_output@@V?$positional_parameter_base@DV?$stream_output_adapter@D@__crt_stdio_output@@@2@@__crt_stdio_output@@AEAAXII_N@Z 000000018005da80 f i libucrtd:output.obj
 0001:0005cbb0       ??$type_case_integer_parse_into_buffer@I@?$output_processor@DV?$stream_output_adapter@D@__crt_stdio_output@@V?$standard_base@DV?$stream_output_adapter@D@__crt_stdio_output@@@2@@__crt_stdio_output@@AEAAXII_N@Z 000000018005dbb0 f i libucrtd:output.obj
 0001:0005cce0       ??$type_case_integer_parse_into_buffer@I@?$output_processor@DV?$string_output_adapter@D@__crt_stdio_output@@V?$format_validation_base@DV?$string_output_adapter@D@__crt_stdio_output@@@2@@__crt_stdio_output@@AEAAXII_N@Z 000000018005dce0 f i libucrtd:output.obj
 0001:0005ce10       ??$type_case_integer_parse_into_buffer@I@?$output_processor@DV?$string_output_adapter@D@__crt_stdio_output@@V?$positional_parameter_base@DV?$string_output_adapter@D@__crt_stdio_output@@@2@@__crt_stdio_output@@AEAAXII_N@Z 000000018005de10 f i libucrtd:output.obj
 0001:0005cf40       ??$type_case_integer_parse_into_buffer@I@?$output_processor@DV?$string_output_adapter@D@__crt_stdio_output@@V?$standard_base@DV?$string_output_adapter@D@__crt_stdio_output@@@2@@__crt_stdio_output@@AEAAXII_N@Z 000000018005df40 f i libucrtd:output.obj
 0001:0005d070       ??$type_case_integer_parse_into_buffer@I@?$output_processor@_WV?$stream_output_adapter@_W@__crt_stdio_output@@V?$format_validation_base@_WV?$stream_output_adapter@_W@__crt_stdio_output@@@2@@__crt_stdio_output@@AEAAXII_N@Z 000000018005e070 f i libucrtd:output.obj
 0001:0005d1b0       ??$type_case_integer_parse_into_buffer@I@?$output_processor@_WV?$stream_output_adapter@_W@__crt_stdio_output@@V?$positional_parameter_base@_WV?$stream_output_adapter@_W@__crt_stdio_output@@@2@@__crt_stdio_output@@AEAAXII_N@Z 000000018005e1b0 f i libucrtd:output.obj
 0001:0005d2f0       ??$type_case_integer_parse_into_buffer@I@?$output_processor@_WV?$stream_output_adapter@_W@__crt_stdio_output@@V?$standard_base@_WV?$stream_output_adapter@_W@__crt_stdio_output@@@2@@__crt_stdio_output@@AEAAXII_N@Z 000000018005e2f0 f i libucrtd:output.obj
 0001:0005d430       ??$type_case_integer_parse_into_buffer@I@?$output_processor@_WV?$string_output_adapter@_W@__crt_stdio_output@@V?$format_validation_base@_WV?$string_output_adapter@_W@__crt_stdio_output@@@2@@__crt_stdio_output@@AEAAXII_N@Z 000000018005e430 f i libucrtd:output.obj
 0001:0005d570       ??$type_case_integer_parse_into_buffer@I@?$output_processor@_WV?$string_output_adapter@_W@__crt_stdio_output@@V?$positional_parameter_base@_WV?$string_output_adapter@_W@__crt_stdio_output@@@2@@__crt_stdio_output@@AEAAXII_N@Z 000000018005e570 f i libucrtd:output.obj
 0001:0005d6b0       ??$type_case_integer_parse_into_buffer@I@?$output_processor@_WV?$string_output_adapter@_W@__crt_stdio_output@@V?$standard_base@_WV?$string_output_adapter@_W@__crt_stdio_output@@@2@@__crt_stdio_output@@AEAAXII_N@Z 000000018005e6b0 f i libucrtd:output.obj
 0001:0005d7f0       ??$type_case_integer_parse_into_buffer@_K@?$output_processor@DV?$stream_output_adapter@D@__crt_stdio_output@@V?$format_validation_base@DV?$stream_output_adapter@D@__crt_stdio_output@@@2@@__crt_stdio_output@@AEAAX_KI_N@Z 000000018005e7f0 f i libucrtd:output.obj
 0001:0005d940       ??$type_case_integer_parse_into_buffer@_K@?$output_processor@DV?$stream_output_adapter@D@__crt_stdio_output@@V?$positional_parameter_base@DV?$stream_output_adapter@D@__crt_stdio_output@@@2@@__crt_stdio_output@@AEAAX_KI_N@Z 000000018005e940 f i libucrtd:output.obj
 0001:0005da90       ??$type_case_integer_parse_into_buffer@_K@?$output_processor@DV?$stream_output_adapter@D@__crt_stdio_output@@V?$standard_base@DV?$stream_output_adapter@D@__crt_stdio_output@@@2@@__crt_stdio_output@@AEAAX_KI_N@Z 000000018005ea90 f i libucrtd:output.obj
 0001:0005dbe0       ??$type_case_integer_parse_into_buffer@_K@?$output_processor@DV?$string_output_adapter@D@__crt_stdio_output@@V?$format_validation_base@DV?$string_output_adapter@D@__crt_stdio_output@@@2@@__crt_stdio_output@@AEAAX_KI_N@Z 000000018005ebe0 f i libucrtd:output.obj
 0001:0005dd30       ??$type_case_integer_parse_into_buffer@_K@?$output_processor@DV?$string_output_adapter@D@__crt_stdio_output@@V?$positional_parameter_base@DV?$string_output_adapter@D@__crt_stdio_output@@@2@@__crt_stdio_output@@AEAAX_KI_N@Z 000000018005ed30 f i libucrtd:output.obj
 0001:0005de80       ??$type_case_integer_parse_into_buffer@_K@?$output_processor@DV?$string_output_adapter@D@__crt_stdio_output@@V?$standard_base@DV?$string_output_adapter@D@__crt_stdio_output@@@2@@__crt_stdio_output@@AEAAX_KI_N@Z 000000018005ee80 f i libucrtd:output.obj
 0001:0005dfd0       ??$type_case_integer_parse_into_buffer@_K@?$output_processor@_WV?$stream_output_adapter@_W@__crt_stdio_output@@V?$format_validation_base@_WV?$stream_output_adapter@_W@__crt_stdio_output@@@2@@__crt_stdio_output@@AEAAX_KI_N@Z 000000018005efd0 f i libucrtd:output.obj
 0001:0005e130       ??$type_case_integer_parse_into_buffer@_K@?$output_processor@_WV?$stream_output_adapter@_W@__crt_stdio_output@@V?$positional_parameter_base@_WV?$stream_output_adapter@_W@__crt_stdio_output@@@2@@__crt_stdio_output@@AEAAX_KI_N@Z 000000018005f130 f i libucrtd:output.obj
 0001:0005e290       ??$type_case_integer_parse_into_buffer@_K@?$output_processor@_WV?$stream_output_adapter@_W@__crt_stdio_output@@V?$standard_base@_WV?$stream_output_adapter@_W@__crt_stdio_output@@@2@@__crt_stdio_output@@AEAAX_KI_N@Z 000000018005f290 f i libucrtd:output.obj
 0001:0005e3f0       ??$type_case_integer_parse_into_buffer@_K@?$output_processor@_WV?$string_output_adapter@_W@__crt_stdio_output@@V?$format_validation_base@_WV?$string_output_adapter@_W@__crt_stdio_output@@@2@@__crt_stdio_output@@AEAAX_KI_N@Z 000000018005f3f0 f i libucrtd:output.obj
 0001:0005e550       ??$type_case_integer_parse_into_buffer@_K@?$output_processor@_WV?$string_output_adapter@_W@__crt_stdio_output@@V?$positional_parameter_base@_WV?$string_output_adapter@_W@__crt_stdio_output@@@2@@__crt_stdio_output@@AEAAX_KI_N@Z 000000018005f550 f i libucrtd:output.obj
 0001:0005e6b0       ??$type_case_integer_parse_into_buffer@_K@?$output_processor@_WV?$string_output_adapter@_W@__crt_stdio_output@@V?$standard_base@_WV?$string_output_adapter@_W@__crt_stdio_output@@@2@@__crt_stdio_output@@AEAAX_KI_N@Z 000000018005f6b0 f i libucrtd:output.obj
 0001:0005e810       ??$write_multiple_characters@V?$stream_output_adapter@D@__crt_stdio_output@@D@__crt_stdio_output@@YAXAEBV?$stream_output_adapter@D@0@DHQEAH@Z 000000018005f810 f i libucrtd:output.obj
 0001:0005e870       ??$write_multiple_characters@V?$stream_output_adapter@_W@__crt_stdio_output@@D@__crt_stdio_output@@YAXAEBV?$stream_output_adapter@_W@0@DHQEAH@Z 000000018005f870 f i libucrtd:output.obj
 0001:0005e8d0       ??$write_multiple_characters@V?$string_output_adapter@D@__crt_stdio_output@@D@__crt_stdio_output@@YAXAEBV?$string_output_adapter@D@0@DHQEAH@Z 000000018005f8d0 f i libucrtd:output.obj
 0001:0005e930       ??$write_multiple_characters@V?$string_output_adapter@_W@__crt_stdio_output@@D@__crt_stdio_output@@YAXAEBV?$string_output_adapter@_W@0@DHQEAH@Z 000000018005f930 f i libucrtd:output.obj
 0001:0005ed50       ??0?$common_data@D@__crt_stdio_output@@IEAA@XZ 000000018005fd50 f i libucrtd:output.obj
 0001:0005ee20       ??0?$common_data@_W@__crt_stdio_output@@IEAA@XZ 000000018005fe20 f i libucrtd:output.obj
 0001:0005eef0       ??0?$output_adapter_data@DV?$stream_output_adapter@D@__crt_stdio_output@@@__crt_stdio_output@@IEAA@AEBV?$stream_output_adapter@D@1@_KQEBDQEAU__crt_locale_pointers@@QEAD@Z 000000018005fef0 f i libucrtd:output.obj
 0001:0005ef70       ??0?$output_adapter_data@DV?$string_output_adapter@D@__crt_stdio_output@@@__crt_stdio_output@@IEAA@AEBV?$string_output_adapter@D@1@_KQEBDQEAU__crt_locale_pointers@@QEAD@Z 000000018005ff70 f i libucrtd:output.obj
 0001:0005eff0       ??0?$output_adapter_data@_WV?$stream_output_adapter@_W@__crt_stdio_output@@@__crt_stdio_output@@IEAA@AEBV?$stream_output_adapter@_W@1@_KQEB_WQEAU__crt_locale_pointers@@QEAD@Z 000000018005fff0 f i libucrtd:output.obj
 0001:0005f070       ??0?$output_adapter_data@_WV?$string_output_adapter@_W@__crt_stdio_output@@@__crt_stdio_output@@IEAA@AEBV?$string_output_adapter@_W@1@_KQEB_WQEAU__crt_locale_pointers@@QEAD@Z 0000000180060070 f i libucrtd:output.obj
 0001:0005f0f0       ??0?$output_processor@DV?$stream_output_adapter@D@__crt_stdio_output@@V?$format_validation_base@DV?$stream_output_adapter@D@__crt_stdio_output@@@2@@__crt_stdio_output@@QEAA@AEBV?$stream_output_adapter@D@1@_KQEBDQEAU__crt_locale_pointers@@QEAD@Z 00000001800600f0 f i libucrtd:output.obj
 0001:0005f140       ??0?$output_processor@DV?$stream_output_adapter@D@__crt_stdio_output@@V?$positional_parameter_base@DV?$stream_output_adapter@D@__crt_stdio_output@@@2@@__crt_stdio_output@@QEAA@AEBV?$stream_output_adapter@D@1@_KQEBDQEAU__crt_locale_pointers@@QEAD@Z 0000000180060140 f i libucrtd:output.obj
 0001:0005f190       ??0?$output_processor@DV?$stream_output_adapter@D@__crt_stdio_output@@V?$standard_base@DV?$stream_output_adapter@D@__crt_stdio_output@@@2@@__crt_stdio_output@@QEAA@AEBV?$stream_output_adapter@D@1@_KQEBDQEAU__crt_locale_pointers@@QEAD@Z 0000000180060190 f i libucrtd:output.obj
 0001:0005f1e0       ??0?$output_processor@DV?$string_output_adapter@D@__crt_stdio_output@@V?$format_validation_base@DV?$string_output_adapter@D@__crt_stdio_output@@@2@@__crt_stdio_output@@QEAA@AEBV?$string_output_adapter@D@1@_KQEBDQEAU__crt_locale_pointers@@QEAD@Z 00000001800601e0 f i libucrtd:output.obj
 0001:0005f230       ??0?$output_processor@DV?$string_output_adapter@D@__crt_stdio_output@@V?$positional_parameter_base@DV?$string_output_adapter@D@__crt_stdio_output@@@2@@__crt_stdio_output@@QEAA@AEBV?$string_output_adapter@D@1@_KQEBDQEAU__crt_locale_pointers@@QEAD@Z 0000000180060230 f i libucrtd:output.obj
 0001:0005f280       ??0?$output_processor@DV?$string_output_adapter@D@__crt_stdio_output@@V?$standard_base@DV?$string_output_adapter@D@__crt_stdio_output@@@2@@__crt_stdio_output@@QEAA@AEBV?$string_output_adapter@D@1@_KQEBDQEAU__crt_locale_pointers@@QEAD@Z 0000000180060280 f i libucrtd:output.obj
 0001:0005f2d0       ??0?$output_processor@_WV?$stream_output_adapter@_W@__crt_stdio_output@@V?$format_validation_base@_WV?$stream_output_adapter@_W@__crt_stdio_output@@@2@@__crt_stdio_output@@QEAA@AEBV?$stream_output_adapter@_W@1@_KQEB_WQEAU__crt_locale_pointers@@QEAD@Z 00000001800602d0 f i libucrtd:output.obj
 0001:0005f320       ??0?$output_processor@_WV?$stream_output_adapter@_W@__crt_stdio_output@@V?$positional_parameter_base@_WV?$stream_output_adapter@_W@__crt_stdio_output@@@2@@__crt_stdio_output@@QEAA@AEBV?$stream_output_adapter@_W@1@_KQEB_WQEAU__crt_locale_pointers@@QEAD@Z 0000000180060320 f i libucrtd:output.obj
 0001:0005f370       ??0?$output_processor@_WV?$stream_output_adapter@_W@__crt_stdio_output@@V?$standard_base@_WV?$stream_output_adapter@_W@__crt_stdio_output@@@2@@__crt_stdio_output@@QEAA@AEBV?$stream_output_adapter@_W@1@_KQEB_WQEAU__crt_locale_pointers@@QEAD@Z 0000000180060370 f i libucrtd:output.obj
 0001:0005f3c0       ??0?$output_processor@_WV?$string_output_adapter@_W@__crt_stdio_output@@V?$format_validation_base@_WV?$string_output_adapter@_W@__crt_stdio_output@@@2@@__crt_stdio_output@@QEAA@AEBV?$string_output_adapter@_W@1@_KQEB_WQEAU__crt_locale_pointers@@QEAD@Z 00000001800603c0 f i libucrtd:output.obj
 0001:0005f410       ??0?$output_processor@_WV?$string_output_adapter@_W@__crt_stdio_output@@V?$positional_parameter_base@_WV?$string_output_adapter@_W@__crt_stdio_output@@@2@@__crt_stdio_output@@QEAA@AEBV?$string_output_adapter@_W@1@_KQEB_WQEAU__crt_locale_pointers@@QEAD@Z 0000000180060410 f i libucrtd:output.obj
 0001:0005f460       ??0?$output_processor@_WV?$string_output_adapter@_W@__crt_stdio_output@@V?$standard_base@_WV?$string_output_adapter@_W@__crt_stdio_output@@@2@@__crt_stdio_output@@QEAA@AEBV?$string_output_adapter@_W@1@_KQEB_WQEAU__crt_locale_pointers@@QEAD@Z 0000000180060460 f i libucrtd:output.obj
 0001:0005f4b0       ??0?$stream_output_adapter@D@__crt_stdio_output@@QEAA@QEAU_iobuf@@@Z 00000001800604b0 f i libucrtd:output.obj
 0001:0005f4e0       ??0?$stream_output_adapter@_W@__crt_stdio_output@@QEAA@QEAU_iobuf@@@Z 00000001800604e0 f i libucrtd:output.obj
 0001:0005f510       ??0?$string_output_adapter@D@__crt_stdio_output@@QEAA@QEAU?$string_output_adapter_context@D@1@@Z 0000000180060510 f i libucrtd:output.obj
 0001:0005f530       ??0?$string_output_adapter@_W@__crt_stdio_output@@QEAA@QEAU?$string_output_adapter_context@_W@1@@Z 0000000180060530 f i libucrtd:output.obj
 0001:0005f550       ??0_LocaleUpdate@@QEAA@QEAU__crt_locale_pointers@@@Z 0000000180060550 f i libucrtd:output.obj
 0001:0005f670       ??0__acrt_stdio_temporary_buffering_guard@@QEAA@QEAU_iobuf@@@Z 0000000180060670 f i libucrtd:output.obj
 0001:0005f6b0       ??0__crt_deferred_errno_cache@@QEAA@XZ 00000001800606b0 f i libucrtd:output.obj
 0001:0005f6d0       ??0__crt_errno_guard@@QEAA@QEAH@Z 00000001800606d0 f i libucrtd:output.obj
 0001:0005f710       ??0__crt_stdio_stream@@QEAA@QEAU_iobuf@@@Z 0000000180060710 f i libucrtd:output.obj
 0001:0005f730       ??0formatting_buffer@__crt_stdio_output@@QEAA@XZ 0000000180060730 f i libucrtd:output.obj
 0001:0005f770       ??1?$common_data@D@__crt_stdio_output@@QEAA@XZ 0000000180060770 f i libucrtd:output.obj
 0001:0005f790       ??1?$common_data@_W@__crt_stdio_output@@QEAA@XZ 0000000180060790 f i libucrtd:output.obj
 0001:0005f7b0       ??1?$format_validation_base@DV?$stream_output_adapter@D@__crt_stdio_output@@@__crt_stdio_output@@QEAA@XZ 00000001800607b0 f i libucrtd:output.obj
 0001:0005f7d0       ??1?$format_validation_base@DV?$string_output_adapter@D@__crt_stdio_output@@@__crt_stdio_output@@QEAA@XZ 00000001800607d0 f i libucrtd:output.obj
 0001:0005f7f0       ??1?$format_validation_base@_WV?$stream_output_adapter@_W@__crt_stdio_output@@@__crt_stdio_output@@QEAA@XZ 00000001800607f0 f i libucrtd:output.obj
 0001:0005f810       ??1?$format_validation_base@_WV?$string_output_adapter@_W@__crt_stdio_output@@@__crt_stdio_output@@QEAA@XZ 0000000180060810 f i libucrtd:output.obj
 0001:0005f830       ??1?$output_adapter_data@DV?$stream_output_adapter@D@__crt_stdio_output@@@__crt_stdio_output@@QEAA@XZ 0000000180060830 f i libucrtd:output.obj
 0001:0005f850       ??1?$output_adapter_data@DV?$string_output_adapter@D@__crt_stdio_output@@@__crt_stdio_output@@QEAA@XZ 0000000180060850 f i libucrtd:output.obj
 0001:0005f870       ??1?$output_adapter_data@_WV?$stream_output_adapter@_W@__crt_stdio_output@@@__crt_stdio_output@@QEAA@XZ 0000000180060870 f i libucrtd:output.obj
 0001:0005f890       ??1?$output_adapter_data@_WV?$string_output_adapter@_W@__crt_stdio_output@@@__crt_stdio_output@@QEAA@XZ 0000000180060890 f i libucrtd:output.obj
 0001:0005f8b0       ??1?$output_processor@DV?$stream_output_adapter@D@__crt_stdio_output@@V?$format_validation_base@DV?$stream_output_adapter@D@__crt_stdio_output@@@2@@__crt_stdio_output@@QEAA@XZ 00000001800608b0 f i libucrtd:output.obj
 0001:0005f8d0       ??1?$output_processor@DV?$stream_output_adapter@D@__crt_stdio_output@@V?$positional_parameter_base@DV?$stream_output_adapter@D@__crt_stdio_output@@@2@@__crt_stdio_output@@QEAA@XZ 00000001800608d0 f i libucrtd:output.obj
 0001:0005f8f0       ??1?$output_processor@DV?$stream_output_adapter@D@__crt_stdio_output@@V?$standard_base@DV?$stream_output_adapter@D@__crt_stdio_output@@@2@@__crt_stdio_output@@QEAA@XZ 00000001800608f0 f i libucrtd:output.obj
 0001:0005f910       ??1?$output_processor@DV?$string_output_adapter@D@__crt_stdio_output@@V?$format_validation_base@DV?$string_output_adapter@D@__crt_stdio_output@@@2@@__crt_stdio_output@@QEAA@XZ 0000000180060910 f i libucrtd:output.obj
 0001:0005f930       ??1?$output_processor@DV?$string_output_adapter@D@__crt_stdio_output@@V?$positional_parameter_base@DV?$string_output_adapter@D@__crt_stdio_output@@@2@@__crt_stdio_output@@QEAA@XZ 0000000180060930 f i libucrtd:output.obj
 0001:0005f950       ??1?$output_processor@DV?$string_output_adapter@D@__crt_stdio_output@@V?$standard_base@DV?$string_output_adapter@D@__crt_stdio_output@@@2@@__crt_stdio_output@@QEAA@XZ 0000000180060950 f i libucrtd:output.obj
 0001:0005f970       ??1?$output_processor@_WV?$stream_output_adapter@_W@__crt_stdio_output@@V?$format_validation_base@_WV?$stream_output_adapter@_W@__crt_stdio_output@@@2@@__crt_stdio_output@@QEAA@XZ 0000000180060970 f i libucrtd:output.obj
 0001:0005f990       ??1?$output_processor@_WV?$stream_output_adapter@_W@__crt_stdio_output@@V?$positional_parameter_base@_WV?$stream_output_adapter@_W@__crt_stdio_output@@@2@@__crt_stdio_output@@QEAA@XZ 0000000180060990 f i libucrtd:output.obj
 0001:0005f9b0       ??1?$output_processor@_WV?$stream_output_adapter@_W@__crt_stdio_output@@V?$standard_base@_WV?$stream_output_adapter@_W@__crt_stdio_output@@@2@@__crt_stdio_output@@QEAA@XZ 00000001800609b0 f i libucrtd:output.obj
 0001:0005f9d0       ??1?$output_processor@_WV?$string_output_adapter@_W@__crt_stdio_output@@V?$format_validation_base@_WV?$string_output_adapter@_W@__crt_stdio_output@@@2@@__crt_stdio_output@@QEAA@XZ 00000001800609d0 f i libucrtd:output.obj
 0001:0005f9f0       ??1?$output_processor@_WV?$string_output_adapter@_W@__crt_stdio_output@@V?$positional_parameter_base@_WV?$string_output_adapter@_W@__crt_stdio_output@@@2@@__crt_stdio_output@@QEAA@XZ 00000001800609f0 f i libucrtd:output.obj
 0001:0005fa10       ??1?$output_processor@_WV?$string_output_adapter@_W@__crt_stdio_output@@V?$standard_base@_WV?$string_output_adapter@_W@__crt_stdio_output@@@2@@__crt_stdio_output@@QEAA@XZ 0000000180060a10 f i libucrtd:output.obj
 0001:0005fa30       ??1?$positional_parameter_base@DV?$stream_output_adapter@D@__crt_stdio_output@@@__crt_stdio_output@@QEAA@XZ 0000000180060a30 f i libucrtd:output.obj
 0001:0005fa50       ??1?$positional_parameter_base@DV?$string_output_adapter@D@__crt_stdio_output@@@__crt_stdio_output@@QEAA@XZ 0000000180060a50 f i libucrtd:output.obj
 0001:0005fa70       ??1?$positional_parameter_base@_WV?$stream_output_adapter@_W@__crt_stdio_output@@@__crt_stdio_output@@QEAA@XZ 0000000180060a70 f i libucrtd:output.obj
 0001:0005fa90       ??1?$positional_parameter_base@_WV?$string_output_adapter@_W@__crt_stdio_output@@@__crt_stdio_output@@QEAA@XZ 0000000180060a90 f i libucrtd:output.obj
 0001:0005fab0       ??1?$standard_base@DV?$stream_output_adapter@D@__crt_stdio_output@@@__crt_stdio_output@@QEAA@XZ 0000000180060ab0 f i libucrtd:output.obj
 0001:0005fad0       ??1?$standard_base@DV?$string_output_adapter@D@__crt_stdio_output@@@__crt_stdio_output@@QEAA@XZ 0000000180060ad0 f i libucrtd:output.obj
 0001:0005faf0       ??1?$standard_base@_WV?$stream_output_adapter@_W@__crt_stdio_output@@@__crt_stdio_output@@QEAA@XZ 0000000180060af0 f i libucrtd:output.obj
 0001:0005fb10       ??1?$standard_base@_WV?$string_output_adapter@_W@__crt_stdio_output@@@__crt_stdio_output@@QEAA@XZ 0000000180060b10 f i libucrtd:output.obj
 0001:0005fb30       ??1_LocaleUpdate@@QEAA@XZ  0000000180060b30 f i libucrtd:output.obj
 0001:0005fb70       ??1__acrt_stdio_temporary_buffering_guard@@QEAA@XZ 0000000180060b70 f i libucrtd:output.obj
 0001:0005fba0       ??1__crt_errno_guard@@QEAA@XZ 0000000180060ba0 f i libucrtd:output.obj
 0001:0005fbd0       ??1formatting_buffer@__crt_stdio_output@@QEAA@XZ 0000000180060bd0 f i libucrtd:output.obj
 0001:0005fc00       ??4?$__crt_unique_heap_ptr@DU__crt_internal_free_policy@@@@QEAAAEAV0@$$QEAV0@@Z 0000000180060c00 f i libucrtd:output.obj
 0001:0005fc40       ??C__crt_stdio_stream@@QEBAPEAU__crt_stdio_stream_data@@XZ 0000000180060c40 f i libucrtd:output.obj
 0001:000604f0       ?GetLocaleT@_LocaleUpdate@@QEAAPEAU__crt_locale_pointers@@XZ 00000001800614f0 f i libucrtd:output.obj
 0001:00060500       ?__crt_interlocked_read_32@@YAHPEDH@Z 0000000180061500 f i libucrtd:output.obj
 0001:00060520       ?adjust_hexit@?$output_processor@DV?$stream_output_adapter@D@__crt_stdio_output@@V?$format_validation_base@DV?$stream_output_adapter@D@__crt_stdio_output@@@2@@__crt_stdio_output@@CADH_N@Z 0000000180061520 f i libucrtd:output.obj
 0001:00060570       ?adjust_hexit@?$output_processor@DV?$stream_output_adapter@D@__crt_stdio_output@@V?$positional_parameter_base@DV?$stream_output_adapter@D@__crt_stdio_output@@@2@@__crt_stdio_output@@CADH_N@Z 0000000180061570 f i libucrtd:output.obj
 0001:000605c0       ?adjust_hexit@?$output_processor@DV?$stream_output_adapter@D@__crt_stdio_output@@V?$standard_base@DV?$stream_output_adapter@D@__crt_stdio_output@@@2@@__crt_stdio_output@@CADH_N@Z 00000001800615c0 f i libucrtd:output.obj
 0001:00060610       ?adjust_hexit@?$output_processor@DV?$string_output_adapter@D@__crt_stdio_output@@V?$format_validation_base@DV?$string_output_adapter@D@__crt_stdio_output@@@2@@__crt_stdio_output@@CADH_N@Z 0000000180061610 f i libucrtd:output.obj
 0001:00060660       ?adjust_hexit@?$output_processor@DV?$string_output_adapter@D@__crt_stdio_output@@V?$positional_parameter_base@DV?$string_output_adapter@D@__crt_stdio_output@@@2@@__crt_stdio_output@@CADH_N@Z 0000000180061660 f i libucrtd:output.obj
 0001:000606b0       ?adjust_hexit@?$output_processor@DV?$string_output_adapter@D@__crt_stdio_output@@V?$standard_base@DV?$string_output_adapter@D@__crt_stdio_output@@@2@@__crt_stdio_output@@CADH_N@Z 00000001800616b0 f i libucrtd:output.obj
 0001:00060700       ?adjust_hexit@?$output_processor@_WV?$stream_output_adapter@_W@__crt_stdio_output@@V?$format_validation_base@_WV?$stream_output_adapter@_W@__crt_stdio_output@@@2@@__crt_stdio_output@@CADH_N@Z 0000000180061700 f i libucrtd:output.obj
 0001:00060750       ?adjust_hexit@?$output_processor@_WV?$stream_output_adapter@_W@__crt_stdio_output@@V?$positional_parameter_base@_WV?$stream_output_adapter@_W@__crt_stdio_output@@@2@@__crt_stdio_output@@CADH_N@Z 0000000180061750 f i libucrtd:output.obj
 0001:000607a0       ?adjust_hexit@?$output_processor@_WV?$stream_output_adapter@_W@__crt_stdio_output@@V?$standard_base@_WV?$stream_output_adapter@_W@__crt_stdio_output@@@2@@__crt_stdio_output@@CADH_N@Z 00000001800617a0 f i libucrtd:output.obj
 0001:000607f0       ?adjust_hexit@?$output_processor@_WV?$string_output_adapter@_W@__crt_stdio_output@@V?$format_validation_base@_WV?$string_output_adapter@_W@__crt_stdio_output@@@2@@__crt_stdio_output@@CADH_N@Z 00000001800617f0 f i libucrtd:output.obj
 0001:00060840       ?adjust_hexit@?$output_processor@_WV?$string_output_adapter@_W@__crt_stdio_output@@V?$positional_parameter_base@_WV?$string_output_adapter@_W@__crt_stdio_output@@@2@@__crt_stdio_output@@CADH_N@Z 0000000180061840 f i libucrtd:output.obj
 0001:00060890       ?adjust_hexit@?$output_processor@_WV?$string_output_adapter@_W@__crt_stdio_output@@V?$standard_base@_WV?$string_output_adapter@_W@__crt_stdio_output@@@2@@__crt_stdio_output@@CADH_N@Z 0000000180061890 f i libucrtd:output.obj
 0001:000608e0       ?advance_to_next_pass@?$positional_parameter_base@DV?$stream_output_adapter@D@__crt_stdio_output@@@__crt_stdio_output@@IEAA_NXZ 00000001800618e0 f i libucrtd:output.obj
 0001:00060990       ?advance_to_next_pass@?$positional_parameter_base@DV?$string_output_adapter@D@__crt_stdio_output@@@__crt_stdio_output@@IEAA_NXZ 0000000180061990 f i libucrtd:output.obj
 0001:00060a40       ?advance_to_next_pass@?$positional_parameter_base@_WV?$stream_output_adapter@_W@__crt_stdio_output@@@__crt_stdio_output@@IEAA_NXZ 0000000180061a40 f i libucrtd:output.obj
 0001:00060af0       ?advance_to_next_pass@?$positional_parameter_base@_WV?$string_output_adapter@_W@__crt_stdio_output@@@__crt_stdio_output@@IEAA_NXZ 0000000180061af0 f i libucrtd:output.obj
 0001:00060ba0       ?advance_to_next_pass@?$standard_base@DV?$stream_output_adapter@D@__crt_stdio_output@@@__crt_stdio_output@@IEAA_NXZ 0000000180061ba0 f i libucrtd:output.obj
 0001:00060bf0       ?advance_to_next_pass@?$standard_base@DV?$string_output_adapter@D@__crt_stdio_output@@@__crt_stdio_output@@IEAA_NXZ 0000000180061bf0 f i libucrtd:output.obj
 0001:00060c40       ?advance_to_next_pass@?$standard_base@_WV?$stream_output_adapter@_W@__crt_stdio_output@@@__crt_stdio_output@@IEAA_NXZ 0000000180061c40 f i libucrtd:output.obj
 0001:00060c90       ?advance_to_next_pass@?$standard_base@_WV?$string_output_adapter@_W@__crt_stdio_output@@@__crt_stdio_output@@IEAA_NXZ 0000000180061c90 f i libucrtd:output.obj
 0001:00060ce0       ?crop_zeroes@__crt_stdio_output@@YAXPEADQEAU__crt_locale_pointers@@@Z 0000000180061ce0 f i libucrtd:output.obj
 0001:00060e20       ?find_next_state@?$output_processor@DV?$stream_output_adapter@D@__crt_stdio_output@@V?$format_validation_base@DV?$stream_output_adapter@D@__crt_stdio_output@@@2@@__crt_stdio_output@@AEBA?AW4state@2@DW432@@Z 0000000180061e20 f i libucrtd:output.obj
 0001:00060ec0       ?find_next_state@?$output_processor@DV?$stream_output_adapter@D@__crt_stdio_output@@V?$positional_parameter_base@DV?$stream_output_adapter@D@__crt_stdio_output@@@2@@__crt_stdio_output@@AEBA?AW4state@2@DW432@@Z 0000000180061ec0 f i libucrtd:output.obj
 0001:00060f60       ?find_next_state@?$output_processor@DV?$stream_output_adapter@D@__crt_stdio_output@@V?$standard_base@DV?$stream_output_adapter@D@__crt_stdio_output@@@2@@__crt_stdio_output@@AEBA?AW4state@2@DW432@@Z 0000000180061f60 f i libucrtd:output.obj
 0001:00061000       ?find_next_state@?$output_processor@DV?$string_output_adapter@D@__crt_stdio_output@@V?$format_validation_base@DV?$string_output_adapter@D@__crt_stdio_output@@@2@@__crt_stdio_output@@AEBA?AW4state@2@DW432@@Z 0000000180062000 f i libucrtd:output.obj
 0001:000610a0       ?find_next_state@?$output_processor@DV?$string_output_adapter@D@__crt_stdio_output@@V?$positional_parameter_base@DV?$string_output_adapter@D@__crt_stdio_output@@@2@@__crt_stdio_output@@AEBA?AW4state@2@DW432@@Z 00000001800620a0 f i libucrtd:output.obj
 0001:00061140       ?find_next_state@?$output_processor@DV?$string_output_adapter@D@__crt_stdio_output@@V?$standard_base@DV?$string_output_adapter@D@__crt_stdio_output@@@2@@__crt_stdio_output@@AEBA?AW4state@2@DW432@@Z 0000000180062140 f i libucrtd:output.obj
 0001:000611e0       ?find_next_state@?$output_processor@_WV?$stream_output_adapter@_W@__crt_stdio_output@@V?$format_validation_base@_WV?$stream_output_adapter@_W@__crt_stdio_output@@@2@@__crt_stdio_output@@AEBA?AW4state@2@_WW432@@Z 00000001800621e0 f i libucrtd:output.obj
 0001:00061280       ?find_next_state@?$output_processor@_WV?$stream_output_adapter@_W@__crt_stdio_output@@V?$positional_parameter_base@_WV?$stream_output_adapter@_W@__crt_stdio_output@@@2@@__crt_stdio_output@@AEBA?AW4state@2@_WW432@@Z 0000000180062280 f i libucrtd:output.obj
 0001:00061320       ?find_next_state@?$output_processor@_WV?$stream_output_adapter@_W@__crt_stdio_output@@V?$standard_base@_WV?$stream_output_adapter@_W@__crt_stdio_output@@@2@@__crt_stdio_output@@AEBA?AW4state@2@_WW432@@Z 0000000180062320 f i libucrtd:output.obj
 0001:000613c0       ?find_next_state@?$output_processor@_WV?$string_output_adapter@_W@__crt_stdio_output@@V?$format_validation_base@_WV?$string_output_adapter@_W@__crt_stdio_output@@@2@@__crt_stdio_output@@AEBA?AW4state@2@_WW432@@Z 00000001800623c0 f i libucrtd:output.obj
 0001:00061460       ?find_next_state@?$output_processor@_WV?$string_output_adapter@_W@__crt_stdio_output@@V?$positional_parameter_base@_WV?$string_output_adapter@_W@__crt_stdio_output@@@2@@__crt_stdio_output@@AEBA?AW4state@2@_WW432@@Z 0000000180062460 f i libucrtd:output.obj
 0001:00061500       ?find_next_state@?$output_processor@_WV?$string_output_adapter@_W@__crt_stdio_output@@V?$standard_base@_WV?$string_output_adapter@_W@__crt_stdio_output@@@2@@__crt_stdio_output@@AEBA?AW4state@2@_WW432@@Z 0000000180062500 f i libucrtd:output.obj
 0001:000615a0       ?force_decimal_point@__crt_stdio_output@@YAXPEADQEAU__crt_locale_pointers@@@Z 00000001800625a0 f i libucrtd:output.obj
 0001:000616a0       ?get@__crt_deferred_errno_cache@@QEAAAEAHXZ 00000001800626a0 f i libucrtd:output.obj
 0001:000616d0       ?get_flags@__crt_stdio_stream@@QEBAJXZ 00000001800626d0 f i libucrtd:output.obj
 0001:00061700       ?get_parameter_type@?$positional_parameter_base@DV?$stream_output_adapter@D@__crt_stdio_output@@@__crt_stdio_output@@CA?AW4parameter_type@12@F@Z 0000000180062700 f i libucrtd:output.obj
 0001:00061710       ?get_parameter_type@?$positional_parameter_base@DV?$stream_output_adapter@D@__crt_stdio_output@@@__crt_stdio_output@@CA?AW4parameter_type@12@G@Z 0000000180062710 f i libucrtd:output.obj
 0001:00061720       ?get_parameter_type@?$positional_parameter_base@DV?$stream_output_adapter@D@__crt_stdio_output@@@__crt_stdio_output@@CA?AW4parameter_type@12@H@Z 0000000180062720 f i libucrtd:output.obj
 0001:00061730       ?get_parameter_type@?$positional_parameter_base@DV?$stream_output_adapter@D@__crt_stdio_output@@@__crt_stdio_output@@CA?AW4parameter_type@12@I@Z 0000000180062730 f i libucrtd:output.obj
 0001:00061740       ?get_parameter_type@?$positional_parameter_base@DV?$stream_output_adapter@D@__crt_stdio_output@@@__crt_stdio_output@@CA?AW4parameter_type@12@U_CRT_DOUBLE@@@Z 0000000180062740 f i libucrtd:output.obj
 0001:00061750       ?get_parameter_type@?$positional_parameter_base@DV?$stream_output_adapter@D@__crt_stdio_output@@@__crt_stdio_output@@CA?AW4parameter_type@12@_J@Z 0000000180062750 f i libucrtd:output.obj
 0001:00061760       ?get_parameter_type@?$positional_parameter_base@DV?$stream_output_adapter@D@__crt_stdio_output@@@__crt_stdio_output@@CA?AW4parameter_type@12@_K@Z 0000000180062760 f i libucrtd:output.obj
 0001:00061770       ?get_parameter_type@?$positional_parameter_base@DV?$stream_output_adapter@D@__crt_stdio_output@@@__crt_stdio_output@@CA?AW4parameter_type@12@_W@Z 0000000180062770 f i libucrtd:output.obj
 0001:00061780       ?get_parameter_type@?$positional_parameter_base@DV?$string_output_adapter@D@__crt_stdio_output@@@__crt_stdio_output@@CA?AW4parameter_type@12@F@Z 0000000180062780 f i libucrtd:output.obj
 0001:00061790       ?get_parameter_type@?$positional_parameter_base@DV?$string_output_adapter@D@__crt_stdio_output@@@__crt_stdio_output@@CA?AW4parameter_type@12@G@Z 0000000180062790 f i libucrtd:output.obj
 0001:000617a0       ?get_parameter_type@?$positional_parameter_base@DV?$string_output_adapter@D@__crt_stdio_output@@@__crt_stdio_output@@CA?AW4parameter_type@12@H@Z 00000001800627a0 f i libucrtd:output.obj
 0001:000617b0       ?get_parameter_type@?$positional_parameter_base@DV?$string_output_adapter@D@__crt_stdio_output@@@__crt_stdio_output@@CA?AW4parameter_type@12@I@Z 00000001800627b0 f i libucrtd:output.obj
 0001:000617c0       ?get_parameter_type@?$positional_parameter_base@DV?$string_output_adapter@D@__crt_stdio_output@@@__crt_stdio_output@@CA?AW4parameter_type@12@U_CRT_DOUBLE@@@Z 00000001800627c0 f i libucrtd:output.obj
 0001:000617d0       ?get_parameter_type@?$positional_parameter_base@DV?$string_output_adapter@D@__crt_stdio_output@@@__crt_stdio_output@@CA?AW4parameter_type@12@_J@Z 00000001800627d0 f i libucrtd:output.obj
 0001:000617e0       ?get_parameter_type@?$positional_parameter_base@DV?$string_output_adapter@D@__crt_stdio_output@@@__crt_stdio_output@@CA?AW4parameter_type@12@_K@Z 00000001800627e0 f i libucrtd:output.obj
 0001:000617f0       ?get_parameter_type@?$positional_parameter_base@DV?$string_output_adapter@D@__crt_stdio_output@@@__crt_stdio_output@@CA?AW4parameter_type@12@_W@Z 00000001800627f0 f i libucrtd:output.obj
 0001:00061800       ?get_parameter_type@?$positional_parameter_base@_WV?$stream_output_adapter@_W@__crt_stdio_output@@@__crt_stdio_output@@CA?AW4parameter_type@12@F@Z 0000000180062800 f i libucrtd:output.obj
 0001:00061810       ?get_parameter_type@?$positional_parameter_base@_WV?$stream_output_adapter@_W@__crt_stdio_output@@@__crt_stdio_output@@CA?AW4parameter_type@12@G@Z 0000000180062810 f i libucrtd:output.obj
 0001:00061820       ?get_parameter_type@?$positional_parameter_base@_WV?$stream_output_adapter@_W@__crt_stdio_output@@@__crt_stdio_output@@CA?AW4parameter_type@12@H@Z 0000000180062820 f i libucrtd:output.obj
 0001:00061830       ?get_parameter_type@?$positional_parameter_base@_WV?$stream_output_adapter@_W@__crt_stdio_output@@@__crt_stdio_output@@CA?AW4parameter_type@12@I@Z 0000000180062830 f i libucrtd:output.obj
 0001:00061840       ?get_parameter_type@?$positional_parameter_base@_WV?$stream_output_adapter@_W@__crt_stdio_output@@@__crt_stdio_output@@CA?AW4parameter_type@12@U_CRT_DOUBLE@@@Z 0000000180062840 f i libucrtd:output.obj
 0001:00061850       ?get_parameter_type@?$positional_parameter_base@_WV?$stream_output_adapter@_W@__crt_stdio_output@@@__crt_stdio_output@@CA?AW4parameter_type@12@_J@Z 0000000180062850 f i libucrtd:output.obj
 0001:00061860       ?get_parameter_type@?$positional_parameter_base@_WV?$stream_output_adapter@_W@__crt_stdio_output@@@__crt_stdio_output@@CA?AW4parameter_type@12@_K@Z 0000000180062860 f i libucrtd:output.obj
 0001:00061870       ?get_parameter_type@?$positional_parameter_base@_WV?$stream_output_adapter@_W@__crt_stdio_output@@@__crt_stdio_output@@CA?AW4parameter_type@12@_W@Z 0000000180062870 f i libucrtd:output.obj
 0001:00061880       ?get_parameter_type@?$positional_parameter_base@_WV?$string_output_adapter@_W@__crt_stdio_output@@@__crt_stdio_output@@CA?AW4parameter_type@12@F@Z 0000000180062880 f i libucrtd:output.obj
 0001:00061890       ?get_parameter_type@?$positional_parameter_base@_WV?$string_output_adapter@_W@__crt_stdio_output@@@__crt_stdio_output@@CA?AW4parameter_type@12@G@Z 0000000180062890 f i libucrtd:output.obj
 0001:000618a0       ?get_parameter_type@?$positional_parameter_base@_WV?$string_output_adapter@_W@__crt_stdio_output@@@__crt_stdio_output@@CA?AW4parameter_type@12@H@Z 00000001800628a0 f i libucrtd:output.obj
 0001:000618b0       ?get_parameter_type@?$positional_parameter_base@_WV?$string_output_adapter@_W@__crt_stdio_output@@@__crt_stdio_output@@CA?AW4parameter_type@12@I@Z 00000001800628b0 f i libucrtd:output.obj
 0001:000618c0       ?get_parameter_type@?$positional_parameter_base@_WV?$string_output_adapter@_W@__crt_stdio_output@@@__crt_stdio_output@@CA?AW4parameter_type@12@U_CRT_DOUBLE@@@Z 00000001800628c0 f i libucrtd:output.obj
 0001:000618d0       ?get_parameter_type@?$positional_parameter_base@_WV?$string_output_adapter@_W@__crt_stdio_output@@@__crt_stdio_output@@CA?AW4parameter_type@12@_J@Z 00000001800628d0 f i libucrtd:output.obj
 0001:000618e0       ?get_parameter_type@?$positional_parameter_base@_WV?$string_output_adapter@_W@__crt_stdio_output@@@__crt_stdio_output@@CA?AW4parameter_type@12@_K@Z 00000001800628e0 f i libucrtd:output.obj
 0001:000618f0       ?get_parameter_type@?$positional_parameter_base@_WV?$string_output_adapter@_W@__crt_stdio_output@@@__crt_stdio_output@@CA?AW4parameter_type@12@_W@Z 00000001800628f0 f i libucrtd:output.obj
 0001:00061900       ?has_flag@?$output_processor@DV?$stream_output_adapter@D@__crt_stdio_output@@V?$format_validation_base@DV?$stream_output_adapter@D@__crt_stdio_output@@@2@@__crt_stdio_output@@AEBA_NI@Z 0000000180062900 f i libucrtd:output.obj
 0001:00061940       ?has_flag@?$output_processor@DV?$stream_output_adapter@D@__crt_stdio_output@@V?$positional_parameter_base@DV?$stream_output_adapter@D@__crt_stdio_output@@@2@@__crt_stdio_output@@AEBA_NI@Z 0000000180062940 f i libucrtd:output.obj
 0001:00061980       ?has_flag@?$output_processor@DV?$stream_output_adapter@D@__crt_stdio_output@@V?$standard_base@DV?$stream_output_adapter@D@__crt_stdio_output@@@2@@__crt_stdio_output@@AEBA_NI@Z 0000000180062980 f i libucrtd:output.obj
 0001:000619c0       ?has_flag@?$output_processor@DV?$string_output_adapter@D@__crt_stdio_output@@V?$format_validation_base@DV?$string_output_adapter@D@__crt_stdio_output@@@2@@__crt_stdio_output@@AEBA_NI@Z 00000001800629c0 f i libucrtd:output.obj
 0001:00061a00       ?has_flag@?$output_processor@DV?$string_output_adapter@D@__crt_stdio_output@@V?$positional_parameter_base@DV?$string_output_adapter@D@__crt_stdio_output@@@2@@__crt_stdio_output@@AEBA_NI@Z 0000000180062a00 f i libucrtd:output.obj
 0001:00061a40       ?has_flag@?$output_processor@DV?$string_output_adapter@D@__crt_stdio_output@@V?$standard_base@DV?$string_output_adapter@D@__crt_stdio_output@@@2@@__crt_stdio_output@@AEBA_NI@Z 0000000180062a40 f i libucrtd:output.obj
 0001:00061a80       ?has_flag@?$output_processor@_WV?$stream_output_adapter@_W@__crt_stdio_output@@V?$format_validation_base@_WV?$stream_output_adapter@_W@__crt_stdio_output@@@2@@__crt_stdio_output@@AEBA_NI@Z 0000000180062a80 f i libucrtd:output.obj
 0001:00061ac0       ?has_flag@?$output_processor@_WV?$stream_output_adapter@_W@__crt_stdio_output@@V?$positional_parameter_base@_WV?$stream_output_adapter@_W@__crt_stdio_output@@@2@@__crt_stdio_output@@AEBA_NI@Z 0000000180062ac0 f i libucrtd:output.obj
 0001:00061b00       ?has_flag@?$output_processor@_WV?$stream_output_adapter@_W@__crt_stdio_output@@V?$standard_base@_WV?$stream_output_adapter@_W@__crt_stdio_output@@@2@@__crt_stdio_output@@AEBA_NI@Z 0000000180062b00 f i libucrtd:output.obj
 0001:00061b40       ?has_flag@?$output_processor@_WV?$string_output_adapter@_W@__crt_stdio_output@@V?$format_validation_base@_WV?$string_output_adapter@_W@__crt_stdio_output@@@2@@__crt_stdio_output@@AEBA_NI@Z 0000000180062b40 f i libucrtd:output.obj
 0001:00061b80       ?has_flag@?$output_processor@_WV?$string_output_adapter@_W@__crt_stdio_output@@V?$positional_parameter_base@_WV?$string_output_adapter@_W@__crt_stdio_output@@@2@@__crt_stdio_output@@AEBA_NI@Z 0000000180062b80 f i libucrtd:output.obj
 0001:00061bc0       ?has_flag@?$output_processor@_WV?$string_output_adapter@_W@__crt_stdio_output@@V?$standard_base@_WV?$string_output_adapter@_W@__crt_stdio_output@@@2@@__crt_stdio_output@@AEBA_NI@Z 0000000180062bc0 f i libucrtd:output.obj
 0001:00061c00       ?is_positional_parameter_reappearance_consistent@?$positional_parameter_base@DV?$stream_output_adapter@D@__crt_stdio_output@@@__crt_stdio_output@@AEAA_NAEBUparameter_data@12@W4parameter_type@12@DW4length_modifier@2@@Z 0000000180062c00 f i libucrtd:output.obj
 0001:00061e60       ?is_positional_parameter_reappearance_consistent@?$positional_parameter_base@DV?$string_output_adapter@D@__crt_stdio_output@@@__crt_stdio_output@@AEAA_NAEBUparameter_data@12@W4parameter_type@12@DW4length_modifier@2@@Z 0000000180062e60 f i libucrtd:output.obj
 0001:000620c0       ?is_positional_parameter_reappearance_consistent@?$positional_parameter_base@_WV?$stream_output_adapter@_W@__crt_stdio_output@@@__crt_stdio_output@@AEAA_NAEBUparameter_data@12@W4parameter_type@12@_WW4length_modifier@2@@Z 00000001800630c0 f i libucrtd:output.obj
 0001:00062320       ?is_positional_parameter_reappearance_consistent@?$positional_parameter_base@_WV?$string_output_adapter@_W@__crt_stdio_output@@@__crt_stdio_output@@AEAA_NAEBUparameter_data@12@W4parameter_type@12@_WW4length_modifier@2@@Z 0000000180063320 f i libucrtd:output.obj
 0001:00062580       ?is_string_backed@__crt_stdio_stream@@QEBA_NXZ 0000000180063580 f i libucrtd:output.obj
 0001:000625c0       ?narrow_null_string@?$output_processor@DV?$stream_output_adapter@D@__crt_stdio_output@@V?$format_validation_base@DV?$stream_output_adapter@D@__crt_stdio_output@@@2@@__crt_stdio_output@@CAPEADXZ 00000001800635c0 f i libucrtd:output.obj
 0001:000625d0       ?narrow_null_string@?$output_processor@DV?$stream_output_adapter@D@__crt_stdio_output@@V?$positional_parameter_base@DV?$stream_output_adapter@D@__crt_stdio_output@@@2@@__crt_stdio_output@@CAPEADXZ 00000001800635d0 f i libucrtd:output.obj
 0001:000625e0       ?narrow_null_string@?$output_processor@DV?$stream_output_adapter@D@__crt_stdio_output@@V?$standard_base@DV?$stream_output_adapter@D@__crt_stdio_output@@@2@@__crt_stdio_output@@CAPEADXZ 00000001800635e0 f i libucrtd:output.obj
 0001:000625f0       ?narrow_null_string@?$output_processor@DV?$string_output_adapter@D@__crt_stdio_output@@V?$format_validation_base@DV?$string_output_adapter@D@__crt_stdio_output@@@2@@__crt_stdio_output@@CAPEADXZ 00000001800635f0 f i libucrtd:output.obj
 0001:00062600       ?narrow_null_string@?$output_processor@DV?$string_output_adapter@D@__crt_stdio_output@@V?$positional_parameter_base@DV?$string_output_adapter@D@__crt_stdio_output@@@2@@__crt_stdio_output@@CAPEADXZ 0000000180063600 f i libucrtd:output.obj
 0001:00062610       ?narrow_null_string@?$output_processor@DV?$string_output_adapter@D@__crt_stdio_output@@V?$standard_base@DV?$string_output_adapter@D@__crt_stdio_output@@@2@@__crt_stdio_output@@CAPEADXZ 0000000180063610 f i libucrtd:output.obj
 0001:00062620       ?narrow_null_string@?$output_processor@_WV?$stream_output_adapter@_W@__crt_stdio_output@@V?$format_validation_base@_WV?$stream_output_adapter@_W@__crt_stdio_output@@@2@@__crt_stdio_output@@CAPEADXZ 0000000180063620 f i libucrtd:output.obj
 0001:00062630       ?narrow_null_string@?$output_processor@_WV?$stream_output_adapter@_W@__crt_stdio_output@@V?$positional_parameter_base@_WV?$stream_output_adapter@_W@__crt_stdio_output@@@2@@__crt_stdio_output@@CAPEADXZ 0000000180063630 f i libucrtd:output.obj
 0001:00062640       ?narrow_null_string@?$output_processor@_WV?$stream_output_adapter@_W@__crt_stdio_output@@V?$standard_base@_WV?$stream_output_adapter@_W@__crt_stdio_output@@@2@@__crt_stdio_output@@CAPEADXZ 0000000180063640 f i libucrtd:output.obj
 0001:00062650       ?narrow_null_string@?$output_processor@_WV?$string_output_adapter@_W@__crt_stdio_output@@V?$format_validation_base@_WV?$string_output_adapter@_W@__crt_stdio_output@@@2@@__crt_stdio_output@@CAPEADXZ 0000000180063650 f i libucrtd:output.obj
 0001:00062660       ?narrow_null_string@?$output_processor@_WV?$string_output_adapter@_W@__crt_stdio_output@@V?$positional_parameter_base@_WV?$string_output_adapter@_W@__crt_stdio_output@@@2@@__crt_stdio_output@@CAPEADXZ 0000000180063660 f i libucrtd:output.obj
 0001:00062670       ?narrow_null_string@?$output_processor@_WV?$string_output_adapter@_W@__crt_stdio_output@@V?$standard_base@_WV?$string_output_adapter@_W@__crt_stdio_output@@@2@@__crt_stdio_output@@CAPEADXZ 0000000180063670 f i libucrtd:output.obj
 0001:00062680       ?parse_int_from_format_string@?$output_processor@DV?$stream_output_adapter@D@__crt_stdio_output@@V?$format_validation_base@DV?$stream_output_adapter@D@__crt_stdio_output@@@2@@__crt_stdio_output@@AEAA_NQEAH@Z 0000000180063680 f i libucrtd:output.obj
 0001:00062770       ?parse_int_from_format_string@?$output_processor@DV?$stream_output_adapter@D@__crt_stdio_output@@V?$positional_parameter_base@DV?$stream_output_adapter@D@__crt_stdio_output@@@2@@__crt_stdio_output@@AEAA_NQEAH@Z 0000000180063770 f i libucrtd:output.obj
 0001:00062860       ?parse_int_from_format_string@?$output_processor@DV?$stream_output_adapter@D@__crt_stdio_output@@V?$standard_base@DV?$stream_output_adapter@D@__crt_stdio_output@@@2@@__crt_stdio_output@@AEAA_NQEAH@Z 0000000180063860 f i libucrtd:output.obj
 0001:00062950       ?parse_int_from_format_string@?$output_processor@DV?$string_output_adapter@D@__crt_stdio_output@@V?$format_validation_base@DV?$string_output_adapter@D@__crt_stdio_output@@@2@@__crt_stdio_output@@AEAA_NQEAH@Z 0000000180063950 f i libucrtd:output.obj
 0001:00062a40       ?parse_int_from_format_string@?$output_processor@DV?$string_output_adapter@D@__crt_stdio_output@@V?$positional_parameter_base@DV?$string_output_adapter@D@__crt_stdio_output@@@2@@__crt_stdio_output@@AEAA_NQEAH@Z 0000000180063a40 f i libucrtd:output.obj
 0001:00062b30       ?parse_int_from_format_string@?$output_processor@DV?$string_output_adapter@D@__crt_stdio_output@@V?$standard_base@DV?$string_output_adapter@D@__crt_stdio_output@@@2@@__crt_stdio_output@@AEAA_NQEAH@Z 0000000180063b30 f i libucrtd:output.obj
 0001:00062c20       ?parse_int_from_format_string@?$output_processor@_WV?$stream_output_adapter@_W@__crt_stdio_output@@V?$format_validation_base@_WV?$stream_output_adapter@_W@__crt_stdio_output@@@2@@__crt_stdio_output@@AEAA_NQEAH@Z 0000000180063c20 f i libucrtd:output.obj
 0001:00062d10       ?parse_int_from_format_string@?$output_processor@_WV?$stream_output_adapter@_W@__crt_stdio_output@@V?$positional_parameter_base@_WV?$stream_output_adapter@_W@__crt_stdio_output@@@2@@__crt_stdio_output@@AEAA_NQEAH@Z 0000000180063d10 f i libucrtd:output.obj
 0001:00062e00       ?parse_int_from_format_string@?$output_processor@_WV?$stream_output_adapter@_W@__crt_stdio_output@@V?$standard_base@_WV?$stream_output_adapter@_W@__crt_stdio_output@@@2@@__crt_stdio_output@@AEAA_NQEAH@Z 0000000180063e00 f i libucrtd:output.obj
 0001:00062ef0       ?parse_int_from_format_string@?$output_processor@_WV?$string_output_adapter@_W@__crt_stdio_output@@V?$format_validation_base@_WV?$string_output_adapter@_W@__crt_stdio_output@@@2@@__crt_stdio_output@@AEAA_NQEAH@Z 0000000180063ef0 f i libucrtd:output.obj
 0001:00062fe0       ?parse_int_from_format_string@?$output_processor@_WV?$string_output_adapter@_W@__crt_stdio_output@@V?$positional_parameter_base@_WV?$string_output_adapter@_W@__crt_stdio_output@@@2@@__crt_stdio_output@@AEAA_NQEAH@Z 0000000180063fe0 f i libucrtd:output.obj
 0001:000630d0       ?parse_int_from_format_string@?$output_processor@_WV?$string_output_adapter@_W@__crt_stdio_output@@V?$standard_base@_WV?$string_output_adapter@_W@__crt_stdio_output@@@2@@__crt_stdio_output@@AEAA_NQEAH@Z 00000001800640d0 f i libucrtd:output.obj
 0001:000631c0       ?process@?$output_processor@DV?$stream_output_adapter@D@__crt_stdio_output@@V?$format_validation_base@DV?$stream_output_adapter@D@__crt_stdio_output@@@2@@__crt_stdio_output@@QEAAHXZ 00000001800641c0 f i libucrtd:output.obj
 0001:00063520       ?process@?$output_processor@DV?$stream_output_adapter@D@__crt_stdio_output@@V?$positional_parameter_base@DV?$stream_output_adapter@D@__crt_stdio_output@@@2@@__crt_stdio_output@@QEAAHXZ 0000000180064520 f i libucrtd:output.obj
 0001:00063880       ?process@?$output_processor@DV?$stream_output_adapter@D@__crt_stdio_output@@V?$standard_base@DV?$stream_output_adapter@D@__crt_stdio_output@@@2@@__crt_stdio_output@@QEAAHXZ 0000000180064880 f i libucrtd:output.obj
 0001:00063be0       ?process@?$output_processor@DV?$string_output_adapter@D@__crt_stdio_output@@V?$format_validation_base@DV?$string_output_adapter@D@__crt_stdio_output@@@2@@__crt_stdio_output@@QEAAHXZ 0000000180064be0 f i libucrtd:output.obj
 0001:00063f40       ?process@?$output_processor@DV?$string_output_adapter@D@__crt_stdio_output@@V?$positional_parameter_base@DV?$string_output_adapter@D@__crt_stdio_output@@@2@@__crt_stdio_output@@QEAAHXZ 0000000180064f40 f i libucrtd:output.obj
 0001:000642a0       ?process@?$output_processor@DV?$string_output_adapter@D@__crt_stdio_output@@V?$standard_base@DV?$string_output_adapter@D@__crt_stdio_output@@@2@@__crt_stdio_output@@QEAAHXZ 00000001800652a0 f i libucrtd:output.obj
 0001:00064600       ?process@?$output_processor@_WV?$stream_output_adapter@_W@__crt_stdio_output@@V?$format_validation_base@_WV?$stream_output_adapter@_W@__crt_stdio_output@@@2@@__crt_stdio_output@@QEAAHXZ 0000000180065600 f i libucrtd:output.obj
 0001:00064960       ?process@?$output_processor@_WV?$stream_output_adapter@_W@__crt_stdio_output@@V?$positional_parameter_base@_WV?$stream_output_adapter@_W@__crt_stdio_output@@@2@@__crt_stdio_output@@QEAAHXZ 0000000180065960 f i libucrtd:output.obj
 0001:00064cc0       ?process@?$output_processor@_WV?$stream_output_adapter@_W@__crt_stdio_output@@V?$standard_base@_WV?$stream_output_adapter@_W@__crt_stdio_output@@@2@@__crt_stdio_output@@QEAAHXZ 0000000180065cc0 f i libucrtd:output.obj
 0001:00065020       ?process@?$output_processor@_WV?$string_output_adapter@_W@__crt_stdio_output@@V?$format_validation_base@_WV?$string_output_adapter@_W@__crt_stdio_output@@@2@@__crt_stdio_output@@QEAAHXZ 0000000180066020 f i libucrtd:output.obj
 0001:00065380       ?process@?$output_processor@_WV?$string_output_adapter@_W@__crt_stdio_output@@V?$positional_parameter_base@_WV?$string_output_adapter@_W@__crt_stdio_output@@@2@@__crt_stdio_output@@QEAAHXZ 0000000180066380 f i libucrtd:output.obj
 0001:000656e0       ?process@?$output_processor@_WV?$string_output_adapter@_W@__crt_stdio_output@@V?$standard_base@_WV?$string_output_adapter@_W@__crt_stdio_output@@@2@@__crt_stdio_output@@QEAAHXZ 00000001800666e0 f i libucrtd:output.obj
 0001:00065a40       ?public_stream@__crt_stdio_stream@@QEBAPEAU_iobuf@@XZ 0000000180066a40 f i libucrtd:output.obj
 0001:00065a50       ?set_flag@?$output_processor@DV?$stream_output_adapter@D@__crt_stdio_output@@V?$format_validation_base@DV?$stream_output_adapter@D@__crt_stdio_output@@@2@@__crt_stdio_output@@AEAAXI@Z 0000000180066a50 f i libucrtd:output.obj
 0001:00065a70       ?set_flag@?$output_processor@DV?$stream_output_adapter@D@__crt_stdio_output@@V?$positional_parameter_base@DV?$stream_output_adapter@D@__crt_stdio_output@@@2@@__crt_stdio_output@@AEAAXI@Z 0000000180066a70 f i libucrtd:output.obj
 0001:00065a90       ?set_flag@?$output_processor@DV?$stream_output_adapter@D@__crt_stdio_output@@V?$standard_base@DV?$stream_output_adapter@D@__crt_stdio_output@@@2@@__crt_stdio_output@@AEAAXI@Z 0000000180066a90 f i libucrtd:output.obj
 0001:00065ab0       ?set_flag@?$output_processor@DV?$string_output_adapter@D@__crt_stdio_output@@V?$format_validation_base@DV?$string_output_adapter@D@__crt_stdio_output@@@2@@__crt_stdio_output@@AEAAXI@Z 0000000180066ab0 f i libucrtd:output.obj
 0001:00065ad0       ?set_flag@?$output_processor@DV?$string_output_adapter@D@__crt_stdio_output@@V?$positional_parameter_base@DV?$string_output_adapter@D@__crt_stdio_output@@@2@@__crt_stdio_output@@AEAAXI@Z 0000000180066ad0 f i libucrtd:output.obj
 0001:00065af0       ?set_flag@?$output_processor@DV?$string_output_adapter@D@__crt_stdio_output@@V?$standard_base@DV?$string_output_adapter@D@__crt_stdio_output@@@2@@__crt_stdio_output@@AEAAXI@Z 0000000180066af0 f i libucrtd:output.obj
 0001:00065b10       ?set_flag@?$output_processor@_WV?$stream_output_adapter@_W@__crt_stdio_output@@V?$format_validation_base@_WV?$stream_output_adapter@_W@__crt_stdio_output@@@2@@__crt_stdio_output@@AEAAXI@Z 0000000180066b10 f i libucrtd:output.obj
 0001:00065b30       ?set_flag@?$output_processor@_WV?$stream_output_adapter@_W@__crt_stdio_output@@V?$positional_parameter_base@_WV?$stream_output_adapter@_W@__crt_stdio_output@@@2@@__crt_stdio_output@@AEAAXI@Z 0000000180066b30 f i libucrtd:output.obj
 0001:00065b50       ?set_flag@?$output_processor@_WV?$stream_output_adapter@_W@__crt_stdio_output@@V?$standard_base@_WV?$stream_output_adapter@_W@__crt_stdio_output@@@2@@__crt_stdio_output@@AEAAXI@Z 0000000180066b50 f i libucrtd:output.obj
 0001:00065b70       ?set_flag@?$output_processor@_WV?$string_output_adapter@_W@__crt_stdio_output@@V?$format_validation_base@_WV?$string_output_adapter@_W@__crt_stdio_output@@@2@@__crt_stdio_output@@AEAAXI@Z 0000000180066b70 f i libucrtd:output.obj
 0001:00065b90       ?set_flag@?$output_processor@_WV?$string_output_adapter@_W@__crt_stdio_output@@V?$positional_parameter_base@_WV?$string_output_adapter@_W@__crt_stdio_output@@@2@@__crt_stdio_output@@AEAAXI@Z 0000000180066b90 f i libucrtd:output.obj
 0001:00065bb0       ?set_flag@?$output_processor@_WV?$string_output_adapter@_W@__crt_stdio_output@@V?$standard_base@_WV?$string_output_adapter@_W@__crt_stdio_output@@@2@@__crt_stdio_output@@AEAAXI@Z 0000000180066bb0 f i libucrtd:output.obj
 0001:00065bd0       ?should_format@?$positional_parameter_base@DV?$stream_output_adapter@D@__crt_stdio_output@@@__crt_stdio_output@@IEAA_NXZ 0000000180066bd0 f i libucrtd:output.obj
 0001:00065c10       ?should_format@?$positional_parameter_base@DV?$string_output_adapter@D@__crt_stdio_output@@@__crt_stdio_output@@IEAA_NXZ 0000000180066c10 f i libucrtd:output.obj
 0001:00065c50       ?should_format@?$positional_parameter_base@_WV?$stream_output_adapter@_W@__crt_stdio_output@@@__crt_stdio_output@@IEAA_NXZ 0000000180066c50 f i libucrtd:output.obj
 0001:00065c90       ?should_format@?$positional_parameter_base@_WV?$string_output_adapter@_W@__crt_stdio_output@@@__crt_stdio_output@@IEAA_NXZ 0000000180066c90 f i libucrtd:output.obj
 0001:00065cd0       ?should_format@?$standard_base@DV?$stream_output_adapter@D@__crt_stdio_output@@@__crt_stdio_output@@IEAA_NXZ 0000000180066cd0 f i libucrtd:output.obj
 0001:00065ce0       ?should_format@?$standard_base@DV?$string_output_adapter@D@__crt_stdio_output@@@__crt_stdio_output@@IEAA_NXZ 0000000180066ce0 f i libucrtd:output.obj
 0001:00065cf0       ?should_format@?$standard_base@_WV?$stream_output_adapter@_W@__crt_stdio_output@@@__crt_stdio_output@@IEAA_NXZ 0000000180066cf0 f i libucrtd:output.obj
 0001:00065d00       ?should_format@?$standard_base@_WV?$string_output_adapter@_W@__crt_stdio_output@@@__crt_stdio_output@@IEAA_NXZ 0000000180066d00 f i libucrtd:output.obj
 0001:00065d10       ?should_skip_normal_state_processing@?$positional_parameter_base@DV?$stream_output_adapter@D@__crt_stdio_output@@@__crt_stdio_output@@IEAA_NXZ 0000000180066d10 f i libucrtd:output.obj
 0001:00065d60       ?should_skip_normal_state_processing@?$positional_parameter_base@DV?$string_output_adapter@D@__crt_stdio_output@@@__crt_stdio_output@@IEAA_NXZ 0000000180066d60 f i libucrtd:output.obj
 0001:00065db0       ?should_skip_normal_state_processing@?$positional_parameter_base@_WV?$stream_output_adapter@_W@__crt_stdio_output@@@__crt_stdio_output@@IEAA_NXZ 0000000180066db0 f i libucrtd:output.obj
 0001:00065e00       ?should_skip_normal_state_processing@?$positional_parameter_base@_WV?$string_output_adapter@_W@__crt_stdio_output@@@__crt_stdio_output@@IEAA_NXZ 0000000180066e00 f i libucrtd:output.obj
 0001:00065e50       ?should_skip_normal_state_processing@?$standard_base@DV?$stream_output_adapter@D@__crt_stdio_output@@@__crt_stdio_output@@IEAA_NXZ 0000000180066e50 f i libucrtd:output.obj
 0001:00065e60       ?should_skip_normal_state_processing@?$standard_base@DV?$string_output_adapter@D@__crt_stdio_output@@@__crt_stdio_output@@IEAA_NXZ 0000000180066e60 f i libucrtd:output.obj
 0001:00065e70       ?should_skip_normal_state_processing@?$standard_base@_WV?$stream_output_adapter@_W@__crt_stdio_output@@@__crt_stdio_output@@IEAA_NXZ 0000000180066e70 f i libucrtd:output.obj
 0001:00065e80       ?should_skip_normal_state_processing@?$standard_base@_WV?$string_output_adapter@_W@__crt_stdio_output@@@__crt_stdio_output@@IEAA_NXZ 0000000180066e80 f i libucrtd:output.obj
 0001:00065e90       ?should_skip_type_state_output@?$positional_parameter_base@DV?$stream_output_adapter@D@__crt_stdio_output@@@__crt_stdio_output@@IEBA_NXZ 0000000180066e90 f i libucrtd:output.obj
 0001:00065ed0       ?should_skip_type_state_output@?$positional_parameter_base@DV?$string_output_adapter@D@__crt_stdio_output@@@__crt_stdio_output@@IEBA_NXZ 0000000180066ed0 f i libucrtd:output.obj
 0001:00065f10       ?should_skip_type_state_output@?$positional_parameter_base@_WV?$stream_output_adapter@_W@__crt_stdio_output@@@__crt_stdio_output@@IEBA_NXZ 0000000180066f10 f i libucrtd:output.obj
 0001:00065f50       ?should_skip_type_state_output@?$positional_parameter_base@_WV?$string_output_adapter@_W@__crt_stdio_output@@@__crt_stdio_output@@IEBA_NXZ 0000000180066f50 f i libucrtd:output.obj
 0001:00065f90       ?should_skip_type_state_output@?$standard_base@DV?$stream_output_adapter@D@__crt_stdio_output@@@__crt_stdio_output@@IEBA_NXZ 0000000180066f90 f i libucrtd:output.obj
 0001:00065fa0       ?should_skip_type_state_output@?$standard_base@DV?$string_output_adapter@D@__crt_stdio_output@@@__crt_stdio_output@@IEBA_NXZ 0000000180066fa0 f i libucrtd:output.obj
 0001:00065fb0       ?should_skip_type_state_output@?$standard_base@_WV?$stream_output_adapter@_W@__crt_stdio_output@@@__crt_stdio_output@@IEBA_NXZ 0000000180066fb0 f i libucrtd:output.obj
 0001:00065fc0       ?should_skip_type_state_output@?$standard_base@_WV?$string_output_adapter@_W@__crt_stdio_output@@@__crt_stdio_output@@IEBA_NXZ 0000000180066fc0 f i libucrtd:output.obj
 0001:00065fd0       ?state_case_dot@?$output_processor@DV?$stream_output_adapter@D@__crt_stdio_output@@V?$format_validation_base@DV?$stream_output_adapter@D@__crt_stdio_output@@@2@@__crt_stdio_output@@AEAA_NXZ 0000000180066fd0 f i libucrtd:output.obj
 0001:00065ff0       ?state_case_dot@?$output_processor@DV?$stream_output_adapter@D@__crt_stdio_output@@V?$positional_parameter_base@DV?$stream_output_adapter@D@__crt_stdio_output@@@2@@__crt_stdio_output@@AEAA_NXZ 0000000180066ff0 f i libucrtd:output.obj
 0001:00066010       ?state_case_dot@?$output_processor@DV?$stream_output_adapter@D@__crt_stdio_output@@V?$standard_base@DV?$stream_output_adapter@D@__crt_stdio_output@@@2@@__crt_stdio_output@@AEAA_NXZ 0000000180067010 f i libucrtd:output.obj
 0001:00066030       ?state_case_dot@?$output_processor@DV?$string_output_adapter@D@__crt_stdio_output@@V?$format_validation_base@DV?$string_output_adapter@D@__crt_stdio_output@@@2@@__crt_stdio_output@@AEAA_NXZ 0000000180067030 f i libucrtd:output.obj
 0001:00066050       ?state_case_dot@?$output_processor@DV?$string_output_adapter@D@__crt_stdio_output@@V?$positional_parameter_base@DV?$string_output_adapter@D@__crt_stdio_output@@@2@@__crt_stdio_output@@AEAA_NXZ 0000000180067050 f i libucrtd:output.obj
 0001:00066070       ?state_case_dot@?$output_processor@DV?$string_output_adapter@D@__crt_stdio_output@@V?$standard_base@DV?$string_output_adapter@D@__crt_stdio_output@@@2@@__crt_stdio_output@@AEAA_NXZ 0000000180067070 f i libucrtd:output.obj
 0001:00066090       ?state_case_dot@?$output_processor@_WV?$stream_output_adapter@_W@__crt_stdio_output@@V?$format_validation_base@_WV?$stream_output_adapter@_W@__crt_stdio_output@@@2@@__crt_stdio_output@@AEAA_NXZ 0000000180067090 f i libucrtd:output.obj
 0001:000660b0       ?state_case_dot@?$output_processor@_WV?$stream_output_adapter@_W@__crt_stdio_output@@V?$positional_parameter_base@_WV?$stream_output_adapter@_W@__crt_stdio_output@@@2@@__crt_stdio_output@@AEAA_NXZ 00000001800670b0 f i libucrtd:output.obj
 0001:000660d0       ?state_case_dot@?$output_processor@_WV?$stream_output_adapter@_W@__crt_stdio_output@@V?$standard_base@_WV?$stream_output_adapter@_W@__crt_stdio_output@@@2@@__crt_stdio_output@@AEAA_NXZ 00000001800670d0 f i libucrtd:output.obj
 0001:000660f0       ?state_case_dot@?$output_processor@_WV?$string_output_adapter@_W@__crt_stdio_output@@V?$format_validation_base@_WV?$string_output_adapter@_W@__crt_stdio_output@@@2@@__crt_stdio_output@@AEAA_NXZ 00000001800670f0 f i libucrtd:output.obj
 0001:00066110       ?state_case_dot@?$output_processor@_WV?$string_output_adapter@_W@__crt_stdio_output@@V?$positional_parameter_base@_WV?$string_output_adapter@_W@__crt_stdio_output@@@2@@__crt_stdio_output@@AEAA_NXZ 0000000180067110 f i libucrtd:output.obj
 0001:00066130       ?state_case_dot@?$output_processor@_WV?$string_output_adapter@_W@__crt_stdio_output@@V?$standard_base@_WV?$string_output_adapter@_W@__crt_stdio_output@@@2@@__crt_stdio_output@@AEAA_NXZ 0000000180067130 f i libucrtd:output.obj
 0001:00066150       ?state_case_flag@?$output_processor@DV?$stream_output_adapter@D@__crt_stdio_output@@V?$format_validation_base@DV?$stream_output_adapter@D@__crt_stdio_output@@@2@@__crt_stdio_output@@AEAA_NXZ 0000000180067150 f i libucrtd:output.obj
 0001:000661f0       ?state_case_flag@?$output_processor@DV?$stream_output_adapter@D@__crt_stdio_output@@V?$positional_parameter_base@DV?$stream_output_adapter@D@__crt_stdio_output@@@2@@__crt_stdio_output@@AEAA_NXZ 00000001800671f0 f i libucrtd:output.obj
 0001:00066290       ?state_case_flag@?$output_processor@DV?$stream_output_adapter@D@__crt_stdio_output@@V?$standard_base@DV?$stream_output_adapter@D@__crt_stdio_output@@@2@@__crt_stdio_output@@AEAA_NXZ 0000000180067290 f i libucrtd:output.obj
 0001:00066330       ?state_case_flag@?$output_processor@DV?$string_output_adapter@D@__crt_stdio_output@@V?$format_validation_base@DV?$string_output_adapter@D@__crt_stdio_output@@@2@@__crt_stdio_output@@AEAA_NXZ 0000000180067330 f i libucrtd:output.obj
 0001:000663d0       ?state_case_flag@?$output_processor@DV?$string_output_adapter@D@__crt_stdio_output@@V?$positional_parameter_base@DV?$string_output_adapter@D@__crt_stdio_output@@@2@@__crt_stdio_output@@AEAA_NXZ 00000001800673d0 f i libucrtd:output.obj
 0001:00066470       ?state_case_flag@?$output_processor@DV?$string_output_adapter@D@__crt_stdio_output@@V?$standard_base@DV?$string_output_adapter@D@__crt_stdio_output@@@2@@__crt_stdio_output@@AEAA_NXZ 0000000180067470 f i libucrtd:output.obj
 0001:00066510       ?state_case_flag@?$output_processor@_WV?$stream_output_adapter@_W@__crt_stdio_output@@V?$format_validation_base@_WV?$stream_output_adapter@_W@__crt_stdio_output@@@2@@__crt_stdio_output@@AEAA_NXZ 0000000180067510 f i libucrtd:output.obj
 0001:000665b0       ?state_case_flag@?$output_processor@_WV?$stream_output_adapter@_W@__crt_stdio_output@@V?$positional_parameter_base@_WV?$stream_output_adapter@_W@__crt_stdio_output@@@2@@__crt_stdio_output@@AEAA_NXZ 00000001800675b0 f i libucrtd:output.obj
 0001:00066650       ?state_case_flag@?$output_processor@_WV?$stream_output_adapter@_W@__crt_stdio_output@@V?$standard_base@_WV?$stream_output_adapter@_W@__crt_stdio_output@@@2@@__crt_stdio_output@@AEAA_NXZ 0000000180067650 f i libucrtd:output.obj
 0001:000666f0       ?state_case_flag@?$output_processor@_WV?$string_output_adapter@_W@__crt_stdio_output@@V?$format_validation_base@_WV?$string_output_adapter@_W@__crt_stdio_output@@@2@@__crt_stdio_output@@AEAA_NXZ 00000001800676f0 f i libucrtd:output.obj
 0001:00066790       ?state_case_flag@?$output_processor@_WV?$string_output_adapter@_W@__crt_stdio_output@@V?$positional_parameter_base@_WV?$string_output_adapter@_W@__crt_stdio_output@@@2@@__crt_stdio_output@@AEAA_NXZ 0000000180067790 f i libucrtd:output.obj
 0001:00066830       ?state_case_flag@?$output_processor@_WV?$string_output_adapter@_W@__crt_stdio_output@@V?$standard_base@_WV?$string_output_adapter@_W@__crt_stdio_output@@@2@@__crt_stdio_output@@AEAA_NXZ 0000000180067830 f i libucrtd:output.obj
 0001:000668d0       ?state_case_normal@?$output_processor@DV?$stream_output_adapter@D@__crt_stdio_output@@V?$format_validation_base@DV?$stream_output_adapter@D@__crt_stdio_output@@@2@@__crt_stdio_output@@AEAA_NXZ 00000001800678d0 f i libucrtd:output.obj
 0001:000669b0       ?state_case_normal@?$output_processor@DV?$stream_output_adapter@D@__crt_stdio_output@@V?$positional_parameter_base@DV?$stream_output_adapter@D@__crt_stdio_output@@@2@@__crt_stdio_output@@AEAA_NXZ 00000001800679b0 f i libucrtd:output.obj
 0001:00066a90       ?state_case_normal@?$output_processor@DV?$stream_output_adapter@D@__crt_stdio_output@@V?$standard_base@DV?$stream_output_adapter@D@__crt_stdio_output@@@2@@__crt_stdio_output@@AEAA_NXZ 0000000180067a90 f i libucrtd:output.obj
 0001:00066b70       ?state_case_normal@?$output_processor@DV?$string_output_adapter@D@__crt_stdio_output@@V?$format_validation_base@DV?$string_output_adapter@D@__crt_stdio_output@@@2@@__crt_stdio_output@@AEAA_NXZ 0000000180067b70 f i libucrtd:output.obj
 0001:00066c50       ?state_case_normal@?$output_processor@DV?$string_output_adapter@D@__crt_stdio_output@@V?$positional_parameter_base@DV?$string_output_adapter@D@__crt_stdio_output@@@2@@__crt_stdio_output@@AEAA_NXZ 0000000180067c50 f i libucrtd:output.obj
 0001:00066d30       ?state_case_normal@?$output_processor@DV?$string_output_adapter@D@__crt_stdio_output@@V?$standard_base@DV?$string_output_adapter@D@__crt_stdio_output@@@2@@__crt_stdio_output@@AEAA_NXZ 0000000180067d30 f i libucrtd:output.obj
 0001:00066e10       ?state_case_normal@?$output_processor@_WV?$stream_output_adapter@_W@__crt_stdio_output@@V?$format_validation_base@_WV?$stream_output_adapter@_W@__crt_stdio_output@@@2@@__crt_stdio_output@@AEAA_NXZ 0000000180067e10 f i libucrtd:output.obj
 0001:00066ef0       ?state_case_normal@?$output_processor@_WV?$stream_output_adapter@_W@__crt_stdio_output@@V?$positional_parameter_base@_WV?$stream_output_adapter@_W@__crt_stdio_output@@@2@@__crt_stdio_output@@AEAA_NXZ 0000000180067ef0 f i libucrtd:output.obj
 0001:00066fd0       ?state_case_normal@?$output_processor@_WV?$stream_output_adapter@_W@__crt_stdio_output@@V?$standard_base@_WV?$stream_output_adapter@_W@__crt_stdio_output@@@2@@__crt_stdio_output@@AEAA_NXZ 0000000180067fd0 f i libucrtd:output.obj
 0001:000670b0       ?state_case_normal@?$output_processor@_WV?$string_output_adapter@_W@__crt_stdio_output@@V?$format_validation_base@_WV?$string_output_adapter@_W@__crt_stdio_output@@@2@@__crt_stdio_output@@AEAA_NXZ 00000001800680b0 f i libucrtd:output.obj
 0001:00067190       ?state_case_normal@?$output_processor@_WV?$string_output_adapter@_W@__crt_stdio_output@@V?$positional_parameter_base@_WV?$string_output_adapter@_W@__crt_stdio_output@@@2@@__crt_stdio_output@@AEAA_NXZ 0000000180068190 f i libucrtd:output.obj
 0001:00067270       ?state_case_normal@?$output_processor@_WV?$string_output_adapter@_W@__crt_stdio_output@@V?$standard_base@_WV?$string_output_adapter@_W@__crt_stdio_output@@@2@@__crt_stdio_output@@AEAA_NXZ 0000000180068270 f i libucrtd:output.obj
 0001:00067350       ?state_case_normal_common@?$output_processor@DV?$stream_output_adapter@D@__crt_stdio_output@@V?$format_validation_base@DV?$stream_output_adapter@D@__crt_stdio_output@@@2@@__crt_stdio_output@@AEAA_NXZ 0000000180068350 f i libucrtd:output.obj
 0001:000673a0       ?state_case_normal_common@?$output_processor@DV?$stream_output_adapter@D@__crt_stdio_output@@V?$positional_parameter_base@DV?$stream_output_adapter@D@__crt_stdio_output@@@2@@__crt_stdio_output@@AEAA_NXZ 00000001800683a0 f i libucrtd:output.obj
 0001:000673f0       ?state_case_normal_common@?$output_processor@DV?$stream_output_adapter@D@__crt_stdio_output@@V?$standard_base@DV?$stream_output_adapter@D@__crt_stdio_output@@@2@@__crt_stdio_output@@AEAA_NXZ 00000001800683f0 f i libucrtd:output.obj
 0001:00067440       ?state_case_normal_common@?$output_processor@DV?$string_output_adapter@D@__crt_stdio_output@@V?$format_validation_base@DV?$string_output_adapter@D@__crt_stdio_output@@@2@@__crt_stdio_output@@AEAA_NXZ 0000000180068440 f i libucrtd:output.obj
 0001:00067490       ?state_case_normal_common@?$output_processor@DV?$string_output_adapter@D@__crt_stdio_output@@V?$positional_parameter_base@DV?$string_output_adapter@D@__crt_stdio_output@@@2@@__crt_stdio_output@@AEAA_NXZ 0000000180068490 f i libucrtd:output.obj
 0001:000674e0       ?state_case_normal_common@?$output_processor@DV?$string_output_adapter@D@__crt_stdio_output@@V?$standard_base@DV?$string_output_adapter@D@__crt_stdio_output@@@2@@__crt_stdio_output@@AEAA_NXZ 00000001800684e0 f i libucrtd:output.obj
 0001:00067530       ?state_case_normal_common@?$output_processor@_WV?$stream_output_adapter@_W@__crt_stdio_output@@V?$format_validation_base@_WV?$stream_output_adapter@_W@__crt_stdio_output@@@2@@__crt_stdio_output@@AEAA_NXZ 0000000180068530 f i libucrtd:output.obj
 0001:00067580       ?state_case_normal_common@?$output_processor@_WV?$stream_output_adapter@_W@__crt_stdio_output@@V?$positional_parameter_base@_WV?$stream_output_adapter@_W@__crt_stdio_output@@@2@@__crt_stdio_output@@AEAA_NXZ 0000000180068580 f i libucrtd:output.obj
 0001:000675d0       ?state_case_normal_common@?$output_processor@_WV?$stream_output_adapter@_W@__crt_stdio_output@@V?$standard_base@_WV?$stream_output_adapter@_W@__crt_stdio_output@@@2@@__crt_stdio_output@@AEAA_NXZ 00000001800685d0 f i libucrtd:output.obj
 0001:00067620       ?state_case_normal_common@?$output_processor@_WV?$string_output_adapter@_W@__crt_stdio_output@@V?$format_validation_base@_WV?$string_output_adapter@_W@__crt_stdio_output@@@2@@__crt_stdio_output@@AEAA_NXZ 0000000180068620 f i libucrtd:output.obj
 0001:00067670       ?state_case_normal_common@?$output_processor@_WV?$string_output_adapter@_W@__crt_stdio_output@@V?$positional_parameter_base@_WV?$string_output_adapter@_W@__crt_stdio_output@@@2@@__crt_stdio_output@@AEAA_NXZ 0000000180068670 f i libucrtd:output.obj
 0001:000676c0       ?state_case_normal_common@?$output_processor@_WV?$string_output_adapter@_W@__crt_stdio_output@@V?$standard_base@_WV?$string_output_adapter@_W@__crt_stdio_output@@@2@@__crt_stdio_output@@AEAA_NXZ 00000001800686c0 f i libucrtd:output.obj
 0001:00067710       ?state_case_normal_tchar@?$output_processor@DV?$stream_output_adapter@D@__crt_stdio_output@@V?$format_validation_base@DV?$stream_output_adapter@D@__crt_stdio_output@@@2@@__crt_stdio_output@@AEAA_ND@Z 0000000180068710 f i libucrtd:output.obj
 0001:00067850       ?state_case_normal_tchar@?$output_processor@DV?$stream_output_adapter@D@__crt_stdio_output@@V?$positional_parameter_base@DV?$stream_output_adapter@D@__crt_stdio_output@@@2@@__crt_stdio_output@@AEAA_ND@Z 0000000180068850 f i libucrtd:output.obj
 0001:00067990       ?state_case_normal_tchar@?$output_processor@DV?$stream_output_adapter@D@__crt_stdio_output@@V?$standard_base@DV?$stream_output_adapter@D@__crt_stdio_output@@@2@@__crt_stdio_output@@AEAA_ND@Z 0000000180068990 f i libucrtd:output.obj
 0001:00067ad0       ?state_case_normal_tchar@?$output_processor@DV?$string_output_adapter@D@__crt_stdio_output@@V?$format_validation_base@DV?$string_output_adapter@D@__crt_stdio_output@@@2@@__crt_stdio_output@@AEAA_ND@Z 0000000180068ad0 f i libucrtd:output.obj
 0001:00067c10       ?state_case_normal_tchar@?$output_processor@DV?$string_output_adapter@D@__crt_stdio_output@@V?$positional_parameter_base@DV?$string_output_adapter@D@__crt_stdio_output@@@2@@__crt_stdio_output@@AEAA_ND@Z 0000000180068c10 f i libucrtd:output.obj
 0001:00067d50       ?state_case_normal_tchar@?$output_processor@DV?$string_output_adapter@D@__crt_stdio_output@@V?$standard_base@DV?$string_output_adapter@D@__crt_stdio_output@@@2@@__crt_stdio_output@@AEAA_ND@Z 0000000180068d50 f i libucrtd:output.obj
 0001:00067e90       ?state_case_normal_tchar@?$output_processor@_WV?$stream_output_adapter@_W@__crt_stdio_output@@V?$format_validation_base@_WV?$stream_output_adapter@_W@__crt_stdio_output@@@2@@__crt_stdio_output@@AEAA_N_W@Z 0000000180068e90 f i libucrtd:output.obj
 0001:00067eb0       ?state_case_normal_tchar@?$output_processor@_WV?$stream_output_adapter@_W@__crt_stdio_output@@V?$positional_parameter_base@_WV?$stream_output_adapter@_W@__crt_stdio_output@@@2@@__crt_stdio_output@@AEAA_N_W@Z 0000000180068eb0 f i libucrtd:output.obj
 0001:00067ed0       ?state_case_normal_tchar@?$output_processor@_WV?$stream_output_adapter@_W@__crt_stdio_output@@V?$standard_base@_WV?$stream_output_adapter@_W@__crt_stdio_output@@@2@@__crt_stdio_output@@AEAA_N_W@Z 0000000180068ed0 f i libucrtd:output.obj
 0001:00067ef0       ?state_case_normal_tchar@?$output_processor@_WV?$string_output_adapter@_W@__crt_stdio_output@@V?$format_validation_base@_WV?$string_output_adapter@_W@__crt_stdio_output@@@2@@__crt_stdio_output@@AEAA_N_W@Z 0000000180068ef0 f i libucrtd:output.obj
 0001:00067f10       ?state_case_normal_tchar@?$output_processor@_WV?$string_output_adapter@_W@__crt_stdio_output@@V?$positional_parameter_base@_WV?$string_output_adapter@_W@__crt_stdio_output@@@2@@__crt_stdio_output@@AEAA_N_W@Z 0000000180068f10 f i libucrtd:output.obj
 0001:00067f30       ?state_case_normal_tchar@?$output_processor@_WV?$string_output_adapter@_W@__crt_stdio_output@@V?$standard_base@_WV?$string_output_adapter@_W@__crt_stdio_output@@@2@@__crt_stdio_output@@AEAA_N_W@Z 0000000180068f30 f i libucrtd:output.obj
 0001:00067f50       ?state_case_percent@?$output_processor@DV?$stream_output_adapter@D@__crt_stdio_output@@V?$format_validation_base@DV?$stream_output_adapter@D@__crt_stdio_output@@@2@@__crt_stdio_output@@AEAA_NXZ 0000000180068f50 f i libucrtd:output.obj
 0001:00067fa0       ?state_case_percent@?$output_processor@DV?$stream_output_adapter@D@__crt_stdio_output@@V?$positional_parameter_base@DV?$stream_output_adapter@D@__crt_stdio_output@@@2@@__crt_stdio_output@@AEAA_NXZ 0000000180068fa0 f i libucrtd:output.obj
 0001:00067ff0       ?state_case_percent@?$output_processor@DV?$stream_output_adapter@D@__crt_stdio_output@@V?$standard_base@DV?$stream_output_adapter@D@__crt_stdio_output@@@2@@__crt_stdio_output@@AEAA_NXZ 0000000180068ff0 f i libucrtd:output.obj
 0001:00068040       ?state_case_percent@?$output_processor@DV?$string_output_adapter@D@__crt_stdio_output@@V?$format_validation_base@DV?$string_output_adapter@D@__crt_stdio_output@@@2@@__crt_stdio_output@@AEAA_NXZ 0000000180069040 f i libucrtd:output.obj
 0001:00068090       ?state_case_percent@?$output_processor@DV?$string_output_adapter@D@__crt_stdio_output@@V?$positional_parameter_base@DV?$string_output_adapter@D@__crt_stdio_output@@@2@@__crt_stdio_output@@AEAA_NXZ 0000000180069090 f i libucrtd:output.obj
 0001:000680e0       ?state_case_percent@?$output_processor@DV?$string_output_adapter@D@__crt_stdio_output@@V?$standard_base@DV?$string_output_adapter@D@__crt_stdio_output@@@2@@__crt_stdio_output@@AEAA_NXZ 00000001800690e0 f i libucrtd:output.obj
 0001:00068130       ?state_case_percent@?$output_processor@_WV?$stream_output_adapter@_W@__crt_stdio_output@@V?$format_validation_base@_WV?$stream_output_adapter@_W@__crt_stdio_output@@@2@@__crt_stdio_output@@AEAA_NXZ 0000000180069130 f i libucrtd:output.obj
 0001:00068180       ?state_case_percent@?$output_processor@_WV?$stream_output_adapter@_W@__crt_stdio_output@@V?$positional_parameter_base@_WV?$stream_output_adapter@_W@__crt_stdio_output@@@2@@__crt_stdio_output@@AEAA_NXZ 0000000180069180 f i libucrtd:output.obj
 0001:000681d0       ?state_case_percent@?$output_processor@_WV?$stream_output_adapter@_W@__crt_stdio_output@@V?$standard_base@_WV?$stream_output_adapter@_W@__crt_stdio_output@@@2@@__crt_stdio_output@@AEAA_NXZ 00000001800691d0 f i libucrtd:output.obj
 0001:00068220       ?state_case_percent@?$output_processor@_WV?$string_output_adapter@_W@__crt_stdio_output@@V?$format_validation_base@_WV?$string_output_adapter@_W@__crt_stdio_output@@@2@@__crt_stdio_output@@AEAA_NXZ 0000000180069220 f i libucrtd:output.obj
 0001:00068270       ?state_case_percent@?$output_processor@_WV?$string_output_adapter@_W@__crt_stdio_output@@V?$positional_parameter_base@_WV?$string_output_adapter@_W@__crt_stdio_output@@@2@@__crt_stdio_output@@AEAA_NXZ 0000000180069270 f i libucrtd:output.obj
 0001:000682c0       ?state_case_percent@?$output_processor@_WV?$string_output_adapter@_W@__crt_stdio_output@@V?$standard_base@_WV?$string_output_adapter@_W@__crt_stdio_output@@@2@@__crt_stdio_output@@AEAA_NXZ 00000001800692c0 f i libucrtd:output.obj
 0001:00068310       ?state_case_precision@?$output_processor@DV?$stream_output_adapter@D@__crt_stdio_output@@V?$format_validation_base@DV?$stream_output_adapter@D@__crt_stdio_output@@@2@@__crt_stdio_output@@AEAA_NXZ 0000000180069310 f i libucrtd:output.obj
 0001:00068390       ?state_case_precision@?$output_processor@DV?$stream_output_adapter@D@__crt_stdio_output@@V?$positional_parameter_base@DV?$stream_output_adapter@D@__crt_stdio_output@@@2@@__crt_stdio_output@@AEAA_NXZ 0000000180069390 f i libucrtd:output.obj
 0001:00068410       ?state_case_precision@?$output_processor@DV?$stream_output_adapter@D@__crt_stdio_output@@V?$standard_base@DV?$stream_output_adapter@D@__crt_stdio_output@@@2@@__crt_stdio_output@@AEAA_NXZ 0000000180069410 f i libucrtd:output.obj
 0001:00068490       ?state_case_precision@?$output_processor@DV?$string_output_adapter@D@__crt_stdio_output@@V?$format_validation_base@DV?$string_output_adapter@D@__crt_stdio_output@@@2@@__crt_stdio_output@@AEAA_NXZ 0000000180069490 f i libucrtd:output.obj
 0001:00068510       ?state_case_precision@?$output_processor@DV?$string_output_adapter@D@__crt_stdio_output@@V?$positional_parameter_base@DV?$string_output_adapter@D@__crt_stdio_output@@@2@@__crt_stdio_output@@AEAA_NXZ 0000000180069510 f i libucrtd:output.obj
 0001:00068590       ?state_case_precision@?$output_processor@DV?$string_output_adapter@D@__crt_stdio_output@@V?$standard_base@DV?$string_output_adapter@D@__crt_stdio_output@@@2@@__crt_stdio_output@@AEAA_NXZ 0000000180069590 f i libucrtd:output.obj
 0001:00068610       ?state_case_precision@?$output_processor@_WV?$stream_output_adapter@_W@__crt_stdio_output@@V?$format_validation_base@_WV?$stream_output_adapter@_W@__crt_stdio_output@@@2@@__crt_stdio_output@@AEAA_NXZ 0000000180069610 f i libucrtd:output.obj
 0001:00068690       ?state_case_precision@?$output_processor@_WV?$stream_output_adapter@_W@__crt_stdio_output@@V?$positional_parameter_base@_WV?$stream_output_adapter@_W@__crt_stdio_output@@@2@@__crt_stdio_output@@AEAA_NXZ 0000000180069690 f i libucrtd:output.obj
 0001:00068710       ?state_case_precision@?$output_processor@_WV?$stream_output_adapter@_W@__crt_stdio_output@@V?$standard_base@_WV?$stream_output_adapter@_W@__crt_stdio_output@@@2@@__crt_stdio_output@@AEAA_NXZ 0000000180069710 f i libucrtd:output.obj
 0001:00068790       ?state_case_precision@?$output_processor@_WV?$string_output_adapter@_W@__crt_stdio_output@@V?$format_validation_base@_WV?$string_output_adapter@_W@__crt_stdio_output@@@2@@__crt_stdio_output@@AEAA_NXZ 0000000180069790 f i libucrtd:output.obj
 0001:00068810       ?state_case_precision@?$output_processor@_WV?$string_output_adapter@_W@__crt_stdio_output@@V?$positional_parameter_base@_WV?$string_output_adapter@_W@__crt_stdio_output@@@2@@__crt_stdio_output@@AEAA_NXZ 0000000180069810 f i libucrtd:output.obj
 0001:00068890       ?state_case_precision@?$output_processor@_WV?$string_output_adapter@_W@__crt_stdio_output@@V?$standard_base@_WV?$string_output_adapter@_W@__crt_stdio_output@@@2@@__crt_stdio_output@@AEAA_NXZ 0000000180069890 f i libucrtd:output.obj
 0001:00068910       ?state_case_size@?$output_processor@DV?$stream_output_adapter@D@__crt_stdio_output@@V?$format_validation_base@DV?$stream_output_adapter@D@__crt_stdio_output@@@2@@__crt_stdio_output@@AEAA_NXZ 0000000180069910 f i libucrtd:output.obj
 0001:00068d90       ?state_case_size@?$output_processor@DV?$stream_output_adapter@D@__crt_stdio_output@@V?$positional_parameter_base@DV?$stream_output_adapter@D@__crt_stdio_output@@@2@@__crt_stdio_output@@AEAA_NXZ 0000000180069d90 f i libucrtd:output.obj
 0001:00069210       ?state_case_size@?$output_processor@DV?$stream_output_adapter@D@__crt_stdio_output@@V?$standard_base@DV?$stream_output_adapter@D@__crt_stdio_output@@@2@@__crt_stdio_output@@AEAA_NXZ 000000018006a210 f i libucrtd:output.obj
 0001:00069690       ?state_case_size@?$output_processor@DV?$string_output_adapter@D@__crt_stdio_output@@V?$format_validation_base@DV?$string_output_adapter@D@__crt_stdio_output@@@2@@__crt_stdio_output@@AEAA_NXZ 000000018006a690 f i libucrtd:output.obj
 0001:00069b10       ?state_case_size@?$output_processor@DV?$string_output_adapter@D@__crt_stdio_output@@V?$positional_parameter_base@DV?$string_output_adapter@D@__crt_stdio_output@@@2@@__crt_stdio_output@@AEAA_NXZ 000000018006ab10 f i libucrtd:output.obj
 0001:00069f90       ?state_case_size@?$output_processor@DV?$string_output_adapter@D@__crt_stdio_output@@V?$standard_base@DV?$string_output_adapter@D@__crt_stdio_output@@@2@@__crt_stdio_output@@AEAA_NXZ 000000018006af90 f i libucrtd:output.obj
 0001:0006a410       ?state_case_size@?$output_processor@_WV?$stream_output_adapter@_W@__crt_stdio_output@@V?$format_validation_base@_WV?$stream_output_adapter@_W@__crt_stdio_output@@@2@@__crt_stdio_output@@AEAA_NXZ 000000018006b410 f i libucrtd:output.obj
 0001:0006a890       ?state_case_size@?$output_processor@_WV?$stream_output_adapter@_W@__crt_stdio_output@@V?$positional_parameter_base@_WV?$stream_output_adapter@_W@__crt_stdio_output@@@2@@__crt_stdio_output@@AEAA_NXZ 000000018006b890 f i libucrtd:output.obj
 0001:0006ad10       ?state_case_size@?$output_processor@_WV?$stream_output_adapter@_W@__crt_stdio_output@@V?$standard_base@_WV?$stream_output_adapter@_W@__crt_stdio_output@@@2@@__crt_stdio_output@@AEAA_NXZ 000000018006bd10 f i libucrtd:output.obj
 0001:0006b190       ?state_case_size@?$output_processor@_WV?$string_output_adapter@_W@__crt_stdio_output@@V?$format_validation_base@_WV?$string_output_adapter@_W@__crt_stdio_output@@@2@@__crt_stdio_output@@AEAA_NXZ 000000018006c190 f i libucrtd:output.obj
 0001:0006b610       ?state_case_size@?$output_processor@_WV?$string_output_adapter@_W@__crt_stdio_output@@V?$positional_parameter_base@_WV?$string_output_adapter@_W@__crt_stdio_output@@@2@@__crt_stdio_output@@AEAA_NXZ 000000018006c610 f i libucrtd:output.obj
 0001:0006ba90       ?state_case_size@?$output_processor@_WV?$string_output_adapter@_W@__crt_stdio_output@@V?$standard_base@_WV?$string_output_adapter@_W@__crt_stdio_output@@@2@@__crt_stdio_output@@AEAA_NXZ 000000018006ca90 f i libucrtd:output.obj
 0001:0006bf10       ?state_case_type@?$output_processor@DV?$stream_output_adapter@D@__crt_stdio_output@@V?$format_validation_base@DV?$stream_output_adapter@D@__crt_stdio_output@@@2@@__crt_stdio_output@@AEAA_NXZ 000000018006cf10 f i libucrtd:output.obj
 0001:0006c3b0       ?state_case_type@?$output_processor@DV?$stream_output_adapter@D@__crt_stdio_output@@V?$positional_parameter_base@DV?$stream_output_adapter@D@__crt_stdio_output@@@2@@__crt_stdio_output@@AEAA_NXZ 000000018006d3b0 f i libucrtd:output.obj
 0001:0006c850       ?state_case_type@?$output_processor@DV?$stream_output_adapter@D@__crt_stdio_output@@V?$standard_base@DV?$stream_output_adapter@D@__crt_stdio_output@@@2@@__crt_stdio_output@@AEAA_NXZ 000000018006d850 f i libucrtd:output.obj
 0001:0006ccf0       ?state_case_type@?$output_processor@DV?$string_output_adapter@D@__crt_stdio_output@@V?$format_validation_base@DV?$string_output_adapter@D@__crt_stdio_output@@@2@@__crt_stdio_output@@AEAA_NXZ 000000018006dcf0 f i libucrtd:output.obj
 0001:0006d190       ?state_case_type@?$output_processor@DV?$string_output_adapter@D@__crt_stdio_output@@V?$positional_parameter_base@DV?$string_output_adapter@D@__crt_stdio_output@@@2@@__crt_stdio_output@@AEAA_NXZ 000000018006e190 f i libucrtd:output.obj
 0001:0006d630       ?state_case_type@?$output_processor@DV?$string_output_adapter@D@__crt_stdio_output@@V?$standard_base@DV?$string_output_adapter@D@__crt_stdio_output@@@2@@__crt_stdio_output@@AEAA_NXZ 000000018006e630 f i libucrtd:output.obj
 0001:0006dad0       ?state_case_type@?$output_processor@_WV?$stream_output_adapter@_W@__crt_stdio_output@@V?$format_validation_base@_WV?$stream_output_adapter@_W@__crt_stdio_output@@@2@@__crt_stdio_output@@AEAA_NXZ 000000018006ead0 f i libucrtd:output.obj
 0001:0006e030       ?state_case_type@?$output_processor@_WV?$stream_output_adapter@_W@__crt_stdio_output@@V?$positional_parameter_base@_WV?$stream_output_adapter@_W@__crt_stdio_output@@@2@@__crt_stdio_output@@AEAA_NXZ 000000018006f030 f i libucrtd:output.obj
 0001:0006e590       ?state_case_type@?$output_processor@_WV?$stream_output_adapter@_W@__crt_stdio_output@@V?$standard_base@_WV?$stream_output_adapter@_W@__crt_stdio_output@@@2@@__crt_stdio_output@@AEAA_NXZ 000000018006f590 f i libucrtd:output.obj
 0001:0006eaf0       ?state_case_type@?$output_processor@_WV?$string_output_adapter@_W@__crt_stdio_output@@V?$format_validation_base@_WV?$string_output_adapter@_W@__crt_stdio_output@@@2@@__crt_stdio_output@@AEAA_NXZ 000000018006faf0 f i libucrtd:output.obj
 0001:0006f050       ?state_case_type@?$output_processor@_WV?$string_output_adapter@_W@__crt_stdio_output@@V?$positional_parameter_base@_WV?$string_output_adapter@_W@__crt_stdio_output@@@2@@__crt_stdio_output@@AEAA_NXZ 0000000180070050 f i libucrtd:output.obj
 0001:0006f5b0       ?state_case_type@?$output_processor@_WV?$string_output_adapter@_W@__crt_stdio_output@@V?$standard_base@_WV?$string_output_adapter@_W@__crt_stdio_output@@@2@@__crt_stdio_output@@AEAA_NXZ 00000001800705b0 f i libucrtd:output.obj
 0001:0006fb10       ?state_case_width@?$output_processor@DV?$stream_output_adapter@D@__crt_stdio_output@@V?$format_validation_base@DV?$stream_output_adapter@D@__crt_stdio_output@@@2@@__crt_stdio_output@@AEAA_NXZ 0000000180070b10 f i libucrtd:output.obj
 0001:0006fba0       ?state_case_width@?$output_processor@DV?$stream_output_adapter@D@__crt_stdio_output@@V?$positional_parameter_base@DV?$stream_output_adapter@D@__crt_stdio_output@@@2@@__crt_stdio_output@@AEAA_NXZ 0000000180070ba0 f i libucrtd:output.obj
 0001:0006fc30       ?state_case_width@?$output_processor@DV?$stream_output_adapter@D@__crt_stdio_output@@V?$standard_base@DV?$stream_output_adapter@D@__crt_stdio_output@@@2@@__crt_stdio_output@@AEAA_NXZ 0000000180070c30 f i libucrtd:output.obj
 0001:0006fcc0       ?state_case_width@?$output_processor@DV?$string_output_adapter@D@__crt_stdio_output@@V?$format_validation_base@DV?$string_output_adapter@D@__crt_stdio_output@@@2@@__crt_stdio_output@@AEAA_NXZ 0000000180070cc0 f i libucrtd:output.obj
 0001:0006fd50       ?state_case_width@?$output_processor@DV?$string_output_adapter@D@__crt_stdio_output@@V?$positional_parameter_base@DV?$string_output_adapter@D@__crt_stdio_output@@@2@@__crt_stdio_output@@AEAA_NXZ 0000000180070d50 f i libucrtd:output.obj
 0001:0006fde0       ?state_case_width@?$output_processor@DV?$string_output_adapter@D@__crt_stdio_output@@V?$standard_base@DV?$string_output_adapter@D@__crt_stdio_output@@@2@@__crt_stdio_output@@AEAA_NXZ 0000000180070de0 f i libucrtd:output.obj
 0001:0006fe70       ?state_case_width@?$output_processor@_WV?$stream_output_adapter@_W@__crt_stdio_output@@V?$format_validation_base@_WV?$stream_output_adapter@_W@__crt_stdio_output@@@2@@__crt_stdio_output@@AEAA_NXZ 0000000180070e70 f i libucrtd:output.obj
 0001:0006ff00       ?state_case_width@?$output_processor@_WV?$stream_output_adapter@_W@__crt_stdio_output@@V?$positional_parameter_base@_WV?$stream_output_adapter@_W@__crt_stdio_output@@@2@@__crt_stdio_output@@AEAA_NXZ 0000000180070f00 f i libucrtd:output.obj
 0001:0006ff90       ?state_case_width@?$output_processor@_WV?$stream_output_adapter@_W@__crt_stdio_output@@V?$standard_base@_WV?$stream_output_adapter@_W@__crt_stdio_output@@@2@@__crt_stdio_output@@AEAA_NXZ 0000000180070f90 f i libucrtd:output.obj
 0001:00070020       ?state_case_width@?$output_processor@_WV?$string_output_adapter@_W@__crt_stdio_output@@V?$format_validation_base@_WV?$string_output_adapter@_W@__crt_stdio_output@@@2@@__crt_stdio_output@@AEAA_NXZ 0000000180071020 f i libucrtd:output.obj
 0001:000700b0       ?state_case_width@?$output_processor@_WV?$string_output_adapter@_W@__crt_stdio_output@@V?$positional_parameter_base@_WV?$string_output_adapter@_W@__crt_stdio_output@@@2@@__crt_stdio_output@@AEAA_NXZ 00000001800710b0 f i libucrtd:output.obj
 0001:00070140       ?state_case_width@?$output_processor@_WV?$string_output_adapter@_W@__crt_stdio_output@@V?$standard_base@_WV?$string_output_adapter@_W@__crt_stdio_output@@@2@@__crt_stdio_output@@AEAA_NXZ 0000000180071140 f i libucrtd:output.obj
 0001:000701d0       ?state_count@?$format_validation_base@DV?$stream_output_adapter@D@__crt_stdio_output@@@__crt_stdio_output@@KAIXZ 00000001800711d0 f i libucrtd:output.obj
 0001:000701e0       ?state_count@?$format_validation_base@DV?$string_output_adapter@D@__crt_stdio_output@@@__crt_stdio_output@@KAIXZ 00000001800711e0 f i libucrtd:output.obj
 0001:000701f0       ?state_count@?$format_validation_base@_WV?$stream_output_adapter@_W@__crt_stdio_output@@@__crt_stdio_output@@KAIXZ 00000001800711f0 f i libucrtd:output.obj
 0001:00070200       ?state_count@?$format_validation_base@_WV?$string_output_adapter@_W@__crt_stdio_output@@@__crt_stdio_output@@KAIXZ 0000000180071200 f i libucrtd:output.obj
 0001:00070210       ?state_count@?$standard_base@DV?$stream_output_adapter@D@__crt_stdio_output@@@__crt_stdio_output@@KAIXZ 0000000180071210 f i libucrtd:output.obj
 0001:00070220       ?state_count@?$standard_base@DV?$string_output_adapter@D@__crt_stdio_output@@@__crt_stdio_output@@KAIXZ 0000000180071220 f i libucrtd:output.obj
 0001:00070230       ?state_count@?$standard_base@_WV?$stream_output_adapter@_W@__crt_stdio_output@@@__crt_stdio_output@@KAIXZ 0000000180071230 f i libucrtd:output.obj
 0001:00070240       ?state_count@?$standard_base@_WV?$string_output_adapter@_W@__crt_stdio_output@@@__crt_stdio_output@@KAIXZ 0000000180071240 f i libucrtd:output.obj
 0001:00070250       ?state_transition_table@?$format_validation_base@DV?$stream_output_adapter@D@__crt_stdio_output@@@__crt_stdio_output@@KAPEBEXZ 0000000180071250 f i libucrtd:output.obj
 0001:00070260       ?state_transition_table@?$format_validation_base@DV?$string_output_adapter@D@__crt_stdio_output@@@__crt_stdio_output@@KAPEBEXZ 0000000180071260 f i libucrtd:output.obj
 0001:00070270       ?state_transition_table@?$format_validation_base@_WV?$stream_output_adapter@_W@__crt_stdio_output@@@__crt_stdio_output@@KAPEBEXZ 0000000180071270 f i libucrtd:output.obj
 0001:00070280       ?state_transition_table@?$format_validation_base@_WV?$string_output_adapter@_W@__crt_stdio_output@@@__crt_stdio_output@@KAPEBEXZ 0000000180071280 f i libucrtd:output.obj
 0001:00070290       ?state_transition_table@?$standard_base@DV?$stream_output_adapter@D@__crt_stdio_output@@@__crt_stdio_output@@KAPEBEXZ 0000000180071290 f i libucrtd:output.obj
 0001:000702a0       ?state_transition_table@?$standard_base@DV?$string_output_adapter@D@__crt_stdio_output@@@__crt_stdio_output@@KAPEBEXZ 00000001800712a0 f i libucrtd:output.obj
 0001:000702b0       ?state_transition_table@?$standard_base@_WV?$stream_output_adapter@_W@__crt_stdio_output@@@__crt_stdio_output@@KAPEBEXZ 00000001800712b0 f i libucrtd:output.obj
 0001:000702c0       ?state_transition_table@?$standard_base@_WV?$string_output_adapter@_W@__crt_stdio_output@@@__crt_stdio_output@@KAPEBEXZ 00000001800712c0 f i libucrtd:output.obj
 0001:000702d0       ?tchar_string@?$common_data@D@__crt_stdio_output@@IEAAAEAPEADD@Z 00000001800712d0 f i libucrtd:output.obj
 0001:000702f0       ?tchar_string@?$common_data@D@__crt_stdio_output@@IEAAAEAPEADXZ 00000001800712f0 f i libucrtd:output.obj
 0001:00070310       ?tchar_string@?$common_data@_W@__crt_stdio_output@@IEAAAEAPEA_WXZ 0000000180071310 f i libucrtd:output.obj
 0001:00070330       ?tchar_string@?$common_data@_W@__crt_stdio_output@@IEAAAEAPEA_W_W@Z 0000000180071330 f i libucrtd:output.obj
 0001:00070350       ?to_integer_size@__crt_stdio_output@@YA_KW4length_modifier@1@@Z 0000000180071350 f i libucrtd:output.obj
 0001:00070400       ?type_case_X@?$output_processor@DV?$stream_output_adapter@D@__crt_stdio_output@@V?$format_validation_base@DV?$stream_output_adapter@D@__crt_stdio_output@@@2@@__crt_stdio_output@@AEAA_NXZ 0000000180071400 f i libucrtd:output.obj
 0001:00070420       ?type_case_X@?$output_processor@DV?$stream_output_adapter@D@__crt_stdio_output@@V?$positional_parameter_base@DV?$stream_output_adapter@D@__crt_stdio_output@@@2@@__crt_stdio_output@@AEAA_NXZ 0000000180071420 f i libucrtd:output.obj
 0001:00070440       ?type_case_X@?$output_processor@DV?$stream_output_adapter@D@__crt_stdio_output@@V?$standard_base@DV?$stream_output_adapter@D@__crt_stdio_output@@@2@@__crt_stdio_output@@AEAA_NXZ 0000000180071440 f i libucrtd:output.obj
 0001:00070460       ?type_case_X@?$output_processor@DV?$string_output_adapter@D@__crt_stdio_output@@V?$format_validation_base@DV?$string_output_adapter@D@__crt_stdio_output@@@2@@__crt_stdio_output@@AEAA_NXZ 0000000180071460 f i libucrtd:output.obj
 0001:00070480       ?type_case_X@?$output_processor@DV?$string_output_adapter@D@__crt_stdio_output@@V?$positional_parameter_base@DV?$string_output_adapter@D@__crt_stdio_output@@@2@@__crt_stdio_output@@AEAA_NXZ 0000000180071480 f i libucrtd:output.obj
 0001:000704a0       ?type_case_X@?$output_processor@DV?$string_output_adapter@D@__crt_stdio_output@@V?$standard_base@DV?$string_output_adapter@D@__crt_stdio_output@@@2@@__crt_stdio_output@@AEAA_NXZ 00000001800714a0 f i libucrtd:output.obj
 0001:000704c0       ?type_case_X@?$output_processor@_WV?$stream_output_adapter@_W@__crt_stdio_output@@V?$format_validation_base@_WV?$stream_output_adapter@_W@__crt_stdio_output@@@2@@__crt_stdio_output@@AEAA_NXZ 00000001800714c0 f i libucrtd:output.obj
 0001:000704e0       ?type_case_X@?$output_processor@_WV?$stream_output_adapter@_W@__crt_stdio_output@@V?$positional_parameter_base@_WV?$stream_output_adapter@_W@__crt_stdio_output@@@2@@__crt_stdio_output@@AEAA_NXZ 00000001800714e0 f i libucrtd:output.obj
 0001:00070500       ?type_case_X@?$output_processor@_WV?$stream_output_adapter@_W@__crt_stdio_output@@V?$standard_base@_WV?$stream_output_adapter@_W@__crt_stdio_output@@@2@@__crt_stdio_output@@AEAA_NXZ 0000000180071500 f i libucrtd:output.obj
 0001:00070520       ?type_case_X@?$output_processor@_WV?$string_output_adapter@_W@__crt_stdio_output@@V?$format_validation_base@_WV?$string_output_adapter@_W@__crt_stdio_output@@@2@@__crt_stdio_output@@AEAA_NXZ 0000000180071520 f i libucrtd:output.obj
 0001:00070540       ?type_case_X@?$output_processor@_WV?$string_output_adapter@_W@__crt_stdio_output@@V?$positional_parameter_base@_WV?$string_output_adapter@_W@__crt_stdio_output@@@2@@__crt_stdio_output@@AEAA_NXZ 0000000180071540 f i libucrtd:output.obj
 0001:00070560       ?type_case_X@?$output_processor@_WV?$string_output_adapter@_W@__crt_stdio_output@@V?$standard_base@_WV?$string_output_adapter@_W@__crt_stdio_output@@@2@@__crt_stdio_output@@AEAA_NXZ 0000000180071560 f i libucrtd:output.obj
 0001:00070580       ?type_case_Z@?$output_processor@DV?$stream_output_adapter@D@__crt_stdio_output@@V?$format_validation_base@DV?$stream_output_adapter@D@__crt_stdio_output@@@2@@__crt_stdio_output@@AEAA_NXZ 0000000180071580 f i libucrtd:output.obj
 0001:000706a0       ?type_case_Z@?$output_processor@DV?$stream_output_adapter@D@__crt_stdio_output@@V?$positional_parameter_base@DV?$stream_output_adapter@D@__crt_stdio_output@@@2@@__crt_stdio_output@@AEAA_NXZ 00000001800716a0 f i libucrtd:output.obj
 0001:000707c0       ?type_case_Z@?$output_processor@DV?$stream_output_adapter@D@__crt_stdio_output@@V?$standard_base@DV?$stream_output_adapter@D@__crt_stdio_output@@@2@@__crt_stdio_output@@AEAA_NXZ 00000001800717c0 f i libucrtd:output.obj
 0001:000708e0       ?type_case_Z@?$output_processor@DV?$string_output_adapter@D@__crt_stdio_output@@V?$format_validation_base@DV?$string_output_adapter@D@__crt_stdio_output@@@2@@__crt_stdio_output@@AEAA_NXZ 00000001800718e0 f i libucrtd:output.obj
 0001:00070a00       ?type_case_Z@?$output_processor@DV?$string_output_adapter@D@__crt_stdio_output@@V?$positional_parameter_base@DV?$string_output_adapter@D@__crt_stdio_output@@@2@@__crt_stdio_output@@AEAA_NXZ 0000000180071a00 f i libucrtd:output.obj
 0001:00070b20       ?type_case_Z@?$output_processor@DV?$string_output_adapter@D@__crt_stdio_output@@V?$standard_base@DV?$string_output_adapter@D@__crt_stdio_output@@@2@@__crt_stdio_output@@AEAA_NXZ 0000000180071b20 f i libucrtd:output.obj
 0001:00070c40       ?type_case_Z@?$output_processor@_WV?$stream_output_adapter@_W@__crt_stdio_output@@V?$format_validation_base@_WV?$stream_output_adapter@_W@__crt_stdio_output@@@2@@__crt_stdio_output@@AEAA_NXZ 0000000180071c40 f i libucrtd:output.obj
 0001:00070d60       ?type_case_Z@?$output_processor@_WV?$stream_output_adapter@_W@__crt_stdio_output@@V?$positional_parameter_base@_WV?$stream_output_adapter@_W@__crt_stdio_output@@@2@@__crt_stdio_output@@AEAA_NXZ 0000000180071d60 f i libucrtd:output.obj
 0001:00070e80       ?type_case_Z@?$output_processor@_WV?$stream_output_adapter@_W@__crt_stdio_output@@V?$standard_base@_WV?$stream_output_adapter@_W@__crt_stdio_output@@@2@@__crt_stdio_output@@AEAA_NXZ 0000000180071e80 f i libucrtd:output.obj
 0001:00070fa0       ?type_case_Z@?$output_processor@_WV?$string_output_adapter@_W@__crt_stdio_output@@V?$format_validation_base@_WV?$string_output_adapter@_W@__crt_stdio_output@@@2@@__crt_stdio_output@@AEAA_NXZ 0000000180071fa0 f i libucrtd:output.obj
 0001:000710c0       ?type_case_Z@?$output_processor@_WV?$string_output_adapter@_W@__crt_stdio_output@@V?$positional_parameter_base@_WV?$string_output_adapter@_W@__crt_stdio_output@@@2@@__crt_stdio_output@@AEAA_NXZ 00000001800720c0 f i libucrtd:output.obj
 0001:000711e0       ?type_case_Z@?$output_processor@_WV?$string_output_adapter@_W@__crt_stdio_output@@V?$standard_base@_WV?$string_output_adapter@_W@__crt_stdio_output@@@2@@__crt_stdio_output@@AEAA_NXZ 00000001800721e0 f i libucrtd:output.obj
 0001:00071300       ?type_case_a@?$output_processor@DV?$stream_output_adapter@D@__crt_stdio_output@@V?$format_validation_base@DV?$stream_output_adapter@D@__crt_stdio_output@@@2@@__crt_stdio_output@@AEAA_NXZ 0000000180072300 f i libucrtd:output.obj
 0001:000716c0       ?type_case_a@?$output_processor@DV?$stream_output_adapter@D@__crt_stdio_output@@V?$positional_parameter_base@DV?$stream_output_adapter@D@__crt_stdio_output@@@2@@__crt_stdio_output@@AEAA_NXZ 00000001800726c0 f i libucrtd:output.obj
 0001:00071a80       ?type_case_a@?$output_processor@DV?$stream_output_adapter@D@__crt_stdio_output@@V?$standard_base@DV?$stream_output_adapter@D@__crt_stdio_output@@@2@@__crt_stdio_output@@AEAA_NXZ 0000000180072a80 f i libucrtd:output.obj
 0001:00071e40       ?type_case_a@?$output_processor@DV?$string_output_adapter@D@__crt_stdio_output@@V?$format_validation_base@DV?$string_output_adapter@D@__crt_stdio_output@@@2@@__crt_stdio_output@@AEAA_NXZ 0000000180072e40 f i libucrtd:output.obj
 0001:00072200       ?type_case_a@?$output_processor@DV?$string_output_adapter@D@__crt_stdio_output@@V?$positional_parameter_base@DV?$string_output_adapter@D@__crt_stdio_output@@@2@@__crt_stdio_output@@AEAA_NXZ 0000000180073200 f i libucrtd:output.obj
 0001:000725c0       ?type_case_a@?$output_processor@DV?$string_output_adapter@D@__crt_stdio_output@@V?$standard_base@DV?$string_output_adapter@D@__crt_stdio_output@@@2@@__crt_stdio_output@@AEAA_NXZ 00000001800735c0 f i libucrtd:output.obj
 0001:00072980       ?type_case_a@?$output_processor@_WV?$stream_output_adapter@_W@__crt_stdio_output@@V?$format_validation_base@_WV?$stream_output_adapter@_W@__crt_stdio_output@@@2@@__crt_stdio_output@@AEAA_NXZ 0000000180073980 f i libucrtd:output.obj
 0001:00072d50       ?type_case_a@?$output_processor@_WV?$stream_output_adapter@_W@__crt_stdio_output@@V?$positional_parameter_base@_WV?$stream_output_adapter@_W@__crt_stdio_output@@@2@@__crt_stdio_output@@AEAA_NXZ 0000000180073d50 f i libucrtd:output.obj
 0001:00073120       ?type_case_a@?$output_processor@_WV?$stream_output_adapter@_W@__crt_stdio_output@@V?$standard_base@_WV?$stream_output_adapter@_W@__crt_stdio_output@@@2@@__crt_stdio_output@@AEAA_NXZ 0000000180074120 f i libucrtd:output.obj
 0001:000734f0       ?type_case_a@?$output_processor@_WV?$string_output_adapter@_W@__crt_stdio_output@@V?$format_validation_base@_WV?$string_output_adapter@_W@__crt_stdio_output@@@2@@__crt_stdio_output@@AEAA_NXZ 00000001800744f0 f i libucrtd:output.obj
 0001:000738c0       ?type_case_a@?$output_processor@_WV?$string_output_adapter@_W@__crt_stdio_output@@V?$positional_parameter_base@_WV?$string_output_adapter@_W@__crt_stdio_output@@@2@@__crt_stdio_output@@AEAA_NXZ 00000001800748c0 f i libucrtd:output.obj
 0001:00073c90       ?type_case_a@?$output_processor@_WV?$string_output_adapter@_W@__crt_stdio_output@@V?$standard_base@_WV?$string_output_adapter@_W@__crt_stdio_output@@@2@@__crt_stdio_output@@AEAA_NXZ 0000000180074c90 f i libucrtd:output.obj
 0001:00074060       ?type_case_c@?$output_processor@DV?$stream_output_adapter@D@__crt_stdio_output@@V?$format_validation_base@DV?$stream_output_adapter@D@__crt_stdio_output@@@2@@__crt_stdio_output@@AEAA_NXZ 0000000180075060 f i libucrtd:output.obj
 0001:00074080       ?type_case_c@?$output_processor@DV?$stream_output_adapter@D@__crt_stdio_output@@V?$positional_parameter_base@DV?$stream_output_adapter@D@__crt_stdio_output@@@2@@__crt_stdio_output@@AEAA_NXZ 0000000180075080 f i libucrtd:output.obj
 0001:000740a0       ?type_case_c@?$output_processor@DV?$stream_output_adapter@D@__crt_stdio_output@@V?$standard_base@DV?$stream_output_adapter@D@__crt_stdio_output@@@2@@__crt_stdio_output@@AEAA_NXZ 00000001800750a0 f i libucrtd:output.obj
 0001:000740c0       ?type_case_c@?$output_processor@DV?$string_output_adapter@D@__crt_stdio_output@@V?$format_validation_base@DV?$string_output_adapter@D@__crt_stdio_output@@@2@@__crt_stdio_output@@AEAA_NXZ 00000001800750c0 f i libucrtd:output.obj
 0001:000740e0       ?type_case_c@?$output_processor@DV?$string_output_adapter@D@__crt_stdio_output@@V?$positional_parameter_base@DV?$string_output_adapter@D@__crt_stdio_output@@@2@@__crt_stdio_output@@AEAA_NXZ 00000001800750e0 f i libucrtd:output.obj
 0001:00074100       ?type_case_c@?$output_processor@DV?$string_output_adapter@D@__crt_stdio_output@@V?$standard_base@DV?$string_output_adapter@D@__crt_stdio_output@@@2@@__crt_stdio_output@@AEAA_NXZ 0000000180075100 f i libucrtd:output.obj
 0001:00074120       ?type_case_c@?$output_processor@_WV?$stream_output_adapter@_W@__crt_stdio_output@@V?$format_validation_base@_WV?$stream_output_adapter@_W@__crt_stdio_output@@@2@@__crt_stdio_output@@AEAA_NXZ 0000000180075120 f i libucrtd:output.obj
 0001:00074140       ?type_case_c@?$output_processor@_WV?$stream_output_adapter@_W@__crt_stdio_output@@V?$positional_parameter_base@_WV?$stream_output_adapter@_W@__crt_stdio_output@@@2@@__crt_stdio_output@@AEAA_NXZ 0000000180075140 f i libucrtd:output.obj
 0001:00074160       ?type_case_c@?$output_processor@_WV?$stream_output_adapter@_W@__crt_stdio_output@@V?$standard_base@_WV?$stream_output_adapter@_W@__crt_stdio_output@@@2@@__crt_stdio_output@@AEAA_NXZ 0000000180075160 f i libucrtd:output.obj
 0001:00074180       ?type_case_c@?$output_processor@_WV?$string_output_adapter@_W@__crt_stdio_output@@V?$format_validation_base@_WV?$string_output_adapter@_W@__crt_stdio_output@@@2@@__crt_stdio_output@@AEAA_NXZ 0000000180075180 f i libucrtd:output.obj
 0001:000741a0       ?type_case_c@?$output_processor@_WV?$string_output_adapter@_W@__crt_stdio_output@@V?$positional_parameter_base@_WV?$string_output_adapter@_W@__crt_stdio_output@@@2@@__crt_stdio_output@@AEAA_NXZ 00000001800751a0 f i libucrtd:output.obj
 0001:000741c0       ?type_case_c@?$output_processor@_WV?$string_output_adapter@_W@__crt_stdio_output@@V?$standard_base@_WV?$string_output_adapter@_W@__crt_stdio_output@@@2@@__crt_stdio_output@@AEAA_NXZ 00000001800751c0 f i libucrtd:output.obj
 0001:000741e0       ?type_case_c_tchar@?$output_processor@DV?$stream_output_adapter@D@__crt_stdio_output@@V?$format_validation_base@DV?$stream_output_adapter@D@__crt_stdio_output@@@2@@__crt_stdio_output@@AEAA_ND@Z 00000001800751e0 f i libucrtd:output.obj
 0001:00074330       ?type_case_c_tchar@?$output_processor@DV?$stream_output_adapter@D@__crt_stdio_output@@V?$positional_parameter_base@DV?$stream_output_adapter@D@__crt_stdio_output@@@2@@__crt_stdio_output@@AEAA_ND@Z 0000000180075330 f i libucrtd:output.obj
 0001:00074480       ?type_case_c_tchar@?$output_processor@DV?$stream_output_adapter@D@__crt_stdio_output@@V?$standard_base@DV?$stream_output_adapter@D@__crt_stdio_output@@@2@@__crt_stdio_output@@AEAA_ND@Z 0000000180075480 f i libucrtd:output.obj
 0001:000745d0       ?type_case_c_tchar@?$output_processor@DV?$string_output_adapter@D@__crt_stdio_output@@V?$format_validation_base@DV?$string_output_adapter@D@__crt_stdio_output@@@2@@__crt_stdio_output@@AEAA_ND@Z 00000001800755d0 f i libucrtd:output.obj
 0001:00074720       ?type_case_c_tchar@?$output_processor@DV?$string_output_adapter@D@__crt_stdio_output@@V?$positional_parameter_base@DV?$string_output_adapter@D@__crt_stdio_output@@@2@@__crt_stdio_output@@AEAA_ND@Z 0000000180075720 f i libucrtd:output.obj
 0001:00074870       ?type_case_c_tchar@?$output_processor@DV?$string_output_adapter@D@__crt_stdio_output@@V?$standard_base@DV?$string_output_adapter@D@__crt_stdio_output@@@2@@__crt_stdio_output@@AEAA_ND@Z 0000000180075870 f i libucrtd:output.obj
 0001:000749c0       ?type_case_c_tchar@?$output_processor@_WV?$stream_output_adapter@_W@__crt_stdio_output@@V?$format_validation_base@_WV?$stream_output_adapter@_W@__crt_stdio_output@@@2@@__crt_stdio_output@@AEAA_N_W@Z 00000001800759c0 f i libucrtd:output.obj
 0001:00074af0       ?type_case_c_tchar@?$output_processor@_WV?$stream_output_adapter@_W@__crt_stdio_output@@V?$positional_parameter_base@_WV?$stream_output_adapter@_W@__crt_stdio_output@@@2@@__crt_stdio_output@@AEAA_N_W@Z 0000000180075af0 f i libucrtd:output.obj
 0001:00074c20       ?type_case_c_tchar@?$output_processor@_WV?$stream_output_adapter@_W@__crt_stdio_output@@V?$standard_base@_WV?$stream_output_adapter@_W@__crt_stdio_output@@@2@@__crt_stdio_output@@AEAA_N_W@Z 0000000180075c20 f i libucrtd:output.obj
 0001:00074d50       ?type_case_c_tchar@?$output_processor@_WV?$string_output_adapter@_W@__crt_stdio_output@@V?$format_validation_base@_WV?$string_output_adapter@_W@__crt_stdio_output@@@2@@__crt_stdio_output@@AEAA_N_W@Z 0000000180075d50 f i libucrtd:output.obj
 0001:00074e80       ?type_case_c_tchar@?$output_processor@_WV?$string_output_adapter@_W@__crt_stdio_output@@V?$positional_parameter_base@_WV?$string_output_adapter@_W@__crt_stdio_output@@@2@@__crt_stdio_output@@AEAA_N_W@Z 0000000180075e80 f i libucrtd:output.obj
 0001:00074fb0       ?type_case_c_tchar@?$output_processor@_WV?$string_output_adapter@_W@__crt_stdio_output@@V?$standard_base@_WV?$string_output_adapter@_W@__crt_stdio_output@@@2@@__crt_stdio_output@@AEAA_N_W@Z 0000000180075fb0 f i libucrtd:output.obj
 0001:000750e0       ?type_case_d@?$output_processor@DV?$stream_output_adapter@D@__crt_stdio_output@@V?$format_validation_base@DV?$stream_output_adapter@D@__crt_stdio_output@@@2@@__crt_stdio_output@@AEAA_NXZ 00000001800760e0 f i libucrtd:output.obj
 0001:00075110       ?type_case_d@?$output_processor@DV?$stream_output_adapter@D@__crt_stdio_output@@V?$positional_parameter_base@DV?$stream_output_adapter@D@__crt_stdio_output@@@2@@__crt_stdio_output@@AEAA_NXZ 0000000180076110 f i libucrtd:output.obj
 0001:00075140       ?type_case_d@?$output_processor@DV?$stream_output_adapter@D@__crt_stdio_output@@V?$standard_base@DV?$stream_output_adapter@D@__crt_stdio_output@@@2@@__crt_stdio_output@@AEAA_NXZ 0000000180076140 f i libucrtd:output.obj
 0001:00075170       ?type_case_d@?$output_processor@DV?$string_output_adapter@D@__crt_stdio_output@@V?$format_validation_base@DV?$string_output_adapter@D@__crt_stdio_output@@@2@@__crt_stdio_output@@AEAA_NXZ 0000000180076170 f i libucrtd:output.obj
 0001:000751a0       ?type_case_d@?$output_processor@DV?$string_output_adapter@D@__crt_stdio_output@@V?$positional_parameter_base@DV?$string_output_adapter@D@__crt_stdio_output@@@2@@__crt_stdio_output@@AEAA_NXZ 00000001800761a0 f i libucrtd:output.obj
 0001:000751d0       ?type_case_d@?$output_processor@DV?$string_output_adapter@D@__crt_stdio_output@@V?$standard_base@DV?$string_output_adapter@D@__crt_stdio_output@@@2@@__crt_stdio_output@@AEAA_NXZ 00000001800761d0 f i libucrtd:output.obj
 0001:00075200       ?type_case_d@?$output_processor@_WV?$stream_output_adapter@_W@__crt_stdio_output@@V?$format_validation_base@_WV?$stream_output_adapter@_W@__crt_stdio_output@@@2@@__crt_stdio_output@@AEAA_NXZ 0000000180076200 f i libucrtd:output.obj
 0001:00075230       ?type_case_d@?$output_processor@_WV?$stream_output_adapter@_W@__crt_stdio_output@@V?$positional_parameter_base@_WV?$stream_output_adapter@_W@__crt_stdio_output@@@2@@__crt_stdio_output@@AEAA_NXZ 0000000180076230 f i libucrtd:output.obj
 0001:00075260       ?type_case_d@?$output_processor@_WV?$stream_output_adapter@_W@__crt_stdio_output@@V?$standard_base@_WV?$stream_output_adapter@_W@__crt_stdio_output@@@2@@__crt_stdio_output@@AEAA_NXZ 0000000180076260 f i libucrtd:output.obj
 0001:00075290       ?type_case_d@?$output_processor@_WV?$string_output_adapter@_W@__crt_stdio_output@@V?$format_validation_base@_WV?$string_output_adapter@_W@__crt_stdio_output@@@2@@__crt_stdio_output@@AEAA_NXZ 0000000180076290 f i libucrtd:output.obj
 0001:000752c0       ?type_case_d@?$output_processor@_WV?$string_output_adapter@_W@__crt_stdio_output@@V?$positional_parameter_base@_WV?$string_output_adapter@_W@__crt_stdio_output@@@2@@__crt_stdio_output@@AEAA_NXZ 00000001800762c0 f i libucrtd:output.obj
 0001:000752f0       ?type_case_d@?$output_processor@_WV?$string_output_adapter@_W@__crt_stdio_output@@V?$standard_base@_WV?$string_output_adapter@_W@__crt_stdio_output@@@2@@__crt_stdio_output@@AEAA_NXZ 00000001800762f0 f i libucrtd:output.obj
 0001:00075320       ?type_case_integer@?$output_processor@DV?$stream_output_adapter@D@__crt_stdio_output@@V?$format_validation_base@DV?$stream_output_adapter@D@__crt_stdio_output@@@2@@__crt_stdio_output@@AEAA_NI_N@Z 0000000180076320 f i libucrtd:output.obj
 0001:00075770       ?type_case_integer@?$output_processor@DV?$stream_output_adapter@D@__crt_stdio_output@@V?$positional_parameter_base@DV?$stream_output_adapter@D@__crt_stdio_output@@@2@@__crt_stdio_output@@AEAA_NI_N@Z 0000000180076770 f i libucrtd:output.obj
 0001:00075bc0       ?type_case_integer@?$output_processor@DV?$stream_output_adapter@D@__crt_stdio_output@@V?$standard_base@DV?$stream_output_adapter@D@__crt_stdio_output@@@2@@__crt_stdio_output@@AEAA_NI_N@Z 0000000180076bc0 f i libucrtd:output.obj
 0001:00076010       ?type_case_integer@?$output_processor@DV?$string_output_adapter@D@__crt_stdio_output@@V?$format_validation_base@DV?$string_output_adapter@D@__crt_stdio_output@@@2@@__crt_stdio_output@@AEAA_NI_N@Z 0000000180077010 f i libucrtd:output.obj
 0001:00076460       ?type_case_integer@?$output_processor@DV?$string_output_adapter@D@__crt_stdio_output@@V?$positional_parameter_base@DV?$string_output_adapter@D@__crt_stdio_output@@@2@@__crt_stdio_output@@AEAA_NI_N@Z 0000000180077460 f i libucrtd:output.obj
 0001:000768b0       ?type_case_integer@?$output_processor@DV?$string_output_adapter@D@__crt_stdio_output@@V?$standard_base@DV?$string_output_adapter@D@__crt_stdio_output@@@2@@__crt_stdio_output@@AEAA_NI_N@Z 00000001800778b0 f i libucrtd:output.obj
 0001:00076d00       ?type_case_integer@?$output_processor@_WV?$stream_output_adapter@_W@__crt_stdio_output@@V?$format_validation_base@_WV?$stream_output_adapter@_W@__crt_stdio_output@@@2@@__crt_stdio_output@@AEAA_NI_N@Z 0000000180077d00 f i libucrtd:output.obj
 0001:00077150       ?type_case_integer@?$output_processor@_WV?$stream_output_adapter@_W@__crt_stdio_output@@V?$positional_parameter_base@_WV?$stream_output_adapter@_W@__crt_stdio_output@@@2@@__crt_stdio_output@@AEAA_NI_N@Z 0000000180078150 f i libucrtd:output.obj
 0001:000775a0       ?type_case_integer@?$output_processor@_WV?$stream_output_adapter@_W@__crt_stdio_output@@V?$standard_base@_WV?$stream_output_adapter@_W@__crt_stdio_output@@@2@@__crt_stdio_output@@AEAA_NI_N@Z 00000001800785a0 f i libucrtd:output.obj
 0001:000779f0       ?type_case_integer@?$output_processor@_WV?$string_output_adapter@_W@__crt_stdio_output@@V?$format_validation_base@_WV?$string_output_adapter@_W@__crt_stdio_output@@@2@@__crt_stdio_output@@AEAA_NI_N@Z 00000001800789f0 f i libucrtd:output.obj
 0001:00077e40       ?type_case_integer@?$output_processor@_WV?$string_output_adapter@_W@__crt_stdio_output@@V?$positional_parameter_base@_WV?$string_output_adapter@_W@__crt_stdio_output@@@2@@__crt_stdio_output@@AEAA_NI_N@Z 0000000180078e40 f i libucrtd:output.obj
 0001:00078290       ?type_case_integer@?$output_processor@_WV?$string_output_adapter@_W@__crt_stdio_output@@V?$standard_base@_WV?$string_output_adapter@_W@__crt_stdio_output@@@2@@__crt_stdio_output@@AEAA_NI_N@Z 0000000180079290 f i libucrtd:output.obj
 0001:000786e0       ?type_case_n@?$output_processor@DV?$stream_output_adapter@D@__crt_stdio_output@@V?$format_validation_base@DV?$stream_output_adapter@D@__crt_stdio_output@@@2@@__crt_stdio_output@@AEAA_NXZ 00000001800796e0 f i libucrtd:output.obj
 0001:00078920       ?type_case_n@?$output_processor@DV?$stream_output_adapter@D@__crt_stdio_output@@V?$positional_parameter_base@DV?$stream_output_adapter@D@__crt_stdio_output@@@2@@__crt_stdio_output@@AEAA_NXZ 0000000180079920 f i libucrtd:output.obj
 0001:00078b60       ?type_case_n@?$output_processor@DV?$stream_output_adapter@D@__crt_stdio_output@@V?$standard_base@DV?$stream_output_adapter@D@__crt_stdio_output@@@2@@__crt_stdio_output@@AEAA_NXZ 0000000180079b60 f i libucrtd:output.obj
 0001:00078da0       ?type_case_n@?$output_processor@DV?$string_output_adapter@D@__crt_stdio_output@@V?$format_validation_base@DV?$string_output_adapter@D@__crt_stdio_output@@@2@@__crt_stdio_output@@AEAA_NXZ 0000000180079da0 f i libucrtd:output.obj
 0001:00078fe0       ?type_case_n@?$output_processor@DV?$string_output_adapter@D@__crt_stdio_output@@V?$positional_parameter_base@DV?$string_output_adapter@D@__crt_stdio_output@@@2@@__crt_stdio_output@@AEAA_NXZ 0000000180079fe0 f i libucrtd:output.obj
 0001:00079220       ?type_case_n@?$output_processor@DV?$string_output_adapter@D@__crt_stdio_output@@V?$standard_base@DV?$string_output_adapter@D@__crt_stdio_output@@@2@@__crt_stdio_output@@AEAA_NXZ 000000018007a220 f i libucrtd:output.obj
 0001:00079460       ?type_case_n@?$output_processor@_WV?$stream_output_adapter@_W@__crt_stdio_output@@V?$format_validation_base@_WV?$stream_output_adapter@_W@__crt_stdio_output@@@2@@__crt_stdio_output@@AEAA_NXZ 000000018007a460 f i libucrtd:output.obj
 0001:000796a0       ?type_case_n@?$output_processor@_WV?$stream_output_adapter@_W@__crt_stdio_output@@V?$positional_parameter_base@_WV?$stream_output_adapter@_W@__crt_stdio_output@@@2@@__crt_stdio_output@@AEAA_NXZ 000000018007a6a0 f i libucrtd:output.obj
 0001:000798e0       ?type_case_n@?$output_processor@_WV?$stream_output_adapter@_W@__crt_stdio_output@@V?$standard_base@_WV?$stream_output_adapter@_W@__crt_stdio_output@@@2@@__crt_stdio_output@@AEAA_NXZ 000000018007a8e0 f i libucrtd:output.obj
 0001:00079b20       ?type_case_n@?$output_processor@_WV?$string_output_adapter@_W@__crt_stdio_output@@V?$format_validation_base@_WV?$string_output_adapter@_W@__crt_stdio_output@@@2@@__crt_stdio_output@@AEAA_NXZ 000000018007ab20 f i libucrtd:output.obj
 0001:00079d60       ?type_case_n@?$output_processor@_WV?$string_output_adapter@_W@__crt_stdio_output@@V?$positional_parameter_base@_WV?$string_output_adapter@_W@__crt_stdio_output@@@2@@__crt_stdio_output@@AEAA_NXZ 000000018007ad60 f i libucrtd:output.obj
 0001:00079fa0       ?type_case_n@?$output_processor@_WV?$string_output_adapter@_W@__crt_stdio_output@@V?$standard_base@_WV?$string_output_adapter@_W@__crt_stdio_output@@@2@@__crt_stdio_output@@AEAA_NXZ 000000018007afa0 f i libucrtd:output.obj
 0001:0007a1e0       ?type_case_o@?$output_processor@DV?$stream_output_adapter@D@__crt_stdio_output@@V?$format_validation_base@DV?$stream_output_adapter@D@__crt_stdio_output@@@2@@__crt_stdio_output@@AEAA_NXZ 000000018007b1e0 f i libucrtd:output.obj
 0001:0007a230       ?type_case_o@?$output_processor@DV?$stream_output_adapter@D@__crt_stdio_output@@V?$positional_parameter_base@DV?$stream_output_adapter@D@__crt_stdio_output@@@2@@__crt_stdio_output@@AEAA_NXZ 000000018007b230 f i libucrtd:output.obj
 0001:0007a280       ?type_case_o@?$output_processor@DV?$stream_output_adapter@D@__crt_stdio_output@@V?$standard_base@DV?$stream_output_adapter@D@__crt_stdio_output@@@2@@__crt_stdio_output@@AEAA_NXZ 000000018007b280 f i libucrtd:output.obj
 0001:0007a2d0       ?type_case_o@?$output_processor@DV?$string_output_adapter@D@__crt_stdio_output@@V?$format_validation_base@DV?$string_output_adapter@D@__crt_stdio_output@@@2@@__crt_stdio_output@@AEAA_NXZ 000000018007b2d0 f i libucrtd:output.obj
 0001:0007a320       ?type_case_o@?$output_processor@DV?$string_output_adapter@D@__crt_stdio_output@@V?$positional_parameter_base@DV?$string_output_adapter@D@__crt_stdio_output@@@2@@__crt_stdio_output@@AEAA_NXZ 000000018007b320 f i libucrtd:output.obj
 0001:0007a370       ?type_case_o@?$output_processor@DV?$string_output_adapter@D@__crt_stdio_output@@V?$standard_base@DV?$string_output_adapter@D@__crt_stdio_output@@@2@@__crt_stdio_output@@AEAA_NXZ 000000018007b370 f i libucrtd:output.obj
 0001:0007a3c0       ?type_case_o@?$output_processor@_WV?$stream_output_adapter@_W@__crt_stdio_output@@V?$format_validation_base@_WV?$stream_output_adapter@_W@__crt_stdio_output@@@2@@__crt_stdio_output@@AEAA_NXZ 000000018007b3c0 f i libucrtd:output.obj
 0001:0007a410       ?type_case_o@?$output_processor@_WV?$stream_output_adapter@_W@__crt_stdio_output@@V?$positional_parameter_base@_WV?$stream_output_adapter@_W@__crt_stdio_output@@@2@@__crt_stdio_output@@AEAA_NXZ 000000018007b410 f i libucrtd:output.obj
 0001:0007a460       ?type_case_o@?$output_processor@_WV?$stream_output_adapter@_W@__crt_stdio_output@@V?$standard_base@_WV?$stream_output_adapter@_W@__crt_stdio_output@@@2@@__crt_stdio_output@@AEAA_NXZ 000000018007b460 f i libucrtd:output.obj
 0001:0007a4b0       ?type_case_o@?$output_processor@_WV?$string_output_adapter@_W@__crt_stdio_output@@V?$format_validation_base@_WV?$string_output_adapter@_W@__crt_stdio_output@@@2@@__crt_stdio_output@@AEAA_NXZ 000000018007b4b0 f i libucrtd:output.obj
 0001:0007a500       ?type_case_o@?$output_processor@_WV?$string_output_adapter@_W@__crt_stdio_output@@V?$positional_parameter_base@_WV?$string_output_adapter@_W@__crt_stdio_output@@@2@@__crt_stdio_output@@AEAA_NXZ 000000018007b500 f i libucrtd:output.obj
 0001:0007a550       ?type_case_o@?$output_processor@_WV?$string_output_adapter@_W@__crt_stdio_output@@V?$standard_base@_WV?$string_output_adapter@_W@__crt_stdio_output@@@2@@__crt_stdio_output@@AEAA_NXZ 000000018007b550 f i libucrtd:output.obj
 0001:0007a5a0       ?type_case_p@?$output_processor@DV?$stream_output_adapter@D@__crt_stdio_output@@V?$format_validation_base@DV?$stream_output_adapter@D@__crt_stdio_output@@@2@@__crt_stdio_output@@AEAA_NXZ 000000018007b5a0 f i libucrtd:output.obj
 0001:0007a5e0       ?type_case_p@?$output_processor@DV?$stream_output_adapter@D@__crt_stdio_output@@V?$positional_parameter_base@DV?$stream_output_adapter@D@__crt_stdio_output@@@2@@__crt_stdio_output@@AEAA_NXZ 000000018007b5e0 f i libucrtd:output.obj
 0001:0007a620       ?type_case_p@?$output_processor@DV?$stream_output_adapter@D@__crt_stdio_output@@V?$standard_base@DV?$stream_output_adapter@D@__crt_stdio_output@@@2@@__crt_stdio_output@@AEAA_NXZ 000000018007b620 f i libucrtd:output.obj
 0001:0007a660       ?type_case_p@?$output_processor@DV?$string_output_adapter@D@__crt_stdio_output@@V?$format_validation_base@DV?$string_output_adapter@D@__crt_stdio_output@@@2@@__crt_stdio_output@@AEAA_NXZ 000000018007b660 f i libucrtd:output.obj
 0001:0007a6a0       ?type_case_p@?$output_processor@DV?$string_output_adapter@D@__crt_stdio_output@@V?$positional_parameter_base@DV?$string_output_adapter@D@__crt_stdio_output@@@2@@__crt_stdio_output@@AEAA_NXZ 000000018007b6a0 f i libucrtd:output.obj
 0001:0007a6e0       ?type_case_p@?$output_processor@DV?$string_output_adapter@D@__crt_stdio_output@@V?$standard_base@DV?$string_output_adapter@D@__crt_stdio_output@@@2@@__crt_stdio_output@@AEAA_NXZ 000000018007b6e0 f i libucrtd:output.obj
 0001:0007a720       ?type_case_p@?$output_processor@_WV?$stream_output_adapter@_W@__crt_stdio_output@@V?$format_validation_base@_WV?$stream_output_adapter@_W@__crt_stdio_output@@@2@@__crt_stdio_output@@AEAA_NXZ 000000018007b720 f i libucrtd:output.obj
 0001:0007a760       ?type_case_p@?$output_processor@_WV?$stream_output_adapter@_W@__crt_stdio_output@@V?$positional_parameter_base@_WV?$stream_output_adapter@_W@__crt_stdio_output@@@2@@__crt_stdio_output@@AEAA_NXZ 000000018007b760 f i libucrtd:output.obj
 0001:0007a7a0       ?type_case_p@?$output_processor@_WV?$stream_output_adapter@_W@__crt_stdio_output@@V?$standard_base@_WV?$stream_output_adapter@_W@__crt_stdio_output@@@2@@__crt_stdio_output@@AEAA_NXZ 000000018007b7a0 f i libucrtd:output.obj
 0001:0007a7e0       ?type_case_p@?$output_processor@_WV?$string_output_adapter@_W@__crt_stdio_output@@V?$format_validation_base@_WV?$string_output_adapter@_W@__crt_stdio_output@@@2@@__crt_stdio_output@@AEAA_NXZ 000000018007b7e0 f i libucrtd:output.obj
 0001:0007a820       ?type_case_p@?$output_processor@_WV?$string_output_adapter@_W@__crt_stdio_output@@V?$positional_parameter_base@_WV?$string_output_adapter@_W@__crt_stdio_output@@@2@@__crt_stdio_output@@AEAA_NXZ 000000018007b820 f i libucrtd:output.obj
 0001:0007a860       ?type_case_p@?$output_processor@_WV?$string_output_adapter@_W@__crt_stdio_output@@V?$standard_base@_WV?$string_output_adapter@_W@__crt_stdio_output@@@2@@__crt_stdio_output@@AEAA_NXZ 000000018007b860 f i libucrtd:output.obj
 0001:0007a8a0       ?type_case_s@?$output_processor@DV?$stream_output_adapter@D@__crt_stdio_output@@V?$format_validation_base@DV?$stream_output_adapter@D@__crt_stdio_output@@@2@@__crt_stdio_output@@AEAA_NXZ 000000018007b8a0 f i libucrtd:output.obj
 0001:0007a9c0       ?type_case_s@?$output_processor@DV?$stream_output_adapter@D@__crt_stdio_output@@V?$positional_parameter_base@DV?$stream_output_adapter@D@__crt_stdio_output@@@2@@__crt_stdio_output@@AEAA_NXZ 000000018007b9c0 f i libucrtd:output.obj
 0001:0007aae0       ?type_case_s@?$output_processor@DV?$stream_output_adapter@D@__crt_stdio_output@@V?$standard_base@DV?$stream_output_adapter@D@__crt_stdio_output@@@2@@__crt_stdio_output@@AEAA_NXZ 000000018007bae0 f i libucrtd:output.obj
 0001:0007ac00       ?type_case_s@?$output_processor@DV?$string_output_adapter@D@__crt_stdio_output@@V?$format_validation_base@DV?$string_output_adapter@D@__crt_stdio_output@@@2@@__crt_stdio_output@@AEAA_NXZ 000000018007bc00 f i libucrtd:output.obj
 0001:0007ad20       ?type_case_s@?$output_processor@DV?$string_output_adapter@D@__crt_stdio_output@@V?$positional_parameter_base@DV?$string_output_adapter@D@__crt_stdio_output@@@2@@__crt_stdio_output@@AEAA_NXZ 000000018007bd20 f i libucrtd:output.obj
 0001:0007ae40       ?type_case_s@?$output_processor@DV?$string_output_adapter@D@__crt_stdio_output@@V?$standard_base@DV?$string_output_adapter@D@__crt_stdio_output@@@2@@__crt_stdio_output@@AEAA_NXZ 000000018007be40 f i libucrtd:output.obj
 0001:0007af60       ?type_case_s@?$output_processor@_WV?$stream_output_adapter@_W@__crt_stdio_output@@V?$format_validation_base@_WV?$stream_output_adapter@_W@__crt_stdio_output@@@2@@__crt_stdio_output@@AEAA_NXZ 000000018007bf60 f i libucrtd:output.obj
 0001:0007b080       ?type_case_s@?$output_processor@_WV?$stream_output_adapter@_W@__crt_stdio_output@@V?$positional_parameter_base@_WV?$stream_output_adapter@_W@__crt_stdio_output@@@2@@__crt_stdio_output@@AEAA_NXZ 000000018007c080 f i libucrtd:output.obj
 0001:0007b1a0       ?type_case_s@?$output_processor@_WV?$stream_output_adapter@_W@__crt_stdio_output@@V?$standard_base@_WV?$stream_output_adapter@_W@__crt_stdio_output@@@2@@__crt_stdio_output@@AEAA_NXZ 000000018007c1a0 f i libucrtd:output.obj
 0001:0007b2c0       ?type_case_s@?$output_processor@_WV?$string_output_adapter@_W@__crt_stdio_output@@V?$format_validation_base@_WV?$string_output_adapter@_W@__crt_stdio_output@@@2@@__crt_stdio_output@@AEAA_NXZ 000000018007c2c0 f i libucrtd:output.obj
 0001:0007b3e0       ?type_case_s@?$output_processor@_WV?$string_output_adapter@_W@__crt_stdio_output@@V?$positional_parameter_base@_WV?$string_output_adapter@_W@__crt_stdio_output@@@2@@__crt_stdio_output@@AEAA_NXZ 000000018007c3e0 f i libucrtd:output.obj
 0001:0007b500       ?type_case_s@?$output_processor@_WV?$string_output_adapter@_W@__crt_stdio_output@@V?$standard_base@_WV?$string_output_adapter@_W@__crt_stdio_output@@@2@@__crt_stdio_output@@AEAA_NXZ 000000018007c500 f i libucrtd:output.obj
 0001:0007b620       ?type_case_s_compute_narrow_string_length@?$output_processor@DV?$stream_output_adapter@D@__crt_stdio_output@@V?$format_validation_base@DV?$stream_output_adapter@D@__crt_stdio_output@@@2@@__crt_stdio_output@@AEBAHHD@Z 000000018007c620 f i libucrtd:output.obj
 0001:0007b650       ?type_case_s_compute_narrow_string_length@?$output_processor@DV?$stream_output_adapter@D@__crt_stdio_output@@V?$positional_parameter_base@DV?$stream_output_adapter@D@__crt_stdio_output@@@2@@__crt_stdio_output@@AEBAHHD@Z 000000018007c650 f i libucrtd:output.obj
 0001:0007b680       ?type_case_s_compute_narrow_string_length@?$output_processor@DV?$stream_output_adapter@D@__crt_stdio_output@@V?$standard_base@DV?$stream_output_adapter@D@__crt_stdio_output@@@2@@__crt_stdio_output@@AEBAHHD@Z 000000018007c680 f i libucrtd:output.obj
 0001:0007b6b0       ?type_case_s_compute_narrow_string_length@?$output_processor@DV?$string_output_adapter@D@__crt_stdio_output@@V?$format_validation_base@DV?$string_output_adapter@D@__crt_stdio_output@@@2@@__crt_stdio_output@@AEBAHHD@Z 000000018007c6b0 f i libucrtd:output.obj
 0001:0007b6e0       ?type_case_s_compute_narrow_string_length@?$output_processor@DV?$string_output_adapter@D@__crt_stdio_output@@V?$positional_parameter_base@DV?$string_output_adapter@D@__crt_stdio_output@@@2@@__crt_stdio_output@@AEBAHHD@Z 000000018007c6e0 f i libucrtd:output.obj
 0001:0007b710       ?type_case_s_compute_narrow_string_length@?$output_processor@DV?$string_output_adapter@D@__crt_stdio_output@@V?$standard_base@DV?$string_output_adapter@D@__crt_stdio_output@@@2@@__crt_stdio_output@@AEBAHHD@Z 000000018007c710 f i libucrtd:output.obj
 0001:0007b740       ?type_case_s_compute_narrow_string_length@?$output_processor@_WV?$stream_output_adapter@_W@__crt_stdio_output@@V?$format_validation_base@_WV?$stream_output_adapter@_W@__crt_stdio_output@@@2@@__crt_stdio_output@@AEBAHH_W@Z 000000018007c740 f i libucrtd:output.obj
 0001:0007b7d0       ?type_case_s_compute_narrow_string_length@?$output_processor@_WV?$stream_output_adapter@_W@__crt_stdio_output@@V?$positional_parameter_base@_WV?$stream_output_adapter@_W@__crt_stdio_output@@@2@@__crt_stdio_output@@AEBAHH_W@Z 000000018007c7d0 f i libucrtd:output.obj
 0001:0007b860       ?type_case_s_compute_narrow_string_length@?$output_processor@_WV?$stream_output_adapter@_W@__crt_stdio_output@@V?$standard_base@_WV?$stream_output_adapter@_W@__crt_stdio_output@@@2@@__crt_stdio_output@@AEBAHH_W@Z 000000018007c860 f i libucrtd:output.obj
 0001:0007b8f0       ?type_case_s_compute_narrow_string_length@?$output_processor@_WV?$string_output_adapter@_W@__crt_stdio_output@@V?$format_validation_base@_WV?$string_output_adapter@_W@__crt_stdio_output@@@2@@__crt_stdio_output@@AEBAHH_W@Z 000000018007c8f0 f i libucrtd:output.obj
 0001:0007b980       ?type_case_s_compute_narrow_string_length@?$output_processor@_WV?$string_output_adapter@_W@__crt_stdio_output@@V?$positional_parameter_base@_WV?$string_output_adapter@_W@__crt_stdio_output@@@2@@__crt_stdio_output@@AEBAHH_W@Z 000000018007c980 f i libucrtd:output.obj
 0001:0007ba10       ?type_case_s_compute_narrow_string_length@?$output_processor@_WV?$string_output_adapter@_W@__crt_stdio_output@@V?$standard_base@_WV?$string_output_adapter@_W@__crt_stdio_output@@@2@@__crt_stdio_output@@AEBAHH_W@Z 000000018007ca10 f i libucrtd:output.obj
 0001:0007baa0       ?type_case_u@?$output_processor@DV?$stream_output_adapter@D@__crt_stdio_output@@V?$format_validation_base@DV?$stream_output_adapter@D@__crt_stdio_output@@@2@@__crt_stdio_output@@AEAA_NXZ 000000018007caa0 f i libucrtd:output.obj
 0001:0007bac0       ?type_case_u@?$output_processor@DV?$stream_output_adapter@D@__crt_stdio_output@@V?$positional_parameter_base@DV?$stream_output_adapter@D@__crt_stdio_output@@@2@@__crt_stdio_output@@AEAA_NXZ 000000018007cac0 f i libucrtd:output.obj
 0001:0007bae0       ?type_case_u@?$output_processor@DV?$stream_output_adapter@D@__crt_stdio_output@@V?$standard_base@DV?$stream_output_adapter@D@__crt_stdio_output@@@2@@__crt_stdio_output@@AEAA_NXZ 000000018007cae0 f i libucrtd:output.obj
 0001:0007bb00       ?type_case_u@?$output_processor@DV?$string_output_adapter@D@__crt_stdio_output@@V?$format_validation_base@DV?$string_output_adapter@D@__crt_stdio_output@@@2@@__crt_stdio_output@@AEAA_NXZ 000000018007cb00 f i libucrtd:output.obj
 0001:0007bb20       ?type_case_u@?$output_processor@DV?$string_output_adapter@D@__crt_stdio_output@@V?$positional_parameter_base@DV?$string_output_adapter@D@__crt_stdio_output@@@2@@__crt_stdio_output@@AEAA_NXZ 000000018007cb20 f i libucrtd:output.obj
 0001:0007bb40       ?type_case_u@?$output_processor@DV?$string_output_adapter@D@__crt_stdio_output@@V?$standard_base@DV?$string_output_adapter@D@__crt_stdio_output@@@2@@__crt_stdio_output@@AEAA_NXZ 000000018007cb40 f i libucrtd:output.obj
 0001:0007bb60       ?type_case_u@?$output_processor@_WV?$stream_output_adapter@_W@__crt_stdio_output@@V?$format_validation_base@_WV?$stream_output_adapter@_W@__crt_stdio_output@@@2@@__crt_stdio_output@@AEAA_NXZ 000000018007cb60 f i libucrtd:output.obj
 0001:0007bb80       ?type_case_u@?$output_processor@_WV?$stream_output_adapter@_W@__crt_stdio_output@@V?$positional_parameter_base@_WV?$stream_output_adapter@_W@__crt_stdio_output@@@2@@__crt_stdio_output@@AEAA_NXZ 000000018007cb80 f i libucrtd:output.obj
 0001:0007bba0       ?type_case_u@?$output_processor@_WV?$stream_output_adapter@_W@__crt_stdio_output@@V?$standard_base@_WV?$stream_output_adapter@_W@__crt_stdio_output@@@2@@__crt_stdio_output@@AEAA_NXZ 000000018007cba0 f i libucrtd:output.obj
 0001:0007bbc0       ?type_case_u@?$output_processor@_WV?$string_output_adapter@_W@__crt_stdio_output@@V?$format_validation_base@_WV?$string_output_adapter@_W@__crt_stdio_output@@@2@@__crt_stdio_output@@AEAA_NXZ 000000018007cbc0 f i libucrtd:output.obj
 0001:0007bbe0       ?type_case_u@?$output_processor@_WV?$string_output_adapter@_W@__crt_stdio_output@@V?$positional_parameter_base@_WV?$string_output_adapter@_W@__crt_stdio_output@@@2@@__crt_stdio_output@@AEAA_NXZ 000000018007cbe0 f i libucrtd:output.obj
 0001:0007bc00       ?type_case_u@?$output_processor@_WV?$string_output_adapter@_W@__crt_stdio_output@@V?$standard_base@_WV?$string_output_adapter@_W@__crt_stdio_output@@@2@@__crt_stdio_output@@AEAA_NXZ 000000018007cc00 f i libucrtd:output.obj
 0001:0007bc20       ?type_case_x@?$output_processor@DV?$stream_output_adapter@D@__crt_stdio_output@@V?$format_validation_base@DV?$stream_output_adapter@D@__crt_stdio_output@@@2@@__crt_stdio_output@@AEAA_NXZ 000000018007cc20 f i libucrtd:output.obj
 0001:0007bc40       ?type_case_x@?$output_processor@DV?$stream_output_adapter@D@__crt_stdio_output@@V?$positional_parameter_base@DV?$stream_output_adapter@D@__crt_stdio_output@@@2@@__crt_stdio_output@@AEAA_NXZ 000000018007cc40 f i libucrtd:output.obj
 0001:0007bc60       ?type_case_x@?$output_processor@DV?$stream_output_adapter@D@__crt_stdio_output@@V?$standard_base@DV?$stream_output_adapter@D@__crt_stdio_output@@@2@@__crt_stdio_output@@AEAA_NXZ 000000018007cc60 f i libucrtd:output.obj
 0001:0007bc80       ?type_case_x@?$output_processor@DV?$string_output_adapter@D@__crt_stdio_output@@V?$format_validation_base@DV?$string_output_adapter@D@__crt_stdio_output@@@2@@__crt_stdio_output@@AEAA_NXZ 000000018007cc80 f i libucrtd:output.obj
 0001:0007bca0       ?type_case_x@?$output_processor@DV?$string_output_adapter@D@__crt_stdio_output@@V?$positional_parameter_base@DV?$string_output_adapter@D@__crt_stdio_output@@@2@@__crt_stdio_output@@AEAA_NXZ 000000018007cca0 f i libucrtd:output.obj
 0001:0007bcc0       ?type_case_x@?$output_processor@DV?$string_output_adapter@D@__crt_stdio_output@@V?$standard_base@DV?$string_output_adapter@D@__crt_stdio_output@@@2@@__crt_stdio_output@@AEAA_NXZ 000000018007ccc0 f i libucrtd:output.obj
 0001:0007bce0       ?type_case_x@?$output_processor@_WV?$stream_output_adapter@_W@__crt_stdio_output@@V?$format_validation_base@_WV?$stream_output_adapter@_W@__crt_stdio_output@@@2@@__crt_stdio_output@@AEAA_NXZ 000000018007cce0 f i libucrtd:output.obj
 0001:0007bd00       ?type_case_x@?$output_processor@_WV?$stream_output_adapter@_W@__crt_stdio_output@@V?$positional_parameter_base@_WV?$stream_output_adapter@_W@__crt_stdio_output@@@2@@__crt_stdio_output@@AEAA_NXZ 000000018007cd00 f i libucrtd:output.obj
 0001:0007bd20       ?type_case_x@?$output_processor@_WV?$stream_output_adapter@_W@__crt_stdio_output@@V?$standard_base@_WV?$stream_output_adapter@_W@__crt_stdio_output@@@2@@__crt_stdio_output@@AEAA_NXZ 000000018007cd20 f i libucrtd:output.obj
 0001:0007bd40       ?type_case_x@?$output_processor@_WV?$string_output_adapter@_W@__crt_stdio_output@@V?$format_validation_base@_WV?$string_output_adapter@_W@__crt_stdio_output@@@2@@__crt_stdio_output@@AEAA_NXZ 000000018007cd40 f i libucrtd:output.obj
 0001:0007bd60       ?type_case_x@?$output_processor@_WV?$string_output_adapter@_W@__crt_stdio_output@@V?$positional_parameter_base@_WV?$string_output_adapter@_W@__crt_stdio_output@@@2@@__crt_stdio_output@@AEAA_NXZ 000000018007cd60 f i libucrtd:output.obj
 0001:0007bd80       ?type_case_x@?$output_processor@_WV?$string_output_adapter@_W@__crt_stdio_output@@V?$standard_base@_WV?$string_output_adapter@_W@__crt_stdio_output@@@2@@__crt_stdio_output@@AEAA_NXZ 000000018007cd80 f i libucrtd:output.obj
 0001:0007bda0       ?unset_flag@?$output_processor@DV?$stream_output_adapter@D@__crt_stdio_output@@V?$format_validation_base@DV?$stream_output_adapter@D@__crt_stdio_output@@@2@@__crt_stdio_output@@AEAAXI@Z 000000018007cda0 f i libucrtd:output.obj
 0001:0007bdd0       ?unset_flag@?$output_processor@DV?$stream_output_adapter@D@__crt_stdio_output@@V?$positional_parameter_base@DV?$stream_output_adapter@D@__crt_stdio_output@@@2@@__crt_stdio_output@@AEAAXI@Z 000000018007cdd0 f i libucrtd:output.obj
 0001:0007be00       ?unset_flag@?$output_processor@DV?$stream_output_adapter@D@__crt_stdio_output@@V?$standard_base@DV?$stream_output_adapter@D@__crt_stdio_output@@@2@@__crt_stdio_output@@AEAAXI@Z 000000018007ce00 f i libucrtd:output.obj
 0001:0007be30       ?unset_flag@?$output_processor@DV?$string_output_adapter@D@__crt_stdio_output@@V?$format_validation_base@DV?$string_output_adapter@D@__crt_stdio_output@@@2@@__crt_stdio_output@@AEAAXI@Z 000000018007ce30 f i libucrtd:output.obj
 0001:0007be60       ?unset_flag@?$output_processor@DV?$string_output_adapter@D@__crt_stdio_output@@V?$positional_parameter_base@DV?$string_output_adapter@D@__crt_stdio_output@@@2@@__crt_stdio_output@@AEAAXI@Z 000000018007ce60 f i libucrtd:output.obj
 0001:0007be90       ?unset_flag@?$output_processor@DV?$string_output_adapter@D@__crt_stdio_output@@V?$standard_base@DV?$string_output_adapter@D@__crt_stdio_output@@@2@@__crt_stdio_output@@AEAAXI@Z 000000018007ce90 f i libucrtd:output.obj
 0001:0007bec0       ?unset_flag@?$output_processor@_WV?$stream_output_adapter@_W@__crt_stdio_output@@V?$format_validation_base@_WV?$stream_output_adapter@_W@__crt_stdio_output@@@2@@__crt_stdio_output@@AEAAXI@Z 000000018007cec0 f i libucrtd:output.obj
 0001:0007bef0       ?unset_flag@?$output_processor@_WV?$stream_output_adapter@_W@__crt_stdio_output@@V?$positional_parameter_base@_WV?$stream_output_adapter@_W@__crt_stdio_output@@@2@@__crt_stdio_output@@AEAAXI@Z 000000018007cef0 f i libucrtd:output.obj
 0001:0007bf20       ?unset_flag@?$output_processor@_WV?$stream_output_adapter@_W@__crt_stdio_output@@V?$standard_base@_WV?$stream_output_adapter@_W@__crt_stdio_output@@@2@@__crt_stdio_output@@AEAAXI@Z 000000018007cf20 f i libucrtd:output.obj
 0001:0007bf50       ?unset_flag@?$output_processor@_WV?$string_output_adapter@_W@__crt_stdio_output@@V?$format_validation_base@_WV?$string_output_adapter@_W@__crt_stdio_output@@@2@@__crt_stdio_output@@AEAAXI@Z 000000018007cf50 f i libucrtd:output.obj
 0001:0007bf80       ?unset_flag@?$output_processor@_WV?$string_output_adapter@_W@__crt_stdio_output@@V?$positional_parameter_base@_WV?$string_output_adapter@_W@__crt_stdio_output@@@2@@__crt_stdio_output@@AEAAXI@Z 000000018007cf80 f i libucrtd:output.obj
 0001:0007bfb0       ?unset_flag@?$output_processor@_WV?$string_output_adapter@_W@__crt_stdio_output@@V?$standard_base@_WV?$string_output_adapter@_W@__crt_stdio_output@@@2@@__crt_stdio_output@@AEAAXI@Z 000000018007cfb0 f i libucrtd:output.obj
 0001:0007bfe0       ?update_field_width@?$positional_parameter_base@DV?$stream_output_adapter@D@__crt_stdio_output@@@__crt_stdio_output@@IEAA_NXZ 000000018007cfe0 f i libucrtd:output.obj
 0001:0007c1d0       ?update_field_width@?$positional_parameter_base@DV?$string_output_adapter@D@__crt_stdio_output@@@__crt_stdio_output@@IEAA_NXZ 000000018007d1d0 f i libucrtd:output.obj
 0001:0007c3c0       ?update_field_width@?$positional_parameter_base@_WV?$stream_output_adapter@_W@__crt_stdio_output@@@__crt_stdio_output@@IEAA_NXZ 000000018007d3c0 f i libucrtd:output.obj
 0001:0007c5b0       ?update_field_width@?$positional_parameter_base@_WV?$string_output_adapter@_W@__crt_stdio_output@@@__crt_stdio_output@@IEAA_NXZ 000000018007d5b0 f i libucrtd:output.obj
 0001:0007c7a0       ?update_field_width@?$standard_base@DV?$stream_output_adapter@D@__crt_stdio_output@@@__crt_stdio_output@@IEAA_NXZ 000000018007d7a0 f i libucrtd:output.obj
 0001:0007c7d0       ?update_field_width@?$standard_base@DV?$string_output_adapter@D@__crt_stdio_output@@@__crt_stdio_output@@IEAA_NXZ 000000018007d7d0 f i libucrtd:output.obj
 0001:0007c800       ?update_field_width@?$standard_base@_WV?$stream_output_adapter@_W@__crt_stdio_output@@@__crt_stdio_output@@IEAA_NXZ 000000018007d800 f i libucrtd:output.obj
 0001:0007c830       ?update_field_width@?$standard_base@_WV?$string_output_adapter@_W@__crt_stdio_output@@@__crt_stdio_output@@IEAA_NXZ 000000018007d830 f i libucrtd:output.obj
 0001:0007c860       ?update_precision@?$positional_parameter_base@DV?$stream_output_adapter@D@__crt_stdio_output@@@__crt_stdio_output@@IEAA_NXZ 000000018007d860 f i libucrtd:output.obj
 0001:0007ca50       ?update_precision@?$positional_parameter_base@DV?$string_output_adapter@D@__crt_stdio_output@@@__crt_stdio_output@@IEAA_NXZ 000000018007da50 f i libucrtd:output.obj
 0001:0007cc40       ?update_precision@?$positional_parameter_base@_WV?$stream_output_adapter@_W@__crt_stdio_output@@@__crt_stdio_output@@IEAA_NXZ 000000018007dc40 f i libucrtd:output.obj
 0001:0007ce30       ?update_precision@?$positional_parameter_base@_WV?$string_output_adapter@_W@__crt_stdio_output@@@__crt_stdio_output@@IEAA_NXZ 000000018007de30 f i libucrtd:output.obj
 0001:0007d020       ?update_precision@?$standard_base@DV?$stream_output_adapter@D@__crt_stdio_output@@@__crt_stdio_output@@IEAA_NXZ 000000018007e020 f i libucrtd:output.obj
 0001:0007d050       ?update_precision@?$standard_base@DV?$string_output_adapter@D@__crt_stdio_output@@@__crt_stdio_output@@IEAA_NXZ 000000018007e050 f i libucrtd:output.obj
 0001:0007d080       ?update_precision@?$standard_base@_WV?$stream_output_adapter@_W@__crt_stdio_output@@@__crt_stdio_output@@IEAA_NXZ 000000018007e080 f i libucrtd:output.obj
 0001:0007d0b0       ?update_precision@?$standard_base@_WV?$string_output_adapter@_W@__crt_stdio_output@@@__crt_stdio_output@@IEAA_NXZ 000000018007e0b0 f i libucrtd:output.obj
 0001:0007d0e0       ?valid@__crt_stdio_stream@@QEBA_NXZ 000000018007e0e0 f i libucrtd:output.obj
 0001:0007d110       ?validate@?$stream_output_adapter@D@__crt_stdio_output@@QEBA_NXZ 000000018007e110 f i libucrtd:output.obj
 0001:0007d1f0       ?validate@?$stream_output_adapter@_W@__crt_stdio_output@@QEBA_NXZ 000000018007e1f0 f i libucrtd:output.obj
 0001:0007d2d0       ?validate@?$string_output_adapter@D@__crt_stdio_output@@QEBA_NXZ 000000018007e2d0 f i libucrtd:output.obj
 0001:0007d390       ?validate@?$string_output_adapter@_W@__crt_stdio_output@@QEBA_NXZ 000000018007e390 f i libucrtd:output.obj
 0001:0007d450       ?validate_and_store_parameter_data@?$positional_parameter_base@DV?$stream_output_adapter@D@__crt_stdio_output@@@__crt_stdio_output@@AEAA_NAEAUparameter_data@12@W4parameter_type@12@DW4length_modifier@2@@Z 000000018007e450 f i libucrtd:output.obj
 0001:0007d570       ?validate_and_store_parameter_data@?$positional_parameter_base@DV?$string_output_adapter@D@__crt_stdio_output@@@__crt_stdio_output@@AEAA_NAEAUparameter_data@12@W4parameter_type@12@DW4length_modifier@2@@Z 000000018007e570 f i libucrtd:output.obj
 0001:0007d690       ?validate_and_store_parameter_data@?$positional_parameter_base@_WV?$stream_output_adapter@_W@__crt_stdio_output@@@__crt_stdio_output@@AEAA_NAEAUparameter_data@12@W4parameter_type@12@_WW4length_modifier@2@@Z 000000018007e690 f i libucrtd:output.obj
 0001:0007d7b0       ?validate_and_store_parameter_data@?$positional_parameter_base@_WV?$string_output_adapter@_W@__crt_stdio_output@@@__crt_stdio_output@@AEAA_NAEAUparameter_data@12@W4parameter_type@12@_WW4length_modifier@2@@Z 000000018007e7b0 f i libucrtd:output.obj
 0001:0007d8d0       ?validate_and_update_state_at_beginning_of_format_character@?$positional_parameter_base@DV?$stream_output_adapter@D@__crt_stdio_output@@@__crt_stdio_output@@IEAA_NXZ 000000018007e8d0 f i libucrtd:output.obj
 0001:0007dbb0       ?validate_and_update_state_at_beginning_of_format_character@?$positional_parameter_base@DV?$string_output_adapter@D@__crt_stdio_output@@@__crt_stdio_output@@IEAA_NXZ 000000018007ebb0 f i libucrtd:output.obj
 0001:0007de90       ?validate_and_update_state_at_beginning_of_format_character@?$positional_parameter_base@_WV?$stream_output_adapter@_W@__crt_stdio_output@@@__crt_stdio_output@@IEAA_NXZ 000000018007ee90 f i libucrtd:output.obj
 0001:0007e170       ?validate_and_update_state_at_beginning_of_format_character@?$positional_parameter_base@_WV?$string_output_adapter@_W@__crt_stdio_output@@@__crt_stdio_output@@IEAA_NXZ 000000018007f170 f i libucrtd:output.obj
 0001:0007e450       ?validate_and_update_state_at_beginning_of_format_character@?$standard_base@DV?$stream_output_adapter@D@__crt_stdio_output@@@__crt_stdio_output@@IEAA_NXZ 000000018007f450 f i libucrtd:output.obj
 0001:0007e460       ?validate_and_update_state_at_beginning_of_format_character@?$standard_base@DV?$string_output_adapter@D@__crt_stdio_output@@@__crt_stdio_output@@IEAA_NXZ 000000018007f460 f i libucrtd:output.obj
 0001:0007e470       ?validate_and_update_state_at_beginning_of_format_character@?$standard_base@_WV?$stream_output_adapter@_W@__crt_stdio_output@@@__crt_stdio_output@@IEAA_NXZ 000000018007f470 f i libucrtd:output.obj
 0001:0007e480       ?validate_and_update_state_at_beginning_of_format_character@?$standard_base@_WV?$string_output_adapter@_W@__crt_stdio_output@@@__crt_stdio_output@@IEAA_NXZ 000000018007f480 f i libucrtd:output.obj
 0001:0007e490       ?validate_and_update_state_at_end_of_format_string@?$format_validation_base@DV?$stream_output_adapter@D@__crt_stdio_output@@@__crt_stdio_output@@IEBA_NXZ 000000018007f490 f i libucrtd:output.obj
 0001:0007e550       ?validate_and_update_state_at_end_of_format_string@?$format_validation_base@DV?$string_output_adapter@D@__crt_stdio_output@@@__crt_stdio_output@@IEBA_NXZ 000000018007f550 f i libucrtd:output.obj
 0001:0007e610       ?validate_and_update_state_at_end_of_format_string@?$format_validation_base@_WV?$stream_output_adapter@_W@__crt_stdio_output@@@__crt_stdio_output@@IEBA_NXZ 000000018007f610 f i libucrtd:output.obj
 0001:0007e6d0       ?validate_and_update_state_at_end_of_format_string@?$format_validation_base@_WV?$string_output_adapter@_W@__crt_stdio_output@@@__crt_stdio_output@@IEBA_NXZ 000000018007f6d0 f i libucrtd:output.obj
 0001:0007e790       ?validate_and_update_state_at_end_of_format_string@?$positional_parameter_base@DV?$stream_output_adapter@D@__crt_stdio_output@@@__crt_stdio_output@@IEAA_NXZ 000000018007f790 f i libucrtd:output.obj
 0001:0007e980       ?validate_and_update_state_at_end_of_format_string@?$positional_parameter_base@DV?$string_output_adapter@D@__crt_stdio_output@@@__crt_stdio_output@@IEAA_NXZ 000000018007f980 f i libucrtd:output.obj
 0001:0007eb70       ?validate_and_update_state_at_end_of_format_string@?$positional_parameter_base@_WV?$stream_output_adapter@_W@__crt_stdio_output@@@__crt_stdio_output@@IEAA_NXZ 000000018007fb70 f i libucrtd:output.obj
 0001:0007ed60       ?validate_and_update_state_at_end_of_format_string@?$positional_parameter_base@_WV?$string_output_adapter@_W@__crt_stdio_output@@@__crt_stdio_output@@IEAA_NXZ 000000018007fd60 f i libucrtd:output.obj
 0001:0007ef50       ?validate_and_update_state_at_end_of_format_string@?$standard_base@DV?$stream_output_adapter@D@__crt_stdio_output@@@__crt_stdio_output@@IEBA_NXZ 000000018007ff50 f i libucrtd:output.obj
 0001:0007ef60       ?validate_and_update_state_at_end_of_format_string@?$standard_base@DV?$string_output_adapter@D@__crt_stdio_output@@@__crt_stdio_output@@IEBA_NXZ 000000018007ff60 f i libucrtd:output.obj
 0001:0007ef70       ?validate_and_update_state_at_end_of_format_string@?$standard_base@_WV?$stream_output_adapter@_W@__crt_stdio_output@@@__crt_stdio_output@@IEBA_NXZ 000000018007ff70 f i libucrtd:output.obj
 0001:0007ef80       ?validate_and_update_state_at_end_of_format_string@?$standard_base@_WV?$string_output_adapter@_W@__crt_stdio_output@@@__crt_stdio_output@@IEBA_NXZ 000000018007ff80 f i libucrtd:output.obj
 0001:0007ef90       ?validate_state_for_type_case_a@?$positional_parameter_base@DV?$stream_output_adapter@D@__crt_stdio_output@@@__crt_stdio_output@@IEAA_NXZ 000000018007ff90 f i libucrtd:output.obj
 0001:0007f0d0       ?validate_state_for_type_case_a@?$positional_parameter_base@DV?$string_output_adapter@D@__crt_stdio_output@@@__crt_stdio_output@@IEAA_NXZ 00000001800800d0 f i libucrtd:output.obj
 0001:0007f210       ?validate_state_for_type_case_a@?$positional_parameter_base@_WV?$stream_output_adapter@_W@__crt_stdio_output@@@__crt_stdio_output@@IEAA_NXZ 0000000180080210 f i libucrtd:output.obj
 0001:0007f350       ?validate_state_for_type_case_a@?$positional_parameter_base@_WV?$string_output_adapter@_W@__crt_stdio_output@@@__crt_stdio_output@@IEAA_NXZ 0000000180080350 f i libucrtd:output.obj
 0001:0007f490       ?validate_state_for_type_case_a@?$standard_base@DV?$stream_output_adapter@D@__crt_stdio_output@@@__crt_stdio_output@@IEBA_NXZ 0000000180080490 f i libucrtd:output.obj
 0001:0007f4a0       ?validate_state_for_type_case_a@?$standard_base@DV?$string_output_adapter@D@__crt_stdio_output@@@__crt_stdio_output@@IEBA_NXZ 00000001800804a0 f i libucrtd:output.obj
 0001:0007f4b0       ?validate_state_for_type_case_a@?$standard_base@_WV?$stream_output_adapter@_W@__crt_stdio_output@@@__crt_stdio_output@@IEBA_NXZ 00000001800804b0 f i libucrtd:output.obj
 0001:0007f4c0       ?validate_state_for_type_case_a@?$standard_base@_WV?$string_output_adapter@_W@__crt_stdio_output@@@__crt_stdio_output@@IEBA_NXZ 00000001800804c0 f i libucrtd:output.obj
 0001:0007f4d0       ?validate_stream_is_ansi_if_required@?$__acrt_stdio_char_traits@D@@SA_NQEAU_iobuf@@@Z 00000001800804d0 f i libucrtd:output.obj
 0001:0007f660       ?validate_stream_is_ansi_if_required@?$__acrt_stdio_char_traits@_W@@SA_NQEAU_iobuf@@@Z 0000000180080660 f i libucrtd:output.obj
 0001:0007f670       ?wide_null_string@?$output_processor@DV?$stream_output_adapter@D@__crt_stdio_output@@V?$format_validation_base@DV?$stream_output_adapter@D@__crt_stdio_output@@@2@@__crt_stdio_output@@CAPEA_WXZ 0000000180080670 f i libucrtd:output.obj
 0001:0007f680       ?wide_null_string@?$output_processor@DV?$stream_output_adapter@D@__crt_stdio_output@@V?$positional_parameter_base@DV?$stream_output_adapter@D@__crt_stdio_output@@@2@@__crt_stdio_output@@CAPEA_WXZ 0000000180080680 f i libucrtd:output.obj
 0001:0007f690       ?wide_null_string@?$output_processor@DV?$stream_output_adapter@D@__crt_stdio_output@@V?$standard_base@DV?$stream_output_adapter@D@__crt_stdio_output@@@2@@__crt_stdio_output@@CAPEA_WXZ 0000000180080690 f i libucrtd:output.obj
 0001:0007f6a0       ?wide_null_string@?$output_processor@DV?$string_output_adapter@D@__crt_stdio_output@@V?$format_validation_base@DV?$string_output_adapter@D@__crt_stdio_output@@@2@@__crt_stdio_output@@CAPEA_WXZ 00000001800806a0 f i libucrtd:output.obj
 0001:0007f6b0       ?wide_null_string@?$output_processor@DV?$string_output_adapter@D@__crt_stdio_output@@V?$positional_parameter_base@DV?$string_output_adapter@D@__crt_stdio_output@@@2@@__crt_stdio_output@@CAPEA_WXZ 00000001800806b0 f i libucrtd:output.obj
 0001:0007f6c0       ?wide_null_string@?$output_processor@DV?$string_output_adapter@D@__crt_stdio_output@@V?$standard_base@DV?$string_output_adapter@D@__crt_stdio_output@@@2@@__crt_stdio_output@@CAPEA_WXZ 00000001800806c0 f i libucrtd:output.obj
 0001:0007f6d0       ?wide_null_string@?$output_processor@_WV?$stream_output_adapter@_W@__crt_stdio_output@@V?$format_validation_base@_WV?$stream_output_adapter@_W@__crt_stdio_output@@@2@@__crt_stdio_output@@CAPEA_WXZ 00000001800806d0 f i libucrtd:output.obj
 0001:0007f6e0       ?wide_null_string@?$output_processor@_WV?$stream_output_adapter@_W@__crt_stdio_output@@V?$positional_parameter_base@_WV?$stream_output_adapter@_W@__crt_stdio_output@@@2@@__crt_stdio_output@@CAPEA_WXZ 00000001800806e0 f i libucrtd:output.obj
 0001:0007f6f0       ?wide_null_string@?$output_processor@_WV?$stream_output_adapter@_W@__crt_stdio_output@@V?$standard_base@_WV?$stream_output_adapter@_W@__crt_stdio_output@@@2@@__crt_stdio_output@@CAPEA_WXZ 00000001800806f0 f i libucrtd:output.obj
 0001:0007f700       ?wide_null_string@?$output_processor@_WV?$string_output_adapter@_W@__crt_stdio_output@@V?$format_validation_base@_WV?$string_output_adapter@_W@__crt_stdio_output@@@2@@__crt_stdio_output@@CAPEA_WXZ 0000000180080700 f i libucrtd:output.obj
 0001:0007f710       ?wide_null_string@?$output_processor@_WV?$string_output_adapter@_W@__crt_stdio_output@@V?$positional_parameter_base@_WV?$string_output_adapter@_W@__crt_stdio_output@@@2@@__crt_stdio_output@@CAPEA_WXZ 0000000180080710 f i libucrtd:output.obj
 0001:0007f720       ?wide_null_string@?$output_processor@_WV?$string_output_adapter@_W@__crt_stdio_output@@V?$standard_base@_WV?$string_output_adapter@_W@__crt_stdio_output@@@2@@__crt_stdio_output@@CAPEA_WXZ 0000000180080720 f i libucrtd:output.obj
 0001:0007f730       ?write_character@?$output_adapter_common@DV?$stream_output_adapter@D@__crt_stdio_output@@@__crt_stdio_output@@QEBAXDQEAH@Z 0000000180080730 f i libucrtd:output.obj
 0001:0007f780       ?write_character@?$output_adapter_common@_WV?$stream_output_adapter@_W@__crt_stdio_output@@@__crt_stdio_output@@QEBAX_WQEAH@Z 0000000180080780 f i libucrtd:output.obj
 0001:0007f7d0       ?write_character@?$string_output_adapter@D@__crt_stdio_output@@QEBA_NDQEAH@Z 00000001800807d0 f i libucrtd:output.obj
 0001:0007f890       ?write_character@?$string_output_adapter@_W@__crt_stdio_output@@QEBA_N_WQEAH@Z 0000000180080890 f i libucrtd:output.obj
 0001:0007f950       ?write_character_without_count_update@?$stream_output_adapter@D@__crt_stdio_output@@QEBA_ND@Z 0000000180080950 f i libucrtd:output.obj
 0001:0007f9d0       ?write_character_without_count_update@?$stream_output_adapter@_W@__crt_stdio_output@@QEBA_N_W@Z 00000001800809d0 f i libucrtd:output.obj
 0001:0007fa60       ?write_stored_string_tchar@?$output_processor@DV?$stream_output_adapter@D@__crt_stdio_output@@V?$format_validation_base@DV?$stream_output_adapter@D@__crt_stdio_output@@@2@@__crt_stdio_output@@AEAA_ND@Z 0000000180080a60 f i libucrtd:output.obj
 0001:0007fc10       ?write_stored_string_tchar@?$output_processor@DV?$stream_output_adapter@D@__crt_stdio_output@@V?$positional_parameter_base@DV?$stream_output_adapter@D@__crt_stdio_output@@@2@@__crt_stdio_output@@AEAA_ND@Z 0000000180080c10 f i libucrtd:output.obj
 0001:0007fdc0       ?write_stored_string_tchar@?$output_processor@DV?$stream_output_adapter@D@__crt_stdio_output@@V?$standard_base@DV?$stream_output_adapter@D@__crt_stdio_output@@@2@@__crt_stdio_output@@AEAA_ND@Z 0000000180080dc0 f i libucrtd:output.obj
 0001:0007ff70       ?write_stored_string_tchar@?$output_processor@DV?$string_output_adapter@D@__crt_stdio_output@@V?$format_validation_base@DV?$string_output_adapter@D@__crt_stdio_output@@@2@@__crt_stdio_output@@AEAA_ND@Z 0000000180080f70 f i libucrtd:output.obj
 0001:00080120       ?write_stored_string_tchar@?$output_processor@DV?$string_output_adapter@D@__crt_stdio_output@@V?$positional_parameter_base@DV?$string_output_adapter@D@__crt_stdio_output@@@2@@__crt_stdio_output@@AEAA_ND@Z 0000000180081120 f i libucrtd:output.obj
 0001:000802d0       ?write_stored_string_tchar@?$output_processor@DV?$string_output_adapter@D@__crt_stdio_output@@V?$standard_base@DV?$string_output_adapter@D@__crt_stdio_output@@@2@@__crt_stdio_output@@AEAA_ND@Z 00000001800812d0 f i libucrtd:output.obj
 0001:00080480       ?write_stored_string_tchar@?$output_processor@_WV?$stream_output_adapter@_W@__crt_stdio_output@@V?$format_validation_base@_WV?$stream_output_adapter@_W@__crt_stdio_output@@@2@@__crt_stdio_output@@AEAA_N_W@Z 0000000180081480 f i libucrtd:output.obj
 0001:000805d0       ?write_stored_string_tchar@?$output_processor@_WV?$stream_output_adapter@_W@__crt_stdio_output@@V?$positional_parameter_base@_WV?$stream_output_adapter@_W@__crt_stdio_output@@@2@@__crt_stdio_output@@AEAA_N_W@Z 00000001800815d0 f i libucrtd:output.obj
 0001:00080720       ?write_stored_string_tchar@?$output_processor@_WV?$stream_output_adapter@_W@__crt_stdio_output@@V?$standard_base@_WV?$stream_output_adapter@_W@__crt_stdio_output@@@2@@__crt_stdio_output@@AEAA_N_W@Z 0000000180081720 f i libucrtd:output.obj
 0001:00080870       ?write_stored_string_tchar@?$output_processor@_WV?$string_output_adapter@_W@__crt_stdio_output@@V?$format_validation_base@_WV?$string_output_adapter@_W@__crt_stdio_output@@@2@@__crt_stdio_output@@AEAA_N_W@Z 0000000180081870 f i libucrtd:output.obj
 0001:000809c0       ?write_stored_string_tchar@?$output_processor@_WV?$string_output_adapter@_W@__crt_stdio_output@@V?$positional_parameter_base@_WV?$string_output_adapter@_W@__crt_stdio_output@@@2@@__crt_stdio_output@@AEAA_N_W@Z 00000001800819c0 f i libucrtd:output.obj
 0001:00080b10       ?write_stored_string_tchar@?$output_processor@_WV?$string_output_adapter@_W@__crt_stdio_output@@V?$standard_base@_WV?$string_output_adapter@_W@__crt_stdio_output@@@2@@__crt_stdio_output@@AEAA_N_W@Z 0000000180081b10 f i libucrtd:output.obj
 0001:00080c60       ?write_string@?$stream_output_adapter@D@__crt_stdio_output@@QEBAXQEBDHQEAHAEAV__crt_deferred_errno_cache@@@Z 0000000180081c60 f i libucrtd:output.obj
 0001:00080ce0       ?write_string@?$stream_output_adapter@_W@__crt_stdio_output@@QEBAXQEB_WHQEAHAEAV__crt_deferred_errno_cache@@@Z 0000000180081ce0 f i libucrtd:output.obj
 0001:00080d60       ?write_string@?$string_output_adapter@D@__crt_stdio_output@@QEBAXQEBDHQEAHAEAV__crt_deferred_errno_cache@@@Z 0000000180081d60 f i libucrtd:output.obj
 0001:00080ed0       ?write_string@?$string_output_adapter@_W@__crt_stdio_output@@QEBAXQEB_WHQEAHAEAV__crt_deferred_errno_cache@@@Z 0000000180081ed0 f i libucrtd:output.obj
 0001:00081040       ?write_string_impl@?$output_adapter_common@DV?$stream_output_adapter@D@__crt_stdio_output@@@__crt_stdio_output@@IEBAXQEBDHQEAHAEAV__crt_deferred_errno_cache@@@Z 0000000180082040 f i libucrtd:output.obj
 0001:00081120       ?write_string_impl@?$output_adapter_common@_WV?$stream_output_adapter@_W@__crt_stdio_output@@@__crt_stdio_output@@IEBAXQEB_WHQEAHAEAV__crt_deferred_errno_cache@@@Z 0000000180082120 f i libucrtd:output.obj
 0001:00081200       __acrt_isleadbyte_l_noupdate 0000000180082200 f i libucrtd:output.obj
 0001:00081230       __acrt_locale_changed      0000000180082230 f i libucrtd:output.obj
 0001:00081260       __acrt_locale_get_ctype_array_value 0000000180082260 f i libucrtd:output.obj
 0001:000812a0       __stdio_common_vfprintf    00000001800822a0 f   libucrtd:output.obj
 0001:000812e0       __stdio_common_vfprintf_p  00000001800822e0 f   libucrtd:output.obj
 0001:00081320       __stdio_common_vfprintf_s  0000000180082320 f   libucrtd:output.obj
 0001:00081360       __stdio_common_vfwprintf   0000000180082360 f   libucrtd:output.obj
 0001:000813a0       __stdio_common_vfwprintf_p 00000001800823a0 f   libucrtd:output.obj
 0001:000813e0       __stdio_common_vfwprintf_s 00000001800823e0 f   libucrtd:output.obj
 0001:00081420       __stdio_common_vsnprintf_s 0000000180082420 f   libucrtd:output.obj
 0001:00081480       __stdio_common_vsnwprintf_s 0000000180082480 f   libucrtd:output.obj
 0001:000814e0       __stdio_common_vsprintf    00000001800824e0 f   libucrtd:output.obj
 0001:00081530       __stdio_common_vsprintf_p  0000000180082530 f   libucrtd:output.obj
 0001:00081580       __stdio_common_vsprintf_s  0000000180082580 f   libucrtd:output.obj
 0001:000815d0       __stdio_common_vswprintf   00000001800825d0 f   libucrtd:output.obj
 0001:00081620       __stdio_common_vswprintf_p 0000000180082620 f   libucrtd:output.obj
 0001:00081670       __stdio_common_vswprintf_s 0000000180082670 f   libucrtd:output.obj
 0001:000816c0       _ctype_fast_check_internal 00000001800826c0 f i libucrtd:output.obj
 0001:000816f0       _isdigit_fast_internal     00000001800826f0 f i libucrtd:output.obj
 0001:00081720       _tolower_fast_internal     0000000180082720 f i libucrtd:output.obj
 0001:00081750       free                       0000000180082750 f   libucrtd:free.obj
 0001:00081780       malloc                     0000000180082780 f   libucrtd:malloc.obj
 0001:000817b0       ??$?RU?$__crt_report_hook_node@D@@@__crt_internal_free_policy@@QEBAXQEBU?$__crt_report_hook_node@D@@@Z 00000001800827b0 f i libucrtd:dbgrpt.obj
 0001:000817e0       ??$?RU?$__crt_report_hook_node@_W@@@__crt_internal_free_policy@@QEBAXQEBU?$__crt_report_hook_node@_W@@@Z 00000001800827e0 f i libucrtd:dbgrpt.obj
 0001:00082a20       ??$get_module_file_name@AEAPEAUHINSTANCE__@@AEAY0BAF@DK@?$__crt_char_traits@D@@SAKAEAPEAUHINSTANCE__@@AEAY0BAF@D$$QEAK@Z 0000000180083a20 f i libucrtd:dbgrpt.obj
 0001:00082a60       ??$get_module_file_name@AEAPEAUHINSTANCE__@@AEAY0BAF@_WK@?$__crt_char_traits@_W@@SAKAEAPEAUHINSTANCE__@@AEAY0BAF@_W$$QEAK@Z 0000000180083a60 f i libucrtd:dbgrpt.obj
 0001:00082aa0       ??$tcscpy_s@AEAY0BAF@D_KPEBD@?$__crt_char_traits@D@@SAHAEAY0BAF@D$$QEA_K$$QEAPEBD@Z 0000000180083aa0 f i libucrtd:dbgrpt.obj
 0001:00082ae0       ??$tcscpy_s@AEAY0BAF@_W_KPEB_W@?$__crt_char_traits@_W@@SAHAEAY0BAF@_W$$QEA_K$$QEAPEB_W@Z 0000000180083ae0 f i libucrtd:dbgrpt.obj
 0001:00082b20       ??$tcslen@AEAY0BAF@D@?$__crt_char_traits@D@@SA_KAEAY0BAF@D@Z 0000000180083b20 f i libucrtd:dbgrpt.obj
 0001:00082b40       ??$tcslen@AEAY0BAF@_W@?$__crt_char_traits@_W@@SA_KAEAY0BAF@_W@Z 0000000180083b40 f i libucrtd:dbgrpt.obj
 0001:00082b60       ??$tcslen@AEBQEBD@?$__crt_char_traits@D@@SA_KAEBQEBD@Z 0000000180083b60 f i libucrtd:dbgrpt.obj
 0001:00082b80       ??$tcslen@AEBQEB_W@?$__crt_char_traits@_W@@SA_KAEBQEB_W@Z 0000000180083b80 f i libucrtd:dbgrpt.obj
 0001:00082c80       ??0?$__crt_unique_heap_ptr@U?$__crt_report_hook_node@D@@U__crt_internal_free_policy@@@@QEAA@QEAU?$__crt_report_hook_node@D@@@Z 0000000180083c80 f i libucrtd:dbgrpt.obj
 0001:00082ca0       ??0?$__crt_unique_heap_ptr@U?$__crt_report_hook_node@_W@@U__crt_internal_free_policy@@@@QEAA@QEAU?$__crt_report_hook_node@_W@@@Z 0000000180083ca0 f i libucrtd:dbgrpt.obj
 0001:00082cc0       ??1?$__crt_unique_heap_ptr@U?$__crt_report_hook_node@D@@U__crt_internal_free_policy@@@@QEAA@XZ 0000000180083cc0 f i libucrtd:dbgrpt.obj
 0001:00082ce0       ??1?$__crt_unique_heap_ptr@U?$__crt_report_hook_node@_W@@U__crt_internal_free_policy@@@@QEAA@XZ 0000000180083ce0 f i libucrtd:dbgrpt.obj
 0001:00082d00       ??B?$__crt_unique_heap_ptr@U?$__crt_report_hook_node@D@@U__crt_internal_free_policy@@@@QEBA_NXZ 0000000180083d00 f i libucrtd:dbgrpt.obj
 0001:00082d20       ??B?$__crt_unique_heap_ptr@U?$__crt_report_hook_node@_W@@U__crt_internal_free_policy@@@@QEBA_NXZ 0000000180083d20 f i libucrtd:dbgrpt.obj
 0001:00083400       ?detach@?$__crt_unique_heap_ptr@U?$__crt_report_hook_node@D@@U__crt_internal_free_policy@@@@QEAAPEAU?$__crt_report_hook_node@D@@XZ 0000000180084400 f i libucrtd:dbgrpt.obj
 0001:00083430       ?detach@?$__crt_unique_heap_ptr@U?$__crt_report_hook_node@_W@@U__crt_internal_free_policy@@@@QEAAPEAU?$__crt_report_hook_node@_W@@XZ 0000000180084430 f i libucrtd:dbgrpt.obj
 0001:00083460       ?get@?$__crt_unique_heap_ptr@U?$__crt_report_hook_node@D@@U__crt_internal_free_policy@@@@QEBAPEAU?$__crt_report_hook_node@D@@XZ 0000000180084460 f i libucrtd:dbgrpt.obj
 0001:00083470       ?get@?$__crt_unique_heap_ptr@U?$__crt_report_hook_node@_W@@U__crt_internal_free_policy@@@@QEBAPEAU?$__crt_report_hook_node@_W@@XZ 0000000180084470 f i libucrtd:dbgrpt.obj
 0001:000834e0       ?is_valid@?$__crt_unique_heap_ptr@U?$__crt_report_hook_node@D@@U__crt_internal_free_policy@@@@QEBA_NXZ 00000001800844e0 f i libucrtd:dbgrpt.obj
 0001:00083510       ?is_valid@?$__crt_unique_heap_ptr@U?$__crt_report_hook_node@_W@@U__crt_internal_free_policy@@@@QEBA_NXZ 0000000180084510 f i libucrtd:dbgrpt.obj
 0001:00083540       ?release@?$__crt_unique_heap_ptr@U?$__crt_report_hook_node@D@@U__crt_internal_free_policy@@@@QEAAXXZ 0000000180084540 f i libucrtd:dbgrpt.obj
 0001:00083570       ?release@?$__crt_unique_heap_ptr@U?$__crt_report_hook_node@_W@@U__crt_internal_free_policy@@@@QEAAXXZ 0000000180084570 f i libucrtd:dbgrpt.obj
 0001:000835a0       _CrtDbgReport              00000001800845a0 f   libucrtd:dbgrpt.obj
 0001:00083620       _CrtDbgReportW             0000000180084620 f   libucrtd:dbgrpt.obj
 0001:000836a0       _CrtSetReportHook2         00000001800846a0 f   libucrtd:dbgrpt.obj
 0001:000836c0       _CrtSetReportHookW2        00000001800846c0 f   libucrtd:dbgrpt.obj
 0001:000836e0       __acrt_MessageWindowA      00000001800846e0 f   libucrtd:dbgrpt.obj
 0001:00083730       __acrt_MessageWindowW      0000000180084730 f   libucrtd:dbgrpt.obj
 0001:00083780       _invoke_watson_if_error    0000000180084780 f i libucrtd:dbgrpt.obj
 0001:000837d0       _invoke_watson_if_oneof    00000001800847d0 f i libucrtd:dbgrpt.obj
 0001:00083830       _snwprintf_s               0000000180084830 f i libucrtd:dbgrpt.obj
 0001:000838a0       _vsnwprintf_s_l            00000001800848a0 f i libucrtd:dbgrpt.obj
 0001:00083e00       wcscpy_s                   0000000180084e00 f   libucrtd:wcscpy_s.obj
 0001:00085190       ??1?$__crt_simd_cleanup_guard@$00@@QEAA@XZ 0000000180086190 f i libucrtd:strnlen.obj
 0001:000851a0       ??1?$__crt_simd_cleanup_guard@$0A@@@QEAA@XZ 00000001800861a0 f i libucrtd:strnlen.obj
 0001:000851b0       ?compare_equals@?$__crt_simd_traits@$00E@@SA?AT__m256i@@T2@0@Z 00000001800861b0 f i libucrtd:strnlen.obj
 0001:000851f0       ?compare_equals@?$__crt_simd_traits@$00G@@SA?AT__m256i@@T2@0@Z 00000001800861f0 f i libucrtd:strnlen.obj
 0001:00085230       ?compare_equals@?$__crt_simd_traits@$0A@E@@SA?AT__m128i@@T2@0@Z 0000000180086230 f i libucrtd:strnlen.obj
 0001:00085260       ?compare_equals@?$__crt_simd_traits@$0A@G@@SA?AT__m128i@@T2@0@Z 0000000180086260 f i libucrtd:strnlen.obj
 0001:00085290       ?compute_byte_mask@?$__crt_simd_pack_traits@$00@@SAHT__m256i@@@Z 0000000180086290 f i libucrtd:strnlen.obj
 0001:000852b0       ?compute_byte_mask@?$__crt_simd_pack_traits@$0A@@@SAHT__m128i@@@Z 00000001800862b0 f i libucrtd:strnlen.obj
 0001:000852d0       ?get_zero_pack@?$__crt_simd_pack_traits@$00@@SA?AT__m256i@@XZ 00000001800862d0 f i libucrtd:strnlen.obj
 0001:00085300       ?get_zero_pack@?$__crt_simd_pack_traits@$0A@@@SA?AT__m128i@@XZ 0000000180086300 f i libucrtd:strnlen.obj
 0001:00085320       strnlen                    0000000180086320 f   libucrtd:strnlen.obj
 0001:00085350       wcslen                     0000000180086350 f   libucrtd:strnlen.obj
 0001:00085370       wcsnlen                    0000000180086370 f   libucrtd:strnlen.obj
 0001:000853a0       ??$__crt_fast_decode_pointer@P6AXPEB_W00I_K@Z@@YAP6AXPEB_W00I_K@ZQ6AX000I1@Z@Z 00000001800863a0 f i libucrtd:invalid_parameter.obj
 0001:000853e0       ??$__crt_fast_encode_pointer@P6AXPEB_W00I_K@Z@@YAP6AXPEB_W00I_K@ZQ6AX000I1@Z@Z 00000001800863e0 f i libucrtd:invalid_parameter.obj
 0001:00085420       ??$initialize_from_array@$$BY00Q6AXPEB_W00I_K@Z@?$dual_state_global@P6AXPEB_W00I_K@Z@__crt_state_management@@QEAAXAEAY00Q6AXPEB_W00I_K@Z@Z 0000000180086420 f i libucrtd:invalid_parameter.obj
 0001:00085480       ?__crt_rotate_pointer_value@@YA_K_KH@Z 0000000180086480 f i libucrtd:invalid_parameter.obj
 0001:00085540       ?dangerous_get_state_array@?$dual_state_global@P6AXPEB_W00I_K@Z@__crt_state_management@@QEAAPEAP6AXPEB_W00I_K@ZXZ 0000000180086540 f i libucrtd:invalid_parameter.obj
 0001:00085550       ?get_current_state_index@__crt_state_management@@YA_KXZ 0000000180086550 f i libucrtd:invalid_parameter.obj
 0001:00085560       ?value@?$dual_state_global@P6AXPEB_W00I_K@Z@__crt_state_management@@QEAAAEAP6AXPEB_W00I_K@ZXZ 0000000180086560 f i libucrtd:invalid_parameter.obj
 0001:00085580       __acrt_call_reportfault    0000000180086580 f   libucrtd:invalid_parameter.obj
 0001:000856b0       __acrt_initialize_invalid_parameter_handler 00000001800866b0 f   libucrtd:invalid_parameter.obj
 0001:000856e0       _get_invalid_parameter_handler 00000001800866e0 f   libucrtd:invalid_parameter.obj
 0001:00085700       _get_thread_local_invalid_parameter_handler 0000000180086700 f   libucrtd:invalid_parameter.obj
 0001:00085730       _invalid_parameter         0000000180086730 f   libucrtd:invalid_parameter.obj
 0001:00085830       _invalid_parameter_noinfo  0000000180086830 f   libucrtd:invalid_parameter.obj
 0001:00085860       _invalid_parameter_noinfo_noreturn 0000000180086860 f   libucrtd:invalid_parameter.obj
 0001:000858a0       _invoke_watson             00000001800868a0 f   libucrtd:invalid_parameter.obj
 0001:00085900       _set_invalid_parameter_handler 0000000180086900 f   libucrtd:invalid_parameter.obj
 0001:00085950       _set_thread_local_invalid_parameter_handler 0000000180086950 f   libucrtd:invalid_parameter.obj
 0001:00085990       __acrt_errno_from_os_error 0000000180086990 f   libucrtd:errno.obj
 0001:00085a20       __acrt_errno_map_os_error  0000000180086a20 f   libucrtd:errno.obj
 0001:00085a50       __doserrno                 0000000180086a50 f   libucrtd:errno.obj
 0001:00085a80       _errno                     0000000180086a80 f   libucrtd:errno.obj
 0001:00085ab0       _get_doserrno              0000000180086ab0 f   libucrtd:errno.obj
 0001:00085b70       _get_errno                 0000000180086b70 f   libucrtd:errno.obj
 0001:00085c30       _set_doserrno              0000000180086c30 f   libucrtd:errno.obj
 0001:00085c70       _set_errno                 0000000180086c70 f   libucrtd:errno.obj
 0001:00085cb0       calloc                     0000000180086cb0 f   libucrtd:calloc.obj
 0001:00085cf0       _recalloc                  0000000180086cf0 f   libucrtd:recalloc.obj
 0001:00085d40       _recalloc_base             0000000180086d40 f   libucrtd:recalloc.obj
 0001:00085e1c       _resetstkoflw              0000000180086e1c f   libucrtd:resetstk.obj
 0001:000865d0       wcscat_s                   00000001800875d0 f   libucrtd:wcscat_s.obj
 0001:00086ca0       wcsncpy_s                  0000000180087ca0 f   libucrtd:wcsncpy_s.obj
 0001:00086d00       __acrt_get_locale_data_prefix 0000000180087d00 f i libucrtd:_ctype.obj
 0001:00086d20       __isascii                  0000000180087d20 f i libucrtd:_ctype.obj
 0001:00086d50       __iscsym                   0000000180087d50 f i libucrtd:_ctype.obj
 0001:00086d90       __iscsymf                  0000000180087d90 f i libucrtd:_ctype.obj
 0001:00086dd0       __toascii                  0000000180087dd0 f i libucrtd:_ctype.obj
 0001:00086de0       _chvalidchk_l              0000000180087de0 f i libucrtd:_ctype.obj
 0001:00086e10       _isalnum_l                 0000000180087e10 f i libucrtd:_ctype.obj
 0001:00086e60       _isalpha_l                 0000000180087e60 f i libucrtd:_ctype.obj
 0001:00086eb0       _isblank_l                 0000000180087eb0 f i libucrtd:_ctype.obj
 0001:00086f20       _ischartype_l              0000000180087f20 f i libucrtd:_ctype.obj
 0001:00086fb0       _iscntrl_l                 0000000180087fb0 f i libucrtd:_ctype.obj
 0001:00087000       _iscsym_l                  0000000180088000 f i libucrtd:_ctype.obj
 0001:00087050       _iscsymf_l                 0000000180088050 f i libucrtd:_ctype.obj
 0001:000870a0       _isdigit_l                 00000001800880a0 f i libucrtd:_ctype.obj
 0001:000870f0       _isgraph_l                 00000001800880f0 f i libucrtd:_ctype.obj
 0001:00087140       _islower_l                 0000000180088140 f i libucrtd:_ctype.obj
 0001:00087190       _isprint_l                 0000000180088190 f i libucrtd:_ctype.obj
 0001:000871e0       _ispunct_l                 00000001800881e0 f i libucrtd:_ctype.obj
 0001:00087230       _isspace_l                 0000000180088230 f i libucrtd:_ctype.obj
 0001:00087280       _isupper_l                 0000000180088280 f i libucrtd:_ctype.obj
 0001:000872d0       _isxdigit_l                00000001800882d0 f i libucrtd:_ctype.obj
 0001:00087320       isalnum                    0000000180088320 f i libucrtd:_ctype.obj
 0001:00087360       isalpha                    0000000180088360 f i libucrtd:_ctype.obj
 0001:000873a0       isblank                    00000001800883a0 f i libucrtd:_ctype.obj
 0001:00087400       iscntrl                    0000000180088400 f i libucrtd:_ctype.obj
 0001:00087440       isdigit                    0000000180088440 f i libucrtd:_ctype.obj
 0001:00087480       isgraph                    0000000180088480 f i libucrtd:_ctype.obj
 0001:000874c0       islower                    00000001800884c0 f i libucrtd:_ctype.obj
 0001:00087500       isprint                    0000000180088500 f i libucrtd:_ctype.obj
 0001:00087540       ispunct                    0000000180088540 f i libucrtd:_ctype.obj
 0001:00087580       isspace                    0000000180088580 f i libucrtd:_ctype.obj
 0001:000875c0       isupper                    00000001800885c0 f i libucrtd:_ctype.obj
 0001:00087600       isxdigit                   0000000180088600 f i libucrtd:_ctype.obj
 0001:00087640       wcscat                     0000000180088640 f   libucrtd:wcscat.obj
 0001:000876c0       wcscpy                     00000001800886c0 f   libucrtd:wcscpy.obj
 0001:00087e70       ??$open_file@AEBQEBDAEBQEBDAEBHPEAU_iobuf@@@?$__crt_char_traits@D@@SAPEAU_iobuf@@AEBQEBD0AEBH$$QEAPEAU1@@Z 0000000180088e70 f i libucrtd:fopen.obj
 0001:00087ec0       ??$open_file@AEBQEB_WAEBQEB_WAEBHPEAU_iobuf@@@?$__crt_char_traits@_W@@SAPEAU_iobuf@@AEBQEB_W0AEBH$$QEAPEAU1@@Z 0000000180088ec0 f i libucrtd:fopen.obj
 0001:00087f10       ?unlock@__crt_stdio_stream@@QEBAXXZ 0000000180088f10 f i libucrtd:fopen.obj
 0001:00087f30       _fsopen                    0000000180088f30 f   libucrtd:fopen.obj
 0001:00087f60       _wfopen                    0000000180088f60 f   libucrtd:fopen.obj
 0001:00087f90       _wfopen_s                  0000000180088f90 f   libucrtd:fopen.obj
 0001:00087fc0       _wfsopen                   0000000180088fc0 f   libucrtd:fopen.obj
 0001:00087ff0       fopen                      0000000180088ff0 f   libucrtd:fopen.obj
 0001:00088020       fopen_s                    0000000180089020 f   libucrtd:fopen.obj
 0001:00088050       ?is_in_use@__crt_stdio_stream@@QEBA_NXZ 0000000180089050 f i libucrtd:fclose.obj
 0001:00088090       _fclose_nolock             0000000180089090 f   libucrtd:fclose.obj
 0001:00088220       fclose                     0000000180089220 f   libucrtd:fclose.obj
 0001:00088360       _fputc_nolock              0000000180089360 f   libucrtd:fputc.obj
 0001:00088410       _fputchar                  0000000180089410 f   libucrtd:fputc.obj
 0001:00088440       _putc_nolock               0000000180089440 f   libucrtd:fputc.obj
 0001:00088460       fputc                      0000000180089460 f   libucrtd:fputc.obj
 0001:00088700       putc                       0000000180089700 f   libucrtd:fputc.obj
 0001:00088720       putchar                    0000000180089720 f   libucrtd:fputc.obj
 0001:000887b0       _seh_filter_dll            00000001800897b0 f   libucrtd:exception_filter.obj
 0001:000887e0       _seh_filter_exe            00000001800897e0 f   libucrtd:exception_filter.obj
 0001:00088a80       ??$?B$$A6AXPEAXK0@Z@__crt_fast_encoded_nullptr_t@@QEBAP6AXPEAXK0@ZXZ 0000000180089a80 f i libucrtd:exit.obj
 0001:00088b30       ??$__crt_fast_decode_pointer@P6AXPEAXK0@Z@@YAP6AXPEAXK0@ZQ6AX0K0@Z@Z 0000000180089b30 f i libucrtd:exit.obj
 0001:00088b70       ??$__crt_fast_encode_pointer@P6AXPEAXK0@Z@@YAP6AXPEAXK0@ZQ6AX0K0@Z@Z 0000000180089b70 f i libucrtd:exit.obj
 0001:00088bb0       ??$__crt_get_proc_address@P6AXI@Z@@YAP6AXI@ZQEAUHINSTANCE__@@QEBD@Z 0000000180089bb0 f i libucrtd:exit.obj
 0001:00088c70       ??0?$__crt_unique_handle_t@U__crt_hmodule_traits@@@@QEAA@QEAUHINSTANCE__@@@Z 0000000180089c70 f i libucrtd:exit.obj
 0001:00088c90       ??1?$__crt_unique_handle_t@U__crt_hmodule_traits@@@@QEAA@XZ 0000000180089c90 f i libucrtd:exit.obj
 0001:00088df0       ?__acrt_select_exit_lock@@YA?AW4__acrt_lock_id@@XZ 0000000180089df0 f i libucrtd:exit.obj
 0001:00088e00       ?__crt_fast_encode_pointer@@YA?AU__crt_fast_encoded_nullptr_t@@$$T@Z 0000000180089e00 f i libucrtd:exit.obj
 0001:00088e40       ?close@?$__crt_unique_handle_t@U__crt_hmodule_traits@@@@QEAAXXZ 0000000180089e40 f i libucrtd:exit.obj
 0001:00088e80       ?close@__crt_hmodule_traits@@SA_NPEAUHINSTANCE__@@@Z 0000000180089e80 f i libucrtd:exit.obj
 0001:00088f90       ?get@?$__crt_unique_handle_t@U__crt_hmodule_traits@@@@QEBAPEAUHINSTANCE__@@XZ 0000000180089f90 f i libucrtd:exit.obj
 0001:00088fa0       ?get_address_of@?$__crt_unique_handle_t@U__crt_hmodule_traits@@@@QEAAPEAPEAUHINSTANCE__@@XZ 0000000180089fa0 f i libucrtd:exit.obj
 0001:00088fb0       ?get_invalid_value@__crt_hmodule_traits@@SAPEAUHINSTANCE__@@XZ 0000000180089fb0 f i libucrtd:exit.obj
 0001:00089170       _Exit                      000000018008a170 f   libucrtd:exit.obj
 0001:00089190       __acrt_initialize_thread_local_exit_callback 000000018008a190 f   libucrtd:exit.obj
 0001:000891b0       _c_exit                    000000018008a1b0 f   libucrtd:exit.obj
 0001:000891d0       _cexit                     000000018008a1d0 f   libucrtd:exit.obj
 0001:000891f0       _exit                      000000018008a1f0 f   libucrtd:exit.obj
 0001:00089210       _is_c_termination_complete 000000018008a210 f   libucrtd:exit.obj
 0001:00089230       _register_thread_local_exe_atexit_callback 000000018008a230 f   libucrtd:exit.obj
 0001:00089280       exit                       000000018008a280 f   libucrtd:exit.obj
 0001:000892a0       quick_exit                 000000018008a2a0 f   libucrtd:exit.obj
 0001:000892c0       ??$?RE@__crt_internal_free_policy@@QEBAXQEBE@Z 000000018008a2c0 f i libucrtd:argv_parsing.obj
 0001:000892f0       ??$?RPEAD@__crt_internal_free_policy@@QEBAXQEBQEAD@Z 000000018008a2f0 f i libucrtd:argv_parsing.obj
 0001:00089320       ??$?RPEA_W@__crt_internal_free_policy@@QEBAXQEBQEA_W@Z 000000018008a320 f i libucrtd:argv_parsing.obj
 0001:00089a70       ??$get_module_file_name@$$TAEAY0BAF@DH@?$__crt_char_traits@D@@SAK$$QEA$$TAEAY0BAF@D$$QEAH@Z 000000018008aa70 f i libucrtd:argv_parsing.obj
 0001:00089ab0       ??$get_module_file_name@$$TAEAY0BAF@_WH@?$__crt_char_traits@_W@@SAK$$QEA$$TAEAY0BAF@_W$$QEAH@Z 000000018008aab0 f i libucrtd:argv_parsing.obj
 0001:0008a460       ??$set_program_name@PEAD@?$__crt_char_traits@D@@SAX$$QEAPEAD@Z 000000018008b460 f i libucrtd:argv_parsing.obj
 0001:0008a480       ??$set_program_name@PEA_W@?$__crt_char_traits@_W@@SAX$$QEAPEA_W@Z 000000018008b480 f i libucrtd:argv_parsing.obj
 0001:0008a4e0       ??0?$__crt_unique_heap_ptr@EU__crt_internal_free_policy@@@@QEAA@QEAE@Z 000000018008b4e0 f i libucrtd:argv_parsing.obj
 0001:0008a500       ??0?$__crt_unique_heap_ptr@PEADU__crt_internal_free_policy@@@@QEAA@QEAPEAD@Z 000000018008b500 f i libucrtd:argv_parsing.obj
 0001:0008a520       ??0?$__crt_unique_heap_ptr@PEA_WU__crt_internal_free_policy@@@@QEAA@QEAPEA_W@Z 000000018008b520 f i libucrtd:argv_parsing.obj
 0001:0008a540       ??1?$__crt_unique_heap_ptr@EU__crt_internal_free_policy@@@@QEAA@XZ 000000018008b540 f i libucrtd:argv_parsing.obj
 0001:0008a560       ??1?$__crt_unique_heap_ptr@PEADU__crt_internal_free_policy@@@@QEAA@XZ 000000018008b560 f i libucrtd:argv_parsing.obj
 0001:0008a580       ??1?$__crt_unique_heap_ptr@PEA_WU__crt_internal_free_policy@@@@QEAA@XZ 000000018008b580 f i libucrtd:argv_parsing.obj
 0001:0008a5a0       ??B?$__crt_unique_heap_ptr@EU__crt_internal_free_policy@@@@QEBA_NXZ 000000018008b5a0 f i libucrtd:argv_parsing.obj
 0001:0008a680       ?detach@?$__crt_unique_heap_ptr@EU__crt_internal_free_policy@@@@QEAAPEAEXZ 000000018008b680 f i libucrtd:argv_parsing.obj
 0001:0008a6b0       ?detach@?$__crt_unique_heap_ptr@PEADU__crt_internal_free_policy@@@@QEAAPEAPEADXZ 000000018008b6b0 f i libucrtd:argv_parsing.obj
 0001:0008a6e0       ?detach@?$__crt_unique_heap_ptr@PEA_WU__crt_internal_free_policy@@@@QEAAPEAPEA_WXZ 000000018008b6e0 f i libucrtd:argv_parsing.obj
 0001:0008a7a0       ?get@?$__crt_unique_heap_ptr@EU__crt_internal_free_policy@@@@QEBAPEAEXZ 000000018008b7a0 f i libucrtd:argv_parsing.obj
 0001:0008a7b0       ?get@?$__crt_unique_heap_ptr@PEADU__crt_internal_free_policy@@@@QEBAPEAPEADXZ 000000018008b7b0 f i libucrtd:argv_parsing.obj
 0001:0008a7c0       ?get@?$__crt_unique_heap_ptr@PEA_WU__crt_internal_free_policy@@@@QEBAPEAPEA_WXZ 000000018008b7c0 f i libucrtd:argv_parsing.obj
 0001:0008a7d0       ?get_address_of@?$__crt_unique_heap_ptr@PEADU__crt_internal_free_policy@@@@QEAAPEAPEAPEADXZ 000000018008b7d0 f i libucrtd:argv_parsing.obj
 0001:0008a7e0       ?get_address_of@?$__crt_unique_heap_ptr@PEA_WU__crt_internal_free_policy@@@@QEAAPEAPEAPEA_WXZ 000000018008b7e0 f i libucrtd:argv_parsing.obj
 0001:0008a830       ?is_valid@?$__crt_unique_heap_ptr@EU__crt_internal_free_policy@@@@QEBA_NXZ 000000018008b830 f i libucrtd:argv_parsing.obj
 0001:0008a860       ?release@?$__crt_unique_heap_ptr@EU__crt_internal_free_policy@@@@QEAAXXZ 000000018008b860 f i libucrtd:argv_parsing.obj
 0001:0008a890       ?release@?$__crt_unique_heap_ptr@PEADU__crt_internal_free_policy@@@@QEAAXXZ 000000018008b890 f i libucrtd:argv_parsing.obj
 0001:0008a8c0       ?release@?$__crt_unique_heap_ptr@PEA_WU__crt_internal_free_policy@@@@QEAAXXZ 000000018008b8c0 f i libucrtd:argv_parsing.obj
 0001:0008a940       __acrt_allocate_buffer_for_argv 000000018008b940 f   libucrtd:argv_parsing.obj
 0001:0008aa60       _configure_narrow_argv     000000018008ba60 f   libucrtd:argv_parsing.obj
 0001:0008aa80       _configure_wide_argv       000000018008ba80 f   libucrtd:argv_parsing.obj
 0001:0008aaa0       _set_pgmptr                000000018008baa0 f i libucrtd:argv_parsing.obj
 0001:0008aac0       _set_wpgmptr               000000018008bac0 f i libucrtd:argv_parsing.obj
 0001:0008aad4       ??$?R_W@__crt_internal_free_policy@@QEBAXQEB_W@Z 000000018008bad4 f i libucrtd:environment_initialization.obj
 0001:0008b0ac       ??$get_environment_from_os@$$V@?$__crt_char_traits@D@@SAPEADXZ 000000018008c0ac f i libucrtd:environment_initialization.obj
 0001:0008b0b4       ??$get_environment_from_os@$$V@?$__crt_char_traits@_W@@SAPEA_WXZ 000000018008c0b4 f i libucrtd:environment_initialization.obj
 0001:0008b284       ??$set_variable_in_environment_nolock@PEADH@?$__crt_char_traits@D@@SAH$$QEAPEAD$$QEAH@Z 000000018008c284 f i libucrtd:environment_initialization.obj
 0001:0008b290       ??$set_variable_in_environment_nolock@PEA_WH@?$__crt_char_traits@_W@@SAH$$QEAPEA_W$$QEAH@Z 000000018008c290 f i libucrtd:environment_initialization.obj
 0001:0008b29c       ??$tcscpy_s@PEADAEB_KAEAPEAD@?$__crt_char_traits@D@@SAH$$QEAPEADAEB_KAEAPEAD@Z 000000018008c29c f i libucrtd:environment_initialization.obj
 0001:0008b2ac       ??$tcscpy_s@PEA_WAEB_KAEAPEA_W@?$__crt_char_traits@_W@@SAH$$QEAPEA_WAEB_KAEAPEA_W@Z 000000018008c2ac f i libucrtd:environment_initialization.obj
 0001:0008b2bc       ??$tcslen@AEAPEAD@?$__crt_char_traits@D@@SA_KAEAPEAD@Z 000000018008c2bc f i libucrtd:environment_initialization.obj
 0001:0008b2d0       ??$tcslen@AEAPEA_W@?$__crt_char_traits@_W@@SA_KAEAPEA_W@Z 000000018008c2d0 f i libucrtd:environment_initialization.obj
 0001:0008b2e4       ??$uninitialize@A6AXAEAPEAPEAD@Z@?$dual_state_global@PEAPEAD@__crt_state_management@@QEAAXA6AXAEAPEAPEAD@Z@Z 000000018008c2e4 f i libucrtd:environment_initialization.obj
 0001:0008b328       ??$uninitialize@A6AXAEAPEAPEA_W@Z@?$dual_state_global@PEAPEA_W@__crt_state_management@@QEAAXA6AXAEAPEAPEA_W@Z@Z 000000018008c328 f i libucrtd:environment_initialization.obj
 0001:0008b3a4       ??0?$__crt_unique_heap_ptr@_WU__crt_internal_free_policy@@@@QEAA@QEA_W@Z 000000018008c3a4 f i libucrtd:environment_initialization.obj
 0001:0008b3ac       ??1?$__crt_unique_heap_ptr@_WU__crt_internal_free_policy@@@@QEAA@XZ 000000018008c3ac f i libucrtd:environment_initialization.obj
 0001:0008b3cc       ??B?$__crt_unique_heap_ptr@PEADU__crt_internal_free_policy@@@@QEBA_NXZ 000000018008c3cc f i libucrtd:environment_initialization.obj
 0001:0008b3d4       ??B?$__crt_unique_heap_ptr@PEA_WU__crt_internal_free_policy@@@@QEBA_NXZ 000000018008c3d4 f i libucrtd:environment_initialization.obj
 0001:0008b3dc       ??B?$__crt_unique_heap_ptr@_WU__crt_internal_free_policy@@@@QEBA_NXZ 000000018008c3dc f i libucrtd:environment_initialization.obj
 0001:0008b3e4       ?__crt_compute_required_transform_buffer_count@@YA_KIQEBD@Z 000000018008c3e4 f i libucrtd:environment_initialization.obj
 0001:0008b408       ?__crt_compute_required_transform_buffer_count@@YA_KIQEB_W@Z 000000018008c408 f i libucrtd:environment_initialization.obj
 0001:0008b438       ?__crt_transform_string@@YA_KIQEBDQEA_W_K@Z 000000018008c438 f i libucrtd:environment_initialization.obj
 0001:0008b45c       ?__crt_transform_string@@YA_KIQEB_WQEAD_K@Z 000000018008c45c f i libucrtd:environment_initialization.obj
 0001:0008b48c       ?detach@?$__crt_unique_heap_ptr@DU__crt_internal_free_policy@@@@QEAAPEADXZ 000000018008c48c f i libucrtd:environment_initialization.obj
 0001:0008b494       ?detach@?$__crt_unique_heap_ptr@_WU__crt_internal_free_policy@@@@QEAAPEA_WXZ 000000018008c494 f i libucrtd:environment_initialization.obj
 0001:0008b49c       ?get@?$__crt_unique_heap_ptr@_WU__crt_internal_free_policy@@@@QEBAPEA_WXZ 000000018008c49c f i libucrtd:environment_initialization.obj
 0001:0008b4d0       ?initialize@?$dual_state_global@PEAPEAD@__crt_state_management@@QEAAXQEAPEAD@Z 000000018008c4d0 f i libucrtd:environment_initialization.obj
 0001:0008b4f8       ?initialize@?$dual_state_global@PEAPEA_W@__crt_state_management@@QEAAXQEAPEA_W@Z 000000018008c4f8 f i libucrtd:environment_initialization.obj
 0001:0008b520       ?is_valid@?$__crt_unique_heap_ptr@PEADU__crt_internal_free_policy@@@@QEBA_NXZ 000000018008c520 f i libucrtd:environment_initialization.obj
 0001:0008b528       ?is_valid@?$__crt_unique_heap_ptr@PEA_WU__crt_internal_free_policy@@@@QEBA_NXZ 000000018008c528 f i libucrtd:environment_initialization.obj
 0001:0008b530       ?is_valid@?$__crt_unique_heap_ptr@_WU__crt_internal_free_policy@@@@QEBA_NXZ 000000018008c530 f i libucrtd:environment_initialization.obj
 0001:0008b544       ?release@?$__crt_unique_heap_ptr@_WU__crt_internal_free_policy@@@@QEAAXXZ 000000018008c544 f i libucrtd:environment_initialization.obj
 0001:0008b564       ?value@?$dual_state_global@PEAPEAD@__crt_state_management@@QEAAAEAPEAPEADXZ 000000018008c564 f i libucrtd:environment_initialization.obj
 0001:0008b568       ?value@?$dual_state_global@PEAPEA_W@__crt_state_management@@QEAAAEAPEAPEA_WXZ 000000018008c568 f i libucrtd:environment_initialization.obj
 0001:0008b56c       __dcrt_get_or_create_narrow_environment_nolock 000000018008c56c f   libucrtd:environment_initialization.obj
 0001:0008b5a8       __dcrt_get_or_create_wide_environment_nolock 000000018008c5a8 f   libucrtd:environment_initialization.obj
 0001:0008b5e4       __dcrt_uninitialize_environments_nolock 000000018008c5e4 f   libucrtd:environment_initialization.obj
 0001:0008b61c       __p__environ               000000018008c61c f   libucrtd:environment_initialization.obj
 0001:0008b624       __p__wenviron              000000018008c624 f   libucrtd:environment_initialization.obj
 0001:0008b62c       _get_initial_narrow_environment 000000018008c62c f   libucrtd:environment_initialization.obj
 0001:0008b67c       _get_initial_wide_environment 000000018008c67c f   libucrtd:environment_initialization.obj
 0001:0008b6cc       _initialize_narrow_environment 000000018008c6cc f   libucrtd:environment_initialization.obj
 0001:0008b6d4       _initialize_wide_environment 000000018008c6d4 f   libucrtd:environment_initialization.obj
 0001:0008b6e0       ??$?B$$A6AXXZ@__crt_fast_encoded_nullptr_t@@QEBAP6AXXZXZ 000000018008c6e0 f i libucrtd:onexit.obj
 0001:0008b700       ??$?BP6AXXZ@__crt_fast_encoded_nullptr_t@@QEBAPEAP6AXXZXZ 000000018008c700 f i libucrtd:onexit.obj
 0001:0008b720       ??$?RP6AXXZ@__crt_internal_free_policy@@QEBAXQEBQ6AXXZ@Z 000000018008c720 f i libucrtd:onexit.obj
 0001:0008b890       ??$__crt_fast_decode_pointer@P6AXXZ@@YAP6AXXZQ6AXXZ@Z 000000018008c890 f i libucrtd:onexit.obj
 0001:0008b8d0       ??$__crt_fast_decode_pointer@PEAP6AXXZ@@YAPEAP6AXXZQEAP6AXXZ@Z 000000018008c8d0 f i libucrtd:onexit.obj
 0001:0008b910       ??$__crt_fast_encode_pointer@P6AHXZ@@YAP6AHXZQ6AHXZ@Z 000000018008c910 f i libucrtd:onexit.obj
 0001:0008b950       ??$__crt_fast_encode_pointer@P6AXXZ@@YAP6AXXZQ6AXXZ@Z 000000018008c950 f i libucrtd:onexit.obj
 0001:0008b990       ??$__crt_fast_encode_pointer@PEAP6AXXZ@@YAPEAP6AXXZQEAP6AXXZ@Z 000000018008c990 f i libucrtd:onexit.obj
 0001:0008baa0       ??0?$__crt_unique_heap_ptr@P6AXXZU__crt_internal_free_policy@@@@QEAA@QEAP6AXXZ@Z 000000018008caa0 f i libucrtd:onexit.obj
 0001:0008bac0       ??1?$__crt_unique_heap_ptr@P6AXXZU__crt_internal_free_policy@@@@QEAA@XZ 000000018008cac0 f i libucrtd:onexit.obj
 0001:0008bae0       ??1scoped_global_state_reset@__crt_state_management@@QEAA@XZ 000000018008cae0 f i libucrtd:onexit.obj
 0001:0008c0b0       ?detach@?$__crt_unique_heap_ptr@P6AXXZU__crt_internal_free_policy@@@@QEAAPEAP6AXXZXZ 000000018008d0b0 f i libucrtd:onexit.obj
 0001:0008c0e0       ?release@?$__crt_unique_heap_ptr@P6AXXZU__crt_internal_free_policy@@@@QEAAXXZ 000000018008d0e0 f i libucrtd:onexit.obj
 0001:0008c110       _crt_at_quick_exit         000000018008d110 f   libucrtd:onexit.obj
 0001:0008c130       _crt_atexit                000000018008d130 f   libucrtd:onexit.obj
 0001:0008c150       _execute_onexit_table      000000018008d150 f   libucrtd:onexit.obj
 0001:0008c190       _initialize_onexit_table   000000018008d190 f   libucrtd:onexit.obj
 0001:0008c210       _register_onexit_function  000000018008d210 f   libucrtd:onexit.obj
 0001:0008c480       ??$?BX@__crt_fast_encoded_nullptr_t@@QEBAPEAXXZ 000000018008d480 f i libucrtd:initialization.obj
 0001:0008c4a0       ??$__crt_fast_encode_pointer@PEAX@@YAPEAXQEAX@Z 000000018008d4a0 f i libucrtd:initialization.obj
 0001:0008c590       ?initialize@?$dual_state_global@PEAU__crt_locale_data@@@__crt_state_management@@QEAAXQEAU__crt_locale_data@@@Z 000000018008d590 f i libucrtd:initialization.obj
 0001:0008c5e0       __acrt_initialize          000000018008d5e0 f   libucrtd:initialization.obj
 0001:0008c610       __acrt_thread_attach       000000018008d610 f   libucrtd:initialization.obj
 0001:0008c630       __acrt_thread_detach       000000018008d630 f   libucrtd:initialization.obj
 0001:0008c640       __acrt_uninitialize        000000018008d640 f   libucrtd:initialization.obj
 0001:0008c670       __acrt_uninitialize_critical 000000018008d670 f   libucrtd:initialization.obj
 0001:0008e660       _CrtCheckMemory            000000018008f660 f   libucrtd:debug_heap.obj
 0001:0008e7f0       _CrtDoForAllClientObjects  000000018008f7f0 f   libucrtd:debug_heap.obj
 0001:0008e920       _CrtDumpMemoryLeaks        000000018008f920 f   libucrtd:debug_heap.obj
 0001:0008e9e0       _CrtGetAllocHook           000000018008f9e0 f   libucrtd:debug_heap.obj
 0001:0008e9f0       _CrtGetDumpClient          000000018008f9f0 f   libucrtd:debug_heap.obj
 0001:0008ea00       _CrtIsMemoryBlock          000000018008fa00 f   libucrtd:debug_heap.obj
 0001:0008eb40       _CrtIsValidHeapPointer     000000018008fb40 f   libucrtd:debug_heap.obj
 0001:0008eb80       _CrtIsValidPointer         000000018008fb80 f   libucrtd:debug_heap.obj
 0001:0008ebc0       _CrtMemCheckpoint          000000018008fbc0 f   libucrtd:debug_heap.obj
 0001:0008ee40       _CrtMemDifference          000000018008fe40 f   libucrtd:debug_heap.obj
 0001:0008f1a0       _CrtMemDumpAllObjectsSince 00000001800901a0 f   libucrtd:debug_heap.obj
 0001:0008f200       _CrtMemDumpStatistics      0000000180090200 f   libucrtd:debug_heap.obj
 0001:0008f3a0       _CrtReportBlockType        00000001800903a0 f   libucrtd:debug_heap.obj
 0001:0008f3d0       _CrtSetAllocHook           00000001800903d0 f   libucrtd:debug_heap.obj
 0001:0008f400       _CrtSetBreakAlloc          0000000180090400 f   libucrtd:debug_heap.obj
 0001:0008f430       _CrtSetDbgBlockType        0000000180090430 f   libucrtd:debug_heap.obj
 0001:0008f4d0       _CrtSetDbgFlag             00000001800904d0 f   libucrtd:debug_heap.obj
 0001:0008f630       _CrtSetDumpClient          0000000180090630 f   libucrtd:debug_heap.obj
 0001:0008f660       __p__crtBreakAlloc         0000000180090660 f   libucrtd:debug_heap.obj
 0001:0008f670       __p__crtDbgFlag            0000000180090670 f   libucrtd:debug_heap.obj
 0001:0008f680       _aligned_free_dbg          0000000180090680 f   libucrtd:debug_heap.obj
 0001:0008f770       _aligned_malloc_dbg        0000000180090770 f   libucrtd:debug_heap.obj
 0001:0008f7b0       _aligned_msize_dbg         00000001800907b0 f   libucrtd:debug_heap.obj
 0001:0008f980       _aligned_offset_malloc_dbg 0000000180090980 f   libucrtd:debug_heap.obj
 0001:0008fc70       _aligned_offset_realloc_dbg 0000000180090c70 f   libucrtd:debug_heap.obj
 0001:00090120       _aligned_offset_recalloc_dbg 0000000180091120 f   libucrtd:debug_heap.obj
 0001:00090240       _aligned_realloc_dbg       0000000180091240 f   libucrtd:debug_heap.obj
 0001:00090290       _aligned_recalloc_dbg      0000000180091290 f   libucrtd:debug_heap.obj
 0001:000902f0       _calloc_dbg                00000001800912f0 f   libucrtd:debug_heap.obj
 0001:00090390       _expand_dbg                0000000180091390 f   libucrtd:debug_heap.obj
 0001:000904c0       _free_dbg                  00000001800914c0 f   libucrtd:debug_heap.obj
 0001:00090530       _malloc_dbg                0000000180091530 f   libucrtd:debug_heap.obj
 0001:00090570       _msize_dbg                 0000000180091570 f   libucrtd:debug_heap.obj
 0001:00090710       _realloc_dbg               0000000180091710 f   libucrtd:debug_heap.obj
 0001:00090780       _recalloc_dbg              0000000180091780 f   libucrtd:debug_heap.obj
 0001:00090880       _initterm                  0000000180091880 f   libucrtd:initterm.obj
 0001:000908e0       _initterm_e                00000001800918e0 f   libucrtd:initterm.obj
 0001:00090e30       strcpy_s                   0000000180091e30 f   libucrtd:strcpy_s.obj
 0001:000914d0       strcat_s                   00000001800924d0 f   libucrtd:strcat_s.obj
 0001:00091500       ??$?B$$A6AH_K@Z@__crt_fast_encoded_nullptr_t@@QEBAP6AH_K@ZXZ 0000000180092500 f i libucrtd:new_handler.obj
 0001:00091520       ??$__crt_fast_decode_pointer@P6AH_K@Z@@YAP6AH_K@ZQ6AH0@Z@Z 0000000180092520 f i libucrtd:new_handler.obj
 0001:00091560       ??$__crt_fast_encode_pointer@P6AH_K@Z@@YAP6AH_K@ZQ6AH0@Z@Z 0000000180092560 f i libucrtd:new_handler.obj
 0001:000915a0       ?_set_new_handler@@YAP6AH_K@ZH@Z 00000001800925a0 f   libucrtd:new_handler.obj
 0001:00091610       ?initialize@?$dual_state_global@P6AH_K@Z@__crt_state_management@@QEAAXQ6AH_K@Z@Z 0000000180092610 f i libucrtd:new_handler.obj
 0001:00091660       ?value@?$dual_state_global@P6AH_K@Z@__crt_state_management@@QEAAAEAP6AH_K@ZXZ 0000000180092660 f i libucrtd:new_handler.obj
 0001:00091680       __acrt_initialize_new_handler 0000000180092680 f   libucrtd:new_handler.obj
 0001:000916a0       _callnewh                  00000001800926a0 f   libucrtd:new_handler.obj
 0001:000916f0       _query_new_handler         00000001800926f0 f   libucrtd:new_handler.obj
 0001:00091730       _set_new_handler           0000000180092730 f   libucrtd:new_handler.obj
 0001:000917e0       _get_terminate             00000001800927e0 f   libucrtd:terminate.obj
 0001:00091800       set_terminate              0000000180092800 f   libucrtd:terminate.obj
 0001:00091840       terminate                  0000000180092840 f   libucrtd:terminate.obj
 0001:00092640       _makepath                  0000000180093640 f   libucrtd:makepath.obj
 0001:00092690       _makepath_s                0000000180093690 f   libucrtd:makepath.obj
 0001:000926e0       _wmakepath                 00000001800936e0 f   libucrtd:makepath.obj
 0001:00092730       _wmakepath_s               0000000180093730 f   libucrtd:makepath.obj
 0001:00094d60       ??$tcsncpy_s@AEAPEAD_KAEAPEBDAEB_K@?$__crt_char_traits@D@@SAHAEAPEAD$$QEA_KAEAPEBDAEB_K@Z 0000000180095d60 f i libucrtd:splitpath.obj
 0001:00094db0       ??$tcsncpy_s@AEAPEAD_KAEAPEBDH@?$__crt_char_traits@D@@SAHAEAPEAD$$QEA_KAEAPEBD$$QEAH@Z 0000000180095db0 f i libucrtd:splitpath.obj
 0001:00094e00       ??$tcsncpy_s@AEAPEA_W_KAEAPEB_WAEB_K@?$__crt_char_traits@_W@@SAHAEAPEA_W$$QEA_KAEAPEB_WAEB_K@Z 0000000180095e00 f i libucrtd:splitpath.obj
 0001:00094e50       ??$tcsncpy_s@AEAPEA_W_KAEAPEB_WH@?$__crt_char_traits@_W@@SAHAEAPEA_W$$QEA_KAEAPEB_W$$QEAH@Z 0000000180095e50 f i libucrtd:splitpath.obj
 0001:00095100       _splitpath                 0000000180096100 f   libucrtd:splitpath.obj
 0001:00095140       _splitpath_s               0000000180096140 f   libucrtd:splitpath.obj
 0001:000951e0       _wsplitpath                00000001800961e0 f   libucrtd:splitpath.obj
 0001:00095220       _wsplitpath_s              0000000180096220 f   libucrtd:splitpath.obj
 0001:000952c0       _set_abort_behavior        00000001800962c0 f   libucrtd:abort.obj
 0001:00095300       abort                      0000000180096300 f   libucrtd:abort.obj
 0001:00095390       strcmp                     0000000180096390 f   libucrtd:strcmp.obj
 0001:00095410       strlen                     0000000180096410 f   libucrtd:strlen.obj
 0001:000954c0       ??$is_overflow_condition@K@__crt_strtox@@YA_NIK@Z 00000001800964c0 f i libucrtd:atox.obj
 0001:00095530       ??$is_overflow_condition@_K@__crt_strtox@@YA_NI_K@Z 0000000180096530 f i libucrtd:atox.obj
 0001:000955a0       ??$make_c_string_character_source@D$$T@__crt_strtox@@YA?AV?$c_string_character_source@D@0@QEBD$$T@Z 00000001800965a0 f i libucrtd:atox.obj
 0001:000955e0       ??$make_c_string_character_source@_W$$T@__crt_strtox@@YA?AV?$c_string_character_source@_W@0@QEB_W$$T@Z 00000001800965e0 f i libucrtd:atox.obj
 0001:00095620       ??$parse_integer@KV?$c_string_character_source@D@__crt_strtox@@@__crt_strtox@@YAKQEAU__crt_locale_pointers@@V?$c_string_character_source@D@0@H_N@Z 0000000180096620 f i libucrtd:atox.obj
 0001:00095ab0       ??$parse_integer@KV?$c_string_character_source@_W@__crt_strtox@@@__crt_strtox@@YAKQEAU__crt_locale_pointers@@V?$c_string_character_source@_W@0@H_N@Z 0000000180096ab0 f i libucrtd:atox.obj
 0001:00095f60       ??$parse_integer@_KV?$c_string_character_source@D@__crt_strtox@@@__crt_strtox@@YA_KQEAU__crt_locale_pointers@@V?$c_string_character_source@D@0@H_N@Z 0000000180096f60 f i libucrtd:atox.obj
 0001:00096480       ??$parse_integer@_KV?$c_string_character_source@_W@__crt_strtox@@@__crt_strtox@@YA_KQEAU__crt_locale_pointers@@V?$c_string_character_source@_W@0@H_N@Z 0000000180097480 f i libucrtd:atox.obj
 0001:000969a0       ??$parse_integer_from_string@JD$$T@__crt_strtox@@YAJQEBD$$THQEAU__crt_locale_pointers@@@Z 00000001800979a0 f i libucrtd:atox.obj
 0001:000969f0       ??$parse_integer_from_string@J_W$$T@__crt_strtox@@YAJQEB_W$$THQEAU__crt_locale_pointers@@@Z 00000001800979f0 f i libucrtd:atox.obj
 0001:00096a40       ??$parse_integer_from_string@_JD$$T@__crt_strtox@@YA_JQEBD$$THQEAU__crt_locale_pointers@@@Z 0000000180097a40 f i libucrtd:atox.obj
 0001:00096a90       ??$parse_integer_from_string@_J_W$$T@__crt_strtox@@YA_JQEB_W$$THQEAU__crt_locale_pointers@@@Z 0000000180097a90 f i libucrtd:atox.obj
 0001:00096ae0       ??0?$c_string_character_source@D@__crt_strtox@@QEAA@QEBDQEAPEBD@Z 0000000180097ae0 f i libucrtd:atox.obj
 0001:00096b30       ??0?$c_string_character_source@_W@__crt_strtox@@QEAA@QEB_WQEAPEB_W@Z 0000000180097b30 f i libucrtd:atox.obj
 0001:00096b80       ??1?$c_string_character_source@D@__crt_strtox@@QEAA@XZ 0000000180097b80 f i libucrtd:atox.obj
 0001:00096bb0       ??1?$c_string_character_source@_W@__crt_strtox@@QEAA@XZ 0000000180097bb0 f i libucrtd:atox.obj
 0001:00096be0       ?get@?$c_string_character_source@D@__crt_strtox@@QEAADXZ 0000000180097be0 f i libucrtd:atox.obj
 0001:00096c20       ?get@?$c_string_character_source@_W@__crt_strtox@@QEAA_WXZ 0000000180097c20 f i libucrtd:atox.obj
 0001:00096c60       ?is_space@__crt_strtox@@YA_NDQEAU__crt_locale_pointers@@@Z 0000000180097c60 f i libucrtd:atox.obj
 0001:00096cb0       ?is_space@__crt_strtox@@YA_N_WPEAU__crt_locale_pointers@@@Z 0000000180097cb0 f i libucrtd:atox.obj
 0001:00096cf0       ?maximum_signed_value@__crt_strtox@@YAJK@Z 0000000180097cf0 f i libucrtd:atox.obj
 0001:00096d00       ?maximum_signed_value@__crt_strtox@@YA_J_K@Z 0000000180097d00 f i libucrtd:atox.obj
 0001:00096d10       ?minimum_signed_value@__crt_strtox@@YAJK@Z 0000000180097d10 f i libucrtd:atox.obj
 0001:00096d20       ?minimum_signed_value@__crt_strtox@@YA_J_K@Z 0000000180097d20 f i libucrtd:atox.obj
 0001:00096d30       ?parse_digit@__crt_strtox@@YAID@Z 0000000180097d30 f i libucrtd:atox.obj
 0001:00096da0       ?parse_digit@__crt_strtox@@YAI_W@Z 0000000180097da0 f i libucrtd:atox.obj
 0001:00096df0       ?restore_state@?$c_string_character_source@D@__crt_strtox@@QEAA_NQEBD@Z 0000000180097df0 f i libucrtd:atox.obj
 0001:00096e10       ?restore_state@?$c_string_character_source@_W@__crt_strtox@@QEAA_NQEB_W@Z 0000000180097e10 f i libucrtd:atox.obj
 0001:00096e30       ?save_state@?$c_string_character_source@D@__crt_strtox@@QEBAPEBDXZ 0000000180097e30 f i libucrtd:atox.obj
 0001:00096e40       ?save_state@?$c_string_character_source@_W@__crt_strtox@@QEBAPEB_WXZ 0000000180097e40 f i libucrtd:atox.obj
 0001:00096e50       ?unget@?$c_string_character_source@D@__crt_strtox@@QEAAXD@Z 0000000180097e50 f i libucrtd:atox.obj
 0001:00096f30       ?unget@?$c_string_character_source@_W@__crt_strtox@@QEAAX_W@Z 0000000180097f30 f i libucrtd:atox.obj
 0001:00097010       ?validate@?$c_string_character_source@D@__crt_strtox@@QEBA_NXZ 0000000180098010 f i libucrtd:atox.obj
 0001:000970d0       ?validate@?$c_string_character_source@_W@__crt_strtox@@QEBA_NXZ 00000001800980d0 f i libucrtd:atox.obj
 0001:00097190       ?wide_character_to_digit@__crt_strtox@@YAH_W@Z 0000000180098190 f i libucrtd:atox.obj
 0001:00097500       __ascii_iswalpha           0000000180098500 f i libucrtd:atox.obj
 0001:00097540       __ascii_toupper            0000000180098540 f i libucrtd:atox.obj
 0001:00097560       __ascii_towupper           0000000180098560 f i libucrtd:atox.obj
 0001:00097580       _atoi64                    0000000180098580 f   libucrtd:atox.obj
 0001:000975b0       _atoi64_l                  00000001800985b0 f   libucrtd:atox.obj
 0001:000975e0       _atoi_l                    00000001800985e0 f   libucrtd:atox.obj
 0001:00097610       _atol_l                    0000000180098610 f   libucrtd:atox.obj
 0001:00097640       _atoll_l                   0000000180098640 f   libucrtd:atox.obj
 0001:00097670       _wtoi                      0000000180098670 f   libucrtd:atox.obj
 0001:000976a0       _wtoi64                    00000001800986a0 f   libucrtd:atox.obj
 0001:000976d0       _wtoi64_l                  00000001800986d0 f   libucrtd:atox.obj
 0001:00097700       _wtoi_l                    0000000180098700 f   libucrtd:atox.obj
 0001:00097730       _wtol                      0000000180098730 f   libucrtd:atox.obj
 0001:00097760       _wtol_l                    0000000180098760 f   libucrtd:atox.obj
 0001:00097790       _wtoll                     0000000180098790 f   libucrtd:atox.obj
 0001:000977c0       _wtoll_l                   00000001800987c0 f   libucrtd:atox.obj
 0001:000977f0       atoi                       00000001800987f0 f   libucrtd:atox.obj
 0001:00097820       atol                       0000000180098820 f   libucrtd:atox.obj
 0001:00097850       atoll                      0000000180098850 f   libucrtd:atox.obj
 0001:00097890       strncmp                    0000000180098890 f   libucrtd:strncmp.obj
 0001:00097910       wcsncmp                    0000000180098910 f   libucrtd:wcsncmp.obj
 0001:000979a0       _CrtGetDebugFillThreshold  00000001800989a0 f   libucrtd:debug_fill_threshold.obj
 0001:000979b0       _CrtSetDebugFillThreshold  00000001800989b0 f   libucrtd:debug_fill_threshold.obj
 0001:000979e0       ??$make_c_string_character_source@DPEAPEAD@__crt_strtox@@YA?AV?$c_string_character_source@D@0@QEBDQEAPEAD@Z 00000001800989e0 f i libucrtd:strtox.obj
 0001:00097a20       ??$make_c_string_character_source@_WPEAPEA_W@__crt_strtox@@YA?AV?$c_string_character_source@_W@0@QEB_WQEAPEA_W@Z 0000000180098a20 f i libucrtd:strtox.obj
 0001:00097a60       ??$parse_integer_from_string@JDPEAPEAD@__crt_strtox@@YAJQEBDQEAPEADHQEAU__crt_locale_pointers@@@Z 0000000180098a60 f i libucrtd:strtox.obj
 0001:00097ab0       ??$parse_integer_from_string@J_WPEAPEA_W@__crt_strtox@@YAJQEB_WQEAPEA_WHQEAU__crt_locale_pointers@@@Z 0000000180098ab0 f i libucrtd:strtox.obj
 0001:00097b00       ??$parse_integer_from_string@KDPEAPEAD@__crt_strtox@@YAKQEBDQEAPEADHQEAU__crt_locale_pointers@@@Z 0000000180098b00 f i libucrtd:strtox.obj
 0001:00097b50       ??$parse_integer_from_string@K_WPEAPEA_W@__crt_strtox@@YAKQEB_WQEAPEA_WHQEAU__crt_locale_pointers@@@Z 0000000180098b50 f i libucrtd:strtox.obj
 0001:00097ba0       ??$parse_integer_from_string@_JDPEAPEAD@__crt_strtox@@YA_JQEBDQEAPEADHQEAU__crt_locale_pointers@@@Z 0000000180098ba0 f i libucrtd:strtox.obj
 0001:00097bf0       ??$parse_integer_from_string@_J_WPEAPEA_W@__crt_strtox@@YA_JQEB_WQEAPEA_WHQEAU__crt_locale_pointers@@@Z 0000000180098bf0 f i libucrtd:strtox.obj
 0001:00097c40       ??$parse_integer_from_string@_KDPEAPEAD@__crt_strtox@@YA_KQEBDQEAPEADHQEAU__crt_locale_pointers@@@Z 0000000180098c40 f i libucrtd:strtox.obj
 0001:00097c90       ??$parse_integer_from_string@_K_WPEAPEA_W@__crt_strtox@@YA_KQEB_WQEAPEA_WHQEAU__crt_locale_pointers@@@Z 0000000180098c90 f i libucrtd:strtox.obj
 0001:00097ce0       _strtoi64                  0000000180098ce0 f   libucrtd:strtox.obj
 0001:00097d10       _strtoi64_l                0000000180098d10 f   libucrtd:strtox.obj
 0001:00097d50       _strtoimax_l               0000000180098d50 f   libucrtd:strtox.obj
 0001:00097d90       _strtol_l                  0000000180098d90 f   libucrtd:strtox.obj
 0001:00097dd0       _strtoll_l                 0000000180098dd0 f   libucrtd:strtox.obj
 0001:00097e10       _strtoui64                 0000000180098e10 f   libucrtd:strtox.obj
 0001:00097e40       _strtoui64_l               0000000180098e40 f   libucrtd:strtox.obj
 0001:00097e80       _strtoul_l                 0000000180098e80 f   libucrtd:strtox.obj
 0001:00097ec0       _strtoull_l                0000000180098ec0 f   libucrtd:strtox.obj
 0001:00097f00       _strtoumax_l               0000000180098f00 f   libucrtd:strtox.obj
 0001:00097f40       _wcstoi64                  0000000180098f40 f   libucrtd:strtox.obj
 0001:00097f70       _wcstoi64_l                0000000180098f70 f   libucrtd:strtox.obj
 0001:00097fb0       _wcstoimax_l               0000000180098fb0 f   libucrtd:strtox.obj
 0001:00097ff0       _wcstol_l                  0000000180098ff0 f   libucrtd:strtox.obj
 0001:00098030       _wcstoll_l                 0000000180099030 f   libucrtd:strtox.obj
 0001:00098070       _wcstoui64                 0000000180099070 f   libucrtd:strtox.obj
 0001:000980a0       _wcstoui64_l               00000001800990a0 f   libucrtd:strtox.obj
 0001:000980e0       _wcstoul_l                 00000001800990e0 f   libucrtd:strtox.obj
 0001:00098120       _wcstoull_l                0000000180099120 f   libucrtd:strtox.obj
 0001:00098160       _wcstoumax_l               0000000180099160 f   libucrtd:strtox.obj
 0001:000981a0       strtoimax                  00000001800991a0 f   libucrtd:strtox.obj
 0001:000981d0       strtol                     00000001800991d0 f   libucrtd:strtox.obj
 0001:00098200       strtoll                    0000000180099200 f   libucrtd:strtox.obj
 0001:00098230       strtoul                    0000000180099230 f   libucrtd:strtox.obj
 0001:00098260       strtoull                   0000000180099260 f   libucrtd:strtox.obj
 0001:00098290       strtoumax                  0000000180099290 f   libucrtd:strtox.obj
 0001:000982c0       wcstoimax                  00000001800992c0 f   libucrtd:strtox.obj
 0001:000982f0       wcstol                     00000001800992f0 f   libucrtd:strtox.obj
 0001:00098320       wcstoll                    0000000180099320 f   libucrtd:strtox.obj
 0001:00098350       wcstoul                    0000000180099350 f   libucrtd:strtox.obj
 0001:00098380       wcstoull                   0000000180099380 f   libucrtd:strtox.obj
 0001:000983b0       wcstoumax                  00000001800993b0 f   libucrtd:strtox.obj
 0001:000983e0       _mbtowc_l                  00000001800993e0 f   libucrtd:mbtowc.obj
 0001:00098840       mbtowc                     0000000180099840 f   libucrtd:mbtowc.obj
 0001:00098870       _wctomb_l                  0000000180099870 f   libucrtd:wctomb.obj
 0001:00098930       _wctomb_s_l                0000000180099930 f   libucrtd:wctomb.obj
 0001:00098eb0       wctomb                     0000000180099eb0 f   libucrtd:wctomb.obj
 0001:00098f10       wctomb_s                   0000000180099f10 f   libucrtd:wctomb.obj
 0001:00098f60       ??$?RU__acrt_ptd@@@__crt_internal_free_policy@@QEBAXQEBU__acrt_ptd@@@Z 0000000180099f60 f i libucrtd:per_thread_data.obj
 0001:00099360       ??0?$__crt_unique_heap_ptr@U__acrt_ptd@@U__crt_internal_free_policy@@@@QEAA@QEAU__acrt_ptd@@@Z 000000018009a360 f i libucrtd:per_thread_data.obj
 0001:00099380       ??0__crt_scoped_get_last_error_reset@@QEAA@XZ 000000018009a380 f i libucrtd:per_thread_data.obj
 0001:000993a0       ??1?$__crt_unique_heap_ptr@U__acrt_ptd@@U__crt_internal_free_policy@@@@QEAA@XZ 000000018009a3a0 f i libucrtd:per_thread_data.obj
 0001:000993c0       ??1__crt_scoped_get_last_error_reset@@QEAA@XZ 000000018009a3c0 f i libucrtd:per_thread_data.obj
 0001:000993e0       ??B?$__crt_unique_heap_ptr@U__acrt_ptd@@U__crt_internal_free_policy@@@@QEBA_NXZ 000000018009a3e0 f i libucrtd:per_thread_data.obj
 0001:00099730       ?dangerous_get_state_array@?$dual_state_global@PEAU__crt_locale_data@@@__crt_state_management@@QEAAPEAPEAU__crt_locale_data@@XZ 000000018009a730 f i libucrtd:per_thread_data.obj
 0001:000998f0       ?detach@?$__crt_unique_heap_ptr@U__acrt_ptd@@U__crt_internal_free_policy@@@@QEAAPEAU__acrt_ptd@@XZ 000000018009a8f0 f i libucrtd:per_thread_data.obj
 0001:00099920       ?get@?$__crt_unique_heap_ptr@U__acrt_ptd@@U__crt_internal_free_policy@@@@QEBAPEAU__acrt_ptd@@XZ 000000018009a920 f i libucrtd:per_thread_data.obj
 0001:00099930       ?get_current_state_index@__crt_state_management@@YA_KAEBV__crt_scoped_get_last_error_reset@@@Z 000000018009a930 f i libucrtd:per_thread_data.obj
 0001:00099ae0       ?is_valid@?$__crt_unique_heap_ptr@U__acrt_ptd@@U__crt_internal_free_policy@@@@QEBA_NXZ 000000018009aae0 f i libucrtd:per_thread_data.obj
 0001:00099b10       ?release@?$__crt_unique_heap_ptr@U__acrt_ptd@@U__crt_internal_free_policy@@@@QEAAXXZ 000000018009ab10 f i libucrtd:per_thread_data.obj
 0001:00099c40       ?value@?$dual_state_global@PEAU__crt_locale_data@@@__crt_state_management@@QEAAAEAPEAU__crt_locale_data@@XZ 000000018009ac40 f i libucrtd:per_thread_data.obj
 0001:00099c60       __acrt_freeptd             000000018009ac60 f   libucrtd:per_thread_data.obj
 0001:00099ca0       __acrt_getptd              000000018009aca0 f   libucrtd:per_thread_data.obj
 0001:00099cd0       __acrt_getptd_head         000000018009acd0 f   libucrtd:per_thread_data.obj
 0001:00099d00       __acrt_getptd_noexit       000000018009ad00 f   libucrtd:per_thread_data.obj
 0001:00099d10       __acrt_initialize_ptd      000000018009ad10 f   libucrtd:per_thread_data.obj
 0001:00099d50       __acrt_uninitialize_ptd    000000018009ad50 f   libucrtd:per_thread_data.obj
 0001:00099d80       __threadhandle             000000018009ad80 f   libucrtd:per_thread_data.obj
 0001:00099d90       __threadid                 000000018009ad90 f   libucrtd:per_thread_data.obj
 0001:00099da0       ?value@?$dual_state_global@PEAU__crt_multibyte_data@@@__crt_state_management@@QEAAAEAPEAU__crt_multibyte_data@@XZ 000000018009ada0 f i libucrtd:locale_update.obj
 0001:00099dc0       __acrt_update_locale_info  000000018009adc0 f   libucrtd:locale_update.obj
 0001:00099e10       __acrt_update_multibyte_info 000000018009ae10 f   libucrtd:locale_update.obj
 0001:00099e60       ?__acrt_fp_classify@@YA?AW4__acrt_fp_class@@AEBN@Z 000000018009ae60 f i libucrtd:cvt.obj
 0001:00099f60       ?__acrt_fp_is_negative@@YA_NAEBN@Z 000000018009af60 f i libucrtd:cvt.obj
 0001:0009b610       ?strrchr@@YAPEADQEADH@Z    000000018009c610 f i libucrtd:cvt.obj
 0001:0009b630       __acrt_fp_format           000000018009c630 f   libucrtd:cvt.obj
 0001:0009bca0       _fputwc_nolock             000000018009cca0 f   libucrtd:fputwc.obj
 0001:0009bf10       _fputwchar                 000000018009cf10 f   libucrtd:fputwc.obj
 0001:0009bf40       _putwc_nolock              000000018009cf40 f   libucrtd:fputwc.obj
 0001:0009bf70       fputwc                     000000018009cf70 f   libucrtd:fputwc.obj
 0001:0009c060       putwc                      000000018009d060 f   libucrtd:fputwc.obj
 0001:0009c090       putwchar                   000000018009d090 f   libucrtd:fputwc.obj
 0001:0009c0b0       ?lowio_handle@__crt_stdio_stream@@QEBAHXZ 000000018009d0b0 f i libucrtd:fileno.obj
 0001:0009c0e0       _fileno                    000000018009d0e0 f   libucrtd:fileno.obj
 0001:0009c1c0       ??$?RPEAU__crt_stdio_stream_data@@@__crt_internal_free_policy@@QEBAXQEBQEAU__crt_stdio_stream_data@@@Z 000000018009d1c0 f i libucrtd:_file.obj
 0001:0009c1f0       ??0?$__crt_unique_heap_ptr@PEAU__crt_stdio_stream_data@@U__crt_internal_free_policy@@@@QEAA@QEAPEAU__crt_stdio_stream_data@@@Z 000000018009d1f0 f i libucrtd:_file.obj
 0001:0009c210       ??1?$__crt_unique_heap_ptr@PEAU__crt_stdio_stream_data@@U__crt_internal_free_policy@@@@QEAA@XZ 000000018009d210 f i libucrtd:_file.obj
 0001:0009c230       ?detach@?$__crt_unique_heap_ptr@PEAU__crt_stdio_stream_data@@U__crt_internal_free_policy@@@@QEAAPEAPEAU__crt_stdio_stream_data@@XZ 000000018009d230 f i libucrtd:_file.obj
 0001:0009c260       ?release@?$__crt_unique_heap_ptr@PEAU__crt_stdio_stream_data@@U__crt_internal_free_policy@@@@QEAAXXZ 000000018009d260 f i libucrtd:_file.obj
 0001:0009c290       __acrt_initialize_stdio    000000018009d290 f   libucrtd:_file.obj
 0001:0009c480       __acrt_iob_func            000000018009d480 f   libucrtd:_file.obj
 0001:0009c4a0       __acrt_uninitialize_stdio  000000018009d4a0 f   libucrtd:_file.obj
 0001:0009c530       _get_stream_buffer_pointers 000000018009d530 f   libucrtd:_file.obj
 0001:0009c660       _lock_file                 000000018009d660 f   libucrtd:_file.obj
 0001:0009c6a0       _unlock_file               000000018009d6a0 f   libucrtd:_file.obj
 0001:0009c6e0       _get_printf_count_output   000000018009d6e0 f   libucrtd:printf_count_output.obj
 0001:0009c710       _set_printf_count_output   000000018009d710 f   libucrtd:printf_count_output.obj
 0001:0009c780       ?has_any_buffer@__crt_stdio_stream@@QEBA_NXZ 000000018009d780 f i libucrtd:_sftbuf.obj
 0001:0009c7a0       ?has_any_of@__crt_stdio_stream@@QEBA_NJ@Z 000000018009d7a0 f i libucrtd:_sftbuf.obj
 0001:0009c7e0       ?has_temporary_buffer@__crt_stdio_stream@@QEBA_NXZ 000000018009d7e0 f i libucrtd:_sftbuf.obj
 0001:0009c800       ?set_flags@__crt_stdio_stream@@QEBA_NJ@Z 000000018009d800 f i libucrtd:_sftbuf.obj
 0001:0009c870       ?unset_flags@__crt_stdio_stream@@QEBA_NJ@Z 000000018009d870 f i libucrtd:_sftbuf.obj
 0001:0009c8d0       __acrt_stdio_begin_temporary_buffering_nolock 000000018009d8d0 f   libucrtd:_sftbuf.obj
 0001:0009cb10       __acrt_stdio_end_temporary_buffering_nolock 000000018009db10 f   libucrtd:_sftbuf.obj
 0001:0009cbc0       ??$?RU__crt_locale_data@@@__crt_internal_free_policy@@QEBAXQEBU__crt_locale_data@@@Z 000000018009dbc0 f i libucrtd:wsetlocale.obj
 0001:0009cbf0       ??$?RU__crt_locale_pointers@@@__crt_internal_free_policy@@QEBAXQEBU__crt_locale_pointers@@@Z 000000018009dbf0 f i libucrtd:wsetlocale.obj
 0001:0009cc20       ??$?RU__crt_multibyte_data@@@__crt_internal_free_policy@@QEBAXQEBU__crt_multibyte_data@@@Z 000000018009dc20 f i libucrtd:wsetlocale.obj
 0001:0009d180       ??0?$__crt_unique_heap_ptr@U__crt_locale_data@@U__crt_internal_free_policy@@@@QEAA@QEAU__crt_locale_data@@@Z 000000018009e180 f i libucrtd:wsetlocale.obj
 0001:0009d1a0       ??0?$__crt_unique_heap_ptr@U__crt_locale_pointers@@U__crt_internal_free_policy@@@@QEAA@QEAU__crt_locale_pointers@@@Z 000000018009e1a0 f i libucrtd:wsetlocale.obj
 0001:0009d1c0       ??0?$__crt_unique_heap_ptr@U__crt_multibyte_data@@U__crt_internal_free_policy@@@@QEAA@QEAU__crt_multibyte_data@@@Z 000000018009e1c0 f i libucrtd:wsetlocale.obj
 0001:0009d1e0       ??0_expandlocale_locale_name_cache@@QEAA@QEA_W_KQEAU__crt_qualified_locale_data@@@Z 000000018009e1e0 f i libucrtd:wsetlocale.obj
 0001:0009d290       ??1?$__crt_unique_heap_ptr@U__crt_locale_data@@U__crt_internal_free_policy@@@@QEAA@XZ 000000018009e290 f i libucrtd:wsetlocale.obj
 0001:0009d2b0       ??1?$__crt_unique_heap_ptr@U__crt_locale_pointers@@U__crt_internal_free_policy@@@@QEAA@XZ 000000018009e2b0 f i libucrtd:wsetlocale.obj
 0001:0009d2d0       ??1?$__crt_unique_heap_ptr@U__crt_multibyte_data@@U__crt_internal_free_policy@@@@QEAA@XZ 000000018009e2d0 f i libucrtd:wsetlocale.obj
 0001:0009d2f0       ??1_expandlocale_locale_name_cache@@QEAA@XZ 000000018009e2f0 f i libucrtd:wsetlocale.obj
 0001:0009d370       ??B?$__crt_unique_heap_ptr@U__crt_locale_data@@U__crt_internal_free_policy@@@@QEBA_NXZ 000000018009e370 f i libucrtd:wsetlocale.obj
 0001:0009d390       ??B?$__crt_unique_heap_ptr@U__crt_locale_pointers@@U__crt_internal_free_policy@@@@QEBA_NXZ 000000018009e390 f i libucrtd:wsetlocale.obj
 0001:0009d3b0       ??B?$__crt_unique_heap_ptr@U__crt_multibyte_data@@U__crt_internal_free_policy@@@@QEBA_NXZ 000000018009e3b0 f i libucrtd:wsetlocale.obj
 0001:0009d860       ?commit_locale_name@_expandlocale_locale_name_cache@@QEAAXQEB_W_K@Z 000000018009e860 f i libucrtd:wsetlocale.obj
 0001:0009d8e0       ?commit_locale_name_cache_already_updated@_expandlocale_locale_name_cache@@QEAAXQEB_W_K@Z 000000018009e8e0 f i libucrtd:wsetlocale.obj
 0001:0009d950       ?detach@?$__crt_unique_heap_ptr@U__crt_locale_data@@U__crt_internal_free_policy@@@@QEAAPEAU__crt_locale_data@@XZ 000000018009e950 f i libucrtd:wsetlocale.obj
 0001:0009d980       ?detach@?$__crt_unique_heap_ptr@U__crt_locale_pointers@@U__crt_internal_free_policy@@@@QEAAPEAU__crt_locale_pointers@@XZ 000000018009e980 f i libucrtd:wsetlocale.obj
 0001:0009d9b0       ?detach@?$__crt_unique_heap_ptr@U__crt_multibyte_data@@U__crt_internal_free_policy@@@@QEAAPEAU__crt_multibyte_data@@XZ 000000018009e9b0 f i libucrtd:wsetlocale.obj
 0001:0009d9e0       ?get@?$__crt_unique_heap_ptr@U__crt_locale_data@@U__crt_internal_free_policy@@@@QEBAPEAU__crt_locale_data@@XZ 000000018009e9e0 f i libucrtd:wsetlocale.obj
 0001:0009d9f0       ?get@?$__crt_unique_heap_ptr@U__crt_locale_pointers@@U__crt_internal_free_policy@@@@QEBAPEAU__crt_locale_pointers@@XZ 000000018009e9f0 f i libucrtd:wsetlocale.obj
 0001:0009da00       ?get@?$__crt_unique_heap_ptr@U__crt_multibyte_data@@U__crt_internal_free_policy@@@@QEBAPEAU__crt_multibyte_data@@XZ 000000018009ea00 f i libucrtd:wsetlocale.obj
 0001:0009da10       ?is_valid@?$__crt_unique_heap_ptr@U__crt_locale_data@@U__crt_internal_free_policy@@@@QEBA_NXZ 000000018009ea10 f i libucrtd:wsetlocale.obj
 0001:0009da40       ?is_valid@?$__crt_unique_heap_ptr@U__crt_locale_pointers@@U__crt_internal_free_policy@@@@QEBA_NXZ 000000018009ea40 f i libucrtd:wsetlocale.obj
 0001:0009da70       ?is_valid@?$__crt_unique_heap_ptr@U__crt_multibyte_data@@U__crt_internal_free_policy@@@@QEBA_NXZ 000000018009ea70 f i libucrtd:wsetlocale.obj
 0001:0009daa0       ?release@?$__crt_unique_heap_ptr@U__crt_locale_data@@U__crt_internal_free_policy@@@@QEAAXXZ 000000018009eaa0 f i libucrtd:wsetlocale.obj
 0001:0009dad0       ?release@?$__crt_unique_heap_ptr@U__crt_locale_pointers@@U__crt_internal_free_policy@@@@QEAAXXZ 000000018009ead0 f i libucrtd:wsetlocale.obj
 0001:0009db00       ?release@?$__crt_unique_heap_ptr@U__crt_multibyte_data@@U__crt_internal_free_policy@@@@QEAAXXZ 000000018009eb00 f i libucrtd:wsetlocale.obj
 0001:0009db30       __acrt_copy_locale_name    000000018009eb30 f   libucrtd:wsetlocale.obj
 0001:0009dc00       __acrt_set_locale_changed  000000018009ec00 f   libucrtd:wsetlocale.obj
 0001:0009dc10       __acrt_uninitialize_locale 000000018009ec10 f   libucrtd:wsetlocale.obj
 0001:0009dc40       __ascii_tolower            000000018009ec40 f i libucrtd:wsetlocale.obj
 0001:0009dc60       __ascii_towlower           000000018009ec60 f i libucrtd:wsetlocale.obj
 0001:0009dc80       __lc_lctowcs               000000018009ec80 f   libucrtd:wsetlocale.obj
 0001:0009dd70       __lc_wcstolc               000000018009ed70 f   libucrtd:wsetlocale.obj
 0001:0009e030       _configthreadlocale        000000018009f030 f   libucrtd:wsetlocale.obj
 0001:0009e1f0       _create_locale             000000018009f1f0 f   libucrtd:wsetlocale.obj
 0001:0009e8f0       _free_locale               000000018009f8f0 f   libucrtd:wsetlocale.obj
 0001:0009e9e0       _get_current_locale        000000018009f9e0 f   libucrtd:wsetlocale.obj
 0001:0009eaf0       _wcreate_locale            000000018009faf0 f   libucrtd:wsetlocale.obj
 0001:0009ede0       _wcscats                   000000018009fde0 f   libucrtd:wsetlocale.obj
 0001:0009eec0       _wsetlocale                000000018009fec0 f   libucrtd:wsetlocale.obj
 0001:000a0ae0       __p___mb_cur_max           00000001800a1ae0 f   libucrtd:nlsdata.obj
 0001:000a0ec0       __acrt_initialize_lowio    00000001800a1ec0 f   libucrtd:ioinit.obj
 0001:000a0f10       __acrt_uninitialize_lowio  00000001800a1f10 f   libucrtd:ioinit.obj
 0001:000a0f90       _CrtGetReportHook          00000001800a1f90 f   libucrtd:dbgrptt.obj
 0001:000a0fa0       _CrtSetReportFile          00000001800a1fa0 f   libucrtd:dbgrptt.obj
 0001:000a1100       _CrtSetReportHook          00000001800a2100 f   libucrtd:dbgrptt.obj
 0001:000a1130       _CrtSetReportMode          00000001800a2130 f   libucrtd:dbgrptt.obj
 0001:000a12e0       _VCrtDbgReportA            00000001800a22e0 f   libucrtd:dbgrptt.obj
 0001:000a1cc0       _VCrtDbgReportW            00000001800a2cc0 f   libucrtd:dbgrptt.obj
 0001:000a2840       _snprintf_s                00000001800a3840 f i libucrtd:dbgrptt.obj
 0001:000a28b0       _vsnprintf_s               00000001800a38b0 f i libucrtd:dbgrptt.obj
 0001:000a2900       _vsnprintf_s_l             00000001800a3900 f i libucrtd:dbgrptt.obj
 0001:000a2b20       ??$__acrt_wcs_to_mbs_cp@U__crt_win32_buffer_no_resizing@@@@YAHQEB_WAEAV?$__crt_win32_buffer@DU__crt_win32_buffer_no_resizing@@@@I@Z 00000001800a3b20 f i libucrtd:getmodulefilenamea.obj
 0001:000a2b70       ??0?$__crt_win32_buffer@DU__crt_win32_buffer_no_resizing@@@@QEAA@QEAD_K@Z 00000001800a3b70 f i libucrtd:getmodulefilenamea.obj
 0001:000a2be0       ??1?$__crt_win32_buffer@DU__crt_win32_buffer_no_resizing@@@@QEAA@XZ 00000001800a3be0 f i libucrtd:getmodulefilenamea.obj
 0001:000a2c70       ?__acrt_get_utf8_acp_compatibility_codepage@@YAIXZ 00000001800a3c70 f i libucrtd:getmodulefilenamea.obj
 0001:000a2d10       ?_deallocate@?$__crt_win32_buffer@DU__crt_win32_buffer_no_resizing@@@@AEAAXXZ 00000001800a3d10 f i libucrtd:getmodulefilenamea.obj
 0001:000a2d50       ?allocate@?$__crt_win32_buffer@DU__crt_win32_buffer_no_resizing@@@@QEAAH_K@Z 00000001800a3d50 f i libucrtd:getmodulefilenamea.obj
 0001:000a2dd0       ?allocate@__crt_win32_buffer_no_resizing@@SAHQEAPEAX_KAEBV__crt_win32_buffer_empty_debug_info@@@Z 00000001800a3dd0 f i libucrtd:getmodulefilenamea.obj
 0001:000a2e00       ?capacity@?$__crt_win32_buffer@DU__crt_win32_buffer_no_resizing@@@@QEBA_KXZ 00000001800a3e00 f i libucrtd:getmodulefilenamea.obj
 0001:000a2e10       ?data@?$__crt_win32_buffer@DU__crt_win32_buffer_no_resizing@@@@QEAAPEADXZ 00000001800a3e10 f i libucrtd:getmodulefilenamea.obj
 0001:000a2e20       ?deallocate@__crt_win32_buffer_no_resizing@@SAXQEAXAEBV__crt_win32_buffer_empty_debug_info@@@Z 00000001800a3e20 f i libucrtd:getmodulefilenamea.obj
 0001:000a2e30       ?debug_info@?$__crt_win32_buffer@DU__crt_win32_buffer_no_resizing@@@@QEBAAEBV__crt_win32_buffer_empty_debug_info@@XZ 00000001800a3e30 f i libucrtd:getmodulefilenamea.obj
 0001:000a2e40       ?set_to_nullptr@?$__crt_win32_buffer@DU__crt_win32_buffer_no_resizing@@@@QEAAXXZ 00000001800a3e40 f i libucrtd:getmodulefilenamea.obj
 0001:000a2e80       ?size@?$__crt_win32_buffer@DU__crt_win32_buffer_no_resizing@@@@QEAAX_K@Z 00000001800a3e80 f i libucrtd:getmodulefilenamea.obj
 0001:000a2ea0       ?size@?$__crt_win32_buffer@DU__crt_win32_buffer_no_resizing@@@@QEBA_KXZ 00000001800a3ea0 f i libucrtd:getmodulefilenamea.obj
 0001:000a2eb0       __acrt_GetModuleFileNameA  00000001800a3eb0 f   libucrtd:getmodulefilenamea.obj
 0001:000a3210       ??$message_box@$$TAEBQEBDAEBQEBDK@?$__crt_char_traits@D@@SAH$$QEA$$TAEBQEBD1$$QEAK@Z 00000001800a4210 f i libucrtd:crtmbox.obj
 0001:000a3260       ??$message_box@$$TAEBQEB_WAEBQEB_WK@?$__crt_char_traits@_W@@SAH$$QEA$$TAEBQEB_W1$$QEAK@Z 00000001800a4260 f i libucrtd:crtmbox.obj
 0001:000a32b0       ??$message_box@PEAUHWND__@@AEBQEBDAEBQEBDAEBI@?$__crt_char_traits@D@@SAH$$QEAPEAUHWND__@@AEBQEBD1AEBI@Z 00000001800a42b0 f i libucrtd:crtmbox.obj
 0001:000a3300       ??$message_box@PEAUHWND__@@AEBQEB_WAEBQEB_WAEBI@?$__crt_char_traits@_W@@SAH$$QEAPEAUHWND__@@AEBQEB_W1AEBI@Z 00000001800a4300 f i libucrtd:crtmbox.obj
 0001:000a3350       ??$output_debug_string@AEBQEBD@?$__crt_char_traits@D@@SAXAEBQEBD@Z 00000001800a4350 f i libucrtd:crtmbox.obj
 0001:000a3370       ??$output_debug_string@AEBQEB_W@?$__crt_char_traits@_W@@SAXAEBQEB_W@Z 00000001800a4370 f i libucrtd:crtmbox.obj
 0001:000a3390       __acrt_show_narrow_message_box 00000001800a4390 f   libucrtd:crtmbox.obj
 0001:000a33c0       __acrt_show_wide_message_box 00000001800a43c0 f   libucrtd:crtmbox.obj
 0001:000a33f0       __acrt_initialize_locks    00000001800a43f0 f   libucrtd:locks.obj
 0001:000a3460       __acrt_lock                00000001800a4460 f   libucrtd:locks.obj
 0001:000a3490       __acrt_uninitialize_locks  00000001800a4490 f   libucrtd:locks.obj
 0001:000a34f0       __acrt_unlock              00000001800a44f0 f   libucrtd:locks.obj
 0001:000a3520       _lock_locales              00000001800a4520 f   libucrtd:locks.obj
 0001:000a3540       _unlock_locales            00000001800a4540 f   libucrtd:locks.obj
 0001:000a3560       ??$?B$$A6AXH@Z@__crt_fast_encoded_nullptr_t@@QEBAP6AXH@ZXZ 00000001800a4560 f i libucrtd:signal.obj
 0001:000a3620       ??$__crt_fast_decode_pointer@P6AXH@Z@@YAP6AXH@ZQ6AXH@Z@Z 00000001800a4620 f i libucrtd:signal.obj
 0001:000a3660       ??$__crt_fast_encode_pointer@P6AXH@Z@@YAP6AXH@ZQ6AXH@Z@Z 00000001800a4660 f i libucrtd:signal.obj
 0001:000a38e0       ?initialize@?$dual_state_global@P6AXH@Z@__crt_state_management@@QEAAXQ6AXH@Z@Z 00000001800a48e0 f i libucrtd:signal.obj
 0001:000a3a60       ?value@?$dual_state_global@P6AXH@Z@__crt_state_management@@QEAAAEAP6AXH@ZXZ 00000001800a4a60 f i libucrtd:signal.obj
 0001:000a3a80       __acrt_get_sigabrt_handler 00000001800a4a80 f   libucrtd:signal.obj
 0001:000a3ab0       __acrt_initialize_signal_handlers 00000001800a4ab0 f   libucrtd:signal.obj
 0001:000a3b10       __fpecode                  00000001800a4b10 f   libucrtd:signal.obj
 0001:000a3b30       __pxcptinfoptrs            00000001800a4b30 f   libucrtd:signal.obj
 0001:000a3b50       raise                      00000001800a4b50 f   libucrtd:signal.obj
 0001:000a4010       signal                     00000001800a5010 f   libucrtd:signal.obj
 0001:000a42e0       _msize                     00000001800a52e0 f   libucrtd:msize.obj
 0001:000a4300       _msize_base                00000001800a5300 f   libucrtd:msize.obj
 0001:000a43d0       _realloc_base              00000001800a53d0 f   libucrtd:realloc_base.obj
 0001:000a44a0       ??$?B$$A6AHPEA_WK_J@Z@__crt_fast_encoded_nullptr_t@@QEBAP6AHPEA_WK_J@ZXZ 00000001800a54a0 f i libucrtd:winapi_thunks.obj
 0001:000a4560       ??$__crt_fast_decode_pointer@P6AHPEA_WK_J@Z@@YAP6AHPEA_WK_J@ZQ6AH0K1@Z@Z 00000001800a5560 f i libucrtd:winapi_thunks.obj
 0001:000a45a0       ??$__crt_fast_decode_pointer@PEAX@@YAPEAXQEAX@Z 00000001800a55a0 f i libucrtd:winapi_thunks.obj
 0001:000a45e0       ??$__crt_fast_encode_pointer@P6AHPEA_WK_J@Z@@YAP6AHPEA_WK_J@ZQ6AH0K1@Z@Z 00000001800a55e0 f i libucrtd:winapi_thunks.obj
 0001:000a5250       GetCurrentThreadEffectiveToken 00000001800a6250 f i libucrtd:winapi_thunks.obj
 0001:000a5260       __acrt_AppPolicyGetProcessTerminationMethodInternal 00000001800a6260 f   libucrtd:winapi_thunks.obj
 0001:000a52b0       __acrt_AppPolicyGetShowDeveloperDiagnosticInternal 00000001800a62b0 f   libucrtd:winapi_thunks.obj
 0001:000a5300       __acrt_AppPolicyGetThreadInitializationTypeInternal 00000001800a6300 f   libucrtd:winapi_thunks.obj
 0001:000a5350       __acrt_AppPolicyGetWindowingModelInternal 00000001800a6350 f   libucrtd:winapi_thunks.obj
 0001:000a53a0       __acrt_AreFileApisANSI     00000001800a63a0 f   libucrtd:winapi_thunks.obj
 0001:000a53e0       __acrt_CompareStringEx     00000001800a63e0 f   libucrtd:winapi_thunks.obj
 0001:000a54c0       __acrt_EnumSystemLocalesEx 00000001800a64c0 f   libucrtd:winapi_thunks.obj
 0001:000a5540       __acrt_FlsAlloc            00000001800a6540 f   libucrtd:winapi_thunks.obj
 0001:000a5590       __acrt_FlsFree             00000001800a6590 f   libucrtd:winapi_thunks.obj
 0001:000a55e0       __acrt_FlsGetValue         00000001800a65e0 f   libucrtd:winapi_thunks.obj
 0001:000a5630       __acrt_FlsSetValue         00000001800a6630 f   libucrtd:winapi_thunks.obj
 0001:000a5690       __acrt_GetDateFormatEx     00000001800a6690 f   libucrtd:winapi_thunks.obj
 0001:000a5750       __acrt_GetEnabledXStateFeatures 00000001800a6750 f   libucrtd:winapi_thunks.obj
 0001:000a5790       __acrt_GetLocaleInfoEx     00000001800a6790 f   libucrtd:winapi_thunks.obj
 0001:000a5810       __acrt_GetSystemTimePreciseAsFileTime 00000001800a6810 f   libucrtd:winapi_thunks.obj
 0001:000a5860       __acrt_GetTimeFormatEx     00000001800a6860 f   libucrtd:winapi_thunks.obj
 0001:000a5910       __acrt_GetUserDefaultLocaleName 00000001800a6910 f   libucrtd:winapi_thunks.obj
 0001:000a5970       __acrt_GetXStateFeaturesMask 00000001800a6970 f   libucrtd:winapi_thunks.obj
 0001:000a59c0       __acrt_InitializeCriticalSectionEx 00000001800a69c0 f   libucrtd:winapi_thunks.obj
 0001:000a5a20       __acrt_IsValidLocaleName   00000001800a6a20 f   libucrtd:winapi_thunks.obj
 0001:000a5a80       __acrt_LCIDToLocaleName    00000001800a6a80 f   libucrtd:winapi_thunks.obj
 0001:000a5af0       __acrt_LCMapStringEx       00000001800a6af0 f   libucrtd:winapi_thunks.obj
 0001:000a5bd0       __acrt_LocaleNameToLCID    00000001800a6bd0 f   libucrtd:winapi_thunks.obj
 0001:000a5c20       __acrt_LocateXStateFeature 00000001800a6c20 f   libucrtd:winapi_thunks.obj
 0001:000a5c80       __acrt_MessageBoxA         00000001800a6c80 f   libucrtd:winapi_thunks.obj
 0001:000a5ce0       __acrt_MessageBoxW         00000001800a6ce0 f   libucrtd:winapi_thunks.obj
 0001:000a5d40       __acrt_RoInitialize        00000001800a6d40 f   libucrtd:winapi_thunks.obj
 0001:000a5d80       __acrt_RoUninitialize      00000001800a6d80 f   libucrtd:winapi_thunks.obj
 0001:000a5db0       __acrt_RtlGenRandom        00000001800a6db0 f   libucrtd:winapi_thunks.obj
 0001:000a5e00       __acrt_SetThreadStackGuarantee 00000001800a6e00 f   libucrtd:winapi_thunks.obj
 0001:000a5e40       __acrt_can_show_message_box 00000001800a6e40 f   libucrtd:winapi_thunks.obj
 0001:000a5e80       __acrt_can_use_vista_locale_apis 00000001800a6e80 f   libucrtd:winapi_thunks.obj
 0001:000a5eb0       __acrt_can_use_xstate_apis 00000001800a6eb0 f   libucrtd:winapi_thunks.obj
 0001:000a5ee0       __acrt_eagerly_load_locale_apis 00000001800a6ee0 f   libucrtd:winapi_thunks.obj
 0001:000a5f20       __acrt_get_parent_window   00000001800a6f20 f   libucrtd:winapi_thunks.obj
 0001:000a5fa0       __acrt_initialize_winapi_thunks 00000001800a6fa0 f   libucrtd:winapi_thunks.obj
 0001:000a6020       __acrt_is_interactive      00000001800a7020 f   libucrtd:winapi_thunks.obj
 0001:000a6100       __acrt_uninitialize_winapi_thunks 00000001800a7100 f   libucrtd:winapi_thunks.obj
 0001:000a61a0       _chvalidator               00000001800a71a0 f   libucrtd:isctype.obj
 0001:000a6210       _chvalidator_l             00000001800a7210 f   libucrtd:isctype.obj
 0001:000a62c0       _isctype                   00000001800a72c0 f   libucrtd:isctype.obj
 0001:000a6310       _isctype_l                 00000001800a7310 f   libucrtd:isctype.obj
 0001:000a6540       _isleadbyte_fast_internal  00000001800a7540 f i libucrtd:isctype.obj
 0001:000a6570       ??$?RU__crt_stdio_stream_data@@@__crt_internal_free_policy@@QEBAXQEBU__crt_stdio_stream_data@@@Z 00000001800a7570 f i libucrtd:stream.obj
 0001:000a65a0       ??0?$__crt_unique_heap_ptr@U__crt_stdio_stream_data@@U__crt_internal_free_policy@@@@QEAA@QEAU__crt_stdio_stream_data@@@Z 00000001800a75a0 f i libucrtd:stream.obj
 0001:000a65c0       ??0__crt_stdio_stream@@QEAA@QEAU__crt_stdio_stream_data@@@Z 00000001800a75c0 f i libucrtd:stream.obj
 0001:000a65e0       ??0__crt_stdio_stream@@QEAA@XZ 00000001800a75e0 f i libucrtd:stream.obj
 0001:000a6600       ??1?$__crt_unique_heap_ptr@U__crt_stdio_stream_data@@U__crt_internal_free_policy@@@@QEAA@XZ 00000001800a7600 f i libucrtd:stream.obj
 0001:000a6620       ?__acrt_stdio_allocate_stream@@YA?AV__crt_stdio_stream@@XZ 00000001800a7620 f   libucrtd:stream.obj
 0001:000a66e0       ?__acrt_stdio_free_stream@@YAXV__crt_stdio_stream@@@Z 00000001800a76e0 f   libucrtd:stream.obj
 0001:000a6780       ?deallocate@__crt_stdio_stream@@QEAAXXZ 00000001800a7780 f i libucrtd:stream.obj
 0001:000a67a0       ?detach@?$__crt_unique_heap_ptr@U__crt_stdio_stream_data@@U__crt_internal_free_policy@@@@QEAAPEAU__crt_stdio_stream_data@@XZ 00000001800a77a0 f i libucrtd:stream.obj
 0001:000a6980       ?lock@__crt_stdio_stream@@QEBAXXZ 00000001800a7980 f i libucrtd:stream.obj
 0001:000a69a0       ?release@?$__crt_unique_heap_ptr@U__crt_stdio_stream_data@@U__crt_internal_free_policy@@@@QEAAXXZ 00000001800a79a0 f i libucrtd:stream.obj
 0001:000a69d0       ?try_allocate@__crt_stdio_stream@@QEAA_NXZ 00000001800a79d0 f i libucrtd:stream.obj
 0001:000a6a40       ??$__acrt_stdio_parse_mode@D@@YA?AU__acrt_stdio_stream_mode@@QEBD@Z 00000001800a7a40 f i libucrtd:openfile.obj
 0001:000a7550       ??$__acrt_stdio_parse_mode@_W@@YA?AU__acrt_stdio_stream_mode@@QEB_W@Z 00000001800a8550 f i libucrtd:openfile.obj
 0001:000a84f0       ??$tcsncmp@AEAPEBDAEAY02$$CBD_K@?$__crt_char_traits@D@@SAHAEAPEBDAEAY02$$CBD$$QEA_K@Z 00000001800a94f0 f i libucrtd:openfile.obj
 0001:000a8530       ??$tcsncmp@AEAPEB_WAEAY02$$CB_W_K@?$__crt_char_traits@_W@@SAHAEAPEB_WAEAY02$$CB_W$$QEA_K@Z 00000001800a9530 f i libucrtd:openfile.obj
 0001:000a8570       ??$tcsnicmp@AEAPEBDAEAY04$$CBD_K@?$__crt_char_traits@D@@SAHAEAPEBDAEAY04$$CBD$$QEA_K@Z 00000001800a9570 f i libucrtd:openfile.obj
 0001:000a85b0       ??$tcsnicmp@AEAPEBDAEAY06$$CBD_K@?$__crt_char_traits@D@@SAHAEAPEBDAEAY06$$CBD$$QEA_K@Z 00000001800a95b0 f i libucrtd:openfile.obj
 0001:000a85f0       ??$tcsnicmp@AEAPEBDAEAY07$$CBD_K@?$__crt_char_traits@D@@SAHAEAPEBDAEAY07$$CBD$$QEA_K@Z 00000001800a95f0 f i libucrtd:openfile.obj
 0001:000a8630       ??$tcsnicmp@AEAPEB_WAEAY04$$CB_W_K@?$__crt_char_traits@_W@@SAHAEAPEB_WAEAY04$$CB_W$$QEA_K@Z 00000001800a9630 f i libucrtd:openfile.obj
 0001:000a8670       ??$tcsnicmp@AEAPEB_WAEAY06$$CB_W_K@?$__crt_char_traits@_W@@SAHAEAPEB_WAEAY06$$CB_W$$QEA_K@Z 00000001800a9670 f i libucrtd:openfile.obj
 0001:000a86b0       ??$tcsnicmp@AEAPEB_WAEAY07$$CB_W_K@?$__crt_char_traits@_W@@SAHAEAPEB_WAEAY07$$CB_W$$QEA_K@Z 00000001800a96b0 f i libucrtd:openfile.obj
 0001:000a86f0       ??$tsopen_s@PEAHAEBQEBDAEBHAEBHH@?$__crt_char_traits@D@@SAH$$QEAPEAHAEBQEBDAEBH2$$QEAH@Z 00000001800a96f0 f i libucrtd:openfile.obj
 0001:000a8740       ??$tsopen_s@PEAHAEBQEB_WAEBHAEBHH@?$__crt_char_traits@_W@@SAH$$QEAPEAHAEBQEB_WAEBH2$$QEAH@Z 00000001800a9740 f i libucrtd:openfile.obj
 0001:000a8790       ?__acrt_stdio_parse_mode_D@@YA_NAEAU__acrt_stdio_stream_mode@@@Z 00000001800a9790 f i libucrtd:openfile.obj
 0001:000a87c0       ?__acrt_stdio_parse_mode_N@@YA_NAEAU__acrt_stdio_stream_mode@@@Z 00000001800a97c0 f i libucrtd:openfile.obj
 0001:000a87e0       ?__acrt_stdio_parse_mode_R@@YA_NAEAU__acrt_stdio_stream_mode@@AEA_N@Z 00000001800a97e0 f i libucrtd:openfile.obj
 0001:000a8820       ?__acrt_stdio_parse_mode_S@@YA_NAEAU__acrt_stdio_stream_mode@@AEA_N@Z 00000001800a9820 f i libucrtd:openfile.obj
 0001:000a8860       ?__acrt_stdio_parse_mode_T@@YA_NAEAU__acrt_stdio_stream_mode@@@Z 00000001800a9860 f i libucrtd:openfile.obj
 0001:000a8890       ?__acrt_stdio_parse_mode_b@@YA_NAEAU__acrt_stdio_stream_mode@@@Z 00000001800a9890 f i libucrtd:openfile.obj
 0001:000a88c0       ?__acrt_stdio_parse_mode_c@@YA_NAEAU__acrt_stdio_stream_mode@@AEA_N@Z 00000001800a98c0 f i libucrtd:openfile.obj
 0001:000a8900       ?__acrt_stdio_parse_mode_n@@YA_NAEAU__acrt_stdio_stream_mode@@AEA_N@Z 00000001800a9900 f i libucrtd:openfile.obj
 0001:000a8940       ?__acrt_stdio_parse_mode_plus@@YA_NAEAU__acrt_stdio_stream_mode@@AEA_N@Z 00000001800a9940 f i libucrtd:openfile.obj
 0001:000a89c0       ?__acrt_stdio_parse_mode_t@@YA_NAEAU__acrt_stdio_stream_mode@@@Z 00000001800a99c0 f i libucrtd:openfile.obj
 0001:000a89f0       ?__acrt_stdio_parse_mode_x@@YA_NAEAU__acrt_stdio_stream_mode@@@Z 00000001800a99f0 f i libucrtd:openfile.obj
 0001:000a8a20       _openfile                  00000001800a9a20 f   libucrtd:openfile.obj
 0001:000a8a70       _wopenfile                 00000001800a9a70 f   libucrtd:openfile.obj
 0001:000a8d90       _close                     00000001800a9d90 f   libucrtd:close.obj
 0001:000a8f80       _close_nolock              00000001800a9f80 f   libucrtd:close.obj
 0001:000a8ff0       ?has_crt_buffer@__crt_stdio_stream@@QEBA_NXZ 00000001800a9ff0 f i libucrtd:_freebuf.obj
 0001:000a9010       __acrt_stdio_free_buffer_nolock 00000001800aa010 f   libucrtd:_freebuf.obj
 0001:000a96c0       ?__acrt_stdio_reset_buffer@@YAXV__crt_stdio_stream@@@Z 00000001800aa6c0 f i libucrtd:fflush.obj
 0001:000a97f0       ?has_all_of@__crt_stdio_stream@@QEBA_NJ@Z 00000001800aa7f0 f i libucrtd:fflush.obj
 0001:000a98d0       __acrt_stdio_flush_nolock  00000001800aa8d0 f   libucrtd:fflush.obj
 0001:000a99e0       _fflush_nolock             00000001800aa9e0 f   libucrtd:fflush.obj
 0001:000a9a70       _flushall                  00000001800aaa70 f   libucrtd:fflush.obj
 0001:000a9a80       fflush                     00000001800aaa80 f   libucrtd:fflush.obj
 0001:000aa4e0       ?has_big_buffer@__crt_stdio_stream@@QEBA_NXZ 00000001800ab4e0 f i libucrtd:_flsbuf.obj
 0001:000aa600       __acrt_stdio_flush_and_write_narrow_nolock 00000001800ab600 f   libucrtd:_flsbuf.obj
 0001:000aa630       __acrt_stdio_flush_and_write_wide_nolock 00000001800ab630 f   libucrtd:_flsbuf.obj
 0001:000aaa50       __acrt_get_begin_thread_init_policy 00000001800aba50 f   libucrtd:win_policies.obj
 0001:000aaa60       __acrt_get_developer_information_policy 00000001800aba60 f   libucrtd:win_policies.obj
 0001:000aaa80       __acrt_get_process_end_policy 00000001800aba80 f   libucrtd:win_policies.obj
 0001:000aaa90       __acrt_get_windowing_model_policy 00000001800aba90 f   libucrtd:win_policies.obj
 0001:000aae50       ??$__acrt_mbs_to_wcs_cp@U__crt_win32_buffer_internal_dynamic_resizing@@@@YAHQEBDAEAV?$__crt_win32_buffer@_WU__crt_win32_buffer_internal_dynamic_resizing@@@@I@Z 00000001800abe50 f i libucrtd:argv_wildcards.obj
 0001:000aaea0       ??$__acrt_wcs_to_mbs_cp@U__crt_win32_buffer_internal_dynamic_resizing@@@@YAHQEB_WAEAV?$__crt_win32_buffer@DU__crt_win32_buffer_internal_dynamic_resizing@@@@I@Z 00000001800abea0 f i libucrtd:argv_wildcards.obj
 0001:000ac320       ??$tcsncpy_s@AEAPEAD_KAEAPEADAEB_K@?$__crt_char_traits@D@@SAHAEAPEAD$$QEA_K0AEB_K@Z 00000001800ad320 f i libucrtd:argv_wildcards.obj
 0001:000ac370       ??$tcsncpy_s@AEAPEA_W_KAEAPEA_WAEB_K@?$__crt_char_traits@_W@@SAHAEAPEA_W$$QEA_K0AEB_K@Z 00000001800ad370 f i libucrtd:argv_wildcards.obj
 0001:000ac3c0       ??$tcsncpy_s@PEADAEB_KAEBQEBDAEB_K@?$__crt_char_traits@D@@SAH$$QEAPEADAEB_KAEBQEBD1@Z 00000001800ad3c0 f i libucrtd:argv_wildcards.obj
 0001:000ac410       ??$tcsncpy_s@PEAD_KAEBQEBDAEB_K@?$__crt_char_traits@D@@SAH$$QEAPEAD$$QEA_KAEBQEBDAEB_K@Z 00000001800ad410 f i libucrtd:argv_wildcards.obj
 0001:000ac460       ??$tcsncpy_s@PEA_WAEB_KAEBQEB_WAEB_K@?$__crt_char_traits@_W@@SAH$$QEAPEA_WAEB_KAEBQEB_W1@Z 00000001800ad460 f i libucrtd:argv_wildcards.obj
 0001:000ac4b0       ??$tcsncpy_s@PEA_W_KAEBQEB_WAEB_K@?$__crt_char_traits@_W@@SAH$$QEAPEA_W$$QEA_KAEBQEB_WAEB_K@Z 00000001800ad4b0 f i libucrtd:argv_wildcards.obj
 0001:000ac500       ??$tcspbrk@AEAPEADAEAY02$$CBD@?$__crt_char_traits@D@@SAPEADAEAPEADAEAY02$$CBD@Z 00000001800ad500 f i libucrtd:argv_wildcards.obj
 0001:000ac530       ??$tcspbrk@AEAPEA_WAEAY02$$CB_W@?$__crt_char_traits@_W@@SAPEA_WAEAPEA_WAEAY02$$CB_W@Z 00000001800ad530 f i libucrtd:argv_wildcards.obj
 0001:000ac560       ??0?$__crt_unique_handle_t@U__crt_findfile_traits@@@@QEAA@QEAX@Z 00000001800ad560 f i libucrtd:argv_wildcards.obj
 0001:000ac580       ??0?$__crt_win32_buffer@DU__crt_win32_buffer_internal_dynamic_resizing@@@@QEAA@XZ 00000001800ad580 f i libucrtd:argv_wildcards.obj
 0001:000ac5e0       ??0?$__crt_win32_buffer@_WU__crt_win32_buffer_internal_dynamic_resizing@@@@QEAA@XZ 00000001800ad5e0 f i libucrtd:argv_wildcards.obj
 0001:000ac6c0       ??1?$__crt_unique_handle_t@U__crt_findfile_traits@@@@QEAA@XZ 00000001800ad6c0 f i libucrtd:argv_wildcards.obj
 0001:000ac6e0       ??1?$__crt_win32_buffer@DU__crt_win32_buffer_internal_dynamic_resizing@@@@QEAA@XZ 00000001800ad6e0 f i libucrtd:argv_wildcards.obj
 0001:000ac710       ??1?$__crt_win32_buffer@_WU__crt_win32_buffer_internal_dynamic_resizing@@@@QEAA@XZ 00000001800ad710 f i libucrtd:argv_wildcards.obj
 0001:000aca10       ?_deallocate@?$__crt_win32_buffer@DU__crt_win32_buffer_internal_dynamic_resizing@@@@AEAAXXZ 00000001800ada10 f i libucrtd:argv_wildcards.obj
 0001:000aca50       ?_deallocate@?$__crt_win32_buffer@_WU__crt_win32_buffer_internal_dynamic_resizing@@@@AEAAXXZ 00000001800ada50 f i libucrtd:argv_wildcards.obj
 0001:000aca90       ?allocate@?$__crt_win32_buffer@DU__crt_win32_buffer_internal_dynamic_resizing@@@@QEAAH_K@Z 00000001800ada90 f i libucrtd:argv_wildcards.obj
 0001:000acb10       ?allocate@?$__crt_win32_buffer@_WU__crt_win32_buffer_internal_dynamic_resizing@@@@QEAAH_K@Z 00000001800adb10 f i libucrtd:argv_wildcards.obj
 0001:000acba0       ?allocate@__crt_win32_buffer_internal_dynamic_resizing@@SAHQEAPEAX_KAEBV__crt_win32_buffer_empty_debug_info@@@Z 00000001800adba0 f i libucrtd:argv_wildcards.obj
 0001:000acd00       ?capacity@?$__crt_win32_buffer@DU__crt_win32_buffer_internal_dynamic_resizing@@@@QEBA_KXZ 00000001800add00 f i libucrtd:argv_wildcards.obj
 0001:000acd10       ?capacity@?$__crt_win32_buffer@_WU__crt_win32_buffer_internal_dynamic_resizing@@@@QEBA_KXZ 00000001800add10 f i libucrtd:argv_wildcards.obj
 0001:000acd20       ?close@?$__crt_unique_handle_t@U__crt_findfile_traits@@@@QEAAXXZ 00000001800add20 f i libucrtd:argv_wildcards.obj
 0001:000acd60       ?close@__crt_findfile_traits@@SA_NPEAX@Z 00000001800add60 f i libucrtd:argv_wildcards.obj
 0001:000acda0       ?data@?$__crt_win32_buffer@DU__crt_win32_buffer_internal_dynamic_resizing@@@@QEAAPEADXZ 00000001800adda0 f i libucrtd:argv_wildcards.obj
 0001:000acdb0       ?data@?$__crt_win32_buffer@_WU__crt_win32_buffer_internal_dynamic_resizing@@@@QEAAPEA_WXZ 00000001800addb0 f i libucrtd:argv_wildcards.obj
 0001:000acdc0       ?deallocate@__crt_win32_buffer_internal_dynamic_resizing@@SAXQEAXAEBV__crt_win32_buffer_empty_debug_info@@@Z 00000001800addc0 f i libucrtd:argv_wildcards.obj
 0001:000acdf0       ?debug_info@?$__crt_win32_buffer@DU__crt_win32_buffer_internal_dynamic_resizing@@@@QEBAAEBV__crt_win32_buffer_empty_debug_info@@XZ 00000001800addf0 f i libucrtd:argv_wildcards.obj
 0001:000ace00       ?debug_info@?$__crt_win32_buffer@_WU__crt_win32_buffer_internal_dynamic_resizing@@@@QEBAAEBV__crt_win32_buffer_empty_debug_info@@XZ 00000001800ade00 f i libucrtd:argv_wildcards.obj
 0001:000ad1f0       ?get@?$__crt_unique_handle_t@U__crt_findfile_traits@@@@QEBAPEAXXZ 00000001800ae1f0 f i libucrtd:argv_wildcards.obj
 0001:000ad260       ?get_invalid_value@__crt_findfile_traits@@SAPEAXXZ 00000001800ae260 f i libucrtd:argv_wildcards.obj
 0001:000ad320       ?set_to_nullptr@?$__crt_win32_buffer@DU__crt_win32_buffer_internal_dynamic_resizing@@@@QEAAXXZ 00000001800ae320 f i libucrtd:argv_wildcards.obj
 0001:000ad360       ?set_to_nullptr@?$__crt_win32_buffer@_WU__crt_win32_buffer_internal_dynamic_resizing@@@@QEAAXXZ 00000001800ae360 f i libucrtd:argv_wildcards.obj
 0001:000ad3a0       ?size@?$__crt_win32_buffer@DU__crt_win32_buffer_internal_dynamic_resizing@@@@QEAAX_K@Z 00000001800ae3a0 f i libucrtd:argv_wildcards.obj
 0001:000ad3c0       ?size@?$__crt_win32_buffer@_WU__crt_win32_buffer_internal_dynamic_resizing@@@@QEAAX_K@Z 00000001800ae3c0 f i libucrtd:argv_wildcards.obj
 0001:000ad420       ?strpbrk@@YAPEADQEADQEBD@Z 00000001800ae420 f i libucrtd:argv_wildcards.obj
 0001:000ad450       ?wcspbrk@@YAPEA_WPEA_WPEB_W@Z 00000001800ae450 f i libucrtd:argv_wildcards.obj
 0001:000ad480       __acrt_expand_narrow_argv_wildcards 00000001800ae480 f   libucrtd:argv_wildcards.obj
 0001:000ad4b0       __acrt_expand_wide_argv_wildcards 00000001800ae4b0 f   libucrtd:argv_wildcards.obj
 0001:000ad570       ??$initialize_from_array@$$BY10BAA@E@?$dual_state_global@PEAE@__crt_state_management@@QEAAXAEAY10BAA@E@Z 00000001800ae570 f i libucrtd:mbctype.obj
 0001:000ad5e0       ??$initialize_from_array@$$BY10BAB@E@?$dual_state_global@PEAE@__crt_state_management@@QEAAXAEAY10BAB@E@Z 00000001800ae5e0 f i libucrtd:mbctype.obj
 0001:000ad8c0       ?dangerous_get_state_array@?$dual_state_global@PEAE@__crt_state_management@@QEAAPEAPEAEXZ 00000001800ae8c0 f i libucrtd:mbctype.obj
