 OPOSGraphicDisplay

 Timestamp is 600f7b7e (Tue Jan 26 11:16:30 2021)

 Preferred load address is 0000000180000000

 Start         Length     Name                   Class
 0001:00000000 00001400H .text$di                CODE
 0001:00001400 000d5860H .text$mn                CODE
 0001:000d6c60 00000040H .text$mn$00             CODE
 0001:000d6ca0 00001390H .text$x                 CODE
 0001:000d8030 000001b4H .text$yd                CODE
 0002:00000000 000006d8H .idata$5                DATA
 0002:000006d8 00000028H .00cfg                  DATA
 0002:00000700 00000008H .CRT$XCA                DATA
 0002:00000708 00000008H .CRT$XCL                DATA
 0002:00000710 000000d8H .CRT$XCU                DATA
 0002:000007e8 00000008H .CRT$XCZ                DATA
 0002:000007f0 00000008H .CRT$XIA                DATA
 0002:000007f8 00000028H .CRT$XIC                DATA
 0002:00000820 00000008H .CRT$XIZ                DATA
 0002:00000828 00000008H .CRT$XLA                DATA
 0002:00000830 00000008H .CRT$XLZ                DATA
 0002:00000838 00000008H .CRT$XPA                DATA
 0002:00000840 00000010H .CRT$XPX                DATA
 0002:00000850 00000008H .CRT$XPXA               DATA
 0002:00000858 00000008H .CRT$XPZ                DATA
 0002:00000860 00000008H .CRT$XTA                DATA
 0002:00000868 00000008H .CRT$XTZ                DATA
 0002:00000870 00000000H .gehcont$y              DATA
 0002:00000870 00000000H .gfids$y                DATA
 0002:00000870 0003bd90H .rdata                  DATA
 0002:0003c600 00000008H .rdata$CastGuardVftablesA DATA
 0002:0003c608 00000008H .rdata$CastGuardVftablesC DATA
 0002:0003c610 00000028H .rdata$T                DATA
 0002:0003c638 0000056cH .rdata$r                DATA
 0002:0003cba4 0000047cH .rdata$zzzdbg           DATA
 0002:0003d020 00000008H .rtc$IAA                DATA
 0002:0003d028 00000030H .rtc$IMZ                DATA
 0002:0003d058 00000008H .rtc$IZZ                DATA
 0002:0003d060 00000008H .rtc$TAA                DATA
 0002:0003d068 00000030H .rtc$TMZ                DATA
 0002:0003d098 00000008H .rtc$TZZ                DATA
 0002:0003d0a0 00000004H .tls                    DATA
 0002:0003d0a4 00000004H .tls$                   DATA
 0002:0003d0a8 00000008H .tls$ZZZ                DATA
 0002:0003d0b0 00009878H .xdata                  DATA
 0002:00046928 00000150H .xdata$x                DATA
 0002:00046a78 00000008H ATL$__a                 DATA
 0002:00046a80 00000010H ATL$__z                 DATA
 0002:00046a90 000000b0H .edata                  DATA
 0002:00046b40 00000078H .idata$2                DATA
 0002:00046bb8 00000018H .idata$3                DATA
 0002:00046bd0 000006d8H .idata$4                DATA
 0002:000472a8 00000dbeH .idata$6                DATA
 0003:00000000 00000ec8H .data                   DATA
 0003:00000ec8 00000198H .data$r                 DATA
 0003:00001060 00003e9cH .bss                    DATA
 0004:00000000 0000c258H .pdata                  DATA
 0005:00000000 00000094H _RDATA                  DATA
 0006:00000000 00000220H .rsrc$01                DATA
 0006:00000220 00004350H .rsrc$02                DATA

  Address         Publics by Value              Rva+Base               Lib:Object

 0000:00000000       __guard_fids_table         0000000000000000     <absolute>
 0000:00000000       __hybrid_code_map_count    0000000000000000     <absolute>
 0000:00000000       __guard_iat_count          0000000000000000     <absolute>
 0000:00000000       __enclave_config           0000000000000000     <absolute>
 0000:00000000       __arm64x_native_entrypoint 0000000000000000     <absolute>
 0000:00000000       __guard_iat_table          0000000000000000     <absolute>
 0000:00000000       __guard_eh_cont_count      0000000000000000     <absolute>
 0000:00000000       __hybrid_auxiliary_iat     0000000000000000     <absolute>
 0000:00000000       __hybrid_code_map          0000000000000000     <absolute>
 0000:00000000       __dynamic_value_reloc_table 0000000000000000     <absolute>
 0000:00000000       __arm64x_redirection_metadata_count 0000000000000000     <absolute>
 0000:00000000       __guard_fids_count         0000000000000000     <absolute>
 0000:00000000       __volatile_metadata        0000000000000000     <absolute>
 0000:00000000       __x64_code_ranges_to_entry_points 0000000000000000     <absolute>
 0000:00000000       __arm64x_extra_rfe_table_size 0000000000000000     <absolute>
 0000:00000000       ___safe_se_handler_table   0000000000000000     <absolute>
 0000:00000000       __x64_code_ranges_to_entry_points_count 0000000000000000     <absolute>
 0000:00000000       __arm64x_redirection_metadata 0000000000000000     <absolute>
 0000:00000000       __guard_longjmp_count      0000000000000000     <absolute>
 0000:00000000       ___safe_se_handler_count   0000000000000000     <absolute>
 0000:00000000       __AbsoluteZero             0000000000000000     <absolute>
 0000:00000000       __guard_longjmp_table      0000000000000000     <absolute>
 0000:00000000       __arm64x_extra_rfe_table   0000000000000000     <absolute>
 0000:00000000       __guard_eh_cont_table      0000000000000000     <absolute>
 0000:00000100       __guard_flags              0000000000000100     <absolute>
 0000:00000000       __ImageBase                0000000180000000     <linker-defined>
 0001:00001400       ?_assert@@YAXPEB_W0I@Z     0000000180002400 f   Assert.obj
 0001:00001500       __local_stdio_printf_options 0000000180002500 f i Assert.obj
 0001:00001510       __vswprintf_l              0000000180002510 f i Assert.obj
 0001:00001570       _swprintf                  0000000180002570 f i Assert.obj
 0001:000015f0       _vswprintf_c_l             00000001800025f0 f i Assert.obj
 0001:00001680       _vswprintf_l               0000000180002680 f i Assert.obj
 0001:000016e0       ?cw_memcpy@@YAHPEADPEB_WH@Z 00000001800026e0 f   CWString.obj
 0001:00001770       ?cw_memcpy@@YAHPEA_WPEBDH@Z 0000000180002770 f   CWString.obj
 0001:000017f0       ?cw_memcpy@@YAHPEADPEBDH@Z 00000001800027f0 f   CWString.obj
 0001:00001890       ?cw_memcpy@@YAHPEA_WPEB_WH@Z 0000000180002890 f   CWString.obj
 0001:00001900       ?cw_memset@@YAXPEADDH@Z    0000000180002900 f   CWString.obj
 0001:00001970       ?cw_memset@@YAXPEA_W_WH@Z  0000000180002970 f   CWString.obj
 0001:00001a10       ?cw_strlen@@YAHPEBD@Z      0000000180002a10 f   CWString.obj
 0001:00001a80       ?cw_strlen@@YAHPEB_W@Z     0000000180002a80 f   CWString.obj
 0001:00001af0       ?cw_strcpy@@YAHPEADPEB_W@Z 0000000180002af0 f   CWString.obj
 0001:00001b40       ?cw_strcpy@@YAHPEA_WPEBD@Z 0000000180002b40 f   CWString.obj
 0001:00001b90       ?cw_strcpy@@YAHPEADPEBD@Z  0000000180002b90 f   CWString.obj
 0001:00001be0       ?cw_strcpy@@YAHPEA_WPEB_W@Z 0000000180002be0 f   CWString.obj
 0001:00001c30       ?cw_strcat@@YAHPEADPEB_W@Z 0000000180002c30 f   CWString.obj
 0001:00001c90       ?cw_strcat@@YAHPEA_WPEBD@Z 0000000180002c90 f   CWString.obj
 0001:00001cf0       ?cw_strcat@@YAHPEADPEBD@Z  0000000180002cf0 f   CWString.obj
 0001:00001d50       ?cw_strcat@@YAHPEA_WPEB_W@Z 0000000180002d50 f   CWString.obj
 0001:00001db0       ?cw_dup@@YAXPEBDAEAHAEAPEA_W1@Z 0000000180002db0 f   CWString.obj
 0001:00001ec0       ?cw_dup@@YAXPEB_WAEAHAEAPEAD1@Z 0000000180002ec0 f   CWString.obj
 0001:00001fb0       ?DupChar@_CW@@AEAAXXZ      0000000180002fb0 f   CWString.obj
 0001:00002010       ?DupWide@_CW@@AEAAXXZ      0000000180003010 f   CWString.obj
 0001:00002080       ?GetCharsMbcs@_CW@@QEAAHXZ 0000000180003080 f   CWString.obj
 0001:000020f0       ?GetCharsWide@_CW@@QEAAHXZ 00000001800030f0 f   CWString.obj
 0001:00002160       ?SetVARIANT_BOOL@OposVariant@@QEAAXF@Z 0000000180003160 f   OposVariant.obj
 0001:000021d0       ?SetVARIANT_BOOL_Ptr@OposVariant@@QEAAXPEAFAEAJ@Z 00000001800031d0 f   OposVariant.obj
 0001:00002240       ?GetLONG@OposVariant@@QEAAJXZ 0000000180003240 f   OposVariant.obj
 0001:000022a0       ?ChangeLONG@OposVariant@@QEAAXPEAJAEAJ@Z 00000001800032a0 f   OposVariant.obj
 0001:00002350       ?SetLONG@OposVariant@@QEAAXJ@Z 0000000180003350 f   OposVariant.obj
 0001:000023b0       ?SetLONG_Ptr@OposVariant@@QEAAXPEAJAEAJ@Z 00000001800033b0 f   OposVariant.obj
 0001:00002420       ?ChangeCURRENCY@OposVariant@@QEAAXPEATtagCY@@AEAJ@Z 0000000180003420 f   OposVariant.obj
 0001:000024d0       ?SetCURRENCY@OposVariant@@QEAAXTtagCY@@@Z 00000001800034d0 f   OposVariant.obj
 0001:00002530       ?SetCURRENCY_Ptr@OposVariant@@QEAAXPEATtagCY@@AEAJ@Z 0000000180003530 f   OposVariant.obj
 0001:000025a0       ?ChangeBSTR@OposVariant@@QEAAXPEAPEA_WAEAJ@Z 00000001800035a0 f   OposVariant.obj
 0001:00002650       ?SetBSTR@OposVariant@@QEAAXPEA_WAEAJ@Z 0000000180003650 f   OposVariant.obj
 0001:000026d0       ?SetBSTR_Copy@OposVariant@@QEAAXPEA_WAEAJ@Z 00000001800036d0 f   OposVariant.obj
 0001:00002780       ?SetBSTR_OutPtr@OposVariant@@QEAA_NPEAPEA_WAEAJ@Z 0000000180003780 f   OposVariant.obj
 0001:000027f0       ?SetBSTR_InOutPtr@OposVariant@@QEAA_NPEAPEA_WAEAJ@Z 00000001800037f0 f   OposVariant.obj
 0001:00002870       ?SetVARIANT@OposVariant@@QEAAXAEAUtagVARIANT@@GAEAJ@Z 0000000180003870 f   OposVariant.obj
 0001:00002910       ?SetVARIANT_Ptr@OposVariant@@QEAAXAEAPEAUtagVARIANT@@GAEAJ@Z 0000000180003910 f   OposVariant.obj
 0001:000029c0       ?SetString@OposVariant@@QEAAXPEB_WAEAJ@Z 00000001800039c0 f   OposVariant.obj
 0001:00002a70       ?SetDispatch_Ptr@OposVariant@@QEAAXPEAUIDispatch@@AEAJ@Z 0000000180003a70 f   OposVariant.obj
 0001:00002b00       ??0OposDispParms@@QEAA@PEAVOposVariant@@H@Z 0000000180003b00 f   OposVariant.obj
 0001:00002c10       ??1OposDispParms@@QEAA@XZ  0000000180003c10 f   OposVariant.obj
 0001:00002c60       ??$AtlMultiply@_K@ATL@@YAJPEA_K_K1@Z 0000000180003c60 f i OposVariant.obj
 0001:00002ce0       ??0?$CHeapPtr@_WVCCRTAllocator@ATL@@@ATL@@QEAA@XZ 0000000180003ce0 f i OposVariant.obj
 0001:00002d20       ??0?$CHeapPtrBase@_WVCCRTAllocator@ATL@@@ATL@@IEAA@XZ 0000000180003d20 f i OposVariant.obj
 0001:00002d40       ??0?$CSimpleArray@GV?$CSimpleArrayEqualHelper@G@ATL@@@ATL@@QEAA@XZ 0000000180003d40 f i OposVariant.obj
 0001:00002d80       ??0?$CTraceCategoryEx@$00$0A@@ATL@@QEAA@PEB_W@Z 0000000180003d80 f i OposVariant.obj
 0001:00002dc0       ??0?$CTraceCategoryEx@$01$0A@@ATL@@QEAA@PEB_W@Z 0000000180003dc0 f i OposVariant.obj
 0001:00002e00       ??0?$CTraceCategoryEx@$03$0A@@ATL@@QEAA@PEB_W@Z 0000000180003e00 f i OposVariant.obj
 0001:00002e40       ??0?$CTraceCategoryEx@$07$0A@@ATL@@QEAA@PEB_W@Z 0000000180003e40 f i OposVariant.obj
 0001:00002e80       ??0?$CTraceCategoryEx@$0BA@$0A@@ATL@@QEAA@PEB_W@Z 0000000180003e80 f i OposVariant.obj
 0001:00002ec0       ??0?$CTraceCategoryEx@$0BAA@$0A@@ATL@@QEAA@PEB_W@Z 0000000180003ec0 f i OposVariant.obj
 0001:00002f00       ??0?$CTraceCategoryEx@$0BAAA@$0A@@ATL@@QEAA@PEB_W@Z 0000000180003f00 f i OposVariant.obj
 0001:00002f40       ??0?$CTraceCategoryEx@$0BAAAA@$0A@@ATL@@QEAA@PEB_W@Z 0000000180003f40 f i OposVariant.obj
 0001:00002f80       ??0?$CTraceCategoryEx@$0BAAAAA@$0A@@ATL@@QEAA@PEB_W@Z 0000000180003f80 f i OposVariant.obj
 0001:00002fc0       ??0?$CTraceCategoryEx@$0CA@$0A@@ATL@@QEAA@PEB_W@Z 0000000180003fc0 f i OposVariant.obj
 0001:00003000       ??0?$CTraceCategoryEx@$0CAA@$0A@@ATL@@QEAA@PEB_W@Z 0000000180004000 f i OposVariant.obj
 0001:00003040       ??0?$CTraceCategoryEx@$0CAAA@$0A@@ATL@@QEAA@PEB_W@Z 0000000180004040 f i OposVariant.obj
 0001:00003080       ??0?$CTraceCategoryEx@$0CAAAA@$0A@@ATL@@QEAA@PEB_W@Z 0000000180004080 f i OposVariant.obj
 0001:000030c0       ??0?$CTraceCategoryEx@$0CAAAAA@$0A@@ATL@@QEAA@PEB_W@Z 00000001800040c0 f i OposVariant.obj
 0001:00003100       ??0?$CTraceCategoryEx@$0EA@$0A@@ATL@@QEAA@PEB_W@Z 0000000180004100 f i OposVariant.obj
 0001:00003140       ??0?$CTraceCategoryEx@$0EAA@$0A@@ATL@@QEAA@PEB_W@Z 0000000180004140 f i OposVariant.obj
 0001:00003180       ??0?$CTraceCategoryEx@$0EAAA@$0A@@ATL@@QEAA@PEB_W@Z 0000000180004180 f i OposVariant.obj
 0001:000031c0       ??0?$CTraceCategoryEx@$0EAAAA@$0A@@ATL@@QEAA@PEB_W@Z 00000001800041c0 f i OposVariant.obj
 0001:00003200       ??0?$CTraceCategoryEx@$0EAAAAA@$0A@@ATL@@QEAA@PEB_W@Z 0000000180004200 f i OposVariant.obj
 0001:00003240       ??0?$CTraceCategoryEx@$0IA@$0A@@ATL@@QEAA@PEB_W@Z 0000000180004240 f i OposVariant.obj
 0001:00003280       ??0?$CTraceCategoryEx@$0IAA@$0A@@ATL@@QEAA@PEB_W@Z 0000000180004280 f i OposVariant.obj
 0001:000032c0       ??0?$CTraceCategoryEx@$0IAAA@$0A@@ATL@@QEAA@PEB_W@Z 00000001800042c0 f i OposVariant.obj
 0001:00003300       ??0?$CTraceCategoryEx@$0IAAAA@$0A@@ATL@@QEAA@PEB_W@Z 0000000180004300 f i OposVariant.obj
 0001:00003340       ??0CAtlComModule@ATL@@QEAA@XZ 0000000180004340 f i OposVariant.obj
 0001:00003460       ??0CAtlWinModule@ATL@@QEAA@XZ 0000000180004460 f i OposVariant.obj
 0001:00003510       ??0CComCriticalSection@ATL@@QEAA@XZ 0000000180004510 f i OposVariant.obj
 0001:00003550       ??0CPreserveLastError@ATL@@QEAA@XZ 0000000180004550 f i OposVariant.obj
 0001:00003590       ??0CTraceFileAndLineInfo@ATL@@QEAA@PEBDH@Z 0000000180004590 f i OposVariant.obj
 0001:000035c0       ??0_ATL_COM_MODULE70@ATL@@QEAA@XZ 00000001800045c0 f i OposVariant.obj
 0001:00003600       ??0_ATL_WIN_MODULE70@ATL@@QEAA@XZ 0000000180004600 f i OposVariant.obj
 0001:00003650       ??1?$CHeapPtr@_WVCCRTAllocator@ATL@@@ATL@@QEAA@XZ 0000000180004650 f i OposVariant.obj
 0001:00003680       ??1?$CHeapPtrBase@_WVCCRTAllocator@ATL@@@ATL@@QEAA@XZ 0000000180004680 f i OposVariant.obj
 0001:000036b0       ??1?$CSimpleArray@GV?$CSimpleArrayEqualHelper@G@ATL@@@ATL@@QEAA@XZ 00000001800046b0 f i OposVariant.obj
 0001:000036e0       ??1CAtlComModule@ATL@@QEAA@XZ 00000001800046e0 f i OposVariant.obj
 0001:00003720       ??1CAtlWinModule@ATL@@QEAA@XZ 0000000180004720 f i OposVariant.obj
 0001:00003760       ??1CComBSTR@ATL@@QEAA@XZ   0000000180004760 f i OposVariant.obj
 0001:000037a0       ??1CComCriticalSection@ATL@@QEAA@XZ 00000001800047a0 f i OposVariant.obj
 0001:000037b0       ??1CPreserveLastError@ATL@@QEAA@XZ 00000001800047b0 f i OposVariant.obj
 0001:000037f0       ??1_ATL_COM_MODULE70@ATL@@QEAA@XZ 00000001800047f0 f i OposVariant.obj
 0001:00003830       ??1_ATL_WIN_MODULE70@ATL@@QEAA@XZ 0000000180004830 f i OposVariant.obj
 0001:00003880       ??1stringdispid@CComTypeInfoHolder@ATL@@QEAA@XZ 0000000180004880 f i OposVariant.obj
 0001:000038c0       ??A?$CSimpleArray@GV?$CSimpleArrayEqualHelper@G@ATL@@@ATL@@QEAAAEAGH@Z 00000001800048c0 f i OposVariant.obj
 0001:00003970       ??B?$CHeapPtrBase@_WVCCRTAllocator@ATL@@@ATL@@QEBAPEA_WXZ 0000000180004970 f i OposVariant.obj
 0001:00003980       ??B?$CTraceCategoryEx@$01$0A@@ATL@@QEAAIXZ 0000000180004980 f i OposVariant.obj
 0001:00003990       ??B?$CTraceCategoryEx@$0CA@$0A@@ATL@@QEAAIXZ 0000000180004990 f i OposVariant.obj
 0001:000039a0       ??RCTraceFileAndLineInfo@ATL@@QEBAXHIPEB_WZZ 00000001800049a0 f i OposVariant.obj
 0001:00003a50       ??_Estringdispid@CComTypeInfoHolder@ATL@@QEAAPEAXI@Z 0000000180004a50 f i OposVariant.obj
 0001:00003b00       ??_H@YAXPEAX_K1P6APEAX0@Z@Z 0000000180004b00 f i OposVariant.obj
 0001:00003b90       ??_I@YAXPEAX_K1P6AX0@Z@Z   0000000180004b90 f i OposVariant.obj
 0001:00003c40       ?Allocate@?$CHeapPtr@_WVCCRTAllocator@ATL@@@ATL@@QEAA_N_K@Z 0000000180004c40 f i OposVariant.obj
 0001:00003cc0       ?Allocate@CCRTAllocator@ATL@@SAPEAX_K@Z 0000000180004cc0 f i OposVariant.obj
 0001:00003cf0       ?AllocateBytes@?$CHeapPtrBase@_WVCCRTAllocator@ATL@@@ATL@@QEAA_N_K@Z 0000000180004cf0 f i OposVariant.obj
 0001:00003d90       ?AtlWinModuleInit@ATL@@YAJPEAU_ATL_WIN_MODULE70@1@@Z 0000000180004d90 f i OposVariant.obj
 0001:00003e90       ?AtlWinModuleTerm@ATL@@YAJPEAU_ATL_WIN_MODULE70@1@PEAUHINSTANCE__@@@Z 0000000180004e90 f i OposVariant.obj
 0001:00003f80       ?Clear@OposVariant@@QEAAJXZ 0000000180004f80 f i OposVariant.obj
 0001:00003fc0       ?Free@?$CHeapPtrBase@_WVCCRTAllocator@ATL@@@ATL@@QEAAXXZ 0000000180004fc0 f i OposVariant.obj
 0001:00004000       ?Free@CCRTAllocator@ATL@@SAXPEAX@Z 0000000180005000 f i OposVariant.obj
 0001:00004030       ?GetCategoryName@CTrace@ATL@@CAPEA_WI@Z 0000000180005030 f i OposVariant.obj
 0001:000040b0       ?GetModuleInstance@CAtlBaseModule@ATL@@QEAAPEAUHINSTANCE__@@XZ 00000001800050b0 f i OposVariant.obj
 0001:000040d0       ?GetSize@?$CSimpleArray@GV?$CSimpleArrayEqualHelper@G@ATL@@@ATL@@QEBAHXZ 00000001800050d0 f i OposVariant.obj
 0001:000040e0       ?Init@CComCriticalSection@ATL@@QEAAJXZ 00000001800050e0 f i OposVariant.obj
 0001:00004140       ?RegisterCategory@CTrace@ATL@@SAXPEB_WI@Z 0000000180005140 f i OposVariant.obj
 0001:00004220       ?RemoveAll@?$CSimpleArray@GV?$CSimpleArrayEqualHelper@G@ATL@@@ATL@@QEAAXXZ 0000000180005220 f i OposVariant.obj
 0001:000042b0       ?Term@CAtlComModule@ATL@@QEAAXXZ 00000001800052b0 f i OposVariant.obj
 0001:00004390       ?Term@CAtlWinModule@ATL@@QEAAXXZ 0000000180005390 f i OposVariant.obj
 0001:000043d0       ?Term@CComCriticalSection@ATL@@QEAAJXZ 00000001800053d0 f i OposVariant.obj
 0001:00004410       ?TraceV@CTrace@ATL@@CAXPEBDHIIPEB_W@Z 0000000180005410 f i OposVariant.obj
 0001:000046c0       ?TraceV@CTrace@ATL@@SAXPEBDHIIPEB_WPEAD@Z 00000001800056c0 f i OposVariant.obj
 0001:00004870       ?_AtlInitializeCriticalSectionEx@ATL@@YAHPEAU_RTL_CRITICAL_SECTION@@KK@Z 0000000180005870 f i OposVariant.obj
 0001:000048c0       ?_AtlRaiseException@ATL@@YAXKK@Z 00000001800058c0 f i OposVariant.obj
 0001:00004900       HRESULT_FROM_WIN32         0000000180005900 f i OposVariant.obj
 0001:00004950       _vswprintf_s_l             0000000180005950 f i OposVariant.obj
 0001:000049e0       swprintf_s                 00000001800059e0 f i OposVariant.obj
 0001:00004a70       ?ObjectMain@CComObjectRootBase@ATL@@SAX_N@Z 0000000180005a70 f i GraphicDisplay.obj
 0001:00004a80       ?GetCategoryMap@CComObjectRootBase@ATL@@SAPEBU_ATL_CATMAP_ENTRY@2@XZ 0000000180005a80 f i GraphicDisplay.obj
 0001:00004a90       ?GetObjectDescription@?$CComCoClass@VCOPOSGraphicDisplay@@$1?CLSID_OPOSGraphicDisplay@@3U_GUID@@B@ATL@@SAPEB_WXZ 0000000180005a90 f i GraphicDisplay.obj
 0001:00004aa0       ?UpdateRegistry@COPOSGraphicDisplay@@SAJH@Z 0000000180005aa0 f i GraphicDisplay.obj
 0001:00004ae0       ?CreateInstance@?$CComCreator@V?$CComObjectCached@VCComClassFactory@ATL@@@ATL@@@ATL@@SAJPEAXAEBU_GUID@@PEAPEAX@Z 0000000180005ae0 f i GraphicDisplay.obj
 0001:00004cd0       ?CreateInstance@?$CComCreator2@V?$CComCreator@V?$CComObject@VCOPOSGraphicDisplay@@@ATL@@@ATL@@V?$CComCreator@V?$CComAggObject@VCOPOSGraphicDisplay@@@ATL@@@2@@ATL@@SAJPEAXAEBU_GUID@@PEAPEAX@Z 0000000180005cd0 f i GraphicDisplay.obj
 0001:00004ee0       DllGetClassObject          0000000180005ee0 f   GraphicDisplay.obj
 0001:00004f30       DllCanUnloadNow            0000000180005f30 f   GraphicDisplay.obj
 0001:00004f80       DllRegisterServer          0000000180005f80 f   GraphicDisplay.obj
 0001:00004fc0       DllUnregisterServer        0000000180005fc0 f   GraphicDisplay.obj
 0001:000051c0       DllMain                    00000001800061c0 f   GraphicDisplay.obj
 0001:00005240       ??$?2G@Wrapper@?$CSimpleArray@GV?$CSimpleArrayEqualHelper@G@ATL@@@ATL@@SAPEAX_KPEAG@Z 0000000180006240 f i GraphicDisplay.obj
 0001:00005260       ??$?2PEA_W@?$Wrapper@PEA_W@?$CSimpleMap@PEA_WPEA_WVCExpansionVectorEqualHelper@ATL@@@ATL@@SAPEAX_KPEAPEA_W@Z 0000000180006260 f i GraphicDisplay.obj
 0001:00005280       ??$?4UITypeInfo2@@@?$CComPtr@UITypeInfo@@@ATL@@QEAAPEAUITypeInfo@@AEBV?$CComPtr@UITypeInfo2@@@1@@Z 0000000180006280 f i GraphicDisplay.obj
 0001:000052f0       ??$AtlAdd@_K@ATL@@YAJPEA_K_K1@Z 00000001800062f0 f i GraphicDisplay.obj
 0001:00005360       ??$AtlAddThrow@_K@ATL@@YA_K_K0@Z 0000000180006360 f i GraphicDisplay.obj
 0001:000053d0       ??$AtlModuleRegisterWndClassInfoT@VAtlModuleRegisterWndClassInfoParamW@ATL@@@ATL@@YAGPEAU_ATL_BASE_MODULE70@0@PEAU_ATL_WIN_MODULE70@0@PEAU_ATL_WNDCLASSINFOW@0@PEAP6A_JPEAUHWND__@@I_K_J@ZVAtlModuleRegisterWndClassInfoParamW@0@@Z 00000001800063d0 f i GraphicDisplay.obj
 0001:000059a0       ??$AtlMultiply@H@ATL@@YAJPEAHHH@Z 00000001800069a0 f i GraphicDisplay.obj
 0001:00005a10       ??$AtlMultiply@K@ATL@@YAJPEAKKK@Z 0000000180006a10 f i GraphicDisplay.obj
 0001:00005a80       ??$AtlMultiplyThrow@_K@ATL@@YA_K_K0@Z 0000000180006a80 f i GraphicDisplay.obj
 0001:00005af0       ??$QueryInterface@UIPersistStream@@@IUnknown@@QEAAJPEAPEAUIPersistStream@@@Z 0000000180006af0 f i GraphicDisplay.obj
 0001:00005b40       ??$QueryInterface@UITypeInfo2@@@IUnknown@@QEAAJPEAPEAUITypeInfo2@@@Z 0000000180006b40 f i GraphicDisplay.obj
 0001:00005b90       ??0?$CAtlModuleT@VCComModule@ATL@@@ATL@@QEAA@XZ 0000000180006b90 f i GraphicDisplay.obj
 0001:00005bd0       ??0?$CAtlSafeAllocBufferManager@VCCRTAllocator@ATL@@@_ATL_SAFE_ALLOCA_IMPL@ATL@@QEAA@XZ 0000000180006bd0 f i GraphicDisplay.obj
 0001:00005bf0       ??0?$CAutoVectorPtr@_W@ATL@@QEAA@XZ 0000000180006bf0 f i GraphicDisplay.obj
 0001:00005c10       ??0?$CComAggObject@VCOPOSGraphicDisplay@@@ATL@@QEAA@PEAX@Z 0000000180006c10 f i GraphicDisplay.obj
 0001:00005ca0       ??0?$CComContainedObject@VCOPOSGraphicDisplay@@@ATL@@QEAA@PEAX@Z 0000000180006ca0 f i GraphicDisplay.obj
 0001:00005e40       ??0?$CComCritSecLock@VCComCriticalSection@ATL@@@ATL@@QEAA@AEAVCComCriticalSection@1@_N@Z 0000000180006e40 f i GraphicDisplay.obj
 0001:00005eb0       ??0?$CComEnum@UIEnumConnectionPoints@@$1?_GUID_b196b285_bab4_101a_b69c_00aa00341d07@@3U__s_GUID@@BPEAUIConnectionPoint@@V?$_CopyInterface@UIConnectionPoint@@@ATL@@VCComSingleThreadModel@6@@ATL@@QEAA@XZ 0000000180006eb0 f i GraphicDisplay.obj
 0001:00005f00       ??0?$CComEnum@UIEnumConnections@@$1?_GUID_b196b287_bab4_101a_b69c_00aa00341d07@@3U__s_GUID@@BUtagCONNECTDATA@@V?$_Copy@UtagCONNECTDATA@@@ATL@@VCComSingleThreadModel@6@@ATL@@QEAA@XZ 0000000180006f00 f i GraphicDisplay.obj
 0001:00005f50       ??0?$CComEnumImpl@UIEnumConnectionPoints@@$1?_GUID_b196b285_bab4_101a_b69c_00aa00341d07@@3U__s_GUID@@BPEAUIConnectionPoint@@V?$_CopyInterface@UIConnectionPoint@@@ATL@@@ATL@@QEAA@XZ 0000000180006f50 f i GraphicDisplay.obj
 0001:00005fd0       ??0?$CComEnumImpl@UIEnumConnections@@$1?_GUID_b196b287_bab4_101a_b69c_00aa00341d07@@3U__s_GUID@@BUtagCONNECTDATA@@V?$_Copy@UtagCONNECTDATA@@@ATL@@@ATL@@QEAA@XZ 0000000180006fd0 f i GraphicDisplay.obj
 0001:00006050       ??0?$CComObject@V?$CComEnum@UIEnumConnectionPoints@@$1?_GUID_b196b285_bab4_101a_b69c_00aa00341d07@@3U__s_GUID@@BPEAUIConnectionPoint@@V?$_CopyInterface@UIConnectionPoint@@@ATL@@VCComSingleThreadModel@6@@ATL@@@ATL@@QEAA@PEAX@Z 0000000180007050 f i GraphicDisplay.obj
 0001:000060b0       ??0?$CComObject@V?$CComEnum@UIEnumConnections@@$1?_GUID_b196b287_bab4_101a_b69c_00aa00341d07@@3U__s_GUID@@BUtagCONNECTDATA@@V?$_Copy@UtagCONNECTDATA@@@ATL@@VCComSingleThreadModel@6@@ATL@@@ATL@@QEAA@PEAX@Z 00000001800070b0 f i GraphicDisplay.obj
 0001:00006110       ??0?$CComObject@VCOPOSGraphicDisplay@@@ATL@@QEAA@PEAX@Z 0000000180007110 f i GraphicDisplay.obj
 0001:000062b0       ??0?$CComObjectCached@VCComClassFactory@ATL@@@ATL@@QEAA@PEAX@Z 00000001800072b0 f i GraphicDisplay.obj
 0001:00006300       ??0?$CComObjectRootEx@VCComMultiThreadModel@ATL@@@ATL@@QEAA@XZ 0000000180007300 f i GraphicDisplay.obj
 0001:00006350       ??0?$CComObjectRootEx@VCComSingleThreadModel@ATL@@@ATL@@QEAA@XZ 0000000180007350 f i GraphicDisplay.obj
 0001:00006390       ??0?$CComPtr@UIAdviseSink@@@ATL@@QEAA@PEAUIAdviseSink@@@Z 0000000180007390 f i GraphicDisplay.obj
 0001:000063d0       ??0?$CComPtr@UICatRegister@@@ATL@@QEAA@XZ 00000001800073d0 f i GraphicDisplay.obj
 0001:00006410       ??0?$CComPtr@UIConnectionPoint@@@ATL@@QEAA@XZ 0000000180007410 f i GraphicDisplay.obj
 0001:00006450       ??0?$CComPtr@UIConnectionPointContainer@@@ATL@@QEAA@XZ 0000000180007450 f i GraphicDisplay.obj
 0001:00006490       ??0?$CComPtr@UIDataObject@@@ATL@@QEAA@XZ 0000000180007490 f i GraphicDisplay.obj
 0001:000064d0       ??0?$CComPtr@UIDispatch@@@ATL@@QEAA@XZ 00000001800074d0 f i GraphicDisplay.obj
 0001:00006510       ??0?$CComPtr@UIOleClientSite@@@ATL@@QEAA@PEAUIOleClientSite@@@Z 0000000180007510 f i GraphicDisplay.obj
 0001:00006550       ??0?$CComPtr@UIOleControlSite@@@ATL@@QEAA@XZ 0000000180007550 f i GraphicDisplay.obj
 0001:00006590       ??0?$CComPtr@UIOleInPlaceActiveObject@@@ATL@@QEAA@XZ 0000000180007590 f i GraphicDisplay.obj
 0001:000065d0       ??0?$CComPtr@UIOleInPlaceFrame@@@ATL@@QEAA@XZ 00000001800075d0 f i GraphicDisplay.obj
 0001:00006610       ??0?$CComPtr@UIOleInPlaceObject@@@ATL@@QEAA@XZ 0000000180007610 f i GraphicDisplay.obj
 0001:00006650       ??0?$CComPtr@UIOleInPlaceUIWindow@@@ATL@@QEAA@XZ 0000000180007650 f i GraphicDisplay.obj
 0001:00006690       ??0?$CComPtr@UIOleObject@@@ATL@@QEAA@XZ 0000000180007690 f i GraphicDisplay.obj
 0001:000066d0       ??0?$CComPtr@UIPersistStream@@@ATL@@QEAA@XZ 00000001800076d0 f i GraphicDisplay.obj
 0001:00006710       ??0?$CComPtr@UIPersistStreamInit@@@ATL@@QEAA@XZ 0000000180007710 f i GraphicDisplay.obj
 0001:00006750       ??0?$CComPtr@UIPointerInactive@@@ATL@@QEAA@XZ 0000000180007750 f i GraphicDisplay.obj
 0001:00006790       ??0?$CComPtr@UIProvideClassInfo2@@@ATL@@QEAA@XZ 0000000180007790 f i GraphicDisplay.obj
 0001:000067d0       ??0?$CComPtr@UISpecifyPropertyPages@@@ATL@@QEAA@XZ 00000001800077d0 f i GraphicDisplay.obj
 0001:00006810       ??0?$CComPtr@UIStream@@@ATL@@QEAA@XZ 0000000180007810 f i GraphicDisplay.obj
 0001:00006850       ??0?$CComPtr@UITypeInfo2@@@ATL@@QEAA@XZ 0000000180007850 f i GraphicDisplay.obj
 0001:00006890       ??0?$CComPtr@UITypeInfo@@@ATL@@QEAA@AEBV01@@Z 0000000180007890 f i GraphicDisplay.obj
 0001:000068d0       ??0?$CComPtr@UITypeInfo@@@ATL@@QEAA@XZ 00000001800078d0 f i GraphicDisplay.obj
 0001:00006910       ??0?$CComPtr@UITypeLib@@@ATL@@QEAA@XZ 0000000180007910 f i GraphicDisplay.obj
 0001:00006950       ??0?$CComPtr@UIUnknown@@@ATL@@QEAA@AEBV01@@Z 0000000180007950 f i GraphicDisplay.obj
 0001:00006990       ??0?$CComPtr@UIUnknown@@@ATL@@QEAA@PEAUIUnknown@@@Z 0000000180007990 f i GraphicDisplay.obj
 0001:000069d0       ??0?$CComPtr@UIUnknown@@@ATL@@QEAA@XZ 00000001800079d0 f i GraphicDisplay.obj
 0001:00006a10       ??0?$CComPtr@UIViewObjectEx@@@ATL@@QEAA@XZ 0000000180007a10 f i GraphicDisplay.obj
 0001:00006a50       ??0?$CComPtrBase@UIAdviseSink@@@ATL@@IEAA@PEAUIAdviseSink@@@Z 0000000180007a50 f i GraphicDisplay.obj
 0001:00006ab0       ??0?$CComPtrBase@UICatRegister@@@ATL@@IEAA@XZ 0000000180007ab0 f i GraphicDisplay.obj
 0001:00006ad0       ??0?$CComPtrBase@UIConnectionPoint@@@ATL@@IEAA@XZ 0000000180007ad0 f i GraphicDisplay.obj
 0001:00006af0       ??0?$CComPtrBase@UIConnectionPointContainer@@@ATL@@IEAA@XZ 0000000180007af0 f i GraphicDisplay.obj
 0001:00006b10       ??0?$CComPtrBase@UIDataObject@@@ATL@@IEAA@XZ 0000000180007b10 f i GraphicDisplay.obj
 0001:00006b30       ??0?$CComPtrBase@UIDispatch@@@ATL@@IEAA@XZ 0000000180007b30 f i GraphicDisplay.obj
 0001:00006b50       ??0?$CComPtrBase@UIOleClientSite@@@ATL@@IEAA@PEAUIOleClientSite@@@Z 0000000180007b50 f i GraphicDisplay.obj
 0001:00006bb0       ??0?$CComPtrBase@UIOleControlSite@@@ATL@@IEAA@XZ 0000000180007bb0 f i GraphicDisplay.obj
 0001:00006bd0       ??0?$CComPtrBase@UIOleInPlaceActiveObject@@@ATL@@IEAA@XZ 0000000180007bd0 f i GraphicDisplay.obj
 0001:00006bf0       ??0?$CComPtrBase@UIOleInPlaceFrame@@@ATL@@IEAA@XZ 0000000180007bf0 f i GraphicDisplay.obj
 0001:00006c10       ??0?$CComPtrBase@UIOleInPlaceObject@@@ATL@@IEAA@XZ 0000000180007c10 f i GraphicDisplay.obj
 0001:00006c30       ??0?$CComPtrBase@UIOleInPlaceUIWindow@@@ATL@@IEAA@XZ 0000000180007c30 f i GraphicDisplay.obj
 0001:00006c50       ??0?$CComPtrBase@UIOleObject@@@ATL@@IEAA@XZ 0000000180007c50 f i GraphicDisplay.obj
 0001:00006c70       ??0?$CComPtrBase@UIPersistStream@@@ATL@@IEAA@XZ 0000000180007c70 f i GraphicDisplay.obj
 0001:00006c90       ??0?$CComPtrBase@UIPersistStreamInit@@@ATL@@IEAA@XZ 0000000180007c90 f i GraphicDisplay.obj
 0001:00006cb0       ??0?$CComPtrBase@UIPointerInactive@@@ATL@@IEAA@XZ 0000000180007cb0 f i GraphicDisplay.obj
 0001:00006cd0       ??0?$CComPtrBase@UIProvideClassInfo2@@@ATL@@IEAA@XZ 0000000180007cd0 f i GraphicDisplay.obj
 0001:00006cf0       ??0?$CComPtrBase@UISpecifyPropertyPages@@@ATL@@IEAA@XZ 0000000180007cf0 f i GraphicDisplay.obj
 0001:00006d10       ??0?$CComPtrBase@UIStream@@@ATL@@IEAA@XZ 0000000180007d10 f i GraphicDisplay.obj
 0001:00006d30       ??0?$CComPtrBase@UITypeInfo2@@@ATL@@IEAA@XZ 0000000180007d30 f i GraphicDisplay.obj
 0001:00006d50       ??0?$CComPtrBase@UITypeInfo@@@ATL@@IEAA@PEAUITypeInfo@@@Z 0000000180007d50 f i GraphicDisplay.obj
 0001:00006db0       ??0?$CComPtrBase@UITypeInfo@@@ATL@@IEAA@XZ 0000000180007db0 f i GraphicDisplay.obj
 0001:00006dd0       ??0?$CComPtrBase@UITypeLib@@@ATL@@IEAA@XZ 0000000180007dd0 f i GraphicDisplay.obj
 0001:00006df0       ??0?$CComPtrBase@UIUnknown@@@ATL@@IEAA@PEAUIUnknown@@@Z 0000000180007df0 f i GraphicDisplay.obj
 0001:00006e50       ??0?$CComPtrBase@UIUnknown@@@ATL@@IEAA@XZ 0000000180007e50 f i GraphicDisplay.obj
 0001:00006e70       ??0?$CComPtrBase@UIViewObjectEx@@@ATL@@IEAA@XZ 0000000180007e70 f i GraphicDisplay.obj
 0001:00006e90       ??0?$CComQIPtr@UIOleControlSite@@$1?_GUID_b196b289_bab4_101a_b69c_00aa00341d07@@3U__s_GUID@@B@ATL@@QEAA@PEAUIUnknown@@@Z 0000000180007e90 f i GraphicDisplay.obj
 0001:00006f00       ??0?$CComQIPtr@UIOleObject@@$1?_GUID_00000112_0000_0000_c000_000000000046@@3U__s_GUID@@B@ATL@@QEAA@XZ 0000000180007f00 f i GraphicDisplay.obj
 0001:00006f40       ??0?$CComQIPtr@UISpecifyPropertyPages@@$1?_GUID_b196b28b_bab4_101a_b69c_00aa00341d07@@3U__s_GUID@@B@ATL@@QEAA@XZ 0000000180007f40 f i GraphicDisplay.obj
 0001:00006f80       ??0?$CSimpleMap@PEA_WPEA_WVCExpansionVectorEqualHelper@ATL@@@ATL@@QEAA@XZ 0000000180007f80 f i GraphicDisplay.obj
 0001:00006fc0       ??0?$CTempBuffer@E$0BAA@VCCRTAllocator@ATL@@@ATL@@QEAA@XZ 0000000180007fc0 f i GraphicDisplay.obj
 0001:00006fe0       ??0?$CTempBuffer@_W$0BAA@VCCRTAllocator@ATL@@@ATL@@QEAA@XZ 0000000180007fe0 f i GraphicDisplay.obj
 0001:00007000       ??0?$CTempBuffer@_W$0EAA@VCCRTAllocator@ATL@@@ATL@@QEAA@XZ 0000000180008000 f i GraphicDisplay.obj
 0001:00007020       ??0?$Wrapper@PEA_W@?$CSimpleMap@PEA_WPEA_WVCExpansionVectorEqualHelper@ATL@@@ATL@@QEAA@AEBQEA_W@Z 0000000180008020 f i GraphicDisplay.obj
 0001:00007050       ??0CAtlModule@ATL@@QEAA@XZ 0000000180008050 f i GraphicDisplay.obj
 0001:000071c0       ??0CComAutoDeleteCriticalSection@ATL@@QEAA@XZ 00000001800081c0 f i GraphicDisplay.obj
 0001:00007200       ??0CComBSTR@ATL@@QEAA@XZ   0000000180008200 f i GraphicDisplay.obj
 0001:00007220       ??0CComClassFactory@ATL@@QEAA@XZ 0000000180008220 f i GraphicDisplay.obj
 0001:00007280       ??0CComModule@ATL@@QEAA@XZ 0000000180008280 f i GraphicDisplay.obj
 0001:00007320       ??0CComObjectRootBase@ATL@@QEAA@XZ 0000000180008320 f i GraphicDisplay.obj
 0001:00007340       ??0CComSafeDeleteCriticalSection@ATL@@QEAA@XZ 0000000180008340 f i GraphicDisplay.obj
 0001:00007380       ??0CComVariant@ATL@@QEAA@XZ 0000000180008380 f i GraphicDisplay.obj
 0001:000073d0       ??0CExpansionVector@ATL@@QEAA@XZ 00000001800083d0 f i GraphicDisplay.obj
 0001:00007410       ??0CParseBuffer@CRegParser@ATL@@QEAA@H@Z 0000000180008410 f i GraphicDisplay.obj
 0001:000074a0       ??0CRegKey@ATL@@QEAA@PEAUHKEY__@@@Z 00000001800084a0 f i GraphicDisplay.obj
 0001:000074e0       ??0CRegKey@ATL@@QEAA@PEAVCAtlTransactionManager@1@@Z 00000001800084e0 f i GraphicDisplay.obj
 0001:00007520       ??0CRegObject@ATL@@QEAA@XZ 0000000180008520 f i GraphicDisplay.obj
 0001:00007580       ??0CRegParser@ATL@@QEAA@PEAVCRegObject@1@@Z 0000000180008580 f i GraphicDisplay.obj
 0001:000075b0       ??0IClassFactory@@QEAA@XZ  00000001800085b0 f i GraphicDisplay.obj
 0001:000075f0       ??0IEnumConnectionPoints@@QEAA@XZ 00000001800085f0 f i GraphicDisplay.obj
 0001:00007630       ??0IEnumConnections@@QEAA@XZ 0000000180008630 f i GraphicDisplay.obj
 0001:00007670       ??0IRegistrarBase@@QEAA@XZ 0000000180008670 f i GraphicDisplay.obj
 0001:000076b0       ??0IUnknown@@QEAA@XZ       00000001800086b0 f i GraphicDisplay.obj
 0001:000076c0       ??0ModuleLockHelper@ATL@@QEAA@XZ 00000001800086c0 f i GraphicDisplay.obj
 0001:00007700       ??0OposVariant@@QEAA@XZ    0000000180008700 f i GraphicDisplay.obj
 0001:00007720       ??0Wrapper@?$CSimpleArray@GV?$CSimpleArrayEqualHelper@G@ATL@@@ATL@@QEAA@AEBG@Z 0000000180008720 f i GraphicDisplay.obj
 0001:00007750       ??0_ATL_MODULE70@ATL@@QEAA@XZ 0000000180008750 f i GraphicDisplay.obj
 0001:00007790       ??0_ATL_MSG@ATL@@QEAA@PEAUHWND__@@I_K_JH@Z 0000000180008790 f i GraphicDisplay.obj
 0001:00007820       ??0_U_MENUorID@ATL@@QEAA@I@Z 0000000180008820 f i GraphicDisplay.obj
 0001:00007840       ??0_U_RECT@ATL@@QEAA@AEAUtagRECT@@@Z 0000000180008840 f i GraphicDisplay.obj
 0001:00007860       ??0stringdispid@CComTypeInfoHolder@ATL@@QEAA@XZ 0000000180008860 f i GraphicDisplay.obj
 0001:000078b0       ??1?$CAtlModuleT@VCComModule@ATL@@@ATL@@UEAA@XZ 00000001800088b0 f i GraphicDisplay.obj
 0001:000078e0       ??1?$CAtlSafeAllocBufferManager@VCCRTAllocator@ATL@@@_ATL_SAFE_ALLOCA_IMPL@ATL@@QEAA@XZ 00000001800088e0 f i GraphicDisplay.obj
 0001:00007940       ??1?$CAutoVectorPtr@_W@ATL@@QEAA@XZ 0000000180008940 f i GraphicDisplay.obj
 0001:00007970       ??1?$CComAggObject@VCOPOSGraphicDisplay@@@ATL@@UEAA@XZ 0000000180008970 f i GraphicDisplay.obj
 0001:000079f0       ??1?$CComContainedObject@VCOPOSGraphicDisplay@@@ATL@@UEAA@XZ 00000001800089f0 f i GraphicDisplay.obj
 0001:00007a20       ??1?$CComCritSecLock@VCComCriticalSection@ATL@@@ATL@@QEAA@XZ 0000000180008a20 f i GraphicDisplay.obj
 0001:00007a60       ??1?$CComEnum@UIEnumConnectionPoints@@$1?_GUID_b196b285_bab4_101a_b69c_00aa00341d07@@3U__s_GUID@@BPEAUIConnectionPoint@@V?$_CopyInterface@UIConnectionPoint@@@ATL@@VCComSingleThreadModel@6@@ATL@@UEAA@XZ 0000000180008a60 f i GraphicDisplay.obj
 0001:00007aa0       ??1?$CComEnum@UIEnumConnections@@$1?_GUID_b196b287_bab4_101a_b69c_00aa00341d07@@3U__s_GUID@@BUtagCONNECTDATA@@V?$_Copy@UtagCONNECTDATA@@@ATL@@VCComSingleThreadModel@6@@ATL@@UEAA@XZ 0000000180008aa0 f i GraphicDisplay.obj
 0001:00007ae0       ??1?$CComEnumImpl@UIEnumConnectionPoints@@$1?_GUID_b196b285_bab4_101a_b69c_00aa00341d07@@3U__s_GUID@@BPEAUIConnectionPoint@@V?$_CopyInterface@UIConnectionPoint@@@ATL@@@ATL@@UEAA@XZ 0000000180008ae0 f i GraphicDisplay.obj
 0001:00007b80       ??1?$CComEnumImpl@UIEnumConnections@@$1?_GUID_b196b287_bab4_101a_b69c_00aa00341d07@@3U__s_GUID@@BUtagCONNECTDATA@@V?$_Copy@UtagCONNECTDATA@@@ATL@@@ATL@@UEAA@XZ 0000000180008b80 f i GraphicDisplay.obj
 0001:00007c20       ??1?$CComObject@V?$CComEnum@UIEnumConnectionPoints@@$1?_GUID_b196b285_bab4_101a_b69c_00aa00341d07@@3U__s_GUID@@BPEAUIConnectionPoint@@V?$_CopyInterface@UIConnectionPoint@@@ATL@@VCComSingleThreadModel@6@@ATL@@@ATL@@UEAA@XZ 0000000180008c20 f i GraphicDisplay.obj
 0001:00007c90       ??1?$CComObject@V?$CComEnum@UIEnumConnections@@$1?_GUID_b196b287_bab4_101a_b69c_00aa00341d07@@3U__s_GUID@@BUtagCONNECTDATA@@V?$_Copy@UtagCONNECTDATA@@@ATL@@VCComSingleThreadModel@6@@ATL@@@ATL@@UEAA@XZ 0000000180008c90 f i GraphicDisplay.obj
 0001:00007d00       ??1?$CComObject@VCOPOSGraphicDisplay@@@ATL@@UEAA@XZ 0000000180008d00 f i GraphicDisplay.obj
 0001:00007eb0       ??1?$CComObjectCached@VCComClassFactory@ATL@@@ATL@@UEAA@XZ 0000000180008eb0 f i GraphicDisplay.obj
 0001:00007f10       ??1?$CComObjectRootEx@VCComMultiThreadModel@ATL@@@ATL@@QEAA@XZ 0000000180008f10 f i GraphicDisplay.obj
 0001:00007f50       ??1?$CComObjectRootEx@VCComSingleThreadModel@ATL@@@ATL@@QEAA@XZ 0000000180008f50 f i GraphicDisplay.obj
 0001:00007f80       ??1?$CComPtr@UIAdviseSink@@@ATL@@QEAA@XZ 0000000180008f80 f i GraphicDisplay.obj
 0001:00007fb0       ??1?$CComPtr@UICatRegister@@@ATL@@QEAA@XZ 0000000180008fb0 f i GraphicDisplay.obj
 0001:00007fe0       ??1?$CComPtr@UIConnectionPoint@@@ATL@@QEAA@XZ 0000000180008fe0 f i GraphicDisplay.obj
 0001:00008010       ??1?$CComPtr@UIConnectionPointContainer@@@ATL@@QEAA@XZ 0000000180009010 f i GraphicDisplay.obj
 0001:00008040       ??1?$CComPtr@UIDataObject@@@ATL@@QEAA@XZ 0000000180009040 f i GraphicDisplay.obj
 0001:00008070       ??1?$CComPtr@UIDispatch@@@ATL@@QEAA@XZ 0000000180009070 f i GraphicDisplay.obj
 0001:000080a0       ??1?$CComPtr@UIOleClientSite@@@ATL@@QEAA@XZ 00000001800090a0 f i GraphicDisplay.obj
 0001:000080d0       ??1?$CComPtr@UIOleControlSite@@@ATL@@QEAA@XZ 00000001800090d0 f i GraphicDisplay.obj
 0001:00008100       ??1?$CComPtr@UIOleInPlaceActiveObject@@@ATL@@QEAA@XZ 0000000180009100 f i GraphicDisplay.obj
 0001:00008130       ??1?$CComPtr@UIOleInPlaceFrame@@@ATL@@QEAA@XZ 0000000180009130 f i GraphicDisplay.obj
 0001:00008160       ??1?$CComPtr@UIOleInPlaceObject@@@ATL@@QEAA@XZ 0000000180009160 f i GraphicDisplay.obj
 0001:00008190       ??1?$CComPtr@UIOleInPlaceUIWindow@@@ATL@@QEAA@XZ 0000000180009190 f i GraphicDisplay.obj
 0001:000081c0       ??1?$CComPtr@UIOleObject@@@ATL@@QEAA@XZ 00000001800091c0 f i GraphicDisplay.obj
 0001:000081f0       ??1?$CComPtr@UIPersistStream@@@ATL@@QEAA@XZ 00000001800091f0 f i GraphicDisplay.obj
 0001:00008220       ??1?$CComPtr@UIPersistStreamInit@@@ATL@@QEAA@XZ 0000000180009220 f i GraphicDisplay.obj
 0001:00008250       ??1?$CComPtr@UIPointerInactive@@@ATL@@QEAA@XZ 0000000180009250 f i GraphicDisplay.obj
 0001:00008280       ??1?$CComPtr@UIProvideClassInfo2@@@ATL@@QEAA@XZ 0000000180009280 f i GraphicDisplay.obj
 0001:000082b0       ??1?$CComPtr@UISpecifyPropertyPages@@@ATL@@QEAA@XZ 00000001800092b0 f i GraphicDisplay.obj
 0001:000082e0       ??1?$CComPtr@UIStream@@@ATL@@QEAA@XZ 00000001800092e0 f i GraphicDisplay.obj
 0001:00008310       ??1?$CComPtr@UITypeInfo2@@@ATL@@QEAA@XZ 0000000180009310 f i GraphicDisplay.obj
 0001:00008340       ??1?$CComPtr@UITypeInfo@@@ATL@@QEAA@XZ 0000000180009340 f i GraphicDisplay.obj
 0001:00008370       ??1?$CComPtr@UITypeLib@@@ATL@@QEAA@XZ 0000000180009370 f i GraphicDisplay.obj
 0001:000083a0       ??1?$CComPtr@UIUnknown@@@ATL@@QEAA@XZ 00000001800093a0 f i GraphicDisplay.obj
 0001:000083d0       ??1?$CComPtr@UIViewObjectEx@@@ATL@@QEAA@XZ 00000001800093d0 f i GraphicDisplay.obj
 0001:00008400       ??1?$CComPtrBase@UIAdviseSink@@@ATL@@QEAA@XZ 0000000180009400 f i GraphicDisplay.obj
 0001:00008450       ??1?$CComPtrBase@UICatRegister@@@ATL@@QEAA@XZ 0000000180009450 f i GraphicDisplay.obj
 0001:000084a0       ??1?$CComPtrBase@UIConnectionPoint@@@ATL@@QEAA@XZ 00000001800094a0 f i GraphicDisplay.obj
 0001:000084f0       ??1?$CComPtrBase@UIConnectionPointContainer@@@ATL@@QEAA@XZ 00000001800094f0 f i GraphicDisplay.obj
 0001:00008540       ??1?$CComPtrBase@UIDataObject@@@ATL@@QEAA@XZ 0000000180009540 f i GraphicDisplay.obj
 0001:00008590       ??1?$CComPtrBase@UIDispatch@@@ATL@@QEAA@XZ 0000000180009590 f i GraphicDisplay.obj
 0001:000085e0       ??1?$CComPtrBase@UIOleClientSite@@@ATL@@QEAA@XZ 00000001800095e0 f i GraphicDisplay.obj
 0001:00008630       ??1?$CComPtrBase@UIOleControlSite@@@ATL@@QEAA@XZ 0000000180009630 f i GraphicDisplay.obj
 0001:00008680       ??1?$CComPtrBase@UIOleInPlaceActiveObject@@@ATL@@QEAA@XZ 0000000180009680 f i GraphicDisplay.obj
 0001:000086d0       ??1?$CComPtrBase@UIOleInPlaceFrame@@@ATL@@QEAA@XZ 00000001800096d0 f i GraphicDisplay.obj
 0001:00008720       ??1?$CComPtrBase@UIOleInPlaceObject@@@ATL@@QEAA@XZ 0000000180009720 f i GraphicDisplay.obj
 0001:00008770       ??1?$CComPtrBase@UIOleInPlaceUIWindow@@@ATL@@QEAA@XZ 0000000180009770 f i GraphicDisplay.obj
 0001:000087c0       ??1?$CComPtrBase@UIOleObject@@@ATL@@QEAA@XZ 00000001800097c0 f i GraphicDisplay.obj
 0001:00008810       ??1?$CComPtrBase@UIPersistStream@@@ATL@@QEAA@XZ 0000000180009810 f i GraphicDisplay.obj
 0001:00008860       ??1?$CComPtrBase@UIPersistStreamInit@@@ATL@@QEAA@XZ 0000000180009860 f i GraphicDisplay.obj
 0001:000088b0       ??1?$CComPtrBase@UIPointerInactive@@@ATL@@QEAA@XZ 00000001800098b0 f i GraphicDisplay.obj
 0001:00008900       ??1?$CComPtrBase@UIProvideClassInfo2@@@ATL@@QEAA@XZ 0000000180009900 f i GraphicDisplay.obj
 0001:00008950       ??1?$CComPtrBase@UISpecifyPropertyPages@@@ATL@@QEAA@XZ 0000000180009950 f i GraphicDisplay.obj
 0001:000089a0       ??1?$CComPtrBase@UIStream@@@ATL@@QEAA@XZ 00000001800099a0 f i GraphicDisplay.obj
 0001:000089f0       ??1?$CComPtrBase@UITypeInfo2@@@ATL@@QEAA@XZ 00000001800099f0 f i GraphicDisplay.obj
 0001:00008a40       ??1?$CComPtrBase@UITypeInfo@@@ATL@@QEAA@XZ 0000000180009a40 f i GraphicDisplay.obj
 0001:00008a90       ??1?$CComPtrBase@UITypeLib@@@ATL@@QEAA@XZ 0000000180009a90 f i GraphicDisplay.obj
 0001:00008ae0       ??1?$CComPtrBase@UIUnknown@@@ATL@@QEAA@XZ 0000000180009ae0 f i GraphicDisplay.obj
 0001:00008b30       ??1?$CComPtrBase@UIViewObjectEx@@@ATL@@QEAA@XZ 0000000180009b30 f i GraphicDisplay.obj
 0001:00008b80       ??1?$CComQIPtr@UIOleControlSite@@$1?_GUID_b196b289_bab4_101a_b69c_00aa00341d07@@3U__s_GUID@@B@ATL@@QEAA@XZ 0000000180009b80 f i GraphicDisplay.obj
 0001:00008bb0       ??1?$CComQIPtr@UIOleObject@@$1?_GUID_00000112_0000_0000_c000_000000000046@@3U__s_GUID@@B@ATL@@QEAA@XZ 0000000180009bb0 f i GraphicDisplay.obj
 0001:00008be0       ??1?$CComQIPtr@UISpecifyPropertyPages@@$1?_GUID_b196b28b_bab4_101a_b69c_00aa00341d07@@3U__s_GUID@@B@ATL@@QEAA@XZ 0000000180009be0 f i GraphicDisplay.obj
 0001:00008c10       ??1?$CSimpleMap@PEA_WPEA_WVCExpansionVectorEqualHelper@ATL@@@ATL@@QEAA@XZ 0000000180009c10 f i GraphicDisplay.obj
 0001:00008c40       ??1?$CTempBuffer@E$0BAA@VCCRTAllocator@ATL@@@ATL@@QEAA@XZ 0000000180009c40 f i GraphicDisplay.obj
 0001:00008c90       ??1?$CTempBuffer@_W$0BAA@VCCRTAllocator@ATL@@@ATL@@QEAA@XZ 0000000180009c90 f i GraphicDisplay.obj
 0001:00008ce0       ??1?$CTempBuffer@_W$0EAA@VCCRTAllocator@ATL@@@ATL@@QEAA@XZ 0000000180009ce0 f i GraphicDisplay.obj
 0001:00008d30       ??1CAtlModule@ATL@@UEAA@XZ 0000000180009d30 f i GraphicDisplay.obj
 0001:00008d70       ??1CComAutoDeleteCriticalSection@ATL@@QEAA@XZ 0000000180009d70 f i GraphicDisplay.obj
 0001:00008da0       ??1CComClassFactory@ATL@@UEAA@XZ 0000000180009da0 f i GraphicDisplay.obj
 0001:00008df0       ??1CComModule@ATL@@UEAA@XZ 0000000180009df0 f i GraphicDisplay.obj
 0001:00008e30       ??1CComObjectRootBase@ATL@@QEAA@XZ 0000000180009e30 f i GraphicDisplay.obj
 0001:00008e40       ??1CComSafeDeleteCriticalSection@ATL@@QEAA@XZ 0000000180009e40 f i GraphicDisplay.obj
 0001:00008e90       ??1CComVariant@ATL@@QEAA@XZ 0000000180009e90 f i GraphicDisplay.obj
 0001:00008f10       ??1CExpansionVector@ATL@@QEAA@XZ 0000000180009f10 f i GraphicDisplay.obj
 0001:00008f50       ??1CParseBuffer@CRegParser@ATL@@QEAA@XZ 0000000180009f50 f i GraphicDisplay.obj
 0001:00008f90       ??1CRegKey@ATL@@QEAA@XZ    0000000180009f90 f i GraphicDisplay.obj
 0001:00008fc0       ??1CRegObject@ATL@@UEAA@XZ 0000000180009fc0 f i GraphicDisplay.obj
 0001:00009010       ??1ModuleLockHelper@ATL@@QEAA@XZ 000000018000a010 f i GraphicDisplay.obj
 0001:00009050       ??1OposVariant@@QEAA@XZ    000000018000a050 f i GraphicDisplay.obj
 0001:00009090       ??1_ATL_MODULE70@ATL@@QEAA@XZ 000000018000a090 f i GraphicDisplay.obj
 0001:000090d0       ??4?$CComPtr@UIAdviseSink@@@ATL@@QEAAPEAUIAdviseSink@@PEAU2@@Z 000000018000a0d0 f i GraphicDisplay.obj
 0001:00009140       ??4?$CComPtr@UIOleClientSite@@@ATL@@QEAAPEAUIOleClientSite@@PEAU2@@Z 000000018000a140 f i GraphicDisplay.obj
 0001:000091b0       ??4?$CComPtr@UIUnknown@@@ATL@@QEAAPEAUIUnknown@@PEAU2@@Z 000000018000a1b0 f i GraphicDisplay.obj
 0001:00009220       ??4?$CComQIPtr@UIOleObject@@$1?_GUID_00000112_0000_0000_c000_000000000046@@3U__s_GUID@@B@ATL@@QEAAPEAUIOleObject@@PEAUIUnknown@@@Z 000000018000a220 f i GraphicDisplay.obj
 0001:00009280       ??4?$CComQIPtr@UISpecifyPropertyPages@@$1?_GUID_b196b28b_bab4_101a_b69c_00aa00341d07@@3U__s_GUID@@B@ATL@@QEAAPEAUISpecifyPropertyPages@@PEAUIUnknown@@@Z 000000018000a280 f i GraphicDisplay.obj
 0001:000092e0       ??7?$CComPtrBase@UIOleClientSite@@@ATL@@QEBA_NXZ 000000018000a2e0 f i GraphicDisplay.obj
 0001:00009330       ??7?$CComPtrBase@UIOleInPlaceSiteWindowless@@@ATL@@QEBA_NXZ 000000018000a330 f i GraphicDisplay.obj
 0001:00009380       ??7CComBSTR@ATL@@QEBA_NXZ  000000018000a380 f i GraphicDisplay.obj
 0001:000093d0       ??8?$CComPtrBase@UIConnectionPointContainer@@@ATL@@QEBA_NPEAUIConnectionPointContainer@@@Z 000000018000a3d0 f i GraphicDisplay.obj
 0001:00009420       ??8?$CComPtrBase@UIDataAdviseHolder@@@ATL@@QEBA_NPEAUIDataAdviseHolder@@@Z 000000018000a420 f i GraphicDisplay.obj
 0001:00009470       ??8?$CComPtrBase@UIOleAdviseHolder@@@ATL@@QEBA_NPEAUIOleAdviseHolder@@@Z 000000018000a470 f i GraphicDisplay.obj
 0001:000094c0       ??8?$CComPtrBase@UIOleClientSite@@@ATL@@QEBA_NPEAUIOleClientSite@@@Z 000000018000a4c0 f i GraphicDisplay.obj
 0001:00009510       ??8?$CComPtrBase@UIOleControlSite@@@ATL@@QEBA_NPEAUIOleControlSite@@@Z 000000018000a510 f i GraphicDisplay.obj
 0001:00009560       ??8?$CComPtrBase@UIOleInPlaceObject@@@ATL@@QEBA_NPEAUIOleInPlaceObject@@@Z 000000018000a560 f i GraphicDisplay.obj
 0001:000095b0       ??8?$CComPtrBase@UIOleInPlaceSiteWindowless@@@ATL@@QEBA_NPEAUIOleInPlaceSiteWindowless@@@Z 000000018000a5b0 f i GraphicDisplay.obj
 0001:00009600       ??8?$CComPtrBase@UIOleObject@@@ATL@@QEBA_NPEAUIOleObject@@@Z 000000018000a600 f i GraphicDisplay.obj
 0001:00009650       ??8?$CComPtrBase@UIPersistStream@@@ATL@@QEBA_NPEAUIPersistStream@@@Z 000000018000a650 f i GraphicDisplay.obj
 0001:000096a0       ??8?$CComPtrBase@UIPersistStreamInit@@@ATL@@QEBA_NPEAUIPersistStreamInit@@@Z 000000018000a6a0 f i GraphicDisplay.obj
 0001:000096f0       ??8?$CComPtrBase@UIPointerInactive@@@ATL@@QEBA_NPEAUIPointerInactive@@@Z 000000018000a6f0 f i GraphicDisplay.obj
 0001:00009740       ??8?$CComPtrBase@UIUnknown@@@ATL@@QEBA_NPEAUIUnknown@@@Z 000000018000a740 f i GraphicDisplay.obj
 0001:00009790       ??8?$CComPtrBase@UIViewObjectEx@@@ATL@@QEBA_NPEAUIViewObjectEx@@@Z 000000018000a790 f i GraphicDisplay.obj
 0001:000097e0       ??8CComBSTR@ATL@@QEBA_NH@Z 000000018000a7e0 f i GraphicDisplay.obj
 0001:00009860       ??9?$CComPtrBase@UIConnectionPointContainer@@@ATL@@QEBA_NPEAUIConnectionPointContainer@@@Z 000000018000a860 f i GraphicDisplay.obj
 0001:000098c0       ??9?$CComPtrBase@UIDataAdviseHolder@@@ATL@@QEBA_NPEAUIDataAdviseHolder@@@Z 000000018000a8c0 f i GraphicDisplay.obj
 0001:00009920       ??9?$CComPtrBase@UIOleAdviseHolder@@@ATL@@QEBA_NPEAUIOleAdviseHolder@@@Z 000000018000a920 f i GraphicDisplay.obj
 0001:00009980       ??9?$CComPtrBase@UIOleClientSite@@@ATL@@QEBA_NPEAUIOleClientSite@@@Z 000000018000a980 f i GraphicDisplay.obj
 0001:000099e0       ??9?$CComPtrBase@UIOleControlSite@@@ATL@@QEBA_NPEAUIOleControlSite@@@Z 000000018000a9e0 f i GraphicDisplay.obj
 0001:00009a40       ??9?$CComPtrBase@UIOleInPlaceObject@@@ATL@@QEBA_NPEAUIOleInPlaceObject@@@Z 000000018000aa40 f i GraphicDisplay.obj
 0001:00009aa0       ??9?$CComPtrBase@UIOleInPlaceSiteWindowless@@@ATL@@QEBA_NPEAUIOleInPlaceSiteWindowless@@@Z 000000018000aaa0 f i GraphicDisplay.obj
 0001:00009b00       ??9?$CComPtrBase@UIOleObject@@@ATL@@QEBA_NPEAUIOleObject@@@Z 000000018000ab00 f i GraphicDisplay.obj
 0001:00009b60       ??9?$CComPtrBase@UIPersistStream@@@ATL@@QEBA_NPEAUIPersistStream@@@Z 000000018000ab60 f i GraphicDisplay.obj
 0001:00009bc0       ??9?$CComPtrBase@UIPersistStreamInit@@@ATL@@QEBA_NPEAUIPersistStreamInit@@@Z 000000018000abc0 f i GraphicDisplay.obj
 0001:00009c20       ??9?$CComPtrBase@UIPointerInactive@@@ATL@@QEBA_NPEAUIPointerInactive@@@Z 000000018000ac20 f i GraphicDisplay.obj
 0001:00009c80       ??9?$CComPtrBase@UIUnknown@@@ATL@@QEBA_NPEAUIUnknown@@@Z 000000018000ac80 f i GraphicDisplay.obj
 0001:00009ce0       ??9?$CComPtrBase@UIViewObjectEx@@@ATL@@QEBA_NPEAUIViewObjectEx@@@Z 000000018000ace0 f i GraphicDisplay.obj
 0001:00009d40       ??9CComBSTR@ATL@@QEBA_NH@Z 000000018000ad40 f i GraphicDisplay.obj
 0001:00009da0       ??B?$CComPtrBase@UIAdviseSink@@@ATL@@QEBAPEAUIAdviseSink@@XZ 000000018000ada0 f i GraphicDisplay.obj
 0001:00009db0       ??B?$CComPtrBase@UIDataAdviseHolder@@@ATL@@QEBAPEAUIDataAdviseHolder@@XZ 000000018000adb0 f i GraphicDisplay.obj
 0001:00009dc0       ??B?$CComPtrBase@UIDataObject@@@ATL@@QEBAPEAUIDataObject@@XZ 000000018000adc0 f i GraphicDisplay.obj
 0001:00009dd0       ??B?$CComPtrBase@UIOleAdviseHolder@@@ATL@@QEBAPEAUIOleAdviseHolder@@XZ 000000018000add0 f i GraphicDisplay.obj
 0001:00009de0       ??B?$CComPtrBase@UIOleClientSite@@@ATL@@QEBAPEAUIOleClientSite@@XZ 000000018000ade0 f i GraphicDisplay.obj
 0001:00009df0       ??B?$CComPtrBase@UIOleControlSite@@@ATL@@QEBAPEAUIOleControlSite@@XZ 000000018000adf0 f i GraphicDisplay.obj
 0001:00009e00       ??B?$CComPtrBase@UIOleInPlaceActiveObject@@@ATL@@QEBAPEAUIOleInPlaceActiveObject@@XZ 000000018000ae00 f i GraphicDisplay.obj
 0001:00009e10       ??B?$CComPtrBase@UIOleInPlaceFrame@@@ATL@@QEBAPEAUIOleInPlaceFrame@@XZ 000000018000ae10 f i GraphicDisplay.obj
 0001:00009e20       ??B?$CComPtrBase@UIOleInPlaceSiteWindowless@@@ATL@@QEBAPEAUIOleInPlaceSiteWindowless@@XZ 000000018000ae20 f i GraphicDisplay.obj
 0001:00009e30       ??B?$CComPtrBase@UIOleInPlaceUIWindow@@@ATL@@QEBAPEAUIOleInPlaceUIWindow@@XZ 000000018000ae30 f i GraphicDisplay.obj
 0001:00009e40       ??B?$CComPtrBase@UIOleObject@@@ATL@@QEBAPEAUIOleObject@@XZ 000000018000ae40 f i GraphicDisplay.obj
 0001:00009e50       ??B?$CComPtrBase@UIPersistStream@@@ATL@@QEBAPEAUIPersistStream@@XZ 000000018000ae50 f i GraphicDisplay.obj
 0001:00009e60       ??B?$CComPtrBase@UIProvideClassInfo2@@@ATL@@QEBAPEAUIProvideClassInfo2@@XZ 000000018000ae60 f i GraphicDisplay.obj
 0001:00009e70       ??B?$CComPtrBase@UISpecifyPropertyPages@@@ATL@@QEBAPEAUISpecifyPropertyPages@@XZ 000000018000ae70 f i GraphicDisplay.obj
 0001:00009e80       ??B?$CComPtrBase@UIStream@@@ATL@@QEBAPEAUIStream@@XZ 000000018000ae80 f i GraphicDisplay.obj
 0001:00009e90       ??B?$CComPtrBase@UITypeInfo2@@@ATL@@QEBAPEAUITypeInfo2@@XZ 000000018000ae90 f i GraphicDisplay.obj
 0001:00009ea0       ??B?$CComPtrBase@UITypeInfo@@@ATL@@QEBAPEAUITypeInfo@@XZ 000000018000aea0 f i GraphicDisplay.obj
 0001:00009eb0       ??B?$CComPtrBase@UITypeLib@@@ATL@@QEBAPEAUITypeLib@@XZ 000000018000aeb0 f i GraphicDisplay.obj
 0001:00009ec0       ??B?$CComPtrBase@UIUnknown@@@ATL@@QEBAPEAUIUnknown@@XZ 000000018000aec0 f i GraphicDisplay.obj
 0001:00009ed0       ??B?$CTempBuffer@E$0BAA@VCCRTAllocator@ATL@@@ATL@@QEBAPEAEXZ 000000018000aed0 f i GraphicDisplay.obj
 0001:00009ee0       ??B?$CTempBuffer@_W$0BAA@VCCRTAllocator@ATL@@@ATL@@QEBAPEA_WXZ 000000018000aee0 f i GraphicDisplay.obj
 0001:00009ef0       ??B?$CTempBuffer@_W$0EAA@VCCRTAllocator@ATL@@@ATL@@QEBAPEA_WXZ 000000018000aef0 f i GraphicDisplay.obj
 0001:00009f00       ??B?$CTraceCategoryEx@$00$0A@@ATL@@QEAAIXZ 000000018000af00 f i GraphicDisplay.obj
 0001:00009f10       ??B?$CTraceCategoryEx@$07$0A@@ATL@@QEAAIXZ 000000018000af10 f i GraphicDisplay.obj
 0001:00009f20       ??B?$CTraceCategoryEx@$0CAAA@$0A@@ATL@@QEAAIXZ 000000018000af20 f i GraphicDisplay.obj
 0001:00009f30       ??B?$CTraceCategoryEx@$0EA@$0A@@ATL@@QEAAIXZ 000000018000af30 f i GraphicDisplay.obj
 0001:00009f40       ??B?$CTraceCategoryEx@$0IAA@$0A@@ATL@@QEAAIXZ 000000018000af40 f i GraphicDisplay.obj
 0001:00009f50       ??BCComBSTR@ATL@@QEBAPEA_WXZ 000000018000af50 f i GraphicDisplay.obj
 0001:00009f60       ??BCRegKey@ATL@@QEBAPEAUHKEY__@@XZ 000000018000af60 f i GraphicDisplay.obj
 0001:00009f70       ??C?$CComPtrBase@UIAdviseSink@@@ATL@@QEBAPEAV?$_NoAddRefReleaseOnCComPtr@UIAdviseSink@@@1@XZ 000000018000af70 f i GraphicDisplay.obj
 0001:00009ff0       ??C?$CComPtrBase@UICatRegister@@@ATL@@QEBAPEAV?$_NoAddRefReleaseOnCComPtr@UICatRegister@@@1@XZ 000000018000aff0 f i GraphicDisplay.obj
 0001:0000a070       ??C?$CComPtrBase@UIConnectionPoint@@@ATL@@QEBAPEAV?$_NoAddRefReleaseOnCComPtr@UIConnectionPoint@@@1@XZ 000000018000b070 f i GraphicDisplay.obj
 0001:0000a0f0       ??C?$CComPtrBase@UIConnectionPointContainer@@@ATL@@QEBAPEAV?$_NoAddRefReleaseOnCComPtr@UIConnectionPointContainer@@@1@XZ 000000018000b0f0 f i GraphicDisplay.obj
 0001:0000a170       ??C?$CComPtrBase@UIDataAdviseHolder@@@ATL@@QEBAPEAV?$_NoAddRefReleaseOnCComPtr@UIDataAdviseHolder@@@1@XZ 000000018000b170 f i GraphicDisplay.obj
 0001:0000a1f0       ??C?$CComPtrBase@UIOleAdviseHolder@@@ATL@@QEBAPEAV?$_NoAddRefReleaseOnCComPtr@UIOleAdviseHolder@@@1@XZ 000000018000b1f0 f i GraphicDisplay.obj
 0001:0000a270       ??C?$CComPtrBase@UIOleClientSite@@@ATL@@QEBAPEAV?$_NoAddRefReleaseOnCComPtr@UIOleClientSite@@@1@XZ 000000018000b270 f i GraphicDisplay.obj
 0001:0000a2f0       ??C?$CComPtrBase@UIOleControlSite@@@ATL@@QEBAPEAV?$_NoAddRefReleaseOnCComPtr@UIOleControlSite@@@1@XZ 000000018000b2f0 f i GraphicDisplay.obj
 0001:0000a370       ??C?$CComPtrBase@UIOleInPlaceFrame@@@ATL@@QEBAPEAV?$_NoAddRefReleaseOnCComPtr@UIOleInPlaceFrame@@@1@XZ 000000018000b370 f i GraphicDisplay.obj
 0001:0000a3f0       ??C?$CComPtrBase@UIOleInPlaceObject@@@ATL@@QEBAPEAV?$_NoAddRefReleaseOnCComPtr@UIOleInPlaceObject@@@1@XZ 000000018000b3f0 f i GraphicDisplay.obj
 0001:0000a470       ??C?$CComPtrBase@UIOleInPlaceSiteWindowless@@@ATL@@QEBAPEAV?$_NoAddRefReleaseOnCComPtr@UIOleInPlaceSiteWindowless@@@1@XZ 000000018000b470 f i GraphicDisplay.obj
 0001:0000a4f0       ??C?$CComPtrBase@UIOleInPlaceUIWindow@@@ATL@@QEBAPEAV?$_NoAddRefReleaseOnCComPtr@UIOleInPlaceUIWindow@@@1@XZ 000000018000b4f0 f i GraphicDisplay.obj
 0001:0000a570       ??C?$CComPtrBase@UIOleObject@@@ATL@@QEBAPEAV?$_NoAddRefReleaseOnCComPtr@UIOleObject@@@1@XZ 000000018000b570 f i GraphicDisplay.obj
 0001:0000a5f0       ??C?$CComPtrBase@UIPersistStream@@@ATL@@QEBAPEAV?$_NoAddRefReleaseOnCComPtr@UIPersistStream@@@1@XZ 000000018000b5f0 f i GraphicDisplay.obj
 0001:0000a670       ??C?$CComPtrBase@UIPersistStreamInit@@@ATL@@QEBAPEAV?$_NoAddRefReleaseOnCComPtr@UIPersistStreamInit@@@1@XZ 000000018000b670 f i GraphicDisplay.obj
 0001:0000a6f0       ??C?$CComPtrBase@UIPointerInactive@@@ATL@@QEBAPEAV?$_NoAddRefReleaseOnCComPtr@UIPointerInactive@@@1@XZ 000000018000b6f0 f i GraphicDisplay.obj
 0001:0000a770       ??C?$CComPtrBase@UIProvideClassInfo2@@@ATL@@QEBAPEAV?$_NoAddRefReleaseOnCComPtr@UIProvideClassInfo2@@@1@XZ 000000018000b770 f i GraphicDisplay.obj
 0001:0000a7f0       ??C?$CComPtrBase@UISpecifyPropertyPages@@@ATL@@QEBAPEAV?$_NoAddRefReleaseOnCComPtr@UISpecifyPropertyPages@@@1@XZ 000000018000b7f0 f i GraphicDisplay.obj
 0001:0000a870       ??C?$CComPtrBase@UITypeInfo@@@ATL@@QEBAPEAV?$_NoAddRefReleaseOnCComPtr@UITypeInfo@@@1@XZ 000000018000b870 f i GraphicDisplay.obj
 0001:0000a8f0       ??C?$CComPtrBase@UITypeLib@@@ATL@@QEBAPEAV?$_NoAddRefReleaseOnCComPtr@UITypeLib@@@1@XZ 000000018000b8f0 f i GraphicDisplay.obj
 0001:0000a970       ??C?$CComPtrBase@UIUnknown@@@ATL@@QEBAPEAV?$_NoAddRefReleaseOnCComPtr@UIUnknown@@@1@XZ 000000018000b970 f i GraphicDisplay.obj
 0001:0000a9f0       ??C?$CComPtrBase@UIViewObjectEx@@@ATL@@QEBAPEAV?$_NoAddRefReleaseOnCComPtr@UIViewObjectEx@@@1@XZ 000000018000b9f0 f i GraphicDisplay.obj
 0001:0000aa70       ??I?$CComPtrBase@UICatRegister@@@ATL@@QEAAPEAPEAUICatRegister@@XZ 000000018000ba70 f i GraphicDisplay.obj
 0001:0000aae0       ??I?$CComPtrBase@UIConnectionPoint@@@ATL@@QEAAPEAPEAUIConnectionPoint@@XZ 000000018000bae0 f i GraphicDisplay.obj
 0001:0000ab50       ??I?$CComPtrBase@UIConnectionPointContainer@@@ATL@@QEAAPEAPEAUIConnectionPointContainer@@XZ 000000018000bb50 f i GraphicDisplay.obj
 0001:0000abc0       ??I?$CComPtrBase@UIDataAdviseHolder@@@ATL@@QEAAPEAPEAUIDataAdviseHolder@@XZ 000000018000bbc0 f i GraphicDisplay.obj
 0001:0000ac30       ??I?$CComPtrBase@UIDataObject@@@ATL@@QEAAPEAPEAUIDataObject@@XZ 000000018000bc30 f i GraphicDisplay.obj
 0001:0000aca0       ??I?$CComPtrBase@UIDispatch@@@ATL@@QEAAPEAPEAUIDispatch@@XZ 000000018000bca0 f i GraphicDisplay.obj
 0001:0000ad10       ??I?$CComPtrBase@UIOleAdviseHolder@@@ATL@@QEAAPEAPEAUIOleAdviseHolder@@XZ 000000018000bd10 f i GraphicDisplay.obj
 0001:0000ad80       ??I?$CComPtrBase@UIOleControlSite@@@ATL@@QEAAPEAPEAUIOleControlSite@@XZ 000000018000bd80 f i GraphicDisplay.obj
 0001:0000adf0       ??I?$CComPtrBase@UIOleInPlaceActiveObject@@@ATL@@QEAAPEAPEAUIOleInPlaceActiveObject@@XZ 000000018000bdf0 f i GraphicDisplay.obj
 0001:0000ae60       ??I?$CComPtrBase@UIOleInPlaceFrame@@@ATL@@QEAAPEAPEAUIOleInPlaceFrame@@XZ 000000018000be60 f i GraphicDisplay.obj
 0001:0000aed0       ??I?$CComPtrBase@UIOleInPlaceObject@@@ATL@@QEAAPEAPEAUIOleInPlaceObject@@XZ 000000018000bed0 f i GraphicDisplay.obj
 0001:0000af40       ??I?$CComPtrBase@UIOleInPlaceSiteWindowless@@@ATL@@QEAAPEAPEAUIOleInPlaceSiteWindowless@@XZ 000000018000bf40 f i GraphicDisplay.obj
 0001:0000afb0       ??I?$CComPtrBase@UIOleInPlaceUIWindow@@@ATL@@QEAAPEAPEAUIOleInPlaceUIWindow@@XZ 000000018000bfb0 f i GraphicDisplay.obj
 0001:0000b020       ??I?$CComPtrBase@UIOleObject@@@ATL@@QEAAPEAPEAUIOleObject@@XZ 000000018000c020 f i GraphicDisplay.obj
 0001:0000b090       ??I?$CComPtrBase@UIPersistStream@@@ATL@@QEAAPEAPEAUIPersistStream@@XZ 000000018000c090 f i GraphicDisplay.obj
 0001:0000b100       ??I?$CComPtrBase@UIPointerInactive@@@ATL@@QEAAPEAPEAUIPointerInactive@@XZ 000000018000c100 f i GraphicDisplay.obj
 0001:0000b170       ??I?$CComPtrBase@UIProvideClassInfo2@@@ATL@@QEAAPEAPEAUIProvideClassInfo2@@XZ 000000018000c170 f i GraphicDisplay.obj
 0001:0000b1e0       ??I?$CComPtrBase@UIStream@@@ATL@@QEAAPEAPEAUIStream@@XZ 000000018000c1e0 f i GraphicDisplay.obj
 0001:0000b250       ??I?$CComPtrBase@UITypeInfo2@@@ATL@@QEAAPEAPEAUITypeInfo2@@XZ 000000018000c250 f i GraphicDisplay.obj
 0001:0000b2c0       ??I?$CComPtrBase@UITypeInfo@@@ATL@@QEAAPEAPEAUITypeInfo@@XZ 000000018000c2c0 f i GraphicDisplay.obj
 0001:0000b330       ??I?$CComPtrBase@UITypeLib@@@ATL@@QEAAPEAPEAUITypeLib@@XZ 000000018000c330 f i GraphicDisplay.obj
 0001:0000b3a0       ??I?$CComPtrBase@UIUnknown@@@ATL@@QEAAPEAPEAUIUnknown@@XZ 000000018000c3a0 f i GraphicDisplay.obj
 0001:0000b410       ??I?$CComPtrBase@UIViewObjectEx@@@ATL@@QEAAPEAPEAUIViewObjectEx@@XZ 000000018000c410 f i GraphicDisplay.obj
 0001:0000b480       ??ICComBSTR@ATL@@QEAAPEAPEA_WXZ 000000018000c480 f i GraphicDisplay.obj
 0001:0000b490       ??_E?$CComContainedObject@VCOPOSGraphicDisplay@@@ATL@@W7EAAPEAXI@Z 000000018000c490 f i GraphicDisplay.obj
 0001:0000b49c       ??_E?$CComContainedObject@VCOPOSGraphicDisplay@@@ATL@@WHA@EAAPEAXI@Z 000000018000c49c f i GraphicDisplay.obj
 0001:0000b4a8       ??_E?$CComObject@VCOPOSGraphicDisplay@@@ATL@@W7EAAPEAXI@Z 000000018000c4a8 f i GraphicDisplay.obj
 0001:0000b4b4       ??_E?$CComObject@VCOPOSGraphicDisplay@@@ATL@@WHA@EAAPEAXI@Z 000000018000c4b4 f i GraphicDisplay.obj
 0001:0000b4c0       ??_E?$CComAggObject@VCOPOSGraphicDisplay@@@ATL@@UEAAPEAXI@Z 000000018000c4c0 f i GraphicDisplay.obj
 0001:0000b4c0       ??_G?$CComAggObject@VCOPOSGraphicDisplay@@@ATL@@UEAAPEAXI@Z 000000018000c4c0 f i GraphicDisplay.obj
 0001:0000b520       ??_E?$CComContainedObject@VCOPOSGraphicDisplay@@@ATL@@UEAAPEAXI@Z 000000018000c520 f i GraphicDisplay.obj
 0001:0000b520       ??_G?$CComContainedObject@VCOPOSGraphicDisplay@@@ATL@@UEAAPEAXI@Z 000000018000c520 f i GraphicDisplay.obj
 0001:0000b580       ??_E?$CComObject@V?$CComEnum@UIEnumConnectionPoints@@$1?_GUID_b196b285_bab4_101a_b69c_00aa00341d07@@3U__s_GUID@@BPEAUIConnectionPoint@@V?$_CopyInterface@UIConnectionPoint@@@ATL@@VCComSingleThreadModel@6@@ATL@@@ATL@@UEAAPEAXI@Z 000000018000c580 f i GraphicDisplay.obj
 0001:0000b580       ??_G?$CComObject@V?$CComEnum@UIEnumConnectionPoints@@$1?_GUID_b196b285_bab4_101a_b69c_00aa00341d07@@3U__s_GUID@@BPEAUIConnectionPoint@@V?$_CopyInterface@UIConnectionPoint@@@ATL@@VCComSingleThreadModel@6@@ATL@@@ATL@@UEAAPEAXI@Z 000000018000c580 f i GraphicDisplay.obj
 0001:0000b5e0       ??_G?$CComObject@V?$CComEnum@UIEnumConnections@@$1?_GUID_b196b287_bab4_101a_b69c_00aa00341d07@@3U__s_GUID@@BUtagCONNECTDATA@@V?$_Copy@UtagCONNECTDATA@@@ATL@@VCComSingleThreadModel@6@@ATL@@@ATL@@UEAAPEAXI@Z 000000018000c5e0 f i GraphicDisplay.obj
 0001:0000b5e0       ??_E?$CComObject@V?$CComEnum@UIEnumConnections@@$1?_GUID_b196b287_bab4_101a_b69c_00aa00341d07@@3U__s_GUID@@BUtagCONNECTDATA@@V?$_Copy@UtagCONNECTDATA@@@ATL@@VCComSingleThreadModel@6@@ATL@@@ATL@@UEAAPEAXI@Z 000000018000c5e0 f i GraphicDisplay.obj
 0001:0000b640       ??_E?$CComObject@VCOPOSGraphicDisplay@@@ATL@@UEAAPEAXI@Z 000000018000c640 f i GraphicDisplay.obj
 0001:0000b640       ??_G?$CComObject@VCOPOSGraphicDisplay@@@ATL@@UEAAPEAXI@Z 000000018000c640 f i GraphicDisplay.obj
 0001:0000b6a0       ??_G?$CComObjectCached@VCComClassFactory@ATL@@@ATL@@UEAAPEAXI@Z 000000018000c6a0 f i GraphicDisplay.obj
 0001:0000b6a0       ??_E?$CComObjectCached@VCComClassFactory@ATL@@@ATL@@UEAAPEAXI@Z 000000018000c6a0 f i GraphicDisplay.obj
 0001:0000b700       ??_GCComClassFactory@ATL@@UEAAPEAXI@Z 000000018000c700 f i GraphicDisplay.obj
 0001:0000b700       ??_ECComClassFactory@ATL@@UEAAPEAXI@Z 000000018000c700 f i GraphicDisplay.obj
 0001:0000b760       ??_GCComModule@ATL@@UEAAPEAXI@Z 000000018000c760 f i GraphicDisplay.obj
 0001:0000b760       ??_ECComModule@ATL@@UEAAPEAXI@Z 000000018000c760 f i GraphicDisplay.obj
 0001:0000b7c0       ??_ECRegObject@ATL@@UEAAPEAXI@Z 000000018000c7c0 f i GraphicDisplay.obj
 0001:0000b7c0       ??_GCRegObject@ATL@@UEAAPEAXI@Z 000000018000c7c0 f i GraphicDisplay.obj
 0001:0000b820       ?Add@?$CSimpleArray@GV?$CSimpleArrayEqualHelper@G@ATL@@@ATL@@QEAAHAEBG@Z 000000018000c820 f i GraphicDisplay.obj
 0001:0000b9c0       ?Add@?$CSimpleMap@PEA_WPEA_WVCExpansionVectorEqualHelper@ATL@@@ATL@@QEAAHAEBQEA_W0@Z 000000018000c9c0 f i GraphicDisplay.obj
 0001:0000bab0       ?Add@CComDynamicUnkArray@ATL@@QEAAKPEAUIUnknown@@@Z 000000018000cab0 f i GraphicDisplay.obj
 0001:0000bc90       ?Add@CExpansionVector@ATL@@QEAAHPEB_W0@Z 000000018000cc90 f i GraphicDisplay.obj
 0001:0000bfc0       ?AddChar@CParseBuffer@CRegParser@ATL@@QEAAHPEB_W@Z 000000018000cfc0 f i GraphicDisplay.obj
 0001:0000c010       ?AddCommonRGSReplacements@?$CAtlModuleT@VCComModule@ATL@@@ATL@@UEAAJPEAUIRegistrarBase@@@Z 000000018000d010 f i GraphicDisplay.obj
 0001:0000c070       ?AddCreateWndData@CAtlWinModule@ATL@@QEAAXPEAU_AtlCreateWndData@2@PEAX@Z 000000018000d070 f i GraphicDisplay.obj
 0001:0000c0c0       ?AddRef@?$CComAggObject@VCOPOSGraphicDisplay@@@ATL@@UEAAKXZ 000000018000d0c0 f i GraphicDisplay.obj
 0001:0000c100       ?AddRef@?$CComContainedObject@VCOPOSGraphicDisplay@@@ATL@@UEAAKXZ 000000018000d100 f i GraphicDisplay.obj
 0001:0000c138       ?AddRef@?$CComContainedObject@VCOPOSGraphicDisplay@@@ATL@@WBAA@EAAKXZ 000000018000d138 f i GraphicDisplay.obj
 0001:0000c144       ?AddRef@?$CComContainedObject@VCOPOSGraphicDisplay@@@ATL@@WBAI@EAAKXZ 000000018000d144 f i GraphicDisplay.obj
 0001:0000c150       ?AddRef@?$CComContainedObject@VCOPOSGraphicDisplay@@@ATL@@WBBA@EAAKXZ 000000018000d150 f i GraphicDisplay.obj
 0001:0000c15c       ?AddRef@?$CComContainedObject@VCOPOSGraphicDisplay@@@ATL@@WBBI@EAAKXZ 000000018000d15c f i GraphicDisplay.obj
 0001:0000c168       ?AddRef@?$CComContainedObject@VCOPOSGraphicDisplay@@@ATL@@WBCI@EAAKXZ 000000018000d168 f i GraphicDisplay.obj
 0001:0000c174       ?AddRef@?$CComContainedObject@VCOPOSGraphicDisplay@@@ATL@@WBEA@EAAKXZ 000000018000d174 f i GraphicDisplay.obj
 0001:0000c180       ?AddRef@?$CComContainedObject@VCOPOSGraphicDisplay@@@ATL@@WLI@EAAKXZ 000000018000d180 f i GraphicDisplay.obj
 0001:0000c18c       ?AddRef@?$CComContainedObject@VCOPOSGraphicDisplay@@@ATL@@WMA@EAAKXZ 000000018000d18c f i GraphicDisplay.obj
 0001:0000c198       ?AddRef@?$CComContainedObject@VCOPOSGraphicDisplay@@@ATL@@WMI@EAAKXZ 000000018000d198 f i GraphicDisplay.obj
 0001:0000c1a4       ?AddRef@?$CComContainedObject@VCOPOSGraphicDisplay@@@ATL@@WNA@EAAKXZ 000000018000d1a4 f i GraphicDisplay.obj
 0001:0000c1b0       ?AddRef@?$CComContainedObject@VCOPOSGraphicDisplay@@@ATL@@WNI@EAAKXZ 000000018000d1b0 f i GraphicDisplay.obj
 0001:0000c1bc       ?AddRef@?$CComContainedObject@VCOPOSGraphicDisplay@@@ATL@@WOA@EAAKXZ 000000018000d1bc f i GraphicDisplay.obj
 0001:0000c1c8       ?AddRef@?$CComContainedObject@VCOPOSGraphicDisplay@@@ATL@@WOI@EAAKXZ 000000018000d1c8 f i GraphicDisplay.obj
 0001:0000c1d4       ?AddRef@?$CComContainedObject@VCOPOSGraphicDisplay@@@ATL@@WPA@EAAKXZ 000000018000d1d4 f i GraphicDisplay.obj
 0001:0000c1e0       ?AddRef@?$CComContainedObject@VCOPOSGraphicDisplay@@@ATL@@WPI@EAAKXZ 000000018000d1e0 f i GraphicDisplay.obj
 0001:0000c1f0       ?AddRef@?$CComObject@V?$CComEnum@UIEnumConnectionPoints@@$1?_GUID_b196b285_bab4_101a_b69c_00aa00341d07@@3U__s_GUID@@BPEAUIConnectionPoint@@V?$_CopyInterface@UIConnectionPoint@@@ATL@@VCComSingleThreadModel@6@@ATL@@@ATL@@UEAAKXZ 000000018000d1f0 f i GraphicDisplay.obj
 0001:0000c230       ?AddRef@?$CComObject@V?$CComEnum@UIEnumConnections@@$1?_GUID_b196b287_bab4_101a_b69c_00aa00341d07@@3U__s_GUID@@BUtagCONNECTDATA@@V?$_Copy@UtagCONNECTDATA@@@ATL@@VCComSingleThreadModel@6@@ATL@@@ATL@@UEAAKXZ 000000018000d230 f i GraphicDisplay.obj
 0001:0000c270       ?AddRef@?$CComObject@VCOPOSGraphicDisplay@@@ATL@@UEAAKXZ 000000018000d270 f i GraphicDisplay.obj
 0001:0000c2a8       ?AddRef@?$CComObject@VCOPOSGraphicDisplay@@@ATL@@WBAA@EAAKXZ 000000018000d2a8 f i GraphicDisplay.obj
 0001:0000c2b4       ?AddRef@?$CComObject@VCOPOSGraphicDisplay@@@ATL@@WBAI@EAAKXZ 000000018000d2b4 f i GraphicDisplay.obj
 0001:0000c2c0       ?AddRef@?$CComObject@VCOPOSGraphicDisplay@@@ATL@@WBBA@EAAKXZ 000000018000d2c0 f i GraphicDisplay.obj
 0001:0000c2cc       ?AddRef@?$CComObject@VCOPOSGraphicDisplay@@@ATL@@WBBI@EAAKXZ 000000018000d2cc f i GraphicDisplay.obj
 0001:0000c2d8       ?AddRef@?$CComObject@VCOPOSGraphicDisplay@@@ATL@@WBCI@EAAKXZ 000000018000d2d8 f i GraphicDisplay.obj
 0001:0000c2e4       ?AddRef@?$CComObject@VCOPOSGraphicDisplay@@@ATL@@WBEA@EAAKXZ 000000018000d2e4 f i GraphicDisplay.obj
 0001:0000c2f0       ?AddRef@?$CComObject@VCOPOSGraphicDisplay@@@ATL@@WLI@EAAKXZ 000000018000d2f0 f i GraphicDisplay.obj
 0001:0000c2fc       ?AddRef@?$CComObject@VCOPOSGraphicDisplay@@@ATL@@WMA@EAAKXZ 000000018000d2fc f i GraphicDisplay.obj
 0001:0000c308       ?AddRef@?$CComObject@VCOPOSGraphicDisplay@@@ATL@@WMI@EAAKXZ 000000018000d308 f i GraphicDisplay.obj
 0001:0000c314       ?AddRef@?$CComObject@VCOPOSGraphicDisplay@@@ATL@@WNA@EAAKXZ 000000018000d314 f i GraphicDisplay.obj
 0001:0000c320       ?AddRef@?$CComObject@VCOPOSGraphicDisplay@@@ATL@@WNI@EAAKXZ 000000018000d320 f i GraphicDisplay.obj
 0001:0000c32c       ?AddRef@?$CComObject@VCOPOSGraphicDisplay@@@ATL@@WOA@EAAKXZ 000000018000d32c f i GraphicDisplay.obj
 0001:0000c338       ?AddRef@?$CComObject@VCOPOSGraphicDisplay@@@ATL@@WOI@EAAKXZ 000000018000d338 f i GraphicDisplay.obj
 0001:0000c344       ?AddRef@?$CComObject@VCOPOSGraphicDisplay@@@ATL@@WPA@EAAKXZ 000000018000d344 f i GraphicDisplay.obj
 0001:0000c350       ?AddRef@?$CComObject@VCOPOSGraphicDisplay@@@ATL@@WPI@EAAKXZ 000000018000d350 f i GraphicDisplay.obj
 0001:0000c360       ?AddRef@?$CComObjectCached@VCComClassFactory@ATL@@@ATL@@UEAAKXZ 000000018000d360 f i GraphicDisplay.obj
 0001:0000c3c0       ?AddRef@CRegObject@ATL@@UEAAKXZ 000000018000d3c0 f i GraphicDisplay.obj
 0001:0000c430       ?AddReplacement@CRegObject@ATL@@UEAAJPEB_W0@Z 000000018000d430 f i GraphicDisplay.obj
 0001:0000c560       ?AddString@CParseBuffer@CRegParser@ATL@@QEAAHPEB_W@Z 000000018000d560 f i GraphicDisplay.obj
 0001:0000c650       ?AddTermFunc@CAtlModule@ATL@@QEAAJP6AX_K@Z0@Z 000000018000d650 f i GraphicDisplay.obj
 0001:0000c6c0       ?AddValue@CRegParser@ATL@@IEAAJAEAVCRegKey@2@PEB_WPEA_W@Z 000000018000d6c0 f i GraphicDisplay.obj
 0001:0000cf90       ?Advise@?$CProxy_IOPOSEvents@VCOPOSGraphicDisplay@@@@UEAAJPEAUIUnknown@@PEAK@Z 000000018000df90 f i GraphicDisplay.obj
 0001:0000d000       ?Advise@?$IConnectionPointImpl@VCOPOSGraphicDisplay@@$1?DIID__IOPOSGraphicDisplayEvents@@3U_GUID@@BVCComDynamicUnkArray@ATL@@@ATL@@UEAAJPEAUIUnknown@@PEAK@Z 000000018000e000 f i GraphicDisplay.obj
 0001:0000d200       ?Advise@?$IConnectionPointImpl@VCOPOSGraphicDisplay@@$1?IID_IPropertyNotifySink@@3U_GUID@@BVCComDynamicUnkArray@ATL@@@ATL@@UEAAJPEAUIUnknown@@PEAK@Z 000000018000e200 f i GraphicDisplay.obj
 0001:0000d400       ?Advise@?$IOleObjectImpl@VCOPOSGraphicDisplay@@@ATL@@UEAAJPEAUIAdviseSink@@PEAK@Z 000000018000e400 f i GraphicDisplay.obj
 0001:0000d4c0       ?Allocate@?$CAtlSafeAllocBufferManager@VCCRTAllocator@ATL@@@_ATL_SAFE_ALLOCA_IMPL@ATL@@QEAAPEAX_K@Z 000000018000e4c0 f i GraphicDisplay.obj
 0001:0000d540       ?Allocate@?$CTempBuffer@E$0BAA@VCCRTAllocator@ATL@@@ATL@@QEAAPEAE_K@Z 000000018000e540 f i GraphicDisplay.obj
 0001:0000d590       ?Allocate@?$CTempBuffer@_W$0BAA@VCCRTAllocator@ATL@@@ATL@@QEAAPEA_W_K@Z 000000018000e590 f i GraphicDisplay.obj
 0001:0000d5e0       ?Allocate@?$CTempBuffer@_W$0EAA@VCCRTAllocator@ATL@@@ATL@@QEAAPEA_W_K@Z 000000018000e5e0 f i GraphicDisplay.obj
 0001:0000d630       ?AllocateBytes@?$CTempBuffer@E$0BAA@VCCRTAllocator@ATL@@@ATL@@QEAAPEAE_K@Z 000000018000e630 f i GraphicDisplay.obj
 0001:0000d6e0       ?AllocateBytes@?$CTempBuffer@_W$0BAA@VCCRTAllocator@ATL@@@ATL@@QEAAPEA_W_K@Z 000000018000e6e0 f i GraphicDisplay.obj
 0001:0000d790       ?AllocateBytes@?$CTempBuffer@_W$0EAA@VCCRTAllocator@ATL@@@ATL@@QEAAPEA_W_K@Z 000000018000e790 f i GraphicDisplay.obj
 0001:0000d840       ?AllocateHeap@?$CTempBuffer@E$0BAA@VCCRTAllocator@ATL@@@ATL@@AEAAX_K@Z 000000018000e840 f i GraphicDisplay.obj
 0001:0000d8a0       ?AllocateHeap@?$CTempBuffer@_W$0BAA@VCCRTAllocator@ATL@@@ATL@@AEAAX_K@Z 000000018000e8a0 f i GraphicDisplay.obj
 0001:0000d900       ?AllocateHeap@?$CTempBuffer@_W$0EAA@VCCRTAllocator@ATL@@@ATL@@AEAAX_K@Z 000000018000e900 f i GraphicDisplay.obj
 0001:0000d960       ?Append@CParseBuffer@CRegParser@ATL@@QEAAHPEB_WH@Z 000000018000e960 f i GraphicDisplay.obj
 0001:0000db90       ?AtlCallTermFunc@ATL@@YAXPEAU_ATL_MODULE70@1@@Z 000000018000eb90 f i GraphicDisplay.obj
 0001:0000dc40       ?AtlCoTaskMemCAlloc@ATL@@YAPEAXKK@Z 000000018000ec40 f i GraphicDisplay.obj
 0001:0000dcc0       ?AtlCoTaskMemRecalloc@ATL@@YAPEAXPEAXKK@Z 000000018000ecc0 f i GraphicDisplay.obj
 0001:0000dd40       ?AtlComModuleGetClassObject@ATL@@YAJPEAU_ATL_COM_MODULE70@1@AEBU_GUID@@1PEAPEAX@Z 000000018000ed40 f i GraphicDisplay.obj
 0001:0000e070       ?AtlComModuleRegisterServer@ATL@@YAJPEAU_ATL_COM_MODULE70@1@HPEBU_GUID@@@Z 000000018000f070 f i GraphicDisplay.obj
 0001:0000e270       ?AtlComModuleUnregisterServer@ATL@@YAJPEAU_ATL_COM_MODULE70@1@HPEBU_GUID@@@Z 000000018000f270 f i GraphicDisplay.obj
 0001:0000e3d0       ?AtlComQIPtrAssign2@ATL@@YAXPEAPEAUIUnknown@@PEAU2@AEBU_GUID@@@Z 000000018000f3d0 f i GraphicDisplay.obj
 0001:0000e460       ?AtlCreateTargetDC@ATL@@YAPEAUHDC__@@PEAU2@PEAUtagDVTARGETDEVICE@@@Z 000000018000f460 f i GraphicDisplay.obj
 0001:0000e690       ?AtlCrtErrorCheck@ATL@@YAHH@Z 000000018000f690 f i GraphicDisplay.obj
 0001:0000e710       ?AtlGetPerUserRegistration@ATL@@YAJPEA_N@Z 000000018000f710 f i GraphicDisplay.obj
 0001:0000e740       ?AtlHiMetricToPixel@ATL@@YAXPEBUtagSIZE@@PEAU2@@Z 000000018000f740 f i GraphicDisplay.obj
 0001:0000e940       ?AtlHresultFromLastError@ATL@@YAJXZ 000000018000f940 f i GraphicDisplay.obj
 0001:0000e970       ?AtlHresultFromWin32@ATL@@YAJK@Z 000000018000f970 f i GraphicDisplay.obj
 0001:0000e9a0       ?AtlIPersistStreamInit_Load@ATL@@YAJPEAUIStream@@PEBUATL_PROPMAP_ENTRY@1@PEAXPEAUIUnknown@@@Z 000000018000f9a0 f i GraphicDisplay.obj
 0001:0000f010       ?AtlIPersistStreamInit_Save@ATL@@YAJPEAUIStream@@HPEBUATL_PROPMAP_ENTRY@1@PEAXPEAUIUnknown@@@Z 0000000180010010 f i GraphicDisplay.obj
 0001:0000f5a0       ?AtlInternalOleLoadFromStream@ATL@@YAJPEAUIStream@@AEBU_GUID@@PEAPEAXTClassesAllowedInStream@1@K@Z 00000001800105a0 f i GraphicDisplay.obj
 0001:0000f8e0       ?AtlInternalQueryInterface@ATL@@YAJPEAXPEBU_ATL_INTMAP_ENTRY@1@AEBU_GUID@@PEAPEAX@Z 00000001800108e0 f i GraphicDisplay.obj
 0001:0000fba0       ?AtlLoadTypeLib@ATL@@YAJPEAUHINSTANCE__@@PEB_WPEAPEA_WPEAPEAUITypeLib@@@Z 0000000180010ba0 f i GraphicDisplay.obj
 0001:00010070       ?AtlModuleAddTermFunc@ATL@@YAJPEAU_ATL_MODULE70@1@P6AX_K@Z1@Z 0000000180011070 f i GraphicDisplay.obj
 0001:00010240       ?AtlRegisterClassCategoriesHelper@ATL@@YAJAEBU_GUID@@PEBU_ATL_CATMAP_ENTRY@1@H@Z 0000000180011240 f i GraphicDisplay.obj
 0001:00010a10       ?AtlRegisterTypeLib@ATL@@YAJPEAUHINSTANCE__@@PEB_W@Z 0000000180011a10 f i GraphicDisplay.obj
 0001:00010d70       ?AtlThrowImpl@ATL@@YAXJ@Z  0000000180011d70 f i GraphicDisplay.obj
 0001:00010e50       ?AtlUnRegisterTypeLib@ATL@@YAJPEAUHINSTANCE__@@PEB_W@Z 0000000180011e50 f i GraphicDisplay.obj
 0001:00011080       ?AtlWinModuleAddCreateWndData@ATL@@YAXPEAU_ATL_WIN_MODULE70@1@PEAU_AtlCreateWndData@1@PEAX@Z 0000000180012080 f i GraphicDisplay.obj
 0001:00011270       ?AtlWinModuleExtractCreateWndData@ATL@@YAPEAXPEAU_ATL_WIN_MODULE70@1@@Z 0000000180012270 f i GraphicDisplay.obj
 0001:00011470       ?AtlWinModuleRegisterClassExW@ATL@@YAGPEAU_ATL_WIN_MODULE70@1@PEBUtagWNDCLASSEXW@@@Z 0000000180012470 f i GraphicDisplay.obj
 0001:00011540       ?AtlWinModuleRegisterWndClassInfoW@ATL@@YAGPEAU_ATL_WIN_MODULE70@1@PEAU_ATL_BASE_MODULE70@1@PEAU_ATL_WNDCLASSINFOW@1@PEAP6A_JPEAUHWND__@@I_K_J@Z@Z 0000000180012540 f i GraphicDisplay.obj
 0001:000115b0       ?Attach@?$CAutoVectorPtr@_W@ATL@@QEAAXPEA_W@Z 00000001800125b0 f i GraphicDisplay.obj
 0001:00011640       ?Attach@CComBSTR@ATL@@QEAAXPEA_W@Z 0000000180012640 f i GraphicDisplay.obj
 0001:000116a0       ?Attach@CRegKey@ATL@@QEAAXPEAUHKEY__@@@Z 00000001800126a0 f i GraphicDisplay.obj
 0001:00011740       ?CanForceRemoveKey@CRegParser@ATL@@IEAAHPEB_W@Z 0000000180012740 f i GraphicDisplay.obj
 0001:000117b0       ?ChToByte@CRegParser@ATL@@KAE_W@Z 00000001800127b0 f i GraphicDisplay.obj
 0001:00011910       ?ChangeType@CComVariant@ATL@@QEAAJGPEBUtagVARIANT@@@Z 0000000180012910 f i GraphicDisplay.obj
 0001:00011980       ?Cleanup@CComTypeInfoHolder@ATL@@SAX_K@Z 0000000180012980 f i GraphicDisplay.obj
 0001:00011a70       ?Clear@CComVariant@ATL@@QEAAJXZ 0000000180012a70 f i GraphicDisplay.obj
 0001:00011aa0       ?ClearReplacements@CExpansionVector@ATL@@QEAAJXZ 0000000180012aa0 f i GraphicDisplay.obj
 0001:00011b40       ?ClearReplacements@CRegObject@ATL@@UEAAJXZ 0000000180012b40 f i GraphicDisplay.obj
 0001:00011ba0       ?Clone@?$CComEnumImpl@UIEnumConnectionPoints@@$1?_GUID_b196b285_bab4_101a_b69c_00aa00341d07@@3U__s_GUID@@BPEAUIConnectionPoint@@V?$_CopyInterface@UIConnectionPoint@@@ATL@@@ATL@@UEAAJPEAPEAUIEnumConnectionPoints@@@Z 0000000180012ba0 f i GraphicDisplay.obj
 0001:00011d90       ?Clone@?$CComEnumImpl@UIEnumConnections@@$1?_GUID_b196b287_bab4_101a_b69c_00aa00341d07@@3U__s_GUID@@BUtagCONNECTDATA@@V?$_Copy@UtagCONNECTDATA@@@ATL@@@ATL@@UEAAJPEAPEAUIEnumConnections@@@Z 0000000180012d90 f i GraphicDisplay.obj
 0001:00011f80       ?Close@?$IOleObjectImpl@VCOPOSGraphicDisplay@@@ATL@@UEAAJK@Z 0000000180012f80 f i GraphicDisplay.obj
 0001:00012030       ?Close@CRegKey@ATL@@QEAAJXZ 0000000180013030 f i GraphicDisplay.obj
 0001:000120a0       ?ContextSensitiveHelp@?$IOleInPlaceActiveObjectImpl@VCOPOSGraphicDisplay@@@ATL@@UEAAJH@Z 00000001800130a0 f i GraphicDisplay.obj
 0001:00012120       ?ContextSensitiveHelp@?$IOleInPlaceObjectWindowlessImpl@VCOPOSGraphicDisplay@@@ATL@@UEAAJH@Z 0000000180013120 f i GraphicDisplay.obj
 0001:000121a0       ?ControlQueryInterface@?$CComControl@VCOPOSGraphicDisplay@@V?$CWindowImpl@VCOPOSGraphicDisplay@@VCWindow@ATL@@V?$CWinTraits@$0FGAAAAAA@$0A@@3@@ATL@@@ATL@@UEAAJAEBU_GUID@@PEAPEAX@Z 00000001800131a0 f i GraphicDisplay.obj
 0001:00012230       ?CreateControlWindow@?$CComControl@VCOPOSGraphicDisplay@@V?$CWindowImpl@VCOPOSGraphicDisplay@@VCWindow@ATL@@V?$CWinTraits@$0FGAAAAAA@$0A@@3@@ATL@@@ATL@@UEAAPEAUHWND__@@PEAU3@AEAUtagRECT@@@Z 0000000180013230 f i GraphicDisplay.obj
 0001:00012320       ?CreateInstance@?$CComCreator@V?$CComAggObject@VCOPOSGraphicDisplay@@@ATL@@@ATL@@SAJPEAXAEBU_GUID@@PEAPEAX@Z 0000000180013320 f i GraphicDisplay.obj
 0001:00012500       ?CreateInstance@?$CComCreator@V?$CComObject@VCOPOSGraphicDisplay@@@ATL@@@ATL@@SAJPEAXAEBU_GUID@@PEAPEAX@Z 0000000180013500 f i GraphicDisplay.obj
 0001:00012700       ?CreateInstance@?$CComObject@V?$CComEnum@UIEnumConnectionPoints@@$1?_GUID_b196b285_bab4_101a_b69c_00aa00341d07@@3U__s_GUID@@BPEAUIConnectionPoint@@V?$_CopyInterface@UIConnectionPoint@@@ATL@@VCComSingleThreadModel@6@@ATL@@@ATL@@SAJPEAPEAV12@@Z 0000000180013700 f i GraphicDisplay.obj
 0001:000128c0       ?CreateInstance@?$CComObject@V?$CComEnum@UIEnumConnections@@$1?_GUID_b196b287_bab4_101a_b69c_00aa00341d07@@3U__s_GUID@@BUtagCONNECTDATA@@V?$_Copy@UtagCONNECTDATA@@@ATL@@VCComSingleThreadModel@6@@ATL@@@ATL@@SAJPEAPEAV12@@Z 00000001800138c0 f i GraphicDisplay.obj
 0001:00012a80       ?CreateInstance@CComClassFactory@ATL@@UEAAJPEAUIUnknown@@AEBU_GUID@@PEAPEAX@Z 0000000180013a80 f i GraphicDisplay.obj
 0001:00012ba0       ?DAdvise@?$IDataObjectImpl@VCOPOSGraphicDisplay@@@ATL@@UEAAJPEAUtagFORMATETC@@KPEAUIAdviseSink@@PEAK@Z 0000000180013ba0 f i GraphicDisplay.obj
 0001:00012d00       ?DEVMODEOLE2T_EX@@YAPEAU_devicemodeW@@PEAU1@@Z 0000000180013d00 f i GraphicDisplay.obj
 0001:00012d10       ?DUnadvise@?$IDataObjectImpl@VCOPOSGraphicDisplay@@@ATL@@UEAAJK@Z 0000000180013d10 f i GraphicDisplay.obj
 0001:00012e10       ?Decrement@CComMultiThreadModel@ATL@@SAKPEAJ@Z 0000000180013e10 f i GraphicDisplay.obj
 0001:00012e30       ?Decrement@CComSingleThreadModel@ATL@@SAKPEAJ@Z 0000000180013e30 f i GraphicDisplay.obj
 0001:00012e50       ?DefWindowProcW@?$CWindowImplBaseT@VCWindow@ATL@@V?$CWinTraits@$0FGAAAAAA@$0A@@2@@ATL@@QEAA_JI_K_J@Z 0000000180013e50 f i GraphicDisplay.obj
 0001:00012eb0       ?DefaultReflectionHandler@?$CWindowImplRoot@VCWindow@ATL@@@ATL@@SAHPEAUHWND__@@I_K_JAEA_J@Z 0000000180013eb0 f i GraphicDisplay.obj
 0001:00012fa0       ?DeleteSubKey@CRegKey@ATL@@QEAAJPEB_W@Z 0000000180013fa0 f i GraphicDisplay.obj
 0001:000130d0       ?DeleteValue@CRegKey@ATL@@QEAAJPEB_W@Z 00000001800140d0 f i GraphicDisplay.obj
 0001:00013160       ?Detach@?$CAutoVectorPtr@_W@ATL@@QEAAPEA_WXZ 0000000180014160 f i GraphicDisplay.obj
 0001:000131a0       ?Detach@?$CComPtrBase@UIPersistStream@@@ATL@@QEAAPEAUIPersistStream@@XZ 00000001800141a0 f i GraphicDisplay.obj
 0001:000131e0       ?Detach@?$CComPtrBase@UITypeInfo@@@ATL@@QEAAPEAUITypeInfo@@XZ 00000001800141e0 f i GraphicDisplay.obj
 0001:00013220       ?Detach@?$CComPtrBase@UIUnknown@@@ATL@@QEAAPEAUIUnknown@@XZ 0000000180014220 f i GraphicDisplay.obj
 0001:00013260       ?Detach@CComBSTR@ATL@@QEAAPEA_WXZ 0000000180014260 f i GraphicDisplay.obj
 0001:000132a0       ?Detach@CParseBuffer@CRegParser@ATL@@QEAAPEA_WXZ 00000001800142a0 f i GraphicDisplay.obj
 0001:00013300       ?Detach@CRegKey@ATL@@QEAAPEAUHKEY__@@XZ 0000000180014300 f i GraphicDisplay.obj
 0001:00013360       ?DoEvent@COPOSGraphicDisplay@@IEAAXI_K_J@Z 0000000180014360 f i GraphicDisplay.obj
 0001:000134a0       ?DoVerb@?$IOleObjectImpl@VCOPOSGraphicDisplay@@@ATL@@UEAAJJPEAUtagMSG@@PEAUIOleClientSite@@JPEAUHWND__@@PEBUtagRECT@@@Z 00000001800144a0 f i GraphicDisplay.obj
 0001:000137b0       ?DoVerbDiscardUndo@?$IOleObjectImpl@VCOPOSGraphicDisplay@@@ATL@@QEAAJPEBUtagRECT@@PEAUHWND__@@@Z 00000001800147b0 f i GraphicDisplay.obj
 0001:00013850       ?DoVerbHide@?$IOleObjectImpl@VCOPOSGraphicDisplay@@@ATL@@QEAAJPEBUtagRECT@@PEAUHWND__@@@Z 0000000180014850 f i GraphicDisplay.obj
 0001:00013930       ?DoVerbInPlaceActivate@?$IOleObjectImpl@VCOPOSGraphicDisplay@@@ATL@@QEAAJPEBUtagRECT@@PEAUHWND__@@@Z 0000000180014930 f i GraphicDisplay.obj
 0001:00013a10       ?DoVerbOpen@?$IOleObjectImpl@VCOPOSGraphicDisplay@@@ATL@@QEAAJPEBUtagRECT@@PEAUHWND__@@@Z 0000000180014a10 f i GraphicDisplay.obj
 0001:00013ab0       ?DoVerbPrimary@?$IOleObjectImpl@VCOPOSGraphicDisplay@@@ATL@@QEAAJPEBUtagRECT@@PEAUHWND__@@@Z 0000000180014ab0 f i GraphicDisplay.obj
 0001:00013bf0       ?DoVerbProperties@CComControlBase@ATL@@QEAAJPEBUtagRECT@@PEAUHWND__@@@Z 0000000180014bf0 f i GraphicDisplay.obj
 0001:00013fa0       ?DoVerbShow@?$IOleObjectImpl@VCOPOSGraphicDisplay@@@ATL@@QEAAJPEBUtagRECT@@PEAUHWND__@@@Z 0000000180014fa0 f i GraphicDisplay.obj
 0001:00014060       ?DoVerbUIActivate@?$IOleObjectImpl@VCOPOSGraphicDisplay@@@ATL@@QEAAJPEBUtagRECT@@PEAUHWND__@@@Z 0000000180015060 f i GraphicDisplay.obj
 0001:00014140       ?DoesVerbActivate@CComControlBase@ATL@@QEAAHJ@Z 0000000180015140 f i GraphicDisplay.obj
 0001:000141a0       ?DoesVerbUIActivate@CComControlBase@ATL@@QEAAHJ@Z 00000001800151a0 f i GraphicDisplay.obj
 0001:00014220       ?Draw@?$IViewObjectExImpl@VCOPOSGraphicDisplay@@@ATL@@UEAAJKJPEAXPEAUtagDVTARGETDEVICE@@PEAUHDC__@@2PEBU_RECTL@@3P6AH_K@Z4@Z 0000000180015220 f i GraphicDisplay.obj
 0001:00014340       ?Empty@CComBSTR@ATL@@QEAAXXZ 0000000180015340 f i GraphicDisplay.obj
 0001:00014380       ?EnableModeless@?$IOleInPlaceActiveObjectImpl@VCOPOSGraphicDisplay@@@ATL@@UEAAJH@Z 0000000180015380 f i GraphicDisplay.obj
 0001:000143f0       ?EndOfVar@CRegParser@ATL@@IEAAHXZ 00000001800153f0 f i GraphicDisplay.obj
 0001:00014450       ?EnsureTI@CComTypeInfoHolder@ATL@@QEAAJK@Z 0000000180015450 f i GraphicDisplay.obj
 0001:000144b0       ?EnumAdvise@?$IOleObjectImpl@VCOPOSGraphicDisplay@@@ATL@@UEAAJPEAPEAUIEnumSTATDATA@@@Z 00000001800154b0 f i GraphicDisplay.obj
 0001:00014610       ?EnumConnectionPoints@?$IConnectionPointContainerImpl@VCOPOSGraphicDisplay@@@ATL@@UEAAJPEAPEAUIEnumConnectionPoints@@@Z 0000000180015610 f i GraphicDisplay.obj
 0001:00014b00       ?EnumConnections@?$IConnectionPointImpl@VCOPOSGraphicDisplay@@$1?DIID__IOPOSGraphicDisplayEvents@@3U_GUID@@BVCComDynamicUnkArray@ATL@@@ATL@@UEAAJPEAPEAUIEnumConnections@@@Z 0000000180015b00 f i GraphicDisplay.obj
 0001:00014e50       ?EnumConnections@?$IConnectionPointImpl@VCOPOSGraphicDisplay@@$1?IID_IPropertyNotifySink@@3U_GUID@@BVCComDynamicUnkArray@ATL@@@ATL@@UEAAJPEAPEAUIEnumConnections@@@Z 0000000180015e50 f i GraphicDisplay.obj
 0001:000151a0       ?EnumDAdvise@?$IDataObjectImpl@VCOPOSGraphicDisplay@@@ATL@@UEAAJPEAPEAUIEnumSTATDATA@@@Z 00000001800161a0 f i GraphicDisplay.obj
 0001:000152f0       ?EnumFormatEtc@?$IDataObjectImpl@VCOPOSGraphicDisplay@@@ATL@@UEAAJKPEAPEAUIEnumFORMATETC@@@Z 00000001800162f0 f i GraphicDisplay.obj
 0001:00015380       ?EnumVerbs@?$IOleObjectImpl@VCOPOSGraphicDisplay@@@ATL@@UEAAJPEAPEAUIEnumOLEVERB@@@Z 0000000180016380 f i GraphicDisplay.obj
 0001:00015450       ?EscapeSingleQuote@CAtlModule@ATL@@SAXPEA_W_KPEB_W@Z 0000000180016450 f i GraphicDisplay.obj
 0001:00015550       ?ExtractCreateWndData@CAtlWinModule@ATL@@QEAAPEAXXZ 0000000180016550 f i GraphicDisplay.obj
 0001:00015580       ?FAccessAllowed@?$IObjectSafetyImpl@VCOPOSGraphicDisplay@@$02@ATL@@MEAAHXZ 0000000180016580 f i GraphicDisplay.obj
 0001:00015590       ?FinalConstruct@?$CComAggObject@VCOPOSGraphicDisplay@@@ATL@@QEAAJXZ 0000000180016590 f i GraphicDisplay.obj
 0001:000155e0       ?FinalConstruct@CComObjectRootBase@ATL@@QEAAJXZ 00000001800165e0 f i GraphicDisplay.obj
 0001:000155f0       ?FinalConstruct@CRegObject@ATL@@QEAAJXZ 00000001800165f0 f i GraphicDisplay.obj
 0001:00015630       ?FinalRelease@?$CComAggObject@VCOPOSGraphicDisplay@@@ATL@@QEAAXXZ 0000000180016630 f i GraphicDisplay.obj
 0001:00015680       ?FinalRelease@CComObjectRootBase@ATL@@QEAAXXZ 0000000180016680 f i GraphicDisplay.obj
 0001:00015690       ?FindConnectionPoint@?$IConnectionPointContainerImpl@VCOPOSGraphicDisplay@@@ATL@@UEAAJAEBU_GUID@@PEAPEAUIConnectionPoint@@@Z 0000000180016690 f i GraphicDisplay.obj
 0001:00015800       ?FindKey@?$CSimpleMap@PEA_WPEA_WVCExpansionVectorEqualHelper@ATL@@@ATL@@QEBAHAEBQEA_W@Z 0000000180016800 f i GraphicDisplay.obj
 0001:00015880       ?FireTheEvent@?$CProxy_IOPOSEvents@VCOPOSGraphicDisplay@@@@IEAAXPEAUIUnknown@@PEAVOposVariant@@IAEAJPEB_WJ@Z 0000000180016880 f i GraphicDisplay.obj
 0001:00015a60       ?FireViewChange@CComControlBase@ATL@@QEAAJXZ 0000000180016a60 f i GraphicDisplay.obj
 0001:00015b40       ?Fire_DirectIOEvent@?$CProxy_IOPOSEvents@VCOPOSGraphicDisplay@@@@QEAAXJPEAJPEAPEA_W@Z 0000000180016b40 f i GraphicDisplay.obj
 0001:00015dd0       ?Fire_ErrorEvent@?$CProxy_IOPOSEvents@VCOPOSGraphicDisplay@@@@QEAAXJJJPEAJ@Z 0000000180016dd0 f i GraphicDisplay.obj
 0001:00016080       ?Fire_OutputCompleteEvent@?$CProxy_IOPOSEvents@VCOPOSGraphicDisplay@@@@QEAAXJ@Z 0000000180017080 f i GraphicDisplay.obj
 0001:00016270       ?Fire_StatusUpdateEvent@?$CProxy_IOPOSEvents@VCOPOSGraphicDisplay@@@@QEAAXJ@Z 0000000180017270 f i GraphicDisplay.obj
 0001:00016460       ?FormatWindowClassName@AtlModuleRegisterWndClassInfoParamW@ATL@@SAXPEA_WKPEAX@Z 0000000180017460 f i GraphicDisplay.obj
 0001:000164b0       ?Free@?$CAutoVectorPtr@_W@ATL@@QEAAXXZ 00000001800174b0 f i GraphicDisplay.obj
 0001:00016500       ?FreeHeap@?$CTempBuffer@E$0BAA@VCCRTAllocator@ATL@@@ATL@@AEAAXXZ 0000000180017500 f i GraphicDisplay.obj
 0001:00016540       ?FreeHeap@?$CTempBuffer@_W$0BAA@VCCRTAllocator@ATL@@@ATL@@AEAAXXZ 0000000180017540 f i GraphicDisplay.obj
 0001:00016580       ?FreeHeap@?$CTempBuffer@_W$0EAA@VCCRTAllocator@ATL@@@ATL@@AEAAXXZ 0000000180017580 f i GraphicDisplay.obj
 0001:000165c0       ?Freeze@?$IViewObjectExImpl@VCOPOSGraphicDisplay@@@ATL@@UEAAJKJPEAXPEAK@Z 00000001800175c0 f i GraphicDisplay.obj
 0001:00016650       ?GenerateError@CRegParser@ATL@@IEAAJI@Z 0000000180017650 f i GraphicDisplay.obj
 0001:00016670       ?GetAdvise@?$IViewObjectExImpl@VCOPOSGraphicDisplay@@@ATL@@UEAAJPEAK0PEAPEAUIAdviseSink@@@Z 0000000180017670 f i GraphicDisplay.obj
 0001:000167c0       ?GetAmbientLocaleID@CComControlBase@ATL@@QEAAJAEAK@Z 00000001800177c0 f i GraphicDisplay.obj
 0001:000168a0       ?GetAmbientProperty@CComControlBase@ATL@@QEAAJJAEAUtagVARIANT@@@Z 00000001800178a0 f i GraphicDisplay.obj
 0001:00016910       ?GetAmbientUserMode@CComControlBase@ATL@@QEAAJAEAH@Z 0000000180017910 f i GraphicDisplay.obj
 0001:00016a30       ?GetAppId@?$CAtlModuleT@VCComModule@ATL@@@ATL@@SAPEB_WXZ 0000000180017a30 f i GraphicDisplay.obj
 0001:00016a40       ?GetAt@CComDynamicUnkArray@ATL@@QEAAPEAUIUnknown@@H@Z 0000000180017a40 f i GraphicDisplay.obj
 0001:00016af0       ?GetCanonicalFormatEtc@?$IDataObjectImpl@VCOPOSGraphicDisplay@@@ATL@@UEAAJPEAUtagFORMATETC@@0@Z 0000000180017af0 f i GraphicDisplay.obj
 0001:00016b80       ?GetClassID@?$IPersistStorageImpl@VCOPOSGraphicDisplay@@@ATL@@UEAAJPEAU_GUID@@@Z 0000000180017b80 f i GraphicDisplay.obj
 0001:00016c20       ?GetClassID@?$IPersistStreamInitImpl@VCOPOSGraphicDisplay@@@ATL@@UEAAJPEAU_GUID@@@Z 0000000180017c20 f i GraphicDisplay.obj
 0001:00016cc0       ?GetClassInfoExW@AtlModuleRegisterWndClassInfoParamW@ATL@@SAHPEAUHINSTANCE__@@PEB_WPEAUtagWNDCLASSEXW@@@Z 0000000180017cc0 f i GraphicDisplay.obj
 0001:00016d10       ?GetClassInfoW@?$IProvideClassInfo2Impl@$1?CLSID_OPOSGraphicDisplay@@3U_GUID@@B$1?DIID__IOPOSGraphicDisplayEvents@@3U2@B$1?LIBID_OposGraphicDisplay_CCO@@3U2@B$00$0A@VCComTypeInfoHolder@ATL@@@ATL@@UEAAJPEAPEAUITypeInfo@@@Z 0000000180017d10 f i GraphicDisplay.obj
 0001:00016d50       ?GetClassObject@CComModule@ATL@@QEAAJAEBU_GUID@@0PEAPEAX@Z 0000000180017d50 f i GraphicDisplay.obj
 0001:00016fc0       ?GetClientSite@?$IOleObjectImpl@VCOPOSGraphicDisplay@@@ATL@@UEAAJPEAPEAUIOleClientSite@@@Z 0000000180017fc0 f i GraphicDisplay.obj
 0001:00017070       ?GetClipboardData@?$IOleObjectImpl@VCOPOSGraphicDisplay@@@ATL@@UEAAJKPEAPEAUIDataObject@@@Z 0000000180018070 f i GraphicDisplay.obj
 0001:00017100       ?GetCodeAddress@CDynamicStdCallThunk2@ATL@@QEAAPEAXXZ 0000000180018100 f i GraphicDisplay.obj
 0001:00017140       ?GetColorSet@?$IViewObjectExImpl@VCOPOSGraphicDisplay@@@ATL@@UEAAJKJPEAXPEAUtagDVTARGETDEVICE@@PEAUHDC__@@PEAPEAUtagLOGPALETTE@@@Z 0000000180018140 f i GraphicDisplay.obj
 0001:000171d0       ?GetConnMap@COPOSGraphicDisplay@@SAPEBU_ATL_CONNMAP_ENTRY@ATL@@PEAH@Z 00000001800181d0 f i GraphicDisplay.obj
 0001:00017330       ?GetConnectionInterface@?$IConnectionPointImpl@VCOPOSGraphicDisplay@@$1?DIID__IOPOSGraphicDisplayEvents@@3U_GUID@@BVCComDynamicUnkArray@ATL@@@ATL@@UEAAJPEAU_GUID@@@Z 0000000180018330 f i GraphicDisplay.obj
 0001:00017370       ?GetConnectionInterface@?$IConnectionPointImpl@VCOPOSGraphicDisplay@@$1?IID_IPropertyNotifySink@@3U_GUID@@BVCComDynamicUnkArray@ATL@@@ATL@@UEAAJPEAU_GUID@@@Z 0000000180018370 f i GraphicDisplay.obj
 0001:000173b0       ?GetConnectionPointContainer@?$IConnectionPointImpl@VCOPOSGraphicDisplay@@$1?DIID__IOPOSGraphicDisplayEvents@@3U_GUID@@BVCComDynamicUnkArray@ATL@@@ATL@@UEAAJPEAPEAUIConnectionPointContainer@@@Z 00000001800183b0 f i GraphicDisplay.obj
 0001:00017430       ?GetConnectionPointContainer@?$IConnectionPointImpl@VCOPOSGraphicDisplay@@$1?IID_IPropertyNotifySink@@3U_GUID@@BVCComDynamicUnkArray@ATL@@@ATL@@UEAAJPEAPEAUIConnectionPointContainer@@@Z 0000000180018430 f i GraphicDisplay.obj
 0001:000174b0       ?GetContentExtent@?$IQuickActivateImpl@VCOPOSGraphicDisplay@@@ATL@@UEAAJPEAUtagSIZE@@@Z 00000001800184b0 f i GraphicDisplay.obj
 0001:00017570       ?GetControlInfo@?$IOleControlImpl@VCOPOSGraphicDisplay@@@ATL@@UEAAJPEAUtagCONTROLINFO@@@Z 0000000180018570 f i GraphicDisplay.obj
 0001:00017600       ?GetCookie@CComDynamicUnkArray@ATL@@QEAAKPEAPEAUIUnknown@@@Z 0000000180018600 f i GraphicDisplay.obj
 0001:000176f0       ?GetData@?$IDataObjectImpl@VCOPOSGraphicDisplay@@@ATL@@UEAAJPEAUtagFORMATETC@@PEAUtagSTGMEDIUM@@@Z 00000001800186f0 f i GraphicDisplay.obj
 0001:000177b0       ?GetData@CAtlSafeAllocBufferNode@?$CAtlSafeAllocBufferManager@VCCRTAllocator@ATL@@@_ATL_SAFE_ALLOCA_IMPL@ATL@@QEAAPEAXXZ 00000001800187b0 f i GraphicDisplay.obj
 0001:000177d0       ?GetDataHere@?$IDataObjectImpl@VCOPOSGraphicDisplay@@@ATL@@UEAAJPEAUtagFORMATETC@@PEAUtagSTGMEDIUM@@@Z 00000001800187d0 f i GraphicDisplay.obj
 0001:00017860       ?GetDropTarget@?$IOleInPlaceObjectWindowlessImpl@VCOPOSGraphicDisplay@@@ATL@@UEAAJPEAPEAUIDropTarget@@@Z 0000000180018860 f i GraphicDisplay.obj
 0001:000178f0       ?GetExtent@?$IOleObjectImpl@VCOPOSGraphicDisplay@@@ATL@@UEAAJKPEAUtagSIZE@@@Z 00000001800188f0 f i GraphicDisplay.obj
 0001:000179c0       ?GetExtent@?$IViewObjectExImpl@VCOPOSGraphicDisplay@@@ATL@@UEAAJKJPEAUtagDVTARGETDEVICE@@PEAUtagSIZE@@@Z 00000001800189c0 f i GraphicDisplay.obj
 0001:00017ad0       ?GetGITPtr@CAtlModule@ATL@@UEAAJPEAPEAUIGlobalInterfaceTable@@@Z 0000000180018ad0 f i GraphicDisplay.obj
 0001:00017c10       ?GetGUID@?$IProvideClassInfo2Impl@$1?CLSID_OPOSGraphicDisplay@@3U_GUID@@B$1?DIID__IOPOSGraphicDisplayEvents@@3U2@B$1?LIBID_OposGraphicDisplay_CCO@@3U2@B$00$0A@VCComTypeInfoHolder@ATL@@@ATL@@UEAAJKPEAU_GUID@@@Z 0000000180018c10 f i GraphicDisplay.obj
 0001:00017c90       ?GetIDsOfNames@?$IDispatchImpl@UIOPOSGraphicDisplay@@$1?IID_IOPOSGraphicDisplay@@3U_GUID@@B$1?LIBID_OposGraphicDisplay_CCO@@3U3@B$00$0A@VCComTypeInfoHolder@ATL@@@ATL@@UEAAJAEBU_GUID@@PEAPEA_WIKPEAJ@Z 0000000180018c90 f i GraphicDisplay.obj
 0001:00017cf0       ?GetIDsOfNames@CComTypeInfoHolder@ATL@@QEAAJAEBU_GUID@@PEAPEA_WIKPEAJ@Z 0000000180018cf0 f i GraphicDisplay.obj
 0001:00017f10       ?GetInterfaceSafetyOptions@?$IObjectSafetyImpl@VCOPOSGraphicDisplay@@$02@ATL@@UEAAJAEBU_GUID@@PEAK1@Z 0000000180018f10 f i GraphicDisplay.obj
 0001:000180b0       ?GetKeyAt@?$CSimpleMap@PEA_WPEA_WVCExpansionVectorEqualHelper@ATL@@@ATL@@QEBAAEAPEA_WH@Z 00000001800190b0 f i GraphicDisplay.obj
 0001:00018160       ?GetLockCount@CAtlModule@ATL@@UEAAJXZ 0000000180019160 f i GraphicDisplay.obj
 0001:00018170       ?GetMiscStatus@?$IOleObjectImpl@VCOPOSGraphicDisplay@@@ATL@@UEAAJKPEAK@Z 0000000180019170 f i GraphicDisplay.obj
 0001:00018200       ?GetMoniker@?$IOleObjectImpl@VCOPOSGraphicDisplay@@@ATL@@UEAAJKKPEAPEAUIMoniker@@@Z 0000000180019200 f i GraphicDisplay.obj
 0001:00018290       ?GetNaturalExtent@?$IViewObjectExImpl@VCOPOSGraphicDisplay@@@ATL@@UEAAJKJPEAUtagDVTARGETDEVICE@@PEAUHDC__@@PEAUtagExtentInfo@@PEAUtagSIZE@@@Z 0000000180019290 f i GraphicDisplay.obj
 0001:00018420       ?GetObjectCLSID@?$CComCoClass@VCOPOSGraphicDisplay@@$1?CLSID_OPOSGraphicDisplay@@3U_GUID@@B@ATL@@SAAEBU_GUID@@XZ 0000000180019420 f i GraphicDisplay.obj
 0001:00018430       ?GetPages@?$ISpecifyPropertyPagesImpl@VCOPOSGraphicDisplay@@@ATL@@UEAAJPEAUtagCAUUID@@@Z 0000000180019430 f i GraphicDisplay.obj
 0001:000184c0       ?GetPagesHelper@?$ISpecifyPropertyPagesImpl@VCOPOSGraphicDisplay@@@ATL@@IEAAJPEAUtagCAUUID@@PEBUATL_PROPMAP_ENTRY@2@@Z 00000001800194c0 f i GraphicDisplay.obj
 0001:00018730       ?GetProperty@?$CComPtr@UIDispatch@@@ATL@@QEAAJJPEAUtagVARIANT@@@Z 0000000180019730 f i GraphicDisplay.obj
 0001:00018780       ?GetProperty@?$CComPtr@UIDispatch@@@ATL@@SAJPEAUIDispatch@@JPEAUtagVARIANT@@@Z 0000000180019780 f i GraphicDisplay.obj
 0001:00018950       ?GetPropertyMap@COPOSGraphicDisplay@@SAPEBUATL_PROPMAP_ENTRY@ATL@@XZ 0000000180019950 f i GraphicDisplay.obj
 0001:00018960       ?GetRect@?$IViewObjectExImpl@VCOPOSGraphicDisplay@@@ATL@@UEAAJKPEAU_RECTL@@@Z 0000000180019960 f i GraphicDisplay.obj
 0001:000189f0       ?GetSize@?$CSimpleMap@PEA_WPEA_WVCExpansionVectorEqualHelper@ATL@@@ATL@@QEBAHXZ 00000001800199f0 f i GraphicDisplay.obj
 0001:00018a00       ?GetSize@CComDynamicUnkArray@ATL@@QEBAHXZ 0000000180019a00 f i GraphicDisplay.obj
 0001:00018a10       ?GetSizeMax@?$IPersistStreamInitImpl@VCOPOSGraphicDisplay@@@ATL@@UEAAJPEAT_ULARGE_INTEGER@@@Z 0000000180019a10 f i GraphicDisplay.obj
 0001:000191a0       ?GetSizeMax@CComVariant@ATL@@QEBAJPEAT_ULARGE_INTEGER@@@Z 000000018001a1a0 f i GraphicDisplay.obj
 0001:000195d0       ?GetStreamSize@CComBSTR@ATL@@SAKPEA_W@Z 000000018001a5d0 f i GraphicDisplay.obj
 0001:00019630       ?GetTI@CComTypeInfoHolder@ATL@@QEAAJK@Z 000000018001a630 f i GraphicDisplay.obj
 0001:00019f00       ?GetTI@CComTypeInfoHolder@ATL@@QEAAJKPEAPEAUITypeInfo@@@Z 000000018001af00 f i GraphicDisplay.obj
 0001:00019ff0       ?GetTypeInfo@?$IDispatchImpl@UIOPOSGraphicDisplay@@$1?IID_IOPOSGraphicDisplay@@3U_GUID@@B$1?LIBID_OposGraphicDisplay_CCO@@3U3@B$00$0A@VCComTypeInfoHolder@ATL@@@ATL@@UEAAJIKPEAPEAUITypeInfo@@@Z 000000018001aff0 f i GraphicDisplay.obj
 0001:0001a040       ?GetTypeInfo@CComTypeInfoHolder@ATL@@QEAAJIKPEAPEAUITypeInfo@@@Z 000000018001b040 f i GraphicDisplay.obj
 0001:0001a0a0       ?GetTypeInfoCount@?$IDispatchImpl@UIOPOSGraphicDisplay@@$1?IID_IOPOSGraphicDisplay@@3U_GUID@@B$1?LIBID_OposGraphicDisplay_CCO@@3U3@B$00$0A@VCComTypeInfoHolder@ATL@@@ATL@@UEAAJPEAI@Z 000000018001b0a0 f i GraphicDisplay.obj
 0001:0001a0d0       ?GetUnknown@CComDynamicUnkArray@ATL@@QEAAPEAUIUnknown@@K@Z 000000018001b0d0 f i GraphicDisplay.obj
 0001:0001a180       ?GetUnknown@COPOSGraphicDisplay@@QEAAPEAUIUnknown@@XZ 000000018001b180 f i GraphicDisplay.obj
 0001:0001a1b0       ?GetUserClassID@?$IOleObjectImpl@VCOPOSGraphicDisplay@@@ATL@@UEAAJPEAU_GUID@@@Z 000000018001b1b0 f i GraphicDisplay.obj
 0001:0001a290       ?GetUserType@?$IOleObjectImpl@VCOPOSGraphicDisplay@@@ATL@@UEAAJKPEAPEA_W@Z 000000018001b290 f i GraphicDisplay.obj
 0001:0001a320       ?GetValueAt@?$CSimpleMap@PEA_WPEA_WVCExpansionVectorEqualHelper@ATL@@@ATL@@QEBAAEAPEA_WH@Z 000000018001b320 f i GraphicDisplay.obj
 0001:0001a3d0       ?GetViewStatus@?$IViewObjectExImpl@VCOPOSGraphicDisplay@@@ATL@@UEAAJPEAK@Z 000000018001b3d0 f i GraphicDisplay.obj
 0001:0001a4d0       ?GetWNDPROC@CWndProcThunk@ATL@@QEAAP6A_JPEAUHWND__@@I_K_J@ZXZ 000000018001b4d0 f i GraphicDisplay.obj
 0001:0001a510       ?GetWindow@?$IOleInPlaceActiveObjectImpl@VCOPOSGraphicDisplay@@@ATL@@UEAAJPEAPEAUHWND__@@@Z 000000018001b510 f i GraphicDisplay.obj
 0001:0001a610       ?GetWindow@?$IOleInPlaceObjectWindowlessImpl@VCOPOSGraphicDisplay@@@ATL@@UEAAJPEAPEAUHWND__@@@Z 000000018001b610 f i GraphicDisplay.obj
 0001:0001a710       ?GetWindowProc@?$CWindowImplBaseT@VCWindow@ATL@@V?$CWinTraits@$0FGAAAAAA@$0A@@2@@ATL@@UEAAP6A_JPEAUHWND__@@I_K_J@ZXZ 000000018001b710 f i GraphicDisplay.obj
 0001:0001a720       ?GetWndCaption@?$CWindowImpl@VCOPOSGraphicDisplay@@VCWindow@ATL@@V?$CWinTraits@$0FGAAAAAA@$0A@@3@@ATL@@SAPEB_WXZ 000000018001b720 f i GraphicDisplay.obj
 0001:0001a730       ?GetWndClassInfo@?$CWindowImpl@VCOPOSGraphicDisplay@@VCWindow@ATL@@V?$CWinTraits@$0FGAAAAAA@$0A@@3@@ATL@@SAAEAU_ATL_WNDCLASSINFOW@2@XZ 000000018001b730 f i GraphicDisplay.obj
 0001:0001a740       ?GetWndClassName@CWindow@ATL@@SAPEB_WXZ 000000018001b740 f i GraphicDisplay.obj
 0001:0001a750       ?GetWndExStyle@?$CWinTraits@$0FGAAAAAA@$0A@@ATL@@SAKK@Z 000000018001b750 f i GraphicDisplay.obj
 0001:0001a790       ?GetWndExStyle@?$CWindowImplBaseT@VCWindow@ATL@@V?$CWinTraits@$0FGAAAAAA@$0A@@2@@ATL@@SAKK@Z 000000018001b790 f i GraphicDisplay.obj
 0001:0001a7c0       ?GetWndStyle@?$CWinTraits@$0FGAAAAAA@$0A@@ATL@@SAKK@Z 000000018001b7c0 f i GraphicDisplay.obj
 0001:0001a800       ?GetWndStyle@?$CWindowImplBaseT@VCWindow@ATL@@V?$CWinTraits@$0FGAAAAAA@$0A@@2@@ATL@@SAKK@Z 000000018001b800 f i GraphicDisplay.obj
 0001:0001a830       ?GetZoomInfo@CComControlBase@ATL@@QEAAXAEAUATL_DRAWINFO@@@Z 000000018001b830 f i GraphicDisplay.obj
 0001:0001a9e0       ?HKeyFromString@CRegParser@ATL@@KAPEAUHKEY__@@PEA_W@Z 000000018001b9e0 f i GraphicDisplay.obj
 0001:0001aa70       ?HandsOffStorage@?$IPersistStorageImpl@VCOPOSGraphicDisplay@@@ATL@@UEAAJXZ 000000018001ba70 f i GraphicDisplay.obj
 0001:0001aae0       ?HasSubKeys@CRegParser@ATL@@IEAAHPEAUHKEY__@@@Z 000000018001bae0 f i GraphicDisplay.obj
 0001:0001ac50       ?IDataObject_GetData@CComControlBase@ATL@@QEAAJPEAUtagFORMATETC@@PEAUtagSTGMEDIUM@@@Z 000000018001bc50 f i GraphicDisplay.obj
 0001:0001b100       ?IOleInPlaceObject_InPlaceDeactivate@CComControlBase@ATL@@QEAAJXZ 000000018001c100 f i GraphicDisplay.obj
 0001:0001b370       ?IOleInPlaceObject_SetObjectRects@CComControlBase@ATL@@QEAAJPEBUtagRECT@@0@Z 000000018001c370 f i GraphicDisplay.obj
 0001:0001b550       ?IOleInPlaceObject_UIDeactivate@CComControlBase@ATL@@QEAAJXZ 000000018001c550 f i GraphicDisplay.obj
 0001:0001b7c0       ?IOleObject_Advise@CComControlBase@ATL@@QEAAJPEAUIAdviseSink@@PEAK@Z 000000018001c7c0 f i GraphicDisplay.obj
 0001:0001b870       ?IOleObject_Close@CComControlBase@ATL@@QEAAJK@Z 000000018001c870 f i GraphicDisplay.obj
 0001:0001bbe0       ?IOleObject_GetClientSite@CComControlBase@ATL@@QEAAJPEAPEAUIOleClientSite@@@Z 000000018001cbe0 f i GraphicDisplay.obj
 0001:0001bcb0       ?IOleObject_SetClientSite@CComControlBase@ATL@@QEAAJPEAUIOleClientSite@@@Z 000000018001ccb0 f i GraphicDisplay.obj
 0001:0001bdc0       ?IOleObject_SetExtent@CComControlBase@ATL@@QEAAJKPEAUtagSIZE@@@Z 000000018001cdc0 f i GraphicDisplay.obj
 0001:0001bf30       ?IPSI_GetIPersistStreamInit@?$IPersistStorageImpl@VCOPOSGraphicDisplay@@@ATL@@AEAAPEAUIPersistStreamInit@@XZ 000000018001cf30 f i GraphicDisplay.obj
 0001:0001bff0       ?IPersistStreamInit_Load@?$IPersistStreamInitImpl@VCOPOSGraphicDisplay@@@ATL@@QEAAJPEAUIStream@@PEBUATL_PROPMAP_ENTRY@2@@Z 000000018001cff0 f i GraphicDisplay.obj
 0001:0001c090       ?IPersistStreamInit_Save@?$IPersistStreamInitImpl@VCOPOSGraphicDisplay@@@ATL@@QEAAJPEAUIStream@@HPEBUATL_PROPMAP_ENTRY@2@@Z 000000018001d090 f i GraphicDisplay.obj
 0001:0001c150       ?IQuickActivate_QuickActivate@CComControlBase@ATL@@QEAAJPEAUtagQACONTAINER@@PEAUtagQACONTROL@@@Z 000000018001d150 f i GraphicDisplay.obj
 0001:0001c990       ?IViewObject_Draw@CComControlBase@ATL@@QEAAJKJPEAXPEAUtagDVTARGETDEVICE@@PEAUHDC__@@2PEBU_RECTL@@3@Z 000000018001d990 f i GraphicDisplay.obj
 0001:0001cde0       ?InPlaceActivate@CComControlBase@ATL@@QEAAJJPEBUtagRECT@@@Z 000000018001dde0 f i GraphicDisplay.obj
 0001:0001d980       ?InPlaceDeactivate@?$IOleInPlaceObjectWindowlessImpl@VCOPOSGraphicDisplay@@@ATL@@UEAAJXZ 000000018001e980 f i GraphicDisplay.obj
 0001:0001da30       ?Increment@CComMultiThreadModel@ATL@@SAKPEAJ@Z 000000018001ea30 f i GraphicDisplay.obj
 0001:0001da50       ?Increment@CComSingleThreadModel@ATL@@SAKPEAJ@Z 000000018001ea50 f i GraphicDisplay.obj
 0001:0001da70       ?Init@?$CComEnumImpl@UIEnumConnectionPoints@@$1?_GUID_b196b285_bab4_101a_b69c_00aa00341d07@@3U__s_GUID@@BPEAUIConnectionPoint@@V?$_CopyInterface@UIConnectionPoint@@@ATL@@@ATL@@QEAAJPEAPEAUIConnectionPoint@@0PEAUIUnknown@@W4CComEnumFlags@2@@Z 000000018001ea70 f i GraphicDisplay.obj
 0001:0001dd60       ?Init@?$CComEnumImpl@UIEnumConnections@@$1?_GUID_b196b287_bab4_101a_b69c_00aa00341d07@@3U__s_GUID@@BUtagCONNECTDATA@@V?$_Copy@UtagCONNECTDATA@@@ATL@@@ATL@@QEAAJPEAUtagCONNECTDATA@@0PEAUIUnknown@@W4CComEnumFlags@2@@Z 000000018001ed60 f i GraphicDisplay.obj
 0001:0001e050       ?Init@CComFakeCriticalSection@ATL@@QEAAJXZ 000000018001f050 f i GraphicDisplay.obj
 0001:0001e060       ?Init@CComModule@ATL@@QEAAJPEAU_ATL_OBJMAP_ENTRY30@2@PEAUHINSTANCE__@@PEBU_GUID@@@Z 000000018001f060 f i GraphicDisplay.obj
 0001:0001e150       ?Init@CComSafeDeleteCriticalSection@ATL@@QEAAJXZ 000000018001f150 f i GraphicDisplay.obj
 0001:0001e1e0       ?Init@CDynamicStdCallThunk2@ATL@@QEAAH_KPEAX@Z 000000018001f1e0 f i GraphicDisplay.obj
 0001:0001e260       ?Init@CWndProcThunk@ATL@@QEAAHP6A_JPEAUHWND__@@I_K_J@ZPEAX@Z 000000018001f260 f i GraphicDisplay.obj
 0001:0001e2b0       ?InitFromData@?$IOleObjectImpl@VCOPOSGraphicDisplay@@@ATL@@UEAAJPEAUIDataObject@@HK@Z 000000018001f2b0 f i GraphicDisplay.obj
 0001:0001e340       ?InitLibId@?$CAtlModuleT@VCComModule@ATL@@@ATL@@SAXXZ 000000018001f340 f i GraphicDisplay.obj
 0001:0001e350       ?InitNew@?$IPersistStorageImpl@VCOPOSGraphicDisplay@@@ATL@@UEAAJPEAUIStorage@@@Z 000000018001f350 f i GraphicDisplay.obj
 0001:0001e440       ?InitNew@?$IPersistStreamInitImpl@VCOPOSGraphicDisplay@@@ATL@@UEAAJXZ 000000018001f440 f i GraphicDisplay.obj
 0001:0001e4f0       ?InlineIsEqualUnknown@ATL@@YAHAEBU_GUID@@@Z 000000018001f4f0 f i GraphicDisplay.obj
 0001:0001e580       ?InternalAddRef@?$CComObjectRootEx@VCComMultiThreadModel@ATL@@@ATL@@QEAAKXZ 000000018001f580 f i GraphicDisplay.obj
 0001:0001e600       ?InternalAddRef@?$CComObjectRootEx@VCComSingleThreadModel@ATL@@@ATL@@QEAAKXZ 000000018001f600 f i GraphicDisplay.obj
 0001:0001e680       ?InternalFinalConstructAddRef@CComObjectRootBase@ATL@@QEAAXXZ 000000018001f680 f i GraphicDisplay.obj
 0001:0001e690       ?InternalFinalConstructAddRef@COPOSGraphicDisplay@@QEAAXXZ 000000018001f690 f i GraphicDisplay.obj
 0001:0001e6d0       ?InternalFinalConstructRelease@CComObjectRootBase@ATL@@QEAAXXZ 000000018001f6d0 f i GraphicDisplay.obj
 0001:0001e740       ?InternalFinalConstructRelease@COPOSGraphicDisplay@@QEAAXXZ 000000018001f740 f i GraphicDisplay.obj
 0001:0001e780       ?InternalGetSite@CComControlBase@ATL@@QEAAJAEBU_GUID@@PEAPEAX@Z 000000018001f780 f i GraphicDisplay.obj
 0001:0001e860       ?InternalQueryInterface@CComObjectRootBase@ATL@@SAJPEAXPEBU_ATL_INTMAP_ENTRY@2@AEBU_GUID@@PEAPEAX@Z 000000018001f860 f i GraphicDisplay.obj
 0001:0001e980       ?InternalRelease@?$CComObjectRootEx@VCComMultiThreadModel@ATL@@@ATL@@QEAAKXZ 000000018001f980 f i GraphicDisplay.obj
 0001:0001ea00       ?InternalRelease@?$CComObjectRootEx@VCComSingleThreadModel@ATL@@@ATL@@QEAAKXZ 000000018001fa00 f i GraphicDisplay.obj
 0001:0001ea80       ?InternalSetAtIndex@?$CSimpleArray@GV?$CSimpleArrayEqualHelper@G@ATL@@@ATL@@QEAAXHAEBG@Z 000000018001fa80 f i GraphicDisplay.obj
 0001:0001eb00       ?InternalSetAtIndex@?$CSimpleMap@PEA_WPEA_WVCExpansionVectorEqualHelper@ATL@@@ATL@@QEAAXHAEBQEA_W0@Z 000000018001fb00 f i GraphicDisplay.obj
 0001:0001ebd0       ?Invoke@?$IDispatchImpl@UIOPOSGraphicDisplay@@$1?IID_IOPOSGraphicDisplay@@3U_GUID@@B$1?LIBID_OposGraphicDisplay_CCO@@3U3@B$00$0A@VCComTypeInfoHolder@ATL@@@ATL@@UEAAJJAEBU_GUID@@KGPEAUtagDISPPARAMS@@PEAUtagVARIANT@@PEAUtagEXCEPINFO@@PEAI@Z 000000018001fbd0 f i GraphicDisplay.obj
 0001:0001ec70       ?Invoke@CComTypeInfoHolder@ATL@@QEAAJPEAUIDispatch@@JAEBU_GUID@@KGPEAUtagDISPPARAMS@@PEAUtagVARIANT@@PEAUtagEXCEPINFO@@PEAI@Z 000000018001fc70 f i GraphicDisplay.obj
 0001:0001ed30       ?IsDirty@?$IPersistStorageImpl@VCOPOSGraphicDisplay@@@ATL@@UEAAJXZ 000000018001fd30 f i GraphicDisplay.obj
 0001:0001ee20       ?IsDirty@?$IPersistStreamInitImpl@VCOPOSGraphicDisplay@@@ATL@@UEAAJXZ 000000018001fe20 f i GraphicDisplay.obj
 0001:0001eee0       ?IsEqualKey@CExpansionVectorEqualHelper@ATL@@SA_NQEA_W0@Z 000000018001fee0 f i GraphicDisplay.obj
 0001:0001ef30       ?IsEqualObject@?$CComPtrBase@UIOleClientSite@@@ATL@@QEAA_NPEAUIUnknown@@@Z 000000018001ff30 f i GraphicDisplay.obj
 0001:0001f080       ?IsEqualObject@?$CComPtrBase@UITypeInfo@@@ATL@@QEAA_NPEAUIUnknown@@@Z 0000000180020080 f i GraphicDisplay.obj
 0001:0001f1d0       ?IsSpace@CRegParser@ATL@@IEAAH_W@Z 00000001800201d0 f i GraphicDisplay.obj
 0001:0001f230       ?IsUpToDate@?$IOleObjectImpl@VCOPOSGraphicDisplay@@@ATL@@UEAAJXZ 0000000180020230 f i GraphicDisplay.obj
 0001:0001f2a0       ?Length@CComBSTR@ATL@@QEBAIXZ 00000001800202a0 f i GraphicDisplay.obj
 0001:0001f2e0       ?Load@?$IPersistStorageImpl@VCOPOSGraphicDisplay@@@ATL@@UEAAJPEAUIStorage@@@Z 00000001800202e0 f i GraphicDisplay.obj
 0001:0001f490       ?Load@?$IPersistStreamInitImpl@VCOPOSGraphicDisplay@@@ATL@@UEAAJPEAUIStream@@@Z 0000000180020490 f i GraphicDisplay.obj
 0001:0001f550       ?LoadCursorW@AtlModuleRegisterWndClassInfoParamW@ATL@@SAPEAUHICON__@@PEAUHINSTANCE__@@PEB_W@Z 0000000180020550 f i GraphicDisplay.obj
 0001:0001f590       ?LoadNameCache@CComTypeInfoHolder@ATL@@QEAAJPEAUITypeInfo@@@Z 0000000180020590 f i GraphicDisplay.obj
 0001:0001f8d0       ?Lock@?$CComCritSecLock@VCComCriticalSection@ATL@@@ATL@@QEAAJXZ 00000001800208d0 f i GraphicDisplay.obj
 0001:0001f9c0       ?Lock@?$CComObjectRootEx@VCComSingleThreadModel@ATL@@@ATL@@QEAAXXZ 00000001800209c0 f i GraphicDisplay.obj
 0001:0001f9d0       ?Lock@CAtlModule@ATL@@UEAAJXZ 00000001800209d0 f i GraphicDisplay.obj
 0001:0001fa10       ?Lock@CComCriticalSection@ATL@@QEAAJXZ 0000000180020a10 f i GraphicDisplay.obj
 0001:0001fa50       ?Lock@CComFakeCriticalSection@ATL@@QEAAJXZ 0000000180020a50 f i GraphicDisplay.obj
 0001:0001fa60       ?LockServer@CComClassFactory@ATL@@UEAAJH@Z 0000000180020a60 f i GraphicDisplay.obj
 0001:0001fac0       ?Lookup@?$CSimpleMap@PEA_WPEA_WVCExpansionVectorEqualHelper@ATL@@@ATL@@QEBAPEA_WAEBQEA_W@Z 0000000180020ac0 f i GraphicDisplay.obj
 0001:0001fb20       ?Next@?$CComEnumImpl@UIEnumConnectionPoints@@$1?_GUID_b196b285_bab4_101a_b69c_00aa00341d07@@3U__s_GUID@@BPEAUIConnectionPoint@@V?$_CopyInterface@UIConnectionPoint@@@ATL@@@ATL@@UEAAJKPEAPEAUIConnectionPoint@@PEAK@Z 0000000180020b20 f i GraphicDisplay.obj
 0001:0001fce0       ?Next@?$CComEnumImpl@UIEnumConnections@@$1?_GUID_b196b287_bab4_101a_b69c_00aa00341d07@@3U__s_GUID@@BUtagCONNECTDATA@@V?$_Copy@UtagCONNECTDATA@@@ATL@@@ATL@@UEAAJKPEAUtagCONNECTDATA@@PEAK@Z 0000000180020ce0 f i GraphicDisplay.obj
 0001:0001fea0       ?NextToken@CRegParser@ATL@@IEAAJPEA_W@Z 0000000180020ea0 f i GraphicDisplay.obj
 0001:00020230       ?OLE2CT_EX@@YAPEB_WPEB_WI@Z 0000000180021230 f i GraphicDisplay.obj
 0001:00020250       ?OLE2CT_EX_DEF@@YAPEB_WPEB_W@Z 0000000180021250 f i GraphicDisplay.obj
 0001:00020260       ?OLE2T_EX@@YAPEA_WPEA_WI@Z 0000000180021260 f i GraphicDisplay.obj
 0001:00020280       ?OnAmbientPropertyChange@?$IOleControlImpl@VCOPOSGraphicDisplay@@@ATL@@UEAAJJ@Z 0000000180021280 f i GraphicDisplay.obj
 0001:00020340       ?OnDocWindowActivate@?$IOleInPlaceActiveObjectImpl@VCOPOSGraphicDisplay@@@ATL@@UEAAJH@Z 0000000180021340 f i GraphicDisplay.obj
 0001:00020400       ?OnDrawAdvanced@CComControlBase@ATL@@UEAAJAEAUATL_DRAWINFO@@@Z 0000000180021400 f i GraphicDisplay.obj
 0001:00020650       ?OnFinalMessage@?$CWindowImplBaseT@VCWindow@ATL@@V?$CWinTraits@$0FGAAAAAA@$0A@@2@@ATL@@UEAAXPEAUHWND__@@@Z 0000000180021650 f i GraphicDisplay.obj
 0001:00020660       ?OnFrameWindowActivate@?$IOleInPlaceActiveObjectImpl@VCOPOSGraphicDisplay@@@ATL@@UEAAJH@Z 0000000180021660 f i GraphicDisplay.obj
 0001:000206d0       ?OnKillFocus@CComControlBase@ATL@@QEAA_JI_K_JAEAH@Z 00000001800216d0 f i GraphicDisplay.obj
 0001:000207c0       ?OnMnemonic@?$IOleControlImpl@VCOPOSGraphicDisplay@@@ATL@@UEAAJPEAUtagMSG@@@Z 00000001800217c0 f i GraphicDisplay.obj
 0001:00020850       ?OnMouseActivate@CComControlBase@ATL@@QEAA_JI_K_JAEAH@Z 0000000180021850 f i GraphicDisplay.obj
 0001:000209f0       ?OnPaint@CComControlBase@ATL@@QEAA_JI_K_JAEAH@Z 00000001800219f0 f i GraphicDisplay.obj
 0001:00020b80       ?OnPostVerbDiscardUndo@?$IOleObjectImpl@VCOPOSGraphicDisplay@@@ATL@@QEAAJXZ 0000000180021b80 f i GraphicDisplay.obj
 0001:00020b90       ?OnPostVerbHide@?$IOleObjectImpl@VCOPOSGraphicDisplay@@@ATL@@QEAAJXZ 0000000180021b90 f i GraphicDisplay.obj
 0001:00020ba0       ?OnPostVerbInPlaceActivate@?$IOleObjectImpl@VCOPOSGraphicDisplay@@@ATL@@QEAAJXZ 0000000180021ba0 f i GraphicDisplay.obj
 0001:00020bb0       ?OnPostVerbOpen@?$IOleObjectImpl@VCOPOSGraphicDisplay@@@ATL@@QEAAJXZ 0000000180021bb0 f i GraphicDisplay.obj
 0001:00020bc0       ?OnPostVerbShow@?$IOleObjectImpl@VCOPOSGraphicDisplay@@@ATL@@QEAAJXZ 0000000180021bc0 f i GraphicDisplay.obj
 0001:00020bd0       ?OnPostVerbUIActivate@?$IOleObjectImpl@VCOPOSGraphicDisplay@@@ATL@@QEAAJXZ 0000000180021bd0 f i GraphicDisplay.obj
 0001:00020be0       ?OnPreVerbDiscardUndo@?$IOleObjectImpl@VCOPOSGraphicDisplay@@@ATL@@QEAAJXZ 0000000180021be0 f i GraphicDisplay.obj
 0001:00020bf0       ?OnPreVerbHide@?$IOleObjectImpl@VCOPOSGraphicDisplay@@@ATL@@QEAAJXZ 0000000180021bf0 f i GraphicDisplay.obj
 0001:00020c00       ?OnPreVerbInPlaceActivate@?$IOleObjectImpl@VCOPOSGraphicDisplay@@@ATL@@QEAAJXZ 0000000180021c00 f i GraphicDisplay.obj
 0001:00020c10       ?OnPreVerbOpen@?$IOleObjectImpl@VCOPOSGraphicDisplay@@@ATL@@QEAAJXZ 0000000180021c10 f i GraphicDisplay.obj
 0001:00020c20       ?OnPreVerbShow@?$IOleObjectImpl@VCOPOSGraphicDisplay@@@ATL@@QEAAJXZ 0000000180021c20 f i GraphicDisplay.obj
 0001:00020c30       ?OnPreVerbUIActivate@?$IOleObjectImpl@VCOPOSGraphicDisplay@@@ATL@@QEAAJXZ 0000000180021c30 f i GraphicDisplay.obj
 0001:00020c40       ?OnSetFocus@CComControlBase@ATL@@QEAA_JI_K_JAEAH@Z 0000000180021c40 f i GraphicDisplay.obj
 0001:00020e40       ?OnWindowMessage@?$IOleInPlaceObjectWindowlessImpl@VCOPOSGraphicDisplay@@@ATL@@UEAAJI_K_JPEA_J@Z 0000000180021e40 f i GraphicDisplay.obj
 0001:00021060       ?Open@CRegKey@ATL@@QEAAJPEAUHKEY__@@PEB_WK@Z 0000000180022060 f i GraphicDisplay.obj
 0001:000211e0       ?OuterAddRef@CComObjectRootBase@ATL@@QEAAKXZ 00000001800221e0 f i GraphicDisplay.obj
 0001:00021220       ?OuterQueryInterface@CComObjectRootBase@ATL@@QEAAJAEBU_GUID@@PEAPEAX@Z 0000000180022220 f i GraphicDisplay.obj
 0001:00021270       ?OuterRelease@CComObjectRootBase@ATL@@QEAAKXZ 0000000180022270 f i GraphicDisplay.obj
 0001:000212b0       ?PreProcessBuffer@CRegParser@ATL@@QEAAJPEA_WPEAPEA_W@Z 00000001800222b0 f i GraphicDisplay.obj
 0001:00021990       ?PreTranslateAccelerator@CComControlBase@ATL@@QEAAHPEAUtagMSG@@AEAJ@Z 0000000180022990 f i GraphicDisplay.obj
 0001:000219b0       ?ProcessWindowMessage@?$CComControl@VCOPOSGraphicDisplay@@V?$CWindowImpl@VCOPOSGraphicDisplay@@VCWindow@ATL@@V?$CWinTraits@$0FGAAAAAA@$0A@@3@@ATL@@@ATL@@UEAAHPEAUHWND__@@I_K_JAEA_JK@Z 00000001800229b0 f i GraphicDisplay.obj
 0001:00021c30       ?ProcessWindowMessage@COPOSGraphicDisplay@@UEAAHPEAUHWND__@@I_K_JAEA_JK@Z 0000000180022c30 f i GraphicDisplay.obj
 0001:00021db0       ?PutProperty@?$CComPtr@UIDispatch@@@ATL@@QEAAJJPEAUtagVARIANT@@@Z 0000000180022db0 f i GraphicDisplay.obj
 0001:00021e00       ?PutProperty@?$CComPtr@UIDispatch@@@ATL@@SAJPEAUIDispatch@@JPEAUtagVARIANT@@@Z 0000000180022e00 f i GraphicDisplay.obj
 0001:000220a0       ?QueryGetData@?$IDataObjectImpl@VCOPOSGraphicDisplay@@@ATL@@UEAAJPEAUtagFORMATETC@@@Z 00000001800230a0 f i GraphicDisplay.obj
 0001:00022130       ?QueryHitPoint@?$IViewObjectExImpl@VCOPOSGraphicDisplay@@@ATL@@UEAAJKPEBUtagRECT@@UtagPOINT@@JPEAK@Z 0000000180023130 f i GraphicDisplay.obj
 0001:000222a0       ?QueryHitRect@?$IViewObjectExImpl@VCOPOSGraphicDisplay@@@ATL@@UEAAJKPEBUtagRECT@@0JPEAK@Z 00000001800232a0 f i GraphicDisplay.obj
 0001:00022470       ?QueryInterface@?$CComAggObject@VCOPOSGraphicDisplay@@@ATL@@UEAAJAEBU_GUID@@PEAPEAX@Z 0000000180023470 f i GraphicDisplay.obj
 0001:00022560       ?QueryInterface@?$CComContainedObject@VCOPOSGraphicDisplay@@@ATL@@UEAAJAEBU_GUID@@PEAPEAX@Z 0000000180023560 f i GraphicDisplay.obj
 0001:000225ac       ?QueryInterface@?$CComContainedObject@VCOPOSGraphicDisplay@@@ATL@@WBAA@EAAJAEBU_GUID@@PEAPEAX@Z 00000001800235ac f i GraphicDisplay.obj
 0001:000225b8       ?QueryInterface@?$CComContainedObject@VCOPOSGraphicDisplay@@@ATL@@WBAI@EAAJAEBU_GUID@@PEAPEAX@Z 00000001800235b8 f i GraphicDisplay.obj
 0001:000225c4       ?QueryInterface@?$CComContainedObject@VCOPOSGraphicDisplay@@@ATL@@WBBA@EAAJAEBU_GUID@@PEAPEAX@Z 00000001800235c4 f i GraphicDisplay.obj
 0001:000225d0       ?QueryInterface@?$CComContainedObject@VCOPOSGraphicDisplay@@@ATL@@WBBI@EAAJAEBU_GUID@@PEAPEAX@Z 00000001800235d0 f i GraphicDisplay.obj
 0001:000225dc       ?QueryInterface@?$CComContainedObject@VCOPOSGraphicDisplay@@@ATL@@WLI@EAAJAEBU_GUID@@PEAPEAX@Z 00000001800235dc f i GraphicDisplay.obj
 0001:000225e8       ?QueryInterface@?$CComContainedObject@VCOPOSGraphicDisplay@@@ATL@@WMA@EAAJAEBU_GUID@@PEAPEAX@Z 00000001800235e8 f i GraphicDisplay.obj
 0001:000225f4       ?QueryInterface@?$CComContainedObject@VCOPOSGraphicDisplay@@@ATL@@WMI@EAAJAEBU_GUID@@PEAPEAX@Z 00000001800235f4 f i GraphicDisplay.obj
 0001:00022600       ?QueryInterface@?$CComContainedObject@VCOPOSGraphicDisplay@@@ATL@@WNA@EAAJAEBU_GUID@@PEAPEAX@Z 0000000180023600 f i GraphicDisplay.obj
 0001:0002260c       ?QueryInterface@?$CComContainedObject@VCOPOSGraphicDisplay@@@ATL@@WNI@EAAJAEBU_GUID@@PEAPEAX@Z 000000018002360c f i GraphicDisplay.obj
 0001:00022618       ?QueryInterface@?$CComContainedObject@VCOPOSGraphicDisplay@@@ATL@@WOA@EAAJAEBU_GUID@@PEAPEAX@Z 0000000180023618 f i GraphicDisplay.obj
 0001:00022624       ?QueryInterface@?$CComContainedObject@VCOPOSGraphicDisplay@@@ATL@@WOI@EAAJAEBU_GUID@@PEAPEAX@Z 0000000180023624 f i GraphicDisplay.obj
 0001:00022630       ?QueryInterface@?$CComContainedObject@VCOPOSGraphicDisplay@@@ATL@@WPA@EAAJAEBU_GUID@@PEAPEAX@Z 0000000180023630 f i GraphicDisplay.obj
 0001:0002263c       ?QueryInterface@?$CComContainedObject@VCOPOSGraphicDisplay@@@ATL@@WPI@EAAJAEBU_GUID@@PEAPEAX@Z 000000018002363c f i GraphicDisplay.obj
 0001:00022650       ?QueryInterface@?$CComObject@V?$CComEnum@UIEnumConnectionPoints@@$1?_GUID_b196b285_bab4_101a_b69c_00aa00341d07@@3U__s_GUID@@BPEAUIConnectionPoint@@V?$_CopyInterface@UIConnectionPoint@@@ATL@@VCComSingleThreadModel@6@@ATL@@@ATL@@UEAAJAEBU_GUID@@PEAPEAX@Z 0000000180023650 f i GraphicDisplay.obj
 0001:000226a0       ?QueryInterface@?$CComObject@V?$CComEnum@UIEnumConnections@@$1?_GUID_b196b287_bab4_101a_b69c_00aa00341d07@@3U__s_GUID@@BUtagCONNECTDATA@@V?$_Copy@UtagCONNECTDATA@@@ATL@@VCComSingleThreadModel@6@@ATL@@@ATL@@UEAAJAEBU_GUID@@PEAPEAX@Z 00000001800236a0 f i GraphicDisplay.obj
 0001:000226f0       ?QueryInterface@?$CComObject@VCOPOSGraphicDisplay@@@ATL@@UEAAJAEBU_GUID@@PEAPEAX@Z 00000001800236f0 f i GraphicDisplay.obj
 0001:00022734       ?QueryInterface@?$CComObject@VCOPOSGraphicDisplay@@@ATL@@WBAA@EAAJAEBU_GUID@@PEAPEAX@Z 0000000180023734 f i GraphicDisplay.obj
 0001:00022740       ?QueryInterface@?$CComObject@VCOPOSGraphicDisplay@@@ATL@@WBAI@EAAJAEBU_GUID@@PEAPEAX@Z 0000000180023740 f i GraphicDisplay.obj
 0001:0002274c       ?QueryInterface@?$CComObject@VCOPOSGraphicDisplay@@@ATL@@WBBA@EAAJAEBU_GUID@@PEAPEAX@Z 000000018002374c f i GraphicDisplay.obj
 0001:00022758       ?QueryInterface@?$CComObject@VCOPOSGraphicDisplay@@@ATL@@WBBI@EAAJAEBU_GUID@@PEAPEAX@Z 0000000180023758 f i GraphicDisplay.obj
 0001:00022764       ?QueryInterface@?$CComObject@VCOPOSGraphicDisplay@@@ATL@@WLI@EAAJAEBU_GUID@@PEAPEAX@Z 0000000180023764 f i GraphicDisplay.obj
 0001:00022770       ?QueryInterface@?$CComObject@VCOPOSGraphicDisplay@@@ATL@@WMA@EAAJAEBU_GUID@@PEAPEAX@Z 0000000180023770 f i GraphicDisplay.obj
 0001:0002277c       ?QueryInterface@?$CComObject@VCOPOSGraphicDisplay@@@ATL@@WMI@EAAJAEBU_GUID@@PEAPEAX@Z 000000018002377c f i GraphicDisplay.obj
 0001:00022788       ?QueryInterface@?$CComObject@VCOPOSGraphicDisplay@@@ATL@@WNA@EAAJAEBU_GUID@@PEAPEAX@Z 0000000180023788 f i GraphicDisplay.obj
 0001:00022794       ?QueryInterface@?$CComObject@VCOPOSGraphicDisplay@@@ATL@@WNI@EAAJAEBU_GUID@@PEAPEAX@Z 0000000180023794 f i GraphicDisplay.obj
 0001:000227a0       ?QueryInterface@?$CComObject@VCOPOSGraphicDisplay@@@ATL@@WOA@EAAJAEBU_GUID@@PEAPEAX@Z 00000001800237a0 f i GraphicDisplay.obj
 0001:000227ac       ?QueryInterface@?$CComObject@VCOPOSGraphicDisplay@@@ATL@@WOI@EAAJAEBU_GUID@@PEAPEAX@Z 00000001800237ac f i GraphicDisplay.obj
 0001:000227b8       ?QueryInterface@?$CComObject@VCOPOSGraphicDisplay@@@ATL@@WPA@EAAJAEBU_GUID@@PEAPEAX@Z 00000001800237b8 f i GraphicDisplay.obj
 0001:000227c4       ?QueryInterface@?$CComObject@VCOPOSGraphicDisplay@@@ATL@@WPI@EAAJAEBU_GUID@@PEAPEAX@Z 00000001800237c4 f i GraphicDisplay.obj
 0001:000227d0       ?QueryInterface@?$CComObjectCached@VCComClassFactory@ATL@@@ATL@@UEAAJAEBU_GUID@@PEAPEAX@Z 00000001800237d0 f i GraphicDisplay.obj
 0001:00022820       ?QueryInterface@CRegObject@ATL@@UEAAJAEBU_GUID@@PEAPEAX@Z 0000000180023820 f i GraphicDisplay.obj
 0001:000228a0       ?QuickActivate@?$IQuickActivateImpl@VCOPOSGraphicDisplay@@@ATL@@UEAAJPEAUtagQACONTAINER@@PEAUtagQACONTROL@@@Z 00000001800238a0 f i GraphicDisplay.obj
 0001:00022960       ?ReactivateAndUndo@?$IOleInPlaceObjectWindowlessImpl@VCOPOSGraphicDisplay@@@ATL@@UEAAJXZ 0000000180023960 f i GraphicDisplay.obj
 0001:000229e0       ?ReadFromStream@CComBSTR@ATL@@QEAAJPEAUIStream@@@Z 00000001800239e0 f i GraphicDisplay.obj
 0001:00022ec0       ?ReadFromStream@CComVariant@ATL@@QEAAJPEAUIStream@@GTClassesAllowedInStream@2@K@Z 0000000180023ec0 f i GraphicDisplay.obj
 0001:000232f0       ?RecurseDeleteKey@CRegKey@ATL@@QEAAJPEB_W@Z 00000001800242f0 f i GraphicDisplay.obj
 0001:00023510       ?RegCreateKeyExW@CAtlTransactionManager@ATL@@QEAAJPEAUHKEY__@@PEB_WKPEA_WKKQEAU_SECURITY_ATTRIBUTES@@PEAPEAU3@PEAK@Z 0000000180024510 f i GraphicDisplay.obj
 0001:000236e0       ?RegDeleteKeyW@CAtlTransactionManager@ATL@@QEAAJPEAUHKEY__@@PEB_W@Z 00000001800246e0 f i GraphicDisplay.obj
 0001:000237f0       ?RegOpenKeyExW@CAtlTransactionManager@ATL@@QEAAJPEAUHKEY__@@PEB_WKKPEAPEAU3@@Z 00000001800247f0 f i GraphicDisplay.obj
 0001:00023940       ?Register@_ATL_WNDCLASSINFOW@ATL@@QEAAGPEAP6A_JPEAUHWND__@@I_K_J@Z@Z 0000000180024940 f i GraphicDisplay.obj
 0001:00023990       ?RegisterBuffer@CRegParser@ATL@@QEAAJPEA_WH@Z 0000000180024990 f i GraphicDisplay.obj
 0001:00023d80       ?RegisterClassExW@AtlModuleRegisterWndClassInfoParamW@ATL@@SAGPEAU_ATL_WIN_MODULE70@2@PEBUtagWNDCLASSEXW@@@Z 0000000180024d80 f i GraphicDisplay.obj
 0001:00023dc0       ?RegisterFromResource@CRegObject@ATL@@IEAAJPEB_W00H@Z 0000000180024dc0 f i GraphicDisplay.obj
 0001:00024220       ?RegisterServer@?$CAtlModuleT@VCComModule@ATL@@@ATL@@QEAAJHPEBU_GUID@@@Z 0000000180025220 f i GraphicDisplay.obj
 0001:000242a0       ?RegisterServer@CAtlComModule@ATL@@QEAAJHPEBU_GUID@@@Z 00000001800252a0 f i GraphicDisplay.obj
 0001:000242e0       ?RegisterServer@CComModule@ATL@@QEAAJHPEBU_GUID@@@Z 00000001800252e0 f i GraphicDisplay.obj
 0001:000243e0       ?RegisterSubkeys@CRegParser@ATL@@IEAAJPEA_WPEAUHKEY__@@HH@Z 00000001800253e0 f i GraphicDisplay.obj
 0001:000251c0       ?Release@?$CComAggObject@VCOPOSGraphicDisplay@@@ATL@@UEAAKXZ 00000001800261c0 f i GraphicDisplay.obj
 0001:00025270       ?Release@?$CComContainedObject@VCOPOSGraphicDisplay@@@ATL@@UEAAKXZ 0000000180026270 f i GraphicDisplay.obj
 0001:000252a8       ?Release@?$CComContainedObject@VCOPOSGraphicDisplay@@@ATL@@WBAA@EAAKXZ 00000001800262a8 f i GraphicDisplay.obj
 0001:000252b4       ?Release@?$CComContainedObject@VCOPOSGraphicDisplay@@@ATL@@WBAI@EAAKXZ 00000001800262b4 f i GraphicDisplay.obj
 0001:000252c0       ?Release@?$CComContainedObject@VCOPOSGraphicDisplay@@@ATL@@WBBA@EAAKXZ 00000001800262c0 f i GraphicDisplay.obj
 0001:000252cc       ?Release@?$CComContainedObject@VCOPOSGraphicDisplay@@@ATL@@WBBI@EAAKXZ 00000001800262cc f i GraphicDisplay.obj
 0001:000252d8       ?Release@?$CComContainedObject@VCOPOSGraphicDisplay@@@ATL@@WBCI@EAAKXZ 00000001800262d8 f i GraphicDisplay.obj
 0001:000252e4       ?Release@?$CComContainedObject@VCOPOSGraphicDisplay@@@ATL@@WBEA@EAAKXZ 00000001800262e4 f i GraphicDisplay.obj
 0001:000252f0       ?Release@?$CComContainedObject@VCOPOSGraphicDisplay@@@ATL@@WLI@EAAKXZ 00000001800262f0 f i GraphicDisplay.obj
 0001:000252fc       ?Release@?$CComContainedObject@VCOPOSGraphicDisplay@@@ATL@@WMA@EAAKXZ 00000001800262fc f i GraphicDisplay.obj
 0001:00025308       ?Release@?$CComContainedObject@VCOPOSGraphicDisplay@@@ATL@@WMI@EAAKXZ 0000000180026308 f i GraphicDisplay.obj
 0001:00025314       ?Release@?$CComContainedObject@VCOPOSGraphicDisplay@@@ATL@@WNA@EAAKXZ 0000000180026314 f i GraphicDisplay.obj
 0001:00025320       ?Release@?$CComContainedObject@VCOPOSGraphicDisplay@@@ATL@@WNI@EAAKXZ 0000000180026320 f i GraphicDisplay.obj
 0001:0002532c       ?Release@?$CComContainedObject@VCOPOSGraphicDisplay@@@ATL@@WOA@EAAKXZ 000000018002632c f i GraphicDisplay.obj
 0001:00025338       ?Release@?$CComContainedObject@VCOPOSGraphicDisplay@@@ATL@@WOI@EAAKXZ 0000000180026338 f i GraphicDisplay.obj
 0001:00025344       ?Release@?$CComContainedObject@VCOPOSGraphicDisplay@@@ATL@@WPA@EAAKXZ 0000000180026344 f i GraphicDisplay.obj
 0001:00025350       ?Release@?$CComContainedObject@VCOPOSGraphicDisplay@@@ATL@@WPI@EAAKXZ 0000000180026350 f i GraphicDisplay.obj
 0001:00025360       ?Release@?$CComObject@V?$CComEnum@UIEnumConnectionPoints@@$1?_GUID_b196b285_bab4_101a_b69c_00aa00341d07@@3U__s_GUID@@BPEAUIConnectionPoint@@V?$_CopyInterface@UIConnectionPoint@@@ATL@@VCComSingleThreadModel@6@@ATL@@@ATL@@UEAAKXZ 0000000180026360 f i GraphicDisplay.obj
 0001:00025410       ?Release@?$CComObject@V?$CComEnum@UIEnumConnections@@$1?_GUID_b196b287_bab4_101a_b69c_00aa00341d07@@3U__s_GUID@@BUtagCONNECTDATA@@V?$_Copy@UtagCONNECTDATA@@@ATL@@VCComSingleThreadModel@6@@ATL@@@ATL@@UEAAKXZ 0000000180026410 f i GraphicDisplay.obj
 0001:000254c0       ?Release@?$CComObject@VCOPOSGraphicDisplay@@@ATL@@UEAAKXZ 00000001800264c0 f i GraphicDisplay.obj
 0001:00025578       ?Release@?$CComObject@VCOPOSGraphicDisplay@@@ATL@@WBAA@EAAKXZ 0000000180026578 f i GraphicDisplay.obj
 0001:00025584       ?Release@?$CComObject@VCOPOSGraphicDisplay@@@ATL@@WBAI@EAAKXZ 0000000180026584 f i GraphicDisplay.obj
 0001:00025590       ?Release@?$CComObject@VCOPOSGraphicDisplay@@@ATL@@WBBA@EAAKXZ 0000000180026590 f i GraphicDisplay.obj
 0001:0002559c       ?Release@?$CComObject@VCOPOSGraphicDisplay@@@ATL@@WBBI@EAAKXZ 000000018002659c f i GraphicDisplay.obj
 0001:000255a8       ?Release@?$CComObject@VCOPOSGraphicDisplay@@@ATL@@WBCI@EAAKXZ 00000001800265a8 f i GraphicDisplay.obj
 0001:000255b4       ?Release@?$CComObject@VCOPOSGraphicDisplay@@@ATL@@WBEA@EAAKXZ 00000001800265b4 f i GraphicDisplay.obj
 0001:000255c0       ?Release@?$CComObject@VCOPOSGraphicDisplay@@@ATL@@WLI@EAAKXZ 00000001800265c0 f i GraphicDisplay.obj
 0001:000255cc       ?Release@?$CComObject@VCOPOSGraphicDisplay@@@ATL@@WMA@EAAKXZ 00000001800265cc f i GraphicDisplay.obj
 0001:000255d8       ?Release@?$CComObject@VCOPOSGraphicDisplay@@@ATL@@WMI@EAAKXZ 00000001800265d8 f i GraphicDisplay.obj
 0001:000255e4       ?Release@?$CComObject@VCOPOSGraphicDisplay@@@ATL@@WNA@EAAKXZ 00000001800265e4 f i GraphicDisplay.obj
 0001:000255f0       ?Release@?$CComObject@VCOPOSGraphicDisplay@@@ATL@@WNI@EAAKXZ 00000001800265f0 f i GraphicDisplay.obj
 0001:000255fc       ?Release@?$CComObject@VCOPOSGraphicDisplay@@@ATL@@WOA@EAAKXZ 00000001800265fc f i GraphicDisplay.obj
 0001:00025608       ?Release@?$CComObject@VCOPOSGraphicDisplay@@@ATL@@WOI@EAAKXZ 0000000180026608 f i GraphicDisplay.obj
 0001:00025614       ?Release@?$CComObject@VCOPOSGraphicDisplay@@@ATL@@WPA@EAAKXZ 0000000180026614 f i GraphicDisplay.obj
 0001:00025620       ?Release@?$CComObject@VCOPOSGraphicDisplay@@@ATL@@WPI@EAAKXZ 0000000180026620 f i GraphicDisplay.obj
 0001:00025630       ?Release@?$CComObjectCached@VCComClassFactory@ATL@@@ATL@@UEAAKXZ 0000000180026630 f i GraphicDisplay.obj
 0001:000256d0       ?Release@?$CComPtrBase@UIAdviseSink@@@ATL@@QEAAXXZ 00000001800266d0 f i GraphicDisplay.obj
 0001:00025730       ?Release@?$CComPtrBase@UIDispatch@@@ATL@@QEAAXXZ 0000000180026730 f i GraphicDisplay.obj
 0001:00025790       ?Release@?$CComPtrBase@UIOleInPlaceSiteWindowless@@@ATL@@QEAAXXZ 0000000180026790 f i GraphicDisplay.obj
 0001:000257f0       ?Release@CRegObject@ATL@@UEAAKXZ 00000001800267f0 f i GraphicDisplay.obj
 0001:00025860       ?Remove@CComDynamicUnkArray@ATL@@QEAAHK@Z 0000000180026860 f i GraphicDisplay.obj
 0001:00025940       ?RemoveAll@?$CSimpleMap@PEA_WPEA_WVCExpansionVectorEqualHelper@ATL@@@ATL@@QEAAXXZ 0000000180026940 f i GraphicDisplay.obj
 0001:000259e0       ?Reset@?$CComEnumImpl@UIEnumConnectionPoints@@$1?_GUID_b196b285_bab4_101a_b69c_00aa00341d07@@3U__s_GUID@@BPEAUIConnectionPoint@@V?$_CopyInterface@UIConnectionPoint@@@ATL@@@ATL@@UEAAJXZ 00000001800269e0 f i GraphicDisplay.obj
 0001:00025a00       ?Reset@?$CComEnumImpl@UIEnumConnections@@$1?_GUID_b196b287_bab4_101a_b69c_00aa00341d07@@3U__s_GUID@@BUtagCONNECTDATA@@V?$_Copy@UtagCONNECTDATA@@@ATL@@@ATL@@UEAAJXZ 0000000180026a00 f i GraphicDisplay.obj
 0001:00025a20       ?ResizeBorder@?$IOleInPlaceActiveObjectImpl@VCOPOSGraphicDisplay@@@ATL@@UEAAJPEBUtagRECT@@PEAUIOleInPlaceUIWindow@@H@Z 0000000180026a20 f i GraphicDisplay.obj
 0001:00025aa0       ?ResourceRegister@CRegObject@ATL@@QEAAJPEB_WI0@Z 0000000180026aa0 f i GraphicDisplay.obj
 0001:00025b80       ?ResourceRegisterSz@CRegObject@ATL@@QEAAJPEB_W00@Z 0000000180026b80 f i GraphicDisplay.obj
 0001:00025ca0       ?ResourceUnregister@CRegObject@ATL@@QEAAJPEB_WI0@Z 0000000180026ca0 f i GraphicDisplay.obj
 0001:00025d80       ?ResourceUnregisterSz@CRegObject@ATL@@QEAAJPEB_W00@Z 0000000180026d80 f i GraphicDisplay.obj
 0001:00025ea0       ?SODataDummy@COPOSGraphicDisplay@@MEAAJJ@Z 0000000180026ea0 f i GraphicDisplay.obj
 0001:00025ec0       ?SODirectIO@COPOSGraphicDisplay@@MEAAJJPEAJPEAPEA_W@Z 0000000180026ec0 f i GraphicDisplay.obj
 0001:00026100       ?SOError@COPOSGraphicDisplay@@MEAAJJJJPEAJ@Z 0000000180027100 f i GraphicDisplay.obj
 0001:00026210       ?SOOutputComplete@COPOSGraphicDisplay@@MEAAJJ@Z 0000000180027210 f i GraphicDisplay.obj
 0001:000262b0       ?SOStatusUpdate@COPOSGraphicDisplay@@MEAAJJ@Z 00000001800272b0 f i GraphicDisplay.obj
 0001:00026350       ?Save@?$IPersistStorageImpl@VCOPOSGraphicDisplay@@@ATL@@UEAAJPEAUIStorage@@H@Z 0000000180027350 f i GraphicDisplay.obj
 0001:00026510       ?Save@?$IPersistStreamInitImpl@VCOPOSGraphicDisplay@@@ATL@@UEAAJPEAUIStream@@H@Z 0000000180027510 f i GraphicDisplay.obj
 0001:000265d0       ?SaveCompleted@?$IPersistStorageImpl@VCOPOSGraphicDisplay@@@ATL@@UEAAJPEAUIStorage@@@Z 00000001800275d0 f i GraphicDisplay.obj
 0001:00026640       ?SendOnDataChange@CComControlBase@ATL@@QEAAJK@Z 0000000180027640 f i GraphicDisplay.obj
 0001:00026730       ?SendOnSave@CComControlBase@ATL@@QEAAJXZ 0000000180027730 f i GraphicDisplay.obj
 0001:000267a0       ?SendOnViewChange@CComControlBase@ATL@@QEAAJKJ@Z 00000001800277a0 f i GraphicDisplay.obj
 0001:00026820       ?SetAdvise@?$IViewObjectExImpl@VCOPOSGraphicDisplay@@@ATL@@UEAAJKKPEAUIAdviseSink@@@Z 0000000180027820 f i GraphicDisplay.obj
 0001:000268e0       ?SetClientSite@?$IOleObjectImpl@VCOPOSGraphicDisplay@@@ATL@@UEAAJPEAUIOleClientSite@@@Z 00000001800278e0 f i GraphicDisplay.obj
 0001:00026990       ?SetColorScheme@?$IOleObjectImpl@VCOPOSGraphicDisplay@@@ATL@@UEAAJPEAUtagLOGPALETTE@@@Z 0000000180027990 f i GraphicDisplay.obj
 0001:00026a20       ?SetContentExtent@?$IQuickActivateImpl@VCOPOSGraphicDisplay@@@ATL@@UEAAJPEAUtagSIZE@@@Z 0000000180027a20 f i GraphicDisplay.obj
 0001:00026ae0       ?SetControlFocus@CComControlBase@ATL@@QEAAHH@Z 0000000180027ae0 f i GraphicDisplay.obj
 0001:00026c70       ?SetDWORDValue@CRegKey@ATL@@QEAAJPEB_WK@Z 0000000180027c70 f i GraphicDisplay.obj
 0001:00026d20       ?SetData@?$IDataObjectImpl@VCOPOSGraphicDisplay@@@ATL@@UEAAJPEAUtagFORMATETC@@PEAUtagSTGMEDIUM@@H@Z 0000000180027d20 f i GraphicDisplay.obj
 0001:00026db0       ?SetExtent@?$IOleObjectImpl@VCOPOSGraphicDisplay@@@ATL@@UEAAJKPEAUtagSIZE@@@Z 0000000180027db0 f i GraphicDisplay.obj
 0001:00026e70       ?SetHostNames@?$IOleObjectImpl@VCOPOSGraphicDisplay@@@ATL@@UEAAJPEB_W0@Z 0000000180027e70 f i GraphicDisplay.obj
 0001:00026ef0       ?SetInterfaceSafetyOptions@?$IObjectSafetyImpl@VCOPOSGraphicDisplay@@$02@ATL@@UEAAJAEBU_GUID@@KK@Z 0000000180027ef0 f i GraphicDisplay.obj
 0001:00027090       ?SetMoniker@?$IOleObjectImpl@VCOPOSGraphicDisplay@@@ATL@@UEAAJKPEAUIMoniker@@@Z 0000000180028090 f i GraphicDisplay.obj
 0001:00027120       ?SetMultiStringValue@CRegKey@ATL@@QEAAJPEB_W0@Z 0000000180028120 f i GraphicDisplay.obj
 0001:00027290       ?SetObjectRects@?$IOleInPlaceObjectWindowlessImpl@VCOPOSGraphicDisplay@@@ATL@@UEAAJPEBUtagRECT@@0@Z 0000000180028290 f i GraphicDisplay.obj
 0001:00027350       ?SetStringValue@CRegKey@ATL@@QEAAJPEB_W0K@Z 0000000180028350 f i GraphicDisplay.obj
 0001:000274d0       ?SetVoid@CComClassFactory@ATL@@QEAAXPEAX@Z 00000001800284d0 f i GraphicDisplay.obj
 0001:000274f0       ?SetVoid@CComObjectRootBase@ATL@@QEAAXPEAX@Z 00000001800284f0 f i GraphicDisplay.obj
 0001:00027500       ?ShowWindow@CWindow@ATL@@QEAAHH@Z 0000000180028500 f i GraphicDisplay.obj
 0001:00027590       ?Skip@?$CComEnumImpl@UIEnumConnectionPoints@@$1?_GUID_b196b285_bab4_101a_b69c_00aa00341d07@@3U__s_GUID@@BPEAUIConnectionPoint@@V?$_CopyInterface@UIConnectionPoint@@@ATL@@@ATL@@UEAAJK@Z 0000000180028590 f i GraphicDisplay.obj
 0001:00027630       ?Skip@?$CComEnumImpl@UIEnumConnections@@$1?_GUID_b196b287_bab4_101a_b69c_00aa00341d07@@3U__s_GUID@@BUtagCONNECTDATA@@V?$_Copy@UtagCONNECTDATA@@@ATL@@@ATL@@UEAAJK@Z 0000000180028630 f i GraphicDisplay.obj
 0001:000276d0       ?SkipAssignment@CRegParser@ATL@@IEAAJPEA_W@Z 00000001800286d0 f i GraphicDisplay.obj
 0001:000277d0       ?SkipWhiteSpace@CRegParser@ATL@@IEAAXXZ 00000001800287d0 f i GraphicDisplay.obj
 0001:00027830       ?StartWindowProc@?$CWindowImplBaseT@VCWindow@ATL@@V?$CWinTraits@$0FGAAAAAA@$0A@@2@@ATL@@SA_JPEAUHWND__@@I_K_J@Z 0000000180028830 f i GraphicDisplay.obj
 0001:000279a0       ?StrChrW@CRegParser@ATL@@KAPEA_WPEA_W_W@Z 00000001800289a0 f i GraphicDisplay.obj
 0001:00027a20       ?StrFromMap@CRegObject@ATL@@QEAAPEB_WPEA_W@Z 0000000180028a20 f i GraphicDisplay.obj
 0001:00027ae0       ?Swap@?$CComPtrBase@UIAdviseSink@@@ATL@@IEAAXAEAV12@@Z 0000000180028ae0 f i GraphicDisplay.obj
 0001:00027b40       ?Swap@?$CComPtrBase@UIOleClientSite@@@ATL@@IEAAXAEAV12@@Z 0000000180028b40 f i GraphicDisplay.obj
 0001:00027ba0       ?Swap@?$CComPtrBase@UIUnknown@@@ATL@@IEAAXAEAV12@@Z 0000000180028ba0 f i GraphicDisplay.obj
 0001:00027c00       ?T2COLE_EX@@YAPEB_WPEB_WI@Z 0000000180028c00 f i GraphicDisplay.obj
 0001:00027c20       ?T2OLE_EX@@YAPEA_WPEA_WI@Z 0000000180028c20 f i GraphicDisplay.obj
 0001:00027c40       ?Term@CAtlModule@ATL@@QEAAXXZ 0000000180028c40 f i GraphicDisplay.obj
 0001:00027d00       ?Term@CComModule@ATL@@QEAAXXZ 0000000180028d00 f i GraphicDisplay.obj
 0001:00027df0       ?TranslateAcceleratorW@?$IOleInPlaceActiveObjectImpl@VCOPOSGraphicDisplay@@@ATL@@UEAAJPEAUtagMSG@@@Z 0000000180028df0 f i GraphicDisplay.obj
 0001:00028060       ?UIDeactivate@?$IOleInPlaceObjectWindowlessImpl@VCOPOSGraphicDisplay@@@ATL@@UEAAJXZ 0000000180029060 f i GraphicDisplay.obj
 0001:00028110       ?Unadvise@?$CProxy_IOPOSEvents@VCOPOSGraphicDisplay@@@@UEAAJK@Z 0000000180029110 f i GraphicDisplay.obj
 0001:00028160       ?Unadvise@?$IConnectionPointImpl@VCOPOSGraphicDisplay@@$1?DIID__IOPOSGraphicDisplayEvents@@3U_GUID@@BVCComDynamicUnkArray@ATL@@@ATL@@UEAAJK@Z 0000000180029160 f i GraphicDisplay.obj
 0001:00028250       ?Unadvise@?$IConnectionPointImpl@VCOPOSGraphicDisplay@@$1?IID_IPropertyNotifySink@@3U_GUID@@BVCComDynamicUnkArray@ATL@@@ATL@@UEAAJK@Z 0000000180029250 f i GraphicDisplay.obj
 0001:00028340       ?Unadvise@?$IOleObjectImpl@VCOPOSGraphicDisplay@@@ATL@@UEAAJK@Z 0000000180029340 f i GraphicDisplay.obj
 0001:00028430       ?Unfreeze@?$IViewObjectExImpl@VCOPOSGraphicDisplay@@@ATL@@UEAAJK@Z 0000000180029430 f i GraphicDisplay.obj
 0001:000284b0       ?Unlock@?$CComCritSecLock@VCComCriticalSection@ATL@@@ATL@@QEAAXXZ 00000001800294b0 f i GraphicDisplay.obj
 0001:00028540       ?Unlock@?$CComObjectRootEx@VCComSingleThreadModel@ATL@@@ATL@@QEAAXXZ 0000000180029540 f i GraphicDisplay.obj
 0001:00028550       ?Unlock@CAtlModule@ATL@@UEAAJXZ 0000000180029550 f i GraphicDisplay.obj
 0001:00028590       ?Unlock@CComCriticalSection@ATL@@QEAAJXZ 0000000180029590 f i GraphicDisplay.obj
 0001:000285d0       ?Unlock@CComFakeCriticalSection@ATL@@QEAAJXZ 00000001800295d0 f i GraphicDisplay.obj
 0001:000285e0       ?UnregisterServer@?$CAtlModuleT@VCComModule@ATL@@@ATL@@QEAAJHPEBU_GUID@@@Z 00000001800295e0 f i GraphicDisplay.obj
 0001:00028650       ?UnregisterServer@CAtlComModule@ATL@@QEAAJHPEBU_GUID@@@Z 0000000180029650 f i GraphicDisplay.obj
 0001:00028690       ?UnregisterServer@CComModule@ATL@@QEAAJHPEBU_GUID@@@Z 0000000180029690 f i GraphicDisplay.obj
 0001:00028780       ?Update@?$IOleObjectImpl@VCOPOSGraphicDisplay@@@ATL@@UEAAJXZ 0000000180029780 f i GraphicDisplay.obj
 0001:000287f0       ?UpdateRegistryFromResource@CAtlModule@ATL@@QEAAJIHPEAU_ATL_REGMAP_ENTRY@2@@Z 00000001800297f0 f i GraphicDisplay.obj
 0001:00028d20       ?UpdateRegistryFromResource@CAtlModule@ATL@@QEAAJPEB_WHPEAU_ATL_REGMAP_ENTRY@2@@Z 0000000180029d20 f i GraphicDisplay.obj
 0001:00029270       ?UpdateRegistryFromResource@CComModule@ATL@@UEAAJIHPEAU_ATL_REGMAP_ENTRY@2@@Z 000000018002a270 f i GraphicDisplay.obj
 0001:000292c0       ?UpdateRegistryFromResource@CComModule@ATL@@UEAAJPEB_WHPEAU_ATL_REGMAP_ENTRY@2@@Z 000000018002a2c0 f i GraphicDisplay.obj
 0001:00029310       ?UpdateRegistryFromResourceD@CComModule@ATL@@UEAAJIHPEAU_ATL_REGMAP_ENTRY@2@@Z 000000018002a310 f i GraphicDisplay.obj
 0001:00029330       ?UpdateRegistryFromResourceD@CComModule@ATL@@UEAAJPEB_WHPEAU_ATL_REGMAP_ENTRY@2@@Z 000000018002a330 f i GraphicDisplay.obj
 0001:00029350       ?VTFromRegType@CRegParser@ATL@@KAHPEB_WAEAG@Z 000000018002a350 f i GraphicDisplay.obj
 0001:00029430       ?WindowProc@?$CWindowImplBaseT@VCWindow@ATL@@V?$CWinTraits@$0FGAAAAAA@$0A@@2@@ATL@@SA_JPEAUHWND__@@I_K_J@Z 000000018002a430 f i GraphicDisplay.obj
 0001:00029710       ?WriteToStream@CComBSTR@ATL@@QEAAJPEAUIStream@@@Z 000000018002a710 f i GraphicDisplay.obj
 0001:00029880       ?WriteToStream@CComVariant@ATL@@QEAAJPEAUIStream@@@Z 000000018002a880 f i GraphicDisplay.obj
 0001:00029c90       ?WriteToStream@CComVariant@ATL@@QEAAJPEAUIStream@@G@Z 000000018002ac90 f i GraphicDisplay.obj
 0001:00029d70       ?_AtlFinalConstruct@CComObjectRootBase@ATL@@QEAAJXZ 000000018002ad70 f i GraphicDisplay.obj
 0001:00029d80       ?_AtlGetConversionACP@ATL@@YAIXZ 000000018002ad80 f i GraphicDisplay.obj
 0001:00029d90       ?_AtlInitialConstruct@?$CComAggObject@VCOPOSGraphicDisplay@@@ATL@@QEAAJXZ 000000018002ad90 f i GraphicDisplay.obj
 0001:00029df0       ?_AtlInitialConstruct@?$CComObjectRootEx@VCComMultiThreadModel@ATL@@@ATL@@QEAAJXZ 000000018002adf0 f i GraphicDisplay.obj
 0001:00029e30       ?_AtlInitialConstruct@?$CComObjectRootEx@VCComSingleThreadModel@ATL@@@ATL@@QEAAJXZ 000000018002ae30 f i GraphicDisplay.obj
 0001:00029e40       ?_AtlVerifyStackAvailable@_ATL_SAFE_ALLOCA_IMPL@ATL@@YA_N_K@Z 000000018002ae40 f i GraphicDisplay.obj
 0001:00029fa0       ?_GetEntries@?$CComEnum@UIEnumConnectionPoints@@$1?_GUID_b196b285_bab4_101a_b69c_00aa00341d07@@3U__s_GUID@@BPEAUIConnectionPoint@@V?$_CopyInterface@UIConnectionPoint@@@ATL@@VCComSingleThreadModel@6@@ATL@@SAPEBU_ATL_INTMAP_ENTRY@2@XZ 000000018002afa0 f i GraphicDisplay.obj
 0001:00029fc0       ?_GetEntries@?$CComEnum@UIEnumConnections@@$1?_GUID_b196b287_bab4_101a_b69c_00aa00341d07@@3U__s_GUID@@BUtagCONNECTDATA@@V?$_Copy@UtagCONNECTDATA@@@ATL@@VCComSingleThreadModel@6@@ATL@@SAPEBU_ATL_INTMAP_ENTRY@2@XZ 000000018002afc0 f i GraphicDisplay.obj
 0001:00029fe0       ?_GetEntries@CComClassFactory@ATL@@SAPEBU_ATL_INTMAP_ENTRY@2@XZ 000000018002afe0 f i GraphicDisplay.obj
 0001:0002a000       ?_GetEntries@COPOSGraphicDisplay@@SAPEBU_ATL_INTMAP_ENTRY@ATL@@XZ 000000018002b000 f i GraphicDisplay.obj
 0001:0002a020       ?_GetRawUnknown@COPOSGraphicDisplay@@QEAAPEAUIUnknown@@XZ 000000018002b020 f i GraphicDisplay.obj
 0001:0002a0b0       ?_GetViewStatus@COPOSGraphicDisplay@@QEAAKXZ 000000018002b0b0 f i GraphicDisplay.obj
 0001:0002a0c0       ?_InternalQueryInterface@?$CComEnum@UIEnumConnectionPoints@@$1?_GUID_b196b285_bab4_101a_b69c_00aa00341d07@@3U__s_GUID@@BPEAUIConnectionPoint@@V?$_CopyInterface@UIConnectionPoint@@@ATL@@VCComSingleThreadModel@6@@ATL@@QEAAJAEBU_GUID@@PEAPEAX@Z 000000018002b0c0 f i GraphicDisplay.obj
 0001:0002a110       ?_InternalQueryInterface@?$CComEnum@UIEnumConnections@@$1?_GUID_b196b287_bab4_101a_b69c_00aa00341d07@@3U__s_GUID@@BUtagCONNECTDATA@@V?$_Copy@UtagCONNECTDATA@@@ATL@@VCComSingleThreadModel@6@@ATL@@QEAAJAEBU_GUID@@PEAPEAX@Z 000000018002b110 f i GraphicDisplay.obj
 0001:0002a160       ?_InternalQueryInterface@CComClassFactory@ATL@@QEAAJAEBU_GUID@@PEAPEAX@Z 000000018002b160 f i GraphicDisplay.obj
 0001:0002a1b0       ?_InternalQueryInterface@COPOSGraphicDisplay@@QEAAJAEBU_GUID@@PEAPEAX@Z 000000018002b1b0 f i GraphicDisplay.obj
 0001:0002a200       ?_LocCPQueryInterface@?$IConnectionPointImpl@VCOPOSGraphicDisplay@@$1?DIID__IOPOSGraphicDisplayEvents@@3U_GUID@@BVCComDynamicUnkArray@ATL@@@ATL@@UEAAJAEBU_GUID@@PEAPEAX@Z 000000018002b200 f i GraphicDisplay.obj
 0001:0002a2e0       ?_LocCPQueryInterface@?$IConnectionPointImpl@VCOPOSGraphicDisplay@@$1?IID_IPropertyNotifySink@@3U_GUID@@BVCComDynamicUnkArray@ATL@@@ATL@@UEAAJAEBU_GUID@@PEAPEAX@Z 000000018002b2e0 f i GraphicDisplay.obj
 0001:0002a3c0       ?atlCreate@?$CWindowImpl@VCOPOSGraphicDisplay@@VCWindow@ATL@@V?$CWinTraits@$0FGAAAAAA@$0A@@3@@ATL@@QEAAPEAUHWND__@@PEAU3@V_U_RECT@2@PEB_WKKV_U_MENUorID@2@PEAX@Z 000000018002b3c0 f i GraphicDisplay.obj
 0001:0002a4f0       ?atlCreate@?$CWindowImplBaseT@VCWindow@ATL@@V?$CWinTraits@$0FGAAAAAA@$0A@@2@@ATL@@QEAAPEAUHWND__@@PEAU3@V_U_RECT@2@PEB_WKKV_U_MENUorID@2@GPEAX@Z 000000018002b4f0 f i GraphicDisplay.obj
 0001:0002a750       ?atlCreate@CRegKey@ATL@@QEAAJPEAUHKEY__@@PEB_WPEA_WKKPEAU_SECURITY_ATTRIBUTES@@PEAK@Z 000000018002b750 f i GraphicDisplay.obj
 0001:0002a940       ?begin@CComDynamicUnkArray@ATL@@QEAAPEAPEAUIUnknown@@XZ 000000018002b940 f i GraphicDisplay.obj
 0001:0002a950       ?copy@?$_Copy@UtagCONNECTDATA@@@ATL@@SAJPEAUtagCONNECTDATA@@PEBU3@@Z 000000018002b950 f i GraphicDisplay.obj
 0001:0002aa40       ?copy@?$_CopyInterface@UIConnectionPoint@@@ATL@@SAJPEAPEAUIConnectionPoint@@PEBQEAU3@@Z 000000018002ba40 f i GraphicDisplay.obj
 0001:0002ab30       ?destroy@?$_Copy@UtagCONNECTDATA@@@ATL@@SAXPEAUtagCONNECTDATA@@@Z 000000018002bb30 f i GraphicDisplay.obj
 0001:0002ab80       ?destroy@?$_CopyInterface@UIConnectionPoint@@@ATL@@SAXPEAPEAUIConnectionPoint@@@Z 000000018002bb80 f i GraphicDisplay.obj
 0001:0002abd0       ?end@CComDynamicUnkArray@ATL@@QEAAPEAPEAUIUnknown@@XZ 000000018002bbd0 f i GraphicDisplay.obj
 0001:0002abf0       ?init@?$_Copy@UtagCONNECTDATA@@@ATL@@SAXPEAUtagCONNECTDATA@@@Z 000000018002bbf0 f i GraphicDisplay.obj
 0001:0002ac00       ?init@?$_CopyInterface@UIConnectionPoint@@@ATL@@SAXPEAPEAUIConnectionPoint@@@Z 000000018002bc00 f i GraphicDisplay.obj
 0001:0002ac10       ?memcpy_s@Checked@ATL@@YAXPEAX_KPEBX1@Z 000000018002bc10 f i GraphicDisplay.obj
 0001:0002ac70       ?ocscpy_s@@YA_NPEA_W_KPEB_W@Z 000000018002bc70 f i GraphicDisplay.obj
 0001:0002acf0       ?ocslen@@YAHPEB_W@Z        000000018002bcf0 f i GraphicDisplay.obj
 0001:0002ad30       ?tcsncpy_s@Checked@ATL@@YAHPEA_W_KPEB_W1@Z 000000018002bd30 f i GraphicDisplay.obj
 0001:0002ad90       ?wcscat_s@Checked@ATL@@YAXPEA_W_KPEB_W@Z 000000018002bd90 f i GraphicDisplay.obj
 0001:0002ade0       ?wcscpy_s@Checked@ATL@@YAXPEA_W_KPEB_W@Z 000000018002bde0 f i GraphicDisplay.obj
 0001:0002ae30       ?wcsncpy_s@Checked@ATL@@YAHPEA_W_KPEB_W1@Z 000000018002be30 f i GraphicDisplay.obj
 0001:0002ae90       ?wcsstr@@YAPEA_WPEA_WPEB_W@Z 000000018002be90 f i GraphicDisplay.obj
 0001:0002aed0       InlineIsEqualGUID          000000018002bed0 f i GraphicDisplay.obj
 0001:0002afa0       IsEqualGUID                000000018002bfa0 f i GraphicDisplay.obj
 0001:0002b000       ??0COPOSGraphicDisplay@@QEAA@XZ 000000018002c000 f   GraphicDisplayImpl.obj
 0001:0002b180       ?FinalConstruct@COPOSGraphicDisplay@@QEAAJXZ 000000018002c180 f   GraphicDisplayImpl.obj
 0001:0002b270       ??1COPOSGraphicDisplay@@UEAA@XZ 000000018002c270 f   GraphicDisplayImpl.obj
 0001:0002b350       ?WriteTrace@COPOSGraphicDisplay@@QEAAXPEB_WZZ 000000018002c350 f   GraphicDisplayImpl.obj
 0001:0002b410       ?WriteTraceString@COPOSGraphicDisplay@@QEAAXPEB_WPEA_W@Z 000000018002c410 f   GraphicDisplayImpl.obj
 0001:0002b850       ?WriteTraceString@COPOSGraphicDisplay@@QEAAXPEAXHHHPEB_WZZ 000000018002c850 f   GraphicDisplayImpl.obj
 0001:0002bae0       ?WriteTraceError@COPOSGraphicDisplay@@QEAAXPEB_WK@Z 000000018002cae0 f   GraphicDisplayImpl.obj
 0001:0002bbe0       ?WriteTraceMethods@COPOSGraphicDisplay@@QEAAXPEAJH@Z 000000018002cbe0 f   GraphicDisplayImpl.obj
 0001:0002bc70       ?GetOposProp@COPOSGraphicDisplay@@IEAAJPEBDJPEAJJ@Z 000000018002cc70 f   GraphicDisplayImpl.obj
 0001:0002bf90       ?SetOposProp@COPOSGraphicDisplay@@IEAAJPEBDJJJ@Z 000000018002cf90 f   GraphicDisplayImpl.obj
 0001:0002c2f0       ?GetOposProp@COPOSGraphicDisplay@@IEAAJPEBDJPEAFJ@Z 000000018002d2f0 f   GraphicDisplayImpl.obj
 0001:0002c390       ?SetOposProp@COPOSGraphicDisplay@@IEAAJPEBDJFJ@Z 000000018002d390 f   GraphicDisplayImpl.obj
 0001:0002c410       ?GetOposProp@COPOSGraphicDisplay@@IEAAJPEBDJPEAPEA_WJ@Z 000000018002d410 f   GraphicDisplayImpl.obj
 0001:0002c730       ?SetOposProp@COPOSGraphicDisplay@@IEAAJPEBDJPEA_WJ@Z 000000018002d730 f   GraphicDisplayImpl.obj
 0001:0002cb10       ?DoInvoke@COPOSGraphicDisplay@@IEAAJPEBDJPEAVOposVariant@@IHPEAJ_N@Z 000000018002db10 f   GraphicDisplayImpl.obj
 0001:0002d660       ?SetCOFreezeEvents@COPOSGraphicDisplay@@IEAAXF@Z 000000018002e660 f   GraphicDisplayImpl.obj
 0001:0002d7f0       ?FreezeEvents@COPOSGraphicDisplay@@MEAAJH@Z 000000018002e7f0 f   GraphicDisplayImpl.obj
 0001:0002d920       ?OnDraw@COPOSGraphicDisplay@@MEAAJAEAUATL_DRAWINFO@@@Z 000000018002e920 f   GraphicDisplayImpl.obj
 0001:0002daf0       ?SOProcessID@COPOSGraphicDisplay@@UEAAJPEAJ@Z 000000018002eaf0 f   GraphicDisplayImpl.obj
 0001:0002db50       ?get_OpenResult@COPOSGraphicDisplay@@UEAAJPEAJ@Z 000000018002eb50 f   GraphicDisplayImpl.obj
 0001:0002dbb0       ?get_BinaryConversion@COPOSGraphicDisplay@@UEAAJPEAJ@Z 000000018002ebb0 f   GraphicDisplayImpl.obj
 0001:0002dc10       ?put_BinaryConversion@COPOSGraphicDisplay@@UEAAJJ@Z 000000018002ec10 f   GraphicDisplayImpl.obj
 0001:0002dc80       ?get_CapPowerReporting@COPOSGraphicDisplay@@UEAAJPEAJ@Z 000000018002ec80 f   GraphicDisplayImpl.obj
 0001:0002dce0       ?get_CheckHealthText@COPOSGraphicDisplay@@UEAAJPEAPEA_W@Z 000000018002ece0 f   GraphicDisplayImpl.obj
 0001:0002dd40       ?get_Claimed@COPOSGraphicDisplay@@UEAAJPEAF@Z 000000018002ed40 f   GraphicDisplayImpl.obj
 0001:0002dda0       ?get_DeviceEnabled@COPOSGraphicDisplay@@UEAAJPEAF@Z 000000018002eda0 f   GraphicDisplayImpl.obj
 0001:0002de00       ?put_DeviceEnabled@COPOSGraphicDisplay@@UEAAJF@Z 000000018002ee00 f   GraphicDisplayImpl.obj
 0001:0002de60       ?get_FreezeEvents@COPOSGraphicDisplay@@UEAAJPEAF@Z 000000018002ee60 f   GraphicDisplayImpl.obj
 0001:0002dec0       ?put_FreezeEvents@COPOSGraphicDisplay@@UEAAJF@Z 000000018002eec0 f   GraphicDisplayImpl.obj
 0001:0002dfa0       ?get_OutputID@COPOSGraphicDisplay@@UEAAJPEAJ@Z 000000018002efa0 f   GraphicDisplayImpl.obj
 0001:0002e000       ?get_PowerNotify@COPOSGraphicDisplay@@UEAAJPEAJ@Z 000000018002f000 f   GraphicDisplayImpl.obj
 0001:0002e060       ?put_PowerNotify@COPOSGraphicDisplay@@UEAAJJ@Z 000000018002f060 f   GraphicDisplayImpl.obj
 0001:0002e0c0       ?get_PowerState@COPOSGraphicDisplay@@UEAAJPEAJ@Z 000000018002f0c0 f   GraphicDisplayImpl.obj
 0001:0002e120       ?get_ResultCode@COPOSGraphicDisplay@@UEAAJPEAJ@Z 000000018002f120 f   GraphicDisplayImpl.obj
 0001:0002e1f0       ?get_ResultCodeExtended@COPOSGraphicDisplay@@UEAAJPEAJ@Z 000000018002f1f0 f   GraphicDisplayImpl.obj
 0001:0002e250       ?get_State@COPOSGraphicDisplay@@UEAAJPEAJ@Z 000000018002f250 f   GraphicDisplayImpl.obj
 0001:0002e2e0       ?get_ControlObjectDescription@COPOSGraphicDisplay@@UEAAJPEAPEA_W@Z 000000018002f2e0 f   GraphicDisplayImpl.obj
 0001:0002e360       ?get_ControlObjectVersion@COPOSGraphicDisplay@@UEAAJPEAJ@Z 000000018002f360 f   GraphicDisplayImpl.obj
 0001:0002e3c0       ?get_ServiceObjectDescription@COPOSGraphicDisplay@@UEAAJPEAPEA_W@Z 000000018002f3c0 f   GraphicDisplayImpl.obj
 0001:0002e420       ?get_ServiceObjectVersion@COPOSGraphicDisplay@@UEAAJPEAJ@Z 000000018002f420 f   GraphicDisplayImpl.obj
 0001:0002e480       ?get_DeviceDescription@COPOSGraphicDisplay@@UEAAJPEAPEA_W@Z 000000018002f480 f   GraphicDisplayImpl.obj
 0001:0002e4e0       ?get_DeviceName@COPOSGraphicDisplay@@UEAAJPEAPEA_W@Z 000000018002f4e0 f   GraphicDisplayImpl.obj
 0001:0002e540       ?get_CapStatisticsReporting@COPOSGraphicDisplay@@UEAAJPEAF@Z 000000018002f540 f   GraphicDisplayImpl.obj
 0001:0002e5a0       ?get_CapUpdateStatistics@COPOSGraphicDisplay@@UEAAJPEAF@Z 000000018002f5a0 f   GraphicDisplayImpl.obj
 0001:0002e600       ?get_CapCompareFirmwareVersion@COPOSGraphicDisplay@@UEAAJPEAF@Z 000000018002f600 f   GraphicDisplayImpl.obj
 0001:0002e660       ?get_CapUpdateFirmware@COPOSGraphicDisplay@@UEAAJPEAF@Z 000000018002f660 f   GraphicDisplayImpl.obj
 0001:0002e6c0       ?CheckHealth@COPOSGraphicDisplay@@UEAAJJPEAJ@Z 000000018002f6c0 f   GraphicDisplayImpl.obj
 0001:0002e780       ?ClaimDevice@COPOSGraphicDisplay@@UEAAJJPEAJ@Z 000000018002f780 f   GraphicDisplayImpl.obj
 0001:0002e8a0       ?ClearOutput@COPOSGraphicDisplay@@UEAAJPEAJ@Z 000000018002f8a0 f   GraphicDisplayImpl.obj
 0001:0002e910       ?Close@COPOSGraphicDisplay@@UEAAJPEAJ@Z 000000018002f910 f   GraphicDisplayImpl.obj
 0001:0002ea20       ?DirectIO@COPOSGraphicDisplay@@UEAAJJPEAJPEAPEA_W0@Z 000000018002fa20 f   GraphicDisplayImpl.obj
 0001:0002eba0       ?Open@COPOSGraphicDisplay@@UEAAJPEA_WPEAJ@Z 000000018002fba0 f   GraphicDisplayImpl.obj
 0001:00030080       ?ReleaseDevice@COPOSGraphicDisplay@@UEAAJPEAJ@Z 0000000180031080 f   GraphicDisplayImpl.obj
 0001:00030130       ?ResetStatistics@COPOSGraphicDisplay@@UEAAJPEA_WPEAJ@Z 0000000180031130 f   GraphicDisplayImpl.obj
 0001:00030210       ?RetrieveStatistics@COPOSGraphicDisplay@@UEAAJPEAPEA_WPEAJ@Z 0000000180031210 f   GraphicDisplayImpl.obj
 0001:000302f0       ?UpdateStatistics@COPOSGraphicDisplay@@UEAAJPEA_WPEAJ@Z 00000001800312f0 f   GraphicDisplayImpl.obj
 0001:000303d0       ?CompareFirmwareVersion@COPOSGraphicDisplay@@UEAAJPEA_WPEAJ1@Z 00000001800313d0 f   GraphicDisplayImpl.obj
 0001:00030510       ?UpdateFirmware@COPOSGraphicDisplay@@UEAAJPEA_WPEAJ@Z 0000000180031510 f   GraphicDisplayImpl.obj
 0001:000305f0       ?get_Brightness@COPOSGraphicDisplay@@UEAAJPEAJ@Z 00000001800315f0 f   GraphicDisplayImpl.obj
 0001:00030650       ?put_Brightness@COPOSGraphicDisplay@@UEAAJJ@Z 0000000180031650 f   GraphicDisplayImpl.obj
 0001:000306b0       ?get_CapAssociatedHardTotalsDevice@COPOSGraphicDisplay@@UEAAJPEAPEA_W@Z 00000001800316b0 f   GraphicDisplayImpl.obj
 0001:00030710       ?get_CapBrightness@COPOSGraphicDisplay@@UEAAJPEAF@Z 0000000180031710 f   GraphicDisplayImpl.obj
 0001:00030770       ?get_CapImageType@COPOSGraphicDisplay@@UEAAJPEAF@Z 0000000180031770 f   GraphicDisplayImpl.obj
 0001:000307d0       ?get_CapStorage@COPOSGraphicDisplay@@UEAAJPEAJ@Z 00000001800317d0 f   GraphicDisplayImpl.obj
 0001:00030830       ?get_CapURLBack@COPOSGraphicDisplay@@UEAAJPEAF@Z 0000000180031830 f   GraphicDisplayImpl.obj
 0001:00030890       ?get_CapURLForward@COPOSGraphicDisplay@@UEAAJPEAF@Z 0000000180031890 f   GraphicDisplayImpl.obj
 0001:000308f0       ?get_CapVideoType@COPOSGraphicDisplay@@UEAAJPEAF@Z 00000001800318f0 f   GraphicDisplayImpl.obj
 0001:00030950       ?get_CapVolume@COPOSGraphicDisplay@@UEAAJPEAF@Z 0000000180031950 f   GraphicDisplayImpl.obj
 0001:000309b0       ?get_DisplayMode@COPOSGraphicDisplay@@UEAAJPEAJ@Z 00000001800319b0 f   GraphicDisplayImpl.obj
 0001:00030a10       ?put_DisplayMode@COPOSGraphicDisplay@@UEAAJJ@Z 0000000180031a10 f   GraphicDisplayImpl.obj
 0001:00030a70       ?get_ImageType@COPOSGraphicDisplay@@UEAAJPEAPEA_W@Z 0000000180031a70 f   GraphicDisplayImpl.obj
 0001:00030ad0       ?put_ImageType@COPOSGraphicDisplay@@UEAAJPEA_W@Z 0000000180031ad0 f   GraphicDisplayImpl.obj
 0001:00030b30       ?get_ImageTypeList@COPOSGraphicDisplay@@UEAAJPEAPEA_W@Z 0000000180031b30 f   GraphicDisplayImpl.obj
 0001:00030b90       ?get_LoadStatus@COPOSGraphicDisplay@@UEAAJPEAJ@Z 0000000180031b90 f   GraphicDisplayImpl.obj
 0001:00030bf0       ?get_Storage@COPOSGraphicDisplay@@UEAAJPEAJ@Z 0000000180031bf0 f   GraphicDisplayImpl.obj
 0001:00030c50       ?put_Storage@COPOSGraphicDisplay@@UEAAJJ@Z 0000000180031c50 f   GraphicDisplayImpl.obj
 0001:00030cb0       ?get_URL@COPOSGraphicDisplay@@UEAAJPEAPEA_W@Z 0000000180031cb0 f   GraphicDisplayImpl.obj
 0001:00030d10       ?get_VideoType@COPOSGraphicDisplay@@UEAAJPEAPEA_W@Z 0000000180031d10 f   GraphicDisplayImpl.obj
 0001:00030d70       ?put_VideoType@COPOSGraphicDisplay@@UEAAJPEA_W@Z 0000000180031d70 f   GraphicDisplayImpl.obj
 0001:00030dd0       ?get_VideoTypeList@COPOSGraphicDisplay@@UEAAJPEAPEA_W@Z 0000000180031dd0 f   GraphicDisplayImpl.obj
 0001:00030e30       ?get_Volume@COPOSGraphicDisplay@@UEAAJPEAJ@Z 0000000180031e30 f   GraphicDisplayImpl.obj
 0001:00030e90       ?put_Volume@COPOSGraphicDisplay@@UEAAJJ@Z 0000000180031e90 f   GraphicDisplayImpl.obj
 0001:00030ef0       ?CancelLoading@COPOSGraphicDisplay@@UEAAJPEAJ@Z 0000000180031ef0 f   GraphicDisplayImpl.obj
 0001:00030f60       ?GoURLBack@COPOSGraphicDisplay@@UEAAJPEAJ@Z 0000000180031f60 f   GraphicDisplayImpl.obj
 0001:00030fd0       ?GoURLForward@COPOSGraphicDisplay@@UEAAJPEAJ@Z 0000000180031fd0 f   GraphicDisplayImpl.obj
 0001:00031040       ?LoadImageW@COPOSGraphicDisplay@@UEAAJPEA_WPEAJ@Z 0000000180032040 f   GraphicDisplayImpl.obj
 0001:00031120       ?LoadURL@COPOSGraphicDisplay@@UEAAJPEA_WPEAJ@Z 0000000180032120 f   GraphicDisplayImpl.obj
 0001:00031200       ?PlayVideo@COPOSGraphicDisplay@@UEAAJPEA_WFPEAJ@Z 0000000180032200 f   GraphicDisplayImpl.obj
 0001:00031330       ?StopVideo@COPOSGraphicDisplay@@UEAAJPEAJ@Z 0000000180032330 f   GraphicDisplayImpl.obj
 0001:000313a0       ?UpdatePage@COPOSGraphicDisplay@@UEAAJPEAJ@Z 00000001800323a0 f   GraphicDisplayImpl.obj
 0001:00031400       ??0?$CComControl@VCOPOSGraphicDisplay@@V?$CWindowImpl@VCOPOSGraphicDisplay@@VCWindow@ATL@@V?$CWinTraits@$0FGAAAAAA@$0A@@3@@ATL@@@ATL@@QEAA@XZ 0000000180032400 f i GraphicDisplayImpl.obj
 0001:00031450       ??0?$CComPtr@UIAdviseSink@@@ATL@@QEAA@XZ 0000000180032450 f i GraphicDisplayImpl.obj
 0001:00031490       ??0?$CComPtr@UIDataAdviseHolder@@@ATL@@QEAA@XZ 0000000180032490 f i GraphicDisplayImpl.obj
 0001:000314d0       ??0?$CComPtr@UIOleAdviseHolder@@@ATL@@QEAA@XZ 00000001800324d0 f i GraphicDisplayImpl.obj
 0001:00031510       ??0?$CComPtr@UIOleClientSite@@@ATL@@QEAA@XZ 0000000180032510 f i GraphicDisplayImpl.obj
 0001:00031550       ??0?$CComPtr@UIOleInPlaceSiteWindowless@@@ATL@@QEAA@XZ 0000000180032550 f i GraphicDisplayImpl.obj
 0001:00031590       ??0?$CComPtrBase@UIAdviseSink@@@ATL@@IEAA@XZ 0000000180032590 f i GraphicDisplayImpl.obj
 0001:000315b0       ??0?$CComPtrBase@UIDataAdviseHolder@@@ATL@@IEAA@XZ 00000001800325b0 f i GraphicDisplayImpl.obj
 0001:000315d0       ??0?$CComPtrBase@UIOleAdviseHolder@@@ATL@@IEAA@XZ 00000001800325d0 f i GraphicDisplayImpl.obj
 0001:000315f0       ??0?$CComPtrBase@UIOleClientSite@@@ATL@@IEAA@XZ 00000001800325f0 f i GraphicDisplayImpl.obj
 0001:00031610       ??0?$CComPtrBase@UIOleInPlaceSiteWindowless@@@ATL@@IEAA@XZ 0000000180032610 f i GraphicDisplayImpl.obj
 0001:00031630       ??0?$CComQIPtr@UIDispatch@@$1?_GUID_00020400_0000_0000_c000_000000000046@@3U__s_GUID@@B@ATL@@QEAA@XZ 0000000180032630 f i GraphicDisplayImpl.obj
 0001:00031670       ??0?$CProxy_IOPOSEvents@VCOPOSGraphicDisplay@@@@QEAA@PEAVCOPOSGraphicDisplay@@@Z 0000000180032670 f i GraphicDisplayImpl.obj
 0001:00031710       ??0?$CWindowImpl@VCOPOSGraphicDisplay@@VCWindow@ATL@@V?$CWinTraits@$0FGAAAAAA@$0A@@3@@ATL@@QEAA@XZ 0000000180032710 f i GraphicDisplayImpl.obj
 0001:00031750       ??0?$CWindowImplBaseT@VCWindow@ATL@@V?$CWinTraits@$0FGAAAAAA@$0A@@2@@ATL@@QEAA@XZ 0000000180032750 f i GraphicDisplayImpl.obj
 0001:000317a0       ??0?$CWindowImplRoot@VCWindow@ATL@@@ATL@@QEAA@XZ 00000001800327a0 f i GraphicDisplayImpl.obj
 0001:00031810       ??0?$IConnectionPointContainerImpl@VCOPOSGraphicDisplay@@@ATL@@QEAA@XZ 0000000180032810 f i GraphicDisplayImpl.obj
 0001:00031850       ??0?$IConnectionPointImpl@VCOPOSGraphicDisplay@@$1?DIID__IOPOSGraphicDisplayEvents@@3U_GUID@@BVCComDynamicUnkArray@ATL@@@ATL@@QEAA@XZ 0000000180032850 f i GraphicDisplayImpl.obj
 0001:000318a0       ??0?$IConnectionPointImpl@VCOPOSGraphicDisplay@@$1?IID_IPropertyNotifySink@@3U_GUID@@BVCComDynamicUnkArray@ATL@@@ATL@@QEAA@XZ 00000001800328a0 f i GraphicDisplayImpl.obj
 0001:000318f0       ??0?$IDataObjectImpl@VCOPOSGraphicDisplay@@@ATL@@QEAA@XZ 00000001800328f0 f i GraphicDisplayImpl.obj
 0001:00031930       ??0?$IDispatchImpl@UIOPOSGraphicDisplay@@$1?IID_IOPOSGraphicDisplay@@3U_GUID@@B$1?LIBID_OposGraphicDisplay_CCO@@3U3@B$00$0A@VCComTypeInfoHolder@ATL@@@ATL@@QEAA@XZ 0000000180032930 f i GraphicDisplayImpl.obj
 0001:00031970       ??0?$IObjectSafetyImpl@VCOPOSGraphicDisplay@@$02@ATL@@QEAA@XZ 0000000180032970 f i GraphicDisplayImpl.obj
 0001:000319b0       ??0?$IOleControlImpl@VCOPOSGraphicDisplay@@@ATL@@QEAA@XZ 00000001800329b0 f i GraphicDisplayImpl.obj
 0001:000319f0       ??0?$IOleInPlaceActiveObjectImpl@VCOPOSGraphicDisplay@@@ATL@@QEAA@XZ 00000001800329f0 f i GraphicDisplayImpl.obj
 0001:00031a30       ??0?$IOleInPlaceObjectWindowlessImpl@VCOPOSGraphicDisplay@@@ATL@@QEAA@XZ 0000000180032a30 f i GraphicDisplayImpl.obj
 0001:00031a70       ??0?$IOleObjectImpl@VCOPOSGraphicDisplay@@@ATL@@QEAA@XZ 0000000180032a70 f i GraphicDisplayImpl.obj
 0001:00031ab0       ??0?$IPersistStorageImpl@VCOPOSGraphicDisplay@@@ATL@@QEAA@XZ 0000000180032ab0 f i GraphicDisplayImpl.obj
 0001:00031af0       ??0?$IPersistStreamInitImpl@VCOPOSGraphicDisplay@@@ATL@@QEAA@XZ 0000000180032af0 f i GraphicDisplayImpl.obj
 0001:00031b30       ??0?$IPropertyNotifySinkCP@VCOPOSGraphicDisplay@@VCComDynamicUnkArray@ATL@@@ATL@@QEAA@XZ 0000000180032b30 f i GraphicDisplayImpl.obj
 0001:00031b70       ??0?$IProvideClassInfo2Impl@$1?CLSID_OPOSGraphicDisplay@@3U_GUID@@B$1?DIID__IOPOSGraphicDisplayEvents@@3U2@B$1?LIBID_OposGraphicDisplay_CCO@@3U2@B$00$0A@VCComTypeInfoHolder@ATL@@@ATL@@QEAA@XZ 0000000180032b70 f i GraphicDisplayImpl.obj
 0001:00031bb0       ??0?$IQuickActivateImpl@VCOPOSGraphicDisplay@@@ATL@@QEAA@XZ 0000000180032bb0 f i GraphicDisplayImpl.obj
 0001:00031bf0       ??0?$ISpecifyPropertyPagesImpl@VCOPOSGraphicDisplay@@@ATL@@QEAA@XZ 0000000180032bf0 f i GraphicDisplayImpl.obj
 0001:00031c30       ??0?$IViewObjectExImpl@VCOPOSGraphicDisplay@@@ATL@@QEAA@XZ 0000000180032c30 f i GraphicDisplayImpl.obj
 0001:00031c70       ??0?$_ICPLocator@$1?DIID__IOPOSGraphicDisplayEvents@@3U_GUID@@B@ATL@@QEAA@XZ 0000000180032c70 f i GraphicDisplayImpl.obj
 0001:00031c80       ??0?$_ICPLocator@$1?IID_IPropertyNotifySink@@3U_GUID@@B@ATL@@QEAA@XZ 0000000180032c80 f i GraphicDisplayImpl.obj
 0001:00031c90       ??0CComControlBase@ATL@@QEAA@AEAPEAUHWND__@@@Z 0000000180032c90 f i GraphicDisplayImpl.obj
 0001:00031eb0       ??0CComDynamicUnkArray@ATL@@QEAA@XZ 0000000180032eb0 f i GraphicDisplayImpl.obj
 0001:00031ee0       ??0CDynamicStdCallThunk2@ATL@@QEAA@XZ 0000000180032ee0 f i GraphicDisplayImpl.obj
 0001:00031f00       ??0CMessageMap@ATL@@QEAA@XZ 0000000180032f00 f i GraphicDisplayImpl.obj
 0001:00031f10       ??0CWindow@ATL@@QEAA@PEAUHWND__@@@Z 0000000180032f10 f i GraphicDisplayImpl.obj
 0001:00031f30       ??0CWndProcThunk@ATL@@QEAA@XZ 0000000180032f30 f i GraphicDisplayImpl.obj
 0001:00031f70       ??0IConnectionPointContainer@@QEAA@XZ 0000000180032f70 f i GraphicDisplayImpl.obj
 0001:00031fb0       ??0IDataObject@@QEAA@XZ    0000000180032fb0 f i GraphicDisplayImpl.obj
 0001:00031ff0       ??0IDispatch@@QEAA@XZ      0000000180032ff0 f i GraphicDisplayImpl.obj
 0001:00032030       ??0IOPOSGraphicDisplay@@QEAA@XZ 0000000180033030 f i GraphicDisplayImpl.obj
 0001:00032070       ??0IOPOSGraphicDisplay_1_16@@QEAA@XZ 0000000180033070 f i GraphicDisplayImpl.obj
 0001:000320b0       ??0IObjectSafety@@QEAA@XZ  00000001800330b0 f i GraphicDisplayImpl.obj
 0001:000320f0       ??0IOleControl@@QEAA@XZ    00000001800330f0 f i GraphicDisplayImpl.obj
 0001:00032130       ??0IOleInPlaceActiveObject@@QEAA@XZ 0000000180033130 f i GraphicDisplayImpl.obj
 0001:00032170       ??0IOleInPlaceObject@@QEAA@XZ 0000000180033170 f i GraphicDisplayImpl.obj
 0001:000321b0       ??0IOleInPlaceObjectWindowless@@QEAA@XZ 00000001800331b0 f i GraphicDisplayImpl.obj
 0001:000321f0       ??0IOleObject@@QEAA@XZ     00000001800331f0 f i GraphicDisplayImpl.obj
 0001:00032230       ??0IOleWindow@@QEAA@XZ     0000000180033230 f i GraphicDisplayImpl.obj
 0001:00032270       ??0IPersist@@QEAA@XZ       0000000180033270 f i GraphicDisplayImpl.obj
 0001:000322b0       ??0IPersistStorage@@QEAA@XZ 00000001800332b0 f i GraphicDisplayImpl.obj
 0001:000322f0       ??0IPersistStreamInit@@QEAA@XZ 00000001800332f0 f i GraphicDisplayImpl.obj
 0001:00032330       ??0IProvideClassInfo2@@QEAA@XZ 0000000180033330 f i GraphicDisplayImpl.obj
 0001:00032370       ??0IProvideClassInfo@@QEAA@XZ 0000000180033370 f i GraphicDisplayImpl.obj
 0001:000323b0       ??0IQuickActivate@@QEAA@XZ 00000001800333b0 f i GraphicDisplayImpl.obj
 0001:000323f0       ??0ISpecifyPropertyPages@@QEAA@XZ 00000001800333f0 f i GraphicDisplayImpl.obj
 0001:00032430       ??0IViewObject2@@QEAA@XZ   0000000180033430 f i GraphicDisplayImpl.obj
 0001:00032470       ??0IViewObject@@QEAA@XZ    0000000180033470 f i GraphicDisplayImpl.obj
 0001:000324b0       ??0IViewObjectEx@@QEAA@XZ  00000001800334b0 f i GraphicDisplayImpl.obj
 0001:000324f0       ??0OposVariantResult@@QEAA@XZ 00000001800334f0 f i GraphicDisplayImpl.obj
 0001:00032530       ??0_CW@@QEAA@PEBD@Z        0000000180033530 f i GraphicDisplayImpl.obj
 0001:00032580       ??0_CW@@QEAA@PEB_W@Z       0000000180033580 f i GraphicDisplayImpl.obj
 0001:000325d0       ??0_CWNCC@@QEAA@PEBD@Z     00000001800335d0 f i GraphicDisplayImpl.obj
 0001:00032610       ??1?$CComControl@VCOPOSGraphicDisplay@@V?$CWindowImpl@VCOPOSGraphicDisplay@@VCWindow@ATL@@V?$CWinTraits@$0FGAAAAAA@$0A@@3@@ATL@@@ATL@@UEAA@XZ 0000000180033610 f i GraphicDisplayImpl.obj
 0001:00032650       ??1?$CComPtr@UIDataAdviseHolder@@@ATL@@QEAA@XZ 0000000180033650 f i GraphicDisplayImpl.obj
 0001:00032680       ??1?$CComPtr@UIOleAdviseHolder@@@ATL@@QEAA@XZ 0000000180033680 f i GraphicDisplayImpl.obj
 0001:000326b0       ??1?$CComPtr@UIOleInPlaceSiteWindowless@@@ATL@@QEAA@XZ 00000001800336b0 f i GraphicDisplayImpl.obj
 0001:000326e0       ??1?$CComPtrBase@UIDataAdviseHolder@@@ATL@@QEAA@XZ 00000001800336e0 f i GraphicDisplayImpl.obj
 0001:00032730       ??1?$CComPtrBase@UIOleAdviseHolder@@@ATL@@QEAA@XZ 0000000180033730 f i GraphicDisplayImpl.obj
 0001:00032780       ??1?$CComPtrBase@UIOleInPlaceSiteWindowless@@@ATL@@QEAA@XZ 0000000180033780 f i GraphicDisplayImpl.obj
 0001:000327d0       ??1?$CComQIPtr@UIDispatch@@$1?_GUID_00020400_0000_0000_c000_000000000046@@3U__s_GUID@@B@ATL@@QEAA@XZ 00000001800337d0 f i GraphicDisplayImpl.obj
 0001:00032800       ??1?$CProxy_IOPOSEvents@VCOPOSGraphicDisplay@@@@QEAA@XZ 0000000180033800 f i GraphicDisplayImpl.obj
 0001:00032830       ??1?$CWindowImpl@VCOPOSGraphicDisplay@@VCWindow@ATL@@V?$CWinTraits@$0FGAAAAAA@$0A@@3@@ATL@@UEAA@XZ 0000000180033830 f i GraphicDisplayImpl.obj
 0001:00032860       ??1?$CWindowImplBaseT@VCWindow@ATL@@V?$CWinTraits@$0FGAAAAAA@$0A@@2@@ATL@@UEAA@XZ 0000000180033860 f i GraphicDisplayImpl.obj
 0001:00032890       ??1?$CWindowImplRoot@VCWindow@ATL@@@ATL@@UEAA@XZ 0000000180033890 f i GraphicDisplayImpl.obj
 0001:00032950       ??1?$IConnectionPointImpl@VCOPOSGraphicDisplay@@$1?DIID__IOPOSGraphicDisplayEvents@@3U_GUID@@BVCComDynamicUnkArray@ATL@@@ATL@@QEAA@XZ 0000000180033950 f i GraphicDisplayImpl.obj
 0001:000329f0       ??1?$IConnectionPointImpl@VCOPOSGraphicDisplay@@$1?IID_IPropertyNotifySink@@3U_GUID@@BVCComDynamicUnkArray@ATL@@@ATL@@QEAA@XZ 00000001800339f0 f i GraphicDisplayImpl.obj
 0001:00032a90       ??1?$IPropertyNotifySinkCP@VCOPOSGraphicDisplay@@VCComDynamicUnkArray@ATL@@@ATL@@QEAA@XZ 0000000180033a90 f i GraphicDisplayImpl.obj
 0001:00032ac0       ??1CComControlBase@ATL@@UEAA@XZ 0000000180033ac0 f i GraphicDisplayImpl.obj
 0001:00032bb0       ??1CComDynamicUnkArray@ATL@@QEAA@XZ 0000000180033bb0 f i GraphicDisplayImpl.obj
 0001:00032bf0       ??1CDynamicStdCallThunk2@ATL@@QEAA@XZ 0000000180033bf0 f i GraphicDisplayImpl.obj
 0001:00032c30       ??1CWndProcThunk@ATL@@QEAA@XZ 0000000180033c30 f i GraphicDisplayImpl.obj
 0001:00032c70       ??1OposVariantResult@@QEAA@XZ 0000000180033c70 f i GraphicDisplayImpl.obj
 0001:00032cb0       ??1_CW@@QEAA@XZ            0000000180033cb0 f i GraphicDisplayImpl.obj
 0001:00032d30       ??1_CWNCC@@QEAA@XZ         0000000180033d30 f i GraphicDisplayImpl.obj
 0001:00032d60       ??B_CW@@QEAAPEB_WXZ        0000000180033d60 f i GraphicDisplayImpl.obj
 0001:00032db0       ??B_CWNCC@@QEAAPEA_WXZ     0000000180033db0 f i GraphicDisplayImpl.obj
 0001:00032de0       ??_EOposVariant@@QEAAPEAXI@Z 0000000180033de0 f i GraphicDisplayImpl.obj
 0001:00032e90       ?EventClaim@COPOSGraphicDisplay@@IEAAXXZ 0000000180033e90 f i GraphicDisplayImpl.obj
 0001:00032ee0       ?EventClose@COPOSGraphicDisplay@@IEAAXXZ 0000000180033ee0 f i GraphicDisplayImpl.obj
 0001:00032f80       ?EventInit@COPOSGraphicDisplay@@IEAAJXZ 0000000180033f80 f i GraphicDisplayImpl.obj
 0001:00033230       ?EventOpen@COPOSGraphicDisplay@@IEAAXXZ 0000000180034230 f i GraphicDisplayImpl.obj
 0001:00033270       ?EventPreCloseRelease@COPOSGraphicDisplay@@IEAAXXZ 0000000180034270 f i GraphicDisplayImpl.obj
 0001:000332f0       ?EventUninit@COPOSGraphicDisplay@@IEAAXXZ 00000001800342f0 f i GraphicDisplayImpl.obj
 0001:00033420       ?EventWindowProc@COPOSGraphicDisplay@@IEAA_JI_K_J@Z 0000000180034420 f i GraphicDisplayImpl.obj
 0001:000335f0       ?FireEventCleanup@COPOSGraphicDisplay@@IEAAXXZ 00000001800345f0 f i GraphicDisplayImpl.obj
 0001:00033640       ?FireEventSetup@COPOSGraphicDisplay@@IEAA_NXZ 0000000180034640 f i GraphicDisplayImpl.obj
 0001:000336c0       ?GetModuleInstance@CComModule@ATL@@QEAAPEAUHINSTANCE__@@XZ 00000001800346c0 f i GraphicDisplayImpl.obj
 0001:000336d0       ?SetRC@COPOSGraphicDisplay@@IEAAJJ@Z 00000001800346d0 f i GraphicDisplayImpl.obj
 0001:000336f0       ?s_EventWindowProc@COPOSGraphicDisplay@@KA_JPEAUHWND__@@I_K_J@Z 00000001800346f0 f i GraphicDisplayImpl.obj
 0001:000337a0       _snwprintf                 00000001800347a0 f i GraphicDisplayImpl.obj
 0001:00033830       _vfwprintf_l               0000000180034830 f i GraphicDisplayImpl.obj
 0001:00033890       _vsnwprintf                0000000180034890 f i GraphicDisplayImpl.obj
 0001:000338f0       _vsnwprintf_l              00000001800348f0 f i GraphicDisplayImpl.obj
 0001:00033980       vfwprintf                  0000000180034980 f i GraphicDisplayImpl.obj
 0001:000339c5       DebugBreak                 00000001800349c5 f   kernel32:KERNEL32.dll
 0001:000339cb       Sleep                      00000001800349cb f   kernel32:KERNEL32.dll
 0001:000339d1       GetCurrentProcess          00000001800349d1 f   kernel32:KERNEL32.dll
 0001:000339d7       TerminateProcess           00000001800349d7 f   kernel32:KERNEL32.dll
 0001:000339dd       MultiByteToWideChar        00000001800349dd f   kernel32:KERNEL32.dll
 0001:000339e3       WideCharToMultiByte        00000001800349e3 f   kernel32:KERNEL32.dll
 0001:000339e9       DecodePointer              00000001800349e9 f   kernel32:KERNEL32.dll
 0001:000339ef       RaiseException             00000001800349ef f   kernel32:KERNEL32.dll
 0001:000339f5       GetLastError               00000001800349f5 f   kernel32:KERNEL32.dll
 0001:000339fb       SetLastError               00000001800349fb f   kernel32:KERNEL32.dll
 0001:00033a01       InitializeCriticalSectionEx 0000000180034a01 f   kernel32:KERNEL32.dll
 0001:00033a07       DeleteCriticalSection      0000000180034a07 f   kernel32:KERNEL32.dll
 0001:00033a0d       EncodePointer              0000000180034a0d f   kernel32:KERNEL32.dll
 0001:00033a13       EnterCriticalSection       0000000180034a13 f   kernel32:KERNEL32.dll
 0001:00033a19       LeaveCriticalSection       0000000180034a19 f   kernel32:KERNEL32.dll
 0001:00033a1f       ResetEvent                 0000000180034a1f f   kernel32:KERNEL32.dll
 0001:00033a25       ReleaseMutex               0000000180034a25 f   kernel32:KERNEL32.dll
 0001:00033a2b       WaitForSingleObject        0000000180034a2b f   kernel32:KERNEL32.dll
 0001:00033a31       GetCurrentThreadId         0000000180034a31 f   kernel32:KERNEL32.dll
 0001:00033a37       DisableThreadLibraryCalls  0000000180034a37 f   kernel32:KERNEL32.dll
 0001:00033a3d       FreeLibrary                0000000180034a3d f   kernel32:KERNEL32.dll
 0001:00033a43       GetModuleFileNameW         0000000180034a43 f   kernel32:KERNEL32.dll
 0001:00033a49       GetModuleHandleW           0000000180034a49 f   kernel32:KERNEL32.dll
 0001:00033a4f       GetProcAddress             0000000180034a4f f   kernel32:KERNEL32.dll
 0001:00033a55       LoadLibraryExW             0000000180034a55 f   kernel32:KERNEL32.dll
 0001:00033a5b       LoadResource               0000000180034a5b f   kernel32:KERNEL32.dll
 0001:00033a61       SizeofResource             0000000180034a61 f   kernel32:KERNEL32.dll
 0001:00033a67       FindResourceW              0000000180034a67 f   kernel32:KERNEL32.dll
 0001:00033a6d       GlobalAlloc                0000000180034a6d f   kernel32:KERNEL32.dll
 0001:00033a73       GlobalUnlock               0000000180034a73 f   kernel32:KERNEL32.dll
 0001:00033a79       GlobalLock                 0000000180034a79 f   kernel32:KERNEL32.dll
 0001:00033a7f       MulDiv                     0000000180034a7f f   kernel32:KERNEL32.dll
 0001:00033a85       lstrcmpiW                  0000000180034a85 f   kernel32:KERNEL32.dll
 0001:00033a8b       DeleteFileW                0000000180034a8b f   kernel32:KERNEL32.dll
 0001:00033a91       CloseHandle                0000000180034a91 f   kernel32:KERNEL32.dll
 0001:00033a97       SetEvent                   0000000180034a97 f   kernel32:KERNEL32.dll
 0001:00033a9d       CreateMutexW               0000000180034a9d f   kernel32:KERNEL32.dll
 0001:00033aa3       CreateEventW               0000000180034aa3 f   kernel32:KERNEL32.dll
 0001:00033aa9       GetCurrentProcessId        0000000180034aa9 f   kernel32:KERNEL32.dll
 0001:00033aaf       LocalFree                  0000000180034aaf f   kernel32:KERNEL32.dll
 0001:00033ab5       FormatMessageW             0000000180034ab5 f   kernel32:KERNEL32.dll
 0001:00033abb       GetActiveWindow            0000000180034abb f   user32:USER32.dll
 0001:00033ac1       MessageBoxW                0000000180034ac1 f   user32:USER32.dll
 0001:00033ac7       UnregisterClassW           0000000180034ac7 f   user32:USER32.dll
 0001:00033acd       PostMessageW               0000000180034acd f   user32:USER32.dll
 0001:00033ad3       DefWindowProcW             0000000180034ad3 f   user32:USER32.dll
 0001:00033ad9       CallWindowProcW            0000000180034ad9 f   user32:USER32.dll
 0001:00033adf       RegisterClassExW           0000000180034adf f   user32:USER32.dll
 0001:00033ae5       GetClassInfoExW            0000000180034ae5 f   user32:USER32.dll
 0001:00033aeb       CreateWindowExW            0000000180034aeb f   user32:USER32.dll
 0001:00033af1       IsWindow                   0000000180034af1 f   user32:USER32.dll
 0001:00033af7       IsChild                    0000000180034af7 f   user32:USER32.dll
 0001:00033afd       DestroyWindow              0000000180034afd f   user32:USER32.dll
 0001:00033b03       ShowWindow                 0000000180034b03 f   user32:USER32.dll
 0001:00033b09       SetWindowPos               0000000180034b09 f   user32:USER32.dll
 0001:00033b0f       CharNextW                  0000000180034b0f f   user32:USER32.dll
 0001:00033b15       SetFocus                   0000000180034b15 f   user32:USER32.dll
 0001:00033b1b       GetFocus                   0000000180034b1b f   user32:USER32.dll
 0001:00033b21       GetKeyState                0000000180034b21 f   user32:USER32.dll
 0001:00033b27       GetDC                      0000000180034b27 f   user32:USER32.dll
 0001:00033b2d       ReleaseDC                  0000000180034b2d f   user32:USER32.dll
 0001:00033b33       BeginPaint                 0000000180034b33 f   user32:USER32.dll
 0001:00033b39       EndPaint                   0000000180034b39 f   user32:USER32.dll
 0001:00033b3f       SetWindowRgn               0000000180034b3f f   user32:USER32.dll
 0001:00033b45       InvalidateRect             0000000180034b45 f   user32:USER32.dll
 0001:00033b4b       GetClientRect              0000000180034b4b f   user32:USER32.dll
 0001:00033b51       IntersectRect              0000000180034b51 f   user32:USER32.dll
 0001:00033b57       UnionRect                  0000000180034b57 f   user32:USER32.dll
 0001:00033b5d       OffsetRect                 0000000180034b5d f   user32:USER32.dll
 0001:00033b63       EqualRect                  0000000180034b63 f   user32:USER32.dll
 0001:00033b69       PtInRect                   0000000180034b69 f   user32:USER32.dll
 0001:00033b6f       GetWindowLongPtrW          0000000180034b6f f   user32:USER32.dll
 0001:00033b75       SetWindowLongPtrW          0000000180034b75 f   user32:USER32.dll
 0001:00033b7b       GetParent                  0000000180034b7b f   user32:USER32.dll
 0001:00033b81       LoadCursorW                0000000180034b81 f   user32:USER32.dll
 0001:00033b87       PeekMessageW               0000000180034b87 f   user32:USER32.dll
 0001:00033b8d       RegisterClassW             0000000180034b8d f   user32:USER32.dll
 0001:00033b93       LoadBitmapW                0000000180034b93 f   user32:USER32.dll
 0001:00033b99       CloseMetaFile              0000000180034b99 f   gdi32:GDI32.dll
 0001:00033b9f       CreateDCW                  0000000180034b9f f   gdi32:GDI32.dll
 0001:00033ba5       CreateMetaFileW            0000000180034ba5 f   gdi32:GDI32.dll
 0001:00033bab       CreateRectRgnIndirect      0000000180034bab f   gdi32:GDI32.dll
 0001:00033bb1       DeleteDC                   0000000180034bb1 f   gdi32:GDI32.dll
 0001:00033bb7       DeleteMetaFile             0000000180034bb7 f   gdi32:GDI32.dll
 0001:00033bbd       GetDeviceCaps              0000000180034bbd f   gdi32:GDI32.dll
 0001:00033bc3       RestoreDC                  0000000180034bc3 f   gdi32:GDI32.dll
 0001:00033bc9       SaveDC                     0000000180034bc9 f   gdi32:GDI32.dll
 0001:00033bcf       SetMapMode                 0000000180034bcf f   gdi32:GDI32.dll
 0001:00033bd5       LPtoDP                     0000000180034bd5 f   gdi32:GDI32.dll
 0001:00033bdb       SetViewportOrgEx           0000000180034bdb f   gdi32:GDI32.dll
 0001:00033be1       SetWindowExtEx             0000000180034be1 f   gdi32:GDI32.dll
 0001:00033be7       SetWindowOrgEx             0000000180034be7 f   gdi32:GDI32.dll
 0001:00033bed       BitBlt                     0000000180034bed f   gdi32:GDI32.dll
 0001:00033bf3       CreateCompatibleDC         0000000180034bf3 f   gdi32:GDI32.dll
 0001:00033bf9       DeleteObject               0000000180034bf9 f   gdi32:GDI32.dll
 0001:00033bff       SelectObject               0000000180034bff f   gdi32:GDI32.dll
 0001:00033c05       GetObjectW                 0000000180034c05 f   gdi32:GDI32.dll
 0001:00033c0b       RegCloseKey                0000000180034c0b f   advapi32:ADVAPI32.dll
 0001:00033c11       RegCreateKeyExW            0000000180034c11 f   advapi32:ADVAPI32.dll
 0001:00033c17       RegDeleteKeyW              0000000180034c17 f   advapi32:ADVAPI32.dll
 0001:00033c1d       RegDeleteValueW            0000000180034c1d f   advapi32:ADVAPI32.dll
 0001:00033c23       RegEnumKeyExW              0000000180034c23 f   advapi32:ADVAPI32.dll
 0001:00033c29       RegOpenKeyExW              0000000180034c29 f   advapi32:ADVAPI32.dll
 0001:00033c2f       RegQueryInfoKeyW           0000000180034c2f f   advapi32:ADVAPI32.dll
 0001:00033c35       RegSetValueExW             0000000180034c35 f   advapi32:ADVAPI32.dll
 0001:00033c3b       RegQueryValueExW           0000000180034c3b f   advapi32:ADVAPI32.dll
 0001:00033c41       CoCreateInstance           0000000180034c41 f   ole32:ole32.dll
 0001:00033c47       StringFromGUID2            0000000180034c47 f   ole32:ole32.dll
 0001:00033c4d       CoTaskMemAlloc             0000000180034c4d f   ole32:ole32.dll
 0001:00033c53       CoTaskMemRealloc           0000000180034c53 f   ole32:ole32.dll
 0001:00033c59       CoTaskMemFree              0000000180034c59 f   ole32:ole32.dll
 0001:00033c5f       ReadClassStm               0000000180034c5f f   ole32:ole32.dll
 0001:00033c65       WriteClassStm              0000000180034c65 f   ole32:ole32.dll
 0001:00033c6b       CreateDataAdviseHolder     0000000180034c6b f   ole32:ole32.dll
 0001:00033c71       OleSaveToStream            0000000180034c71 f   ole32:ole32.dll
 0001:00033c77       CreateOleAdviseHolder      0000000180034c77 f   ole32:ole32.dll
 0001:00033c7d       OleRegGetUserType          0000000180034c7d f   ole32:ole32.dll
 0001:00033c83       OleRegGetMiscStatus        0000000180034c83 f   ole32:ole32.dll
 0001:00033c89       OleRegEnumVerbs            0000000180034c89 f   ole32:ole32.dll
 0001:00033c8f       CLSIDFromProgID            0000000180034c8f f   ole32:ole32.dll
 0001:00033c95       SysAllocString             0000000180034c95 f   oleaut32:OLEAUT32.dll
 0001:00033c9b       SysAllocStringLen          0000000180034c9b f   oleaut32:OLEAUT32.dll
 0001:00033ca1       SysFreeString              0000000180034ca1 f   oleaut32:OLEAUT32.dll
 0001:00033ca7       SysStringLen               0000000180034ca7 f   oleaut32:OLEAUT32.dll
 0001:00033cad       VariantClear               0000000180034cad f   oleaut32:OLEAUT32.dll
 0001:00033cb3       VariantCopyInd             0000000180034cb3 f   oleaut32:OLEAUT32.dll
 0001:00033cb9       VariantChangeType          0000000180034cb9 f   oleaut32:OLEAUT32.dll
 0001:00033cbf       SysStringByteLen           0000000180034cbf f   oleaut32:OLEAUT32.dll
 0001:00033cc5       SysAllocStringByteLen      0000000180034cc5 f   oleaut32:OLEAUT32.dll
 0001:00033ccb       VariantInit                0000000180034ccb f   oleaut32:OLEAUT32.dll
 0001:00033cd1       VarUI4FromStr              0000000180034cd1 f   oleaut32:OLEAUT32.dll
 0001:00033cd7       LoadTypeLib                0000000180034cd7 f   oleaut32:OLEAUT32.dll
 0001:00033cdd       LoadRegTypeLib             0000000180034cdd f   oleaut32:OLEAUT32.dll
 0001:00033ce3       RegisterTypeLib            0000000180034ce3 f   oleaut32:OLEAUT32.dll
 0001:00033ce9       UnRegisterTypeLib          0000000180034ce9 f   oleaut32:OLEAUT32.dll
 0001:00033cef       OleCreatePropertyFrame     0000000180034cef f   oleaut32:OLEAUT32.dll
 0001:00033d00       _RTC_AllocaHelper          0000000180034d00 f   LIBCMTD:stack.obj
 0001:00033d40       _RTC_CheckStackVars        0000000180034d40 f   LIBCMTD:stack.obj
 0001:00033dd0       _RTC_CheckStackVars2       0000000180034dd0 f   LIBCMTD:stack.obj
 0001:00033ee0       _CRT_RTC_INIT              0000000180034ee0 f   LIBCMTD:init.obj
 0001:00033ef0       _CRT_RTC_INITW             0000000180034ef0 f   LIBCMTD:init.obj
 0001:00033f00       _RTC_InitBase              0000000180034f00 f   LIBCMTD:init.obj
 0001:00033f40       _RTC_Shutdown              0000000180034f40 f   LIBCMTD:init.obj
 0001:00033f70       __GSHandlerCheck           0000000180034f70 f   LIBCMTD:gshandler.obj
 0001:00033fb0       __GSHandlerCheckCommon     0000000180034fb0 f   LIBCMTD:gshandler.obj
 0001:000340c0       __security_check_cookie    00000001800350c0 f   LIBCMTD:amdsecgs.obj
 0001:000340f0       ??_U@YAPEAX_K@Z            00000001800350f0 f   LIBCMTD:new_array.obj
 0001:00034110       ??3@YAXPEAX_K@Z            0000000180035110 f   LIBCMTD:delete_scalar_size.obj
 0001:00034130       ??_V@YAXPEAX@Z             0000000180035130 f   LIBCMTD:delete_array.obj
 0001:00034150       ??_V@YAXPEAX_K@Z           0000000180035150 f   LIBCMTD:delete_array_size.obj
 0001:00034170       ?configure_argv@__scrt_narrow_argv_policy@@SAHXZ 0000000180035170 f i LIBCMTD:utility.obj
 0001:00034260       ?initialize_environment@__scrt_narrow_environment_policy@@SAHXZ 0000000180035260 f i LIBCMTD:utility.obj
 0001:00034300       NtCurrentTeb               0000000180035300 f i LIBCMTD:utility.obj
 0001:00034310       __scrt_acquire_startup_lock 0000000180035310 f   LIBCMTD:utility.obj
 0001:00034380       __scrt_dllmain_after_initialize_c 0000000180035380 f   LIBCMTD:utility.obj
 0001:000343b0       __scrt_dllmain_before_initialize_c 00000001800353b0 f   LIBCMTD:utility.obj
 0001:000343d0       __scrt_dllmain_crt_thread_attach 00000001800353d0 f   LIBCMTD:utility.obj
 0001:00034400       __scrt_dllmain_crt_thread_detach 0000000180035400 f   LIBCMTD:utility.obj
 0001:00034420       __scrt_dllmain_exception_filter 0000000180035420 f   LIBCMTD:utility.obj
 0001:00034490       __scrt_dllmain_uninitialize_c 0000000180035490 f   LIBCMTD:utility.obj
 0001:000344c0       __scrt_dllmain_uninitialize_critical 00000001800354c0 f   LIBCMTD:utility.obj
 0001:000344e0       __scrt_initialize_crt      00000001800354e0 f   LIBCMTD:utility.obj
 0001:00034530       __scrt_initialize_onexit_tables 0000000180035530 f   LIBCMTD:utility.obj
 0001:00034640       __scrt_is_nonwritable_in_current_image 0000000180035640 f   LIBCMTD:utility.obj
 0001:000346d0       __scrt_release_startup_lock 00000001800356d0 f   LIBCMTD:utility.obj
 0001:00034700       __scrt_uninitialize_crt    0000000180035700 f   LIBCMTD:utility.obj
 0001:00034740       _onexit                    0000000180035740 f   LIBCMTD:utility.obj
 0001:000347c0       at_quick_exit              00000001800357c0 f   LIBCMTD:utility.obj
 0001:00034810       atexit                     0000000180035810 f   LIBCMTD:utility.obj
 0001:00034850       ??3@YAXPEAX@Z              0000000180035850 f   LIBCMTD:delete_scalar.obj
 0001:00034870       __raise_securityfailure    0000000180035870 f   LIBCMTD:gs_report.obj
 0001:000348b0       __report_gsfailure         00000001800358b0 f   LIBCMTD:gs_report.obj
 0001:00034990       __report_rangecheckfailure 0000000180035990 f   LIBCMTD:gs_report.obj
 0001:000349b0       __report_securityfailure   00000001800359b0 f   LIBCMTD:gs_report.obj
 0001:00034a50       __report_securityfailureEx 0000000180035a50 f   LIBCMTD:gs_report.obj
 0001:00034e10       _Init_thread_abort         0000000180035e10 f   LIBCMTD:thread_safe_statics.obj
 0001:00034e40       _Init_thread_footer        0000000180035e40 f   LIBCMTD:thread_safe_statics.obj
 0001:00034ea0       _Init_thread_header        0000000180035ea0 f   LIBCMTD:thread_safe_statics.obj
 0001:00034f30       _Init_thread_lock          0000000180035f30 f   LIBCMTD:thread_safe_statics.obj
 0001:00034f50       _Init_thread_notify        0000000180035f50 f   LIBCMTD:thread_safe_statics.obj
 0001:00034fb0       _Init_thread_unlock        0000000180035fb0 f   LIBCMTD:thread_safe_statics.obj
 0001:00034fd0       _Init_thread_wait          0000000180035fd0 f   LIBCMTD:thread_safe_statics.obj
 0001:00035080       ??2@YAPEAX_KAEBUnothrow_t@std@@@Z 0000000180036080 f   LIBCMTD:new_scalar_nothrow.obj
 0001:000350c0       ??_U@YAPEAX_KAEBUnothrow_t@std@@@Z 00000001800360c0 f   LIBCMTD:new_array_nothrow.obj
 0001:000350f0       __GSHandlerCheck_SEH       00000001800360f0 f   LIBCMTD:gshandlerseh.obj
 0001:000351c0       __chkstk                   00000001800361c0 f   LIBCMTD:chkstk.obj
 0001:000351c0       _alloca_probe              00000001800361c0 f   LIBCMTD:chkstk.obj
 0001:00035630       _CRT_INIT                  0000000180036630 f   LIBCMTD:dll_dllmain.obj
 0001:00035660       _DllMainCRTStartup         0000000180036660 f   LIBCMTD:dll_dllmain.obj
 0001:00035730       ?_RTC_AllocaFailure@@YAXPEAXPEAU_RTC_ALLOCA_NODE@@H@Z 0000000180036730 f   LIBCMTD:error.obj
 0001:00035890       ?_RTC_Failure@@YAXPEAXH@Z  0000000180036890 f   LIBCMTD:error.obj
 0001:000358e0       ?_RTC_StackFailure@@YAXPEAXPEBD@Z 00000001800368e0 f   LIBCMTD:error.obj
 0001:00035d10       _RTC_UninitUse             0000000180036d10 f   LIBCMTD:error.obj
 0001:00035de0       _vsprintf_s_l              0000000180036de0 f i LIBCMTD:error.obj
 0001:00035e50       sprintf_s                  0000000180036e50 f i LIBCMTD:error.obj
 0001:00035e80       ?_RTC_GetErrorFunc@@YAP6AHHPEBDH00ZZPEBX@Z 0000000180036e80 f   LIBCMTD:userapi.obj
 0001:00035e90       ?_RTC_GetErrorFuncW@@YAP6AHHPEB_WH00ZZPEBX@Z 0000000180036e90 f   LIBCMTD:userapi.obj
 0001:00035ea0       _RTC_GetErrDesc            0000000180036ea0 f   LIBCMTD:userapi.obj
 0001:00035ec0       _RTC_NumErrors             0000000180036ec0 f   LIBCMTD:userapi.obj
 0001:00035ed0       _RTC_SetErrorFunc          0000000180036ed0 f   LIBCMTD:userapi.obj
 0001:00035ef0       _RTC_SetErrorFuncW         0000000180036ef0 f   LIBCMTD:userapi.obj
 0001:00035f10       _RTC_SetErrorType          0000000180036f10 f   LIBCMTD:userapi.obj
 0001:00035f30       ??2@YAPEAX_K@Z             0000000180036f30 f   LIBCMTD:new_scalar.obj
 0001:00035f80       __isa_available_init       0000000180036f80 f   LIBCMTD:cpu_disp.obj
 0001:00036320       _get_startup_argv_mode     0000000180037320 f   LIBCMTD:argv_mode.obj
 0001:00036330       __scrt_is_ucrt_dll_in_use  0000000180037330 f   LIBCMTD:ucrt_detection.obj
 0001:00036360       __crt_debugger_hook        0000000180037360 f   LIBCMTD:utility_desktop.obj
 0001:00036370       __scrt_fastfail            0000000180037370 f   LIBCMTD:utility_desktop.obj
 0001:00036510       __scrt_get_show_window_mode 0000000180037510 f   LIBCMTD:utility_desktop.obj
 0001:00036570       __scrt_initialize_mta      0000000180037570 f   LIBCMTD:utility_desktop.obj
 0001:00036580       __scrt_initialize_winrt    0000000180037580 f   LIBCMTD:utility_desktop.obj
 0001:00036590       __scrt_is_managed_app      0000000180037590 f   LIBCMTD:utility_desktop.obj
 0001:00036640       __scrt_set_unhandled_exception_filter 0000000180037640 f   LIBCMTD:utility_desktop.obj
 0001:00036660       __scrt_exe_initialize_mta  0000000180037660 f   LIBCMTD:utility_desktop.obj
 0001:00036660       __scrt_stub_for_initialize_mta 0000000180037660 f   LIBCMTD:utility_desktop.obj
 0001:00036670       __scrt_unhandled_exception_filter 0000000180037670 f   LIBCMTD:utility_desktop.obj
 0001:00036710       _guard_check_icall_nop     0000000180037710 f i LIBCMTD:guard_support.obj
 0001:00036720       ReadNoFence64              0000000180037720 f i LIBCMTD:guard_support.obj
 0001:00036740       ReadPointerNoFence         0000000180037740 f i LIBCMTD:guard_support.obj
 0001:00036760       __castguard_check_failure_debugbreak 0000000180037760 f i LIBCMTD:guard_support.obj
 0001:00036780       __castguard_check_failure_fastfail 0000000180037780 f i LIBCMTD:guard_support.obj
 0001:000367b0       __castguard_check_failure_nop 00000001800377b0 f i LIBCMTD:guard_support.obj
 0001:000367c0       __castguard_check_failure_os_handled 00000001800377c0 f i LIBCMTD:guard_support.obj
 0001:00036880       __castguard_slow_path_check_debugbreak 0000000180037880 f i LIBCMTD:guard_support.obj
 0001:000368c0       __castguard_slow_path_check_fastfail 00000001800378c0 f i LIBCMTD:guard_support.obj
 0001:00036910       __castguard_slow_path_check_nop 0000000180037910 f i LIBCMTD:guard_support.obj
 0001:00036920       __castguard_slow_path_check_os_handled 0000000180037920 f i LIBCMTD:guard_support.obj
 0001:00036a00       _guard_icall_checks_enforced 0000000180037a00 f i LIBCMTD:guard_support.obj
 0001:00036a40       _guard_rf_checks_enforced  0000000180037a40 f i LIBCMTD:guard_support.obj
 0001:00036b10       __security_init_cookie     0000000180037b10 f   LIBCMTD:gs_support.obj
 0001:00036b90       ?__scrt_initialize_type_info@@YAXXZ 0000000180037b90 f   LIBCMTD:tncleanup.obj
 0001:00036bb0       ?__scrt_uninitialize_type_info@@YAXXZ 0000000180037bb0 f   LIBCMTD:tncleanup.obj
 0001:00036bd0       __local_stdio_scanf_options 0000000180037bd0 f i LIBCMTD:default_local_stdio_options.obj
 0001:00036be0       __scrt_initialize_default_local_stdio_options 0000000180037be0 f   LIBCMTD:default_local_stdio_options.obj
 0001:00036c30       __scrt_get_dyn_tls_init_callback 0000000180037c30 f   LIBCMTD:dyn_tls_init.obj
 0001:00036c40       _RTC_Initialize            0000000180037c40 f   LIBCMTD:initsect.obj
 0001:00036c90       _RTC_Terminate             0000000180037c90 f   LIBCMTD:initsect.obj
 0001:000371f0       ?_RTC_GetSrcLine@@YAHPEAEPEA_WKPEAH1K@Z 00000001800381f0 f   LIBCMTD:pdblkup.obj
 0001:000375c0       ??0bad_alloc@std@@AEAA@QEBD@Z 00000001800385c0 f i LIBCMTD:throw_bad_alloc.obj
 0001:00037600       ??0bad_alloc@std@@QEAA@AEBV01@@Z 0000000180038600 f i LIBCMTD:throw_bad_alloc.obj
 0001:00037640       ??0bad_alloc@std@@QEAA@XZ  0000000180038640 f i LIBCMTD:throw_bad_alloc.obj
 0001:00037680       ??0bad_array_new_length@std@@QEAA@AEBV01@@Z 0000000180038680 f i LIBCMTD:throw_bad_alloc.obj
 0001:000376c0       ??0bad_array_new_length@std@@QEAA@XZ 00000001800386c0 f i LIBCMTD:throw_bad_alloc.obj
 0001:00037700       ??0exception@std@@QEAA@AEBV01@@Z 0000000180038700 f i LIBCMTD:throw_bad_alloc.obj
 0001:00037760       ??0exception@std@@QEAA@QEBDH@Z 0000000180038760 f i LIBCMTD:throw_bad_alloc.obj
 0001:000377b0       ??1bad_alloc@std@@UEAA@XZ  00000001800387b0 f i LIBCMTD:throw_bad_alloc.obj
 0001:000377d0       ??1bad_array_new_length@std@@UEAA@XZ 00000001800387d0 f i LIBCMTD:throw_bad_alloc.obj
 0001:000377f0       ??1exception@std@@UEAA@XZ  00000001800387f0 f i LIBCMTD:throw_bad_alloc.obj
 0001:00037820       ??_Ebad_alloc@std@@UEAAPEAXI@Z 0000000180038820 f i LIBCMTD:throw_bad_alloc.obj
 0001:00037820       ??_Gbad_alloc@std@@UEAAPEAXI@Z 0000000180038820 f i LIBCMTD:throw_bad_alloc.obj
 0001:00037860       ??_Gbad_array_new_length@std@@UEAAPEAXI@Z 0000000180038860 f i LIBCMTD:throw_bad_alloc.obj
 0001:00037860       ??_Ebad_array_new_length@std@@UEAAPEAXI@Z 0000000180038860 f i LIBCMTD:throw_bad_alloc.obj
 0001:000378a0       ??_Gexception@std@@UEAAPEAXI@Z 00000001800388a0 f i LIBCMTD:throw_bad_alloc.obj
 0001:000378a0       ??_Eexception@std@@UEAAPEAXI@Z 00000001800388a0 f i LIBCMTD:throw_bad_alloc.obj
 0001:000378e0       ?__scrt_throw_std_bad_alloc@@YAXXZ 00000001800388e0 f   LIBCMTD:throw_bad_alloc.obj
 0001:00037910       ?__scrt_throw_std_bad_array_new_length@@YAXXZ 0000000180038910 f   LIBCMTD:throw_bad_alloc.obj
 0001:00037940       ?what@exception@std@@UEBAPEBDXZ 0000000180038940 f i LIBCMTD:throw_bad_alloc.obj
 0001:00037980       ??1type_info@@UEAA@XZ      0000000180038980 f   LIBCMTD:std_type_info_static.obj
 0001:000379a0       ??_Gtype_info@@UEAAPEAXI@Z 00000001800389a0 f i LIBCMTD:std_type_info_static.obj
 0001:000379a0       ??_Etype_info@@UEAAPEAXI@Z 00000001800389a0 f i LIBCMTD:std_type_info_static.obj
 0001:000379dc       ??$?2PEAUHINSTANCE__@@@Wrapper@?$CSimpleArray@PEAUHINSTANCE__@@V?$CSimpleArrayEqualHelper@PEAUHINSTANCE__@@@ATL@@@ATL@@SAPEAX_KPEAPEAUHINSTANCE__@@@Z 00000001800389dc f i atls:atlbase.obj
 0001:000379e0       ??0?$CSimpleArray@PEAUHINSTANCE__@@V?$CSimpleArrayEqualHelper@PEAUHINSTANCE__@@@ATL@@@ATL@@QEAA@XZ 00000001800389e0 f i atls:atlbase.obj
 0001:000379f0       ??0CAtlBaseModule@ATL@@QEAA@XZ 00000001800389f0 f   atls:atlbase.obj
 0001:00037a98       ??0Wrapper@?$CSimpleArray@PEAUHINSTANCE__@@V?$CSimpleArrayEqualHelper@PEAUHINSTANCE__@@@ATL@@@ATL@@QEAA@AEBQEAUHINSTANCE__@@@Z 0000000180038a98 f i atls:atlbase.obj
 0001:00037aa4       ??0_ATL_BASE_MODULE70@ATL@@QEAA@XZ 0000000180038aa4 f i atls:atlbase.obj
 0001:00037ad0       ??1?$CSimpleArray@PEAUHINSTANCE__@@V?$CSimpleArrayEqualHelper@PEAUHINSTANCE__@@@ATL@@@ATL@@QEAA@XZ 0000000180038ad0 f i atls:atlbase.obj
 0001:00037af8       ??1CAtlBaseModule@ATL@@QEAA@XZ 0000000180038af8 f   atls:atlbase.obj
 0001:00037b2c       ??1_ATL_BASE_MODULE70@ATL@@QEAA@XZ 0000000180038b2c f i atls:atlbase.obj
 0001:00037b58       ??A?$CSimpleArray@PEAUHINSTANCE__@@V?$CSimpleArrayEqualHelper@PEAUHINSTANCE__@@@ATL@@@ATL@@QEAAAEAPEAUHINSTANCE__@@H@Z 0000000180038b58 f i atls:atlbase.obj
 0001:00037b84       ?Add@?$CSimpleArray@PEAUHINSTANCE__@@V?$CSimpleArrayEqualHelper@PEAUHINSTANCE__@@@ATL@@@ATL@@QEAAHAEBQEAUHINSTANCE__@@@Z 0000000180038b84 f i atls:atlbase.obj
 0001:00037c38       ?AddResourceInstance@CAtlBaseModule@ATL@@QEAA_NPEAUHINSTANCE__@@@Z 0000000180038c38 f   atls:atlbase.obj
 0001:00037c80       ?GetHInstanceAt@CAtlBaseModule@ATL@@QEAAPEAUHINSTANCE__@@H@Z 0000000180038c80 f   atls:atlbase.obj
 0001:00037cf8       ?GetSize@?$CSimpleArray@PEAUHINSTANCE__@@V?$CSimpleArrayEqualHelper@PEAUHINSTANCE__@@@ATL@@@ATL@@QEBAHXZ 0000000180038cf8 f i atls:atlbase.obj
 0001:00037cfc       ?InternalSetAtIndex@?$CSimpleArray@PEAUHINSTANCE__@@V?$CSimpleArrayEqualHelper@PEAUHINSTANCE__@@@ATL@@@ATL@@QEAAXHAEBQEAUHINSTANCE__@@@Z 0000000180038cfc f i atls:atlbase.obj
 0001:00037d14       ?RemoveAll@?$CSimpleArray@PEAUHINSTANCE__@@V?$CSimpleArrayEqualHelper@PEAUHINSTANCE__@@@ATL@@@ATL@@QEAAXXZ 0000000180038d14 f i atls:atlbase.obj
 0001:00037d3c       ?RemoveAt@?$CSimpleArray@PEAUHINSTANCE__@@V?$CSimpleArrayEqualHelper@PEAUHINSTANCE__@@@ATL@@@ATL@@QEAAHH@Z 0000000180038d3c f i atls:atlbase.obj
 0001:00037de0       ?RemoveResourceInstance@CAtlBaseModule@ATL@@QEAA_NPEAUHINSTANCE__@@@Z 0000000180038de0 f   atls:atlbase.obj
 0001:00037e60       ?memmove_s@Checked@ATL@@YAXPEAX_KPEBX1@Z 0000000180038e60 f i atls:atlbase.obj
 0001:00038308       ?GetCodeAddress@_stdcallthunk@ATL@@QEAAPEAXXZ 0000000180039308 f i atls:atlthunk.obj
 0001:00038334       ?Init@_stdcallthunk@ATL@@QEAAH_KPEAX@Z 0000000180039334 f i atls:atlthunk.obj
 0001:00038384       ?__AllocStdCallThunk@@YAPEAXXZ 0000000180039384 f   atls:atlthunk.obj
 0001:0003838c       ?__AllocStdCallThunk@ATL@@YAPEAXXZ 000000018003938c f   atls:atlthunk.obj
 0001:00038394       ?__AllocStdCallThunk_cmn@@YAPEAXXZ 0000000180039394 f   atls:atlthunk.obj
 0001:0003846c       ?__FreeStdCallThunk@@YAXPEAX@Z 000000018003946c f   atls:atlthunk.obj
 0001:0003848c       ?__FreeStdCallThunk@ATL@@YAXPEAX@Z 000000018003948c f   atls:atlthunk.obj
 0001:000384ac       ?__FreeStdCallThunk_cmn@@YAXPEAX@Z 00000001800394ac f   atls:atlthunk.obj
 0001:0003854c       AtlThunk_AllocateData      000000018003954c f   atls:atlthunk.obj
 0001:000385c8       AtlThunk_DataToCode        00000001800395c8 f   atls:atlthunk.obj
 0001:0003861c       AtlThunk_FreeData          000000018003961c f   atls:atlthunk.obj
 0001:0003867c       AtlThunk_InitData          000000018003967c f   atls:atlthunk.obj
 0001:00038740       memset_repmovs             0000000180039740 f   libvcruntimed:memset.obj
 0001:00038760       memset                     0000000180039760 f   libvcruntimed:memset.obj
 0001:000388f0       ??$__crt_interlocked_exchange_pointer@$$A6AXXZP6AXXZ@@YAP6AXXZPEDS6AXXZQ6AXXZ@Z 00000001800398f0 f i libvcruntimed:purevirt.obj
 0001:00038910       ??$__crt_interlocked_read_pointer@$$A6AXXZ@@YAP6AXXZPEDS6AXXZ@Z 0000000180039910 f i libvcruntimed:purevirt.obj
 0001:00038930       ?__crt_interlocked_read_64@@YA_JPED_J@Z 0000000180039930 f i libvcruntimed:purevirt.obj
 0001:00038950       _get_purecall_handler      0000000180039950 f   libvcruntimed:purevirt.obj
 0001:00038970       _purecall                  0000000180039970 f   libvcruntimed:purevirt.obj
 0001:000389b0       _set_purecall_handler      00000001800399b0 f   libvcruntimed:purevirt.obj
 0001:000389e0       memcmp                     00000001800399e0 f   libvcruntimed:memcmp.obj
 0001:00038ac0       memcpy_repmovs             0000000180039ac0 f   libvcruntimed:memcpy.obj
 0001:00038ae0       memcpy                     0000000180039ae0 f   libvcruntimed:memcpy.obj
 0001:00038ae0       memmove                    0000000180039ae0 f   libvcruntimed:memcpy.obj
 0001:00038ec0       wcsstr                     0000000180039ec0 f   libvcruntimed:wcsstr.obj
 0001:00039520       __vcrt_initialize          000000018003a520 f   libvcruntimed:initialization.obj
 0001:00039560       __vcrt_thread_attach       000000018003a560 f   libvcruntimed:initialization.obj
 0001:00039580       __vcrt_thread_detach       000000018003a580 f   libvcruntimed:initialization.obj
 0001:000395a0       __vcrt_uninitialize        000000018003a5a0 f   libvcruntimed:initialization.obj
 0001:000395c0       __vcrt_uninitialize_critical 000000018003a5c0 f   libvcruntimed:initialization.obj
 0001:000395e0       __C_specific_handler       000000018003a5e0 f   libvcruntimed:riscchandler.obj
 0001:00039a50       ??$?0AEAViterator@TryBlockMap4@FH4@@AEAV012@$0A@@?$pair@Viterator@TryBlockMap4@FH4@@V123@@std@@QEAA@AEAViterator@TryBlockMap4@FH4@@0@Z 000000018003aa50 f i libvcruntimed:risctrnsctrl.obj
 0001:00039ab0       ??$?0AEAViterator@TryBlockMap@__FrameHandler3@@AEAV012@$0A@@?$pair@Viterator@TryBlockMap@__FrameHandler3@@V123@@std@@QEAA@AEAViterator@TryBlockMap@__FrameHandler3@@0@Z 000000018003aab0 f i libvcruntimed:risctrnsctrl.obj
 0001:00039c80       ??$_CallSETranslator@V__FrameHandler3@@@@YAHPEAUEHExceptionRecord@@PEA_KPEAU_CONTEXT@@PEAU_xDISPATCHER_CONTEXT@@PEBU_s_FuncInfo@@K1H@Z 000000018003ac80 f i libvcruntimed:risctrnsctrl.obj
 0001:00039d10       ??$_CallSETranslator@V__FrameHandler4@@@@YAHPEAUEHExceptionRecord@@PEA_KPEAU_CONTEXT@@PEAU_xDISPATCHER_CONTEXT@@PEAUFuncInfo4@FH4@@K1H@Z 000000018003ad10 f i libvcruntimed:risctrnsctrl.obj
 0001:00039da0       ??$forward@AEAViterator@TryBlockMap4@FH4@@@std@@YAAEAViterator@TryBlockMap4@FH4@@AEAV123@@Z 000000018003ada0 f i libvcruntimed:risctrnsctrl.obj
 0001:00039db0       ??$forward@AEAViterator@TryBlockMap@__FrameHandler3@@@std@@YAAEAViterator@TryBlockMap@__FrameHandler3@@AEAV123@@Z 000000018003adb0 f i libvcruntimed:risctrnsctrl.obj
 0001:00039dc0       ??0FuncInfo4@FH4@@QEAA@XZ  000000018003adc0 f i libvcruntimed:risctrnsctrl.obj
 0001:00039e30       ??0FuncInfoHeader@FH4@@QEAA@XZ 000000018003ae30 f i libvcruntimed:risctrnsctrl.obj
 0001:00039e50       ??0iterator@TryBlockMap4@FH4@@QEAA@AEAV12@I@Z 000000018003ae50 f i libvcruntimed:risctrnsctrl.obj
 0001:00039e80       ??0iterator@TryBlockMap@__FrameHandler3@@QEAA@AEAV12@I@Z 000000018003ae80 f i libvcruntimed:risctrnsctrl.obj
 0001:00039eb0       ??4iterator@TryBlockMap4@FH4@@QEAAAEAV012@AEBV012@@Z 000000018003aeb0 f i libvcruntimed:risctrnsctrl.obj
 0001:00039ed0       ??9iterator@TryBlockMap4@FH4@@QEBA_NAEBV012@@Z 000000018003aed0 f i libvcruntimed:risctrnsctrl.obj
 0001:00039f10       ??Diterator@TryBlockMap4@FH4@@QEAA?AUTryBlockMapEntry4@2@XZ 000000018003af10 f i libvcruntimed:risctrnsctrl.obj
 0001:00039f40       ??Eiterator@TryBlockMap4@FH4@@QEAAAEAV012@XZ 000000018003af40 f i libvcruntimed:risctrnsctrl.obj
 0001:00039f80       ?CatchTryBlock@__FrameHandler3@@SAPEBU_s_TryBlockMapEntry@@PEBU_s_FuncInfo@@H@Z 000000018003af80 f   libvcruntimed:risctrnsctrl.obj
 0001:0003a010       ?DecompFuncInfo@FH4@@YA_JPEAEAEAUFuncInfo4@1@_KH@Z 000000018003b010 f i libvcruntimed:risctrnsctrl.obj
 0001:0003a050       ?DecompFuncInfo@FH4@@YA_JPEAEAEAUFuncInfo4@1@_KH_N@Z 000000018003b050 f i libvcruntimed:risctrnsctrl.obj
 0001:0003a220       ?DecompTryBlock@TryBlockMap4@FH4@@AEAAXXZ 000000018003b220 f i libvcruntimed:risctrnsctrl.obj
 0001:0003a2a0       ?ExecutionInCatch@__FrameHandler3@@SA_NPEAU_xDISPATCHER_CONTEXT@@PEBU_s_FuncInfo@@@Z 000000018003b2a0 f   libvcruntimed:risctrnsctrl.obj
 0001:0003a2f0       ?ExecutionInCatch@__FrameHandler4@@SA_NPEAU_xDISPATCHER_CONTEXT@@PEAUFuncInfo4@FH4@@@Z 000000018003b2f0 f   libvcruntimed:risctrnsctrl.obj
 0001:0003a310       ?FrameUnwindToEmptyState@__FrameHandler3@@SAXPEA_KPEAU_xDISPATCHER_CONTEXT@@PEBU_s_FuncInfo@@@Z 000000018003b310 f   libvcruntimed:risctrnsctrl.obj
 0001:0003a3b0       ?FrameUnwindToEmptyState@__FrameHandler4@@SAXPEA_KPEAU_xDISPATCHER_CONTEXT@@PEAUFuncInfo4@FH4@@@Z 000000018003b3b0 f   libvcruntimed:risctrnsctrl.obj
 0001:0003a400       ?GetEstablisherFrame@__FrameHandler3@@SAPEA_KPEA_KPEAU_xDISPATCHER_CONTEXT@@PEBU_s_FuncInfo@@0@Z 000000018003b400 f   libvcruntimed:risctrnsctrl.obj
 0001:0003a570       ?GetEstablisherFrame@__FrameHandler4@@SAPEA_KPEA_KPEAU_xDISPATCHER_CONTEXT@@PEAUFuncInfo4@FH4@@0@Z 000000018003b570 f   libvcruntimed:risctrnsctrl.obj
 0001:0003a5e0       ?GetRangeOfTrysToCheck@__FrameHandler3@@SA?AU?$pair@Viterator@TryBlockMap@__FrameHandler3@@V123@@std@@AEAVTryBlockMap@1@HPEAU_xDISPATCHER_CONTEXT@@PEBU_s_FuncInfo@@H@Z 000000018003b5e0 f   libvcruntimed:risctrnsctrl.obj
 0001:0003a820       ?GetRangeOfTrysToCheck@__FrameHandler4@@SA?AU?$pair@Viterator@TryBlockMap4@FH4@@V123@@std@@AEAVTryBlockMap4@FH4@@HPEAU_xDISPATCHER_CONTEXT@@PEAUFuncInfo4@5@H@Z 000000018003b820 f   libvcruntimed:risctrnsctrl.obj
 0001:0003a9d0       ?ReadInt@FH4@@YAHPEAPEAE@Z 000000018003b9d0 f i libvcruntimed:risctrnsctrl.obj
 0001:0003aa10       ?ReadUnsigned@FH4@@YAIPEAPEAE@Z 000000018003ba10 f i libvcruntimed:risctrnsctrl.obj
 0001:0003aaa0       ?UnwindNestedFrames@__FrameHandler3@@SAXPEA_KPEAUEHExceptionRecord@@PEAU_CONTEXT@@0PEAXPEBU_s_FuncInfo@@HHPEBU_s_HandlerType@@PEAU_xDISPATCHER_CONTEXT@@E@Z 000000018003baa0 f   libvcruntimed:risctrnsctrl.obj
 0001:0003ac10       ?UnwindNestedFrames@__FrameHandler4@@SAXPEA_KPEAUEHExceptionRecord@@PEAU_CONTEXT@@0PEAXPEAUFuncInfo4@FH4@@HHPEAUHandlerType4@5@PEAU_xDISPATCHER_CONTEXT@@E@Z 000000018003bc10 f   libvcruntimed:risctrnsctrl.obj
 0001:0003ade0       ?begin@TryBlockMap4@FH4@@QEAA?AViterator@12@XZ 000000018003bde0 f i libvcruntimed:risctrnsctrl.obj
 0001:0003ae10       ?end@TryBlockMap4@FH4@@QEAA?AViterator@12@XZ 000000018003be10 f i libvcruntimed:risctrnsctrl.obj
 0001:0003ae40       ?imageRelToByteBuffer@FH4@@YAPEAE_KH@Z 000000018003be40 f i libvcruntimed:risctrnsctrl.obj
 0001:0003ae60       ?incrementToSentinel@iterator@TryBlockMap4@FH4@@QEAAXXZ 000000018003be60 f i libvcruntimed:risctrnsctrl.obj
 0001:0003ae80       ?setBuffer@TryBlockMap4@FH4@@QEAAXViterator@12@@Z 000000018003be80 f i libvcruntimed:risctrnsctrl.obj
 0001:0003aef0       _CreateFrameInfo           000000018003bef0 f   libvcruntimed:risctrnsctrl.obj
 0001:0003af60       _FindAndUnlinkFrame        000000018003bf60 f   libvcruntimed:risctrnsctrl.obj
 0001:0003afe0       _GetImageBase              000000018003bfe0 f   libvcruntimed:risctrnsctrl.obj
 0001:0003b000       _GetThrowImageBase         000000018003c000 f   libvcruntimed:risctrnsctrl.obj
 0001:0003b020       _SetImageBase              000000018003c020 f   libvcruntimed:risctrnsctrl.obj
 0001:0003b040       _SetThrowImageBase         000000018003c040 f   libvcruntimed:risctrnsctrl.obj
 0001:0003b060       __CxxFrameHandler          000000018003c060 f   libvcruntimed:risctrnsctrl.obj
 0001:0003b0a0       __CxxFrameHandler2         000000018003c0a0 f   libvcruntimed:risctrnsctrl.obj
 0001:0003b0e0       __CxxFrameHandler3         000000018003c0e0 f   libvcruntimed:risctrnsctrl.obj
 0001:0003b1c0       __CxxFrameHandler4         000000018003c1c0 f   libvcruntimed:risctrnsctrl.obj
 0001:0003b2d0       __C_specific_handler_noexcept 000000018003c2d0 f   libvcruntimed:chandler_noexcept.obj
 0001:0003b360       __DestructExceptionObject  000000018003c360 f   libvcruntimed:ehhelpers.obj
 0001:0003b460       ?_CallMemberFunction0@@YAXQEAX0@Z 000000018003c460 f i libvcruntimed:ehhelpers.obj
 0001:0003b530       ?raw_name@type_info@@QEBAPEBDXZ 000000018003c530 f i libvcruntimed:ehhelpers.obj
 0001:0003b540       _IsExceptionObjectToBeDestroyed 000000018003c540 f   libvcruntimed:ehhelpers.obj
 0001:0003b590       _SetWinRTOutOfMemoryExceptionCallback 000000018003c590 f   libvcruntimed:ehhelpers.obj
 0001:0003b5b0       __AdjustPointer            000000018003c5b0 f   libvcruntimed:ehhelpers.obj
 0001:0003b630       __FrameUnwindFilter        000000018003c630 f   libvcruntimed:ehhelpers.obj
 0001:0003b6e0       __GetPlatformExceptionInfo 000000018003c6e0 f   libvcruntimed:ehhelpers.obj
 0001:0003b790       __current_exception        000000018003c790 f   libvcruntimed:ehhelpers.obj
 0001:0003b7b0       __current_exception_context 000000018003c7b0 f   libvcruntimed:ehhelpers.obj
 0001:0003b7d0       __processing_throw         000000018003c7d0 f   libvcruntimed:ehhelpers.obj
 0001:0003b7f0       __std_terminate            000000018003c7f0 f   libvcruntimed:ehhelpers.obj
 0001:0003b800       _is_exception_typeof       000000018003c800 f   libvcruntimed:ehhelpers.obj
 0001:0003b990       ??$?RD@__crt_internal_free_policy@@QEBAXQEBD@Z 000000018003c990 f i libvcruntimed:std_type_info.obj
 0001:0003b9c0       ??$?RX@__crt_internal_free_policy@@QEBAXQEBX@Z 000000018003c9c0 f i libvcruntimed:std_type_info.obj
 0001:0003b9f0       ??$__crt_interlocked_compare_exchange_pointer@$$CBDPEAD$$T@@YAPEBDPEDSEBDQEAD$$T@Z 000000018003c9f0 f i libvcruntimed:std_type_info.obj
 0001:0003ba30       ??$__crt_interlocked_read_pointer@$$CBD@@YAPEBDPEDSEBD@Z 000000018003ca30 f i libvcruntimed:std_type_info.obj
 0001:0003ba50       ??0?$__crt_unique_heap_ptr@DU__crt_internal_free_policy@@@@QEAA@QEAD@Z 000000018003ca50 f i libvcruntimed:std_type_info.obj
 0001:0003ba70       ??0?$__crt_unique_heap_ptr@XU__crt_internal_free_policy@@@@QEAA@QEAX@Z 000000018003ca70 f i libvcruntimed:std_type_info.obj
 0001:0003ba90       ??1?$__crt_unique_heap_ptr@DU__crt_internal_free_policy@@@@QEAA@XZ 000000018003ca90 f i libvcruntimed:std_type_info.obj
 0001:0003bab0       ??1?$__crt_unique_heap_ptr@XU__crt_internal_free_policy@@@@QEAA@XZ 000000018003cab0 f i libvcruntimed:std_type_info.obj
 0001:0003bad0       ??B?$__crt_unique_heap_ptr@DU__crt_internal_free_policy@@@@QEBA_NXZ 000000018003cad0 f i libvcruntimed:std_type_info.obj
 0001:0003baf0       ??B?$__crt_unique_heap_ptr@XU__crt_internal_free_policy@@@@QEBA_NXZ 000000018003caf0 f i libvcruntimed:std_type_info.obj
 0001:0003bb90       ?detach@?$__crt_unique_heap_ptr@XU__crt_internal_free_policy@@@@QEAAPEAXXZ 000000018003cb90 f i libvcruntimed:std_type_info.obj
 0001:0003bbc0       ?get@?$__crt_unique_heap_ptr@DU__crt_internal_free_policy@@@@QEBAPEADXZ 000000018003cbc0 f i libvcruntimed:std_type_info.obj
 0001:0003bbd0       ?get@?$__crt_unique_heap_ptr@XU__crt_internal_free_policy@@@@QEBAPEAXXZ 000000018003cbd0 f i libvcruntimed:std_type_info.obj
 0001:0003bbe0       ?is_valid@?$__crt_unique_heap_ptr@DU__crt_internal_free_policy@@@@QEBA_NXZ 000000018003cbe0 f i libvcruntimed:std_type_info.obj
 0001:0003bc10       ?is_valid@?$__crt_unique_heap_ptr@XU__crt_internal_free_policy@@@@QEBA_NXZ 000000018003cc10 f i libvcruntimed:std_type_info.obj
 0001:0003bc40       ?release@?$__crt_unique_heap_ptr@DU__crt_internal_free_policy@@@@QEAAXXZ 000000018003cc40 f i libvcruntimed:std_type_info.obj
 0001:0003bc70       ?release@?$__crt_unique_heap_ptr@XU__crt_internal_free_policy@@@@QEAAXXZ 000000018003cc70 f i libvcruntimed:std_type_info.obj
 0001:0003bca0       __std_type_info_compare    000000018003cca0 f   libvcruntimed:std_type_info.obj
 0001:0003bce0       __std_type_info_destroy_list 000000018003cce0 f   libvcruntimed:std_type_info.obj
 0001:0003bd40       __std_type_info_hash       000000018003cd40 f   libvcruntimed:std_type_info.obj
 0001:0003bdf0       __std_type_info_name       000000018003cdf0 f   libvcruntimed:std_type_info.obj
 0001:0003c0a0       __vcrt_GetModuleFileNameW  000000018003d0a0 f   libvcruntimed:winapi_thunks.obj
 0001:0003c0d0       __vcrt_GetModuleHandleW    000000018003d0d0 f   libvcruntimed:winapi_thunks.obj
 0001:0003c0f0       __vcrt_LoadLibraryExW      000000018003d0f0 f   libvcruntimed:winapi_thunks.obj
 0001:0003c120       ??$?RD@__crt_public_free_policy@@QEBAXQEBD@Z 000000018003d120 f i libvcruntimed:std_exception.obj
 0001:0003c140       ??0?$__crt_unique_heap_ptr@DU__crt_public_free_policy@@@@QEAA@QEAD@Z 000000018003d140 f i libvcruntimed:std_exception.obj
 0001:0003c160       ??1?$__crt_unique_heap_ptr@DU__crt_public_free_policy@@@@QEAA@XZ 000000018003d160 f i libvcruntimed:std_exception.obj
 0001:0003c180       ??B?$__crt_unique_heap_ptr@DU__crt_public_free_policy@@@@QEBA_NXZ 000000018003d180 f i libvcruntimed:std_exception.obj
 0001:0003c1a0       ?detach@?$__crt_unique_heap_ptr@DU__crt_public_free_policy@@@@QEAAPEADXZ 000000018003d1a0 f i libvcruntimed:std_exception.obj
 0001:0003c1d0       ?get@?$__crt_unique_heap_ptr@DU__crt_public_free_policy@@@@QEBAPEADXZ 000000018003d1d0 f i libvcruntimed:std_exception.obj
 0001:0003c1e0       ?is_valid@?$__crt_unique_heap_ptr@DU__crt_public_free_policy@@@@QEBA_NXZ 000000018003d1e0 f i libvcruntimed:std_exception.obj
 0001:0003c210       ?release@?$__crt_unique_heap_ptr@DU__crt_public_free_policy@@@@QEAAXXZ 000000018003d210 f i libvcruntimed:std_exception.obj
 0001:0003c240       __std_exception_copy       000000018003d240 f   libvcruntimed:std_exception.obj
 0001:0003c380       __std_exception_destroy    000000018003d380 f   libvcruntimed:std_exception.obj
 0001:0003c3c0       _CxxThrowException         000000018003d3c0 f   libvcruntimed:throw.obj
 0001:0003c4f0       ??$?RU__vcrt_ptd@@@__crt_internal_free_policy@@QEBAXQEBU__vcrt_ptd@@@Z 000000018003d4f0 f i libvcruntimed:per_thread_data.obj
 0001:0003c520       ??0?$__crt_unique_heap_ptr@U__vcrt_ptd@@U__crt_internal_free_policy@@@@QEAA@QEAU__vcrt_ptd@@@Z 000000018003d520 f i libvcruntimed:per_thread_data.obj
 0001:0003c560       ??1?$__crt_unique_heap_ptr@U__vcrt_ptd@@U__crt_internal_free_policy@@@@QEAA@XZ 000000018003d560 f i libvcruntimed:per_thread_data.obj
 0001:0003c5a0       ??B?$__crt_unique_heap_ptr@U__vcrt_ptd@@U__crt_internal_free_policy@@@@QEBA_NXZ 000000018003d5a0 f i libvcruntimed:per_thread_data.obj
 0001:0003c5c0       ?detach@?$__crt_unique_heap_ptr@U__vcrt_ptd@@U__crt_internal_free_policy@@@@QEAAPEAU__vcrt_ptd@@XZ 000000018003d5c0 f i libvcruntimed:per_thread_data.obj
 0001:0003c5f0       ?get@?$__crt_unique_heap_ptr@U__vcrt_ptd@@U__crt_internal_free_policy@@@@QEBAPEAU__vcrt_ptd@@XZ 000000018003d5f0 f i libvcruntimed:per_thread_data.obj
 0001:0003c600       ?is_valid@?$__crt_unique_heap_ptr@U__vcrt_ptd@@U__crt_internal_free_policy@@@@QEBA_NXZ 000000018003d600 f i libvcruntimed:per_thread_data.obj
 0001:0003c630       ?release@?$__crt_unique_heap_ptr@U__vcrt_ptd@@U__crt_internal_free_policy@@@@QEAAXXZ 000000018003d630 f i libvcruntimed:per_thread_data.obj
 0001:0003c6a0       __vcrt_freefls             000000018003d6a0 f   libvcruntimed:per_thread_data.obj
 0001:0003c6e0       __vcrt_freeptd             000000018003d6e0 f   libvcruntimed:per_thread_data.obj
 0001:0003c740       __vcrt_getptd              000000018003d740 f   libvcruntimed:per_thread_data.obj
 0001:0003c770       __vcrt_getptd_noexit       000000018003d770 f   libvcruntimed:per_thread_data.obj
 0001:0003c910       __vcrt_getptd_noinit       000000018003d910 f   libvcruntimed:per_thread_data.obj
 0001:0003c970       __vcrt_initialize_ptd      000000018003d970 f   libvcruntimed:per_thread_data.obj
 0001:0003c9c0       __vcrt_uninitialize_ptd    000000018003d9c0 f   libvcruntimed:per_thread_data.obj
 0001:0003c9f0       __vcrt_initialize_locks    000000018003d9f0 f   libvcruntimed:locks.obj
 0001:0003ca60       __vcrt_lock                000000018003da60 f   libvcruntimed:locks.obj
 0001:0003ca90       __vcrt_uninitialize_locks  000000018003da90 f   libvcruntimed:locks.obj
 0001:0003caf0       __vcrt_unlock              000000018003daf0 f   libvcruntimed:locks.obj
 0001:0003cb30       _NLG_Notify                000000018003db30 f   libvcruntimed:notify.obj
 0001:0003cb50       __NLG_Dispatch2            000000018003db50 f   libvcruntimed:notify.obj
 0001:0003cb60       __NLG_Return2              000000018003db60 f   libvcruntimed:notify.obj
 0001:0003cb80       __except_validate_context_record 000000018003db80 f   libvcruntimed:jbcxrval.obj
 0001:0003cbe0       __except_validate_jump_buffer 000000018003dbe0 f   libvcruntimed:jbcxrval.obj
 0001:0003cc00       __except_validate_jump_buffer_common 000000018003dc00 f i libvcruntimed:jbcxrval.obj
 0001:0003cc80       ?GetCurrentState@__FrameHandler3@@SAHPEA_KPEAU_xDISPATCHER_CONTEXT@@PEBU_s_FuncInfo@@@Z 000000018003dc80 f   libvcruntimed:ehstate.obj
 0001:0003cce0       ?GetUnwindTryBlock@__FrameHandler3@@SAHPEA_KPEAU_xDISPATCHER_CONTEXT@@PEBU_s_FuncInfo@@@Z 000000018003dce0 f   libvcruntimed:ehstate.obj
 0001:0003cd30       ?SetState@__FrameHandler3@@SAXPEA_KPEBU_s_FuncInfo@@H@Z 000000018003dd30 f   libvcruntimed:ehstate.obj
 0001:0003cd60       ?SetUnwindTryBlock@__FrameHandler3@@SAXPEA_KPEAU_xDISPATCHER_CONTEXT@@PEBU_s_FuncInfo@@H@Z 000000018003dd60 f   libvcruntimed:ehstate.obj
 0001:0003cdd0       ?StateFromControlPc@__FrameHandler3@@SAHPEBU_s_FuncInfo@@PEAU_xDISPATCHER_CONTEXT@@@Z 000000018003ddd0 f   libvcruntimed:ehstate.obj
 0001:0003ce10       ?StateFromControlPc@__FrameHandler4@@SAHPEAUFuncInfo4@FH4@@PEAU_xDISPATCHER_CONTEXT@@@Z 000000018003de10 f   libvcruntimed:ehstate.obj
 0001:0003ce50       ?StateFromIp@__FrameHandler3@@SAHPEBU_s_FuncInfo@@PEAU_xDISPATCHER_CONTEXT@@_K@Z 000000018003de50 f   libvcruntimed:ehstate.obj
 0001:0003cf40       ?StateFromIp@__FrameHandler4@@SAHPEAUFuncInfo4@FH4@@PEAU_xDISPATCHER_CONTEXT@@_K@Z 000000018003df40 f   libvcruntimed:ehstate.obj
 0001:0003d030       ?__FuncRelToRealOffset@@YA_KPEAU_xDISPATCHER_CONTEXT@@I@Z 000000018003e030 f i libvcruntimed:ehstate.obj
 0001:0003d060       ?__RVAtoRealOffset@@YA_KPEAU_xDISPATCHER_CONTEXT@@H@Z 000000018003e060 f i libvcruntimed:ehstate.obj
 0001:0003f2e0       ??$TypeMatchHelper@V__FrameHandler3@@@@YAHPEBU_s_HandlerType@@PEBU_s_CatchableType@@PEBU_s_ThrowInfo@@@Z 00000001800402e0 f i libvcruntimed:frame.obj
 0001:0003f4e0       ??$TypeMatchHelper@V__FrameHandler4@@@@YAHPEAUHandlerType4@FH4@@PEBU_s_CatchableType@@PEBU_s_ThrowInfo@@@Z 00000001800404e0 f i libvcruntimed:frame.obj
 0001:0003f6f0       ??$__InternalCxxFrameHandler@V__FrameHandler3@@@@YA?AW4_EXCEPTION_DISPOSITION@@PEAUEHExceptionRecord@@PEA_KPEAU_CONTEXT@@PEAU_xDISPATCHER_CONTEXT@@PEBU_s_FuncInfo@@H1E@Z 00000001800406f0 f i libvcruntimed:frame.obj
 0001:0003fb60       ??$__InternalCxxFrameHandler@V__FrameHandler4@@@@YA?AW4_EXCEPTION_DISPOSITION@@PEAUEHExceptionRecord@@PEA_KPEAU_CONTEXT@@PEAU_xDISPATCHER_CONTEXT@@PEAUFuncInfo4@FH4@@H1E@Z 0000000180040b60 f i libvcruntimed:frame.obj
 0001:0003fff0       ??0HandlerMap4@FH4@@QEAA@PEBUTryBlockMapEntry4@1@_KH@Z 0000000180040ff0 f i libvcruntimed:frame.obj
 0001:000400b0       ??0HandlerMap@__FrameHandler3@@QEAA@PEBU_s_TryBlockMapEntry@@_KI@Z 00000001800410b0 f i libvcruntimed:frame.obj
 0001:00040100       ??0HandlerType4@FH4@@QEAA@XZ 0000000180041100 f i libvcruntimed:frame.obj
 0001:00040120       ??0TryBlockMap4@FH4@@QEAA@PEBUFuncInfo4@1@_K@Z 0000000180041120 f i libvcruntimed:frame.obj
 0001:000401b0       ??0TryBlockMap@__FrameHandler3@@QEAA@PEBU_s_FuncInfo@@_K@Z 00000001800411b0 f i libvcruntimed:frame.obj
 0001:000401e0       ??0UWMap4@FH4@@QEAA@PEBUFuncInfo4@1@_K@Z 00000001800411e0 f i libvcruntimed:frame.obj
 0001:00040250       ??0bad_exception@std@@QEAA@AEBV01@@Z 0000000180041250 f i libvcruntimed:frame.obj
 0001:00040290       ??0bad_exception@std@@QEAA@XZ 0000000180041290 f i libvcruntimed:frame.obj
 0001:000402d0       ??0iterator@HandlerMap4@FH4@@QEAA@AEAV12@I@Z 00000001800412d0 f i libvcruntimed:frame.obj
 0001:00040300       ??0iterator@HandlerMap@__FrameHandler3@@QEAA@AEAV12@I@Z 0000000180041300 f i libvcruntimed:frame.obj
 0001:00040330       ??0iterator@UWMap4@FH4@@QEAA@AEAV12@PEAE@Z 0000000180041330 f i libvcruntimed:frame.obj
 0001:00040360       ??1bad_exception@std@@UEAA@XZ 0000000180041360 f i libvcruntimed:frame.obj
 0001:00040380       ??4iterator@UWMap4@FH4@@QEAAAEAV012@AEBV012@@Z 0000000180041380 f i libvcruntimed:frame.obj
 0001:000403d0       ??8iterator@HandlerMap4@FH4@@QEBA_NAEBV012@@Z 00000001800413d0 f i libvcruntimed:frame.obj
 0001:00040410       ??8iterator@HandlerMap@__FrameHandler3@@QEBA_NAEBV012@@Z 0000000180041410 f i libvcruntimed:frame.obj
 0001:00040450       ??8type_info@@QEBA_NAEBV0@@Z 0000000180041450 f i libvcruntimed:frame.obj
 0001:000404a0       ??9iterator@HandlerMap4@FH4@@QEBA_NAEBV012@@Z 00000001800414a0 f i libvcruntimed:frame.obj
 0001:000404e0       ??9iterator@HandlerMap@__FrameHandler3@@QEBA_NAEBV012@@Z 00000001800414e0 f i libvcruntimed:frame.obj
 0001:00040520       ??Diterator@HandlerMap4@FH4@@QEAA?AUHandlerType4@2@XZ 0000000180041520 f i libvcruntimed:frame.obj
 0001:00040550       ??Diterator@HandlerMap@__FrameHandler3@@QEAA?BU_s_HandlerType@@XZ 0000000180041550 f i libvcruntimed:frame.obj
 0001:00040590       ??Diterator@TryBlockMap@__FrameHandler3@@QEAA?BU_s_TryBlockMapEntry@@XZ 0000000180041590 f i libvcruntimed:frame.obj
 0001:000405e0       ??Diterator@UWMap4@FH4@@QEAA?AUUnwindMapEntry4@2@XZ 00000001800415e0 f i libvcruntimed:frame.obj
 0001:00040660       ??Eiterator@HandlerMap4@FH4@@QEAAAEAV012@XZ 0000000180041660 f i libvcruntimed:frame.obj
 0001:000406a0       ??Eiterator@HandlerMap@__FrameHandler3@@QEAAAEAV012@XZ 00000001800416a0 f i libvcruntimed:frame.obj
 0001:000406c0       ??Eiterator@TryBlockMap@__FrameHandler3@@QEAAAEAV012@XZ 00000001800416c0 f i libvcruntimed:frame.obj
 0001:000406e0       ??Eiterator@UWMap4@FH4@@QEAAAEAV012@XZ 00000001800416e0 f i libvcruntimed:frame.obj
 0001:00040720       ??Giterator@UWMap4@FH4@@QEBA_JAEBV012@@Z 0000000180041720 f i libvcruntimed:frame.obj
 0001:00040740       ??Miterator@TryBlockMap4@FH4@@QEBA_NAEBV012@@Z 0000000180041740 f i libvcruntimed:frame.obj
 0001:00040780       ??Miterator@TryBlockMap@__FrameHandler3@@QEBA_NAEBV012@@Z 0000000180041780 f i libvcruntimed:frame.obj
 0001:000407c0       ??Oiterator@UWMap4@FH4@@QEBA_NAEBV012@@Z 00000001800417c0 f i libvcruntimed:frame.obj
 0001:00040800       ??Piterator@UWMap4@FH4@@QEBA_NAEBV012@@Z 0000000180041800 f i libvcruntimed:frame.obj
 0001:00040840       ??_Ebad_exception@std@@UEAAPEAXI@Z 0000000180041840 f i libvcruntimed:frame.obj
 0001:00040840       ??_Gbad_exception@std@@UEAAPEAXI@Z 0000000180041840 f i libvcruntimed:frame.obj
 0001:00040880       ?BuildCatchObject@__FrameHandler3@@SAXPEAUEHExceptionRecord@@PEAXPEBU_s_HandlerType@@PEBU_s_CatchableType@@@Z 0000000180041880 f   libvcruntimed:frame.obj
 0001:000408c0       ?BuildCatchObject@__FrameHandler4@@SAXPEAUEHExceptionRecord@@PEAXPEAUHandlerType4@FH4@@PEBU_s_CatchableType@@@Z 00000001800418c0 f   libvcruntimed:frame.obj
 0001:00040900       ?BuildCatchObjectHelper@__FrameHandler3@@SAHPEAUEHExceptionRecord@@PEAXPEBU_s_HandlerType@@PEBU_s_CatchableType@@@Z 0000000180041900 f   libvcruntimed:frame.obj
 0001:00040940       ?BuildCatchObjectHelper@__FrameHandler4@@SAHPEAUEHExceptionRecord@@PEAXPEAUHandlerType4@FH4@@PEBU_s_CatchableType@@@Z 0000000180041940 f   libvcruntimed:frame.obj
 0001:00040980       ?CxxCallCatchBlock@__FrameHandler3@@SAPEAXPEAU_EXCEPTION_RECORD@@@Z 0000000180041980 f   libvcruntimed:frame.obj
 0001:00040be0       ?CxxCallCatchBlock@__FrameHandler4@@SAPEAXPEAU_EXCEPTION_RECORD@@@Z 0000000180041be0 f   libvcruntimed:frame.obj
 0001:00040f10       ?DecompHandler@HandlerMap4@FH4@@AEAAXXZ 0000000180041f10 f i libvcruntimed:frame.obj
 0001:000412e0       ?FrameUnwindToState@__FrameHandler3@@SAXPEA_KPEAU_xDISPATCHER_CONTEXT@@PEBU_s_FuncInfo@@H@Z 00000001800422e0 f   libvcruntimed:frame.obj
 0001:00041530       ?FrameUnwindToState@__FrameHandler4@@SAXPEA_KPEAU_xDISPATCHER_CONTEXT@@PEAUFuncInfo4@FH4@@H@Z 0000000180042530 f   libvcruntimed:frame.obj
 0001:00041840       ?GetHandlerSearchState@__FrameHandler3@@SAHPEA_KPEAU_xDISPATCHER_CONTEXT@@PEBU_s_FuncInfo@@@Z 0000000180042840 f i libvcruntimed:frame.obj
 0001:000418f0       ?GetHandlerSearchState@__FrameHandler4@@SAHPEA_KPEAU_xDISPATCHER_CONTEXT@@PEAUFuncInfo4@FH4@@@Z 00000001800428f0 f i libvcruntimed:frame.obj
 0001:00041970       ?GetMaxState@__FrameHandler3@@SAHPEAU_xDISPATCHER_CONTEXT@@PEBU_s_FuncInfo@@@Z 0000000180042970 f i libvcruntimed:frame.obj
 0001:00041990       ?GetMaxState@__FrameHandler4@@SAHPEAU_xDISPATCHER_CONTEXT@@PEAUFuncInfo4@FH4@@@Z 0000000180042990 f i libvcruntimed:frame.obj
 0001:00041bc0       ?ReadEntry@UWMap4@FH4@@AEAAXPEAPEAE@Z 0000000180042bc0 f i libvcruntimed:frame.obj
 0001:00041c70       ?TypeMatch@__FrameHandler3@@SAHPEBU_s_HandlerType@@PEBU_s_CatchableType@@PEBU_s_ThrowInfo@@@Z 0000000180042c70 f   libvcruntimed:frame.obj
 0001:00041ca0       ?TypeMatch@__FrameHandler4@@SAHPEAUHandlerType4@FH4@@PEBU_s_CatchableType@@PEBU_s_ThrowInfo@@@Z 0000000180042ca0 f   libvcruntimed:frame.obj
 0001:00041cd0       ?WalkBack@UWMap4@FH4@@AEAAXPEAPEAE@Z 0000000180042cd0 f i libvcruntimed:frame.obj
 0001:00041d20       ?WalkBack@iterator@UWMap4@FH4@@QEAAXXZ 0000000180042d20 f i libvcruntimed:frame.obj
 0001:00041d60       ?WalkForward@UWMap4@FH4@@AEAAXPEAPEAE@Z 0000000180042d60 f i libvcruntimed:frame.obj
 0001:00041d90       ?_CallMemberFunction1@@YAXQEAX00@Z 0000000180042d90 f i libvcruntimed:frame.obj
 0001:00041dd0       ?_CallMemberFunction2@@YAXQEAX00H@Z 0000000180042dd0 f i libvcruntimed:frame.obj
 0001:00041e60       ?begin@HandlerMap4@FH4@@QEAA?AViterator@12@XZ 0000000180042e60 f i libvcruntimed:frame.obj
 0001:00041e90       ?begin@HandlerMap@__FrameHandler3@@QEAA?AViterator@12@XZ 0000000180042e90 f i libvcruntimed:frame.obj
 0001:00041ec0       ?begin@UWMap4@FH4@@QEAA?AViterator@12@XZ 0000000180042ec0 f i libvcruntimed:frame.obj
 0001:00041ef0       ?end@HandlerMap4@FH4@@QEAA?AViterator@12@XZ 0000000180042ef0 f i libvcruntimed:frame.obj
 0001:00041f20       ?end@HandlerMap@__FrameHandler3@@QEAA?AViterator@12@XZ 0000000180042f20 f i libvcruntimed:frame.obj
 0001:00041f50       ?getESTypes@__FrameHandler3@@SAPEBU_s_ESTypeList@@PEBU_s_FuncInfo@@@Z 0000000180042f50 f i libvcruntimed:frame.obj
 0001:00041f90       ?getESTypes@__FrameHandler4@@SAPEBU_s_ESTypeList@@PEAUFuncInfo4@FH4@@@Z 0000000180042f90 f i libvcruntimed:frame.obj
 0001:00041fa0       ?getLastEntry@HandlerMap4@FH4@@QEAAPEAUHandlerType4@2@XZ 0000000180042fa0 f i libvcruntimed:frame.obj
 0001:00041fe0       ?getLastEntry@HandlerMap@__FrameHandler3@@QEAAPEBU_s_HandlerType@@XZ 0000000180042fe0 f i libvcruntimed:frame.obj
 0001:00042000       ?getMagicNum@__FrameHandler3@@SAIPEBU_s_FuncInfo@@@Z 0000000180043000 f i libvcruntimed:frame.obj
 0001:00042020       ?getMagicNum@__FrameHandler4@@SAIPEAUFuncInfo4@FH4@@@Z 0000000180043020 f i libvcruntimed:frame.obj
 0001:00042030       ?getNumTryBlocks@TryBlockMap4@FH4@@QEAAIXZ 0000000180043030 f i libvcruntimed:frame.obj
 0001:00042040       ?getNumTryBlocks@TryBlockMap@__FrameHandler3@@QEAAIXZ 0000000180043040 f i libvcruntimed:frame.obj
 0001:00042060       ?getStartStop@UWMap4@FH4@@QEAAXHHAEAViterator@12@0@Z 0000000180043060 f i libvcruntimed:frame.obj
 0001:00042180       ?getStateFromIterators@UWMap4@FH4@@SAHAEBViterator@12@H0H0@Z 0000000180043180 f i libvcruntimed:frame.obj
 0001:000422c0       ?isEHs@__FrameHandler3@@SA_NPEBU_s_FuncInfo@@@Z 00000001800432c0 f i libvcruntimed:frame.obj
 0001:00042300       ?isEHs@__FrameHandler4@@SA_NPEAUFuncInfo4@FH4@@@Z 0000000180043300 f i libvcruntimed:frame.obj
 0001:00042320       ?isNoExcept@__FrameHandler3@@SA_NPEBU_s_FuncInfo@@@Z 0000000180043320 f i libvcruntimed:frame.obj
 0001:00042360       ?isNoExcept@__FrameHandler4@@SA_NPEAUFuncInfo4@FH4@@@Z 0000000180043360 f i libvcruntimed:frame.obj
 0001:00042380       ?reset@HandlerType4@FH4@@QEAAXXZ 0000000180043380 f i libvcruntimed:frame.obj
 0001:000423e0       ?resetBuffer@HandlerMap4@FH4@@QEAAXXZ 00000001800433e0 f i libvcruntimed:frame.obj
 0001:00042400       ?setBuffer@HandlerMap4@FH4@@QEAAXI@Z 0000000180043400 f i libvcruntimed:frame.obj
 0001:00042460       __BuildCatchObject         0000000180043460 f   libvcruntimed:frame.obj
 0001:000424a0       __BuildCatchObjectHelper   00000001800434a0 f   libvcruntimed:frame.obj
 0001:000424e0       __TypeMatch                00000001800434e0 f   libvcruntimed:frame.obj
 0001:00042510       __vcrt_EncodePointer       0000000180043510 f i libvcruntimed:frame.obj
 0001:00042530       ??$?0$00@DName@@QEAA@PEBDU?$StringLifeSelector@$00@@@Z 0000000180043530 f i libvcruntimed:undname.obj
 0001:000425a0       ??$?0$00@pcharNode@@QEAA@PEBDHU?$StringLifeSelector@$00@@@Z 00000001800435a0 f i libvcruntimed:undname.obj
 0001:00042600       ??$?0$01@DName@@QEAA@PEBDU?$StringLifeSelector@$01@@@Z 0000000180043600 f i libvcruntimed:undname.obj
 0001:00042670       ??$?0$01@pcharNode@@QEAA@PEBDHU?$StringLifeSelector@$01@@@Z 0000000180043670 f i libvcruntimed:undname.obj
 0001:00042720       ??$?0$0A@@DName@@QEAA@PEBDU?$StringLifeSelector@$0A@@@@Z 0000000180043720 f i libvcruntimed:undname.obj
 0001:00042790       ??$?0$0A@@pcharNode@@QEAA@PEBDHU?$StringLifeSelector@$0A@@@@Z 0000000180043790 f i libvcruntimed:undname.obj
 0001:00042840       ??$?0_K$0A@@?$optional@_K@std@@QEAA@$$QEA_K@Z 0000000180043840 f i libvcruntimed:undname.obj
 0001:00042890       ??$?0_K@?$_Optional_construct_base@_K@std@@QEAA@Uin_place_t@1@$$QEA_K@Z 0000000180043890 f i libvcruntimed:undname.obj
 0001:000428c0       ??$?0_K@?$_Optional_destruct_base@_K$00@std@@QEAA@Uin_place_t@1@$$QEA_K@Z 00000001800438c0 f i libvcruntimed:undname.obj
 0001:00042900       ??$append@VDNameNode@@@DName@@AEAAXPEBVDNameNode@@@Z 0000000180043900 f i libvcruntimed:undname.obj
 0001:000429b0       ??$append@VDNameStatusNode@@@DName@@AEAAXPEBVDNameStatusNode@@@Z 00000001800439b0 f i libvcruntimed:undname.obj
 0001:00042a60       ??$append@VcharNode@@@DName@@AEAAXPEBVcharNode@@@Z 0000000180043a60 f i libvcruntimed:undname.obj
 0001:00042b10       ??$append@VpDNameNode@@@DName@@AEAAXPEBVpDNameNode@@@Z 0000000180043b10 f i libvcruntimed:undname.obj
 0001:00042bc0       ??$append@VpcharNode@@@DName@@AEAAXPEBVpcharNode@@@Z 0000000180043bc0 f i libvcruntimed:undname.obj
 0001:00042c70       ??$doPchar@$00@DName@@AEAAXPEBDH@Z 0000000180043c70 f i libvcruntimed:undname.obj
 0001:00042dd0       ??$doPchar@$01@DName@@AEAAXPEBDH@Z 0000000180043dd0 f i libvcruntimed:undname.obj
 0001:00042f30       ??$doPchar@$0A@@DName@@AEAAXPEBDH@Z 0000000180043f30 f i libvcruntimed:undname.obj
 0001:00043090       ??$forward@_K@std@@YA$$QEA_KAEA_K@Z 0000000180044090 f i libvcruntimed:undname.obj
 0001:000430a0       ??$size@D$04@std@@YA_KAEAY04$$CBD@Z 00000001800440a0 f i libvcruntimed:undname.obj
 0001:000430b0       ??$size@D$0EB@@std@@YA_KAEAY0EB@$$CBD@Z 00000001800440b0 f i libvcruntimed:undname.obj
 0001:000430c0       ??0?$_Optional_construct_base@_K@std@@QEAA@XZ 00000001800440c0 f i libvcruntimed:undname.obj
 0001:000430e0       ??0?$_Optional_destruct_base@_K$00@std@@QEAA@XZ 00000001800440e0 f i libvcruntimed:undname.obj
 0001:00043110       ??0?$optional@_K@std@@QEAA@XZ 0000000180044110 f i libvcruntimed:undname.obj
 0001:00043130       ??0Block@_HeapManager@@QEAA@XZ 0000000180044130 f i libvcruntimed:undname.obj
 0001:00043150       ??0DName@@QEAA@AEAPEBDD@Z  0000000180044150 f   libvcruntimed:undname.obj
 0001:00043320       ??0DName@@QEAA@AEBUStringLiteral@@@Z 0000000180044320 f   libvcruntimed:undname.obj
 0001:00043380       ??0DName@@QEAA@AEBV0@@Z    0000000180044380 f i libvcruntimed:undname.obj
 0001:000433b0       ??0DName@@QEAA@D@Z         00000001800443b0 f   libvcruntimed:undname.obj
 0001:000433f0       ??0DName@@QEAA@PEAV0@@Z    00000001800443f0 f   libvcruntimed:undname.obj
 0001:000434d0       ??0DName@@QEAA@W4DNameStatus@@@Z 00000001800444d0 f   libvcruntimed:undname.obj
 0001:00043580       ??0DName@@QEAA@XZ          0000000180044580 f i libvcruntimed:undname.obj
 0001:000435b0       ??0DName@@QEAA@_J@Z        00000001800445b0 f   libvcruntimed:undname.obj
 0001:000436c0       ??0DName@@QEAA@_K@Z        00000001800446c0 f   libvcruntimed:undname.obj
 0001:00043790       ??0DNameNode@@IEAA@XZ      0000000180044790 f i libvcruntimed:undname.obj
 0001:000437b0       ??0Replicator@@QEAA@XZ     00000001800447b0 f i libvcruntimed:undname.obj
 0001:000437f0       ??0UnDecorator@@QEAA@PEBDP6APEADJ@ZK@Z 00000001800447f0 f i libvcruntimed:undname.obj
 0001:000438a0       ??0_Nontrivial_dummy_type@std@@QEAA@XZ 00000001800448a0 f i libvcruntimed:undname.obj
 0001:000438b0       ??0charNode@@QEAA@D@Z      00000001800448b0 f i libvcruntimed:undname.obj
 0001:000438f0       ??0pDNameNode@@QEAA@PEAVDName@@@Z 00000001800448f0 f   libvcruntimed:undname.obj
 0001:00043970       ??0pairNode@@QEAA@PEBVDNameNode@@0@Z 0000000180044970 f i libvcruntimed:undname.obj
 0001:000439f0       ??2@YAPEAX_KAEAV_HeapManager@@H@Z 00000001800449f0 f   libvcruntimed:undname.obj
 0001:00043a50       ??4DName@@QEAAAEAV0@AEBUStringLiteral@@@Z 0000000180044a50 f   libvcruntimed:undname.obj
 0001:00043aa0       ??4DName@@QEAAAEAV0@AEBV0@@Z 0000000180044aa0 f   libvcruntimed:undname.obj
 0001:00043ad0       ??4DName@@QEAAAEAV0@D@Z    0000000180044ad0 f i libvcruntimed:undname.obj
 0001:00043b10       ??4DName@@QEAAAEAV0@PEAV0@@Z 0000000180044b10 f   libvcruntimed:undname.obj
 0001:00043be0       ??4DName@@QEAAAEAV0@W4DNameStatus@@@Z 0000000180044be0 f   libvcruntimed:undname.obj
 0001:00043c70       ??AReplicator@@QEBA?AVDName@@H@Z 0000000180044c70 f   libvcruntimed:undname.obj
 0001:00043d00       ??B?$optional@_K@std@@QEBA_NXZ 0000000180044d00 f i libvcruntimed:undname.obj
 0001:00043d10       ??D?$optional@_K@std@@QEGAAAEA_KXZ 0000000180044d10 f i libvcruntimed:undname.obj
 0001:00043d20       ??H@YA?AVDName@@AEBUStringLiteral@@AEBV0@@Z 0000000180044d20 f i libvcruntimed:undname.obj
 0001:00043d70       ??H@YA?AVDName@@DAEBV0@@Z  0000000180044d70 f i libvcruntimed:undname.obj
 0001:00043dc0       ??H@YA?AVDName@@W4DNameStatus@@AEBV0@@Z 0000000180044dc0 f i libvcruntimed:undname.obj
 0001:00043e10       ??HDName@@QEBA?AV0@AEBUStringLiteral@@@Z 0000000180044e10 f   libvcruntimed:undname.obj
 0001:00043e60       ??HDName@@QEBA?AV0@AEBV0@@Z 0000000180044e60 f   libvcruntimed:undname.obj
 0001:00043eb0       ??HDName@@QEBA?AV0@D@Z     0000000180044eb0 f   libvcruntimed:undname.obj
 0001:00043f00       ??HDName@@QEBA?AV0@PEAV0@@Z 0000000180044f00 f   libvcruntimed:undname.obj
 0001:00043f50       ??HDName@@QEBA?AV0@W4DNameStatus@@@Z 0000000180044f50 f   libvcruntimed:undname.obj
 0001:00043fa0       ??HStringLiteral@@QEBA?AU0@H@Z 0000000180044fa0 f i libvcruntimed:undname.obj
 0001:00043fe0       ??YDName@@QEAAAEAV0@AEBUStringLiteral@@@Z 0000000180044fe0 f   libvcruntimed:undname.obj
 0001:000440b0       ??YDName@@QEAAAEAV0@AEBV0@@Z 00000001800450b0 f   libvcruntimed:undname.obj
 0001:00044170       ??YDName@@QEAAAEAV0@D@Z    0000000180045170 f   libvcruntimed:undname.obj
 0001:00044210       ??YDName@@QEAAAEAV0@PEAV0@@Z 0000000180045210 f   libvcruntimed:undname.obj
 0001:000442f0       ??YDName@@QEAAAEAV0@W4DNameStatus@@@Z 00000001800452f0 f   libvcruntimed:undname.obj
 0001:00044360       ??YReplicator@@QEAAAEAV0@AEBVDName@@@Z 0000000180045360 f   libvcruntimed:undname.obj
 0001:00044420       ??_5DName@@QEAAAEAV0@AEBV0@@Z 0000000180045420 f   libvcruntimed:undname.obj
 0001:00044490       ??__K_l@@YA?AUStringLiteral@@PEBD_K@Z 0000000180045490 f i libvcruntimed:undname.obj
 0001:000444e0       ?Constructor@_HeapManager@@QEAAXP6APEAX_K@ZP6AXPEAX@Z@Z 00000001800454e0 f i libvcruntimed:undname.obj
 0001:00044540       ?Destructor@_HeapManager@@QEAAXXZ 0000000180045540 f i libvcruntimed:undname.obj
 0001:000445e0       ?UScore@UnDecorator@@SA?AUStringLiteral@@W4Tokens@@@Z 00000001800455e0 f   libvcruntimed:undname.obj
 0001:00044670       ?composeDeclaration@UnDecorator@@CA?AVDName@@AEBV2@@Z 0000000180045670 f i libvcruntimed:undname.obj
 0001:00046b70       ?dbGetString@DName@@QEBAPEADXZ 0000000180047b70 f   libvcruntimed:undname.obj
 0001:00046ba0       ?doAccessSpecifiers@UnDecorator@@SAHXZ 0000000180047ba0 f i libvcruntimed:undname.obj
 0001:00046bd0       ?doAllocationLanguage@UnDecorator@@SAHXZ 0000000180047bd0 f i libvcruntimed:undname.obj
 0001:00046c00       ?doAllocationModel@UnDecorator@@SAHXZ 0000000180047c00 f i libvcruntimed:undname.obj
 0001:00046c30       ?doEcsu@UnDecorator@@SAHXZ 0000000180047c30 f i libvcruntimed:undname.obj
 0001:00046c60       ?doEllipsis@UnDecorator@@SAHXZ 0000000180047c60 f i libvcruntimed:undname.obj
 0001:00046c90       ?doFunctionReturns@UnDecorator@@SAHXZ 0000000180047c90 f i libvcruntimed:undname.obj
 0001:00046cc0       ?doMSKeywords@UnDecorator@@SAHXZ 0000000180047cc0 f i libvcruntimed:undname.obj
 0001:00046cf0       ?doMemberTypes@UnDecorator@@SAHXZ 0000000180047cf0 f i libvcruntimed:undname.obj
 0001:00046d20       ?doNameOnly@UnDecorator@@SAHXZ 0000000180047d20 f i libvcruntimed:undname.obj
 0001:00046d30       ?doNoIdentCharCheck@UnDecorator@@SAHXZ 0000000180047d30 f i libvcruntimed:undname.obj
 0001:00046d40       ?doPchar@DName@@AEAAXD@Z   0000000180047d40 f   libvcruntimed:undname.obj
 0001:00046dd0       ?doPtr64@UnDecorator@@SAHXZ 0000000180047dd0 f i libvcruntimed:undname.obj
 0001:00046e00       ?doRestrictionSpec@UnDecorator@@SAHXZ 0000000180047e00 f i libvcruntimed:undname.obj
 0001:00046e30       ?doThisTypes@UnDecorator@@SAHXZ 0000000180047e30 f i libvcruntimed:undname.obj
 0001:00046e60       ?doThrowTypes@UnDecorator@@SAHXZ 0000000180047e60 f i libvcruntimed:undname.obj
 0001:00046e90       ?doTypeOnly@UnDecorator@@SAHXZ 0000000180047e90 f i libvcruntimed:undname.obj
 0001:00046ea0       ?doUnderScore@UnDecorator@@SAHXZ 0000000180047ea0 f i libvcruntimed:undname.obj
 0001:00046ed0       ?getArgumentList@UnDecorator@@CA?AVDName@@XZ 0000000180047ed0 f   libvcruntimed:undname.obj
 0001:00047070       ?getArgumentTypes@UnDecorator@@CA?AVDName@@XZ 0000000180048070 f   libvcruntimed:undname.obj
 0001:000473d0       ?getArrayObject@UnDecorator@@CA?AVDName@@XZ 00000001800483d0 f   libvcruntimed:undname.obj
 0001:000474f0       ?getArrayType@UnDecorator@@CA?AVDName@@AEBV2@@Z 00000001800484f0 f i libvcruntimed:undname.obj
 0001:000478b0       ?getBasedType@UnDecorator@@CA?AVDName@@XZ 00000001800488b0 f   libvcruntimed:undname.obj
 0001:00047a20       ?getBasicDataType@UnDecorator@@CA?AVDName@@AEBV2@@Z 0000000180048a20 f   libvcruntimed:undname.obj
 0001:000486f0       ?getCHPEName@UnDecorator@@QEAAPEADPEADH@Z 00000001800496f0 f i libvcruntimed:undname.obj
 0001:000488c0       ?getCallIndex@UnDecorator@@CA?AVDName@@XZ 00000001800498c0 f i libvcruntimed:undname.obj
 0001:000488e0       ?getCallingConvention@UnDecorator@@CA?AVDName@@XZ 00000001800498e0 f   libvcruntimed:undname.obj
 0001:00048c80       ?getDataIndirectType@UnDecorator@@CA?AVDName@@AEBV2@W4IndirectionKind@@0H@Z 0000000180049c80 f   libvcruntimed:undname.obj
 0001:00049920       ?getDataIndirectType@UnDecorator@@CA?AVDName@@XZ 000000018004a920 f i libvcruntimed:undname.obj
 0001:00049970       ?getDataType@UnDecorator@@CA?AVDName@@PEAV2@@Z 000000018004a970 f   libvcruntimed:undname.obj
 0001:00049b50       ?getDecoratedName@UnDecorator@@CA?AVDName@@XZ 000000018004ab50 f   libvcruntimed:undname.obj
 0001:0004a040       ?getDimension@UnDecorator@@CA?AVDName@@_N@Z 000000018004b040 f   libvcruntimed:undname.obj
 0001:0004a350       ?getDispatchTarget@UnDecorator@@CA?AVDName@@XZ 000000018004b350 f   libvcruntimed:undname.obj
 0001:0004a420       ?getDisplacement@UnDecorator@@CA?AVDName@@XZ 000000018004b420 f i libvcruntimed:undname.obj
 0001:0004a440       ?getECSUDataType@UnDecorator@@CA?AVDName@@XZ 000000018004b440 f   libvcruntimed:undname.obj
 0001:0004a7d0       ?getECSUName@UnDecorator@@CA?AVDName@@XZ 000000018004b7d0 f i libvcruntimed:undname.obj
 0001:0004a7f0       ?getEnumType@UnDecorator@@CA?AVDName@@XZ 000000018004b7f0 f i libvcruntimed:undname.obj
 0001:0004aa80       ?getExtendedDataIndirectType@UnDecorator@@CA?AVDName@@AEAW4IndirectionKind@@AEA_NH@Z 000000018004ba80 f   libvcruntimed:undname.obj
 0001:0004ada0       ?getExternalDataType@UnDecorator@@CA?AVDName@@AEBV2@@Z 000000018004bda0 f i libvcruntimed:undname.obj
 0001:0004ae80       ?getFloatingPoint@UnDecorator@@CA?AVDName@@H@Z 000000018004be80 f   libvcruntimed:undname.obj
 0001:0004b0f0       ?getFunctionIndirectType@UnDecorator@@CA?AVDName@@AEBV2@@Z 000000018004c0f0 f   libvcruntimed:undname.obj
 0001:0004b720       ?getGuardNumber@UnDecorator@@CA?AVDName@@XZ 000000018004c720 f i libvcruntimed:undname.obj
 0001:0004b740       ?getLastChar@DName@@QEBADXZ 000000018004c740 f i libvcruntimed:undname.obj
 0001:0004b790       ?getLastChar@DNameStatusNode@@UEBADXZ 000000018004c790 f i libvcruntimed:undname.obj
 0001:0004b7d0       ?getLastChar@charNode@@UEBADXZ 000000018004c7d0 f i libvcruntimed:undname.obj
 0001:0004b7e0       ?getLastChar@pDNameNode@@UEBADXZ 000000018004c7e0 f i libvcruntimed:undname.obj
 0001:0004b820       ?getLastChar@pairNode@@UEBADXZ 000000018004c820 f i libvcruntimed:undname.obj
 0001:0004b8a0       ?getLastChar@pcharNode@@UEBADXZ 000000018004c8a0 f i libvcruntimed:undname.obj
 0001:0004b8e0       ?getLexicalFrame@UnDecorator@@CA?AVDName@@XZ 000000018004c8e0 f i libvcruntimed:undname.obj
 0001:0004b930       ?getMemoryWithBuffer@_HeapManager@@QEAAPEAX_K@Z 000000018004c930 f   libvcruntimed:undname.obj
 0001:0004ba80       ?getMemoryWithoutBuffer@_HeapManager@@QEAAPEAX_K@Z 000000018004ca80 f   libvcruntimed:undname.obj
 0001:0004bad0       ?getNoexcept@UnDecorator@@CA?AVDName@@XZ 000000018004cad0 f   libvcruntimed:undname.obj
 0001:0004bb80       ?getNumberOfDimensions@UnDecorator@@CAHXZ 000000018004cb80 f   libvcruntimed:undname.obj
 0001:0004bca0       ?getOperatorName@UnDecorator@@CA?AVDName@@_NPEA_N@Z 000000018004cca0 f i libvcruntimed:undname.obj
 0001:0004cbb0       ?getPointerType@UnDecorator@@CA?AVDName@@AEBV2@0@Z 000000018004dbb0 f i libvcruntimed:undname.obj
 0001:0004cbf0       ?getPointerTypeArray@UnDecorator@@CA?AVDName@@AEBV2@0@Z 000000018004dbf0 f i libvcruntimed:undname.obj
 0001:0004cc30       ?getPrimaryDataType@UnDecorator@@CA?AVDName@@AEBV2@@Z 000000018004dc30 f   libvcruntimed:undname.obj
 0001:0004d260       ?getPtrRefDataType@UnDecorator@@CA?AVDName@@AEBV2@H@Z 000000018004e260 f   libvcruntimed:undname.obj
 0001:0004d650       ?getPtrRefType@UnDecorator@@CA?AVDName@@AEBV2@0W4IndirectionKind@@@Z 000000018004e650 f   libvcruntimed:undname.obj
 0001:0004d890       ?getReferenceType@UnDecorator@@CA?AVDName@@AEBV2@0W4IndirectionKind@@@Z 000000018004e890 f i libvcruntimed:undname.obj
 0001:0004d8d0       ?getRestrictionSpec@UnDecorator@@CA?AVDName@@XZ 000000018004e8d0 f   libvcruntimed:undname.obj
 0001:0004db60       ?getReturnType@UnDecorator@@CA?AVDName@@PEAV2@@Z 000000018004eb60 f   libvcruntimed:undname.obj
 0001:0004dbc0       ?getScope@UnDecorator@@CA?AVDName@@XZ 000000018004ebc0 f   libvcruntimed:undname.obj
 0001:0004e310       ?getScopedName@UnDecorator@@CA?AVDName@@XZ 000000018004f310 f   libvcruntimed:undname.obj
 0001:0004e510       ?getSignedDimension@UnDecorator@@CA?AVDName@@XZ 000000018004f510 f   libvcruntimed:undname.obj
 0001:0004e5a0       ?getStorageConvention@UnDecorator@@CA?AVDName@@XZ 000000018004f5a0 f i libvcruntimed:undname.obj
 0001:0004e5c0       ?getString@DName@@QEBAPEADPEAD0@Z 000000018004f5c0 f i libvcruntimed:undname.obj
 0001:0004e640       ?getString@DName@@QEBAPEADPEADH@Z 000000018004f640 f i libvcruntimed:undname.obj
 0001:0004e700       ?getString@DNameStatusNode@@UEBAPEADPEAD0@Z 000000018004f700 f i libvcruntimed:undname.obj
 0001:0004e750       ?getString@charNode@@UEBAPEADPEAD0@Z 000000018004f750 f i libvcruntimed:undname.obj
 0001:0004e790       ?getString@pDNameNode@@UEBAPEADPEAD0@Z 000000018004f790 f i libvcruntimed:undname.obj
 0001:0004e7f0       ?getString@pairNode@@UEBAPEADPEAD0@Z 000000018004f7f0 f i libvcruntimed:undname.obj
 0001:0004e8c0       ?getString@pcharNode@@UEBAPEADPEAD0@Z 000000018004f8c0 f i libvcruntimed:undname.obj
 0001:0004e900       ?getStringEncoding@UnDecorator@@CA?AVDName@@W4PrefixKind@@H@Z 000000018004f900 f   libvcruntimed:undname.obj
 0001:0004ea60       ?getStringHelper@@YAPEADPEADPEBD1H@Z 000000018004fa60 f i libvcruntimed:undname.obj
 0001:0004ead0       ?getStringObject@UnDecorator@@CA?AVDName@@XZ 000000018004fad0 f   libvcruntimed:undname.obj
 0001:0004ebb0       ?getSymbolName@UnDecorator@@CA?AVDName@@XZ 000000018004fbb0 f i libvcruntimed:undname.obj
 0001:0004ec50       ?getTemplateArgumentList@UnDecorator@@CA?AVDName@@XZ 000000018004fc50 f   libvcruntimed:undname.obj
 0001:0004ef90       ?getTemplateName@UnDecorator@@CA?AVDName@@_N@Z 000000018004ff90 f   libvcruntimed:undname.obj
 0001:0004f1d0       ?getTemplateNonTypeArgument@UnDecorator@@CA?AVDName@@XZ 00000001800501d0 f   libvcruntimed:undname.obj
 0001:0004f8f0       ?getTemplateTypeArgument@UnDecorator@@CA?AVDName@@XZ 00000001800508f0 f   libvcruntimed:undname.obj
 0001:0004fb60       ?getThisType@UnDecorator@@CA?AVDName@@XZ 0000000180050b60 f i libvcruntimed:undname.obj
 0001:0004fbb0       ?getThrowTypes@UnDecorator@@CA?AVDName@@XZ 0000000180050bb0 f   libvcruntimed:undname.obj
 0001:0004fc00       ?getTypeEncoding@UnDecorator@@CAHXZ 0000000180050c00 f i libvcruntimed:undname.obj
 0001:00050830       ?getUndecoratedName@UnDecorator@@QEAAPEADPEADH@Z 0000000180051830 f i libvcruntimed:undname.obj
 0001:00050a20       ?getVCallThunkType@UnDecorator@@CA?AVDName@@XZ 0000000180051a20 f i libvcruntimed:undname.obj
 0001:00050ad0       ?getValue@UnDecorator@@CA?AV?$optional@_K@std@@XZ 0000000180051ad0 f   libvcruntimed:undname.obj
 0001:00050ba0       ?getValueObject@UnDecorator@@CA?AVDName@@XZ 0000000180051ba0 f   libvcruntimed:undname.obj
 0001:00050d90       ?getVbTableType@UnDecorator@@CA?AVDName@@AEBV2@@Z 0000000180051d90 f i libvcruntimed:undname.obj
 0001:00050dc0       ?getVdispMapType@UnDecorator@@CA?AVDName@@AEBV2@@Z 0000000180051dc0 f i libvcruntimed:undname.obj
 0001:00050e80       ?getVfTableType@UnDecorator@@CA?AVDName@@AEBV2@@Z 0000000180051e80 f i libvcruntimed:undname.obj
 0001:00051120       ?getZName@UnDecorator@@CA?AVDName@@_N0@Z 0000000180052120 f   libvcruntimed:undname.obj
 0001:000515b0       ?haveTemplateParameters@UnDecorator@@SAHXZ 00000001800525b0 f i libvcruntimed:undname.obj
 0001:000515c0       ?isArray@DName@@QEBAHXZ    00000001800525c0 f i libvcruntimed:undname.obj
 0001:000515e0       ?isComArray@DName@@QEBAHXZ 00000001800525e0 f i libvcruntimed:undname.obj
 0001:00051600       ?isEmpty@DName@@QEBAHXZ    0000000180052600 f i libvcruntimed:undname.obj
 0001:00051630       ?isFull@Replicator@@QEBAHXZ 0000000180052630 f i libvcruntimed:undname.obj
 0001:00051660       ?isNoTE@DName@@QEBAHXZ     0000000180052660 f i libvcruntimed:undname.obj
 0001:00051680       ?isPinPtr@DName@@QEBAHXZ   0000000180052680 f i libvcruntimed:undname.obj
 0001:000516a0       ?isPtrRef@DName@@QEBAHXZ   00000001800526a0 f i libvcruntimed:undname.obj
 0001:000516c0       ?isUDC@DName@@QEBAHXZ      00000001800526c0 f i libvcruntimed:undname.obj
 0001:00051710       ?isUDTThunk@DName@@QEBAHXZ 0000000180052710 f i libvcruntimed:undname.obj
 0001:00051760       ?isVCallThunk@DName@@QEBAHXZ 0000000180052760 f i libvcruntimed:undname.obj
 0001:00051780       ?isValid@DName@@QEBAHXZ    0000000180052780 f i libvcruntimed:undname.obj
 0001:000517c0       ?length@DName@@QEBAHXZ     00000001800527c0 f i libvcruntimed:undname.obj
 0001:00051810       ?length@DNameStatusNode@@UEBAHXZ 0000000180052810 f i libvcruntimed:undname.obj
 0001:00051820       ?length@charNode@@UEBAHXZ  0000000180052820 f i libvcruntimed:undname.obj
 0001:00051830       ?length@pDNameNode@@UEBAHXZ 0000000180052830 f i libvcruntimed:undname.obj
 0001:00051870       ?length@pairNode@@UEBAHXZ  0000000180052870 f i libvcruntimed:undname.obj
 0001:00051900       ?length@pcharNode@@UEBAHXZ 0000000180052900 f i libvcruntimed:undname.obj
 0001:00051910       ?make@DNameStatusNode@@SAPEBV1@W4DNameStatus@@@Z 0000000180052910 f i libvcruntimed:undname.obj
 0001:00051960       ?parseDecoratedName@UnDecorator@@CA?AVDName@@XZ 0000000180052960 f   libvcruntimed:undname.obj
 0001:00051b50       ?raw_length@DNameStatusNode@@UEBAHXZ 0000000180052b50 f i libvcruntimed:undname.obj
 0001:00051b70       ?raw_length@charNode@@UEBAHXZ 0000000180052b70 f i libvcruntimed:undname.obj
 0001:00051b90       ?raw_length@pDNameNode@@UEBAHXZ 0000000180052b90 f i libvcruntimed:undname.obj
 0001:00051ba0       ?raw_length@pairNode@@UEBAHXZ 0000000180052ba0 f i libvcruntimed:undname.obj
 0001:00051bb0       ?raw_length@pcharNode@@UEBAHXZ 0000000180052bb0 f i libvcruntimed:undname.obj
 0001:00051bd0       ?setIsArray@DName@@QEAAXXZ 0000000180052bd0 f i libvcruntimed:undname.obj
 0001:00051bf0       ?setIsComArray@DName@@QEAAXXZ 0000000180052bf0 f i libvcruntimed:undname.obj
 0001:00051c10       ?setIsNoTE@DName@@QEAAXXZ  0000000180052c10 f i libvcruntimed:undname.obj
 0001:00051c30       ?setIsPinPtr@DName@@QEAAXXZ 0000000180052c30 f i libvcruntimed:undname.obj
 0001:00051c50       ?setIsUDC@DName@@QEAAXXZ   0000000180052c50 f i libvcruntimed:undname.obj
 0001:00051c80       ?setIsVCallThunk@DName@@QEAAXXZ 0000000180052c80 f i libvcruntimed:undname.obj
 0001:00051ca0       ?setPtrRef@DName@@QEAAAEAV1@XZ 0000000180052ca0 f i libvcruntimed:undname.obj
 0001:00051cc0       ?status@DName@@QEBA?AW4DNameStatus@@XZ 0000000180052cc0 f i libvcruntimed:undname.obj
 0001:00051df0       __unDName                  0000000180052df0 f   libvcruntimed:undname.obj
 0001:00051e50       __unDNameEx                0000000180052e50 f   libvcruntimed:undname.obj
 0001:00051f10       unDNameGenerateCHPE        0000000180052f10 f   libvcruntimed:undname.obj
 0001:00051fc0       ??$__crt_interlocked_exchange_pointer@UHINSTANCE__@@PEAU1@@@YAPEAUHINSTANCE__@@PEDSEAU0@QEAU0@@Z 0000000180052fc0 f i libvcruntimed:winapi_downlevel.obj
 0001:00051fe0       ??$__crt_interlocked_exchange_pointer@UHINSTANCE__@@PEAX@@YAPEAUHINSTANCE__@@PEDSEAU0@QEAX@Z 0000000180052fe0 f i libvcruntimed:winapi_downlevel.obj
 0001:00052000       ??$__crt_interlocked_exchange_pointer@XPEAX@@YAPEAXPEDSEAXQEAX@Z 0000000180053000 f i libvcruntimed:winapi_downlevel.obj
 0001:00052020       ??$__crt_interlocked_read_pointer@UHINSTANCE__@@@@YAPEAUHINSTANCE__@@PEDSEAU0@@Z 0000000180053020 f i libvcruntimed:winapi_downlevel.obj
 0001:00052040       ??$__crt_interlocked_read_pointer@X@@YAPEAXPEDSEAX@Z 0000000180053040 f i libvcruntimed:winapi_downlevel.obj
 0001:00052550       __vcrt_FlsAlloc            0000000180053550 f   libvcruntimed:winapi_downlevel.obj
 0001:000525a0       __vcrt_FlsFree             00000001800535a0 f   libvcruntimed:winapi_downlevel.obj
 0001:000525f0       __vcrt_FlsGetValue         00000001800535f0 f   libvcruntimed:winapi_downlevel.obj
 0001:00052640       __vcrt_FlsSetValue         0000000180053640 f   libvcruntimed:winapi_downlevel.obj
 0001:000526a0       __vcrt_InitializeCriticalSectionEx 00000001800536a0 f   libvcruntimed:winapi_downlevel.obj
 0001:00052720       _CallSettingFrame          0000000180053720 f   libvcruntimed:handlers.obj
 0001:00052770       _CallSettingFrame_LookupContinuationIndex 0000000180053770 f   libvcruntimed:handlers.obj
 0001:000527a0       _CallSettingFrame_NotifyContinuationAddr 00000001800537a0 f   libvcruntimed:handlers.obj
 0001:000527d0       _CallSettingFrameEncoded   00000001800537d0 f   libvcruntimed:handlers.obj
 0001:00052820       ??$?0AEBV?$stream_output_adapter@D@__crt_stdio_output@@AEB_KAEBQEBDAEBQEAU__crt_locale_pointers@@AEBQEAD@?$format_validation_base@DV?$stream_output_adapter@D@__crt_stdio_output@@@__crt_stdio_output@@IEAA@AEBV?$stream_output_adapter@D@1@AEB_KAEBQEBDAEBQEAU__crt_locale_pointers@@AEBQEAD@Z 0000000180053820 f i libucrtd:output.obj
 0001:00052870       ??$?0AEBV?$stream_output_adapter@D@__crt_stdio_output@@AEB_KAEBQEBDAEBQEAU__crt_locale_pointers@@AEBQEAD@?$positional_parameter_base@DV?$stream_output_adapter@D@__crt_stdio_output@@@__crt_stdio_output@@IEAA@AEBV?$stream_output_adapter@D@1@AEB_KAEBQEBDAEBQEAU__crt_locale_pointers@@AEBQEAD@Z 0000000180053870 f i libucrtd:output.obj
 0001:00052910       ??$?0AEBV?$stream_output_adapter@D@__crt_stdio_output@@AEB_KAEBQEBDAEBQEAU__crt_locale_pointers@@AEBQEAD@?$standard_base@DV?$stream_output_adapter@D@__crt_stdio_output@@@__crt_stdio_output@@IEAA@AEBV?$stream_output_adapter@D@1@AEB_KAEBQEBDAEBQEAU__crt_locale_pointers@@AEBQEAD@Z 0000000180053910 f i libucrtd:output.obj
 0001:00052980       ??$?0AEBV?$stream_output_adapter@_W@__crt_stdio_output@@AEB_KAEBQEB_WAEBQEAU__crt_locale_pointers@@AEBQEAD@?$format_validation_base@_WV?$stream_output_adapter@_W@__crt_stdio_output@@@__crt_stdio_output@@IEAA@AEBV?$stream_output_adapter@_W@1@AEB_KAEBQEB_WAEBQEAU__crt_locale_pointers@@AEBQEAD@Z 0000000180053980 f i libucrtd:output.obj
 0001:000529d0       ??$?0AEBV?$stream_output_adapter@_W@__crt_stdio_output@@AEB_KAEBQEB_WAEBQEAU__crt_locale_pointers@@AEBQEAD@?$positional_parameter_base@_WV?$stream_output_adapter@_W@__crt_stdio_output@@@__crt_stdio_output@@IEAA@AEBV?$stream_output_adapter@_W@1@AEB_KAEBQEB_WAEBQEAU__crt_locale_pointers@@AEBQEAD@Z 00000001800539d0 f i libucrtd:output.obj
 0001:00052a70       ??$?0AEBV?$stream_output_adapter@_W@__crt_stdio_output@@AEB_KAEBQEB_WAEBQEAU__crt_locale_pointers@@AEBQEAD@?$standard_base@_WV?$stream_output_adapter@_W@__crt_stdio_output@@@__crt_stdio_output@@IEAA@AEBV?$stream_output_adapter@_W@1@AEB_KAEBQEB_WAEBQEAU__crt_locale_pointers@@AEBQEAD@Z 0000000180053a70 f i libucrtd:output.obj
 0001:00052ae0       ??$?0AEBV?$string_output_adapter@D@__crt_stdio_output@@AEB_KAEBQEBDAEBQEAU__crt_locale_pointers@@AEBQEAD@?$format_validation_base@DV?$string_output_adapter@D@__crt_stdio_output@@@__crt_stdio_output@@IEAA@AEBV?$string_output_adapter@D@1@AEB_KAEBQEBDAEBQEAU__crt_locale_pointers@@AEBQEAD@Z 0000000180053ae0 f i libucrtd:output.obj
 0001:00052b30       ??$?0AEBV?$string_output_adapter@D@__crt_stdio_output@@AEB_KAEBQEBDAEBQEAU__crt_locale_pointers@@AEBQEAD@?$positional_parameter_base@DV?$string_output_adapter@D@__crt_stdio_output@@@__crt_stdio_output@@IEAA@AEBV?$string_output_adapter@D@1@AEB_KAEBQEBDAEBQEAU__crt_locale_pointers@@AEBQEAD@Z 0000000180053b30 f i libucrtd:output.obj
 0001:00052bd0       ??$?0AEBV?$string_output_adapter@D@__crt_stdio_output@@AEB_KAEBQEBDAEBQEAU__crt_locale_pointers@@AEBQEAD@?$standard_base@DV?$string_output_adapter@D@__crt_stdio_output@@@__crt_stdio_output@@IEAA@AEBV?$string_output_adapter@D@1@AEB_KAEBQEBDAEBQEAU__crt_locale_pointers@@AEBQEAD@Z 0000000180053bd0 f i libucrtd:output.obj
 0001:00052c40       ??$?0AEBV?$string_output_adapter@_W@__crt_stdio_output@@AEB_KAEBQEB_WAEBQEAU__crt_locale_pointers@@AEBQEAD@?$format_validation_base@_WV?$string_output_adapter@_W@__crt_stdio_output@@@__crt_stdio_output@@IEAA@AEBV?$string_output_adapter@_W@1@AEB_KAEBQEB_WAEBQEAU__crt_locale_pointers@@AEBQEAD@Z 0000000180053c40 f i libucrtd:output.obj
 0001:00052c90       ??$?0AEBV?$string_output_adapter@_W@__crt_stdio_output@@AEB_KAEBQEB_WAEBQEAU__crt_locale_pointers@@AEBQEAD@?$positional_parameter_base@_WV?$string_output_adapter@_W@__crt_stdio_output@@@__crt_stdio_output@@IEAA@AEBV?$string_output_adapter@_W@1@AEB_KAEBQEB_WAEBQEAU__crt_locale_pointers@@AEBQEAD@Z 0000000180053c90 f i libucrtd:output.obj
 0001:00052d30       ??$?0AEBV?$string_output_adapter@_W@__crt_stdio_output@@AEB_KAEBQEB_WAEBQEAU__crt_locale_pointers@@AEBQEAD@?$standard_base@_WV?$string_output_adapter@_W@__crt_stdio_output@@@__crt_stdio_output@@IEAA@AEBV?$string_output_adapter@_W@1@AEB_KAEBQEB_WAEBQEAU__crt_locale_pointers@@AEBQEAD@Z 0000000180053d30 f i libucrtd:output.obj
 0001:00053160       ??$__crt_interlocked_read@J@@YAJPEDJ@Z 0000000180054160 f i libucrtd:output.obj
 0001:00056c40       ??$count@D@formatting_buffer@__crt_stdio_output@@QEBA_KXZ 0000000180057c40 f i libucrtd:output.obj
 0001:00056c90       ??$count@_W@formatting_buffer@__crt_stdio_output@@QEBA_KXZ 0000000180057c90 f i libucrtd:output.obj
 0001:00056ce0       ??$data@D@formatting_buffer@__crt_stdio_output@@QEAAPEADXZ 0000000180057ce0 f i libucrtd:output.obj
 0001:00056d30       ??$data@_W@formatting_buffer@__crt_stdio_output@@QEAAPEA_WXZ 0000000180057d30 f i libucrtd:output.obj
 0001:00056d80       ??$ensure_buffer_is_big_enough@D@formatting_buffer@__crt_stdio_output@@QEAA_N_K@Z 0000000180057d80 f i libucrtd:output.obj
 0001:00056eb0       ??$ensure_buffer_is_big_enough@_W@formatting_buffer@__crt_stdio_output@@QEAA_N_K@Z 0000000180057eb0 f i libucrtd:output.obj
 0001:00056fe0       ??$extract_argument_from_va_list@C_J@?$positional_parameter_base@DV?$stream_output_adapter@D@__crt_stdio_output@@@__crt_stdio_output@@IEAA_NAEA_J@Z 0000000180057fe0 f i libucrtd:output.obj
 0001:00057160       ??$extract_argument_from_va_list@C_J@?$positional_parameter_base@DV?$string_output_adapter@D@__crt_stdio_output@@@__crt_stdio_output@@IEAA_NAEA_J@Z 0000000180058160 f i libucrtd:output.obj
 0001:000572e0       ??$extract_argument_from_va_list@C_J@?$positional_parameter_base@_WV?$stream_output_adapter@_W@__crt_stdio_output@@@__crt_stdio_output@@IEAA_NAEA_J@Z 00000001800582e0 f i libucrtd:output.obj
 0001:00057460       ??$extract_argument_from_va_list@C_J@?$positional_parameter_base@_WV?$string_output_adapter@_W@__crt_stdio_output@@@__crt_stdio_output@@IEAA_NAEA_J@Z 0000000180058460 f i libucrtd:output.obj
 0001:000575e0       ??$extract_argument_from_va_list@C_J@?$standard_base@DV?$stream_output_adapter@D@__crt_stdio_output@@@__crt_stdio_output@@IEAA_NAEA_J@Z 00000001800585e0 f i libucrtd:output.obj
 0001:00057620       ??$extract_argument_from_va_list@C_J@?$standard_base@DV?$string_output_adapter@D@__crt_stdio_output@@@__crt_stdio_output@@IEAA_NAEA_J@Z 0000000180058620 f i libucrtd:output.obj
 0001:00057660       ??$extract_argument_from_va_list@C_J@?$standard_base@_WV?$stream_output_adapter@_W@__crt_stdio_output@@@__crt_stdio_output@@IEAA_NAEA_J@Z 0000000180058660 f i libucrtd:output.obj
 0001:000576a0       ??$extract_argument_from_va_list@C_J@?$standard_base@_WV?$string_output_adapter@_W@__crt_stdio_output@@@__crt_stdio_output@@IEAA_NAEA_J@Z 00000001800586a0 f i libucrtd:output.obj
 0001:000576e0       ??$extract_argument_from_va_list@E_J@?$positional_parameter_base@DV?$stream_output_adapter@D@__crt_stdio_output@@@__crt_stdio_output@@IEAA_NAEA_J@Z 00000001800586e0 f i libucrtd:output.obj
 0001:00057860       ??$extract_argument_from_va_list@E_J@?$positional_parameter_base@DV?$string_output_adapter@D@__crt_stdio_output@@@__crt_stdio_output@@IEAA_NAEA_J@Z 0000000180058860 f i libucrtd:output.obj
 0001:000579e0       ??$extract_argument_from_va_list@E_J@?$positional_parameter_base@_WV?$stream_output_adapter@_W@__crt_stdio_output@@@__crt_stdio_output@@IEAA_NAEA_J@Z 00000001800589e0 f i libucrtd:output.obj
 0001:00057b60       ??$extract_argument_from_va_list@E_J@?$positional_parameter_base@_WV?$string_output_adapter@_W@__crt_stdio_output@@@__crt_stdio_output@@IEAA_NAEA_J@Z 0000000180058b60 f i libucrtd:output.obj
 0001:00057ce0       ??$extract_argument_from_va_list@E_J@?$standard_base@DV?$stream_output_adapter@D@__crt_stdio_output@@@__crt_stdio_output@@IEAA_NAEA_J@Z 0000000180058ce0 f i libucrtd:output.obj
 0001:00057d20       ??$extract_argument_from_va_list@E_J@?$standard_base@DV?$string_output_adapter@D@__crt_stdio_output@@@__crt_stdio_output@@IEAA_NAEA_J@Z 0000000180058d20 f i libucrtd:output.obj
 0001:00057d60       ??$extract_argument_from_va_list@E_J@?$standard_base@_WV?$stream_output_adapter@_W@__crt_stdio_output@@@__crt_stdio_output@@IEAA_NAEA_J@Z 0000000180058d60 f i libucrtd:output.obj
 0001:00057da0       ??$extract_argument_from_va_list@E_J@?$standard_base@_WV?$string_output_adapter@_W@__crt_stdio_output@@@__crt_stdio_output@@IEAA_NAEA_J@Z 0000000180058da0 f i libucrtd:output.obj
 0001:00057de0       ??$extract_argument_from_va_list@F_J@?$positional_parameter_base@DV?$stream_output_adapter@D@__crt_stdio_output@@@__crt_stdio_output@@IEAA_NAEA_J@Z 0000000180058de0 f i libucrtd:output.obj
 0001:00057f60       ??$extract_argument_from_va_list@F_J@?$positional_parameter_base@DV?$string_output_adapter@D@__crt_stdio_output@@@__crt_stdio_output@@IEAA_NAEA_J@Z 0000000180058f60 f i libucrtd:output.obj
 0001:000580e0       ??$extract_argument_from_va_list@F_J@?$positional_parameter_base@_WV?$stream_output_adapter@_W@__crt_stdio_output@@@__crt_stdio_output@@IEAA_NAEA_J@Z 00000001800590e0 f i libucrtd:output.obj
 0001:00058260       ??$extract_argument_from_va_list@F_J@?$positional_parameter_base@_WV?$string_output_adapter@_W@__crt_stdio_output@@@__crt_stdio_output@@IEAA_NAEA_J@Z 0000000180059260 f i libucrtd:output.obj
 0001:000583e0       ??$extract_argument_from_va_list@F_J@?$standard_base@DV?$stream_output_adapter@D@__crt_stdio_output@@@__crt_stdio_output@@IEAA_NAEA_J@Z 00000001800593e0 f i libucrtd:output.obj
 0001:00058420       ??$extract_argument_from_va_list@F_J@?$standard_base@DV?$string_output_adapter@D@__crt_stdio_output@@@__crt_stdio_output@@IEAA_NAEA_J@Z 0000000180059420 f i libucrtd:output.obj
 0001:00058460       ??$extract_argument_from_va_list@F_J@?$standard_base@_WV?$stream_output_adapter@_W@__crt_stdio_output@@@__crt_stdio_output@@IEAA_NAEA_J@Z 0000000180059460 f i libucrtd:output.obj
 0001:000584a0       ??$extract_argument_from_va_list@F_J@?$standard_base@_WV?$string_output_adapter@_W@__crt_stdio_output@@@__crt_stdio_output@@IEAA_NAEA_J@Z 00000001800594a0 f i libucrtd:output.obj
 0001:000584e0       ??$extract_argument_from_va_list@GD@?$positional_parameter_base@DV?$stream_output_adapter@D@__crt_stdio_output@@@__crt_stdio_output@@IEAA_NAEAD@Z 00000001800594e0 f i libucrtd:output.obj
 0001:00058660       ??$extract_argument_from_va_list@GD@?$positional_parameter_base@DV?$string_output_adapter@D@__crt_stdio_output@@@__crt_stdio_output@@IEAA_NAEAD@Z 0000000180059660 f i libucrtd:output.obj
 0001:000587e0       ??$extract_argument_from_va_list@GD@?$standard_base@DV?$stream_output_adapter@D@__crt_stdio_output@@@__crt_stdio_output@@IEAA_NAEAD@Z 00000001800597e0 f i libucrtd:output.obj
 0001:00058810       ??$extract_argument_from_va_list@GD@?$standard_base@DV?$string_output_adapter@D@__crt_stdio_output@@@__crt_stdio_output@@IEAA_NAEAD@Z 0000000180059810 f i libucrtd:output.obj
 0001:00058840       ??$extract_argument_from_va_list@G_J@?$positional_parameter_base@DV?$stream_output_adapter@D@__crt_stdio_output@@@__crt_stdio_output@@IEAA_NAEA_J@Z 0000000180059840 f i libucrtd:output.obj
 0001:000589c0       ??$extract_argument_from_va_list@G_J@?$positional_parameter_base@DV?$string_output_adapter@D@__crt_stdio_output@@@__crt_stdio_output@@IEAA_NAEA_J@Z 00000001800599c0 f i libucrtd:output.obj
 0001:00058b40       ??$extract_argument_from_va_list@G_J@?$positional_parameter_base@_WV?$stream_output_adapter@_W@__crt_stdio_output@@@__crt_stdio_output@@IEAA_NAEA_J@Z 0000000180059b40 f i libucrtd:output.obj
 0001:00058cc0       ??$extract_argument_from_va_list@G_J@?$positional_parameter_base@_WV?$string_output_adapter@_W@__crt_stdio_output@@@__crt_stdio_output@@IEAA_NAEA_J@Z 0000000180059cc0 f i libucrtd:output.obj
 0001:00058e40       ??$extract_argument_from_va_list@G_J@?$standard_base@DV?$stream_output_adapter@D@__crt_stdio_output@@@__crt_stdio_output@@IEAA_NAEA_J@Z 0000000180059e40 f i libucrtd:output.obj
 0001:00058e80       ??$extract_argument_from_va_list@G_J@?$standard_base@DV?$string_output_adapter@D@__crt_stdio_output@@@__crt_stdio_output@@IEAA_NAEA_J@Z 0000000180059e80 f i libucrtd:output.obj
 0001:00058ec0       ??$extract_argument_from_va_list@G_J@?$standard_base@_WV?$stream_output_adapter@_W@__crt_stdio_output@@@__crt_stdio_output@@IEAA_NAEA_J@Z 0000000180059ec0 f i libucrtd:output.obj
 0001:00058f00       ??$extract_argument_from_va_list@G_J@?$standard_base@_WV?$string_output_adapter@_W@__crt_stdio_output@@@__crt_stdio_output@@IEAA_NAEA_J@Z 0000000180059f00 f i libucrtd:output.obj
 0001:00058f40       ??$extract_argument_from_va_list@H_J@?$positional_parameter_base@DV?$stream_output_adapter@D@__crt_stdio_output@@@__crt_stdio_output@@IEAA_NAEA_J@Z 0000000180059f40 f i libucrtd:output.obj
 0001:000590c0       ??$extract_argument_from_va_list@H_J@?$positional_parameter_base@DV?$string_output_adapter@D@__crt_stdio_output@@@__crt_stdio_output@@IEAA_NAEA_J@Z 000000018005a0c0 f i libucrtd:output.obj
 0001:00059240       ??$extract_argument_from_va_list@H_J@?$positional_parameter_base@_WV?$stream_output_adapter@_W@__crt_stdio_output@@@__crt_stdio_output@@IEAA_NAEA_J@Z 000000018005a240 f i libucrtd:output.obj
 0001:000593c0       ??$extract_argument_from_va_list@H_J@?$positional_parameter_base@_WV?$string_output_adapter@_W@__crt_stdio_output@@@__crt_stdio_output@@IEAA_NAEA_J@Z 000000018005a3c0 f i libucrtd:output.obj
 0001:00059540       ??$extract_argument_from_va_list@H_J@?$standard_base@DV?$stream_output_adapter@D@__crt_stdio_output@@@__crt_stdio_output@@IEAA_NAEA_J@Z 000000018005a540 f i libucrtd:output.obj
 0001:00059570       ??$extract_argument_from_va_list@H_J@?$standard_base@DV?$string_output_adapter@D@__crt_stdio_output@@@__crt_stdio_output@@IEAA_NAEA_J@Z 000000018005a570 f i libucrtd:output.obj
 0001:000595a0       ??$extract_argument_from_va_list@H_J@?$standard_base@_WV?$stream_output_adapter@_W@__crt_stdio_output@@@__crt_stdio_output@@IEAA_NAEA_J@Z 000000018005a5a0 f i libucrtd:output.obj
 0001:000595d0       ??$extract_argument_from_va_list@H_J@?$standard_base@_WV?$string_output_adapter@_W@__crt_stdio_output@@@__crt_stdio_output@@IEAA_NAEA_J@Z 000000018005a5d0 f i libucrtd:output.obj
 0001:00059600       ??$extract_argument_from_va_list@I_J@?$positional_parameter_base@DV?$stream_output_adapter@D@__crt_stdio_output@@@__crt_stdio_output@@IEAA_NAEA_J@Z 000000018005a600 f i libucrtd:output.obj
 0001:00059780       ??$extract_argument_from_va_list@I_J@?$positional_parameter_base@DV?$string_output_adapter@D@__crt_stdio_output@@@__crt_stdio_output@@IEAA_NAEA_J@Z 000000018005a780 f i libucrtd:output.obj
 0001:00059900       ??$extract_argument_from_va_list@I_J@?$positional_parameter_base@_WV?$stream_output_adapter@_W@__crt_stdio_output@@@__crt_stdio_output@@IEAA_NAEA_J@Z 000000018005a900 f i libucrtd:output.obj
 0001:00059a80       ??$extract_argument_from_va_list@I_J@?$positional_parameter_base@_WV?$string_output_adapter@_W@__crt_stdio_output@@@__crt_stdio_output@@IEAA_NAEA_J@Z 000000018005aa80 f i libucrtd:output.obj
 0001:00059c00       ??$extract_argument_from_va_list@I_J@?$standard_base@DV?$stream_output_adapter@D@__crt_stdio_output@@@__crt_stdio_output@@IEAA_NAEA_J@Z 000000018005ac00 f i libucrtd:output.obj
 0001:00059c30       ??$extract_argument_from_va_list@I_J@?$standard_base@DV?$string_output_adapter@D@__crt_stdio_output@@@__crt_stdio_output@@IEAA_NAEA_J@Z 000000018005ac30 f i libucrtd:output.obj
 0001:00059c60       ??$extract_argument_from_va_list@I_J@?$standard_base@_WV?$stream_output_adapter@_W@__crt_stdio_output@@@__crt_stdio_output@@IEAA_NAEA_J@Z 000000018005ac60 f i libucrtd:output.obj
 0001:00059c90       ??$extract_argument_from_va_list@I_J@?$standard_base@_WV?$string_output_adapter@_W@__crt_stdio_output@@@__crt_stdio_output@@IEAA_NAEA_J@Z 000000018005ac90 f i libucrtd:output.obj
 0001:00059cc0       ??$extract_argument_from_va_list@PEADPEAD@?$positional_parameter_base@DV?$stream_output_adapter@D@__crt_stdio_output@@@__crt_stdio_output@@IEAA_NAEAPEAD@Z 000000018005acc0 f i libucrtd:output.obj
 0001:00059e40       ??$extract_argument_from_va_list@PEADPEAD@?$positional_parameter_base@DV?$string_output_adapter@D@__crt_stdio_output@@@__crt_stdio_output@@IEAA_NAEAPEAD@Z 000000018005ae40 f i libucrtd:output.obj
 0001:00059fc0       ??$extract_argument_from_va_list@PEADPEAD@?$positional_parameter_base@_WV?$stream_output_adapter@_W@__crt_stdio_output@@@__crt_stdio_output@@IEAA_NAEAPEAD@Z 000000018005afc0 f i libucrtd:output.obj
 0001:0005a140       ??$extract_argument_from_va_list@PEADPEAD@?$positional_parameter_base@_WV?$string_output_adapter@_W@__crt_stdio_output@@@__crt_stdio_output@@IEAA_NAEAPEAD@Z 000000018005b140 f i libucrtd:output.obj
 0001:0005a2c0       ??$extract_argument_from_va_list@PEADPEAD@?$standard_base@DV?$stream_output_adapter@D@__crt_stdio_output@@@__crt_stdio_output@@IEAA_NAEAPEAD@Z 000000018005b2c0 f i libucrtd:output.obj
 0001:0005a2f0       ??$extract_argument_from_va_list@PEADPEAD@?$standard_base@DV?$string_output_adapter@D@__crt_stdio_output@@@__crt_stdio_output@@IEAA_NAEAPEAD@Z 000000018005b2f0 f i libucrtd:output.obj
 0001:0005a320       ??$extract_argument_from_va_list@PEADPEAD@?$standard_base@_WV?$stream_output_adapter@_W@__crt_stdio_output@@@__crt_stdio_output@@IEAA_NAEAPEAD@Z 000000018005b320 f i libucrtd:output.obj
 0001:0005a350       ??$extract_argument_from_va_list@PEADPEAD@?$standard_base@_WV?$string_output_adapter@_W@__crt_stdio_output@@@__crt_stdio_output@@IEAA_NAEAPEAD@Z 000000018005b350 f i libucrtd:output.obj
 0001:0005a380       ??$extract_argument_from_va_list@PEAUansi_string@?1??type_case_Z@?$output_processor@DV?$stream_output_adapter@D@__crt_stdio_output@@V?$format_validation_base@DV?$stream_output_adapter@D@__crt_stdio_output@@@2@@__crt_stdio_output@@AEAA_NXZ@PEAU1?1??234@AEAA_NXZ@@?$standard_base@DV?$stream_output_adapter@D@__crt_stdio_output@@@__crt_stdio_output@@IEAA_NAEAPEAUansi_string@?1??type_case_Z@?$output_processor@DV?$stream_output_adapter@D@__crt_stdio_output@@V?$format_validation_base@DV?$stream_output_adapter@D@__crt_stdio_output@@@2@@1@AEAA_NXZ@@Z 000000018005b380 f i libucrtd:output.obj
 0001:0005a3b0       ??$extract_argument_from_va_list@PEAUansi_string@?1??type_case_Z@?$output_processor@DV?$stream_output_adapter@D@__crt_stdio_output@@V?$positional_parameter_base@DV?$stream_output_adapter@D@__crt_stdio_output@@@2@@__crt_stdio_output@@AEAA_NXZ@PEAU1?1??234@AEAA_NXZ@@?$positional_parameter_base@DV?$stream_output_adapter@D@__crt_stdio_output@@@__crt_stdio_output@@IEAA_NAEAPEAUansi_string@?1??type_case_Z@?$output_processor@DV?$stream_output_adapter@D@__crt_stdio_output@@V?$positional_parameter_base@DV?$stream_output_adapter@D@__crt_stdio_output@@@2@@1@AEAA_NXZ@@Z 000000018005b3b0 f i libucrtd:output.obj
 0001:0005a530       ??$extract_argument_from_va_list@PEAUansi_string@?1??type_case_Z@?$output_processor@DV?$stream_output_adapter@D@__crt_stdio_output@@V?$positional_parameter_base@DV?$stream_output_adapter@D@__crt_stdio_output@@@2@@__crt_stdio_output@@AEAA_NXZ@PEAU1?1??234@AEAA_NXZ@@?$standard_base@DV?$stream_output_adapter@D@__crt_stdio_output@@@__crt_stdio_output@@IEAA_NAEAPEAUansi_string@?1??type_case_Z@?$output_processor@DV?$stream_output_adapter@D@__crt_stdio_output@@V?$positional_parameter_base@DV?$stream_output_adapter@D@__crt_stdio_output@@@2@@1@AEAA_NXZ@@Z 000000018005b530 f i libucrtd:output.obj
 0001:0005a560       ??$extract_argument_from_va_list@PEAUansi_string@?1??type_case_Z@?$output_processor@DV?$stream_output_adapter@D@__crt_stdio_output@@V?$standard_base@DV?$stream_output_adapter@D@__crt_stdio_output@@@2@@__crt_stdio_output@@AEAA_NXZ@PEAU1?1??234@AEAA_NXZ@@?$standard_base@DV?$stream_output_adapter@D@__crt_stdio_output@@@__crt_stdio_output@@IEAA_NAEAPEAUansi_string@?1??type_case_Z@?$output_processor@DV?$stream_output_adapter@D@__crt_stdio_output@@V?$standard_base@DV?$stream_output_adapter@D@__crt_stdio_output@@@2@@1@AEAA_NXZ@@Z 000000018005b560 f i libucrtd:output.obj
 0001:0005a590       ??$extract_argument_from_va_list@PEAUansi_string@?1??type_case_Z@?$output_processor@DV?$string_output_adapter@D@__crt_stdio_output@@V?$format_validation_base@DV?$string_output_adapter@D@__crt_stdio_output@@@2@@__crt_stdio_output@@AEAA_NXZ@PEAU1?1??234@AEAA_NXZ@@?$standard_base@DV?$string_output_adapter@D@__crt_stdio_output@@@__crt_stdio_output@@IEAA_NAEAPEAUansi_string@?1??type_case_Z@?$output_processor@DV?$string_output_adapter@D@__crt_stdio_output@@V?$format_validation_base@DV?$string_output_adapter@D@__crt_stdio_output@@@2@@1@AEAA_NXZ@@Z 000000018005b590 f i libucrtd:output.obj
 0001:0005a5c0       ??$extract_argument_from_va_list@PEAUansi_string@?1??type_case_Z@?$output_processor@DV?$string_output_adapter@D@__crt_stdio_output@@V?$positional_parameter_base@DV?$string_output_adapter@D@__crt_stdio_output@@@2@@__crt_stdio_output@@AEAA_NXZ@PEAU1?1??234@AEAA_NXZ@@?$positional_parameter_base@DV?$string_output_adapter@D@__crt_stdio_output@@@__crt_stdio_output@@IEAA_NAEAPEAUansi_string@?1??type_case_Z@?$output_processor@DV?$string_output_adapter@D@__crt_stdio_output@@V?$positional_parameter_base@DV?$string_output_adapter@D@__crt_stdio_output@@@2@@1@AEAA_NXZ@@Z 000000018005b5c0 f i libucrtd:output.obj
 0001:0005a740       ??$extract_argument_from_va_list@PEAUansi_string@?1??type_case_Z@?$output_processor@DV?$string_output_adapter@D@__crt_stdio_output@@V?$positional_parameter_base@DV?$string_output_adapter@D@__crt_stdio_output@@@2@@__crt_stdio_output@@AEAA_NXZ@PEAU1?1??234@AEAA_NXZ@@?$standard_base@DV?$string_output_adapter@D@__crt_stdio_output@@@__crt_stdio_output@@IEAA_NAEAPEAUansi_string@?1??type_case_Z@?$output_processor@DV?$string_output_adapter@D@__crt_stdio_output@@V?$positional_parameter_base@DV?$string_output_adapter@D@__crt_stdio_output@@@2@@1@AEAA_NXZ@@Z 000000018005b740 f i libucrtd:output.obj
 0001:0005a770       ??$extract_argument_from_va_list@PEAUansi_string@?1??type_case_Z@?$output_processor@DV?$string_output_adapter@D@__crt_stdio_output@@V?$standard_base@DV?$string_output_adapter@D@__crt_stdio_output@@@2@@__crt_stdio_output@@AEAA_NXZ@PEAU1?1??234@AEAA_NXZ@@?$standard_base@DV?$string_output_adapter@D@__crt_stdio_output@@@__crt_stdio_output@@IEAA_NAEAPEAUansi_string@?1??type_case_Z@?$output_processor@DV?$string_output_adapter@D@__crt_stdio_output@@V?$standard_base@DV?$string_output_adapter@D@__crt_stdio_output@@@2@@1@AEAA_NXZ@@Z 000000018005b770 f i libucrtd:output.obj
 0001:0005a7a0       ??$extract_argument_from_va_list@PEAUansi_string@?1??type_case_Z@?$output_processor@_WV?$stream_output_adapter@_W@__crt_stdio_output@@V?$format_validation_base@_WV?$stream_output_adapter@_W@__crt_stdio_output@@@2@@__crt_stdio_output@@AEAA_NXZ@PEAU1?1??234@AEAA_NXZ@@?$standard_base@_WV?$stream_output_adapter@_W@__crt_stdio_output@@@__crt_stdio_output@@IEAA_NAEAPEAUansi_string@?1??type_case_Z@?$output_processor@_WV?$stream_output_adapter@_W@__crt_stdio_output@@V?$format_validation_base@_WV?$stream_output_adapter@_W@__crt_stdio_output@@@2@@1@AEAA_NXZ@@Z 000000018005b7a0 f i libucrtd:output.obj
 0001:0005a7d0       ??$extract_argument_from_va_list@PEAUansi_string@?1??type_case_Z@?$output_processor@_WV?$stream_output_adapter@_W@__crt_stdio_output@@V?$positional_parameter_base@_WV?$stream_output_adapter@_W@__crt_stdio_output@@@2@@__crt_stdio_output@@AEAA_NXZ@PEAU1?1??234@AEAA_NXZ@@?$positional_parameter_base@_WV?$stream_output_adapter@_W@__crt_stdio_output@@@__crt_stdio_output@@IEAA_NAEAPEAUansi_string@?1??type_case_Z@?$output_processor@_WV?$stream_output_adapter@_W@__crt_stdio_output@@V?$positional_parameter_base@_WV?$stream_output_adapter@_W@__crt_stdio_output@@@2@@1@AEAA_NXZ@@Z 000000018005b7d0 f i libucrtd:output.obj
 0001:0005a950       ??$extract_argument_from_va_list@PEAUansi_string@?1??type_case_Z@?$output_processor@_WV?$stream_output_adapter@_W@__crt_stdio_output@@V?$positional_parameter_base@_WV?$stream_output_adapter@_W@__crt_stdio_output@@@2@@__crt_stdio_output@@AEAA_NXZ@PEAU1?1??234@AEAA_NXZ@@?$standard_base@_WV?$stream_output_adapter@_W@__crt_stdio_output@@@__crt_stdio_output@@IEAA_NAEAPEAUansi_string@?1??type_case_Z@?$output_processor@_WV?$stream_output_adapter@_W@__crt_stdio_output@@V?$positional_parameter_base@_WV?$stream_output_adapter@_W@__crt_stdio_output@@@2@@1@AEAA_NXZ@@Z 000000018005b950 f i libucrtd:output.obj
 0001:0005a980       ??$extract_argument_from_va_list@PEAUansi_string@?1??type_case_Z@?$output_processor@_WV?$stream_output_adapter@_W@__crt_stdio_output@@V?$standard_base@_WV?$stream_output_adapter@_W@__crt_stdio_output@@@2@@__crt_stdio_output@@AEAA_NXZ@PEAU1?1??234@AEAA_NXZ@@?$standard_base@_WV?$stream_output_adapter@_W@__crt_stdio_output@@@__crt_stdio_output@@IEAA_NAEAPEAUansi_string@?1??type_case_Z@?$output_processor@_WV?$stream_output_adapter@_W@__crt_stdio_output@@V?$standard_base@_WV?$stream_output_adapter@_W@__crt_stdio_output@@@2@@1@AEAA_NXZ@@Z 000000018005b980 f i libucrtd:output.obj
 0001:0005a9b0       ??$extract_argument_from_va_list@PEAUansi_string@?1??type_case_Z@?$output_processor@_WV?$string_output_adapter@_W@__crt_stdio_output@@V?$format_validation_base@_WV?$string_output_adapter@_W@__crt_stdio_output@@@2@@__crt_stdio_output@@AEAA_NXZ@PEAU1?1??234@AEAA_NXZ@@?$standard_base@_WV?$string_output_adapter@_W@__crt_stdio_output@@@__crt_stdio_output@@IEAA_NAEAPEAUansi_string@?1??type_case_Z@?$output_processor@_WV?$string_output_adapter@_W@__crt_stdio_output@@V?$format_validation_base@_WV?$string_output_adapter@_W@__crt_stdio_output@@@2@@1@AEAA_NXZ@@Z 000000018005b9b0 f i libucrtd:output.obj
 0001:0005a9e0       ??$extract_argument_from_va_list@PEAUansi_string@?1??type_case_Z@?$output_processor@_WV?$string_output_adapter@_W@__crt_stdio_output@@V?$positional_parameter_base@_WV?$string_output_adapter@_W@__crt_stdio_output@@@2@@__crt_stdio_output@@AEAA_NXZ@PEAU1?1??234@AEAA_NXZ@@?$positional_parameter_base@_WV?$string_output_adapter@_W@__crt_stdio_output@@@__crt_stdio_output@@IEAA_NAEAPEAUansi_string@?1??type_case_Z@?$output_processor@_WV?$string_output_adapter@_W@__crt_stdio_output@@V?$positional_parameter_base@_WV?$string_output_adapter@_W@__crt_stdio_output@@@2@@1@AEAA_NXZ@@Z 000000018005b9e0 f i libucrtd:output.obj
 0001:0005ab60       ??$extract_argument_from_va_list@PEAUansi_string@?1??type_case_Z@?$output_processor@_WV?$string_output_adapter@_W@__crt_stdio_output@@V?$positional_parameter_base@_WV?$string_output_adapter@_W@__crt_stdio_output@@@2@@__crt_stdio_output@@AEAA_NXZ@PEAU1?1??234@AEAA_NXZ@@?$standard_base@_WV?$string_output_adapter@_W@__crt_stdio_output@@@__crt_stdio_output@@IEAA_NAEAPEAUansi_string@?1??type_case_Z@?$output_processor@_WV?$string_output_adapter@_W@__crt_stdio_output@@V?$positional_parameter_base@_WV?$string_output_adapter@_W@__crt_stdio_output@@@2@@1@AEAA_NXZ@@Z 000000018005bb60 f i libucrtd:output.obj
 0001:0005ab90       ??$extract_argument_from_va_list@PEAUansi_string@?1??type_case_Z@?$output_processor@_WV?$string_output_adapter@_W@__crt_stdio_output@@V?$standard_base@_WV?$string_output_adapter@_W@__crt_stdio_output@@@2@@__crt_stdio_output@@AEAA_NXZ@PEAU1?1??234@AEAA_NXZ@@?$standard_base@_WV?$string_output_adapter@_W@__crt_stdio_output@@@__crt_stdio_output@@IEAA_NAEAPEAUansi_string@?1??type_case_Z@?$output_processor@_WV?$string_output_adapter@_W@__crt_stdio_output@@V?$standard_base@_WV?$string_output_adapter@_W@__crt_stdio_output@@@2@@1@AEAA_NXZ@@Z 000000018005bb90 f i libucrtd:output.obj
 0001:0005abc0       ??$extract_argument_from_va_list@PEAXPEAX@?$positional_parameter_base@DV?$stream_output_adapter@D@__crt_stdio_output@@@__crt_stdio_output@@IEAA_NAEAPEAX@Z 000000018005bbc0 f i libucrtd:output.obj
 0001:0005ad40       ??$extract_argument_from_va_list@PEAXPEAX@?$positional_parameter_base@DV?$string_output_adapter@D@__crt_stdio_output@@@__crt_stdio_output@@IEAA_NAEAPEAX@Z 000000018005bd40 f i libucrtd:output.obj
 0001:0005aec0       ??$extract_argument_from_va_list@PEAXPEAX@?$positional_parameter_base@_WV?$stream_output_adapter@_W@__crt_stdio_output@@@__crt_stdio_output@@IEAA_NAEAPEAX@Z 000000018005bec0 f i libucrtd:output.obj
 0001:0005b040       ??$extract_argument_from_va_list@PEAXPEAX@?$positional_parameter_base@_WV?$string_output_adapter@_W@__crt_stdio_output@@@__crt_stdio_output@@IEAA_NAEAPEAX@Z 000000018005c040 f i libucrtd:output.obj
 0001:0005b1c0       ??$extract_argument_from_va_list@PEAXPEAX@?$standard_base@DV?$stream_output_adapter@D@__crt_stdio_output@@@__crt_stdio_output@@IEAA_NAEAPEAX@Z 000000018005c1c0 f i libucrtd:output.obj
 0001:0005b1f0       ??$extract_argument_from_va_list@PEAXPEAX@?$standard_base@DV?$string_output_adapter@D@__crt_stdio_output@@@__crt_stdio_output@@IEAA_NAEAPEAX@Z 000000018005c1f0 f i libucrtd:output.obj
 0001:0005b220       ??$extract_argument_from_va_list@PEAXPEAX@?$standard_base@_WV?$stream_output_adapter@_W@__crt_stdio_output@@@__crt_stdio_output@@IEAA_NAEAPEAX@Z 000000018005c220 f i libucrtd:output.obj
 0001:0005b250       ??$extract_argument_from_va_list@PEAXPEAX@?$standard_base@_WV?$string_output_adapter@_W@__crt_stdio_output@@@__crt_stdio_output@@IEAA_NAEAPEAX@Z 000000018005c250 f i libucrtd:output.obj
 0001:0005b280       ??$extract_argument_from_va_list@U_CRT_DOUBLE@@U1@@?$positional_parameter_base@DV?$stream_output_adapter@D@__crt_stdio_output@@@__crt_stdio_output@@IEAA_NAEAU_CRT_DOUBLE@@@Z 000000018005c280 f i libucrtd:output.obj
 0001:0005b420       ??$extract_argument_from_va_list@U_CRT_DOUBLE@@U1@@?$positional_parameter_base@DV?$string_output_adapter@D@__crt_stdio_output@@@__crt_stdio_output@@IEAA_NAEAU_CRT_DOUBLE@@@Z 000000018005c420 f i libucrtd:output.obj
 0001:0005b5c0       ??$extract_argument_from_va_list@U_CRT_DOUBLE@@U1@@?$positional_parameter_base@_WV?$stream_output_adapter@_W@__crt_stdio_output@@@__crt_stdio_output@@IEAA_NAEAU_CRT_DOUBLE@@@Z 000000018005c5c0 f i libucrtd:output.obj
 0001:0005b760       ??$extract_argument_from_va_list@U_CRT_DOUBLE@@U1@@?$positional_parameter_base@_WV?$string_output_adapter@_W@__crt_stdio_output@@@__crt_stdio_output@@IEAA_NAEAU_CRT_DOUBLE@@@Z 000000018005c760 f i libucrtd:output.obj
 0001:0005b900       ??$extract_argument_from_va_list@U_CRT_DOUBLE@@U1@@?$standard_base@DV?$stream_output_adapter@D@__crt_stdio_output@@@__crt_stdio_output@@IEAA_NAEAU_CRT_DOUBLE@@@Z 000000018005c900 f i libucrtd:output.obj
 0001:0005b950       ??$extract_argument_from_va_list@U_CRT_DOUBLE@@U1@@?$standard_base@DV?$string_output_adapter@D@__crt_stdio_output@@@__crt_stdio_output@@IEAA_NAEAU_CRT_DOUBLE@@@Z 000000018005c950 f i libucrtd:output.obj
 0001:0005b9a0       ??$extract_argument_from_va_list@U_CRT_DOUBLE@@U1@@?$standard_base@_WV?$stream_output_adapter@_W@__crt_stdio_output@@@__crt_stdio_output@@IEAA_NAEAU_CRT_DOUBLE@@@Z 000000018005c9a0 f i libucrtd:output.obj
 0001:0005b9f0       ??$extract_argument_from_va_list@U_CRT_DOUBLE@@U1@@?$standard_base@_WV?$string_output_adapter@_W@__crt_stdio_output@@@__crt_stdio_output@@IEAA_NAEAU_CRT_DOUBLE@@@Z 000000018005c9f0 f i libucrtd:output.obj
 0001:0005ba40       ??$extract_argument_from_va_list@_J_J@?$positional_parameter_base@DV?$stream_output_adapter@D@__crt_stdio_output@@@__crt_stdio_output@@IEAA_NAEA_J@Z 000000018005ca40 f i libucrtd:output.obj
 0001:0005bbc0       ??$extract_argument_from_va_list@_J_J@?$positional_parameter_base@DV?$string_output_adapter@D@__crt_stdio_output@@@__crt_stdio_output@@IEAA_NAEA_J@Z 000000018005cbc0 f i libucrtd:output.obj
 0001:0005bd40       ??$extract_argument_from_va_list@_J_J@?$positional_parameter_base@_WV?$stream_output_adapter@_W@__crt_stdio_output@@@__crt_stdio_output@@IEAA_NAEA_J@Z 000000018005cd40 f i libucrtd:output.obj
 0001:0005bec0       ??$extract_argument_from_va_list@_J_J@?$positional_parameter_base@_WV?$string_output_adapter@_W@__crt_stdio_output@@@__crt_stdio_output@@IEAA_NAEA_J@Z 000000018005cec0 f i libucrtd:output.obj
 0001:0005c040       ??$extract_argument_from_va_list@_J_J@?$standard_base@DV?$stream_output_adapter@D@__crt_stdio_output@@@__crt_stdio_output@@IEAA_NAEA_J@Z 000000018005d040 f i libucrtd:output.obj
 0001:0005c070       ??$extract_argument_from_va_list@_J_J@?$standard_base@DV?$string_output_adapter@D@__crt_stdio_output@@@__crt_stdio_output@@IEAA_NAEA_J@Z 000000018005d070 f i libucrtd:output.obj
 0001:0005c0a0       ??$extract_argument_from_va_list@_J_J@?$standard_base@_WV?$stream_output_adapter@_W@__crt_stdio_output@@@__crt_stdio_output@@IEAA_NAEA_J@Z 000000018005d0a0 f i libucrtd:output.obj
 0001:0005c0d0       ??$extract_argument_from_va_list@_J_J@?$standard_base@_WV?$string_output_adapter@_W@__crt_stdio_output@@@__crt_stdio_output@@IEAA_NAEA_J@Z 000000018005d0d0 f i libucrtd:output.obj
 0001:0005c100       ??$extract_argument_from_va_list@_K_J@?$positional_parameter_base@DV?$stream_output_adapter@D@__crt_stdio_output@@@__crt_stdio_output@@IEAA_NAEA_J@Z 000000018005d100 f i libucrtd:output.obj
 0001:0005c280       ??$extract_argument_from_va_list@_K_J@?$positional_parameter_base@DV?$string_output_adapter@D@__crt_stdio_output@@@__crt_stdio_output@@IEAA_NAEA_J@Z 000000018005d280 f i libucrtd:output.obj
 0001:0005c400       ??$extract_argument_from_va_list@_K_J@?$positional_parameter_base@_WV?$stream_output_adapter@_W@__crt_stdio_output@@@__crt_stdio_output@@IEAA_NAEA_J@Z 000000018005d400 f i libucrtd:output.obj
 0001:0005c580       ??$extract_argument_from_va_list@_K_J@?$positional_parameter_base@_WV?$string_output_adapter@_W@__crt_stdio_output@@@__crt_stdio_output@@IEAA_NAEA_J@Z 000000018005d580 f i libucrtd:output.obj
 0001:0005c700       ??$extract_argument_from_va_list@_K_J@?$standard_base@DV?$stream_output_adapter@D@__crt_stdio_output@@@__crt_stdio_output@@IEAA_NAEA_J@Z 000000018005d700 f i libucrtd:output.obj
 0001:0005c730       ??$extract_argument_from_va_list@_K_J@?$standard_base@DV?$string_output_adapter@D@__crt_stdio_output@@@__crt_stdio_output@@IEAA_NAEA_J@Z 000000018005d730 f i libucrtd:output.obj
 0001:0005c760       ??$extract_argument_from_va_list@_K_J@?$standard_base@_WV?$stream_output_adapter@_W@__crt_stdio_output@@@__crt_stdio_output@@IEAA_NAEA_J@Z 000000018005d760 f i libucrtd:output.obj
 0001:0005c790       ??$extract_argument_from_va_list@_K_J@?$standard_base@_WV?$string_output_adapter@_W@__crt_stdio_output@@@__crt_stdio_output@@IEAA_NAEA_J@Z 000000018005d790 f i libucrtd:output.obj
 0001:0005c7c0       ??$extract_argument_from_va_list@_W_W@?$positional_parameter_base@DV?$stream_output_adapter@D@__crt_stdio_output@@@__crt_stdio_output@@IEAA_NAEA_W@Z 000000018005d7c0 f i libucrtd:output.obj
 0001:0005c940       ??$extract_argument_from_va_list@_W_W@?$positional_parameter_base@DV?$string_output_adapter@D@__crt_stdio_output@@@__crt_stdio_output@@IEAA_NAEA_W@Z 000000018005d940 f i libucrtd:output.obj
 0001:0005cac0       ??$extract_argument_from_va_list@_W_W@?$positional_parameter_base@_WV?$stream_output_adapter@_W@__crt_stdio_output@@@__crt_stdio_output@@IEAA_NAEA_W@Z 000000018005dac0 f i libucrtd:output.obj
 0001:0005cc40       ??$extract_argument_from_va_list@_W_W@?$positional_parameter_base@_WV?$string_output_adapter@_W@__crt_stdio_output@@@__crt_stdio_output@@IEAA_NAEA_W@Z 000000018005dc40 f i libucrtd:output.obj
 0001:0005cdc0       ??$extract_argument_from_va_list@_W_W@?$standard_base@DV?$stream_output_adapter@D@__crt_stdio_output@@@__crt_stdio_output@@IEAA_NAEA_W@Z 000000018005ddc0 f i libucrtd:output.obj
 0001:0005cdf0       ??$extract_argument_from_va_list@_W_W@?$standard_base@DV?$string_output_adapter@D@__crt_stdio_output@@@__crt_stdio_output@@IEAA_NAEA_W@Z 000000018005ddf0 f i libucrtd:output.obj
 0001:0005ce20       ??$extract_argument_from_va_list@_W_W@?$standard_base@_WV?$stream_output_adapter@_W@__crt_stdio_output@@@__crt_stdio_output@@IEAA_NAEA_W@Z 000000018005de20 f i libucrtd:output.obj
 0001:0005ce50       ??$extract_argument_from_va_list@_W_W@?$standard_base@_WV?$string_output_adapter@_W@__crt_stdio_output@@@__crt_stdio_output@@IEAA_NAEA_W@Z 000000018005de50 f i libucrtd:output.obj
 0001:0005ce80       ??$get_parameter_type@D@?$positional_parameter_base@DV?$stream_output_adapter@D@__crt_stdio_output@@@__crt_stdio_output@@CA?AW4parameter_type@01@PEAD@Z 000000018005de80 f i libucrtd:output.obj
 0001:0005ce90       ??$get_parameter_type@D@?$positional_parameter_base@DV?$string_output_adapter@D@__crt_stdio_output@@@__crt_stdio_output@@CA?AW4parameter_type@01@PEAD@Z 000000018005de90 f i libucrtd:output.obj
 0001:0005cea0       ??$get_parameter_type@D@?$positional_parameter_base@_WV?$stream_output_adapter@_W@__crt_stdio_output@@@__crt_stdio_output@@CA?AW4parameter_type@01@PEAD@Z 000000018005dea0 f i libucrtd:output.obj
 0001:0005ceb0       ??$get_parameter_type@D@?$positional_parameter_base@_WV?$string_output_adapter@_W@__crt_stdio_output@@@__crt_stdio_output@@CA?AW4parameter_type@01@PEAD@Z 000000018005deb0 f i libucrtd:output.obj
 0001:0005cec0       ??$get_parameter_type@Uansi_string@?1??type_case_Z@?$output_processor@DV?$stream_output_adapter@D@__crt_stdio_output@@V?$positional_parameter_base@DV?$stream_output_adapter@D@__crt_stdio_output@@@2@@__crt_stdio_output@@AEAA_NXZ@@?$positional_parameter_base@DV?$stream_output_adapter@D@__crt_stdio_output@@@__crt_stdio_output@@CA?AW4parameter_type@01@PEAUansi_string@?1??type_case_Z@?$output_processor@DV?$stream_output_adapter@D@__crt_stdio_output@@V?$positional_parameter_base@DV?$stream_output_adapter@D@__crt_stdio_output@@@2@@1@AEAA_NXZ@@Z 000000018005dec0 f i libucrtd:output.obj
 0001:0005ced0       ??$get_parameter_type@Uansi_string@?1??type_case_Z@?$output_processor@DV?$string_output_adapter@D@__crt_stdio_output@@V?$positional_parameter_base@DV?$string_output_adapter@D@__crt_stdio_output@@@2@@__crt_stdio_output@@AEAA_NXZ@@?$positional_parameter_base@DV?$string_output_adapter@D@__crt_stdio_output@@@__crt_stdio_output@@CA?AW4parameter_type@01@PEAUansi_string@?1??type_case_Z@?$output_processor@DV?$string_output_adapter@D@__crt_stdio_output@@V?$positional_parameter_base@DV?$string_output_adapter@D@__crt_stdio_output@@@2@@1@AEAA_NXZ@@Z 000000018005ded0 f i libucrtd:output.obj
 0001:0005cee0       ??$get_parameter_type@Uansi_string@?1??type_case_Z@?$output_processor@_WV?$stream_output_adapter@_W@__crt_stdio_output@@V?$positional_parameter_base@_WV?$stream_output_adapter@_W@__crt_stdio_output@@@2@@__crt_stdio_output@@AEAA_NXZ@@?$positional_parameter_base@_WV?$stream_output_adapter@_W@__crt_stdio_output@@@__crt_stdio_output@@CA?AW4parameter_type@01@PEAUansi_string@?1??type_case_Z@?$output_processor@_WV?$stream_output_adapter@_W@__crt_stdio_output@@V?$positional_parameter_base@_WV?$stream_output_adapter@_W@__crt_stdio_output@@@2@@1@AEAA_NXZ@@Z 000000018005dee0 f i libucrtd:output.obj
 0001:0005cef0       ??$get_parameter_type@Uansi_string@?1??type_case_Z@?$output_processor@_WV?$string_output_adapter@_W@__crt_stdio_output@@V?$positional_parameter_base@_WV?$string_output_adapter@_W@__crt_stdio_output@@@2@@__crt_stdio_output@@AEAA_NXZ@@?$positional_parameter_base@_WV?$string_output_adapter@_W@__crt_stdio_output@@@__crt_stdio_output@@CA?AW4parameter_type@01@PEAUansi_string@?1??type_case_Z@?$output_processor@_WV?$string_output_adapter@_W@__crt_stdio_output@@V?$positional_parameter_base@_WV?$string_output_adapter@_W@__crt_stdio_output@@@2@@1@AEAA_NXZ@@Z 000000018005def0 f i libucrtd:output.obj
 0001:0005cf00       ??$get_parameter_type@X@?$positional_parameter_base@DV?$stream_output_adapter@D@__crt_stdio_output@@@__crt_stdio_output@@CA?AW4parameter_type@01@PEAX@Z 000000018005df00 f i libucrtd:output.obj
 0001:0005cf10       ??$get_parameter_type@X@?$positional_parameter_base@DV?$string_output_adapter@D@__crt_stdio_output@@@__crt_stdio_output@@CA?AW4parameter_type@01@PEAX@Z 000000018005df10 f i libucrtd:output.obj
 0001:0005cf20       ??$get_parameter_type@X@?$positional_parameter_base@_WV?$stream_output_adapter@_W@__crt_stdio_output@@@__crt_stdio_output@@CA?AW4parameter_type@01@PEAX@Z 000000018005df20 f i libucrtd:output.obj
 0001:0005cf30       ??$get_parameter_type@X@?$positional_parameter_base@_WV?$string_output_adapter@_W@__crt_stdio_output@@@__crt_stdio_output@@CA?AW4parameter_type@01@PEAX@Z 000000018005df30 f i libucrtd:output.obj
 0001:0005cf40       ??$is_character_specifier@D@?$positional_parameter_base@DV?$stream_output_adapter@D@__crt_stdio_output@@@__crt_stdio_output@@CA_ND@Z 000000018005df40 f i libucrtd:output.obj
 0001:0005cf80       ??$is_character_specifier@D@?$positional_parameter_base@DV?$string_output_adapter@D@__crt_stdio_output@@@__crt_stdio_output@@CA_ND@Z 000000018005df80 f i libucrtd:output.obj
 0001:0005cfc0       ??$is_character_specifier@_W@?$positional_parameter_base@_WV?$stream_output_adapter@_W@__crt_stdio_output@@@__crt_stdio_output@@CA_N_W@Z 000000018005dfc0 f i libucrtd:output.obj
 0001:0005d000       ??$is_character_specifier@_W@?$positional_parameter_base@_WV?$string_output_adapter@_W@__crt_stdio_output@@@__crt_stdio_output@@CA_N_W@Z 000000018005e000 f i libucrtd:output.obj
 0001:0005d040       ??$is_integral_specifier@D@?$positional_parameter_base@DV?$stream_output_adapter@D@__crt_stdio_output@@@__crt_stdio_output@@CA_ND@Z 000000018005e040 f i libucrtd:output.obj
 0001:0005d0b0       ??$is_integral_specifier@D@?$positional_parameter_base@DV?$string_output_adapter@D@__crt_stdio_output@@@__crt_stdio_output@@CA_ND@Z 000000018005e0b0 f i libucrtd:output.obj
 0001:0005d120       ??$is_integral_specifier@_W@?$positional_parameter_base@_WV?$stream_output_adapter@_W@__crt_stdio_output@@@__crt_stdio_output@@CA_N_W@Z 000000018005e120 f i libucrtd:output.obj
 0001:0005d190       ??$is_integral_specifier@_W@?$positional_parameter_base@_WV?$string_output_adapter@_W@__crt_stdio_output@@@__crt_stdio_output@@CA_N_W@Z 000000018005e190 f i libucrtd:output.obj
 0001:0005d200       ??$is_pointer_specifier@D@?$positional_parameter_base@DV?$stream_output_adapter@D@__crt_stdio_output@@@__crt_stdio_output@@CA_ND@Z 000000018005e200 f i libucrtd:output.obj
 0001:0005d230       ??$is_pointer_specifier@D@?$positional_parameter_base@DV?$string_output_adapter@D@__crt_stdio_output@@@__crt_stdio_output@@CA_ND@Z 000000018005e230 f i libucrtd:output.obj
 0001:0005d260       ??$is_pointer_specifier@_W@?$positional_parameter_base@_WV?$stream_output_adapter@_W@__crt_stdio_output@@@__crt_stdio_output@@CA_N_W@Z 000000018005e260 f i libucrtd:output.obj
 0001:0005d290       ??$is_pointer_specifier@_W@?$positional_parameter_base@_WV?$string_output_adapter@_W@__crt_stdio_output@@@__crt_stdio_output@@CA_N_W@Z 000000018005e290 f i libucrtd:output.obj
 0001:0005d2c0       ??$is_string_specifier@D@?$positional_parameter_base@DV?$stream_output_adapter@D@__crt_stdio_output@@@__crt_stdio_output@@CA_ND@Z 000000018005e2c0 f i libucrtd:output.obj
 0001:0005d300       ??$is_string_specifier@D@?$positional_parameter_base@DV?$string_output_adapter@D@__crt_stdio_output@@@__crt_stdio_output@@CA_ND@Z 000000018005e300 f i libucrtd:output.obj
 0001:0005d340       ??$is_string_specifier@_W@?$positional_parameter_base@_WV?$stream_output_adapter@_W@__crt_stdio_output@@@__crt_stdio_output@@CA_N_W@Z 000000018005e340 f i libucrtd:output.obj
 0001:0005d380       ??$is_string_specifier@_W@?$positional_parameter_base@_WV?$string_output_adapter@_W@__crt_stdio_output@@@__crt_stdio_output@@CA_N_W@Z 000000018005e380 f i libucrtd:output.obj
 0001:0005d3c0       ??$is_wide_character_specifier@D@__crt_stdio_output@@YA_N_KDW4length_modifier@0@@Z 000000018005e3c0 f i libucrtd:output.obj
 0001:0005d460       ??$is_wide_character_specifier@_W@__crt_stdio_output@@YA_N_K_WW4length_modifier@0@@Z 000000018005e460 f i libucrtd:output.obj
 0001:0005d530       ??$peek_va_arg@C@__crt_stdio_output@@YACPEAD@Z 000000018005e530 f i libucrtd:output.obj
 0001:0005d590       ??$peek_va_arg@E@__crt_stdio_output@@YAEPEAD@Z 000000018005e590 f i libucrtd:output.obj
 0001:0005d5f0       ??$peek_va_arg@F@__crt_stdio_output@@YAFPEAD@Z 000000018005e5f0 f i libucrtd:output.obj
 0001:0005d650       ??$peek_va_arg@G@__crt_stdio_output@@YAGPEAD@Z 000000018005e650 f i libucrtd:output.obj
 0001:0005d6b0       ??$peek_va_arg@H@__crt_stdio_output@@YAHPEAD@Z 000000018005e6b0 f i libucrtd:output.obj
 0001:0005d700       ??$peek_va_arg@I@__crt_stdio_output@@YAIPEAD@Z 000000018005e700 f i libucrtd:output.obj
 0001:0005d750       ??$peek_va_arg@PEAD@__crt_stdio_output@@YAPEADPEAD@Z 000000018005e750 f i libucrtd:output.obj
 0001:0005d7b0       ??$peek_va_arg@PEAUansi_string@?1??type_case_Z@?$output_processor@DV?$stream_output_adapter@D@__crt_stdio_output@@V?$positional_parameter_base@DV?$stream_output_adapter@D@__crt_stdio_output@@@2@@__crt_stdio_output@@AEAA_NXZ@@__crt_stdio_output@@YAPEAUansi_string@?1??type_case_Z@?$output_processor@DV?$stream_output_adapter@D@__crt_stdio_output@@V?$positional_parameter_base@DV?$stream_output_adapter@D@__crt_stdio_output@@@2@@0@AEAA_NXZ@PEAD@Z 000000018005e7b0 f i libucrtd:output.obj
 0001:0005d810       ??$peek_va_arg@PEAUansi_string@?1??type_case_Z@?$output_processor@DV?$string_output_adapter@D@__crt_stdio_output@@V?$positional_parameter_base@DV?$string_output_adapter@D@__crt_stdio_output@@@2@@__crt_stdio_output@@AEAA_NXZ@@__crt_stdio_output@@YAPEAUansi_string@?1??type_case_Z@?$output_processor@DV?$string_output_adapter@D@__crt_stdio_output@@V?$positional_parameter_base@DV?$string_output_adapter@D@__crt_stdio_output@@@2@@0@AEAA_NXZ@PEAD@Z 000000018005e810 f i libucrtd:output.obj
 0001:0005d870       ??$peek_va_arg@PEAUansi_string@?1??type_case_Z@?$output_processor@_WV?$stream_output_adapter@_W@__crt_stdio_output@@V?$positional_parameter_base@_WV?$stream_output_adapter@_W@__crt_stdio_output@@@2@@__crt_stdio_output@@AEAA_NXZ@@__crt_stdio_output@@YAPEAUansi_string@?1??type_case_Z@?$output_processor@_WV?$stream_output_adapter@_W@__crt_stdio_output@@V?$positional_parameter_base@_WV?$stream_output_adapter@_W@__crt_stdio_output@@@2@@0@AEAA_NXZ@PEAD@Z 000000018005e870 f i libucrtd:output.obj
 0001:0005d8d0       ??$peek_va_arg@PEAUansi_string@?1??type_case_Z@?$output_processor@_WV?$string_output_adapter@_W@__crt_stdio_output@@V?$positional_parameter_base@_WV?$string_output_adapter@_W@__crt_stdio_output@@@2@@__crt_stdio_output@@AEAA_NXZ@@__crt_stdio_output@@YAPEAUansi_string@?1??type_case_Z@?$output_processor@_WV?$string_output_adapter@_W@__crt_stdio_output@@V?$positional_parameter_base@_WV?$string_output_adapter@_W@__crt_stdio_output@@@2@@0@AEAA_NXZ@PEAD@Z 000000018005e8d0 f i libucrtd:output.obj
 0001:0005d930       ??$peek_va_arg@PEAX@__crt_stdio_output@@YAPEAXPEAD@Z 000000018005e930 f i libucrtd:output.obj
 0001:0005d990       ??$peek_va_arg@U_CRT_DOUBLE@@@__crt_stdio_output@@YA?AU_CRT_DOUBLE@@PEAD@Z 000000018005e990 f i libucrtd:output.obj
 0001:0005d9f0       ??$peek_va_arg@_J@__crt_stdio_output@@YA_JPEAD@Z 000000018005e9f0 f i libucrtd:output.obj
 0001:0005da50       ??$peek_va_arg@_K@__crt_stdio_output@@YA_KPEAD@Z 000000018005ea50 f i libucrtd:output.obj
 0001:0005dab0       ??$peek_va_arg@_W@__crt_stdio_output@@YA_WPEAD@Z 000000018005eab0 f i libucrtd:output.obj
 0001:0005db10       ??$puttc_nolock@AEBDPEAU_iobuf@@@?$__crt_char_traits@D@@SAHAEBD$$QEAPEAU_iobuf@@@Z 000000018005eb10 f i libucrtd:output.obj
 0001:0005db40       ??$puttc_nolock@AEB_WPEAU_iobuf@@@?$__crt_char_traits@_W@@SAGAEB_W$$QEAPEAU_iobuf@@@Z 000000018005eb40 f i libucrtd:output.obj
 0001:0005db70       ??$read_va_arg@C@__crt_stdio_output@@YACAEAPEAD@Z 000000018005eb70 f i libucrtd:output.obj
 0001:0005dbe0       ??$read_va_arg@E@__crt_stdio_output@@YAEAEAPEAD@Z 000000018005ebe0 f i libucrtd:output.obj
 0001:0005dc50       ??$read_va_arg@F@__crt_stdio_output@@YAFAEAPEAD@Z 000000018005ec50 f i libucrtd:output.obj
 0001:0005dcc0       ??$read_va_arg@G@__crt_stdio_output@@YAGAEAPEAD@Z 000000018005ecc0 f i libucrtd:output.obj
 0001:0005dd30       ??$read_va_arg@H@__crt_stdio_output@@YAHAEAPEAD@Z 000000018005ed30 f i libucrtd:output.obj
 0001:0005dd90       ??$read_va_arg@I@__crt_stdio_output@@YAIAEAPEAD@Z 000000018005ed90 f i libucrtd:output.obj
 0001:0005ddf0       ??$read_va_arg@PEAD@__crt_stdio_output@@YAPEADAEAPEAD@Z 000000018005edf0 f i libucrtd:output.obj
 0001:0005de60       ??$read_va_arg@PEAUansi_string@?1??type_case_Z@?$output_processor@DV?$stream_output_adapter@D@__crt_stdio_output@@V?$format_validation_base@DV?$stream_output_adapter@D@__crt_stdio_output@@@2@@__crt_stdio_output@@AEAA_NXZ@@__crt_stdio_output@@YAPEAUansi_string@?1??type_case_Z@?$output_processor@DV?$stream_output_adapter@D@__crt_stdio_output@@V?$format_validation_base@DV?$stream_output_adapter@D@__crt_stdio_output@@@2@@0@AEAA_NXZ@AEAPEAD@Z 000000018005ee60 f i libucrtd:output.obj
 0001:0005ded0       ??$read_va_arg@PEAUansi_string@?1??type_case_Z@?$output_processor@DV?$stream_output_adapter@D@__crt_stdio_output@@V?$positional_parameter_base@DV?$stream_output_adapter@D@__crt_stdio_output@@@2@@__crt_stdio_output@@AEAA_NXZ@@__crt_stdio_output@@YAPEAUansi_string@?1??type_case_Z@?$output_processor@DV?$stream_output_adapter@D@__crt_stdio_output@@V?$positional_parameter_base@DV?$stream_output_adapter@D@__crt_stdio_output@@@2@@0@AEAA_NXZ@AEAPEAD@Z 000000018005eed0 f i libucrtd:output.obj
 0001:0005df40       ??$read_va_arg@PEAUansi_string@?1??type_case_Z@?$output_processor@DV?$stream_output_adapter@D@__crt_stdio_output@@V?$standard_base@DV?$stream_output_adapter@D@__crt_stdio_output@@@2@@__crt_stdio_output@@AEAA_NXZ@@__crt_stdio_output@@YAPEAUansi_string@?1??type_case_Z@?$output_processor@DV?$stream_output_adapter@D@__crt_stdio_output@@V?$standard_base@DV?$stream_output_adapter@D@__crt_stdio_output@@@2@@0@AEAA_NXZ@AEAPEAD@Z 000000018005ef40 f i libucrtd:output.obj
 0001:0005dfb0       ??$read_va_arg@PEAUansi_string@?1??type_case_Z@?$output_processor@DV?$string_output_adapter@D@__crt_stdio_output@@V?$format_validation_base@DV?$string_output_adapter@D@__crt_stdio_output@@@2@@__crt_stdio_output@@AEAA_NXZ@@__crt_stdio_output@@YAPEAUansi_string@?1??type_case_Z@?$output_processor@DV?$string_output_adapter@D@__crt_stdio_output@@V?$format_validation_base@DV?$string_output_adapter@D@__crt_stdio_output@@@2@@0@AEAA_NXZ@AEAPEAD@Z 000000018005efb0 f i libucrtd:output.obj
 0001:0005e020       ??$read_va_arg@PEAUansi_string@?1??type_case_Z@?$output_processor@DV?$string_output_adapter@D@__crt_stdio_output@@V?$positional_parameter_base@DV?$string_output_adapter@D@__crt_stdio_output@@@2@@__crt_stdio_output@@AEAA_NXZ@@__crt_stdio_output@@YAPEAUansi_string@?1??type_case_Z@?$output_processor@DV?$string_output_adapter@D@__crt_stdio_output@@V?$positional_parameter_base@DV?$string_output_adapter@D@__crt_stdio_output@@@2@@0@AEAA_NXZ@AEAPEAD@Z 000000018005f020 f i libucrtd:output.obj
 0001:0005e090       ??$read_va_arg@PEAUansi_string@?1??type_case_Z@?$output_processor@DV?$string_output_adapter@D@__crt_stdio_output@@V?$standard_base@DV?$string_output_adapter@D@__crt_stdio_output@@@2@@__crt_stdio_output@@AEAA_NXZ@@__crt_stdio_output@@YAPEAUansi_string@?1??type_case_Z@?$output_processor@DV?$string_output_adapter@D@__crt_stdio_output@@V?$standard_base@DV?$string_output_adapter@D@__crt_stdio_output@@@2@@0@AEAA_NXZ@AEAPEAD@Z 000000018005f090 f i libucrtd:output.obj
 0001:0005e100       ??$read_va_arg@PEAUansi_string@?1??type_case_Z@?$output_processor@_WV?$stream_output_adapter@_W@__crt_stdio_output@@V?$format_validation_base@_WV?$stream_output_adapter@_W@__crt_stdio_output@@@2@@__crt_stdio_output@@AEAA_NXZ@@__crt_stdio_output@@YAPEAUansi_string@?1??type_case_Z@?$output_processor@_WV?$stream_output_adapter@_W@__crt_stdio_output@@V?$format_validation_base@_WV?$stream_output_adapter@_W@__crt_stdio_output@@@2@@0@AEAA_NXZ@AEAPEAD@Z 000000018005f100 f i libucrtd:output.obj
 0001:0005e170       ??$read_va_arg@PEAUansi_string@?1??type_case_Z@?$output_processor@_WV?$stream_output_adapter@_W@__crt_stdio_output@@V?$positional_parameter_base@_WV?$stream_output_adapter@_W@__crt_stdio_output@@@2@@__crt_stdio_output@@AEAA_NXZ@@__crt_stdio_output@@YAPEAUansi_string@?1??type_case_Z@?$output_processor@_WV?$stream_output_adapter@_W@__crt_stdio_output@@V?$positional_parameter_base@_WV?$stream_output_adapter@_W@__crt_stdio_output@@@2@@0@AEAA_NXZ@AEAPEAD@Z 000000018005f170 f i libucrtd:output.obj
 0001:0005e1e0       ??$read_va_arg@PEAUansi_string@?1??type_case_Z@?$output_processor@_WV?$stream_output_adapter@_W@__crt_stdio_output@@V?$standard_base@_WV?$stream_output_adapter@_W@__crt_stdio_output@@@2@@__crt_stdio_output@@AEAA_NXZ@@__crt_stdio_output@@YAPEAUansi_string@?1??type_case_Z@?$output_processor@_WV?$stream_output_adapter@_W@__crt_stdio_output@@V?$standard_base@_WV?$stream_output_adapter@_W@__crt_stdio_output@@@2@@0@AEAA_NXZ@AEAPEAD@Z 000000018005f1e0 f i libucrtd:output.obj
 0001:0005e250       ??$read_va_arg@PEAUansi_string@?1??type_case_Z@?$output_processor@_WV?$string_output_adapter@_W@__crt_stdio_output@@V?$format_validation_base@_WV?$string_output_adapter@_W@__crt_stdio_output@@@2@@__crt_stdio_output@@AEAA_NXZ@@__crt_stdio_output@@YAPEAUansi_string@?1??type_case_Z@?$output_processor@_WV?$string_output_adapter@_W@__crt_stdio_output@@V?$format_validation_base@_WV?$string_output_adapter@_W@__crt_stdio_output@@@2@@0@AEAA_NXZ@AEAPEAD@Z 000000018005f250 f i libucrtd:output.obj
 0001:0005e2c0       ??$read_va_arg@PEAUansi_string@?1??type_case_Z@?$output_processor@_WV?$string_output_adapter@_W@__crt_stdio_output@@V?$positional_parameter_base@_WV?$string_output_adapter@_W@__crt_stdio_output@@@2@@__crt_stdio_output@@AEAA_NXZ@@__crt_stdio_output@@YAPEAUansi_string@?1??type_case_Z@?$output_processor@_WV?$string_output_adapter@_W@__crt_stdio_output@@V?$positional_parameter_base@_WV?$string_output_adapter@_W@__crt_stdio_output@@@2@@0@AEAA_NXZ@AEAPEAD@Z 000000018005f2c0 f i libucrtd:output.obj
 0001:0005e330       ??$read_va_arg@PEAUansi_string@?1??type_case_Z@?$output_processor@_WV?$string_output_adapter@_W@__crt_stdio_output@@V?$standard_base@_WV?$string_output_adapter@_W@__crt_stdio_output@@@2@@__crt_stdio_output@@AEAA_NXZ@@__crt_stdio_output@@YAPEAUansi_string@?1??type_case_Z@?$output_processor@_WV?$string_output_adapter@_W@__crt_stdio_output@@V?$standard_base@_WV?$string_output_adapter@_W@__crt_stdio_output@@@2@@0@AEAA_NXZ@AEAPEAD@Z 000000018005f330 f i libucrtd:output.obj
 0001:0005e3a0       ??$read_va_arg@PEAX@__crt_stdio_output@@YAPEAXAEAPEAD@Z 000000018005f3a0 f i libucrtd:output.obj
 0001:0005e410       ??$read_va_arg@U_CRT_DOUBLE@@@__crt_stdio_output@@YA?AU_CRT_DOUBLE@@AEAPEAD@Z 000000018005f410 f i libucrtd:output.obj
 0001:0005e480       ??$read_va_arg@_J@__crt_stdio_output@@YA_JAEAPEAD@Z 000000018005f480 f i libucrtd:output.obj
 0001:0005e4f0       ??$read_va_arg@_K@__crt_stdio_output@@YA_KAEAPEAD@Z 000000018005f4f0 f i libucrtd:output.obj
 0001:0005e560       ??$read_va_arg@_W@__crt_stdio_output@@YA_WAEAPEAD@Z 000000018005f560 f i libucrtd:output.obj
 0001:0005e5d0       ??$scratch_count@D@formatting_buffer@__crt_stdio_output@@QEBA_KXZ 000000018005f5d0 f i libucrtd:output.obj
 0001:0005e5f0       ??$scratch_data@D@formatting_buffer@__crt_stdio_output@@QEAAPEADXZ 000000018005f5f0 f i libucrtd:output.obj
 0001:0005e660       ??$tcstol@AEAPEBDPEAPEADH@?$__crt_char_traits@D@@SAJAEAPEBD$$QEAPEAPEAD$$QEAH@Z 000000018005f660 f i libucrtd:output.obj
 0001:0005e6a0       ??$tcstol@AEAPEB_WPEAPEA_WH@?$__crt_char_traits@_W@@SAJAEAPEB_W$$QEAPEAPEA_W$$QEAH@Z 000000018005f6a0 f i libucrtd:output.obj
 0001:0005e6e0       ??$tcstol@PEBDPEAPEADH@?$__crt_char_traits@D@@SAJ$$QEAPEBD$$QEAPEAPEAD$$QEAH@Z 000000018005f6e0 f i libucrtd:output.obj
 0001:0005e720       ??$tcstol@PEB_WPEAPEA_WH@?$__crt_char_traits@_W@@SAJ$$QEAPEB_W$$QEAPEAPEA_W$$QEAH@Z 000000018005f720 f i libucrtd:output.obj
 0001:0005e760       ??$type_case_integer_parse_into_buffer@I@?$output_processor@DV?$stream_output_adapter@D@__crt_stdio_output@@V?$format_validation_base@DV?$stream_output_adapter@D@__crt_stdio_output@@@2@@__crt_stdio_output@@AEAAXII_N@Z 000000018005f760 f i libucrtd:output.obj
 0001:0005e890       ??$type_case_integer_parse_into_buffer@I@?$output_processor@DV?$stream_output_adapter@D@__crt_stdio_output@@V?$positional_parameter_base@DV?$stream_output_adapter@D@__crt_stdio_output@@@2@@__crt_stdio_output@@AEAAXII_N@Z 000000018005f890 f i libucrtd:output.obj
 0001:0005e9c0       ??$type_case_integer_parse_into_buffer@I@?$output_processor@DV?$stream_output_adapter@D@__crt_stdio_output@@V?$standard_base@DV?$stream_output_adapter@D@__crt_stdio_output@@@2@@__crt_stdio_output@@AEAAXII_N@Z 000000018005f9c0 f i libucrtd:output.obj
 0001:0005eaf0       ??$type_case_integer_parse_into_buffer@I@?$output_processor@DV?$string_output_adapter@D@__crt_stdio_output@@V?$format_validation_base@DV?$string_output_adapter@D@__crt_stdio_output@@@2@@__crt_stdio_output@@AEAAXII_N@Z 000000018005faf0 f i libucrtd:output.obj
 0001:0005ec20       ??$type_case_integer_parse_into_buffer@I@?$output_processor@DV?$string_output_adapter@D@__crt_stdio_output@@V?$positional_parameter_base@DV?$string_output_adapter@D@__crt_stdio_output@@@2@@__crt_stdio_output@@AEAAXII_N@Z 000000018005fc20 f i libucrtd:output.obj
 0001:0005ed50       ??$type_case_integer_parse_into_buffer@I@?$output_processor@DV?$string_output_adapter@D@__crt_stdio_output@@V?$standard_base@DV?$string_output_adapter@D@__crt_stdio_output@@@2@@__crt_stdio_output@@AEAAXII_N@Z 000000018005fd50 f i libucrtd:output.obj
 0001:0005ee80       ??$type_case_integer_parse_into_buffer@I@?$output_processor@_WV?$stream_output_adapter@_W@__crt_stdio_output@@V?$format_validation_base@_WV?$stream_output_adapter@_W@__crt_stdio_output@@@2@@__crt_stdio_output@@AEAAXII_N@Z 000000018005fe80 f i libucrtd:output.obj
 0001:0005efc0       ??$type_case_integer_parse_into_buffer@I@?$output_processor@_WV?$stream_output_adapter@_W@__crt_stdio_output@@V?$positional_parameter_base@_WV?$stream_output_adapter@_W@__crt_stdio_output@@@2@@__crt_stdio_output@@AEAAXII_N@Z 000000018005ffc0 f i libucrtd:output.obj
 0001:0005f100       ??$type_case_integer_parse_into_buffer@I@?$output_processor@_WV?$stream_output_adapter@_W@__crt_stdio_output@@V?$standard_base@_WV?$stream_output_adapter@_W@__crt_stdio_output@@@2@@__crt_stdio_output@@AEAAXII_N@Z 0000000180060100 f i libucrtd:output.obj
 0001:0005f240       ??$type_case_integer_parse_into_buffer@I@?$output_processor@_WV?$string_output_adapter@_W@__crt_stdio_output@@V?$format_validation_base@_WV?$string_output_adapter@_W@__crt_stdio_output@@@2@@__crt_stdio_output@@AEAAXII_N@Z 0000000180060240 f i libucrtd:output.obj
 0001:0005f380       ??$type_case_integer_parse_into_buffer@I@?$output_processor@_WV?$string_output_adapter@_W@__crt_stdio_output@@V?$positional_parameter_base@_WV?$string_output_adapter@_W@__crt_stdio_output@@@2@@__crt_stdio_output@@AEAAXII_N@Z 0000000180060380 f i libucrtd:output.obj
 0001:0005f4c0       ??$type_case_integer_parse_into_buffer@I@?$output_processor@_WV?$string_output_adapter@_W@__crt_stdio_output@@V?$standard_base@_WV?$string_output_adapter@_W@__crt_stdio_output@@@2@@__crt_stdio_output@@AEAAXII_N@Z 00000001800604c0 f i libucrtd:output.obj
 0001:0005f600       ??$type_case_integer_parse_into_buffer@_K@?$output_processor@DV?$stream_output_adapter@D@__crt_stdio_output@@V?$format_validation_base@DV?$stream_output_adapter@D@__crt_stdio_output@@@2@@__crt_stdio_output@@AEAAX_KI_N@Z 0000000180060600 f i libucrtd:output.obj
 0001:0005f750       ??$type_case_integer_parse_into_buffer@_K@?$output_processor@DV?$stream_output_adapter@D@__crt_stdio_output@@V?$positional_parameter_base@DV?$stream_output_adapter@D@__crt_stdio_output@@@2@@__crt_stdio_output@@AEAAX_KI_N@Z 0000000180060750 f i libucrtd:output.obj
 0001:0005f8a0       ??$type_case_integer_parse_into_buffer@_K@?$output_processor@DV?$stream_output_adapter@D@__crt_stdio_output@@V?$standard_base@DV?$stream_output_adapter@D@__crt_stdio_output@@@2@@__crt_stdio_output@@AEAAX_KI_N@Z 00000001800608a0 f i libucrtd:output.obj
 0001:0005f9f0       ??$type_case_integer_parse_into_buffer@_K@?$output_processor@DV?$string_output_adapter@D@__crt_stdio_output@@V?$format_validation_base@DV?$string_output_adapter@D@__crt_stdio_output@@@2@@__crt_stdio_output@@AEAAX_KI_N@Z 00000001800609f0 f i libucrtd:output.obj
 0001:0005fb40       ??$type_case_integer_parse_into_buffer@_K@?$output_processor@DV?$string_output_adapter@D@__crt_stdio_output@@V?$positional_parameter_base@DV?$string_output_adapter@D@__crt_stdio_output@@@2@@__crt_stdio_output@@AEAAX_KI_N@Z 0000000180060b40 f i libucrtd:output.obj
 0001:0005fc90       ??$type_case_integer_parse_into_buffer@_K@?$output_processor@DV?$string_output_adapter@D@__crt_stdio_output@@V?$standard_base@DV?$string_output_adapter@D@__crt_stdio_output@@@2@@__crt_stdio_output@@AEAAX_KI_N@Z 0000000180060c90 f i libucrtd:output.obj
 0001:0005fde0       ??$type_case_integer_parse_into_buffer@_K@?$output_processor@_WV?$stream_output_adapter@_W@__crt_stdio_output@@V?$format_validation_base@_WV?$stream_output_adapter@_W@__crt_stdio_output@@@2@@__crt_stdio_output@@AEAAX_KI_N@Z 0000000180060de0 f i libucrtd:output.obj
 0001:0005ff40       ??$type_case_integer_parse_into_buffer@_K@?$output_processor@_WV?$stream_output_adapter@_W@__crt_stdio_output@@V?$positional_parameter_base@_WV?$stream_output_adapter@_W@__crt_stdio_output@@@2@@__crt_stdio_output@@AEAAX_KI_N@Z 0000000180060f40 f i libucrtd:output.obj
 0001:000600a0       ??$type_case_integer_parse_into_buffer@_K@?$output_processor@_WV?$stream_output_adapter@_W@__crt_stdio_output@@V?$standard_base@_WV?$stream_output_adapter@_W@__crt_stdio_output@@@2@@__crt_stdio_output@@AEAAX_KI_N@Z 00000001800610a0 f i libucrtd:output.obj
 0001:00060200       ??$type_case_integer_parse_into_buffer@_K@?$output_processor@_WV?$string_output_adapter@_W@__crt_stdio_output@@V?$format_validation_base@_WV?$string_output_adapter@_W@__crt_stdio_output@@@2@@__crt_stdio_output@@AEAAX_KI_N@Z 0000000180061200 f i libucrtd:output.obj
 0001:00060360       ??$type_case_integer_parse_into_buffer@_K@?$output_processor@_WV?$string_output_adapter@_W@__crt_stdio_output@@V?$positional_parameter_base@_WV?$string_output_adapter@_W@__crt_stdio_output@@@2@@__crt_stdio_output@@AEAAX_KI_N@Z 0000000180061360 f i libucrtd:output.obj
 0001:000604c0       ??$type_case_integer_parse_into_buffer@_K@?$output_processor@_WV?$string_output_adapter@_W@__crt_stdio_output@@V?$standard_base@_WV?$string_output_adapter@_W@__crt_stdio_output@@@2@@__crt_stdio_output@@AEAAX_KI_N@Z 00000001800614c0 f i libucrtd:output.obj
 0001:00060620       ??$write_multiple_characters@V?$stream_output_adapter@D@__crt_stdio_output@@D@__crt_stdio_output@@YAXAEBV?$stream_output_adapter@D@0@DHQEAH@Z 0000000180061620 f i libucrtd:output.obj
 0001:00060680       ??$write_multiple_characters@V?$stream_output_adapter@_W@__crt_stdio_output@@D@__crt_stdio_output@@YAXAEBV?$stream_output_adapter@_W@0@DHQEAH@Z 0000000180061680 f i libucrtd:output.obj
 0001:000606e0       ??$write_multiple_characters@V?$string_output_adapter@D@__crt_stdio_output@@D@__crt_stdio_output@@YAXAEBV?$string_output_adapter@D@0@DHQEAH@Z 00000001800616e0 f i libucrtd:output.obj
 0001:00060740       ??$write_multiple_characters@V?$string_output_adapter@_W@__crt_stdio_output@@D@__crt_stdio_output@@YAXAEBV?$string_output_adapter@_W@0@DHQEAH@Z 0000000180061740 f i libucrtd:output.obj
 0001:00060b60       ??0?$common_data@D@__crt_stdio_output@@IEAA@XZ 0000000180061b60 f i libucrtd:output.obj
 0001:00060c30       ??0?$common_data@_W@__crt_stdio_output@@IEAA@XZ 0000000180061c30 f i libucrtd:output.obj
 0001:00060d00       ??0?$output_adapter_data@DV?$stream_output_adapter@D@__crt_stdio_output@@@__crt_stdio_output@@IEAA@AEBV?$stream_output_adapter@D@1@_KQEBDQEAU__crt_locale_pointers@@QEAD@Z 0000000180061d00 f i libucrtd:output.obj
 0001:00060d80       ??0?$output_adapter_data@DV?$string_output_adapter@D@__crt_stdio_output@@@__crt_stdio_output@@IEAA@AEBV?$string_output_adapter@D@1@_KQEBDQEAU__crt_locale_pointers@@QEAD@Z 0000000180061d80 f i libucrtd:output.obj
 0001:00060e00       ??0?$output_adapter_data@_WV?$stream_output_adapter@_W@__crt_stdio_output@@@__crt_stdio_output@@IEAA@AEBV?$stream_output_adapter@_W@1@_KQEB_WQEAU__crt_locale_pointers@@QEAD@Z 0000000180061e00 f i libucrtd:output.obj
 0001:00060e80       ??0?$output_adapter_data@_WV?$string_output_adapter@_W@__crt_stdio_output@@@__crt_stdio_output@@IEAA@AEBV?$string_output_adapter@_W@1@_KQEB_WQEAU__crt_locale_pointers@@QEAD@Z 0000000180061e80 f i libucrtd:output.obj
 0001:00060f00       ??0?$output_processor@DV?$stream_output_adapter@D@__crt_stdio_output@@V?$format_validation_base@DV?$stream_output_adapter@D@__crt_stdio_output@@@2@@__crt_stdio_output@@QEAA@AEBV?$stream_output_adapter@D@1@_KQEBDQEAU__crt_locale_pointers@@QEAD@Z 0000000180061f00 f i libucrtd:output.obj
 0001:00060f50       ??0?$output_processor@DV?$stream_output_adapter@D@__crt_stdio_output@@V?$positional_parameter_base@DV?$stream_output_adapter@D@__crt_stdio_output@@@2@@__crt_stdio_output@@QEAA@AEBV?$stream_output_adapter@D@1@_KQEBDQEAU__crt_locale_pointers@@QEAD@Z 0000000180061f50 f i libucrtd:output.obj
 0001:00060fa0       ??0?$output_processor@DV?$stream_output_adapter@D@__crt_stdio_output@@V?$standard_base@DV?$stream_output_adapter@D@__crt_stdio_output@@@2@@__crt_stdio_output@@QEAA@AEBV?$stream_output_adapter@D@1@_KQEBDQEAU__crt_locale_pointers@@QEAD@Z 0000000180061fa0 f i libucrtd:output.obj
 0001:00060ff0       ??0?$output_processor@DV?$string_output_adapter@D@__crt_stdio_output@@V?$format_validation_base@DV?$string_output_adapter@D@__crt_stdio_output@@@2@@__crt_stdio_output@@QEAA@AEBV?$string_output_adapter@D@1@_KQEBDQEAU__crt_locale_pointers@@QEAD@Z 0000000180061ff0 f i libucrtd:output.obj
 0001:00061040       ??0?$output_processor@DV?$string_output_adapter@D@__crt_stdio_output@@V?$positional_parameter_base@DV?$string_output_adapter@D@__crt_stdio_output@@@2@@__crt_stdio_output@@QEAA@AEBV?$string_output_adapter@D@1@_KQEBDQEAU__crt_locale_pointers@@QEAD@Z 0000000180062040 f i libucrtd:output.obj
 0001:00061090       ??0?$output_processor@DV?$string_output_adapter@D@__crt_stdio_output@@V?$standard_base@DV?$string_output_adapter@D@__crt_stdio_output@@@2@@__crt_stdio_output@@QEAA@AEBV?$string_output_adapter@D@1@_KQEBDQEAU__crt_locale_pointers@@QEAD@Z 0000000180062090 f i libucrtd:output.obj
 0001:000610e0       ??0?$output_processor@_WV?$stream_output_adapter@_W@__crt_stdio_output@@V?$format_validation_base@_WV?$stream_output_adapter@_W@__crt_stdio_output@@@2@@__crt_stdio_output@@QEAA@AEBV?$stream_output_adapter@_W@1@_KQEB_WQEAU__crt_locale_pointers@@QEAD@Z 00000001800620e0 f i libucrtd:output.obj
 0001:00061130       ??0?$output_processor@_WV?$stream_output_adapter@_W@__crt_stdio_output@@V?$positional_parameter_base@_WV?$stream_output_adapter@_W@__crt_stdio_output@@@2@@__crt_stdio_output@@QEAA@AEBV?$stream_output_adapter@_W@1@_KQEB_WQEAU__crt_locale_pointers@@QEAD@Z 0000000180062130 f i libucrtd:output.obj
 0001:00061180       ??0?$output_processor@_WV?$stream_output_adapter@_W@__crt_stdio_output@@V?$standard_base@_WV?$stream_output_adapter@_W@__crt_stdio_output@@@2@@__crt_stdio_output@@QEAA@AEBV?$stream_output_adapter@_W@1@_KQEB_WQEAU__crt_locale_pointers@@QEAD@Z 0000000180062180 f i libucrtd:output.obj
 0001:000611d0       ??0?$output_processor@_WV?$string_output_adapter@_W@__crt_stdio_output@@V?$format_validation_base@_WV?$string_output_adapter@_W@__crt_stdio_output@@@2@@__crt_stdio_output@@QEAA@AEBV?$string_output_adapter@_W@1@_KQEB_WQEAU__crt_locale_pointers@@QEAD@Z 00000001800621d0 f i libucrtd:output.obj
 0001:00061220       ??0?$output_processor@_WV?$string_output_adapter@_W@__crt_stdio_output@@V?$positional_parameter_base@_WV?$string_output_adapter@_W@__crt_stdio_output@@@2@@__crt_stdio_output@@QEAA@AEBV?$string_output_adapter@_W@1@_KQEB_WQEAU__crt_locale_pointers@@QEAD@Z 0000000180062220 f i libucrtd:output.obj
 0001:00061270       ??0?$output_processor@_WV?$string_output_adapter@_W@__crt_stdio_output@@V?$standard_base@_WV?$string_output_adapter@_W@__crt_stdio_output@@@2@@__crt_stdio_output@@QEAA@AEBV?$string_output_adapter@_W@1@_KQEB_WQEAU__crt_locale_pointers@@QEAD@Z 0000000180062270 f i libucrtd:output.obj
 0001:000612c0       ??0?$stream_output_adapter@D@__crt_stdio_output@@QEAA@QEAU_iobuf@@@Z 00000001800622c0 f i libucrtd:output.obj
 0001:000612f0       ??0?$stream_output_adapter@_W@__crt_stdio_output@@QEAA@QEAU_iobuf@@@Z 00000001800622f0 f i libucrtd:output.obj
 0001:00061320       ??0?$string_output_adapter@D@__crt_stdio_output@@QEAA@QEAU?$string_output_adapter_context@D@1@@Z 0000000180062320 f i libucrtd:output.obj
 0001:00061340       ??0?$string_output_adapter@_W@__crt_stdio_output@@QEAA@QEAU?$string_output_adapter_context@_W@1@@Z 0000000180062340 f i libucrtd:output.obj
 0001:00061360       ??0_LocaleUpdate@@QEAA@QEAU__crt_locale_pointers@@@Z 0000000180062360 f i libucrtd:output.obj
 0001:00061480       ??0__acrt_stdio_temporary_buffering_guard@@QEAA@QEAU_iobuf@@@Z 0000000180062480 f i libucrtd:output.obj
 0001:000614c0       ??0__crt_deferred_errno_cache@@QEAA@XZ 00000001800624c0 f i libucrtd:output.obj
 0001:000614e0       ??0__crt_errno_guard@@QEAA@QEAH@Z 00000001800624e0 f i libucrtd:output.obj
 0001:00061520       ??0__crt_stdio_stream@@QEAA@QEAU_iobuf@@@Z 0000000180062520 f i libucrtd:output.obj
 0001:00061540       ??0formatting_buffer@__crt_stdio_output@@QEAA@XZ 0000000180062540 f i libucrtd:output.obj
 0001:00061580       ??1?$common_data@D@__crt_stdio_output@@QEAA@XZ 0000000180062580 f i libucrtd:output.obj
 0001:000615a0       ??1?$common_data@_W@__crt_stdio_output@@QEAA@XZ 00000001800625a0 f i libucrtd:output.obj
 0001:000615c0       ??1?$format_validation_base@DV?$stream_output_adapter@D@__crt_stdio_output@@@__crt_stdio_output@@QEAA@XZ 00000001800625c0 f i libucrtd:output.obj
 0001:000615e0       ??1?$format_validation_base@DV?$string_output_adapter@D@__crt_stdio_output@@@__crt_stdio_output@@QEAA@XZ 00000001800625e0 f i libucrtd:output.obj
 0001:00061600       ??1?$format_validation_base@_WV?$stream_output_adapter@_W@__crt_stdio_output@@@__crt_stdio_output@@QEAA@XZ 0000000180062600 f i libucrtd:output.obj
 0001:00061620       ??1?$format_validation_base@_WV?$string_output_adapter@_W@__crt_stdio_output@@@__crt_stdio_output@@QEAA@XZ 0000000180062620 f i libucrtd:output.obj
 0001:00061640       ??1?$output_adapter_data@DV?$stream_output_adapter@D@__crt_stdio_output@@@__crt_stdio_output@@QEAA@XZ 0000000180062640 f i libucrtd:output.obj
 0001:00061660       ??1?$output_adapter_data@DV?$string_output_adapter@D@__crt_stdio_output@@@__crt_stdio_output@@QEAA@XZ 0000000180062660 f i libucrtd:output.obj
 0001:00061680       ??1?$output_adapter_data@_WV?$stream_output_adapter@_W@__crt_stdio_output@@@__crt_stdio_output@@QEAA@XZ 0000000180062680 f i libucrtd:output.obj
 0001:000616a0       ??1?$output_adapter_data@_WV?$string_output_adapter@_W@__crt_stdio_output@@@__crt_stdio_output@@QEAA@XZ 00000001800626a0 f i libucrtd:output.obj
 0001:000616c0       ??1?$output_processor@DV?$stream_output_adapter@D@__crt_stdio_output@@V?$format_validation_base@DV?$stream_output_adapter@D@__crt_stdio_output@@@2@@__crt_stdio_output@@QEAA@XZ 00000001800626c0 f i libucrtd:output.obj
 0001:000616e0       ??1?$output_processor@DV?$stream_output_adapter@D@__crt_stdio_output@@V?$positional_parameter_base@DV?$stream_output_adapter@D@__crt_stdio_output@@@2@@__crt_stdio_output@@QEAA@XZ 00000001800626e0 f i libucrtd:output.obj
 0001:00061700       ??1?$output_processor@DV?$stream_output_adapter@D@__crt_stdio_output@@V?$standard_base@DV?$stream_output_adapter@D@__crt_stdio_output@@@2@@__crt_stdio_output@@QEAA@XZ 0000000180062700 f i libucrtd:output.obj
 0001:00061720       ??1?$output_processor@DV?$string_output_adapter@D@__crt_stdio_output@@V?$format_validation_base@DV?$string_output_adapter@D@__crt_stdio_output@@@2@@__crt_stdio_output@@QEAA@XZ 0000000180062720 f i libucrtd:output.obj
 0001:00061740       ??1?$output_processor@DV?$string_output_adapter@D@__crt_stdio_output@@V?$positional_parameter_base@DV?$string_output_adapter@D@__crt_stdio_output@@@2@@__crt_stdio_output@@QEAA@XZ 0000000180062740 f i libucrtd:output.obj
 0001:00061760       ??1?$output_processor@DV?$string_output_adapter@D@__crt_stdio_output@@V?$standard_base@DV?$string_output_adapter@D@__crt_stdio_output@@@2@@__crt_stdio_output@@QEAA@XZ 0000000180062760 f i libucrtd:output.obj
 0001:00061780       ??1?$output_processor@_WV?$stream_output_adapter@_W@__crt_stdio_output@@V?$format_validation_base@_WV?$stream_output_adapter@_W@__crt_stdio_output@@@2@@__crt_stdio_output@@QEAA@XZ 0000000180062780 f i libucrtd:output.obj
 0001:000617a0       ??1?$output_processor@_WV?$stream_output_adapter@_W@__crt_stdio_output@@V?$positional_parameter_base@_WV?$stream_output_adapter@_W@__crt_stdio_output@@@2@@__crt_stdio_output@@QEAA@XZ 00000001800627a0 f i libucrtd:output.obj
 0001:000617c0       ??1?$output_processor@_WV?$stream_output_adapter@_W@__crt_stdio_output@@V?$standard_base@_WV?$stream_output_adapter@_W@__crt_stdio_output@@@2@@__crt_stdio_output@@QEAA@XZ 00000001800627c0 f i libucrtd:output.obj
 0001:000617e0       ??1?$output_processor@_WV?$string_output_adapter@_W@__crt_stdio_output@@V?$format_validation_base@_WV?$string_output_adapter@_W@__crt_stdio_output@@@2@@__crt_stdio_output@@QEAA@XZ 00000001800627e0 f i libucrtd:output.obj
 0001:00061800       ??1?$output_processor@_WV?$string_output_adapter@_W@__crt_stdio_output@@V?$positional_parameter_base@_WV?$string_output_adapter@_W@__crt_stdio_output@@@2@@__crt_stdio_output@@QEAA@XZ 0000000180062800 f i libucrtd:output.obj
 0001:00061820       ??1?$output_processor@_WV?$string_output_adapter@_W@__crt_stdio_output@@V?$standard_base@_WV?$string_output_adapter@_W@__crt_stdio_output@@@2@@__crt_stdio_output@@QEAA@XZ 0000000180062820 f i libucrtd:output.obj
 0001:00061840       ??1?$positional_parameter_base@DV?$stream_output_adapter@D@__crt_stdio_output@@@__crt_stdio_output@@QEAA@XZ 0000000180062840 f i libucrtd:output.obj
 0001:00061860       ??1?$positional_parameter_base@DV?$string_output_adapter@D@__crt_stdio_output@@@__crt_stdio_output@@QEAA@XZ 0000000180062860 f i libucrtd:output.obj
 0001:00061880       ??1?$positional_parameter_base@_WV?$stream_output_adapter@_W@__crt_stdio_output@@@__crt_stdio_output@@QEAA@XZ 0000000180062880 f i libucrtd:output.obj
 0001:000618a0       ??1?$positional_parameter_base@_WV?$string_output_adapter@_W@__crt_stdio_output@@@__crt_stdio_output@@QEAA@XZ 00000001800628a0 f i libucrtd:output.obj
 0001:000618c0       ??1?$standard_base@DV?$stream_output_adapter@D@__crt_stdio_output@@@__crt_stdio_output@@QEAA@XZ 00000001800628c0 f i libucrtd:output.obj
 0001:000618e0       ??1?$standard_base@DV?$string_output_adapter@D@__crt_stdio_output@@@__crt_stdio_output@@QEAA@XZ 00000001800628e0 f i libucrtd:output.obj
 0001:00061900       ??1?$standard_base@_WV?$stream_output_adapter@_W@__crt_stdio_output@@@__crt_stdio_output@@QEAA@XZ 0000000180062900 f i libucrtd:output.obj
 0001:00061920       ??1?$standard_base@_WV?$string_output_adapter@_W@__crt_stdio_output@@@__crt_stdio_output@@QEAA@XZ 0000000180062920 f i libucrtd:output.obj
 0001:00061940       ??1_LocaleUpdate@@QEAA@XZ  0000000180062940 f i libucrtd:output.obj
 0001:00061970       ??1__acrt_stdio_temporary_buffering_guard@@QEAA@XZ 0000000180062970 f i libucrtd:output.obj
 0001:000619a0       ??1__crt_errno_guard@@QEAA@XZ 00000001800629a0 f i libucrtd:output.obj
 0001:000619d0       ??1formatting_buffer@__crt_stdio_output@@QEAA@XZ 00000001800629d0 f i libucrtd:output.obj
 0001:00061a00       ??4?$__crt_unique_heap_ptr@DU__crt_internal_free_policy@@@@QEAAAEAV0@$$QEAV0@@Z 0000000180062a00 f i libucrtd:output.obj
 0001:00061a40       ??A?$spectre_mitigated_lookup_table@Ustate_transition_pair@__crt_stdio_output@@$0IA@@__crt_stdio_output@@QEBAAEBUstate_transition_pair@1@_K@Z 0000000180062a40 f i libucrtd:output.obj
 0001:00061a60       ??C__crt_stdio_stream@@QEBAPEAU__crt_stdio_stream_data@@XZ 0000000180062a60 f i libucrtd:output.obj
 0001:00062310       ?GetLocaleT@_LocaleUpdate@@QEAAPEAU__crt_locale_pointers@@XZ 0000000180063310 f i libucrtd:output.obj
 0001:00062320       ?__crt_interlocked_read_32@@YAHPEDH@Z 0000000180063320 f i libucrtd:output.obj
 0001:00062340       ?adjust_hexit@?$output_processor@DV?$stream_output_adapter@D@__crt_stdio_output@@V?$format_validation_base@DV?$stream_output_adapter@D@__crt_stdio_output@@@2@@__crt_stdio_output@@CADH_N@Z 0000000180063340 f i libucrtd:output.obj
 0001:00062390       ?adjust_hexit@?$output_processor@DV?$stream_output_adapter@D@__crt_stdio_output@@V?$positional_parameter_base@DV?$stream_output_adapter@D@__crt_stdio_output@@@2@@__crt_stdio_output@@CADH_N@Z 0000000180063390 f i libucrtd:output.obj
 0001:000623e0       ?adjust_hexit@?$output_processor@DV?$stream_output_adapter@D@__crt_stdio_output@@V?$standard_base@DV?$stream_output_adapter@D@__crt_stdio_output@@@2@@__crt_stdio_output@@CADH_N@Z 00000001800633e0 f i libucrtd:output.obj
 0001:00062430       ?adjust_hexit@?$output_processor@DV?$string_output_adapter@D@__crt_stdio_output@@V?$format_validation_base@DV?$string_output_adapter@D@__crt_stdio_output@@@2@@__crt_stdio_output@@CADH_N@Z 0000000180063430 f i libucrtd:output.obj
 0001:00062480       ?adjust_hexit@?$output_processor@DV?$string_output_adapter@D@__crt_stdio_output@@V?$positional_parameter_base@DV?$string_output_adapter@D@__crt_stdio_output@@@2@@__crt_stdio_output@@CADH_N@Z 0000000180063480 f i libucrtd:output.obj
 0001:000624d0       ?adjust_hexit@?$output_processor@DV?$string_output_adapter@D@__crt_stdio_output@@V?$standard_base@DV?$string_output_adapter@D@__crt_stdio_output@@@2@@__crt_stdio_output@@CADH_N@Z 00000001800634d0 f i libucrtd:output.obj
 0001:00062520       ?adjust_hexit@?$output_processor@_WV?$stream_output_adapter@_W@__crt_stdio_output@@V?$format_validation_base@_WV?$stream_output_adapter@_W@__crt_stdio_output@@@2@@__crt_stdio_output@@CADH_N@Z 0000000180063520 f i libucrtd:output.obj
 0001:00062570       ?adjust_hexit@?$output_processor@_WV?$stream_output_adapter@_W@__crt_stdio_output@@V?$positional_parameter_base@_WV?$stream_output_adapter@_W@__crt_stdio_output@@@2@@__crt_stdio_output@@CADH_N@Z 0000000180063570 f i libucrtd:output.obj
 0001:000625c0       ?adjust_hexit@?$output_processor@_WV?$stream_output_adapter@_W@__crt_stdio_output@@V?$standard_base@_WV?$stream_output_adapter@_W@__crt_stdio_output@@@2@@__crt_stdio_output@@CADH_N@Z 00000001800635c0 f i libucrtd:output.obj
 0001:00062610       ?adjust_hexit@?$output_processor@_WV?$string_output_adapter@_W@__crt_stdio_output@@V?$format_validation_base@_WV?$string_output_adapter@_W@__crt_stdio_output@@@2@@__crt_stdio_output@@CADH_N@Z 0000000180063610 f i libucrtd:output.obj
 0001:00062660       ?adjust_hexit@?$output_processor@_WV?$string_output_adapter@_W@__crt_stdio_output@@V?$positional_parameter_base@_WV?$string_output_adapter@_W@__crt_stdio_output@@@2@@__crt_stdio_output@@CADH_N@Z 0000000180063660 f i libucrtd:output.obj
 0001:000626b0       ?adjust_hexit@?$output_processor@_WV?$string_output_adapter@_W@__crt_stdio_output@@V?$standard_base@_WV?$string_output_adapter@_W@__crt_stdio_output@@@2@@__crt_stdio_output@@CADH_N@Z 00000001800636b0 f i libucrtd:output.obj
 0001:00062700       ?advance_to_next_pass@?$positional_parameter_base@DV?$stream_output_adapter@D@__crt_stdio_output@@@__crt_stdio_output@@IEAA_NXZ 0000000180063700 f i libucrtd:output.obj
 0001:000627b0       ?advance_to_next_pass@?$positional_parameter_base@DV?$string_output_adapter@D@__crt_stdio_output@@@__crt_stdio_output@@IEAA_NXZ 00000001800637b0 f i libucrtd:output.obj
 0001:00062860       ?advance_to_next_pass@?$positional_parameter_base@_WV?$stream_output_adapter@_W@__crt_stdio_output@@@__crt_stdio_output@@IEAA_NXZ 0000000180063860 f i libucrtd:output.obj
 0001:00062910       ?advance_to_next_pass@?$positional_parameter_base@_WV?$string_output_adapter@_W@__crt_stdio_output@@@__crt_stdio_output@@IEAA_NXZ 0000000180063910 f i libucrtd:output.obj
 0001:000629c0       ?advance_to_next_pass@?$standard_base@DV?$stream_output_adapter@D@__crt_stdio_output@@@__crt_stdio_output@@IEAA_NXZ 00000001800639c0 f i libucrtd:output.obj
 0001:00062a10       ?advance_to_next_pass@?$standard_base@DV?$string_output_adapter@D@__crt_stdio_output@@@__crt_stdio_output@@IEAA_NXZ 0000000180063a10 f i libucrtd:output.obj
 0001:00062a60       ?advance_to_next_pass@?$standard_base@_WV?$stream_output_adapter@_W@__crt_stdio_output@@@__crt_stdio_output@@IEAA_NXZ 0000000180063a60 f i libucrtd:output.obj
 0001:00062ab0       ?advance_to_next_pass@?$standard_base@_WV?$string_output_adapter@_W@__crt_stdio_output@@@__crt_stdio_output@@IEAA_NXZ 0000000180063ab0 f i libucrtd:output.obj
 0001:00062b00       ?crop_zeroes@__crt_stdio_output@@YAXPEADQEAU__crt_locale_pointers@@@Z 0000000180063b00 f i libucrtd:output.obj
 0001:00062c40       ?find_next_state@?$output_processor@DV?$stream_output_adapter@D@__crt_stdio_output@@V?$format_validation_base@DV?$stream_output_adapter@D@__crt_stdio_output@@@2@@__crt_stdio_output@@AEBA?AW4state@2@DW432@@Z 0000000180063c40 f i libucrtd:output.obj
 0001:00062cd0       ?find_next_state@?$output_processor@DV?$stream_output_adapter@D@__crt_stdio_output@@V?$positional_parameter_base@DV?$stream_output_adapter@D@__crt_stdio_output@@@2@@__crt_stdio_output@@AEBA?AW4state@2@DW432@@Z 0000000180063cd0 f i libucrtd:output.obj
 0001:00062d60       ?find_next_state@?$output_processor@DV?$stream_output_adapter@D@__crt_stdio_output@@V?$standard_base@DV?$stream_output_adapter@D@__crt_stdio_output@@@2@@__crt_stdio_output@@AEBA?AW4state@2@DW432@@Z 0000000180063d60 f i libucrtd:output.obj
 0001:00062df0       ?find_next_state@?$output_processor@DV?$string_output_adapter@D@__crt_stdio_output@@V?$format_validation_base@DV?$string_output_adapter@D@__crt_stdio_output@@@2@@__crt_stdio_output@@AEBA?AW4state@2@DW432@@Z 0000000180063df0 f i libucrtd:output.obj
 0001:00062e80       ?find_next_state@?$output_processor@DV?$string_output_adapter@D@__crt_stdio_output@@V?$positional_parameter_base@DV?$string_output_adapter@D@__crt_stdio_output@@@2@@__crt_stdio_output@@AEBA?AW4state@2@DW432@@Z 0000000180063e80 f i libucrtd:output.obj
 0001:00062f10       ?find_next_state@?$output_processor@DV?$string_output_adapter@D@__crt_stdio_output@@V?$standard_base@DV?$string_output_adapter@D@__crt_stdio_output@@@2@@__crt_stdio_output@@AEBA?AW4state@2@DW432@@Z 0000000180063f10 f i libucrtd:output.obj
 0001:00062fa0       ?find_next_state@?$output_processor@_WV?$stream_output_adapter@_W@__crt_stdio_output@@V?$format_validation_base@_WV?$stream_output_adapter@_W@__crt_stdio_output@@@2@@__crt_stdio_output@@AEBA?AW4state@2@_WW432@@Z 0000000180063fa0 f i libucrtd:output.obj
 0001:00063030       ?find_next_state@?$output_processor@_WV?$stream_output_adapter@_W@__crt_stdio_output@@V?$positional_parameter_base@_WV?$stream_output_adapter@_W@__crt_stdio_output@@@2@@__crt_stdio_output@@AEBA?AW4state@2@_WW432@@Z 0000000180064030 f i libucrtd:output.obj
 0001:000630c0       ?find_next_state@?$output_processor@_WV?$stream_output_adapter@_W@__crt_stdio_output@@V?$standard_base@_WV?$stream_output_adapter@_W@__crt_stdio_output@@@2@@__crt_stdio_output@@AEBA?AW4state@2@_WW432@@Z 00000001800640c0 f i libucrtd:output.obj
 0001:00063150       ?find_next_state@?$output_processor@_WV?$string_output_adapter@_W@__crt_stdio_output@@V?$format_validation_base@_WV?$string_output_adapter@_W@__crt_stdio_output@@@2@@__crt_stdio_output@@AEBA?AW4state@2@_WW432@@Z 0000000180064150 f i libucrtd:output.obj
 0001:000631e0       ?find_next_state@?$output_processor@_WV?$string_output_adapter@_W@__crt_stdio_output@@V?$positional_parameter_base@_WV?$string_output_adapter@_W@__crt_stdio_output@@@2@@__crt_stdio_output@@AEBA?AW4state@2@_WW432@@Z 00000001800641e0 f i libucrtd:output.obj
 0001:00063270       ?find_next_state@?$output_processor@_WV?$string_output_adapter@_W@__crt_stdio_output@@V?$standard_base@_WV?$string_output_adapter@_W@__crt_stdio_output@@@2@@__crt_stdio_output@@AEBA?AW4state@2@_WW432@@Z 0000000180064270 f i libucrtd:output.obj
 0001:00063300       ?force_decimal_point@__crt_stdio_output@@YAXPEADQEAU__crt_locale_pointers@@@Z 0000000180064300 f i libucrtd:output.obj
 0001:00063400       ?get@__crt_deferred_errno_cache@@QEAAAEAHXZ 0000000180064400 f i libucrtd:output.obj
 0001:00063430       ?get_flags@__crt_stdio_stream@@QEBAJXZ 0000000180064430 f i libucrtd:output.obj
 0001:00063460       ?get_parameter_type@?$positional_parameter_base@DV?$stream_output_adapter@D@__crt_stdio_output@@@__crt_stdio_output@@CA?AW4parameter_type@12@F@Z 0000000180064460 f i libucrtd:output.obj
 0001:00063470       ?get_parameter_type@?$positional_parameter_base@DV?$stream_output_adapter@D@__crt_stdio_output@@@__crt_stdio_output@@CA?AW4parameter_type@12@G@Z 0000000180064470 f i libucrtd:output.obj
 0001:00063480       ?get_parameter_type@?$positional_parameter_base@DV?$stream_output_adapter@D@__crt_stdio_output@@@__crt_stdio_output@@CA?AW4parameter_type@12@H@Z 0000000180064480 f i libucrtd:output.obj
 0001:00063490       ?get_parameter_type@?$positional_parameter_base@DV?$stream_output_adapter@D@__crt_stdio_output@@@__crt_stdio_output@@CA?AW4parameter_type@12@I@Z 0000000180064490 f i libucrtd:output.obj
 0001:000634a0       ?get_parameter_type@?$positional_parameter_base@DV?$stream_output_adapter@D@__crt_stdio_output@@@__crt_stdio_output@@CA?AW4parameter_type@12@U_CRT_DOUBLE@@@Z 00000001800644a0 f i libucrtd:output.obj
 0001:000634b0       ?get_parameter_type@?$positional_parameter_base@DV?$stream_output_adapter@D@__crt_stdio_output@@@__crt_stdio_output@@CA?AW4parameter_type@12@_J@Z 00000001800644b0 f i libucrtd:output.obj
 0001:000634c0       ?get_parameter_type@?$positional_parameter_base@DV?$stream_output_adapter@D@__crt_stdio_output@@@__crt_stdio_output@@CA?AW4parameter_type@12@_K@Z 00000001800644c0 f i libucrtd:output.obj
 0001:000634d0       ?get_parameter_type@?$positional_parameter_base@DV?$stream_output_adapter@D@__crt_stdio_output@@@__crt_stdio_output@@CA?AW4parameter_type@12@_W@Z 00000001800644d0 f i libucrtd:output.obj
 0001:000634e0       ?get_parameter_type@?$positional_parameter_base@DV?$string_output_adapter@D@__crt_stdio_output@@@__crt_stdio_output@@CA?AW4parameter_type@12@F@Z 00000001800644e0 f i libucrtd:output.obj
 0001:000634f0       ?get_parameter_type@?$positional_parameter_base@DV?$string_output_adapter@D@__crt_stdio_output@@@__crt_stdio_output@@CA?AW4parameter_type@12@G@Z 00000001800644f0 f i libucrtd:output.obj
 0001:00063500       ?get_parameter_type@?$positional_parameter_base@DV?$string_output_adapter@D@__crt_stdio_output@@@__crt_stdio_output@@CA?AW4parameter_type@12@H@Z 0000000180064500 f i libucrtd:output.obj
 0001:00063510       ?get_parameter_type@?$positional_parameter_base@DV?$string_output_adapter@D@__crt_stdio_output@@@__crt_stdio_output@@CA?AW4parameter_type@12@I@Z 0000000180064510 f i libucrtd:output.obj
 0001:00063520       ?get_parameter_type@?$positional_parameter_base@DV?$string_output_adapter@D@__crt_stdio_output@@@__crt_stdio_output@@CA?AW4parameter_type@12@U_CRT_DOUBLE@@@Z 0000000180064520 f i libucrtd:output.obj
 0001:00063530       ?get_parameter_type@?$positional_parameter_base@DV?$string_output_adapter@D@__crt_stdio_output@@@__crt_stdio_output@@CA?AW4parameter_type@12@_J@Z 0000000180064530 f i libucrtd:output.obj
 0001:00063540       ?get_parameter_type@?$positional_parameter_base@DV?$string_output_adapter@D@__crt_stdio_output@@@__crt_stdio_output@@CA?AW4parameter_type@12@_K@Z 0000000180064540 f i libucrtd:output.obj
 0001:00063550       ?get_parameter_type@?$positional_parameter_base@DV?$string_output_adapter@D@__crt_stdio_output@@@__crt_stdio_output@@CA?AW4parameter_type@12@_W@Z 0000000180064550 f i libucrtd:output.obj
 0001:00063560       ?get_parameter_type@?$positional_parameter_base@_WV?$stream_output_adapter@_W@__crt_stdio_output@@@__crt_stdio_output@@CA?AW4parameter_type@12@F@Z 0000000180064560 f i libucrtd:output.obj
 0001:00063570       ?get_parameter_type@?$positional_parameter_base@_WV?$stream_output_adapter@_W@__crt_stdio_output@@@__crt_stdio_output@@CA?AW4parameter_type@12@G@Z 0000000180064570 f i libucrtd:output.obj
 0001:00063580       ?get_parameter_type@?$positional_parameter_base@_WV?$stream_output_adapter@_W@__crt_stdio_output@@@__crt_stdio_output@@CA?AW4parameter_type@12@H@Z 0000000180064580 f i libucrtd:output.obj
 0001:00063590       ?get_parameter_type@?$positional_parameter_base@_WV?$stream_output_adapter@_W@__crt_stdio_output@@@__crt_stdio_output@@CA?AW4parameter_type@12@I@Z 0000000180064590 f i libucrtd:output.obj
 0001:000635a0       ?get_parameter_type@?$positional_parameter_base@_WV?$stream_output_adapter@_W@__crt_stdio_output@@@__crt_stdio_output@@CA?AW4parameter_type@12@U_CRT_DOUBLE@@@Z 00000001800645a0 f i libucrtd:output.obj
 0001:000635b0       ?get_parameter_type@?$positional_parameter_base@_WV?$stream_output_adapter@_W@__crt_stdio_output@@@__crt_stdio_output@@CA?AW4parameter_type@12@_J@Z 00000001800645b0 f i libucrtd:output.obj
 0001:000635c0       ?get_parameter_type@?$positional_parameter_base@_WV?$stream_output_adapter@_W@__crt_stdio_output@@@__crt_stdio_output@@CA?AW4parameter_type@12@_K@Z 00000001800645c0 f i libucrtd:output.obj
 0001:000635d0       ?get_parameter_type@?$positional_parameter_base@_WV?$stream_output_adapter@_W@__crt_stdio_output@@@__crt_stdio_output@@CA?AW4parameter_type@12@_W@Z 00000001800645d0 f i libucrtd:output.obj
 0001:000635e0       ?get_parameter_type@?$positional_parameter_base@_WV?$string_output_adapter@_W@__crt_stdio_output@@@__crt_stdio_output@@CA?AW4parameter_type@12@F@Z 00000001800645e0 f i libucrtd:output.obj
 0001:000635f0       ?get_parameter_type@?$positional_parameter_base@_WV?$string_output_adapter@_W@__crt_stdio_output@@@__crt_stdio_output@@CA?AW4parameter_type@12@G@Z 00000001800645f0 f i libucrtd:output.obj
 0001:00063600       ?get_parameter_type@?$positional_parameter_base@_WV?$string_output_adapter@_W@__crt_stdio_output@@@__crt_stdio_output@@CA?AW4parameter_type@12@H@Z 0000000180064600 f i libucrtd:output.obj
 0001:00063610       ?get_parameter_type@?$positional_parameter_base@_WV?$string_output_adapter@_W@__crt_stdio_output@@@__crt_stdio_output@@CA?AW4parameter_type@12@I@Z 0000000180064610 f i libucrtd:output.obj
 0001:00063620       ?get_parameter_type@?$positional_parameter_base@_WV?$string_output_adapter@_W@__crt_stdio_output@@@__crt_stdio_output@@CA?AW4parameter_type@12@U_CRT_DOUBLE@@@Z 0000000180064620 f i libucrtd:output.obj
 0001:00063630       ?get_parameter_type@?$positional_parameter_base@_WV?$string_output_adapter@_W@__crt_stdio_output@@@__crt_stdio_output@@CA?AW4parameter_type@12@_J@Z 0000000180064630 f i libucrtd:output.obj
 0001:00063640       ?get_parameter_type@?$positional_parameter_base@_WV?$string_output_adapter@_W@__crt_stdio_output@@@__crt_stdio_output@@CA?AW4parameter_type@12@_K@Z 0000000180064640 f i libucrtd:output.obj
 0001:00063650       ?get_parameter_type@?$positional_parameter_base@_WV?$string_output_adapter@_W@__crt_stdio_output@@@__crt_stdio_output@@CA?AW4parameter_type@12@_W@Z 0000000180064650 f i libucrtd:output.obj
 0001:00063660       ?has_flag@?$output_processor@DV?$stream_output_adapter@D@__crt_stdio_output@@V?$format_validation_base@DV?$stream_output_adapter@D@__crt_stdio_output@@@2@@__crt_stdio_output@@AEBA_NI@Z 0000000180064660 f i libucrtd:output.obj
 0001:000636a0       ?has_flag@?$output_processor@DV?$stream_output_adapter@D@__crt_stdio_output@@V?$positional_parameter_base@DV?$stream_output_adapter@D@__crt_stdio_output@@@2@@__crt_stdio_output@@AEBA_NI@Z 00000001800646a0 f i libucrtd:output.obj
 0001:000636e0       ?has_flag@?$output_processor@DV?$stream_output_adapter@D@__crt_stdio_output@@V?$standard_base@DV?$stream_output_adapter@D@__crt_stdio_output@@@2@@__crt_stdio_output@@AEBA_NI@Z 00000001800646e0 f i libucrtd:output.obj
 0001:00063720       ?has_flag@?$output_processor@DV?$string_output_adapter@D@__crt_stdio_output@@V?$format_validation_base@DV?$string_output_adapter@D@__crt_stdio_output@@@2@@__crt_stdio_output@@AEBA_NI@Z 0000000180064720 f i libucrtd:output.obj
 0001:00063760       ?has_flag@?$output_processor@DV?$string_output_adapter@D@__crt_stdio_output@@V?$positional_parameter_base@DV?$string_output_adapter@D@__crt_stdio_output@@@2@@__crt_stdio_output@@AEBA_NI@Z 0000000180064760 f i libucrtd:output.obj
 0001:000637a0       ?has_flag@?$output_processor@DV?$string_output_adapter@D@__crt_stdio_output@@V?$standard_base@DV?$string_output_adapter@D@__crt_stdio_output@@@2@@__crt_stdio_output@@AEBA_NI@Z 00000001800647a0 f i libucrtd:output.obj
 0001:000637e0       ?has_flag@?$output_processor@_WV?$stream_output_adapter@_W@__crt_stdio_output@@V?$format_validation_base@_WV?$stream_output_adapter@_W@__crt_stdio_output@@@2@@__crt_stdio_output@@AEBA_NI@Z 00000001800647e0 f i libucrtd:output.obj
 0001:00063820       ?has_flag@?$output_processor@_WV?$stream_output_adapter@_W@__crt_stdio_output@@V?$positional_parameter_base@_WV?$stream_output_adapter@_W@__crt_stdio_output@@@2@@__crt_stdio_output@@AEBA_NI@Z 0000000180064820 f i libucrtd:output.obj
 0001:00063860       ?has_flag@?$output_processor@_WV?$stream_output_adapter@_W@__crt_stdio_output@@V?$standard_base@_WV?$stream_output_adapter@_W@__crt_stdio_output@@@2@@__crt_stdio_output@@AEBA_NI@Z 0000000180064860 f i libucrtd:output.obj
 0001:000638a0       ?has_flag@?$output_processor@_WV?$string_output_adapter@_W@__crt_stdio_output@@V?$format_validation_base@_WV?$string_output_adapter@_W@__crt_stdio_output@@@2@@__crt_stdio_output@@AEBA_NI@Z 00000001800648a0 f i libucrtd:output.obj
 0001:000638e0       ?has_flag@?$output_processor@_WV?$string_output_adapter@_W@__crt_stdio_output@@V?$positional_parameter_base@_WV?$string_output_adapter@_W@__crt_stdio_output@@@2@@__crt_stdio_output@@AEBA_NI@Z 00000001800648e0 f i libucrtd:output.obj
 0001:00063920       ?has_flag@?$output_processor@_WV?$string_output_adapter@_W@__crt_stdio_output@@V?$standard_base@_WV?$string_output_adapter@_W@__crt_stdio_output@@@2@@__crt_stdio_output@@AEBA_NI@Z 0000000180064920 f i libucrtd:output.obj
 0001:00063960       ?is_positional_parameter_reappearance_consistent@?$positional_parameter_base@DV?$stream_output_adapter@D@__crt_stdio_output@@@__crt_stdio_output@@AEAA_NAEBUparameter_data@12@W4parameter_type@12@DW4length_modifier@2@@Z 0000000180064960 f i libucrtd:output.obj
 0001:00063bc0       ?is_positional_parameter_reappearance_consistent@?$positional_parameter_base@DV?$string_output_adapter@D@__crt_stdio_output@@@__crt_stdio_output@@AEAA_NAEBUparameter_data@12@W4parameter_type@12@DW4length_modifier@2@@Z 0000000180064bc0 f i libucrtd:output.obj
 0001:00063e20       ?is_positional_parameter_reappearance_consistent@?$positional_parameter_base@_WV?$stream_output_adapter@_W@__crt_stdio_output@@@__crt_stdio_output@@AEAA_NAEBUparameter_data@12@W4parameter_type@12@_WW4length_modifier@2@@Z 0000000180064e20 f i libucrtd:output.obj
 0001:00064080       ?is_positional_parameter_reappearance_consistent@?$positional_parameter_base@_WV?$string_output_adapter@_W@__crt_stdio_output@@@__crt_stdio_output@@AEAA_NAEBUparameter_data@12@W4parameter_type@12@_WW4length_modifier@2@@Z 0000000180065080 f i libucrtd:output.obj
 0001:000642e0       ?is_string_backed@__crt_stdio_stream@@QEBA_NXZ 00000001800652e0 f i libucrtd:output.obj
 0001:00064320       ?narrow_null_string@?$output_processor@DV?$stream_output_adapter@D@__crt_stdio_output@@V?$format_validation_base@DV?$stream_output_adapter@D@__crt_stdio_output@@@2@@__crt_stdio_output@@CAPEADXZ 0000000180065320 f i libucrtd:output.obj
 0001:00064330       ?narrow_null_string@?$output_processor@DV?$stream_output_adapter@D@__crt_stdio_output@@V?$positional_parameter_base@DV?$stream_output_adapter@D@__crt_stdio_output@@@2@@__crt_stdio_output@@CAPEADXZ 0000000180065330 f i libucrtd:output.obj
 0001:00064340       ?narrow_null_string@?$output_processor@DV?$stream_output_adapter@D@__crt_stdio_output@@V?$standard_base@DV?$stream_output_adapter@D@__crt_stdio_output@@@2@@__crt_stdio_output@@CAPEADXZ 0000000180065340 f i libucrtd:output.obj
 0001:00064350       ?narrow_null_string@?$output_processor@DV?$string_output_adapter@D@__crt_stdio_output@@V?$format_validation_base@DV?$string_output_adapter@D@__crt_stdio_output@@@2@@__crt_stdio_output@@CAPEADXZ 0000000180065350 f i libucrtd:output.obj
 0001:00064360       ?narrow_null_string@?$output_processor@DV?$string_output_adapter@D@__crt_stdio_output@@V?$positional_parameter_base@DV?$string_output_adapter@D@__crt_stdio_output@@@2@@__crt_stdio_output@@CAPEADXZ 0000000180065360 f i libucrtd:output.obj
 0001:00064370       ?narrow_null_string@?$output_processor@DV?$string_output_adapter@D@__crt_stdio_output@@V?$standard_base@DV?$string_output_adapter@D@__crt_stdio_output@@@2@@__crt_stdio_output@@CAPEADXZ 0000000180065370 f i libucrtd:output.obj
 0001:00064380       ?narrow_null_string@?$output_processor@_WV?$stream_output_adapter@_W@__crt_stdio_output@@V?$format_validation_base@_WV?$stream_output_adapter@_W@__crt_stdio_output@@@2@@__crt_stdio_output@@CAPEADXZ 0000000180065380 f i libucrtd:output.obj
 0001:00064390       ?narrow_null_string@?$output_processor@_WV?$stream_output_adapter@_W@__crt_stdio_output@@V?$positional_parameter_base@_WV?$stream_output_adapter@_W@__crt_stdio_output@@@2@@__crt_stdio_output@@CAPEADXZ 0000000180065390 f i libucrtd:output.obj
 0001:000643a0       ?narrow_null_string@?$output_processor@_WV?$stream_output_adapter@_W@__crt_stdio_output@@V?$standard_base@_WV?$stream_output_adapter@_W@__crt_stdio_output@@@2@@__crt_stdio_output@@CAPEADXZ 00000001800653a0 f i libucrtd:output.obj
 0001:000643b0       ?narrow_null_string@?$output_processor@_WV?$string_output_adapter@_W@__crt_stdio_output@@V?$format_validation_base@_WV?$string_output_adapter@_W@__crt_stdio_output@@@2@@__crt_stdio_output@@CAPEADXZ 00000001800653b0 f i libucrtd:output.obj
 0001:000643c0       ?narrow_null_string@?$output_processor@_WV?$string_output_adapter@_W@__crt_stdio_output@@V?$positional_parameter_base@_WV?$string_output_adapter@_W@__crt_stdio_output@@@2@@__crt_stdio_output@@CAPEADXZ 00000001800653c0 f i libucrtd:output.obj
 0001:000643d0       ?narrow_null_string@?$output_processor@_WV?$string_output_adapter@_W@__crt_stdio_output@@V?$standard_base@_WV?$string_output_adapter@_W@__crt_stdio_output@@@2@@__crt_stdio_output@@CAPEADXZ 00000001800653d0 f i libucrtd:output.obj
 0001:000643e0       ?parse_int_from_format_string@?$output_processor@DV?$stream_output_adapter@D@__crt_stdio_output@@V?$format_validation_base@DV?$stream_output_adapter@D@__crt_stdio_output@@@2@@__crt_stdio_output@@AEAA_NQEAH@Z 00000001800653e0 f i libucrtd:output.obj
 0001:000644d0       ?parse_int_from_format_string@?$output_processor@DV?$stream_output_adapter@D@__crt_stdio_output@@V?$positional_parameter_base@DV?$stream_output_adapter@D@__crt_stdio_output@@@2@@__crt_stdio_output@@AEAA_NQEAH@Z 00000001800654d0 f i libucrtd:output.obj
 0001:000645c0       ?parse_int_from_format_string@?$output_processor@DV?$stream_output_adapter@D@__crt_stdio_output@@V?$standard_base@DV?$stream_output_adapter@D@__crt_stdio_output@@@2@@__crt_stdio_output@@AEAA_NQEAH@Z 00000001800655c0 f i libucrtd:output.obj
 0001:000646b0       ?parse_int_from_format_string@?$output_processor@DV?$string_output_adapter@D@__crt_stdio_output@@V?$format_validation_base@DV?$string_output_adapter@D@__crt_stdio_output@@@2@@__crt_stdio_output@@AEAA_NQEAH@Z 00000001800656b0 f i libucrtd:output.obj
 0001:000647a0       ?parse_int_from_format_string@?$output_processor@DV?$string_output_adapter@D@__crt_stdio_output@@V?$positional_parameter_base@DV?$string_output_adapter@D@__crt_stdio_output@@@2@@__crt_stdio_output@@AEAA_NQEAH@Z 00000001800657a0 f i libucrtd:output.obj
 0001:00064890       ?parse_int_from_format_string@?$output_processor@DV?$string_output_adapter@D@__crt_stdio_output@@V?$standard_base@DV?$string_output_adapter@D@__crt_stdio_output@@@2@@__crt_stdio_output@@AEAA_NQEAH@Z 0000000180065890 f i libucrtd:output.obj
 0001:00064980       ?parse_int_from_format_string@?$output_processor@_WV?$stream_output_adapter@_W@__crt_stdio_output@@V?$format_validation_base@_WV?$stream_output_adapter@_W@__crt_stdio_output@@@2@@__crt_stdio_output@@AEAA_NQEAH@Z 0000000180065980 f i libucrtd:output.obj
 0001:00064a70       ?parse_int_from_format_string@?$output_processor@_WV?$stream_output_adapter@_W@__crt_stdio_output@@V?$positional_parameter_base@_WV?$stream_output_adapter@_W@__crt_stdio_output@@@2@@__crt_stdio_output@@AEAA_NQEAH@Z 0000000180065a70 f i libucrtd:output.obj
 0001:00064b60       ?parse_int_from_format_string@?$output_processor@_WV?$stream_output_adapter@_W@__crt_stdio_output@@V?$standard_base@_WV?$stream_output_adapter@_W@__crt_stdio_output@@@2@@__crt_stdio_output@@AEAA_NQEAH@Z 0000000180065b60 f i libucrtd:output.obj
 0001:00064c50       ?parse_int_from_format_string@?$output_processor@_WV?$string_output_adapter@_W@__crt_stdio_output@@V?$format_validation_base@_WV?$string_output_adapter@_W@__crt_stdio_output@@@2@@__crt_stdio_output@@AEAA_NQEAH@Z 0000000180065c50 f i libucrtd:output.obj
 0001:00064d40       ?parse_int_from_format_string@?$output_processor@_WV?$string_output_adapter@_W@__crt_stdio_output@@V?$positional_parameter_base@_WV?$string_output_adapter@_W@__crt_stdio_output@@@2@@__crt_stdio_output@@AEAA_NQEAH@Z 0000000180065d40 f i libucrtd:output.obj
 0001:00064e30       ?parse_int_from_format_string@?$output_processor@_WV?$string_output_adapter@_W@__crt_stdio_output@@V?$standard_base@_WV?$string_output_adapter@_W@__crt_stdio_output@@@2@@__crt_stdio_output@@AEAA_NQEAH@Z 0000000180065e30 f i libucrtd:output.obj
 0001:00064f20       ?process@?$output_processor@DV?$stream_output_adapter@D@__crt_stdio_output@@V?$format_validation_base@DV?$stream_output_adapter@D@__crt_stdio_output@@@2@@__crt_stdio_output@@QEAAHXZ 0000000180065f20 f i libucrtd:output.obj
 0001:00065280       ?process@?$output_processor@DV?$stream_output_adapter@D@__crt_stdio_output@@V?$positional_parameter_base@DV?$stream_output_adapter@D@__crt_stdio_output@@@2@@__crt_stdio_output@@QEAAHXZ 0000000180066280 f i libucrtd:output.obj
 0001:000655e0       ?process@?$output_processor@DV?$stream_output_adapter@D@__crt_stdio_output@@V?$standard_base@DV?$stream_output_adapter@D@__crt_stdio_output@@@2@@__crt_stdio_output@@QEAAHXZ 00000001800665e0 f i libucrtd:output.obj
 0001:00065940       ?process@?$output_processor@DV?$string_output_adapter@D@__crt_stdio_output@@V?$format_validation_base@DV?$string_output_adapter@D@__crt_stdio_output@@@2@@__crt_stdio_output@@QEAAHXZ 0000000180066940 f i libucrtd:output.obj
 0001:00065ca0       ?process@?$output_processor@DV?$string_output_adapter@D@__crt_stdio_output@@V?$positional_parameter_base@DV?$string_output_adapter@D@__crt_stdio_output@@@2@@__crt_stdio_output@@QEAAHXZ 0000000180066ca0 f i libucrtd:output.obj
 0001:00066000       ?process@?$output_processor@DV?$string_output_adapter@D@__crt_stdio_output@@V?$standard_base@DV?$string_output_adapter@D@__crt_stdio_output@@@2@@__crt_stdio_output@@QEAAHXZ 0000000180067000 f i libucrtd:output.obj
 0001:00066360       ?process@?$output_processor@_WV?$stream_output_adapter@_W@__crt_stdio_output@@V?$format_validation_base@_WV?$stream_output_adapter@_W@__crt_stdio_output@@@2@@__crt_stdio_output@@QEAAHXZ 0000000180067360 f i libucrtd:output.obj
 0001:000666c0       ?process@?$output_processor@_WV?$stream_output_adapter@_W@__crt_stdio_output@@V?$positional_parameter_base@_WV?$stream_output_adapter@_W@__crt_stdio_output@@@2@@__crt_stdio_output@@QEAAHXZ 00000001800676c0 f i libucrtd:output.obj
 0001:00066a20       ?process@?$output_processor@_WV?$stream_output_adapter@_W@__crt_stdio_output@@V?$standard_base@_WV?$stream_output_adapter@_W@__crt_stdio_output@@@2@@__crt_stdio_output@@QEAAHXZ 0000000180067a20 f i libucrtd:output.obj
 0001:00066d80       ?process@?$output_processor@_WV?$string_output_adapter@_W@__crt_stdio_output@@V?$format_validation_base@_WV?$string_output_adapter@_W@__crt_stdio_output@@@2@@__crt_stdio_output@@QEAAHXZ 0000000180067d80 f i libucrtd:output.obj
 0001:000670e0       ?process@?$output_processor@_WV?$string_output_adapter@_W@__crt_stdio_output@@V?$positional_parameter_base@_WV?$string_output_adapter@_W@__crt_stdio_output@@@2@@__crt_stdio_output@@QEAAHXZ 00000001800680e0 f i libucrtd:output.obj
 0001:00067440       ?process@?$output_processor@_WV?$string_output_adapter@_W@__crt_stdio_output@@V?$standard_base@_WV?$string_output_adapter@_W@__crt_stdio_output@@@2@@__crt_stdio_output@@QEAAHXZ 0000000180068440 f i libucrtd:output.obj
 0001:000677a0       ?public_stream@__crt_stdio_stream@@QEBAPEAU_iobuf@@XZ 00000001800687a0 f i libucrtd:output.obj
 0001:000677b0       ?set_flag@?$output_processor@DV?$stream_output_adapter@D@__crt_stdio_output@@V?$format_validation_base@DV?$stream_output_adapter@D@__crt_stdio_output@@@2@@__crt_stdio_output@@AEAAXI@Z 00000001800687b0 f i libucrtd:output.obj
 0001:000677d0       ?set_flag@?$output_processor@DV?$stream_output_adapter@D@__crt_stdio_output@@V?$positional_parameter_base@DV?$stream_output_adapter@D@__crt_stdio_output@@@2@@__crt_stdio_output@@AEAAXI@Z 00000001800687d0 f i libucrtd:output.obj
 0001:000677f0       ?set_flag@?$output_processor@DV?$stream_output_adapter@D@__crt_stdio_output@@V?$standard_base@DV?$stream_output_adapter@D@__crt_stdio_output@@@2@@__crt_stdio_output@@AEAAXI@Z 00000001800687f0 f i libucrtd:output.obj
 0001:00067810       ?set_flag@?$output_processor@DV?$string_output_adapter@D@__crt_stdio_output@@V?$format_validation_base@DV?$string_output_adapter@D@__crt_stdio_output@@@2@@__crt_stdio_output@@AEAAXI@Z 0000000180068810 f i libucrtd:output.obj
 0001:00067830       ?set_flag@?$output_processor@DV?$string_output_adapter@D@__crt_stdio_output@@V?$positional_parameter_base@DV?$string_output_adapter@D@__crt_stdio_output@@@2@@__crt_stdio_output@@AEAAXI@Z 0000000180068830 f i libucrtd:output.obj
 0001:00067850       ?set_flag@?$output_processor@DV?$string_output_adapter@D@__crt_stdio_output@@V?$standard_base@DV?$string_output_adapter@D@__crt_stdio_output@@@2@@__crt_stdio_output@@AEAAXI@Z 0000000180068850 f i libucrtd:output.obj
 0001:00067870       ?set_flag@?$output_processor@_WV?$stream_output_adapter@_W@__crt_stdio_output@@V?$format_validation_base@_WV?$stream_output_adapter@_W@__crt_stdio_output@@@2@@__crt_stdio_output@@AEAAXI@Z 0000000180068870 f i libucrtd:output.obj
 0001:00067890       ?set_flag@?$output_processor@_WV?$stream_output_adapter@_W@__crt_stdio_output@@V?$positional_parameter_base@_WV?$stream_output_adapter@_W@__crt_stdio_output@@@2@@__crt_stdio_output@@AEAAXI@Z 0000000180068890 f i libucrtd:output.obj
 0001:000678b0       ?set_flag@?$output_processor@_WV?$stream_output_adapter@_W@__crt_stdio_output@@V?$standard_base@_WV?$stream_output_adapter@_W@__crt_stdio_output@@@2@@__crt_stdio_output@@AEAAXI@Z 00000001800688b0 f i libucrtd:output.obj
 0001:000678d0       ?set_flag@?$output_processor@_WV?$string_output_adapter@_W@__crt_stdio_output@@V?$format_validation_base@_WV?$string_output_adapter@_W@__crt_stdio_output@@@2@@__crt_stdio_output@@AEAAXI@Z 00000001800688d0 f i libucrtd:output.obj
 0001:000678f0       ?set_flag@?$output_processor@_WV?$string_output_adapter@_W@__crt_stdio_output@@V?$positional_parameter_base@_WV?$string_output_adapter@_W@__crt_stdio_output@@@2@@__crt_stdio_output@@AEAAXI@Z 00000001800688f0 f i libucrtd:output.obj
 0001:00067910       ?set_flag@?$output_processor@_WV?$string_output_adapter@_W@__crt_stdio_output@@V?$standard_base@_WV?$string_output_adapter@_W@__crt_stdio_output@@@2@@__crt_stdio_output@@AEAAXI@Z 0000000180068910 f i libucrtd:output.obj
 0001:00067930       ?should_format@?$positional_parameter_base@DV?$stream_output_adapter@D@__crt_stdio_output@@@__crt_stdio_output@@IEAA_NXZ 0000000180068930 f i libucrtd:output.obj
 0001:00067970       ?should_format@?$positional_parameter_base@DV?$string_output_adapter@D@__crt_stdio_output@@@__crt_stdio_output@@IEAA_NXZ 0000000180068970 f i libucrtd:output.obj
 0001:000679b0       ?should_format@?$positional_parameter_base@_WV?$stream_output_adapter@_W@__crt_stdio_output@@@__crt_stdio_output@@IEAA_NXZ 00000001800689b0 f i libucrtd:output.obj
 0001:000679f0       ?should_format@?$positional_parameter_base@_WV?$string_output_adapter@_W@__crt_stdio_output@@@__crt_stdio_output@@IEAA_NXZ 00000001800689f0 f i libucrtd:output.obj
 0001:00067a30       ?should_format@?$standard_base@DV?$stream_output_adapter@D@__crt_stdio_output@@@__crt_stdio_output@@IEAA_NXZ 0000000180068a30 f i libucrtd:output.obj
 0001:00067a40       ?should_format@?$standard_base@DV?$string_output_adapter@D@__crt_stdio_output@@@__crt_stdio_output@@IEAA_NXZ 0000000180068a40 f i libucrtd:output.obj
 0001:00067a50       ?should_format@?$standard_base@_WV?$stream_output_adapter@_W@__crt_stdio_output@@@__crt_stdio_output@@IEAA_NXZ 0000000180068a50 f i libucrtd:output.obj
 0001:00067a60       ?should_format@?$standard_base@_WV?$string_output_adapter@_W@__crt_stdio_output@@@__crt_stdio_output@@IEAA_NXZ 0000000180068a60 f i libucrtd:output.obj
 0001:00067a70       ?should_skip_normal_state_processing@?$positional_parameter_base@DV?$stream_output_adapter@D@__crt_stdio_output@@@__crt_stdio_output@@IEAA_NXZ 0000000180068a70 f i libucrtd:output.obj
 0001:00067ac0       ?should_skip_normal_state_processing@?$positional_parameter_base@DV?$string_output_adapter@D@__crt_stdio_output@@@__crt_stdio_output@@IEAA_NXZ 0000000180068ac0 f i libucrtd:output.obj
 0001:00067b10       ?should_skip_normal_state_processing@?$positional_parameter_base@_WV?$stream_output_adapter@_W@__crt_stdio_output@@@__crt_stdio_output@@IEAA_NXZ 0000000180068b10 f i libucrtd:output.obj
 0001:00067b60       ?should_skip_normal_state_processing@?$positional_parameter_base@_WV?$string_output_adapter@_W@__crt_stdio_output@@@__crt_stdio_output@@IEAA_NXZ 0000000180068b60 f i libucrtd:output.obj
 0001:00067bb0       ?should_skip_normal_state_processing@?$standard_base@DV?$stream_output_adapter@D@__crt_stdio_output@@@__crt_stdio_output@@IEAA_NXZ 0000000180068bb0 f i libucrtd:output.obj
 0001:00067bc0       ?should_skip_normal_state_processing@?$standard_base@DV?$string_output_adapter@D@__crt_stdio_output@@@__crt_stdio_output@@IEAA_NXZ 0000000180068bc0 f i libucrtd:output.obj
 0001:00067bd0       ?should_skip_normal_state_processing@?$standard_base@_WV?$stream_output_adapter@_W@__crt_stdio_output@@@__crt_stdio_output@@IEAA_NXZ 0000000180068bd0 f i libucrtd:output.obj
 0001:00067be0       ?should_skip_normal_state_processing@?$standard_base@_WV?$string_output_adapter@_W@__crt_stdio_output@@@__crt_stdio_output@@IEAA_NXZ 0000000180068be0 f i libucrtd:output.obj
 0001:00067bf0       ?should_skip_type_state_output@?$positional_parameter_base@DV?$stream_output_adapter@D@__crt_stdio_output@@@__crt_stdio_output@@IEBA_NXZ 0000000180068bf0 f i libucrtd:output.obj
 0001:00067c30       ?should_skip_type_state_output@?$positional_parameter_base@DV?$string_output_adapter@D@__crt_stdio_output@@@__crt_stdio_output@@IEBA_NXZ 0000000180068c30 f i libucrtd:output.obj
 0001:00067c70       ?should_skip_type_state_output@?$positional_parameter_base@_WV?$stream_output_adapter@_W@__crt_stdio_output@@@__crt_stdio_output@@IEBA_NXZ 0000000180068c70 f i libucrtd:output.obj
 0001:00067cb0       ?should_skip_type_state_output@?$positional_parameter_base@_WV?$string_output_adapter@_W@__crt_stdio_output@@@__crt_stdio_output@@IEBA_NXZ 0000000180068cb0 f i libucrtd:output.obj
 0001:00067cf0       ?should_skip_type_state_output@?$standard_base@DV?$stream_output_adapter@D@__crt_stdio_output@@@__crt_stdio_output@@IEBA_NXZ 0000000180068cf0 f i libucrtd:output.obj
 0001:00067d00       ?should_skip_type_state_output@?$standard_base@DV?$string_output_adapter@D@__crt_stdio_output@@@__crt_stdio_output@@IEBA_NXZ 0000000180068d00 f i libucrtd:output.obj
 0001:00067d10       ?should_skip_type_state_output@?$standard_base@_WV?$stream_output_adapter@_W@__crt_stdio_output@@@__crt_stdio_output@@IEBA_NXZ 0000000180068d10 f i libucrtd:output.obj
 0001:00067d20       ?should_skip_type_state_output@?$standard_base@_WV?$string_output_adapter@_W@__crt_stdio_output@@@__crt_stdio_output@@IEBA_NXZ 0000000180068d20 f i libucrtd:output.obj
 0001:00067d30       ?state_case_dot@?$output_processor@DV?$stream_output_adapter@D@__crt_stdio_output@@V?$format_validation_base@DV?$stream_output_adapter@D@__crt_stdio_output@@@2@@__crt_stdio_output@@AEAA_NXZ 0000000180068d30 f i libucrtd:output.obj
 0001:00067d50       ?state_case_dot@?$output_processor@DV?$stream_output_adapter@D@__crt_stdio_output@@V?$positional_parameter_base@DV?$stream_output_adapter@D@__crt_stdio_output@@@2@@__crt_stdio_output@@AEAA_NXZ 0000000180068d50 f i libucrtd:output.obj
 0001:00067d70       ?state_case_dot@?$output_processor@DV?$stream_output_adapter@D@__crt_stdio_output@@V?$standard_base@DV?$stream_output_adapter@D@__crt_stdio_output@@@2@@__crt_stdio_output@@AEAA_NXZ 0000000180068d70 f i libucrtd:output.obj
 0001:00067d90       ?state_case_dot@?$output_processor@DV?$string_output_adapter@D@__crt_stdio_output@@V?$format_validation_base@DV?$string_output_adapter@D@__crt_stdio_output@@@2@@__crt_stdio_output@@AEAA_NXZ 0000000180068d90 f i libucrtd:output.obj
 0001:00067db0       ?state_case_dot@?$output_processor@DV?$string_output_adapter@D@__crt_stdio_output@@V?$positional_parameter_base@DV?$string_output_adapter@D@__crt_stdio_output@@@2@@__crt_stdio_output@@AEAA_NXZ 0000000180068db0 f i libucrtd:output.obj
 0001:00067dd0       ?state_case_dot@?$output_processor@DV?$string_output_adapter@D@__crt_stdio_output@@V?$standard_base@DV?$string_output_adapter@D@__crt_stdio_output@@@2@@__crt_stdio_output@@AEAA_NXZ 0000000180068dd0 f i libucrtd:output.obj
 0001:00067df0       ?state_case_dot@?$output_processor@_WV?$stream_output_adapter@_W@__crt_stdio_output@@V?$format_validation_base@_WV?$stream_output_adapter@_W@__crt_stdio_output@@@2@@__crt_stdio_output@@AEAA_NXZ 0000000180068df0 f i libucrtd:output.obj
 0001:00067e10       ?state_case_dot@?$output_processor@_WV?$stream_output_adapter@_W@__crt_stdio_output@@V?$positional_parameter_base@_WV?$stream_output_adapter@_W@__crt_stdio_output@@@2@@__crt_stdio_output@@AEAA_NXZ 0000000180068e10 f i libucrtd:output.obj
 0001:00067e30       ?state_case_dot@?$output_processor@_WV?$stream_output_adapter@_W@__crt_stdio_output@@V?$standard_base@_WV?$stream_output_adapter@_W@__crt_stdio_output@@@2@@__crt_stdio_output@@AEAA_NXZ 0000000180068e30 f i libucrtd:output.obj
 0001:00067e50       ?state_case_dot@?$output_processor@_WV?$string_output_adapter@_W@__crt_stdio_output@@V?$format_validation_base@_WV?$string_output_adapter@_W@__crt_stdio_output@@@2@@__crt_stdio_output@@AEAA_NXZ 0000000180068e50 f i libucrtd:output.obj
 0001:00067e70       ?state_case_dot@?$output_processor@_WV?$string_output_adapter@_W@__crt_stdio_output@@V?$positional_parameter_base@_WV?$string_output_adapter@_W@__crt_stdio_output@@@2@@__crt_stdio_output@@AEAA_NXZ 0000000180068e70 f i libucrtd:output.obj
 0001:00067e90       ?state_case_dot@?$output_processor@_WV?$string_output_adapter@_W@__crt_stdio_output@@V?$standard_base@_WV?$string_output_adapter@_W@__crt_stdio_output@@@2@@__crt_stdio_output@@AEAA_NXZ 0000000180068e90 f i libucrtd:output.obj
 0001:00067eb0       ?state_case_flag@?$output_processor@DV?$stream_output_adapter@D@__crt_stdio_output@@V?$format_validation_base@DV?$stream_output_adapter@D@__crt_stdio_output@@@2@@__crt_stdio_output@@AEAA_NXZ 0000000180068eb0 f i libucrtd:output.obj
 0001:00067f50       ?state_case_flag@?$output_processor@DV?$stream_output_adapter@D@__crt_stdio_output@@V?$positional_parameter_base@DV?$stream_output_adapter@D@__crt_stdio_output@@@2@@__crt_stdio_output@@AEAA_NXZ 0000000180068f50 f i libucrtd:output.obj
 0001:00067ff0       ?state_case_flag@?$output_processor@DV?$stream_output_adapter@D@__crt_stdio_output@@V?$standard_base@DV?$stream_output_adapter@D@__crt_stdio_output@@@2@@__crt_stdio_output@@AEAA_NXZ 0000000180068ff0 f i libucrtd:output.obj
 0001:00068090       ?state_case_flag@?$output_processor@DV?$string_output_adapter@D@__crt_stdio_output@@V?$format_validation_base@DV?$string_output_adapter@D@__crt_stdio_output@@@2@@__crt_stdio_output@@AEAA_NXZ 0000000180069090 f i libucrtd:output.obj
 0001:00068130       ?state_case_flag@?$output_processor@DV?$string_output_adapter@D@__crt_stdio_output@@V?$positional_parameter_base@DV?$string_output_adapter@D@__crt_stdio_output@@@2@@__crt_stdio_output@@AEAA_NXZ 0000000180069130 f i libucrtd:output.obj
 0001:000681d0       ?state_case_flag@?$output_processor@DV?$string_output_adapter@D@__crt_stdio_output@@V?$standard_base@DV?$string_output_adapter@D@__crt_stdio_output@@@2@@__crt_stdio_output@@AEAA_NXZ 00000001800691d0 f i libucrtd:output.obj
 0001:00068270       ?state_case_flag@?$output_processor@_WV?$stream_output_adapter@_W@__crt_stdio_output@@V?$format_validation_base@_WV?$stream_output_adapter@_W@__crt_stdio_output@@@2@@__crt_stdio_output@@AEAA_NXZ 0000000180069270 f i libucrtd:output.obj
 0001:00068310       ?state_case_flag@?$output_processor@_WV?$stream_output_adapter@_W@__crt_stdio_output@@V?$positional_parameter_base@_WV?$stream_output_adapter@_W@__crt_stdio_output@@@2@@__crt_stdio_output@@AEAA_NXZ 0000000180069310 f i libucrtd:output.obj
 0001:000683b0       ?state_case_flag@?$output_processor@_WV?$stream_output_adapter@_W@__crt_stdio_output@@V?$standard_base@_WV?$stream_output_adapter@_W@__crt_stdio_output@@@2@@__crt_stdio_output@@AEAA_NXZ 00000001800693b0 f i libucrtd:output.obj
 0001:00068450       ?state_case_flag@?$output_processor@_WV?$string_output_adapter@_W@__crt_stdio_output@@V?$format_validation_base@_WV?$string_output_adapter@_W@__crt_stdio_output@@@2@@__crt_stdio_output@@AEAA_NXZ 0000000180069450 f i libucrtd:output.obj
 0001:000684f0       ?state_case_flag@?$output_processor@_WV?$string_output_adapter@_W@__crt_stdio_output@@V?$positional_parameter_base@_WV?$string_output_adapter@_W@__crt_stdio_output@@@2@@__crt_stdio_output@@AEAA_NXZ 00000001800694f0 f i libucrtd:output.obj
 0001:00068590       ?state_case_flag@?$output_processor@_WV?$string_output_adapter@_W@__crt_stdio_output@@V?$standard_base@_WV?$string_output_adapter@_W@__crt_stdio_output@@@2@@__crt_stdio_output@@AEAA_NXZ 0000000180069590 f i libucrtd:output.obj
 0001:00068630       ?state_case_normal@?$output_processor@DV?$stream_output_adapter@D@__crt_stdio_output@@V?$format_validation_base@DV?$stream_output_adapter@D@__crt_stdio_output@@@2@@__crt_stdio_output@@AEAA_NXZ 0000000180069630 f i libucrtd:output.obj
 0001:00068710       ?state_case_normal@?$output_processor@DV?$stream_output_adapter@D@__crt_stdio_output@@V?$positional_parameter_base@DV?$stream_output_adapter@D@__crt_stdio_output@@@2@@__crt_stdio_output@@AEAA_NXZ 0000000180069710 f i libucrtd:output.obj
 0001:000687f0       ?state_case_normal@?$output_processor@DV?$stream_output_adapter@D@__crt_stdio_output@@V?$standard_base@DV?$stream_output_adapter@D@__crt_stdio_output@@@2@@__crt_stdio_output@@AEAA_NXZ 00000001800697f0 f i libucrtd:output.obj
 0001:000688d0       ?state_case_normal@?$output_processor@DV?$string_output_adapter@D@__crt_stdio_output@@V?$format_validation_base@DV?$string_output_adapter@D@__crt_stdio_output@@@2@@__crt_stdio_output@@AEAA_NXZ 00000001800698d0 f i libucrtd:output.obj
 0001:000689b0       ?state_case_normal@?$output_processor@DV?$string_output_adapter@D@__crt_stdio_output@@V?$positional_parameter_base@DV?$string_output_adapter@D@__crt_stdio_output@@@2@@__crt_stdio_output@@AEAA_NXZ 00000001800699b0 f i libucrtd:output.obj
 0001:00068a90       ?state_case_normal@?$output_processor@DV?$string_output_adapter@D@__crt_stdio_output@@V?$standard_base@DV?$string_output_adapter@D@__crt_stdio_output@@@2@@__crt_stdio_output@@AEAA_NXZ 0000000180069a90 f i libucrtd:output.obj
 0001:00068b70       ?state_case_normal@?$output_processor@_WV?$stream_output_adapter@_W@__crt_stdio_output@@V?$format_validation_base@_WV?$stream_output_adapter@_W@__crt_stdio_output@@@2@@__crt_stdio_output@@AEAA_NXZ 0000000180069b70 f i libucrtd:output.obj
 0001:00068c50       ?state_case_normal@?$output_processor@_WV?$stream_output_adapter@_W@__crt_stdio_output@@V?$positional_parameter_base@_WV?$stream_output_adapter@_W@__crt_stdio_output@@@2@@__crt_stdio_output@@AEAA_NXZ 0000000180069c50 f i libucrtd:output.obj
 0001:00068d30       ?state_case_normal@?$output_processor@_WV?$stream_output_adapter@_W@__crt_stdio_output@@V?$standard_base@_WV?$stream_output_adapter@_W@__crt_stdio_output@@@2@@__crt_stdio_output@@AEAA_NXZ 0000000180069d30 f i libucrtd:output.obj
 0001:00068e10       ?state_case_normal@?$output_processor@_WV?$string_output_adapter@_W@__crt_stdio_output@@V?$format_validation_base@_WV?$string_output_adapter@_W@__crt_stdio_output@@@2@@__crt_stdio_output@@AEAA_NXZ 0000000180069e10 f i libucrtd:output.obj
 0001:00068ef0       ?state_case_normal@?$output_processor@_WV?$string_output_adapter@_W@__crt_stdio_output@@V?$positional_parameter_base@_WV?$string_output_adapter@_W@__crt_stdio_output@@@2@@__crt_stdio_output@@AEAA_NXZ 0000000180069ef0 f i libucrtd:output.obj
 0001:00068fd0       ?state_case_normal@?$output_processor@_WV?$string_output_adapter@_W@__crt_stdio_output@@V?$standard_base@_WV?$string_output_adapter@_W@__crt_stdio_output@@@2@@__crt_stdio_output@@AEAA_NXZ 0000000180069fd0 f i libucrtd:output.obj
 0001:000690b0       ?state_case_normal_common@?$output_processor@DV?$stream_output_adapter@D@__crt_stdio_output@@V?$format_validation_base@DV?$stream_output_adapter@D@__crt_stdio_output@@@2@@__crt_stdio_output@@AEAA_NXZ 000000018006a0b0 f i libucrtd:output.obj
 0001:00069100       ?state_case_normal_common@?$output_processor@DV?$stream_output_adapter@D@__crt_stdio_output@@V?$positional_parameter_base@DV?$stream_output_adapter@D@__crt_stdio_output@@@2@@__crt_stdio_output@@AEAA_NXZ 000000018006a100 f i libucrtd:output.obj
 0001:00069150       ?state_case_normal_common@?$output_processor@DV?$stream_output_adapter@D@__crt_stdio_output@@V?$standard_base@DV?$stream_output_adapter@D@__crt_stdio_output@@@2@@__crt_stdio_output@@AEAA_NXZ 000000018006a150 f i libucrtd:output.obj
 0001:000691a0       ?state_case_normal_common@?$output_processor@DV?$string_output_adapter@D@__crt_stdio_output@@V?$format_validation_base@DV?$string_output_adapter@D@__crt_stdio_output@@@2@@__crt_stdio_output@@AEAA_NXZ 000000018006a1a0 f i libucrtd:output.obj
 0001:000691f0       ?state_case_normal_common@?$output_processor@DV?$string_output_adapter@D@__crt_stdio_output@@V?$positional_parameter_base@DV?$string_output_adapter@D@__crt_stdio_output@@@2@@__crt_stdio_output@@AEAA_NXZ 000000018006a1f0 f i libucrtd:output.obj
 0001:00069240       ?state_case_normal_common@?$output_processor@DV?$string_output_adapter@D@__crt_stdio_output@@V?$standard_base@DV?$string_output_adapter@D@__crt_stdio_output@@@2@@__crt_stdio_output@@AEAA_NXZ 000000018006a240 f i libucrtd:output.obj
 0001:00069290       ?state_case_normal_common@?$output_processor@_WV?$stream_output_adapter@_W@__crt_stdio_output@@V?$format_validation_base@_WV?$stream_output_adapter@_W@__crt_stdio_output@@@2@@__crt_stdio_output@@AEAA_NXZ 000000018006a290 f i libucrtd:output.obj
 0001:000692e0       ?state_case_normal_common@?$output_processor@_WV?$stream_output_adapter@_W@__crt_stdio_output@@V?$positional_parameter_base@_WV?$stream_output_adapter@_W@__crt_stdio_output@@@2@@__crt_stdio_output@@AEAA_NXZ 000000018006a2e0 f i libucrtd:output.obj
 0001:00069330       ?state_case_normal_common@?$output_processor@_WV?$stream_output_adapter@_W@__crt_stdio_output@@V?$standard_base@_WV?$stream_output_adapter@_W@__crt_stdio_output@@@2@@__crt_stdio_output@@AEAA_NXZ 000000018006a330 f i libucrtd:output.obj
 0001:00069380       ?state_case_normal_common@?$output_processor@_WV?$string_output_adapter@_W@__crt_stdio_output@@V?$format_validation_base@_WV?$string_output_adapter@_W@__crt_stdio_output@@@2@@__crt_stdio_output@@AEAA_NXZ 000000018006a380 f i libucrtd:output.obj
 0001:000693d0       ?state_case_normal_common@?$output_processor@_WV?$string_output_adapter@_W@__crt_stdio_output@@V?$positional_parameter_base@_WV?$string_output_adapter@_W@__crt_stdio_output@@@2@@__crt_stdio_output@@AEAA_NXZ 000000018006a3d0 f i libucrtd:output.obj
 0001:00069420       ?state_case_normal_common@?$output_processor@_WV?$string_output_adapter@_W@__crt_stdio_output@@V?$standard_base@_WV?$string_output_adapter@_W@__crt_stdio_output@@@2@@__crt_stdio_output@@AEAA_NXZ 000000018006a420 f i libucrtd:output.obj
 0001:00069470       ?state_case_normal_tchar@?$output_processor@DV?$stream_output_adapter@D@__crt_stdio_output@@V?$format_validation_base@DV?$stream_output_adapter@D@__crt_stdio_output@@@2@@__crt_stdio_output@@AEAA_ND@Z 000000018006a470 f i libucrtd:output.obj
 0001:000695b0       ?state_case_normal_tchar@?$output_processor@DV?$stream_output_adapter@D@__crt_stdio_output@@V?$positional_parameter_base@DV?$stream_output_adapter@D@__crt_stdio_output@@@2@@__crt_stdio_output@@AEAA_ND@Z 000000018006a5b0 f i libucrtd:output.obj
 0001:000696f0       ?state_case_normal_tchar@?$output_processor@DV?$stream_output_adapter@D@__crt_stdio_output@@V?$standard_base@DV?$stream_output_adapter@D@__crt_stdio_output@@@2@@__crt_stdio_output@@AEAA_ND@Z 000000018006a6f0 f i libucrtd:output.obj
 0001:00069830       ?state_case_normal_tchar@?$output_processor@DV?$string_output_adapter@D@__crt_stdio_output@@V?$format_validation_base@DV?$string_output_adapter@D@__crt_stdio_output@@@2@@__crt_stdio_output@@AEAA_ND@Z 000000018006a830 f i libucrtd:output.obj
 0001:00069970       ?state_case_normal_tchar@?$output_processor@DV?$string_output_adapter@D@__crt_stdio_output@@V?$positional_parameter_base@DV?$string_output_adapter@D@__crt_stdio_output@@@2@@__crt_stdio_output@@AEAA_ND@Z 000000018006a970 f i libucrtd:output.obj
 0001:00069ab0       ?state_case_normal_tchar@?$output_processor@DV?$string_output_adapter@D@__crt_stdio_output@@V?$standard_base@DV?$string_output_adapter@D@__crt_stdio_output@@@2@@__crt_stdio_output@@AEAA_ND@Z 000000018006aab0 f i libucrtd:output.obj
 0001:00069bf0       ?state_case_normal_tchar@?$output_processor@_WV?$stream_output_adapter@_W@__crt_stdio_output@@V?$format_validation_base@_WV?$stream_output_adapter@_W@__crt_stdio_output@@@2@@__crt_stdio_output@@AEAA_N_W@Z 000000018006abf0 f i libucrtd:output.obj
 0001:00069c10       ?state_case_normal_tchar@?$output_processor@_WV?$stream_output_adapter@_W@__crt_stdio_output@@V?$positional_parameter_base@_WV?$stream_output_adapter@_W@__crt_stdio_output@@@2@@__crt_stdio_output@@AEAA_N_W@Z 000000018006ac10 f i libucrtd:output.obj
 0001:00069c30       ?state_case_normal_tchar@?$output_processor@_WV?$stream_output_adapter@_W@__crt_stdio_output@@V?$standard_base@_WV?$stream_output_adapter@_W@__crt_stdio_output@@@2@@__crt_stdio_output@@AEAA_N_W@Z 000000018006ac30 f i libucrtd:output.obj
 0001:00069c50       ?state_case_normal_tchar@?$output_processor@_WV?$string_output_adapter@_W@__crt_stdio_output@@V?$format_validation_base@_WV?$string_output_adapter@_W@__crt_stdio_output@@@2@@__crt_stdio_output@@AEAA_N_W@Z 000000018006ac50 f i libucrtd:output.obj
 0001:00069c70       ?state_case_normal_tchar@?$output_processor@_WV?$string_output_adapter@_W@__crt_stdio_output@@V?$positional_parameter_base@_WV?$string_output_adapter@_W@__crt_stdio_output@@@2@@__crt_stdio_output@@AEAA_N_W@Z 000000018006ac70 f i libucrtd:output.obj
 0001:00069c90       ?state_case_normal_tchar@?$output_processor@_WV?$string_output_adapter@_W@__crt_stdio_output@@V?$standard_base@_WV?$string_output_adapter@_W@__crt_stdio_output@@@2@@__crt_stdio_output@@AEAA_N_W@Z 000000018006ac90 f i libucrtd:output.obj
 0001:00069cb0       ?state_case_percent@?$output_processor@DV?$stream_output_adapter@D@__crt_stdio_output@@V?$format_validation_base@DV?$stream_output_adapter@D@__crt_stdio_output@@@2@@__crt_stdio_output@@AEAA_NXZ 000000018006acb0 f i libucrtd:output.obj
 0001:00069d00       ?state_case_percent@?$output_processor@DV?$stream_output_adapter@D@__crt_stdio_output@@V?$positional_parameter_base@DV?$stream_output_adapter@D@__crt_stdio_output@@@2@@__crt_stdio_output@@AEAA_NXZ 000000018006ad00 f i libucrtd:output.obj
 0001:00069d50       ?state_case_percent@?$output_processor@DV?$stream_output_adapter@D@__crt_stdio_output@@V?$standard_base@DV?$stream_output_adapter@D@__crt_stdio_output@@@2@@__crt_stdio_output@@AEAA_NXZ 000000018006ad50 f i libucrtd:output.obj
 0001:00069da0       ?state_case_percent@?$output_processor@DV?$string_output_adapter@D@__crt_stdio_output@@V?$format_validation_base@DV?$string_output_adapter@D@__crt_stdio_output@@@2@@__crt_stdio_output@@AEAA_NXZ 000000018006ada0 f i libucrtd:output.obj
 0001:00069df0       ?state_case_percent@?$output_processor@DV?$string_output_adapter@D@__crt_stdio_output@@V?$positional_parameter_base@DV?$string_output_adapter@D@__crt_stdio_output@@@2@@__crt_stdio_output@@AEAA_NXZ 000000018006adf0 f i libucrtd:output.obj
 0001:00069e40       ?state_case_percent@?$output_processor@DV?$string_output_adapter@D@__crt_stdio_output@@V?$standard_base@DV?$string_output_adapter@D@__crt_stdio_output@@@2@@__crt_stdio_output@@AEAA_NXZ 000000018006ae40 f i libucrtd:output.obj
 0001:00069e90       ?state_case_percent@?$output_processor@_WV?$stream_output_adapter@_W@__crt_stdio_output@@V?$format_validation_base@_WV?$stream_output_adapter@_W@__crt_stdio_output@@@2@@__crt_stdio_output@@AEAA_NXZ 000000018006ae90 f i libucrtd:output.obj
 0001:00069ee0       ?state_case_percent@?$output_processor@_WV?$stream_output_adapter@_W@__crt_stdio_output@@V?$positional_parameter_base@_WV?$stream_output_adapter@_W@__crt_stdio_output@@@2@@__crt_stdio_output@@AEAA_NXZ 000000018006aee0 f i libucrtd:output.obj
 0001:00069f30       ?state_case_percent@?$output_processor@_WV?$stream_output_adapter@_W@__crt_stdio_output@@V?$standard_base@_WV?$stream_output_adapter@_W@__crt_stdio_output@@@2@@__crt_stdio_output@@AEAA_NXZ 000000018006af30 f i libucrtd:output.obj
 0001:00069f80       ?state_case_percent@?$output_processor@_WV?$string_output_adapter@_W@__crt_stdio_output@@V?$format_validation_base@_WV?$string_output_adapter@_W@__crt_stdio_output@@@2@@__crt_stdio_output@@AEAA_NXZ 000000018006af80 f i libucrtd:output.obj
 0001:00069fd0       ?state_case_percent@?$output_processor@_WV?$string_output_adapter@_W@__crt_stdio_output@@V?$positional_parameter_base@_WV?$string_output_adapter@_W@__crt_stdio_output@@@2@@__crt_stdio_output@@AEAA_NXZ 000000018006afd0 f i libucrtd:output.obj
 0001:0006a020       ?state_case_percent@?$output_processor@_WV?$string_output_adapter@_W@__crt_stdio_output@@V?$standard_base@_WV?$string_output_adapter@_W@__crt_stdio_output@@@2@@__crt_stdio_output@@AEAA_NXZ 000000018006b020 f i libucrtd:output.obj
 0001:0006a070       ?state_case_precision@?$output_processor@DV?$stream_output_adapter@D@__crt_stdio_output@@V?$format_validation_base@DV?$stream_output_adapter@D@__crt_stdio_output@@@2@@__crt_stdio_output@@AEAA_NXZ 000000018006b070 f i libucrtd:output.obj
 0001:0006a0f0       ?state_case_precision@?$output_processor@DV?$stream_output_adapter@D@__crt_stdio_output@@V?$positional_parameter_base@DV?$stream_output_adapter@D@__crt_stdio_output@@@2@@__crt_stdio_output@@AEAA_NXZ 000000018006b0f0 f i libucrtd:output.obj
 0001:0006a170       ?state_case_precision@?$output_processor@DV?$stream_output_adapter@D@__crt_stdio_output@@V?$standard_base@DV?$stream_output_adapter@D@__crt_stdio_output@@@2@@__crt_stdio_output@@AEAA_NXZ 000000018006b170 f i libucrtd:output.obj
 0001:0006a1f0       ?state_case_precision@?$output_processor@DV?$string_output_adapter@D@__crt_stdio_output@@V?$format_validation_base@DV?$string_output_adapter@D@__crt_stdio_output@@@2@@__crt_stdio_output@@AEAA_NXZ 000000018006b1f0 f i libucrtd:output.obj
 0001:0006a270       ?state_case_precision@?$output_processor@DV?$string_output_adapter@D@__crt_stdio_output@@V?$positional_parameter_base@DV?$string_output_adapter@D@__crt_stdio_output@@@2@@__crt_stdio_output@@AEAA_NXZ 000000018006b270 f i libucrtd:output.obj
 0001:0006a2f0       ?state_case_precision@?$output_processor@DV?$string_output_adapter@D@__crt_stdio_output@@V?$standard_base@DV?$string_output_adapter@D@__crt_stdio_output@@@2@@__crt_stdio_output@@AEAA_NXZ 000000018006b2f0 f i libucrtd:output.obj
 0001:0006a370       ?state_case_precision@?$output_processor@_WV?$stream_output_adapter@_W@__crt_stdio_output@@V?$format_validation_base@_WV?$stream_output_adapter@_W@__crt_stdio_output@@@2@@__crt_stdio_output@@AEAA_NXZ 000000018006b370 f i libucrtd:output.obj
 0001:0006a3f0       ?state_case_precision@?$output_processor@_WV?$stream_output_adapter@_W@__crt_stdio_output@@V?$positional_parameter_base@_WV?$stream_output_adapter@_W@__crt_stdio_output@@@2@@__crt_stdio_output@@AEAA_NXZ 000000018006b3f0 f i libucrtd:output.obj
 0001:0006a470       ?state_case_precision@?$output_processor@_WV?$stream_output_adapter@_W@__crt_stdio_output@@V?$standard_base@_WV?$stream_output_adapter@_W@__crt_stdio_output@@@2@@__crt_stdio_output@@AEAA_NXZ 000000018006b470 f i libucrtd:output.obj
 0001:0006a4f0       ?state_case_precision@?$output_processor@_WV?$string_output_adapter@_W@__crt_stdio_output@@V?$format_validation_base@_WV?$string_output_adapter@_W@__crt_stdio_output@@@2@@__crt_stdio_output@@AEAA_NXZ 000000018006b4f0 f i libucrtd:output.obj
 0001:0006a570       ?state_case_precision@?$output_processor@_WV?$string_output_adapter@_W@__crt_stdio_output@@V?$positional_parameter_base@_WV?$string_output_adapter@_W@__crt_stdio_output@@@2@@__crt_stdio_output@@AEAA_NXZ 000000018006b570 f i libucrtd:output.obj
 0001:0006a5f0       ?state_case_precision@?$output_processor@_WV?$string_output_adapter@_W@__crt_stdio_output@@V?$standard_base@_WV?$string_output_adapter@_W@__crt_stdio_output@@@2@@__crt_stdio_output@@AEAA_NXZ 000000018006b5f0 f i libucrtd:output.obj
 0001:0006a670       ?state_case_size@?$output_processor@DV?$stream_output_adapter@D@__crt_stdio_output@@V?$format_validation_base@DV?$stream_output_adapter@D@__crt_stdio_output@@@2@@__crt_stdio_output@@AEAA_NXZ 000000018006b670 f i libucrtd:output.obj
 0001:0006aaf0       ?state_case_size@?$output_processor@DV?$stream_output_adapter@D@__crt_stdio_output@@V?$positional_parameter_base@DV?$stream_output_adapter@D@__crt_stdio_output@@@2@@__crt_stdio_output@@AEAA_NXZ 000000018006baf0 f i libucrtd:output.obj
 0001:0006af70       ?state_case_size@?$output_processor@DV?$stream_output_adapter@D@__crt_stdio_output@@V?$standard_base@DV?$stream_output_adapter@D@__crt_stdio_output@@@2@@__crt_stdio_output@@AEAA_NXZ 000000018006bf70 f i libucrtd:output.obj
 0001:0006b3f0       ?state_case_size@?$output_processor@DV?$string_output_adapter@D@__crt_stdio_output@@V?$format_validation_base@DV?$string_output_adapter@D@__crt_stdio_output@@@2@@__crt_stdio_output@@AEAA_NXZ 000000018006c3f0 f i libucrtd:output.obj
 0001:0006b870       ?state_case_size@?$output_processor@DV?$string_output_adapter@D@__crt_stdio_output@@V?$positional_parameter_base@DV?$string_output_adapter@D@__crt_stdio_output@@@2@@__crt_stdio_output@@AEAA_NXZ 000000018006c870 f i libucrtd:output.obj
 0001:0006bcf0       ?state_case_size@?$output_processor@DV?$string_output_adapter@D@__crt_stdio_output@@V?$standard_base@DV?$string_output_adapter@D@__crt_stdio_output@@@2@@__crt_stdio_output@@AEAA_NXZ 000000018006ccf0 f i libucrtd:output.obj
 0001:0006c170       ?state_case_size@?$output_processor@_WV?$stream_output_adapter@_W@__crt_stdio_output@@V?$format_validation_base@_WV?$stream_output_adapter@_W@__crt_stdio_output@@@2@@__crt_stdio_output@@AEAA_NXZ 000000018006d170 f i libucrtd:output.obj
 0001:0006c5f0       ?state_case_size@?$output_processor@_WV?$stream_output_adapter@_W@__crt_stdio_output@@V?$positional_parameter_base@_WV?$stream_output_adapter@_W@__crt_stdio_output@@@2@@__crt_stdio_output@@AEAA_NXZ 000000018006d5f0 f i libucrtd:output.obj
 0001:0006ca70       ?state_case_size@?$output_processor@_WV?$stream_output_adapter@_W@__crt_stdio_output@@V?$standard_base@_WV?$stream_output_adapter@_W@__crt_stdio_output@@@2@@__crt_stdio_output@@AEAA_NXZ 000000018006da70 f i libucrtd:output.obj
 0001:0006cef0       ?state_case_size@?$output_processor@_WV?$string_output_adapter@_W@__crt_stdio_output@@V?$format_validation_base@_WV?$string_output_adapter@_W@__crt_stdio_output@@@2@@__crt_stdio_output@@AEAA_NXZ 000000018006def0 f i libucrtd:output.obj
 0001:0006d370       ?state_case_size@?$output_processor@_WV?$string_output_adapter@_W@__crt_stdio_output@@V?$positional_parameter_base@_WV?$string_output_adapter@_W@__crt_stdio_output@@@2@@__crt_stdio_output@@AEAA_NXZ 000000018006e370 f i libucrtd:output.obj
 0001:0006d7f0       ?state_case_size@?$output_processor@_WV?$string_output_adapter@_W@__crt_stdio_output@@V?$standard_base@_WV?$string_output_adapter@_W@__crt_stdio_output@@@2@@__crt_stdio_output@@AEAA_NXZ 000000018006e7f0 f i libucrtd:output.obj
 0001:0006dc70       ?state_case_type@?$output_processor@DV?$stream_output_adapter@D@__crt_stdio_output@@V?$format_validation_base@DV?$stream_output_adapter@D@__crt_stdio_output@@@2@@__crt_stdio_output@@AEAA_NXZ 000000018006ec70 f i libucrtd:output.obj
 0001:0006e110       ?state_case_type@?$output_processor@DV?$stream_output_adapter@D@__crt_stdio_output@@V?$positional_parameter_base@DV?$stream_output_adapter@D@__crt_stdio_output@@@2@@__crt_stdio_output@@AEAA_NXZ 000000018006f110 f i libucrtd:output.obj
 0001:0006e5b0       ?state_case_type@?$output_processor@DV?$stream_output_adapter@D@__crt_stdio_output@@V?$standard_base@DV?$stream_output_adapter@D@__crt_stdio_output@@@2@@__crt_stdio_output@@AEAA_NXZ 000000018006f5b0 f i libucrtd:output.obj
 0001:0006ea50       ?state_case_type@?$output_processor@DV?$string_output_adapter@D@__crt_stdio_output@@V?$format_validation_base@DV?$string_output_adapter@D@__crt_stdio_output@@@2@@__crt_stdio_output@@AEAA_NXZ 000000018006fa50 f i libucrtd:output.obj
 0001:0006eef0       ?state_case_type@?$output_processor@DV?$string_output_adapter@D@__crt_stdio_output@@V?$positional_parameter_base@DV?$string_output_adapter@D@__crt_stdio_output@@@2@@__crt_stdio_output@@AEAA_NXZ 000000018006fef0 f i libucrtd:output.obj
 0001:0006f390       ?state_case_type@?$output_processor@DV?$string_output_adapter@D@__crt_stdio_output@@V?$standard_base@DV?$string_output_adapter@D@__crt_stdio_output@@@2@@__crt_stdio_output@@AEAA_NXZ 0000000180070390 f i libucrtd:output.obj
 0001:0006f830       ?state_case_type@?$output_processor@_WV?$stream_output_adapter@_W@__crt_stdio_output@@V?$format_validation_base@_WV?$stream_output_adapter@_W@__crt_stdio_output@@@2@@__crt_stdio_output@@AEAA_NXZ 0000000180070830 f i libucrtd:output.obj
 0001:0006fd90       ?state_case_type@?$output_processor@_WV?$stream_output_adapter@_W@__crt_stdio_output@@V?$positional_parameter_base@_WV?$stream_output_adapter@_W@__crt_stdio_output@@@2@@__crt_stdio_output@@AEAA_NXZ 0000000180070d90 f i libucrtd:output.obj
 0001:000702f0       ?state_case_type@?$output_processor@_WV?$stream_output_adapter@_W@__crt_stdio_output@@V?$standard_base@_WV?$stream_output_adapter@_W@__crt_stdio_output@@@2@@__crt_stdio_output@@AEAA_NXZ 00000001800712f0 f i libucrtd:output.obj
 0001:00070850       ?state_case_type@?$output_processor@_WV?$string_output_adapter@_W@__crt_stdio_output@@V?$format_validation_base@_WV?$string_output_adapter@_W@__crt_stdio_output@@@2@@__crt_stdio_output@@AEAA_NXZ 0000000180071850 f i libucrtd:output.obj
 0001:00070db0       ?state_case_type@?$output_processor@_WV?$string_output_adapter@_W@__crt_stdio_output@@V?$positional_parameter_base@_WV?$string_output_adapter@_W@__crt_stdio_output@@@2@@__crt_stdio_output@@AEAA_NXZ 0000000180071db0 f i libucrtd:output.obj
 0001:00071310       ?state_case_type@?$output_processor@_WV?$string_output_adapter@_W@__crt_stdio_output@@V?$standard_base@_WV?$string_output_adapter@_W@__crt_stdio_output@@@2@@__crt_stdio_output@@AEAA_NXZ 0000000180072310 f i libucrtd:output.obj
 0001:00071870       ?state_case_width@?$output_processor@DV?$stream_output_adapter@D@__crt_stdio_output@@V?$format_validation_base@DV?$stream_output_adapter@D@__crt_stdio_output@@@2@@__crt_stdio_output@@AEAA_NXZ 0000000180072870 f i libucrtd:output.obj
 0001:00071900       ?state_case_width@?$output_processor@DV?$stream_output_adapter@D@__crt_stdio_output@@V?$positional_parameter_base@DV?$stream_output_adapter@D@__crt_stdio_output@@@2@@__crt_stdio_output@@AEAA_NXZ 0000000180072900 f i libucrtd:output.obj
 0001:00071990       ?state_case_width@?$output_processor@DV?$stream_output_adapter@D@__crt_stdio_output@@V?$standard_base@DV?$stream_output_adapter@D@__crt_stdio_output@@@2@@__crt_stdio_output@@AEAA_NXZ 0000000180072990 f i libucrtd:output.obj
 0001:00071a20       ?state_case_width@?$output_processor@DV?$string_output_adapter@D@__crt_stdio_output@@V?$format_validation_base@DV?$string_output_adapter@D@__crt_stdio_output@@@2@@__crt_stdio_output@@AEAA_NXZ 0000000180072a20 f i libucrtd:output.obj
 0001:00071ab0       ?state_case_width@?$output_processor@DV?$string_output_adapter@D@__crt_stdio_output@@V?$positional_parameter_base@DV?$string_output_adapter@D@__crt_stdio_output@@@2@@__crt_stdio_output@@AEAA_NXZ 0000000180072ab0 f i libucrtd:output.obj
 0001:00071b40       ?state_case_width@?$output_processor@DV?$string_output_adapter@D@__crt_stdio_output@@V?$standard_base@DV?$string_output_adapter@D@__crt_stdio_output@@@2@@__crt_stdio_output@@AEAA_NXZ 0000000180072b40 f i libucrtd:output.obj
 0001:00071bd0       ?state_case_width@?$output_processor@_WV?$stream_output_adapter@_W@__crt_stdio_output@@V?$format_validation_base@_WV?$stream_output_adapter@_W@__crt_stdio_output@@@2@@__crt_stdio_output@@AEAA_NXZ 0000000180072bd0 f i libucrtd:output.obj
 0001:00071c60       ?state_case_width@?$output_processor@_WV?$stream_output_adapter@_W@__crt_stdio_output@@V?$positional_parameter_base@_WV?$stream_output_adapter@_W@__crt_stdio_output@@@2@@__crt_stdio_output@@AEAA_NXZ 0000000180072c60 f i libucrtd:output.obj
 0001:00071cf0       ?state_case_width@?$output_processor@_WV?$stream_output_adapter@_W@__crt_stdio_output@@V?$standard_base@_WV?$stream_output_adapter@_W@__crt_stdio_output@@@2@@__crt_stdio_output@@AEAA_NXZ 0000000180072cf0 f i libucrtd:output.obj
 0001:00071d80       ?state_case_width@?$output_processor@_WV?$string_output_adapter@_W@__crt_stdio_output@@V?$format_validation_base@_WV?$string_output_adapter@_W@__crt_stdio_output@@@2@@__crt_stdio_output@@AEAA_NXZ 0000000180072d80 f i libucrtd:output.obj
 0001:00071e10       ?state_case_width@?$output_processor@_WV?$string_output_adapter@_W@__crt_stdio_output@@V?$positional_parameter_base@_WV?$string_output_adapter@_W@__crt_stdio_output@@@2@@__crt_stdio_output@@AEAA_NXZ 0000000180072e10 f i libucrtd:output.obj
 0001:00071ea0       ?state_case_width@?$output_processor@_WV?$string_output_adapter@_W@__crt_stdio_output@@V?$standard_base@_WV?$string_output_adapter@_W@__crt_stdio_output@@@2@@__crt_stdio_output@@AEAA_NXZ 0000000180072ea0 f i libucrtd:output.obj
 0001:00071f30       ?state_count@?$format_validation_base@DV?$stream_output_adapter@D@__crt_stdio_output@@@__crt_stdio_output@@KAIXZ 0000000180072f30 f i libucrtd:output.obj
 0001:00071f40       ?state_count@?$format_validation_base@DV?$string_output_adapter@D@__crt_stdio_output@@@__crt_stdio_output@@KAIXZ 0000000180072f40 f i libucrtd:output.obj
 0001:00071f50       ?state_count@?$format_validation_base@_WV?$stream_output_adapter@_W@__crt_stdio_output@@@__crt_stdio_output@@KAIXZ 0000000180072f50 f i libucrtd:output.obj
 0001:00071f60       ?state_count@?$format_validation_base@_WV?$string_output_adapter@_W@__crt_stdio_output@@@__crt_stdio_output@@KAIXZ 0000000180072f60 f i libucrtd:output.obj
 0001:00071f70       ?state_count@?$standard_base@DV?$stream_output_adapter@D@__crt_stdio_output@@@__crt_stdio_output@@KAIXZ 0000000180072f70 f i libucrtd:output.obj
 0001:00071f80       ?state_count@?$standard_base@DV?$string_output_adapter@D@__crt_stdio_output@@@__crt_stdio_output@@KAIXZ 0000000180072f80 f i libucrtd:output.obj
 0001:00071f90       ?state_count@?$standard_base@_WV?$stream_output_adapter@_W@__crt_stdio_output@@@__crt_stdio_output@@KAIXZ 0000000180072f90 f i libucrtd:output.obj
 0001:00071fa0       ?state_count@?$standard_base@_WV?$string_output_adapter@_W@__crt_stdio_output@@@__crt_stdio_output@@KAIXZ 0000000180072fa0 f i libucrtd:output.obj
 0001:00071fb0       ?state_transition_table@?$format_validation_base@DV?$stream_output_adapter@D@__crt_stdio_output@@@__crt_stdio_output@@KAAEBV?$spectre_mitigated_lookup_table@Ustate_transition_pair@__crt_stdio_output@@$0IA@@2@XZ 0000000180072fb0 f i libucrtd:output.obj
 0001:00071fc0       ?state_transition_table@?$format_validation_base@DV?$string_output_adapter@D@__crt_stdio_output@@@__crt_stdio_output@@KAAEBV?$spectre_mitigated_lookup_table@Ustate_transition_pair@__crt_stdio_output@@$0IA@@2@XZ 0000000180072fc0 f i libucrtd:output.obj
 0001:00071fd0       ?state_transition_table@?$format_validation_base@_WV?$stream_output_adapter@_W@__crt_stdio_output@@@__crt_stdio_output@@KAAEBV?$spectre_mitigated_lookup_table@Ustate_transition_pair@__crt_stdio_output@@$0IA@@2@XZ 0000000180072fd0 f i libucrtd:output.obj
 0001:00071fe0       ?state_transition_table@?$format_validation_base@_WV?$string_output_adapter@_W@__crt_stdio_output@@@__crt_stdio_output@@KAAEBV?$spectre_mitigated_lookup_table@Ustate_transition_pair@__crt_stdio_output@@$0IA@@2@XZ 0000000180072fe0 f i libucrtd:output.obj
 0001:00071ff0       ?state_transition_table@?$standard_base@DV?$stream_output_adapter@D@__crt_stdio_output@@@__crt_stdio_output@@KAAEBV?$spectre_mitigated_lookup_table@Ustate_transition_pair@__crt_stdio_output@@$0IA@@2@XZ 0000000180072ff0 f i libucrtd:output.obj
 0001:00072000       ?state_transition_table@?$standard_base@DV?$string_output_adapter@D@__crt_stdio_output@@@__crt_stdio_output@@KAAEBV?$spectre_mitigated_lookup_table@Ustate_transition_pair@__crt_stdio_output@@$0IA@@2@XZ 0000000180073000 f i libucrtd:output.obj
 0001:00072010       ?state_transition_table@?$standard_base@_WV?$stream_output_adapter@_W@__crt_stdio_output@@@__crt_stdio_output@@KAAEBV?$spectre_mitigated_lookup_table@Ustate_transition_pair@__crt_stdio_output@@$0IA@@2@XZ 0000000180073010 f i libucrtd:output.obj
 0001:00072020       ?state_transition_table@?$standard_base@_WV?$string_output_adapter@_W@__crt_stdio_output@@@__crt_stdio_output@@KAAEBV?$spectre_mitigated_lookup_table@Ustate_transition_pair@__crt_stdio_output@@$0IA@@2@XZ 0000000180073020 f i libucrtd:output.obj
 0001:00072030       ?tchar_string@?$common_data@D@__crt_stdio_output@@IEAAAEAPEADD@Z 0000000180073030 f i libucrtd:output.obj
 0001:00072050       ?tchar_string@?$common_data@D@__crt_stdio_output@@IEAAAEAPEADXZ 0000000180073050 f i libucrtd:output.obj
 0001:00072070       ?tchar_string@?$common_data@_W@__crt_stdio_output@@IEAAAEAPEA_WXZ 0000000180073070 f i libucrtd:output.obj
 0001:00072090       ?tchar_string@?$common_data@_W@__crt_stdio_output@@IEAAAEAPEA_W_W@Z 0000000180073090 f i libucrtd:output.obj
 0001:000720b0       ?to_integer_size@__crt_stdio_output@@YA_KW4length_modifier@1@@Z 00000001800730b0 f i libucrtd:output.obj
 0001:00072160       ?type_case_X@?$output_processor@DV?$stream_output_adapter@D@__crt_stdio_output@@V?$format_validation_base@DV?$stream_output_adapter@D@__crt_stdio_output@@@2@@__crt_stdio_output@@AEAA_NXZ 0000000180073160 f i libucrtd:output.obj
 0001:00072180       ?type_case_X@?$output_processor@DV?$stream_output_adapter@D@__crt_stdio_output@@V?$positional_parameter_base@DV?$stream_output_adapter@D@__crt_stdio_output@@@2@@__crt_stdio_output@@AEAA_NXZ 0000000180073180 f i libucrtd:output.obj
 0001:000721a0       ?type_case_X@?$output_processor@DV?$stream_output_adapter@D@__crt_stdio_output@@V?$standard_base@DV?$stream_output_adapter@D@__crt_stdio_output@@@2@@__crt_stdio_output@@AEAA_NXZ 00000001800731a0 f i libucrtd:output.obj
 0001:000721c0       ?type_case_X@?$output_processor@DV?$string_output_adapter@D@__crt_stdio_output@@V?$format_validation_base@DV?$string_output_adapter@D@__crt_stdio_output@@@2@@__crt_stdio_output@@AEAA_NXZ 00000001800731c0 f i libucrtd:output.obj
 0001:000721e0       ?type_case_X@?$output_processor@DV?$string_output_adapter@D@__crt_stdio_output@@V?$positional_parameter_base@DV?$string_output_adapter@D@__crt_stdio_output@@@2@@__crt_stdio_output@@AEAA_NXZ 00000001800731e0 f i libucrtd:output.obj
 0001:00072200       ?type_case_X@?$output_processor@DV?$string_output_adapter@D@__crt_stdio_output@@V?$standard_base@DV?$string_output_adapter@D@__crt_stdio_output@@@2@@__crt_stdio_output@@AEAA_NXZ 0000000180073200 f i libucrtd:output.obj
 0001:00072220       ?type_case_X@?$output_processor@_WV?$stream_output_adapter@_W@__crt_stdio_output@@V?$format_validation_base@_WV?$stream_output_adapter@_W@__crt_stdio_output@@@2@@__crt_stdio_output@@AEAA_NXZ 0000000180073220 f i libucrtd:output.obj
 0001:00072240       ?type_case_X@?$output_processor@_WV?$stream_output_adapter@_W@__crt_stdio_output@@V?$positional_parameter_base@_WV?$stream_output_adapter@_W@__crt_stdio_output@@@2@@__crt_stdio_output@@AEAA_NXZ 0000000180073240 f i libucrtd:output.obj
 0001:00072260       ?type_case_X@?$output_processor@_WV?$stream_output_adapter@_W@__crt_stdio_output@@V?$standard_base@_WV?$stream_output_adapter@_W@__crt_stdio_output@@@2@@__crt_stdio_output@@AEAA_NXZ 0000000180073260 f i libucrtd:output.obj
 0001:00072280       ?type_case_X@?$output_processor@_WV?$string_output_adapter@_W@__crt_stdio_output@@V?$format_validation_base@_WV?$string_output_adapter@_W@__crt_stdio_output@@@2@@__crt_stdio_output@@AEAA_NXZ 0000000180073280 f i libucrtd:output.obj
 0001:000722a0       ?type_case_X@?$output_processor@_WV?$string_output_adapter@_W@__crt_stdio_output@@V?$positional_parameter_base@_WV?$string_output_adapter@_W@__crt_stdio_output@@@2@@__crt_stdio_output@@AEAA_NXZ 00000001800732a0 f i libucrtd:output.obj
 0001:000722c0       ?type_case_X@?$output_processor@_WV?$string_output_adapter@_W@__crt_stdio_output@@V?$standard_base@_WV?$string_output_adapter@_W@__crt_stdio_output@@@2@@__crt_stdio_output@@AEAA_NXZ 00000001800732c0 f i libucrtd:output.obj
 0001:000722e0       ?type_case_Z@?$output_processor@DV?$stream_output_adapter@D@__crt_stdio_output@@V?$format_validation_base@DV?$stream_output_adapter@D@__crt_stdio_output@@@2@@__crt_stdio_output@@AEAA_NXZ 00000001800732e0 f i libucrtd:output.obj
 0001:00072400       ?type_case_Z@?$output_processor@DV?$stream_output_adapter@D@__crt_stdio_output@@V?$positional_parameter_base@DV?$stream_output_adapter@D@__crt_stdio_output@@@2@@__crt_stdio_output@@AEAA_NXZ 0000000180073400 f i libucrtd:output.obj
 0001:00072520       ?type_case_Z@?$output_processor@DV?$stream_output_adapter@D@__crt_stdio_output@@V?$standard_base@DV?$stream_output_adapter@D@__crt_stdio_output@@@2@@__crt_stdio_output@@AEAA_NXZ 0000000180073520 f i libucrtd:output.obj
 0001:00072640       ?type_case_Z@?$output_processor@DV?$string_output_adapter@D@__crt_stdio_output@@V?$format_validation_base@DV?$string_output_adapter@D@__crt_stdio_output@@@2@@__crt_stdio_output@@AEAA_NXZ 0000000180073640 f i libucrtd:output.obj
 0001:00072760       ?type_case_Z@?$output_processor@DV?$string_output_adapter@D@__crt_stdio_output@@V?$positional_parameter_base@DV?$string_output_adapter@D@__crt_stdio_output@@@2@@__crt_stdio_output@@AEAA_NXZ 0000000180073760 f i libucrtd:output.obj
 0001:00072880       ?type_case_Z@?$output_processor@DV?$string_output_adapter@D@__crt_stdio_output@@V?$standard_base@DV?$string_output_adapter@D@__crt_stdio_output@@@2@@__crt_stdio_output@@AEAA_NXZ 0000000180073880 f i libucrtd:output.obj
 0001:000729a0       ?type_case_Z@?$output_processor@_WV?$stream_output_adapter@_W@__crt_stdio_output@@V?$format_validation_base@_WV?$stream_output_adapter@_W@__crt_stdio_output@@@2@@__crt_stdio_output@@AEAA_NXZ 00000001800739a0 f i libucrtd:output.obj
 0001:00072ac0       ?type_case_Z@?$output_processor@_WV?$stream_output_adapter@_W@__crt_stdio_output@@V?$positional_parameter_base@_WV?$stream_output_adapter@_W@__crt_stdio_output@@@2@@__crt_stdio_output@@AEAA_NXZ 0000000180073ac0 f i libucrtd:output.obj
 0001:00072be0       ?type_case_Z@?$output_processor@_WV?$stream_output_adapter@_W@__crt_stdio_output@@V?$standard_base@_WV?$stream_output_adapter@_W@__crt_stdio_output@@@2@@__crt_stdio_output@@AEAA_NXZ 0000000180073be0 f i libucrtd:output.obj
 0001:00072d00       ?type_case_Z@?$output_processor@_WV?$string_output_adapter@_W@__crt_stdio_output@@V?$format_validation_base@_WV?$string_output_adapter@_W@__crt_stdio_output@@@2@@__crt_stdio_output@@AEAA_NXZ 0000000180073d00 f i libucrtd:output.obj
 0001:00072e20       ?type_case_Z@?$output_processor@_WV?$string_output_adapter@_W@__crt_stdio_output@@V?$positional_parameter_base@_WV?$string_output_adapter@_W@__crt_stdio_output@@@2@@__crt_stdio_output@@AEAA_NXZ 0000000180073e20 f i libucrtd:output.obj
 0001:00072f40       ?type_case_Z@?$output_processor@_WV?$string_output_adapter@_W@__crt_stdio_output@@V?$standard_base@_WV?$string_output_adapter@_W@__crt_stdio_output@@@2@@__crt_stdio_output@@AEAA_NXZ 0000000180073f40 f i libucrtd:output.obj
 0001:00073060       ?type_case_a@?$output_processor@DV?$stream_output_adapter@D@__crt_stdio_output@@V?$format_validation_base@DV?$stream_output_adapter@D@__crt_stdio_output@@@2@@__crt_stdio_output@@AEAA_NXZ 0000000180074060 f i libucrtd:output.obj
 0001:00073430       ?type_case_a@?$output_processor@DV?$stream_output_adapter@D@__crt_stdio_output@@V?$positional_parameter_base@DV?$stream_output_adapter@D@__crt_stdio_output@@@2@@__crt_stdio_output@@AEAA_NXZ 0000000180074430 f i libucrtd:output.obj
 0001:00073800       ?type_case_a@?$output_processor@DV?$stream_output_adapter@D@__crt_stdio_output@@V?$standard_base@DV?$stream_output_adapter@D@__crt_stdio_output@@@2@@__crt_stdio_output@@AEAA_NXZ 0000000180074800 f i libucrtd:output.obj
 0001:00073bd0       ?type_case_a@?$output_processor@DV?$string_output_adapter@D@__crt_stdio_output@@V?$format_validation_base@DV?$string_output_adapter@D@__crt_stdio_output@@@2@@__crt_stdio_output@@AEAA_NXZ 0000000180074bd0 f i libucrtd:output.obj
 0001:00073fa0       ?type_case_a@?$output_processor@DV?$string_output_adapter@D@__crt_stdio_output@@V?$positional_parameter_base@DV?$string_output_adapter@D@__crt_stdio_output@@@2@@__crt_stdio_output@@AEAA_NXZ 0000000180074fa0 f i libucrtd:output.obj
 0001:00074370       ?type_case_a@?$output_processor@DV?$string_output_adapter@D@__crt_stdio_output@@V?$standard_base@DV?$string_output_adapter@D@__crt_stdio_output@@@2@@__crt_stdio_output@@AEAA_NXZ 0000000180075370 f i libucrtd:output.obj
 0001:00074740       ?type_case_a@?$output_processor@_WV?$stream_output_adapter@_W@__crt_stdio_output@@V?$format_validation_base@_WV?$stream_output_adapter@_W@__crt_stdio_output@@@2@@__crt_stdio_output@@AEAA_NXZ 0000000180075740 f i libucrtd:output.obj
 0001:00074b10       ?type_case_a@?$output_processor@_WV?$stream_output_adapter@_W@__crt_stdio_output@@V?$positional_parameter_base@_WV?$stream_output_adapter@_W@__crt_stdio_output@@@2@@__crt_stdio_output@@AEAA_NXZ 0000000180075b10 f i libucrtd:output.obj
 0001:00074ee0       ?type_case_a@?$output_processor@_WV?$stream_output_adapter@_W@__crt_stdio_output@@V?$standard_base@_WV?$stream_output_adapter@_W@__crt_stdio_output@@@2@@__crt_stdio_output@@AEAA_NXZ 0000000180075ee0 f i libucrtd:output.obj
 0001:000752b0       ?type_case_a@?$output_processor@_WV?$string_output_adapter@_W@__crt_stdio_output@@V?$format_validation_base@_WV?$string_output_adapter@_W@__crt_stdio_output@@@2@@__crt_stdio_output@@AEAA_NXZ 00000001800762b0 f i libucrtd:output.obj
 0001:00075680       ?type_case_a@?$output_processor@_WV?$string_output_adapter@_W@__crt_stdio_output@@V?$positional_parameter_base@_WV?$string_output_adapter@_W@__crt_stdio_output@@@2@@__crt_stdio_output@@AEAA_NXZ 0000000180076680 f i libucrtd:output.obj
 0001:00075a50       ?type_case_a@?$output_processor@_WV?$string_output_adapter@_W@__crt_stdio_output@@V?$standard_base@_WV?$string_output_adapter@_W@__crt_stdio_output@@@2@@__crt_stdio_output@@AEAA_NXZ 0000000180076a50 f i libucrtd:output.obj
 0001:00075e20       ?type_case_c@?$output_processor@DV?$stream_output_adapter@D@__crt_stdio_output@@V?$format_validation_base@DV?$stream_output_adapter@D@__crt_stdio_output@@@2@@__crt_stdio_output@@AEAA_NXZ 0000000180076e20 f i libucrtd:output.obj
 0001:00075e40       ?type_case_c@?$output_processor@DV?$stream_output_adapter@D@__crt_stdio_output@@V?$positional_parameter_base@DV?$stream_output_adapter@D@__crt_stdio_output@@@2@@__crt_stdio_output@@AEAA_NXZ 0000000180076e40 f i libucrtd:output.obj
 0001:00075e60       ?type_case_c@?$output_processor@DV?$stream_output_adapter@D@__crt_stdio_output@@V?$standard_base@DV?$stream_output_adapter@D@__crt_stdio_output@@@2@@__crt_stdio_output@@AEAA_NXZ 0000000180076e60 f i libucrtd:output.obj
 0001:00075e80       ?type_case_c@?$output_processor@DV?$string_output_adapter@D@__crt_stdio_output@@V?$format_validation_base@DV?$string_output_adapter@D@__crt_stdio_output@@@2@@__crt_stdio_output@@AEAA_NXZ 0000000180076e80 f i libucrtd:output.obj
 0001:00075ea0       ?type_case_c@?$output_processor@DV?$string_output_adapter@D@__crt_stdio_output@@V?$positional_parameter_base@DV?$string_output_adapter@D@__crt_stdio_output@@@2@@__crt_stdio_output@@AEAA_NXZ 0000000180076ea0 f i libucrtd:output.obj
 0001:00075ec0       ?type_case_c@?$output_processor@DV?$string_output_adapter@D@__crt_stdio_output@@V?$standard_base@DV?$string_output_adapter@D@__crt_stdio_output@@@2@@__crt_stdio_output@@AEAA_NXZ 0000000180076ec0 f i libucrtd:output.obj
 0001:00075ee0       ?type_case_c@?$output_processor@_WV?$stream_output_adapter@_W@__crt_stdio_output@@V?$format_validation_base@_WV?$stream_output_adapter@_W@__crt_stdio_output@@@2@@__crt_stdio_output@@AEAA_NXZ 0000000180076ee0 f i libucrtd:output.obj
 0001:00075f00       ?type_case_c@?$output_processor@_WV?$stream_output_adapter@_W@__crt_stdio_output@@V?$positional_parameter_base@_WV?$stream_output_adapter@_W@__crt_stdio_output@@@2@@__crt_stdio_output@@AEAA_NXZ 0000000180076f00 f i libucrtd:output.obj
 0001:00075f20       ?type_case_c@?$output_processor@_WV?$stream_output_adapter@_W@__crt_stdio_output@@V?$standard_base@_WV?$stream_output_adapter@_W@__crt_stdio_output@@@2@@__crt_stdio_output@@AEAA_NXZ 0000000180076f20 f i libucrtd:output.obj
 0001:00075f40       ?type_case_c@?$output_processor@_WV?$string_output_adapter@_W@__crt_stdio_output@@V?$format_validation_base@_WV?$string_output_adapter@_W@__crt_stdio_output@@@2@@__crt_stdio_output@@AEAA_NXZ 0000000180076f40 f i libucrtd:output.obj
 0001:00075f60       ?type_case_c@?$output_processor@_WV?$string_output_adapter@_W@__crt_stdio_output@@V?$positional_parameter_base@_WV?$string_output_adapter@_W@__crt_stdio_output@@@2@@__crt_stdio_output@@AEAA_NXZ 0000000180076f60 f i libucrtd:output.obj
 0001:00075f80       ?type_case_c@?$output_processor@_WV?$string_output_adapter@_W@__crt_stdio_output@@V?$standard_base@_WV?$string_output_adapter@_W@__crt_stdio_output@@@2@@__crt_stdio_output@@AEAA_NXZ 0000000180076f80 f i libucrtd:output.obj
 0001:00075fa0       ?type_case_c_tchar@?$output_processor@DV?$stream_output_adapter@D@__crt_stdio_output@@V?$format_validation_base@DV?$stream_output_adapter@D@__crt_stdio_output@@@2@@__crt_stdio_output@@AEAA_ND@Z 0000000180076fa0 f i libucrtd:output.obj
 0001:00076100       ?type_case_c_tchar@?$output_processor@DV?$stream_output_adapter@D@__crt_stdio_output@@V?$positional_parameter_base@DV?$stream_output_adapter@D@__crt_stdio_output@@@2@@__crt_stdio_output@@AEAA_ND@Z 0000000180077100 f i libucrtd:output.obj
 0001:00076260       ?type_case_c_tchar@?$output_processor@DV?$stream_output_adapter@D@__crt_stdio_output@@V?$standard_base@DV?$stream_output_adapter@D@__crt_stdio_output@@@2@@__crt_stdio_output@@AEAA_ND@Z 0000000180077260 f i libucrtd:output.obj
 0001:000763c0       ?type_case_c_tchar@?$output_processor@DV?$string_output_adapter@D@__crt_stdio_output@@V?$format_validation_base@DV?$string_output_adapter@D@__crt_stdio_output@@@2@@__crt_stdio_output@@AEAA_ND@Z 00000001800773c0 f i libucrtd:output.obj
 0001:00076520       ?type_case_c_tchar@?$output_processor@DV?$string_output_adapter@D@__crt_stdio_output@@V?$positional_parameter_base@DV?$string_output_adapter@D@__crt_stdio_output@@@2@@__crt_stdio_output@@AEAA_ND@Z 0000000180077520 f i libucrtd:output.obj
 0001:00076680       ?type_case_c_tchar@?$output_processor@DV?$string_output_adapter@D@__crt_stdio_output@@V?$standard_base@DV?$string_output_adapter@D@__crt_stdio_output@@@2@@__crt_stdio_output@@AEAA_ND@Z 0000000180077680 f i libucrtd:output.obj
 0001:000767e0       ?type_case_c_tchar@?$output_processor@_WV?$stream_output_adapter@_W@__crt_stdio_output@@V?$format_validation_base@_WV?$stream_output_adapter@_W@__crt_stdio_output@@@2@@__crt_stdio_output@@AEAA_N_W@Z 00000001800777e0 f i libucrtd:output.obj
 0001:00076910       ?type_case_c_tchar@?$output_processor@_WV?$stream_output_adapter@_W@__crt_stdio_output@@V?$positional_parameter_base@_WV?$stream_output_adapter@_W@__crt_stdio_output@@@2@@__crt_stdio_output@@AEAA_N_W@Z 0000000180077910 f i libucrtd:output.obj
 0001:00076a40       ?type_case_c_tchar@?$output_processor@_WV?$stream_output_adapter@_W@__crt_stdio_output@@V?$standard_base@_WV?$stream_output_adapter@_W@__crt_stdio_output@@@2@@__crt_stdio_output@@AEAA_N_W@Z 0000000180077a40 f i libucrtd:output.obj
 0001:00076b70       ?type_case_c_tchar@?$output_processor@_WV?$string_output_adapter@_W@__crt_stdio_output@@V?$format_validation_base@_WV?$string_output_adapter@_W@__crt_stdio_output@@@2@@__crt_stdio_output@@AEAA_N_W@Z 0000000180077b70 f i libucrtd:output.obj
 0001:00076ca0       ?type_case_c_tchar@?$output_processor@_WV?$string_output_adapter@_W@__crt_stdio_output@@V?$positional_parameter_base@_WV?$string_output_adapter@_W@__crt_stdio_output@@@2@@__crt_stdio_output@@AEAA_N_W@Z 0000000180077ca0 f i libucrtd:output.obj
 0001:00076dd0       ?type_case_c_tchar@?$output_processor@_WV?$string_output_adapter@_W@__crt_stdio_output@@V?$standard_base@_WV?$string_output_adapter@_W@__crt_stdio_output@@@2@@__crt_stdio_output@@AEAA_N_W@Z 0000000180077dd0 f i libucrtd:output.obj
 0001:00076f00       ?type_case_d@?$output_processor@DV?$stream_output_adapter@D@__crt_stdio_output@@V?$format_validation_base@DV?$stream_output_adapter@D@__crt_stdio_output@@@2@@__crt_stdio_output@@AEAA_NXZ 0000000180077f00 f i libucrtd:output.obj
 0001:00076f30       ?type_case_d@?$output_processor@DV?$stream_output_adapter@D@__crt_stdio_output@@V?$positional_parameter_base@DV?$stream_output_adapter@D@__crt_stdio_output@@@2@@__crt_stdio_output@@AEAA_NXZ 0000000180077f30 f i libucrtd:output.obj
 0001:00076f60       ?type_case_d@?$output_processor@DV?$stream_output_adapter@D@__crt_stdio_output@@V?$standard_base@DV?$stream_output_adapter@D@__crt_stdio_output@@@2@@__crt_stdio_output@@AEAA_NXZ 0000000180077f60 f i libucrtd:output.obj
 0001:00076f90       ?type_case_d@?$output_processor@DV?$string_output_adapter@D@__crt_stdio_output@@V?$format_validation_base@DV?$string_output_adapter@D@__crt_stdio_output@@@2@@__crt_stdio_output@@AEAA_NXZ 0000000180077f90 f i libucrtd:output.obj
 0001:00076fc0       ?type_case_d@?$output_processor@DV?$string_output_adapter@D@__crt_stdio_output@@V?$positional_parameter_base@DV?$string_output_adapter@D@__crt_stdio_output@@@2@@__crt_stdio_output@@AEAA_NXZ 0000000180077fc0 f i libucrtd:output.obj
 0001:00076ff0       ?type_case_d@?$output_processor@DV?$string_output_adapter@D@__crt_stdio_output@@V?$standard_base@DV?$string_output_adapter@D@__crt_stdio_output@@@2@@__crt_stdio_output@@AEAA_NXZ 0000000180077ff0 f i libucrtd:output.obj
 0001:00077020       ?type_case_d@?$output_processor@_WV?$stream_output_adapter@_W@__crt_stdio_output@@V?$format_validation_base@_WV?$stream_output_adapter@_W@__crt_stdio_output@@@2@@__crt_stdio_output@@AEAA_NXZ 0000000180078020 f i libucrtd:output.obj
 0001:00077050       ?type_case_d@?$output_processor@_WV?$stream_output_adapter@_W@__crt_stdio_output@@V?$positional_parameter_base@_WV?$stream_output_adapter@_W@__crt_stdio_output@@@2@@__crt_stdio_output@@AEAA_NXZ 0000000180078050 f i libucrtd:output.obj
 0001:00077080       ?type_case_d@?$output_processor@_WV?$stream_output_adapter@_W@__crt_stdio_output@@V?$standard_base@_WV?$stream_output_adapter@_W@__crt_stdio_output@@@2@@__crt_stdio_output@@AEAA_NXZ 0000000180078080 f i libucrtd:output.obj
 0001:000770b0       ?type_case_d@?$output_processor@_WV?$string_output_adapter@_W@__crt_stdio_output@@V?$format_validation_base@_WV?$string_output_adapter@_W@__crt_stdio_output@@@2@@__crt_stdio_output@@AEAA_NXZ 00000001800780b0 f i libucrtd:output.obj
 0001:000770e0       ?type_case_d@?$output_processor@_WV?$string_output_adapter@_W@__crt_stdio_output@@V?$positional_parameter_base@_WV?$string_output_adapter@_W@__crt_stdio_output@@@2@@__crt_stdio_output@@AEAA_NXZ 00000001800780e0 f i libucrtd:output.obj
 0001:00077110       ?type_case_d@?$output_processor@_WV?$string_output_adapter@_W@__crt_stdio_output@@V?$standard_base@_WV?$string_output_adapter@_W@__crt_stdio_output@@@2@@__crt_stdio_output@@AEAA_NXZ 0000000180078110 f i libucrtd:output.obj
 0001:00077140       ?type_case_integer@?$output_processor@DV?$stream_output_adapter@D@__crt_stdio_output@@V?$format_validation_base@DV?$stream_output_adapter@D@__crt_stdio_output@@@2@@__crt_stdio_output@@AEAA_NI_N@Z 0000000180078140 f i libucrtd:output.obj
 0001:00077590       ?type_case_integer@?$output_processor@DV?$stream_output_adapter@D@__crt_stdio_output@@V?$positional_parameter_base@DV?$stream_output_adapter@D@__crt_stdio_output@@@2@@__crt_stdio_output@@AEAA_NI_N@Z 0000000180078590 f i libucrtd:output.obj
 0001:000779e0       ?type_case_integer@?$output_processor@DV?$stream_output_adapter@D@__crt_stdio_output@@V?$standard_base@DV?$stream_output_adapter@D@__crt_stdio_output@@@2@@__crt_stdio_output@@AEAA_NI_N@Z 00000001800789e0 f i libucrtd:output.obj
 0001:00077e30       ?type_case_integer@?$output_processor@DV?$string_output_adapter@D@__crt_stdio_output@@V?$format_validation_base@DV?$string_output_adapter@D@__crt_stdio_output@@@2@@__crt_stdio_output@@AEAA_NI_N@Z 0000000180078e30 f i libucrtd:output.obj
 0001:00078280       ?type_case_integer@?$output_processor@DV?$string_output_adapter@D@__crt_stdio_output@@V?$positional_parameter_base@DV?$string_output_adapter@D@__crt_stdio_output@@@2@@__crt_stdio_output@@AEAA_NI_N@Z 0000000180079280 f i libucrtd:output.obj
 0001:000786d0       ?type_case_integer@?$output_processor@DV?$string_output_adapter@D@__crt_stdio_output@@V?$standard_base@DV?$string_output_adapter@D@__crt_stdio_output@@@2@@__crt_stdio_output@@AEAA_NI_N@Z 00000001800796d0 f i libucrtd:output.obj
 0001:00078b20       ?type_case_integer@?$output_processor@_WV?$stream_output_adapter@_W@__crt_stdio_output@@V?$format_validation_base@_WV?$stream_output_adapter@_W@__crt_stdio_output@@@2@@__crt_stdio_output@@AEAA_NI_N@Z 0000000180079b20 f i libucrtd:output.obj
 0001:00078f70       ?type_case_integer@?$output_processor@_WV?$stream_output_adapter@_W@__crt_stdio_output@@V?$positional_parameter_base@_WV?$stream_output_adapter@_W@__crt_stdio_output@@@2@@__crt_stdio_output@@AEAA_NI_N@Z 0000000180079f70 f i libucrtd:output.obj
 0001:000793c0       ?type_case_integer@?$output_processor@_WV?$stream_output_adapter@_W@__crt_stdio_output@@V?$standard_base@_WV?$stream_output_adapter@_W@__crt_stdio_output@@@2@@__crt_stdio_output@@AEAA_NI_N@Z 000000018007a3c0 f i libucrtd:output.obj
 0001:00079810       ?type_case_integer@?$output_processor@_WV?$string_output_adapter@_W@__crt_stdio_output@@V?$format_validation_base@_WV?$string_output_adapter@_W@__crt_stdio_output@@@2@@__crt_stdio_output@@AEAA_NI_N@Z 000000018007a810 f i libucrtd:output.obj
 0001:00079c60       ?type_case_integer@?$output_processor@_WV?$string_output_adapter@_W@__crt_stdio_output@@V?$positional_parameter_base@_WV?$string_output_adapter@_W@__crt_stdio_output@@@2@@__crt_stdio_output@@AEAA_NI_N@Z 000000018007ac60 f i libucrtd:output.obj
 0001:0007a0b0       ?type_case_integer@?$output_processor@_WV?$string_output_adapter@_W@__crt_stdio_output@@V?$standard_base@_WV?$string_output_adapter@_W@__crt_stdio_output@@@2@@__crt_stdio_output@@AEAA_NI_N@Z 000000018007b0b0 f i libucrtd:output.obj
 0001:0007a500       ?type_case_n@?$output_processor@DV?$stream_output_adapter@D@__crt_stdio_output@@V?$format_validation_base@DV?$stream_output_adapter@D@__crt_stdio_output@@@2@@__crt_stdio_output@@AEAA_NXZ 000000018007b500 f i libucrtd:output.obj
 0001:0007a740       ?type_case_n@?$output_processor@DV?$stream_output_adapter@D@__crt_stdio_output@@V?$positional_parameter_base@DV?$stream_output_adapter@D@__crt_stdio_output@@@2@@__crt_stdio_output@@AEAA_NXZ 000000018007b740 f i libucrtd:output.obj
 0001:0007a980       ?type_case_n@?$output_processor@DV?$stream_output_adapter@D@__crt_stdio_output@@V?$standard_base@DV?$stream_output_adapter@D@__crt_stdio_output@@@2@@__crt_stdio_output@@AEAA_NXZ 000000018007b980 f i libucrtd:output.obj
 0001:0007abc0       ?type_case_n@?$output_processor@DV?$string_output_adapter@D@__crt_stdio_output@@V?$format_validation_base@DV?$string_output_adapter@D@__crt_stdio_output@@@2@@__crt_stdio_output@@AEAA_NXZ 000000018007bbc0 f i libucrtd:output.obj
 0001:0007ae00       ?type_case_n@?$output_processor@DV?$string_output_adapter@D@__crt_stdio_output@@V?$positional_parameter_base@DV?$string_output_adapter@D@__crt_stdio_output@@@2@@__crt_stdio_output@@AEAA_NXZ 000000018007be00 f i libucrtd:output.obj
 0001:0007b040       ?type_case_n@?$output_processor@DV?$string_output_adapter@D@__crt_stdio_output@@V?$standard_base@DV?$string_output_adapter@D@__crt_stdio_output@@@2@@__crt_stdio_output@@AEAA_NXZ 000000018007c040 f i libucrtd:output.obj
 0001:0007b280       ?type_case_n@?$output_processor@_WV?$stream_output_adapter@_W@__crt_stdio_output@@V?$format_validation_base@_WV?$stream_output_adapter@_W@__crt_stdio_output@@@2@@__crt_stdio_output@@AEAA_NXZ 000000018007c280 f i libucrtd:output.obj
 0001:0007b4c0       ?type_case_n@?$output_processor@_WV?$stream_output_adapter@_W@__crt_stdio_output@@V?$positional_parameter_base@_WV?$stream_output_adapter@_W@__crt_stdio_output@@@2@@__crt_stdio_output@@AEAA_NXZ 000000018007c4c0 f i libucrtd:output.obj
 0001:0007b700       ?type_case_n@?$output_processor@_WV?$stream_output_adapter@_W@__crt_stdio_output@@V?$standard_base@_WV?$stream_output_adapter@_W@__crt_stdio_output@@@2@@__crt_stdio_output@@AEAA_NXZ 000000018007c700 f i libucrtd:output.obj
 0001:0007b940       ?type_case_n@?$output_processor@_WV?$string_output_adapter@_W@__crt_stdio_output@@V?$format_validation_base@_WV?$string_output_adapter@_W@__crt_stdio_output@@@2@@__crt_stdio_output@@AEAA_NXZ 000000018007c940 f i libucrtd:output.obj
 0001:0007bb80       ?type_case_n@?$output_processor@_WV?$string_output_adapter@_W@__crt_stdio_output@@V?$positional_parameter_base@_WV?$string_output_adapter@_W@__crt_stdio_output@@@2@@__crt_stdio_output@@AEAA_NXZ 000000018007cb80 f i libucrtd:output.obj
 0001:0007bdc0       ?type_case_n@?$output_processor@_WV?$string_output_adapter@_W@__crt_stdio_output@@V?$standard_base@_WV?$string_output_adapter@_W@__crt_stdio_output@@@2@@__crt_stdio_output@@AEAA_NXZ 000000018007cdc0 f i libucrtd:output.obj
 0001:0007c000       ?type_case_o@?$output_processor@DV?$stream_output_adapter@D@__crt_stdio_output@@V?$format_validation_base@DV?$stream_output_adapter@D@__crt_stdio_output@@@2@@__crt_stdio_output@@AEAA_NXZ 000000018007d000 f i libucrtd:output.obj
 0001:0007c050       ?type_case_o@?$output_processor@DV?$stream_output_adapter@D@__crt_stdio_output@@V?$positional_parameter_base@DV?$stream_output_adapter@D@__crt_stdio_output@@@2@@__crt_stdio_output@@AEAA_NXZ 000000018007d050 f i libucrtd:output.obj
 0001:0007c0a0       ?type_case_o@?$output_processor@DV?$stream_output_adapter@D@__crt_stdio_output@@V?$standard_base@DV?$stream_output_adapter@D@__crt_stdio_output@@@2@@__crt_stdio_output@@AEAA_NXZ 000000018007d0a0 f i libucrtd:output.obj
 0001:0007c0f0       ?type_case_o@?$output_processor@DV?$string_output_adapter@D@__crt_stdio_output@@V?$format_validation_base@DV?$string_output_adapter@D@__crt_stdio_output@@@2@@__crt_stdio_output@@AEAA_NXZ 000000018007d0f0 f i libucrtd:output.obj
 0001:0007c140       ?type_case_o@?$output_processor@DV?$string_output_adapter@D@__crt_stdio_output@@V?$positional_parameter_base@DV?$string_output_adapter@D@__crt_stdio_output@@@2@@__crt_stdio_output@@AEAA_NXZ 000000018007d140 f i libucrtd:output.obj
 0001:0007c190       ?type_case_o@?$output_processor@DV?$string_output_adapter@D@__crt_stdio_output@@V?$standard_base@DV?$string_output_adapter@D@__crt_stdio_output@@@2@@__crt_stdio_output@@AEAA_NXZ 000000018007d190 f i libucrtd:output.obj
 0001:0007c1e0       ?type_case_o@?$output_processor@_WV?$stream_output_adapter@_W@__crt_stdio_output@@V?$format_validation_base@_WV?$stream_output_adapter@_W@__crt_stdio_output@@@2@@__crt_stdio_output@@AEAA_NXZ 000000018007d1e0 f i libucrtd:output.obj
 0001:0007c230       ?type_case_o@?$output_processor@_WV?$stream_output_adapter@_W@__crt_stdio_output@@V?$positional_parameter_base@_WV?$stream_output_adapter@_W@__crt_stdio_output@@@2@@__crt_stdio_output@@AEAA_NXZ 000000018007d230 f i libucrtd:output.obj
 0001:0007c280       ?type_case_o@?$output_processor@_WV?$stream_output_adapter@_W@__crt_stdio_output@@V?$standard_base@_WV?$stream_output_adapter@_W@__crt_stdio_output@@@2@@__crt_stdio_output@@AEAA_NXZ 000000018007d280 f i libucrtd:output.obj
 0001:0007c2d0       ?type_case_o@?$output_processor@_WV?$string_output_adapter@_W@__crt_stdio_output@@V?$format_validation_base@_WV?$string_output_adapter@_W@__crt_stdio_output@@@2@@__crt_stdio_output@@AEAA_NXZ 000000018007d2d0 f i libucrtd:output.obj
 0001:0007c320       ?type_case_o@?$output_processor@_WV?$string_output_adapter@_W@__crt_stdio_output@@V?$positional_parameter_base@_WV?$string_output_adapter@_W@__crt_stdio_output@@@2@@__crt_stdio_output@@AEAA_NXZ 000000018007d320 f i libucrtd:output.obj
 0001:0007c370       ?type_case_o@?$output_processor@_WV?$string_output_adapter@_W@__crt_stdio_output@@V?$standard_base@_WV?$string_output_adapter@_W@__crt_stdio_output@@@2@@__crt_stdio_output@@AEAA_NXZ 000000018007d370 f i libucrtd:output.obj
 0001:0007c3c0       ?type_case_p@?$output_processor@DV?$stream_output_adapter@D@__crt_stdio_output@@V?$format_validation_base@DV?$stream_output_adapter@D@__crt_stdio_output@@@2@@__crt_stdio_output@@AEAA_NXZ 000000018007d3c0 f i libucrtd:output.obj
 0001:0007c400       ?type_case_p@?$output_processor@DV?$stream_output_adapter@D@__crt_stdio_output@@V?$positional_parameter_base@DV?$stream_output_adapter@D@__crt_stdio_output@@@2@@__crt_stdio_output@@AEAA_NXZ 000000018007d400 f i libucrtd:output.obj
 0001:0007c440       ?type_case_p@?$output_processor@DV?$stream_output_adapter@D@__crt_stdio_output@@V?$standard_base@DV?$stream_output_adapter@D@__crt_stdio_output@@@2@@__crt_stdio_output@@AEAA_NXZ 000000018007d440 f i libucrtd:output.obj
 0001:0007c480       ?type_case_p@?$output_processor@DV?$string_output_adapter@D@__crt_stdio_output@@V?$format_validation_base@DV?$string_output_adapter@D@__crt_stdio_output@@@2@@__crt_stdio_output@@AEAA_NXZ 000000018007d480 f i libucrtd:output.obj
 0001:0007c4c0       ?type_case_p@?$output_processor@DV?$string_output_adapter@D@__crt_stdio_output@@V?$positional_parameter_base@DV?$string_output_adapter@D@__crt_stdio_output@@@2@@__crt_stdio_output@@AEAA_NXZ 000000018007d4c0 f i libucrtd:output.obj
 0001:0007c500       ?type_case_p@?$output_processor@DV?$string_output_adapter@D@__crt_stdio_output@@V?$standard_base@DV?$string_output_adapter@D@__crt_stdio_output@@@2@@__crt_stdio_output@@AEAA_NXZ 000000018007d500 f i libucrtd:output.obj
 0001:0007c540       ?type_case_p@?$output_processor@_WV?$stream_output_adapter@_W@__crt_stdio_output@@V?$format_validation_base@_WV?$stream_output_adapter@_W@__crt_stdio_output@@@2@@__crt_stdio_output@@AEAA_NXZ 000000018007d540 f i libucrtd:output.obj
 0001:0007c580       ?type_case_p@?$output_processor@_WV?$stream_output_adapter@_W@__crt_stdio_output@@V?$positional_parameter_base@_WV?$stream_output_adapter@_W@__crt_stdio_output@@@2@@__crt_stdio_output@@AEAA_NXZ 000000018007d580 f i libucrtd:output.obj
 0001:0007c5c0       ?type_case_p@?$output_processor@_WV?$stream_output_adapter@_W@__crt_stdio_output@@V?$standard_base@_WV?$stream_output_adapter@_W@__crt_stdio_output@@@2@@__crt_stdio_output@@AEAA_NXZ 000000018007d5c0 f i libucrtd:output.obj
 0001:0007c600       ?type_case_p@?$output_processor@_WV?$string_output_adapter@_W@__crt_stdio_output@@V?$format_validation_base@_WV?$string_output_adapter@_W@__crt_stdio_output@@@2@@__crt_stdio_output@@AEAA_NXZ 000000018007d600 f i libucrtd:output.obj
 0001:0007c640       ?type_case_p@?$output_processor@_WV?$string_output_adapter@_W@__crt_stdio_output@@V?$positional_parameter_base@_WV?$string_output_adapter@_W@__crt_stdio_output@@@2@@__crt_stdio_output@@AEAA_NXZ 000000018007d640 f i libucrtd:output.obj
 0001:0007c680       ?type_case_p@?$output_processor@_WV?$string_output_adapter@_W@__crt_stdio_output@@V?$standard_base@_WV?$string_output_adapter@_W@__crt_stdio_output@@@2@@__crt_stdio_output@@AEAA_NXZ 000000018007d680 f i libucrtd:output.obj
 0001:0007c6c0       ?type_case_s@?$output_processor@DV?$stream_output_adapter@D@__crt_stdio_output@@V?$format_validation_base@DV?$stream_output_adapter@D@__crt_stdio_output@@@2@@__crt_stdio_output@@AEAA_NXZ 000000018007d6c0 f i libucrtd:output.obj
 0001:0007c7e0       ?type_case_s@?$output_processor@DV?$stream_output_adapter@D@__crt_stdio_output@@V?$positional_parameter_base@DV?$stream_output_adapter@D@__crt_stdio_output@@@2@@__crt_stdio_output@@AEAA_NXZ 000000018007d7e0 f i libucrtd:output.obj
 0001:0007c900       ?type_case_s@?$output_processor@DV?$stream_output_adapter@D@__crt_stdio_output@@V?$standard_base@DV?$stream_output_adapter@D@__crt_stdio_output@@@2@@__crt_stdio_output@@AEAA_NXZ 000000018007d900 f i libucrtd:output.obj
 0001:0007ca20       ?type_case_s@?$output_processor@DV?$string_output_adapter@D@__crt_stdio_output@@V?$format_validation_base@DV?$string_output_adapter@D@__crt_stdio_output@@@2@@__crt_stdio_output@@AEAA_NXZ 000000018007da20 f i libucrtd:output.obj
 0001:0007cb40       ?type_case_s@?$output_processor@DV?$string_output_adapter@D@__crt_stdio_output@@V?$positional_parameter_base@DV?$string_output_adapter@D@__crt_stdio_output@@@2@@__crt_stdio_output@@AEAA_NXZ 000000018007db40 f i libucrtd:output.obj
 0001:0007cc60       ?type_case_s@?$output_processor@DV?$string_output_adapter@D@__crt_stdio_output@@V?$standard_base@DV?$string_output_adapter@D@__crt_stdio_output@@@2@@__crt_stdio_output@@AEAA_NXZ 000000018007dc60 f i libucrtd:output.obj
 0001:0007cd80       ?type_case_s@?$output_processor@_WV?$stream_output_adapter@_W@__crt_stdio_output@@V?$format_validation_base@_WV?$stream_output_adapter@_W@__crt_stdio_output@@@2@@__crt_stdio_output@@AEAA_NXZ 000000018007dd80 f i libucrtd:output.obj
 0001:0007cea0       ?type_case_s@?$output_processor@_WV?$stream_output_adapter@_W@__crt_stdio_output@@V?$positional_parameter_base@_WV?$stream_output_adapter@_W@__crt_stdio_output@@@2@@__crt_stdio_output@@AEAA_NXZ 000000018007dea0 f i libucrtd:output.obj
 0001:0007cfc0       ?type_case_s@?$output_processor@_WV?$stream_output_adapter@_W@__crt_stdio_output@@V?$standard_base@_WV?$stream_output_adapter@_W@__crt_stdio_output@@@2@@__crt_stdio_output@@AEAA_NXZ 000000018007dfc0 f i libucrtd:output.obj
 0001:0007d0e0       ?type_case_s@?$output_processor@_WV?$string_output_adapter@_W@__crt_stdio_output@@V?$format_validation_base@_WV?$string_output_adapter@_W@__crt_stdio_output@@@2@@__crt_stdio_output@@AEAA_NXZ 000000018007e0e0 f i libucrtd:output.obj
 0001:0007d200       ?type_case_s@?$output_processor@_WV?$string_output_adapter@_W@__crt_stdio_output@@V?$positional_parameter_base@_WV?$string_output_adapter@_W@__crt_stdio_output@@@2@@__crt_stdio_output@@AEAA_NXZ 000000018007e200 f i libucrtd:output.obj
 0001:0007d320       ?type_case_s@?$output_processor@_WV?$string_output_adapter@_W@__crt_stdio_output@@V?$standard_base@_WV?$string_output_adapter@_W@__crt_stdio_output@@@2@@__crt_stdio_output@@AEAA_NXZ 000000018007e320 f i libucrtd:output.obj
 0001:0007d440       ?type_case_s_compute_narrow_string_length@?$output_processor@DV?$stream_output_adapter@D@__crt_stdio_output@@V?$format_validation_base@DV?$stream_output_adapter@D@__crt_stdio_output@@@2@@__crt_stdio_output@@AEBAHHD@Z 000000018007e440 f i libucrtd:output.obj
 0001:0007d470       ?type_case_s_compute_narrow_string_length@?$output_processor@DV?$stream_output_adapter@D@__crt_stdio_output@@V?$positional_parameter_base@DV?$stream_output_adapter@D@__crt_stdio_output@@@2@@__crt_stdio_output@@AEBAHHD@Z 000000018007e470 f i libucrtd:output.obj
 0001:0007d4a0       ?type_case_s_compute_narrow_string_length@?$output_processor@DV?$stream_output_adapter@D@__crt_stdio_output@@V?$standard_base@DV?$stream_output_adapter@D@__crt_stdio_output@@@2@@__crt_stdio_output@@AEBAHHD@Z 000000018007e4a0 f i libucrtd:output.obj
 0001:0007d4d0       ?type_case_s_compute_narrow_string_length@?$output_processor@DV?$string_output_adapter@D@__crt_stdio_output@@V?$format_validation_base@DV?$string_output_adapter@D@__crt_stdio_output@@@2@@__crt_stdio_output@@AEBAHHD@Z 000000018007e4d0 f i libucrtd:output.obj
 0001:0007d500       ?type_case_s_compute_narrow_string_length@?$output_processor@DV?$string_output_adapter@D@__crt_stdio_output@@V?$positional_parameter_base@DV?$string_output_adapter@D@__crt_stdio_output@@@2@@__crt_stdio_output@@AEBAHHD@Z 000000018007e500 f i libucrtd:output.obj
 0001:0007d530       ?type_case_s_compute_narrow_string_length@?$output_processor@DV?$string_output_adapter@D@__crt_stdio_output@@V?$standard_base@DV?$string_output_adapter@D@__crt_stdio_output@@@2@@__crt_stdio_output@@AEBAHHD@Z 000000018007e530 f i libucrtd:output.obj
 0001:0007d560       ?type_case_s_compute_narrow_string_length@?$output_processor@_WV?$stream_output_adapter@_W@__crt_stdio_output@@V?$format_validation_base@_WV?$stream_output_adapter@_W@__crt_stdio_output@@@2@@__crt_stdio_output@@AEBAHH_W@Z 000000018007e560 f i libucrtd:output.obj
 0001:0007d5f0       ?type_case_s_compute_narrow_string_length@?$output_processor@_WV?$stream_output_adapter@_W@__crt_stdio_output@@V?$positional_parameter_base@_WV?$stream_output_adapter@_W@__crt_stdio_output@@@2@@__crt_stdio_output@@AEBAHH_W@Z 000000018007e5f0 f i libucrtd:output.obj
 0001:0007d680       ?type_case_s_compute_narrow_string_length@?$output_processor@_WV?$stream_output_adapter@_W@__crt_stdio_output@@V?$standard_base@_WV?$stream_output_adapter@_W@__crt_stdio_output@@@2@@__crt_stdio_output@@AEBAHH_W@Z 000000018007e680 f i libucrtd:output.obj
 0001:0007d710       ?type_case_s_compute_narrow_string_length@?$output_processor@_WV?$string_output_adapter@_W@__crt_stdio_output@@V?$format_validation_base@_WV?$string_output_adapter@_W@__crt_stdio_output@@@2@@__crt_stdio_output@@AEBAHH_W@Z 000000018007e710 f i libucrtd:output.obj
 0001:0007d7a0       ?type_case_s_compute_narrow_string_length@?$output_processor@_WV?$string_output_adapter@_W@__crt_stdio_output@@V?$positional_parameter_base@_WV?$string_output_adapter@_W@__crt_stdio_output@@@2@@__crt_stdio_output@@AEBAHH_W@Z 000000018007e7a0 f i libucrtd:output.obj
 0001:0007d830       ?type_case_s_compute_narrow_string_length@?$output_processor@_WV?$string_output_adapter@_W@__crt_stdio_output@@V?$standard_base@_WV?$string_output_adapter@_W@__crt_stdio_output@@@2@@__crt_stdio_output@@AEBAHH_W@Z 000000018007e830 f i libucrtd:output.obj
 0001:0007d8c0       ?type_case_u@?$output_processor@DV?$stream_output_adapter@D@__crt_stdio_output@@V?$format_validation_base@DV?$stream_output_adapter@D@__crt_stdio_output@@@2@@__crt_stdio_output@@AEAA_NXZ 000000018007e8c0 f i libucrtd:output.obj
 0001:0007d8e0       ?type_case_u@?$output_processor@DV?$stream_output_adapter@D@__crt_stdio_output@@V?$positional_parameter_base@DV?$stream_output_adapter@D@__crt_stdio_output@@@2@@__crt_stdio_output@@AEAA_NXZ 000000018007e8e0 f i libucrtd:output.obj
 0001:0007d900       ?type_case_u@?$output_processor@DV?$stream_output_adapter@D@__crt_stdio_output@@V?$standard_base@DV?$stream_output_adapter@D@__crt_stdio_output@@@2@@__crt_stdio_output@@AEAA_NXZ 000000018007e900 f i libucrtd:output.obj
 0001:0007d920       ?type_case_u@?$output_processor@DV?$string_output_adapter@D@__crt_stdio_output@@V?$format_validation_base@DV?$string_output_adapter@D@__crt_stdio_output@@@2@@__crt_stdio_output@@AEAA_NXZ 000000018007e920 f i libucrtd:output.obj
 0001:0007d940       ?type_case_u@?$output_processor@DV?$string_output_adapter@D@__crt_stdio_output@@V?$positional_parameter_base@DV?$string_output_adapter@D@__crt_stdio_output@@@2@@__crt_stdio_output@@AEAA_NXZ 000000018007e940 f i libucrtd:output.obj
 0001:0007d960       ?type_case_u@?$output_processor@DV?$string_output_adapter@D@__crt_stdio_output@@V?$standard_base@DV?$string_output_adapter@D@__crt_stdio_output@@@2@@__crt_stdio_output@@AEAA_NXZ 000000018007e960 f i libucrtd:output.obj
 0001:0007d980       ?type_case_u@?$output_processor@_WV?$stream_output_adapter@_W@__crt_stdio_output@@V?$format_validation_base@_WV?$stream_output_adapter@_W@__crt_stdio_output@@@2@@__crt_stdio_output@@AEAA_NXZ 000000018007e980 f i libucrtd:output.obj
 0001:0007d9a0       ?type_case_u@?$output_processor@_WV?$stream_output_adapter@_W@__crt_stdio_output@@V?$positional_parameter_base@_WV?$stream_output_adapter@_W@__crt_stdio_output@@@2@@__crt_stdio_output@@AEAA_NXZ 000000018007e9a0 f i libucrtd:output.obj
 0001:0007d9c0       ?type_case_u@?$output_processor@_WV?$stream_output_adapter@_W@__crt_stdio_output@@V?$standard_base@_WV?$stream_output_adapter@_W@__crt_stdio_output@@@2@@__crt_stdio_output@@AEAA_NXZ 000000018007e9c0 f i libucrtd:output.obj
 0001:0007d9e0       ?type_case_u@?$output_processor@_WV?$string_output_adapter@_W@__crt_stdio_output@@V?$format_validation_base@_WV?$string_output_adapter@_W@__crt_stdio_output@@@2@@__crt_stdio_output@@AEAA_NXZ 000000018007e9e0 f i libucrtd:output.obj
 0001:0007da00       ?type_case_u@?$output_processor@_WV?$string_output_adapter@_W@__crt_stdio_output@@V?$positional_parameter_base@_WV?$string_output_adapter@_W@__crt_stdio_output@@@2@@__crt_stdio_output@@AEAA_NXZ 000000018007ea00 f i libucrtd:output.obj
 0001:0007da20       ?type_case_u@?$output_processor@_WV?$string_output_adapter@_W@__crt_stdio_output@@V?$standard_base@_WV?$string_output_adapter@_W@__crt_stdio_output@@@2@@__crt_stdio_output@@AEAA_NXZ 000000018007ea20 f i libucrtd:output.obj
 0001:0007da40       ?type_case_x@?$output_processor@DV?$stream_output_adapter@D@__crt_stdio_output@@V?$format_validation_base@DV?$stream_output_adapter@D@__crt_stdio_output@@@2@@__crt_stdio_output@@AEAA_NXZ 000000018007ea40 f i libucrtd:output.obj
 0001:0007da60       ?type_case_x@?$output_processor@DV?$stream_output_adapter@D@__crt_stdio_output@@V?$positional_parameter_base@DV?$stream_output_adapter@D@__crt_stdio_output@@@2@@__crt_stdio_output@@AEAA_NXZ 000000018007ea60 f i libucrtd:output.obj
 0001:0007da80       ?type_case_x@?$output_processor@DV?$stream_output_adapter@D@__crt_stdio_output@@V?$standard_base@DV?$stream_output_adapter@D@__crt_stdio_output@@@2@@__crt_stdio_output@@AEAA_NXZ 000000018007ea80 f i libucrtd:output.obj
 0001:0007daa0       ?type_case_x@?$output_processor@DV?$string_output_adapter@D@__crt_stdio_output@@V?$format_validation_base@DV?$string_output_adapter@D@__crt_stdio_output@@@2@@__crt_stdio_output@@AEAA_NXZ 000000018007eaa0 f i libucrtd:output.obj
 0001:0007dac0       ?type_case_x@?$output_processor@DV?$string_output_adapter@D@__crt_stdio_output@@V?$positional_parameter_base@DV?$string_output_adapter@D@__crt_stdio_output@@@2@@__crt_stdio_output@@AEAA_NXZ 000000018007eac0 f i libucrtd:output.obj
 0001:0007dae0       ?type_case_x@?$output_processor@DV?$string_output_adapter@D@__crt_stdio_output@@V?$standard_base@DV?$string_output_adapter@D@__crt_stdio_output@@@2@@__crt_stdio_output@@AEAA_NXZ 000000018007eae0 f i libucrtd:output.obj
 0001:0007db00       ?type_case_x@?$output_processor@_WV?$stream_output_adapter@_W@__crt_stdio_output@@V?$format_validation_base@_WV?$stream_output_adapter@_W@__crt_stdio_output@@@2@@__crt_stdio_output@@AEAA_NXZ 000000018007eb00 f i libucrtd:output.obj
 0001:0007db20       ?type_case_x@?$output_processor@_WV?$stream_output_adapter@_W@__crt_stdio_output@@V?$positional_parameter_base@_WV?$stream_output_adapter@_W@__crt_stdio_output@@@2@@__crt_stdio_output@@AEAA_NXZ 000000018007eb20 f i libucrtd:output.obj
 0001:0007db40       ?type_case_x@?$output_processor@_WV?$stream_output_adapter@_W@__crt_stdio_output@@V?$standard_base@_WV?$stream_output_adapter@_W@__crt_stdio_output@@@2@@__crt_stdio_output@@AEAA_NXZ 000000018007eb40 f i libucrtd:output.obj
 0001:0007db60       ?type_case_x@?$output_processor@_WV?$string_output_adapter@_W@__crt_stdio_output@@V?$format_validation_base@_WV?$string_output_adapter@_W@__crt_stdio_output@@@2@@__crt_stdio_output@@AEAA_NXZ 000000018007eb60 f i libucrtd:output.obj
 0001:0007db80       ?type_case_x@?$output_processor@_WV?$string_output_adapter@_W@__crt_stdio_output@@V?$positional_parameter_base@_WV?$string_output_adapter@_W@__crt_stdio_output@@@2@@__crt_stdio_output@@AEAA_NXZ 000000018007eb80 f i libucrtd:output.obj
 0001:0007dba0       ?type_case_x@?$output_processor@_WV?$string_output_adapter@_W@__crt_stdio_output@@V?$standard_base@_WV?$string_output_adapter@_W@__crt_stdio_output@@@2@@__crt_stdio_output@@AEAA_NXZ 000000018007eba0 f i libucrtd:output.obj
 0001:0007dbc0       ?unset_flag@?$output_processor@DV?$stream_output_adapter@D@__crt_stdio_output@@V?$format_validation_base@DV?$stream_output_adapter@D@__crt_stdio_output@@@2@@__crt_stdio_output@@AEAAXI@Z 000000018007ebc0 f i libucrtd:output.obj
 0001:0007dbf0       ?unset_flag@?$output_processor@DV?$stream_output_adapter@D@__crt_stdio_output@@V?$positional_parameter_base@DV?$stream_output_adapter@D@__crt_stdio_output@@@2@@__crt_stdio_output@@AEAAXI@Z 000000018007ebf0 f i libucrtd:output.obj
 0001:0007dc20       ?unset_flag@?$output_processor@DV?$stream_output_adapter@D@__crt_stdio_output@@V?$standard_base@DV?$stream_output_adapter@D@__crt_stdio_output@@@2@@__crt_stdio_output@@AEAAXI@Z 000000018007ec20 f i libucrtd:output.obj
 0001:0007dc50       ?unset_flag@?$output_processor@DV?$string_output_adapter@D@__crt_stdio_output@@V?$format_validation_base@DV?$string_output_adapter@D@__crt_stdio_output@@@2@@__crt_stdio_output@@AEAAXI@Z 000000018007ec50 f i libucrtd:output.obj
 0001:0007dc80       ?unset_flag@?$output_processor@DV?$string_output_adapter@D@__crt_stdio_output@@V?$positional_parameter_base@DV?$string_output_adapter@D@__crt_stdio_output@@@2@@__crt_stdio_output@@AEAAXI@Z 000000018007ec80 f i libucrtd:output.obj
 0001:0007dcb0       ?unset_flag@?$output_processor@DV?$string_output_adapter@D@__crt_stdio_output@@V?$standard_base@DV?$string_output_adapter@D@__crt_stdio_output@@@2@@__crt_stdio_output@@AEAAXI@Z 000000018007ecb0 f i libucrtd:output.obj
 0001:0007dce0       ?unset_flag@?$output_processor@_WV?$stream_output_adapter@_W@__crt_stdio_output@@V?$format_validation_base@_WV?$stream_output_adapter@_W@__crt_stdio_output@@@2@@__crt_stdio_output@@AEAAXI@Z 000000018007ece0 f i libucrtd:output.obj
 0001:0007dd10       ?unset_flag@?$output_processor@_WV?$stream_output_adapter@_W@__crt_stdio_output@@V?$positional_parameter_base@_WV?$stream_output_adapter@_W@__crt_stdio_output@@@2@@__crt_stdio_output@@AEAAXI@Z 000000018007ed10 f i libucrtd:output.obj
 0001:0007dd40       ?unset_flag@?$output_processor@_WV?$stream_output_adapter@_W@__crt_stdio_output@@V?$standard_base@_WV?$stream_output_adapter@_W@__crt_stdio_output@@@2@@__crt_stdio_output@@AEAAXI@Z 000000018007ed40 f i libucrtd:output.obj
 0001:0007dd70       ?unset_flag@?$output_processor@_WV?$string_output_adapter@_W@__crt_stdio_output@@V?$format_validation_base@_WV?$string_output_adapter@_W@__crt_stdio_output@@@2@@__crt_stdio_output@@AEAAXI@Z 000000018007ed70 f i libucrtd:output.obj
 0001:0007dda0       ?unset_flag@?$output_processor@_WV?$string_output_adapter@_W@__crt_stdio_output@@V?$positional_parameter_base@_WV?$string_output_adapter@_W@__crt_stdio_output@@@2@@__crt_stdio_output@@AEAAXI@Z 000000018007eda0 f i libucrtd:output.obj
 0001:0007ddd0       ?unset_flag@?$output_processor@_WV?$string_output_adapter@_W@__crt_stdio_output@@V?$standard_base@_WV?$string_output_adapter@_W@__crt_stdio_output@@@2@@__crt_stdio_output@@AEAAXI@Z 000000018007edd0 f i libucrtd:output.obj
 0001:0007de00       ?update_field_width@?$positional_parameter_base@DV?$stream_output_adapter@D@__crt_stdio_output@@@__crt_stdio_output@@IEAA_NXZ 000000018007ee00 f i libucrtd:output.obj
 0001:0007dff0       ?update_field_width@?$positional_parameter_base@DV?$string_output_adapter@D@__crt_stdio_output@@@__crt_stdio_output@@IEAA_NXZ 000000018007eff0 f i libucrtd:output.obj
 0001:0007e1e0       ?update_field_width@?$positional_parameter_base@_WV?$stream_output_adapter@_W@__crt_stdio_output@@@__crt_stdio_output@@IEAA_NXZ 000000018007f1e0 f i libucrtd:output.obj
 0001:0007e3d0       ?update_field_width@?$positional_parameter_base@_WV?$string_output_adapter@_W@__crt_stdio_output@@@__crt_stdio_output@@IEAA_NXZ 000000018007f3d0 f i libucrtd:output.obj
 0001:0007e5c0       ?update_field_width@?$standard_base@DV?$stream_output_adapter@D@__crt_stdio_output@@@__crt_stdio_output@@IEAA_NXZ 000000018007f5c0 f i libucrtd:output.obj
 0001:0007e5f0       ?update_field_width@?$standard_base@DV?$string_output_adapter@D@__crt_stdio_output@@@__crt_stdio_output@@IEAA_NXZ 000000018007f5f0 f i libucrtd:output.obj
 0001:0007e620       ?update_field_width@?$standard_base@_WV?$stream_output_adapter@_W@__crt_stdio_output@@@__crt_stdio_output@@IEAA_NXZ 000000018007f620 f i libucrtd:output.obj
 0001:0007e650       ?update_field_width@?$standard_base@_WV?$string_output_adapter@_W@__crt_stdio_output@@@__crt_stdio_output@@IEAA_NXZ 000000018007f650 f i libucrtd:output.obj
 0001:0007e680       ?update_precision@?$positional_parameter_base@DV?$stream_output_adapter@D@__crt_stdio_output@@@__crt_stdio_output@@IEAA_NXZ 000000018007f680 f i libucrtd:output.obj
 0001:0007e870       ?update_precision@?$positional_parameter_base@DV?$string_output_adapter@D@__crt_stdio_output@@@__crt_stdio_output@@IEAA_NXZ 000000018007f870 f i libucrtd:output.obj
 0001:0007ea60       ?update_precision@?$positional_parameter_base@_WV?$stream_output_adapter@_W@__crt_stdio_output@@@__crt_stdio_output@@IEAA_NXZ 000000018007fa60 f i libucrtd:output.obj
 0001:0007ec50       ?update_precision@?$positional_parameter_base@_WV?$string_output_adapter@_W@__crt_stdio_output@@@__crt_stdio_output@@IEAA_NXZ 000000018007fc50 f i libucrtd:output.obj
 0001:0007ee40       ?update_precision@?$standard_base@DV?$stream_output_adapter@D@__crt_stdio_output@@@__crt_stdio_output@@IEAA_NXZ 000000018007fe40 f i libucrtd:output.obj
 0001:0007ee70       ?update_precision@?$standard_base@DV?$string_output_adapter@D@__crt_stdio_output@@@__crt_stdio_output@@IEAA_NXZ 000000018007fe70 f i libucrtd:output.obj
 0001:0007eea0       ?update_precision@?$standard_base@_WV?$stream_output_adapter@_W@__crt_stdio_output@@@__crt_stdio_output@@IEAA_NXZ 000000018007fea0 f i libucrtd:output.obj
 0001:0007eed0       ?update_precision@?$standard_base@_WV?$string_output_adapter@_W@__crt_stdio_output@@@__crt_stdio_output@@IEAA_NXZ 000000018007fed0 f i libucrtd:output.obj
 0001:0007ef00       ?valid@__crt_stdio_stream@@QEBA_NXZ 000000018007ff00 f i libucrtd:output.obj
 0001:0007ef30       ?validate@?$stream_output_adapter@D@__crt_stdio_output@@QEBA_NXZ 000000018007ff30 f i libucrtd:output.obj
 0001:0007f010       ?validate@?$stream_output_adapter@_W@__crt_stdio_output@@QEBA_NXZ 0000000180080010 f i libucrtd:output.obj
 0001:0007f0f0       ?validate@?$string_output_adapter@D@__crt_stdio_output@@QEBA_NXZ 00000001800800f0 f i libucrtd:output.obj
 0001:0007f1b0       ?validate@?$string_output_adapter@_W@__crt_stdio_output@@QEBA_NXZ 00000001800801b0 f i libucrtd:output.obj
 0001:0007f270       ?validate_and_store_parameter_data@?$positional_parameter_base@DV?$stream_output_adapter@D@__crt_stdio_output@@@__crt_stdio_output@@AEAA_NAEAUparameter_data@12@W4parameter_type@12@DW4length_modifier@2@@Z 0000000180080270 f i libucrtd:output.obj
 0001:0007f390       ?validate_and_store_parameter_data@?$positional_parameter_base@DV?$string_output_adapter@D@__crt_stdio_output@@@__crt_stdio_output@@AEAA_NAEAUparameter_data@12@W4parameter_type@12@DW4length_modifier@2@@Z 0000000180080390 f i libucrtd:output.obj
 0001:0007f4b0       ?validate_and_store_parameter_data@?$positional_parameter_base@_WV?$stream_output_adapter@_W@__crt_stdio_output@@@__crt_stdio_output@@AEAA_NAEAUparameter_data@12@W4parameter_type@12@_WW4length_modifier@2@@Z 00000001800804b0 f i libucrtd:output.obj
 0001:0007f5d0       ?validate_and_store_parameter_data@?$positional_parameter_base@_WV?$string_output_adapter@_W@__crt_stdio_output@@@__crt_stdio_output@@AEAA_NAEAUparameter_data@12@W4parameter_type@12@_WW4length_modifier@2@@Z 00000001800805d0 f i libucrtd:output.obj
 0001:0007f6f0       ?validate_and_update_state_at_beginning_of_format_character@?$positional_parameter_base@DV?$stream_output_adapter@D@__crt_stdio_output@@@__crt_stdio_output@@IEAA_NXZ 00000001800806f0 f i libucrtd:output.obj
 0001:0007f9d0       ?validate_and_update_state_at_beginning_of_format_character@?$positional_parameter_base@DV?$string_output_adapter@D@__crt_stdio_output@@@__crt_stdio_output@@IEAA_NXZ 00000001800809d0 f i libucrtd:output.obj
 0001:0007fcb0       ?validate_and_update_state_at_beginning_of_format_character@?$positional_parameter_base@_WV?$stream_output_adapter@_W@__crt_stdio_output@@@__crt_stdio_output@@IEAA_NXZ 0000000180080cb0 f i libucrtd:output.obj
 0001:0007ff90       ?validate_and_update_state_at_beginning_of_format_character@?$positional_parameter_base@_WV?$string_output_adapter@_W@__crt_stdio_output@@@__crt_stdio_output@@IEAA_NXZ 0000000180080f90 f i libucrtd:output.obj
 0001:00080270       ?validate_and_update_state_at_beginning_of_format_character@?$standard_base@DV?$stream_output_adapter@D@__crt_stdio_output@@@__crt_stdio_output@@IEAA_NXZ 0000000180081270 f i libucrtd:output.obj
 0001:00080280       ?validate_and_update_state_at_beginning_of_format_character@?$standard_base@DV?$string_output_adapter@D@__crt_stdio_output@@@__crt_stdio_output@@IEAA_NXZ 0000000180081280 f i libucrtd:output.obj
 0001:00080290       ?validate_and_update_state_at_beginning_of_format_character@?$standard_base@_WV?$stream_output_adapter@_W@__crt_stdio_output@@@__crt_stdio_output@@IEAA_NXZ 0000000180081290 f i libucrtd:output.obj
 0001:000802a0       ?validate_and_update_state_at_beginning_of_format_character@?$standard_base@_WV?$string_output_adapter@_W@__crt_stdio_output@@@__crt_stdio_output@@IEAA_NXZ 00000001800812a0 f i libucrtd:output.obj
 0001:000802b0       ?validate_and_update_state_at_end_of_format_string@?$format_validation_base@DV?$stream_output_adapter@D@__crt_stdio_output@@@__crt_stdio_output@@IEBA_NXZ 00000001800812b0 f i libucrtd:output.obj
 0001:00080370       ?validate_and_update_state_at_end_of_format_string@?$format_validation_base@DV?$string_output_adapter@D@__crt_stdio_output@@@__crt_stdio_output@@IEBA_NXZ 0000000180081370 f i libucrtd:output.obj
 0001:00080430       ?validate_and_update_state_at_end_of_format_string@?$format_validation_base@_WV?$stream_output_adapter@_W@__crt_stdio_output@@@__crt_stdio_output@@IEBA_NXZ 0000000180081430 f i libucrtd:output.obj
 0001:000804f0       ?validate_and_update_state_at_end_of_format_string@?$format_validation_base@_WV?$string_output_adapter@_W@__crt_stdio_output@@@__crt_stdio_output@@IEBA_NXZ 00000001800814f0 f i libucrtd:output.obj
 0001:000805b0       ?validate_and_update_state_at_end_of_format_string@?$positional_parameter_base@DV?$stream_output_adapter@D@__crt_stdio_output@@@__crt_stdio_output@@IEAA_NXZ 00000001800815b0 f i libucrtd:output.obj
 0001:000807a0       ?validate_and_update_state_at_end_of_format_string@?$positional_parameter_base@DV?$string_output_adapter@D@__crt_stdio_output@@@__crt_stdio_output@@IEAA_NXZ 00000001800817a0 f i libucrtd:output.obj
 0001:00080990       ?validate_and_update_state_at_end_of_format_string@?$positional_parameter_base@_WV?$stream_output_adapter@_W@__crt_stdio_output@@@__crt_stdio_output@@IEAA_NXZ 0000000180081990 f i libucrtd:output.obj
 0001:00080b80       ?validate_and_update_state_at_end_of_format_string@?$positional_parameter_base@_WV?$string_output_adapter@_W@__crt_stdio_output@@@__crt_stdio_output@@IEAA_NXZ 0000000180081b80 f i libucrtd:output.obj
 0001:00080d70       ?validate_and_update_state_at_end_of_format_string@?$standard_base@DV?$stream_output_adapter@D@__crt_stdio_output@@@__crt_stdio_output@@IEBA_NXZ 0000000180081d70 f i libucrtd:output.obj
 0001:00080d80       ?validate_and_update_state_at_end_of_format_string@?$standard_base@DV?$string_output_adapter@D@__crt_stdio_output@@@__crt_stdio_output@@IEBA_NXZ 0000000180081d80 f i libucrtd:output.obj
 0001:00080d90       ?validate_and_update_state_at_end_of_format_string@?$standard_base@_WV?$stream_output_adapter@_W@__crt_stdio_output@@@__crt_stdio_output@@IEBA_NXZ 0000000180081d90 f i libucrtd:output.obj
 0001:00080da0       ?validate_and_update_state_at_end_of_format_string@?$standard_base@_WV?$string_output_adapter@_W@__crt_stdio_output@@@__crt_stdio_output@@IEBA_NXZ 0000000180081da0 f i libucrtd:output.obj
 0001:00080db0       ?validate_state_for_type_case_a@?$positional_parameter_base@DV?$stream_output_adapter@D@__crt_stdio_output@@@__crt_stdio_output@@IEAA_NXZ 0000000180081db0 f i libucrtd:output.obj
 0001:00080ef0       ?validate_state_for_type_case_a@?$positional_parameter_base@DV?$string_output_adapter@D@__crt_stdio_output@@@__crt_stdio_output@@IEAA_NXZ 0000000180081ef0 f i libucrtd:output.obj
 0001:00081030       ?validate_state_for_type_case_a@?$positional_parameter_base@_WV?$stream_output_adapter@_W@__crt_stdio_output@@@__crt_stdio_output@@IEAA_NXZ 0000000180082030 f i libucrtd:output.obj
 0001:00081170       ?validate_state_for_type_case_a@?$positional_parameter_base@_WV?$string_output_adapter@_W@__crt_stdio_output@@@__crt_stdio_output@@IEAA_NXZ 0000000180082170 f i libucrtd:output.obj
 0001:000812b0       ?validate_state_for_type_case_a@?$standard_base@DV?$stream_output_adapter@D@__crt_stdio_output@@@__crt_stdio_output@@IEBA_NXZ 00000001800822b0 f i libucrtd:output.obj
 0001:000812c0       ?validate_state_for_type_case_a@?$standard_base@DV?$string_output_adapter@D@__crt_stdio_output@@@__crt_stdio_output@@IEBA_NXZ 00000001800822c0 f i libucrtd:output.obj
 0001:000812d0       ?validate_state_for_type_case_a@?$standard_base@_WV?$stream_output_adapter@_W@__crt_stdio_output@@@__crt_stdio_output@@IEBA_NXZ 00000001800822d0 f i libucrtd:output.obj
 0001:000812e0       ?validate_state_for_type_case_a@?$standard_base@_WV?$string_output_adapter@_W@__crt_stdio_output@@@__crt_stdio_output@@IEBA_NXZ 00000001800822e0 f i libucrtd:output.obj
 0001:000812f0       ?validate_stream_is_ansi_if_required@?$__acrt_stdio_char_traits@D@@SA_NQEAU_iobuf@@@Z 00000001800822f0 f i libucrtd:output.obj
 0001:00081480       ?validate_stream_is_ansi_if_required@?$__acrt_stdio_char_traits@_W@@SA_NQEAU_iobuf@@@Z 0000000180082480 f i libucrtd:output.obj
 0001:00081490       ?wide_null_string@?$output_processor@DV?$stream_output_adapter@D@__crt_stdio_output@@V?$format_validation_base@DV?$stream_output_adapter@D@__crt_stdio_output@@@2@@__crt_stdio_output@@CAPEA_WXZ 0000000180082490 f i libucrtd:output.obj
 0001:000814a0       ?wide_null_string@?$output_processor@DV?$stream_output_adapter@D@__crt_stdio_output@@V?$positional_parameter_base@DV?$stream_output_adapter@D@__crt_stdio_output@@@2@@__crt_stdio_output@@CAPEA_WXZ 00000001800824a0 f i libucrtd:output.obj
 0001:000814b0       ?wide_null_string@?$output_processor@DV?$stream_output_adapter@D@__crt_stdio_output@@V?$standard_base@DV?$stream_output_adapter@D@__crt_stdio_output@@@2@@__crt_stdio_output@@CAPEA_WXZ 00000001800824b0 f i libucrtd:output.obj
 0001:000814c0       ?wide_null_string@?$output_processor@DV?$string_output_adapter@D@__crt_stdio_output@@V?$format_validation_base@DV?$string_output_adapter@D@__crt_stdio_output@@@2@@__crt_stdio_output@@CAPEA_WXZ 00000001800824c0 f i libucrtd:output.obj
 0001:000814d0       ?wide_null_string@?$output_processor@DV?$string_output_adapter@D@__crt_stdio_output@@V?$positional_parameter_base@DV?$string_output_adapter@D@__crt_stdio_output@@@2@@__crt_stdio_output@@CAPEA_WXZ 00000001800824d0 f i libucrtd:output.obj
 0001:000814e0       ?wide_null_string@?$output_processor@DV?$string_output_adapter@D@__crt_stdio_output@@V?$standard_base@DV?$string_output_adapter@D@__crt_stdio_output@@@2@@__crt_stdio_output@@CAPEA_WXZ 00000001800824e0 f i libucrtd:output.obj
 0001:000814f0       ?wide_null_string@?$output_processor@_WV?$stream_output_adapter@_W@__crt_stdio_output@@V?$format_validation_base@_WV?$stream_output_adapter@_W@__crt_stdio_output@@@2@@__crt_stdio_output@@CAPEA_WXZ 00000001800824f0 f i libucrtd:output.obj
 0001:00081500       ?wide_null_string@?$output_processor@_WV?$stream_output_adapter@_W@__crt_stdio_output@@V?$positional_parameter_base@_WV?$stream_output_adapter@_W@__crt_stdio_output@@@2@@__crt_stdio_output@@CAPEA_WXZ 0000000180082500 f i libucrtd:output.obj
 0001:00081510       ?wide_null_string@?$output_processor@_WV?$stream_output_adapter@_W@__crt_stdio_output@@V?$standard_base@_WV?$stream_output_adapter@_W@__crt_stdio_output@@@2@@__crt_stdio_output@@CAPEA_WXZ 0000000180082510 f i libucrtd:output.obj
 0001:00081520       ?wide_null_string@?$output_processor@_WV?$string_output_adapter@_W@__crt_stdio_output@@V?$format_validation_base@_WV?$string_output_adapter@_W@__crt_stdio_output@@@2@@__crt_stdio_output@@CAPEA_WXZ 0000000180082520 f i libucrtd:output.obj
 0001:00081530       ?wide_null_string@?$output_processor@_WV?$string_output_adapter@_W@__crt_stdio_output@@V?$positional_parameter_base@_WV?$string_output_adapter@_W@__crt_stdio_output@@@2@@__crt_stdio_output@@CAPEA_WXZ 0000000180082530 f i libucrtd:output.obj
 0001:00081540       ?wide_null_string@?$output_processor@_WV?$string_output_adapter@_W@__crt_stdio_output@@V?$standard_base@_WV?$string_output_adapter@_W@__crt_stdio_output@@@2@@__crt_stdio_output@@CAPEA_WXZ 0000000180082540 f i libucrtd:output.obj
 0001:00081550       ?write_character@?$output_adapter_common@DV?$stream_output_adapter@D@__crt_stdio_output@@@__crt_stdio_output@@QEBAXDQEAH@Z 0000000180082550 f i libucrtd:output.obj
 0001:000815a0       ?write_character@?$output_adapter_common@_WV?$stream_output_adapter@_W@__crt_stdio_output@@@__crt_stdio_output@@QEBAX_WQEAH@Z 00000001800825a0 f i libucrtd:output.obj
 0001:000815f0       ?write_character@?$string_output_adapter@D@__crt_stdio_output@@QEBA_NDQEAH@Z 00000001800825f0 f i libucrtd:output.obj
 0001:000816b0       ?write_character@?$string_output_adapter@_W@__crt_stdio_output@@QEBA_N_WQEAH@Z 00000001800826b0 f i libucrtd:output.obj
 0001:00081770       ?write_character_without_count_update@?$stream_output_adapter@D@__crt_stdio_output@@QEBA_ND@Z 0000000180082770 f i libucrtd:output.obj
 0001:000817f0       ?write_character_without_count_update@?$stream_output_adapter@_W@__crt_stdio_output@@QEBA_N_W@Z 00000001800827f0 f i libucrtd:output.obj
 0001:00081880       ?write_stored_string_tchar@?$output_processor@DV?$stream_output_adapter@D@__crt_stdio_output@@V?$format_validation_base@DV?$stream_output_adapter@D@__crt_stdio_output@@@2@@__crt_stdio_output@@AEAA_ND@Z 0000000180082880 f i libucrtd:output.obj
 0001:00081a40       ?write_stored_string_tchar@?$output_processor@DV?$stream_output_adapter@D@__crt_stdio_output@@V?$positional_parameter_base@DV?$stream_output_adapter@D@__crt_stdio_output@@@2@@__crt_stdio_output@@AEAA_ND@Z 0000000180082a40 f i libucrtd:output.obj
 0001:00081c00       ?write_stored_string_tchar@?$output_processor@DV?$stream_output_adapter@D@__crt_stdio_output@@V?$standard_base@DV?$stream_output_adapter@D@__crt_stdio_output@@@2@@__crt_stdio_output@@AEAA_ND@Z 0000000180082c00 f i libucrtd:output.obj
 0001:00081dc0       ?write_stored_string_tchar@?$output_processor@DV?$string_output_adapter@D@__crt_stdio_output@@V?$format_validation_base@DV?$string_output_adapter@D@__crt_stdio_output@@@2@@__crt_stdio_output@@AEAA_ND@Z 0000000180082dc0 f i libucrtd:output.obj
 0001:00081f80       ?write_stored_string_tchar@?$output_processor@DV?$string_output_adapter@D@__crt_stdio_output@@V?$positional_parameter_base@DV?$string_output_adapter@D@__crt_stdio_output@@@2@@__crt_stdio_output@@AEAA_ND@Z 0000000180082f80 f i libucrtd:output.obj
 0001:00082140       ?write_stored_string_tchar@?$output_processor@DV?$string_output_adapter@D@__crt_stdio_output@@V?$standard_base@DV?$string_output_adapter@D@__crt_stdio_output@@@2@@__crt_stdio_output@@AEAA_ND@Z 0000000180083140 f i libucrtd:output.obj
 0001:00082300       ?write_stored_string_tchar@?$output_processor@_WV?$stream_output_adapter@_W@__crt_stdio_output@@V?$format_validation_base@_WV?$stream_output_adapter@_W@__crt_stdio_output@@@2@@__crt_stdio_output@@AEAA_N_W@Z 0000000180083300 f i libucrtd:output.obj
 0001:00082450       ?write_stored_string_tchar@?$output_processor@_WV?$stream_output_adapter@_W@__crt_stdio_output@@V?$positional_parameter_base@_WV?$stream_output_adapter@_W@__crt_stdio_output@@@2@@__crt_stdio_output@@AEAA_N_W@Z 0000000180083450 f i libucrtd:output.obj
 0001:000825a0       ?write_stored_string_tchar@?$output_processor@_WV?$stream_output_adapter@_W@__crt_stdio_output@@V?$standard_base@_WV?$stream_output_adapter@_W@__crt_stdio_output@@@2@@__crt_stdio_output@@AEAA_N_W@Z 00000001800835a0 f i libucrtd:output.obj
 0001:000826f0       ?write_stored_string_tchar@?$output_processor@_WV?$string_output_adapter@_W@__crt_stdio_output@@V?$format_validation_base@_WV?$string_output_adapter@_W@__crt_stdio_output@@@2@@__crt_stdio_output@@AEAA_N_W@Z 00000001800836f0 f i libucrtd:output.obj
 0001:00082840       ?write_stored_string_tchar@?$output_processor@_WV?$string_output_adapter@_W@__crt_stdio_output@@V?$positional_parameter_base@_WV?$string_output_adapter@_W@__crt_stdio_output@@@2@@__crt_stdio_output@@AEAA_N_W@Z 0000000180083840 f i libucrtd:output.obj
 0001:00082990       ?write_stored_string_tchar@?$output_processor@_WV?$string_output_adapter@_W@__crt_stdio_output@@V?$standard_base@_WV?$string_output_adapter@_W@__crt_stdio_output@@@2@@__crt_stdio_output@@AEAA_N_W@Z 0000000180083990 f i libucrtd:output.obj
 0001:00082ae0       ?write_string@?$stream_output_adapter@D@__crt_stdio_output@@QEBAXQEBDHQEAHAEAV__crt_deferred_errno_cache@@@Z 0000000180083ae0 f i libucrtd:output.obj
 0001:00082b60       ?write_string@?$stream_output_adapter@_W@__crt_stdio_output@@QEBAXQEB_WHQEAHAEAV__crt_deferred_errno_cache@@@Z 0000000180083b60 f i libucrtd:output.obj
 0001:00082be0       ?write_string@?$string_output_adapter@D@__crt_stdio_output@@QEBAXQEBDHQEAHAEAV__crt_deferred_errno_cache@@@Z 0000000180083be0 f i libucrtd:output.obj
 0001:00082d50       ?write_string@?$string_output_adapter@_W@__crt_stdio_output@@QEBAXQEB_WHQEAHAEAV__crt_deferred_errno_cache@@@Z 0000000180083d50 f i libucrtd:output.obj
 0001:00082ec0       ?write_string_impl@?$output_adapter_common@DV?$stream_output_adapter@D@__crt_stdio_output@@@__crt_stdio_output@@IEBAXQEBDHQEAHAEAV__crt_deferred_errno_cache@@@Z 0000000180083ec0 f i libucrtd:output.obj
 0001:00082fa0       ?write_string_impl@?$output_adapter_common@_WV?$stream_output_adapter@_W@__crt_stdio_output@@@__crt_stdio_output@@IEBAXQEB_WHQEAHAEAV__crt_deferred_errno_cache@@@Z 0000000180083fa0 f i libucrtd:output.obj
 0001:00083080       __acrt_disable_global_locale_sync 0000000180084080 f i libucrtd:output.obj
 0001:000830b0       __acrt_enable_global_locale_sync 00000001800840b0 f i libucrtd:output.obj
 0001:000830e0       __acrt_isleadbyte_l_noupdate 00000001800840e0 f i libucrtd:output.obj
 0001:00083110       __acrt_locale_changed      0000000180084110 f i libucrtd:output.obj
 0001:00083140       __acrt_locale_get_ctype_array_value 0000000180084140 f i libucrtd:output.obj
 0001:00083180       __stdio_common_vfprintf    0000000180084180 f   libucrtd:output.obj
 0001:000831c0       __stdio_common_vfprintf_p  00000001800841c0 f   libucrtd:output.obj
 0001:00083200       __stdio_common_vfprintf_s  0000000180084200 f   libucrtd:output.obj
 0001:00083240       __stdio_common_vfwprintf   0000000180084240 f   libucrtd:output.obj
 0001:00083280       __stdio_common_vfwprintf_p 0000000180084280 f   libucrtd:output.obj
 0001:000832c0       __stdio_common_vfwprintf_s 00000001800842c0 f   libucrtd:output.obj
 0001:00083300       __stdio_common_vsnprintf_s 0000000180084300 f   libucrtd:output.obj
 0001:00083360       __stdio_common_vsnwprintf_s 0000000180084360 f   libucrtd:output.obj
 0001:000833c0       __stdio_common_vsprintf    00000001800843c0 f   libucrtd:output.obj
 0001:00083410       __stdio_common_vsprintf_p  0000000180084410 f   libucrtd:output.obj
 0001:00083460       __stdio_common_vsprintf_s  0000000180084460 f   libucrtd:output.obj
 0001:000834b0       __stdio_common_vswprintf   00000001800844b0 f   libucrtd:output.obj
 0001:00083500       __stdio_common_vswprintf_p 0000000180084500 f   libucrtd:output.obj
 0001:00083550       __stdio_common_vswprintf_s 0000000180084550 f   libucrtd:output.obj
 0001:000835a0       _ctype_fast_check_internal 00000001800845a0 f i libucrtd:output.obj
 0001:000835d0       _isdigit_fast_internal     00000001800845d0 f i libucrtd:output.obj
 0001:00083600       _tolower_fast_internal     0000000180084600 f i libucrtd:output.obj
 0001:00083630       free                       0000000180084630 f   libucrtd:free.obj
 0001:00083660       malloc                     0000000180084660 f   libucrtd:malloc.obj
 0001:00083690       ??$?RU?$__crt_report_hook_node@D@@@__crt_internal_free_policy@@QEBAXQEBU?$__crt_report_hook_node@D@@@Z 0000000180084690 f i libucrtd:dbgrpt.obj
 0001:000836c0       ??$?RU?$__crt_report_hook_node@_W@@@__crt_internal_free_policy@@QEBAXQEBU?$__crt_report_hook_node@_W@@@Z 00000001800846c0 f i libucrtd:dbgrpt.obj
 0001:00084900       ??$get_module_file_name@AEAPEAUHINSTANCE__@@AEAY0BAF@DK@?$__crt_char_traits@D@@SAKAEAPEAUHINSTANCE__@@AEAY0BAF@D$$QEAK@Z 0000000180085900 f i libucrtd:dbgrpt.obj
 0001:00084940       ??$get_module_file_name@AEAPEAUHINSTANCE__@@AEAY0BAF@_WK@?$__crt_char_traits@_W@@SAKAEAPEAUHINSTANCE__@@AEAY0BAF@_W$$QEAK@Z 0000000180085940 f i libucrtd:dbgrpt.obj
 0001:00084980       ??$tcscpy_s@AEAY0BAF@D_KPEBD@?$__crt_char_traits@D@@SAHAEAY0BAF@D$$QEA_K$$QEAPEBD@Z 0000000180085980 f i libucrtd:dbgrpt.obj
 0001:000849c0       ??$tcscpy_s@AEAY0BAF@_W_KPEB_W@?$__crt_char_traits@_W@@SAHAEAY0BAF@_W$$QEA_K$$QEAPEB_W@Z 00000001800859c0 f i libucrtd:dbgrpt.obj
 0001:00084a00       ??$tcslen@AEAY0BAF@D@?$__crt_char_traits@D@@SA_KAEAY0BAF@D@Z 0000000180085a00 f i libucrtd:dbgrpt.obj
 0001:00084a20       ??$tcslen@AEAY0BAF@_W@?$__crt_char_traits@_W@@SA_KAEAY0BAF@_W@Z 0000000180085a20 f i libucrtd:dbgrpt.obj
 0001:00084a40       ??$tcslen@AEBQEBD@?$__crt_char_traits@D@@SA_KAEBQEBD@Z 0000000180085a40 f i libucrtd:dbgrpt.obj
 0001:00084a60       ??$tcslen@AEBQEB_W@?$__crt_char_traits@_W@@SA_KAEBQEB_W@Z 0000000180085a60 f i libucrtd:dbgrpt.obj
 0001:00084b60       ??0?$__crt_unique_heap_ptr@U?$__crt_report_hook_node@D@@U__crt_internal_free_policy@@@@QEAA@QEAU?$__crt_report_hook_node@D@@@Z 0000000180085b60 f i libucrtd:dbgrpt.obj
 0001:00084b80       ??0?$__crt_unique_heap_ptr@U?$__crt_report_hook_node@_W@@U__crt_internal_free_policy@@@@QEAA@QEAU?$__crt_report_hook_node@_W@@@Z 0000000180085b80 f i libucrtd:dbgrpt.obj
 0001:00084ba0       ??1?$__crt_unique_heap_ptr@U?$__crt_report_hook_node@D@@U__crt_internal_free_policy@@@@QEAA@XZ 0000000180085ba0 f i libucrtd:dbgrpt.obj
 0001:00084bc0       ??1?$__crt_unique_heap_ptr@U?$__crt_report_hook_node@_W@@U__crt_internal_free_policy@@@@QEAA@XZ 0000000180085bc0 f i libucrtd:dbgrpt.obj
 0001:00084be0       ??B?$__crt_unique_heap_ptr@U?$__crt_report_hook_node@D@@U__crt_internal_free_policy@@@@QEBA_NXZ 0000000180085be0 f i libucrtd:dbgrpt.obj
 0001:00084c00       ??B?$__crt_unique_heap_ptr@U?$__crt_report_hook_node@_W@@U__crt_internal_free_policy@@@@QEBA_NXZ 0000000180085c00 f i libucrtd:dbgrpt.obj
 0001:000852e0       ?detach@?$__crt_unique_heap_ptr@U?$__crt_report_hook_node@D@@U__crt_internal_free_policy@@@@QEAAPEAU?$__crt_report_hook_node@D@@XZ 00000001800862e0 f i libucrtd:dbgrpt.obj
 0001:00085310       ?detach@?$__crt_unique_heap_ptr@U?$__crt_report_hook_node@_W@@U__crt_internal_free_policy@@@@QEAAPEAU?$__crt_report_hook_node@_W@@XZ 0000000180086310 f i libucrtd:dbgrpt.obj
 0001:00085340       ?get@?$__crt_unique_heap_ptr@U?$__crt_report_hook_node@D@@U__crt_internal_free_policy@@@@QEBAPEAU?$__crt_report_hook_node@D@@XZ 0000000180086340 f i libucrtd:dbgrpt.obj
 0001:00085350       ?get@?$__crt_unique_heap_ptr@U?$__crt_report_hook_node@_W@@U__crt_internal_free_policy@@@@QEBAPEAU?$__crt_report_hook_node@_W@@XZ 0000000180086350 f i libucrtd:dbgrpt.obj
 0001:000853c0       ?is_valid@?$__crt_unique_heap_ptr@U?$__crt_report_hook_node@D@@U__crt_internal_free_policy@@@@QEBA_NXZ 00000001800863c0 f i libucrtd:dbgrpt.obj
 0001:000853f0       ?is_valid@?$__crt_unique_heap_ptr@U?$__crt_report_hook_node@_W@@U__crt_internal_free_policy@@@@QEBA_NXZ 00000001800863f0 f i libucrtd:dbgrpt.obj
 0001:00085420       ?release@?$__crt_unique_heap_ptr@U?$__crt_report_hook_node@D@@U__crt_internal_free_policy@@@@QEAAXXZ 0000000180086420 f i libucrtd:dbgrpt.obj
 0001:00085450       ?release@?$__crt_unique_heap_ptr@U?$__crt_report_hook_node@_W@@U__crt_internal_free_policy@@@@QEAAXXZ 0000000180086450 f i libucrtd:dbgrpt.obj
 0001:00085480       _CrtDbgReport              0000000180086480 f   libucrtd:dbgrpt.obj
 0001:00085500       _CrtDbgReportW             0000000180086500 f   libucrtd:dbgrpt.obj
 0001:00085580       _CrtSetReportHook2         0000000180086580 f   libucrtd:dbgrpt.obj
 0001:000855a0       _CrtSetReportHookW2        00000001800865a0 f   libucrtd:dbgrpt.obj
 0001:000855c0       __acrt_MessageWindowA      00000001800865c0 f   libucrtd:dbgrpt.obj
 0001:00085610       __acrt_MessageWindowW      0000000180086610 f   libucrtd:dbgrpt.obj
 0001:00085660       _invoke_watson_if_error    0000000180086660 f i libucrtd:dbgrpt.obj
 0001:000856b0       _invoke_watson_if_oneof    00000001800866b0 f i libucrtd:dbgrpt.obj
 0001:00085710       _snwprintf_s               0000000180086710 f i libucrtd:dbgrpt.obj
 0001:00085780       _vsnwprintf_s_l            0000000180086780 f i libucrtd:dbgrpt.obj
 0001:00085ce0       wcscpy_s                   0000000180086ce0 f   libucrtd:wcscpy_s.obj
 0001:00087070       ??1?$__crt_simd_cleanup_guard@$00@@QEAA@XZ 0000000180088070 f i libucrtd:strnlen.obj
 0001:00087080       ??1?$__crt_simd_cleanup_guard@$0A@@@QEAA@XZ 0000000180088080 f i libucrtd:strnlen.obj
 0001:00087090       ?compare_equals@?$__crt_simd_traits@$00E@@SA?AT__m256i@@T2@0@Z 0000000180088090 f i libucrtd:strnlen.obj
 0001:000870d0       ?compare_equals@?$__crt_simd_traits@$00G@@SA?AT__m256i@@T2@0@Z 00000001800880d0 f i libucrtd:strnlen.obj
 0001:00087110       ?compare_equals@?$__crt_simd_traits@$0A@E@@SA?AT__m128i@@T2@0@Z 0000000180088110 f i libucrtd:strnlen.obj
 0001:00087140       ?compare_equals@?$__crt_simd_traits@$0A@G@@SA?AT__m128i@@T2@0@Z 0000000180088140 f i libucrtd:strnlen.obj
 0001:00087170       ?compute_byte_mask@?$__crt_simd_pack_traits@$00@@SAHT__m256i@@@Z 0000000180088170 f i libucrtd:strnlen.obj
 0001:00087190       ?compute_byte_mask@?$__crt_simd_pack_traits@$0A@@@SAHT__m128i@@@Z 0000000180088190 f i libucrtd:strnlen.obj
 0001:000871b0       ?get_zero_pack@?$__crt_simd_pack_traits@$00@@SA?AT__m256i@@XZ 00000001800881b0 f i libucrtd:strnlen.obj
 0001:000871e0       ?get_zero_pack@?$__crt_simd_pack_traits@$0A@@@SA?AT__m128i@@XZ 00000001800881e0 f i libucrtd:strnlen.obj
 0001:00087200       strnlen                    0000000180088200 f   libucrtd:strnlen.obj
 0001:00087230       wcslen                     0000000180088230 f   libucrtd:strnlen.obj
 0001:00087250       wcsnlen                    0000000180088250 f   libucrtd:strnlen.obj
 0001:00087280       ??$__crt_fast_decode_pointer@P6AXPEB_W00I_K@Z@@YAP6AXPEB_W00I_K@ZQ6AX000I1@Z@Z 0000000180088280 f i libucrtd:invalid_parameter.obj
 0001:000872c0       ??$__crt_fast_encode_pointer@P6AXPEB_W00I_K@Z@@YAP6AXPEB_W00I_K@ZQ6AX000I1@Z@Z 00000001800882c0 f i libucrtd:invalid_parameter.obj
 0001:00087300       ??$initialize_from_array@$$BY00Q6AXPEB_W00I_K@Z@?$dual_state_global@P6AXPEB_W00I_K@Z@__crt_state_management@@QEAAXAEAY00Q6AXPEB_W00I_K@Z@Z 0000000180088300 f i libucrtd:invalid_parameter.obj
 0001:00087360       ?__crt_rotate_pointer_value@@YA_K_KH@Z 0000000180088360 f i libucrtd:invalid_parameter.obj
 0001:00087420       ?dangerous_get_state_array@?$dual_state_global@P6AXPEB_W00I_K@Z@__crt_state_management@@QEAAPEAP6AXPEB_W00I_K@ZXZ 0000000180088420 f i libucrtd:invalid_parameter.obj
 0001:00087430       ?get_current_state_index@__crt_state_management@@YA_KXZ 0000000180088430 f i libucrtd:invalid_parameter.obj
 0001:00087440       ?value@?$dual_state_global@P6AXPEB_W00I_K@Z@__crt_state_management@@QEAAAEAP6AXPEB_W00I_K@ZXZ 0000000180088440 f i libucrtd:invalid_parameter.obj
 0001:00087460       __acrt_call_reportfault    0000000180088460 f   libucrtd:invalid_parameter.obj
 0001:00087590       __acrt_initialize_invalid_parameter_handler 0000000180088590 f   libucrtd:invalid_parameter.obj
 0001:000875c0       _get_invalid_parameter_handler 00000001800885c0 f   libucrtd:invalid_parameter.obj
 0001:000875e0       _get_thread_local_invalid_parameter_handler 00000001800885e0 f   libucrtd:invalid_parameter.obj
 0001:00087610       _invalid_parameter         0000000180088610 f   libucrtd:invalid_parameter.obj
 0001:00087710       _invalid_parameter_noinfo  0000000180088710 f   libucrtd:invalid_parameter.obj
 0001:00087740       _invalid_parameter_noinfo_noreturn 0000000180088740 f   libucrtd:invalid_parameter.obj
 0001:00087780       _invoke_watson             0000000180088780 f   libucrtd:invalid_parameter.obj
 0001:000877e0       _set_invalid_parameter_handler 00000001800887e0 f   libucrtd:invalid_parameter.obj
 0001:00087830       _set_thread_local_invalid_parameter_handler 0000000180088830 f   libucrtd:invalid_parameter.obj
 0001:00087870       __acrt_errno_from_os_error 0000000180088870 f   libucrtd:errno.obj
 0001:00087900       __acrt_errno_map_os_error  0000000180088900 f   libucrtd:errno.obj
 0001:00087930       __doserrno                 0000000180088930 f   libucrtd:errno.obj
 0001:00087960       _errno                     0000000180088960 f   libucrtd:errno.obj
 0001:00087990       _get_doserrno              0000000180088990 f   libucrtd:errno.obj
 0001:00087a50       _get_errno                 0000000180088a50 f   libucrtd:errno.obj
 0001:00087b10       _set_doserrno              0000000180088b10 f   libucrtd:errno.obj
 0001:00087b50       _set_errno                 0000000180088b50 f   libucrtd:errno.obj
 0001:00087b90       calloc                     0000000180088b90 f   libucrtd:calloc.obj
 0001:00087bd0       _recalloc                  0000000180088bd0 f   libucrtd:recalloc.obj
 0001:00087c20       _recalloc_base             0000000180088c20 f   libucrtd:recalloc.obj
 0001:00087cfc       _resetstkoflw              0000000180088cfc f   libucrtd:resetstk.obj
 0001:000884b0       wcscat_s                   00000001800894b0 f   libucrtd:wcscat_s.obj
 0001:00088b80       wcsncpy_s                  0000000180089b80 f   libucrtd:wcsncpy_s.obj
 0001:00088d00       __isascii                  0000000180089d00 f   libucrtd:_ctype.obj
 0001:00088d30       __iscsym                   0000000180089d30 f   libucrtd:_ctype.obj
 0001:00088d70       __iscsymf                  0000000180089d70 f   libucrtd:_ctype.obj
 0001:00088db0       __toascii                  0000000180089db0 f   libucrtd:_ctype.obj
 0001:00088dc0       _isalnum_l                 0000000180089dc0 f   libucrtd:_ctype.obj
 0001:00088df0       _isalpha_l                 0000000180089df0 f   libucrtd:_ctype.obj
 0001:00088e20       _isblank_l                 0000000180089e20 f   libucrtd:_ctype.obj
 0001:00088e50       _iscntrl_l                 0000000180089e50 f   libucrtd:_ctype.obj
 0001:00088e80       _iscsym_l                  0000000180089e80 f   libucrtd:_ctype.obj
 0001:00088ed0       _iscsymf_l                 0000000180089ed0 f   libucrtd:_ctype.obj
 0001:00088f20       _isdigit_l                 0000000180089f20 f   libucrtd:_ctype.obj
 0001:00088f50       _isgraph_l                 0000000180089f50 f   libucrtd:_ctype.obj
 0001:00088f80       _islower_l                 0000000180089f80 f   libucrtd:_ctype.obj
 0001:00088fb0       _isprint_l                 0000000180089fb0 f   libucrtd:_ctype.obj
 0001:00088fe0       _ispunct_l                 0000000180089fe0 f   libucrtd:_ctype.obj
 0001:00089010       _isspace_l                 000000018008a010 f   libucrtd:_ctype.obj
 0001:00089040       _isupper_l                 000000018008a040 f   libucrtd:_ctype.obj
 0001:00089070       _isxdigit_l                000000018008a070 f   libucrtd:_ctype.obj
 0001:000890a0       isalnum                    000000018008a0a0 f   libucrtd:_ctype.obj
 0001:000890c0       isalpha                    000000018008a0c0 f   libucrtd:_ctype.obj
 0001:000890e0       isblank                    000000018008a0e0 f   libucrtd:_ctype.obj
 0001:00089110       iscntrl                    000000018008a110 f   libucrtd:_ctype.obj
 0001:00089130       isdigit                    000000018008a130 f   libucrtd:_ctype.obj
 0001:00089150       isgraph                    000000018008a150 f   libucrtd:_ctype.obj
 0001:00089170       islower                    000000018008a170 f   libucrtd:_ctype.obj
 0001:00089190       isprint                    000000018008a190 f   libucrtd:_ctype.obj
 0001:000891b0       ispunct                    000000018008a1b0 f   libucrtd:_ctype.obj
 0001:000891d0       isspace                    000000018008a1d0 f   libucrtd:_ctype.obj
 0001:000891f0       isupper                    000000018008a1f0 f   libucrtd:_ctype.obj
 0001:00089210       isxdigit                   000000018008a210 f   libucrtd:_ctype.obj
 0001:00089230       wcscat                     000000018008a230 f   libucrtd:wcscat.obj
 0001:000892b0       wcscpy                     000000018008a2b0 f   libucrtd:wcscpy.obj
 0001:00089a60       ??$open_file@AEBQEBDAEBQEBDAEBHPEAU_iobuf@@@?$__crt_char_traits@D@@SAPEAU_iobuf@@AEBQEBD0AEBH$$QEAPEAU1@@Z 000000018008aa60 f i libucrtd:fopen.obj
 0001:00089ab0       ??$open_file@AEBQEB_WAEBQEB_WAEBHPEAU_iobuf@@@?$__crt_char_traits@_W@@SAPEAU_iobuf@@AEBQEB_W0AEBH$$QEAPEAU1@@Z 000000018008aab0 f i libucrtd:fopen.obj
 0001:00089b00       ?unlock@__crt_stdio_stream@@QEBAXXZ 000000018008ab00 f i libucrtd:fopen.obj
 0001:00089b20       _fsopen                    000000018008ab20 f   libucrtd:fopen.obj
 0001:00089b50       _wfopen                    000000018008ab50 f   libucrtd:fopen.obj
 0001:00089b80       _wfopen_s                  000000018008ab80 f   libucrtd:fopen.obj
 0001:00089bb0       _wfsopen                   000000018008abb0 f   libucrtd:fopen.obj
 0001:00089be0       fopen                      000000018008abe0 f   libucrtd:fopen.obj
 0001:00089c10       fopen_s                    000000018008ac10 f   libucrtd:fopen.obj
 0001:00089c40       ?is_in_use@__crt_stdio_stream@@QEBA_NXZ 000000018008ac40 f i libucrtd:fclose.obj
 0001:00089c80       _fclose_nolock             000000018008ac80 f   libucrtd:fclose.obj
 0001:00089e10       fclose                     000000018008ae10 f   libucrtd:fclose.obj
 0001:00089f50       _fputc_nolock              000000018008af50 f   libucrtd:fputc.obj
 0001:0008a000       _fputchar                  000000018008b000 f   libucrtd:fputc.obj
 0001:0008a030       _putc_nolock               000000018008b030 f   libucrtd:fputc.obj
 0001:0008a050       fputc                      000000018008b050 f   libucrtd:fputc.obj
 0001:0008a2f0       putc                       000000018008b2f0 f   libucrtd:fputc.obj
 0001:0008a310       putchar                    000000018008b310 f   libucrtd:fputc.obj
 0001:0008a3a0       _seh_filter_dll            000000018008b3a0 f   libucrtd:exception_filter.obj
 0001:0008a3d0       _seh_filter_exe            000000018008b3d0 f   libucrtd:exception_filter.obj
 0001:0008a670       ??$?B$$A6AXPEAXK0@Z@__crt_fast_encoded_nullptr_t@@QEBAP6AXPEAXK0@ZXZ 000000018008b670 f i libucrtd:exit.obj
 0001:0008a720       ??$__crt_fast_decode_pointer@P6AXPEAXK0@Z@@YAP6AXPEAXK0@ZQ6AX0K0@Z@Z 000000018008b720 f i libucrtd:exit.obj
 0001:0008a760       ??$__crt_fast_encode_pointer@P6AXPEAXK0@Z@@YAP6AXPEAXK0@ZQ6AX0K0@Z@Z 000000018008b760 f i libucrtd:exit.obj
 0001:0008a7a0       ??$__crt_get_proc_address@P6AXI@Z@@YAP6AXI@ZQEAUHINSTANCE__@@QEBD@Z 000000018008b7a0 f i libucrtd:exit.obj
 0001:0008a860       ??0?$__crt_unique_handle_t@U__crt_hmodule_traits@@@@QEAA@QEAUHINSTANCE__@@@Z 000000018008b860 f i libucrtd:exit.obj
 0001:0008a880       ??1?$__crt_unique_handle_t@U__crt_hmodule_traits@@@@QEAA@XZ 000000018008b880 f i libucrtd:exit.obj
 0001:0008a9e0       ?__acrt_select_exit_lock@@YA?AW4__acrt_lock_id@@XZ 000000018008b9e0 f i libucrtd:exit.obj
 0001:0008a9f0       ?__crt_fast_encode_pointer@@YA?AU__crt_fast_encoded_nullptr_t@@$$T@Z 000000018008b9f0 f i libucrtd:exit.obj
 0001:0008aa30       ?close@?$__crt_unique_handle_t@U__crt_hmodule_traits@@@@QEAAXXZ 000000018008ba30 f i libucrtd:exit.obj
 0001:0008aa70       ?close@__crt_hmodule_traits@@SA_NPEAUHINSTANCE__@@@Z 000000018008ba70 f i libucrtd:exit.obj
 0001:0008ab80       ?get@?$__crt_unique_handle_t@U__crt_hmodule_traits@@@@QEBAPEAUHINSTANCE__@@XZ 000000018008bb80 f i libucrtd:exit.obj
 0001:0008ab90       ?get_address_of@?$__crt_unique_handle_t@U__crt_hmodule_traits@@@@QEAAPEAPEAUHINSTANCE__@@XZ 000000018008bb90 f i libucrtd:exit.obj
 0001:0008aba0       ?get_invalid_value@__crt_hmodule_traits@@SAPEAUHINSTANCE__@@XZ 000000018008bba0 f i libucrtd:exit.obj
 0001:0008ad60       _Exit                      000000018008bd60 f   libucrtd:exit.obj
 0001:0008ad80       __acrt_initialize_thread_local_exit_callback 000000018008bd80 f   libucrtd:exit.obj
 0001:0008ada0       _c_exit                    000000018008bda0 f   libucrtd:exit.obj
 0001:0008adc0       _cexit                     000000018008bdc0 f   libucrtd:exit.obj
 0001:0008ade0       _exit                      000000018008bde0 f   libucrtd:exit.obj
 0001:0008ae00       _is_c_termination_complete 000000018008be00 f   libucrtd:exit.obj
 0001:0008ae20       _register_thread_local_exe_atexit_callback 000000018008be20 f   libucrtd:exit.obj
 0001:0008ae70       exit                       000000018008be70 f   libucrtd:exit.obj
 0001:0008ae90       quick_exit                 000000018008be90 f   libucrtd:exit.obj
 0001:0008aeb0       ??$?RE@__crt_internal_free_policy@@QEBAXQEBE@Z 000000018008beb0 f i libucrtd:argv_parsing.obj
 0001:0008aee0       ??$?RPEAD@__crt_internal_free_policy@@QEBAXQEBQEAD@Z 000000018008bee0 f i libucrtd:argv_parsing.obj
 0001:0008af10       ??$?RPEA_W@__crt_internal_free_policy@@QEBAXQEBQEA_W@Z 000000018008bf10 f i libucrtd:argv_parsing.obj
 0001:0008b660       ??$get_module_file_name@$$TAEAY0BAF@DH@?$__crt_char_traits@D@@SAK$$QEA$$TAEAY0BAF@D$$QEAH@Z 000000018008c660 f i libucrtd:argv_parsing.obj
 0001:0008b6a0       ??$get_module_file_name@$$TAEAY0BAF@_WH@?$__crt_char_traits@_W@@SAK$$QEA$$TAEAY0BAF@_W$$QEAH@Z 000000018008c6a0 f i libucrtd:argv_parsing.obj
 0001:0008c050       ??$set_program_name@PEAD@?$__crt_char_traits@D@@SAX$$QEAPEAD@Z 000000018008d050 f i libucrtd:argv_parsing.obj
 0001:0008c070       ??$set_program_name@PEA_W@?$__crt_char_traits@_W@@SAX$$QEAPEA_W@Z 000000018008d070 f i libucrtd:argv_parsing.obj
 0001:0008c0d0       ??0?$__crt_unique_heap_ptr@EU__crt_internal_free_policy@@@@QEAA@QEAE@Z 000000018008d0d0 f i libucrtd:argv_parsing.obj
 0001:0008c0f0       ??0?$__crt_unique_heap_ptr@PEADU__crt_internal_free_policy@@@@QEAA@QEAPEAD@Z 000000018008d0f0 f i libucrtd:argv_parsing.obj
 0001:0008c110       ??0?$__crt_unique_heap_ptr@PEA_WU__crt_internal_free_policy@@@@QEAA@QEAPEA_W@Z 000000018008d110 f i libucrtd:argv_parsing.obj
 0001:0008c130       ??1?$__crt_unique_heap_ptr@EU__crt_internal_free_policy@@@@QEAA@XZ 000000018008d130 f i libucrtd:argv_parsing.obj
 0001:0008c150       ??1?$__crt_unique_heap_ptr@PEADU__crt_internal_free_policy@@@@QEAA@XZ 000000018008d150 f i libucrtd:argv_parsing.obj
 0001:0008c170       ??1?$__crt_unique_heap_ptr@PEA_WU__crt_internal_free_policy@@@@QEAA@XZ 000000018008d170 f i libucrtd:argv_parsing.obj
 0001:0008c190       ??B?$__crt_unique_heap_ptr@EU__crt_internal_free_policy@@@@QEBA_NXZ 000000018008d190 f i libucrtd:argv_parsing.obj
 0001:0008c270       ?detach@?$__crt_unique_heap_ptr@EU__crt_internal_free_policy@@@@QEAAPEAEXZ 000000018008d270 f i libucrtd:argv_parsing.obj
 0001:0008c2a0       ?detach@?$__crt_unique_heap_ptr@PEADU__crt_internal_free_policy@@@@QEAAPEAPEADXZ 000000018008d2a0 f i libucrtd:argv_parsing.obj
 0001:0008c2d0       ?detach@?$__crt_unique_heap_ptr@PEA_WU__crt_internal_free_policy@@@@QEAAPEAPEA_WXZ 000000018008d2d0 f i libucrtd:argv_parsing.obj
 0001:0008c390       ?get@?$__crt_unique_heap_ptr@EU__crt_internal_free_policy@@@@QEBAPEAEXZ 000000018008d390 f i libucrtd:argv_parsing.obj
 0001:0008c3a0       ?get@?$__crt_unique_heap_ptr@PEADU__crt_internal_free_policy@@@@QEBAPEAPEADXZ 000000018008d3a0 f i libucrtd:argv_parsing.obj
 0001:0008c3b0       ?get@?$__crt_unique_heap_ptr@PEA_WU__crt_internal_free_policy@@@@QEBAPEAPEA_WXZ 000000018008d3b0 f i libucrtd:argv_parsing.obj
 0001:0008c3c0       ?get_address_of@?$__crt_unique_heap_ptr@PEADU__crt_internal_free_policy@@@@QEAAPEAPEAPEADXZ 000000018008d3c0 f i libucrtd:argv_parsing.obj
 0001:0008c3d0       ?get_address_of@?$__crt_unique_heap_ptr@PEA_WU__crt_internal_free_policy@@@@QEAAPEAPEAPEA_WXZ 000000018008d3d0 f i libucrtd:argv_parsing.obj
 0001:0008c420       ?is_valid@?$__crt_unique_heap_ptr@EU__crt_internal_free_policy@@@@QEBA_NXZ 000000018008d420 f i libucrtd:argv_parsing.obj
 0001:0008c450       ?release@?$__crt_unique_heap_ptr@EU__crt_internal_free_policy@@@@QEAAXXZ 000000018008d450 f i libucrtd:argv_parsing.obj
 0001:0008c480       ?release@?$__crt_unique_heap_ptr@PEADU__crt_internal_free_policy@@@@QEAAXXZ 000000018008d480 f i libucrtd:argv_parsing.obj
 0001:0008c4b0       ?release@?$__crt_unique_heap_ptr@PEA_WU__crt_internal_free_policy@@@@QEAAXXZ 000000018008d4b0 f i libucrtd:argv_parsing.obj
 0001:0008c530       __acrt_allocate_buffer_for_argv 000000018008d530 f   libucrtd:argv_parsing.obj
 0001:0008c650       _configure_narrow_argv     000000018008d650 f   libucrtd:argv_parsing.obj
 0001:0008c670       _configure_wide_argv       000000018008d670 f   libucrtd:argv_parsing.obj
 0001:0008c690       _set_pgmptr                000000018008d690 f i libucrtd:argv_parsing.obj
 0001:0008c6b0       _set_wpgmptr               000000018008d6b0 f i libucrtd:argv_parsing.obj
 0001:0008c6c4       ??$?R_W@__crt_internal_free_policy@@QEBAXQEB_W@Z 000000018008d6c4 f i libucrtd:environment_initialization.obj
 0001:0008cc9c       ??$get_environment_from_os@$$V@?$__crt_char_traits@D@@SAPEADXZ 000000018008dc9c f i libucrtd:environment_initialization.obj
 0001:0008cca4       ??$get_environment_from_os@$$V@?$__crt_char_traits@_W@@SAPEA_WXZ 000000018008dca4 f i libucrtd:environment_initialization.obj
 0001:0008ce74       ??$set_variable_in_environment_nolock@PEADH@?$__crt_char_traits@D@@SAH$$QEAPEAD$$QEAH@Z 000000018008de74 f i libucrtd:environment_initialization.obj
 0001:0008ce80       ??$set_variable_in_environment_nolock@PEA_WH@?$__crt_char_traits@_W@@SAH$$QEAPEA_W$$QEAH@Z 000000018008de80 f i libucrtd:environment_initialization.obj
 0001:0008ce8c       ??$tcscpy_s@PEADAEB_KAEAPEAD@?$__crt_char_traits@D@@SAH$$QEAPEADAEB_KAEAPEAD@Z 000000018008de8c f i libucrtd:environment_initialization.obj
 0001:0008ce9c       ??$tcscpy_s@PEA_WAEB_KAEAPEA_W@?$__crt_char_traits@_W@@SAH$$QEAPEA_WAEB_KAEAPEA_W@Z 000000018008de9c f i libucrtd:environment_initialization.obj
 0001:0008ceac       ??$tcslen@AEAPEAD@?$__crt_char_traits@D@@SA_KAEAPEAD@Z 000000018008deac f i libucrtd:environment_initialization.obj
 0001:0008cec0       ??$tcslen@AEAPEA_W@?$__crt_char_traits@_W@@SA_KAEAPEA_W@Z 000000018008dec0 f i libucrtd:environment_initialization.obj
 0001:0008ced4       ??$uninitialize@A6AXAEAPEAPEAD@Z@?$dual_state_global@PEAPEAD@__crt_state_management@@QEAAXA6AXAEAPEAPEAD@Z@Z 000000018008ded4 f i libucrtd:environment_initialization.obj
 0001:0008cf18       ??$uninitialize@A6AXAEAPEAPEA_W@Z@?$dual_state_global@PEAPEA_W@__crt_state_management@@QEAAXA6AXAEAPEAPEA_W@Z@Z 000000018008df18 f i libucrtd:environment_initialization.obj
 0001:0008cf94       ??0?$__crt_unique_heap_ptr@_WU__crt_internal_free_policy@@@@QEAA@QEA_W@Z 000000018008df94 f i libucrtd:environment_initialization.obj
 0001:0008cf9c       ??1?$__crt_unique_heap_ptr@_WU__crt_internal_free_policy@@@@QEAA@XZ 000000018008df9c f i libucrtd:environment_initialization.obj
 0001:0008cfbc       ??B?$__crt_unique_heap_ptr@PEADU__crt_internal_free_policy@@@@QEBA_NXZ 000000018008dfbc f i libucrtd:environment_initialization.obj
 0001:0008cfc4       ??B?$__crt_unique_heap_ptr@PEA_WU__crt_internal_free_policy@@@@QEBA_NXZ 000000018008dfc4 f i libucrtd:environment_initialization.obj
 0001:0008cfcc       ??B?$__crt_unique_heap_ptr@_WU__crt_internal_free_policy@@@@QEBA_NXZ 000000018008dfcc f i libucrtd:environment_initialization.obj
 0001:0008cfd4       ?__crt_compute_required_transform_buffer_count@@YA_KIQEBD@Z 000000018008dfd4 f i libucrtd:environment_initialization.obj
 0001:0008cff8       ?__crt_compute_required_transform_buffer_count@@YA_KIQEB_W@Z 000000018008dff8 f i libucrtd:environment_initialization.obj
 0001:0008d028       ?__crt_transform_string@@YA_KIQEBDQEA_W_K@Z 000000018008e028 f i libucrtd:environment_initialization.obj
 0001:0008d04c       ?__crt_transform_string@@YA_KIQEB_WQEAD_K@Z 000000018008e04c f i libucrtd:environment_initialization.obj
 0001:0008d07c       ?detach@?$__crt_unique_heap_ptr@DU__crt_internal_free_policy@@@@QEAAPEADXZ 000000018008e07c f i libucrtd:environment_initialization.obj
 0001:0008d084       ?detach@?$__crt_unique_heap_ptr@_WU__crt_internal_free_policy@@@@QEAAPEA_WXZ 000000018008e084 f i libucrtd:environment_initialization.obj
 0001:0008d08c       ?get@?$__crt_unique_heap_ptr@_WU__crt_internal_free_policy@@@@QEBAPEA_WXZ 000000018008e08c f i libucrtd:environment_initialization.obj
 0001:0008d0c0       ?initialize@?$dual_state_global@PEAPEAD@__crt_state_management@@QEAAXQEAPEAD@Z 000000018008e0c0 f i libucrtd:environment_initialization.obj
 0001:0008d0e8       ?initialize@?$dual_state_global@PEAPEA_W@__crt_state_management@@QEAAXQEAPEA_W@Z 000000018008e0e8 f i libucrtd:environment_initialization.obj
 0001:0008d110       ?is_valid@?$__crt_unique_heap_ptr@PEADU__crt_internal_free_policy@@@@QEBA_NXZ 000000018008e110 f i libucrtd:environment_initialization.obj
 0001:0008d118       ?is_valid@?$__crt_unique_heap_ptr@PEA_WU__crt_internal_free_policy@@@@QEBA_NXZ 000000018008e118 f i libucrtd:environment_initialization.obj
 0001:0008d120       ?is_valid@?$__crt_unique_heap_ptr@_WU__crt_internal_free_policy@@@@QEBA_NXZ 000000018008e120 f i libucrtd:environment_initialization.obj
 0001:0008d134       ?release@?$__crt_unique_heap_ptr@_WU__crt_internal_free_policy@@@@QEAAXXZ 000000018008e134 f i libucrtd:environment_initialization.obj
 0001:0008d154       ?value@?$dual_state_global@PEAPEAD@__crt_state_management@@QEAAAEAPEAPEADXZ 000000018008e154 f i libucrtd:environment_initialization.obj
 0001:0008d158       ?value@?$dual_state_global@PEAPEA_W@__crt_state_management@@QEAAAEAPEAPEA_WXZ 000000018008e158 f i libucrtd:environment_initialization.obj
 0001:0008d15c       __dcrt_get_or_create_narrow_environment_nolock 000000018008e15c f   libucrtd:environment_initialization.obj
 0001:0008d198       __dcrt_get_or_create_wide_environment_nolock 000000018008e198 f   libucrtd:environment_initialization.obj
 0001:0008d1d4       __dcrt_uninitialize_environments_nolock 000000018008e1d4 f   libucrtd:environment_initialization.obj
 0001:0008d20c       __p__environ               000000018008e20c f   libucrtd:environment_initialization.obj
 0001:0008d214       __p__wenviron              000000018008e214 f   libucrtd:environment_initialization.obj
 0001:0008d21c       _get_initial_narrow_environment 000000018008e21c f   libucrtd:environment_initialization.obj
 0001:0008d26c       _get_initial_wide_environment 000000018008e26c f   libucrtd:environment_initialization.obj
 0001:0008d2bc       _initialize_narrow_environment 000000018008e2bc f   libucrtd:environment_initialization.obj
 0001:0008d2c4       _initialize_wide_environment 000000018008e2c4 f   libucrtd:environment_initialization.obj
 0001:0008d2d0       ??$?B$$A6AXXZ@__crt_fast_encoded_nullptr_t@@QEBAP6AXXZXZ 000000018008e2d0 f i libucrtd:onexit.obj
 0001:0008d2f0       ??$?BP6AXXZ@__crt_fast_encoded_nullptr_t@@QEBAPEAP6AXXZXZ 000000018008e2f0 f i libucrtd:onexit.obj
 0001:0008d310       ??$?RP6AXXZ@__crt_internal_free_policy@@QEBAXQEBQ6AXXZ@Z 000000018008e310 f i libucrtd:onexit.obj
 0001:0008d480       ??$__crt_fast_decode_pointer@P6AXXZ@@YAP6AXXZQ6AXXZ@Z 000000018008e480 f i libucrtd:onexit.obj
 0001:0008d4c0       ??$__crt_fast_decode_pointer@PEAP6AXXZ@@YAPEAP6AXXZQEAP6AXXZ@Z 000000018008e4c0 f i libucrtd:onexit.obj
 0001:0008d500       ??$__crt_fast_encode_pointer@P6AHXZ@@YAP6AHXZQ6AHXZ@Z 000000018008e500 f i libucrtd:onexit.obj
 0001:0008d540       ??$__crt_fast_encode_pointer@P6AXXZ@@YAP6AXXZQ6AXXZ@Z 000000018008e540 f i libucrtd:onexit.obj
 0001:0008d580       ??$__crt_fast_encode_pointer@PEAP6AXXZ@@YAPEAP6AXXZQEAP6AXXZ@Z 000000018008e580 f i libucrtd:onexit.obj
 0001:0008d690       ??0?$__crt_unique_heap_ptr@P6AXXZU__crt_internal_free_policy@@@@QEAA@QEAP6AXXZ@Z 000000018008e690 f i libucrtd:onexit.obj
 0001:0008d6b0       ??1?$__crt_unique_heap_ptr@P6AXXZU__crt_internal_free_policy@@@@QEAA@XZ 000000018008e6b0 f i libucrtd:onexit.obj
 0001:0008d6d0       ??1scoped_global_state_reset@__crt_state_management@@QEAA@XZ 000000018008e6d0 f i libucrtd:onexit.obj
 0001:0008dca0       ?detach@?$__crt_unique_heap_ptr@P6AXXZU__crt_internal_free_policy@@@@QEAAPEAP6AXXZXZ 000000018008eca0 f i libucrtd:onexit.obj
 0001:0008dcd0       ?release@?$__crt_unique_heap_ptr@P6AXXZU__crt_internal_free_policy@@@@QEAAXXZ 000000018008ecd0 f i libucrtd:onexit.obj
 0001:0008dd00       _crt_at_quick_exit         000000018008ed00 f   libucrtd:onexit.obj
 0001:0008dd20       _crt_atexit                000000018008ed20 f   libucrtd:onexit.obj
 0001:0008dd40       _execute_onexit_table      000000018008ed40 f   libucrtd:onexit.obj
 0001:0008dd80       _initialize_onexit_table   000000018008ed80 f   libucrtd:onexit.obj
 0001:0008de00       _register_onexit_function  000000018008ee00 f   libucrtd:onexit.obj
 0001:0008e070       ??$?BX@__crt_fast_encoded_nullptr_t@@QEBAPEAXXZ 000000018008f070 f i libucrtd:initialization.obj
 0001:0008e090       ??$__crt_fast_encode_pointer@PEAX@@YAPEAXQEAX@Z 000000018008f090 f i libucrtd:initialization.obj
 0001:0008e180       ?initialize@?$dual_state_global@PEAU__crt_locale_data@@@__crt_state_management@@QEAAXQEAU__crt_locale_data@@@Z 000000018008f180 f i libucrtd:initialization.obj
 0001:0008e1d0       __acrt_initialize          000000018008f1d0 f   libucrtd:initialization.obj
 0001:0008e200       __acrt_thread_attach       000000018008f200 f   libucrtd:initialization.obj
 0001:0008e220       __acrt_thread_detach       000000018008f220 f   libucrtd:initialization.obj
 0001:0008e230       __acrt_uninitialize        000000018008f230 f   libucrtd:initialization.obj
 0001:0008e260       __acrt_uninitialize_critical 000000018008f260 f   libucrtd:initialization.obj
 0001:00090250       _CrtCheckMemory            0000000180091250 f   libucrtd:debug_heap.obj
 0001:000903e0       _CrtDoForAllClientObjects  00000001800913e0 f   libucrtd:debug_heap.obj
 0001:00090510       _CrtDumpMemoryLeaks        0000000180091510 f   libucrtd:debug_heap.obj
 0001:000905d0       _CrtGetAllocHook           00000001800915d0 f   libucrtd:debug_heap.obj
 0001:000905e0       _CrtGetDumpClient          00000001800915e0 f   libucrtd:debug_heap.obj
 0001:000905f0       _CrtIsMemoryBlock          00000001800915f0 f   libucrtd:debug_heap.obj
 0001:00090730       _CrtIsValidHeapPointer     0000000180091730 f   libucrtd:debug_heap.obj
 0001:00090770       _CrtIsValidPointer         0000000180091770 f   libucrtd:debug_heap.obj
 0001:000907b0       _CrtMemCheckpoint          00000001800917b0 f   libucrtd:debug_heap.obj
 0001:00090a30       _CrtMemDifference          0000000180091a30 f   libucrtd:debug_heap.obj
 0001:00090d90       _CrtMemDumpAllObjectsSince 0000000180091d90 f   libucrtd:debug_heap.obj
 0001:00090df0       _CrtMemDumpStatistics      0000000180091df0 f   libucrtd:debug_heap.obj
 0001:00090f90       _CrtReportBlockType        0000000180091f90 f   libucrtd:debug_heap.obj
 0001:00090fc0       _CrtSetAllocHook           0000000180091fc0 f   libucrtd:debug_heap.obj
 0001:00090ff0       _CrtSetBreakAlloc          0000000180091ff0 f   libucrtd:debug_heap.obj
 0001:00091020       _CrtSetDbgBlockType        0000000180092020 f   libucrtd:debug_heap.obj
 0001:000910c0       _CrtSetDbgFlag             00000001800920c0 f   libucrtd:debug_heap.obj
 0001:00091220       _CrtSetDumpClient          0000000180092220 f   libucrtd:debug_heap.obj
 0001:00091250       __acrt_get_locale_data_prefix 0000000180092250 f i libucrtd:debug_heap.obj
 0001:00091270       __p__crtBreakAlloc         0000000180092270 f   libucrtd:debug_heap.obj
 0001:00091280       __p__crtDbgFlag            0000000180092280 f   libucrtd:debug_heap.obj
 0001:00091290       _aligned_free_dbg          0000000180092290 f   libucrtd:debug_heap.obj
 0001:00091380       _aligned_malloc_dbg        0000000180092380 f   libucrtd:debug_heap.obj
 0001:000913c0       _aligned_msize_dbg         00000001800923c0 f   libucrtd:debug_heap.obj
 0001:00091590       _aligned_offset_malloc_dbg 0000000180092590 f   libucrtd:debug_heap.obj
 0001:00091880       _aligned_offset_realloc_dbg 0000000180092880 f   libucrtd:debug_heap.obj
 0001:00091d30       _aligned_offset_recalloc_dbg 0000000180092d30 f   libucrtd:debug_heap.obj
 0001:00091e50       _aligned_realloc_dbg       0000000180092e50 f   libucrtd:debug_heap.obj
 0001:00091ea0       _aligned_recalloc_dbg      0000000180092ea0 f   libucrtd:debug_heap.obj
 0001:00091f00       _calloc_dbg                0000000180092f00 f   libucrtd:debug_heap.obj
 0001:00091fa0       _chvalidchk_l              0000000180092fa0 f i libucrtd:debug_heap.obj
 0001:00091fd0       _expand_dbg                0000000180092fd0 f   libucrtd:debug_heap.obj
 0001:00092100       _free_dbg                  0000000180093100 f   libucrtd:debug_heap.obj
 0001:00092170       _ischartype_l              0000000180093170 f i libucrtd:debug_heap.obj
 0001:00092200       _malloc_dbg                0000000180093200 f   libucrtd:debug_heap.obj
 0001:00092240       _msize_dbg                 0000000180093240 f   libucrtd:debug_heap.obj
 0001:000923e0       _realloc_dbg               00000001800933e0 f   libucrtd:debug_heap.obj
 0001:00092450       _recalloc_dbg              0000000180093450 f   libucrtd:debug_heap.obj
 0001:00092550       _initterm                  0000000180093550 f   libucrtd:initterm.obj
 0001:000925b0       _initterm_e                00000001800935b0 f   libucrtd:initterm.obj
 0001:00092b00       strcpy_s                   0000000180093b00 f   libucrtd:strcpy_s.obj
 0001:000931a0       strcat_s                   00000001800941a0 f   libucrtd:strcat_s.obj
 0001:000931d0       ??$?B$$A6AH_K@Z@__crt_fast_encoded_nullptr_t@@QEBAP6AH_K@ZXZ 00000001800941d0 f i libucrtd:new_handler.obj
 0001:000931f0       ??$__crt_fast_decode_pointer@P6AH_K@Z@@YAP6AH_K@ZQ6AH0@Z@Z 00000001800941f0 f i libucrtd:new_handler.obj
 0001:00093230       ??$__crt_fast_encode_pointer@P6AH_K@Z@@YAP6AH_K@ZQ6AH0@Z@Z 0000000180094230 f i libucrtd:new_handler.obj
 0001:00093270       ?_set_new_handler@@YAP6AH_K@ZH@Z 0000000180094270 f   libucrtd:new_handler.obj
 0001:000932e0       ?initialize@?$dual_state_global@P6AH_K@Z@__crt_state_management@@QEAAXQ6AH_K@Z@Z 00000001800942e0 f i libucrtd:new_handler.obj
 0001:00093330       ?value@?$dual_state_global@P6AH_K@Z@__crt_state_management@@QEAAAEAP6AH_K@ZXZ 0000000180094330 f i libucrtd:new_handler.obj
 0001:00093350       __acrt_initialize_new_handler 0000000180094350 f   libucrtd:new_handler.obj
 0001:00093370       _callnewh                  0000000180094370 f   libucrtd:new_handler.obj
 0001:000933c0       _query_new_handler         00000001800943c0 f   libucrtd:new_handler.obj
 0001:00093400       _set_new_handler           0000000180094400 f   libucrtd:new_handler.obj
 0001:000934b0       _get_terminate             00000001800944b0 f   libucrtd:terminate.obj
 0001:000934d0       set_terminate              00000001800944d0 f   libucrtd:terminate.obj
 0001:00093510       terminate                  0000000180094510 f   libucrtd:terminate.obj
 0001:00094310       _makepath                  0000000180095310 f   libucrtd:makepath.obj
 0001:00094360       _makepath_s                0000000180095360 f   libucrtd:makepath.obj
 0001:000943b0       _wmakepath                 00000001800953b0 f   libucrtd:makepath.obj
 0001:00094400       _wmakepath_s               0000000180095400 f   libucrtd:makepath.obj
 0001:00096a30       ??$tcsncpy_s@AEAPEAD_KAEAPEBDAEB_K@?$__crt_char_traits@D@@SAHAEAPEAD$$QEA_KAEAPEBDAEB_K@Z 0000000180097a30 f i libucrtd:splitpath.obj
 0001:00096a80       ??$tcsncpy_s@AEAPEAD_KAEAPEBDH@?$__crt_char_traits@D@@SAHAEAPEAD$$QEA_KAEAPEBD$$QEAH@Z 0000000180097a80 f i libucrtd:splitpath.obj
 0001:00096ad0       ??$tcsncpy_s@AEAPEA_W_KAEAPEB_WAEB_K@?$__crt_char_traits@_W@@SAHAEAPEA_W$$QEA_KAEAPEB_WAEB_K@Z 0000000180097ad0 f i libucrtd:splitpath.obj
 0001:00096b20       ??$tcsncpy_s@AEAPEA_W_KAEAPEB_WH@?$__crt_char_traits@_W@@SAHAEAPEA_W$$QEA_KAEAPEB_W$$QEAH@Z 0000000180097b20 f i libucrtd:splitpath.obj
 0001:00096dd0       _splitpath                 0000000180097dd0 f   libucrtd:splitpath.obj
 0001:00096e10       _splitpath_s               0000000180097e10 f   libucrtd:splitpath.obj
 0001:00096eb0       _wsplitpath                0000000180097eb0 f   libucrtd:splitpath.obj
 0001:00096ef0       _wsplitpath_s              0000000180097ef0 f   libucrtd:splitpath.obj
 0001:00096f90       _set_abort_behavior        0000000180097f90 f   libucrtd:abort.obj
 0001:00096fd0       abort                      0000000180097fd0 f   libucrtd:abort.obj
 0001:00097060       strcmp                     0000000180098060 f   libucrtd:strcmp.obj
 0001:000970e0       strlen                     00000001800980e0 f   libucrtd:strlen.obj
 0001:00097190       ??$is_overflow_condition@K@__crt_strtox@@YA_NIK@Z 0000000180098190 f i libucrtd:atox.obj
 0001:00097200       ??$is_overflow_condition@_K@__crt_strtox@@YA_NI_K@Z 0000000180098200 f i libucrtd:atox.obj
 0001:00097270       ??$make_c_string_character_source@D$$T@__crt_strtox@@YA?AV?$c_string_character_source@D@0@QEBD$$T@Z 0000000180098270 f i libucrtd:atox.obj
 0001:000972b0       ??$make_c_string_character_source@_W$$T@__crt_strtox@@YA?AV?$c_string_character_source@_W@0@QEB_W$$T@Z 00000001800982b0 f i libucrtd:atox.obj
 0001:000972f0       ??$parse_integer@KV?$c_string_character_source@D@__crt_strtox@@@__crt_strtox@@YAKQEAU__crt_locale_pointers@@V?$c_string_character_source@D@0@H_N@Z 00000001800982f0 f i libucrtd:atox.obj
 0001:00097780       ??$parse_integer@KV?$c_string_character_source@_W@__crt_strtox@@@__crt_strtox@@YAKQEAU__crt_locale_pointers@@V?$c_string_character_source@_W@0@H_N@Z 0000000180098780 f i libucrtd:atox.obj
 0001:00097c30       ??$parse_integer@_KV?$c_string_character_source@D@__crt_strtox@@@__crt_strtox@@YA_KQEAU__crt_locale_pointers@@V?$c_string_character_source@D@0@H_N@Z 0000000180098c30 f i libucrtd:atox.obj
 0001:00098150       ??$parse_integer@_KV?$c_string_character_source@_W@__crt_strtox@@@__crt_strtox@@YA_KQEAU__crt_locale_pointers@@V?$c_string_character_source@_W@0@H_N@Z 0000000180099150 f i libucrtd:atox.obj
 0001:00098670       ??$parse_integer_from_string@JD$$T@__crt_strtox@@YAJQEBD$$THQEAU__crt_locale_pointers@@@Z 0000000180099670 f i libucrtd:atox.obj
 0001:000986c0       ??$parse_integer_from_string@J_W$$T@__crt_strtox@@YAJQEB_W$$THQEAU__crt_locale_pointers@@@Z 00000001800996c0 f i libucrtd:atox.obj
 0001:00098710       ??$parse_integer_from_string@_JD$$T@__crt_strtox@@YA_JQEBD$$THQEAU__crt_locale_pointers@@@Z 0000000180099710 f i libucrtd:atox.obj
 0001:00098760       ??$parse_integer_from_string@_J_W$$T@__crt_strtox@@YA_JQEB_W$$THQEAU__crt_locale_pointers@@@Z 0000000180099760 f i libucrtd:atox.obj
 0001:000987b0       ??0?$c_string_character_source@D@__crt_strtox@@QEAA@QEBDQEAPEBD@Z 00000001800997b0 f i libucrtd:atox.obj
 0001:00098800       ??0?$c_string_character_source@_W@__crt_strtox@@QEAA@QEB_WQEAPEB_W@Z 0000000180099800 f i libucrtd:atox.obj
 0001:00098850       ??1?$c_string_character_source@D@__crt_strtox@@QEAA@XZ 0000000180099850 f i libucrtd:atox.obj
 0001:00098880       ??1?$c_string_character_source@_W@__crt_strtox@@QEAA@XZ 0000000180099880 f i libucrtd:atox.obj
 0001:000988b0       ?get@?$c_string_character_source@D@__crt_strtox@@QEAADXZ 00000001800998b0 f i libucrtd:atox.obj
 0001:000988f0       ?get@?$c_string_character_source@_W@__crt_strtox@@QEAA_WXZ 00000001800998f0 f i libucrtd:atox.obj
 0001:00098930       ?is_space@__crt_strtox@@YA_NDQEAU__crt_locale_pointers@@@Z 0000000180099930 f i libucrtd:atox.obj
 0001:00098980       ?is_space@__crt_strtox@@YA_N_WPEAU__crt_locale_pointers@@@Z 0000000180099980 f i libucrtd:atox.obj
 0001:000989c0       ?maximum_signed_value@__crt_strtox@@YAJK@Z 00000001800999c0 f i libucrtd:atox.obj
 0001:000989d0       ?maximum_signed_value@__crt_strtox@@YA_J_K@Z 00000001800999d0 f i libucrtd:atox.obj
 0001:000989e0       ?minimum_signed_value@__crt_strtox@@YAJK@Z 00000001800999e0 f i libucrtd:atox.obj
 0001:000989f0       ?minimum_signed_value@__crt_strtox@@YA_J_K@Z 00000001800999f0 f i libucrtd:atox.obj
 0001:00098a00       ?parse_digit@__crt_strtox@@YAID@Z 0000000180099a00 f i libucrtd:atox.obj
 0001:00098a70       ?parse_digit@__crt_strtox@@YAI_W@Z 0000000180099a70 f i libucrtd:atox.obj
 0001:00098ac0       ?restore_state@?$c_string_character_source@D@__crt_strtox@@QEAA_NQEBD@Z 0000000180099ac0 f i libucrtd:atox.obj
 0001:00098ae0       ?restore_state@?$c_string_character_source@_W@__crt_strtox@@QEAA_NQEB_W@Z 0000000180099ae0 f i libucrtd:atox.obj
 0001:00098b00       ?save_state@?$c_string_character_source@D@__crt_strtox@@QEBAPEBDXZ 0000000180099b00 f i libucrtd:atox.obj
 0001:00098b10       ?save_state@?$c_string_character_source@_W@__crt_strtox@@QEBAPEB_WXZ 0000000180099b10 f i libucrtd:atox.obj
 0001:00098b20       ?unget@?$c_string_character_source@D@__crt_strtox@@QEAAXD@Z 0000000180099b20 f i libucrtd:atox.obj
 0001:00098c00       ?unget@?$c_string_character_source@_W@__crt_strtox@@QEAAX_W@Z 0000000180099c00 f i libucrtd:atox.obj
 0001:00098ce0       ?validate@?$c_string_character_source@D@__crt_strtox@@QEBA_NXZ 0000000180099ce0 f i libucrtd:atox.obj
 0001:00098da0       ?validate@?$c_string_character_source@_W@__crt_strtox@@QEBA_NXZ 0000000180099da0 f i libucrtd:atox.obj
 0001:00098e60       ?wide_character_to_digit@__crt_strtox@@YAH_W@Z 0000000180099e60 f i libucrtd:atox.obj
 0001:000991d0       __ascii_iswalpha           000000018009a1d0 f i libucrtd:atox.obj
 0001:00099210       __ascii_toupper            000000018009a210 f i libucrtd:atox.obj
 0001:00099230       __ascii_towupper           000000018009a230 f i libucrtd:atox.obj
 0001:00099250       _atoi64                    000000018009a250 f   libucrtd:atox.obj
 0001:00099280       _atoi64_l                  000000018009a280 f   libucrtd:atox.obj
 0001:000992b0       _atoi_l                    000000018009a2b0 f   libucrtd:atox.obj
 0001:000992e0       _atol_l                    000000018009a2e0 f   libucrtd:atox.obj
 0001:00099310       _atoll_l                   000000018009a310 f   libucrtd:atox.obj
 0001:00099340       _wtoi                      000000018009a340 f   libucrtd:atox.obj
 0001:00099370       _wtoi64                    000000018009a370 f   libucrtd:atox.obj
