 OPOSCashChanger

 Timestamp is 5ed45750 (Mon Jun  1 10:18:08 2020)

 Preferred load address is 0000000180000000

 Start         Length     Name                   Class
 0001:00000000 00001400H .text$di                CODE
 0001:00001400 000d5870H .text$mn                CODE
 0001:000d6c70 00000040H .text$mn$00             CODE
 0001:000d6cb0 00001390H .text$x                 CODE
 0001:000d8040 000001b4H .text$yd                CODE
 0002:00000000 000006d8H .idata$5                DATA
 0002:000006d8 00000028H .00cfg                  DATA
 0002:00000700 00000008H .CRT$XCA                DATA
 0002:00000708 00000008H .CRT$XCL                DATA
 0002:00000710 000000d8H .CRT$XCU                DATA
 0002:000007e8 00000008H .CRT$XCZ                DATA
 0002:000007f0 00000008H .CRT$XIA                DATA
 0002:000007f8 00000028H .CRT$XIC                DATA
 0002:00000820 00000008H .CRT$XIZ                DATA
 0002:00000828 00000008H .CRT$XLA                DATA
 0002:00000830 00000008H .CRT$XLZ                DATA
 0002:00000838 00000008H .CRT$XPA                DATA
 0002:00000840 00000010H .CRT$XPX                DATA
 0002:00000850 00000008H .CRT$XPXA               DATA
 0002:00000858 00000008H .CRT$XPZ                DATA
 0002:00000860 00000008H .CRT$XTA                DATA
 0002:00000868 00000008H .CRT$XTZ                DATA
 0002:00000870 00000000H .gfids$y                DATA
 0002:00000870 0003bed0H .rdata                  DATA
 0002:0003c740 00000028H .rdata$T                DATA
 0002:0003c768 0000056cH .rdata$r                DATA
 0002:0003ccd4 00000434H .rdata$zzzdbg           DATA
 0002:0003d108 00000008H .rtc$IAA                DATA
 0002:0003d110 00000030H .rtc$IMZ                DATA
 0002:0003d140 00000008H .rtc$IZZ                DATA
 0002:0003d148 00000008H .rtc$TAA                DATA
 0002:0003d150 00000030H .rtc$TMZ                DATA
 0002:0003d180 00000008H .rtc$TZZ                DATA
 0002:0003d188 00000004H .tls                    DATA
 0002:0003d18c 00000004H .tls$                   DATA
 0002:0003d190 00000010H .tls$ZZZ                DATA
 0002:0003d1a0 000098b8H .xdata                  DATA
 0002:00046a58 00000150H .xdata$x                DATA
 0002:00046ba8 00000008H ATL$__a                 DATA
 0002:00046bb0 00000010H ATL$__z                 DATA
 0002:00046bc0 000000acH .edata                  DATA
 0002:00046c6c 00000078H .idata$2                DATA
 0002:00046ce4 00000014H .idata$3                DATA
 0002:00046cf8 000006d8H .idata$4                DATA
 0002:000473d0 00000dbeH .idata$6                DATA
 0003:00000000 00000f08H .data                   DATA
 0003:00000f08 00000198H .data$r                 DATA
 0003:000010a0 00003e9cH .bss                    DATA
 0004:00000000 0000c2c4H .pdata                  DATA
 0005:00000000 00000094H _RDATA                  DATA
 0006:00000000 00000220H .rsrc$01                DATA
 0006:00000220 00004ea8H .rsrc$02                DATA

  Address         Publics by Value              Rva+Base               Lib:Object

 0000:00000000       __guard_eh_cont_count      0000000000000000     <absolute>
 0000:00000000       __hybrid_code_map          0000000000000000     <absolute>
 0000:00000000       __guard_longjmp_table      0000000000000000     <absolute>
 0000:00000000       __guard_fids_table         0000000000000000     <absolute>
 0000:00000000       ___safe_se_handler_count   0000000000000000     <absolute>
 0000:00000000       __x64_code_ranges_to_entry_points 0000000000000000     <absolute>
 0000:00000000       __guard_iat_count          0000000000000000     <absolute>
 0000:00000000       __guard_eh_cont_table      0000000000000000     <absolute>
 0000:00000000       __hybrid_auxiliary_iat     0000000000000000     <absolute>
 0000:00000000       __volatile_metadata        0000000000000000     <absolute>
 0000:00000000       ___safe_se_handler_table   0000000000000000     <absolute>
 0000:00000000       __enclave_config           0000000000000000     <absolute>
 0000:00000000       __hybrid_code_map_count    0000000000000000     <absolute>
 0000:00000000       __arm64x_redirection_metadata 0000000000000000     <absolute>
 0000:00000000       __guard_longjmp_count      0000000000000000     <absolute>
 0000:00000000       __dynamic_value_reloc_table 0000000000000000     <absolute>
 0000:00000000       __AbsoluteZero             0000000000000000     <absolute>
 0000:00000000       __guard_iat_table          0000000000000000     <absolute>
 0000:00000000       __arm64x_native_entrypoint 0000000000000000     <absolute>
 0000:00000000       __guard_fids_count         0000000000000000     <absolute>
 0000:00000100       __guard_flags              0000000000000100     <absolute>
 0000:00000000       __ImageBase                0000000180000000     <linker-defined>
 0001:00001400       ?_assert@@YAXPEB_W0I@Z     0000000180002400 f   Assert.obj
 0001:00001500       __local_stdio_printf_options 0000000180002500 f i Assert.obj
 0001:00001510       __vswprintf_l              0000000180002510 f i Assert.obj
 0001:00001570       _swprintf                  0000000180002570 f i Assert.obj
 0001:000015f0       _vswprintf_c_l             00000001800025f0 f i Assert.obj
 0001:00001680       _vswprintf_l               0000000180002680 f i Assert.obj
 0001:000016e0       ?cw_memcpy@@YAHPEADPEB_WH@Z 00000001800026e0 f   CWString.obj
 0001:00001770       ?cw_memcpy@@YAHPEA_WPEBDH@Z 0000000180002770 f   CWString.obj
 0001:000017f0       ?cw_memcpy@@YAHPEADPEBDH@Z 00000001800027f0 f   CWString.obj
 0001:00001890       ?cw_memcpy@@YAHPEA_WPEB_WH@Z 0000000180002890 f   CWString.obj
 0001:00001900       ?cw_memset@@YAXPEADDH@Z    0000000180002900 f   CWString.obj
 0001:00001970       ?cw_memset@@YAXPEA_W_WH@Z  0000000180002970 f   CWString.obj
 0001:00001a10       ?cw_strlen@@YAHPEBD@Z      0000000180002a10 f   CWString.obj
 0001:00001a80       ?cw_strlen@@YAHPEB_W@Z     0000000180002a80 f   CWString.obj
 0001:00001af0       ?cw_strcpy@@YAHPEADPEB_W@Z 0000000180002af0 f   CWString.obj
 0001:00001b40       ?cw_strcpy@@YAHPEA_WPEBD@Z 0000000180002b40 f   CWString.obj
 0001:00001b90       ?cw_strcpy@@YAHPEADPEBD@Z  0000000180002b90 f   CWString.obj
 0001:00001be0       ?cw_strcpy@@YAHPEA_WPEB_W@Z 0000000180002be0 f   CWString.obj
 0001:00001c30       ?cw_strcat@@YAHPEADPEB_W@Z 0000000180002c30 f   CWString.obj
 0001:00001c90       ?cw_strcat@@YAHPEA_WPEBD@Z 0000000180002c90 f   CWString.obj
 0001:00001cf0       ?cw_strcat@@YAHPEADPEBD@Z  0000000180002cf0 f   CWString.obj
 0001:00001d50       ?cw_strcat@@YAHPEA_WPEB_W@Z 0000000180002d50 f   CWString.obj
 0001:00001db0       ?cw_dup@@YAXPEBDAEAHAEAPEA_W1@Z 0000000180002db0 f   CWString.obj
 0001:00001ec0       ?cw_dup@@YAXPEB_WAEAHAEAPEAD1@Z 0000000180002ec0 f   CWString.obj
 0001:00001fb0       ?DupChar@_CW@@AEAAXXZ      0000000180002fb0 f   CWString.obj
 0001:00002010       ?DupWide@_CW@@AEAAXXZ      0000000180003010 f   CWString.obj
 0001:00002080       ?GetCharsMbcs@_CW@@QEAAHXZ 0000000180003080 f   CWString.obj
 0001:000020f0       ?GetCharsWide@_CW@@QEAAHXZ 00000001800030f0 f   CWString.obj
 0001:00002160       ?SetVARIANT_BOOL@OposVariant@@QEAAXF@Z 0000000180003160 f   OposVariant.obj
 0001:000021d0       ?SetVARIANT_BOOL_Ptr@OposVariant@@QEAAXPEAFAEAJ@Z 00000001800031d0 f   OposVariant.obj
 0001:00002240       ?GetLONG@OposVariant@@QEAAJXZ 0000000180003240 f   OposVariant.obj
 0001:000022a0       ?ChangeLONG@OposVariant@@QEAAXPEAJAEAJ@Z 00000001800032a0 f   OposVariant.obj
 0001:00002350       ?SetLONG@OposVariant@@QEAAXJ@Z 0000000180003350 f   OposVariant.obj
 0001:000023b0       ?SetLONG_Ptr@OposVariant@@QEAAXPEAJAEAJ@Z 00000001800033b0 f   OposVariant.obj
 0001:00002420       ?ChangeCURRENCY@OposVariant@@QEAAXPEATtagCY@@AEAJ@Z 0000000180003420 f   OposVariant.obj
 0001:000024d0       ?SetCURRENCY@OposVariant@@QEAAXTtagCY@@@Z 00000001800034d0 f   OposVariant.obj
 0001:00002530       ?SetCURRENCY_Ptr@OposVariant@@QEAAXPEATtagCY@@AEAJ@Z 0000000180003530 f   OposVariant.obj
 0001:000025a0       ?ChangeBSTR@OposVariant@@QEAAXPEAPEA_WAEAJ@Z 00000001800035a0 f   OposVariant.obj
 0001:00002650       ?SetBSTR@OposVariant@@QEAAXPEA_WAEAJ@Z 0000000180003650 f   OposVariant.obj
 0001:000026d0       ?SetBSTR_Copy@OposVariant@@QEAAXPEA_WAEAJ@Z 00000001800036d0 f   OposVariant.obj
 0001:00002780       ?SetBSTR_OutPtr@OposVariant@@QEAA_NPEAPEA_WAEAJ@Z 0000000180003780 f   OposVariant.obj
 0001:000027f0       ?SetBSTR_InOutPtr@OposVariant@@QEAA_NPEAPEA_WAEAJ@Z 00000001800037f0 f   OposVariant.obj
 0001:00002870       ?SetVARIANT@OposVariant@@QEAAXAEAUtagVARIANT@@GAEAJ@Z 0000000180003870 f   OposVariant.obj
 0001:00002910       ?SetVARIANT_Ptr@OposVariant@@QEAAXAEAPEAUtagVARIANT@@GAEAJ@Z 0000000180003910 f   OposVariant.obj
 0001:000029c0       ?SetString@OposVariant@@QEAAXPEB_WAEAJ@Z 00000001800039c0 f   OposVariant.obj
 0001:00002a70       ?SetDispatch_Ptr@OposVariant@@QEAAXPEAUIDispatch@@AEAJ@Z 0000000180003a70 f   OposVariant.obj
 0001:00002b00       ??0OposDispParms@@QEAA@PEAVOposVariant@@H@Z 0000000180003b00 f   OposVariant.obj
 0001:00002c10       ??1OposDispParms@@QEAA@XZ  0000000180003c10 f   OposVariant.obj
 0001:00002c60       ??$AtlMultiply@_K@ATL@@YAJPEA_K_K1@Z 0000000180003c60 f i OposVariant.obj
 0001:00002ce0       ??0?$CHeapPtr@_WVCCRTAllocator@ATL@@@ATL@@QEAA@XZ 0000000180003ce0 f i OposVariant.obj
 0001:00002d20       ??0?$CHeapPtrBase@_WVCCRTAllocator@ATL@@@ATL@@IEAA@XZ 0000000180003d20 f i OposVariant.obj
 0001:00002d40       ??0?$CSimpleArray@GV?$CSimpleArrayEqualHelper@G@ATL@@@ATL@@QEAA@XZ 0000000180003d40 f i OposVariant.obj
 0001:00002d80       ??0?$CTraceCategoryEx@$00$0A@@ATL@@QEAA@PEB_W@Z 0000000180003d80 f i OposVariant.obj
 0001:00002dc0       ??0?$CTraceCategoryEx@$01$0A@@ATL@@QEAA@PEB_W@Z 0000000180003dc0 f i OposVariant.obj
 0001:00002e00       ??0?$CTraceCategoryEx@$03$0A@@ATL@@QEAA@PEB_W@Z 0000000180003e00 f i OposVariant.obj
 0001:00002e40       ??0?$CTraceCategoryEx@$07$0A@@ATL@@QEAA@PEB_W@Z 0000000180003e40 f i OposVariant.obj
 0001:00002e80       ??0?$CTraceCategoryEx@$0BA@$0A@@ATL@@QEAA@PEB_W@Z 0000000180003e80 f i OposVariant.obj
 0001:00002ec0       ??0?$CTraceCategoryEx@$0BAA@$0A@@ATL@@QEAA@PEB_W@Z 0000000180003ec0 f i OposVariant.obj
 0001:00002f00       ??0?$CTraceCategoryEx@$0BAAA@$0A@@ATL@@QEAA@PEB_W@Z 0000000180003f00 f i OposVariant.obj
 0001:00002f40       ??0?$CTraceCategoryEx@$0BAAAA@$0A@@ATL@@QEAA@PEB_W@Z 0000000180003f40 f i OposVariant.obj
 0001:00002f80       ??0?$CTraceCategoryEx@$0BAAAAA@$0A@@ATL@@QEAA@PEB_W@Z 0000000180003f80 f i OposVariant.obj
 0001:00002fc0       ??0?$CTraceCategoryEx@$0CA@$0A@@ATL@@QEAA@PEB_W@Z 0000000180003fc0 f i OposVariant.obj
 0001:00003000       ??0?$CTraceCategoryEx@$0CAA@$0A@@ATL@@QEAA@PEB_W@Z 0000000180004000 f i OposVariant.obj
 0001:00003040       ??0?$CTraceCategoryEx@$0CAAA@$0A@@ATL@@QEAA@PEB_W@Z 0000000180004040 f i OposVariant.obj
 0001:00003080       ??0?$CTraceCategoryEx@$0CAAAA@$0A@@ATL@@QEAA@PEB_W@Z 0000000180004080 f i OposVariant.obj
 0001:000030c0       ??0?$CTraceCategoryEx@$0CAAAAA@$0A@@ATL@@QEAA@PEB_W@Z 00000001800040c0 f i OposVariant.obj
 0001:00003100       ??0?$CTraceCategoryEx@$0EA@$0A@@ATL@@QEAA@PEB_W@Z 0000000180004100 f i OposVariant.obj
 0001:00003140       ??0?$CTraceCategoryEx@$0EAA@$0A@@ATL@@QEAA@PEB_W@Z 0000000180004140 f i OposVariant.obj
 0001:00003180       ??0?$CTraceCategoryEx@$0EAAA@$0A@@ATL@@QEAA@PEB_W@Z 0000000180004180 f i OposVariant.obj
 0001:000031c0       ??0?$CTraceCategoryEx@$0EAAAA@$0A@@ATL@@QEAA@PEB_W@Z 00000001800041c0 f i OposVariant.obj
 0001:00003200       ??0?$CTraceCategoryEx@$0EAAAAA@$0A@@ATL@@QEAA@PEB_W@Z 0000000180004200 f i OposVariant.obj
 0001:00003240       ??0?$CTraceCategoryEx@$0IA@$0A@@ATL@@QEAA@PEB_W@Z 0000000180004240 f i OposVariant.obj
 0001:00003280       ??0?$CTraceCategoryEx@$0IAA@$0A@@ATL@@QEAA@PEB_W@Z 0000000180004280 f i OposVariant.obj
 0001:000032c0       ??0?$CTraceCategoryEx@$0IAAA@$0A@@ATL@@QEAA@PEB_W@Z 00000001800042c0 f i OposVariant.obj
 0001:00003300       ??0?$CTraceCategoryEx@$0IAAAA@$0A@@ATL@@QEAA@PEB_W@Z 0000000180004300 f i OposVariant.obj
 0001:00003340       ??0CAtlComModule@ATL@@QEAA@XZ 0000000180004340 f i OposVariant.obj
 0001:00003460       ??0CAtlWinModule@ATL@@QEAA@XZ 0000000180004460 f i OposVariant.obj
 0001:00003510       ??0CComCriticalSection@ATL@@QEAA@XZ 0000000180004510 f i OposVariant.obj
 0001:00003550       ??0CPreserveLastError@ATL@@QEAA@XZ 0000000180004550 f i OposVariant.obj
 0001:00003590       ??0CTraceFileAndLineInfo@ATL@@QEAA@PEBDH@Z 0000000180004590 f i OposVariant.obj
 0001:000035c0       ??0_ATL_COM_MODULE70@ATL@@QEAA@XZ 00000001800045c0 f i OposVariant.obj
 0001:00003600       ??0_ATL_WIN_MODULE70@ATL@@QEAA@XZ 0000000180004600 f i OposVariant.obj
 0001:00003650       ??1?$CHeapPtr@_WVCCRTAllocator@ATL@@@ATL@@QEAA@XZ 0000000180004650 f i OposVariant.obj
 0001:00003680       ??1?$CHeapPtrBase@_WVCCRTAllocator@ATL@@@ATL@@QEAA@XZ 0000000180004680 f i OposVariant.obj
 0001:000036b0       ??1?$CSimpleArray@GV?$CSimpleArrayEqualHelper@G@ATL@@@ATL@@QEAA@XZ 00000001800046b0 f i OposVariant.obj
 0001:000036e0       ??1CAtlComModule@ATL@@QEAA@XZ 00000001800046e0 f i OposVariant.obj
 0001:00003720       ??1CAtlWinModule@ATL@@QEAA@XZ 0000000180004720 f i OposVariant.obj
 0001:00003760       ??1CComBSTR@ATL@@QEAA@XZ   0000000180004760 f i OposVariant.obj
 0001:000037a0       ??1CComCriticalSection@ATL@@QEAA@XZ 00000001800047a0 f i OposVariant.obj
 0001:000037b0       ??1CPreserveLastError@ATL@@QEAA@XZ 00000001800047b0 f i OposVariant.obj
 0001:000037f0       ??1_ATL_COM_MODULE70@ATL@@QEAA@XZ 00000001800047f0 f i OposVariant.obj
 0001:00003830       ??1_ATL_WIN_MODULE70@ATL@@QEAA@XZ 0000000180004830 f i OposVariant.obj
 0001:00003880       ??1stringdispid@CComTypeInfoHolder@ATL@@QEAA@XZ 0000000180004880 f i OposVariant.obj
 0001:000038c0       ??A?$CSimpleArray@GV?$CSimpleArrayEqualHelper@G@ATL@@@ATL@@QEAAAEAGH@Z 00000001800048c0 f i OposVariant.obj
 0001:00003970       ??B?$CHeapPtrBase@_WVCCRTAllocator@ATL@@@ATL@@QEBAPEA_WXZ 0000000180004970 f i OposVariant.obj
 0001:00003980       ??B?$CTraceCategoryEx@$01$0A@@ATL@@QEAAIXZ 0000000180004980 f i OposVariant.obj
 0001:00003990       ??B?$CTraceCategoryEx@$0CA@$0A@@ATL@@QEAAIXZ 0000000180004990 f i OposVariant.obj
 0001:000039a0       ??RCTraceFileAndLineInfo@ATL@@QEBAXHIPEB_WZZ 00000001800049a0 f i OposVariant.obj
 0001:00003a50       ??_Estringdispid@CComTypeInfoHolder@ATL@@QEAAPEAXI@Z 0000000180004a50 f i OposVariant.obj
 0001:00003b00       ??_H@YAXPEAX_K1P6APEAX0@Z@Z 0000000180004b00 f i OposVariant.obj
 0001:00003b90       ??_I@YAXPEAX_K1P6AX0@Z@Z   0000000180004b90 f i OposVariant.obj
 0001:00003c40       ?Allocate@?$CHeapPtr@_WVCCRTAllocator@ATL@@@ATL@@QEAA_N_K@Z 0000000180004c40 f i OposVariant.obj
 0001:00003cc0       ?Allocate@CCRTAllocator@ATL@@SAPEAX_K@Z 0000000180004cc0 f i OposVariant.obj
 0001:00003cf0       ?AllocateBytes@?$CHeapPtrBase@_WVCCRTAllocator@ATL@@@ATL@@QEAA_N_K@Z 0000000180004cf0 f i OposVariant.obj
 0001:00003d90       ?AtlWinModuleInit@ATL@@YAJPEAU_ATL_WIN_MODULE70@1@@Z 0000000180004d90 f i OposVariant.obj
 0001:00003e90       ?AtlWinModuleTerm@ATL@@YAJPEAU_ATL_WIN_MODULE70@1@PEAUHINSTANCE__@@@Z 0000000180004e90 f i OposVariant.obj
 0001:00003f80       ?Clear@OposVariant@@QEAAJXZ 0000000180004f80 f i OposVariant.obj
 0001:00003fc0       ?Free@?$CHeapPtrBase@_WVCCRTAllocator@ATL@@@ATL@@QEAAXXZ 0000000180004fc0 f i OposVariant.obj
 0001:00004000       ?Free@CCRTAllocator@ATL@@SAXPEAX@Z 0000000180005000 f i OposVariant.obj
 0001:00004030       ?GetCategoryName@CTrace@ATL@@CAPEA_WI@Z 0000000180005030 f i OposVariant.obj
 0001:000040b0       ?GetModuleInstance@CAtlBaseModule@ATL@@QEAAPEAUHINSTANCE__@@XZ 00000001800050b0 f i OposVariant.obj
 0001:000040d0       ?GetSize@?$CSimpleArray@GV?$CSimpleArrayEqualHelper@G@ATL@@@ATL@@QEBAHXZ 00000001800050d0 f i OposVariant.obj
 0001:000040e0       ?Init@CComCriticalSection@ATL@@QEAAJXZ 00000001800050e0 f i OposVariant.obj
 0001:00004140       ?RegisterCategory@CTrace@ATL@@SAXPEB_WI@Z 0000000180005140 f i OposVariant.obj
 0001:00004220       ?RemoveAll@?$CSimpleArray@GV?$CSimpleArrayEqualHelper@G@ATL@@@ATL@@QEAAXXZ 0000000180005220 f i OposVariant.obj
 0001:000042b0       ?Term@CAtlComModule@ATL@@QEAAXXZ 00000001800052b0 f i OposVariant.obj
 0001:00004390       ?Term@CAtlWinModule@ATL@@QEAAXXZ 0000000180005390 f i OposVariant.obj
 0001:000043d0       ?Term@CComCriticalSection@ATL@@QEAAJXZ 00000001800053d0 f i OposVariant.obj
 0001:00004410       ?TraceV@CTrace@ATL@@CAXPEBDHIIPEB_W@Z 0000000180005410 f i OposVariant.obj
 0001:000046c0       ?TraceV@CTrace@ATL@@SAXPEBDHIIPEB_WPEAD@Z 00000001800056c0 f i OposVariant.obj
 0001:00004870       ?_AtlInitializeCriticalSectionEx@ATL@@YAHPEAU_RTL_CRITICAL_SECTION@@KK@Z 0000000180005870 f i OposVariant.obj
 0001:000048c0       ?_AtlRaiseException@ATL@@YAXKK@Z 00000001800058c0 f i OposVariant.obj
 0001:00004900       HRESULT_FROM_WIN32         0000000180005900 f i OposVariant.obj
 0001:00004950       _vswprintf_s_l             0000000180005950 f i OposVariant.obj
 0001:000049e0       swprintf_s                 00000001800059e0 f i OposVariant.obj
 0001:00004a70       ?ObjectMain@CComObjectRootBase@ATL@@SAX_N@Z 0000000180005a70 f i CashChanger.obj
 0001:00004a80       ?GetCategoryMap@CComObjectRootBase@ATL@@SAPEBU_ATL_CATMAP_ENTRY@2@XZ 0000000180005a80 f i CashChanger.obj
 0001:00004a90       ?GetObjectDescription@?$CComCoClass@VCOPOSCashChanger@@$1?CLSID_OPOSCashChanger@@3U_GUID@@B@ATL@@SAPEB_WXZ 0000000180005a90 f i CashChanger.obj
 0001:00004aa0       ?UpdateRegistry@COPOSCashChanger@@SAJH@Z 0000000180005aa0 f i CashChanger.obj
 0001:00004ae0       ?CreateInstance@?$CComCreator@V?$CComObjectCached@VCComClassFactory@ATL@@@ATL@@@ATL@@SAJPEAXAEBU_GUID@@PEAPEAX@Z 0000000180005ae0 f i CashChanger.obj
 0001:00004cd0       ?CreateInstance@?$CComCreator2@V?$CComCreator@V?$CComObject@VCOPOSCashChanger@@@ATL@@@ATL@@V?$CComCreator@V?$CComAggObject@VCOPOSCashChanger@@@ATL@@@2@@ATL@@SAJPEAXAEBU_GUID@@PEAPEAX@Z 0000000180005cd0 f i CashChanger.obj
 0001:00004ee0       DllGetClassObject          0000000180005ee0 f   CashChanger.obj
 0001:00004f30       DllCanUnloadNow            0000000180005f30 f   CashChanger.obj
 0001:00004f80       DllRegisterServer          0000000180005f80 f   CashChanger.obj
 0001:00004fc0       DllUnregisterServer        0000000180005fc0 f   CashChanger.obj
 0001:000051c0       DllMain                    00000001800061c0 f   CashChanger.obj
 0001:00005240       ??$?2G@Wrapper@?$CSimpleArray@GV?$CSimpleArrayEqualHelper@G@ATL@@@ATL@@SAPEAX_KPEAG@Z 0000000180006240 f i CashChanger.obj
 0001:00005260       ??$?2PEA_W@?$Wrapper@PEA_W@?$CSimpleMap@PEA_WPEA_WVCExpansionVectorEqualHelper@ATL@@@ATL@@SAPEAX_KPEAPEA_W@Z 0000000180006260 f i CashChanger.obj
 0001:00005280       ??$?4UITypeInfo2@@@?$CComPtr@UITypeInfo@@@ATL@@QEAAPEAUITypeInfo@@AEBV?$CComPtr@UITypeInfo2@@@1@@Z 0000000180006280 f i CashChanger.obj
 0001:000052f0       ??$AtlAdd@_K@ATL@@YAJPEA_K_K1@Z 00000001800062f0 f i CashChanger.obj
 0001:00005360       ??$AtlAddThrow@_K@ATL@@YA_K_K0@Z 0000000180006360 f i CashChanger.obj
 0001:000053d0       ??$AtlModuleRegisterWndClassInfoT@VAtlModuleRegisterWndClassInfoParamW@ATL@@@ATL@@YAGPEAU_ATL_BASE_MODULE70@0@PEAU_ATL_WIN_MODULE70@0@PEAU_ATL_WNDCLASSINFOW@0@PEAP6A_JPEAUHWND__@@I_K_J@ZVAtlModuleRegisterWndClassInfoParamW@0@@Z 00000001800063d0 f i CashChanger.obj
 0001:000059a0       ??$AtlMultiply@H@ATL@@YAJPEAHHH@Z 00000001800069a0 f i CashChanger.obj
 0001:00005a10       ??$AtlMultiply@K@ATL@@YAJPEAKKK@Z 0000000180006a10 f i CashChanger.obj
 0001:00005a80       ??$AtlMultiplyThrow@_K@ATL@@YA_K_K0@Z 0000000180006a80 f i CashChanger.obj
 0001:00005af0       ??$QueryInterface@UIPersistStream@@@IUnknown@@QEAAJPEAPEAUIPersistStream@@@Z 0000000180006af0 f i CashChanger.obj
 0001:00005b40       ??$QueryInterface@UITypeInfo2@@@IUnknown@@QEAAJPEAPEAUITypeInfo2@@@Z 0000000180006b40 f i CashChanger.obj
 0001:00005b90       ??0?$CAtlModuleT@VCComModule@ATL@@@ATL@@QEAA@XZ 0000000180006b90 f i CashChanger.obj
 0001:00005bd0       ??0?$CAtlSafeAllocBufferManager@VCCRTAllocator@ATL@@@_ATL_SAFE_ALLOCA_IMPL@ATL@@QEAA@XZ 0000000180006bd0 f i CashChanger.obj
 0001:00005bf0       ??0?$CAutoVectorPtr@_W@ATL@@QEAA@XZ 0000000180006bf0 f i CashChanger.obj
 0001:00005c10       ??0?$CComAggObject@VCOPOSCashChanger@@@ATL@@QEAA@PEAX@Z 0000000180006c10 f i CashChanger.obj
 0001:00005ca0       ??0?$CComContainedObject@VCOPOSCashChanger@@@ATL@@QEAA@PEAX@Z 0000000180006ca0 f i CashChanger.obj
 0001:00005e40       ??0?$CComCritSecLock@VCComCriticalSection@ATL@@@ATL@@QEAA@AEAVCComCriticalSection@1@_N@Z 0000000180006e40 f i CashChanger.obj
 0001:00005eb0       ??0?$CComEnum@UIEnumConnectionPoints@@$1?_GUID_b196b285_bab4_101a_b69c_00aa00341d07@@3U__s_GUID@@BPEAUIConnectionPoint@@V?$_CopyInterface@UIConnectionPoint@@@ATL@@VCComSingleThreadModel@6@@ATL@@QEAA@XZ 0000000180006eb0 f i CashChanger.obj
 0001:00005f00       ??0?$CComEnum@UIEnumConnections@@$1?_GUID_b196b287_bab4_101a_b69c_00aa00341d07@@3U__s_GUID@@BUtagCONNECTDATA@@V?$_Copy@UtagCONNECTDATA@@@ATL@@VCComSingleThreadModel@6@@ATL@@QEAA@XZ 0000000180006f00 f i CashChanger.obj
 0001:00005f50       ??0?$CComEnumImpl@UIEnumConnectionPoints@@$1?_GUID_b196b285_bab4_101a_b69c_00aa00341d07@@3U__s_GUID@@BPEAUIConnectionPoint@@V?$_CopyInterface@UIConnectionPoint@@@ATL@@@ATL@@QEAA@XZ 0000000180006f50 f i CashChanger.obj
 0001:00005fd0       ??0?$CComEnumImpl@UIEnumConnections@@$1?_GUID_b196b287_bab4_101a_b69c_00aa00341d07@@3U__s_GUID@@BUtagCONNECTDATA@@V?$_Copy@UtagCONNECTDATA@@@ATL@@@ATL@@QEAA@XZ 0000000180006fd0 f i CashChanger.obj
 0001:00006050       ??0?$CComObject@V?$CComEnum@UIEnumConnectionPoints@@$1?_GUID_b196b285_bab4_101a_b69c_00aa00341d07@@3U__s_GUID@@BPEAUIConnectionPoint@@V?$_CopyInterface@UIConnectionPoint@@@ATL@@VCComSingleThreadModel@6@@ATL@@@ATL@@QEAA@PEAX@Z 0000000180007050 f i CashChanger.obj
 0001:000060b0       ??0?$CComObject@V?$CComEnum@UIEnumConnections@@$1?_GUID_b196b287_bab4_101a_b69c_00aa00341d07@@3U__s_GUID@@BUtagCONNECTDATA@@V?$_Copy@UtagCONNECTDATA@@@ATL@@VCComSingleThreadModel@6@@ATL@@@ATL@@QEAA@PEAX@Z 00000001800070b0 f i CashChanger.obj
 0001:00006110       ??0?$CComObject@VCOPOSCashChanger@@@ATL@@QEAA@PEAX@Z 0000000180007110 f i CashChanger.obj
 0001:000062b0       ??0?$CComObjectCached@VCComClassFactory@ATL@@@ATL@@QEAA@PEAX@Z 00000001800072b0 f i CashChanger.obj
 0001:00006300       ??0?$CComObjectRootEx@VCComMultiThreadModel@ATL@@@ATL@@QEAA@XZ 0000000180007300 f i CashChanger.obj
 0001:00006350       ??0?$CComObjectRootEx@VCComSingleThreadModel@ATL@@@ATL@@QEAA@XZ 0000000180007350 f i CashChanger.obj
 0001:00006390       ??0?$CComPtr@UIAdviseSink@@@ATL@@QEAA@PEAUIAdviseSink@@@Z 0000000180007390 f i CashChanger.obj
 0001:000063d0       ??0?$CComPtr@UICatRegister@@@ATL@@QEAA@XZ 00000001800073d0 f i CashChanger.obj
 0001:00006410       ??0?$CComPtr@UIConnectionPoint@@@ATL@@QEAA@XZ 0000000180007410 f i CashChanger.obj
 0001:00006450       ??0?$CComPtr@UIConnectionPointContainer@@@ATL@@QEAA@XZ 0000000180007450 f i CashChanger.obj
 0001:00006490       ??0?$CComPtr@UIDataObject@@@ATL@@QEAA@XZ 0000000180007490 f i CashChanger.obj
 0001:000064d0       ??0?$CComPtr@UIDispatch@@@ATL@@QEAA@XZ 00000001800074d0 f i CashChanger.obj
 0001:00006510       ??0?$CComPtr@UIOleClientSite@@@ATL@@QEAA@PEAUIOleClientSite@@@Z 0000000180007510 f i CashChanger.obj
 0001:00006550       ??0?$CComPtr@UIOleControlSite@@@ATL@@QEAA@XZ 0000000180007550 f i CashChanger.obj
 0001:00006590       ??0?$CComPtr@UIOleInPlaceActiveObject@@@ATL@@QEAA@XZ 0000000180007590 f i CashChanger.obj
 0001:000065d0       ??0?$CComPtr@UIOleInPlaceFrame@@@ATL@@QEAA@XZ 00000001800075d0 f i CashChanger.obj
 0001:00006610       ??0?$CComPtr@UIOleInPlaceObject@@@ATL@@QEAA@XZ 0000000180007610 f i CashChanger.obj
 0001:00006650       ??0?$CComPtr@UIOleInPlaceUIWindow@@@ATL@@QEAA@XZ 0000000180007650 f i CashChanger.obj
 0001:00006690       ??0?$CComPtr@UIOleObject@@@ATL@@QEAA@XZ 0000000180007690 f i CashChanger.obj
 0001:000066d0       ??0?$CComPtr@UIPersistStream@@@ATL@@QEAA@XZ 00000001800076d0 f i CashChanger.obj
 0001:00006710       ??0?$CComPtr@UIPersistStreamInit@@@ATL@@QEAA@XZ 0000000180007710 f i CashChanger.obj
 0001:00006750       ??0?$CComPtr@UIPointerInactive@@@ATL@@QEAA@XZ 0000000180007750 f i CashChanger.obj
 0001:00006790       ??0?$CComPtr@UIProvideClassInfo2@@@ATL@@QEAA@XZ 0000000180007790 f i CashChanger.obj
 0001:000067d0       ??0?$CComPtr@UISpecifyPropertyPages@@@ATL@@QEAA@XZ 00000001800077d0 f i CashChanger.obj
 0001:00006810       ??0?$CComPtr@UIStream@@@ATL@@QEAA@XZ 0000000180007810 f i CashChanger.obj
 0001:00006850       ??0?$CComPtr@UITypeInfo2@@@ATL@@QEAA@XZ 0000000180007850 f i CashChanger.obj
 0001:00006890       ??0?$CComPtr@UITypeInfo@@@ATL@@QEAA@AEBV01@@Z 0000000180007890 f i CashChanger.obj
 0001:000068d0       ??0?$CComPtr@UITypeInfo@@@ATL@@QEAA@XZ 00000001800078d0 f i CashChanger.obj
 0001:00006910       ??0?$CComPtr@UITypeLib@@@ATL@@QEAA@XZ 0000000180007910 f i CashChanger.obj
 0001:00006950       ??0?$CComPtr@UIUnknown@@@ATL@@QEAA@AEBV01@@Z 0000000180007950 f i CashChanger.obj
 0001:00006990       ??0?$CComPtr@UIUnknown@@@ATL@@QEAA@PEAUIUnknown@@@Z 0000000180007990 f i CashChanger.obj
 0001:000069d0       ??0?$CComPtr@UIUnknown@@@ATL@@QEAA@XZ 00000001800079d0 f i CashChanger.obj
 0001:00006a10       ??0?$CComPtr@UIViewObjectEx@@@ATL@@QEAA@XZ 0000000180007a10 f i CashChanger.obj
 0001:00006a50       ??0?$CComPtrBase@UIAdviseSink@@@ATL@@IEAA@PEAUIAdviseSink@@@Z 0000000180007a50 f i CashChanger.obj
 0001:00006ab0       ??0?$CComPtrBase@UICatRegister@@@ATL@@IEAA@XZ 0000000180007ab0 f i CashChanger.obj
 0001:00006ad0       ??0?$CComPtrBase@UIConnectionPoint@@@ATL@@IEAA@XZ 0000000180007ad0 f i CashChanger.obj
 0001:00006af0       ??0?$CComPtrBase@UIConnectionPointContainer@@@ATL@@IEAA@XZ 0000000180007af0 f i CashChanger.obj
 0001:00006b10       ??0?$CComPtrBase@UIDataObject@@@ATL@@IEAA@XZ 0000000180007b10 f i CashChanger.obj
 0001:00006b30       ??0?$CComPtrBase@UIDispatch@@@ATL@@IEAA@XZ 0000000180007b30 f i CashChanger.obj
 0001:00006b50       ??0?$CComPtrBase@UIOleClientSite@@@ATL@@IEAA@PEAUIOleClientSite@@@Z 0000000180007b50 f i CashChanger.obj
 0001:00006bb0       ??0?$CComPtrBase@UIOleControlSite@@@ATL@@IEAA@XZ 0000000180007bb0 f i CashChanger.obj
 0001:00006bd0       ??0?$CComPtrBase@UIOleInPlaceActiveObject@@@ATL@@IEAA@XZ 0000000180007bd0 f i CashChanger.obj
 0001:00006bf0       ??0?$CComPtrBase@UIOleInPlaceFrame@@@ATL@@IEAA@XZ 0000000180007bf0 f i CashChanger.obj
 0001:00006c10       ??0?$CComPtrBase@UIOleInPlaceObject@@@ATL@@IEAA@XZ 0000000180007c10 f i CashChanger.obj
 0001:00006c30       ??0?$CComPtrBase@UIOleInPlaceUIWindow@@@ATL@@IEAA@XZ 0000000180007c30 f i CashChanger.obj
 0001:00006c50       ??0?$CComPtrBase@UIOleObject@@@ATL@@IEAA@XZ 0000000180007c50 f i CashChanger.obj
 0001:00006c70       ??0?$CComPtrBase@UIPersistStream@@@ATL@@IEAA@XZ 0000000180007c70 f i CashChanger.obj
 0001:00006c90       ??0?$CComPtrBase@UIPersistStreamInit@@@ATL@@IEAA@XZ 0000000180007c90 f i CashChanger.obj
 0001:00006cb0       ??0?$CComPtrBase@UIPointerInactive@@@ATL@@IEAA@XZ 0000000180007cb0 f i CashChanger.obj
 0001:00006cd0       ??0?$CComPtrBase@UIProvideClassInfo2@@@ATL@@IEAA@XZ 0000000180007cd0 f i CashChanger.obj
 0001:00006cf0       ??0?$CComPtrBase@UISpecifyPropertyPages@@@ATL@@IEAA@XZ 0000000180007cf0 f i CashChanger.obj
 0001:00006d10       ??0?$CComPtrBase@UIStream@@@ATL@@IEAA@XZ 0000000180007d10 f i CashChanger.obj
 0001:00006d30       ??0?$CComPtrBase@UITypeInfo2@@@ATL@@IEAA@XZ 0000000180007d30 f i CashChanger.obj
 0001:00006d50       ??0?$CComPtrBase@UITypeInfo@@@ATL@@IEAA@PEAUITypeInfo@@@Z 0000000180007d50 f i CashChanger.obj
 0001:00006db0       ??0?$CComPtrBase@UITypeInfo@@@ATL@@IEAA@XZ 0000000180007db0 f i CashChanger.obj
 0001:00006dd0       ??0?$CComPtrBase@UITypeLib@@@ATL@@IEAA@XZ 0000000180007dd0 f i CashChanger.obj
 0001:00006df0       ??0?$CComPtrBase@UIUnknown@@@ATL@@IEAA@PEAUIUnknown@@@Z 0000000180007df0 f i CashChanger.obj
 0001:00006e50       ??0?$CComPtrBase@UIUnknown@@@ATL@@IEAA@XZ 0000000180007e50 f i CashChanger.obj
 0001:00006e70       ??0?$CComPtrBase@UIViewObjectEx@@@ATL@@IEAA@XZ 0000000180007e70 f i CashChanger.obj
 0001:00006e90       ??0?$CComQIPtr@UIOleControlSite@@$1?_GUID_b196b289_bab4_101a_b69c_00aa00341d07@@3U__s_GUID@@B@ATL@@QEAA@PEAUIUnknown@@@Z 0000000180007e90 f i CashChanger.obj
 0001:00006f00       ??0?$CComQIPtr@UIOleObject@@$1?_GUID_00000112_0000_0000_c000_000000000046@@3U__s_GUID@@B@ATL@@QEAA@XZ 0000000180007f00 f i CashChanger.obj
 0001:00006f40       ??0?$CComQIPtr@UISpecifyPropertyPages@@$1?_GUID_b196b28b_bab4_101a_b69c_00aa00341d07@@3U__s_GUID@@B@ATL@@QEAA@XZ 0000000180007f40 f i CashChanger.obj
 0001:00006f80       ??0?$CSimpleMap@PEA_WPEA_WVCExpansionVectorEqualHelper@ATL@@@ATL@@QEAA@XZ 0000000180007f80 f i CashChanger.obj
 0001:00006fc0       ??0?$CTempBuffer@E$0BAA@VCCRTAllocator@ATL@@@ATL@@QEAA@XZ 0000000180007fc0 f i CashChanger.obj
 0001:00006fe0       ??0?$CTempBuffer@_W$0BAA@VCCRTAllocator@ATL@@@ATL@@QEAA@XZ 0000000180007fe0 f i CashChanger.obj
 0001:00007000       ??0?$CTempBuffer@_W$0EAA@VCCRTAllocator@ATL@@@ATL@@QEAA@XZ 0000000180008000 f i CashChanger.obj
 0001:00007020       ??0?$Wrapper@PEA_W@?$CSimpleMap@PEA_WPEA_WVCExpansionVectorEqualHelper@ATL@@@ATL@@QEAA@AEBQEA_W@Z 0000000180008020 f i CashChanger.obj
 0001:00007050       ??0CAtlModule@ATL@@QEAA@XZ 0000000180008050 f i CashChanger.obj
 0001:000071c0       ??0CComAutoDeleteCriticalSection@ATL@@QEAA@XZ 00000001800081c0 f i CashChanger.obj
 0001:00007200       ??0CComBSTR@ATL@@QEAA@XZ   0000000180008200 f i CashChanger.obj
 0001:00007220       ??0CComClassFactory@ATL@@QEAA@XZ 0000000180008220 f i CashChanger.obj
 0001:00007280       ??0CComModule@ATL@@QEAA@XZ 0000000180008280 f i CashChanger.obj
 0001:00007320       ??0CComObjectRootBase@ATL@@QEAA@XZ 0000000180008320 f i CashChanger.obj
 0001:00007340       ??0CComSafeDeleteCriticalSection@ATL@@QEAA@XZ 0000000180008340 f i CashChanger.obj
 0001:00007380       ??0CComVariant@ATL@@QEAA@XZ 0000000180008380 f i CashChanger.obj
 0001:000073d0       ??0CExpansionVector@ATL@@QEAA@XZ 00000001800083d0 f i CashChanger.obj
 0001:00007410       ??0CParseBuffer@CRegParser@ATL@@QEAA@H@Z 0000000180008410 f i CashChanger.obj
 0001:000074a0       ??0CRegKey@ATL@@QEAA@PEAUHKEY__@@@Z 00000001800084a0 f i CashChanger.obj
 0001:000074e0       ??0CRegKey@ATL@@QEAA@PEAVCAtlTransactionManager@1@@Z 00000001800084e0 f i CashChanger.obj
 0001:00007520       ??0CRegObject@ATL@@QEAA@XZ 0000000180008520 f i CashChanger.obj
 0001:00007580       ??0CRegParser@ATL@@QEAA@PEAVCRegObject@1@@Z 0000000180008580 f i CashChanger.obj
 0001:000075b0       ??0IClassFactory@@QEAA@XZ  00000001800085b0 f i CashChanger.obj
 0001:000075f0       ??0IEnumConnectionPoints@@QEAA@XZ 00000001800085f0 f i CashChanger.obj
 0001:00007630       ??0IEnumConnections@@QEAA@XZ 0000000180008630 f i CashChanger.obj
 0001:00007670       ??0IRegistrarBase@@QEAA@XZ 0000000180008670 f i CashChanger.obj
 0001:000076b0       ??0IUnknown@@QEAA@XZ       00000001800086b0 f i CashChanger.obj
 0001:000076c0       ??0ModuleLockHelper@ATL@@QEAA@XZ 00000001800086c0 f i CashChanger.obj
 0001:00007700       ??0OposVariant@@QEAA@XZ    0000000180008700 f i CashChanger.obj
 0001:00007720       ??0Wrapper@?$CSimpleArray@GV?$CSimpleArrayEqualHelper@G@ATL@@@ATL@@QEAA@AEBG@Z 0000000180008720 f i CashChanger.obj
 0001:00007750       ??0_ATL_MODULE70@ATL@@QEAA@XZ 0000000180008750 f i CashChanger.obj
 0001:00007790       ??0_ATL_MSG@ATL@@QEAA@PEAUHWND__@@I_K_JH@Z 0000000180008790 f i CashChanger.obj
 0001:00007820       ??0_U_MENUorID@ATL@@QEAA@I@Z 0000000180008820 f i CashChanger.obj
 0001:00007840       ??0_U_RECT@ATL@@QEAA@AEAUtagRECT@@@Z 0000000180008840 f i CashChanger.obj
 0001:00007860       ??0stringdispid@CComTypeInfoHolder@ATL@@QEAA@XZ 0000000180008860 f i CashChanger.obj
 0001:000078b0       ??1?$CAtlModuleT@VCComModule@ATL@@@ATL@@UEAA@XZ 00000001800088b0 f i CashChanger.obj
 0001:000078e0       ??1?$CAtlSafeAllocBufferManager@VCCRTAllocator@ATL@@@_ATL_SAFE_ALLOCA_IMPL@ATL@@QEAA@XZ 00000001800088e0 f i CashChanger.obj
 0001:00007940       ??1?$CAutoVectorPtr@_W@ATL@@QEAA@XZ 0000000180008940 f i CashChanger.obj
 0001:00007970       ??1?$CComAggObject@VCOPOSCashChanger@@@ATL@@UEAA@XZ 0000000180008970 f i CashChanger.obj
 0001:000079f0       ??1?$CComContainedObject@VCOPOSCashChanger@@@ATL@@UEAA@XZ 00000001800089f0 f i CashChanger.obj
 0001:00007a20       ??1?$CComCritSecLock@VCComCriticalSection@ATL@@@ATL@@QEAA@XZ 0000000180008a20 f i CashChanger.obj
 0001:00007a60       ??1?$CComEnum@UIEnumConnectionPoints@@$1?_GUID_b196b285_bab4_101a_b69c_00aa00341d07@@3U__s_GUID@@BPEAUIConnectionPoint@@V?$_CopyInterface@UIConnectionPoint@@@ATL@@VCComSingleThreadModel@6@@ATL@@UEAA@XZ 0000000180008a60 f i CashChanger.obj
 0001:00007aa0       ??1?$CComEnum@UIEnumConnections@@$1?_GUID_b196b287_bab4_101a_b69c_00aa00341d07@@3U__s_GUID@@BUtagCONNECTDATA@@V?$_Copy@UtagCONNECTDATA@@@ATL@@VCComSingleThreadModel@6@@ATL@@UEAA@XZ 0000000180008aa0 f i CashChanger.obj
 0001:00007ae0       ??1?$CComEnumImpl@UIEnumConnectionPoints@@$1?_GUID_b196b285_bab4_101a_b69c_00aa00341d07@@3U__s_GUID@@BPEAUIConnectionPoint@@V?$_CopyInterface@UIConnectionPoint@@@ATL@@@ATL@@UEAA@XZ 0000000180008ae0 f i CashChanger.obj
 0001:00007b80       ??1?$CComEnumImpl@UIEnumConnections@@$1?_GUID_b196b287_bab4_101a_b69c_00aa00341d07@@3U__s_GUID@@BUtagCONNECTDATA@@V?$_Copy@UtagCONNECTDATA@@@ATL@@@ATL@@UEAA@XZ 0000000180008b80 f i CashChanger.obj
 0001:00007c20       ??1?$CComObject@V?$CComEnum@UIEnumConnectionPoints@@$1?_GUID_b196b285_bab4_101a_b69c_00aa00341d07@@3U__s_GUID@@BPEAUIConnectionPoint@@V?$_CopyInterface@UIConnectionPoint@@@ATL@@VCComSingleThreadModel@6@@ATL@@@ATL@@UEAA@XZ 0000000180008c20 f i CashChanger.obj
 0001:00007c90       ??1?$CComObject@V?$CComEnum@UIEnumConnections@@$1?_GUID_b196b287_bab4_101a_b69c_00aa00341d07@@3U__s_GUID@@BUtagCONNECTDATA@@V?$_Copy@UtagCONNECTDATA@@@ATL@@VCComSingleThreadModel@6@@ATL@@@ATL@@UEAA@XZ 0000000180008c90 f i CashChanger.obj
 0001:00007d00       ??1?$CComObject@VCOPOSCashChanger@@@ATL@@UEAA@XZ 0000000180008d00 f i CashChanger.obj
 0001:00007eb0       ??1?$CComObjectCached@VCComClassFactory@ATL@@@ATL@@UEAA@XZ 0000000180008eb0 f i CashChanger.obj
 0001:00007f10       ??1?$CComObjectRootEx@VCComMultiThreadModel@ATL@@@ATL@@QEAA@XZ 0000000180008f10 f i CashChanger.obj
 0001:00007f50       ??1?$CComObjectRootEx@VCComSingleThreadModel@ATL@@@ATL@@QEAA@XZ 0000000180008f50 f i CashChanger.obj
 0001:00007f80       ??1?$CComPtr@UIAdviseSink@@@ATL@@QEAA@XZ 0000000180008f80 f i CashChanger.obj
 0001:00007fb0       ??1?$CComPtr@UICatRegister@@@ATL@@QEAA@XZ 0000000180008fb0 f i CashChanger.obj
 0001:00007fe0       ??1?$CComPtr@UIConnectionPoint@@@ATL@@QEAA@XZ 0000000180008fe0 f i CashChanger.obj
 0001:00008010       ??1?$CComPtr@UIConnectionPointContainer@@@ATL@@QEAA@XZ 0000000180009010 f i CashChanger.obj
 0001:00008040       ??1?$CComPtr@UIDataObject@@@ATL@@QEAA@XZ 0000000180009040 f i CashChanger.obj
 0001:00008070       ??1?$CComPtr@UIDispatch@@@ATL@@QEAA@XZ 0000000180009070 f i CashChanger.obj
 0001:000080a0       ??1?$CComPtr@UIOleClientSite@@@ATL@@QEAA@XZ 00000001800090a0 f i CashChanger.obj
 0001:000080d0       ??1?$CComPtr@UIOleControlSite@@@ATL@@QEAA@XZ 00000001800090d0 f i CashChanger.obj
 0001:00008100       ??1?$CComPtr@UIOleInPlaceActiveObject@@@ATL@@QEAA@XZ 0000000180009100 f i CashChanger.obj
 0001:00008130       ??1?$CComPtr@UIOleInPlaceFrame@@@ATL@@QEAA@XZ 0000000180009130 f i CashChanger.obj
 0001:00008160       ??1?$CComPtr@UIOleInPlaceObject@@@ATL@@QEAA@XZ 0000000180009160 f i CashChanger.obj
 0001:00008190       ??1?$CComPtr@UIOleInPlaceUIWindow@@@ATL@@QEAA@XZ 0000000180009190 f i CashChanger.obj
 0001:000081c0       ??1?$CComPtr@UIOleObject@@@ATL@@QEAA@XZ 00000001800091c0 f i CashChanger.obj
 0001:000081f0       ??1?$CComPtr@UIPersistStream@@@ATL@@QEAA@XZ 00000001800091f0 f i CashChanger.obj
 0001:00008220       ??1?$CComPtr@UIPersistStreamInit@@@ATL@@QEAA@XZ 0000000180009220 f i CashChanger.obj
 0001:00008250       ??1?$CComPtr@UIPointerInactive@@@ATL@@QEAA@XZ 0000000180009250 f i CashChanger.obj
 0001:00008280       ??1?$CComPtr@UIProvideClassInfo2@@@ATL@@QEAA@XZ 0000000180009280 f i CashChanger.obj
 0001:000082b0       ??1?$CComPtr@UISpecifyPropertyPages@@@ATL@@QEAA@XZ 00000001800092b0 f i CashChanger.obj
 0001:000082e0       ??1?$CComPtr@UIStream@@@ATL@@QEAA@XZ 00000001800092e0 f i CashChanger.obj
 0001:00008310       ??1?$CComPtr@UITypeInfo2@@@ATL@@QEAA@XZ 0000000180009310 f i CashChanger.obj
 0001:00008340       ??1?$CComPtr@UITypeInfo@@@ATL@@QEAA@XZ 0000000180009340 f i CashChanger.obj
 0001:00008370       ??1?$CComPtr@UITypeLib@@@ATL@@QEAA@XZ 0000000180009370 f i CashChanger.obj
 0001:000083a0       ??1?$CComPtr@UIUnknown@@@ATL@@QEAA@XZ 00000001800093a0 f i CashChanger.obj
 0001:000083d0       ??1?$CComPtr@UIViewObjectEx@@@ATL@@QEAA@XZ 00000001800093d0 f i CashChanger.obj
 0001:00008400       ??1?$CComPtrBase@UIAdviseSink@@@ATL@@QEAA@XZ 0000000180009400 f i CashChanger.obj
 0001:00008450       ??1?$CComPtrBase@UICatRegister@@@ATL@@QEAA@XZ 0000000180009450 f i CashChanger.obj
 0001:000084a0       ??1?$CComPtrBase@UIConnectionPoint@@@ATL@@QEAA@XZ 00000001800094a0 f i CashChanger.obj
 0001:000084f0       ??1?$CComPtrBase@UIConnectionPointContainer@@@ATL@@QEAA@XZ 00000001800094f0 f i CashChanger.obj
 0001:00008540       ??1?$CComPtrBase@UIDataObject@@@ATL@@QEAA@XZ 0000000180009540 f i CashChanger.obj
 0001:00008590       ??1?$CComPtrBase@UIDispatch@@@ATL@@QEAA@XZ 0000000180009590 f i CashChanger.obj
 0001:000085e0       ??1?$CComPtrBase@UIOleClientSite@@@ATL@@QEAA@XZ 00000001800095e0 f i CashChanger.obj
 0001:00008630       ??1?$CComPtrBase@UIOleControlSite@@@ATL@@QEAA@XZ 0000000180009630 f i CashChanger.obj
 0001:00008680       ??1?$CComPtrBase@UIOleInPlaceActiveObject@@@ATL@@QEAA@XZ 0000000180009680 f i CashChanger.obj
 0001:000086d0       ??1?$CComPtrBase@UIOleInPlaceFrame@@@ATL@@QEAA@XZ 00000001800096d0 f i CashChanger.obj
 0001:00008720       ??1?$CComPtrBase@UIOleInPlaceObject@@@ATL@@QEAA@XZ 0000000180009720 f i CashChanger.obj
 0001:00008770       ??1?$CComPtrBase@UIOleInPlaceUIWindow@@@ATL@@QEAA@XZ 0000000180009770 f i CashChanger.obj
 0001:000087c0       ??1?$CComPtrBase@UIOleObject@@@ATL@@QEAA@XZ 00000001800097c0 f i CashChanger.obj
 0001:00008810       ??1?$CComPtrBase@UIPersistStream@@@ATL@@QEAA@XZ 0000000180009810 f i CashChanger.obj
 0001:00008860       ??1?$CComPtrBase@UIPersistStreamInit@@@ATL@@QEAA@XZ 0000000180009860 f i CashChanger.obj
 0001:000088b0       ??1?$CComPtrBase@UIPointerInactive@@@ATL@@QEAA@XZ 00000001800098b0 f i CashChanger.obj
 0001:00008900       ??1?$CComPtrBase@UIProvideClassInfo2@@@ATL@@QEAA@XZ 0000000180009900 f i CashChanger.obj
 0001:00008950       ??1?$CComPtrBase@UISpecifyPropertyPages@@@ATL@@QEAA@XZ 0000000180009950 f i CashChanger.obj
 0001:000089a0       ??1?$CComPtrBase@UIStream@@@ATL@@QEAA@XZ 00000001800099a0 f i CashChanger.obj
 0001:000089f0       ??1?$CComPtrBase@UITypeInfo2@@@ATL@@QEAA@XZ 00000001800099f0 f i CashChanger.obj
 0001:00008a40       ??1?$CComPtrBase@UITypeInfo@@@ATL@@QEAA@XZ 0000000180009a40 f i CashChanger.obj
 0001:00008a90       ??1?$CComPtrBase@UITypeLib@@@ATL@@QEAA@XZ 0000000180009a90 f i CashChanger.obj
 0001:00008ae0       ??1?$CComPtrBase@UIUnknown@@@ATL@@QEAA@XZ 0000000180009ae0 f i CashChanger.obj
 0001:00008b30       ??1?$CComPtrBase@UIViewObjectEx@@@ATL@@QEAA@XZ 0000000180009b30 f i CashChanger.obj
 0001:00008b80       ??1?$CComQIPtr@UIOleControlSite@@$1?_GUID_b196b289_bab4_101a_b69c_00aa00341d07@@3U__s_GUID@@B@ATL@@QEAA@XZ 0000000180009b80 f i CashChanger.obj
 0001:00008bb0       ??1?$CComQIPtr@UIOleObject@@$1?_GUID_00000112_0000_0000_c000_000000000046@@3U__s_GUID@@B@ATL@@QEAA@XZ 0000000180009bb0 f i CashChanger.obj
 0001:00008be0       ??1?$CComQIPtr@UISpecifyPropertyPages@@$1?_GUID_b196b28b_bab4_101a_b69c_00aa00341d07@@3U__s_GUID@@B@ATL@@QEAA@XZ 0000000180009be0 f i CashChanger.obj
 0001:00008c10       ??1?$CSimpleMap@PEA_WPEA_WVCExpansionVectorEqualHelper@ATL@@@ATL@@QEAA@XZ 0000000180009c10 f i CashChanger.obj
 0001:00008c40       ??1?$CTempBuffer@E$0BAA@VCCRTAllocator@ATL@@@ATL@@QEAA@XZ 0000000180009c40 f i CashChanger.obj
 0001:00008c90       ??1?$CTempBuffer@_W$0BAA@VCCRTAllocator@ATL@@@ATL@@QEAA@XZ 0000000180009c90 f i CashChanger.obj
 0001:00008ce0       ??1?$CTempBuffer@_W$0EAA@VCCRTAllocator@ATL@@@ATL@@QEAA@XZ 0000000180009ce0 f i CashChanger.obj
 0001:00008d30       ??1CAtlModule@ATL@@UEAA@XZ 0000000180009d30 f i CashChanger.obj
 0001:00008d70       ??1CComAutoDeleteCriticalSection@ATL@@QEAA@XZ 0000000180009d70 f i CashChanger.obj
 0001:00008da0       ??1CComClassFactory@ATL@@UEAA@XZ 0000000180009da0 f i CashChanger.obj
 0001:00008df0       ??1CComModule@ATL@@UEAA@XZ 0000000180009df0 f i CashChanger.obj
 0001:00008e30       ??1CComObjectRootBase@ATL@@QEAA@XZ 0000000180009e30 f i CashChanger.obj
 0001:00008e40       ??1CComSafeDeleteCriticalSection@ATL@@QEAA@XZ 0000000180009e40 f i CashChanger.obj
 0001:00008e90       ??1CComVariant@ATL@@QEAA@XZ 0000000180009e90 f i CashChanger.obj
 0001:00008f10       ??1CExpansionVector@ATL@@QEAA@XZ 0000000180009f10 f i CashChanger.obj
 0001:00008f50       ??1CParseBuffer@CRegParser@ATL@@QEAA@XZ 0000000180009f50 f i CashChanger.obj
 0001:00008f90       ??1CRegKey@ATL@@QEAA@XZ    0000000180009f90 f i CashChanger.obj
 0001:00008fc0       ??1CRegObject@ATL@@UEAA@XZ 0000000180009fc0 f i CashChanger.obj
 0001:00009010       ??1ModuleLockHelper@ATL@@QEAA@XZ 000000018000a010 f i CashChanger.obj
 0001:00009050       ??1OposVariant@@QEAA@XZ    000000018000a050 f i CashChanger.obj
 0001:00009090       ??1_ATL_MODULE70@ATL@@QEAA@XZ 000000018000a090 f i CashChanger.obj
 0001:000090d0       ??4?$CComPtr@UIAdviseSink@@@ATL@@QEAAPEAUIAdviseSink@@PEAU2@@Z 000000018000a0d0 f i CashChanger.obj
 0001:00009140       ??4?$CComPtr@UIOleClientSite@@@ATL@@QEAAPEAUIOleClientSite@@PEAU2@@Z 000000018000a140 f i CashChanger.obj
 0001:000091b0       ??4?$CComPtr@UIUnknown@@@ATL@@QEAAPEAUIUnknown@@PEAU2@@Z 000000018000a1b0 f i CashChanger.obj
 0001:00009220       ??4?$CComQIPtr@UIOleObject@@$1?_GUID_00000112_0000_0000_c000_000000000046@@3U__s_GUID@@B@ATL@@QEAAPEAUIOleObject@@PEAUIUnknown@@@Z 000000018000a220 f i CashChanger.obj
 0001:00009280       ??4?$CComQIPtr@UISpecifyPropertyPages@@$1?_GUID_b196b28b_bab4_101a_b69c_00aa00341d07@@3U__s_GUID@@B@ATL@@QEAAPEAUISpecifyPropertyPages@@PEAUIUnknown@@@Z 000000018000a280 f i CashChanger.obj
 0001:000092e0       ??7?$CComPtrBase@UIOleClientSite@@@ATL@@QEBA_NXZ 000000018000a2e0 f i CashChanger.obj
 0001:00009330       ??7?$CComPtrBase@UIOleInPlaceSiteWindowless@@@ATL@@QEBA_NXZ 000000018000a330 f i CashChanger.obj
 0001:00009380       ??7CComBSTR@ATL@@QEBA_NXZ  000000018000a380 f i CashChanger.obj
 0001:000093d0       ??8?$CComPtrBase@UIAdviseSink@@@ATL@@QEBA_NPEAUIAdviseSink@@@Z 000000018000a3d0 f i CashChanger.obj
 0001:00009420       ??8?$CComPtrBase@UIConnectionPointContainer@@@ATL@@QEBA_NPEAUIConnectionPointContainer@@@Z 000000018000a420 f i CashChanger.obj
 0001:00009470       ??8?$CComPtrBase@UIDataAdviseHolder@@@ATL@@QEBA_NPEAUIDataAdviseHolder@@@Z 000000018000a470 f i CashChanger.obj
 0001:000094c0       ??8?$CComPtrBase@UIOleAdviseHolder@@@ATL@@QEBA_NPEAUIOleAdviseHolder@@@Z 000000018000a4c0 f i CashChanger.obj
 0001:00009510       ??8?$CComPtrBase@UIOleClientSite@@@ATL@@QEBA_NPEAUIOleClientSite@@@Z 000000018000a510 f i CashChanger.obj
 0001:00009560       ??8?$CComPtrBase@UIOleControlSite@@@ATL@@QEBA_NPEAUIOleControlSite@@@Z 000000018000a560 f i CashChanger.obj
 0001:000095b0       ??8?$CComPtrBase@UIOleInPlaceObject@@@ATL@@QEBA_NPEAUIOleInPlaceObject@@@Z 000000018000a5b0 f i CashChanger.obj
 0001:00009600       ??8?$CComPtrBase@UIOleInPlaceSiteWindowless@@@ATL@@QEBA_NPEAUIOleInPlaceSiteWindowless@@@Z 000000018000a600 f i CashChanger.obj
 0001:00009650       ??8?$CComPtrBase@UIOleObject@@@ATL@@QEBA_NPEAUIOleObject@@@Z 000000018000a650 f i CashChanger.obj
 0001:000096a0       ??8?$CComPtrBase@UIPersistStream@@@ATL@@QEBA_NPEAUIPersistStream@@@Z 000000018000a6a0 f i CashChanger.obj
 0001:000096f0       ??8?$CComPtrBase@UIPersistStreamInit@@@ATL@@QEBA_NPEAUIPersistStreamInit@@@Z 000000018000a6f0 f i CashChanger.obj
 0001:00009740       ??8?$CComPtrBase@UIPointerInactive@@@ATL@@QEBA_NPEAUIPointerInactive@@@Z 000000018000a740 f i CashChanger.obj
 0001:00009790       ??8?$CComPtrBase@UIUnknown@@@ATL@@QEBA_NPEAUIUnknown@@@Z 000000018000a790 f i CashChanger.obj
 0001:000097e0       ??8?$CComPtrBase@UIViewObjectEx@@@ATL@@QEBA_NPEAUIViewObjectEx@@@Z 000000018000a7e0 f i CashChanger.obj
 0001:00009830       ??8CComBSTR@ATL@@QEBA_NH@Z 000000018000a830 f i CashChanger.obj
 0001:000098b0       ??9?$CComPtrBase@UIAdviseSink@@@ATL@@QEBA_NPEAUIAdviseSink@@@Z 000000018000a8b0 f i CashChanger.obj
 0001:00009910       ??9?$CComPtrBase@UIConnectionPointContainer@@@ATL@@QEBA_NPEAUIConnectionPointContainer@@@Z 000000018000a910 f i CashChanger.obj
 0001:00009970       ??9?$CComPtrBase@UIDataAdviseHolder@@@ATL@@QEBA_NPEAUIDataAdviseHolder@@@Z 000000018000a970 f i CashChanger.obj
 0001:000099d0       ??9?$CComPtrBase@UIOleAdviseHolder@@@ATL@@QEBA_NPEAUIOleAdviseHolder@@@Z 000000018000a9d0 f i CashChanger.obj
 0001:00009a30       ??9?$CComPtrBase@UIOleClientSite@@@ATL@@QEBA_NPEAUIOleClientSite@@@Z 000000018000aa30 f i CashChanger.obj
 0001:00009a90       ??9?$CComPtrBase@UIOleControlSite@@@ATL@@QEBA_NPEAUIOleControlSite@@@Z 000000018000aa90 f i CashChanger.obj
 0001:00009af0       ??9?$CComPtrBase@UIOleInPlaceObject@@@ATL@@QEBA_NPEAUIOleInPlaceObject@@@Z 000000018000aaf0 f i CashChanger.obj
 0001:00009b50       ??9?$CComPtrBase@UIOleInPlaceSiteWindowless@@@ATL@@QEBA_NPEAUIOleInPlaceSiteWindowless@@@Z 000000018000ab50 f i CashChanger.obj
 0001:00009bb0       ??9?$CComPtrBase@UIOleObject@@@ATL@@QEBA_NPEAUIOleObject@@@Z 000000018000abb0 f i CashChanger.obj
 0001:00009c10       ??9?$CComPtrBase@UIPersistStream@@@ATL@@QEBA_NPEAUIPersistStream@@@Z 000000018000ac10 f i CashChanger.obj
 0001:00009c70       ??9?$CComPtrBase@UIPersistStreamInit@@@ATL@@QEBA_NPEAUIPersistStreamInit@@@Z 000000018000ac70 f i CashChanger.obj
 0001:00009cd0       ??9?$CComPtrBase@UIPointerInactive@@@ATL@@QEBA_NPEAUIPointerInactive@@@Z 000000018000acd0 f i CashChanger.obj
 0001:00009d30       ??9?$CComPtrBase@UIUnknown@@@ATL@@QEBA_NPEAUIUnknown@@@Z 000000018000ad30 f i CashChanger.obj
 0001:00009d90       ??9?$CComPtrBase@UIViewObjectEx@@@ATL@@QEBA_NPEAUIViewObjectEx@@@Z 000000018000ad90 f i CashChanger.obj
 0001:00009df0       ??9CComBSTR@ATL@@QEBA_NH@Z 000000018000adf0 f i CashChanger.obj
 0001:00009e50       ??B?$CComPtrBase@UIAdviseSink@@@ATL@@QEBAPEAUIAdviseSink@@XZ 000000018000ae50 f i CashChanger.obj
 0001:00009e60       ??B?$CComPtrBase@UIDataAdviseHolder@@@ATL@@QEBAPEAUIDataAdviseHolder@@XZ 000000018000ae60 f i CashChanger.obj
 0001:00009e70       ??B?$CComPtrBase@UIDataObject@@@ATL@@QEBAPEAUIDataObject@@XZ 000000018000ae70 f i CashChanger.obj
 0001:00009e80       ??B?$CComPtrBase@UIOleAdviseHolder@@@ATL@@QEBAPEAUIOleAdviseHolder@@XZ 000000018000ae80 f i CashChanger.obj
 0001:00009e90       ??B?$CComPtrBase@UIOleClientSite@@@ATL@@QEBAPEAUIOleClientSite@@XZ 000000018000ae90 f i CashChanger.obj
 0001:00009ea0       ??B?$CComPtrBase@UIOleControlSite@@@ATL@@QEBAPEAUIOleControlSite@@XZ 000000018000aea0 f i CashChanger.obj
 0001:00009eb0       ??B?$CComPtrBase@UIOleInPlaceActiveObject@@@ATL@@QEBAPEAUIOleInPlaceActiveObject@@XZ 000000018000aeb0 f i CashChanger.obj
 0001:00009ec0       ??B?$CComPtrBase@UIOleInPlaceFrame@@@ATL@@QEBAPEAUIOleInPlaceFrame@@XZ 000000018000aec0 f i CashChanger.obj
 0001:00009ed0       ??B?$CComPtrBase@UIOleInPlaceSiteWindowless@@@ATL@@QEBAPEAUIOleInPlaceSiteWindowless@@XZ 000000018000aed0 f i CashChanger.obj
 0001:00009ee0       ??B?$CComPtrBase@UIOleInPlaceUIWindow@@@ATL@@QEBAPEAUIOleInPlaceUIWindow@@XZ 000000018000aee0 f i CashChanger.obj
 0001:00009ef0       ??B?$CComPtrBase@UIOleObject@@@ATL@@QEBAPEAUIOleObject@@XZ 000000018000aef0 f i CashChanger.obj
 0001:00009f00       ??B?$CComPtrBase@UIPersistStream@@@ATL@@QEBAPEAUIPersistStream@@XZ 000000018000af00 f i CashChanger.obj
 0001:00009f10       ??B?$CComPtrBase@UIProvideClassInfo2@@@ATL@@QEBAPEAUIProvideClassInfo2@@XZ 000000018000af10 f i CashChanger.obj
 0001:00009f20       ??B?$CComPtrBase@UISpecifyPropertyPages@@@ATL@@QEBAPEAUISpecifyPropertyPages@@XZ 000000018000af20 f i CashChanger.obj
 0001:00009f30       ??B?$CComPtrBase@UIStream@@@ATL@@QEBAPEAUIStream@@XZ 000000018000af30 f i CashChanger.obj
 0001:00009f40       ??B?$CComPtrBase@UITypeInfo2@@@ATL@@QEBAPEAUITypeInfo2@@XZ 000000018000af40 f i CashChanger.obj
 0001:00009f50       ??B?$CComPtrBase@UITypeInfo@@@ATL@@QEBAPEAUITypeInfo@@XZ 000000018000af50 f i CashChanger.obj
 0001:00009f60       ??B?$CComPtrBase@UITypeLib@@@ATL@@QEBAPEAUITypeLib@@XZ 000000018000af60 f i CashChanger.obj
 0001:00009f70       ??B?$CComPtrBase@UIUnknown@@@ATL@@QEBAPEAUIUnknown@@XZ 000000018000af70 f i CashChanger.obj
 0001:00009f80       ??B?$CTempBuffer@E$0BAA@VCCRTAllocator@ATL@@@ATL@@QEBAPEAEXZ 000000018000af80 f i CashChanger.obj
 0001:00009f90       ??B?$CTempBuffer@_W$0BAA@VCCRTAllocator@ATL@@@ATL@@QEBAPEA_WXZ 000000018000af90 f i CashChanger.obj
 0001:00009fa0       ??B?$CTempBuffer@_W$0EAA@VCCRTAllocator@ATL@@@ATL@@QEBAPEA_WXZ 000000018000afa0 f i CashChanger.obj
 0001:00009fb0       ??B?$CTraceCategoryEx@$00$0A@@ATL@@QEAAIXZ 000000018000afb0 f i CashChanger.obj
 0001:00009fc0       ??B?$CTraceCategoryEx@$07$0A@@ATL@@QEAAIXZ 000000018000afc0 f i CashChanger.obj
 0001:00009fd0       ??B?$CTraceCategoryEx@$0CAAA@$0A@@ATL@@QEAAIXZ 000000018000afd0 f i CashChanger.obj
 0001:00009fe0       ??B?$CTraceCategoryEx@$0EA@$0A@@ATL@@QEAAIXZ 000000018000afe0 f i CashChanger.obj
 0001:00009ff0       ??B?$CTraceCategoryEx@$0IAA@$0A@@ATL@@QEAAIXZ 000000018000aff0 f i CashChanger.obj
 0001:0000a000       ??BCComBSTR@ATL@@QEBAPEA_WXZ 000000018000b000 f i CashChanger.obj
 0001:0000a010       ??BCRegKey@ATL@@QEBAPEAUHKEY__@@XZ 000000018000b010 f i CashChanger.obj
 0001:0000a020       ??C?$CComPtrBase@UIAdviseSink@@@ATL@@QEBAPEAV?$_NoAddRefReleaseOnCComPtr@UIAdviseSink@@@1@XZ 000000018000b020 f i CashChanger.obj
 0001:0000a0a0       ??C?$CComPtrBase@UICatRegister@@@ATL@@QEBAPEAV?$_NoAddRefReleaseOnCComPtr@UICatRegister@@@1@XZ 000000018000b0a0 f i CashChanger.obj
 0001:0000a120       ??C?$CComPtrBase@UIConnectionPoint@@@ATL@@QEBAPEAV?$_NoAddRefReleaseOnCComPtr@UIConnectionPoint@@@1@XZ 000000018000b120 f i CashChanger.obj
 0001:0000a1a0       ??C?$CComPtrBase@UIConnectionPointContainer@@@ATL@@QEBAPEAV?$_NoAddRefReleaseOnCComPtr@UIConnectionPointContainer@@@1@XZ 000000018000b1a0 f i CashChanger.obj
 0001:0000a220       ??C?$CComPtrBase@UIDataAdviseHolder@@@ATL@@QEBAPEAV?$_NoAddRefReleaseOnCComPtr@UIDataAdviseHolder@@@1@XZ 000000018000b220 f i CashChanger.obj
 0001:0000a2a0       ??C?$CComPtrBase@UIOleAdviseHolder@@@ATL@@QEBAPEAV?$_NoAddRefReleaseOnCComPtr@UIOleAdviseHolder@@@1@XZ 000000018000b2a0 f i CashChanger.obj
 0001:0000a320       ??C?$CComPtrBase@UIOleClientSite@@@ATL@@QEBAPEAV?$_NoAddRefReleaseOnCComPtr@UIOleClientSite@@@1@XZ 000000018000b320 f i CashChanger.obj
 0001:0000a3a0       ??C?$CComPtrBase@UIOleControlSite@@@ATL@@QEBAPEAV?$_NoAddRefReleaseOnCComPtr@UIOleControlSite@@@1@XZ 000000018000b3a0 f i CashChanger.obj
 0001:0000a420       ??C?$CComPtrBase@UIOleInPlaceFrame@@@ATL@@QEBAPEAV?$_NoAddRefReleaseOnCComPtr@UIOleInPlaceFrame@@@1@XZ 000000018000b420 f i CashChanger.obj
 0001:0000a4a0       ??C?$CComPtrBase@UIOleInPlaceObject@@@ATL@@QEBAPEAV?$_NoAddRefReleaseOnCComPtr@UIOleInPlaceObject@@@1@XZ 000000018000b4a0 f i CashChanger.obj
 0001:0000a520       ??C?$CComPtrBase@UIOleInPlaceSiteWindowless@@@ATL@@QEBAPEAV?$_NoAddRefReleaseOnCComPtr@UIOleInPlaceSiteWindowless@@@1@XZ 000000018000b520 f i CashChanger.obj
 0001:0000a5a0       ??C?$CComPtrBase@UIOleInPlaceUIWindow@@@ATL@@QEBAPEAV?$_NoAddRefReleaseOnCComPtr@UIOleInPlaceUIWindow@@@1@XZ 000000018000b5a0 f i CashChanger.obj
 0001:0000a620       ??C?$CComPtrBase@UIOleObject@@@ATL@@QEBAPEAV?$_NoAddRefReleaseOnCComPtr@UIOleObject@@@1@XZ 000000018000b620 f i CashChanger.obj
 0001:0000a6a0       ??C?$CComPtrBase@UIPersistStream@@@ATL@@QEBAPEAV?$_NoAddRefReleaseOnCComPtr@UIPersistStream@@@1@XZ 000000018000b6a0 f i CashChanger.obj
 0001:0000a720       ??C?$CComPtrBase@UIPersistStreamInit@@@ATL@@QEBAPEAV?$_NoAddRefReleaseOnCComPtr@UIPersistStreamInit@@@1@XZ 000000018000b720 f i CashChanger.obj
 0001:0000a7a0       ??C?$CComPtrBase@UIPointerInactive@@@ATL@@QEBAPEAV?$_NoAddRefReleaseOnCComPtr@UIPointerInactive@@@1@XZ 000000018000b7a0 f i CashChanger.obj
 0001:0000a820       ??C?$CComPtrBase@UIProvideClassInfo2@@@ATL@@QEBAPEAV?$_NoAddRefReleaseOnCComPtr@UIProvideClassInfo2@@@1@XZ 000000018000b820 f i CashChanger.obj
 0001:0000a8a0       ??C?$CComPtrBase@UISpecifyPropertyPages@@@ATL@@QEBAPEAV?$_NoAddRefReleaseOnCComPtr@UISpecifyPropertyPages@@@1@XZ 000000018000b8a0 f i CashChanger.obj
 0001:0000a920       ??C?$CComPtrBase@UITypeInfo@@@ATL@@QEBAPEAV?$_NoAddRefReleaseOnCComPtr@UITypeInfo@@@1@XZ 000000018000b920 f i CashChanger.obj
 0001:0000a9a0       ??C?$CComPtrBase@UITypeLib@@@ATL@@QEBAPEAV?$_NoAddRefReleaseOnCComPtr@UITypeLib@@@1@XZ 000000018000b9a0 f i CashChanger.obj
 0001:0000aa20       ??C?$CComPtrBase@UIUnknown@@@ATL@@QEBAPEAV?$_NoAddRefReleaseOnCComPtr@UIUnknown@@@1@XZ 000000018000ba20 f i CashChanger.obj
 0001:0000aaa0       ??C?$CComPtrBase@UIViewObjectEx@@@ATL@@QEBAPEAV?$_NoAddRefReleaseOnCComPtr@UIViewObjectEx@@@1@XZ 000000018000baa0 f i CashChanger.obj
 0001:0000ab20       ??I?$CComPtrBase@UICatRegister@@@ATL@@QEAAPEAPEAUICatRegister@@XZ 000000018000bb20 f i CashChanger.obj
 0001:0000ab90       ??I?$CComPtrBase@UIConnectionPoint@@@ATL@@QEAAPEAPEAUIConnectionPoint@@XZ 000000018000bb90 f i CashChanger.obj
 0001:0000ac00       ??I?$CComPtrBase@UIConnectionPointContainer@@@ATL@@QEAAPEAPEAUIConnectionPointContainer@@XZ 000000018000bc00 f i CashChanger.obj
 0001:0000ac70       ??I?$CComPtrBase@UIDataAdviseHolder@@@ATL@@QEAAPEAPEAUIDataAdviseHolder@@XZ 000000018000bc70 f i CashChanger.obj
 0001:0000ace0       ??I?$CComPtrBase@UIDataObject@@@ATL@@QEAAPEAPEAUIDataObject@@XZ 000000018000bce0 f i CashChanger.obj
 0001:0000ad50       ??I?$CComPtrBase@UIDispatch@@@ATL@@QEAAPEAPEAUIDispatch@@XZ 000000018000bd50 f i CashChanger.obj
 0001:0000adc0       ??I?$CComPtrBase@UIOleAdviseHolder@@@ATL@@QEAAPEAPEAUIOleAdviseHolder@@XZ 000000018000bdc0 f i CashChanger.obj
 0001:0000ae30       ??I?$CComPtrBase@UIOleControlSite@@@ATL@@QEAAPEAPEAUIOleControlSite@@XZ 000000018000be30 f i CashChanger.obj
 0001:0000aea0       ??I?$CComPtrBase@UIOleInPlaceActiveObject@@@ATL@@QEAAPEAPEAUIOleInPlaceActiveObject@@XZ 000000018000bea0 f i CashChanger.obj
 0001:0000af10       ??I?$CComPtrBase@UIOleInPlaceFrame@@@ATL@@QEAAPEAPEAUIOleInPlaceFrame@@XZ 000000018000bf10 f i CashChanger.obj
 0001:0000af80       ??I?$CComPtrBase@UIOleInPlaceObject@@@ATL@@QEAAPEAPEAUIOleInPlaceObject@@XZ 000000018000bf80 f i CashChanger.obj
 0001:0000aff0       ??I?$CComPtrBase@UIOleInPlaceSiteWindowless@@@ATL@@QEAAPEAPEAUIOleInPlaceSiteWindowless@@XZ 000000018000bff0 f i CashChanger.obj
 0001:0000b060       ??I?$CComPtrBase@UIOleInPlaceUIWindow@@@ATL@@QEAAPEAPEAUIOleInPlaceUIWindow@@XZ 000000018000c060 f i CashChanger.obj
 0001:0000b0d0       ??I?$CComPtrBase@UIOleObject@@@ATL@@QEAAPEAPEAUIOleObject@@XZ 000000018000c0d0 f i CashChanger.obj
 0001:0000b140       ??I?$CComPtrBase@UIPersistStream@@@ATL@@QEAAPEAPEAUIPersistStream@@XZ 000000018000c140 f i CashChanger.obj
 0001:0000b1b0       ??I?$CComPtrBase@UIPointerInactive@@@ATL@@QEAAPEAPEAUIPointerInactive@@XZ 000000018000c1b0 f i CashChanger.obj
 0001:0000b220       ??I?$CComPtrBase@UIProvideClassInfo2@@@ATL@@QEAAPEAPEAUIProvideClassInfo2@@XZ 000000018000c220 f i CashChanger.obj
 0001:0000b290       ??I?$CComPtrBase@UIStream@@@ATL@@QEAAPEAPEAUIStream@@XZ 000000018000c290 f i CashChanger.obj
 0001:0000b300       ??I?$CComPtrBase@UITypeInfo2@@@ATL@@QEAAPEAPEAUITypeInfo2@@XZ 000000018000c300 f i CashChanger.obj
 0001:0000b370       ??I?$CComPtrBase@UITypeInfo@@@ATL@@QEAAPEAPEAUITypeInfo@@XZ 000000018000c370 f i CashChanger.obj
 0001:0000b3e0       ??I?$CComPtrBase@UITypeLib@@@ATL@@QEAAPEAPEAUITypeLib@@XZ 000000018000c3e0 f i CashChanger.obj
 0001:0000b450       ??I?$CComPtrBase@UIUnknown@@@ATL@@QEAAPEAPEAUIUnknown@@XZ 000000018000c450 f i CashChanger.obj
 0001:0000b4c0       ??I?$CComPtrBase@UIViewObjectEx@@@ATL@@QEAAPEAPEAUIViewObjectEx@@XZ 000000018000c4c0 f i CashChanger.obj
 0001:0000b530       ??ICComBSTR@ATL@@QEAAPEAPEA_WXZ 000000018000c530 f i CashChanger.obj
 0001:0000b540       ??_E?$CComContainedObject@VCOPOSCashChanger@@@ATL@@W7EAAPEAXI@Z 000000018000c540 f i CashChanger.obj
 0001:0000b54c       ??_E?$CComContainedObject@VCOPOSCashChanger@@@ATL@@WHA@EAAPEAXI@Z 000000018000c54c f i CashChanger.obj
 0001:0000b558       ??_E?$CComObject@VCOPOSCashChanger@@@ATL@@W7EAAPEAXI@Z 000000018000c558 f i CashChanger.obj
 0001:0000b564       ??_E?$CComObject@VCOPOSCashChanger@@@ATL@@WHA@EAAPEAXI@Z 000000018000c564 f i CashChanger.obj
 0001:0000b570       ??_G?$CComAggObject@VCOPOSCashChanger@@@ATL@@UEAAPEAXI@Z 000000018000c570 f i CashChanger.obj
 0001:0000b570       ??_E?$CComAggObject@VCOPOSCashChanger@@@ATL@@UEAAPEAXI@Z 000000018000c570 f i CashChanger.obj
 0001:0000b5d0       ??_E?$CComContainedObject@VCOPOSCashChanger@@@ATL@@UEAAPEAXI@Z 000000018000c5d0 f i CashChanger.obj
 0001:0000b5d0       ??_G?$CComContainedObject@VCOPOSCashChanger@@@ATL@@UEAAPEAXI@Z 000000018000c5d0 f i CashChanger.obj
 0001:0000b630       ??_E?$CComObject@V?$CComEnum@UIEnumConnectionPoints@@$1?_GUID_b196b285_bab4_101a_b69c_00aa00341d07@@3U__s_GUID@@BPEAUIConnectionPoint@@V?$_CopyInterface@UIConnectionPoint@@@ATL@@VCComSingleThreadModel@6@@ATL@@@ATL@@UEAAPEAXI@Z 000000018000c630 f i CashChanger.obj
 0001:0000b630       ??_G?$CComObject@V?$CComEnum@UIEnumConnectionPoints@@$1?_GUID_b196b285_bab4_101a_b69c_00aa00341d07@@3U__s_GUID@@BPEAUIConnectionPoint@@V?$_CopyInterface@UIConnectionPoint@@@ATL@@VCComSingleThreadModel@6@@ATL@@@ATL@@UEAAPEAXI@Z 000000018000c630 f i CashChanger.obj
 0001:0000b690       ??_E?$CComObject@V?$CComEnum@UIEnumConnections@@$1?_GUID_b196b287_bab4_101a_b69c_00aa00341d07@@3U__s_GUID@@BUtagCONNECTDATA@@V?$_Copy@UtagCONNECTDATA@@@ATL@@VCComSingleThreadModel@6@@ATL@@@ATL@@UEAAPEAXI@Z 000000018000c690 f i CashChanger.obj
 0001:0000b690       ??_G?$CComObject@V?$CComEnum@UIEnumConnections@@$1?_GUID_b196b287_bab4_101a_b69c_00aa00341d07@@3U__s_GUID@@BUtagCONNECTDATA@@V?$_Copy@UtagCONNECTDATA@@@ATL@@VCComSingleThreadModel@6@@ATL@@@ATL@@UEAAPEAXI@Z 000000018000c690 f i CashChanger.obj
 0001:0000b6f0       ??_E?$CComObject@VCOPOSCashChanger@@@ATL@@UEAAPEAXI@Z 000000018000c6f0 f i CashChanger.obj
 0001:0000b6f0       ??_G?$CComObject@VCOPOSCashChanger@@@ATL@@UEAAPEAXI@Z 000000018000c6f0 f i CashChanger.obj
 0001:0000b750       ??_E?$CComObjectCached@VCComClassFactory@ATL@@@ATL@@UEAAPEAXI@Z 000000018000c750 f i CashChanger.obj
 0001:0000b750       ??_G?$CComObjectCached@VCComClassFactory@ATL@@@ATL@@UEAAPEAXI@Z 000000018000c750 f i CashChanger.obj
 0001:0000b7b0       ??_ECComClassFactory@ATL@@UEAAPEAXI@Z 000000018000c7b0 f i CashChanger.obj
 0001:0000b7b0       ??_GCComClassFactory@ATL@@UEAAPEAXI@Z 000000018000c7b0 f i CashChanger.obj
 0001:0000b810       ??_ECComModule@ATL@@UEAAPEAXI@Z 000000018000c810 f i CashChanger.obj
 0001:0000b810       ??_GCComModule@ATL@@UEAAPEAXI@Z 000000018000c810 f i CashChanger.obj
 0001:0000b870       ??_GCRegObject@ATL@@UEAAPEAXI@Z 000000018000c870 f i CashChanger.obj
 0001:0000b870       ??_ECRegObject@ATL@@UEAAPEAXI@Z 000000018000c870 f i CashChanger.obj
 0001:0000b8d0       ?Add@?$CSimpleArray@GV?$CSimpleArrayEqualHelper@G@ATL@@@ATL@@QEAAHAEBG@Z 000000018000c8d0 f i CashChanger.obj
 0001:0000ba70       ?Add@?$CSimpleMap@PEA_WPEA_WVCExpansionVectorEqualHelper@ATL@@@ATL@@QEAAHAEBQEA_W0@Z 000000018000ca70 f i CashChanger.obj
 0001:0000bb60       ?Add@CComDynamicUnkArray@ATL@@QEAAKPEAUIUnknown@@@Z 000000018000cb60 f i CashChanger.obj
 0001:0000bd40       ?Add@CExpansionVector@ATL@@QEAAHPEB_W0@Z 000000018000cd40 f i CashChanger.obj
 0001:0000c070       ?AddChar@CParseBuffer@CRegParser@ATL@@QEAAHPEB_W@Z 000000018000d070 f i CashChanger.obj
 0001:0000c0c0       ?AddCommonRGSReplacements@?$CAtlModuleT@VCComModule@ATL@@@ATL@@UEAAJPEAUIRegistrarBase@@@Z 000000018000d0c0 f i CashChanger.obj
 0001:0000c120       ?AddCreateWndData@CAtlWinModule@ATL@@QEAAXPEAU_AtlCreateWndData@2@PEAX@Z 000000018000d120 f i CashChanger.obj
 0001:0000c170       ?AddRef@?$CComAggObject@VCOPOSCashChanger@@@ATL@@UEAAKXZ 000000018000d170 f i CashChanger.obj
 0001:0000c1b0       ?AddRef@?$CComContainedObject@VCOPOSCashChanger@@@ATL@@UEAAKXZ 000000018000d1b0 f i CashChanger.obj
 0001:0000c1e8       ?AddRef@?$CComContainedObject@VCOPOSCashChanger@@@ATL@@WBAA@EAAKXZ 000000018000d1e8 f i CashChanger.obj
 0001:0000c1f4       ?AddRef@?$CComContainedObject@VCOPOSCashChanger@@@ATL@@WBAI@EAAKXZ 000000018000d1f4 f i CashChanger.obj
 0001:0000c200       ?AddRef@?$CComContainedObject@VCOPOSCashChanger@@@ATL@@WBBA@EAAKXZ 000000018000d200 f i CashChanger.obj
 0001:0000c20c       ?AddRef@?$CComContainedObject@VCOPOSCashChanger@@@ATL@@WBBI@EAAKXZ 000000018000d20c f i CashChanger.obj
 0001:0000c218       ?AddRef@?$CComContainedObject@VCOPOSCashChanger@@@ATL@@WBCI@EAAKXZ 000000018000d218 f i CashChanger.obj
 0001:0000c224       ?AddRef@?$CComContainedObject@VCOPOSCashChanger@@@ATL@@WBEA@EAAKXZ 000000018000d224 f i CashChanger.obj
 0001:0000c230       ?AddRef@?$CComContainedObject@VCOPOSCashChanger@@@ATL@@WLI@EAAKXZ 000000018000d230 f i CashChanger.obj
 0001:0000c23c       ?AddRef@?$CComContainedObject@VCOPOSCashChanger@@@ATL@@WMA@EAAKXZ 000000018000d23c f i CashChanger.obj
 0001:0000c248       ?AddRef@?$CComContainedObject@VCOPOSCashChanger@@@ATL@@WMI@EAAKXZ 000000018000d248 f i CashChanger.obj
 0001:0000c254       ?AddRef@?$CComContainedObject@VCOPOSCashChanger@@@ATL@@WNA@EAAKXZ 000000018000d254 f i CashChanger.obj
 0001:0000c260       ?AddRef@?$CComContainedObject@VCOPOSCashChanger@@@ATL@@WNI@EAAKXZ 000000018000d260 f i CashChanger.obj
 0001:0000c26c       ?AddRef@?$CComContainedObject@VCOPOSCashChanger@@@ATL@@WOA@EAAKXZ 000000018000d26c f i CashChanger.obj
 0001:0000c278       ?AddRef@?$CComContainedObject@VCOPOSCashChanger@@@ATL@@WOI@EAAKXZ 000000018000d278 f i CashChanger.obj
 0001:0000c284       ?AddRef@?$CComContainedObject@VCOPOSCashChanger@@@ATL@@WPA@EAAKXZ 000000018000d284 f i CashChanger.obj
 0001:0000c290       ?AddRef@?$CComContainedObject@VCOPOSCashChanger@@@ATL@@WPI@EAAKXZ 000000018000d290 f i CashChanger.obj
 0001:0000c2a0       ?AddRef@?$CComObject@V?$CComEnum@UIEnumConnectionPoints@@$1?_GUID_b196b285_bab4_101a_b69c_00aa00341d07@@3U__s_GUID@@BPEAUIConnectionPoint@@V?$_CopyInterface@UIConnectionPoint@@@ATL@@VCComSingleThreadModel@6@@ATL@@@ATL@@UEAAKXZ 000000018000d2a0 f i CashChanger.obj
 0001:0000c2e0       ?AddRef@?$CComObject@V?$CComEnum@UIEnumConnections@@$1?_GUID_b196b287_bab4_101a_b69c_00aa00341d07@@3U__s_GUID@@BUtagCONNECTDATA@@V?$_Copy@UtagCONNECTDATA@@@ATL@@VCComSingleThreadModel@6@@ATL@@@ATL@@UEAAKXZ 000000018000d2e0 f i CashChanger.obj
 0001:0000c320       ?AddRef@?$CComObject@VCOPOSCashChanger@@@ATL@@UEAAKXZ 000000018000d320 f i CashChanger.obj
 0001:0000c358       ?AddRef@?$CComObject@VCOPOSCashChanger@@@ATL@@WBAA@EAAKXZ 000000018000d358 f i CashChanger.obj
 0001:0000c364       ?AddRef@?$CComObject@VCOPOSCashChanger@@@ATL@@WBAI@EAAKXZ 000000018000d364 f i CashChanger.obj
 0001:0000c370       ?AddRef@?$CComObject@VCOPOSCashChanger@@@ATL@@WBBA@EAAKXZ 000000018000d370 f i CashChanger.obj
 0001:0000c37c       ?AddRef@?$CComObject@VCOPOSCashChanger@@@ATL@@WBBI@EAAKXZ 000000018000d37c f i CashChanger.obj
 0001:0000c388       ?AddRef@?$CComObject@VCOPOSCashChanger@@@ATL@@WBCI@EAAKXZ 000000018000d388 f i CashChanger.obj
 0001:0000c394       ?AddRef@?$CComObject@VCOPOSCashChanger@@@ATL@@WBEA@EAAKXZ 000000018000d394 f i CashChanger.obj
 0001:0000c3a0       ?AddRef@?$CComObject@VCOPOSCashChanger@@@ATL@@WLI@EAAKXZ 000000018000d3a0 f i CashChanger.obj
 0001:0000c3ac       ?AddRef@?$CComObject@VCOPOSCashChanger@@@ATL@@WMA@EAAKXZ 000000018000d3ac f i CashChanger.obj
 0001:0000c3b8       ?AddRef@?$CComObject@VCOPOSCashChanger@@@ATL@@WMI@EAAKXZ 000000018000d3b8 f i CashChanger.obj
 0001:0000c3c4       ?AddRef@?$CComObject@VCOPOSCashChanger@@@ATL@@WNA@EAAKXZ 000000018000d3c4 f i CashChanger.obj
 0001:0000c3d0       ?AddRef@?$CComObject@VCOPOSCashChanger@@@ATL@@WNI@EAAKXZ 000000018000d3d0 f i CashChanger.obj
 0001:0000c3dc       ?AddRef@?$CComObject@VCOPOSCashChanger@@@ATL@@WOA@EAAKXZ 000000018000d3dc f i CashChanger.obj
 0001:0000c3e8       ?AddRef@?$CComObject@VCOPOSCashChanger@@@ATL@@WOI@EAAKXZ 000000018000d3e8 f i CashChanger.obj
 0001:0000c3f4       ?AddRef@?$CComObject@VCOPOSCashChanger@@@ATL@@WPA@EAAKXZ 000000018000d3f4 f i CashChanger.obj
 0001:0000c400       ?AddRef@?$CComObject@VCOPOSCashChanger@@@ATL@@WPI@EAAKXZ 000000018000d400 f i CashChanger.obj
 0001:0000c410       ?AddRef@?$CComObjectCached@VCComClassFactory@ATL@@@ATL@@UEAAKXZ 000000018000d410 f i CashChanger.obj
 0001:0000c470       ?AddRef@CRegObject@ATL@@UEAAKXZ 000000018000d470 f i CashChanger.obj
 0001:0000c4e0       ?AddReplacement@CRegObject@ATL@@UEAAJPEB_W0@Z 000000018000d4e0 f i CashChanger.obj
 0001:0000c610       ?AddString@CParseBuffer@CRegParser@ATL@@QEAAHPEB_W@Z 000000018000d610 f i CashChanger.obj
 0001:0000c700       ?AddTermFunc@CAtlModule@ATL@@QEAAJP6AX_K@Z0@Z 000000018000d700 f i CashChanger.obj
 0001:0000c770       ?AddValue@CRegParser@ATL@@IEAAJAEAVCRegKey@2@PEB_WPEA_W@Z 000000018000d770 f i CashChanger.obj
 0001:0000d040       ?Advise@?$CProxy_IOPOSEvents@VCOPOSCashChanger@@@@UEAAJPEAUIUnknown@@PEAK@Z 000000018000e040 f i CashChanger.obj
 0001:0000d0b0       ?Advise@?$IConnectionPointImpl@VCOPOSCashChanger@@$1?DIID__IOPOSCashChangerEvents@@3U_GUID@@BVCComDynamicUnkArray@ATL@@@ATL@@UEAAJPEAUIUnknown@@PEAK@Z 000000018000e0b0 f i CashChanger.obj
 0001:0000d2b0       ?Advise@?$IConnectionPointImpl@VCOPOSCashChanger@@$1?IID_IPropertyNotifySink@@3U_GUID@@BVCComDynamicUnkArray@ATL@@@ATL@@UEAAJPEAUIUnknown@@PEAK@Z 000000018000e2b0 f i CashChanger.obj
 0001:0000d4b0       ?Advise@?$IOleObjectImpl@VCOPOSCashChanger@@@ATL@@UEAAJPEAUIAdviseSink@@PEAK@Z 000000018000e4b0 f i CashChanger.obj
 0001:0000d570       ?Allocate@?$CAtlSafeAllocBufferManager@VCCRTAllocator@ATL@@@_ATL_SAFE_ALLOCA_IMPL@ATL@@QEAAPEAX_K@Z 000000018000e570 f i CashChanger.obj
 0001:0000d5f0       ?Allocate@?$CTempBuffer@E$0BAA@VCCRTAllocator@ATL@@@ATL@@QEAAPEAE_K@Z 000000018000e5f0 f i CashChanger.obj
 0001:0000d640       ?Allocate@?$CTempBuffer@_W$0BAA@VCCRTAllocator@ATL@@@ATL@@QEAAPEA_W_K@Z 000000018000e640 f i CashChanger.obj
 0001:0000d690       ?Allocate@?$CTempBuffer@_W$0EAA@VCCRTAllocator@ATL@@@ATL@@QEAAPEA_W_K@Z 000000018000e690 f i CashChanger.obj
 0001:0000d6e0       ?AllocateBytes@?$CTempBuffer@E$0BAA@VCCRTAllocator@ATL@@@ATL@@QEAAPEAE_K@Z 000000018000e6e0 f i CashChanger.obj
 0001:0000d790       ?AllocateBytes@?$CTempBuffer@_W$0BAA@VCCRTAllocator@ATL@@@ATL@@QEAAPEA_W_K@Z 000000018000e790 f i CashChanger.obj
 0001:0000d840       ?AllocateBytes@?$CTempBuffer@_W$0EAA@VCCRTAllocator@ATL@@@ATL@@QEAAPEA_W_K@Z 000000018000e840 f i CashChanger.obj
 0001:0000d8f0       ?AllocateHeap@?$CTempBuffer@E$0BAA@VCCRTAllocator@ATL@@@ATL@@AEAAX_K@Z 000000018000e8f0 f i CashChanger.obj
 0001:0000d950       ?AllocateHeap@?$CTempBuffer@_W$0BAA@VCCRTAllocator@ATL@@@ATL@@AEAAX_K@Z 000000018000e950 f i CashChanger.obj
 0001:0000d9b0       ?AllocateHeap@?$CTempBuffer@_W$0EAA@VCCRTAllocator@ATL@@@ATL@@AEAAX_K@Z 000000018000e9b0 f i CashChanger.obj
 0001:0000da10       ?Append@CParseBuffer@CRegParser@ATL@@QEAAHPEB_WH@Z 000000018000ea10 f i CashChanger.obj
 0001:0000dc40       ?AtlCallTermFunc@ATL@@YAXPEAU_ATL_MODULE70@1@@Z 000000018000ec40 f i CashChanger.obj
 0001:0000dcf0       ?AtlCoTaskMemCAlloc@ATL@@YAPEAXKK@Z 000000018000ecf0 f i CashChanger.obj
 0001:0000dd70       ?AtlCoTaskMemRecalloc@ATL@@YAPEAXPEAXKK@Z 000000018000ed70 f i CashChanger.obj
 0001:0000ddf0       ?AtlComModuleGetClassObject@ATL@@YAJPEAU_ATL_COM_MODULE70@1@AEBU_GUID@@1PEAPEAX@Z 000000018000edf0 f i CashChanger.obj
 0001:0000e120       ?AtlComModuleRegisterServer@ATL@@YAJPEAU_ATL_COM_MODULE70@1@HPEBU_GUID@@@Z 000000018000f120 f i CashChanger.obj
 0001:0000e320       ?AtlComModuleUnregisterServer@ATL@@YAJPEAU_ATL_COM_MODULE70@1@HPEBU_GUID@@@Z 000000018000f320 f i CashChanger.obj
 0001:0000e480       ?AtlComQIPtrAssign2@ATL@@YAXPEAPEAUIUnknown@@PEAU2@AEBU_GUID@@@Z 000000018000f480 f i CashChanger.obj
 0001:0000e510       ?AtlCreateTargetDC@ATL@@YAPEAUHDC__@@PEAU2@PEAUtagDVTARGETDEVICE@@@Z 000000018000f510 f i CashChanger.obj
 0001:0000e740       ?AtlCrtErrorCheck@ATL@@YAHH@Z 000000018000f740 f i CashChanger.obj
 0001:0000e7c0       ?AtlGetPerUserRegistration@ATL@@YAJPEA_N@Z 000000018000f7c0 f i CashChanger.obj
 0001:0000e7f0       ?AtlHiMetricToPixel@ATL@@YAXPEBUtagSIZE@@PEAU2@@Z 000000018000f7f0 f i CashChanger.obj
 0001:0000e9f0       ?AtlHresultFromLastError@ATL@@YAJXZ 000000018000f9f0 f i CashChanger.obj
 0001:0000ea20       ?AtlHresultFromWin32@ATL@@YAJK@Z 000000018000fa20 f i CashChanger.obj
 0001:0000ea50       ?AtlIPersistStreamInit_Load@ATL@@YAJPEAUIStream@@PEBUATL_PROPMAP_ENTRY@1@PEAXPEAUIUnknown@@@Z 000000018000fa50 f i CashChanger.obj
 0001:0000f0c0       ?AtlIPersistStreamInit_Save@ATL@@YAJPEAUIStream@@HPEBUATL_PROPMAP_ENTRY@1@PEAXPEAUIUnknown@@@Z 00000001800100c0 f i CashChanger.obj
 0001:0000f650       ?AtlInternalOleLoadFromStream@ATL@@YAJPEAUIStream@@AEBU_GUID@@PEAPEAXTClassesAllowedInStream@1@K@Z 0000000180010650 f i CashChanger.obj
 0001:0000f990       ?AtlInternalQueryInterface@ATL@@YAJPEAXPEBU_ATL_INTMAP_ENTRY@1@AEBU_GUID@@PEAPEAX@Z 0000000180010990 f i CashChanger.obj
 0001:0000fc50       ?AtlLoadTypeLib@ATL@@YAJPEAUHINSTANCE__@@PEB_WPEAPEA_WPEAPEAUITypeLib@@@Z 0000000180010c50 f i CashChanger.obj
 0001:00010120       ?AtlModuleAddTermFunc@ATL@@YAJPEAU_ATL_MODULE70@1@P6AX_K@Z1@Z 0000000180011120 f i CashChanger.obj
 0001:000102f0       ?AtlRegisterClassCategoriesHelper@ATL@@YAJAEBU_GUID@@PEBU_ATL_CATMAP_ENTRY@1@H@Z 00000001800112f0 f i CashChanger.obj
 0001:00010ac0       ?AtlRegisterTypeLib@ATL@@YAJPEAUHINSTANCE__@@PEB_W@Z 0000000180011ac0 f i CashChanger.obj
 0001:00010e20       ?AtlThrowImpl@ATL@@YAXJ@Z  0000000180011e20 f i CashChanger.obj
 0001:00010f00       ?AtlUnRegisterTypeLib@ATL@@YAJPEAUHINSTANCE__@@PEB_W@Z 0000000180011f00 f i CashChanger.obj
 0001:00011130       ?AtlWinModuleAddCreateWndData@ATL@@YAXPEAU_ATL_WIN_MODULE70@1@PEAU_AtlCreateWndData@1@PEAX@Z 0000000180012130 f i CashChanger.obj
 0001:00011320       ?AtlWinModuleExtractCreateWndData@ATL@@YAPEAXPEAU_ATL_WIN_MODULE70@1@@Z 0000000180012320 f i CashChanger.obj
 0001:00011520       ?AtlWinModuleRegisterClassExW@ATL@@YAGPEAU_ATL_WIN_MODULE70@1@PEBUtagWNDCLASSEXW@@@Z 0000000180012520 f i CashChanger.obj
 0001:000115f0       ?AtlWinModuleRegisterWndClassInfoW@ATL@@YAGPEAU_ATL_WIN_MODULE70@1@PEAU_ATL_BASE_MODULE70@1@PEAU_ATL_WNDCLASSINFOW@1@PEAP6A_JPEAUHWND__@@I_K_J@Z@Z 00000001800125f0 f i CashChanger.obj
 0001:00011660       ?Attach@?$CAutoVectorPtr@_W@ATL@@QEAAXPEA_W@Z 0000000180012660 f i CashChanger.obj
 0001:000116f0       ?Attach@CComBSTR@ATL@@QEAAXPEA_W@Z 00000001800126f0 f i CashChanger.obj
 0001:00011750       ?Attach@CRegKey@ATL@@QEAAXPEAUHKEY__@@@Z 0000000180012750 f i CashChanger.obj
 0001:000117f0       ?CanForceRemoveKey@CRegParser@ATL@@IEAAHPEB_W@Z 00000001800127f0 f i CashChanger.obj
 0001:00011860       ?ChToByte@CRegParser@ATL@@KAE_W@Z 0000000180012860 f i CashChanger.obj
 0001:000119c0       ?ChangeType@CComVariant@ATL@@QEAAJGPEBUtagVARIANT@@@Z 00000001800129c0 f i CashChanger.obj
 0001:00011a30       ?Cleanup@CComTypeInfoHolder@ATL@@SAX_K@Z 0000000180012a30 f i CashChanger.obj
 0001:00011b20       ?Clear@CComVariant@ATL@@QEAAJXZ 0000000180012b20 f i CashChanger.obj
 0001:00011b50       ?ClearReplacements@CExpansionVector@ATL@@QEAAJXZ 0000000180012b50 f i CashChanger.obj
 0001:00011bf0       ?ClearReplacements@CRegObject@ATL@@UEAAJXZ 0000000180012bf0 f i CashChanger.obj
 0001:00011c50       ?Clone@?$CComEnumImpl@UIEnumConnectionPoints@@$1?_GUID_b196b285_bab4_101a_b69c_00aa00341d07@@3U__s_GUID@@BPEAUIConnectionPoint@@V?$_CopyInterface@UIConnectionPoint@@@ATL@@@ATL@@UEAAJPEAPEAUIEnumConnectionPoints@@@Z 0000000180012c50 f i CashChanger.obj
 0001:00011e40       ?Clone@?$CComEnumImpl@UIEnumConnections@@$1?_GUID_b196b287_bab4_101a_b69c_00aa00341d07@@3U__s_GUID@@BUtagCONNECTDATA@@V?$_Copy@UtagCONNECTDATA@@@ATL@@@ATL@@UEAAJPEAPEAUIEnumConnections@@@Z 0000000180012e40 f i CashChanger.obj
 0001:00012030       ?Close@?$IOleObjectImpl@VCOPOSCashChanger@@@ATL@@UEAAJK@Z 0000000180013030 f i CashChanger.obj
 0001:000120e0       ?Close@CRegKey@ATL@@QEAAJXZ 00000001800130e0 f i CashChanger.obj
 0001:00012150       ?ContextSensitiveHelp@?$IOleInPlaceActiveObjectImpl@VCOPOSCashChanger@@@ATL@@UEAAJH@Z 0000000180013150 f i CashChanger.obj
 0001:000121d0       ?ContextSensitiveHelp@?$IOleInPlaceObjectWindowlessImpl@VCOPOSCashChanger@@@ATL@@UEAAJH@Z 00000001800131d0 f i CashChanger.obj
 0001:00012250       ?ControlQueryInterface@?$CComControl@VCOPOSCashChanger@@V?$CWindowImpl@VCOPOSCashChanger@@VCWindow@ATL@@V?$CWinTraits@$0FGAAAAAA@$0A@@3@@ATL@@@ATL@@UEAAJAEBU_GUID@@PEAPEAX@Z 0000000180013250 f i CashChanger.obj
 0001:000122e0       ?CreateControlWindow@?$CComControl@VCOPOSCashChanger@@V?$CWindowImpl@VCOPOSCashChanger@@VCWindow@ATL@@V?$CWinTraits@$0FGAAAAAA@$0A@@3@@ATL@@@ATL@@UEAAPEAUHWND__@@PEAU3@AEAUtagRECT@@@Z 00000001800132e0 f i CashChanger.obj
 0001:000123d0       ?CreateInstance@?$CComCreator@V?$CComAggObject@VCOPOSCashChanger@@@ATL@@@ATL@@SAJPEAXAEBU_GUID@@PEAPEAX@Z 00000001800133d0 f i CashChanger.obj
 0001:000125b0       ?CreateInstance@?$CComCreator@V?$CComObject@VCOPOSCashChanger@@@ATL@@@ATL@@SAJPEAXAEBU_GUID@@PEAPEAX@Z 00000001800135b0 f i CashChanger.obj
 0001:000127b0       ?CreateInstance@?$CComObject@V?$CComEnum@UIEnumConnectionPoints@@$1?_GUID_b196b285_bab4_101a_b69c_00aa00341d07@@3U__s_GUID@@BPEAUIConnectionPoint@@V?$_CopyInterface@UIConnectionPoint@@@ATL@@VCComSingleThreadModel@6@@ATL@@@ATL@@SAJPEAPEAV12@@Z 00000001800137b0 f i CashChanger.obj
 0001:00012970       ?CreateInstance@?$CComObject@V?$CComEnum@UIEnumConnections@@$1?_GUID_b196b287_bab4_101a_b69c_00aa00341d07@@3U__s_GUID@@BUtagCONNECTDATA@@V?$_Copy@UtagCONNECTDATA@@@ATL@@VCComSingleThreadModel@6@@ATL@@@ATL@@SAJPEAPEAV12@@Z 0000000180013970 f i CashChanger.obj
 0001:00012b30       ?CreateInstance@CComClassFactory@ATL@@UEAAJPEAUIUnknown@@AEBU_GUID@@PEAPEAX@Z 0000000180013b30 f i CashChanger.obj
 0001:00012c50       ?DAdvise@?$IDataObjectImpl@VCOPOSCashChanger@@@ATL@@UEAAJPEAUtagFORMATETC@@KPEAUIAdviseSink@@PEAK@Z 0000000180013c50 f i CashChanger.obj
 0001:00012db0       ?DEVMODEOLE2T_EX@@YAPEAU_devicemodeW@@PEAU1@@Z 0000000180013db0 f i CashChanger.obj
 0001:00012dc0       ?DUnadvise@?$IDataObjectImpl@VCOPOSCashChanger@@@ATL@@UEAAJK@Z 0000000180013dc0 f i CashChanger.obj
 0001:00012ec0       ?Decrement@CComMultiThreadModel@ATL@@SAKPEAJ@Z 0000000180013ec0 f i CashChanger.obj
 0001:00012ee0       ?Decrement@CComSingleThreadModel@ATL@@SAKPEAJ@Z 0000000180013ee0 f i CashChanger.obj
 0001:00012f00       ?DefWindowProcW@?$CWindowImplBaseT@VCWindow@ATL@@V?$CWinTraits@$0FGAAAAAA@$0A@@2@@ATL@@QEAA_JI_K_J@Z 0000000180013f00 f i CashChanger.obj
 0001:00012f60       ?DefaultReflectionHandler@?$CWindowImplRoot@VCWindow@ATL@@@ATL@@SAHPEAUHWND__@@I_K_JAEA_J@Z 0000000180013f60 f i CashChanger.obj
 0001:00013050       ?DeleteSubKey@CRegKey@ATL@@QEAAJPEB_W@Z 0000000180014050 f i CashChanger.obj
 0001:00013180       ?DeleteValue@CRegKey@ATL@@QEAAJPEB_W@Z 0000000180014180 f i CashChanger.obj
 0001:00013210       ?Detach@?$CAutoVectorPtr@_W@ATL@@QEAAPEA_WXZ 0000000180014210 f i CashChanger.obj
 0001:00013250       ?Detach@?$CComPtrBase@UIPersistStream@@@ATL@@QEAAPEAUIPersistStream@@XZ 0000000180014250 f i CashChanger.obj
 0001:00013290       ?Detach@?$CComPtrBase@UITypeInfo@@@ATL@@QEAAPEAUITypeInfo@@XZ 0000000180014290 f i CashChanger.obj
 0001:000132d0       ?Detach@?$CComPtrBase@UIUnknown@@@ATL@@QEAAPEAUIUnknown@@XZ 00000001800142d0 f i CashChanger.obj
 0001:00013310       ?Detach@CComBSTR@ATL@@QEAAPEA_WXZ 0000000180014310 f i CashChanger.obj
 0001:00013350       ?Detach@CParseBuffer@CRegParser@ATL@@QEAAPEA_WXZ 0000000180014350 f i CashChanger.obj
 0001:000133b0       ?Detach@CRegKey@ATL@@QEAAPEAUHKEY__@@XZ 00000001800143b0 f i CashChanger.obj
 0001:00013410       ?DoEvent@COPOSCashChanger@@IEAAXI_K_J@Z 0000000180014410 f i CashChanger.obj
 0001:00013550       ?DoVerb@?$IOleObjectImpl@VCOPOSCashChanger@@@ATL@@UEAAJJPEAUtagMSG@@PEAUIOleClientSite@@JPEAUHWND__@@PEBUtagRECT@@@Z 0000000180014550 f i CashChanger.obj
 0001:00013860       ?DoVerbDiscardUndo@?$IOleObjectImpl@VCOPOSCashChanger@@@ATL@@QEAAJPEBUtagRECT@@PEAUHWND__@@@Z 0000000180014860 f i CashChanger.obj
 0001:00013900       ?DoVerbHide@?$IOleObjectImpl@VCOPOSCashChanger@@@ATL@@QEAAJPEBUtagRECT@@PEAUHWND__@@@Z 0000000180014900 f i CashChanger.obj
 0001:000139e0       ?DoVerbInPlaceActivate@?$IOleObjectImpl@VCOPOSCashChanger@@@ATL@@QEAAJPEBUtagRECT@@PEAUHWND__@@@Z 00000001800149e0 f i CashChanger.obj
 0001:00013ac0       ?DoVerbOpen@?$IOleObjectImpl@VCOPOSCashChanger@@@ATL@@QEAAJPEBUtagRECT@@PEAUHWND__@@@Z 0000000180014ac0 f i CashChanger.obj
 0001:00013b60       ?DoVerbPrimary@?$IOleObjectImpl@VCOPOSCashChanger@@@ATL@@QEAAJPEBUtagRECT@@PEAUHWND__@@@Z 0000000180014b60 f i CashChanger.obj
 0001:00013ca0       ?DoVerbProperties@CComControlBase@ATL@@QEAAJPEBUtagRECT@@PEAUHWND__@@@Z 0000000180014ca0 f i CashChanger.obj
 0001:00014050       ?DoVerbShow@?$IOleObjectImpl@VCOPOSCashChanger@@@ATL@@QEAAJPEBUtagRECT@@PEAUHWND__@@@Z 0000000180015050 f i CashChanger.obj
 0001:00014110       ?DoVerbUIActivate@?$IOleObjectImpl@VCOPOSCashChanger@@@ATL@@QEAAJPEBUtagRECT@@PEAUHWND__@@@Z 0000000180015110 f i CashChanger.obj
 0001:000141f0       ?DoesVerbActivate@CComControlBase@ATL@@QEAAHJ@Z 00000001800151f0 f i CashChanger.obj
 0001:00014250       ?DoesVerbUIActivate@CComControlBase@ATL@@QEAAHJ@Z 0000000180015250 f i CashChanger.obj
 0001:000142d0       ?Draw@?$IViewObjectExImpl@VCOPOSCashChanger@@@ATL@@UEAAJKJPEAXPEAUtagDVTARGETDEVICE@@PEAUHDC__@@2PEBU_RECTL@@3P6AH_K@Z4@Z 00000001800152d0 f i CashChanger.obj
 0001:000143f0       ?Empty@CComBSTR@ATL@@QEAAXXZ 00000001800153f0 f i CashChanger.obj
 0001:00014430       ?EnableModeless@?$IOleInPlaceActiveObjectImpl@VCOPOSCashChanger@@@ATL@@UEAAJH@Z 0000000180015430 f i CashChanger.obj
 0001:000144a0       ?EndOfVar@CRegParser@ATL@@IEAAHXZ 00000001800154a0 f i CashChanger.obj
 0001:00014500       ?EnsureTI@CComTypeInfoHolder@ATL@@QEAAJK@Z 0000000180015500 f i CashChanger.obj
 0001:00014560       ?EnumAdvise@?$IOleObjectImpl@VCOPOSCashChanger@@@ATL@@UEAAJPEAPEAUIEnumSTATDATA@@@Z 0000000180015560 f i CashChanger.obj
 0001:000146c0       ?EnumConnectionPoints@?$IConnectionPointContainerImpl@VCOPOSCashChanger@@@ATL@@UEAAJPEAPEAUIEnumConnectionPoints@@@Z 00000001800156c0 f i CashChanger.obj
 0001:00014bb0       ?EnumConnections@?$IConnectionPointImpl@VCOPOSCashChanger@@$1?DIID__IOPOSCashChangerEvents@@3U_GUID@@BVCComDynamicUnkArray@ATL@@@ATL@@UEAAJPEAPEAUIEnumConnections@@@Z 0000000180015bb0 f i CashChanger.obj
 0001:00014f00       ?EnumConnections@?$IConnectionPointImpl@VCOPOSCashChanger@@$1?IID_IPropertyNotifySink@@3U_GUID@@BVCComDynamicUnkArray@ATL@@@ATL@@UEAAJPEAPEAUIEnumConnections@@@Z 0000000180015f00 f i CashChanger.obj
 0001:00015250       ?EnumDAdvise@?$IDataObjectImpl@VCOPOSCashChanger@@@ATL@@UEAAJPEAPEAUIEnumSTATDATA@@@Z 0000000180016250 f i CashChanger.obj
 0001:000153a0       ?EnumFormatEtc@?$IDataObjectImpl@VCOPOSCashChanger@@@ATL@@UEAAJKPEAPEAUIEnumFORMATETC@@@Z 00000001800163a0 f i CashChanger.obj
 0001:00015430       ?EnumVerbs@?$IOleObjectImpl@VCOPOSCashChanger@@@ATL@@UEAAJPEAPEAUIEnumOLEVERB@@@Z 0000000180016430 f i CashChanger.obj
 0001:00015500       ?EscapeSingleQuote@CAtlModule@ATL@@SAXPEA_W_KPEB_W@Z 0000000180016500 f i CashChanger.obj
 0001:00015600       ?ExtractCreateWndData@CAtlWinModule@ATL@@QEAAPEAXXZ 0000000180016600 f i CashChanger.obj
 0001:00015630       ?FAccessAllowed@?$IObjectSafetyImpl@VCOPOSCashChanger@@$02@ATL@@MEAAHXZ 0000000180016630 f i CashChanger.obj
 0001:00015640       ?FinalConstruct@?$CComAggObject@VCOPOSCashChanger@@@ATL@@QEAAJXZ 0000000180016640 f i CashChanger.obj
 0001:00015690       ?FinalConstruct@CComObjectRootBase@ATL@@QEAAJXZ 0000000180016690 f i CashChanger.obj
 0001:000156a0       ?FinalConstruct@CRegObject@ATL@@QEAAJXZ 00000001800166a0 f i CashChanger.obj
 0001:000156e0       ?FinalRelease@?$CComAggObject@VCOPOSCashChanger@@@ATL@@QEAAXXZ 00000001800166e0 f i CashChanger.obj
 0001:00015730       ?FinalRelease@CComObjectRootBase@ATL@@QEAAXXZ 0000000180016730 f i CashChanger.obj
 0001:00015740       ?FindConnectionPoint@?$IConnectionPointContainerImpl@VCOPOSCashChanger@@@ATL@@UEAAJAEBU_GUID@@PEAPEAUIConnectionPoint@@@Z 0000000180016740 f i CashChanger.obj
 0001:000158b0       ?FindKey@?$CSimpleMap@PEA_WPEA_WVCExpansionVectorEqualHelper@ATL@@@ATL@@QEBAHAEBQEA_W@Z 00000001800168b0 f i CashChanger.obj
 0001:00015930       ?FireTheEvent@?$CProxy_IOPOSEvents@VCOPOSCashChanger@@@@IEAAXPEAUIUnknown@@PEAVOposVariant@@IAEAJPEB_WJ@Z 0000000180016930 f i CashChanger.obj
 0001:00015b10       ?FireViewChange@CComControlBase@ATL@@QEAAJXZ 0000000180016b10 f i CashChanger.obj
 0001:00015bf0       ?Fire_DataEvent@?$CProxy_IOPOSEvents@VCOPOSCashChanger@@@@QEAAXJ@Z 0000000180016bf0 f i CashChanger.obj
 0001:00015de0       ?Fire_DirectIOEvent@?$CProxy_IOPOSEvents@VCOPOSCashChanger@@@@QEAAXJPEAJPEAPEA_W@Z 0000000180016de0 f i CashChanger.obj
 0001:00016070       ?Fire_StatusUpdateEvent@?$CProxy_IOPOSEvents@VCOPOSCashChanger@@@@QEAAXJ@Z 0000000180017070 f i CashChanger.obj
 0001:00016260       ?FormatWindowClassName@AtlModuleRegisterWndClassInfoParamW@ATL@@SAXPEA_WKPEAX@Z 0000000180017260 f i CashChanger.obj
 0001:000162b0       ?Free@?$CAutoVectorPtr@_W@ATL@@QEAAXXZ 00000001800172b0 f i CashChanger.obj
 0001:00016300       ?FreeHeap@?$CTempBuffer@E$0BAA@VCCRTAllocator@ATL@@@ATL@@AEAAXXZ 0000000180017300 f i CashChanger.obj
 0001:00016340       ?FreeHeap@?$CTempBuffer@_W$0BAA@VCCRTAllocator@ATL@@@ATL@@AEAAXXZ 0000000180017340 f i CashChanger.obj
 0001:00016380       ?FreeHeap@?$CTempBuffer@_W$0EAA@VCCRTAllocator@ATL@@@ATL@@AEAAXXZ 0000000180017380 f i CashChanger.obj
 0001:000163c0       ?Freeze@?$IViewObjectExImpl@VCOPOSCashChanger@@@ATL@@UEAAJKJPEAXPEAK@Z 00000001800173c0 f i CashChanger.obj
 0001:00016450       ?GenerateError@CRegParser@ATL@@IEAAJI@Z 0000000180017450 f i CashChanger.obj
 0001:00016470       ?GetAdvise@?$IViewObjectExImpl@VCOPOSCashChanger@@@ATL@@UEAAJPEAK0PEAPEAUIAdviseSink@@@Z 0000000180017470 f i CashChanger.obj
 0001:000165c0       ?GetAmbientLocaleID@CComControlBase@ATL@@QEAAJAEAK@Z 00000001800175c0 f i CashChanger.obj
 0001:000166a0       ?GetAmbientProperty@CComControlBase@ATL@@QEAAJJAEAUtagVARIANT@@@Z 00000001800176a0 f i CashChanger.obj
 0001:00016710       ?GetAmbientUserMode@CComControlBase@ATL@@QEAAJAEAH@Z 0000000180017710 f i CashChanger.obj
 0001:00016830       ?GetAppId@?$CAtlModuleT@VCComModule@ATL@@@ATL@@SAPEB_WXZ 0000000180017830 f i CashChanger.obj
 0001:00016840       ?GetAt@CComDynamicUnkArray@ATL@@QEAAPEAUIUnknown@@H@Z 0000000180017840 f i CashChanger.obj
 0001:000168f0       ?GetCanonicalFormatEtc@?$IDataObjectImpl@VCOPOSCashChanger@@@ATL@@UEAAJPEAUtagFORMATETC@@0@Z 00000001800178f0 f i CashChanger.obj
 0001:00016980       ?GetClassID@?$IPersistStorageImpl@VCOPOSCashChanger@@@ATL@@UEAAJPEAU_GUID@@@Z 0000000180017980 f i CashChanger.obj
 0001:00016a20       ?GetClassID@?$IPersistStreamInitImpl@VCOPOSCashChanger@@@ATL@@UEAAJPEAU_GUID@@@Z 0000000180017a20 f i CashChanger.obj
 0001:00016ac0       ?GetClassInfoExW@AtlModuleRegisterWndClassInfoParamW@ATL@@SAHPEAUHINSTANCE__@@PEB_WPEAUtagWNDCLASSEXW@@@Z 0000000180017ac0 f i CashChanger.obj
 0001:00016b10       ?GetClassInfoW@?$IProvideClassInfo2Impl@$1?CLSID_OPOSCashChanger@@3U_GUID@@B$1?DIID__IOPOSCashChangerEvents@@3U2@B$1?LIBID_OposCashChanger_CCO@@3U2@B$00$0A@VCComTypeInfoHolder@ATL@@@ATL@@UEAAJPEAPEAUITypeInfo@@@Z 0000000180017b10 f i CashChanger.obj
 0001:00016b50       ?GetClassObject@CComModule@ATL@@QEAAJAEBU_GUID@@0PEAPEAX@Z 0000000180017b50 f i CashChanger.obj
 0001:00016dc0       ?GetClientSite@?$IOleObjectImpl@VCOPOSCashChanger@@@ATL@@UEAAJPEAPEAUIOleClientSite@@@Z 0000000180017dc0 f i CashChanger.obj
 0001:00016e70       ?GetClipboardData@?$IOleObjectImpl@VCOPOSCashChanger@@@ATL@@UEAAJKPEAPEAUIDataObject@@@Z 0000000180017e70 f i CashChanger.obj
 0001:00016f00       ?GetCodeAddress@CDynamicStdCallThunk2@ATL@@QEAAPEAXXZ 0000000180017f00 f i CashChanger.obj
 0001:00016f40       ?GetColorSet@?$IViewObjectExImpl@VCOPOSCashChanger@@@ATL@@UEAAJKJPEAXPEAUtagDVTARGETDEVICE@@PEAUHDC__@@PEAPEAUtagLOGPALETTE@@@Z 0000000180017f40 f i CashChanger.obj
 0001:00016fd0       ?GetConnMap@COPOSCashChanger@@SAPEBU_ATL_CONNMAP_ENTRY@ATL@@PEAH@Z 0000000180017fd0 f i CashChanger.obj
 0001:00017130       ?GetConnectionInterface@?$IConnectionPointImpl@VCOPOSCashChanger@@$1?DIID__IOPOSCashChangerEvents@@3U_GUID@@BVCComDynamicUnkArray@ATL@@@ATL@@UEAAJPEAU_GUID@@@Z 0000000180018130 f i CashChanger.obj
 0001:00017170       ?GetConnectionInterface@?$IConnectionPointImpl@VCOPOSCashChanger@@$1?IID_IPropertyNotifySink@@3U_GUID@@BVCComDynamicUnkArray@ATL@@@ATL@@UEAAJPEAU_GUID@@@Z 0000000180018170 f i CashChanger.obj
 0001:000171b0       ?GetConnectionPointContainer@?$IConnectionPointImpl@VCOPOSCashChanger@@$1?DIID__IOPOSCashChangerEvents@@3U_GUID@@BVCComDynamicUnkArray@ATL@@@ATL@@UEAAJPEAPEAUIConnectionPointContainer@@@Z 00000001800181b0 f i CashChanger.obj
 0001:00017230       ?GetConnectionPointContainer@?$IConnectionPointImpl@VCOPOSCashChanger@@$1?IID_IPropertyNotifySink@@3U_GUID@@BVCComDynamicUnkArray@ATL@@@ATL@@UEAAJPEAPEAUIConnectionPointContainer@@@Z 0000000180018230 f i CashChanger.obj
 0001:000172b0       ?GetContentExtent@?$IQuickActivateImpl@VCOPOSCashChanger@@@ATL@@UEAAJPEAUtagSIZE@@@Z 00000001800182b0 f i CashChanger.obj
 0001:00017370       ?GetControlInfo@?$IOleControlImpl@VCOPOSCashChanger@@@ATL@@UEAAJPEAUtagCONTROLINFO@@@Z 0000000180018370 f i CashChanger.obj
 0001:00017400       ?GetCookie@CComDynamicUnkArray@ATL@@QEAAKPEAPEAUIUnknown@@@Z 0000000180018400 f i CashChanger.obj
 0001:000174f0       ?GetData@?$IDataObjectImpl@VCOPOSCashChanger@@@ATL@@UEAAJPEAUtagFORMATETC@@PEAUtagSTGMEDIUM@@@Z 00000001800184f0 f i CashChanger.obj
 0001:000175b0       ?GetData@CAtlSafeAllocBufferNode@?$CAtlSafeAllocBufferManager@VCCRTAllocator@ATL@@@_ATL_SAFE_ALLOCA_IMPL@ATL@@QEAAPEAXXZ 00000001800185b0 f i CashChanger.obj
 0001:000175d0       ?GetDataHere@?$IDataObjectImpl@VCOPOSCashChanger@@@ATL@@UEAAJPEAUtagFORMATETC@@PEAUtagSTGMEDIUM@@@Z 00000001800185d0 f i CashChanger.obj
 0001:00017660       ?GetDropTarget@?$IOleInPlaceObjectWindowlessImpl@VCOPOSCashChanger@@@ATL@@UEAAJPEAPEAUIDropTarget@@@Z 0000000180018660 f i CashChanger.obj
 0001:000176f0       ?GetExtent@?$IOleObjectImpl@VCOPOSCashChanger@@@ATL@@UEAAJKPEAUtagSIZE@@@Z 00000001800186f0 f i CashChanger.obj
 0001:000177c0       ?GetExtent@?$IViewObjectExImpl@VCOPOSCashChanger@@@ATL@@UEAAJKJPEAUtagDVTARGETDEVICE@@PEAUtagSIZE@@@Z 00000001800187c0 f i CashChanger.obj
 0001:000178d0       ?GetGITPtr@CAtlModule@ATL@@UEAAJPEAPEAUIGlobalInterfaceTable@@@Z 00000001800188d0 f i CashChanger.obj
 0001:00017a10       ?GetGUID@?$IProvideClassInfo2Impl@$1?CLSID_OPOSCashChanger@@3U_GUID@@B$1?DIID__IOPOSCashChangerEvents@@3U2@B$1?LIBID_OposCashChanger_CCO@@3U2@B$00$0A@VCComTypeInfoHolder@ATL@@@ATL@@UEAAJKPEAU_GUID@@@Z 0000000180018a10 f i CashChanger.obj
 0001:00017a90       ?GetIDsOfNames@?$IDispatchImpl@UIOPOSCashChanger@@$1?IID_IOPOSCashChanger@@3U_GUID@@B$1?LIBID_OposCashChanger_CCO@@3U3@B$00$0A@VCComTypeInfoHolder@ATL@@@ATL@@UEAAJAEBU_GUID@@PEAPEA_WIKPEAJ@Z 0000000180018a90 f i CashChanger.obj
 0001:00017af0       ?GetIDsOfNames@CComTypeInfoHolder@ATL@@QEAAJAEBU_GUID@@PEAPEA_WIKPEAJ@Z 0000000180018af0 f i CashChanger.obj
 0001:00017d10       ?GetInterfaceSafetyOptions@?$IObjectSafetyImpl@VCOPOSCashChanger@@$02@ATL@@UEAAJAEBU_GUID@@PEAK1@Z 0000000180018d10 f i CashChanger.obj
 0001:00017eb0       ?GetKeyAt@?$CSimpleMap@PEA_WPEA_WVCExpansionVectorEqualHelper@ATL@@@ATL@@QEBAAEAPEA_WH@Z 0000000180018eb0 f i CashChanger.obj
 0001:00017f60       ?GetLockCount@CAtlModule@ATL@@UEAAJXZ 0000000180018f60 f i CashChanger.obj
 0001:00017f70       ?GetMiscStatus@?$IOleObjectImpl@VCOPOSCashChanger@@@ATL@@UEAAJKPEAK@Z 0000000180018f70 f i CashChanger.obj
 0001:00018000       ?GetMoniker@?$IOleObjectImpl@VCOPOSCashChanger@@@ATL@@UEAAJKKPEAPEAUIMoniker@@@Z 0000000180019000 f i CashChanger.obj
 0001:00018090       ?GetNaturalExtent@?$IViewObjectExImpl@VCOPOSCashChanger@@@ATL@@UEAAJKJPEAUtagDVTARGETDEVICE@@PEAUHDC__@@PEAUtagExtentInfo@@PEAUtagSIZE@@@Z 0000000180019090 f i CashChanger.obj
 0001:00018220       ?GetObjectCLSID@?$CComCoClass@VCOPOSCashChanger@@$1?CLSID_OPOSCashChanger@@3U_GUID@@B@ATL@@SAAEBU_GUID@@XZ 0000000180019220 f i CashChanger.obj
 0001:00018230       ?GetPages@?$ISpecifyPropertyPagesImpl@VCOPOSCashChanger@@@ATL@@UEAAJPEAUtagCAUUID@@@Z 0000000180019230 f i CashChanger.obj
 0001:000182c0       ?GetPagesHelper@?$ISpecifyPropertyPagesImpl@VCOPOSCashChanger@@@ATL@@IEAAJPEAUtagCAUUID@@PEBUATL_PROPMAP_ENTRY@2@@Z 00000001800192c0 f i CashChanger.obj
 0001:00018530       ?GetProperty@?$CComPtr@UIDispatch@@@ATL@@QEAAJJPEAUtagVARIANT@@@Z 0000000180019530 f i CashChanger.obj
 0001:00018580       ?GetProperty@?$CComPtr@UIDispatch@@@ATL@@SAJPEAUIDispatch@@JPEAUtagVARIANT@@@Z 0000000180019580 f i CashChanger.obj
 0001:00018750       ?GetPropertyMap@COPOSCashChanger@@SAPEBUATL_PROPMAP_ENTRY@ATL@@XZ 0000000180019750 f i CashChanger.obj
 0001:00018760       ?GetRect@?$IViewObjectExImpl@VCOPOSCashChanger@@@ATL@@UEAAJKPEAU_RECTL@@@Z 0000000180019760 f i CashChanger.obj
 0001:000187f0       ?GetSize@?$CSimpleMap@PEA_WPEA_WVCExpansionVectorEqualHelper@ATL@@@ATL@@QEBAHXZ 00000001800197f0 f i CashChanger.obj
 0001:00018800       ?GetSize@CComDynamicUnkArray@ATL@@QEBAHXZ 0000000180019800 f i CashChanger.obj
 0001:00018810       ?GetSizeMax@?$IPersistStreamInitImpl@VCOPOSCashChanger@@@ATL@@UEAAJPEAT_ULARGE_INTEGER@@@Z 0000000180019810 f i CashChanger.obj
 0001:00018fa0       ?GetSizeMax@CComVariant@ATL@@QEBAJPEAT_ULARGE_INTEGER@@@Z 0000000180019fa0 f i CashChanger.obj
 0001:000193d0       ?GetStreamSize@CComBSTR@ATL@@SAKPEA_W@Z 000000018001a3d0 f i CashChanger.obj
 0001:00019430       ?GetTI@CComTypeInfoHolder@ATL@@QEAAJK@Z 000000018001a430 f i CashChanger.obj
 0001:00019d00       ?GetTI@CComTypeInfoHolder@ATL@@QEAAJKPEAPEAUITypeInfo@@@Z 000000018001ad00 f i CashChanger.obj
 0001:00019df0       ?GetTypeInfo@?$IDispatchImpl@UIOPOSCashChanger@@$1?IID_IOPOSCashChanger@@3U_GUID@@B$1?LIBID_OposCashChanger_CCO@@3U3@B$00$0A@VCComTypeInfoHolder@ATL@@@ATL@@UEAAJIKPEAPEAUITypeInfo@@@Z 000000018001adf0 f i CashChanger.obj
 0001:00019e40       ?GetTypeInfo@CComTypeInfoHolder@ATL@@QEAAJIKPEAPEAUITypeInfo@@@Z 000000018001ae40 f i CashChanger.obj
 0001:00019ea0       ?GetTypeInfoCount@?$IDispatchImpl@UIOPOSCashChanger@@$1?IID_IOPOSCashChanger@@3U_GUID@@B$1?LIBID_OposCashChanger_CCO@@3U3@B$00$0A@VCComTypeInfoHolder@ATL@@@ATL@@UEAAJPEAI@Z 000000018001aea0 f i CashChanger.obj
 0001:00019ed0       ?GetUnknown@CComDynamicUnkArray@ATL@@QEAAPEAUIUnknown@@K@Z 000000018001aed0 f i CashChanger.obj
 0001:00019f80       ?GetUnknown@COPOSCashChanger@@QEAAPEAUIUnknown@@XZ 000000018001af80 f i CashChanger.obj
 0001:00019fb0       ?GetUserClassID@?$IOleObjectImpl@VCOPOSCashChanger@@@ATL@@UEAAJPEAU_GUID@@@Z 000000018001afb0 f i CashChanger.obj
 0001:0001a090       ?GetUserType@?$IOleObjectImpl@VCOPOSCashChanger@@@ATL@@UEAAJKPEAPEA_W@Z 000000018001b090 f i CashChanger.obj
 0001:0001a120       ?GetValueAt@?$CSimpleMap@PEA_WPEA_WVCExpansionVectorEqualHelper@ATL@@@ATL@@QEBAAEAPEA_WH@Z 000000018001b120 f i CashChanger.obj
 0001:0001a1d0       ?GetViewStatus@?$IViewObjectExImpl@VCOPOSCashChanger@@@ATL@@UEAAJPEAK@Z 000000018001b1d0 f i CashChanger.obj
 0001:0001a2d0       ?GetWNDPROC@CWndProcThunk@ATL@@QEAAP6A_JPEAUHWND__@@I_K_J@ZXZ 000000018001b2d0 f i CashChanger.obj
 0001:0001a310       ?GetWindow@?$IOleInPlaceActiveObjectImpl@VCOPOSCashChanger@@@ATL@@UEAAJPEAPEAUHWND__@@@Z 000000018001b310 f i CashChanger.obj
 0001:0001a410       ?GetWindow@?$IOleInPlaceObjectWindowlessImpl@VCOPOSCashChanger@@@ATL@@UEAAJPEAPEAUHWND__@@@Z 000000018001b410 f i CashChanger.obj
 0001:0001a510       ?GetWindowProc@?$CWindowImplBaseT@VCWindow@ATL@@V?$CWinTraits@$0FGAAAAAA@$0A@@2@@ATL@@UEAAP6A_JPEAUHWND__@@I_K_J@ZXZ 000000018001b510 f i CashChanger.obj
 0001:0001a520       ?GetWndCaption@?$CWindowImpl@VCOPOSCashChanger@@VCWindow@ATL@@V?$CWinTraits@$0FGAAAAAA@$0A@@3@@ATL@@SAPEB_WXZ 000000018001b520 f i CashChanger.obj
 0001:0001a530       ?GetWndClassInfo@?$CWindowImpl@VCOPOSCashChanger@@VCWindow@ATL@@V?$CWinTraits@$0FGAAAAAA@$0A@@3@@ATL@@SAAEAU_ATL_WNDCLASSINFOW@2@XZ 000000018001b530 f i CashChanger.obj
 0001:0001a540       ?GetWndClassName@CWindow@ATL@@SAPEB_WXZ 000000018001b540 f i CashChanger.obj
 0001:0001a550       ?GetWndExStyle@?$CWinTraits@$0FGAAAAAA@$0A@@ATL@@SAKK@Z 000000018001b550 f i CashChanger.obj
 0001:0001a590       ?GetWndExStyle@?$CWindowImplBaseT@VCWindow@ATL@@V?$CWinTraits@$0FGAAAAAA@$0A@@2@@ATL@@SAKK@Z 000000018001b590 f i CashChanger.obj
 0001:0001a5c0       ?GetWndStyle@?$CWinTraits@$0FGAAAAAA@$0A@@ATL@@SAKK@Z 000000018001b5c0 f i CashChanger.obj
 0001:0001a600       ?GetWndStyle@?$CWindowImplBaseT@VCWindow@ATL@@V?$CWinTraits@$0FGAAAAAA@$0A@@2@@ATL@@SAKK@Z 000000018001b600 f i CashChanger.obj
 0001:0001a630       ?GetZoomInfo@CComControlBase@ATL@@QEAAXAEAUATL_DRAWINFO@@@Z 000000018001b630 f i CashChanger.obj
 0001:0001a7e0       ?HKeyFromString@CRegParser@ATL@@KAPEAUHKEY__@@PEA_W@Z 000000018001b7e0 f i CashChanger.obj
 0001:0001a870       ?HandsOffStorage@?$IPersistStorageImpl@VCOPOSCashChanger@@@ATL@@UEAAJXZ 000000018001b870 f i CashChanger.obj
 0001:0001a8e0       ?HasSubKeys@CRegParser@ATL@@IEAAHPEAUHKEY__@@@Z 000000018001b8e0 f i CashChanger.obj
 0001:0001aa50       ?IDataObject_GetData@CComControlBase@ATL@@QEAAJPEAUtagFORMATETC@@PEAUtagSTGMEDIUM@@@Z 000000018001ba50 f i CashChanger.obj
 0001:0001af00       ?IOleInPlaceObject_InPlaceDeactivate@CComControlBase@ATL@@QEAAJXZ 000000018001bf00 f i CashChanger.obj
 0001:0001b170       ?IOleInPlaceObject_SetObjectRects@CComControlBase@ATL@@QEAAJPEBUtagRECT@@0@Z 000000018001c170 f i CashChanger.obj
 0001:0001b350       ?IOleInPlaceObject_UIDeactivate@CComControlBase@ATL@@QEAAJXZ 000000018001c350 f i CashChanger.obj
 0001:0001b5c0       ?IOleObject_Advise@CComControlBase@ATL@@QEAAJPEAUIAdviseSink@@PEAK@Z 000000018001c5c0 f i CashChanger.obj
 0001:0001b670       ?IOleObject_Close@CComControlBase@ATL@@QEAAJK@Z 000000018001c670 f i CashChanger.obj
 0001:0001b9e0       ?IOleObject_GetClientSite@CComControlBase@ATL@@QEAAJPEAPEAUIOleClientSite@@@Z 000000018001c9e0 f i CashChanger.obj
 0001:0001bab0       ?IOleObject_SetClientSite@CComControlBase@ATL@@QEAAJPEAUIOleClientSite@@@Z 000000018001cab0 f i CashChanger.obj
 0001:0001bbc0       ?IOleObject_SetExtent@CComControlBase@ATL@@QEAAJKPEAUtagSIZE@@@Z 000000018001cbc0 f i CashChanger.obj
 0001:0001bd30       ?IPSI_GetIPersistStreamInit@?$IPersistStorageImpl@VCOPOSCashChanger@@@ATL@@AEAAPEAUIPersistStreamInit@@XZ 000000018001cd30 f i CashChanger.obj
 0001:0001bdf0       ?IPersistStreamInit_Load@?$IPersistStreamInitImpl@VCOPOSCashChanger@@@ATL@@QEAAJPEAUIStream@@PEBUATL_PROPMAP_ENTRY@2@@Z 000000018001cdf0 f i CashChanger.obj
 0001:0001be90       ?IPersistStreamInit_Save@?$IPersistStreamInitImpl@VCOPOSCashChanger@@@ATL@@QEAAJPEAUIStream@@HPEBUATL_PROPMAP_ENTRY@2@@Z 000000018001ce90 f i CashChanger.obj
 0001:0001bf50       ?IQuickActivate_QuickActivate@CComControlBase@ATL@@QEAAJPEAUtagQACONTAINER@@PEAUtagQACONTROL@@@Z 000000018001cf50 f i CashChanger.obj
 0001:0001c790       ?IViewObject_Draw@CComControlBase@ATL@@QEAAJKJPEAXPEAUtagDVTARGETDEVICE@@PEAUHDC__@@2PEBU_RECTL@@3@Z 000000018001d790 f i CashChanger.obj
 0001:0001cbe0       ?InPlaceActivate@CComControlBase@ATL@@QEAAJJPEBUtagRECT@@@Z 000000018001dbe0 f i CashChanger.obj
 0001:0001d780       ?InPlaceDeactivate@?$IOleInPlaceObjectWindowlessImpl@VCOPOSCashChanger@@@ATL@@UEAAJXZ 000000018001e780 f i CashChanger.obj
 0001:0001d830       ?Increment@CComMultiThreadModel@ATL@@SAKPEAJ@Z 000000018001e830 f i CashChanger.obj
 0001:0001d850       ?Increment@CComSingleThreadModel@ATL@@SAKPEAJ@Z 000000018001e850 f i CashChanger.obj
 0001:0001d870       ?Init@?$CComEnumImpl@UIEnumConnectionPoints@@$1?_GUID_b196b285_bab4_101a_b69c_00aa00341d07@@3U__s_GUID@@BPEAUIConnectionPoint@@V?$_CopyInterface@UIConnectionPoint@@@ATL@@@ATL@@QEAAJPEAPEAUIConnectionPoint@@0PEAUIUnknown@@W4CComEnumFlags@2@@Z 000000018001e870 f i CashChanger.obj
 0001:0001db60       ?Init@?$CComEnumImpl@UIEnumConnections@@$1?_GUID_b196b287_bab4_101a_b69c_00aa00341d07@@3U__s_GUID@@BUtagCONNECTDATA@@V?$_Copy@UtagCONNECTDATA@@@ATL@@@ATL@@QEAAJPEAUtagCONNECTDATA@@0PEAUIUnknown@@W4CComEnumFlags@2@@Z 000000018001eb60 f i CashChanger.obj
 0001:0001de50       ?Init@CComFakeCriticalSection@ATL@@QEAAJXZ 000000018001ee50 f i CashChanger.obj
 0001:0001de60       ?Init@CComModule@ATL@@QEAAJPEAU_ATL_OBJMAP_ENTRY30@2@PEAUHINSTANCE__@@PEBU_GUID@@@Z 000000018001ee60 f i CashChanger.obj
 0001:0001df50       ?Init@CComSafeDeleteCriticalSection@ATL@@QEAAJXZ 000000018001ef50 f i CashChanger.obj
 0001:0001dfe0       ?Init@CDynamicStdCallThunk2@ATL@@QEAAH_KPEAX@Z 000000018001efe0 f i CashChanger.obj
 0001:0001e060       ?Init@CWndProcThunk@ATL@@QEAAHP6A_JPEAUHWND__@@I_K_J@ZPEAX@Z 000000018001f060 f i CashChanger.obj
 0001:0001e0b0       ?InitFromData@?$IOleObjectImpl@VCOPOSCashChanger@@@ATL@@UEAAJPEAUIDataObject@@HK@Z 000000018001f0b0 f i CashChanger.obj
 0001:0001e140       ?InitLibId@?$CAtlModuleT@VCComModule@ATL@@@ATL@@SAXXZ 000000018001f140 f i CashChanger.obj
 0001:0001e150       ?InitNew@?$IPersistStorageImpl@VCOPOSCashChanger@@@ATL@@UEAAJPEAUIStorage@@@Z 000000018001f150 f i CashChanger.obj
 0001:0001e240       ?InitNew@?$IPersistStreamInitImpl@VCOPOSCashChanger@@@ATL@@UEAAJXZ 000000018001f240 f i CashChanger.obj
 0001:0001e2f0       ?InlineIsEqualUnknown@ATL@@YAHAEBU_GUID@@@Z 000000018001f2f0 f i CashChanger.obj
 0001:0001e380       ?InternalAddRef@?$CComObjectRootEx@VCComMultiThreadModel@ATL@@@ATL@@QEAAKXZ 000000018001f380 f i CashChanger.obj
 0001:0001e400       ?InternalAddRef@?$CComObjectRootEx@VCComSingleThreadModel@ATL@@@ATL@@QEAAKXZ 000000018001f400 f i CashChanger.obj
 0001:0001e480       ?InternalFinalConstructAddRef@CComObjectRootBase@ATL@@QEAAXXZ 000000018001f480 f i CashChanger.obj
 0001:0001e490       ?InternalFinalConstructAddRef@COPOSCashChanger@@QEAAXXZ 000000018001f490 f i CashChanger.obj
 0001:0001e4d0       ?InternalFinalConstructRelease@CComObjectRootBase@ATL@@QEAAXXZ 000000018001f4d0 f i CashChanger.obj
 0001:0001e540       ?InternalFinalConstructRelease@COPOSCashChanger@@QEAAXXZ 000000018001f540 f i CashChanger.obj
 0001:0001e580       ?InternalGetSite@CComControlBase@ATL@@QEAAJAEBU_GUID@@PEAPEAX@Z 000000018001f580 f i CashChanger.obj
 0001:0001e660       ?InternalQueryInterface@CComObjectRootBase@ATL@@SAJPEAXPEBU_ATL_INTMAP_ENTRY@2@AEBU_GUID@@PEAPEAX@Z 000000018001f660 f i CashChanger.obj
 0001:0001e780       ?InternalRelease@?$CComObjectRootEx@VCComMultiThreadModel@ATL@@@ATL@@QEAAKXZ 000000018001f780 f i CashChanger.obj
 0001:0001e800       ?InternalRelease@?$CComObjectRootEx@VCComSingleThreadModel@ATL@@@ATL@@QEAAKXZ 000000018001f800 f i CashChanger.obj
 0001:0001e880       ?InternalSetAtIndex@?$CSimpleArray@GV?$CSimpleArrayEqualHelper@G@ATL@@@ATL@@QEAAXHAEBG@Z 000000018001f880 f i CashChanger.obj
 0001:0001e900       ?InternalSetAtIndex@?$CSimpleMap@PEA_WPEA_WVCExpansionVectorEqualHelper@ATL@@@ATL@@QEAAXHAEBQEA_W0@Z 000000018001f900 f i CashChanger.obj
 0001:0001e9d0       ?Invoke@?$IDispatchImpl@UIOPOSCashChanger@@$1?IID_IOPOSCashChanger@@3U_GUID@@B$1?LIBID_OposCashChanger_CCO@@3U3@B$00$0A@VCComTypeInfoHolder@ATL@@@ATL@@UEAAJJAEBU_GUID@@KGPEAUtagDISPPARAMS@@PEAUtagVARIANT@@PEAUtagEXCEPINFO@@PEAI@Z 000000018001f9d0 f i CashChanger.obj
 0001:0001ea70       ?Invoke@CComTypeInfoHolder@ATL@@QEAAJPEAUIDispatch@@JAEBU_GUID@@KGPEAUtagDISPPARAMS@@PEAUtagVARIANT@@PEAUtagEXCEPINFO@@PEAI@Z 000000018001fa70 f i CashChanger.obj
 0001:0001eb30       ?IsDirty@?$IPersistStorageImpl@VCOPOSCashChanger@@@ATL@@UEAAJXZ 000000018001fb30 f i CashChanger.obj
 0001:0001ec20       ?IsDirty@?$IPersistStreamInitImpl@VCOPOSCashChanger@@@ATL@@UEAAJXZ 000000018001fc20 f i CashChanger.obj
 0001:0001ece0       ?IsEqualKey@CExpansionVectorEqualHelper@ATL@@SA_NQEA_W0@Z 000000018001fce0 f i CashChanger.obj
 0001:0001ed30       ?IsEqualObject@?$CComPtrBase@UIOleClientSite@@@ATL@@QEAA_NPEAUIUnknown@@@Z 000000018001fd30 f i CashChanger.obj
 0001:0001ee80       ?IsEqualObject@?$CComPtrBase@UITypeInfo@@@ATL@@QEAA_NPEAUIUnknown@@@Z 000000018001fe80 f i CashChanger.obj
 0001:0001efd0       ?IsSpace@CRegParser@ATL@@IEAAH_W@Z 000000018001ffd0 f i CashChanger.obj
 0001:0001f030       ?IsUpToDate@?$IOleObjectImpl@VCOPOSCashChanger@@@ATL@@UEAAJXZ 0000000180020030 f i CashChanger.obj
 0001:0001f0a0       ?Length@CComBSTR@ATL@@QEBAIXZ 00000001800200a0 f i CashChanger.obj
 0001:0001f0e0       ?Load@?$IPersistStorageImpl@VCOPOSCashChanger@@@ATL@@UEAAJPEAUIStorage@@@Z 00000001800200e0 f i CashChanger.obj
 0001:0001f290       ?Load@?$IPersistStreamInitImpl@VCOPOSCashChanger@@@ATL@@UEAAJPEAUIStream@@@Z 0000000180020290 f i CashChanger.obj
 0001:0001f350       ?LoadCursorW@AtlModuleRegisterWndClassInfoParamW@ATL@@SAPEAUHICON__@@PEAUHINSTANCE__@@PEB_W@Z 0000000180020350 f i CashChanger.obj
 0001:0001f390       ?LoadNameCache@CComTypeInfoHolder@ATL@@QEAAJPEAUITypeInfo@@@Z 0000000180020390 f i CashChanger.obj
 0001:0001f6d0       ?Lock@?$CComCritSecLock@VCComCriticalSection@ATL@@@ATL@@QEAAJXZ 00000001800206d0 f i CashChanger.obj
 0001:0001f7c0       ?Lock@?$CComObjectRootEx@VCComSingleThreadModel@ATL@@@ATL@@QEAAXXZ 00000001800207c0 f i CashChanger.obj
 0001:0001f7d0       ?Lock@CAtlModule@ATL@@UEAAJXZ 00000001800207d0 f i CashChanger.obj
 0001:0001f810       ?Lock@CComCriticalSection@ATL@@QEAAJXZ 0000000180020810 f i CashChanger.obj
 0001:0001f850       ?Lock@CComFakeCriticalSection@ATL@@QEAAJXZ 0000000180020850 f i CashChanger.obj
 0001:0001f860       ?LockServer@CComClassFactory@ATL@@UEAAJH@Z 0000000180020860 f i CashChanger.obj
 0001:0001f8c0       ?Lookup@?$CSimpleMap@PEA_WPEA_WVCExpansionVectorEqualHelper@ATL@@@ATL@@QEBAPEA_WAEBQEA_W@Z 00000001800208c0 f i CashChanger.obj
 0001:0001f920       ?Next@?$CComEnumImpl@UIEnumConnectionPoints@@$1?_GUID_b196b285_bab4_101a_b69c_00aa00341d07@@3U__s_GUID@@BPEAUIConnectionPoint@@V?$_CopyInterface@UIConnectionPoint@@@ATL@@@ATL@@UEAAJKPEAPEAUIConnectionPoint@@PEAK@Z 0000000180020920 f i CashChanger.obj
 0001:0001fae0       ?Next@?$CComEnumImpl@UIEnumConnections@@$1?_GUID_b196b287_bab4_101a_b69c_00aa00341d07@@3U__s_GUID@@BUtagCONNECTDATA@@V?$_Copy@UtagCONNECTDATA@@@ATL@@@ATL@@UEAAJKPEAUtagCONNECTDATA@@PEAK@Z 0000000180020ae0 f i CashChanger.obj
 0001:0001fca0       ?NextToken@CRegParser@ATL@@IEAAJPEA_W@Z 0000000180020ca0 f i CashChanger.obj
 0001:00020030       ?OLE2CT_EX@@YAPEB_WPEB_WI@Z 0000000180021030 f i CashChanger.obj
 0001:00020050       ?OLE2CT_EX_DEF@@YAPEB_WPEB_W@Z 0000000180021050 f i CashChanger.obj
 0001:00020060       ?OLE2T_EX@@YAPEA_WPEA_WI@Z 0000000180021060 f i CashChanger.obj
 0001:00020080       ?OnAmbientPropertyChange@?$IOleControlImpl@VCOPOSCashChanger@@@ATL@@UEAAJJ@Z 0000000180021080 f i CashChanger.obj
 0001:00020140       ?OnDocWindowActivate@?$IOleInPlaceActiveObjectImpl@VCOPOSCashChanger@@@ATL@@UEAAJH@Z 0000000180021140 f i CashChanger.obj
 0001:00020200       ?OnDrawAdvanced@CComControlBase@ATL@@UEAAJAEAUATL_DRAWINFO@@@Z 0000000180021200 f i CashChanger.obj
 0001:00020450       ?OnFinalMessage@?$CWindowImplBaseT@VCWindow@ATL@@V?$CWinTraits@$0FGAAAAAA@$0A@@2@@ATL@@UEAAXPEAUHWND__@@@Z 0000000180021450 f i CashChanger.obj
 0001:00020460       ?OnFrameWindowActivate@?$IOleInPlaceActiveObjectImpl@VCOPOSCashChanger@@@ATL@@UEAAJH@Z 0000000180021460 f i CashChanger.obj
 0001:000204d0       ?OnKillFocus@CComControlBase@ATL@@QEAA_JI_K_JAEAH@Z 00000001800214d0 f i CashChanger.obj
 0001:000205c0       ?OnMnemonic@?$IOleControlImpl@VCOPOSCashChanger@@@ATL@@UEAAJPEAUtagMSG@@@Z 00000001800215c0 f i CashChanger.obj
 0001:00020650       ?OnMouseActivate@CComControlBase@ATL@@QEAA_JI_K_JAEAH@Z 0000000180021650 f i CashChanger.obj
 0001:000207f0       ?OnPaint@CComControlBase@ATL@@QEAA_JI_K_JAEAH@Z 00000001800217f0 f i CashChanger.obj
 0001:00020980       ?OnPostVerbDiscardUndo@?$IOleObjectImpl@VCOPOSCashChanger@@@ATL@@QEAAJXZ 0000000180021980 f i CashChanger.obj
 0001:00020990       ?OnPostVerbHide@?$IOleObjectImpl@VCOPOSCashChanger@@@ATL@@QEAAJXZ 0000000180021990 f i CashChanger.obj
 0001:000209a0       ?OnPostVerbInPlaceActivate@?$IOleObjectImpl@VCOPOSCashChanger@@@ATL@@QEAAJXZ 00000001800219a0 f i CashChanger.obj
 0001:000209b0       ?OnPostVerbOpen@?$IOleObjectImpl@VCOPOSCashChanger@@@ATL@@QEAAJXZ 00000001800219b0 f i CashChanger.obj
 0001:000209c0       ?OnPostVerbShow@?$IOleObjectImpl@VCOPOSCashChanger@@@ATL@@QEAAJXZ 00000001800219c0 f i CashChanger.obj
 0001:000209d0       ?OnPostVerbUIActivate@?$IOleObjectImpl@VCOPOSCashChanger@@@ATL@@QEAAJXZ 00000001800219d0 f i CashChanger.obj
 0001:000209e0       ?OnPreVerbDiscardUndo@?$IOleObjectImpl@VCOPOSCashChanger@@@ATL@@QEAAJXZ 00000001800219e0 f i CashChanger.obj
 0001:000209f0       ?OnPreVerbHide@?$IOleObjectImpl@VCOPOSCashChanger@@@ATL@@QEAAJXZ 00000001800219f0 f i CashChanger.obj
 0001:00020a00       ?OnPreVerbInPlaceActivate@?$IOleObjectImpl@VCOPOSCashChanger@@@ATL@@QEAAJXZ 0000000180021a00 f i CashChanger.obj
 0001:00020a10       ?OnPreVerbOpen@?$IOleObjectImpl@VCOPOSCashChanger@@@ATL@@QEAAJXZ 0000000180021a10 f i CashChanger.obj
 0001:00020a20       ?OnPreVerbShow@?$IOleObjectImpl@VCOPOSCashChanger@@@ATL@@QEAAJXZ 0000000180021a20 f i CashChanger.obj
 0001:00020a30       ?OnPreVerbUIActivate@?$IOleObjectImpl@VCOPOSCashChanger@@@ATL@@QEAAJXZ 0000000180021a30 f i CashChanger.obj
 0001:00020a40       ?OnSetFocus@CComControlBase@ATL@@QEAA_JI_K_JAEAH@Z 0000000180021a40 f i CashChanger.obj
 0001:00020c40       ?OnWindowMessage@?$IOleInPlaceObjectWindowlessImpl@VCOPOSCashChanger@@@ATL@@UEAAJI_K_JPEA_J@Z 0000000180021c40 f i CashChanger.obj
 0001:00020e60       ?Open@CRegKey@ATL@@QEAAJPEAUHKEY__@@PEB_WK@Z 0000000180021e60 f i CashChanger.obj
 0001:00020fe0       ?OuterAddRef@CComObjectRootBase@ATL@@QEAAKXZ 0000000180021fe0 f i CashChanger.obj
 0001:00021020       ?OuterQueryInterface@CComObjectRootBase@ATL@@QEAAJAEBU_GUID@@PEAPEAX@Z 0000000180022020 f i CashChanger.obj
 0001:00021070       ?OuterRelease@CComObjectRootBase@ATL@@QEAAKXZ 0000000180022070 f i CashChanger.obj
 0001:000210b0       ?PreProcessBuffer@CRegParser@ATL@@QEAAJPEA_WPEAPEA_W@Z 00000001800220b0 f i CashChanger.obj
 0001:00021790       ?PreTranslateAccelerator@CComControlBase@ATL@@QEAAHPEAUtagMSG@@AEAJ@Z 0000000180022790 f i CashChanger.obj
 0001:000217b0       ?ProcessWindowMessage@?$CComControl@VCOPOSCashChanger@@V?$CWindowImpl@VCOPOSCashChanger@@VCWindow@ATL@@V?$CWinTraits@$0FGAAAAAA@$0A@@3@@ATL@@@ATL@@UEAAHPEAUHWND__@@I_K_JAEA_JK@Z 00000001800227b0 f i CashChanger.obj
 0001:00021a30       ?ProcessWindowMessage@COPOSCashChanger@@UEAAHPEAUHWND__@@I_K_JAEA_JK@Z 0000000180022a30 f i CashChanger.obj
 0001:00021bb0       ?PutProperty@?$CComPtr@UIDispatch@@@ATL@@QEAAJJPEAUtagVARIANT@@@Z 0000000180022bb0 f i CashChanger.obj
 0001:00021c00       ?PutProperty@?$CComPtr@UIDispatch@@@ATL@@SAJPEAUIDispatch@@JPEAUtagVARIANT@@@Z 0000000180022c00 f i CashChanger.obj
 0001:00021ea0       ?QueryGetData@?$IDataObjectImpl@VCOPOSCashChanger@@@ATL@@UEAAJPEAUtagFORMATETC@@@Z 0000000180022ea0 f i CashChanger.obj
 0001:00021f30       ?QueryHitPoint@?$IViewObjectExImpl@VCOPOSCashChanger@@@ATL@@UEAAJKPEBUtagRECT@@UtagPOINT@@JPEAK@Z 0000000180022f30 f i CashChanger.obj
 0001:000220a0       ?QueryHitRect@?$IViewObjectExImpl@VCOPOSCashChanger@@@ATL@@UEAAJKPEBUtagRECT@@0JPEAK@Z 00000001800230a0 f i CashChanger.obj
 0001:00022270       ?QueryInterface@?$CComAggObject@VCOPOSCashChanger@@@ATL@@UEAAJAEBU_GUID@@PEAPEAX@Z 0000000180023270 f i CashChanger.obj
 0001:00022360       ?QueryInterface@?$CComContainedObject@VCOPOSCashChanger@@@ATL@@UEAAJAEBU_GUID@@PEAPEAX@Z 0000000180023360 f i CashChanger.obj
 0001:000223ac       ?QueryInterface@?$CComContainedObject@VCOPOSCashChanger@@@ATL@@WBAA@EAAJAEBU_GUID@@PEAPEAX@Z 00000001800233ac f i CashChanger.obj
 0001:000223b8       ?QueryInterface@?$CComContainedObject@VCOPOSCashChanger@@@ATL@@WBAI@EAAJAEBU_GUID@@PEAPEAX@Z 00000001800233b8 f i CashChanger.obj
 0001:000223c4       ?QueryInterface@?$CComContainedObject@VCOPOSCashChanger@@@ATL@@WBBA@EAAJAEBU_GUID@@PEAPEAX@Z 00000001800233c4 f i CashChanger.obj
 0001:000223d0       ?QueryInterface@?$CComContainedObject@VCOPOSCashChanger@@@ATL@@WBBI@EAAJAEBU_GUID@@PEAPEAX@Z 00000001800233d0 f i CashChanger.obj
 0001:000223dc       ?QueryInterface@?$CComContainedObject@VCOPOSCashChanger@@@ATL@@WLI@EAAJAEBU_GUID@@PEAPEAX@Z 00000001800233dc f i CashChanger.obj
 0001:000223e8       ?QueryInterface@?$CComContainedObject@VCOPOSCashChanger@@@ATL@@WMA@EAAJAEBU_GUID@@PEAPEAX@Z 00000001800233e8 f i CashChanger.obj
 0001:000223f4       ?QueryInterface@?$CComContainedObject@VCOPOSCashChanger@@@ATL@@WMI@EAAJAEBU_GUID@@PEAPEAX@Z 00000001800233f4 f i CashChanger.obj
 0001:00022400       ?QueryInterface@?$CComContainedObject@VCOPOSCashChanger@@@ATL@@WNA@EAAJAEBU_GUID@@PEAPEAX@Z 0000000180023400 f i CashChanger.obj
 0001:0002240c       ?QueryInterface@?$CComContainedObject@VCOPOSCashChanger@@@ATL@@WNI@EAAJAEBU_GUID@@PEAPEAX@Z 000000018002340c f i CashChanger.obj
 0001:00022418       ?QueryInterface@?$CComContainedObject@VCOPOSCashChanger@@@ATL@@WOA@EAAJAEBU_GUID@@PEAPEAX@Z 0000000180023418 f i CashChanger.obj
 0001:00022424       ?QueryInterface@?$CComContainedObject@VCOPOSCashChanger@@@ATL@@WOI@EAAJAEBU_GUID@@PEAPEAX@Z 0000000180023424 f i CashChanger.obj
 0001:00022430       ?QueryInterface@?$CComContainedObject@VCOPOSCashChanger@@@ATL@@WPA@EAAJAEBU_GUID@@PEAPEAX@Z 0000000180023430 f i CashChanger.obj
 0001:0002243c       ?QueryInterface@?$CComContainedObject@VCOPOSCashChanger@@@ATL@@WPI@EAAJAEBU_GUID@@PEAPEAX@Z 000000018002343c f i CashChanger.obj
 0001:00022450       ?QueryInterface@?$CComObject@V?$CComEnum@UIEnumConnectionPoints@@$1?_GUID_b196b285_bab4_101a_b69c_00aa00341d07@@3U__s_GUID@@BPEAUIConnectionPoint@@V?$_CopyInterface@UIConnectionPoint@@@ATL@@VCComSingleThreadModel@6@@ATL@@@ATL@@UEAAJAEBU_GUID@@PEAPEAX@Z 0000000180023450 f i CashChanger.obj
 0001:000224a0       ?QueryInterface@?$CComObject@V?$CComEnum@UIEnumConnections@@$1?_GUID_b196b287_bab4_101a_b69c_00aa00341d07@@3U__s_GUID@@BUtagCONNECTDATA@@V?$_Copy@UtagCONNECTDATA@@@ATL@@VCComSingleThreadModel@6@@ATL@@@ATL@@UEAAJAEBU_GUID@@PEAPEAX@Z 00000001800234a0 f i CashChanger.obj
 0001:000224f0       ?QueryInterface@?$CComObject@VCOPOSCashChanger@@@ATL@@UEAAJAEBU_GUID@@PEAPEAX@Z 00000001800234f0 f i CashChanger.obj
 0001:00022534       ?QueryInterface@?$CComObject@VCOPOSCashChanger@@@ATL@@WBAA@EAAJAEBU_GUID@@PEAPEAX@Z 0000000180023534 f i CashChanger.obj
 0001:00022540       ?QueryInterface@?$CComObject@VCOPOSCashChanger@@@ATL@@WBAI@EAAJAEBU_GUID@@PEAPEAX@Z 0000000180023540 f i CashChanger.obj
 0001:0002254c       ?QueryInterface@?$CComObject@VCOPOSCashChanger@@@ATL@@WBBA@EAAJAEBU_GUID@@PEAPEAX@Z 000000018002354c f i CashChanger.obj
 0001:00022558       ?QueryInterface@?$CComObject@VCOPOSCashChanger@@@ATL@@WBBI@EAAJAEBU_GUID@@PEAPEAX@Z 0000000180023558 f i CashChanger.obj
 0001:00022564       ?QueryInterface@?$CComObject@VCOPOSCashChanger@@@ATL@@WLI@EAAJAEBU_GUID@@PEAPEAX@Z 0000000180023564 f i CashChanger.obj
 0001:00022570       ?QueryInterface@?$CComObject@VCOPOSCashChanger@@@ATL@@WMA@EAAJAEBU_GUID@@PEAPEAX@Z 0000000180023570 f i CashChanger.obj
 0001:0002257c       ?QueryInterface@?$CComObject@VCOPOSCashChanger@@@ATL@@WMI@EAAJAEBU_GUID@@PEAPEAX@Z 000000018002357c f i CashChanger.obj
 0001:00022588       ?QueryInterface@?$CComObject@VCOPOSCashChanger@@@ATL@@WNA@EAAJAEBU_GUID@@PEAPEAX@Z 0000000180023588 f i CashChanger.obj
 0001:00022594       ?QueryInterface@?$CComObject@VCOPOSCashChanger@@@ATL@@WNI@EAAJAEBU_GUID@@PEAPEAX@Z 0000000180023594 f i CashChanger.obj
 0001:000225a0       ?QueryInterface@?$CComObject@VCOPOSCashChanger@@@ATL@@WOA@EAAJAEBU_GUID@@PEAPEAX@Z 00000001800235a0 f i CashChanger.obj
 0001:000225ac       ?QueryInterface@?$CComObject@VCOPOSCashChanger@@@ATL@@WOI@EAAJAEBU_GUID@@PEAPEAX@Z 00000001800235ac f i CashChanger.obj
 0001:000225b8       ?QueryInterface@?$CComObject@VCOPOSCashChanger@@@ATL@@WPA@EAAJAEBU_GUID@@PEAPEAX@Z 00000001800235b8 f i CashChanger.obj
 0001:000225c4       ?QueryInterface@?$CComObject@VCOPOSCashChanger@@@ATL@@WPI@EAAJAEBU_GUID@@PEAPEAX@Z 00000001800235c4 f i CashChanger.obj
 0001:000225d0       ?QueryInterface@?$CComObjectCached@VCComClassFactory@ATL@@@ATL@@UEAAJAEBU_GUID@@PEAPEAX@Z 00000001800235d0 f i CashChanger.obj
 0001:00022620       ?QueryInterface@CRegObject@ATL@@UEAAJAEBU_GUID@@PEAPEAX@Z 0000000180023620 f i CashChanger.obj
 0001:000226a0       ?QuickActivate@?$IQuickActivateImpl@VCOPOSCashChanger@@@ATL@@UEAAJPEAUtagQACONTAINER@@PEAUtagQACONTROL@@@Z 00000001800236a0 f i CashChanger.obj
 0001:00022760       ?ReactivateAndUndo@?$IOleInPlaceObjectWindowlessImpl@VCOPOSCashChanger@@@ATL@@UEAAJXZ 0000000180023760 f i CashChanger.obj
 0001:000227e0       ?ReadFromStream@CComBSTR@ATL@@QEAAJPEAUIStream@@@Z 00000001800237e0 f i CashChanger.obj
 0001:00022cc0       ?ReadFromStream@CComVariant@ATL@@QEAAJPEAUIStream@@GTClassesAllowedInStream@2@K@Z 0000000180023cc0 f i CashChanger.obj
 0001:000230f0       ?RecurseDeleteKey@CRegKey@ATL@@QEAAJPEB_W@Z 00000001800240f0 f i CashChanger.obj
 0001:00023310       ?RegCreateKeyExW@CAtlTransactionManager@ATL@@QEAAJPEAUHKEY__@@PEB_WKPEA_WKKQEAU_SECURITY_ATTRIBUTES@@PEAPEAU3@PEAK@Z 0000000180024310 f i CashChanger.obj
 0001:000234e0       ?RegDeleteKeyW@CAtlTransactionManager@ATL@@QEAAJPEAUHKEY__@@PEB_W@Z 00000001800244e0 f i CashChanger.obj
 0001:000235f0       ?RegOpenKeyExW@CAtlTransactionManager@ATL@@QEAAJPEAUHKEY__@@PEB_WKKPEAPEAU3@@Z 00000001800245f0 f i CashChanger.obj
 0001:00023740       ?Register@_ATL_WNDCLASSINFOW@ATL@@QEAAGPEAP6A_JPEAUHWND__@@I_K_J@Z@Z 0000000180024740 f i CashChanger.obj
 0001:00023790       ?RegisterBuffer@CRegParser@ATL@@QEAAJPEA_WH@Z 0000000180024790 f i CashChanger.obj
 0001:00023b80       ?RegisterClassExW@AtlModuleRegisterWndClassInfoParamW@ATL@@SAGPEAU_ATL_WIN_MODULE70@2@PEBUtagWNDCLASSEXW@@@Z 0000000180024b80 f i CashChanger.obj
 0001:00023bc0       ?RegisterFromResource@CRegObject@ATL@@IEAAJPEB_W00H@Z 0000000180024bc0 f i CashChanger.obj
 0001:00024020       ?RegisterServer@?$CAtlModuleT@VCComModule@ATL@@@ATL@@QEAAJHPEBU_GUID@@@Z 0000000180025020 f i CashChanger.obj
 0001:000240a0       ?RegisterServer@CAtlComModule@ATL@@QEAAJHPEBU_GUID@@@Z 00000001800250a0 f i CashChanger.obj
 0001:000240e0       ?RegisterServer@CComModule@ATL@@QEAAJHPEBU_GUID@@@Z 00000001800250e0 f i CashChanger.obj
 0001:000241e0       ?RegisterSubkeys@CRegParser@ATL@@IEAAJPEA_WPEAUHKEY__@@HH@Z 00000001800251e0 f i CashChanger.obj
 0001:00024fc0       ?Release@?$CComAggObject@VCOPOSCashChanger@@@ATL@@UEAAKXZ 0000000180025fc0 f i CashChanger.obj
 0001:00025070       ?Release@?$CComContainedObject@VCOPOSCashChanger@@@ATL@@UEAAKXZ 0000000180026070 f i CashChanger.obj
 0001:000250a8       ?Release@?$CComContainedObject@VCOPOSCashChanger@@@ATL@@WBAA@EAAKXZ 00000001800260a8 f i CashChanger.obj
 0001:000250b4       ?Release@?$CComContainedObject@VCOPOSCashChanger@@@ATL@@WBAI@EAAKXZ 00000001800260b4 f i CashChanger.obj
 0001:000250c0       ?Release@?$CComContainedObject@VCOPOSCashChanger@@@ATL@@WBBA@EAAKXZ 00000001800260c0 f i CashChanger.obj
 0001:000250cc       ?Release@?$CComContainedObject@VCOPOSCashChanger@@@ATL@@WBBI@EAAKXZ 00000001800260cc f i CashChanger.obj
 0001:000250d8       ?Release@?$CComContainedObject@VCOPOSCashChanger@@@ATL@@WBCI@EAAKXZ 00000001800260d8 f i CashChanger.obj
 0001:000250e4       ?Release@?$CComContainedObject@VCOPOSCashChanger@@@ATL@@WBEA@EAAKXZ 00000001800260e4 f i CashChanger.obj
 0001:000250f0       ?Release@?$CComContainedObject@VCOPOSCashChanger@@@ATL@@WLI@EAAKXZ 00000001800260f0 f i CashChanger.obj
 0001:000250fc       ?Release@?$CComContainedObject@VCOPOSCashChanger@@@ATL@@WMA@EAAKXZ 00000001800260fc f i CashChanger.obj
 0001:00025108       ?Release@?$CComContainedObject@VCOPOSCashChanger@@@ATL@@WMI@EAAKXZ 0000000180026108 f i CashChanger.obj
 0001:00025114       ?Release@?$CComContainedObject@VCOPOSCashChanger@@@ATL@@WNA@EAAKXZ 0000000180026114 f i CashChanger.obj
 0001:00025120       ?Release@?$CComContainedObject@VCOPOSCashChanger@@@ATL@@WNI@EAAKXZ 0000000180026120 f i CashChanger.obj
 0001:0002512c       ?Release@?$CComContainedObject@VCOPOSCashChanger@@@ATL@@WOA@EAAKXZ 000000018002612c f i CashChanger.obj
 0001:00025138       ?Release@?$CComContainedObject@VCOPOSCashChanger@@@ATL@@WOI@EAAKXZ 0000000180026138 f i CashChanger.obj
 0001:00025144       ?Release@?$CComContainedObject@VCOPOSCashChanger@@@ATL@@WPA@EAAKXZ 0000000180026144 f i CashChanger.obj
 0001:00025150       ?Release@?$CComContainedObject@VCOPOSCashChanger@@@ATL@@WPI@EAAKXZ 0000000180026150 f i CashChanger.obj
 0001:00025160       ?Release@?$CComObject@V?$CComEnum@UIEnumConnectionPoints@@$1?_GUID_b196b285_bab4_101a_b69c_00aa00341d07@@3U__s_GUID@@BPEAUIConnectionPoint@@V?$_CopyInterface@UIConnectionPoint@@@ATL@@VCComSingleThreadModel@6@@ATL@@@ATL@@UEAAKXZ 0000000180026160 f i CashChanger.obj
 0001:00025210       ?Release@?$CComObject@V?$CComEnum@UIEnumConnections@@$1?_GUID_b196b287_bab4_101a_b69c_00aa00341d07@@3U__s_GUID@@BUtagCONNECTDATA@@V?$_Copy@UtagCONNECTDATA@@@ATL@@VCComSingleThreadModel@6@@ATL@@@ATL@@UEAAKXZ 0000000180026210 f i CashChanger.obj
 0001:000252c0       ?Release@?$CComObject@VCOPOSCashChanger@@@ATL@@UEAAKXZ 00000001800262c0 f i CashChanger.obj
 0001:00025378       ?Release@?$CComObject@VCOPOSCashChanger@@@ATL@@WBAA@EAAKXZ 0000000180026378 f i CashChanger.obj
 0001:00025384       ?Release@?$CComObject@VCOPOSCashChanger@@@ATL@@WBAI@EAAKXZ 0000000180026384 f i CashChanger.obj
 0001:00025390       ?Release@?$CComObject@VCOPOSCashChanger@@@ATL@@WBBA@EAAKXZ 0000000180026390 f i CashChanger.obj
 0001:0002539c       ?Release@?$CComObject@VCOPOSCashChanger@@@ATL@@WBBI@EAAKXZ 000000018002639c f i CashChanger.obj
 0001:000253a8       ?Release@?$CComObject@VCOPOSCashChanger@@@ATL@@WBCI@EAAKXZ 00000001800263a8 f i CashChanger.obj
 0001:000253b4       ?Release@?$CComObject@VCOPOSCashChanger@@@ATL@@WBEA@EAAKXZ 00000001800263b4 f i CashChanger.obj
 0001:000253c0       ?Release@?$CComObject@VCOPOSCashChanger@@@ATL@@WLI@EAAKXZ 00000001800263c0 f i CashChanger.obj
 0001:000253cc       ?Release@?$CComObject@VCOPOSCashChanger@@@ATL@@WMA@EAAKXZ 00000001800263cc f i CashChanger.obj
 0001:000253d8       ?Release@?$CComObject@VCOPOSCashChanger@@@ATL@@WMI@EAAKXZ 00000001800263d8 f i CashChanger.obj
 0001:000253e4       ?Release@?$CComObject@VCOPOSCashChanger@@@ATL@@WNA@EAAKXZ 00000001800263e4 f i CashChanger.obj
 0001:000253f0       ?Release@?$CComObject@VCOPOSCashChanger@@@ATL@@WNI@EAAKXZ 00000001800263f0 f i CashChanger.obj
 0001:000253fc       ?Release@?$CComObject@VCOPOSCashChanger@@@ATL@@WOA@EAAKXZ 00000001800263fc f i CashChanger.obj
 0001:00025408       ?Release@?$CComObject@VCOPOSCashChanger@@@ATL@@WOI@EAAKXZ 0000000180026408 f i CashChanger.obj
 0001:00025414       ?Release@?$CComObject@VCOPOSCashChanger@@@ATL@@WPA@EAAKXZ 0000000180026414 f i CashChanger.obj
 0001:00025420       ?Release@?$CComObject@VCOPOSCashChanger@@@ATL@@WPI@EAAKXZ 0000000180026420 f i CashChanger.obj
 0001:00025430       ?Release@?$CComObjectCached@VCComClassFactory@ATL@@@ATL@@UEAAKXZ 0000000180026430 f i CashChanger.obj
 0001:000254d0       ?Release@?$CComPtrBase@UIAdviseSink@@@ATL@@QEAAXXZ 00000001800264d0 f i CashChanger.obj
 0001:00025530       ?Release@?$CComPtrBase@UIDispatch@@@ATL@@QEAAXXZ 0000000180026530 f i CashChanger.obj
 0001:00025590       ?Release@?$CComPtrBase@UIOleInPlaceSiteWindowless@@@ATL@@QEAAXXZ 0000000180026590 f i CashChanger.obj
 0001:000255f0       ?Release@CRegObject@ATL@@UEAAKXZ 00000001800265f0 f i CashChanger.obj
 0001:00025660       ?Remove@CComDynamicUnkArray@ATL@@QEAAHK@Z 0000000180026660 f i CashChanger.obj
 0001:00025740       ?RemoveAll@?$CSimpleMap@PEA_WPEA_WVCExpansionVectorEqualHelper@ATL@@@ATL@@QEAAXXZ 0000000180026740 f i CashChanger.obj
 0001:000257e0       ?Reset@?$CComEnumImpl@UIEnumConnectionPoints@@$1?_GUID_b196b285_bab4_101a_b69c_00aa00341d07@@3U__s_GUID@@BPEAUIConnectionPoint@@V?$_CopyInterface@UIConnectionPoint@@@ATL@@@ATL@@UEAAJXZ 00000001800267e0 f i CashChanger.obj
 0001:00025800       ?Reset@?$CComEnumImpl@UIEnumConnections@@$1?_GUID_b196b287_bab4_101a_b69c_00aa00341d07@@3U__s_GUID@@BUtagCONNECTDATA@@V?$_Copy@UtagCONNECTDATA@@@ATL@@@ATL@@UEAAJXZ 0000000180026800 f i CashChanger.obj
 0001:00025820       ?ResizeBorder@?$IOleInPlaceActiveObjectImpl@VCOPOSCashChanger@@@ATL@@UEAAJPEBUtagRECT@@PEAUIOleInPlaceUIWindow@@H@Z 0000000180026820 f i CashChanger.obj
 0001:000258a0       ?ResourceRegister@CRegObject@ATL@@QEAAJPEB_WI0@Z 00000001800268a0 f i CashChanger.obj
 0001:00025980       ?ResourceRegisterSz@CRegObject@ATL@@QEAAJPEB_W00@Z 0000000180026980 f i CashChanger.obj
 0001:00025aa0       ?ResourceUnregister@CRegObject@ATL@@QEAAJPEB_WI0@Z 0000000180026aa0 f i CashChanger.obj
 0001:00025b80       ?ResourceUnregisterSz@CRegObject@ATL@@QEAAJPEB_W00@Z 0000000180026b80 f i CashChanger.obj
 0001:00025ca0       ?SOData@COPOSCashChanger@@MEAAJJ@Z 0000000180026ca0 f i CashChanger.obj
 0001:00025d40       ?SODirectIO@COPOSCashChanger@@MEAAJJPEAJPEAPEA_W@Z 0000000180026d40 f i CashChanger.obj
 0001:00025f80       ?SOErrorDummy@COPOSCashChanger@@MEAAJJJJPEAJ@Z 0000000180026f80 f i CashChanger.obj
 0001:00025fa0       ?SOOutputCompleteDummy@COPOSCashChanger@@MEAAJJ@Z 0000000180026fa0 f i CashChanger.obj
 0001:00025fc0       ?SOStatusUpdate@COPOSCashChanger@@MEAAJJ@Z 0000000180026fc0 f i CashChanger.obj
 0001:00026060       ?Save@?$IPersistStorageImpl@VCOPOSCashChanger@@@ATL@@UEAAJPEAUIStorage@@H@Z 0000000180027060 f i CashChanger.obj
 0001:00026220       ?Save@?$IPersistStreamInitImpl@VCOPOSCashChanger@@@ATL@@UEAAJPEAUIStream@@H@Z 0000000180027220 f i CashChanger.obj
 0001:000262e0       ?SaveCompleted@?$IPersistStorageImpl@VCOPOSCashChanger@@@ATL@@UEAAJPEAUIStorage@@@Z 00000001800272e0 f i CashChanger.obj
 0001:00026350       ?SendOnDataChange@CComControlBase@ATL@@QEAAJK@Z 0000000180027350 f i CashChanger.obj
 0001:00026440       ?SendOnSave@CComControlBase@ATL@@QEAAJXZ 0000000180027440 f i CashChanger.obj
 0001:000264b0       ?SendOnViewChange@CComControlBase@ATL@@QEAAJKJ@Z 00000001800274b0 f i CashChanger.obj
 0001:00026530       ?SetAdvise@?$IViewObjectExImpl@VCOPOSCashChanger@@@ATL@@UEAAJKKPEAUIAdviseSink@@@Z 0000000180027530 f i CashChanger.obj
 0001:000265f0       ?SetClientSite@?$IOleObjectImpl@VCOPOSCashChanger@@@ATL@@UEAAJPEAUIOleClientSite@@@Z 00000001800275f0 f i CashChanger.obj
 0001:000266a0       ?SetColorScheme@?$IOleObjectImpl@VCOPOSCashChanger@@@ATL@@UEAAJPEAUtagLOGPALETTE@@@Z 00000001800276a0 f i CashChanger.obj
 0001:00026730       ?SetContentExtent@?$IQuickActivateImpl@VCOPOSCashChanger@@@ATL@@UEAAJPEAUtagSIZE@@@Z 0000000180027730 f i CashChanger.obj
 0001:000267f0       ?SetControlFocus@CComControlBase@ATL@@QEAAHH@Z 00000001800277f0 f i CashChanger.obj
 0001:00026980       ?SetDWORDValue@CRegKey@ATL@@QEAAJPEB_WK@Z 0000000180027980 f i CashChanger.obj
 0001:00026a30       ?SetData@?$IDataObjectImpl@VCOPOSCashChanger@@@ATL@@UEAAJPEAUtagFORMATETC@@PEAUtagSTGMEDIUM@@H@Z 0000000180027a30 f i CashChanger.obj
 0001:00026ac0       ?SetExtent@?$IOleObjectImpl@VCOPOSCashChanger@@@ATL@@UEAAJKPEAUtagSIZE@@@Z 0000000180027ac0 f i CashChanger.obj
 0001:00026b80       ?SetHostNames@?$IOleObjectImpl@VCOPOSCashChanger@@@ATL@@UEAAJPEB_W0@Z 0000000180027b80 f i CashChanger.obj
 0001:00026c00       ?SetInterfaceSafetyOptions@?$IObjectSafetyImpl@VCOPOSCashChanger@@$02@ATL@@UEAAJAEBU_GUID@@KK@Z 0000000180027c00 f i CashChanger.obj
 0001:00026da0       ?SetMoniker@?$IOleObjectImpl@VCOPOSCashChanger@@@ATL@@UEAAJKPEAUIMoniker@@@Z 0000000180027da0 f i CashChanger.obj
 0001:00026e30       ?SetMultiStringValue@CRegKey@ATL@@QEAAJPEB_W0@Z 0000000180027e30 f i CashChanger.obj
 0001:00026fa0       ?SetObjectRects@?$IOleInPlaceObjectWindowlessImpl@VCOPOSCashChanger@@@ATL@@UEAAJPEBUtagRECT@@0@Z 0000000180027fa0 f i CashChanger.obj
 0001:00027060       ?SetStringValue@CRegKey@ATL@@QEAAJPEB_W0K@Z 0000000180028060 f i CashChanger.obj
 0001:000271e0       ?SetVoid@CComClassFactory@ATL@@QEAAXPEAX@Z 00000001800281e0 f i CashChanger.obj
 0001:00027200       ?SetVoid@CComObjectRootBase@ATL@@QEAAXPEAX@Z 0000000180028200 f i CashChanger.obj
 0001:00027210       ?ShowWindow@CWindow@ATL@@QEAAHH@Z 0000000180028210 f i CashChanger.obj
 0001:000272a0       ?Skip@?$CComEnumImpl@UIEnumConnectionPoints@@$1?_GUID_b196b285_bab4_101a_b69c_00aa00341d07@@3U__s_GUID@@BPEAUIConnectionPoint@@V?$_CopyInterface@UIConnectionPoint@@@ATL@@@ATL@@UEAAJK@Z 00000001800282a0 f i CashChanger.obj
 0001:00027340       ?Skip@?$CComEnumImpl@UIEnumConnections@@$1?_GUID_b196b287_bab4_101a_b69c_00aa00341d07@@3U__s_GUID@@BUtagCONNECTDATA@@V?$_Copy@UtagCONNECTDATA@@@ATL@@@ATL@@UEAAJK@Z 0000000180028340 f i CashChanger.obj
 0001:000273e0       ?SkipAssignment@CRegParser@ATL@@IEAAJPEA_W@Z 00000001800283e0 f i CashChanger.obj
 0001:000274e0       ?SkipWhiteSpace@CRegParser@ATL@@IEAAXXZ 00000001800284e0 f i CashChanger.obj
 0001:00027540       ?StartWindowProc@?$CWindowImplBaseT@VCWindow@ATL@@V?$CWinTraits@$0FGAAAAAA@$0A@@2@@ATL@@SA_JPEAUHWND__@@I_K_J@Z 0000000180028540 f i CashChanger.obj
 0001:000276b0       ?StrChrW@CRegParser@ATL@@KAPEA_WPEA_W_W@Z 00000001800286b0 f i CashChanger.obj
 0001:00027730       ?StrFromMap@CRegObject@ATL@@QEAAPEB_WPEA_W@Z 0000000180028730 f i CashChanger.obj
 0001:000277f0       ?Swap@?$CComPtrBase@UIAdviseSink@@@ATL@@IEAAXAEAV12@@Z 00000001800287f0 f i CashChanger.obj
 0001:00027850       ?Swap@?$CComPtrBase@UIOleClientSite@@@ATL@@IEAAXAEAV12@@Z 0000000180028850 f i CashChanger.obj
 0001:000278b0       ?Swap@?$CComPtrBase@UIUnknown@@@ATL@@IEAAXAEAV12@@Z 00000001800288b0 f i CashChanger.obj
 0001:00027910       ?T2COLE_EX@@YAPEB_WPEB_WI@Z 0000000180028910 f i CashChanger.obj
 0001:00027930       ?T2OLE_EX@@YAPEA_WPEA_WI@Z 0000000180028930 f i CashChanger.obj
 0001:00027950       ?Term@CAtlModule@ATL@@QEAAXXZ 0000000180028950 f i CashChanger.obj
 0001:00027a10       ?Term@CComModule@ATL@@QEAAXXZ 0000000180028a10 f i CashChanger.obj
 0001:00027b00       ?TranslateAcceleratorW@?$IOleInPlaceActiveObjectImpl@VCOPOSCashChanger@@@ATL@@UEAAJPEAUtagMSG@@@Z 0000000180028b00 f i CashChanger.obj
 0001:00027d70       ?UIDeactivate@?$IOleInPlaceObjectWindowlessImpl@VCOPOSCashChanger@@@ATL@@UEAAJXZ 0000000180028d70 f i CashChanger.obj
 0001:00027e20       ?Unadvise@?$CProxy_IOPOSEvents@VCOPOSCashChanger@@@@UEAAJK@Z 0000000180028e20 f i CashChanger.obj
 0001:00027e70       ?Unadvise@?$IConnectionPointImpl@VCOPOSCashChanger@@$1?DIID__IOPOSCashChangerEvents@@3U_GUID@@BVCComDynamicUnkArray@ATL@@@ATL@@UEAAJK@Z 0000000180028e70 f i CashChanger.obj
 0001:00027f60       ?Unadvise@?$IConnectionPointImpl@VCOPOSCashChanger@@$1?IID_IPropertyNotifySink@@3U_GUID@@BVCComDynamicUnkArray@ATL@@@ATL@@UEAAJK@Z 0000000180028f60 f i CashChanger.obj
 0001:00028050       ?Unadvise@?$IOleObjectImpl@VCOPOSCashChanger@@@ATL@@UEAAJK@Z 0000000180029050 f i CashChanger.obj
 0001:00028140       ?Unfreeze@?$IViewObjectExImpl@VCOPOSCashChanger@@@ATL@@UEAAJK@Z 0000000180029140 f i CashChanger.obj
 0001:000281c0       ?Unlock@?$CComCritSecLock@VCComCriticalSection@ATL@@@ATL@@QEAAXXZ 00000001800291c0 f i CashChanger.obj
 0001:00028250       ?Unlock@?$CComObjectRootEx@VCComSingleThreadModel@ATL@@@ATL@@QEAAXXZ 0000000180029250 f i CashChanger.obj
 0001:00028260       ?Unlock@CAtlModule@ATL@@UEAAJXZ 0000000180029260 f i CashChanger.obj
 0001:000282a0       ?Unlock@CComCriticalSection@ATL@@QEAAJXZ 00000001800292a0 f i CashChanger.obj
 0001:000282e0       ?Unlock@CComFakeCriticalSection@ATL@@QEAAJXZ 00000001800292e0 f i CashChanger.obj
 0001:000282f0       ?UnregisterServer@?$CAtlModuleT@VCComModule@ATL@@@ATL@@QEAAJHPEBU_GUID@@@Z 00000001800292f0 f i CashChanger.obj
 0001:00028360       ?UnregisterServer@CAtlComModule@ATL@@QEAAJHPEBU_GUID@@@Z 0000000180029360 f i CashChanger.obj
 0001:000283a0       ?UnregisterServer@CComModule@ATL@@QEAAJHPEBU_GUID@@@Z 00000001800293a0 f i CashChanger.obj
 0001:00028490       ?Update@?$IOleObjectImpl@VCOPOSCashChanger@@@ATL@@UEAAJXZ 0000000180029490 f i CashChanger.obj
 0001:00028500       ?UpdateRegistryFromResource@CAtlModule@ATL@@QEAAJIHPEAU_ATL_REGMAP_ENTRY@2@@Z 0000000180029500 f i CashChanger.obj
 0001:00028a30       ?UpdateRegistryFromResource@CAtlModule@ATL@@QEAAJPEB_WHPEAU_ATL_REGMAP_ENTRY@2@@Z 0000000180029a30 f i CashChanger.obj
 0001:00028f80       ?UpdateRegistryFromResource@CComModule@ATL@@UEAAJIHPEAU_ATL_REGMAP_ENTRY@2@@Z 0000000180029f80 f i CashChanger.obj
 0001:00028fd0       ?UpdateRegistryFromResource@CComModule@ATL@@UEAAJPEB_WHPEAU_ATL_REGMAP_ENTRY@2@@Z 0000000180029fd0 f i CashChanger.obj
 0001:00029020       ?UpdateRegistryFromResourceD@CComModule@ATL@@UEAAJIHPEAU_ATL_REGMAP_ENTRY@2@@Z 000000018002a020 f i CashChanger.obj
 0001:00029040       ?UpdateRegistryFromResourceD@CComModule@ATL@@UEAAJPEB_WHPEAU_ATL_REGMAP_ENTRY@2@@Z 000000018002a040 f i CashChanger.obj
 0001:00029060       ?VTFromRegType@CRegParser@ATL@@KAHPEB_WAEAG@Z 000000018002a060 f i CashChanger.obj
 0001:00029140       ?WindowProc@?$CWindowImplBaseT@VCWindow@ATL@@V?$CWinTraits@$0FGAAAAAA@$0A@@2@@ATL@@SA_JPEAUHWND__@@I_K_J@Z 000000018002a140 f i CashChanger.obj
 0001:00029420       ?WriteToStream@CComBSTR@ATL@@QEAAJPEAUIStream@@@Z 000000018002a420 f i CashChanger.obj
 0001:00029590       ?WriteToStream@CComVariant@ATL@@QEAAJPEAUIStream@@@Z 000000018002a590 f i CashChanger.obj
 0001:000299a0       ?WriteToStream@CComVariant@ATL@@QEAAJPEAUIStream@@G@Z 000000018002a9a0 f i CashChanger.obj
 0001:00029a80       ?_AtlFinalConstruct@CComObjectRootBase@ATL@@QEAAJXZ 000000018002aa80 f i CashChanger.obj
 0001:00029a90       ?_AtlGetConversionACP@ATL@@YAIXZ 000000018002aa90 f i CashChanger.obj
 0001:00029aa0       ?_AtlInitialConstruct@?$CComAggObject@VCOPOSCashChanger@@@ATL@@QEAAJXZ 000000018002aaa0 f i CashChanger.obj
 0001:00029b00       ?_AtlInitialConstruct@?$CComObjectRootEx@VCComMultiThreadModel@ATL@@@ATL@@QEAAJXZ 000000018002ab00 f i CashChanger.obj
 0001:00029b40       ?_AtlInitialConstruct@?$CComObjectRootEx@VCComSingleThreadModel@ATL@@@ATL@@QEAAJXZ 000000018002ab40 f i CashChanger.obj
 0001:00029b50       ?_AtlVerifyStackAvailable@_ATL_SAFE_ALLOCA_IMPL@ATL@@YA_N_K@Z 000000018002ab50 f i CashChanger.obj
 0001:00029cb0       ?_GetEntries@?$CComEnum@UIEnumConnectionPoints@@$1?_GUID_b196b285_bab4_101a_b69c_00aa00341d07@@3U__s_GUID@@BPEAUIConnectionPoint@@V?$_CopyInterface@UIConnectionPoint@@@ATL@@VCComSingleThreadModel@6@@ATL@@SAPEBU_ATL_INTMAP_ENTRY@2@XZ 000000018002acb0 f i CashChanger.obj
 0001:00029cd0       ?_GetEntries@?$CComEnum@UIEnumConnections@@$1?_GUID_b196b287_bab4_101a_b69c_00aa00341d07@@3U__s_GUID@@BUtagCONNECTDATA@@V?$_Copy@UtagCONNECTDATA@@@ATL@@VCComSingleThreadModel@6@@ATL@@SAPEBU_ATL_INTMAP_ENTRY@2@XZ 000000018002acd0 f i CashChanger.obj
 0001:00029cf0       ?_GetEntries@CComClassFactory@ATL@@SAPEBU_ATL_INTMAP_ENTRY@2@XZ 000000018002acf0 f i CashChanger.obj
 0001:00029d10       ?_GetEntries@COPOSCashChanger@@SAPEBU_ATL_INTMAP_ENTRY@ATL@@XZ 000000018002ad10 f i CashChanger.obj
 0001:00029d30       ?_GetRawUnknown@COPOSCashChanger@@QEAAPEAUIUnknown@@XZ 000000018002ad30 f i CashChanger.obj
 0001:00029dc0       ?_GetViewStatus@COPOSCashChanger@@QEAAKXZ 000000018002adc0 f i CashChanger.obj
 0001:00029dd0       ?_InternalQueryInterface@?$CComEnum@UIEnumConnectionPoints@@$1?_GUID_b196b285_bab4_101a_b69c_00aa00341d07@@3U__s_GUID@@BPEAUIConnectionPoint@@V?$_CopyInterface@UIConnectionPoint@@@ATL@@VCComSingleThreadModel@6@@ATL@@QEAAJAEBU_GUID@@PEAPEAX@Z 000000018002add0 f i CashChanger.obj
 0001:00029e20       ?_InternalQueryInterface@?$CComEnum@UIEnumConnections@@$1?_GUID_b196b287_bab4_101a_b69c_00aa00341d07@@3U__s_GUID@@BUtagCONNECTDATA@@V?$_Copy@UtagCONNECTDATA@@@ATL@@VCComSingleThreadModel@6@@ATL@@QEAAJAEBU_GUID@@PEAPEAX@Z 000000018002ae20 f i CashChanger.obj
 0001:00029e70       ?_InternalQueryInterface@CComClassFactory@ATL@@QEAAJAEBU_GUID@@PEAPEAX@Z 000000018002ae70 f i CashChanger.obj
 0001:00029ec0       ?_InternalQueryInterface@COPOSCashChanger@@QEAAJAEBU_GUID@@PEAPEAX@Z 000000018002aec0 f i CashChanger.obj
 0001:00029f10       ?_LocCPQueryInterface@?$IConnectionPointImpl@VCOPOSCashChanger@@$1?DIID__IOPOSCashChangerEvents@@3U_GUID@@BVCComDynamicUnkArray@ATL@@@ATL@@UEAAJAEBU_GUID@@PEAPEAX@Z 000000018002af10 f i CashChanger.obj
 0001:00029ff0       ?_LocCPQueryInterface@?$IConnectionPointImpl@VCOPOSCashChanger@@$1?IID_IPropertyNotifySink@@3U_GUID@@BVCComDynamicUnkArray@ATL@@@ATL@@UEAAJAEBU_GUID@@PEAPEAX@Z 000000018002aff0 f i CashChanger.obj
 0001:0002a0d0       ?atlCreate@?$CWindowImpl@VCOPOSCashChanger@@VCWindow@ATL@@V?$CWinTraits@$0FGAAAAAA@$0A@@3@@ATL@@QEAAPEAUHWND__@@PEAU3@V_U_RECT@2@PEB_WKKV_U_MENUorID@2@PEAX@Z 000000018002b0d0 f i CashChanger.obj
 0001:0002a200       ?atlCreate@?$CWindowImplBaseT@VCWindow@ATL@@V?$CWinTraits@$0FGAAAAAA@$0A@@2@@ATL@@QEAAPEAUHWND__@@PEAU3@V_U_RECT@2@PEB_WKKV_U_MENUorID@2@GPEAX@Z 000000018002b200 f i CashChanger.obj
 0001:0002a460       ?atlCreate@CRegKey@ATL@@QEAAJPEAUHKEY__@@PEB_WPEA_WKKPEAU_SECURITY_ATTRIBUTES@@PEAK@Z 000000018002b460 f i CashChanger.obj
 0001:0002a650       ?begin@CComDynamicUnkArray@ATL@@QEAAPEAPEAUIUnknown@@XZ 000000018002b650 f i CashChanger.obj
 0001:0002a660       ?copy@?$_Copy@UtagCONNECTDATA@@@ATL@@SAJPEAUtagCONNECTDATA@@PEBU3@@Z 000000018002b660 f i CashChanger.obj
 0001:0002a750       ?copy@?$_CopyInterface@UIConnectionPoint@@@ATL@@SAJPEAPEAUIConnectionPoint@@PEBQEAU3@@Z 000000018002b750 f i CashChanger.obj
 0001:0002a840       ?destroy@?$_Copy@UtagCONNECTDATA@@@ATL@@SAXPEAUtagCONNECTDATA@@@Z 000000018002b840 f i CashChanger.obj
 0001:0002a890       ?destroy@?$_CopyInterface@UIConnectionPoint@@@ATL@@SAXPEAPEAUIConnectionPoint@@@Z 000000018002b890 f i CashChanger.obj
 0001:0002a8e0       ?end@CComDynamicUnkArray@ATL@@QEAAPEAPEAUIUnknown@@XZ 000000018002b8e0 f i CashChanger.obj
 0001:0002a900       ?init@?$_Copy@UtagCONNECTDATA@@@ATL@@SAXPEAUtagCONNECTDATA@@@Z 000000018002b900 f i CashChanger.obj
 0001:0002a910       ?init@?$_CopyInterface@UIConnectionPoint@@@ATL@@SAXPEAPEAUIConnectionPoint@@@Z 000000018002b910 f i CashChanger.obj
 0001:0002a920       ?memcpy_s@Checked@ATL@@YAXPEAX_KPEBX1@Z 000000018002b920 f i CashChanger.obj
 0001:0002a980       ?ocscpy_s@@YA_NPEA_W_KPEB_W@Z 000000018002b980 f i CashChanger.obj
 0001:0002aa00       ?ocslen@@YAHPEB_W@Z        000000018002ba00 f i CashChanger.obj
 0001:0002aa40       ?tcsncpy_s@Checked@ATL@@YAHPEA_W_KPEB_W1@Z 000000018002ba40 f i CashChanger.obj
 0001:0002aaa0       ?wcscat_s@Checked@ATL@@YAXPEA_W_KPEB_W@Z 000000018002baa0 f i CashChanger.obj
 0001:0002aaf0       ?wcscpy_s@Checked@ATL@@YAXPEA_W_KPEB_W@Z 000000018002baf0 f i CashChanger.obj
 0001:0002ab40       ?wcsncpy_s@Checked@ATL@@YAHPEA_W_KPEB_W1@Z 000000018002bb40 f i CashChanger.obj
 0001:0002aba0       ?wcsstr@@YAPEA_WPEA_WPEB_W@Z 000000018002bba0 f i CashChanger.obj
 0001:0002abe0       InlineIsEqualGUID          000000018002bbe0 f i CashChanger.obj
 0001:0002acb0       IsEqualGUID                000000018002bcb0 f i CashChanger.obj
 0001:0002ad10       ??0COPOSCashChanger@@QEAA@XZ 000000018002bd10 f   CashChangerImpl.obj
 0001:0002ae90       ?FinalConstruct@COPOSCashChanger@@QEAAJXZ 000000018002be90 f   CashChangerImpl.obj
 0001:0002af80       ??1COPOSCashChanger@@UEAA@XZ 000000018002bf80 f   CashChangerImpl.obj
 0001:0002b060       ?WriteTrace@COPOSCashChanger@@QEAAXPEB_WZZ 000000018002c060 f   CashChangerImpl.obj
 0001:0002b120       ?WriteTraceString@COPOSCashChanger@@QEAAXPEB_WPEA_W@Z 000000018002c120 f   CashChangerImpl.obj
 0001:0002b560       ?WriteTraceString@COPOSCashChanger@@QEAAXPEAXHHHPEB_WZZ 000000018002c560 f   CashChangerImpl.obj
 0001:0002b7f0       ?WriteTraceError@COPOSCashChanger@@QEAAXPEB_WK@Z 000000018002c7f0 f   CashChangerImpl.obj
 0001:0002b8f0       ?WriteTraceMethods@COPOSCashChanger@@QEAAXPEAJH@Z 000000018002c8f0 f   CashChangerImpl.obj
 0001:0002b980       ?GetOposProp@COPOSCashChanger@@IEAAJPEBDJPEAJJ@Z 000000018002c980 f   CashChangerImpl.obj
 0001:0002bca0       ?SetOposProp@COPOSCashChanger@@IEAAJPEBDJJJ@Z 000000018002cca0 f   CashChangerImpl.obj
 0001:0002c000       ?GetOposProp@COPOSCashChanger@@IEAAJPEBDJPEAFJ@Z 000000018002d000 f   CashChangerImpl.obj
 0001:0002c0a0       ?SetOposProp@COPOSCashChanger@@IEAAJPEBDJFJ@Z 000000018002d0a0 f   CashChangerImpl.obj
 0001:0002c120       ?GetOposProp@COPOSCashChanger@@IEAAJPEBDJPEAPEA_WJ@Z 000000018002d120 f   CashChangerImpl.obj
 0001:0002c440       ?SetOposProp@COPOSCashChanger@@IEAAJPEBDJPEA_WJ@Z 000000018002d440 f   CashChangerImpl.obj
 0001:0002c820       ?DoInvoke@COPOSCashChanger@@IEAAJPEBDJPEAVOposVariant@@IHPEAJ_N@Z 000000018002d820 f   CashChangerImpl.obj
 0001:0002d370       ?SetCOFreezeEvents@COPOSCashChanger@@IEAAXF@Z 000000018002e370 f   CashChangerImpl.obj
 0001:0002d500       ?FreezeEvents@COPOSCashChanger@@MEAAJH@Z 000000018002e500 f   CashChangerImpl.obj
 0001:0002d630       ?OnDraw@COPOSCashChanger@@MEAAJAEAUATL_DRAWINFO@@@Z 000000018002e630 f   CashChangerImpl.obj
 0001:0002d800       ?SOProcessID@COPOSCashChanger@@UEAAJPEAJ@Z 000000018002e800 f   CashChangerImpl.obj
 0001:0002d860       ?get_OpenResult@COPOSCashChanger@@UEAAJPEAJ@Z 000000018002e860 f   CashChangerImpl.obj
 0001:0002d8c0       ?get_BinaryConversion@COPOSCashChanger@@UEAAJPEAJ@Z 000000018002e8c0 f   CashChangerImpl.obj
 0001:0002d920       ?put_BinaryConversion@COPOSCashChanger@@UEAAJJ@Z 000000018002e920 f   CashChangerImpl.obj
 0001:0002d990       ?get_CheckHealthText@COPOSCashChanger@@UEAAJPEAPEA_W@Z 000000018002e990 f   CashChangerImpl.obj
 0001:0002d9f0       ?get_Claimed@COPOSCashChanger@@UEAAJPEAF@Z 000000018002e9f0 f   CashChangerImpl.obj
 0001:0002da50       ?get_DeviceEnabled@COPOSCashChanger@@UEAAJPEAF@Z 000000018002ea50 f   CashChangerImpl.obj
 0001:0002dab0       ?put_DeviceEnabled@COPOSCashChanger@@UEAAJF@Z 000000018002eab0 f   CashChangerImpl.obj
 0001:0002db10       ?get_FreezeEvents@COPOSCashChanger@@UEAAJPEAF@Z 000000018002eb10 f   CashChangerImpl.obj
 0001:0002db70       ?put_FreezeEvents@COPOSCashChanger@@UEAAJF@Z 000000018002eb70 f   CashChangerImpl.obj
 0001:0002dc50       ?get_ResultCode@COPOSCashChanger@@UEAAJPEAJ@Z 000000018002ec50 f   CashChangerImpl.obj
 0001:0002dd20       ?get_ResultCodeExtended@COPOSCashChanger@@UEAAJPEAJ@Z 000000018002ed20 f   CashChangerImpl.obj
 0001:0002dd80       ?get_State@COPOSCashChanger@@UEAAJPEAJ@Z 000000018002ed80 f   CashChangerImpl.obj
 0001:0002de10       ?get_ControlObjectDescription@COPOSCashChanger@@UEAAJPEAPEA_W@Z 000000018002ee10 f   CashChangerImpl.obj
 0001:0002de90       ?get_ControlObjectVersion@COPOSCashChanger@@UEAAJPEAJ@Z 000000018002ee90 f   CashChangerImpl.obj
 0001:0002def0       ?get_ServiceObjectDescription@COPOSCashChanger@@UEAAJPEAPEA_W@Z 000000018002eef0 f   CashChangerImpl.obj
 0001:0002df50       ?get_ServiceObjectVersion@COPOSCashChanger@@UEAAJPEAJ@Z 000000018002ef50 f   CashChangerImpl.obj
 0001:0002dfb0       ?get_DeviceDescription@COPOSCashChanger@@UEAAJPEAPEA_W@Z 000000018002efb0 f   CashChangerImpl.obj
 0001:0002e010       ?get_DeviceName@COPOSCashChanger@@UEAAJPEAPEA_W@Z 000000018002f010 f   CashChangerImpl.obj
 0001:0002e070       ?CheckHealth@COPOSCashChanger@@UEAAJJPEAJ@Z 000000018002f070 f   CashChangerImpl.obj
 0001:0002e130       ?ClaimDevice@COPOSCashChanger@@UEAAJJPEAJ@Z 000000018002f130 f   CashChangerImpl.obj
 0001:0002e250       ?Close@COPOSCashChanger@@UEAAJPEAJ@Z 000000018002f250 f   CashChangerImpl.obj
 0001:0002e360       ?DirectIO@COPOSCashChanger@@UEAAJJPEAJPEAPEA_W0@Z 000000018002f360 f   CashChangerImpl.obj
 0001:0002e4e0       ?Open@COPOSCashChanger@@UEAAJPEA_WPEAJ@Z 000000018002f4e0 f   CashChangerImpl.obj
 0001:0002f9c0       ?ReleaseDevice@COPOSCashChanger@@UEAAJPEAJ@Z 00000001800309c0 f   CashChangerImpl.obj
 0001:0002fa70       ?get_AsyncMode@COPOSCashChanger@@UEAAJPEAF@Z 0000000180030a70 f   CashChangerImpl.obj
 0001:0002fad0       ?put_AsyncMode@COPOSCashChanger@@UEAAJF@Z 0000000180030ad0 f   CashChangerImpl.obj
 0001:0002fb30       ?get_AsyncResultCode@COPOSCashChanger@@UEAAJPEAJ@Z 0000000180030b30 f   CashChangerImpl.obj
 0001:0002fb90       ?get_AsyncResultCodeExtended@COPOSCashChanger@@UEAAJPEAJ@Z 0000000180030b90 f   CashChangerImpl.obj
 0001:0002fbf0       ?get_CapDiscrepancy@COPOSCashChanger@@UEAAJPEAF@Z 0000000180030bf0 f   CashChangerImpl.obj
 0001:0002fc50       ?get_CapEmptySensor@COPOSCashChanger@@UEAAJPEAF@Z 0000000180030c50 f   CashChangerImpl.obj
 0001:0002fcb0       ?get_CapFullSensor@COPOSCashChanger@@UEAAJPEAF@Z 0000000180030cb0 f   CashChangerImpl.obj
 0001:0002fd10       ?get_CapNearEmptySensor@COPOSCashChanger@@UEAAJPEAF@Z 0000000180030d10 f   CashChangerImpl.obj
 0001:0002fd70       ?get_CapNearFullSensor@COPOSCashChanger@@UEAAJPEAF@Z 0000000180030d70 f   CashChangerImpl.obj
 0001:0002fdd0       ?get_CurrencyCashList@COPOSCashChanger@@UEAAJPEAPEA_W@Z 0000000180030dd0 f   CashChangerImpl.obj
 0001:0002fe30       ?get_CurrencyCode@COPOSCashChanger@@UEAAJPEAPEA_W@Z 0000000180030e30 f   CashChangerImpl.obj
 0001:0002fe90       ?put_CurrencyCode@COPOSCashChanger@@UEAAJPEA_W@Z 0000000180030e90 f   CashChangerImpl.obj
 0001:0002fef0       ?get_CurrencyCodeList@COPOSCashChanger@@UEAAJPEAPEA_W@Z 0000000180030ef0 f   CashChangerImpl.obj
 0001:0002ff50       ?get_CurrentExit@COPOSCashChanger@@UEAAJPEAJ@Z 0000000180030f50 f   CashChangerImpl.obj
 0001:0002ffb0       ?put_CurrentExit@COPOSCashChanger@@UEAAJJ@Z 0000000180030fb0 f   CashChangerImpl.obj
 0001:00030010       ?get_DeviceExits@COPOSCashChanger@@UEAAJPEAJ@Z 0000000180031010 f   CashChangerImpl.obj
 0001:00030070       ?get_DeviceStatus@COPOSCashChanger@@UEAAJPEAJ@Z 0000000180031070 f   CashChangerImpl.obj
 0001:000300d0       ?get_ExitCashList@COPOSCashChanger@@UEAAJPEAPEA_W@Z 00000001800310d0 f   CashChangerImpl.obj
 0001:00030130       ?get_FullStatus@COPOSCashChanger@@UEAAJPEAJ@Z 0000000180031130 f   CashChangerImpl.obj
 0001:00030190       ?DispenseCash@COPOSCashChanger@@UEAAJPEA_WPEAJ@Z 0000000180031190 f   CashChangerImpl.obj
 0001:00030270       ?DispenseChange@COPOSCashChanger@@UEAAJJPEAJ@Z 0000000180031270 f   CashChangerImpl.obj
 0001:00030330       ?ReadCashCounts@COPOSCashChanger@@UEAAJPEAPEA_WPEAFPEAJ@Z 0000000180031330 f   CashChangerImpl.obj
 0001:00030470       ?get_CapPowerReporting@COPOSCashChanger@@UEAAJPEAJ@Z 0000000180031470 f   CashChangerImpl.obj
 0001:000304d0       ?get_PowerNotify@COPOSCashChanger@@UEAAJPEAJ@Z 00000001800314d0 f   CashChangerImpl.obj
 0001:00030530       ?put_PowerNotify@COPOSCashChanger@@UEAAJJ@Z 0000000180031530 f   CashChangerImpl.obj
 0001:00030590       ?get_PowerState@COPOSCashChanger@@UEAAJPEAJ@Z 0000000180031590 f   CashChangerImpl.obj
 0001:000305f0       ?get_DataCount@COPOSCashChanger@@UEAAJPEAJ@Z 00000001800315f0 f   CashChangerImpl.obj
 0001:00030650       ?get_DataEventEnabled@COPOSCashChanger@@UEAAJPEAF@Z 0000000180031650 f   CashChangerImpl.obj
 0001:000306b0       ?put_DataEventEnabled@COPOSCashChanger@@UEAAJF@Z 00000001800316b0 f   CashChangerImpl.obj
 0001:00030710       ?ClearInput@COPOSCashChanger@@UEAAJPEAJ@Z 0000000180031710 f   CashChangerImpl.obj
 0001:00030780       ?get_CapDeposit@COPOSCashChanger@@UEAAJPEAF@Z 0000000180031780 f   CashChangerImpl.obj
 0001:000307e0       ?get_CapDepositDataEvent@COPOSCashChanger@@UEAAJPEAF@Z 00000001800317e0 f   CashChangerImpl.obj
 0001:00030840       ?get_CapPauseDeposit@COPOSCashChanger@@UEAAJPEAF@Z 0000000180031840 f   CashChangerImpl.obj
 0001:000308a0       ?get_CapRepayDeposit@COPOSCashChanger@@UEAAJPEAF@Z 00000001800318a0 f   CashChangerImpl.obj
 0001:00030900       ?get_DepositAmount@COPOSCashChanger@@UEAAJPEAJ@Z 0000000180031900 f   CashChangerImpl.obj
 0001:00030960       ?get_DepositCashList@COPOSCashChanger@@UEAAJPEAPEA_W@Z 0000000180031960 f   CashChangerImpl.obj
 0001:000309c0       ?get_DepositCodeList@COPOSCashChanger@@UEAAJPEAPEA_W@Z 00000001800319c0 f   CashChangerImpl.obj
 0001:00030a20       ?get_DepositCounts@COPOSCashChanger@@UEAAJPEAPEA_W@Z 0000000180031a20 f   CashChangerImpl.obj
 0001:00030a80       ?get_DepositStatus@COPOSCashChanger@@UEAAJPEAJ@Z 0000000180031a80 f   CashChangerImpl.obj
 0001:00030ae0       ?BeginDeposit@COPOSCashChanger@@UEAAJPEAJ@Z 0000000180031ae0 f   CashChangerImpl.obj
 0001:00030b50       ?EndDeposit@COPOSCashChanger@@UEAAJJPEAJ@Z 0000000180031b50 f   CashChangerImpl.obj
 0001:00030c10       ?FixDeposit@COPOSCashChanger@@UEAAJPEAJ@Z 0000000180031c10 f   CashChangerImpl.obj
 0001:00030c80       ?PauseDeposit@COPOSCashChanger@@UEAAJJPEAJ@Z 0000000180031c80 f   CashChangerImpl.obj
 0001:00030d40       ?get_CapStatisticsReporting@COPOSCashChanger@@UEAAJPEAF@Z 0000000180031d40 f   CashChangerImpl.obj
 0001:00030da0       ?get_CapUpdateStatistics@COPOSCashChanger@@UEAAJPEAF@Z 0000000180031da0 f   CashChangerImpl.obj
 0001:00030e00       ?ResetStatistics@COPOSCashChanger@@UEAAJPEA_WPEAJ@Z 0000000180031e00 f   CashChangerImpl.obj
 0001:00030ee0       ?RetrieveStatistics@COPOSCashChanger@@UEAAJPEAPEA_WPEAJ@Z 0000000180031ee0 f   CashChangerImpl.obj
 0001:00030fc0       ?UpdateStatistics@COPOSCashChanger@@UEAAJPEA_WPEAJ@Z 0000000180031fc0 f   CashChangerImpl.obj
 0001:000310a0       ?get_CapCompareFirmwareVersion@COPOSCashChanger@@UEAAJPEAF@Z 00000001800320a0 f   CashChangerImpl.obj
 0001:00031100       ?get_CapUpdateFirmware@COPOSCashChanger@@UEAAJPEAF@Z 0000000180032100 f   CashChangerImpl.obj
 0001:00031160       ?CompareFirmwareVersion@COPOSCashChanger@@UEAAJPEA_WPEAJ1@Z 0000000180032160 f   CashChangerImpl.obj
 0001:000312a0       ?UpdateFirmware@COPOSCashChanger@@UEAAJPEA_WPEAJ@Z 00000001800322a0 f   CashChangerImpl.obj
 0001:00031380       ?get_CapJamSensor@COPOSCashChanger@@UEAAJPEAF@Z 0000000180032380 f   CashChangerImpl.obj
 0001:000313e0       ?get_CapRealTimeData@COPOSCashChanger@@UEAAJPEAF@Z 00000001800323e0 f   CashChangerImpl.obj
 0001:00031440       ?get_CurrentService@COPOSCashChanger@@UEAAJPEAJ@Z 0000000180032440 f   CashChangerImpl.obj
 0001:000314a0       ?put_CurrentService@COPOSCashChanger@@UEAAJJ@Z 00000001800324a0 f   CashChangerImpl.obj
 0001:00031500       ?get_RealTimeDataEnabled@COPOSCashChanger@@UEAAJPEAF@Z 0000000180032500 f   CashChangerImpl.obj
 0001:00031560       ?put_RealTimeDataEnabled@COPOSCashChanger@@UEAAJF@Z 0000000180032560 f   CashChangerImpl.obj
 0001:000315c0       ?get_ServiceCount@COPOSCashChanger@@UEAAJPEAJ@Z 00000001800325c0 f   CashChangerImpl.obj
 0001:00031620       ?get_ServiceIndex@COPOSCashChanger@@UEAAJPEAJ@Z 0000000180032620 f   CashChangerImpl.obj
 0001:00031680       ?AdjustCashCounts@COPOSCashChanger@@UEAAJPEA_WPEAJ@Z 0000000180032680 f   CashChangerImpl.obj
 0001:00031760       ??0?$CComControl@VCOPOSCashChanger@@V?$CWindowImpl@VCOPOSCashChanger@@VCWindow@ATL@@V?$CWinTraits@$0FGAAAAAA@$0A@@3@@ATL@@@ATL@@QEAA@XZ 0000000180032760 f i CashChangerImpl.obj
 0001:000317b0       ??0?$CComPtr@UIAdviseSink@@@ATL@@QEAA@XZ 00000001800327b0 f i CashChangerImpl.obj
 0001:000317f0       ??0?$CComPtr@UIDataAdviseHolder@@@ATL@@QEAA@XZ 00000001800327f0 f i CashChangerImpl.obj
 0001:00031830       ??0?$CComPtr@UIOleAdviseHolder@@@ATL@@QEAA@XZ 0000000180032830 f i CashChangerImpl.obj
 0001:00031870       ??0?$CComPtr@UIOleClientSite@@@ATL@@QEAA@XZ 0000000180032870 f i CashChangerImpl.obj
 0001:000318b0       ??0?$CComPtr@UIOleInPlaceSiteWindowless@@@ATL@@QEAA@XZ 00000001800328b0 f i CashChangerImpl.obj
 0001:000318f0       ??0?$CComPtrBase@UIAdviseSink@@@ATL@@IEAA@XZ 00000001800328f0 f i CashChangerImpl.obj
 0001:00031910       ??0?$CComPtrBase@UIDataAdviseHolder@@@ATL@@IEAA@XZ 0000000180032910 f i CashChangerImpl.obj
 0001:00031930       ??0?$CComPtrBase@UIOleAdviseHolder@@@ATL@@IEAA@XZ 0000000180032930 f i CashChangerImpl.obj
 0001:00031950       ??0?$CComPtrBase@UIOleClientSite@@@ATL@@IEAA@XZ 0000000180032950 f i CashChangerImpl.obj
 0001:00031970       ??0?$CComPtrBase@UIOleInPlaceSiteWindowless@@@ATL@@IEAA@XZ 0000000180032970 f i CashChangerImpl.obj
 0001:00031990       ??0?$CComQIPtr@UIDispatch@@$1?_GUID_00020400_0000_0000_c000_000000000046@@3U__s_GUID@@B@ATL@@QEAA@XZ 0000000180032990 f i CashChangerImpl.obj
 0001:000319d0       ??0?$CProxy_IOPOSEvents@VCOPOSCashChanger@@@@QEAA@PEAVCOPOSCashChanger@@@Z 00000001800329d0 f i CashChangerImpl.obj
 0001:00031a50       ??0?$CWindowImpl@VCOPOSCashChanger@@VCWindow@ATL@@V?$CWinTraits@$0FGAAAAAA@$0A@@3@@ATL@@QEAA@XZ 0000000180032a50 f i CashChangerImpl.obj
 0001:00031a90       ??0?$CWindowImplBaseT@VCWindow@ATL@@V?$CWinTraits@$0FGAAAAAA@$0A@@2@@ATL@@QEAA@XZ 0000000180032a90 f i CashChangerImpl.obj
 0001:00031ae0       ??0?$CWindowImplRoot@VCWindow@ATL@@@ATL@@QEAA@XZ 0000000180032ae0 f i CashChangerImpl.obj
 0001:00031b50       ??0?$IConnectionPointContainerImpl@VCOPOSCashChanger@@@ATL@@QEAA@XZ 0000000180032b50 f i CashChangerImpl.obj
 0001:00031b90       ??0?$IConnectionPointImpl@VCOPOSCashChanger@@$1?DIID__IOPOSCashChangerEvents@@3U_GUID@@BVCComDynamicUnkArray@ATL@@@ATL@@QEAA@XZ 0000000180032b90 f i CashChangerImpl.obj
 0001:00031be0       ??0?$IConnectionPointImpl@VCOPOSCashChanger@@$1?IID_IPropertyNotifySink@@3U_GUID@@BVCComDynamicUnkArray@ATL@@@ATL@@QEAA@XZ 0000000180032be0 f i CashChangerImpl.obj
 0001:00031c30       ??0?$IDataObjectImpl@VCOPOSCashChanger@@@ATL@@QEAA@XZ 0000000180032c30 f i CashChangerImpl.obj
 0001:00031c70       ??0?$IDispatchImpl@UIOPOSCashChanger@@$1?IID_IOPOSCashChanger@@3U_GUID@@B$1?LIBID_OposCashChanger_CCO@@3U3@B$00$0A@VCComTypeInfoHolder@ATL@@@ATL@@QEAA@XZ 0000000180032c70 f i CashChangerImpl.obj
 0001:00031cb0       ??0?$IObjectSafetyImpl@VCOPOSCashChanger@@$02@ATL@@QEAA@XZ 0000000180032cb0 f i CashChangerImpl.obj
 0001:00031cf0       ??0?$IOleControlImpl@VCOPOSCashChanger@@@ATL@@QEAA@XZ 0000000180032cf0 f i CashChangerImpl.obj
 0001:00031d30       ??0?$IOleInPlaceActiveObjectImpl@VCOPOSCashChanger@@@ATL@@QEAA@XZ 0000000180032d30 f i CashChangerImpl.obj
 0001:00031d70       ??0?$IOleInPlaceObjectWindowlessImpl@VCOPOSCashChanger@@@ATL@@QEAA@XZ 0000000180032d70 f i CashChangerImpl.obj
 0001:00031db0       ??0?$IOleObjectImpl@VCOPOSCashChanger@@@ATL@@QEAA@XZ 0000000180032db0 f i CashChangerImpl.obj
 0001:00031df0       ??0?$IPersistStorageImpl@VCOPOSCashChanger@@@ATL@@QEAA@XZ 0000000180032df0 f i CashChangerImpl.obj
 0001:00031e30       ??0?$IPersistStreamInitImpl@VCOPOSCashChanger@@@ATL@@QEAA@XZ 0000000180032e30 f i CashChangerImpl.obj
 0001:00031e70       ??0?$IPropertyNotifySinkCP@VCOPOSCashChanger@@VCComDynamicUnkArray@ATL@@@ATL@@QEAA@XZ 0000000180032e70 f i CashChangerImpl.obj
 0001:00031eb0       ??0?$IProvideClassInfo2Impl@$1?CLSID_OPOSCashChanger@@3U_GUID@@B$1?DIID__IOPOSCashChangerEvents@@3U2@B$1?LIBID_OposCashChanger_CCO@@3U2@B$00$0A@VCComTypeInfoHolder@ATL@@@ATL@@QEAA@XZ 0000000180032eb0 f i CashChangerImpl.obj
 0001:00031ef0       ??0?$IQuickActivateImpl@VCOPOSCashChanger@@@ATL@@QEAA@XZ 0000000180032ef0 f i CashChangerImpl.obj
 0001:00031f30       ??0?$ISpecifyPropertyPagesImpl@VCOPOSCashChanger@@@ATL@@QEAA@XZ 0000000180032f30 f i CashChangerImpl.obj
 0001:00031f70       ??0?$IViewObjectExImpl@VCOPOSCashChanger@@@ATL@@QEAA@XZ 0000000180032f70 f i CashChangerImpl.obj
 0001:00031fb0       ??0?$_ICPLocator@$1?DIID__IOPOSCashChangerEvents@@3U_GUID@@B@ATL@@QEAA@XZ 0000000180032fb0 f i CashChangerImpl.obj
 0001:00031fc0       ??0?$_ICPLocator@$1?IID_IPropertyNotifySink@@3U_GUID@@B@ATL@@QEAA@XZ 0000000180032fc0 f i CashChangerImpl.obj
 0001:00031fd0       ??0CComControlBase@ATL@@QEAA@AEAPEAUHWND__@@@Z 0000000180032fd0 f i CashChangerImpl.obj
 0001:000321f0       ??0CComDynamicUnkArray@ATL@@QEAA@XZ 00000001800331f0 f i CashChangerImpl.obj
 0001:00032220       ??0CDynamicStdCallThunk2@ATL@@QEAA@XZ 0000000180033220 f i CashChangerImpl.obj
 0001:00032240       ??0CMessageMap@ATL@@QEAA@XZ 0000000180033240 f i CashChangerImpl.obj
 0001:00032250       ??0CWindow@ATL@@QEAA@PEAUHWND__@@@Z 0000000180033250 f i CashChangerImpl.obj
 0001:00032270       ??0CWndProcThunk@ATL@@QEAA@XZ 0000000180033270 f i CashChangerImpl.obj
 0001:000322b0       ??0IConnectionPointContainer@@QEAA@XZ 00000001800332b0 f i CashChangerImpl.obj
 0001:000322f0       ??0IDataObject@@QEAA@XZ    00000001800332f0 f i CashChangerImpl.obj
 0001:00032330       ??0IDispatch@@QEAA@XZ      0000000180033330 f i CashChangerImpl.obj
 0001:00032370       ??0IOPOSCashChanger@@QEAA@XZ 0000000180033370 f i CashChangerImpl.obj
 0001:000323b0       ??0IOPOSCashChanger_1_11@@QEAA@XZ 00000001800333b0 f i CashChangerImpl.obj
 0001:000323f0       ??0IOPOSCashChanger_1_5@@QEAA@XZ 00000001800333f0 f i CashChangerImpl.obj
 0001:00032430       ??0IOPOSCashChanger_1_8@@QEAA@XZ 0000000180033430 f i CashChangerImpl.obj
 0001:00032470       ??0IOPOSCashChanger_1_9@@QEAA@XZ 0000000180033470 f i CashChangerImpl.obj
 0001:000324b0       ??0IObjectSafety@@QEAA@XZ  00000001800334b0 f i CashChangerImpl.obj
 0001:000324f0       ??0IOleControl@@QEAA@XZ    00000001800334f0 f i CashChangerImpl.obj
 0001:00032530       ??0IOleInPlaceActiveObject@@QEAA@XZ 0000000180033530 f i CashChangerImpl.obj
 0001:00032570       ??0IOleInPlaceObject@@QEAA@XZ 0000000180033570 f i CashChangerImpl.obj
 0001:000325b0       ??0IOleInPlaceObjectWindowless@@QEAA@XZ 00000001800335b0 f i CashChangerImpl.obj
 0001:000325f0       ??0IOleObject@@QEAA@XZ     00000001800335f0 f i CashChangerImpl.obj
 0001:00032630       ??0IOleWindow@@QEAA@XZ     0000000180033630 f i CashChangerImpl.obj
 0001:00032670       ??0IPersist@@QEAA@XZ       0000000180033670 f i CashChangerImpl.obj
 0001:000326b0       ??0IPersistStorage@@QEAA@XZ 00000001800336b0 f i CashChangerImpl.obj
 0001:000326f0       ??0IPersistStreamInit@@QEAA@XZ 00000001800336f0 f i CashChangerImpl.obj
 0001:00032730       ??0IProvideClassInfo2@@QEAA@XZ 0000000180033730 f i CashChangerImpl.obj
 0001:00032770       ??0IProvideClassInfo@@QEAA@XZ 0000000180033770 f i CashChangerImpl.obj
 0001:000327b0       ??0IQuickActivate@@QEAA@XZ 00000001800337b0 f i CashChangerImpl.obj
 0001:000327f0       ??0ISpecifyPropertyPages@@QEAA@XZ 00000001800337f0 f i CashChangerImpl.obj
 0001:00032830       ??0IViewObject2@@QEAA@XZ   0000000180033830 f i CashChangerImpl.obj
 0001:00032870       ??0IViewObject@@QEAA@XZ    0000000180033870 f i CashChangerImpl.obj
 0001:000328b0       ??0IViewObjectEx@@QEAA@XZ  00000001800338b0 f i CashChangerImpl.obj
 0001:000328f0       ??0OposVariantResult@@QEAA@XZ 00000001800338f0 f i CashChangerImpl.obj
 0001:00032930       ??0_CW@@QEAA@PEBD@Z        0000000180033930 f i CashChangerImpl.obj
 0001:00032980       ??0_CW@@QEAA@PEB_W@Z       0000000180033980 f i CashChangerImpl.obj
 0001:000329d0       ??0_CWNCC@@QEAA@PEBD@Z     00000001800339d0 f i CashChangerImpl.obj
 0001:00032a10       ??1?$CComControl@VCOPOSCashChanger@@V?$CWindowImpl@VCOPOSCashChanger@@VCWindow@ATL@@V?$CWinTraits@$0FGAAAAAA@$0A@@3@@ATL@@@ATL@@UEAA@XZ 0000000180033a10 f i CashChangerImpl.obj
 0001:00032a50       ??1?$CComPtr@UIDataAdviseHolder@@@ATL@@QEAA@XZ 0000000180033a50 f i CashChangerImpl.obj
 0001:00032a80       ??1?$CComPtr@UIOleAdviseHolder@@@ATL@@QEAA@XZ 0000000180033a80 f i CashChangerImpl.obj
 0001:00032ab0       ??1?$CComPtr@UIOleInPlaceSiteWindowless@@@ATL@@QEAA@XZ 0000000180033ab0 f i CashChangerImpl.obj
 0001:00032ae0       ??1?$CComPtrBase@UIDataAdviseHolder@@@ATL@@QEAA@XZ 0000000180033ae0 f i CashChangerImpl.obj
 0001:00032b30       ??1?$CComPtrBase@UIOleAdviseHolder@@@ATL@@QEAA@XZ 0000000180033b30 f i CashChangerImpl.obj
 0001:00032b80       ??1?$CComPtrBase@UIOleInPlaceSiteWindowless@@@ATL@@QEAA@XZ 0000000180033b80 f i CashChangerImpl.obj
 0001:00032bd0       ??1?$CComQIPtr@UIDispatch@@$1?_GUID_00020400_0000_0000_c000_000000000046@@3U__s_GUID@@B@ATL@@QEAA@XZ 0000000180033bd0 f i CashChangerImpl.obj
 0001:00032c00       ??1?$CProxy_IOPOSEvents@VCOPOSCashChanger@@@@QEAA@XZ 0000000180033c00 f i CashChangerImpl.obj
 0001:00032c30       ??1?$CWindowImpl@VCOPOSCashChanger@@VCWindow@ATL@@V?$CWinTraits@$0FGAAAAAA@$0A@@3@@ATL@@UEAA@XZ 0000000180033c30 f i CashChangerImpl.obj
 0001:00032c60       ??1?$CWindowImplBaseT@VCWindow@ATL@@V?$CWinTraits@$0FGAAAAAA@$0A@@2@@ATL@@UEAA@XZ 0000000180033c60 f i CashChangerImpl.obj
 0001:00032c90       ??1?$CWindowImplRoot@VCWindow@ATL@@@ATL@@UEAA@XZ 0000000180033c90 f i CashChangerImpl.obj
 0001:00032d50       ??1?$IConnectionPointImpl@VCOPOSCashChanger@@$1?DIID__IOPOSCashChangerEvents@@3U_GUID@@BVCComDynamicUnkArray@ATL@@@ATL@@QEAA@XZ 0000000180033d50 f i CashChangerImpl.obj
 0001:00032df0       ??1?$IConnectionPointImpl@VCOPOSCashChanger@@$1?IID_IPropertyNotifySink@@3U_GUID@@BVCComDynamicUnkArray@ATL@@@ATL@@QEAA@XZ 0000000180033df0 f i CashChangerImpl.obj
 0001:00032e90       ??1?$IPropertyNotifySinkCP@VCOPOSCashChanger@@VCComDynamicUnkArray@ATL@@@ATL@@QEAA@XZ 0000000180033e90 f i CashChangerImpl.obj
 0001:00032ec0       ??1CComControlBase@ATL@@UEAA@XZ 0000000180033ec0 f i CashChangerImpl.obj
 0001:00032fb0       ??1CComDynamicUnkArray@ATL@@QEAA@XZ 0000000180033fb0 f i CashChangerImpl.obj
 0001:00032ff0       ??1CDynamicStdCallThunk2@ATL@@QEAA@XZ 0000000180033ff0 f i CashChangerImpl.obj
 0001:00033030       ??1CWndProcThunk@ATL@@QEAA@XZ 0000000180034030 f i CashChangerImpl.obj
 0001:00033070       ??1OposVariantResult@@QEAA@XZ 0000000180034070 f i CashChangerImpl.obj
 0001:000330b0       ??1_CW@@QEAA@XZ            00000001800340b0 f i CashChangerImpl.obj
 0001:00033130       ??1_CWNCC@@QEAA@XZ         0000000180034130 f i CashChangerImpl.obj
 0001:00033160       ??B_CW@@QEAAPEB_WXZ        0000000180034160 f i CashChangerImpl.obj
 0001:000331b0       ??B_CWNCC@@QEAAPEA_WXZ     00000001800341b0 f i CashChangerImpl.obj
 0001:000331e0       ??_EOposVariant@@QEAAPEAXI@Z 00000001800341e0 f i CashChangerImpl.obj
 0001:00033290       ?EventClaim@COPOSCashChanger@@IEAAXXZ 0000000180034290 f i CashChangerImpl.obj
 0001:000332e0       ?EventClose@COPOSCashChanger@@IEAAXXZ 00000001800342e0 f i CashChangerImpl.obj
 0001:00033380       ?EventInit@COPOSCashChanger@@IEAAJXZ 0000000180034380 f i CashChangerImpl.obj
 0001:00033630       ?EventOpen@COPOSCashChanger@@IEAAXXZ 0000000180034630 f i CashChangerImpl.obj
 0001:00033670       ?EventPreCloseRelease@COPOSCashChanger@@IEAAXXZ 0000000180034670 f i CashChangerImpl.obj
 0001:000336f0       ?EventUninit@COPOSCashChanger@@IEAAXXZ 00000001800346f0 f i CashChangerImpl.obj
 0001:00033820       ?EventWindowProc@COPOSCashChanger@@IEAA_JI_K_J@Z 0000000180034820 f i CashChangerImpl.obj
 0001:00033980       ?FireEventCleanup@COPOSCashChanger@@IEAAXXZ 0000000180034980 f i CashChangerImpl.obj
 0001:000339d0       ?FireEventSetup@COPOSCashChanger@@IEAA_NXZ 00000001800349d0 f i CashChangerImpl.obj
 0001:00033a50       ?GetModuleInstance@CComModule@ATL@@QEAAPEAUHINSTANCE__@@XZ 0000000180034a50 f i CashChangerImpl.obj
 0001:00033a60       ?SetRC@COPOSCashChanger@@IEAAJJ@Z 0000000180034a60 f i CashChangerImpl.obj
 0001:00033a80       ?s_EventWindowProc@COPOSCashChanger@@KA_JPEAUHWND__@@I_K_J@Z 0000000180034a80 f i CashChangerImpl.obj
 0001:00033b30       _snwprintf                 0000000180034b30 f i CashChangerImpl.obj
 0001:00033bc0       _vfwprintf_l               0000000180034bc0 f i CashChangerImpl.obj
 0001:00033c20       _vsnwprintf                0000000180034c20 f i CashChangerImpl.obj
 0001:00033c80       _vsnwprintf_l              0000000180034c80 f i CashChangerImpl.obj
 0001:00033d10       vfwprintf                  0000000180034d10 f i CashChangerImpl.obj
 0001:00033d55       DebugBreak                 0000000180034d55 f   kernel32:KERNEL32.dll
 0001:00033d5b       Sleep                      0000000180034d5b f   kernel32:KERNEL32.dll
 0001:00033d61       GetCurrentProcess          0000000180034d61 f   kernel32:KERNEL32.dll
 0001:00033d67       TerminateProcess           0000000180034d67 f   kernel32:KERNEL32.dll
 0001:00033d6d       MultiByteToWideChar        0000000180034d6d f   kernel32:KERNEL32.dll
 0001:00033d73       WideCharToMultiByte        0000000180034d73 f   kernel32:KERNEL32.dll
 0001:00033d79       DecodePointer              0000000180034d79 f   kernel32:KERNEL32.dll
 0001:00033d7f       RaiseException             0000000180034d7f f   kernel32:KERNEL32.dll
 0001:00033d85       GetLastError               0000000180034d85 f   kernel32:KERNEL32.dll
 0001:00033d8b       SetLastError               0000000180034d8b f   kernel32:KERNEL32.dll
 0001:00033d91       InitializeCriticalSectionEx 0000000180034d91 f   kernel32:KERNEL32.dll
 0001:00033d97       DeleteCriticalSection      0000000180034d97 f   kernel32:KERNEL32.dll
 0001:00033d9d       EncodePointer              0000000180034d9d f   kernel32:KERNEL32.dll
 0001:00033da3       EnterCriticalSection       0000000180034da3 f   kernel32:KERNEL32.dll
 0001:00033da9       LeaveCriticalSection       0000000180034da9 f   kernel32:KERNEL32.dll
 0001:00033daf       ResetEvent                 0000000180034daf f   kernel32:KERNEL32.dll
 0001:00033db5       ReleaseMutex               0000000180034db5 f   kernel32:KERNEL32.dll
 0001:00033dbb       WaitForSingleObject        0000000180034dbb f   kernel32:KERNEL32.dll
 0001:00033dc1       GetCurrentThreadId         0000000180034dc1 f   kernel32:KERNEL32.dll
 0001:00033dc7       DisableThreadLibraryCalls  0000000180034dc7 f   kernel32:KERNEL32.dll
 0001:00033dcd       FreeLibrary                0000000180034dcd f   kernel32:KERNEL32.dll
 0001:00033dd3       GetModuleFileNameW         0000000180034dd3 f   kernel32:KERNEL32.dll
 0001:00033dd9       GetModuleHandleW           0000000180034dd9 f   kernel32:KERNEL32.dll
 0001:00033ddf       GetProcAddress             0000000180034ddf f   kernel32:KERNEL32.dll
 0001:00033de5       LoadLibraryExW             0000000180034de5 f   kernel32:KERNEL32.dll
 0001:00033deb       LoadResource               0000000180034deb f   kernel32:KERNEL32.dll
 0001:00033df1       SizeofResource             0000000180034df1 f   kernel32:KERNEL32.dll
 0001:00033df7       FindResourceW              0000000180034df7 f   kernel32:KERNEL32.dll
 0001:00033dfd       GlobalAlloc                0000000180034dfd f   kernel32:KERNEL32.dll
 0001:00033e03       GlobalUnlock               0000000180034e03 f   kernel32:KERNEL32.dll
 0001:00033e09       GlobalLock                 0000000180034e09 f   kernel32:KERNEL32.dll
 0001:00033e0f       MulDiv                     0000000180034e0f f   kernel32:KERNEL32.dll
 0001:00033e15       lstrcmpiW                  0000000180034e15 f   kernel32:KERNEL32.dll
 0001:00033e1b       DeleteFileW                0000000180034e1b f   kernel32:KERNEL32.dll
 0001:00033e21       CloseHandle                0000000180034e21 f   kernel32:KERNEL32.dll
 0001:00033e27       SetEvent                   0000000180034e27 f   kernel32:KERNEL32.dll
 0001:00033e2d       CreateMutexW               0000000180034e2d f   kernel32:KERNEL32.dll
 0001:00033e33       CreateEventW               0000000180034e33 f   kernel32:KERNEL32.dll
 0001:00033e39       GetCurrentProcessId        0000000180034e39 f   kernel32:KERNEL32.dll
 0001:00033e3f       LocalFree                  0000000180034e3f f   kernel32:KERNEL32.dll
 0001:00033e45       FormatMessageW             0000000180034e45 f   kernel32:KERNEL32.dll
 0001:00033e4b       GetActiveWindow            0000000180034e4b f   user32:USER32.dll
 0001:00033e51       MessageBoxW                0000000180034e51 f   user32:USER32.dll
 0001:00033e57       UnregisterClassW           0000000180034e57 f   user32:USER32.dll
 0001:00033e5d       PostMessageW               0000000180034e5d f   user32:USER32.dll
 0001:00033e63       DefWindowProcW             0000000180034e63 f   user32:USER32.dll
 0001:00033e69       CallWindowProcW            0000000180034e69 f   user32:USER32.dll
 0001:00033e6f       RegisterClassExW           0000000180034e6f f   user32:USER32.dll
 0001:00033e75       GetClassInfoExW            0000000180034e75 f   user32:USER32.dll
 0001:00033e7b       CreateWindowExW            0000000180034e7b f   user32:USER32.dll
 0001:00033e81       IsWindow                   0000000180034e81 f   user32:USER32.dll
 0001:00033e87       IsChild                    0000000180034e87 f   user32:USER32.dll
 0001:00033e8d       DestroyWindow              0000000180034e8d f   user32:USER32.dll
 0001:00033e93       ShowWindow                 0000000180034e93 f   user32:USER32.dll
 0001:00033e99       SetWindowPos               0000000180034e99 f   user32:USER32.dll
 0001:00033e9f       CharNextW                  0000000180034e9f f   user32:USER32.dll
 0001:00033ea5       SetFocus                   0000000180034ea5 f   user32:USER32.dll
 0001:00033eab       GetFocus                   0000000180034eab f   user32:USER32.dll
 0001:00033eb1       GetKeyState                0000000180034eb1 f   user32:USER32.dll
 0001:00033eb7       GetDC                      0000000180034eb7 f   user32:USER32.dll
 0001:00033ebd       ReleaseDC                  0000000180034ebd f   user32:USER32.dll
 0001:00033ec3       BeginPaint                 0000000180034ec3 f   user32:USER32.dll
 0001:00033ec9       EndPaint                   0000000180034ec9 f   user32:USER32.dll
 0001:00033ecf       SetWindowRgn               0000000180034ecf f   user32:USER32.dll
 0001:00033ed5       InvalidateRect             0000000180034ed5 f   user32:USER32.dll
 0001:00033edb       GetClientRect              0000000180034edb f   user32:USER32.dll
 0001:00033ee1       IntersectRect              0000000180034ee1 f   user32:USER32.dll
 0001:00033ee7       UnionRect                  0000000180034ee7 f   user32:USER32.dll
 0001:00033eed       OffsetRect                 0000000180034eed f   user32:USER32.dll
 0001:00033ef3       EqualRect                  0000000180034ef3 f   user32:USER32.dll
 0001:00033ef9       PtInRect                   0000000180034ef9 f   user32:USER32.dll
 0001:00033eff       GetWindowLongPtrW          0000000180034eff f   user32:USER32.dll
 0001:00033f05       SetWindowLongPtrW          0000000180034f05 f   user32:USER32.dll
 0001:00033f0b       GetParent                  0000000180034f0b f   user32:USER32.dll
 0001:00033f11       LoadCursorW                0000000180034f11 f   user32:USER32.dll
 0001:00033f17       PeekMessageW               0000000180034f17 f   user32:USER32.dll
 0001:00033f1d       RegisterClassW             0000000180034f1d f   user32:USER32.dll
 0001:00033f23       LoadBitmapW                0000000180034f23 f   user32:USER32.dll
 0001:00033f29       CloseMetaFile              0000000180034f29 f   gdi32:GDI32.dll
 0001:00033f2f       CreateDCW                  0000000180034f2f f   gdi32:GDI32.dll
 0001:00033f35       CreateMetaFileW            0000000180034f35 f   gdi32:GDI32.dll
 0001:00033f3b       CreateRectRgnIndirect      0000000180034f3b f   gdi32:GDI32.dll
 0001:00033f41       DeleteDC                   0000000180034f41 f   gdi32:GDI32.dll
 0001:00033f47       DeleteMetaFile             0000000180034f47 f   gdi32:GDI32.dll
 0001:00033f4d       GetDeviceCaps              0000000180034f4d f   gdi32:GDI32.dll
 0001:00033f53       RestoreDC                  0000000180034f53 f   gdi32:GDI32.dll
 0001:00033f59       SaveDC                     0000000180034f59 f   gdi32:GDI32.dll
 0001:00033f5f       SetMapMode                 0000000180034f5f f   gdi32:GDI32.dll
 0001:00033f65       LPtoDP                     0000000180034f65 f   gdi32:GDI32.dll
 0001:00033f6b       SetViewportOrgEx           0000000180034f6b f   gdi32:GDI32.dll
 0001:00033f71       SetWindowExtEx             0000000180034f71 f   gdi32:GDI32.dll
 0001:00033f77       SetWindowOrgEx             0000000180034f77 f   gdi32:GDI32.dll
 0001:00033f7d       BitBlt                     0000000180034f7d f   gdi32:GDI32.dll
 0001:00033f83       CreateCompatibleDC         0000000180034f83 f   gdi32:GDI32.dll
 0001:00033f89       DeleteObject               0000000180034f89 f   gdi32:GDI32.dll
 0001:00033f8f       SelectObject               0000000180034f8f f   gdi32:GDI32.dll
 0001:00033f95       GetObjectW                 0000000180034f95 f   gdi32:GDI32.dll
 0001:00033f9b       RegCloseKey                0000000180034f9b f   advapi32:ADVAPI32.dll
 0001:00033fa1       RegCreateKeyExW            0000000180034fa1 f   advapi32:ADVAPI32.dll
 0001:00033fa7       RegDeleteKeyW              0000000180034fa7 f   advapi32:ADVAPI32.dll
 0001:00033fad       RegDeleteValueW            0000000180034fad f   advapi32:ADVAPI32.dll
 0001:00033fb3       RegEnumKeyExW              0000000180034fb3 f   advapi32:ADVAPI32.dll
 0001:00033fb9       RegOpenKeyExW              0000000180034fb9 f   advapi32:ADVAPI32.dll
 0001:00033fbf       RegQueryInfoKeyW           0000000180034fbf f   advapi32:ADVAPI32.dll
 0001:00033fc5       RegSetValueExW             0000000180034fc5 f   advapi32:ADVAPI32.dll
 0001:00033fcb       RegQueryValueExW           0000000180034fcb f   advapi32:ADVAPI32.dll
 0001:00033fd1       CoCreateInstance           0000000180034fd1 f   ole32:ole32.dll
 0001:00033fd7       StringFromGUID2            0000000180034fd7 f   ole32:ole32.dll
 0001:00033fdd       CoTaskMemAlloc             0000000180034fdd f   ole32:ole32.dll
 0001:00033fe3       CoTaskMemRealloc           0000000180034fe3 f   ole32:ole32.dll
 0001:00033fe9       CoTaskMemFree              0000000180034fe9 f   ole32:ole32.dll
 0001:00033fef       ReadClassStm               0000000180034fef f   ole32:ole32.dll
 0001:00033ff5       WriteClassStm              0000000180034ff5 f   ole32:ole32.dll
 0001:00033ffb       CreateDataAdviseHolder     0000000180034ffb f   ole32:ole32.dll
 0001:00034001       OleSaveToStream            0000000180035001 f   ole32:ole32.dll
 0001:00034007       CreateOleAdviseHolder      0000000180035007 f   ole32:ole32.dll
 0001:0003400d       OleRegGetUserType          000000018003500d f   ole32:ole32.dll
 0001:00034013       OleRegGetMiscStatus        0000000180035013 f   ole32:ole32.dll
 0001:00034019       OleRegEnumVerbs            0000000180035019 f   ole32:ole32.dll
 0001:0003401f       CLSIDFromProgID            000000018003501f f   ole32:ole32.dll
 0001:00034025       SysAllocString             0000000180035025 f   oleaut32:OLEAUT32.dll
 0001:0003402b       SysAllocStringLen          000000018003502b f   oleaut32:OLEAUT32.dll
 0001:00034031       SysFreeString              0000000180035031 f   oleaut32:OLEAUT32.dll
 0001:00034037       SysStringLen               0000000180035037 f   oleaut32:OLEAUT32.dll
 0001:0003403d       VariantClear               000000018003503d f   oleaut32:OLEAUT32.dll
 0001:00034043       VariantCopyInd             0000000180035043 f   oleaut32:OLEAUT32.dll
 0001:00034049       VariantChangeType          0000000180035049 f   oleaut32:OLEAUT32.dll
 0001:0003404f       SysStringByteLen           000000018003504f f   oleaut32:OLEAUT32.dll
 0001:00034055       SysAllocStringByteLen      0000000180035055 f   oleaut32:OLEAUT32.dll
 0001:0003405b       VariantInit                000000018003505b f   oleaut32:OLEAUT32.dll
 0001:00034061       VarUI4FromStr              0000000180035061 f   oleaut32:OLEAUT32.dll
 0001:00034067       LoadTypeLib                0000000180035067 f   oleaut32:OLEAUT32.dll
 0001:0003406d       LoadRegTypeLib             000000018003506d f   oleaut32:OLEAUT32.dll
 0001:00034073       RegisterTypeLib            0000000180035073 f   oleaut32:OLEAUT32.dll
 0001:00034079       UnRegisterTypeLib          0000000180035079 f   oleaut32:OLEAUT32.dll
 0001:0003407f       OleCreatePropertyFrame     000000018003507f f   oleaut32:OLEAUT32.dll
 0001:00034090       _RTC_AllocaHelper          0000000180035090 f   LIBCMTD:stack.obj
 0001:000340d0       _RTC_CheckStackVars        00000001800350d0 f   LIBCMTD:stack.obj
 0001:00034160       _RTC_CheckStackVars2       0000000180035160 f   LIBCMTD:stack.obj
 0001:00034270       _CRT_RTC_INIT              0000000180035270 f   LIBCMTD:init.obj
 0001:00034280       _CRT_RTC_INITW             0000000180035280 f   LIBCMTD:init.obj
 0001:00034290       _RTC_InitBase              0000000180035290 f   LIBCMTD:init.obj
 0001:000342d0       _RTC_Shutdown              00000001800352d0 f   LIBCMTD:init.obj
 0001:00034300       __GSHandlerCheck           0000000180035300 f   LIBCMTD:gshandler.obj
 0001:00034340       __GSHandlerCheckCommon     0000000180035340 f   LIBCMTD:gshandler.obj
 0001:00034450       __security_check_cookie    0000000180035450 f   LIBCMTD:amdsecgs.obj
 0001:00034480       ??_U@YAPEAX_K@Z            0000000180035480 f   LIBCMTD:new_array.obj
 0001:000344a0       ??3@YAXPEAX_K@Z            00000001800354a0 f   LIBCMTD:delete_scalar_size.obj
 0001:000344c0       ??_V@YAXPEAX@Z             00000001800354c0 f   LIBCMTD:delete_array.obj
 0001:000344e0       ??_V@YAXPEAX_K@Z           00000001800354e0 f   LIBCMTD:delete_array_size.obj
 0001:00034500       ?configure_argv@__scrt_narrow_argv_policy@@SAHXZ 0000000180035500 f i LIBCMTD:utility.obj
 0001:000345f0       ?initialize_environment@__scrt_narrow_environment_policy@@SAHXZ 00000001800355f0 f i LIBCMTD:utility.obj
 0001:00034690       NtCurrentTeb               0000000180035690 f i LIBCMTD:utility.obj
 0001:000346a0       __scrt_acquire_startup_lock 00000001800356a0 f   LIBCMTD:utility.obj
 0001:00034710       __scrt_dllmain_after_initialize_c 0000000180035710 f   LIBCMTD:utility.obj
 0001:00034740       __scrt_dllmain_before_initialize_c 0000000180035740 f   LIBCMTD:utility.obj
 0001:00034760       __scrt_dllmain_crt_thread_attach 0000000180035760 f   LIBCMTD:utility.obj
 0001:00034790       __scrt_dllmain_crt_thread_detach 0000000180035790 f   LIBCMTD:utility.obj
 0001:000347b0       __scrt_dllmain_exception_filter 00000001800357b0 f   LIBCMTD:utility.obj
 0001:00034820       __scrt_dllmain_uninitialize_c 0000000180035820 f   LIBCMTD:utility.obj
 0001:00034850       __scrt_dllmain_uninitialize_critical 0000000180035850 f   LIBCMTD:utility.obj
 0001:00034870       __scrt_initialize_crt      0000000180035870 f   LIBCMTD:utility.obj
 0001:000348c0       __scrt_initialize_onexit_tables 00000001800358c0 f   LIBCMTD:utility.obj
 0001:000349d0       __scrt_is_nonwritable_in_current_image 00000001800359d0 f   LIBCMTD:utility.obj
 0001:00034a60       __scrt_release_startup_lock 0000000180035a60 f   LIBCMTD:utility.obj
 0001:00034a90       __scrt_uninitialize_crt    0000000180035a90 f   LIBCMTD:utility.obj
 0001:00034ad0       _onexit                    0000000180035ad0 f   LIBCMTD:utility.obj
 0001:00034b50       at_quick_exit              0000000180035b50 f   LIBCMTD:utility.obj
 0001:00034ba0       atexit                     0000000180035ba0 f   LIBCMTD:utility.obj
 0001:00034be0       ??3@YAXPEAX@Z              0000000180035be0 f   LIBCMTD:delete_scalar.obj
 0001:00034c00       __raise_securityfailure    0000000180035c00 f   LIBCMTD:gs_report.obj
 0001:00034c40       __report_gsfailure         0000000180035c40 f   LIBCMTD:gs_report.obj
 0001:00034d20       __report_rangecheckfailure 0000000180035d20 f   LIBCMTD:gs_report.obj
 0001:00034d40       __report_securityfailure   0000000180035d40 f   LIBCMTD:gs_report.obj
 0001:00034de0       __report_securityfailureEx 0000000180035de0 f   LIBCMTD:gs_report.obj
 0001:000351a0       _Init_thread_abort         00000001800361a0 f   LIBCMTD:thread_safe_statics.obj
 0001:000351d0       _Init_thread_footer        00000001800361d0 f   LIBCMTD:thread_safe_statics.obj
 0001:00035230       _Init_thread_header        0000000180036230 f   LIBCMTD:thread_safe_statics.obj
 0001:000352c0       _Init_thread_lock          00000001800362c0 f   LIBCMTD:thread_safe_statics.obj
 0001:000352e0       _Init_thread_notify        00000001800362e0 f   LIBCMTD:thread_safe_statics.obj
 0001:00035340       _Init_thread_unlock        0000000180036340 f   LIBCMTD:thread_safe_statics.obj
 0001:00035360       _Init_thread_wait          0000000180036360 f   LIBCMTD:thread_safe_statics.obj
 0001:00035410       ??2@YAPEAX_KAEBUnothrow_t@std@@@Z 0000000180036410 f   LIBCMTD:new_scalar_nothrow.obj
 0001:00035450       ??_U@YAPEAX_KAEBUnothrow_t@std@@@Z 0000000180036450 f   LIBCMTD:new_array_nothrow.obj
 0001:00035480       __GSHandlerCheck_SEH       0000000180036480 f   LIBCMTD:gshandlerseh.obj
 0001:00035550       __chkstk                   0000000180036550 f   LIBCMTD:chkstk.obj
 0001:00035550       _alloca_probe              0000000180036550 f   LIBCMTD:chkstk.obj
 0001:000359c0       _CRT_INIT                  00000001800369c0 f   LIBCMTD:dll_dllmain.obj
 0001:000359f0       _DllMainCRTStartup         00000001800369f0 f   LIBCMTD:dll_dllmain.obj
 0001:00035ac0       ?_RTC_AllocaFailure@@YAXPEAXPEAU_RTC_ALLOCA_NODE@@H@Z 0000000180036ac0 f   LIBCMTD:error.obj
 0001:00035c20       ?_RTC_Failure@@YAXPEAXH@Z  0000000180036c20 f   LIBCMTD:error.obj
 0001:00035c70       ?_RTC_StackFailure@@YAXPEAXPEBD@Z 0000000180036c70 f   LIBCMTD:error.obj
 0001:000360a0       _RTC_UninitUse             00000001800370a0 f   LIBCMTD:error.obj
 0001:00036170       _vsprintf_s_l              0000000180037170 f i LIBCMTD:error.obj
 0001:000361e0       sprintf_s                  00000001800371e0 f i LIBCMTD:error.obj
 0001:00036210       ?_RTC_GetErrorFunc@@YAP6AHHPEBDH00ZZPEBX@Z 0000000180037210 f   LIBCMTD:userapi.obj
 0001:00036220       ?_RTC_GetErrorFuncW@@YAP6AHHPEB_WH00ZZPEBX@Z 0000000180037220 f   LIBCMTD:userapi.obj
 0001:00036230       _RTC_GetErrDesc            0000000180037230 f   LIBCMTD:userapi.obj
 0001:00036250       _RTC_NumErrors             0000000180037250 f   LIBCMTD:userapi.obj
 0001:00036260       _RTC_SetErrorFunc          0000000180037260 f   LIBCMTD:userapi.obj
 0001:00036280       _RTC_SetErrorFuncW         0000000180037280 f   LIBCMTD:userapi.obj
 0001:000362a0       _RTC_SetErrorType          00000001800372a0 f   LIBCMTD:userapi.obj
 0001:000362c0       ??2@YAPEAX_K@Z             00000001800372c0 f   LIBCMTD:new_scalar.obj
 0001:00036310       __isa_available_init       0000000180037310 f   LIBCMTD:cpu_disp.obj
 0001:000366b0       _get_startup_argv_mode     00000001800376b0 f   LIBCMTD:argv_mode.obj
 0001:000366c0       __scrt_is_ucrt_dll_in_use  00000001800376c0 f   LIBCMTD:ucrt_detection.obj
 0001:000366f0       __crt_debugger_hook        00000001800376f0 f   LIBCMTD:utility_desktop.obj
 0001:00036700       __scrt_fastfail            0000000180037700 f   LIBCMTD:utility_desktop.obj
 0001:000368a0       __scrt_get_show_window_mode 00000001800378a0 f   LIBCMTD:utility_desktop.obj
 0001:00036900       __scrt_initialize_mta      0000000180037900 f   LIBCMTD:utility_desktop.obj
 0001:00036910       __scrt_initialize_winrt    0000000180037910 f   LIBCMTD:utility_desktop.obj
 0001:00036920       __scrt_is_managed_app      0000000180037920 f   LIBCMTD:utility_desktop.obj
 0001:000369d0       __scrt_set_unhandled_exception_filter 00000001800379d0 f   LIBCMTD:utility_desktop.obj
 0001:000369f0       __scrt_exe_initialize_mta  00000001800379f0 f   LIBCMTD:utility_desktop.obj
 0001:000369f0       __scrt_stub_for_initialize_mta 00000001800379f0 f   LIBCMTD:utility_desktop.obj
 0001:00036a00       __scrt_unhandled_exception_filter 0000000180037a00 f   LIBCMTD:utility_desktop.obj
 0001:00036aa0       _guard_check_icall_nop     0000000180037aa0 f i LIBCMTD:guard_support.obj
 0001:00036ab0       ReadNoFence64              0000000180037ab0 f i LIBCMTD:guard_support.obj
 0001:00036ad0       ReadPointerNoFence         0000000180037ad0 f i LIBCMTD:guard_support.obj
 0001:00036af0       _guard_icall_checks_enforced 0000000180037af0 f i LIBCMTD:guard_support.obj
 0001:00036b30       _guard_rf_checks_enforced  0000000180037b30 f i LIBCMTD:guard_support.obj
 0001:00036c00       __security_init_cookie     0000000180037c00 f   LIBCMTD:gs_support.obj
 0001:00036c80       ?__scrt_initialize_type_info@@YAXXZ 0000000180037c80 f   LIBCMTD:tncleanup.obj
 0001:00036ca0       ?__scrt_uninitialize_type_info@@YAXXZ 0000000180037ca0 f   LIBCMTD:tncleanup.obj
 0001:00036cc0       __local_stdio_scanf_options 0000000180037cc0 f i LIBCMTD:default_local_stdio_options.obj
 0001:00036cd0       __scrt_initialize_default_local_stdio_options 0000000180037cd0 f   LIBCMTD:default_local_stdio_options.obj
 0001:00036d20       __scrt_get_dyn_tls_init_callback 0000000180037d20 f   LIBCMTD:dyn_tls_init.obj
 0001:00036d30       _RTC_Initialize            0000000180037d30 f   LIBCMTD:initsect.obj
 0001:00036d80       _RTC_Terminate             0000000180037d80 f   LIBCMTD:initsect.obj
 0001:000372e0       ?_RTC_GetSrcLine@@YAHPEAEPEA_WKPEAH1K@Z 00000001800382e0 f   LIBCMTD:pdblkup.obj
 0001:000376b0       ??0bad_alloc@std@@AEAA@QEBD@Z 00000001800386b0 f i LIBCMTD:throw_bad_alloc.obj
 0001:000376f0       ??0bad_alloc@std@@QEAA@AEBV01@@Z 00000001800386f0 f i LIBCMTD:throw_bad_alloc.obj
 0001:00037730       ??0bad_alloc@std@@QEAA@XZ  0000000180038730 f i LIBCMTD:throw_bad_alloc.obj
 0001:00037770       ??0bad_array_new_length@std@@QEAA@AEBV01@@Z 0000000180038770 f i LIBCMTD:throw_bad_alloc.obj
 0001:000377b0       ??0bad_array_new_length@std@@QEAA@XZ 00000001800387b0 f i LIBCMTD:throw_bad_alloc.obj
 0001:000377f0       ??0exception@std@@QEAA@AEBV01@@Z 00000001800387f0 f i LIBCMTD:throw_bad_alloc.obj
 0001:00037850       ??0exception@std@@QEAA@QEBDH@Z 0000000180038850 f i LIBCMTD:throw_bad_alloc.obj
 0001:000378a0       ??1bad_alloc@std@@UEAA@XZ  00000001800388a0 f i LIBCMTD:throw_bad_alloc.obj
 0001:000378c0       ??1bad_array_new_length@std@@UEAA@XZ 00000001800388c0 f i LIBCMTD:throw_bad_alloc.obj
 0001:000378e0       ??1exception@std@@UEAA@XZ  00000001800388e0 f i LIBCMTD:throw_bad_alloc.obj
 0001:00037910       ??_Ebad_alloc@std@@UEAAPEAXI@Z 0000000180038910 f i LIBCMTD:throw_bad_alloc.obj
 0001:00037910       ??_Gbad_alloc@std@@UEAAPEAXI@Z 0000000180038910 f i LIBCMTD:throw_bad_alloc.obj
 0001:00037950       ??_Gbad_array_new_length@std@@UEAAPEAXI@Z 0000000180038950 f i LIBCMTD:throw_bad_alloc.obj
 0001:00037950       ??_Ebad_array_new_length@std@@UEAAPEAXI@Z 0000000180038950 f i LIBCMTD:throw_bad_alloc.obj
 0001:00037990       ??_Gexception@std@@UEAAPEAXI@Z 0000000180038990 f i LIBCMTD:throw_bad_alloc.obj
 0001:00037990       ??_Eexception@std@@UEAAPEAXI@Z 0000000180038990 f i LIBCMTD:throw_bad_alloc.obj
 0001:000379d0       ?__scrt_throw_std_bad_alloc@@YAXXZ 00000001800389d0 f   LIBCMTD:throw_bad_alloc.obj
 0001:00037a00       ?__scrt_throw_std_bad_array_new_length@@YAXXZ 0000000180038a00 f   LIBCMTD:throw_bad_alloc.obj
 0001:00037a30       ?what@exception@std@@UEBAPEBDXZ 0000000180038a30 f i LIBCMTD:throw_bad_alloc.obj
 0001:00037a70       ??1type_info@@UEAA@XZ      0000000180038a70 f   LIBCMTD:std_type_info_static.obj
 0001:00037a90       ??_Etype_info@@UEAAPEAXI@Z 0000000180038a90 f i LIBCMTD:std_type_info_static.obj
 0001:00037a90       ??_Gtype_info@@UEAAPEAXI@Z 0000000180038a90 f i LIBCMTD:std_type_info_static.obj
 0001:00037acc       ??$?2PEAUHINSTANCE__@@@Wrapper@?$CSimpleArray@PEAUHINSTANCE__@@V?$CSimpleArrayEqualHelper@PEAUHINSTANCE__@@@ATL@@@ATL@@SAPEAX_KPEAPEAUHINSTANCE__@@@Z 0000000180038acc f i atls:atlbase.obj
 0001:00037ad0       ??0?$CSimpleArray@PEAUHINSTANCE__@@V?$CSimpleArrayEqualHelper@PEAUHINSTANCE__@@@ATL@@@ATL@@QEAA@XZ 0000000180038ad0 f i atls:atlbase.obj
 0001:00037ae0       ??0CAtlBaseModule@ATL@@QEAA@XZ 0000000180038ae0 f   atls:atlbase.obj
 0001:00037b88       ??0Wrapper@?$CSimpleArray@PEAUHINSTANCE__@@V?$CSimpleArrayEqualHelper@PEAUHINSTANCE__@@@ATL@@@ATL@@QEAA@AEBQEAUHINSTANCE__@@@Z 0000000180038b88 f i atls:atlbase.obj
 0001:00037b94       ??0_ATL_BASE_MODULE70@ATL@@QEAA@XZ 0000000180038b94 f i atls:atlbase.obj
 0001:00037bc0       ??1?$CSimpleArray@PEAUHINSTANCE__@@V?$CSimpleArrayEqualHelper@PEAUHINSTANCE__@@@ATL@@@ATL@@QEAA@XZ 0000000180038bc0 f i atls:atlbase.obj
 0001:00037be8       ??1CAtlBaseModule@ATL@@QEAA@XZ 0000000180038be8 f   atls:atlbase.obj
 0001:00037c1c       ??1_ATL_BASE_MODULE70@ATL@@QEAA@XZ 0000000180038c1c f i atls:atlbase.obj
 0001:00037c48       ??A?$CSimpleArray@PEAUHINSTANCE__@@V?$CSimpleArrayEqualHelper@PEAUHINSTANCE__@@@ATL@@@ATL@@QEAAAEAPEAUHINSTANCE__@@H@Z 0000000180038c48 f i atls:atlbase.obj
 0001:00037c74       ?Add@?$CSimpleArray@PEAUHINSTANCE__@@V?$CSimpleArrayEqualHelper@PEAUHINSTANCE__@@@ATL@@@ATL@@QEAAHAEBQEAUHINSTANCE__@@@Z 0000000180038c74 f i atls:atlbase.obj
 0001:00037d28       ?AddResourceInstance@CAtlBaseModule@ATL@@QEAA_NPEAUHINSTANCE__@@@Z 0000000180038d28 f   atls:atlbase.obj
 0001:00037d70       ?GetHInstanceAt@CAtlBaseModule@ATL@@QEAAPEAUHINSTANCE__@@H@Z 0000000180038d70 f   atls:atlbase.obj
 0001:00037de8       ?GetSize@?$CSimpleArray@PEAUHINSTANCE__@@V?$CSimpleArrayEqualHelper@PEAUHINSTANCE__@@@ATL@@@ATL@@QEBAHXZ 0000000180038de8 f i atls:atlbase.obj
 0001:00037dec       ?InternalSetAtIndex@?$CSimpleArray@PEAUHINSTANCE__@@V?$CSimpleArrayEqualHelper@PEAUHINSTANCE__@@@ATL@@@ATL@@QEAAXHAEBQEAUHINSTANCE__@@@Z 0000000180038dec f i atls:atlbase.obj
 0001:00037e04       ?RemoveAll@?$CSimpleArray@PEAUHINSTANCE__@@V?$CSimpleArrayEqualHelper@PEAUHINSTANCE__@@@ATL@@@ATL@@QEAAXXZ 0000000180038e04 f i atls:atlbase.obj
 0001:00037e2c       ?RemoveAt@?$CSimpleArray@PEAUHINSTANCE__@@V?$CSimpleArrayEqualHelper@PEAUHINSTANCE__@@@ATL@@@ATL@@QEAAHH@Z 0000000180038e2c f i atls:atlbase.obj
 0001:00037ed0       ?RemoveResourceInstance@CAtlBaseModule@ATL@@QEAA_NPEAUHINSTANCE__@@@Z 0000000180038ed0 f   atls:atlbase.obj
 0001:00037f50       ?memmove_s@Checked@ATL@@YAXPEAX_KPEBX1@Z 0000000180038f50 f i atls:atlbase.obj
 0001:000383f8       ?GetCodeAddress@_stdcallthunk@ATL@@QEAAPEAXXZ 00000001800393f8 f i atls:atlthunk.obj
 0001:00038424       ?Init@_stdcallthunk@ATL@@QEAAH_KPEAX@Z 0000000180039424 f i atls:atlthunk.obj
 0001:00038474       ?__AllocStdCallThunk@@YAPEAXXZ 0000000180039474 f   atls:atlthunk.obj
 0001:0003847c       ?__AllocStdCallThunk@ATL@@YAPEAXXZ 000000018003947c f   atls:atlthunk.obj
 0001:00038484       ?__AllocStdCallThunk_cmn@@YAPEAXXZ 0000000180039484 f   atls:atlthunk.obj
 0001:0003855c       ?__FreeStdCallThunk@@YAXPEAX@Z 000000018003955c f   atls:atlthunk.obj
 0001:0003857c       ?__FreeStdCallThunk@ATL@@YAXPEAX@Z 000000018003957c f   atls:atlthunk.obj
 0001:0003859c       ?__FreeStdCallThunk_cmn@@YAXPEAX@Z 000000018003959c f   atls:atlthunk.obj
 0001:0003863c       AtlThunk_AllocateData      000000018003963c f   atls:atlthunk.obj
 0001:000386b8       AtlThunk_DataToCode        00000001800396b8 f   atls:atlthunk.obj
 0001:0003870c       AtlThunk_FreeData          000000018003970c f   atls:atlthunk.obj
 0001:0003876c       AtlThunk_InitData          000000018003976c f   atls:atlthunk.obj
 0001:00038830       memset_repmovs             0000000180039830 f   libvcruntimed:memset.obj
 0001:00038850       memset                     0000000180039850 f   libvcruntimed:memset.obj
 0001:000389e0       ??$__crt_interlocked_exchange_pointer@$$A6AXXZP6AXXZ@@YAP6AXXZPEDS6AXXZQ6AXXZ@Z 00000001800399e0 f i libvcruntimed:purevirt.obj
 0001:00038a00       ??$__crt_interlocked_read_pointer@$$A6AXXZ@@YAP6AXXZPEDS6AXXZ@Z 0000000180039a00 f i libvcruntimed:purevirt.obj
 0001:00038a20       ?__crt_interlocked_read_64@@YA_JPED_J@Z 0000000180039a20 f i libvcruntimed:purevirt.obj
 0001:00038a40       _get_purecall_handler      0000000180039a40 f   libvcruntimed:purevirt.obj
 0001:00038a60       _purecall                  0000000180039a60 f   libvcruntimed:purevirt.obj
 0001:00038aa0       _set_purecall_handler      0000000180039aa0 f   libvcruntimed:purevirt.obj
 0001:00038ad0       memcmp                     0000000180039ad0 f   libvcruntimed:memcmp.obj
 0001:00038bb0       memcpy_repmovs             0000000180039bb0 f   libvcruntimed:memcpy.obj
 0001:00038bd0       memmove                    0000000180039bd0 f   libvcruntimed:memcpy.obj
 0001:00038bd0       memcpy                     0000000180039bd0 f   libvcruntimed:memcpy.obj
 0001:00038fb0       wcsstr                     0000000180039fb0 f   libvcruntimed:wcsstr.obj
 0001:00039610       __vcrt_initialize          000000018003a610 f   libvcruntimed:initialization.obj
 0001:00039650       __vcrt_thread_attach       000000018003a650 f   libvcruntimed:initialization.obj
 0001:00039670       __vcrt_thread_detach       000000018003a670 f   libvcruntimed:initialization.obj
 0001:00039690       __vcrt_uninitialize        000000018003a690 f   libvcruntimed:initialization.obj
 0001:000396b0       __vcrt_uninitialize_critical 000000018003a6b0 f   libvcruntimed:initialization.obj
 0001:000396d0       __C_specific_handler       000000018003a6d0 f   libvcruntimed:riscchandler.obj
 0001:00039b40       ??$?0AEAViterator@TryBlockMap4@FH4@@AEAV012@$0A@@?$pair@Viterator@TryBlockMap4@FH4@@V123@@std@@QEAA@AEAViterator@TryBlockMap4@FH4@@0@Z 000000018003ab40 f i libvcruntimed:risctrnsctrl.obj
 0001:00039ba0       ??$?0AEAViterator@TryBlockMap@__FrameHandler3@@AEAV012@$0A@@?$pair@Viterator@TryBlockMap@__FrameHandler3@@V123@@std@@QEAA@AEAViterator@TryBlockMap@__FrameHandler3@@0@Z 000000018003aba0 f i libvcruntimed:risctrnsctrl.obj
 0001:00039d70       ??$_CallSETranslator@V__FrameHandler3@@@@YAHPEAUEHExceptionRecord@@PEA_KPEAU_CONTEXT@@PEAU_xDISPATCHER_CONTEXT@@PEBU_s_FuncInfo@@K1H@Z 000000018003ad70 f i libvcruntimed:risctrnsctrl.obj
 0001:00039e00       ??$_CallSETranslator@V__FrameHandler4@@@@YAHPEAUEHExceptionRecord@@PEA_KPEAU_CONTEXT@@PEAU_xDISPATCHER_CONTEXT@@PEAUFuncInfo4@FH4@@K1H@Z 000000018003ae00 f i libvcruntimed:risctrnsctrl.obj
 0001:00039e90       ??$forward@AEAViterator@TryBlockMap4@FH4@@@std@@YAAEAViterator@TryBlockMap4@FH4@@AEAV123@@Z 000000018003ae90 f i libvcruntimed:risctrnsctrl.obj
 0001:00039ea0       ??$forward@AEAViterator@TryBlockMap@__FrameHandler3@@@std@@YAAEAViterator@TryBlockMap@__FrameHandler3@@AEAV123@@Z 000000018003aea0 f i libvcruntimed:risctrnsctrl.obj
 0001:00039eb0       ??0FuncInfo4@FH4@@QEAA@XZ  000000018003aeb0 f i libvcruntimed:risctrnsctrl.obj
 0001:00039f20       ??0FuncInfoHeader@FH4@@QEAA@XZ 000000018003af20 f i libvcruntimed:risctrnsctrl.obj
 0001:00039f40       ??0iterator@TryBlockMap4@FH4@@QEAA@AEAV12@I@Z 000000018003af40 f i libvcruntimed:risctrnsctrl.obj
 0001:00039f70       ??0iterator@TryBlockMap@__FrameHandler3@@QEAA@AEAV12@I@Z 000000018003af70 f i libvcruntimed:risctrnsctrl.obj
 0001:00039fa0       ??4iterator@TryBlockMap4@FH4@@QEAAAEAV012@AEBV012@@Z 000000018003afa0 f i libvcruntimed:risctrnsctrl.obj
 0001:00039fc0       ??9iterator@TryBlockMap4@FH4@@QEBA_NAEBV012@@Z 000000018003afc0 f i libvcruntimed:risctrnsctrl.obj
 0001:0003a000       ??Diterator@TryBlockMap4@FH4@@QEAA?AUTryBlockMapEntry4@2@XZ 000000018003b000 f i libvcruntimed:risctrnsctrl.obj
 0001:0003a030       ??Eiterator@TryBlockMap4@FH4@@QEAAAEAV012@XZ 000000018003b030 f i libvcruntimed:risctrnsctrl.obj
 0001:0003a070       ?CatchTryBlock@__FrameHandler3@@SAPEBU_s_TryBlockMapEntry@@PEBU_s_FuncInfo@@H@Z 000000018003b070 f   libvcruntimed:risctrnsctrl.obj
 0001:0003a100       ?DecompFuncInfo@FH4@@YA_JPEAEAEAUFuncInfo4@1@_KH@Z 000000018003b100 f i libvcruntimed:risctrnsctrl.obj
 0001:0003a140       ?DecompFuncInfo@FH4@@YA_JPEAEAEAUFuncInfo4@1@_KH_N@Z 000000018003b140 f i libvcruntimed:risctrnsctrl.obj
 0001:0003a310       ?DecompTryBlock@TryBlockMap4@FH4@@AEAAXXZ 000000018003b310 f i libvcruntimed:risctrnsctrl.obj
 0001:0003a390       ?ExecutionInCatch@__FrameHandler3@@SA_NPEAU_xDISPATCHER_CONTEXT@@PEBU_s_FuncInfo@@@Z 000000018003b390 f   libvcruntimed:risctrnsctrl.obj
 0001:0003a3e0       ?ExecutionInCatch@__FrameHandler4@@SA_NPEAU_xDISPATCHER_CONTEXT@@PEAUFuncInfo4@FH4@@@Z 000000018003b3e0 f   libvcruntimed:risctrnsctrl.obj
 0001:0003a400       ?FrameUnwindToEmptyState@__FrameHandler3@@SAXPEA_KPEAU_xDISPATCHER_CONTEXT@@PEBU_s_FuncInfo@@@Z 000000018003b400 f   libvcruntimed:risctrnsctrl.obj
 0001:0003a4a0       ?FrameUnwindToEmptyState@__FrameHandler4@@SAXPEA_KPEAU_xDISPATCHER_CONTEXT@@PEAUFuncInfo4@FH4@@@Z 000000018003b4a0 f   libvcruntimed:risctrnsctrl.obj
 0001:0003a4f0       ?GetEstablisherFrame@__FrameHandler3@@SAPEA_KPEA_KPEAU_xDISPATCHER_CONTEXT@@PEBU_s_FuncInfo@@0@Z 000000018003b4f0 f   libvcruntimed:risctrnsctrl.obj
 0001:0003a660       ?GetEstablisherFrame@__FrameHandler4@@SAPEA_KPEA_KPEAU_xDISPATCHER_CONTEXT@@PEAUFuncInfo4@FH4@@0@Z 000000018003b660 f   libvcruntimed:risctrnsctrl.obj
 0001:0003a6d0       ?GetRangeOfTrysToCheck@__FrameHandler3@@SA?AU?$pair@Viterator@TryBlockMap@__FrameHandler3@@V123@@std@@AEAVTryBlockMap@1@HPEAU_xDISPATCHER_CONTEXT@@PEBU_s_FuncInfo@@H@Z 000000018003b6d0 f   libvcruntimed:risctrnsctrl.obj
 0001:0003a910       ?GetRangeOfTrysToCheck@__FrameHandler4@@SA?AU?$pair@Viterator@TryBlockMap4@FH4@@V123@@std@@AEAVTryBlockMap4@FH4@@HPEAU_xDISPATCHER_CONTEXT@@PEAUFuncInfo4@5@H@Z 000000018003b910 f   libvcruntimed:risctrnsctrl.obj
 0001:0003aac0       ?ReadInt@FH4@@YAHPEAPEAE@Z 000000018003bac0 f i libvcruntimed:risctrnsctrl.obj
 0001:0003ab00       ?ReadUnsigned@FH4@@YAIPEAPEAE@Z 000000018003bb00 f i libvcruntimed:risctrnsctrl.obj
 0001:0003ab90       ?UnwindNestedFrames@__FrameHandler3@@SAXPEA_KPEAUEHExceptionRecord@@PEAU_CONTEXT@@0PEAXPEBU_s_FuncInfo@@HHPEBU_s_HandlerType@@PEAU_xDISPATCHER_CONTEXT@@E@Z 000000018003bb90 f   libvcruntimed:risctrnsctrl.obj
 0001:0003ad00       ?UnwindNestedFrames@__FrameHandler4@@SAXPEA_KPEAUEHExceptionRecord@@PEAU_CONTEXT@@0PEAXPEAUFuncInfo4@FH4@@HHPEAUHandlerType4@5@PEAU_xDISPATCHER_CONTEXT@@E@Z 000000018003bd00 f   libvcruntimed:risctrnsctrl.obj
 0001:0003aed0       ?begin@TryBlockMap4@FH4@@QEAA?AViterator@12@XZ 000000018003bed0 f i libvcruntimed:risctrnsctrl.obj
 0001:0003af00       ?end@TryBlockMap4@FH4@@QEAA?AViterator@12@XZ 000000018003bf00 f i libvcruntimed:risctrnsctrl.obj
 0001:0003af30       ?imageRelToByteBuffer@FH4@@YAPEAE_KH@Z 000000018003bf30 f i libvcruntimed:risctrnsctrl.obj
 0001:0003af50       ?incrementToSentinel@iterator@TryBlockMap4@FH4@@QEAAXXZ 000000018003bf50 f i libvcruntimed:risctrnsctrl.obj
 0001:0003af70       ?setBuffer@TryBlockMap4@FH4@@QEAAXViterator@12@@Z 000000018003bf70 f i libvcruntimed:risctrnsctrl.obj
 0001:0003afe0       _CreateFrameInfo           000000018003bfe0 f   libvcruntimed:risctrnsctrl.obj
 0001:0003b050       _FindAndUnlinkFrame        000000018003c050 f   libvcruntimed:risctrnsctrl.obj
 0001:0003b0d0       _GetImageBase              000000018003c0d0 f   libvcruntimed:risctrnsctrl.obj
 0001:0003b0f0       _GetThrowImageBase         000000018003c0f0 f   libvcruntimed:risctrnsctrl.obj
 0001:0003b110       _SetImageBase              000000018003c110 f   libvcruntimed:risctrnsctrl.obj
 0001:0003b130       _SetThrowImageBase         000000018003c130 f   libvcruntimed:risctrnsctrl.obj
 0001:0003b150       __CxxFrameHandler          000000018003c150 f   libvcruntimed:risctrnsctrl.obj
 0001:0003b190       __CxxFrameHandler2         000000018003c190 f   libvcruntimed:risctrnsctrl.obj
 0001:0003b1d0       __CxxFrameHandler3         000000018003c1d0 f   libvcruntimed:risctrnsctrl.obj
 0001:0003b2b0       __CxxFrameHandler4         000000018003c2b0 f   libvcruntimed:risctrnsctrl.obj
 0001:0003b3c0       __C_specific_handler_noexcept 000000018003c3c0 f   libvcruntimed:chandler_noexcept.obj
 0001:0003b450       __DestructExceptionObject  000000018003c450 f   libvcruntimed:ehhelpers.obj
 0001:0003b550       ?_CallMemberFunction0@@YAXQEAX0@Z 000000018003c550 f i libvcruntimed:ehhelpers.obj
 0001:0003b620       ?raw_name@type_info@@QEBAPEBDXZ 000000018003c620 f i libvcruntimed:ehhelpers.obj
 0001:0003b630       _IsExceptionObjectToBeDestroyed 000000018003c630 f   libvcruntimed:ehhelpers.obj
 0001:0003b680       _SetWinRTOutOfMemoryExceptionCallback 000000018003c680 f   libvcruntimed:ehhelpers.obj
 0001:0003b6a0       __AdjustPointer            000000018003c6a0 f   libvcruntimed:ehhelpers.obj
 0001:0003b720       __FrameUnwindFilter        000000018003c720 f   libvcruntimed:ehhelpers.obj
 0001:0003b7d0       __GetPlatformExceptionInfo 000000018003c7d0 f   libvcruntimed:ehhelpers.obj
 0001:0003b880       __current_exception        000000018003c880 f   libvcruntimed:ehhelpers.obj
 0001:0003b8a0       __current_exception_context 000000018003c8a0 f   libvcruntimed:ehhelpers.obj
 0001:0003b8c0       __processing_throw         000000018003c8c0 f   libvcruntimed:ehhelpers.obj
 0001:0003b8e0       __std_terminate            000000018003c8e0 f   libvcruntimed:ehhelpers.obj
 0001:0003b8f0       _is_exception_typeof       000000018003c8f0 f   libvcruntimed:ehhelpers.obj
 0001:0003ba80       ??$?RD@__crt_internal_free_policy@@QEBAXQEBD@Z 000000018003ca80 f i libvcruntimed:std_type_info.obj
 0001:0003bab0       ??$?RX@__crt_internal_free_policy@@QEBAXQEBX@Z 000000018003cab0 f i libvcruntimed:std_type_info.obj
 0001:0003bae0       ??$__crt_interlocked_compare_exchange_pointer@$$CBDPEAD$$T@@YAPEBDPEDSEBDQEAD$$T@Z 000000018003cae0 f i libvcruntimed:std_type_info.obj
 0001:0003bb20       ??$__crt_interlocked_read_pointer@$$CBD@@YAPEBDPEDSEBD@Z 000000018003cb20 f i libvcruntimed:std_type_info.obj
 0001:0003bb40       ??0?$__crt_unique_heap_ptr@DU__crt_internal_free_policy@@@@QEAA@QEAD@Z 000000018003cb40 f i libvcruntimed:std_type_info.obj
 0001:0003bb60       ??0?$__crt_unique_heap_ptr@XU__crt_internal_free_policy@@@@QEAA@QEAX@Z 000000018003cb60 f i libvcruntimed:std_type_info.obj
 0001:0003bb80       ??1?$__crt_unique_heap_ptr@DU__crt_internal_free_policy@@@@QEAA@XZ 000000018003cb80 f i libvcruntimed:std_type_info.obj
 0001:0003bba0       ??1?$__crt_unique_heap_ptr@XU__crt_internal_free_policy@@@@QEAA@XZ 000000018003cba0 f i libvcruntimed:std_type_info.obj
 0001:0003bbc0       ??B?$__crt_unique_heap_ptr@DU__crt_internal_free_policy@@@@QEBA_NXZ 000000018003cbc0 f i libvcruntimed:std_type_info.obj
 0001:0003bbe0       ??B?$__crt_unique_heap_ptr@XU__crt_internal_free_policy@@@@QEBA_NXZ 000000018003cbe0 f i libvcruntimed:std_type_info.obj
 0001:0003bc80       ?detach@?$__crt_unique_heap_ptr@XU__crt_internal_free_policy@@@@QEAAPEAXXZ 000000018003cc80 f i libvcruntimed:std_type_info.obj
 0001:0003bcb0       ?get@?$__crt_unique_heap_ptr@DU__crt_internal_free_policy@@@@QEBAPEADXZ 000000018003ccb0 f i libvcruntimed:std_type_info.obj
 0001:0003bcc0       ?get@?$__crt_unique_heap_ptr@XU__crt_internal_free_policy@@@@QEBAPEAXXZ 000000018003ccc0 f i libvcruntimed:std_type_info.obj
 0001:0003bcd0       ?is_valid@?$__crt_unique_heap_ptr@DU__crt_internal_free_policy@@@@QEBA_NXZ 000000018003ccd0 f i libvcruntimed:std_type_info.obj
 0001:0003bd00       ?is_valid@?$__crt_unique_heap_ptr@XU__crt_internal_free_policy@@@@QEBA_NXZ 000000018003cd00 f i libvcruntimed:std_type_info.obj
 0001:0003bd30       ?release@?$__crt_unique_heap_ptr@DU__crt_internal_free_policy@@@@QEAAXXZ 000000018003cd30 f i libvcruntimed:std_type_info.obj
 0001:0003bd60       ?release@?$__crt_unique_heap_ptr@XU__crt_internal_free_policy@@@@QEAAXXZ 000000018003cd60 f i libvcruntimed:std_type_info.obj
 0001:0003bd90       __std_type_info_compare    000000018003cd90 f   libvcruntimed:std_type_info.obj
 0001:0003bdd0       __std_type_info_destroy_list 000000018003cdd0 f   libvcruntimed:std_type_info.obj
 0001:0003be30       __std_type_info_hash       000000018003ce30 f   libvcruntimed:std_type_info.obj
 0001:0003bee0       __std_type_info_name       000000018003cee0 f   libvcruntimed:std_type_info.obj
 0001:0003c190       __vcrt_GetModuleFileNameW  000000018003d190 f   libvcruntimed:winapi_thunks.obj
 0001:0003c1c0       __vcrt_GetModuleHandleW    000000018003d1c0 f   libvcruntimed:winapi_thunks.obj
 0001:0003c1e0       __vcrt_LoadLibraryExW      000000018003d1e0 f   libvcruntimed:winapi_thunks.obj
 0001:0003c210       ??$?RD@__crt_public_free_policy@@QEBAXQEBD@Z 000000018003d210 f i libvcruntimed:std_exception.obj
 0001:0003c230       ??0?$__crt_unique_heap_ptr@DU__crt_public_free_policy@@@@QEAA@QEAD@Z 000000018003d230 f i libvcruntimed:std_exception.obj
 0001:0003c250       ??1?$__crt_unique_heap_ptr@DU__crt_public_free_policy@@@@QEAA@XZ 000000018003d250 f i libvcruntimed:std_exception.obj
 0001:0003c270       ??B?$__crt_unique_heap_ptr@DU__crt_public_free_policy@@@@QEBA_NXZ 000000018003d270 f i libvcruntimed:std_exception.obj
 0001:0003c290       ?detach@?$__crt_unique_heap_ptr@DU__crt_public_free_policy@@@@QEAAPEADXZ 000000018003d290 f i libvcruntimed:std_exception.obj
 0001:0003c2c0       ?get@?$__crt_unique_heap_ptr@DU__crt_public_free_policy@@@@QEBAPEADXZ 000000018003d2c0 f i libvcruntimed:std_exception.obj
 0001:0003c2d0       ?is_valid@?$__crt_unique_heap_ptr@DU__crt_public_free_policy@@@@QEBA_NXZ 000000018003d2d0 f i libvcruntimed:std_exception.obj
 0001:0003c300       ?release@?$__crt_unique_heap_ptr@DU__crt_public_free_policy@@@@QEAAXXZ 000000018003d300 f i libvcruntimed:std_exception.obj
 0001:0003c330       __std_exception_copy       000000018003d330 f   libvcruntimed:std_exception.obj
 0001:0003c470       __std_exception_destroy    000000018003d470 f   libvcruntimed:std_exception.obj
 0001:0003c4b0       _CxxThrowException         000000018003d4b0 f   libvcruntimed:throw.obj
 0001:0003c5e0       ??$?RU__vcrt_ptd@@@__crt_internal_free_policy@@QEBAXQEBU__vcrt_ptd@@@Z 000000018003d5e0 f i libvcruntimed:per_thread_data.obj
 0001:0003c610       ??0?$__crt_unique_heap_ptr@U__vcrt_ptd@@U__crt_internal_free_policy@@@@QEAA@QEAU__vcrt_ptd@@@Z 000000018003d610 f i libvcruntimed:per_thread_data.obj
 0001:0003c650       ??1?$__crt_unique_heap_ptr@U__vcrt_ptd@@U__crt_internal_free_policy@@@@QEAA@XZ 000000018003d650 f i libvcruntimed:per_thread_data.obj
 0001:0003c690       ??B?$__crt_unique_heap_ptr@U__vcrt_ptd@@U__crt_internal_free_policy@@@@QEBA_NXZ 000000018003d690 f i libvcruntimed:per_thread_data.obj
 0001:0003c6b0       ?detach@?$__crt_unique_heap_ptr@U__vcrt_ptd@@U__crt_internal_free_policy@@@@QEAAPEAU__vcrt_ptd@@XZ 000000018003d6b0 f i libvcruntimed:per_thread_data.obj
 0001:0003c6e0       ?get@?$__crt_unique_heap_ptr@U__vcrt_ptd@@U__crt_internal_free_policy@@@@QEBAPEAU__vcrt_ptd@@XZ 000000018003d6e0 f i libvcruntimed:per_thread_data.obj
 0001:0003c6f0       ?is_valid@?$__crt_unique_heap_ptr@U__vcrt_ptd@@U__crt_internal_free_policy@@@@QEBA_NXZ 000000018003d6f0 f i libvcruntimed:per_thread_data.obj
 0001:0003c720       ?release@?$__crt_unique_heap_ptr@U__vcrt_ptd@@U__crt_internal_free_policy@@@@QEAAXXZ 000000018003d720 f i libvcruntimed:per_thread_data.obj
 0001:0003c790       __vcrt_freefls             000000018003d790 f   libvcruntimed:per_thread_data.obj
 0001:0003c7d0       __vcrt_freeptd             000000018003d7d0 f   libvcruntimed:per_thread_data.obj
 0001:0003c830       __vcrt_getptd              000000018003d830 f   libvcruntimed:per_thread_data.obj
 0001:0003c860       __vcrt_getptd_noexit       000000018003d860 f   libvcruntimed:per_thread_data.obj
 0001:0003ca00       __vcrt_getptd_noinit       000000018003da00 f   libvcruntimed:per_thread_data.obj
 0001:0003ca60       __vcrt_initialize_ptd      000000018003da60 f   libvcruntimed:per_thread_data.obj
 0001:0003cab0       __vcrt_uninitialize_ptd    000000018003dab0 f   libvcruntimed:per_thread_data.obj
 0001:0003cae0       __vcrt_initialize_locks    000000018003dae0 f   libvcruntimed:locks.obj
 0001:0003cb50       __vcrt_lock                000000018003db50 f   libvcruntimed:locks.obj
 0001:0003cb80       __vcrt_uninitialize_locks  000000018003db80 f   libvcruntimed:locks.obj
 0001:0003cbe0       __vcrt_unlock              000000018003dbe0 f   libvcruntimed:locks.obj
 0001:0003cc20       _NLG_Notify                000000018003dc20 f   libvcruntimed:notify.obj
 0001:0003cc40       __NLG_Dispatch2            000000018003dc40 f   libvcruntimed:notify.obj
 0001:0003cc50       __NLG_Return2              000000018003dc50 f   libvcruntimed:notify.obj
 0001:0003cc70       __except_validate_context_record 000000018003dc70 f   libvcruntimed:jbcxrval.obj
 0001:0003ccd0       __except_validate_jump_buffer 000000018003dcd0 f   libvcruntimed:jbcxrval.obj
 0001:0003ccf0       __except_validate_jump_buffer_common 000000018003dcf0 f i libvcruntimed:jbcxrval.obj
 0001:0003cd70       ?GetCurrentState@__FrameHandler3@@SAHPEA_KPEAU_xDISPATCHER_CONTEXT@@PEBU_s_FuncInfo@@@Z 000000018003dd70 f   libvcruntimed:ehstate.obj
 0001:0003cdd0       ?GetUnwindTryBlock@__FrameHandler3@@SAHPEA_KPEAU_xDISPATCHER_CONTEXT@@PEBU_s_FuncInfo@@@Z 000000018003ddd0 f   libvcruntimed:ehstate.obj
 0001:0003ce20       ?SetState@__FrameHandler3@@SAXPEA_KPEBU_s_FuncInfo@@H@Z 000000018003de20 f   libvcruntimed:ehstate.obj
 0001:0003ce50       ?SetUnwindTryBlock@__FrameHandler3@@SAXPEA_KPEAU_xDISPATCHER_CONTEXT@@PEBU_s_FuncInfo@@H@Z 000000018003de50 f   libvcruntimed:ehstate.obj
 0001:0003cec0       ?StateFromControlPc@__FrameHandler3@@SAHPEBU_s_FuncInfo@@PEAU_xDISPATCHER_CONTEXT@@@Z 000000018003dec0 f   libvcruntimed:ehstate.obj
 0001:0003cf00       ?StateFromControlPc@__FrameHandler4@@SAHPEAUFuncInfo4@FH4@@PEAU_xDISPATCHER_CONTEXT@@@Z 000000018003df00 f   libvcruntimed:ehstate.obj
 0001:0003cf40       ?StateFromIp@__FrameHandler3@@SAHPEBU_s_FuncInfo@@PEAU_xDISPATCHER_CONTEXT@@_K@Z 000000018003df40 f   libvcruntimed:ehstate.obj
 0001:0003d030       ?StateFromIp@__FrameHandler4@@SAHPEAUFuncInfo4@FH4@@PEAU_xDISPATCHER_CONTEXT@@_K@Z 000000018003e030 f   libvcruntimed:ehstate.obj
 0001:0003d120       ?__FuncRelToRealOffset@@YA_KPEAU_xDISPATCHER_CONTEXT@@I@Z 000000018003e120 f i libvcruntimed:ehstate.obj
 0001:0003d150       ?__RVAtoRealOffset@@YA_KPEAU_xDISPATCHER_CONTEXT@@H@Z 000000018003e150 f i libvcruntimed:ehstate.obj
 0001:0003f3d0       ??$TypeMatchHelper@V__FrameHandler3@@@@YAHPEBU_s_HandlerType@@PEBU_s_CatchableType@@PEBU_s_ThrowInfo@@@Z 00000001800403d0 f i libvcruntimed:frame.obj
 0001:0003f5d0       ??$TypeMatchHelper@V__FrameHandler4@@@@YAHPEAUHandlerType4@FH4@@PEBU_s_CatchableType@@PEBU_s_ThrowInfo@@@Z 00000001800405d0 f i libvcruntimed:frame.obj
 0001:0003f7e0       ??$__InternalCxxFrameHandler@V__FrameHandler3@@@@YA?AW4_EXCEPTION_DISPOSITION@@PEAUEHExceptionRecord@@PEA_KPEAU_CONTEXT@@PEAU_xDISPATCHER_CONTEXT@@PEBU_s_FuncInfo@@H1E@Z 00000001800407e0 f i libvcruntimed:frame.obj
 0001:0003fc50       ??$__InternalCxxFrameHandler@V__FrameHandler4@@@@YA?AW4_EXCEPTION_DISPOSITION@@PEAUEHExceptionRecord@@PEA_KPEAU_CONTEXT@@PEAU_xDISPATCHER_CONTEXT@@PEAUFuncInfo4@FH4@@H1E@Z 0000000180040c50 f i libvcruntimed:frame.obj
 0001:000400e0       ??0HandlerMap4@FH4@@QEAA@PEBUTryBlockMapEntry4@1@_KH@Z 00000001800410e0 f i libvcruntimed:frame.obj
 0001:000401a0       ??0HandlerMap@__FrameHandler3@@QEAA@PEBU_s_TryBlockMapEntry@@_KI@Z 00000001800411a0 f i libvcruntimed:frame.obj
 0001:000401f0       ??0HandlerType4@FH4@@QEAA@XZ 00000001800411f0 f i libvcruntimed:frame.obj
 0001:00040210       ??0TryBlockMap4@FH4@@QEAA@PEBUFuncInfo4@1@_K@Z 0000000180041210 f i libvcruntimed:frame.obj
 0001:000402a0       ??0TryBlockMap@__FrameHandler3@@QEAA@PEBU_s_FuncInfo@@_K@Z 00000001800412a0 f i libvcruntimed:frame.obj
 0001:000402d0       ??0UWMap4@FH4@@QEAA@PEBUFuncInfo4@1@_K@Z 00000001800412d0 f i libvcruntimed:frame.obj
 0001:00040340       ??0bad_exception@std@@QEAA@AEBV01@@Z 0000000180041340 f i libvcruntimed:frame.obj
 0001:00040380       ??0bad_exception@std@@QEAA@XZ 0000000180041380 f i libvcruntimed:frame.obj
 0001:000403c0       ??0iterator@HandlerMap4@FH4@@QEAA@AEAV12@I@Z 00000001800413c0 f i libvcruntimed:frame.obj
 0001:000403f0       ??0iterator@HandlerMap@__FrameHandler3@@QEAA@AEAV12@I@Z 00000001800413f0 f i libvcruntimed:frame.obj
 0001:00040420       ??0iterator@UWMap4@FH4@@QEAA@AEAV12@PEAE@Z 0000000180041420 f i libvcruntimed:frame.obj
 0001:00040450       ??1bad_exception@std@@UEAA@XZ 0000000180041450 f i libvcruntimed:frame.obj
 0001:00040470       ??4iterator@UWMap4@FH4@@QEAAAEAV012@AEBV012@@Z 0000000180041470 f i libvcruntimed:frame.obj
 0001:000404c0       ??8iterator@HandlerMap4@FH4@@QEBA_NAEBV012@@Z 00000001800414c0 f i libvcruntimed:frame.obj
 0001:00040500       ??8iterator@HandlerMap@__FrameHandler3@@QEBA_NAEBV012@@Z 0000000180041500 f i libvcruntimed:frame.obj
 0001:00040540       ??8type_info@@QEBA_NAEBV0@@Z 0000000180041540 f i libvcruntimed:frame.obj
 0001:00040590       ??9iterator@HandlerMap4@FH4@@QEBA_NAEBV012@@Z 0000000180041590 f i libvcruntimed:frame.obj
 0001:000405d0       ??9iterator@HandlerMap@__FrameHandler3@@QEBA_NAEBV012@@Z 00000001800415d0 f i libvcruntimed:frame.obj
 0001:00040610       ??Diterator@HandlerMap4@FH4@@QEAA?AUHandlerType4@2@XZ 0000000180041610 f i libvcruntimed:frame.obj
 0001:00040640       ??Diterator@HandlerMap@__FrameHandler3@@QEAA?BU_s_HandlerType@@XZ 0000000180041640 f i libvcruntimed:frame.obj
 0001:00040680       ??Diterator@TryBlockMap@__FrameHandler3@@QEAA?BU_s_TryBlockMapEntry@@XZ 0000000180041680 f i libvcruntimed:frame.obj
 0001:000406d0       ??Diterator@UWMap4@FH4@@QEAA?AUUnwindMapEntry4@2@XZ 00000001800416d0 f i libvcruntimed:frame.obj
 0001:00040750       ??Eiterator@HandlerMap4@FH4@@QEAAAEAV012@XZ 0000000180041750 f i libvcruntimed:frame.obj
 0001:00040790       ??Eiterator@HandlerMap@__FrameHandler3@@QEAAAEAV012@XZ 0000000180041790 f i libvcruntimed:frame.obj
 0001:000407b0       ??Eiterator@TryBlockMap@__FrameHandler3@@QEAAAEAV012@XZ 00000001800417b0 f i libvcruntimed:frame.obj
 0001:000407d0       ??Eiterator@UWMap4@FH4@@QEAAAEAV012@XZ 00000001800417d0 f i libvcruntimed:frame.obj
 0001:00040810       ??Giterator@UWMap4@FH4@@QEBA_JAEBV012@@Z 0000000180041810 f i libvcruntimed:frame.obj
 0001:00040830       ??Miterator@TryBlockMap4@FH4@@QEBA_NAEBV012@@Z 0000000180041830 f i libvcruntimed:frame.obj
 0001:00040870       ??Miterator@TryBlockMap@__FrameHandler3@@QEBA_NAEBV012@@Z 0000000180041870 f i libvcruntimed:frame.obj
 0001:000408b0       ??Oiterator@UWMap4@FH4@@QEBA_NAEBV012@@Z 00000001800418b0 f i libvcruntimed:frame.obj
 0001:000408f0       ??Piterator@UWMap4@FH4@@QEBA_NAEBV012@@Z 00000001800418f0 f i libvcruntimed:frame.obj
 0001:00040930       ??_Ebad_exception@std@@UEAAPEAXI@Z 0000000180041930 f i libvcruntimed:frame.obj
 0001:00040930       ??_Gbad_exception@std@@UEAAPEAXI@Z 0000000180041930 f i libvcruntimed:frame.obj
 0001:00040970       ?BuildCatchObject@__FrameHandler3@@SAXPEAUEHExceptionRecord@@PEAXPEBU_s_HandlerType@@PEBU_s_CatchableType@@@Z 0000000180041970 f   libvcruntimed:frame.obj
 0001:000409b0       ?BuildCatchObject@__FrameHandler4@@SAXPEAUEHExceptionRecord@@PEAXPEAUHandlerType4@FH4@@PEBU_s_CatchableType@@@Z 00000001800419b0 f   libvcruntimed:frame.obj
 0001:000409f0       ?BuildCatchObjectHelper@__FrameHandler3@@SAHPEAUEHExceptionRecord@@PEAXPEBU_s_HandlerType@@PEBU_s_CatchableType@@@Z 00000001800419f0 f   libvcruntimed:frame.obj
 0001:00040a30       ?BuildCatchObjectHelper@__FrameHandler4@@SAHPEAUEHExceptionRecord@@PEAXPEAUHandlerType4@FH4@@PEBU_s_CatchableType@@@Z 0000000180041a30 f   libvcruntimed:frame.obj
 0001:00040a70       ?CxxCallCatchBlock@__FrameHandler3@@SAPEAXPEAU_EXCEPTION_RECORD@@@Z 0000000180041a70 f   libvcruntimed:frame.obj
 0001:00040cd0       ?CxxCallCatchBlock@__FrameHandler4@@SAPEAXPEAU_EXCEPTION_RECORD@@@Z 0000000180041cd0 f   libvcruntimed:frame.obj
 0001:00041000       ?DecompHandler@HandlerMap4@FH4@@AEAAXXZ 0000000180042000 f i libvcruntimed:frame.obj
 0001:000413d0       ?FrameUnwindToState@__FrameHandler3@@SAXPEA_KPEAU_xDISPATCHER_CONTEXT@@PEBU_s_FuncInfo@@H@Z 00000001800423d0 f   libvcruntimed:frame.obj
 0001:00041620       ?FrameUnwindToState@__FrameHandler4@@SAXPEA_KPEAU_xDISPATCHER_CONTEXT@@PEAUFuncInfo4@FH4@@H@Z 0000000180042620 f   libvcruntimed:frame.obj
 0001:00041930       ?GetHandlerSearchState@__FrameHandler3@@SAHPEA_KPEAU_xDISPATCHER_CONTEXT@@PEBU_s_FuncInfo@@@Z 0000000180042930 f i libvcruntimed:frame.obj
 0001:000419e0       ?GetHandlerSearchState@__FrameHandler4@@SAHPEA_KPEAU_xDISPATCHER_CONTEXT@@PEAUFuncInfo4@FH4@@@Z 00000001800429e0 f i libvcruntimed:frame.obj
 0001:00041a60       ?GetMaxState@__FrameHandler3@@SAHPEAU_xDISPATCHER_CONTEXT@@PEBU_s_FuncInfo@@@Z 0000000180042a60 f i libvcruntimed:frame.obj
 0001:00041a80       ?GetMaxState@__FrameHandler4@@SAHPEAU_xDISPATCHER_CONTEXT@@PEAUFuncInfo4@FH4@@@Z 0000000180042a80 f i libvcruntimed:frame.obj
 0001:00041cb0       ?ReadEntry@UWMap4@FH4@@AEAAXPEAPEAE@Z 0000000180042cb0 f i libvcruntimed:frame.obj
 0001:00041d60       ?TypeMatch@__FrameHandler3@@SAHPEBU_s_HandlerType@@PEBU_s_CatchableType@@PEBU_s_ThrowInfo@@@Z 0000000180042d60 f   libvcruntimed:frame.obj
 0001:00041d90       ?TypeMatch@__FrameHandler4@@SAHPEAUHandlerType4@FH4@@PEBU_s_CatchableType@@PEBU_s_ThrowInfo@@@Z 0000000180042d90 f   libvcruntimed:frame.obj
 0001:00041dc0       ?WalkBack@UWMap4@FH4@@AEAAXPEAPEAE@Z 0000000180042dc0 f i libvcruntimed:frame.obj
 0001:00041e10       ?WalkBack@iterator@UWMap4@FH4@@QEAAXXZ 0000000180042e10 f i libvcruntimed:frame.obj
 0001:00041e50       ?WalkForward@UWMap4@FH4@@AEAAXPEAPEAE@Z 0000000180042e50 f i libvcruntimed:frame.obj
 0001:00041e80       ?_CallMemberFunction1@@YAXQEAX00@Z 0000000180042e80 f i libvcruntimed:frame.obj
 0001:00041ec0       ?_CallMemberFunction2@@YAXQEAX00H@Z 0000000180042ec0 f i libvcruntimed:frame.obj
 0001:00041f50       ?begin@HandlerMap4@FH4@@QEAA?AViterator@12@XZ 0000000180042f50 f i libvcruntimed:frame.obj
 0001:00041f80       ?begin@HandlerMap@__FrameHandler3@@QEAA?AViterator@12@XZ 0000000180042f80 f i libvcruntimed:frame.obj
 0001:00041fb0       ?begin@UWMap4@FH4@@QEAA?AViterator@12@XZ 0000000180042fb0 f i libvcruntimed:frame.obj
 0001:00041fe0       ?end@HandlerMap4@FH4@@QEAA?AViterator@12@XZ 0000000180042fe0 f i libvcruntimed:frame.obj
 0001:00042010       ?end@HandlerMap@__FrameHandler3@@QEAA?AViterator@12@XZ 0000000180043010 f i libvcruntimed:frame.obj
 0001:00042040       ?getESTypes@__FrameHandler3@@SAPEBU_s_ESTypeList@@PEBU_s_FuncInfo@@@Z 0000000180043040 f i libvcruntimed:frame.obj
 0001:00042080       ?getESTypes@__FrameHandler4@@SAPEBU_s_ESTypeList@@PEAUFuncInfo4@FH4@@@Z 0000000180043080 f i libvcruntimed:frame.obj
 0001:00042090       ?getLastEntry@HandlerMap4@FH4@@QEAAPEAUHandlerType4@2@XZ 0000000180043090 f i libvcruntimed:frame.obj
 0001:000420d0       ?getLastEntry@HandlerMap@__FrameHandler3@@QEAAPEBU_s_HandlerType@@XZ 00000001800430d0 f i libvcruntimed:frame.obj
 0001:000420f0       ?getMagicNum@__FrameHandler3@@SAIPEBU_s_FuncInfo@@@Z 00000001800430f0 f i libvcruntimed:frame.obj
 0001:00042110       ?getMagicNum@__FrameHandler4@@SAIPEAUFuncInfo4@FH4@@@Z 0000000180043110 f i libvcruntimed:frame.obj
 0001:00042120       ?getNumTryBlocks@TryBlockMap4@FH4@@QEAAIXZ 0000000180043120 f i libvcruntimed:frame.obj
 0001:00042130       ?getNumTryBlocks@TryBlockMap@__FrameHandler3@@QEAAIXZ 0000000180043130 f i libvcruntimed:frame.obj
 0001:00042150       ?getStartStop@UWMap4@FH4@@QEAAXHHAEAViterator@12@0@Z 0000000180043150 f i libvcruntimed:frame.obj
 0001:00042270       ?getStateFromIterators@UWMap4@FH4@@SAHAEBViterator@12@H0H0@Z 0000000180043270 f i libvcruntimed:frame.obj
 0001:000423b0       ?isEHs@__FrameHandler3@@SA_NPEBU_s_FuncInfo@@@Z 00000001800433b0 f i libvcruntimed:frame.obj
 0001:000423f0       ?isEHs@__FrameHandler4@@SA_NPEAUFuncInfo4@FH4@@@Z 00000001800433f0 f i libvcruntimed:frame.obj
 0001:00042410       ?isNoExcept@__FrameHandler3@@SA_NPEBU_s_FuncInfo@@@Z 0000000180043410 f i libvcruntimed:frame.obj
 0001:00042450       ?isNoExcept@__FrameHandler4@@SA_NPEAUFuncInfo4@FH4@@@Z 0000000180043450 f i libvcruntimed:frame.obj
 0001:00042470       ?reset@HandlerType4@FH4@@QEAAXXZ 0000000180043470 f i libvcruntimed:frame.obj
 0001:000424d0       ?resetBuffer@HandlerMap4@FH4@@QEAAXXZ 00000001800434d0 f i libvcruntimed:frame.obj
 0001:000424f0       ?setBuffer@HandlerMap4@FH4@@QEAAXI@Z 00000001800434f0 f i libvcruntimed:frame.obj
 0001:00042550       __BuildCatchObject         0000000180043550 f   libvcruntimed:frame.obj
 0001:00042590       __BuildCatchObjectHelper   0000000180043590 f   libvcruntimed:frame.obj
 0001:000425d0       __TypeMatch                00000001800435d0 f   libvcruntimed:frame.obj
 0001:00042600       __vcrt_EncodePointer       0000000180043600 f i libvcruntimed:frame.obj
 0001:00042620       ??$?0$00@DName@@QEAA@PEBDU?$StringLifeSelector@$00@@@Z 0000000180043620 f i libvcruntimed:undname.obj
 0001:00042690       ??$?0$00@pcharNode@@QEAA@PEBDHU?$StringLifeSelector@$00@@@Z 0000000180043690 f i libvcruntimed:undname.obj
 0001:000426f0       ??$?0$01@DName@@QEAA@PEBDU?$StringLifeSelector@$01@@@Z 00000001800436f0 f i libvcruntimed:undname.obj
 0001:00042760       ??$?0$01@pcharNode@@QEAA@PEBDHU?$StringLifeSelector@$01@@@Z 0000000180043760 f i libvcruntimed:undname.obj
 0001:00042810       ??$?0$0A@@DName@@QEAA@PEBDU?$StringLifeSelector@$0A@@@@Z 0000000180043810 f i libvcruntimed:undname.obj
 0001:00042880       ??$?0$0A@@pcharNode@@QEAA@PEBDHU?$StringLifeSelector@$0A@@@@Z 0000000180043880 f i libvcruntimed:undname.obj
 0001:00042930       ??$?0_K$0A@@?$optional@_K@std@@QEAA@$$QEA_K@Z 0000000180043930 f i libvcruntimed:undname.obj
 0001:00042980       ??$?0_K@?$_Optional_construct_base@_K@std@@QEAA@Uin_place_t@1@$$QEA_K@Z 0000000180043980 f i libvcruntimed:undname.obj
 0001:000429b0       ??$?0_K@?$_Optional_destruct_base@_K$00@std@@QEAA@Uin_place_t@1@$$QEA_K@Z 00000001800439b0 f i libvcruntimed:undname.obj
 0001:000429f0       ??$append@VDNameNode@@@DName@@AEAAXPEBVDNameNode@@@Z 00000001800439f0 f i libvcruntimed:undname.obj
 0001:00042aa0       ??$append@VDNameStatusNode@@@DName@@AEAAXPEBVDNameStatusNode@@@Z 0000000180043aa0 f i libvcruntimed:undname.obj
 0001:00042b50       ??$append@VcharNode@@@DName@@AEAAXPEBVcharNode@@@Z 0000000180043b50 f i libvcruntimed:undname.obj
 0001:00042c00       ??$append@VpDNameNode@@@DName@@AEAAXPEBVpDNameNode@@@Z 0000000180043c00 f i libvcruntimed:undname.obj
 0001:00042cb0       ??$append@VpcharNode@@@DName@@AEAAXPEBVpcharNode@@@Z 0000000180043cb0 f i libvcruntimed:undname.obj
 0001:00042d60       ??$doPchar@$00@DName@@AEAAXPEBDH@Z 0000000180043d60 f i libvcruntimed:undname.obj
 0001:00042ec0       ??$doPchar@$01@DName@@AEAAXPEBDH@Z 0000000180043ec0 f i libvcruntimed:undname.obj
 0001:00043020       ??$doPchar@$0A@@DName@@AEAAXPEBDH@Z 0000000180044020 f i libvcruntimed:undname.obj
 0001:00043180       ??$forward@_K@std@@YA$$QEA_KAEA_K@Z 0000000180044180 f i libvcruntimed:undname.obj
 0001:00043190       ??$size@D$04@std@@YA_KAEAY04$$CBD@Z 0000000180044190 f i libvcruntimed:undname.obj
 0001:000431a0       ??$size@D$0EB@@std@@YA_KAEAY0EB@$$CBD@Z 00000001800441a0 f i libvcruntimed:undname.obj
 0001:000431b0       ??0?$_Optional_construct_base@_K@std@@QEAA@XZ 00000001800441b0 f i libvcruntimed:undname.obj
 0001:000431d0       ??0?$_Optional_destruct_base@_K$00@std@@QEAA@XZ 00000001800441d0 f i libvcruntimed:undname.obj
 0001:000431f0       ??0?$optional@_K@std@@QEAA@XZ 00000001800441f0 f i libvcruntimed:undname.obj
 0001:00043220       ??0Block@_HeapManager@@QEAA@XZ 0000000180044220 f i libvcruntimed:undname.obj
 0001:00043240       ??0DName@@QEAA@AEAPEBDD@Z  0000000180044240 f   libvcruntimed:undname.obj
 0001:00043410       ??0DName@@QEAA@AEBUStringLiteral@@@Z 0000000180044410 f   libvcruntimed:undname.obj
 0001:00043470       ??0DName@@QEAA@AEBV0@@Z    0000000180044470 f i libvcruntimed:undname.obj
 0001:000434a0       ??0DName@@QEAA@D@Z         00000001800444a0 f   libvcruntimed:undname.obj
 0001:000434e0       ??0DName@@QEAA@PEAV0@@Z    00000001800444e0 f   libvcruntimed:undname.obj
 0001:000435c0       ??0DName@@QEAA@W4DNameStatus@@@Z 00000001800445c0 f   libvcruntimed:undname.obj
 0001:00043670       ??0DName@@QEAA@XZ          0000000180044670 f i libvcruntimed:undname.obj
 0001:000436a0       ??0DName@@QEAA@_J@Z        00000001800446a0 f   libvcruntimed:undname.obj
 0001:000437b0       ??0DName@@QEAA@_K@Z        00000001800447b0 f   libvcruntimed:undname.obj
 0001:00043880       ??0DNameNode@@IEAA@XZ      0000000180044880 f i libvcruntimed:undname.obj
 0001:000438a0       ??0Replicator@@QEAA@XZ     00000001800448a0 f i libvcruntimed:undname.obj
 0001:000438e0       ??0UnDecorator@@QEAA@PEBDP6APEADJ@ZK@Z 00000001800448e0 f i libvcruntimed:undname.obj
 0001:00043990       ??0charNode@@QEAA@D@Z      0000000180044990 f i libvcruntimed:undname.obj
 0001:000439d0       ??0pDNameNode@@QEAA@PEAVDName@@@Z 00000001800449d0 f   libvcruntimed:undname.obj
 0001:00043a50       ??0pairNode@@QEAA@PEBVDNameNode@@0@Z 0000000180044a50 f i libvcruntimed:undname.obj
 0001:00043ad0       ??2@YAPEAX_KAEAV_HeapManager@@H@Z 0000000180044ad0 f   libvcruntimed:undname.obj
 0001:00043b30       ??4DName@@QEAAAEAV0@AEBUStringLiteral@@@Z 0000000180044b30 f   libvcruntimed:undname.obj
 0001:00043b80       ??4DName@@QEAAAEAV0@AEBV0@@Z 0000000180044b80 f   libvcruntimed:undname.obj
 0001:00043bb0       ??4DName@@QEAAAEAV0@D@Z    0000000180044bb0 f i libvcruntimed:undname.obj
 0001:00043bf0       ??4DName@@QEAAAEAV0@PEAV0@@Z 0000000180044bf0 f   libvcruntimed:undname.obj
 0001:00043cc0       ??4DName@@QEAAAEAV0@W4DNameStatus@@@Z 0000000180044cc0 f   libvcruntimed:undname.obj
 0001:00043d50       ??AReplicator@@QEBA?AVDName@@H@Z 0000000180044d50 f   libvcruntimed:undname.obj
 0001:00043de0       ??B?$optional@_K@std@@QEBA_NXZ 0000000180044de0 f i libvcruntimed:undname.obj
 0001:00043df0       ??D?$optional@_K@std@@QEGAAAEA_KXZ 0000000180044df0 f i libvcruntimed:undname.obj
 0001:00043e00       ??H@YA?AVDName@@AEBUStringLiteral@@AEBV0@@Z 0000000180044e00 f i libvcruntimed:undname.obj
 0001:00043e50       ??H@YA?AVDName@@DAEBV0@@Z  0000000180044e50 f i libvcruntimed:undname.obj
 0001:00043ea0       ??H@YA?AVDName@@W4DNameStatus@@AEBV0@@Z 0000000180044ea0 f i libvcruntimed:undname.obj
 0001:00043ef0       ??HDName@@QEBA?AV0@AEBUStringLiteral@@@Z 0000000180044ef0 f   libvcruntimed:undname.obj
 0001:00043f40       ??HDName@@QEBA?AV0@AEBV0@@Z 0000000180044f40 f   libvcruntimed:undname.obj
 0001:00043f90       ??HDName@@QEBA?AV0@D@Z     0000000180044f90 f   libvcruntimed:undname.obj
 0001:00043fe0       ??HDName@@QEBA?AV0@PEAV0@@Z 0000000180044fe0 f   libvcruntimed:undname.obj
 0001:00044030       ??HDName@@QEBA?AV0@W4DNameStatus@@@Z 0000000180045030 f   libvcruntimed:undname.obj
 0001:00044080       ??HStringLiteral@@QEBA?AU0@H@Z 0000000180045080 f i libvcruntimed:undname.obj
 0001:000440c0       ??YDName@@QEAAAEAV0@AEBUStringLiteral@@@Z 00000001800450c0 f   libvcruntimed:undname.obj
 0001:00044190       ??YDName@@QEAAAEAV0@AEBV0@@Z 0000000180045190 f   libvcruntimed:undname.obj
 0001:00044250       ??YDName@@QEAAAEAV0@D@Z    0000000180045250 f   libvcruntimed:undname.obj
 0001:000442f0       ??YDName@@QEAAAEAV0@PEAV0@@Z 00000001800452f0 f   libvcruntimed:undname.obj
 0001:000443d0       ??YDName@@QEAAAEAV0@W4DNameStatus@@@Z 00000001800453d0 f   libvcruntimed:undname.obj
 0001:00044440       ??YReplicator@@QEAAAEAV0@AEBVDName@@@Z 0000000180045440 f   libvcruntimed:undname.obj
 0001:00044500       ??_5DName@@QEAAAEAV0@AEBV0@@Z 0000000180045500 f   libvcruntimed:undname.obj
 0001:00044570       ??__K_l@@YA?AUStringLiteral@@PEBD_K@Z 0000000180045570 f i libvcruntimed:undname.obj
 0001:000445c0       ?Constructor@_HeapManager@@QEAAXP6APEAX_K@ZP6AXPEAX@Z@Z 00000001800455c0 f i libvcruntimed:undname.obj
 0001:00044620       ?Destructor@_HeapManager@@QEAAXXZ 0000000180045620 f i libvcruntimed:undname.obj
 0001:000446c0       ?UScore@UnDecorator@@SA?AUStringLiteral@@W4Tokens@@@Z 00000001800456c0 f   libvcruntimed:undname.obj
 0001:00044750       ?composeDeclaration@UnDecorator@@CA?AVDName@@AEBV2@@Z 0000000180045750 f i libvcruntimed:undname.obj
 0001:00046c50       ?dbGetString@DName@@QEBAPEADXZ 0000000180047c50 f   libvcruntimed:undname.obj
 0001:00046c80       ?doAccessSpecifiers@UnDecorator@@SAHXZ 0000000180047c80 f i libvcruntimed:undname.obj
 0001:00046cb0       ?doAllocationLanguage@UnDecorator@@SAHXZ 0000000180047cb0 f i libvcruntimed:undname.obj
 0001:00046ce0       ?doAllocationModel@UnDecorator@@SAHXZ 0000000180047ce0 f i libvcruntimed:undname.obj
 0001:00046d10       ?doEcsu@UnDecorator@@SAHXZ 0000000180047d10 f i libvcruntimed:undname.obj
 0001:00046d40       ?doEllipsis@UnDecorator@@SAHXZ 0000000180047d40 f i libvcruntimed:undname.obj
 0001:00046d70       ?doFunctionReturns@UnDecorator@@SAHXZ 0000000180047d70 f i libvcruntimed:undname.obj
 0001:00046da0       ?doMSKeywords@UnDecorator@@SAHXZ 0000000180047da0 f i libvcruntimed:undname.obj
 0001:00046dd0       ?doMemberTypes@UnDecorator@@SAHXZ 0000000180047dd0 f i libvcruntimed:undname.obj
 0001:00046e00       ?doNameOnly@UnDecorator@@SAHXZ 0000000180047e00 f i libvcruntimed:undname.obj
 0001:00046e10       ?doNoIdentCharCheck@UnDecorator@@SAHXZ 0000000180047e10 f i libvcruntimed:undname.obj
 0001:00046e20       ?doPchar@DName@@AEAAXD@Z   0000000180047e20 f   libvcruntimed:undname.obj
 0001:00046eb0       ?doPtr64@UnDecorator@@SAHXZ 0000000180047eb0 f i libvcruntimed:undname.obj
 0001:00046ee0       ?doRestrictionSpec@UnDecorator@@SAHXZ 0000000180047ee0 f i libvcruntimed:undname.obj
 0001:00046f10       ?doThisTypes@UnDecorator@@SAHXZ 0000000180047f10 f i libvcruntimed:undname.obj
 0001:00046f40       ?doThrowTypes@UnDecorator@@SAHXZ 0000000180047f40 f i libvcruntimed:undname.obj
 0001:00046f70       ?doTypeOnly@UnDecorator@@SAHXZ 0000000180047f70 f i libvcruntimed:undname.obj
 0001:00046f80       ?doUnderScore@UnDecorator@@SAHXZ 0000000180047f80 f i libvcruntimed:undname.obj
 0001:00046fb0       ?getArgumentList@UnDecorator@@CA?AVDName@@XZ 0000000180047fb0 f   libvcruntimed:undname.obj
 0001:00047150       ?getArgumentTypes@UnDecorator@@CA?AVDName@@XZ 0000000180048150 f   libvcruntimed:undname.obj
 0001:000474b0       ?getArrayObject@UnDecorator@@CA?AVDName@@XZ 00000001800484b0 f   libvcruntimed:undname.obj
 0001:000475d0       ?getArrayType@UnDecorator@@CA?AVDName@@AEBV2@@Z 00000001800485d0 f i libvcruntimed:undname.obj
 0001:00047990       ?getBasedType@UnDecorator@@CA?AVDName@@XZ 0000000180048990 f   libvcruntimed:undname.obj
 0001:00047b00       ?getBasicDataType@UnDecorator@@CA?AVDName@@AEBV2@@Z 0000000180048b00 f   libvcruntimed:undname.obj
 0001:000487d0       ?getCHPEName@UnDecorator@@QEAAPEADPEADH@Z 00000001800497d0 f i libvcruntimed:undname.obj
 0001:000489a0       ?getCallIndex@UnDecorator@@CA?AVDName@@XZ 00000001800499a0 f i libvcruntimed:undname.obj
 0001:000489c0       ?getCallingConvention@UnDecorator@@CA?AVDName@@XZ 00000001800499c0 f   libvcruntimed:undname.obj
 0001:00048d60       ?getDataIndirectType@UnDecorator@@CA?AVDName@@AEBV2@W4IndirectionKind@@0H@Z 0000000180049d60 f   libvcruntimed:undname.obj
 0001:00049a00       ?getDataIndirectType@UnDecorator@@CA?AVDName@@XZ 000000018004aa00 f i libvcruntimed:undname.obj
 0001:00049a50       ?getDataType@UnDecorator@@CA?AVDName@@PEAV2@@Z 000000018004aa50 f   libvcruntimed:undname.obj
 0001:00049c30       ?getDecoratedName@UnDecorator@@CA?AVDName@@XZ 000000018004ac30 f   libvcruntimed:undname.obj
 0001:0004a120       ?getDimension@UnDecorator@@CA?AVDName@@_N@Z 000000018004b120 f   libvcruntimed:undname.obj
 0001:0004a430       ?getDispatchTarget@UnDecorator@@CA?AVDName@@XZ 000000018004b430 f   libvcruntimed:undname.obj
 0001:0004a500       ?getDisplacement@UnDecorator@@CA?AVDName@@XZ 000000018004b500 f i libvcruntimed:undname.obj
 0001:0004a520       ?getECSUDataType@UnDecorator@@CA?AVDName@@XZ 000000018004b520 f   libvcruntimed:undname.obj
 0001:0004a8b0       ?getECSUName@UnDecorator@@CA?AVDName@@XZ 000000018004b8b0 f i libvcruntimed:undname.obj
 0001:0004a8d0       ?getEnumType@UnDecorator@@CA?AVDName@@XZ 000000018004b8d0 f i libvcruntimed:undname.obj
 0001:0004ab60       ?getExtendedDataIndirectType@UnDecorator@@CA?AVDName@@AEAW4IndirectionKind@@AEA_NH@Z 000000018004bb60 f   libvcruntimed:undname.obj
 0001:0004ae80       ?getExternalDataType@UnDecorator@@CA?AVDName@@AEBV2@@Z 000000018004be80 f i libvcruntimed:undname.obj
 0001:0004af60       ?getFloatingPoint@UnDecorator@@CA?AVDName@@H@Z 000000018004bf60 f   libvcruntimed:undname.obj
 0001:0004b1d0       ?getFunctionIndirectType@UnDecorator@@CA?AVDName@@AEBV2@@Z 000000018004c1d0 f   libvcruntimed:undname.obj
 0001:0004b800       ?getGuardNumber@UnDecorator@@CA?AVDName@@XZ 000000018004c800 f i libvcruntimed:undname.obj
 0001:0004b820       ?getLastChar@DName@@QEBADXZ 000000018004c820 f i libvcruntimed:undname.obj
 0001:0004b870       ?getLastChar@DNameStatusNode@@UEBADXZ 000000018004c870 f i libvcruntimed:undname.obj
 0001:0004b8b0       ?getLastChar@charNode@@UEBADXZ 000000018004c8b0 f i libvcruntimed:undname.obj
 0001:0004b8c0       ?getLastChar@pDNameNode@@UEBADXZ 000000018004c8c0 f i libvcruntimed:undname.obj
 0001:0004b900       ?getLastChar@pairNode@@UEBADXZ 000000018004c900 f i libvcruntimed:undname.obj
 0001:0004b980       ?getLastChar@pcharNode@@UEBADXZ 000000018004c980 f i libvcruntimed:undname.obj
 0001:0004b9c0       ?getLexicalFrame@UnDecorator@@CA?AVDName@@XZ 000000018004c9c0 f i libvcruntimed:undname.obj
 0001:0004ba10       ?getMemoryWithBuffer@_HeapManager@@QEAAPEAX_K@Z 000000018004ca10 f   libvcruntimed:undname.obj
 0001:0004bb60       ?getMemoryWithoutBuffer@_HeapManager@@QEAAPEAX_K@Z 000000018004cb60 f   libvcruntimed:undname.obj
 0001:0004bbb0       ?getNoexcept@UnDecorator@@CA?AVDName@@XZ 000000018004cbb0 f   libvcruntimed:undname.obj
 0001:0004bc60       ?getNumberOfDimensions@UnDecorator@@CAHXZ 000000018004cc60 f   libvcruntimed:undname.obj
 0001:0004bd80       ?getOperatorName@UnDecorator@@CA?AVDName@@_NPEA_N@Z 000000018004cd80 f i libvcruntimed:undname.obj
 0001:0004cc90       ?getPointerType@UnDecorator@@CA?AVDName@@AEBV2@0@Z 000000018004dc90 f i libvcruntimed:undname.obj
 0001:0004ccd0       ?getPointerTypeArray@UnDecorator@@CA?AVDName@@AEBV2@0@Z 000000018004dcd0 f i libvcruntimed:undname.obj
 0001:0004cd10       ?getPrimaryDataType@UnDecorator@@CA?AVDName@@AEBV2@@Z 000000018004dd10 f   libvcruntimed:undname.obj
 0001:0004d300       ?getPtrRefDataType@UnDecorator@@CA?AVDName@@AEBV2@H@Z 000000018004e300 f   libvcruntimed:undname.obj
 0001:0004d6f0       ?getPtrRefType@UnDecorator@@CA?AVDName@@AEBV2@0W4IndirectionKind@@@Z 000000018004e6f0 f   libvcruntimed:undname.obj
 0001:0004d930       ?getReferenceType@UnDecorator@@CA?AVDName@@AEBV2@0W4IndirectionKind@@@Z 000000018004e930 f i libvcruntimed:undname.obj
 0001:0004d970       ?getRestrictionSpec@UnDecorator@@CA?AVDName@@XZ 000000018004e970 f   libvcruntimed:undname.obj
 0001:0004dc00       ?getReturnType@UnDecorator@@CA?AVDName@@PEAV2@@Z 000000018004ec00 f   libvcruntimed:undname.obj
 0001:0004dc60       ?getScope@UnDecorator@@CA?AVDName@@XZ 000000018004ec60 f   libvcruntimed:undname.obj
 0001:0004e3b0       ?getScopedName@UnDecorator@@CA?AVDName@@XZ 000000018004f3b0 f   libvcruntimed:undname.obj
 0001:0004e5b0       ?getSignedDimension@UnDecorator@@CA?AVDName@@XZ 000000018004f5b0 f   libvcruntimed:undname.obj
 0001:0004e640       ?getStorageConvention@UnDecorator@@CA?AVDName@@XZ 000000018004f640 f i libvcruntimed:undname.obj
 0001:0004e660       ?getString@DName@@QEBAPEADPEAD0@Z 000000018004f660 f i libvcruntimed:undname.obj
 0001:0004e6e0       ?getString@DName@@QEBAPEADPEADH@Z 000000018004f6e0 f i libvcruntimed:undname.obj
 0001:0004e7a0       ?getString@DNameStatusNode@@UEBAPEADPEAD0@Z 000000018004f7a0 f i libvcruntimed:undname.obj
 0001:0004e7f0       ?getString@charNode@@UEBAPEADPEAD0@Z 000000018004f7f0 f i libvcruntimed:undname.obj
 0001:0004e830       ?getString@pDNameNode@@UEBAPEADPEAD0@Z 000000018004f830 f i libvcruntimed:undname.obj
 0001:0004e890       ?getString@pairNode@@UEBAPEADPEAD0@Z 000000018004f890 f i libvcruntimed:undname.obj
 0001:0004e960       ?getString@pcharNode@@UEBAPEADPEAD0@Z 000000018004f960 f i libvcruntimed:undname.obj
 0001:0004e9a0       ?getStringEncoding@UnDecorator@@CA?AVDName@@W4PrefixKind@@H@Z 000000018004f9a0 f   libvcruntimed:undname.obj
 0001:0004eb00       ?getStringHelper@@YAPEADPEADPEBD1H@Z 000000018004fb00 f i libvcruntimed:undname.obj
 0001:0004eb70       ?getStringObject@UnDecorator@@CA?AVDName@@XZ 000000018004fb70 f   libvcruntimed:undname.obj
 0001:0004ec50       ?getSymbolName@UnDecorator@@CA?AVDName@@XZ 000000018004fc50 f i libvcruntimed:undname.obj
 0001:0004ecf0       ?getTemplateArgumentList@UnDecorator@@CA?AVDName@@XZ 000000018004fcf0 f   libvcruntimed:undname.obj
 0001:0004f000       ?getTemplateName@UnDecorator@@CA?AVDName@@_N@Z 0000000180050000 f   libvcruntimed:undname.obj
 0001:0004f240       ?getTemplateNonTypeArgument@UnDecorator@@CA?AVDName@@XZ 0000000180050240 f   libvcruntimed:undname.obj
 0001:0004f930       ?getTemplateTypeArgument@UnDecorator@@CA?AVDName@@XZ 0000000180050930 f   libvcruntimed:undname.obj
 0001:0004fba0       ?getThisType@UnDecorator@@CA?AVDName@@XZ 0000000180050ba0 f i libvcruntimed:undname.obj
 0001:0004fbf0       ?getThrowTypes@UnDecorator@@CA?AVDName@@XZ 0000000180050bf0 f   libvcruntimed:undname.obj
 0001:0004fc40       ?getTypeEncoding@UnDecorator@@CAHXZ 0000000180050c40 f i libvcruntimed:undname.obj
 0001:00050870       ?getUndecoratedName@UnDecorator@@QEAAPEADPEADH@Z 0000000180051870 f i libvcruntimed:undname.obj
 0001:00050a60       ?getVCallThunkType@UnDecorator@@CA?AVDName@@XZ 0000000180051a60 f i libvcruntimed:undname.obj
 0001:00050b10       ?getValue@UnDecorator@@CA?AV?$optional@_K@std@@XZ 0000000180051b10 f   libvcruntimed:undname.obj
 0001:00050be0       ?getValueObject@UnDecorator@@CA?AVDName@@XZ 0000000180051be0 f   libvcruntimed:undname.obj
 0001:00050da0       ?getVbTableType@UnDecorator@@CA?AVDName@@AEBV2@@Z 0000000180051da0 f i libvcruntimed:undname.obj
 0001:00050dd0       ?getVdispMapType@UnDecorator@@CA?AVDName@@AEBV2@@Z 0000000180051dd0 f i libvcruntimed:undname.obj
 0001:00050e90       ?getVfTableType@UnDecorator@@CA?AVDName@@AEBV2@@Z 0000000180051e90 f i libvcruntimed:undname.obj
 0001:00051130       ?getZName@UnDecorator@@CA?AVDName@@_N0@Z 0000000180052130 f   libvcruntimed:undname.obj
 0001:000515c0       ?haveTemplateParameters@UnDecorator@@SAHXZ 00000001800525c0 f i libvcruntimed:undname.obj
 0001:000515d0       ?isArray@DName@@QEBAHXZ    00000001800525d0 f i libvcruntimed:undname.obj
 0001:000515f0       ?isComArray@DName@@QEBAHXZ 00000001800525f0 f i libvcruntimed:undname.obj
 0001:00051610       ?isEmpty@DName@@QEBAHXZ    0000000180052610 f i libvcruntimed:undname.obj
 0001:00051640       ?isFull@Replicator@@QEBAHXZ 0000000180052640 f i libvcruntimed:undname.obj
 0001:00051670       ?isNoTE@DName@@QEBAHXZ     0000000180052670 f i libvcruntimed:undname.obj
 0001:00051690       ?isPinPtr@DName@@QEBAHXZ   0000000180052690 f i libvcruntimed:undname.obj
 0001:000516b0       ?isPtrRef@DName@@QEBAHXZ   00000001800526b0 f i libvcruntimed:undname.obj
 0001:000516d0       ?isUDC@DName@@QEBAHXZ      00000001800526d0 f i libvcruntimed:undname.obj
 0001:00051720       ?isUDTThunk@DName@@QEBAHXZ 0000000180052720 f i libvcruntimed:undname.obj
 0001:00051770       ?isVCallThunk@DName@@QEBAHXZ 0000000180052770 f i libvcruntimed:undname.obj
 0001:00051790       ?isValid@DName@@QEBAHXZ    0000000180052790 f i libvcruntimed:undname.obj
 0001:000517d0       ?length@DName@@QEBAHXZ     00000001800527d0 f i libvcruntimed:undname.obj
 0001:00051820       ?length@DNameStatusNode@@UEBAHXZ 0000000180052820 f i libvcruntimed:undname.obj
 0001:00051830       ?length@charNode@@UEBAHXZ  0000000180052830 f i libvcruntimed:undname.obj
 0001:00051840       ?length@pDNameNode@@UEBAHXZ 0000000180052840 f i libvcruntimed:undname.obj
 0001:00051880       ?length@pairNode@@UEBAHXZ  0000000180052880 f i libvcruntimed:undname.obj
 0001:00051910       ?length@pcharNode@@UEBAHXZ 0000000180052910 f i libvcruntimed:undname.obj
 0001:00051920       ?make@DNameStatusNode@@SAPEBV1@W4DNameStatus@@@Z 0000000180052920 f i libvcruntimed:undname.obj
 0001:00051970       ?parseDecoratedName@UnDecorator@@CA?AVDName@@XZ 0000000180052970 f   libvcruntimed:undname.obj
 0001:00051b60       ?raw_length@DNameStatusNode@@UEBAHXZ 0000000180052b60 f i libvcruntimed:undname.obj
 0001:00051b80       ?raw_length@charNode@@UEBAHXZ 0000000180052b80 f i libvcruntimed:undname.obj
 0001:00051ba0       ?raw_length@pDNameNode@@UEBAHXZ 0000000180052ba0 f i libvcruntimed:undname.obj
 0001:00051bb0       ?raw_length@pairNode@@UEBAHXZ 0000000180052bb0 f i libvcruntimed:undname.obj
 0001:00051bc0       ?raw_length@pcharNode@@UEBAHXZ 0000000180052bc0 f i libvcruntimed:undname.obj
 0001:00051be0       ?setIsArray@DName@@QEAAXXZ 0000000180052be0 f i libvcruntimed:undname.obj
 0001:00051c00       ?setIsComArray@DName@@QEAAXXZ 0000000180052c00 f i libvcruntimed:undname.obj
 0001:00051c20       ?setIsNoTE@DName@@QEAAXXZ  0000000180052c20 f i libvcruntimed:undname.obj
 0001:00051c40       ?setIsPinPtr@DName@@QEAAXXZ 0000000180052c40 f i libvcruntimed:undname.obj
 0001:00051c60       ?setIsUDC@DName@@QEAAXXZ   0000000180052c60 f i libvcruntimed:undname.obj
 0001:00051c90       ?setIsVCallThunk@DName@@QEAAXXZ 0000000180052c90 f i libvcruntimed:undname.obj
 0001:00051cb0       ?setPtrRef@DName@@QEAAAEAV1@XZ 0000000180052cb0 f i libvcruntimed:undname.obj
 0001:00051cd0       ?status@DName@@QEBA?AW4DNameStatus@@XZ 0000000180052cd0 f i libvcruntimed:undname.obj
 0001:00051e00       __unDName                  0000000180052e00 f   libvcruntimed:undname.obj
 0001:00051e60       __unDNameEx                0000000180052e60 f   libvcruntimed:undname.obj
 0001:00051f20       unDNameGenerateCHPE        0000000180052f20 f   libvcruntimed:undname.obj
 0001:00051fd0       ??$__crt_interlocked_exchange_pointer@UHINSTANCE__@@PEAU1@@@YAPEAUHINSTANCE__@@PEDSEAU0@QEAU0@@Z 0000000180052fd0 f i libvcruntimed:winapi_downlevel.obj
 0001:00051ff0       ??$__crt_interlocked_exchange_pointer@UHINSTANCE__@@PEAX@@YAPEAUHINSTANCE__@@PEDSEAU0@QEAX@Z 0000000180052ff0 f i libvcruntimed:winapi_downlevel.obj
 0001:00052010       ??$__crt_interlocked_exchange_pointer@XPEAX@@YAPEAXPEDSEAXQEAX@Z 0000000180053010 f i libvcruntimed:winapi_downlevel.obj
 0001:00052030       ??$__crt_interlocked_read_pointer@UHINSTANCE__@@@@YAPEAUHINSTANCE__@@PEDSEAU0@@Z 0000000180053030 f i libvcruntimed:winapi_downlevel.obj
 0001:00052050       ??$__crt_interlocked_read_pointer@X@@YAPEAXPEDSEAX@Z 0000000180053050 f i libvcruntimed:winapi_downlevel.obj
 0001:00052560       __vcrt_FlsAlloc            0000000180053560 f   libvcruntimed:winapi_downlevel.obj
 0001:000525b0       __vcrt_FlsFree             00000001800535b0 f   libvcruntimed:winapi_downlevel.obj
 0001:00052600       __vcrt_FlsGetValue         0000000180053600 f   libvcruntimed:winapi_downlevel.obj
 0001:00052650       __vcrt_FlsSetValue         0000000180053650 f   libvcruntimed:winapi_downlevel.obj
 0001:000526b0       __vcrt_InitializeCriticalSectionEx 00000001800536b0 f   libvcruntimed:winapi_downlevel.obj
 0001:00052730       _CallSettingFrame          0000000180053730 f   libvcruntimed:handlers.obj
 0001:00052780       _CallSettingFrame_LookupContinuationIndex 0000000180053780 f   libvcruntimed:handlers.obj
 0001:000527b0       _CallSettingFrame_NotifyContinuationAddr 00000001800537b0 f   libvcruntimed:handlers.obj
 0001:000527e0       _CallSettingFrameEncoded   00000001800537e0 f   libvcruntimed:handlers.obj
 0001:00052830       ??$?0AEBV?$stream_output_adapter@D@__crt_stdio_output@@AEB_KAEBQEBDAEBQEAU__crt_locale_pointers@@AEBQEAD@?$format_validation_base@DV?$stream_output_adapter@D@__crt_stdio_output@@@__crt_stdio_output@@IEAA@AEBV?$stream_output_adapter@D@1@AEB_KAEBQEBDAEBQEAU__crt_locale_pointers@@AEBQEAD@Z 0000000180053830 f i libucrtd:output.obj
 0001:00052880       ??$?0AEBV?$stream_output_adapter@D@__crt_stdio_output@@AEB_KAEBQEBDAEBQEAU__crt_locale_pointers@@AEBQEAD@?$positional_parameter_base@DV?$stream_output_adapter@D@__crt_stdio_output@@@__crt_stdio_output@@IEAA@AEBV?$stream_output_adapter@D@1@AEB_KAEBQEBDAEBQEAU__crt_locale_pointers@@AEBQEAD@Z 0000000180053880 f i libucrtd:output.obj
 0001:00052920       ??$?0AEBV?$stream_output_adapter@D@__crt_stdio_output@@AEB_KAEBQEBDAEBQEAU__crt_locale_pointers@@AEBQEAD@?$standard_base@DV?$stream_output_adapter@D@__crt_stdio_output@@@__crt_stdio_output@@IEAA@AEBV?$stream_output_adapter@D@1@AEB_KAEBQEBDAEBQEAU__crt_locale_pointers@@AEBQEAD@Z 0000000180053920 f i libucrtd:output.obj
 0001:00052990       ??$?0AEBV?$stream_output_adapter@_W@__crt_stdio_output@@AEB_KAEBQEB_WAEBQEAU__crt_locale_pointers@@AEBQEAD@?$format_validation_base@_WV?$stream_output_adapter@_W@__crt_stdio_output@@@__crt_stdio_output@@IEAA@AEBV?$stream_output_adapter@_W@1@AEB_KAEBQEB_WAEBQEAU__crt_locale_pointers@@AEBQEAD@Z 0000000180053990 f i libucrtd:output.obj
 0001:000529e0       ??$?0AEBV?$stream_output_adapter@_W@__crt_stdio_output@@AEB_KAEBQEB_WAEBQEAU__crt_locale_pointers@@AEBQEAD@?$positional_parameter_base@_WV?$stream_output_adapter@_W@__crt_stdio_output@@@__crt_stdio_output@@IEAA@AEBV?$stream_output_adapter@_W@1@AEB_KAEBQEB_WAEBQEAU__crt_locale_pointers@@AEBQEAD@Z 00000001800539e0 f i libucrtd:output.obj
 0001:00052a80       ??$?0AEBV?$stream_output_adapter@_W@__crt_stdio_output@@AEB_KAEBQEB_WAEBQEAU__crt_locale_pointers@@AEBQEAD@?$standard_base@_WV?$stream_output_adapter@_W@__crt_stdio_output@@@__crt_stdio_output@@IEAA@AEBV?$stream_output_adapter@_W@1@AEB_KAEBQEB_WAEBQEAU__crt_locale_pointers@@AEBQEAD@Z 0000000180053a80 f i libucrtd:output.obj
 0001:00052af0       ??$?0AEBV?$string_output_adapter@D@__crt_stdio_output@@AEB_KAEBQEBDAEBQEAU__crt_locale_pointers@@AEBQEAD@?$format_validation_base@DV?$string_output_adapter@D@__crt_stdio_output@@@__crt_stdio_output@@IEAA@AEBV?$string_output_adapter@D@1@AEB_KAEBQEBDAEBQEAU__crt_locale_pointers@@AEBQEAD@Z 0000000180053af0 f i libucrtd:output.obj
 0001:00052b40       ??$?0AEBV?$string_output_adapter@D@__crt_stdio_output@@AEB_KAEBQEBDAEBQEAU__crt_locale_pointers@@AEBQEAD@?$positional_parameter_base@DV?$string_output_adapter@D@__crt_stdio_output@@@__crt_stdio_output@@IEAA@AEBV?$string_output_adapter@D@1@AEB_KAEBQEBDAEBQEAU__crt_locale_pointers@@AEBQEAD@Z 0000000180053b40 f i libucrtd:output.obj
 0001:00052be0       ??$?0AEBV?$string_output_adapter@D@__crt_stdio_output@@AEB_KAEBQEBDAEBQEAU__crt_locale_pointers@@AEBQEAD@?$standard_base@DV?$string_output_adapter@D@__crt_stdio_output@@@__crt_stdio_output@@IEAA@AEBV?$string_output_adapter@D@1@AEB_KAEBQEBDAEBQEAU__crt_locale_pointers@@AEBQEAD@Z 0000000180053be0 f i libucrtd:output.obj
 0001:00052c50       ??$?0AEBV?$string_output_adapter@_W@__crt_stdio_output@@AEB_KAEBQEB_WAEBQEAU__crt_locale_pointers@@AEBQEAD@?$format_validation_base@_WV?$string_output_adapter@_W@__crt_stdio_output@@@__crt_stdio_output@@IEAA@AEBV?$string_output_adapter@_W@1@AEB_KAEBQEB_WAEBQEAU__crt_locale_pointers@@AEBQEAD@Z 0000000180053c50 f i libucrtd:output.obj
 0001:00052ca0       ??$?0AEBV?$string_output_adapter@_W@__crt_stdio_output@@AEB_KAEBQEB_WAEBQEAU__crt_locale_pointers@@AEBQEAD@?$positional_parameter_base@_WV?$string_output_adapter@_W@__crt_stdio_output@@@__crt_stdio_output@@IEAA@AEBV?$string_output_adapter@_W@1@AEB_KAEBQEB_WAEBQEAU__crt_locale_pointers@@AEBQEAD@Z 0000000180053ca0 f i libucrtd:output.obj
 0001:00052d40       ??$?0AEBV?$string_output_adapter@_W@__crt_stdio_output@@AEB_KAEBQEB_WAEBQEAU__crt_locale_pointers@@AEBQEAD@?$standard_base@_WV?$string_output_adapter@_W@__crt_stdio_output@@@__crt_stdio_output@@IEAA@AEBV?$string_output_adapter@_W@1@AEB_KAEBQEB_WAEBQEAU__crt_locale_pointers@@AEBQEAD@Z 0000000180053d40 f i libucrtd:output.obj
 0001:00053170       ??$__crt_interlocked_read@J@@YAJPEDJ@Z 0000000180054170 f i libucrtd:output.obj
 0001:00056c50       ??$count@D@formatting_buffer@__crt_stdio_output@@QEBA_KXZ 0000000180057c50 f i libucrtd:output.obj
 0001:00056ca0       ??$count@_W@formatting_buffer@__crt_stdio_output@@QEBA_KXZ 0000000180057ca0 f i libucrtd:output.obj
 0001:00056cf0       ??$data@D@formatting_buffer@__crt_stdio_output@@QEAAPEADXZ 0000000180057cf0 f i libucrtd:output.obj
 0001:00056d40       ??$data@_W@formatting_buffer@__crt_stdio_output@@QEAAPEA_WXZ 0000000180057d40 f i libucrtd:output.obj
 0001:00056d90       ??$ensure_buffer_is_big_enough@D@formatting_buffer@__crt_stdio_output@@QEAA_N_K@Z 0000000180057d90 f i libucrtd:output.obj
 0001:00056ec0       ??$ensure_buffer_is_big_enough@_W@formatting_buffer@__crt_stdio_output@@QEAA_N_K@Z 0000000180057ec0 f i libucrtd:output.obj
 0001:00056ff0       ??$extract_argument_from_va_list@C_J@?$positional_parameter_base@DV?$stream_output_adapter@D@__crt_stdio_output@@@__crt_stdio_output@@IEAA_NAEA_J@Z 0000000180057ff0 f i libucrtd:output.obj
 0001:00057170       ??$extract_argument_from_va_list@C_J@?$positional_parameter_base@DV?$string_output_adapter@D@__crt_stdio_output@@@__crt_stdio_output@@IEAA_NAEA_J@Z 0000000180058170 f i libucrtd:output.obj
 0001:000572f0       ??$extract_argument_from_va_list@C_J@?$positional_parameter_base@_WV?$stream_output_adapter@_W@__crt_stdio_output@@@__crt_stdio_output@@IEAA_NAEA_J@Z 00000001800582f0 f i libucrtd:output.obj
 0001:00057470       ??$extract_argument_from_va_list@C_J@?$positional_parameter_base@_WV?$string_output_adapter@_W@__crt_stdio_output@@@__crt_stdio_output@@IEAA_NAEA_J@Z 0000000180058470 f i libucrtd:output.obj
 0001:000575f0       ??$extract_argument_from_va_list@C_J@?$standard_base@DV?$stream_output_adapter@D@__crt_stdio_output@@@__crt_stdio_output@@IEAA_NAEA_J@Z 00000001800585f0 f i libucrtd:output.obj
 0001:00057630       ??$extract_argument_from_va_list@C_J@?$standard_base@DV?$string_output_adapter@D@__crt_stdio_output@@@__crt_stdio_output@@IEAA_NAEA_J@Z 0000000180058630 f i libucrtd:output.obj
 0001:00057670       ??$extract_argument_from_va_list@C_J@?$standard_base@_WV?$stream_output_adapter@_W@__crt_stdio_output@@@__crt_stdio_output@@IEAA_NAEA_J@Z 0000000180058670 f i libucrtd:output.obj
 0001:000576b0       ??$extract_argument_from_va_list@C_J@?$standard_base@_WV?$string_output_adapter@_W@__crt_stdio_output@@@__crt_stdio_output@@IEAA_NAEA_J@Z 00000001800586b0 f i libucrtd:output.obj
 0001:000576f0       ??$extract_argument_from_va_list@E_J@?$positional_parameter_base@DV?$stream_output_adapter@D@__crt_stdio_output@@@__crt_stdio_output@@IEAA_NAEA_J@Z 00000001800586f0 f i libucrtd:output.obj
 0001:00057870       ??$extract_argument_from_va_list@E_J@?$positional_parameter_base@DV?$string_output_adapter@D@__crt_stdio_output@@@__crt_stdio_output@@IEAA_NAEA_J@Z 0000000180058870 f i libucrtd:output.obj
 0001:000579f0       ??$extract_argument_from_va_list@E_J@?$positional_parameter_base@_WV?$stream_output_adapter@_W@__crt_stdio_output@@@__crt_stdio_output@@IEAA_NAEA_J@Z 00000001800589f0 f i libucrtd:output.obj
 0001:00057b70       ??$extract_argument_from_va_list@E_J@?$positional_parameter_base@_WV?$string_output_adapter@_W@__crt_stdio_output@@@__crt_stdio_output@@IEAA_NAEA_J@Z 0000000180058b70 f i libucrtd:output.obj
 0001:00057cf0       ??$extract_argument_from_va_list@E_J@?$standard_base@DV?$stream_output_adapter@D@__crt_stdio_output@@@__crt_stdio_output@@IEAA_NAEA_J@Z 0000000180058cf0 f i libucrtd:output.obj
 0001:00057d30       ??$extract_argument_from_va_list@E_J@?$standard_base@DV?$string_output_adapter@D@__crt_stdio_output@@@__crt_stdio_output@@IEAA_NAEA_J@Z 0000000180058d30 f i libucrtd:output.obj
 0001:00057d70       ??$extract_argument_from_va_list@E_J@?$standard_base@_WV?$stream_output_adapter@_W@__crt_stdio_output@@@__crt_stdio_output@@IEAA_NAEA_J@Z 0000000180058d70 f i libucrtd:output.obj
 0001:00057db0       ??$extract_argument_from_va_list@E_J@?$standard_base@_WV?$string_output_adapter@_W@__crt_stdio_output@@@__crt_stdio_output@@IEAA_NAEA_J@Z 0000000180058db0 f i libucrtd:output.obj
 0001:00057df0       ??$extract_argument_from_va_list@F_J@?$positional_parameter_base@DV?$stream_output_adapter@D@__crt_stdio_output@@@__crt_stdio_output@@IEAA_NAEA_J@Z 0000000180058df0 f i libucrtd:output.obj
 0001:00057f70       ??$extract_argument_from_va_list@F_J@?$positional_parameter_base@DV?$string_output_adapter@D@__crt_stdio_output@@@__crt_stdio_output@@IEAA_NAEA_J@Z 0000000180058f70 f i libucrtd:output.obj
 0001:000580f0       ??$extract_argument_from_va_list@F_J@?$positional_parameter_base@_WV?$stream_output_adapter@_W@__crt_stdio_output@@@__crt_stdio_output@@IEAA_NAEA_J@Z 00000001800590f0 f i libucrtd:output.obj
 0001:00058270       ??$extract_argument_from_va_list@F_J@?$positional_parameter_base@_WV?$string_output_adapter@_W@__crt_stdio_output@@@__crt_stdio_output@@IEAA_NAEA_J@Z 0000000180059270 f i libucrtd:output.obj
 0001:000583f0       ??$extract_argument_from_va_list@F_J@?$standard_base@DV?$stream_output_adapter@D@__crt_stdio_output@@@__crt_stdio_output@@IEAA_NAEA_J@Z 00000001800593f0 f i libucrtd:output.obj
 0001:00058430       ??$extract_argument_from_va_list@F_J@?$standard_base@DV?$string_output_adapter@D@__crt_stdio_output@@@__crt_stdio_output@@IEAA_NAEA_J@Z 0000000180059430 f i libucrtd:output.obj
 0001:00058470       ??$extract_argument_from_va_list@F_J@?$standard_base@_WV?$stream_output_adapter@_W@__crt_stdio_output@@@__crt_stdio_output@@IEAA_NAEA_J@Z 0000000180059470 f i libucrtd:output.obj
 0001:000584b0       ??$extract_argument_from_va_list@F_J@?$standard_base@_WV?$string_output_adapter@_W@__crt_stdio_output@@@__crt_stdio_output@@IEAA_NAEA_J@Z 00000001800594b0 f i libucrtd:output.obj
 0001:000584f0       ??$extract_argument_from_va_list@GD@?$positional_parameter_base@DV?$stream_output_adapter@D@__crt_stdio_output@@@__crt_stdio_output@@IEAA_NAEAD@Z 00000001800594f0 f i libucrtd:output.obj
 0001:00058670       ??$extract_argument_from_va_list@GD@?$positional_parameter_base@DV?$string_output_adapter@D@__crt_stdio_output@@@__crt_stdio_output@@IEAA_NAEAD@Z 0000000180059670 f i libucrtd:output.obj
 0001:000587f0       ??$extract_argument_from_va_list@GD@?$standard_base@DV?$stream_output_adapter@D@__crt_stdio_output@@@__crt_stdio_output@@IEAA_NAEAD@Z 00000001800597f0 f i libucrtd:output.obj
 0001:00058820       ??$extract_argument_from_va_list@GD@?$standard_base@DV?$string_output_adapter@D@__crt_stdio_output@@@__crt_stdio_output@@IEAA_NAEAD@Z 0000000180059820 f i libucrtd:output.obj
 0001:00058850       ??$extract_argument_from_va_list@G_J@?$positional_parameter_base@DV?$stream_output_adapter@D@__crt_stdio_output@@@__crt_stdio_output@@IEAA_NAEA_J@Z 0000000180059850 f i libucrtd:output.obj
 0001:000589d0       ??$extract_argument_from_va_list@G_J@?$positional_parameter_base@DV?$string_output_adapter@D@__crt_stdio_output@@@__crt_stdio_output@@IEAA_NAEA_J@Z 00000001800599d0 f i libucrtd:output.obj
 0001:00058b50       ??$extract_argument_from_va_list@G_J@?$positional_parameter_base@_WV?$stream_output_adapter@_W@__crt_stdio_output@@@__crt_stdio_output@@IEAA_NAEA_J@Z 0000000180059b50 f i libucrtd:output.obj
 0001:00058cd0       ??$extract_argument_from_va_list@G_J@?$positional_parameter_base@_WV?$string_output_adapter@_W@__crt_stdio_output@@@__crt_stdio_output@@IEAA_NAEA_J@Z 0000000180059cd0 f i libucrtd:output.obj
 0001:00058e50       ??$extract_argument_from_va_list@G_J@?$standard_base@DV?$stream_output_adapter@D@__crt_stdio_output@@@__crt_stdio_output@@IEAA_NAEA_J@Z 0000000180059e50 f i libucrtd:output.obj
 0001:00058e90       ??$extract_argument_from_va_list@G_J@?$standard_base@DV?$string_output_adapter@D@__crt_stdio_output@@@__crt_stdio_output@@IEAA_NAEA_J@Z 0000000180059e90 f i libucrtd:output.obj
 0001:00058ed0       ??$extract_argument_from_va_list@G_J@?$standard_base@_WV?$stream_output_adapter@_W@__crt_stdio_output@@@__crt_stdio_output@@IEAA_NAEA_J@Z 0000000180059ed0 f i libucrtd:output.obj
 0001:00058f10       ??$extract_argument_from_va_list@G_J@?$standard_base@_WV?$string_output_adapter@_W@__crt_stdio_output@@@__crt_stdio_output@@IEAA_NAEA_J@Z 0000000180059f10 f i libucrtd:output.obj
 0001:00058f50       ??$extract_argument_from_va_list@H_J@?$positional_parameter_base@DV?$stream_output_adapter@D@__crt_stdio_output@@@__crt_stdio_output@@IEAA_NAEA_J@Z 0000000180059f50 f i libucrtd:output.obj
 0001:000590d0       ??$extract_argument_from_va_list@H_J@?$positional_parameter_base@DV?$string_output_adapter@D@__crt_stdio_output@@@__crt_stdio_output@@IEAA_NAEA_J@Z 000000018005a0d0 f i libucrtd:output.obj
 0001:00059250       ??$extract_argument_from_va_list@H_J@?$positional_parameter_base@_WV?$stream_output_adapter@_W@__crt_stdio_output@@@__crt_stdio_output@@IEAA_NAEA_J@Z 000000018005a250 f i libucrtd:output.obj
 0001:000593d0       ??$extract_argument_from_va_list@H_J@?$positional_parameter_base@_WV?$string_output_adapter@_W@__crt_stdio_output@@@__crt_stdio_output@@IEAA_NAEA_J@Z 000000018005a3d0 f i libucrtd:output.obj
 0001:00059550       ??$extract_argument_from_va_list@H_J@?$standard_base@DV?$stream_output_adapter@D@__crt_stdio_output@@@__crt_stdio_output@@IEAA_NAEA_J@Z 000000018005a550 f i libucrtd:output.obj
 0001:00059580       ??$extract_argument_from_va_list@H_J@?$standard_base@DV?$string_output_adapter@D@__crt_stdio_output@@@__crt_stdio_output@@IEAA_NAEA_J@Z 000000018005a580 f i libucrtd:output.obj
 0001:000595b0       ??$extract_argument_from_va_list@H_J@?$standard_base@_WV?$stream_output_adapter@_W@__crt_stdio_output@@@__crt_stdio_output@@IEAA_NAEA_J@Z 000000018005a5b0 f i libucrtd:output.obj
 0001:000595e0       ??$extract_argument_from_va_list@H_J@?$standard_base@_WV?$string_output_adapter@_W@__crt_stdio_output@@@__crt_stdio_output@@IEAA_NAEA_J@Z 000000018005a5e0 f i libucrtd:output.obj
 0001:00059610       ??$extract_argument_from_va_list@I_J@?$positional_parameter_base@DV?$stream_output_adapter@D@__crt_stdio_output@@@__crt_stdio_output@@IEAA_NAEA_J@Z 000000018005a610 f i libucrtd:output.obj
 0001:00059790       ??$extract_argument_from_va_list@I_J@?$positional_parameter_base@DV?$string_output_adapter@D@__crt_stdio_output@@@__crt_stdio_output@@IEAA_NAEA_J@Z 000000018005a790 f i libucrtd:output.obj
 0001:00059910       ??$extract_argument_from_va_list@I_J@?$positional_parameter_base@_WV?$stream_output_adapter@_W@__crt_stdio_output@@@__crt_stdio_output@@IEAA_NAEA_J@Z 000000018005a910 f i libucrtd:output.obj
 0001:00059a90       ??$extract_argument_from_va_list@I_J@?$positional_parameter_base@_WV?$string_output_adapter@_W@__crt_stdio_output@@@__crt_stdio_output@@IEAA_NAEA_J@Z 000000018005aa90 f i libucrtd:output.obj
 0001:00059c10       ??$extract_argument_from_va_list@I_J@?$standard_base@DV?$stream_output_adapter@D@__crt_stdio_output@@@__crt_stdio_output@@IEAA_NAEA_J@Z 000000018005ac10 f i libucrtd:output.obj
 0001:00059c40       ??$extract_argument_from_va_list@I_J@?$standard_base@DV?$string_output_adapter@D@__crt_stdio_output@@@__crt_stdio_output@@IEAA_NAEA_J@Z 000000018005ac40 f i libucrtd:output.obj
 0001:00059c70       ??$extract_argument_from_va_list@I_J@?$standard_base@_WV?$stream_output_adapter@_W@__crt_stdio_output@@@__crt_stdio_output@@IEAA_NAEA_J@Z 000000018005ac70 f i libucrtd:output.obj
 0001:00059ca0       ??$extract_argument_from_va_list@I_J@?$standard_base@_WV?$string_output_adapter@_W@__crt_stdio_output@@@__crt_stdio_output@@IEAA_NAEA_J@Z 000000018005aca0 f i libucrtd:output.obj
 0001:00059cd0       ??$extract_argument_from_va_list@PEADPEAD@?$positional_parameter_base@DV?$stream_output_adapter@D@__crt_stdio_output@@@__crt_stdio_output@@IEAA_NAEAPEAD@Z 000000018005acd0 f i libucrtd:output.obj
 0001:00059e50       ??$extract_argument_from_va_list@PEADPEAD@?$positional_parameter_base@DV?$string_output_adapter@D@__crt_stdio_output@@@__crt_stdio_output@@IEAA_NAEAPEAD@Z 000000018005ae50 f i libucrtd:output.obj
 0001:00059fd0       ??$extract_argument_from_va_list@PEADPEAD@?$positional_parameter_base@_WV?$stream_output_adapter@_W@__crt_stdio_output@@@__crt_stdio_output@@IEAA_NAEAPEAD@Z 000000018005afd0 f i libucrtd:output.obj
 0001:0005a150       ??$extract_argument_from_va_list@PEADPEAD@?$positional_parameter_base@_WV?$string_output_adapter@_W@__crt_stdio_output@@@__crt_stdio_output@@IEAA_NAEAPEAD@Z 000000018005b150 f i libucrtd:output.obj
 0001:0005a2d0       ??$extract_argument_from_va_list@PEADPEAD@?$standard_base@DV?$stream_output_adapter@D@__crt_stdio_output@@@__crt_stdio_output@@IEAA_NAEAPEAD@Z 000000018005b2d0 f i libucrtd:output.obj
 0001:0005a300       ??$extract_argument_from_va_list@PEADPEAD@?$standard_base@DV?$string_output_adapter@D@__crt_stdio_output@@@__crt_stdio_output@@IEAA_NAEAPEAD@Z 000000018005b300 f i libucrtd:output.obj
 0001:0005a330       ??$extract_argument_from_va_list@PEADPEAD@?$standard_base@_WV?$stream_output_adapter@_W@__crt_stdio_output@@@__crt_stdio_output@@IEAA_NAEAPEAD@Z 000000018005b330 f i libucrtd:output.obj
 0001:0005a360       ??$extract_argument_from_va_list@PEADPEAD@?$standard_base@_WV?$string_output_adapter@_W@__crt_stdio_output@@@__crt_stdio_output@@IEAA_NAEAPEAD@Z 000000018005b360 f i libucrtd:output.obj
 0001:0005a390       ??$extract_argument_from_va_list@PEAUansi_string@?1??type_case_Z@?$output_processor@DV?$stream_output_adapter@D@__crt_stdio_output@@V?$format_validation_base@DV?$stream_output_adapter@D@__crt_stdio_output@@@2@@__crt_stdio_output@@AEAA_NXZ@PEAU1?1??234@AEAA_NXZ@@?$standard_base@DV?$stream_output_adapter@D@__crt_stdio_output@@@__crt_stdio_output@@IEAA_NAEAPEAUansi_string@?1??type_case_Z@?$output_processor@DV?$stream_output_adapter@D@__crt_stdio_output@@V?$format_validation_base@DV?$stream_output_adapter@D@__crt_stdio_output@@@2@@1@AEAA_NXZ@@Z 000000018005b390 f i libucrtd:output.obj
 0001:0005a3c0       ??$extract_argument_from_va_list@PEAUansi_string@?1??type_case_Z@?$output_processor@DV?$stream_output_adapter@D@__crt_stdio_output@@V?$positional_parameter_base@DV?$stream_output_adapter@D@__crt_stdio_output@@@2@@__crt_stdio_output@@AEAA_NXZ@PEAU1?1??234@AEAA_NXZ@@?$positional_parameter_base@DV?$stream_output_adapter@D@__crt_stdio_output@@@__crt_stdio_output@@IEAA_NAEAPEAUansi_string@?1??type_case_Z@?$output_processor@DV?$stream_output_adapter@D@__crt_stdio_output@@V?$positional_parameter_base@DV?$stream_output_adapter@D@__crt_stdio_output@@@2@@1@AEAA_NXZ@@Z 000000018005b3c0 f i libucrtd:output.obj
 0001:0005a540       ??$extract_argument_from_va_list@PEAUansi_string@?1??type_case_Z@?$output_processor@DV?$stream_output_adapter@D@__crt_stdio_output@@V?$positional_parameter_base@DV?$stream_output_adapter@D@__crt_stdio_output@@@2@@__crt_stdio_output@@AEAA_NXZ@PEAU1?1??234@AEAA_NXZ@@?$standard_base@DV?$stream_output_adapter@D@__crt_stdio_output@@@__crt_stdio_output@@IEAA_NAEAPEAUansi_string@?1??type_case_Z@?$output_processor@DV?$stream_output_adapter@D@__crt_stdio_output@@V?$positional_parameter_base@DV?$stream_output_adapter@D@__crt_stdio_output@@@2@@1@AEAA_NXZ@@Z 000000018005b540 f i libucrtd:output.obj
 0001:0005a570       ??$extract_argument_from_va_list@PEAUansi_string@?1??type_case_Z@?$output_processor@DV?$stream_output_adapter@D@__crt_stdio_output@@V?$standard_base@DV?$stream_output_adapter@D@__crt_stdio_output@@@2@@__crt_stdio_output@@AEAA_NXZ@PEAU1?1??234@AEAA_NXZ@@?$standard_base@DV?$stream_output_adapter@D@__crt_stdio_output@@@__crt_stdio_output@@IEAA_NAEAPEAUansi_string@?1??type_case_Z@?$output_processor@DV?$stream_output_adapter@D@__crt_stdio_output@@V?$standard_base@DV?$stream_output_adapter@D@__crt_stdio_output@@@2@@1@AEAA_NXZ@@Z 000000018005b570 f i libucrtd:output.obj
 0001:0005a5a0       ??$extract_argument_from_va_list@PEAUansi_string@?1??type_case_Z@?$output_processor@DV?$string_output_adapter@D@__crt_stdio_output@@V?$format_validation_base@DV?$string_output_adapter@D@__crt_stdio_output@@@2@@__crt_stdio_output@@AEAA_NXZ@PEAU1?1??234@AEAA_NXZ@@?$standard_base@DV?$string_output_adapter@D@__crt_stdio_output@@@__crt_stdio_output@@IEAA_NAEAPEAUansi_string@?1??type_case_Z@?$output_processor@DV?$string_output_adapter@D@__crt_stdio_output@@V?$format_validation_base@DV?$string_output_adapter@D@__crt_stdio_output@@@2@@1@AEAA_NXZ@@Z 000000018005b5a0 f i libucrtd:output.obj
 0001:0005a5d0       ??$extract_argument_from_va_list@PEAUansi_string@?1??type_case_Z@?$output_processor@DV?$string_output_adapter@D@__crt_stdio_output@@V?$positional_parameter_base@DV?$string_output_adapter@D@__crt_stdio_output@@@2@@__crt_stdio_output@@AEAA_NXZ@PEAU1?1??234@AEAA_NXZ@@?$positional_parameter_base@DV?$string_output_adapter@D@__crt_stdio_output@@@__crt_stdio_output@@IEAA_NAEAPEAUansi_string@?1??type_case_Z@?$output_processor@DV?$string_output_adapter@D@__crt_stdio_output@@V?$positional_parameter_base@DV?$string_output_adapter@D@__crt_stdio_output@@@2@@1@AEAA_NXZ@@Z 000000018005b5d0 f i libucrtd:output.obj
 0001:0005a750       ??$extract_argument_from_va_list@PEAUansi_string@?1??type_case_Z@?$output_processor@DV?$string_output_adapter@D@__crt_stdio_output@@V?$positional_parameter_base@DV?$string_output_adapter@D@__crt_stdio_output@@@2@@__crt_stdio_output@@AEAA_NXZ@PEAU1?1??234@AEAA_NXZ@@?$standard_base@DV?$string_output_adapter@D@__crt_stdio_output@@@__crt_stdio_output@@IEAA_NAEAPEAUansi_string@?1??type_case_Z@?$output_processor@DV?$string_output_adapter@D@__crt_stdio_output@@V?$positional_parameter_base@DV?$string_output_adapter@D@__crt_stdio_output@@@2@@1@AEAA_NXZ@@Z 000000018005b750 f i libucrtd:output.obj
 0001:0005a780       ??$extract_argument_from_va_list@PEAUansi_string@?1??type_case_Z@?$output_processor@DV?$string_output_adapter@D@__crt_stdio_output@@V?$standard_base@DV?$string_output_adapter@D@__crt_stdio_output@@@2@@__crt_stdio_output@@AEAA_NXZ@PEAU1?1??234@AEAA_NXZ@@?$standard_base@DV?$string_output_adapter@D@__crt_stdio_output@@@__crt_stdio_output@@IEAA_NAEAPEAUansi_string@?1??type_case_Z@?$output_processor@DV?$string_output_adapter@D@__crt_stdio_output@@V?$standard_base@DV?$string_output_adapter@D@__crt_stdio_output@@@2@@1@AEAA_NXZ@@Z 000000018005b780 f i libucrtd:output.obj
 0001:0005a7b0       ??$extract_argument_from_va_list@PEAUansi_string@?1??type_case_Z@?$output_processor@_WV?$stream_output_adapter@_W@__crt_stdio_output@@V?$format_validation_base@_WV?$stream_output_adapter@_W@__crt_stdio_output@@@2@@__crt_stdio_output@@AEAA_NXZ@PEAU1?1??234@AEAA_NXZ@@?$standard_base@_WV?$stream_output_adapter@_W@__crt_stdio_output@@@__crt_stdio_output@@IEAA_NAEAPEAUansi_string@?1??type_case_Z@?$output_processor@_WV?$stream_output_adapter@_W@__crt_stdio_output@@V?$format_validation_base@_WV?$stream_output_adapter@_W@__crt_stdio_output@@@2@@1@AEAA_NXZ@@Z 000000018005b7b0 f i libucrtd:output.obj
 0001:0005a7e0       ??$extract_argument_from_va_list@PEAUansi_string@?1??type_case_Z@?$output_processor@_WV?$stream_output_adapter@_W@__crt_stdio_output@@V?$positional_parameter_base@_WV?$stream_output_adapter@_W@__crt_stdio_output@@@2@@__crt_stdio_output@@AEAA_NXZ@PEAU1?1??234@AEAA_NXZ@@?$positional_parameter_base@_WV?$stream_output_adapter@_W@__crt_stdio_output@@@__crt_stdio_output@@IEAA_NAEAPEAUansi_string@?1??type_case_Z@?$output_processor@_WV?$stream_output_adapter@_W@__crt_stdio_output@@V?$positional_parameter_base@_WV?$stream_output_adapter@_W@__crt_stdio_output@@@2@@1@AEAA_NXZ@@Z 000000018005b7e0 f i libucrtd:output.obj
 0001:0005a960       ??$extract_argument_from_va_list@PEAUansi_string@?1??type_case_Z@?$output_processor@_WV?$stream_output_adapter@_W@__crt_stdio_output@@V?$positional_parameter_base@_WV?$stream_output_adapter@_W@__crt_stdio_output@@@2@@__crt_stdio_output@@AEAA_NXZ@PEAU1?1??234@AEAA_NXZ@@?$standard_base@_WV?$stream_output_adapter@_W@__crt_stdio_output@@@__crt_stdio_output@@IEAA_NAEAPEAUansi_string@?1??type_case_Z@?$output_processor@_WV?$stream_output_adapter@_W@__crt_stdio_output@@V?$positional_parameter_base@_WV?$stream_output_adapter@_W@__crt_stdio_output@@@2@@1@AEAA_NXZ@@Z 000000018005b960 f i libucrtd:output.obj
 0001:0005a990       ??$extract_argument_from_va_list@PEAUansi_string@?1??type_case_Z@?$output_processor@_WV?$stream_output_adapter@_W@__crt_stdio_output@@V?$standard_base@_WV?$stream_output_adapter@_W@__crt_stdio_output@@@2@@__crt_stdio_output@@AEAA_NXZ@PEAU1?1??234@AEAA_NXZ@@?$standard_base@_WV?$stream_output_adapter@_W@__crt_stdio_output@@@__crt_stdio_output@@IEAA_NAEAPEAUansi_string@?1??type_case_Z@?$output_processor@_WV?$stream_output_adapter@_W@__crt_stdio_output@@V?$standard_base@_WV?$stream_output_adapter@_W@__crt_stdio_output@@@2@@1@AEAA_NXZ@@Z 000000018005b990 f i libucrtd:output.obj
 0001:0005a9c0       ??$extract_argument_from_va_list@PEAUansi_string@?1??type_case_Z@?$output_processor@_WV?$string_output_adapter@_W@__crt_stdio_output@@V?$format_validation_base@_WV?$string_output_adapter@_W@__crt_stdio_output@@@2@@__crt_stdio_output@@AEAA_NXZ@PEAU1?1??234@AEAA_NXZ@@?$standard_base@_WV?$string_output_adapter@_W@__crt_stdio_output@@@__crt_stdio_output@@IEAA_NAEAPEAUansi_string@?1??type_case_Z@?$output_processor@_WV?$string_output_adapter@_W@__crt_stdio_output@@V?$format_validation_base@_WV?$string_output_adapter@_W@__crt_stdio_output@@@2@@1@AEAA_NXZ@@Z 000000018005b9c0 f i libucrtd:output.obj
 0001:0005a9f0       ??$extract_argument_from_va_list@PEAUansi_string@?1??type_case_Z@?$output_processor@_WV?$string_output_adapter@_W@__crt_stdio_output@@V?$positional_parameter_base@_WV?$string_output_adapter@_W@__crt_stdio_output@@@2@@__crt_stdio_output@@AEAA_NXZ@PEAU1?1??234@AEAA_NXZ@@?$positional_parameter_base@_WV?$string_output_adapter@_W@__crt_stdio_output@@@__crt_stdio_output@@IEAA_NAEAPEAUansi_string@?1??type_case_Z@?$output_processor@_WV?$string_output_adapter@_W@__crt_stdio_output@@V?$positional_parameter_base@_WV?$string_output_adapter@_W@__crt_stdio_output@@@2@@1@AEAA_NXZ@@Z 000000018005b9f0 f i libucrtd:output.obj
 0001:0005ab70       ??$extract_argument_from_va_list@PEAUansi_string@?1??type_case_Z@?$output_processor@_WV?$string_output_adapter@_W@__crt_stdio_output@@V?$positional_parameter_base@_WV?$string_output_adapter@_W@__crt_stdio_output@@@2@@__crt_stdio_output@@AEAA_NXZ@PEAU1?1??234@AEAA_NXZ@@?$standard_base@_WV?$string_output_adapter@_W@__crt_stdio_output@@@__crt_stdio_output@@IEAA_NAEAPEAUansi_string@?1??type_case_Z@?$output_processor@_WV?$string_output_adapter@_W@__crt_stdio_output@@V?$positional_parameter_base@_WV?$string_output_adapter@_W@__crt_stdio_output@@@2@@1@AEAA_NXZ@@Z 000000018005bb70 f i libucrtd:output.obj
 0001:0005aba0       ??$extract_argument_from_va_list@PEAUansi_string@?1??type_case_Z@?$output_processor@_WV?$string_output_adapter@_W@__crt_stdio_output@@V?$standard_base@_WV?$string_output_adapter@_W@__crt_stdio_output@@@2@@__crt_stdio_output@@AEAA_NXZ@PEAU1?1??234@AEAA_NXZ@@?$standard_base@_WV?$string_output_adapter@_W@__crt_stdio_output@@@__crt_stdio_output@@IEAA_NAEAPEAUansi_string@?1??type_case_Z@?$output_processor@_WV?$string_output_adapter@_W@__crt_stdio_output@@V?$standard_base@_WV?$string_output_adapter@_W@__crt_stdio_output@@@2@@1@AEAA_NXZ@@Z 000000018005bba0 f i libucrtd:output.obj
 0001:0005abd0       ??$extract_argument_from_va_list@PEAXPEAX@?$positional_parameter_base@DV?$stream_output_adapter@D@__crt_stdio_output@@@__crt_stdio_output@@IEAA_NAEAPEAX@Z 000000018005bbd0 f i libucrtd:output.obj
 0001:0005ad50       ??$extract_argument_from_va_list@PEAXPEAX@?$positional_parameter_base@DV?$string_output_adapter@D@__crt_stdio_output@@@__crt_stdio_output@@IEAA_NAEAPEAX@Z 000000018005bd50 f i libucrtd:output.obj
 0001:0005aed0       ??$extract_argument_from_va_list@PEAXPEAX@?$positional_parameter_base@_WV?$stream_output_adapter@_W@__crt_stdio_output@@@__crt_stdio_output@@IEAA_NAEAPEAX@Z 000000018005bed0 f i libucrtd:output.obj
 0001:0005b050       ??$extract_argument_from_va_list@PEAXPEAX@?$positional_parameter_base@_WV?$string_output_adapter@_W@__crt_stdio_output@@@__crt_stdio_output@@IEAA_NAEAPEAX@Z 000000018005c050 f i libucrtd:output.obj
 0001:0005b1d0       ??$extract_argument_from_va_list@PEAXPEAX@?$standard_base@DV?$stream_output_adapter@D@__crt_stdio_output@@@__crt_stdio_output@@IEAA_NAEAPEAX@Z 000000018005c1d0 f i libucrtd:output.obj
 0001:0005b200       ??$extract_argument_from_va_list@PEAXPEAX@?$standard_base@DV?$string_output_adapter@D@__crt_stdio_output@@@__crt_stdio_output@@IEAA_NAEAPEAX@Z 000000018005c200 f i libucrtd:output.obj
 0001:0005b230       ??$extract_argument_from_va_list@PEAXPEAX@?$standard_base@_WV?$stream_output_adapter@_W@__crt_stdio_output@@@__crt_stdio_output@@IEAA_NAEAPEAX@Z 000000018005c230 f i libucrtd:output.obj
 0001:0005b260       ??$extract_argument_from_va_list@PEAXPEAX@?$standard_base@_WV?$string_output_adapter@_W@__crt_stdio_output@@@__crt_stdio_output@@IEAA_NAEAPEAX@Z 000000018005c260 f i libucrtd:output.obj
 0001:0005b290       ??$extract_argument_from_va_list@U_CRT_DOUBLE@@U1@@?$positional_parameter_base@DV?$stream_output_adapter@D@__crt_stdio_output@@@__crt_stdio_output@@IEAA_NAEAU_CRT_DOUBLE@@@Z 000000018005c290 f i libucrtd:output.obj
 0001:0005b430       ??$extract_argument_from_va_list@U_CRT_DOUBLE@@U1@@?$positional_parameter_base@DV?$string_output_adapter@D@__crt_stdio_output@@@__crt_stdio_output@@IEAA_NAEAU_CRT_DOUBLE@@@Z 000000018005c430 f i libucrtd:output.obj
 0001:0005b5d0       ??$extract_argument_from_va_list@U_CRT_DOUBLE@@U1@@?$positional_parameter_base@_WV?$stream_output_adapter@_W@__crt_stdio_output@@@__crt_stdio_output@@IEAA_NAEAU_CRT_DOUBLE@@@Z 000000018005c5d0 f i libucrtd:output.obj
 0001:0005b770       ??$extract_argument_from_va_list@U_CRT_DOUBLE@@U1@@?$positional_parameter_base@_WV?$string_output_adapter@_W@__crt_stdio_output@@@__crt_stdio_output@@IEAA_NAEAU_CRT_DOUBLE@@@Z 000000018005c770 f i libucrtd:output.obj
 0001:0005b910       ??$extract_argument_from_va_list@U_CRT_DOUBLE@@U1@@?$standard_base@DV?$stream_output_adapter@D@__crt_stdio_output@@@__crt_stdio_output@@IEAA_NAEAU_CRT_DOUBLE@@@Z 000000018005c910 f i libucrtd:output.obj
 0001:0005b960       ??$extract_argument_from_va_list@U_CRT_DOUBLE@@U1@@?$standard_base@DV?$string_output_adapter@D@__crt_stdio_output@@@__crt_stdio_output@@IEAA_NAEAU_CRT_DOUBLE@@@Z 000000018005c960 f i libucrtd:output.obj
 0001:0005b9b0       ??$extract_argument_from_va_list@U_CRT_DOUBLE@@U1@@?$standard_base@_WV?$stream_output_adapter@_W@__crt_stdio_output@@@__crt_stdio_output@@IEAA_NAEAU_CRT_DOUBLE@@@Z 000000018005c9b0 f i libucrtd:output.obj
 0001:0005ba00       ??$extract_argument_from_va_list@U_CRT_DOUBLE@@U1@@?$standard_base@_WV?$string_output_adapter@_W@__crt_stdio_output@@@__crt_stdio_output@@IEAA_NAEAU_CRT_DOUBLE@@@Z 000000018005ca00 f i libucrtd:output.obj
 0001:0005ba50       ??$extract_argument_from_va_list@_J_J@?$positional_parameter_base@DV?$stream_output_adapter@D@__crt_stdio_output@@@__crt_stdio_output@@IEAA_NAEA_J@Z 000000018005ca50 f i libucrtd:output.obj
 0001:0005bbd0       ??$extract_argument_from_va_list@_J_J@?$positional_parameter_base@DV?$string_output_adapter@D@__crt_stdio_output@@@__crt_stdio_output@@IEAA_NAEA_J@Z 000000018005cbd0 f i libucrtd:output.obj
 0001:0005bd50       ??$extract_argument_from_va_list@_J_J@?$positional_parameter_base@_WV?$stream_output_adapter@_W@__crt_stdio_output@@@__crt_stdio_output@@IEAA_NAEA_J@Z 000000018005cd50 f i libucrtd:output.obj
 0001:0005bed0       ??$extract_argument_from_va_list@_J_J@?$positional_parameter_base@_WV?$string_output_adapter@_W@__crt_stdio_output@@@__crt_stdio_output@@IEAA_NAEA_J@Z 000000018005ced0 f i libucrtd:output.obj
 0001:0005c050       ??$extract_argument_from_va_list@_J_J@?$standard_base@DV?$stream_output_adapter@D@__crt_stdio_output@@@__crt_stdio_output@@IEAA_NAEA_J@Z 000000018005d050 f i libucrtd:output.obj
 0001:0005c080       ??$extract_argument_from_va_list@_J_J@?$standard_base@DV?$string_output_adapter@D@__crt_stdio_output@@@__crt_stdio_output@@IEAA_NAEA_J@Z 000000018005d080 f i libucrtd:output.obj
 0001:0005c0b0       ??$extract_argument_from_va_list@_J_J@?$standard_base@_WV?$stream_output_adapter@_W@__crt_stdio_output@@@__crt_stdio_output@@IEAA_NAEA_J@Z 000000018005d0b0 f i libucrtd:output.obj
 0001:0005c0e0       ??$extract_argument_from_va_list@_J_J@?$standard_base@_WV?$string_output_adapter@_W@__crt_stdio_output@@@__crt_stdio_output@@IEAA_NAEA_J@Z 000000018005d0e0 f i libucrtd:output.obj
 0001:0005c110       ??$extract_argument_from_va_list@_K_J@?$positional_parameter_base@DV?$stream_output_adapter@D@__crt_stdio_output@@@__crt_stdio_output@@IEAA_NAEA_J@Z 000000018005d110 f i libucrtd:output.obj
 0001:0005c290       ??$extract_argument_from_va_list@_K_J@?$positional_parameter_base@DV?$string_output_adapter@D@__crt_stdio_output@@@__crt_stdio_output@@IEAA_NAEA_J@Z 000000018005d290 f i libucrtd:output.obj
 0001:0005c410       ??$extract_argument_from_va_list@_K_J@?$positional_parameter_base@_WV?$stream_output_adapter@_W@__crt_stdio_output@@@__crt_stdio_output@@IEAA_NAEA_J@Z 000000018005d410 f i libucrtd:output.obj
 0001:0005c590       ??$extract_argument_from_va_list@_K_J@?$positional_parameter_base@_WV?$string_output_adapter@_W@__crt_stdio_output@@@__crt_stdio_output@@IEAA_NAEA_J@Z 000000018005d590 f i libucrtd:output.obj
 0001:0005c710       ??$extract_argument_from_va_list@_K_J@?$standard_base@DV?$stream_output_adapter@D@__crt_stdio_output@@@__crt_stdio_output@@IEAA_NAEA_J@Z 000000018005d710 f i libucrtd:output.obj
 0001:0005c740       ??$extract_argument_from_va_list@_K_J@?$standard_base@DV?$string_output_adapter@D@__crt_stdio_output@@@__crt_stdio_output@@IEAA_NAEA_J@Z 000000018005d740 f i libucrtd:output.obj
 0001:0005c770       ??$extract_argument_from_va_list@_K_J@?$standard_base@_WV?$stream_output_adapter@_W@__crt_stdio_output@@@__crt_stdio_output@@IEAA_NAEA_J@Z 000000018005d770 f i libucrtd:output.obj
 0001:0005c7a0       ??$extract_argument_from_va_list@_K_J@?$standard_base@_WV?$string_output_adapter@_W@__crt_stdio_output@@@__crt_stdio_output@@IEAA_NAEA_J@Z 000000018005d7a0 f i libucrtd:output.obj
 0001:0005c7d0       ??$extract_argument_from_va_list@_W_W@?$positional_parameter_base@DV?$stream_output_adapter@D@__crt_stdio_output@@@__crt_stdio_output@@IEAA_NAEA_W@Z 000000018005d7d0 f i libucrtd:output.obj
 0001:0005c950       ??$extract_argument_from_va_list@_W_W@?$positional_parameter_base@DV?$string_output_adapter@D@__crt_stdio_output@@@__crt_stdio_output@@IEAA_NAEA_W@Z 000000018005d950 f i libucrtd:output.obj
 0001:0005cad0       ??$extract_argument_from_va_list@_W_W@?$positional_parameter_base@_WV?$stream_output_adapter@_W@__crt_stdio_output@@@__crt_stdio_output@@IEAA_NAEA_W@Z 000000018005dad0 f i libucrtd:output.obj
 0001:0005cc50       ??$extract_argument_from_va_list@_W_W@?$positional_parameter_base@_WV?$string_output_adapter@_W@__crt_stdio_output@@@__crt_stdio_output@@IEAA_NAEA_W@Z 000000018005dc50 f i libucrtd:output.obj
 0001:0005cdd0       ??$extract_argument_from_va_list@_W_W@?$standard_base@DV?$stream_output_adapter@D@__crt_stdio_output@@@__crt_stdio_output@@IEAA_NAEA_W@Z 000000018005ddd0 f i libucrtd:output.obj
 0001:0005ce00       ??$extract_argument_from_va_list@_W_W@?$standard_base@DV?$string_output_adapter@D@__crt_stdio_output@@@__crt_stdio_output@@IEAA_NAEA_W@Z 000000018005de00 f i libucrtd:output.obj
 0001:0005ce30       ??$extract_argument_from_va_list@_W_W@?$standard_base@_WV?$stream_output_adapter@_W@__crt_stdio_output@@@__crt_stdio_output@@IEAA_NAEA_W@Z 000000018005de30 f i libucrtd:output.obj
 0001:0005ce60       ??$extract_argument_from_va_list@_W_W@?$standard_base@_WV?$string_output_adapter@_W@__crt_stdio_output@@@__crt_stdio_output@@IEAA_NAEA_W@Z 000000018005de60 f i libucrtd:output.obj
 0001:0005ce90       ??$get_parameter_type@D@?$positional_parameter_base@DV?$stream_output_adapter@D@__crt_stdio_output@@@__crt_stdio_output@@CA?AW4parameter_type@01@PEAD@Z 000000018005de90 f i libucrtd:output.obj
 0001:0005cea0       ??$get_parameter_type@D@?$positional_parameter_base@DV?$string_output_adapter@D@__crt_stdio_output@@@__crt_stdio_output@@CA?AW4parameter_type@01@PEAD@Z 000000018005dea0 f i libucrtd:output.obj
 0001:0005ceb0       ??$get_parameter_type@D@?$positional_parameter_base@_WV?$stream_output_adapter@_W@__crt_stdio_output@@@__crt_stdio_output@@CA?AW4parameter_type@01@PEAD@Z 000000018005deb0 f i libucrtd:output.obj
 0001:0005cec0       ??$get_parameter_type@D@?$positional_parameter_base@_WV?$string_output_adapter@_W@__crt_stdio_output@@@__crt_stdio_output@@CA?AW4parameter_type@01@PEAD@Z 000000018005dec0 f i libucrtd:output.obj
 0001:0005ced0       ??$get_parameter_type@Uansi_string@?1??type_case_Z@?$output_processor@DV?$stream_output_adapter@D@__crt_stdio_output@@V?$positional_parameter_base@DV?$stream_output_adapter@D@__crt_stdio_output@@@2@@__crt_stdio_output@@AEAA_NXZ@@?$positional_parameter_base@DV?$stream_output_adapter@D@__crt_stdio_output@@@__crt_stdio_output@@CA?AW4parameter_type@01@PEAUansi_string@?1??type_case_Z@?$output_processor@DV?$stream_output_adapter@D@__crt_stdio_output@@V?$positional_parameter_base@DV?$stream_output_adapter@D@__crt_stdio_output@@@2@@1@AEAA_NXZ@@Z 000000018005ded0 f i libucrtd:output.obj
 0001:0005cee0       ??$get_parameter_type@Uansi_string@?1??type_case_Z@?$output_processor@DV?$string_output_adapter@D@__crt_stdio_output@@V?$positional_parameter_base@DV?$string_output_adapter@D@__crt_stdio_output@@@2@@__crt_stdio_output@@AEAA_NXZ@@?$positional_parameter_base@DV?$string_output_adapter@D@__crt_stdio_output@@@__crt_stdio_output@@CA?AW4parameter_type@01@PEAUansi_string@?1??type_case_Z@?$output_processor@DV?$string_output_adapter@D@__crt_stdio_output@@V?$positional_parameter_base@DV?$string_output_adapter@D@__crt_stdio_output@@@2@@1@AEAA_NXZ@@Z 000000018005dee0 f i libucrtd:output.obj
 0001:0005cef0       ??$get_parameter_type@Uansi_string@?1??type_case_Z@?$output_processor@_WV?$stream_output_adapter@_W@__crt_stdio_output@@V?$positional_parameter_base@_WV?$stream_output_adapter@_W@__crt_stdio_output@@@2@@__crt_stdio_output@@AEAA_NXZ@@?$positional_parameter_base@_WV?$stream_output_adapter@_W@__crt_stdio_output@@@__crt_stdio_output@@CA?AW4parameter_type@01@PEAUansi_string@?1??type_case_Z@?$output_processor@_WV?$stream_output_adapter@_W@__crt_stdio_output@@V?$positional_parameter_base@_WV?$stream_output_adapter@_W@__crt_stdio_output@@@2@@1@AEAA_NXZ@@Z 000000018005def0 f i libucrtd:output.obj
 0001:0005cf00       ??$get_parameter_type@Uansi_string@?1??type_case_Z@?$output_processor@_WV?$string_output_adapter@_W@__crt_stdio_output@@V?$positional_parameter_base@_WV?$string_output_adapter@_W@__crt_stdio_output@@@2@@__crt_stdio_output@@AEAA_NXZ@@?$positional_parameter_base@_WV?$string_output_adapter@_W@__crt_stdio_output@@@__crt_stdio_output@@CA?AW4parameter_type@01@PEAUansi_string@?1??type_case_Z@?$output_processor@_WV?$string_output_adapter@_W@__crt_stdio_output@@V?$positional_parameter_base@_WV?$string_output_adapter@_W@__crt_stdio_output@@@2@@1@AEAA_NXZ@@Z 000000018005df00 f i libucrtd:output.obj
 0001:0005cf10       ??$get_parameter_type@X@?$positional_parameter_base@DV?$stream_output_adapter@D@__crt_stdio_output@@@__crt_stdio_output@@CA?AW4parameter_type@01@PEAX@Z 000000018005df10 f i libucrtd:output.obj
 0001:0005cf20       ??$get_parameter_type@X@?$positional_parameter_base@DV?$string_output_adapter@D@__crt_stdio_output@@@__crt_stdio_output@@CA?AW4parameter_type@01@PEAX@Z 000000018005df20 f i libucrtd:output.obj
 0001:0005cf30       ??$get_parameter_type@X@?$positional_parameter_base@_WV?$stream_output_adapter@_W@__crt_stdio_output@@@__crt_stdio_output@@CA?AW4parameter_type@01@PEAX@Z 000000018005df30 f i libucrtd:output.obj
 0001:0005cf40       ??$get_parameter_type@X@?$positional_parameter_base@_WV?$string_output_adapter@_W@__crt_stdio_output@@@__crt_stdio_output@@CA?AW4parameter_type@01@PEAX@Z 000000018005df40 f i libucrtd:output.obj
 0001:0005cf50       ??$is_character_specifier@D@?$positional_parameter_base@DV?$stream_output_adapter@D@__crt_stdio_output@@@__crt_stdio_output@@CA_ND@Z 000000018005df50 f i libucrtd:output.obj
 0001:0005cf90       ??$is_character_specifier@D@?$positional_parameter_base@DV?$string_output_adapter@D@__crt_stdio_output@@@__crt_stdio_output@@CA_ND@Z 000000018005df90 f i libucrtd:output.obj
 0001:0005cfd0       ??$is_character_specifier@_W@?$positional_parameter_base@_WV?$stream_output_adapter@_W@__crt_stdio_output@@@__crt_stdio_output@@CA_N_W@Z 000000018005dfd0 f i libucrtd:output.obj
 0001:0005d010       ??$is_character_specifier@_W@?$positional_parameter_base@_WV?$string_output_adapter@_W@__crt_stdio_output@@@__crt_stdio_output@@CA_N_W@Z 000000018005e010 f i libucrtd:output.obj
 0001:0005d050       ??$is_integral_specifier@D@?$positional_parameter_base@DV?$stream_output_adapter@D@__crt_stdio_output@@@__crt_stdio_output@@CA_ND@Z 000000018005e050 f i libucrtd:output.obj
 0001:0005d0c0       ??$is_integral_specifier@D@?$positional_parameter_base@DV?$string_output_adapter@D@__crt_stdio_output@@@__crt_stdio_output@@CA_ND@Z 000000018005e0c0 f i libucrtd:output.obj
 0001:0005d130       ??$is_integral_specifier@_W@?$positional_parameter_base@_WV?$stream_output_adapter@_W@__crt_stdio_output@@@__crt_stdio_output@@CA_N_W@Z 000000018005e130 f i libucrtd:output.obj
 0001:0005d1a0       ??$is_integral_specifier@_W@?$positional_parameter_base@_WV?$string_output_adapter@_W@__crt_stdio_output@@@__crt_stdio_output@@CA_N_W@Z 000000018005e1a0 f i libucrtd:output.obj
 0001:0005d210       ??$is_pointer_specifier@D@?$positional_parameter_base@DV?$stream_output_adapter@D@__crt_stdio_output@@@__crt_stdio_output@@CA_ND@Z 000000018005e210 f i libucrtd:output.obj
 0001:0005d240       ??$is_pointer_specifier@D@?$positional_parameter_base@DV?$string_output_adapter@D@__crt_stdio_output@@@__crt_stdio_output@@CA_ND@Z 000000018005e240 f i libucrtd:output.obj
 0001:0005d270       ??$is_pointer_specifier@_W@?$positional_parameter_base@_WV?$stream_output_adapter@_W@__crt_stdio_output@@@__crt_stdio_output@@CA_N_W@Z 000000018005e270 f i libucrtd:output.obj
 0001:0005d2a0       ??$is_pointer_specifier@_W@?$positional_parameter_base@_WV?$string_output_adapter@_W@__crt_stdio_output@@@__crt_stdio_output@@CA_N_W@Z 000000018005e2a0 f i libucrtd:output.obj
 0001:0005d2d0       ??$is_string_specifier@D@?$positional_parameter_base@DV?$stream_output_adapter@D@__crt_stdio_output@@@__crt_stdio_output@@CA_ND@Z 000000018005e2d0 f i libucrtd:output.obj
 0001:0005d310       ??$is_string_specifier@D@?$positional_parameter_base@DV?$string_output_adapter@D@__crt_stdio_output@@@__crt_stdio_output@@CA_ND@Z 000000018005e310 f i libucrtd:output.obj
 0001:0005d350       ??$is_string_specifier@_W@?$positional_parameter_base@_WV?$stream_output_adapter@_W@__crt_stdio_output@@@__crt_stdio_output@@CA_N_W@Z 000000018005e350 f i libucrtd:output.obj
 0001:0005d390       ??$is_string_specifier@_W@?$positional_parameter_base@_WV?$string_output_adapter@_W@__crt_stdio_output@@@__crt_stdio_output@@CA_N_W@Z 000000018005e390 f i libucrtd:output.obj
 0001:0005d3d0       ??$is_wide_character_specifier@D@__crt_stdio_output@@YA_N_KDW4length_modifier@0@@Z 000000018005e3d0 f i libucrtd:output.obj
 0001:0005d470       ??$is_wide_character_specifier@_W@__crt_stdio_output@@YA_N_K_WW4length_modifier@0@@Z 000000018005e470 f i libucrtd:output.obj
 0001:0005d540       ??$peek_va_arg@C@__crt_stdio_output@@YACPEAD@Z 000000018005e540 f i libucrtd:output.obj
 0001:0005d5a0       ??$peek_va_arg@E@__crt_stdio_output@@YAEPEAD@Z 000000018005e5a0 f i libucrtd:output.obj
 0001:0005d600       ??$peek_va_arg@F@__crt_stdio_output@@YAFPEAD@Z 000000018005e600 f i libucrtd:output.obj
 0001:0005d660       ??$peek_va_arg@G@__crt_stdio_output@@YAGPEAD@Z 000000018005e660 f i libucrtd:output.obj
 0001:0005d6c0       ??$peek_va_arg@H@__crt_stdio_output@@YAHPEAD@Z 000000018005e6c0 f i libucrtd:output.obj
 0001:0005d710       ??$peek_va_arg@I@__crt_stdio_output@@YAIPEAD@Z 000000018005e710 f i libucrtd:output.obj
 0001:0005d760       ??$peek_va_arg@PEAD@__crt_stdio_output@@YAPEADPEAD@Z 000000018005e760 f i libucrtd:output.obj
 0001:0005d7c0       ??$peek_va_arg@PEAUansi_string@?1??type_case_Z@?$output_processor@DV?$stream_output_adapter@D@__crt_stdio_output@@V?$positional_parameter_base@DV?$stream_output_adapter@D@__crt_stdio_output@@@2@@__crt_stdio_output@@AEAA_NXZ@@__crt_stdio_output@@YAPEAUansi_string@?1??type_case_Z@?$output_processor@DV?$stream_output_adapter@D@__crt_stdio_output@@V?$positional_parameter_base@DV?$stream_output_adapter@D@__crt_stdio_output@@@2@@0@AEAA_NXZ@PEAD@Z 000000018005e7c0 f i libucrtd:output.obj
 0001:0005d820       ??$peek_va_arg@PEAUansi_string@?1??type_case_Z@?$output_processor@DV?$string_output_adapter@D@__crt_stdio_output@@V?$positional_parameter_base@DV?$string_output_adapter@D@__crt_stdio_output@@@2@@__crt_stdio_output@@AEAA_NXZ@@__crt_stdio_output@@YAPEAUansi_string@?1??type_case_Z@?$output_processor@DV?$string_output_adapter@D@__crt_stdio_output@@V?$positional_parameter_base@DV?$string_output_adapter@D@__crt_stdio_output@@@2@@0@AEAA_NXZ@PEAD@Z 000000018005e820 f i libucrtd:output.obj
 0001:0005d880       ??$peek_va_arg@PEAUansi_string@?1??type_case_Z@?$output_processor@_WV?$stream_output_adapter@_W@__crt_stdio_output@@V?$positional_parameter_base@_WV?$stream_output_adapter@_W@__crt_stdio_output@@@2@@__crt_stdio_output@@AEAA_NXZ@@__crt_stdio_output@@YAPEAUansi_string@?1??type_case_Z@?$output_processor@_WV?$stream_output_adapter@_W@__crt_stdio_output@@V?$positional_parameter_base@_WV?$stream_output_adapter@_W@__crt_stdio_output@@@2@@0@AEAA_NXZ@PEAD@Z 000000018005e880 f i libucrtd:output.obj
 0001:0005d8e0       ??$peek_va_arg@PEAUansi_string@?1??type_case_Z@?$output_processor@_WV?$string_output_adapter@_W@__crt_stdio_output@@V?$positional_parameter_base@_WV?$string_output_adapter@_W@__crt_stdio_output@@@2@@__crt_stdio_output@@AEAA_NXZ@@__crt_stdio_output@@YAPEAUansi_string@?1??type_case_Z@?$output_processor@_WV?$string_output_adapter@_W@__crt_stdio_output@@V?$positional_parameter_base@_WV?$string_output_adapter@_W@__crt_stdio_output@@@2@@0@AEAA_NXZ@PEAD@Z 000000018005e8e0 f i libucrtd:output.obj
 0001:0005d940       ??$peek_va_arg@PEAX@__crt_stdio_output@@YAPEAXPEAD@Z 000000018005e940 f i libucrtd:output.obj
 0001:0005d9a0       ??$peek_va_arg@U_CRT_DOUBLE@@@__crt_stdio_output@@YA?AU_CRT_DOUBLE@@PEAD@Z 000000018005e9a0 f i libucrtd:output.obj
 0001:0005da00       ??$peek_va_arg@_J@__crt_stdio_output@@YA_JPEAD@Z 000000018005ea00 f i libucrtd:output.obj
 0001:0005da60       ??$peek_va_arg@_K@__crt_stdio_output@@YA_KPEAD@Z 000000018005ea60 f i libucrtd:output.obj
 0001:0005dac0       ??$peek_va_arg@_W@__crt_stdio_output@@YA_WPEAD@Z 000000018005eac0 f i libucrtd:output.obj
 0001:0005db20       ??$puttc_nolock@AEBDPEAU_iobuf@@@?$__crt_char_traits@D@@SAHAEBD$$QEAPEAU_iobuf@@@Z 000000018005eb20 f i libucrtd:output.obj
 0001:0005db50       ??$puttc_nolock@AEB_WPEAU_iobuf@@@?$__crt_char_traits@_W@@SAGAEB_W$$QEAPEAU_iobuf@@@Z 000000018005eb50 f i libucrtd:output.obj
 0001:0005db80       ??$read_va_arg@C@__crt_stdio_output@@YACAEAPEAD@Z 000000018005eb80 f i libucrtd:output.obj
 0001:0005dbf0       ??$read_va_arg@E@__crt_stdio_output@@YAEAEAPEAD@Z 000000018005ebf0 f i libucrtd:output.obj
 0001:0005dc60       ??$read_va_arg@F@__crt_stdio_output@@YAFAEAPEAD@Z 000000018005ec60 f i libucrtd:output.obj
 0001:0005dcd0       ??$read_va_arg@G@__crt_stdio_output@@YAGAEAPEAD@Z 000000018005ecd0 f i libucrtd:output.obj
 0001:0005dd40       ??$read_va_arg@H@__crt_stdio_output@@YAHAEAPEAD@Z 000000018005ed40 f i libucrtd:output.obj
 0001:0005dda0       ??$read_va_arg@I@__crt_stdio_output@@YAIAEAPEAD@Z 000000018005eda0 f i libucrtd:output.obj
 0001:0005de00       ??$read_va_arg@PEAD@__crt_stdio_output@@YAPEADAEAPEAD@Z 000000018005ee00 f i libucrtd:output.obj
 0001:0005de70       ??$read_va_arg@PEAUansi_string@?1??type_case_Z@?$output_processor@DV?$stream_output_adapter@D@__crt_stdio_output@@V?$format_validation_base@DV?$stream_output_adapter@D@__crt_stdio_output@@@2@@__crt_stdio_output@@AEAA_NXZ@@__crt_stdio_output@@YAPEAUansi_string@?1??type_case_Z@?$output_processor@DV?$stream_output_adapter@D@__crt_stdio_output@@V?$format_validation_base@DV?$stream_output_adapter@D@__crt_stdio_output@@@2@@0@AEAA_NXZ@AEAPEAD@Z 000000018005ee70 f i libucrtd:output.obj
 0001:0005dee0       ??$read_va_arg@PEAUansi_string@?1??type_case_Z@?$output_processor@DV?$stream_output_adapter@D@__crt_stdio_output@@V?$positional_parameter_base@DV?$stream_output_adapter@D@__crt_stdio_output@@@2@@__crt_stdio_output@@AEAA_NXZ@@__crt_stdio_output@@YAPEAUansi_string@?1??type_case_Z@?$output_processor@DV?$stream_output_adapter@D@__crt_stdio_output@@V?$positional_parameter_base@DV?$stream_output_adapter@D@__crt_stdio_output@@@2@@0@AEAA_NXZ@AEAPEAD@Z 000000018005eee0 f i libucrtd:output.obj
 0001:0005df50       ??$read_va_arg@PEAUansi_string@?1??type_case_Z@?$output_processor@DV?$stream_output_adapter@D@__crt_stdio_output@@V?$standard_base@DV?$stream_output_adapter@D@__crt_stdio_output@@@2@@__crt_stdio_output@@AEAA_NXZ@@__crt_stdio_output@@YAPEAUansi_string@?1??type_case_Z@?$output_processor@DV?$stream_output_adapter@D@__crt_stdio_output@@V?$standard_base@DV?$stream_output_adapter@D@__crt_stdio_output@@@2@@0@AEAA_NXZ@AEAPEAD@Z 000000018005ef50 f i libucrtd:output.obj
 0001:0005dfc0       ??$read_va_arg@PEAUansi_string@?1??type_case_Z@?$output_processor@DV?$string_output_adapter@D@__crt_stdio_output@@V?$format_validation_base@DV?$string_output_adapter@D@__crt_stdio_output@@@2@@__crt_stdio_output@@AEAA_NXZ@@__crt_stdio_output@@YAPEAUansi_string@?1??type_case_Z@?$output_processor@DV?$string_output_adapter@D@__crt_stdio_output@@V?$format_validation_base@DV?$string_output_adapter@D@__crt_stdio_output@@@2@@0@AEAA_NXZ@AEAPEAD@Z 000000018005efc0 f i libucrtd:output.obj
 0001:0005e030       ??$read_va_arg@PEAUansi_string@?1??type_case_Z@?$output_processor@DV?$string_output_adapter@D@__crt_stdio_output@@V?$positional_parameter_base@DV?$string_output_adapter@D@__crt_stdio_output@@@2@@__crt_stdio_output@@AEAA_NXZ@@__crt_stdio_output@@YAPEAUansi_string@?1??type_case_Z@?$output_processor@DV?$string_output_adapter@D@__crt_stdio_output@@V?$positional_parameter_base@DV?$string_output_adapter@D@__crt_stdio_output@@@2@@0@AEAA_NXZ@AEAPEAD@Z 000000018005f030 f i libucrtd:output.obj
 0001:0005e0a0       ??$read_va_arg@PEAUansi_string@?1??type_case_Z@?$output_processor@DV?$string_output_adapter@D@__crt_stdio_output@@V?$standard_base@DV?$string_output_adapter@D@__crt_stdio_output@@@2@@__crt_stdio_output@@AEAA_NXZ@@__crt_stdio_output@@YAPEAUansi_string@?1??type_case_Z@?$output_processor@DV?$string_output_adapter@D@__crt_stdio_output@@V?$standard_base@DV?$string_output_adapter@D@__crt_stdio_output@@@2@@0@AEAA_NXZ@AEAPEAD@Z 000000018005f0a0 f i libucrtd:output.obj
 0001:0005e110       ??$read_va_arg@PEAUansi_string@?1??type_case_Z@?$output_processor@_WV?$stream_output_adapter@_W@__crt_stdio_output@@V?$format_validation_base@_WV?$stream_output_adapter@_W@__crt_stdio_output@@@2@@__crt_stdio_output@@AEAA_NXZ@@__crt_stdio_output@@YAPEAUansi_string@?1??type_case_Z@?$output_processor@_WV?$stream_output_adapter@_W@__crt_stdio_output@@V?$format_validation_base@_WV?$stream_output_adapter@_W@__crt_stdio_output@@@2@@0@AEAA_NXZ@AEAPEAD@Z 000000018005f110 f i libucrtd:output.obj
 0001:0005e180       ??$read_va_arg@PEAUansi_string@?1??type_case_Z@?$output_processor@_WV?$stream_output_adapter@_W@__crt_stdio_output@@V?$positional_parameter_base@_WV?$stream_output_adapter@_W@__crt_stdio_output@@@2@@__crt_stdio_output@@AEAA_NXZ@@__crt_stdio_output@@YAPEAUansi_string@?1??type_case_Z@?$output_processor@_WV?$stream_output_adapter@_W@__crt_stdio_output@@V?$positional_parameter_base@_WV?$stream_output_adapter@_W@__crt_stdio_output@@@2@@0@AEAA_NXZ@AEAPEAD@Z 000000018005f180 f i libucrtd:output.obj
 0001:0005e1f0       ??$read_va_arg@PEAUansi_string@?1??type_case_Z@?$output_processor@_WV?$stream_output_adapter@_W@__crt_stdio_output@@V?$standard_base@_WV?$stream_output_adapter@_W@__crt_stdio_output@@@2@@__crt_stdio_output@@AEAA_NXZ@@__crt_stdio_output@@YAPEAUansi_string@?1??type_case_Z@?$output_processor@_WV?$stream_output_adapter@_W@__crt_stdio_output@@V?$standard_base@_WV?$stream_output_adapter@_W@__crt_stdio_output@@@2@@0@AEAA_NXZ@AEAPEAD@Z 000000018005f1f0 f i libucrtd:output.obj
 0001:0005e260       ??$read_va_arg@PEAUansi_string@?1??type_case_Z@?$output_processor@_WV?$string_output_adapter@_W@__crt_stdio_output@@V?$format_validation_base@_WV?$string_output_adapter@_W@__crt_stdio_output@@@2@@__crt_stdio_output@@AEAA_NXZ@@__crt_stdio_output@@YAPEAUansi_string@?1??type_case_Z@?$output_processor@_WV?$string_output_adapter@_W@__crt_stdio_output@@V?$format_validation_base@_WV?$string_output_adapter@_W@__crt_stdio_output@@@2@@0@AEAA_NXZ@AEAPEAD@Z 000000018005f260 f i libucrtd:output.obj
 0001:0005e2d0       ??$read_va_arg@PEAUansi_string@?1??type_case_Z@?$output_processor@_WV?$string_output_adapter@_W@__crt_stdio_output@@V?$positional_parameter_base@_WV?$string_output_adapter@_W@__crt_stdio_output@@@2@@__crt_stdio_output@@AEAA_NXZ@@__crt_stdio_output@@YAPEAUansi_string@?1??type_case_Z@?$output_processor@_WV?$string_output_adapter@_W@__crt_stdio_output@@V?$positional_parameter_base@_WV?$string_output_adapter@_W@__crt_stdio_output@@@2@@0@AEAA_NXZ@AEAPEAD@Z 000000018005f2d0 f i libucrtd:output.obj
 0001:0005e340       ??$read_va_arg@PEAUansi_string@?1??type_case_Z@?$output_processor@_WV?$string_output_adapter@_W@__crt_stdio_output@@V?$standard_base@_WV?$string_output_adapter@_W@__crt_stdio_output@@@2@@__crt_stdio_output@@AEAA_NXZ@@__crt_stdio_output@@YAPEAUansi_string@?1??type_case_Z@?$output_processor@_WV?$string_output_adapter@_W@__crt_stdio_output@@V?$standard_base@_WV?$string_output_adapter@_W@__crt_stdio_output@@@2@@0@AEAA_NXZ@AEAPEAD@Z 000000018005f340 f i libucrtd:output.obj
 0001:0005e3b0       ??$read_va_arg@PEAX@__crt_stdio_output@@YAPEAXAEAPEAD@Z 000000018005f3b0 f i libucrtd:output.obj
 0001:0005e420       ??$read_va_arg@U_CRT_DOUBLE@@@__crt_stdio_output@@YA?AU_CRT_DOUBLE@@AEAPEAD@Z 000000018005f420 f i libucrtd:output.obj
 0001:0005e490       ??$read_va_arg@_J@__crt_stdio_output@@YA_JAEAPEAD@Z 000000018005f490 f i libucrtd:output.obj
 0001:0005e500       ??$read_va_arg@_K@__crt_stdio_output@@YA_KAEAPEAD@Z 000000018005f500 f i libucrtd:output.obj
 0001:0005e570       ??$read_va_arg@_W@__crt_stdio_output@@YA_WAEAPEAD@Z 000000018005f570 f i libucrtd:output.obj
 0001:0005e5e0       ??$scratch_count@D@formatting_buffer@__crt_stdio_output@@QEBA_KXZ 000000018005f5e0 f i libucrtd:output.obj
 0001:0005e600       ??$scratch_data@D@formatting_buffer@__crt_stdio_output@@QEAAPEADXZ 000000018005f600 f i libucrtd:output.obj
 0001:0005e670       ??$tcstol@AEAPEBDPEAPEADH@?$__crt_char_traits@D@@SAJAEAPEBD$$QEAPEAPEAD$$QEAH@Z 000000018005f670 f i libucrtd:output.obj
 0001:0005e6b0       ??$tcstol@AEAPEB_WPEAPEA_WH@?$__crt_char_traits@_W@@SAJAEAPEB_W$$QEAPEAPEA_W$$QEAH@Z 000000018005f6b0 f i libucrtd:output.obj
 0001:0005e6f0       ??$tcstol@PEBDPEAPEADH@?$__crt_char_traits@D@@SAJ$$QEAPEBD$$QEAPEAPEAD$$QEAH@Z 000000018005f6f0 f i libucrtd:output.obj
 0001:0005e730       ??$tcstol@PEB_WPEAPEA_WH@?$__crt_char_traits@_W@@SAJ$$QEAPEB_W$$QEAPEAPEA_W$$QEAH@Z 000000018005f730 f i libucrtd:output.obj
 0001:0005e770       ??$type_case_integer_parse_into_buffer@I@?$output_processor@DV?$stream_output_adapter@D@__crt_stdio_output@@V?$format_validation_base@DV?$stream_output_adapter@D@__crt_stdio_output@@@2@@__crt_stdio_output@@AEAAXII_N@Z 000000018005f770 f i libucrtd:output.obj
 0001:0005e8a0       ??$type_case_integer_parse_into_buffer@I@?$output_processor@DV?$stream_output_adapter@D@__crt_stdio_output@@V?$positional_parameter_base@DV?$stream_output_adapter@D@__crt_stdio_output@@@2@@__crt_stdio_output@@AEAAXII_N@Z 000000018005f8a0 f i libucrtd:output.obj
 0001:0005e9d0       ??$type_case_integer_parse_into_buffer@I@?$output_processor@DV?$stream_output_adapter@D@__crt_stdio_output@@V?$standard_base@DV?$stream_output_adapter@D@__crt_stdio_output@@@2@@__crt_stdio_output@@AEAAXII_N@Z 000000018005f9d0 f i libucrtd:output.obj
 0001:0005eb00       ??$type_case_integer_parse_into_buffer@I@?$output_processor@DV?$string_output_adapter@D@__crt_stdio_output@@V?$format_validation_base@DV?$string_output_adapter@D@__crt_stdio_output@@@2@@__crt_stdio_output@@AEAAXII_N@Z 000000018005fb00 f i libucrtd:output.obj
 0001:0005ec30       ??$type_case_integer_parse_into_buffer@I@?$output_processor@DV?$string_output_adapter@D@__crt_stdio_output@@V?$positional_parameter_base@DV?$string_output_adapter@D@__crt_stdio_output@@@2@@__crt_stdio_output@@AEAAXII_N@Z 000000018005fc30 f i libucrtd:output.obj
 0001:0005ed60       ??$type_case_integer_parse_into_buffer@I@?$output_processor@DV?$string_output_adapter@D@__crt_stdio_output@@V?$standard_base@DV?$string_output_adapter@D@__crt_stdio_output@@@2@@__crt_stdio_output@@AEAAXII_N@Z 000000018005fd60 f i libucrtd:output.obj
 0001:0005ee90       ??$type_case_integer_parse_into_buffer@I@?$output_processor@_WV?$stream_output_adapter@_W@__crt_stdio_output@@V?$format_validation_base@_WV?$stream_output_adapter@_W@__crt_stdio_output@@@2@@__crt_stdio_output@@AEAAXII_N@Z 000000018005fe90 f i libucrtd:output.obj
 0001:0005efd0       ??$type_case_integer_parse_into_buffer@I@?$output_processor@_WV?$stream_output_adapter@_W@__crt_stdio_output@@V?$positional_parameter_base@_WV?$stream_output_adapter@_W@__crt_stdio_output@@@2@@__crt_stdio_output@@AEAAXII_N@Z 000000018005ffd0 f i libucrtd:output.obj
 0001:0005f110       ??$type_case_integer_parse_into_buffer@I@?$output_processor@_WV?$stream_output_adapter@_W@__crt_stdio_output@@V?$standard_base@_WV?$stream_output_adapter@_W@__crt_stdio_output@@@2@@__crt_stdio_output@@AEAAXII_N@Z 0000000180060110 f i libucrtd:output.obj
 0001:0005f250       ??$type_case_integer_parse_into_buffer@I@?$output_processor@_WV?$string_output_adapter@_W@__crt_stdio_output@@V?$format_validation_base@_WV?$string_output_adapter@_W@__crt_stdio_output@@@2@@__crt_stdio_output@@AEAAXII_N@Z 0000000180060250 f i libucrtd:output.obj
 0001:0005f390       ??$type_case_integer_parse_into_buffer@I@?$output_processor@_WV?$string_output_adapter@_W@__crt_stdio_output@@V?$positional_parameter_base@_WV?$string_output_adapter@_W@__crt_stdio_output@@@2@@__crt_stdio_output@@AEAAXII_N@Z 0000000180060390 f i libucrtd:output.obj
 0001:0005f4d0       ??$type_case_integer_parse_into_buffer@I@?$output_processor@_WV?$string_output_adapter@_W@__crt_stdio_output@@V?$standard_base@_WV?$string_output_adapter@_W@__crt_stdio_output@@@2@@__crt_stdio_output@@AEAAXII_N@Z 00000001800604d0 f i libucrtd:output.obj
 0001:0005f610       ??$type_case_integer_parse_into_buffer@_K@?$output_processor@DV?$stream_output_adapter@D@__crt_stdio_output@@V?$format_validation_base@DV?$stream_output_adapter@D@__crt_stdio_output@@@2@@__crt_stdio_output@@AEAAX_KI_N@Z 0000000180060610 f i libucrtd:output.obj
 0001:0005f760       ??$type_case_integer_parse_into_buffer@_K@?$output_processor@DV?$stream_output_adapter@D@__crt_stdio_output@@V?$positional_parameter_base@DV?$stream_output_adapter@D@__crt_stdio_output@@@2@@__crt_stdio_output@@AEAAX_KI_N@Z 0000000180060760 f i libucrtd:output.obj
 0001:0005f8b0       ??$type_case_integer_parse_into_buffer@_K@?$output_processor@DV?$stream_output_adapter@D@__crt_stdio_output@@V?$standard_base@DV?$stream_output_adapter@D@__crt_stdio_output@@@2@@__crt_stdio_output@@AEAAX_KI_N@Z 00000001800608b0 f i libucrtd:output.obj
 0001:0005fa00       ??$type_case_integer_parse_into_buffer@_K@?$output_processor@DV?$string_output_adapter@D@__crt_stdio_output@@V?$format_validation_base@DV?$string_output_adapter@D@__crt_stdio_output@@@2@@__crt_stdio_output@@AEAAX_KI_N@Z 0000000180060a00 f i libucrtd:output.obj
 0001:0005fb50       ??$type_case_integer_parse_into_buffer@_K@?$output_processor@DV?$string_output_adapter@D@__crt_stdio_output@@V?$positional_parameter_base@DV?$string_output_adapter@D@__crt_stdio_output@@@2@@__crt_stdio_output@@AEAAX_KI_N@Z 0000000180060b50 f i libucrtd:output.obj
 0001:0005fca0       ??$type_case_integer_parse_into_buffer@_K@?$output_processor@DV?$string_output_adapter@D@__crt_stdio_output@@V?$standard_base@DV?$string_output_adapter@D@__crt_stdio_output@@@2@@__crt_stdio_output@@AEAAX_KI_N@Z 0000000180060ca0 f i libucrtd:output.obj
 0001:0005fdf0       ??$type_case_integer_parse_into_buffer@_K@?$output_processor@_WV?$stream_output_adapter@_W@__crt_stdio_output@@V?$format_validation_base@_WV?$stream_output_adapter@_W@__crt_stdio_output@@@2@@__crt_stdio_output@@AEAAX_KI_N@Z 0000000180060df0 f i libucrtd:output.obj
 0001:0005ff50       ??$type_case_integer_parse_into_buffer@_K@?$output_processor@_WV?$stream_output_adapter@_W@__crt_stdio_output@@V?$positional_parameter_base@_WV?$stream_output_adapter@_W@__crt_stdio_output@@@2@@__crt_stdio_output@@AEAAX_KI_N@Z 0000000180060f50 f i libucrtd:output.obj
 0001:000600b0       ??$type_case_integer_parse_into_buffer@_K@?$output_processor@_WV?$stream_output_adapter@_W@__crt_stdio_output@@V?$standard_base@_WV?$stream_output_adapter@_W@__crt_stdio_output@@@2@@__crt_stdio_output@@AEAAX_KI_N@Z 00000001800610b0 f i libucrtd:output.obj
 0001:00060210       ??$type_case_integer_parse_into_buffer@_K@?$output_processor@_WV?$string_output_adapter@_W@__crt_stdio_output@@V?$format_validation_base@_WV?$string_output_adapter@_W@__crt_stdio_output@@@2@@__crt_stdio_output@@AEAAX_KI_N@Z 0000000180061210 f i libucrtd:output.obj
 0001:00060370       ??$type_case_integer_parse_into_buffer@_K@?$output_processor@_WV?$string_output_adapter@_W@__crt_stdio_output@@V?$positional_parameter_base@_WV?$string_output_adapter@_W@__crt_stdio_output@@@2@@__crt_stdio_output@@AEAAX_KI_N@Z 0000000180061370 f i libucrtd:output.obj
 0001:000604d0       ??$type_case_integer_parse_into_buffer@_K@?$output_processor@_WV?$string_output_adapter@_W@__crt_stdio_output@@V?$standard_base@_WV?$string_output_adapter@_W@__crt_stdio_output@@@2@@__crt_stdio_output@@AEAAX_KI_N@Z 00000001800614d0 f i libucrtd:output.obj
 0001:00060630       ??$write_multiple_characters@V?$stream_output_adapter@D@__crt_stdio_output@@D@__crt_stdio_output@@YAXAEBV?$stream_output_adapter@D@0@DHQEAH@Z 0000000180061630 f i libucrtd:output.obj
 0001:00060690       ??$write_multiple_characters@V?$stream_output_adapter@_W@__crt_stdio_output@@D@__crt_stdio_output@@YAXAEBV?$stream_output_adapter@_W@0@DHQEAH@Z 0000000180061690 f i libucrtd:output.obj
 0001:000606f0       ??$write_multiple_characters@V?$string_output_adapter@D@__crt_stdio_output@@D@__crt_stdio_output@@YAXAEBV?$string_output_adapter@D@0@DHQEAH@Z 00000001800616f0 f i libucrtd:output.obj
 0001:00060750       ??$write_multiple_characters@V?$string_output_adapter@_W@__crt_stdio_output@@D@__crt_stdio_output@@YAXAEBV?$string_output_adapter@_W@0@DHQEAH@Z 0000000180061750 f i libucrtd:output.obj
 0001:00060b70       ??0?$common_data@D@__crt_stdio_output@@IEAA@XZ 0000000180061b70 f i libucrtd:output.obj
 0001:00060c40       ??0?$common_data@_W@__crt_stdio_output@@IEAA@XZ 0000000180061c40 f i libucrtd:output.obj
 0001:00060d10       ??0?$output_adapter_data@DV?$stream_output_adapter@D@__crt_stdio_output@@@__crt_stdio_output@@IEAA@AEBV?$stream_output_adapter@D@1@_KQEBDQEAU__crt_locale_pointers@@QEAD@Z 0000000180061d10 f i libucrtd:output.obj
 0001:00060d90       ??0?$output_adapter_data@DV?$string_output_adapter@D@__crt_stdio_output@@@__crt_stdio_output@@IEAA@AEBV?$string_output_adapter@D@1@_KQEBDQEAU__crt_locale_pointers@@QEAD@Z 0000000180061d90 f i libucrtd:output.obj
 0001:00060e10       ??0?$output_adapter_data@_WV?$stream_output_adapter@_W@__crt_stdio_output@@@__crt_stdio_output@@IEAA@AEBV?$stream_output_adapter@_W@1@_KQEB_WQEAU__crt_locale_pointers@@QEAD@Z 0000000180061e10 f i libucrtd:output.obj
 0001:00060e90       ??0?$output_adapter_data@_WV?$string_output_adapter@_W@__crt_stdio_output@@@__crt_stdio_output@@IEAA@AEBV?$string_output_adapter@_W@1@_KQEB_WQEAU__crt_locale_pointers@@QEAD@Z 0000000180061e90 f i libucrtd:output.obj
 0001:00060f10       ??0?$output_processor@DV?$stream_output_adapter@D@__crt_stdio_output@@V?$format_validation_base@DV?$stream_output_adapter@D@__crt_stdio_output@@@2@@__crt_stdio_output@@QEAA@AEBV?$stream_output_adapter@D@1@_KQEBDQEAU__crt_locale_pointers@@QEAD@Z 0000000180061f10 f i libucrtd:output.obj
 0001:00060f60       ??0?$output_processor@DV?$stream_output_adapter@D@__crt_stdio_output@@V?$positional_parameter_base@DV?$stream_output_adapter@D@__crt_stdio_output@@@2@@__crt_stdio_output@@QEAA@AEBV?$stream_output_adapter@D@1@_KQEBDQEAU__crt_locale_pointers@@QEAD@Z 0000000180061f60 f i libucrtd:output.obj
 0001:00060fb0       ??0?$output_processor@DV?$stream_output_adapter@D@__crt_stdio_output@@V?$standard_base@DV?$stream_output_adapter@D@__crt_stdio_output@@@2@@__crt_stdio_output@@QEAA@AEBV?$stream_output_adapter@D@1@_KQEBDQEAU__crt_locale_pointers@@QEAD@Z 0000000180061fb0 f i libucrtd:output.obj
 0001:00061000       ??0?$output_processor@DV?$string_output_adapter@D@__crt_stdio_output@@V?$format_validation_base@DV?$string_output_adapter@D@__crt_stdio_output@@@2@@__crt_stdio_output@@QEAA@AEBV?$string_output_adapter@D@1@_KQEBDQEAU__crt_locale_pointers@@QEAD@Z 0000000180062000 f i libucrtd:output.obj
 0001:00061050       ??0?$output_processor@DV?$string_output_adapter@D@__crt_stdio_output@@V?$positional_parameter_base@DV?$string_output_adapter@D@__crt_stdio_output@@@2@@__crt_stdio_output@@QEAA@AEBV?$string_output_adapter@D@1@_KQEBDQEAU__crt_locale_pointers@@QEAD@Z 0000000180062050 f i libucrtd:output.obj
 0001:000610a0       ??0?$output_processor@DV?$string_output_adapter@D@__crt_stdio_output@@V?$standard_base@DV?$string_output_adapter@D@__crt_stdio_output@@@2@@__crt_stdio_output@@QEAA@AEBV?$string_output_adapter@D@1@_KQEBDQEAU__crt_locale_pointers@@QEAD@Z 00000001800620a0 f i libucrtd:output.obj
 0001:000610f0       ??0?$output_processor@_WV?$stream_output_adapter@_W@__crt_stdio_output@@V?$format_validation_base@_WV?$stream_output_adapter@_W@__crt_stdio_output@@@2@@__crt_stdio_output@@QEAA@AEBV?$stream_output_adapter@_W@1@_KQEB_WQEAU__crt_locale_pointers@@QEAD@Z 00000001800620f0 f i libucrtd:output.obj
 0001:00061140       ??0?$output_processor@_WV?$stream_output_adapter@_W@__crt_stdio_output@@V?$positional_parameter_base@_WV?$stream_output_adapter@_W@__crt_stdio_output@@@2@@__crt_stdio_output@@QEAA@AEBV?$stream_output_adapter@_W@1@_KQEB_WQEAU__crt_locale_pointers@@QEAD@Z 0000000180062140 f i libucrtd:output.obj
 0001:00061190       ??0?$output_processor@_WV?$stream_output_adapter@_W@__crt_stdio_output@@V?$standard_base@_WV?$stream_output_adapter@_W@__crt_stdio_output@@@2@@__crt_stdio_output@@QEAA@AEBV?$stream_output_adapter@_W@1@_KQEB_WQEAU__crt_locale_pointers@@QEAD@Z 0000000180062190 f i libucrtd:output.obj
 0001:000611e0       ??0?$output_processor@_WV?$string_output_adapter@_W@__crt_stdio_output@@V?$format_validation_base@_WV?$string_output_adapter@_W@__crt_stdio_output@@@2@@__crt_stdio_output@@QEAA@AEBV?$string_output_adapter@_W@1@_KQEB_WQEAU__crt_locale_pointers@@QEAD@Z 00000001800621e0 f i libucrtd:output.obj
 0001:00061230       ??0?$output_processor@_WV?$string_output_adapter@_W@__crt_stdio_output@@V?$positional_parameter_base@_WV?$string_output_adapter@_W@__crt_stdio_output@@@2@@__crt_stdio_output@@QEAA@AEBV?$string_output_adapter@_W@1@_KQEB_WQEAU__crt_locale_pointers@@QEAD@Z 0000000180062230 f i libucrtd:output.obj
 0001:00061280       ??0?$output_processor@_WV?$string_output_adapter@_W@__crt_stdio_output@@V?$standard_base@_WV?$string_output_adapter@_W@__crt_stdio_output@@@2@@__crt_stdio_output@@QEAA@AEBV?$string_output_adapter@_W@1@_KQEB_WQEAU__crt_locale_pointers@@QEAD@Z 0000000180062280 f i libucrtd:output.obj
 0001:000612d0       ??0?$stream_output_adapter@D@__crt_stdio_output@@QEAA@QEAU_iobuf@@@Z 00000001800622d0 f i libucrtd:output.obj
 0001:00061300       ??0?$stream_output_adapter@_W@__crt_stdio_output@@QEAA@QEAU_iobuf@@@Z 0000000180062300 f i libucrtd:output.obj
 0001:00061330       ??0?$string_output_adapter@D@__crt_stdio_output@@QEAA@QEAU?$string_output_adapter_context@D@1@@Z 0000000180062330 f i libucrtd:output.obj
 0001:00061350       ??0?$string_output_adapter@_W@__crt_stdio_output@@QEAA@QEAU?$string_output_adapter_context@_W@1@@Z 0000000180062350 f i libucrtd:output.obj
 0001:00061370       ??0_LocaleUpdate@@QEAA@QEAU__crt_locale_pointers@@@Z 0000000180062370 f i libucrtd:output.obj
 0001:00061490       ??0__acrt_stdio_temporary_buffering_guard@@QEAA@QEAU_iobuf@@@Z 0000000180062490 f i libucrtd:output.obj
 0001:000614d0       ??0__crt_deferred_errno_cache@@QEAA@XZ 00000001800624d0 f i libucrtd:output.obj
 0001:000614f0       ??0__crt_errno_guard@@QEAA@QEAH@Z 00000001800624f0 f i libucrtd:output.obj
 0001:00061530       ??0__crt_stdio_stream@@QEAA@QEAU_iobuf@@@Z 0000000180062530 f i libucrtd:output.obj
 0001:00061550       ??0formatting_buffer@__crt_stdio_output@@QEAA@XZ 0000000180062550 f i libucrtd:output.obj
 0001:00061590       ??1?$common_data@D@__crt_stdio_output@@QEAA@XZ 0000000180062590 f i libucrtd:output.obj
 0001:000615b0       ??1?$common_data@_W@__crt_stdio_output@@QEAA@XZ 00000001800625b0 f i libucrtd:output.obj
 0001:000615d0       ??1?$format_validation_base@DV?$stream_output_adapter@D@__crt_stdio_output@@@__crt_stdio_output@@QEAA@XZ 00000001800625d0 f i libucrtd:output.obj
 0001:000615f0       ??1?$format_validation_base@DV?$string_output_adapter@D@__crt_stdio_output@@@__crt_stdio_output@@QEAA@XZ 00000001800625f0 f i libucrtd:output.obj
 0001:00061610       ??1?$format_validation_base@_WV?$stream_output_adapter@_W@__crt_stdio_output@@@__crt_stdio_output@@QEAA@XZ 0000000180062610 f i libucrtd:output.obj
 0001:00061630       ??1?$format_validation_base@_WV?$string_output_adapter@_W@__crt_stdio_output@@@__crt_stdio_output@@QEAA@XZ 0000000180062630 f i libucrtd:output.obj
 0001:00061650       ??1?$output_adapter_data@DV?$stream_output_adapter@D@__crt_stdio_output@@@__crt_stdio_output@@QEAA@XZ 0000000180062650 f i libucrtd:output.obj
 0001:00061670       ??1?$output_adapter_data@DV?$string_output_adapter@D@__crt_stdio_output@@@__crt_stdio_output@@QEAA@XZ 0000000180062670 f i libucrtd:output.obj
 0001:00061690       ??1?$output_adapter_data@_WV?$stream_output_adapter@_W@__crt_stdio_output@@@__crt_stdio_output@@QEAA@XZ 0000000180062690 f i libucrtd:output.obj
 0001:000616b0       ??1?$output_adapter_data@_WV?$string_output_adapter@_W@__crt_stdio_output@@@__crt_stdio_output@@QEAA@XZ 00000001800626b0 f i libucrtd:output.obj
 0001:000616d0       ??1?$output_processor@DV?$stream_output_adapter@D@__crt_stdio_output@@V?$format_validation_base@DV?$stream_output_adapter@D@__crt_stdio_output@@@2@@__crt_stdio_output@@QEAA@XZ 00000001800626d0 f i libucrtd:output.obj
 0001:000616f0       ??1?$output_processor@DV?$stream_output_adapter@D@__crt_stdio_output@@V?$positional_parameter_base@DV?$stream_output_adapter@D@__crt_stdio_output@@@2@@__crt_stdio_output@@QEAA@XZ 00000001800626f0 f i libucrtd:output.obj
 0001:00061710       ??1?$output_processor@DV?$stream_output_adapter@D@__crt_stdio_output@@V?$standard_base@DV?$stream_output_adapter@D@__crt_stdio_output@@@2@@__crt_stdio_output@@QEAA@XZ 0000000180062710 f i libucrtd:output.obj
 0001:00061730       ??1?$output_processor@DV?$string_output_adapter@D@__crt_stdio_output@@V?$format_validation_base@DV?$string_output_adapter@D@__crt_stdio_output@@@2@@__crt_stdio_output@@QEAA@XZ 0000000180062730 f i libucrtd:output.obj
 0001:00061750       ??1?$output_processor@DV?$string_output_adapter@D@__crt_stdio_output@@V?$positional_parameter_base@DV?$string_output_adapter@D@__crt_stdio_output@@@2@@__crt_stdio_output@@QEAA@XZ 0000000180062750 f i libucrtd:output.obj
 0001:00061770       ??1?$output_processor@DV?$string_output_adapter@D@__crt_stdio_output@@V?$standard_base@DV?$string_output_adapter@D@__crt_stdio_output@@@2@@__crt_stdio_output@@QEAA@XZ 0000000180062770 f i libucrtd:output.obj
 0001:00061790       ??1?$output_processor@_WV?$stream_output_adapter@_W@__crt_stdio_output@@V?$format_validation_base@_WV?$stream_output_adapter@_W@__crt_stdio_output@@@2@@__crt_stdio_output@@QEAA@XZ 0000000180062790 f i libucrtd:output.obj
 0001:000617b0       ??1?$output_processor@_WV?$stream_output_adapter@_W@__crt_stdio_output@@V?$positional_parameter_base@_WV?$stream_output_adapter@_W@__crt_stdio_output@@@2@@__crt_stdio_output@@QEAA@XZ 00000001800627b0 f i libucrtd:output.obj
 0001:000617d0       ??1?$output_processor@_WV?$stream_output_adapter@_W@__crt_stdio_output@@V?$standard_base@_WV?$stream_output_adapter@_W@__crt_stdio_output@@@2@@__crt_stdio_output@@QEAA@XZ 00000001800627d0 f i libucrtd:output.obj
 0001:000617f0       ??1?$output_processor@_WV?$string_output_adapter@_W@__crt_stdio_output@@V?$format_validation_base@_WV?$string_output_adapter@_W@__crt_stdio_output@@@2@@__crt_stdio_output@@QEAA@XZ 00000001800627f0 f i libucrtd:output.obj
 0001:00061810       ??1?$output_processor@_WV?$string_output_adapter@_W@__crt_stdio_output@@V?$positional_parameter_base@_WV?$string_output_adapter@_W@__crt_stdio_output@@@2@@__crt_stdio_output@@QEAA@XZ 0000000180062810 f i libucrtd:output.obj
 0001:00061830       ??1?$output_processor@_WV?$string_output_adapter@_W@__crt_stdio_output@@V?$standard_base@_WV?$string_output_adapter@_W@__crt_stdio_output@@@2@@__crt_stdio_output@@QEAA@XZ 0000000180062830 f i libucrtd:output.obj
 0001:00061850       ??1?$positional_parameter_base@DV?$stream_output_adapter@D@__crt_stdio_output@@@__crt_stdio_output@@QEAA@XZ 0000000180062850 f i libucrtd:output.obj
 0001:00061870       ??1?$positional_parameter_base@DV?$string_output_adapter@D@__crt_stdio_output@@@__crt_stdio_output@@QEAA@XZ 0000000180062870 f i libucrtd:output.obj
 0001:00061890       ??1?$positional_parameter_base@_WV?$stream_output_adapter@_W@__crt_stdio_output@@@__crt_stdio_output@@QEAA@XZ 0000000180062890 f i libucrtd:output.obj
 0001:000618b0       ??1?$positional_parameter_base@_WV?$string_output_adapter@_W@__crt_stdio_output@@@__crt_stdio_output@@QEAA@XZ 00000001800628b0 f i libucrtd:output.obj
 0001:000618d0       ??1?$standard_base@DV?$stream_output_adapter@D@__crt_stdio_output@@@__crt_stdio_output@@QEAA@XZ 00000001800628d0 f i libucrtd:output.obj
 0001:000618f0       ??1?$standard_base@DV?$string_output_adapter@D@__crt_stdio_output@@@__crt_stdio_output@@QEAA@XZ 00000001800628f0 f i libucrtd:output.obj
 0001:00061910       ??1?$standard_base@_WV?$stream_output_adapter@_W@__crt_stdio_output@@@__crt_stdio_output@@QEAA@XZ 0000000180062910 f i libucrtd:output.obj
 0001:00061930       ??1?$standard_base@_WV?$string_output_adapter@_W@__crt_stdio_output@@@__crt_stdio_output@@QEAA@XZ 0000000180062930 f i libucrtd:output.obj
 0001:00061950       ??1_LocaleUpdate@@QEAA@XZ  0000000180062950 f i libucrtd:output.obj
 0001:00061980       ??1__acrt_stdio_temporary_buffering_guard@@QEAA@XZ 0000000180062980 f i libucrtd:output.obj
 0001:000619b0       ??1__crt_errno_guard@@QEAA@XZ 00000001800629b0 f i libucrtd:output.obj
 0001:000619e0       ??1formatting_buffer@__crt_stdio_output@@QEAA@XZ 00000001800629e0 f i libucrtd:output.obj
 0001:00061a10       ??4?$__crt_unique_heap_ptr@DU__crt_internal_free_policy@@@@QEAAAEAV0@$$QEAV0@@Z 0000000180062a10 f i libucrtd:output.obj
 0001:00061a50       ??A?$spectre_mitigated_lookup_table@Ustate_transition_pair@__crt_stdio_output@@$0IA@@__crt_stdio_output@@QEBAAEBUstate_transition_pair@1@_K@Z 0000000180062a50 f i libucrtd:output.obj
 0001:00061a70       ??C__crt_stdio_stream@@QEBAPEAU__crt_stdio_stream_data@@XZ 0000000180062a70 f i libucrtd:output.obj
 0001:00062320       ?GetLocaleT@_LocaleUpdate@@QEAAPEAU__crt_locale_pointers@@XZ 0000000180063320 f i libucrtd:output.obj
 0001:00062330       ?__crt_interlocked_read_32@@YAHPEDH@Z 0000000180063330 f i libucrtd:output.obj
 0001:00062350       ?adjust_hexit@?$output_processor@DV?$stream_output_adapter@D@__crt_stdio_output@@V?$format_validation_base@DV?$stream_output_adapter@D@__crt_stdio_output@@@2@@__crt_stdio_output@@CADH_N@Z 0000000180063350 f i libucrtd:output.obj
 0001:000623a0       ?adjust_hexit@?$output_processor@DV?$stream_output_adapter@D@__crt_stdio_output@@V?$positional_parameter_base@DV?$stream_output_adapter@D@__crt_stdio_output@@@2@@__crt_stdio_output@@CADH_N@Z 00000001800633a0 f i libucrtd:output.obj
 0001:000623f0       ?adjust_hexit@?$output_processor@DV?$stream_output_adapter@D@__crt_stdio_output@@V?$standard_base@DV?$stream_output_adapter@D@__crt_stdio_output@@@2@@__crt_stdio_output@@CADH_N@Z 00000001800633f0 f i libucrtd:output.obj
 0001:00062440       ?adjust_hexit@?$output_processor@DV?$string_output_adapter@D@__crt_stdio_output@@V?$format_validation_base@DV?$string_output_adapter@D@__crt_stdio_output@@@2@@__crt_stdio_output@@CADH_N@Z 0000000180063440 f i libucrtd:output.obj
 0001:00062490       ?adjust_hexit@?$output_processor@DV?$string_output_adapter@D@__crt_stdio_output@@V?$positional_parameter_base@DV?$string_output_adapter@D@__crt_stdio_output@@@2@@__crt_stdio_output@@CADH_N@Z 0000000180063490 f i libucrtd:output.obj
 0001:000624e0       ?adjust_hexit@?$output_processor@DV?$string_output_adapter@D@__crt_stdio_output@@V?$standard_base@DV?$string_output_adapter@D@__crt_stdio_output@@@2@@__crt_stdio_output@@CADH_N@Z 00000001800634e0 f i libucrtd:output.obj
 0001:00062530       ?adjust_hexit@?$output_processor@_WV?$stream_output_adapter@_W@__crt_stdio_output@@V?$format_validation_base@_WV?$stream_output_adapter@_W@__crt_stdio_output@@@2@@__crt_stdio_output@@CADH_N@Z 0000000180063530 f i libucrtd:output.obj
 0001:00062580       ?adjust_hexit@?$output_processor@_WV?$stream_output_adapter@_W@__crt_stdio_output@@V?$positional_parameter_base@_WV?$stream_output_adapter@_W@__crt_stdio_output@@@2@@__crt_stdio_output@@CADH_N@Z 0000000180063580 f i libucrtd:output.obj
 0001:000625d0       ?adjust_hexit@?$output_processor@_WV?$stream_output_adapter@_W@__crt_stdio_output@@V?$standard_base@_WV?$stream_output_adapter@_W@__crt_stdio_output@@@2@@__crt_stdio_output@@CADH_N@Z 00000001800635d0 f i libucrtd:output.obj
 0001:00062620       ?adjust_hexit@?$output_processor@_WV?$string_output_adapter@_W@__crt_stdio_output@@V?$format_validation_base@_WV?$string_output_adapter@_W@__crt_stdio_output@@@2@@__crt_stdio_output@@CADH_N@Z 0000000180063620 f i libucrtd:output.obj
 0001:00062670       ?adjust_hexit@?$output_processor@_WV?$string_output_adapter@_W@__crt_stdio_output@@V?$positional_parameter_base@_WV?$string_output_adapter@_W@__crt_stdio_output@@@2@@__crt_stdio_output@@CADH_N@Z 0000000180063670 f i libucrtd:output.obj
 0001:000626c0       ?adjust_hexit@?$output_processor@_WV?$string_output_adapter@_W@__crt_stdio_output@@V?$standard_base@_WV?$string_output_adapter@_W@__crt_stdio_output@@@2@@__crt_stdio_output@@CADH_N@Z 00000001800636c0 f i libucrtd:output.obj
 0001:00062710       ?advance_to_next_pass@?$positional_parameter_base@DV?$stream_output_adapter@D@__crt_stdio_output@@@__crt_stdio_output@@IEAA_NXZ 0000000180063710 f i libucrtd:output.obj
 0001:000627c0       ?advance_to_next_pass@?$positional_parameter_base@DV?$string_output_adapter@D@__crt_stdio_output@@@__crt_stdio_output@@IEAA_NXZ 00000001800637c0 f i libucrtd:output.obj
 0001:00062870       ?advance_to_next_pass@?$positional_parameter_base@_WV?$stream_output_adapter@_W@__crt_stdio_output@@@__crt_stdio_output@@IEAA_NXZ 0000000180063870 f i libucrtd:output.obj
 0001:00062920       ?advance_to_next_pass@?$positional_parameter_base@_WV?$string_output_adapter@_W@__crt_stdio_output@@@__crt_stdio_output@@IEAA_NXZ 0000000180063920 f i libucrtd:output.obj
 0001:000629d0       ?advance_to_next_pass@?$standard_base@DV?$stream_output_adapter@D@__crt_stdio_output@@@__crt_stdio_output@@IEAA_NXZ 00000001800639d0 f i libucrtd:output.obj
 0001:00062a20       ?advance_to_next_pass@?$standard_base@DV?$string_output_adapter@D@__crt_stdio_output@@@__crt_stdio_output@@IEAA_NXZ 0000000180063a20 f i libucrtd:output.obj
 0001:00062a70       ?advance_to_next_pass@?$standard_base@_WV?$stream_output_adapter@_W@__crt_stdio_output@@@__crt_stdio_output@@IEAA_NXZ 0000000180063a70 f i libucrtd:output.obj
 0001:00062ac0       ?advance_to_next_pass@?$standard_base@_WV?$string_output_adapter@_W@__crt_stdio_output@@@__crt_stdio_output@@IEAA_NXZ 0000000180063ac0 f i libucrtd:output.obj
 0001:00062b10       ?crop_zeroes@__crt_stdio_output@@YAXPEADQEAU__crt_locale_pointers@@@Z 0000000180063b10 f i libucrtd:output.obj
 0001:00062c50       ?find_next_state@?$output_processor@DV?$stream_output_adapter@D@__crt_stdio_output@@V?$format_validation_base@DV?$stream_output_adapter@D@__crt_stdio_output@@@2@@__crt_stdio_output@@AEBA?AW4state@2@DW432@@Z 0000000180063c50 f i libucrtd:output.obj
 0001:00062ce0       ?find_next_state@?$output_processor@DV?$stream_output_adapter@D@__crt_stdio_output@@V?$positional_parameter_base@DV?$stream_output_adapter@D@__crt_stdio_output@@@2@@__crt_stdio_output@@AEBA?AW4state@2@DW432@@Z 0000000180063ce0 f i libucrtd:output.obj
 0001:00062d70       ?find_next_state@?$output_processor@DV?$stream_output_adapter@D@__crt_stdio_output@@V?$standard_base@DV?$stream_output_adapter@D@__crt_stdio_output@@@2@@__crt_stdio_output@@AEBA?AW4state@2@DW432@@Z 0000000180063d70 f i libucrtd:output.obj
 0001:00062e00       ?find_next_state@?$output_processor@DV?$string_output_adapter@D@__crt_stdio_output@@V?$format_validation_base@DV?$string_output_adapter@D@__crt_stdio_output@@@2@@__crt_stdio_output@@AEBA?AW4state@2@DW432@@Z 0000000180063e00 f i libucrtd:output.obj
 0001:00062e90       ?find_next_state@?$output_processor@DV?$string_output_adapter@D@__crt_stdio_output@@V?$positional_parameter_base@DV?$string_output_adapter@D@__crt_stdio_output@@@2@@__crt_stdio_output@@AEBA?AW4state@2@DW432@@Z 0000000180063e90 f i libucrtd:output.obj
 0001:00062f20       ?find_next_state@?$output_processor@DV?$string_output_adapter@D@__crt_stdio_output@@V?$standard_base@DV?$string_output_adapter@D@__crt_stdio_output@@@2@@__crt_stdio_output@@AEBA?AW4state@2@DW432@@Z 0000000180063f20 f i libucrtd:output.obj
 0001:00062fb0       ?find_next_state@?$output_processor@_WV?$stream_output_adapter@_W@__crt_stdio_output@@V?$format_validation_base@_WV?$stream_output_adapter@_W@__crt_stdio_output@@@2@@__crt_stdio_output@@AEBA?AW4state@2@_WW432@@Z 0000000180063fb0 f i libucrtd:output.obj
 0001:00063040       ?find_next_state@?$output_processor@_WV?$stream_output_adapter@_W@__crt_stdio_output@@V?$positional_parameter_base@_WV?$stream_output_adapter@_W@__crt_stdio_output@@@2@@__crt_stdio_output@@AEBA?AW4state@2@_WW432@@Z 0000000180064040 f i libucrtd:output.obj
 0001:000630d0       ?find_next_state@?$output_processor@_WV?$stream_output_adapter@_W@__crt_stdio_output@@V?$standard_base@_WV?$stream_output_adapter@_W@__crt_stdio_output@@@2@@__crt_stdio_output@@AEBA?AW4state@2@_WW432@@Z 00000001800640d0 f i libucrtd:output.obj
 0001:00063160       ?find_next_state@?$output_processor@_WV?$string_output_adapter@_W@__crt_stdio_output@@V?$format_validation_base@_WV?$string_output_adapter@_W@__crt_stdio_output@@@2@@__crt_stdio_output@@AEBA?AW4state@2@_WW432@@Z 0000000180064160 f i libucrtd:output.obj
 0001:000631f0       ?find_next_state@?$output_processor@_WV?$string_output_adapter@_W@__crt_stdio_output@@V?$positional_parameter_base@_WV?$string_output_adapter@_W@__crt_stdio_output@@@2@@__crt_stdio_output@@AEBA?AW4state@2@_WW432@@Z 00000001800641f0 f i libucrtd:output.obj
 0001:00063280       ?find_next_state@?$output_processor@_WV?$string_output_adapter@_W@__crt_stdio_output@@V?$standard_base@_WV?$string_output_adapter@_W@__crt_stdio_output@@@2@@__crt_stdio_output@@AEBA?AW4state@2@_WW432@@Z 0000000180064280 f i libucrtd:output.obj
 0001:00063310       ?force_decimal_point@__crt_stdio_output@@YAXPEADQEAU__crt_locale_pointers@@@Z 0000000180064310 f i libucrtd:output.obj
 0001:00063410       ?get@__crt_deferred_errno_cache@@QEAAAEAHXZ 0000000180064410 f i libucrtd:output.obj
 0001:00063440       ?get_flags@__crt_stdio_stream@@QEBAJXZ 0000000180064440 f i libucrtd:output.obj
 0001:00063470       ?get_parameter_type@?$positional_parameter_base@DV?$stream_output_adapter@D@__crt_stdio_output@@@__crt_stdio_output@@CA?AW4parameter_type@12@F@Z 0000000180064470 f i libucrtd:output.obj
 0001:00063480       ?get_parameter_type@?$positional_parameter_base@DV?$stream_output_adapter@D@__crt_stdio_output@@@__crt_stdio_output@@CA?AW4parameter_type@12@G@Z 0000000180064480 f i libucrtd:output.obj
 0001:00063490       ?get_parameter_type@?$positional_parameter_base@DV?$stream_output_adapter@D@__crt_stdio_output@@@__crt_stdio_output@@CA?AW4parameter_type@12@H@Z 0000000180064490 f i libucrtd:output.obj
 0001:000634a0       ?get_parameter_type@?$positional_parameter_base@DV?$stream_output_adapter@D@__crt_stdio_output@@@__crt_stdio_output@@CA?AW4parameter_type@12@I@Z 00000001800644a0 f i libucrtd:output.obj
 0001:000634b0       ?get_parameter_type@?$positional_parameter_base@DV?$stream_output_adapter@D@__crt_stdio_output@@@__crt_stdio_output@@CA?AW4parameter_type@12@U_CRT_DOUBLE@@@Z 00000001800644b0 f i libucrtd:output.obj
 0001:000634c0       ?get_parameter_type@?$positional_parameter_base@DV?$stream_output_adapter@D@__crt_stdio_output@@@__crt_stdio_output@@CA?AW4parameter_type@12@_J@Z 00000001800644c0 f i libucrtd:output.obj
 0001:000634d0       ?get_parameter_type@?$positional_parameter_base@DV?$stream_output_adapter@D@__crt_stdio_output@@@__crt_stdio_output@@CA?AW4parameter_type@12@_K@Z 00000001800644d0 f i libucrtd:output.obj
 0001:000634e0       ?get_parameter_type@?$positional_parameter_base@DV?$stream_output_adapter@D@__crt_stdio_output@@@__crt_stdio_output@@CA?AW4parameter_type@12@_W@Z 00000001800644e0 f i libucrtd:output.obj
 0001:000634f0       ?get_parameter_type@?$positional_parameter_base@DV?$string_output_adapter@D@__crt_stdio_output@@@__crt_stdio_output@@CA?AW4parameter_type@12@F@Z 00000001800644f0 f i libucrtd:output.obj
 0001:00063500       ?get_parameter_type@?$positional_parameter_base@DV?$string_output_adapter@D@__crt_stdio_output@@@__crt_stdio_output@@CA?AW4parameter_type@12@G@Z 0000000180064500 f i libucrtd:output.obj
 0001:00063510       ?get_parameter_type@?$positional_parameter_base@DV?$string_output_adapter@D@__crt_stdio_output@@@__crt_stdio_output@@CA?AW4parameter_type@12@H@Z 0000000180064510 f i libucrtd:output.obj
 0001:00063520       ?get_parameter_type@?$positional_parameter_base@DV?$string_output_adapter@D@__crt_stdio_output@@@__crt_stdio_output@@CA?AW4parameter_type@12@I@Z 0000000180064520 f i libucrtd:output.obj
 0001:00063530       ?get_parameter_type@?$positional_parameter_base@DV?$string_output_adapter@D@__crt_stdio_output@@@__crt_stdio_output@@CA?AW4parameter_type@12@U_CRT_DOUBLE@@@Z 0000000180064530 f i libucrtd:output.obj
 0001:00063540       ?get_parameter_type@?$positional_parameter_base@DV?$string_output_adapter@D@__crt_stdio_output@@@__crt_stdio_output@@CA?AW4parameter_type@12@_J@Z 0000000180064540 f i libucrtd:output.obj
 0001:00063550       ?get_parameter_type@?$positional_parameter_base@DV?$string_output_adapter@D@__crt_stdio_output@@@__crt_stdio_output@@CA?AW4parameter_type@12@_K@Z 0000000180064550 f i libucrtd:output.obj
 0001:00063560       ?get_parameter_type@?$positional_parameter_base@DV?$string_output_adapter@D@__crt_stdio_output@@@__crt_stdio_output@@CA?AW4parameter_type@12@_W@Z 0000000180064560 f i libucrtd:output.obj
 0001:00063570       ?get_parameter_type@?$positional_parameter_base@_WV?$stream_output_adapter@_W@__crt_stdio_output@@@__crt_stdio_output@@CA?AW4parameter_type@12@F@Z 0000000180064570 f i libucrtd:output.obj
 0001:00063580       ?get_parameter_type@?$positional_parameter_base@_WV?$stream_output_adapter@_W@__crt_stdio_output@@@__crt_stdio_output@@CA?AW4parameter_type@12@G@Z 0000000180064580 f i libucrtd:output.obj
 0001:00063590       ?get_parameter_type@?$positional_parameter_base@_WV?$stream_output_adapter@_W@__crt_stdio_output@@@__crt_stdio_output@@CA?AW4parameter_type@12@H@Z 0000000180064590 f i libucrtd:output.obj
 0001:000635a0       ?get_parameter_type@?$positional_parameter_base@_WV?$stream_output_adapter@_W@__crt_stdio_output@@@__crt_stdio_output@@CA?AW4parameter_type@12@I@Z 00000001800645a0 f i libucrtd:output.obj
 0001:000635b0       ?get_parameter_type@?$positional_parameter_base@_WV?$stream_output_adapter@_W@__crt_stdio_output@@@__crt_stdio_output@@CA?AW4parameter_type@12@U_CRT_DOUBLE@@@Z 00000001800645b0 f i libucrtd:output.obj
 0001:000635c0       ?get_parameter_type@?$positional_parameter_base@_WV?$stream_output_adapter@_W@__crt_stdio_output@@@__crt_stdio_output@@CA?AW4parameter_type@12@_J@Z 00000001800645c0 f i libucrtd:output.obj
 0001:000635d0       ?get_parameter_type@?$positional_parameter_base@_WV?$stream_output_adapter@_W@__crt_stdio_output@@@__crt_stdio_output@@CA?AW4parameter_type@12@_K@Z 00000001800645d0 f i libucrtd:output.obj
 0001:000635e0       ?get_parameter_type@?$positional_parameter_base@_WV?$stream_output_adapter@_W@__crt_stdio_output@@@__crt_stdio_output@@CA?AW4parameter_type@12@_W@Z 00000001800645e0 f i libucrtd:output.obj
 0001:000635f0       ?get_parameter_type@?$positional_parameter_base@_WV?$string_output_adapter@_W@__crt_stdio_output@@@__crt_stdio_output@@CA?AW4parameter_type@12@F@Z 00000001800645f0 f i libucrtd:output.obj
 0001:00063600       ?get_parameter_type@?$positional_parameter_base@_WV?$string_output_adapter@_W@__crt_stdio_output@@@__crt_stdio_output@@CA?AW4parameter_type@12@G@Z 0000000180064600 f i libucrtd:output.obj
 0001:00063610       ?get_parameter_type@?$positional_parameter_base@_WV?$string_output_adapter@_W@__crt_stdio_output@@@__crt_stdio_output@@CA?AW4parameter_type@12@H@Z 0000000180064610 f i libucrtd:output.obj
 0001:00063620       ?get_parameter_type@?$positional_parameter_base@_WV?$string_output_adapter@_W@__crt_stdio_output@@@__crt_stdio_output@@CA?AW4parameter_type@12@I@Z 0000000180064620 f i libucrtd:output.obj
 0001:00063630       ?get_parameter_type@?$positional_parameter_base@_WV?$string_output_adapter@_W@__crt_stdio_output@@@__crt_stdio_output@@CA?AW4parameter_type@12@U_CRT_DOUBLE@@@Z 0000000180064630 f i libucrtd:output.obj
 0001:00063640       ?get_parameter_type@?$positional_parameter_base@_WV?$string_output_adapter@_W@__crt_stdio_output@@@__crt_stdio_output@@CA?AW4parameter_type@12@_J@Z 0000000180064640 f i libucrtd:output.obj
 0001:00063650       ?get_parameter_type@?$positional_parameter_base@_WV?$string_output_adapter@_W@__crt_stdio_output@@@__crt_stdio_output@@CA?AW4parameter_type@12@_K@Z 0000000180064650 f i libucrtd:output.obj
 0001:00063660       ?get_parameter_type@?$positional_parameter_base@_WV?$string_output_adapter@_W@__crt_stdio_output@@@__crt_stdio_output@@CA?AW4parameter_type@12@_W@Z 0000000180064660 f i libucrtd:output.obj
 0001:00063670       ?has_flag@?$output_processor@DV?$stream_output_adapter@D@__crt_stdio_output@@V?$format_validation_base@DV?$stream_output_adapter@D@__crt_stdio_output@@@2@@__crt_stdio_output@@AEBA_NI@Z 0000000180064670 f i libucrtd:output.obj
 0001:000636b0       ?has_flag@?$output_processor@DV?$stream_output_adapter@D@__crt_stdio_output@@V?$positional_parameter_base@DV?$stream_output_adapter@D@__crt_stdio_output@@@2@@__crt_stdio_output@@AEBA_NI@Z 00000001800646b0 f i libucrtd:output.obj
 0001:000636f0       ?has_flag@?$output_processor@DV?$stream_output_adapter@D@__crt_stdio_output@@V?$standard_base@DV?$stream_output_adapter@D@__crt_stdio_output@@@2@@__crt_stdio_output@@AEBA_NI@Z 00000001800646f0 f i libucrtd:output.obj
 0001:00063730       ?has_flag@?$output_processor@DV?$string_output_adapter@D@__crt_stdio_output@@V?$format_validation_base@DV?$string_output_adapter@D@__crt_stdio_output@@@2@@__crt_stdio_output@@AEBA_NI@Z 0000000180064730 f i libucrtd:output.obj
 0001:00063770       ?has_flag@?$output_processor@DV?$string_output_adapter@D@__crt_stdio_output@@V?$positional_parameter_base@DV?$string_output_adapter@D@__crt_stdio_output@@@2@@__crt_stdio_output@@AEBA_NI@Z 0000000180064770 f i libucrtd:output.obj
 0001:000637b0       ?has_flag@?$output_processor@DV?$string_output_adapter@D@__crt_stdio_output@@V?$standard_base@DV?$string_output_adapter@D@__crt_stdio_output@@@2@@__crt_stdio_output@@AEBA_NI@Z 00000001800647b0 f i libucrtd:output.obj
 0001:000637f0       ?has_flag@?$output_processor@_WV?$stream_output_adapter@_W@__crt_stdio_output@@V?$format_validation_base@_WV?$stream_output_adapter@_W@__crt_stdio_output@@@2@@__crt_stdio_output@@AEBA_NI@Z 00000001800647f0 f i libucrtd:output.obj
 0001:00063830       ?has_flag@?$output_processor@_WV?$stream_output_adapter@_W@__crt_stdio_output@@V?$positional_parameter_base@_WV?$stream_output_adapter@_W@__crt_stdio_output@@@2@@__crt_stdio_output@@AEBA_NI@Z 0000000180064830 f i libucrtd:output.obj
 0001:00063870       ?has_flag@?$output_processor@_WV?$stream_output_adapter@_W@__crt_stdio_output@@V?$standard_base@_WV?$stream_output_adapter@_W@__crt_stdio_output@@@2@@__crt_stdio_output@@AEBA_NI@Z 0000000180064870 f i libucrtd:output.obj
 0001:000638b0       ?has_flag@?$output_processor@_WV?$string_output_adapter@_W@__crt_stdio_output@@V?$format_validation_base@_WV?$string_output_adapter@_W@__crt_stdio_output@@@2@@__crt_stdio_output@@AEBA_NI@Z 00000001800648b0 f i libucrtd:output.obj
 0001:000638f0       ?has_flag@?$output_processor@_WV?$string_output_adapter@_W@__crt_stdio_output@@V?$positional_parameter_base@_WV?$string_output_adapter@_W@__crt_stdio_output@@@2@@__crt_stdio_output@@AEBA_NI@Z 00000001800648f0 f i libucrtd:output.obj
 0001:00063930       ?has_flag@?$output_processor@_WV?$string_output_adapter@_W@__crt_stdio_output@@V?$standard_base@_WV?$string_output_adapter@_W@__crt_stdio_output@@@2@@__crt_stdio_output@@AEBA_NI@Z 0000000180064930 f i libucrtd:output.obj
 0001:00063970       ?is_positional_parameter_reappearance_consistent@?$positional_parameter_base@DV?$stream_output_adapter@D@__crt_stdio_output@@@__crt_stdio_output@@AEAA_NAEBUparameter_data@12@W4parameter_type@12@DW4length_modifier@2@@Z 0000000180064970 f i libucrtd:output.obj
 0001:00063bd0       ?is_positional_parameter_reappearance_consistent@?$positional_parameter_base@DV?$string_output_adapter@D@__crt_stdio_output@@@__crt_stdio_output@@AEAA_NAEBUparameter_data@12@W4parameter_type@12@DW4length_modifier@2@@Z 0000000180064bd0 f i libucrtd:output.obj
 0001:00063e30       ?is_positional_parameter_reappearance_consistent@?$positional_parameter_base@_WV?$stream_output_adapter@_W@__crt_stdio_output@@@__crt_stdio_output@@AEAA_NAEBUparameter_data@12@W4parameter_type@12@_WW4length_modifier@2@@Z 0000000180064e30 f i libucrtd:output.obj
 0001:00064090       ?is_positional_parameter_reappearance_consistent@?$positional_parameter_base@_WV?$string_output_adapter@_W@__crt_stdio_output@@@__crt_stdio_output@@AEAA_NAEBUparameter_data@12@W4parameter_type@12@_WW4length_modifier@2@@Z 0000000180065090 f i libucrtd:output.obj
 0001:000642f0       ?is_string_backed@__crt_stdio_stream@@QEBA_NXZ 00000001800652f0 f i libucrtd:output.obj
 0001:00064330       ?narrow_null_string@?$output_processor@DV?$stream_output_adapter@D@__crt_stdio_output@@V?$format_validation_base@DV?$stream_output_adapter@D@__crt_stdio_output@@@2@@__crt_stdio_output@@CAPEADXZ 0000000180065330 f i libucrtd:output.obj
 0001:00064340       ?narrow_null_string@?$output_processor@DV?$stream_output_adapter@D@__crt_stdio_output@@V?$positional_parameter_base@DV?$stream_output_adapter@D@__crt_stdio_output@@@2@@__crt_stdio_output@@CAPEADXZ 0000000180065340 f i libucrtd:output.obj
 0001:00064350       ?narrow_null_string@?$output_processor@DV?$stream_output_adapter@D@__crt_stdio_output@@V?$standard_base@DV?$stream_output_adapter@D@__crt_stdio_output@@@2@@__crt_stdio_output@@CAPEADXZ 0000000180065350 f i libucrtd:output.obj
 0001:00064360       ?narrow_null_string@?$output_processor@DV?$string_output_adapter@D@__crt_stdio_output@@V?$format_validation_base@DV?$string_output_adapter@D@__crt_stdio_output@@@2@@__crt_stdio_output@@CAPEADXZ 0000000180065360 f i libucrtd:output.obj
 0001:00064370       ?narrow_null_string@?$output_processor@DV?$string_output_adapter@D@__crt_stdio_output@@V?$positional_parameter_base@DV?$string_output_adapter@D@__crt_stdio_output@@@2@@__crt_stdio_output@@CAPEADXZ 0000000180065370 f i libucrtd:output.obj
 0001:00064380       ?narrow_null_string@?$output_processor@DV?$string_output_adapter@D@__crt_stdio_output@@V?$standard_base@DV?$string_output_adapter@D@__crt_stdio_output@@@2@@__crt_stdio_output@@CAPEADXZ 0000000180065380 f i libucrtd:output.obj
 0001:00064390       ?narrow_null_string@?$output_processor@_WV?$stream_output_adapter@_W@__crt_stdio_output@@V?$format_validation_base@_WV?$stream_output_adapter@_W@__crt_stdio_output@@@2@@__crt_stdio_output@@CAPEADXZ 0000000180065390 f i libucrtd:output.obj
 0001:000643a0       ?narrow_null_string@?$output_processor@_WV?$stream_output_adapter@_W@__crt_stdio_output@@V?$positional_parameter_base@_WV?$stream_output_adapter@_W@__crt_stdio_output@@@2@@__crt_stdio_output@@CAPEADXZ 00000001800653a0 f i libucrtd:output.obj
 0001:000643b0       ?narrow_null_string@?$output_processor@_WV?$stream_output_adapter@_W@__crt_stdio_output@@V?$standard_base@_WV?$stream_output_adapter@_W@__crt_stdio_output@@@2@@__crt_stdio_output@@CAPEADXZ 00000001800653b0 f i libucrtd:output.obj
 0001:000643c0       ?narrow_null_string@?$output_processor@_WV?$string_output_adapter@_W@__crt_stdio_output@@V?$format_validation_base@_WV?$string_output_adapter@_W@__crt_stdio_output@@@2@@__crt_stdio_output@@CAPEADXZ 00000001800653c0 f i libucrtd:output.obj
 0001:000643d0       ?narrow_null_string@?$output_processor@_WV?$string_output_adapter@_W@__crt_stdio_output@@V?$positional_parameter_base@_WV?$string_output_adapter@_W@__crt_stdio_output@@@2@@__crt_stdio_output@@CAPEADXZ 00000001800653d0 f i libucrtd:output.obj
 0001:000643e0       ?narrow_null_string@?$output_processor@_WV?$string_output_adapter@_W@__crt_stdio_output@@V?$standard_base@_WV?$string_output_adapter@_W@__crt_stdio_output@@@2@@__crt_stdio_output@@CAPEADXZ 00000001800653e0 f i libucrtd:output.obj
 0001:000643f0       ?parse_int_from_format_string@?$output_processor@DV?$stream_output_adapter@D@__crt_stdio_output@@V?$format_validation_base@DV?$stream_output_adapter@D@__crt_stdio_output@@@2@@__crt_stdio_output@@AEAA_NQEAH@Z 00000001800653f0 f i libucrtd:output.obj
 0001:000644e0       ?parse_int_from_format_string@?$output_processor@DV?$stream_output_adapter@D@__crt_stdio_output@@V?$positional_parameter_base@DV?$stream_output_adapter@D@__crt_stdio_output@@@2@@__crt_stdio_output@@AEAA_NQEAH@Z 00000001800654e0 f i libucrtd:output.obj
 0001:000645d0       ?parse_int_from_format_string@?$output_processor@DV?$stream_output_adapter@D@__crt_stdio_output@@V?$standard_base@DV?$stream_output_adapter@D@__crt_stdio_output@@@2@@__crt_stdio_output@@AEAA_NQEAH@Z 00000001800655d0 f i libucrtd:output.obj
 0001:000646c0       ?parse_int_from_format_string@?$output_processor@DV?$string_output_adapter@D@__crt_stdio_output@@V?$format_validation_base@DV?$string_output_adapter@D@__crt_stdio_output@@@2@@__crt_stdio_output@@AEAA_NQEAH@Z 00000001800656c0 f i libucrtd:output.obj
 0001:000647b0       ?parse_int_from_format_string@?$output_processor@DV?$string_output_adapter@D@__crt_stdio_output@@V?$positional_parameter_base@DV?$string_output_adapter@D@__crt_stdio_output@@@2@@__crt_stdio_output@@AEAA_NQEAH@Z 00000001800657b0 f i libucrtd:output.obj
 0001:000648a0       ?parse_int_from_format_string@?$output_processor@DV?$string_output_adapter@D@__crt_stdio_output@@V?$standard_base@DV?$string_output_adapter@D@__crt_stdio_output@@@2@@__crt_stdio_output@@AEAA_NQEAH@Z 00000001800658a0 f i libucrtd:output.obj
 0001:00064990       ?parse_int_from_format_string@?$output_processor@_WV?$stream_output_adapter@_W@__crt_stdio_output@@V?$format_validation_base@_WV?$stream_output_adapter@_W@__crt_stdio_output@@@2@@__crt_stdio_output@@AEAA_NQEAH@Z 0000000180065990 f i libucrtd:output.obj
 0001:00064a80       ?parse_int_from_format_string@?$output_processor@_WV?$stream_output_adapter@_W@__crt_stdio_output@@V?$positional_parameter_base@_WV?$stream_output_adapter@_W@__crt_stdio_output@@@2@@__crt_stdio_output@@AEAA_NQEAH@Z 0000000180065a80 f i libucrtd:output.obj
 0001:00064b70       ?parse_int_from_format_string@?$output_processor@_WV?$stream_output_adapter@_W@__crt_stdio_output@@V?$standard_base@_WV?$stream_output_adapter@_W@__crt_stdio_output@@@2@@__crt_stdio_output@@AEAA_NQEAH@Z 0000000180065b70 f i libucrtd:output.obj
 0001:00064c60       ?parse_int_from_format_string@?$output_processor@_WV?$string_output_adapter@_W@__crt_stdio_output@@V?$format_validation_base@_WV?$string_output_adapter@_W@__crt_stdio_output@@@2@@__crt_stdio_output@@AEAA_NQEAH@Z 0000000180065c60 f i libucrtd:output.obj
 0001:00064d50       ?parse_int_from_format_string@?$output_processor@_WV?$string_output_adapter@_W@__crt_stdio_output@@V?$positional_parameter_base@_WV?$string_output_adapter@_W@__crt_stdio_output@@@2@@__crt_stdio_output@@AEAA_NQEAH@Z 0000000180065d50 f i libucrtd:output.obj
 0001:00064e40       ?parse_int_from_format_string@?$output_processor@_WV?$string_output_adapter@_W@__crt_stdio_output@@V?$standard_base@_WV?$string_output_adapter@_W@__crt_stdio_output@@@2@@__crt_stdio_output@@AEAA_NQEAH@Z 0000000180065e40 f i libucrtd:output.obj
 0001:00064f30       ?process@?$output_processor@DV?$stream_output_adapter@D@__crt_stdio_output@@V?$format_validation_base@DV?$stream_output_adapter@D@__crt_stdio_output@@@2@@__crt_stdio_output@@QEAAHXZ 0000000180065f30 f i libucrtd:output.obj
 0001:00065290       ?process@?$output_processor@DV?$stream_output_adapter@D@__crt_stdio_output@@V?$positional_parameter_base@DV?$stream_output_adapter@D@__crt_stdio_output@@@2@@__crt_stdio_output@@QEAAHXZ 0000000180066290 f i libucrtd:output.obj
 0001:000655f0       ?process@?$output_processor@DV?$stream_output_adapter@D@__crt_stdio_output@@V?$standard_base@DV?$stream_output_adapter@D@__crt_stdio_output@@@2@@__crt_stdio_output@@QEAAHXZ 00000001800665f0 f i libucrtd:output.obj
 0001:00065950       ?process@?$output_processor@DV?$string_output_adapter@D@__crt_stdio_output@@V?$format_validation_base@DV?$string_output_adapter@D@__crt_stdio_output@@@2@@__crt_stdio_output@@QEAAHXZ 0000000180066950 f i libucrtd:output.obj
 0001:00065cb0       ?process@?$output_processor@DV?$string_output_adapter@D@__crt_stdio_output@@V?$positional_parameter_base@DV?$string_output_adapter@D@__crt_stdio_output@@@2@@__crt_stdio_output@@QEAAHXZ 0000000180066cb0 f i libucrtd:output.obj
 0001:00066010       ?process@?$output_processor@DV?$string_output_adapter@D@__crt_stdio_output@@V?$standard_base@DV?$string_output_adapter@D@__crt_stdio_output@@@2@@__crt_stdio_output@@QEAAHXZ 0000000180067010 f i libucrtd:output.obj
 0001:00066370       ?process@?$output_processor@_WV?$stream_output_adapter@_W@__crt_stdio_output@@V?$format_validation_base@_WV?$stream_output_adapter@_W@__crt_stdio_output@@@2@@__crt_stdio_output@@QEAAHXZ 0000000180067370 f i libucrtd:output.obj
 0001:000666d0       ?process@?$output_processor@_WV?$stream_output_adapter@_W@__crt_stdio_output@@V?$positional_parameter_base@_WV?$stream_output_adapter@_W@__crt_stdio_output@@@2@@__crt_stdio_output@@QEAAHXZ 00000001800676d0 f i libucrtd:output.obj
 0001:00066a30       ?process@?$output_processor@_WV?$stream_output_adapter@_W@__crt_stdio_output@@V?$standard_base@_WV?$stream_output_adapter@_W@__crt_stdio_output@@@2@@__crt_stdio_output@@QEAAHXZ 0000000180067a30 f i libucrtd:output.obj
 0001:00066d90       ?process@?$output_processor@_WV?$string_output_adapter@_W@__crt_stdio_output@@V?$format_validation_base@_WV?$string_output_adapter@_W@__crt_stdio_output@@@2@@__crt_stdio_output@@QEAAHXZ 0000000180067d90 f i libucrtd:output.obj
 0001:000670f0       ?process@?$output_processor@_WV?$string_output_adapter@_W@__crt_stdio_output@@V?$positional_parameter_base@_WV?$string_output_adapter@_W@__crt_stdio_output@@@2@@__crt_stdio_output@@QEAAHXZ 00000001800680f0 f i libucrtd:output.obj
 0001:00067450       ?process@?$output_processor@_WV?$string_output_adapter@_W@__crt_stdio_output@@V?$standard_base@_WV?$string_output_adapter@_W@__crt_stdio_output@@@2@@__crt_stdio_output@@QEAAHXZ 0000000180068450 f i libucrtd:output.obj
 0001:000677b0       ?public_stream@__crt_stdio_stream@@QEBAPEAU_iobuf@@XZ 00000001800687b0 f i libucrtd:output.obj
 0001:000677c0       ?set_flag@?$output_processor@DV?$stream_output_adapter@D@__crt_stdio_output@@V?$format_validation_base@DV?$stream_output_adapter@D@__crt_stdio_output@@@2@@__crt_stdio_output@@AEAAXI@Z 00000001800687c0 f i libucrtd:output.obj
 0001:000677e0       ?set_flag@?$output_processor@DV?$stream_output_adapter@D@__crt_stdio_output@@V?$positional_parameter_base@DV?$stream_output_adapter@D@__crt_stdio_output@@@2@@__crt_stdio_output@@AEAAXI@Z 00000001800687e0 f i libucrtd:output.obj
 0001:00067800       ?set_flag@?$output_processor@DV?$stream_output_adapter@D@__crt_stdio_output@@V?$standard_base@DV?$stream_output_adapter@D@__crt_stdio_output@@@2@@__crt_stdio_output@@AEAAXI@Z 0000000180068800 f i libucrtd:output.obj
 0001:00067820       ?set_flag@?$output_processor@DV?$string_output_adapter@D@__crt_stdio_output@@V?$format_validation_base@DV?$string_output_adapter@D@__crt_stdio_output@@@2@@__crt_stdio_output@@AEAAXI@Z 0000000180068820 f i libucrtd:output.obj
 0001:00067840       ?set_flag@?$output_processor@DV?$string_output_adapter@D@__crt_stdio_output@@V?$positional_parameter_base@DV?$string_output_adapter@D@__crt_stdio_output@@@2@@__crt_stdio_output@@AEAAXI@Z 0000000180068840 f i libucrtd:output.obj
 0001:00067860       ?set_flag@?$output_processor@DV?$string_output_adapter@D@__crt_stdio_output@@V?$standard_base@DV?$string_output_adapter@D@__crt_stdio_output@@@2@@__crt_stdio_output@@AEAAXI@Z 0000000180068860 f i libucrtd:output.obj
 0001:00067880       ?set_flag@?$output_processor@_WV?$stream_output_adapter@_W@__crt_stdio_output@@V?$format_validation_base@_WV?$stream_output_adapter@_W@__crt_stdio_output@@@2@@__crt_stdio_output@@AEAAXI@Z 0000000180068880 f i libucrtd:output.obj
 0001:000678a0       ?set_flag@?$output_processor@_WV?$stream_output_adapter@_W@__crt_stdio_output@@V?$positional_parameter_base@_WV?$stream_output_adapter@_W@__crt_stdio_output@@@2@@__crt_stdio_output@@AEAAXI@Z 00000001800688a0 f i libucrtd:output.obj
 0001:000678c0       ?set_flag@?$output_processor@_WV?$stream_output_adapter@_W@__crt_stdio_output@@V?$standard_base@_WV?$stream_output_adapter@_W@__crt_stdio_output@@@2@@__crt_stdio_output@@AEAAXI@Z 00000001800688c0 f i libucrtd:output.obj
 0001:000678e0       ?set_flag@?$output_processor@_WV?$string_output_adapter@_W@__crt_stdio_output@@V?$format_validation_base@_WV?$string_output_adapter@_W@__crt_stdio_output@@@2@@__crt_stdio_output@@AEAAXI@Z 00000001800688e0 f i libucrtd:output.obj
 0001:00067900       ?set_flag@?$output_processor@_WV?$string_output_adapter@_W@__crt_stdio_output@@V?$positional_parameter_base@_WV?$string_output_adapter@_W@__crt_stdio_output@@@2@@__crt_stdio_output@@AEAAXI@Z 0000000180068900 f i libucrtd:output.obj
 0001:00067920       ?set_flag@?$output_processor@_WV?$string_output_adapter@_W@__crt_stdio_output@@V?$standard_base@_WV?$string_output_adapter@_W@__crt_stdio_output@@@2@@__crt_stdio_output@@AEAAXI@Z 0000000180068920 f i libucrtd:output.obj
 0001:00067940       ?should_format@?$positional_parameter_base@DV?$stream_output_adapter@D@__crt_stdio_output@@@__crt_stdio_output@@IEAA_NXZ 0000000180068940 f i libucrtd:output.obj
 0001:00067980       ?should_format@?$positional_parameter_base@DV?$string_output_adapter@D@__crt_stdio_output@@@__crt_stdio_output@@IEAA_NXZ 0000000180068980 f i libucrtd:output.obj
 0001:000679c0       ?should_format@?$positional_parameter_base@_WV?$stream_output_adapter@_W@__crt_stdio_output@@@__crt_stdio_output@@IEAA_NXZ 00000001800689c0 f i libucrtd:output.obj
 0001:00067a00       ?should_format@?$positional_parameter_base@_WV?$string_output_adapter@_W@__crt_stdio_output@@@__crt_stdio_output@@IEAA_NXZ 0000000180068a00 f i libucrtd:output.obj
 0001:00067a40       ?should_format@?$standard_base@DV?$stream_output_adapter@D@__crt_stdio_output@@@__crt_stdio_output@@IEAA_NXZ 0000000180068a40 f i libucrtd:output.obj
 0001:00067a50       ?should_format@?$standard_base@DV?$string_output_adapter@D@__crt_stdio_output@@@__crt_stdio_output@@IEAA_NXZ 0000000180068a50 f i libucrtd:output.obj
 0001:00067a60       ?should_format@?$standard_base@_WV?$stream_output_adapter@_W@__crt_stdio_output@@@__crt_stdio_output@@IEAA_NXZ 0000000180068a60 f i libucrtd:output.obj
 0001:00067a70       ?should_format@?$standard_base@_WV?$string_output_adapter@_W@__crt_stdio_output@@@__crt_stdio_output@@IEAA_NXZ 0000000180068a70 f i libucrtd:output.obj
 0001:00067a80       ?should_skip_normal_state_processing@?$positional_parameter_base@DV?$stream_output_adapter@D@__crt_stdio_output@@@__crt_stdio_output@@IEAA_NXZ 0000000180068a80 f i libucrtd:output.obj
 0001:00067ad0       ?should_skip_normal_state_processing@?$positional_parameter_base@DV?$string_output_adapter@D@__crt_stdio_output@@@__crt_stdio_output@@IEAA_NXZ 0000000180068ad0 f i libucrtd:output.obj
 0001:00067b20       ?should_skip_normal_state_processing@?$positional_parameter_base@_WV?$stream_output_adapter@_W@__crt_stdio_output@@@__crt_stdio_output@@IEAA_NXZ 0000000180068b20 f i libucrtd:output.obj
 0001:00067b70       ?should_skip_normal_state_processing@?$positional_parameter_base@_WV?$string_output_adapter@_W@__crt_stdio_output@@@__crt_stdio_output@@IEAA_NXZ 0000000180068b70 f i libucrtd:output.obj
 0001:00067bc0       ?should_skip_normal_state_processing@?$standard_base@DV?$stream_output_adapter@D@__crt_stdio_output@@@__crt_stdio_output@@IEAA_NXZ 0000000180068bc0 f i libucrtd:output.obj
 0001:00067bd0       ?should_skip_normal_state_processing@?$standard_base@DV?$string_output_adapter@D@__crt_stdio_output@@@__crt_stdio_output@@IEAA_NXZ 0000000180068bd0 f i libucrtd:output.obj
 0001:00067be0       ?should_skip_normal_state_processing@?$standard_base@_WV?$stream_output_adapter@_W@__crt_stdio_output@@@__crt_stdio_output@@IEAA_NXZ 0000000180068be0 f i libucrtd:output.obj
 0001:00067bf0       ?should_skip_normal_state_processing@?$standard_base@_WV?$string_output_adapter@_W@__crt_stdio_output@@@__crt_stdio_output@@IEAA_NXZ 0000000180068bf0 f i libucrtd:output.obj
 0001:00067c00       ?should_skip_type_state_output@?$positional_parameter_base@DV?$stream_output_adapter@D@__crt_stdio_output@@@__crt_stdio_output@@IEBA_NXZ 0000000180068c00 f i libucrtd:output.obj
 0001:00067c40       ?should_skip_type_state_output@?$positional_parameter_base@DV?$string_output_adapter@D@__crt_stdio_output@@@__crt_stdio_output@@IEBA_NXZ 0000000180068c40 f i libucrtd:output.obj
 0001:00067c80       ?should_skip_type_state_output@?$positional_parameter_base@_WV?$stream_output_adapter@_W@__crt_stdio_output@@@__crt_stdio_output@@IEBA_NXZ 0000000180068c80 f i libucrtd:output.obj
 0001:00067cc0       ?should_skip_type_state_output@?$positional_parameter_base@_WV?$string_output_adapter@_W@__crt_stdio_output@@@__crt_stdio_output@@IEBA_NXZ 0000000180068cc0 f i libucrtd:output.obj
 0001:00067d00       ?should_skip_type_state_output@?$standard_base@DV?$stream_output_adapter@D@__crt_stdio_output@@@__crt_stdio_output@@IEBA_NXZ 0000000180068d00 f i libucrtd:output.obj
 0001:00067d10       ?should_skip_type_state_output@?$standard_base@DV?$string_output_adapter@D@__crt_stdio_output@@@__crt_stdio_output@@IEBA_NXZ 0000000180068d10 f i libucrtd:output.obj
 0001:00067d20       ?should_skip_type_state_output@?$standard_base@_WV?$stream_output_adapter@_W@__crt_stdio_output@@@__crt_stdio_output@@IEBA_NXZ 0000000180068d20 f i libucrtd:output.obj
 0001:00067d30       ?should_skip_type_state_output@?$standard_base@_WV?$string_output_adapter@_W@__crt_stdio_output@@@__crt_stdio_output@@IEBA_NXZ 0000000180068d30 f i libucrtd:output.obj
 0001:00067d40       ?state_case_dot@?$output_processor@DV?$stream_output_adapter@D@__crt_stdio_output@@V?$format_validation_base@DV?$stream_output_adapter@D@__crt_stdio_output@@@2@@__crt_stdio_output@@AEAA_NXZ 0000000180068d40 f i libucrtd:output.obj
 0001:00067d60       ?state_case_dot@?$output_processor@DV?$stream_output_adapter@D@__crt_stdio_output@@V?$positional_parameter_base@DV?$stream_output_adapter@D@__crt_stdio_output@@@2@@__crt_stdio_output@@AEAA_NXZ 0000000180068d60 f i libucrtd:output.obj
 0001:00067d80       ?state_case_dot@?$output_processor@DV?$stream_output_adapter@D@__crt_stdio_output@@V?$standard_base@DV?$stream_output_adapter@D@__crt_stdio_output@@@2@@__crt_stdio_output@@AEAA_NXZ 0000000180068d80 f i libucrtd:output.obj
 0001:00067da0       ?state_case_dot@?$output_processor@DV?$string_output_adapter@D@__crt_stdio_output@@V?$format_validation_base@DV?$string_output_adapter@D@__crt_stdio_output@@@2@@__crt_stdio_output@@AEAA_NXZ 0000000180068da0 f i libucrtd:output.obj
 0001:00067dc0       ?state_case_dot@?$output_processor@DV?$string_output_adapter@D@__crt_stdio_output@@V?$positional_parameter_base@DV?$string_output_adapter@D@__crt_stdio_output@@@2@@__crt_stdio_output@@AEAA_NXZ 0000000180068dc0 f i libucrtd:output.obj
 0001:00067de0       ?state_case_dot@?$output_processor@DV?$string_output_adapter@D@__crt_stdio_output@@V?$standard_base@DV?$string_output_adapter@D@__crt_stdio_output@@@2@@__crt_stdio_output@@AEAA_NXZ 0000000180068de0 f i libucrtd:output.obj
 0001:00067e00       ?state_case_dot@?$output_processor@_WV?$stream_output_adapter@_W@__crt_stdio_output@@V?$format_validation_base@_WV?$stream_output_adapter@_W@__crt_stdio_output@@@2@@__crt_stdio_output@@AEAA_NXZ 0000000180068e00 f i libucrtd:output.obj
 0001:00067e20       ?state_case_dot@?$output_processor@_WV?$stream_output_adapter@_W@__crt_stdio_output@@V?$positional_parameter_base@_WV?$stream_output_adapter@_W@__crt_stdio_output@@@2@@__crt_stdio_output@@AEAA_NXZ 0000000180068e20 f i libucrtd:output.obj
 0001:00067e40       ?state_case_dot@?$output_processor@_WV?$stream_output_adapter@_W@__crt_stdio_output@@V?$standard_base@_WV?$stream_output_adapter@_W@__crt_stdio_output@@@2@@__crt_stdio_output@@AEAA_NXZ 0000000180068e40 f i libucrtd:output.obj
 0001:00067e60       ?state_case_dot@?$output_processor@_WV?$string_output_adapter@_W@__crt_stdio_output@@V?$format_validation_base@_WV?$string_output_adapter@_W@__crt_stdio_output@@@2@@__crt_stdio_output@@AEAA_NXZ 0000000180068e60 f i libucrtd:output.obj
 0001:00067e80       ?state_case_dot@?$output_processor@_WV?$string_output_adapter@_W@__crt_stdio_output@@V?$positional_parameter_base@_WV?$string_output_adapter@_W@__crt_stdio_output@@@2@@__crt_stdio_output@@AEAA_NXZ 0000000180068e80 f i libucrtd:output.obj
 0001:00067ea0       ?state_case_dot@?$output_processor@_WV?$string_output_adapter@_W@__crt_stdio_output@@V?$standard_base@_WV?$string_output_adapter@_W@__crt_stdio_output@@@2@@__crt_stdio_output@@AEAA_NXZ 0000000180068ea0 f i libucrtd:output.obj
 0001:00067ec0       ?state_case_flag@?$output_processor@DV?$stream_output_adapter@D@__crt_stdio_output@@V?$format_validation_base@DV?$stream_output_adapter@D@__crt_stdio_output@@@2@@__crt_stdio_output@@AEAA_NXZ 0000000180068ec0 f i libucrtd:output.obj
 0001:00067f60       ?state_case_flag@?$output_processor@DV?$stream_output_adapter@D@__crt_stdio_output@@V?$positional_parameter_base@DV?$stream_output_adapter@D@__crt_stdio_output@@@2@@__crt_stdio_output@@AEAA_NXZ 0000000180068f60 f i libucrtd:output.obj
 0001:00068000       ?state_case_flag@?$output_processor@DV?$stream_output_adapter@D@__crt_stdio_output@@V?$standard_base@DV?$stream_output_adapter@D@__crt_stdio_output@@@2@@__crt_stdio_output@@AEAA_NXZ 0000000180069000 f i libucrtd:output.obj
 0001:000680a0       ?state_case_flag@?$output_processor@DV?$string_output_adapter@D@__crt_stdio_output@@V?$format_validation_base@DV?$string_output_adapter@D@__crt_stdio_output@@@2@@__crt_stdio_output@@AEAA_NXZ 00000001800690a0 f i libucrtd:output.obj
 0001:00068140       ?state_case_flag@?$output_processor@DV?$string_output_adapter@D@__crt_stdio_output@@V?$positional_parameter_base@DV?$string_output_adapter@D@__crt_stdio_output@@@2@@__crt_stdio_output@@AEAA_NXZ 0000000180069140 f i libucrtd:output.obj
 0001:000681e0       ?state_case_flag@?$output_processor@DV?$string_output_adapter@D@__crt_stdio_output@@V?$standard_base@DV?$string_output_adapter@D@__crt_stdio_output@@@2@@__crt_stdio_output@@AEAA_NXZ 00000001800691e0 f i libucrtd:output.obj
 0001:00068280       ?state_case_flag@?$output_processor@_WV?$stream_output_adapter@_W@__crt_stdio_output@@V?$format_validation_base@_WV?$stream_output_adapter@_W@__crt_stdio_output@@@2@@__crt_stdio_output@@AEAA_NXZ 0000000180069280 f i libucrtd:output.obj
 0001:00068320       ?state_case_flag@?$output_processor@_WV?$stream_output_adapter@_W@__crt_stdio_output@@V?$positional_parameter_base@_WV?$stream_output_adapter@_W@__crt_stdio_output@@@2@@__crt_stdio_output@@AEAA_NXZ 0000000180069320 f i libucrtd:output.obj
 0001:000683c0       ?state_case_flag@?$output_processor@_WV?$stream_output_adapter@_W@__crt_stdio_output@@V?$standard_base@_WV?$stream_output_adapter@_W@__crt_stdio_output@@@2@@__crt_stdio_output@@AEAA_NXZ 00000001800693c0 f i libucrtd:output.obj
 0001:00068460       ?state_case_flag@?$output_processor@_WV?$string_output_adapter@_W@__crt_stdio_output@@V?$format_validation_base@_WV?$string_output_adapter@_W@__crt_stdio_output@@@2@@__crt_stdio_output@@AEAA_NXZ 0000000180069460 f i libucrtd:output.obj
 0001:00068500       ?state_case_flag@?$output_processor@_WV?$string_output_adapter@_W@__crt_stdio_output@@V?$positional_parameter_base@_WV?$string_output_adapter@_W@__crt_stdio_output@@@2@@__crt_stdio_output@@AEAA_NXZ 0000000180069500 f i libucrtd:output.obj
 0001:000685a0       ?state_case_flag@?$output_processor@_WV?$string_output_adapter@_W@__crt_stdio_output@@V?$standard_base@_WV?$string_output_adapter@_W@__crt_stdio_output@@@2@@__crt_stdio_output@@AEAA_NXZ 00000001800695a0 f i libucrtd:output.obj
 0001:00068640       ?state_case_normal@?$output_processor@DV?$stream_output_adapter@D@__crt_stdio_output@@V?$format_validation_base@DV?$stream_output_adapter@D@__crt_stdio_output@@@2@@__crt_stdio_output@@AEAA_NXZ 0000000180069640 f i libucrtd:output.obj
 0001:00068720       ?state_case_normal@?$output_processor@DV?$stream_output_adapter@D@__crt_stdio_output@@V?$positional_parameter_base@DV?$stream_output_adapter@D@__crt_stdio_output@@@2@@__crt_stdio_output@@AEAA_NXZ 0000000180069720 f i libucrtd:output.obj
 0001:00068800       ?state_case_normal@?$output_processor@DV?$stream_output_adapter@D@__crt_stdio_output@@V?$standard_base@DV?$stream_output_adapter@D@__crt_stdio_output@@@2@@__crt_stdio_output@@AEAA_NXZ 0000000180069800 f i libucrtd:output.obj
 0001:000688e0       ?state_case_normal@?$output_processor@DV?$string_output_adapter@D@__crt_stdio_output@@V?$format_validation_base@DV?$string_output_adapter@D@__crt_stdio_output@@@2@@__crt_stdio_output@@AEAA_NXZ 00000001800698e0 f i libucrtd:output.obj
 0001:000689c0       ?state_case_normal@?$output_processor@DV?$string_output_adapter@D@__crt_stdio_output@@V?$positional_parameter_base@DV?$string_output_adapter@D@__crt_stdio_output@@@2@@__crt_stdio_output@@AEAA_NXZ 00000001800699c0 f i libucrtd:output.obj
 0001:00068aa0       ?state_case_normal@?$output_processor@DV?$string_output_adapter@D@__crt_stdio_output@@V?$standard_base@DV?$string_output_adapter@D@__crt_stdio_output@@@2@@__crt_stdio_output@@AEAA_NXZ 0000000180069aa0 f i libucrtd:output.obj
 0001:00068b80       ?state_case_normal@?$output_processor@_WV?$stream_output_adapter@_W@__crt_stdio_output@@V?$format_validation_base@_WV?$stream_output_adapter@_W@__crt_stdio_output@@@2@@__crt_stdio_output@@AEAA_NXZ 0000000180069b80 f i libucrtd:output.obj
 0001:00068c60       ?state_case_normal@?$output_processor@_WV?$stream_output_adapter@_W@__crt_stdio_output@@V?$positional_parameter_base@_WV?$stream_output_adapter@_W@__crt_stdio_output@@@2@@__crt_stdio_output@@AEAA_NXZ 0000000180069c60 f i libucrtd:output.obj
 0001:00068d40       ?state_case_normal@?$output_processor@_WV?$stream_output_adapter@_W@__crt_stdio_output@@V?$standard_base@_WV?$stream_output_adapter@_W@__crt_stdio_output@@@2@@__crt_stdio_output@@AEAA_NXZ 0000000180069d40 f i libucrtd:output.obj
 0001:00068e20       ?state_case_normal@?$output_processor@_WV?$string_output_adapter@_W@__crt_stdio_output@@V?$format_validation_base@_WV?$string_output_adapter@_W@__crt_stdio_output@@@2@@__crt_stdio_output@@AEAA_NXZ 0000000180069e20 f i libucrtd:output.obj
 0001:00068f00       ?state_case_normal@?$output_processor@_WV?$string_output_adapter@_W@__crt_stdio_output@@V?$positional_parameter_base@_WV?$string_output_adapter@_W@__crt_stdio_output@@@2@@__crt_stdio_output@@AEAA_NXZ 0000000180069f00 f i libucrtd:output.obj
 0001:00068fe0       ?state_case_normal@?$output_processor@_WV?$string_output_adapter@_W@__crt_stdio_output@@V?$standard_base@_WV?$string_output_adapter@_W@__crt_stdio_output@@@2@@__crt_stdio_output@@AEAA_NXZ 0000000180069fe0 f i libucrtd:output.obj
 0001:000690c0       ?state_case_normal_common@?$output_processor@DV?$stream_output_adapter@D@__crt_stdio_output@@V?$format_validation_base@DV?$stream_output_adapter@D@__crt_stdio_output@@@2@@__crt_stdio_output@@AEAA_NXZ 000000018006a0c0 f i libucrtd:output.obj
 0001:00069110       ?state_case_normal_common@?$output_processor@DV?$stream_output_adapter@D@__crt_stdio_output@@V?$positional_parameter_base@DV?$stream_output_adapter@D@__crt_stdio_output@@@2@@__crt_stdio_output@@AEAA_NXZ 000000018006a110 f i libucrtd:output.obj
 0001:00069160       ?state_case_normal_common@?$output_processor@DV?$stream_output_adapter@D@__crt_stdio_output@@V?$standard_base@DV?$stream_output_adapter@D@__crt_stdio_output@@@2@@__crt_stdio_output@@AEAA_NXZ 000000018006a160 f i libucrtd:output.obj
 0001:000691b0       ?state_case_normal_common@?$output_processor@DV?$string_output_adapter@D@__crt_stdio_output@@V?$format_validation_base@DV?$string_output_adapter@D@__crt_stdio_output@@@2@@__crt_stdio_output@@AEAA_NXZ 000000018006a1b0 f i libucrtd:output.obj
 0001:00069200       ?state_case_normal_common@?$output_processor@DV?$string_output_adapter@D@__crt_stdio_output@@V?$positional_parameter_base@DV?$string_output_adapter@D@__crt_stdio_output@@@2@@__crt_stdio_output@@AEAA_NXZ 000000018006a200 f i libucrtd:output.obj
 0001:00069250       ?state_case_normal_common@?$output_processor@DV?$string_output_adapter@D@__crt_stdio_output@@V?$standard_base@DV?$string_output_adapter@D@__crt_stdio_output@@@2@@__crt_stdio_output@@AEAA_NXZ 000000018006a250 f i libucrtd:output.obj
 0001:000692a0       ?state_case_normal_common@?$output_processor@_WV?$stream_output_adapter@_W@__crt_stdio_output@@V?$format_validation_base@_WV?$stream_output_adapter@_W@__crt_stdio_output@@@2@@__crt_stdio_output@@AEAA_NXZ 000000018006a2a0 f i libucrtd:output.obj
 0001:000692f0       ?state_case_normal_common@?$output_processor@_WV?$stream_output_adapter@_W@__crt_stdio_output@@V?$positional_parameter_base@_WV?$stream_output_adapter@_W@__crt_stdio_output@@@2@@__crt_stdio_output@@AEAA_NXZ 000000018006a2f0 f i libucrtd:output.obj
 0001:00069340       ?state_case_normal_common@?$output_processor@_WV?$stream_output_adapter@_W@__crt_stdio_output@@V?$standard_base@_WV?$stream_output_adapter@_W@__crt_stdio_output@@@2@@__crt_stdio_output@@AEAA_NXZ 000000018006a340 f i libucrtd:output.obj
 0001:00069390       ?state_case_normal_common@?$output_processor@_WV?$string_output_adapter@_W@__crt_stdio_output@@V?$format_validation_base@_WV?$string_output_adapter@_W@__crt_stdio_output@@@2@@__crt_stdio_output@@AEAA_NXZ 000000018006a390 f i libucrtd:output.obj
 0001:000693e0       ?state_case_normal_common@?$output_processor@_WV?$string_output_adapter@_W@__crt_stdio_output@@V?$positional_parameter_base@_WV?$string_output_adapter@_W@__crt_stdio_output@@@2@@__crt_stdio_output@@AEAA_NXZ 000000018006a3e0 f i libucrtd:output.obj
 0001:00069430       ?state_case_normal_common@?$output_processor@_WV?$string_output_adapter@_W@__crt_stdio_output@@V?$standard_base@_WV?$string_output_adapter@_W@__crt_stdio_output@@@2@@__crt_stdio_output@@AEAA_NXZ 000000018006a430 f i libucrtd:output.obj
 0001:00069480       ?state_case_normal_tchar@?$output_processor@DV?$stream_output_adapter@D@__crt_stdio_output@@V?$format_validation_base@DV?$stream_output_adapter@D@__crt_stdio_output@@@2@@__crt_stdio_output@@AEAA_ND@Z 000000018006a480 f i libucrtd:output.obj
 0001:000695c0       ?state_case_normal_tchar@?$output_processor@DV?$stream_output_adapter@D@__crt_stdio_output@@V?$positional_parameter_base@DV?$stream_output_adapter@D@__crt_stdio_output@@@2@@__crt_stdio_output@@AEAA_ND@Z 000000018006a5c0 f i libucrtd:output.obj
 0001:00069700       ?state_case_normal_tchar@?$output_processor@DV?$stream_output_adapter@D@__crt_stdio_output@@V?$standard_base@DV?$stream_output_adapter@D@__crt_stdio_output@@@2@@__crt_stdio_output@@AEAA_ND@Z 000000018006a700 f i libucrtd:output.obj
 0001:00069840       ?state_case_normal_tchar@?$output_processor@DV?$string_output_adapter@D@__crt_stdio_output@@V?$format_validation_base@DV?$string_output_adapter@D@__crt_stdio_output@@@2@@__crt_stdio_output@@AEAA_ND@Z 000000018006a840 f i libucrtd:output.obj
 0001:00069980       ?state_case_normal_tchar@?$output_processor@DV?$string_output_adapter@D@__crt_stdio_output@@V?$positional_parameter_base@DV?$string_output_adapter@D@__crt_stdio_output@@@2@@__crt_stdio_output@@AEAA_ND@Z 000000018006a980 f i libucrtd:output.obj
 0001:00069ac0       ?state_case_normal_tchar@?$output_processor@DV?$string_output_adapter@D@__crt_stdio_output@@V?$standard_base@DV?$string_output_adapter@D@__crt_stdio_output@@@2@@__crt_stdio_output@@AEAA_ND@Z 000000018006aac0 f i libucrtd:output.obj
 0001:00069c00       ?state_case_normal_tchar@?$output_processor@_WV?$stream_output_adapter@_W@__crt_stdio_output@@V?$format_validation_base@_WV?$stream_output_adapter@_W@__crt_stdio_output@@@2@@__crt_stdio_output@@AEAA_N_W@Z 000000018006ac00 f i libucrtd:output.obj
 0001:00069c20       ?state_case_normal_tchar@?$output_processor@_WV?$stream_output_adapter@_W@__crt_stdio_output@@V?$positional_parameter_base@_WV?$stream_output_adapter@_W@__crt_stdio_output@@@2@@__crt_stdio_output@@AEAA_N_W@Z 000000018006ac20 f i libucrtd:output.obj
 0001:00069c40       ?state_case_normal_tchar@?$output_processor@_WV?$stream_output_adapter@_W@__crt_stdio_output@@V?$standard_base@_WV?$stream_output_adapter@_W@__crt_stdio_output@@@2@@__crt_stdio_output@@AEAA_N_W@Z 000000018006ac40 f i libucrtd:output.obj
 0001:00069c60       ?state_case_normal_tchar@?$output_processor@_WV?$string_output_adapter@_W@__crt_stdio_output@@V?$format_validation_base@_WV?$string_output_adapter@_W@__crt_stdio_output@@@2@@__crt_stdio_output@@AEAA_N_W@Z 000000018006ac60 f i libucrtd:output.obj
 0001:00069c80       ?state_case_normal_tchar@?$output_processor@_WV?$string_output_adapter@_W@__crt_stdio_output@@V?$positional_parameter_base@_WV?$string_output_adapter@_W@__crt_stdio_output@@@2@@__crt_stdio_output@@AEAA_N_W@Z 000000018006ac80 f i libucrtd:output.obj
 0001:00069ca0       ?state_case_normal_tchar@?$output_processor@_WV?$string_output_adapter@_W@__crt_stdio_output@@V?$standard_base@_WV?$string_output_adapter@_W@__crt_stdio_output@@@2@@__crt_stdio_output@@AEAA_N_W@Z 000000018006aca0 f i libucrtd:output.obj
 0001:00069cc0       ?state_case_percent@?$output_processor@DV?$stream_output_adapter@D@__crt_stdio_output@@V?$format_validation_base@DV?$stream_output_adapter@D@__crt_stdio_output@@@2@@__crt_stdio_output@@AEAA_NXZ 000000018006acc0 f i libucrtd:output.obj
 0001:00069d10       ?state_case_percent@?$output_processor@DV?$stream_output_adapter@D@__crt_stdio_output@@V?$positional_parameter_base@DV?$stream_output_adapter@D@__crt_stdio_output@@@2@@__crt_stdio_output@@AEAA_NXZ 000000018006ad10 f i libucrtd:output.obj
 0001:00069d60       ?state_case_percent@?$output_processor@DV?$stream_output_adapter@D@__crt_stdio_output@@V?$standard_base@DV?$stream_output_adapter@D@__crt_stdio_output@@@2@@__crt_stdio_output@@AEAA_NXZ 000000018006ad60 f i libucrtd:output.obj
 0001:00069db0       ?state_case_percent@?$output_processor@DV?$string_output_adapter@D@__crt_stdio_output@@V?$format_validation_base@DV?$string_output_adapter@D@__crt_stdio_output@@@2@@__crt_stdio_output@@AEAA_NXZ 000000018006adb0 f i libucrtd:output.obj
 0001:00069e00       ?state_case_percent@?$output_processor@DV?$string_output_adapter@D@__crt_stdio_output@@V?$positional_parameter_base@DV?$string_output_adapter@D@__crt_stdio_output@@@2@@__crt_stdio_output@@AEAA_NXZ 000000018006ae00 f i libucrtd:output.obj
 0001:00069e50       ?state_case_percent@?$output_processor@DV?$string_output_adapter@D@__crt_stdio_output@@V?$standard_base@DV?$string_output_adapter@D@__crt_stdio_output@@@2@@__crt_stdio_output@@AEAA_NXZ 000000018006ae50 f i libucrtd:output.obj
 0001:00069ea0       ?state_case_percent@?$output_processor@_WV?$stream_output_adapter@_W@__crt_stdio_output@@V?$format_validation_base@_WV?$stream_output_adapter@_W@__crt_stdio_output@@@2@@__crt_stdio_output@@AEAA_NXZ 000000018006aea0 f i libucrtd:output.obj
 0001:00069ef0       ?state_case_percent@?$output_processor@_WV?$stream_output_adapter@_W@__crt_stdio_output@@V?$positional_parameter_base@_WV?$stream_output_adapter@_W@__crt_stdio_output@@@2@@__crt_stdio_output@@AEAA_NXZ 000000018006aef0 f i libucrtd:output.obj
 0001:00069f40       ?state_case_percent@?$output_processor@_WV?$stream_output_adapter@_W@__crt_stdio_output@@V?$standard_base@_WV?$stream_output_adapter@_W@__crt_stdio_output@@@2@@__crt_stdio_output@@AEAA_NXZ 000000018006af40 f i libucrtd:output.obj
 0001:00069f90       ?state_case_percent@?$output_processor@_WV?$string_output_adapter@_W@__crt_stdio_output@@V?$format_validation_base@_WV?$string_output_adapter@_W@__crt_stdio_output@@@2@@__crt_stdio_output@@AEAA_NXZ 000000018006af90 f i libucrtd:output.obj
 0001:00069fe0       ?state_case_percent@?$output_processor@_WV?$string_output_adapter@_W@__crt_stdio_output@@V?$positional_parameter_base@_WV?$string_output_adapter@_W@__crt_stdio_output@@@2@@__crt_stdio_output@@AEAA_NXZ 000000018006afe0 f i libucrtd:output.obj
 0001:0006a030       ?state_case_percent@?$output_processor@_WV?$string_output_adapter@_W@__crt_stdio_output@@V?$standard_base@_WV?$string_output_adapter@_W@__crt_stdio_output@@@2@@__crt_stdio_output@@AEAA_NXZ 000000018006b030 f i libucrtd:output.obj
 0001:0006a080       ?state_case_precision@?$output_processor@DV?$stream_output_adapter@D@__crt_stdio_output@@V?$format_validation_base@DV?$stream_output_adapter@D@__crt_stdio_output@@@2@@__crt_stdio_output@@AEAA_NXZ 000000018006b080 f i libucrtd:output.obj
 0001:0006a100       ?state_case_precision@?$output_processor@DV?$stream_output_adapter@D@__crt_stdio_output@@V?$positional_parameter_base@DV?$stream_output_adapter@D@__crt_stdio_output@@@2@@__crt_stdio_output@@AEAA_NXZ 000000018006b100 f i libucrtd:output.obj
 0001:0006a180       ?state_case_precision@?$output_processor@DV?$stream_output_adapter@D@__crt_stdio_output@@V?$standard_base@DV?$stream_output_adapter@D@__crt_stdio_output@@@2@@__crt_stdio_output@@AEAA_NXZ 000000018006b180 f i libucrtd:output.obj
 0001:0006a200       ?state_case_precision@?$output_processor@DV?$string_output_adapter@D@__crt_stdio_output@@V?$format_validation_base@DV?$string_output_adapter@D@__crt_stdio_output@@@2@@__crt_stdio_output@@AEAA_NXZ 000000018006b200 f i libucrtd:output.obj
 0001:0006a280       ?state_case_precision@?$output_processor@DV?$string_output_adapter@D@__crt_stdio_output@@V?$positional_parameter_base@DV?$string_output_adapter@D@__crt_stdio_output@@@2@@__crt_stdio_output@@AEAA_NXZ 000000018006b280 f i libucrtd:output.obj
 0001:0006a300       ?state_case_precision@?$output_processor@DV?$string_output_adapter@D@__crt_stdio_output@@V?$standard_base@DV?$string_output_adapter@D@__crt_stdio_output@@@2@@__crt_stdio_output@@AEAA_NXZ 000000018006b300 f i libucrtd:output.obj
 0001:0006a380       ?state_case_precision@?$output_processor@_WV?$stream_output_adapter@_W@__crt_stdio_output@@V?$format_validation_base@_WV?$stream_output_adapter@_W@__crt_stdio_output@@@2@@__crt_stdio_output@@AEAA_NXZ 000000018006b380 f i libucrtd:output.obj
 0001:0006a400       ?state_case_precision@?$output_processor@_WV?$stream_output_adapter@_W@__crt_stdio_output@@V?$positional_parameter_base@_WV?$stream_output_adapter@_W@__crt_stdio_output@@@2@@__crt_stdio_output@@AEAA_NXZ 000000018006b400 f i libucrtd:output.obj
 0001:0006a480       ?state_case_precision@?$output_processor@_WV?$stream_output_adapter@_W@__crt_stdio_output@@V?$standard_base@_WV?$stream_output_adapter@_W@__crt_stdio_output@@@2@@__crt_stdio_output@@AEAA_NXZ 000000018006b480 f i libucrtd:output.obj
 0001:0006a500       ?state_case_precision@?$output_processor@_WV?$string_output_adapter@_W@__crt_stdio_output@@V?$format_validation_base@_WV?$string_output_adapter@_W@__crt_stdio_output@@@2@@__crt_stdio_output@@AEAA_NXZ 000000018006b500 f i libucrtd:output.obj
 0001:0006a580       ?state_case_precision@?$output_processor@_WV?$string_output_adapter@_W@__crt_stdio_output@@V?$positional_parameter_base@_WV?$string_output_adapter@_W@__crt_stdio_output@@@2@@__crt_stdio_output@@AEAA_NXZ 000000018006b580 f i libucrtd:output.obj
 0001:0006a600       ?state_case_precision@?$output_processor@_WV?$string_output_adapter@_W@__crt_stdio_output@@V?$standard_base@_WV?$string_output_adapter@_W@__crt_stdio_output@@@2@@__crt_stdio_output@@AEAA_NXZ 000000018006b600 f i libucrtd:output.obj
 0001:0006a680       ?state_case_size@?$output_processor@DV?$stream_output_adapter@D@__crt_stdio_output@@V?$format_validation_base@DV?$stream_output_adapter@D@__crt_stdio_output@@@2@@__crt_stdio_output@@AEAA_NXZ 000000018006b680 f i libucrtd:output.obj
 0001:0006ab00       ?state_case_size@?$output_processor@DV?$stream_output_adapter@D@__crt_stdio_output@@V?$positional_parameter_base@DV?$stream_output_adapter@D@__crt_stdio_output@@@2@@__crt_stdio_output@@AEAA_NXZ 000000018006bb00 f i libucrtd:output.obj
 0001:0006af80       ?state_case_size@?$output_processor@DV?$stream_output_adapter@D@__crt_stdio_output@@V?$standard_base@DV?$stream_output_adapter@D@__crt_stdio_output@@@2@@__crt_stdio_output@@AEAA_NXZ 000000018006bf80 f i libucrtd:output.obj
 0001:0006b400       ?state_case_size@?$output_processor@DV?$string_output_adapter@D@__crt_stdio_output@@V?$format_validation_base@DV?$string_output_adapter@D@__crt_stdio_output@@@2@@__crt_stdio_output@@AEAA_NXZ 000000018006c400 f i libucrtd:output.obj
 0001:0006b880       ?state_case_size@?$output_processor@DV?$string_output_adapter@D@__crt_stdio_output@@V?$positional_parameter_base@DV?$string_output_adapter@D@__crt_stdio_output@@@2@@__crt_stdio_output@@AEAA_NXZ 000000018006c880 f i libucrtd:output.obj
 0001:0006bd00       ?state_case_size@?$output_processor@DV?$string_output_adapter@D@__crt_stdio_output@@V?$standard_base@DV?$string_output_adapter@D@__crt_stdio_output@@@2@@__crt_stdio_output@@AEAA_NXZ 000000018006cd00 f i libucrtd:output.obj
 0001:0006c180       ?state_case_size@?$output_processor@_WV?$stream_output_adapter@_W@__crt_stdio_output@@V?$format_validation_base@_WV?$stream_output_adapter@_W@__crt_stdio_output@@@2@@__crt_stdio_output@@AEAA_NXZ 000000018006d180 f i libucrtd:output.obj
 0001:0006c600       ?state_case_size@?$output_processor@_WV?$stream_output_adapter@_W@__crt_stdio_output@@V?$positional_parameter_base@_WV?$stream_output_adapter@_W@__crt_stdio_output@@@2@@__crt_stdio_output@@AEAA_NXZ 000000018006d600 f i libucrtd:output.obj
 0001:0006ca80       ?state_case_size@?$output_processor@_WV?$stream_output_adapter@_W@__crt_stdio_output@@V?$standard_base@_WV?$stream_output_adapter@_W@__crt_stdio_output@@@2@@__crt_stdio_output@@AEAA_NXZ 000000018006da80 f i libucrtd:output.obj
 0001:0006cf00       ?state_case_size@?$output_processor@_WV?$string_output_adapter@_W@__crt_stdio_output@@V?$format_validation_base@_WV?$string_output_adapter@_W@__crt_stdio_output@@@2@@__crt_stdio_output@@AEAA_NXZ 000000018006df00 f i libucrtd:output.obj
 0001:0006d380       ?state_case_size@?$output_processor@_WV?$string_output_adapter@_W@__crt_stdio_output@@V?$positional_parameter_base@_WV?$string_output_adapter@_W@__crt_stdio_output@@@2@@__crt_stdio_output@@AEAA_NXZ 000000018006e380 f i libucrtd:output.obj
 0001:0006d800       ?state_case_size@?$output_processor@_WV?$string_output_adapter@_W@__crt_stdio_output@@V?$standard_base@_WV?$string_output_adapter@_W@__crt_stdio_output@@@2@@__crt_stdio_output@@AEAA_NXZ 000000018006e800 f i libucrtd:output.obj
 0001:0006dc80       ?state_case_type@?$output_processor@DV?$stream_output_adapter@D@__crt_stdio_output@@V?$format_validation_base@DV?$stream_output_adapter@D@__crt_stdio_output@@@2@@__crt_stdio_output@@AEAA_NXZ 000000018006ec80 f i libucrtd:output.obj
 0001:0006e120       ?state_case_type@?$output_processor@DV?$stream_output_adapter@D@__crt_stdio_output@@V?$positional_parameter_base@DV?$stream_output_adapter@D@__crt_stdio_output@@@2@@__crt_stdio_output@@AEAA_NXZ 000000018006f120 f i libucrtd:output.obj
 0001:0006e5c0       ?state_case_type@?$output_processor@DV?$stream_output_adapter@D@__crt_stdio_output@@V?$standard_base@DV?$stream_output_adapter@D@__crt_stdio_output@@@2@@__crt_stdio_output@@AEAA_NXZ 000000018006f5c0 f i libucrtd:output.obj
 0001:0006ea60       ?state_case_type@?$output_processor@DV?$string_output_adapter@D@__crt_stdio_output@@V?$format_validation_base@DV?$string_output_adapter@D@__crt_stdio_output@@@2@@__crt_stdio_output@@AEAA_NXZ 000000018006fa60 f i libucrtd:output.obj
 0001:0006ef00       ?state_case_type@?$output_processor@DV?$string_output_adapter@D@__crt_stdio_output@@V?$positional_parameter_base@DV?$string_output_adapter@D@__crt_stdio_output@@@2@@__crt_stdio_output@@AEAA_NXZ 000000018006ff00 f i libucrtd:output.obj
 0001:0006f3a0       ?state_case_type@?$output_processor@DV?$string_output_adapter@D@__crt_stdio_output@@V?$standard_base@DV?$string_output_adapter@D@__crt_stdio_output@@@2@@__crt_stdio_output@@AEAA_NXZ 00000001800703a0 f i libucrtd:output.obj
 0001:0006f840       ?state_case_type@?$output_processor@_WV?$stream_output_adapter@_W@__crt_stdio_output@@V?$format_validation_base@_WV?$stream_output_adapter@_W@__crt_stdio_output@@@2@@__crt_stdio_output@@AEAA_NXZ 0000000180070840 f i libucrtd:output.obj
 0001:0006fda0       ?state_case_type@?$output_processor@_WV?$stream_output_adapter@_W@__crt_stdio_output@@V?$positional_parameter_base@_WV?$stream_output_adapter@_W@__crt_stdio_output@@@2@@__crt_stdio_output@@AEAA_NXZ 0000000180070da0 f i libucrtd:output.obj
 0001:00070300       ?state_case_type@?$output_processor@_WV?$stream_output_adapter@_W@__crt_stdio_output@@V?$standard_base@_WV?$stream_output_adapter@_W@__crt_stdio_output@@@2@@__crt_stdio_output@@AEAA_NXZ 0000000180071300 f i libucrtd:output.obj
 0001:00070860       ?state_case_type@?$output_processor@_WV?$string_output_adapter@_W@__crt_stdio_output@@V?$format_validation_base@_WV?$string_output_adapter@_W@__crt_stdio_output@@@2@@__crt_stdio_output@@AEAA_NXZ 0000000180071860 f i libucrtd:output.obj
 0001:00070dc0       ?state_case_type@?$output_processor@_WV?$string_output_adapter@_W@__crt_stdio_output@@V?$positional_parameter_base@_WV?$string_output_adapter@_W@__crt_stdio_output@@@2@@__crt_stdio_output@@AEAA_NXZ 0000000180071dc0 f i libucrtd:output.obj
 0001:00071320       ?state_case_type@?$output_processor@_WV?$string_output_adapter@_W@__crt_stdio_output@@V?$standard_base@_WV?$string_output_adapter@_W@__crt_stdio_output@@@2@@__crt_stdio_output@@AEAA_NXZ 0000000180072320 f i libucrtd:output.obj
 0001:00071880       ?state_case_width@?$output_processor@DV?$stream_output_adapter@D@__crt_stdio_output@@V?$format_validation_base@DV?$stream_output_adapter@D@__crt_stdio_output@@@2@@__crt_stdio_output@@AEAA_NXZ 0000000180072880 f i libucrtd:output.obj
 0001:00071910       ?state_case_width@?$output_processor@DV?$stream_output_adapter@D@__crt_stdio_output@@V?$positional_parameter_base@DV?$stream_output_adapter@D@__crt_stdio_output@@@2@@__crt_stdio_output@@AEAA_NXZ 0000000180072910 f i libucrtd:output.obj
 0001:000719a0       ?state_case_width@?$output_processor@DV?$stream_output_adapter@D@__crt_stdio_output@@V?$standard_base@DV?$stream_output_adapter@D@__crt_stdio_output@@@2@@__crt_stdio_output@@AEAA_NXZ 00000001800729a0 f i libucrtd:output.obj
 0001:00071a30       ?state_case_width@?$output_processor@DV?$string_output_adapter@D@__crt_stdio_output@@V?$format_validation_base@DV?$string_output_adapter@D@__crt_stdio_output@@@2@@__crt_stdio_output@@AEAA_NXZ 0000000180072a30 f i libucrtd:output.obj
 0001:00071ac0       ?state_case_width@?$output_processor@DV?$string_output_adapter@D@__crt_stdio_output@@V?$positional_parameter_base@DV?$string_output_adapter@D@__crt_stdio_output@@@2@@__crt_stdio_output@@AEAA_NXZ 0000000180072ac0 f i libucrtd:output.obj
 0001:00071b50       ?state_case_width@?$output_processor@DV?$string_output_adapter@D@__crt_stdio_output@@V?$standard_base@DV?$string_output_adapter@D@__crt_stdio_output@@@2@@__crt_stdio_output@@AEAA_NXZ 0000000180072b50 f i libucrtd:output.obj
 0001:00071be0       ?state_case_width@?$output_processor@_WV?$stream_output_adapter@_W@__crt_stdio_output@@V?$format_validation_base@_WV?$stream_output_adapter@_W@__crt_stdio_output@@@2@@__crt_stdio_output@@AEAA_NXZ 0000000180072be0 f i libucrtd:output.obj
 0001:00071c70       ?state_case_width@?$output_processor@_WV?$stream_output_adapter@_W@__crt_stdio_output@@V?$positional_parameter_base@_WV?$stream_output_adapter@_W@__crt_stdio_output@@@2@@__crt_stdio_output@@AEAA_NXZ 0000000180072c70 f i libucrtd:output.obj
 0001:00071d00       ?state_case_width@?$output_processor@_WV?$stream_output_adapter@_W@__crt_stdio_output@@V?$standard_base@_WV?$stream_output_adapter@_W@__crt_stdio_output@@@2@@__crt_stdio_output@@AEAA_NXZ 0000000180072d00 f i libucrtd:output.obj
 0001:00071d90       ?state_case_width@?$output_processor@_WV?$string_output_adapter@_W@__crt_stdio_output@@V?$format_validation_base@_WV?$string_output_adapter@_W@__crt_stdio_output@@@2@@__crt_stdio_output@@AEAA_NXZ 0000000180072d90 f i libucrtd:output.obj
 0001:00071e20       ?state_case_width@?$output_processor@_WV?$string_output_adapter@_W@__crt_stdio_output@@V?$positional_parameter_base@_WV?$string_output_adapter@_W@__crt_stdio_output@@@2@@__crt_stdio_output@@AEAA_NXZ 0000000180072e20 f i libucrtd:output.obj
 0001:00071eb0       ?state_case_width@?$output_processor@_WV?$string_output_adapter@_W@__crt_stdio_output@@V?$standard_base@_WV?$string_output_adapter@_W@__crt_stdio_output@@@2@@__crt_stdio_output@@AEAA_NXZ 0000000180072eb0 f i libucrtd:output.obj
 0001:00071f40       ?state_count@?$format_validation_base@DV?$stream_output_adapter@D@__crt_stdio_output@@@__crt_stdio_output@@KAIXZ 0000000180072f40 f i libucrtd:output.obj
 0001:00071f50       ?state_count@?$format_validation_base@DV?$string_output_adapter@D@__crt_stdio_output@@@__crt_stdio_output@@KAIXZ 0000000180072f50 f i libucrtd:output.obj
 0001:00071f60       ?state_count@?$format_validation_base@_WV?$stream_output_adapter@_W@__crt_stdio_output@@@__crt_stdio_output@@KAIXZ 0000000180072f60 f i libucrtd:output.obj
 0001:00071f70       ?state_count@?$format_validation_base@_WV?$string_output_adapter@_W@__crt_stdio_output@@@__crt_stdio_output@@KAIXZ 0000000180072f70 f i libucrtd:output.obj
 0001:00071f80       ?state_count@?$standard_base@DV?$stream_output_adapter@D@__crt_stdio_output@@@__crt_stdio_output@@KAIXZ 0000000180072f80 f i libucrtd:output.obj
 0001:00071f90       ?state_count@?$standard_base@DV?$string_output_adapter@D@__crt_stdio_output@@@__crt_stdio_output@@KAIXZ 0000000180072f90 f i libucrtd:output.obj
 0001:00071fa0       ?state_count@?$standard_base@_WV?$stream_output_adapter@_W@__crt_stdio_output@@@__crt_stdio_output@@KAIXZ 0000000180072fa0 f i libucrtd:output.obj
 0001:00071fb0       ?state_count@?$standard_base@_WV?$string_output_adapter@_W@__crt_stdio_output@@@__crt_stdio_output@@KAIXZ 0000000180072fb0 f i libucrtd:output.obj
 0001:00071fc0       ?state_transition_table@?$format_validation_base@DV?$stream_output_adapter@D@__crt_stdio_output@@@__crt_stdio_output@@KAAEBV?$spectre_mitigated_lookup_table@Ustate_transition_pair@__crt_stdio_output@@$0IA@@2@XZ 0000000180072fc0 f i libucrtd:output.obj
 0001:00071fd0       ?state_transition_table@?$format_validation_base@DV?$string_output_adapter@D@__crt_stdio_output@@@__crt_stdio_output@@KAAEBV?$spectre_mitigated_lookup_table@Ustate_transition_pair@__crt_stdio_output@@$0IA@@2@XZ 0000000180072fd0 f i libucrtd:output.obj
 0001:00071fe0       ?state_transition_table@?$format_validation_base@_WV?$stream_output_adapter@_W@__crt_stdio_output@@@__crt_stdio_output@@KAAEBV?$spectre_mitigated_lookup_table@Ustate_transition_pair@__crt_stdio_output@@$0IA@@2@XZ 0000000180072fe0 f i libucrtd:output.obj
 0001:00071ff0       ?state_transition_table@?$format_validation_base@_WV?$string_output_adapter@_W@__crt_stdio_output@@@__crt_stdio_output@@KAAEBV?$spectre_mitigated_lookup_table@Ustate_transition_pair@__crt_stdio_output@@$0IA@@2@XZ 0000000180072ff0 f i libucrtd:output.obj
 0001:00072000       ?state_transition_table@?$standard_base@DV?$stream_output_adapter@D@__crt_stdio_output@@@__crt_stdio_output@@KAAEBV?$spectre_mitigated_lookup_table@Ustate_transition_pair@__crt_stdio_output@@$0IA@@2@XZ 0000000180073000 f i libucrtd:output.obj
 0001:00072010       ?state_transition_table@?$standard_base@DV?$string_output_adapter@D@__crt_stdio_output@@@__crt_stdio_output@@KAAEBV?$spectre_mitigated_lookup_table@Ustate_transition_pair@__crt_stdio_output@@$0IA@@2@XZ 0000000180073010 f i libucrtd:output.obj
 0001:00072020       ?state_transition_table@?$standard_base@_WV?$stream_output_adapter@_W@__crt_stdio_output@@@__crt_stdio_output@@KAAEBV?$spectre_mitigated_lookup_table@Ustate_transition_pair@__crt_stdio_output@@$0IA@@2@XZ 0000000180073020 f i libucrtd:output.obj
 0001:00072030       ?state_transition_table@?$standard_base@_WV?$string_output_adapter@_W@__crt_stdio_output@@@__crt_stdio_output@@KAAEBV?$spectre_mitigated_lookup_table@Ustate_transition_pair@__crt_stdio_output@@$0IA@@2@XZ 0000000180073030 f i libucrtd:output.obj
 0001:00072040       ?tchar_string@?$common_data@D@__crt_stdio_output@@IEAAAEAPEADD@Z 0000000180073040 f i libucrtd:output.obj
 0001:00072060       ?tchar_string@?$common_data@D@__crt_stdio_output@@IEAAAEAPEADXZ 0000000180073060 f i libucrtd:output.obj
 0001:00072080       ?tchar_string@?$common_data@_W@__crt_stdio_output@@IEAAAEAPEA_WXZ 0000000180073080 f i libucrtd:output.obj
 0001:000720a0       ?tchar_string@?$common_data@_W@__crt_stdio_output@@IEAAAEAPEA_W_W@Z 00000001800730a0 f i libucrtd:output.obj
 0001:000720c0       ?to_integer_size@__crt_stdio_output@@YA_KW4length_modifier@1@@Z 00000001800730c0 f i libucrtd:output.obj
 0001:00072170       ?type_case_X@?$output_processor@DV?$stream_output_adapter@D@__crt_stdio_output@@V?$format_validation_base@DV?$stream_output_adapter@D@__crt_stdio_output@@@2@@__crt_stdio_output@@AEAA_NXZ 0000000180073170 f i libucrtd:output.obj
 0001:00072190       ?type_case_X@?$output_processor@DV?$stream_output_adapter@D@__crt_stdio_output@@V?$positional_parameter_base@DV?$stream_output_adapter@D@__crt_stdio_output@@@2@@__crt_stdio_output@@AEAA_NXZ 0000000180073190 f i libucrtd:output.obj
 0001:000721b0       ?type_case_X@?$output_processor@DV?$stream_output_adapter@D@__crt_stdio_output@@V?$standard_base@DV?$stream_output_adapter@D@__crt_stdio_output@@@2@@__crt_stdio_output@@AEAA_NXZ 00000001800731b0 f i libucrtd:output.obj
 0001:000721d0       ?type_case_X@?$output_processor@DV?$string_output_adapter@D@__crt_stdio_output@@V?$format_validation_base@DV?$string_output_adapter@D@__crt_stdio_output@@@2@@__crt_stdio_output@@AEAA_NXZ 00000001800731d0 f i libucrtd:output.obj
 0001:000721f0       ?type_case_X@?$output_processor@DV?$string_output_adapter@D@__crt_stdio_output@@V?$positional_parameter_base@DV?$string_output_adapter@D@__crt_stdio_output@@@2@@__crt_stdio_output@@AEAA_NXZ 00000001800731f0 f i libucrtd:output.obj
 0001:00072210       ?type_case_X@?$output_processor@DV?$string_output_adapter@D@__crt_stdio_output@@V?$standard_base@DV?$string_output_adapter@D@__crt_stdio_output@@@2@@__crt_stdio_output@@AEAA_NXZ 0000000180073210 f i libucrtd:output.obj
 0001:00072230       ?type_case_X@?$output_processor@_WV?$stream_output_adapter@_W@__crt_stdio_output@@V?$format_validation_base@_WV?$stream_output_adapter@_W@__crt_stdio_output@@@2@@__crt_stdio_output@@AEAA_NXZ 0000000180073230 f i libucrtd:output.obj
 0001:00072250       ?type_case_X@?$output_processor@_WV?$stream_output_adapter@_W@__crt_stdio_output@@V?$positional_parameter_base@_WV?$stream_output_adapter@_W@__crt_stdio_output@@@2@@__crt_stdio_output@@AEAA_NXZ 0000000180073250 f i libucrtd:output.obj
 0001:00072270       ?type_case_X@?$output_processor@_WV?$stream_output_adapter@_W@__crt_stdio_output@@V?$standard_base@_WV?$stream_output_adapter@_W@__crt_stdio_output@@@2@@__crt_stdio_output@@AEAA_NXZ 0000000180073270 f i libucrtd:output.obj
 0001:00072290       ?type_case_X@?$output_processor@_WV?$string_output_adapter@_W@__crt_stdio_output@@V?$format_validation_base@_WV?$string_output_adapter@_W@__crt_stdio_output@@@2@@__crt_stdio_output@@AEAA_NXZ 0000000180073290 f i libucrtd:output.obj
 0001:000722b0       ?type_case_X@?$output_processor@_WV?$string_output_adapter@_W@__crt_stdio_output@@V?$positional_parameter_base@_WV?$string_output_adapter@_W@__crt_stdio_output@@@2@@__crt_stdio_output@@AEAA_NXZ 00000001800732b0 f i libucrtd:output.obj
 0001:000722d0       ?type_case_X@?$output_processor@_WV?$string_output_adapter@_W@__crt_stdio_output@@V?$standard_base@_WV?$string_output_adapter@_W@__crt_stdio_output@@@2@@__crt_stdio_output@@AEAA_NXZ 00000001800732d0 f i libucrtd:output.obj
 0001:000722f0       ?type_case_Z@?$output_processor@DV?$stream_output_adapter@D@__crt_stdio_output@@V?$format_validation_base@DV?$stream_output_adapter@D@__crt_stdio_output@@@2@@__crt_stdio_output@@AEAA_NXZ 00000001800732f0 f i libucrtd:output.obj
 0001:00072410       ?type_case_Z@?$output_processor@DV?$stream_output_adapter@D@__crt_stdio_output@@V?$positional_parameter_base@DV?$stream_output_adapter@D@__crt_stdio_output@@@2@@__crt_stdio_output@@AEAA_NXZ 0000000180073410 f i libucrtd:output.obj
 0001:00072530       ?type_case_Z@?$output_processor@DV?$stream_output_adapter@D@__crt_stdio_output@@V?$standard_base@DV?$stream_output_adapter@D@__crt_stdio_output@@@2@@__crt_stdio_output@@AEAA_NXZ 0000000180073530 f i libucrtd:output.obj
 0001:00072650       ?type_case_Z@?$output_processor@DV?$string_output_adapter@D@__crt_stdio_output@@V?$format_validation_base@DV?$string_output_adapter@D@__crt_stdio_output@@@2@@__crt_stdio_output@@AEAA_NXZ 0000000180073650 f i libucrtd:output.obj
 0001:00072770       ?type_case_Z@?$output_processor@DV?$string_output_adapter@D@__crt_stdio_output@@V?$positional_parameter_base@DV?$string_output_adapter@D@__crt_stdio_output@@@2@@__crt_stdio_output@@AEAA_NXZ 0000000180073770 f i libucrtd:output.obj
 0001:00072890       ?type_case_Z@?$output_processor@DV?$string_output_adapter@D@__crt_stdio_output@@V?$standard_base@DV?$string_output_adapter@D@__crt_stdio_output@@@2@@__crt_stdio_output@@AEAA_NXZ 0000000180073890 f i libucrtd:output.obj
 0001:000729b0       ?type_case_Z@?$output_processor@_WV?$stream_output_adapter@_W@__crt_stdio_output@@V?$format_validation_base@_WV?$stream_output_adapter@_W@__crt_stdio_output@@@2@@__crt_stdio_output@@AEAA_NXZ 00000001800739b0 f i libucrtd:output.obj
 0001:00072ad0       ?type_case_Z@?$output_processor@_WV?$stream_output_adapter@_W@__crt_stdio_output@@V?$positional_parameter_base@_WV?$stream_output_adapter@_W@__crt_stdio_output@@@2@@__crt_stdio_output@@AEAA_NXZ 0000000180073ad0 f i libucrtd:output.obj
 0001:00072bf0       ?type_case_Z@?$output_processor@_WV?$stream_output_adapter@_W@__crt_stdio_output@@V?$standard_base@_WV?$stream_output_adapter@_W@__crt_stdio_output@@@2@@__crt_stdio_output@@AEAA_NXZ 0000000180073bf0 f i libucrtd:output.obj
 0001:00072d10       ?type_case_Z@?$output_processor@_WV?$string_output_adapter@_W@__crt_stdio_output@@V?$format_validation_base@_WV?$string_output_adapter@_W@__crt_stdio_output@@@2@@__crt_stdio_output@@AEAA_NXZ 0000000180073d10 f i libucrtd:output.obj
 0001:00072e30       ?type_case_Z@?$output_processor@_WV?$string_output_adapter@_W@__crt_stdio_output@@V?$positional_parameter_base@_WV?$string_output_adapter@_W@__crt_stdio_output@@@2@@__crt_stdio_output@@AEAA_NXZ 0000000180073e30 f i libucrtd:output.obj
 0001:00072f50       ?type_case_Z@?$output_processor@_WV?$string_output_adapter@_W@__crt_stdio_output@@V?$standard_base@_WV?$string_output_adapter@_W@__crt_stdio_output@@@2@@__crt_stdio_output@@AEAA_NXZ 0000000180073f50 f i libucrtd:output.obj
 0001:00073070       ?type_case_a@?$output_processor@DV?$stream_output_adapter@D@__crt_stdio_output@@V?$format_validation_base@DV?$stream_output_adapter@D@__crt_stdio_output@@@2@@__crt_stdio_output@@AEAA_NXZ 0000000180074070 f i libucrtd:output.obj
 0001:00073440       ?type_case_a@?$output_processor@DV?$stream_output_adapter@D@__crt_stdio_output@@V?$positional_parameter_base@DV?$stream_output_adapter@D@__crt_stdio_output@@@2@@__crt_stdio_output@@AEAA_NXZ 0000000180074440 f i libucrtd:output.obj
 0001:00073810       ?type_case_a@?$output_processor@DV?$stream_output_adapter@D@__crt_stdio_output@@V?$standard_base@DV?$stream_output_adapter@D@__crt_stdio_output@@@2@@__crt_stdio_output@@AEAA_NXZ 0000000180074810 f i libucrtd:output.obj
 0001:00073be0       ?type_case_a@?$output_processor@DV?$string_output_adapter@D@__crt_stdio_output@@V?$format_validation_base@DV?$string_output_adapter@D@__crt_stdio_output@@@2@@__crt_stdio_output@@AEAA_NXZ 0000000180074be0 f i libucrtd:output.obj
 0001:00073fb0       ?type_case_a@?$output_processor@DV?$string_output_adapter@D@__crt_stdio_output@@V?$positional_parameter_base@DV?$string_output_adapter@D@__crt_stdio_output@@@2@@__crt_stdio_output@@AEAA_NXZ 0000000180074fb0 f i libucrtd:output.obj
 0001:00074380       ?type_case_a@?$output_processor@DV?$string_output_adapter@D@__crt_stdio_output@@V?$standard_base@DV?$string_output_adapter@D@__crt_stdio_output@@@2@@__crt_stdio_output@@AEAA_NXZ 0000000180075380 f i libucrtd:output.obj
 0001:00074750       ?type_case_a@?$output_processor@_WV?$stream_output_adapter@_W@__crt_stdio_output@@V?$format_validation_base@_WV?$stream_output_adapter@_W@__crt_stdio_output@@@2@@__crt_stdio_output@@AEAA_NXZ 0000000180075750 f i libucrtd:output.obj
 0001:00074b20       ?type_case_a@?$output_processor@_WV?$stream_output_adapter@_W@__crt_stdio_output@@V?$positional_parameter_base@_WV?$stream_output_adapter@_W@__crt_stdio_output@@@2@@__crt_stdio_output@@AEAA_NXZ 0000000180075b20 f i libucrtd:output.obj
 0001:00074ef0       ?type_case_a@?$output_processor@_WV?$stream_output_adapter@_W@__crt_stdio_output@@V?$standard_base@_WV?$stream_output_adapter@_W@__crt_stdio_output@@@2@@__crt_stdio_output@@AEAA_NXZ 0000000180075ef0 f i libucrtd:output.obj
 0001:000752c0       ?type_case_a@?$output_processor@_WV?$string_output_adapter@_W@__crt_stdio_output@@V?$format_validation_base@_WV?$string_output_adapter@_W@__crt_stdio_output@@@2@@__crt_stdio_output@@AEAA_NXZ 00000001800762c0 f i libucrtd:output.obj
 0001:00075690       ?type_case_a@?$output_processor@_WV?$string_output_adapter@_W@__crt_stdio_output@@V?$positional_parameter_base@_WV?$string_output_adapter@_W@__crt_stdio_output@@@2@@__crt_stdio_output@@AEAA_NXZ 0000000180076690 f i libucrtd:output.obj
 0001:00075a60       ?type_case_a@?$output_processor@_WV?$string_output_adapter@_W@__crt_stdio_output@@V?$standard_base@_WV?$string_output_adapter@_W@__crt_stdio_output@@@2@@__crt_stdio_output@@AEAA_NXZ 0000000180076a60 f i libucrtd:output.obj
 0001:00075e30       ?type_case_c@?$output_processor@DV?$stream_output_adapter@D@__crt_stdio_output@@V?$format_validation_base@DV?$stream_output_adapter@D@__crt_stdio_output@@@2@@__crt_stdio_output@@AEAA_NXZ 0000000180076e30 f i libucrtd:output.obj
 0001:00075e50       ?type_case_c@?$output_processor@DV?$stream_output_adapter@D@__crt_stdio_output@@V?$positional_parameter_base@DV?$stream_output_adapter@D@__crt_stdio_output@@@2@@__crt_stdio_output@@AEAA_NXZ 0000000180076e50 f i libucrtd:output.obj
 0001:00075e70       ?type_case_c@?$output_processor@DV?$stream_output_adapter@D@__crt_stdio_output@@V?$standard_base@DV?$stream_output_adapter@D@__crt_stdio_output@@@2@@__crt_stdio_output@@AEAA_NXZ 0000000180076e70 f i libucrtd:output.obj
 0001:00075e90       ?type_case_c@?$output_processor@DV?$string_output_adapter@D@__crt_stdio_output@@V?$format_validation_base@DV?$string_output_adapter@D@__crt_stdio_output@@@2@@__crt_stdio_output@@AEAA_NXZ 0000000180076e90 f i libucrtd:output.obj
 0001:00075eb0       ?type_case_c@?$output_processor@DV?$string_output_adapter@D@__crt_stdio_output@@V?$positional_parameter_base@DV?$string_output_adapter@D@__crt_stdio_output@@@2@@__crt_stdio_output@@AEAA_NXZ 0000000180076eb0 f i libucrtd:output.obj
 0001:00075ed0       ?type_case_c@?$output_processor@DV?$string_output_adapter@D@__crt_stdio_output@@V?$standard_base@DV?$string_output_adapter@D@__crt_stdio_output@@@2@@__crt_stdio_output@@AEAA_NXZ 0000000180076ed0 f i libucrtd:output.obj
 0001:00075ef0       ?type_case_c@?$output_processor@_WV?$stream_output_adapter@_W@__crt_stdio_output@@V?$format_validation_base@_WV?$stream_output_adapter@_W@__crt_stdio_output@@@2@@__crt_stdio_output@@AEAA_NXZ 0000000180076ef0 f i libucrtd:output.obj
 0001:00075f10       ?type_case_c@?$output_processor@_WV?$stream_output_adapter@_W@__crt_stdio_output@@V?$positional_parameter_base@_WV?$stream_output_adapter@_W@__crt_stdio_output@@@2@@__crt_stdio_output@@AEAA_NXZ 0000000180076f10 f i libucrtd:output.obj
 0001:00075f30       ?type_case_c@?$output_processor@_WV?$stream_output_adapter@_W@__crt_stdio_output@@V?$standard_base@_WV?$stream_output_adapter@_W@__crt_stdio_output@@@2@@__crt_stdio_output@@AEAA_NXZ 0000000180076f30 f i libucrtd:output.obj
 0001:00075f50       ?type_case_c@?$output_processor@_WV?$string_output_adapter@_W@__crt_stdio_output@@V?$format_validation_base@_WV?$string_output_adapter@_W@__crt_stdio_output@@@2@@__crt_stdio_output@@AEAA_NXZ 0000000180076f50 f i libucrtd:output.obj
 0001:00075f70       ?type_case_c@?$output_processor@_WV?$string_output_adapter@_W@__crt_stdio_output@@V?$positional_parameter_base@_WV?$string_output_adapter@_W@__crt_stdio_output@@@2@@__crt_stdio_output@@AEAA_NXZ 0000000180076f70 f i libucrtd:output.obj
 0001:00075f90       ?type_case_c@?$output_processor@_WV?$string_output_adapter@_W@__crt_stdio_output@@V?$standard_base@_WV?$string_output_adapter@_W@__crt_stdio_output@@@2@@__crt_stdio_output@@AEAA_NXZ 0000000180076f90 f i libucrtd:output.obj
 0001:00075fb0       ?type_case_c_tchar@?$output_processor@DV?$stream_output_adapter@D@__crt_stdio_output@@V?$format_validation_base@DV?$stream_output_adapter@D@__crt_stdio_output@@@2@@__crt_stdio_output@@AEAA_ND@Z 0000000180076fb0 f i libucrtd:output.obj
 0001:00076110       ?type_case_c_tchar@?$output_processor@DV?$stream_output_adapter@D@__crt_stdio_output@@V?$positional_parameter_base@DV?$stream_output_adapter@D@__crt_stdio_output@@@2@@__crt_stdio_output@@AEAA_ND@Z 0000000180077110 f i libucrtd:output.obj
 0001:00076270       ?type_case_c_tchar@?$output_processor@DV?$stream_output_adapter@D@__crt_stdio_output@@V?$standard_base@DV?$stream_output_adapter@D@__crt_stdio_output@@@2@@__crt_stdio_output@@AEAA_ND@Z 0000000180077270 f i libucrtd:output.obj
 0001:000763d0       ?type_case_c_tchar@?$output_processor@DV?$string_output_adapter@D@__crt_stdio_output@@V?$format_validation_base@DV?$string_output_adapter@D@__crt_stdio_output@@@2@@__crt_stdio_output@@AEAA_ND@Z 00000001800773d0 f i libucrtd:output.obj
 0001:00076530       ?type_case_c_tchar@?$output_processor@DV?$string_output_adapter@D@__crt_stdio_output@@V?$positional_parameter_base@DV?$string_output_adapter@D@__crt_stdio_output@@@2@@__crt_stdio_output@@AEAA_ND@Z 0000000180077530 f i libucrtd:output.obj
 0001:00076690       ?type_case_c_tchar@?$output_processor@DV?$string_output_adapter@D@__crt_stdio_output@@V?$standard_base@DV?$string_output_adapter@D@__crt_stdio_output@@@2@@__crt_stdio_output@@AEAA_ND@Z 0000000180077690 f i libucrtd:output.obj
 0001:000767f0       ?type_case_c_tchar@?$output_processor@_WV?$stream_output_adapter@_W@__crt_stdio_output@@V?$format_validation_base@_WV?$stream_output_adapter@_W@__crt_stdio_output@@@2@@__crt_stdio_output@@AEAA_N_W@Z 00000001800777f0 f i libucrtd:output.obj
 0001:00076920       ?type_case_c_tchar@?$output_processor@_WV?$stream_output_adapter@_W@__crt_stdio_output@@V?$positional_parameter_base@_WV?$stream_output_adapter@_W@__crt_stdio_output@@@2@@__crt_stdio_output@@AEAA_N_W@Z 0000000180077920 f i libucrtd:output.obj
 0001:00076a50       ?type_case_c_tchar@?$output_processor@_WV?$stream_output_adapter@_W@__crt_stdio_output@@V?$standard_base@_WV?$stream_output_adapter@_W@__crt_stdio_output@@@2@@__crt_stdio_output@@AEAA_N_W@Z 0000000180077a50 f i libucrtd:output.obj
 0001:00076b80       ?type_case_c_tchar@?$output_processor@_WV?$string_output_adapter@_W@__crt_stdio_output@@V?$format_validation_base@_WV?$string_output_adapter@_W@__crt_stdio_output@@@2@@__crt_stdio_output@@AEAA_N_W@Z 0000000180077b80 f i libucrtd:output.obj
 0001:00076cb0       ?type_case_c_tchar@?$output_processor@_WV?$string_output_adapter@_W@__crt_stdio_output@@V?$positional_parameter_base@_WV?$string_output_adapter@_W@__crt_stdio_output@@@2@@__crt_stdio_output@@AEAA_N_W@Z 0000000180077cb0 f i libucrtd:output.obj
 0001:00076de0       ?type_case_c_tchar@?$output_processor@_WV?$string_output_adapter@_W@__crt_stdio_output@@V?$standard_base@_WV?$string_output_adapter@_W@__crt_stdio_output@@@2@@__crt_stdio_output@@AEAA_N_W@Z 0000000180077de0 f i libucrtd:output.obj
 0001:00076f10       ?type_case_d@?$output_processor@DV?$stream_output_adapter@D@__crt_stdio_output@@V?$format_validation_base@DV?$stream_output_adapter@D@__crt_stdio_output@@@2@@__crt_stdio_output@@AEAA_NXZ 0000000180077f10 f i libucrtd:output.obj
 0001:00076f40       ?type_case_d@?$output_processor@DV?$stream_output_adapter@D@__crt_stdio_output@@V?$positional_parameter_base@DV?$stream_output_adapter@D@__crt_stdio_output@@@2@@__crt_stdio_output@@AEAA_NXZ 0000000180077f40 f i libucrtd:output.obj
 0001:00076f70       ?type_case_d@?$output_processor@DV?$stream_output_adapter@D@__crt_stdio_output@@V?$standard_base@DV?$stream_output_adapter@D@__crt_stdio_output@@@2@@__crt_stdio_output@@AEAA_NXZ 0000000180077f70 f i libucrtd:output.obj
 0001:00076fa0       ?type_case_d@?$output_processor@DV?$string_output_adapter@D@__crt_stdio_output@@V?$format_validation_base@DV?$string_output_adapter@D@__crt_stdio_output@@@2@@__crt_stdio_output@@AEAA_NXZ 0000000180077fa0 f i libucrtd:output.obj
 0001:00076fd0       ?type_case_d@?$output_processor@DV?$string_output_adapter@D@__crt_stdio_output@@V?$positional_parameter_base@DV?$string_output_adapter@D@__crt_stdio_output@@@2@@__crt_stdio_output@@AEAA_NXZ 0000000180077fd0 f i libucrtd:output.obj
 0001:00077000       ?type_case_d@?$output_processor@DV?$string_output_adapter@D@__crt_stdio_output@@V?$standard_base@DV?$string_output_adapter@D@__crt_stdio_output@@@2@@__crt_stdio_output@@AEAA_NXZ 0000000180078000 f i libucrtd:output.obj
 0001:00077030       ?type_case_d@?$output_processor@_WV?$stream_output_adapter@_W@__crt_stdio_output@@V?$format_validation_base@_WV?$stream_output_adapter@_W@__crt_stdio_output@@@2@@__crt_stdio_output@@AEAA_NXZ 0000000180078030 f i libucrtd:output.obj
 0001:00077060       ?type_case_d@?$output_processor@_WV?$stream_output_adapter@_W@__crt_stdio_output@@V?$positional_parameter_base@_WV?$stream_output_adapter@_W@__crt_stdio_output@@@2@@__crt_stdio_output@@AEAA_NXZ 0000000180078060 f i libucrtd:output.obj
 0001:00077090       ?type_case_d@?$output_processor@_WV?$stream_output_adapter@_W@__crt_stdio_output@@V?$standard_base@_WV?$stream_output_adapter@_W@__crt_stdio_output@@@2@@__crt_stdio_output@@AEAA_NXZ 0000000180078090 f i libucrtd:output.obj
 0001:000770c0       ?type_case_d@?$output_processor@_WV?$string_output_adapter@_W@__crt_stdio_output@@V?$format_validation_base@_WV?$string_output_adapter@_W@__crt_stdio_output@@@2@@__crt_stdio_output@@AEAA_NXZ 00000001800780c0 f i libucrtd:output.obj
 0001:000770f0       ?type_case_d@?$output_processor@_WV?$string_output_adapter@_W@__crt_stdio_output@@V?$positional_parameter_base@_WV?$string_output_adapter@_W@__crt_stdio_output@@@2@@__crt_stdio_output@@AEAA_NXZ 00000001800780f0 f i libucrtd:output.obj
 0001:00077120       ?type_case_d@?$output_processor@_WV?$string_output_adapter@_W@__crt_stdio_output@@V?$standard_base@_WV?$string_output_adapter@_W@__crt_stdio_output@@@2@@__crt_stdio_output@@AEAA_NXZ 0000000180078120 f i libucrtd:output.obj
 0001:00077150       ?type_case_integer@?$output_processor@DV?$stream_output_adapter@D@__crt_stdio_output@@V?$format_validation_base@DV?$stream_output_adapter@D@__crt_stdio_output@@@2@@__crt_stdio_output@@AEAA_NI_N@Z 0000000180078150 f i libucrtd:output.obj
 0001:000775a0       ?type_case_integer@?$output_processor@DV?$stream_output_adapter@D@__crt_stdio_output@@V?$positional_parameter_base@DV?$stream_output_adapter@D@__crt_stdio_output@@@2@@__crt_stdio_output@@AEAA_NI_N@Z 00000001800785a0 f i libucrtd:output.obj
 0001:000779f0       ?type_case_integer@?$output_processor@DV?$stream_output_adapter@D@__crt_stdio_output@@V?$standard_base@DV?$stream_output_adapter@D@__crt_stdio_output@@@2@@__crt_stdio_output@@AEAA_NI_N@Z 00000001800789f0 f i libucrtd:output.obj
 0001:00077e40       ?type_case_integer@?$output_processor@DV?$string_output_adapter@D@__crt_stdio_output@@V?$format_validation_base@DV?$string_output_adapter@D@__crt_stdio_output@@@2@@__crt_stdio_output@@AEAA_NI_N@Z 0000000180078e40 f i libucrtd:output.obj
 0001:00078290       ?type_case_integer@?$output_processor@DV?$string_output_adapter@D@__crt_stdio_output@@V?$positional_parameter_base@DV?$string_output_adapter@D@__crt_stdio_output@@@2@@__crt_stdio_output@@AEAA_NI_N@Z 0000000180079290 f i libucrtd:output.obj
 0001:000786e0       ?type_case_integer@?$output_processor@DV?$string_output_adapter@D@__crt_stdio_output@@V?$standard_base@DV?$string_output_adapter@D@__crt_stdio_output@@@2@@__crt_stdio_output@@AEAA_NI_N@Z 00000001800796e0 f i libucrtd:output.obj
 0001:00078b30       ?type_case_integer@?$output_processor@_WV?$stream_output_adapter@_W@__crt_stdio_output@@V?$format_validation_base@_WV?$stream_output_adapter@_W@__crt_stdio_output@@@2@@__crt_stdio_output@@AEAA_NI_N@Z 0000000180079b30 f i libucrtd:output.obj
 0001:00078f80       ?type_case_integer@?$output_processor@_WV?$stream_output_adapter@_W@__crt_stdio_output@@V?$positional_parameter_base@_WV?$stream_output_adapter@_W@__crt_stdio_output@@@2@@__crt_stdio_output@@AEAA_NI_N@Z 0000000180079f80 f i libucrtd:output.obj
 0001:000793d0       ?type_case_integer@?$output_processor@_WV?$stream_output_adapter@_W@__crt_stdio_output@@V?$standard_base@_WV?$stream_output_adapter@_W@__crt_stdio_output@@@2@@__crt_stdio_output@@AEAA_NI_N@Z 000000018007a3d0 f i libucrtd:output.obj
 0001:00079820       ?type_case_integer@?$output_processor@_WV?$string_output_adapter@_W@__crt_stdio_output@@V?$format_validation_base@_WV?$string_output_adapter@_W@__crt_stdio_output@@@2@@__crt_stdio_output@@AEAA_NI_N@Z 000000018007a820 f i libucrtd:output.obj
 0001:00079c70       ?type_case_integer@?$output_processor@_WV?$string_output_adapter@_W@__crt_stdio_output@@V?$positional_parameter_base@_WV?$string_output_adapter@_W@__crt_stdio_output@@@2@@__crt_stdio_output@@AEAA_NI_N@Z 000000018007ac70 f i libucrtd:output.obj
 0001:0007a0c0       ?type_case_integer@?$output_processor@_WV?$string_output_adapter@_W@__crt_stdio_output@@V?$standard_base@_WV?$string_output_adapter@_W@__crt_stdio_output@@@2@@__crt_stdio_output@@AEAA_NI_N@Z 000000018007b0c0 f i libucrtd:output.obj
 0001:0007a510       ?type_case_n@?$output_processor@DV?$stream_output_adapter@D@__crt_stdio_output@@V?$format_validation_base@DV?$stream_output_adapter@D@__crt_stdio_output@@@2@@__crt_stdio_output@@AEAA_NXZ 000000018007b510 f i libucrtd:output.obj
 0001:0007a750       ?type_case_n@?$output_processor@DV?$stream_output_adapter@D@__crt_stdio_output@@V?$positional_parameter_base@DV?$stream_output_adapter@D@__crt_stdio_output@@@2@@__crt_stdio_output@@AEAA_NXZ 000000018007b750 f i libucrtd:output.obj
 0001:0007a990       ?type_case_n@?$output_processor@DV?$stream_output_adapter@D@__crt_stdio_output@@V?$standard_base@DV?$stream_output_adapter@D@__crt_stdio_output@@@2@@__crt_stdio_output@@AEAA_NXZ 000000018007b990 f i libucrtd:output.obj
 0001:0007abd0       ?type_case_n@?$output_processor@DV?$string_output_adapter@D@__crt_stdio_output@@V?$format_validation_base@DV?$string_output_adapter@D@__crt_stdio_output@@@2@@__crt_stdio_output@@AEAA_NXZ 000000018007bbd0 f i libucrtd:output.obj
 0001:0007ae10       ?type_case_n@?$output_processor@DV?$string_output_adapter@D@__crt_stdio_output@@V?$positional_parameter_base@DV?$string_output_adapter@D@__crt_stdio_output@@@2@@__crt_stdio_output@@AEAA_NXZ 000000018007be10 f i libucrtd:output.obj
 0001:0007b050       ?type_case_n@?$output_processor@DV?$string_output_adapter@D@__crt_stdio_output@@V?$standard_base@DV?$string_output_adapter@D@__crt_stdio_output@@@2@@__crt_stdio_output@@AEAA_NXZ 000000018007c050 f i libucrtd:output.obj
 0001:0007b290       ?type_case_n@?$output_processor@_WV?$stream_output_adapter@_W@__crt_stdio_output@@V?$format_validation_base@_WV?$stream_output_adapter@_W@__crt_stdio_output@@@2@@__crt_stdio_output@@AEAA_NXZ 000000018007c290 f i libucrtd:output.obj
 0001:0007b4d0       ?type_case_n@?$output_processor@_WV?$stream_output_adapter@_W@__crt_stdio_output@@V?$positional_parameter_base@_WV?$stream_output_adapter@_W@__crt_stdio_output@@@2@@__crt_stdio_output@@AEAA_NXZ 000000018007c4d0 f i libucrtd:output.obj
 0001:0007b710       ?type_case_n@?$output_processor@_WV?$stream_output_adapter@_W@__crt_stdio_output@@V?$standard_base@_WV?$stream_output_adapter@_W@__crt_stdio_output@@@2@@__crt_stdio_output@@AEAA_NXZ 000000018007c710 f i libucrtd:output.obj
 0001:0007b950       ?type_case_n@?$output_processor@_WV?$string_output_adapter@_W@__crt_stdio_output@@V?$format_validation_base@_WV?$string_output_adapter@_W@__crt_stdio_output@@@2@@__crt_stdio_output@@AEAA_NXZ 000000018007c950 f i libucrtd:output.obj
 0001:0007bb90       ?type_case_n@?$output_processor@_WV?$string_output_adapter@_W@__crt_stdio_output@@V?$positional_parameter_base@_WV?$string_output_adapter@_W@__crt_stdio_output@@@2@@__crt_stdio_output@@AEAA_NXZ 000000018007cb90 f i libucrtd:output.obj
 0001:0007bdd0       ?type_case_n@?$output_processor@_WV?$string_output_adapter@_W@__crt_stdio_output@@V?$standard_base@_WV?$string_output_adapter@_W@__crt_stdio_output@@@2@@__crt_stdio_output@@AEAA_NXZ 000000018007cdd0 f i libucrtd:output.obj
 0001:0007c010       ?type_case_o@?$output_processor@DV?$stream_output_adapter@D@__crt_stdio_output@@V?$format_validation_base@DV?$stream_output_adapter@D@__crt_stdio_output@@@2@@__crt_stdio_output@@AEAA_NXZ 000000018007d010 f i libucrtd:output.obj
 0001:0007c060       ?type_case_o@?$output_processor@DV?$stream_output_adapter@D@__crt_stdio_output@@V?$positional_parameter_base@DV?$stream_output_adapter@D@__crt_stdio_output@@@2@@__crt_stdio_output@@AEAA_NXZ 000000018007d060 f i libucrtd:output.obj
 0001:0007c0b0       ?type_case_o@?$output_processor@DV?$stream_output_adapter@D@__crt_stdio_output@@V?$standard_base@DV?$stream_output_adapter@D@__crt_stdio_output@@@2@@__crt_stdio_output@@AEAA_NXZ 000000018007d0b0 f i libucrtd:output.obj
 0001:0007c100       ?type_case_o@?$output_processor@DV?$string_output_adapter@D@__crt_stdio_output@@V?$format_validation_base@DV?$string_output_adapter@D@__crt_stdio_output@@@2@@__crt_stdio_output@@AEAA_NXZ 000000018007d100 f i libucrtd:output.obj
 0001:0007c150       ?type_case_o@?$output_processor@DV?$string_output_adapter@D@__crt_stdio_output@@V?$positional_parameter_base@DV?$string_output_adapter@D@__crt_stdio_output@@@2@@__crt_stdio_output@@AEAA_NXZ 000000018007d150 f i libucrtd:output.obj
 0001:0007c1a0       ?type_case_o@?$output_processor@DV?$string_output_adapter@D@__crt_stdio_output@@V?$standard_base@DV?$string_output_adapter@D@__crt_stdio_output@@@2@@__crt_stdio_output@@AEAA_NXZ 000000018007d1a0 f i libucrtd:output.obj
 0001:0007c1f0       ?type_case_o@?$output_processor@_WV?$stream_output_adapter@_W@__crt_stdio_output@@V?$format_validation_base@_WV?$stream_output_adapter@_W@__crt_stdio_output@@@2@@__crt_stdio_output@@AEAA_NXZ 000000018007d1f0 f i libucrtd:output.obj
 0001:0007c240       ?type_case_o@?$output_processor@_WV?$stream_output_adapter@_W@__crt_stdio_output@@V?$positional_parameter_base@_WV?$stream_output_adapter@_W@__crt_stdio_output@@@2@@__crt_stdio_output@@AEAA_NXZ 000000018007d240 f i libucrtd:output.obj
 0001:0007c290       ?type_case_o@?$output_processor@_WV?$stream_output_adapter@_W@__crt_stdio_output@@V?$standard_base@_WV?$stream_output_adapter@_W@__crt_stdio_output@@@2@@__crt_stdio_output@@AEAA_NXZ 000000018007d290 f i libucrtd:output.obj
 0001:0007c2e0       ?type_case_o@?$output_processor@_WV?$string_output_adapter@_W@__crt_stdio_output@@V?$format_validation_base@_WV?$string_output_adapter@_W@__crt_stdio_output@@@2@@__crt_stdio_output@@AEAA_NXZ 000000018007d2e0 f i libucrtd:output.obj
 0001:0007c330       ?type_case_o@?$output_processor@_WV?$string_output_adapter@_W@__crt_stdio_output@@V?$positional_parameter_base@_WV?$string_output_adapter@_W@__crt_stdio_output@@@2@@__crt_stdio_output@@AEAA_NXZ 000000018007d330 f i libucrtd:output.obj
 0001:0007c380       ?type_case_o@?$output_processor@_WV?$string_output_adapter@_W@__crt_stdio_output@@V?$standard_base@_WV?$string_output_adapter@_W@__crt_stdio_output@@@2@@__crt_stdio_output@@AEAA_NXZ 000000018007d380 f i libucrtd:output.obj
 0001:0007c3d0       ?type_case_p@?$output_processor@DV?$stream_output_adapter@D@__crt_stdio_output@@V?$format_validation_base@DV?$stream_output_adapter@D@__crt_stdio_output@@@2@@__crt_stdio_output@@AEAA_NXZ 000000018007d3d0 f i libucrtd:output.obj
 0001:0007c410       ?type_case_p@?$output_processor@DV?$stream_output_adapter@D@__crt_stdio_output@@V?$positional_parameter_base@DV?$stream_output_adapter@D@__crt_stdio_output@@@2@@__crt_stdio_output@@AEAA_NXZ 000000018007d410 f i libucrtd:output.obj
 0001:0007c450       ?type_case_p@?$output_processor@DV?$stream_output_adapter@D@__crt_stdio_output@@V?$standard_base@DV?$stream_output_adapter@D@__crt_stdio_output@@@2@@__crt_stdio_output@@AEAA_NXZ 000000018007d450 f i libucrtd:output.obj
 0001:0007c490       ?type_case_p@?$output_processor@DV?$string_output_adapter@D@__crt_stdio_output@@V?$format_validation_base@DV?$string_output_adapter@D@__crt_stdio_output@@@2@@__crt_stdio_output@@AEAA_NXZ 000000018007d490 f i libucrtd:output.obj
 0001:0007c4d0       ?type_case_p@?$output_processor@DV?$string_output_adapter@D@__crt_stdio_output@@V?$positional_parameter_base@DV?$string_output_adapter@D@__crt_stdio_output@@@2@@__crt_stdio_output@@AEAA_NXZ 000000018007d4d0 f i libucrtd:output.obj
 0001:0007c510       ?type_case_p@?$output_processor@DV?$string_output_adapter@D@__crt_stdio_output@@V?$standard_base@DV?$string_output_adapter@D@__crt_stdio_output@@@2@@__crt_stdio_output@@AEAA_NXZ 000000018007d510 f i libucrtd:output.obj
 0001:0007c550       ?type_case_p@?$output_processor@_WV?$stream_output_adapter@_W@__crt_stdio_output@@V?$format_validation_base@_WV?$stream_output_adapter@_W@__crt_stdio_output@@@2@@__crt_stdio_output@@AEAA_NXZ 000000018007d550 f i libucrtd:output.obj
 0001:0007c590       ?type_case_p@?$output_processor@_WV?$stream_output_adapter@_W@__crt_stdio_output@@V?$positional_parameter_base@_WV?$stream_output_adapter@_W@__crt_stdio_output@@@2@@__crt_stdio_output@@AEAA_NXZ 000000018007d590 f i libucrtd:output.obj
 0001:0007c5d0       ?type_case_p@?$output_processor@_WV?$stream_output_adapter@_W@__crt_stdio_output@@V?$standard_base@_WV?$stream_output_adapter@_W@__crt_stdio_output@@@2@@__crt_stdio_output@@AEAA_NXZ 000000018007d5d0 f i libucrtd:output.obj
 0001:0007c610       ?type_case_p@?$output_processor@_WV?$string_output_adapter@_W@__crt_stdio_output@@V?$format_validation_base@_WV?$string_output_adapter@_W@__crt_stdio_output@@@2@@__crt_stdio_output@@AEAA_NXZ 000000018007d610 f i libucrtd:output.obj
 0001:0007c650       ?type_case_p@?$output_processor@_WV?$string_output_adapter@_W@__crt_stdio_output@@V?$positional_parameter_base@_WV?$string_output_adapter@_W@__crt_stdio_output@@@2@@__crt_stdio_output@@AEAA_NXZ 000000018007d650 f i libucrtd:output.obj
 0001:0007c690       ?type_case_p@?$output_processor@_WV?$string_output_adapter@_W@__crt_stdio_output@@V?$standard_base@_WV?$string_output_adapter@_W@__crt_stdio_output@@@2@@__crt_stdio_output@@AEAA_NXZ 000000018007d690 f i libucrtd:output.obj
 0001:0007c6d0       ?type_case_s@?$output_processor@DV?$stream_output_adapter@D@__crt_stdio_output@@V?$format_validation_base@DV?$stream_output_adapter@D@__crt_stdio_output@@@2@@__crt_stdio_output@@AEAA_NXZ 000000018007d6d0 f i libucrtd:output.obj
 0001:0007c7f0       ?type_case_s@?$output_processor@DV?$stream_output_adapter@D@__crt_stdio_output@@V?$positional_parameter_base@DV?$stream_output_adapter@D@__crt_stdio_output@@@2@@__crt_stdio_output@@AEAA_NXZ 000000018007d7f0 f i libucrtd:output.obj
 0001:0007c910       ?type_case_s@?$output_processor@DV?$stream_output_adapter@D@__crt_stdio_output@@V?$standard_base@DV?$stream_output_adapter@D@__crt_stdio_output@@@2@@__crt_stdio_output@@AEAA_NXZ 000000018007d910 f i libucrtd:output.obj
 0001:0007ca30       ?type_case_s@?$output_processor@DV?$string_output_adapter@D@__crt_stdio_output@@V?$format_validation_base@DV?$string_output_adapter@D@__crt_stdio_output@@@2@@__crt_stdio_output@@AEAA_NXZ 000000018007da30 f i libucrtd:output.obj
 0001:0007cb50       ?type_case_s@?$output_processor@DV?$string_output_adapter@D@__crt_stdio_output@@V?$positional_parameter_base@DV?$string_output_adapter@D@__crt_stdio_output@@@2@@__crt_stdio_output@@AEAA_NXZ 000000018007db50 f i libucrtd:output.obj
 0001:0007cc70       ?type_case_s@?$output_processor@DV?$string_output_adapter@D@__crt_stdio_output@@V?$standard_base@DV?$string_output_adapter@D@__crt_stdio_output@@@2@@__crt_stdio_output@@AEAA_NXZ 000000018007dc70 f i libucrtd:output.obj
 0001:0007cd90       ?type_case_s@?$output_processor@_WV?$stream_output_adapter@_W@__crt_stdio_output@@V?$format_validation_base@_WV?$stream_output_adapter@_W@__crt_stdio_output@@@2@@__crt_stdio_output@@AEAA_NXZ 000000018007dd90 f i libucrtd:output.obj
 0001:0007ceb0       ?type_case_s@?$output_processor@_WV?$stream_output_adapter@_W@__crt_stdio_output@@V?$positional_parameter_base@_WV?$stream_output_adapter@_W@__crt_stdio_output@@@2@@__crt_stdio_output@@AEAA_NXZ 000000018007deb0 f i libucrtd:output.obj
 0001:0007cfd0       ?type_case_s@?$output_processor@_WV?$stream_output_adapter@_W@__crt_stdio_output@@V?$standard_base@_WV?$stream_output_adapter@_W@__crt_stdio_output@@@2@@__crt_stdio_output@@AEAA_NXZ 000000018007dfd0 f i libucrtd:output.obj
 0001:0007d0f0       ?type_case_s@?$output_processor@_WV?$string_output_adapter@_W@__crt_stdio_output@@V?$format_validation_base@_WV?$string_output_adapter@_W@__crt_stdio_output@@@2@@__crt_stdio_output@@AEAA_NXZ 000000018007e0f0 f i libucrtd:output.obj
 0001:0007d210       ?type_case_s@?$output_processor@_WV?$string_output_adapter@_W@__crt_stdio_output@@V?$positional_parameter_base@_WV?$string_output_adapter@_W@__crt_stdio_output@@@2@@__crt_stdio_output@@AEAA_NXZ 000000018007e210 f i libucrtd:output.obj
 0001:0007d330       ?type_case_s@?$output_processor@_WV?$string_output_adapter@_W@__crt_stdio_output@@V?$standard_base@_WV?$string_output_adapter@_W@__crt_stdio_output@@@2@@__crt_stdio_output@@AEAA_NXZ 000000018007e330 f i libucrtd:output.obj
 0001:0007d450       ?type_case_s_compute_narrow_string_length@?$output_processor@DV?$stream_output_adapter@D@__crt_stdio_output@@V?$format_validation_base@DV?$stream_output_adapter@D@__crt_stdio_output@@@2@@__crt_stdio_output@@AEBAHHD@Z 000000018007e450 f i libucrtd:output.obj
 0001:0007d480       ?type_case_s_compute_narrow_string_length@?$output_processor@DV?$stream_output_adapter@D@__crt_stdio_output@@V?$positional_parameter_base@DV?$stream_output_adapter@D@__crt_stdio_output@@@2@@__crt_stdio_output@@AEBAHHD@Z 000000018007e480 f i libucrtd:output.obj
 0001:0007d4b0       ?type_case_s_compute_narrow_string_length@?$output_processor@DV?$stream_output_adapter@D@__crt_stdio_output@@V?$standard_base@DV?$stream_output_adapter@D@__crt_stdio_output@@@2@@__crt_stdio_output@@AEBAHHD@Z 000000018007e4b0 f i libucrtd:output.obj
 0001:0007d4e0       ?type_case_s_compute_narrow_string_length@?$output_processor@DV?$string_output_adapter@D@__crt_stdio_output@@V?$format_validation_base@DV?$string_output_adapter@D@__crt_stdio_output@@@2@@__crt_stdio_output@@AEBAHHD@Z 000000018007e4e0 f i libucrtd:output.obj
 0001:0007d510       ?type_case_s_compute_narrow_string_length@?$output_processor@DV?$string_output_adapter@D@__crt_stdio_output@@V?$positional_parameter_base@DV?$string_output_adapter@D@__crt_stdio_output@@@2@@__crt_stdio_output@@AEBAHHD@Z 000000018007e510 f i libucrtd:output.obj
 0001:0007d540       ?type_case_s_compute_narrow_string_length@?$output_processor@DV?$string_output_adapter@D@__crt_stdio_output@@V?$standard_base@DV?$string_output_adapter@D@__crt_stdio_output@@@2@@__crt_stdio_output@@AEBAHHD@Z 000000018007e540 f i libucrtd:output.obj
 0001:0007d570       ?type_case_s_compute_narrow_string_length@?$output_processor@_WV?$stream_output_adapter@_W@__crt_stdio_output@@V?$format_validation_base@_WV?$stream_output_adapter@_W@__crt_stdio_output@@@2@@__crt_stdio_output@@AEBAHH_W@Z 000000018007e570 f i libucrtd:output.obj
 0001:0007d600       ?type_case_s_compute_narrow_string_length@?$output_processor@_WV?$stream_output_adapter@_W@__crt_stdio_output@@V?$positional_parameter_base@_WV?$stream_output_adapter@_W@__crt_stdio_output@@@2@@__crt_stdio_output@@AEBAHH_W@Z 000000018007e600 f i libucrtd:output.obj
 0001:0007d690       ?type_case_s_compute_narrow_string_length@?$output_processor@_WV?$stream_output_adapter@_W@__crt_stdio_output@@V?$standard_base@_WV?$stream_output_adapter@_W@__crt_stdio_output@@@2@@__crt_stdio_output@@AEBAHH_W@Z 000000018007e690 f i libucrtd:output.obj
 0001:0007d720       ?type_case_s_compute_narrow_string_length@?$output_processor@_WV?$string_output_adapter@_W@__crt_stdio_output@@V?$format_validation_base@_WV?$string_output_adapter@_W@__crt_stdio_output@@@2@@__crt_stdio_output@@AEBAHH_W@Z 000000018007e720 f i libucrtd:output.obj
 0001:0007d7b0       ?type_case_s_compute_narrow_string_length@?$output_processor@_WV?$string_output_adapter@_W@__crt_stdio_output@@V?$positional_parameter_base@_WV?$string_output_adapter@_W@__crt_stdio_output@@@2@@__crt_stdio_output@@AEBAHH_W@Z 000000018007e7b0 f i libucrtd:output.obj
 0001:0007d840       ?type_case_s_compute_narrow_string_length@?$output_processor@_WV?$string_output_adapter@_W@__crt_stdio_output@@V?$standard_base@_WV?$string_output_adapter@_W@__crt_stdio_output@@@2@@__crt_stdio_output@@AEBAHH_W@Z 000000018007e840 f i libucrtd:output.obj
 0001:0007d8d0       ?type_case_u@?$output_processor@DV?$stream_output_adapter@D@__crt_stdio_output@@V?$format_validation_base@DV?$stream_output_adapter@D@__crt_stdio_output@@@2@@__crt_stdio_output@@AEAA_NXZ 000000018007e8d0 f i libucrtd:output.obj
 0001:0007d8f0       ?type_case_u@?$output_processor@DV?$stream_output_adapter@D@__crt_stdio_output@@V?$positional_parameter_base@DV?$stream_output_adapter@D@__crt_stdio_output@@@2@@__crt_stdio_output@@AEAA_NXZ 000000018007e8f0 f i libucrtd:output.obj
 0001:0007d910       ?type_case_u@?$output_processor@DV?$stream_output_adapter@D@__crt_stdio_output@@V?$standard_base@DV?$stream_output_adapter@D@__crt_stdio_output@@@2@@__crt_stdio_output@@AEAA_NXZ 000000018007e910 f i libucrtd:output.obj
 0001:0007d930       ?type_case_u@?$output_processor@DV?$string_output_adapter@D@__crt_stdio_output@@V?$format_validation_base@DV?$string_output_adapter@D@__crt_stdio_output@@@2@@__crt_stdio_output@@AEAA_NXZ 000000018007e930 f i libucrtd:output.obj
 0001:0007d950       ?type_case_u@?$output_processor@DV?$string_output_adapter@D@__crt_stdio_output@@V?$positional_parameter_base@DV?$string_output_adapter@D@__crt_stdio_output@@@2@@__crt_stdio_output@@AEAA_NXZ 000000018007e950 f i libucrtd:output.obj
 0001:0007d970       ?type_case_u@?$output_processor@DV?$string_output_adapter@D@__crt_stdio_output@@V?$standard_base@DV?$string_output_adapter@D@__crt_stdio_output@@@2@@__crt_stdio_output@@AEAA_NXZ 000000018007e970 f i libucrtd:output.obj
 0001:0007d990       ?type_case_u@?$output_processor@_WV?$stream_output_adapter@_W@__crt_stdio_output@@V?$format_validation_base@_WV?$stream_output_adapter@_W@__crt_stdio_output@@@2@@__crt_stdio_output@@AEAA_NXZ 000000018007e990 f i libucrtd:output.obj
 0001:0007d9b0       ?type_case_u@?$output_processor@_WV?$stream_output_adapter@_W@__crt_stdio_output@@V?$positional_parameter_base@_WV?$stream_output_adapter@_W@__crt_stdio_output@@@2@@__crt_stdio_output@@AEAA_NXZ 000000018007e9b0 f i libucrtd:output.obj
 0001:0007d9d0       ?type_case_u@?$output_processor@_WV?$stream_output_adapter@_W@__crt_stdio_output@@V?$standard_base@_WV?$stream_output_adapter@_W@__crt_stdio_output@@@2@@__crt_stdio_output@@AEAA_NXZ 000000018007e9d0 f i libucrtd:output.obj
 0001:0007d9f0       ?type_case_u@?$output_processor@_WV?$string_output_adapter@_W@__crt_stdio_output@@V?$format_validation_base@_WV?$string_output_adapter@_W@__crt_stdio_output@@@2@@__crt_stdio_output@@AEAA_NXZ 000000018007e9f0 f i libucrtd:output.obj
 0001:0007da10       ?type_case_u@?$output_processor@_WV?$string_output_adapter@_W@__crt_stdio_output@@V?$positional_parameter_base@_WV?$string_output_adapter@_W@__crt_stdio_output@@@2@@__crt_stdio_output@@AEAA_NXZ 000000018007ea10 f i libucrtd:output.obj
 0001:0007da30       ?type_case_u@?$output_processor@_WV?$string_output_adapter@_W@__crt_stdio_output@@V?$standard_base@_WV?$string_output_adapter@_W@__crt_stdio_output@@@2@@__crt_stdio_output@@AEAA_NXZ 000000018007ea30 f i libucrtd:output.obj
 0001:0007da50       ?type_case_x@?$output_processor@DV?$stream_output_adapter@D@__crt_stdio_output@@V?$format_validation_base@DV?$stream_output_adapter@D@__crt_stdio_output@@@2@@__crt_stdio_output@@AEAA_NXZ 000000018007ea50 f i libucrtd:output.obj
 0001:0007da70       ?type_case_x@?$output_processor@DV?$stream_output_adapter@D@__crt_stdio_output@@V?$positional_parameter_base@DV?$stream_output_adapter@D@__crt_stdio_output@@@2@@__crt_stdio_output@@AEAA_NXZ 000000018007ea70 f i libucrtd:output.obj
 0001:0007da90       ?type_case_x@?$output_processor@DV?$stream_output_adapter@D@__crt_stdio_output@@V?$standard_base@DV?$stream_output_adapter@D@__crt_stdio_output@@@2@@__crt_stdio_output@@AEAA_NXZ 000000018007ea90 f i libucrtd:output.obj
 0001:0007dab0       ?type_case_x@?$output_processor@DV?$string_output_adapter@D@__crt_stdio_output@@V?$format_validation_base@DV?$string_output_adapter@D@__crt_stdio_output@@@2@@__crt_stdio_output@@AEAA_NXZ 000000018007eab0 f i libucrtd:output.obj
 0001:0007dad0       ?type_case_x@?$output_processor@DV?$string_output_adapter@D@__crt_stdio_output@@V?$positional_parameter_base@DV?$string_output_adapter@D@__crt_stdio_output@@@2@@__crt_stdio_output@@AEAA_NXZ 000000018007ead0 f i libucrtd:output.obj
 0001:0007daf0       ?type_case_x@?$output_processor@DV?$string_output_adapter@D@__crt_stdio_output@@V?$standard_base@DV?$string_output_adapter@D@__crt_stdio_output@@@2@@__crt_stdio_output@@AEAA_NXZ 000000018007eaf0 f i libucrtd:output.obj
 0001:0007db10       ?type_case_x@?$output_processor@_WV?$stream_output_adapter@_W@__crt_stdio_output@@V?$format_validation_base@_WV?$stream_output_adapter@_W@__crt_stdio_output@@@2@@__crt_stdio_output@@AEAA_NXZ 000000018007eb10 f i libucrtd:output.obj
 0001:0007db30       ?type_case_x@?$output_processor@_WV?$stream_output_adapter@_W@__crt_stdio_output@@V?$positional_parameter_base@_WV?$stream_output_adapter@_W@__crt_stdio_output@@@2@@__crt_stdio_output@@AEAA_NXZ 000000018007eb30 f i libucrtd:output.obj
 0001:0007db50       ?type_case_x@?$output_processor@_WV?$stream_output_adapter@_W@__crt_stdio_output@@V?$standard_base@_WV?$stream_output_adapter@_W@__crt_stdio_output@@@2@@__crt_stdio_output@@AEAA_NXZ 000000018007eb50 f i libucrtd:output.obj
 0001:0007db70       ?type_case_x@?$output_processor@_WV?$string_output_adapter@_W@__crt_stdio_output@@V?$format_validation_base@_WV?$string_output_adapter@_W@__crt_stdio_output@@@2@@__crt_stdio_output@@AEAA_NXZ 000000018007eb70 f i libucrtd:output.obj
 0001:0007db90       ?type_case_x@?$output_processor@_WV?$string_output_adapter@_W@__crt_stdio_output@@V?$positional_parameter_base@_WV?$string_output_adapter@_W@__crt_stdio_output@@@2@@__crt_stdio_output@@AEAA_NXZ 000000018007eb90 f i libucrtd:output.obj
 0001:0007dbb0       ?type_case_x@?$output_processor@_WV?$string_output_adapter@_W@__crt_stdio_output@@V?$standard_base@_WV?$string_output_adapter@_W@__crt_stdio_output@@@2@@__crt_stdio_output@@AEAA_NXZ 000000018007ebb0 f i libucrtd:output.obj
 0001:0007dbd0       ?unset_flag@?$output_processor@DV?$stream_output_adapter@D@__crt_stdio_output@@V?$format_validation_base@DV?$stream_output_adapter@D@__crt_stdio_output@@@2@@__crt_stdio_output@@AEAAXI@Z 000000018007ebd0 f i libucrtd:output.obj
 0001:0007dc00       ?unset_flag@?$output_processor@DV?$stream_output_adapter@D@__crt_stdio_output@@V?$positional_parameter_base@DV?$stream_output_adapter@D@__crt_stdio_output@@@2@@__crt_stdio_output@@AEAAXI@Z 000000018007ec00 f i libucrtd:output.obj
 0001:0007dc30       ?unset_flag@?$output_processor@DV?$stream_output_adapter@D@__crt_stdio_output@@V?$standard_base@DV?$stream_output_adapter@D@__crt_stdio_output@@@2@@__crt_stdio_output@@AEAAXI@Z 000000018007ec30 f i libucrtd:output.obj
 0001:0007dc60       ?unset_flag@?$output_processor@DV?$string_output_adapter@D@__crt_stdio_output@@V?$format_validation_base@DV?$string_output_adapter@D@__crt_stdio_output@@@2@@__crt_stdio_output@@AEAAXI@Z 000000018007ec60 f i libucrtd:output.obj
 0001:0007dc90       ?unset_flag@?$output_processor@DV?$string_output_adapter@D@__crt_stdio_output@@V?$positional_parameter_base@DV?$string_output_adapter@D@__crt_stdio_output@@@2@@__crt_stdio_output@@AEAAXI@Z 000000018007ec90 f i libucrtd:output.obj
 0001:0007dcc0       ?unset_flag@?$output_processor@DV?$string_output_adapter@D@__crt_stdio_output@@V?$standard_base@DV?$string_output_adapter@D@__crt_stdio_output@@@2@@__crt_stdio_output@@AEAAXI@Z 000000018007ecc0 f i libucrtd:output.obj
 0001:0007dcf0       ?unset_flag@?$output_processor@_WV?$stream_output_adapter@_W@__crt_stdio_output@@V?$format_validation_base@_WV?$stream_output_adapter@_W@__crt_stdio_output@@@2@@__crt_stdio_output@@AEAAXI@Z 000000018007ecf0 f i libucrtd:output.obj
 0001:0007dd20       ?unset_flag@?$output_processor@_WV?$stream_output_adapter@_W@__crt_stdio_output@@V?$positional_parameter_base@_WV?$stream_output_adapter@_W@__crt_stdio_output@@@2@@__crt_stdio_output@@AEAAXI@Z 000000018007ed20 f i libucrtd:output.obj
 0001:0007dd50       ?unset_flag@?$output_processor@_WV?$stream_output_adapter@_W@__crt_stdio_output@@V?$standard_base@_WV?$stream_output_adapter@_W@__crt_stdio_output@@@2@@__crt_stdio_output@@AEAAXI@Z 000000018007ed50 f i libucrtd:output.obj
 0001:0007dd80       ?unset_flag@?$output_processor@_WV?$string_output_adapter@_W@__crt_stdio_output@@V?$format_validation_base@_WV?$string_output_adapter@_W@__crt_stdio_output@@@2@@__crt_stdio_output@@AEAAXI@Z 000000018007ed80 f i libucrtd:output.obj
 0001:0007ddb0       ?unset_flag@?$output_processor@_WV?$string_output_adapter@_W@__crt_stdio_output@@V?$positional_parameter_base@_WV?$string_output_adapter@_W@__crt_stdio_output@@@2@@__crt_stdio_output@@AEAAXI@Z 000000018007edb0 f i libucrtd:output.obj
 0001:0007dde0       ?unset_flag@?$output_processor@_WV?$string_output_adapter@_W@__crt_stdio_output@@V?$standard_base@_WV?$string_output_adapter@_W@__crt_stdio_output@@@2@@__crt_stdio_output@@AEAAXI@Z 000000018007ede0 f i libucrtd:output.obj
 0001:0007de10       ?update_field_width@?$positional_parameter_base@DV?$stream_output_adapter@D@__crt_stdio_output@@@__crt_stdio_output@@IEAA_NXZ 000000018007ee10 f i libucrtd:output.obj
 0001:0007e000       ?update_field_width@?$positional_parameter_base@DV?$string_output_adapter@D@__crt_stdio_output@@@__crt_stdio_output@@IEAA_NXZ 000000018007f000 f i libucrtd:output.obj
 0001:0007e1f0       ?update_field_width@?$positional_parameter_base@_WV?$stream_output_adapter@_W@__crt_stdio_output@@@__crt_stdio_output@@IEAA_NXZ 000000018007f1f0 f i libucrtd:output.obj
 0001:0007e3e0       ?update_field_width@?$positional_parameter_base@_WV?$string_output_adapter@_W@__crt_stdio_output@@@__crt_stdio_output@@IEAA_NXZ 000000018007f3e0 f i libucrtd:output.obj
 0001:0007e5d0       ?update_field_width@?$standard_base@DV?$stream_output_adapter@D@__crt_stdio_output@@@__crt_stdio_output@@IEAA_NXZ 000000018007f5d0 f i libucrtd:output.obj
 0001:0007e600       ?update_field_width@?$standard_base@DV?$string_output_adapter@D@__crt_stdio_output@@@__crt_stdio_output@@IEAA_NXZ 000000018007f600 f i libucrtd:output.obj
 0001:0007e630       ?update_field_width@?$standard_base@_WV?$stream_output_adapter@_W@__crt_stdio_output@@@__crt_stdio_output@@IEAA_NXZ 000000018007f630 f i libucrtd:output.obj
 0001:0007e660       ?update_field_width@?$standard_base@_WV?$string_output_adapter@_W@__crt_stdio_output@@@__crt_stdio_output@@IEAA_NXZ 000000018007f660 f i libucrtd:output.obj
 0001:0007e690       ?update_precision@?$positional_parameter_base@DV?$stream_output_adapter@D@__crt_stdio_output@@@__crt_stdio_output@@IEAA_NXZ 000000018007f690 f i libucrtd:output.obj
 0001:0007e880       ?update_precision@?$positional_parameter_base@DV?$string_output_adapter@D@__crt_stdio_output@@@__crt_stdio_output@@IEAA_NXZ 000000018007f880 f i libucrtd:output.obj
 0001:0007ea70       ?update_precision@?$positional_parameter_base@_WV?$stream_output_adapter@_W@__crt_stdio_output@@@__crt_stdio_output@@IEAA_NXZ 000000018007fa70 f i libucrtd:output.obj
 0001:0007ec60       ?update_precision@?$positional_parameter_base@_WV?$string_output_adapter@_W@__crt_stdio_output@@@__crt_stdio_output@@IEAA_NXZ 000000018007fc60 f i libucrtd:output.obj
 0001:0007ee50       ?update_precision@?$standard_base@DV?$stream_output_adapter@D@__crt_stdio_output@@@__crt_stdio_output@@IEAA_NXZ 000000018007fe50 f i libucrtd:output.obj
 0001:0007ee80       ?update_precision@?$standard_base@DV?$string_output_adapter@D@__crt_stdio_output@@@__crt_stdio_output@@IEAA_NXZ 000000018007fe80 f i libucrtd:output.obj
 0001:0007eeb0       ?update_precision@?$standard_base@_WV?$stream_output_adapter@_W@__crt_stdio_output@@@__crt_stdio_output@@IEAA_NXZ 000000018007feb0 f i libucrtd:output.obj
 0001:0007eee0       ?update_precision@?$standard_base@_WV?$string_output_adapter@_W@__crt_stdio_output@@@__crt_stdio_output@@IEAA_NXZ 000000018007fee0 f i libucrtd:output.obj
 0001:0007ef10       ?valid@__crt_stdio_stream@@QEBA_NXZ 000000018007ff10 f i libucrtd:output.obj
 0001:0007ef40       ?validate@?$stream_output_adapter@D@__crt_stdio_output@@QEBA_NXZ 000000018007ff40 f i libucrtd:output.obj
 0001:0007f020       ?validate@?$stream_output_adapter@_W@__crt_stdio_output@@QEBA_NXZ 0000000180080020 f i libucrtd:output.obj
 0001:0007f100       ?validate@?$string_output_adapter@D@__crt_stdio_output@@QEBA_NXZ 0000000180080100 f i libucrtd:output.obj
 0001:0007f1c0       ?validate@?$string_output_adapter@_W@__crt_stdio_output@@QEBA_NXZ 00000001800801c0 f i libucrtd:output.obj
 0001:0007f280       ?validate_and_store_parameter_data@?$positional_parameter_base@DV?$stream_output_adapter@D@__crt_stdio_output@@@__crt_stdio_output@@AEAA_NAEAUparameter_data@12@W4parameter_type@12@DW4length_modifier@2@@Z 0000000180080280 f i libucrtd:output.obj
 0001:0007f3a0       ?validate_and_store_parameter_data@?$positional_parameter_base@DV?$string_output_adapter@D@__crt_stdio_output@@@__crt_stdio_output@@AEAA_NAEAUparameter_data@12@W4parameter_type@12@DW4length_modifier@2@@Z 00000001800803a0 f i libucrtd:output.obj
 0001:0007f4c0       ?validate_and_store_parameter_data@?$positional_parameter_base@_WV?$stream_output_adapter@_W@__crt_stdio_output@@@__crt_stdio_output@@AEAA_NAEAUparameter_data@12@W4parameter_type@12@_WW4length_modifier@2@@Z 00000001800804c0 f i libucrtd:output.obj
 0001:0007f5e0       ?validate_and_store_parameter_data@?$positional_parameter_base@_WV?$string_output_adapter@_W@__crt_stdio_output@@@__crt_stdio_output@@AEAA_NAEAUparameter_data@12@W4parameter_type@12@_WW4length_modifier@2@@Z 00000001800805e0 f i libucrtd:output.obj
 0001:0007f700       ?validate_and_update_state_at_beginning_of_format_character@?$positional_parameter_base@DV?$stream_output_adapter@D@__crt_stdio_output@@@__crt_stdio_output@@IEAA_NXZ 0000000180080700 f i libucrtd:output.obj
 0001:0007f9e0       ?validate_and_update_state_at_beginning_of_format_character@?$positional_parameter_base@DV?$string_output_adapter@D@__crt_stdio_output@@@__crt_stdio_output@@IEAA_NXZ 00000001800809e0 f i libucrtd:output.obj
 0001:0007fcc0       ?validate_and_update_state_at_beginning_of_format_character@?$positional_parameter_base@_WV?$stream_output_adapter@_W@__crt_stdio_output@@@__crt_stdio_output@@IEAA_NXZ 0000000180080cc0 f i libucrtd:output.obj
 0001:0007ffa0       ?validate_and_update_state_at_beginning_of_format_character@?$positional_parameter_base@_WV?$string_output_adapter@_W@__crt_stdio_output@@@__crt_stdio_output@@IEAA_NXZ 0000000180080fa0 f i libucrtd:output.obj
 0001:00080280       ?validate_and_update_state_at_beginning_of_format_character@?$standard_base@DV?$stream_output_adapter@D@__crt_stdio_output@@@__crt_stdio_output@@IEAA_NXZ 0000000180081280 f i libucrtd:output.obj
 0001:00080290       ?validate_and_update_state_at_beginning_of_format_character@?$standard_base@DV?$string_output_adapter@D@__crt_stdio_output@@@__crt_stdio_output@@IEAA_NXZ 0000000180081290 f i libucrtd:output.obj
 0001:000802a0       ?validate_and_update_state_at_beginning_of_format_character@?$standard_base@_WV?$stream_output_adapter@_W@__crt_stdio_output@@@__crt_stdio_output@@IEAA_NXZ 00000001800812a0 f i libucrtd:output.obj
 0001:000802b0       ?validate_and_update_state_at_beginning_of_format_character@?$standard_base@_WV?$string_output_adapter@_W@__crt_stdio_output@@@__crt_stdio_output@@IEAA_NXZ 00000001800812b0 f i libucrtd:output.obj
 0001:000802c0       ?validate_and_update_state_at_end_of_format_string@?$format_validation_base@DV?$stream_output_adapter@D@__crt_stdio_output@@@__crt_stdio_output@@IEBA_NXZ 00000001800812c0 f i libucrtd:output.obj
 0001:00080380       ?validate_and_update_state_at_end_of_format_string@?$format_validation_base@DV?$string_output_adapter@D@__crt_stdio_output@@@__crt_stdio_output@@IEBA_NXZ 0000000180081380 f i libucrtd:output.obj
 0001:00080440       ?validate_and_update_state_at_end_of_format_string@?$format_validation_base@_WV?$stream_output_adapter@_W@__crt_stdio_output@@@__crt_stdio_output@@IEBA_NXZ 0000000180081440 f i libucrtd:output.obj
 0001:00080500       ?validate_and_update_state_at_end_of_format_string@?$format_validation_base@_WV?$string_output_adapter@_W@__crt_stdio_output@@@__crt_stdio_output@@IEBA_NXZ 0000000180081500 f i libucrtd:output.obj
 0001:000805c0       ?validate_and_update_state_at_end_of_format_string@?$positional_parameter_base@DV?$stream_output_adapter@D@__crt_stdio_output@@@__crt_stdio_output@@IEAA_NXZ 00000001800815c0 f i libucrtd:output.obj
 0001:000807b0       ?validate_and_update_state_at_end_of_format_string@?$positional_parameter_base@DV?$string_output_adapter@D@__crt_stdio_output@@@__crt_stdio_output@@IEAA_NXZ 00000001800817b0 f i libucrtd:output.obj
 0001:000809a0       ?validate_and_update_state_at_end_of_format_string@?$positional_parameter_base@_WV?$stream_output_adapter@_W@__crt_stdio_output@@@__crt_stdio_output@@IEAA_NXZ 00000001800819a0 f i libucrtd:output.obj
 0001:00080b90       ?validate_and_update_state_at_end_of_format_string@?$positional_parameter_base@_WV?$string_output_adapter@_W@__crt_stdio_output@@@__crt_stdio_output@@IEAA_NXZ 0000000180081b90 f i libucrtd:output.obj
 0001:00080d80       ?validate_and_update_state_at_end_of_format_string@?$standard_base@DV?$stream_output_adapter@D@__crt_stdio_output@@@__crt_stdio_output@@IEBA_NXZ 0000000180081d80 f i libucrtd:output.obj
 0001:00080d90       ?validate_and_update_state_at_end_of_format_string@?$standard_base@DV?$string_output_adapter@D@__crt_stdio_output@@@__crt_stdio_output@@IEBA_NXZ 0000000180081d90 f i libucrtd:output.obj
 0001:00080da0       ?validate_and_update_state_at_end_of_format_string@?$standard_base@_WV?$stream_output_adapter@_W@__crt_stdio_output@@@__crt_stdio_output@@IEBA_NXZ 0000000180081da0 f i libucrtd:output.obj
 0001:00080db0       ?validate_and_update_state_at_end_of_format_string@?$standard_base@_WV?$string_output_adapter@_W@__crt_stdio_output@@@__crt_stdio_output@@IEBA_NXZ 0000000180081db0 f i libucrtd:output.obj
 0001:00080dc0       ?validate_state_for_type_case_a@?$positional_parameter_base@DV?$stream_output_adapter@D@__crt_stdio_output@@@__crt_stdio_output@@IEAA_NXZ 0000000180081dc0 f i libucrtd:output.obj
 0001:00080f00       ?validate_state_for_type_case_a@?$positional_parameter_base@DV?$string_output_adapter@D@__crt_stdio_output@@@__crt_stdio_output@@IEAA_NXZ 0000000180081f00 f i libucrtd:output.obj
 0001:00081040       ?validate_state_for_type_case_a@?$positional_parameter_base@_WV?$stream_output_adapter@_W@__crt_stdio_output@@@__crt_stdio_output@@IEAA_NXZ 0000000180082040 f i libucrtd:output.obj
 0001:00081180       ?validate_state_for_type_case_a@?$positional_parameter_base@_WV?$string_output_adapter@_W@__crt_stdio_output@@@__crt_stdio_output@@IEAA_NXZ 0000000180082180 f i libucrtd:output.obj
 0001:000812c0       ?validate_state_for_type_case_a@?$standard_base@DV?$stream_output_adapter@D@__crt_stdio_output@@@__crt_stdio_output@@IEBA_NXZ 00000001800822c0 f i libucrtd:output.obj
 0001:000812d0       ?validate_state_for_type_case_a@?$standard_base@DV?$string_output_adapter@D@__crt_stdio_output@@@__crt_stdio_output@@IEBA_NXZ 00000001800822d0 f i libucrtd:output.obj
 0001:000812e0       ?validate_state_for_type_case_a@?$standard_base@_WV?$stream_output_adapter@_W@__crt_stdio_output@@@__crt_stdio_output@@IEBA_NXZ 00000001800822e0 f i libucrtd:output.obj
 0001:000812f0       ?validate_state_for_type_case_a@?$standard_base@_WV?$string_output_adapter@_W@__crt_stdio_output@@@__crt_stdio_output@@IEBA_NXZ 00000001800822f0 f i libucrtd:output.obj
 0001:00081300       ?validate_stream_is_ansi_if_required@?$__acrt_stdio_char_traits@D@@SA_NQEAU_iobuf@@@Z 0000000180082300 f i libucrtd:output.obj
 0001:00081490       ?validate_stream_is_ansi_if_required@?$__acrt_stdio_char_traits@_W@@SA_NQEAU_iobuf@@@Z 0000000180082490 f i libucrtd:output.obj
 0001:000814a0       ?wide_null_string@?$output_processor@DV?$stream_output_adapter@D@__crt_stdio_output@@V?$format_validation_base@DV?$stream_output_adapter@D@__crt_stdio_output@@@2@@__crt_stdio_output@@CAPEA_WXZ 00000001800824a0 f i libucrtd:output.obj
 0001:000814b0       ?wide_null_string@?$output_processor@DV?$stream_output_adapter@D@__crt_stdio_output@@V?$positional_parameter_base@DV?$stream_output_adapter@D@__crt_stdio_output@@@2@@__crt_stdio_output@@CAPEA_WXZ 00000001800824b0 f i libucrtd:output.obj
 0001:000814c0       ?wide_null_string@?$output_processor@DV?$stream_output_adapter@D@__crt_stdio_output@@V?$standard_base@DV?$stream_output_adapter@D@__crt_stdio_output@@@2@@__crt_stdio_output@@CAPEA_WXZ 00000001800824c0 f i libucrtd:output.obj
 0001:000814d0       ?wide_null_string@?$output_processor@DV?$string_output_adapter@D@__crt_stdio_output@@V?$format_validation_base@DV?$string_output_adapter@D@__crt_stdio_output@@@2@@__crt_stdio_output@@CAPEA_WXZ 00000001800824d0 f i libucrtd:output.obj
 0001:000814e0       ?wide_null_string@?$output_processor@DV?$string_output_adapter@D@__crt_stdio_output@@V?$positional_parameter_base@DV?$string_output_adapter@D@__crt_stdio_output@@@2@@__crt_stdio_output@@CAPEA_WXZ 00000001800824e0 f i libucrtd:output.obj
 0001:000814f0       ?wide_null_string@?$output_processor@DV?$string_output_adapter@D@__crt_stdio_output@@V?$standard_base@DV?$string_output_adapter@D@__crt_stdio_output@@@2@@__crt_stdio_output@@CAPEA_WXZ 00000001800824f0 f i libucrtd:output.obj
 0001:00081500       ?wide_null_string@?$output_processor@_WV?$stream_output_adapter@_W@__crt_stdio_output@@V?$format_validation_base@_WV?$stream_output_adapter@_W@__crt_stdio_output@@@2@@__crt_stdio_output@@CAPEA_WXZ 0000000180082500 f i libucrtd:output.obj
 0001:00081510       ?wide_null_string@?$output_processor@_WV?$stream_output_adapter@_W@__crt_stdio_output@@V?$positional_parameter_base@_WV?$stream_output_adapter@_W@__crt_stdio_output@@@2@@__crt_stdio_output@@CAPEA_WXZ 0000000180082510 f i libucrtd:output.obj
 0001:00081520       ?wide_null_string@?$output_processor@_WV?$stream_output_adapter@_W@__crt_stdio_output@@V?$standard_base@_WV?$stream_output_adapter@_W@__crt_stdio_output@@@2@@__crt_stdio_output@@CAPEA_WXZ 0000000180082520 f i libucrtd:output.obj
 0001:00081530       ?wide_null_string@?$output_processor@_WV?$string_output_adapter@_W@__crt_stdio_output@@V?$format_validation_base@_WV?$string_output_adapter@_W@__crt_stdio_output@@@2@@__crt_stdio_output@@CAPEA_WXZ 0000000180082530 f i libucrtd:output.obj
 0001:00081540       ?wide_null_string@?$output_processor@_WV?$string_output_adapter@_W@__crt_stdio_output@@V?$positional_parameter_base@_WV?$string_output_adapter@_W@__crt_stdio_output@@@2@@__crt_stdio_output@@CAPEA_WXZ 0000000180082540 f i libucrtd:output.obj
 0001:00081550       ?wide_null_string@?$output_processor@_WV?$string_output_adapter@_W@__crt_stdio_output@@V?$standard_base@_WV?$string_output_adapter@_W@__crt_stdio_output@@@2@@__crt_stdio_output@@CAPEA_WXZ 0000000180082550 f i libucrtd:output.obj
 0001:00081560       ?write_character@?$output_adapter_common@DV?$stream_output_adapter@D@__crt_stdio_output@@@__crt_stdio_output@@QEBAXDQEAH@Z 0000000180082560 f i libucrtd:output.obj
 0001:000815b0       ?write_character@?$output_adapter_common@_WV?$stream_output_adapter@_W@__crt_stdio_output@@@__crt_stdio_output@@QEBAX_WQEAH@Z 00000001800825b0 f i libucrtd:output.obj
 0001:00081600       ?write_character@?$string_output_adapter@D@__crt_stdio_output@@QEBA_NDQEAH@Z 0000000180082600 f i libucrtd:output.obj
 0001:000816c0       ?write_character@?$string_output_adapter@_W@__crt_stdio_output@@QEBA_N_WQEAH@Z 00000001800826c0 f i libucrtd:output.obj
 0001:00081780       ?write_character_without_count_update@?$stream_output_adapter@D@__crt_stdio_output@@QEBA_ND@Z 0000000180082780 f i libucrtd:output.obj
 0001:00081800       ?write_character_without_count_update@?$stream_output_adapter@_W@__crt_stdio_output@@QEBA_N_W@Z 0000000180082800 f i libucrtd:output.obj
 0001:00081890       ?write_stored_string_tchar@?$output_processor@DV?$stream_output_adapter@D@__crt_stdio_output@@V?$format_validation_base@DV?$stream_output_adapter@D@__crt_stdio_output@@@2@@__crt_stdio_output@@AEAA_ND@Z 0000000180082890 f i libucrtd:output.obj
 0001:00081a50       ?write_stored_string_tchar@?$output_processor@DV?$stream_output_adapter@D@__crt_stdio_output@@V?$positional_parameter_base@DV?$stream_output_adapter@D@__crt_stdio_output@@@2@@__crt_stdio_output@@AEAA_ND@Z 0000000180082a50 f i libucrtd:output.obj
 0001:00081c10       ?write_stored_string_tchar@?$output_processor@DV?$stream_output_adapter@D@__crt_stdio_output@@V?$standard_base@DV?$stream_output_adapter@D@__crt_stdio_output@@@2@@__crt_stdio_output@@AEAA_ND@Z 0000000180082c10 f i libucrtd:output.obj
 0001:00081dd0       ?write_stored_string_tchar@?$output_processor@DV?$string_output_adapter@D@__crt_stdio_output@@V?$format_validation_base@DV?$string_output_adapter@D@__crt_stdio_output@@@2@@__crt_stdio_output@@AEAA_ND@Z 0000000180082dd0 f i libucrtd:output.obj
 0001:00081f90       ?write_stored_string_tchar@?$output_processor@DV?$string_output_adapter@D@__crt_stdio_output@@V?$positional_parameter_base@DV?$string_output_adapter@D@__crt_stdio_output@@@2@@__crt_stdio_output@@AEAA_ND@Z 0000000180082f90 f i libucrtd:output.obj
 0001:00082150       ?write_stored_string_tchar@?$output_processor@DV?$string_output_adapter@D@__crt_stdio_output@@V?$standard_base@DV?$string_output_adapter@D@__crt_stdio_output@@@2@@__crt_stdio_output@@AEAA_ND@Z 0000000180083150 f i libucrtd:output.obj
 0001:00082310       ?write_stored_string_tchar@?$output_processor@_WV?$stream_output_adapter@_W@__crt_stdio_output@@V?$format_validation_base@_WV?$stream_output_adapter@_W@__crt_stdio_output@@@2@@__crt_stdio_output@@AEAA_N_W@Z 0000000180083310 f i libucrtd:output.obj
 0001:00082460       ?write_stored_string_tchar@?$output_processor@_WV?$stream_output_adapter@_W@__crt_stdio_output@@V?$positional_parameter_base@_WV?$stream_output_adapter@_W@__crt_stdio_output@@@2@@__crt_stdio_output@@AEAA_N_W@Z 0000000180083460 f i libucrtd:output.obj
 0001:000825b0       ?write_stored_string_tchar@?$output_processor@_WV?$stream_output_adapter@_W@__crt_stdio_output@@V?$standard_base@_WV?$stream_output_adapter@_W@__crt_stdio_output@@@2@@__crt_stdio_output@@AEAA_N_W@Z 00000001800835b0 f i libucrtd:output.obj
 0001:00082700       ?write_stored_string_tchar@?$output_processor@_WV?$string_output_adapter@_W@__crt_stdio_output@@V?$format_validation_base@_WV?$string_output_adapter@_W@__crt_stdio_output@@@2@@__crt_stdio_output@@AEAA_N_W@Z 0000000180083700 f i libucrtd:output.obj
 0001:00082850       ?write_stored_string_tchar@?$output_processor@_WV?$string_output_adapter@_W@__crt_stdio_output@@V?$positional_parameter_base@_WV?$string_output_adapter@_W@__crt_stdio_output@@@2@@__crt_stdio_output@@AEAA_N_W@Z 0000000180083850 f i libucrtd:output.obj
 0001:000829a0       ?write_stored_string_tchar@?$output_processor@_WV?$string_output_adapter@_W@__crt_stdio_output@@V?$standard_base@_WV?$string_output_adapter@_W@__crt_stdio_output@@@2@@__crt_stdio_output@@AEAA_N_W@Z 00000001800839a0 f i libucrtd:output.obj
 0001:00082af0       ?write_string@?$stream_output_adapter@D@__crt_stdio_output@@QEBAXQEBDHQEAHAEAV__crt_deferred_errno_cache@@@Z 0000000180083af0 f i libucrtd:output.obj
 0001:00082b70       ?write_string@?$stream_output_adapter@_W@__crt_stdio_output@@QEBAXQEB_WHQEAHAEAV__crt_deferred_errno_cache@@@Z 0000000180083b70 f i libucrtd:output.obj
 0001:00082bf0       ?write_string@?$string_output_adapter@D@__crt_stdio_output@@QEBAXQEBDHQEAHAEAV__crt_deferred_errno_cache@@@Z 0000000180083bf0 f i libucrtd:output.obj
 0001:00082d60       ?write_string@?$string_output_adapter@_W@__crt_stdio_output@@QEBAXQEB_WHQEAHAEAV__crt_deferred_errno_cache@@@Z 0000000180083d60 f i libucrtd:output.obj
 0001:00082ed0       ?write_string_impl@?$output_adapter_common@DV?$stream_output_adapter@D@__crt_stdio_output@@@__crt_stdio_output@@IEBAXQEBDHQEAHAEAV__crt_deferred_errno_cache@@@Z 0000000180083ed0 f i libucrtd:output.obj
 0001:00082fb0       ?write_string_impl@?$output_adapter_common@_WV?$stream_output_adapter@_W@__crt_stdio_output@@@__crt_stdio_output@@IEBAXQEB_WHQEAHAEAV__crt_deferred_errno_cache@@@Z 0000000180083fb0 f i libucrtd:output.obj
 0001:00083090       __acrt_disable_global_locale_sync 0000000180084090 f i libucrtd:output.obj
 0001:000830c0       __acrt_enable_global_locale_sync 00000001800840c0 f i libucrtd:output.obj
 0001:000830f0       __acrt_isleadbyte_l_noupdate 00000001800840f0 f i libucrtd:output.obj
 0001:00083120       __acrt_locale_changed      0000000180084120 f i libucrtd:output.obj
 0001:00083150       __acrt_locale_get_ctype_array_value 0000000180084150 f i libucrtd:output.obj
 0001:00083190       __stdio_common_vfprintf    0000000180084190 f   libucrtd:output.obj
 0001:000831d0       __stdio_common_vfprintf_p  00000001800841d0 f   libucrtd:output.obj
 0001:00083210       __stdio_common_vfprintf_s  0000000180084210 f   libucrtd:output.obj
 0001:00083250       __stdio_common_vfwprintf   0000000180084250 f   libucrtd:output.obj
 0001:00083290       __stdio_common_vfwprintf_p 0000000180084290 f   libucrtd:output.obj
 0001:000832d0       __stdio_common_vfwprintf_s 00000001800842d0 f   libucrtd:output.obj
 0001:00083310       __stdio_common_vsnprintf_s 0000000180084310 f   libucrtd:output.obj
 0001:00083370       __stdio_common_vsnwprintf_s 0000000180084370 f   libucrtd:output.obj
 0001:000833d0       __stdio_common_vsprintf    00000001800843d0 f   libucrtd:output.obj
 0001:00083420       __stdio_common_vsprintf_p  0000000180084420 f   libucrtd:output.obj
 0001:00083470       __stdio_common_vsprintf_s  0000000180084470 f   libucrtd:output.obj
 0001:000834c0       __stdio_common_vswprintf   00000001800844c0 f   libucrtd:output.obj
 0001:00083510       __stdio_common_vswprintf_p 0000000180084510 f   libucrtd:output.obj
 0001:00083560       __stdio_common_vswprintf_s 0000000180084560 f   libucrtd:output.obj
 0001:000835b0       _ctype_fast_check_internal 00000001800845b0 f i libucrtd:output.obj
 0001:000835e0       _isdigit_fast_internal     00000001800845e0 f i libucrtd:output.obj
 0001:00083610       _tolower_fast_internal     0000000180084610 f i libucrtd:output.obj
 0001:00083640       free                       0000000180084640 f   libucrtd:free.obj
 0001:00083670       malloc                     0000000180084670 f   libucrtd:malloc.obj
 0001:000836a0       ??$?RU?$__crt_report_hook_node@D@@@__crt_internal_free_policy@@QEBAXQEBU?$__crt_report_hook_node@D@@@Z 00000001800846a0 f i libucrtd:dbgrpt.obj
 0001:000836d0       ??$?RU?$__crt_report_hook_node@_W@@@__crt_internal_free_policy@@QEBAXQEBU?$__crt_report_hook_node@_W@@@Z 00000001800846d0 f i libucrtd:dbgrpt.obj
 0001:00084910       ??$get_module_file_name@AEAPEAUHINSTANCE__@@AEAY0BAF@DK@?$__crt_char_traits@D@@SAKAEAPEAUHINSTANCE__@@AEAY0BAF@D$$QEAK@Z 0000000180085910 f i libucrtd:dbgrpt.obj
 0001:00084950       ??$get_module_file_name@AEAPEAUHINSTANCE__@@AEAY0BAF@_WK@?$__crt_char_traits@_W@@SAKAEAPEAUHINSTANCE__@@AEAY0BAF@_W$$QEAK@Z 0000000180085950 f i libucrtd:dbgrpt.obj
 0001:00084990       ??$tcscpy_s@AEAY0BAF@D_KPEBD@?$__crt_char_traits@D@@SAHAEAY0BAF@D$$QEA_K$$QEAPEBD@Z 0000000180085990 f i libucrtd:dbgrpt.obj
 0001:000849d0       ??$tcscpy_s@AEAY0BAF@_W_KPEB_W@?$__crt_char_traits@_W@@SAHAEAY0BAF@_W$$QEA_K$$QEAPEB_W@Z 00000001800859d0 f i libucrtd:dbgrpt.obj
 0001:00084a10       ??$tcslen@AEAY0BAF@D@?$__crt_char_traits@D@@SA_KAEAY0BAF@D@Z 0000000180085a10 f i libucrtd:dbgrpt.obj
 0001:00084a30       ??$tcslen@AEAY0BAF@_W@?$__crt_char_traits@_W@@SA_KAEAY0BAF@_W@Z 0000000180085a30 f i libucrtd:dbgrpt.obj
 0001:00084a50       ??$tcslen@AEBQEBD@?$__crt_char_traits@D@@SA_KAEBQEBD@Z 0000000180085a50 f i libucrtd:dbgrpt.obj
 0001:00084a70       ??$tcslen@AEBQEB_W@?$__crt_char_traits@_W@@SA_KAEBQEB_W@Z 0000000180085a70 f i libucrtd:dbgrpt.obj
 0001:00084b70       ??0?$__crt_unique_heap_ptr@U?$__crt_report_hook_node@D@@U__crt_internal_free_policy@@@@QEAA@QEAU?$__crt_report_hook_node@D@@@Z 0000000180085b70 f i libucrtd:dbgrpt.obj
 0001:00084b90       ??0?$__crt_unique_heap_ptr@U?$__crt_report_hook_node@_W@@U__crt_internal_free_policy@@@@QEAA@QEAU?$__crt_report_hook_node@_W@@@Z 0000000180085b90 f i libucrtd:dbgrpt.obj
 0001:00084bb0       ??1?$__crt_unique_heap_ptr@U?$__crt_report_hook_node@D@@U__crt_internal_free_policy@@@@QEAA@XZ 0000000180085bb0 f i libucrtd:dbgrpt.obj
 0001:00084bd0       ??1?$__crt_unique_heap_ptr@U?$__crt_report_hook_node@_W@@U__crt_internal_free_policy@@@@QEAA@XZ 0000000180085bd0 f i libucrtd:dbgrpt.obj
 0001:00084bf0       ??B?$__crt_unique_heap_ptr@U?$__crt_report_hook_node@D@@U__crt_internal_free_policy@@@@QEBA_NXZ 0000000180085bf0 f i libucrtd:dbgrpt.obj
 0001:00084c10       ??B?$__crt_unique_heap_ptr@U?$__crt_report_hook_node@_W@@U__crt_internal_free_policy@@@@QEBA_NXZ 0000000180085c10 f i libucrtd:dbgrpt.obj
 0001:000852f0       ?detach@?$__crt_unique_heap_ptr@U?$__crt_report_hook_node@D@@U__crt_internal_free_policy@@@@QEAAPEAU?$__crt_report_hook_node@D@@XZ 00000001800862f0 f i libucrtd:dbgrpt.obj
 0001:00085320       ?detach@?$__crt_unique_heap_ptr@U?$__crt_report_hook_node@_W@@U__crt_internal_free_policy@@@@QEAAPEAU?$__crt_report_hook_node@_W@@XZ 0000000180086320 f i libucrtd:dbgrpt.obj
 0001:00085350       ?get@?$__crt_unique_heap_ptr@U?$__crt_report_hook_node@D@@U__crt_internal_free_policy@@@@QEBAPEAU?$__crt_report_hook_node@D@@XZ 0000000180086350 f i libucrtd:dbgrpt.obj
 0001:00085360       ?get@?$__crt_unique_heap_ptr@U?$__crt_report_hook_node@_W@@U__crt_internal_free_policy@@@@QEBAPEAU?$__crt_report_hook_node@_W@@XZ 0000000180086360 f i libucrtd:dbgrpt.obj
 0001:000853d0       ?is_valid@?$__crt_unique_heap_ptr@U?$__crt_report_hook_node@D@@U__crt_internal_free_policy@@@@QEBA_NXZ 00000001800863d0 f i libucrtd:dbgrpt.obj
 0001:00085400       ?is_valid@?$__crt_unique_heap_ptr@U?$__crt_report_hook_node@_W@@U__crt_internal_free_policy@@@@QEBA_NXZ 0000000180086400 f i libucrtd:dbgrpt.obj
 0001:00085430       ?release@?$__crt_unique_heap_ptr@U?$__crt_report_hook_node@D@@U__crt_internal_free_policy@@@@QEAAXXZ 0000000180086430 f i libucrtd:dbgrpt.obj
 0001:00085460       ?release@?$__crt_unique_heap_ptr@U?$__crt_report_hook_node@_W@@U__crt_internal_free_policy@@@@QEAAXXZ 0000000180086460 f i libucrtd:dbgrpt.obj
 0001:00085490       _CrtDbgReport              0000000180086490 f   libucrtd:dbgrpt.obj
 0001:00085510       _CrtDbgReportW             0000000180086510 f   libucrtd:dbgrpt.obj
 0001:00085590       _CrtSetReportHook2         0000000180086590 f   libucrtd:dbgrpt.obj
 0001:000855b0       _CrtSetReportHookW2        00000001800865b0 f   libucrtd:dbgrpt.obj
 0001:000855d0       __acrt_MessageWindowA      00000001800865d0 f   libucrtd:dbgrpt.obj
 0001:00085620       __acrt_MessageWindowW      0000000180086620 f   libucrtd:dbgrpt.obj
 0001:00085670       _invoke_watson_if_error    0000000180086670 f i libucrtd:dbgrpt.obj
 0001:000856c0       _invoke_watson_if_oneof    00000001800866c0 f i libucrtd:dbgrpt.obj
 0001:00085720       _snwprintf_s               0000000180086720 f i libucrtd:dbgrpt.obj
 0001:00085790       _vsnwprintf_s_l            0000000180086790 f i libucrtd:dbgrpt.obj
 0001:00085cf0       wcscpy_s                   0000000180086cf0 f   libucrtd:wcscpy_s.obj
 0001:00087080       ??1?$__crt_simd_cleanup_guard@$00@@QEAA@XZ 0000000180088080 f i libucrtd:strnlen.obj
 0001:00087090       ??1?$__crt_simd_cleanup_guard@$0A@@@QEAA@XZ 0000000180088090 f i libucrtd:strnlen.obj
 0001:000870a0       ?compare_equals@?$__crt_simd_traits@$00E@@SA?AT__m256i@@T2@0@Z 00000001800880a0 f i libucrtd:strnlen.obj
 0001:000870e0       ?compare_equals@?$__crt_simd_traits@$00G@@SA?AT__m256i@@T2@0@Z 00000001800880e0 f i libucrtd:strnlen.obj
 0001:00087120       ?compare_equals@?$__crt_simd_traits@$0A@E@@SA?AT__m128i@@T2@0@Z 0000000180088120 f i libucrtd:strnlen.obj
 0001:00087150       ?compare_equals@?$__crt_simd_traits@$0A@G@@SA?AT__m128i@@T2@0@Z 0000000180088150 f i libucrtd:strnlen.obj
 0001:00087180       ?compute_byte_mask@?$__crt_simd_pack_traits@$00@@SAHT__m256i@@@Z 0000000180088180 f i libucrtd:strnlen.obj
 0001:000871a0       ?compute_byte_mask@?$__crt_simd_pack_traits@$0A@@@SAHT__m128i@@@Z 00000001800881a0 f i libucrtd:strnlen.obj
 0001:000871c0       ?get_zero_pack@?$__crt_simd_pack_traits@$00@@SA?AT__m256i@@XZ 00000001800881c0 f i libucrtd:strnlen.obj
 0001:000871f0       ?get_zero_pack@?$__crt_simd_pack_traits@$0A@@@SA?AT__m128i@@XZ 00000001800881f0 f i libucrtd:strnlen.obj
 0001:00087210       strnlen                    0000000180088210 f   libucrtd:strnlen.obj
 0001:00087240       wcslen                     0000000180088240 f   libucrtd:strnlen.obj
 0001:00087260       wcsnlen                    0000000180088260 f   libucrtd:strnlen.obj
 0001:00087290       ??$__crt_fast_decode_pointer@P6AXPEB_W00I_K@Z@@YAP6AXPEB_W00I_K@ZQ6AX000I1@Z@Z 0000000180088290 f i libucrtd:invalid_parameter.obj
 0001:000872d0       ??$__crt_fast_encode_pointer@P6AXPEB_W00I_K@Z@@YAP6AXPEB_W00I_K@ZQ6AX000I1@Z@Z 00000001800882d0 f i libucrtd:invalid_parameter.obj
 0001:00087310       ??$initialize_from_array@$$BY00Q6AXPEB_W00I_K@Z@?$dual_state_global@P6AXPEB_W00I_K@Z@__crt_state_management@@QEAAXAEAY00Q6AXPEB_W00I_K@Z@Z 0000000180088310 f i libucrtd:invalid_parameter.obj
 0001:00087370       ?__crt_rotate_pointer_value@@YA_K_KH@Z 0000000180088370 f i libucrtd:invalid_parameter.obj
 0001:00087430       ?dangerous_get_state_array@?$dual_state_global@P6AXPEB_W00I_K@Z@__crt_state_management@@QEAAPEAP6AXPEB_W00I_K@ZXZ 0000000180088430 f i libucrtd:invalid_parameter.obj
 0001:00087440       ?get_current_state_index@__crt_state_management@@YA_KXZ 0000000180088440 f i libucrtd:invalid_parameter.obj
 0001:00087450       ?value@?$dual_state_global@P6AXPEB_W00I_K@Z@__crt_state_management@@QEAAAEAP6AXPEB_W00I_K@ZXZ 0000000180088450 f i libucrtd:invalid_parameter.obj
 0001:00087470       __acrt_call_reportfault    0000000180088470 f   libucrtd:invalid_parameter.obj
 0001:000875a0       __acrt_initialize_invalid_parameter_handler 00000001800885a0 f   libucrtd:invalid_parameter.obj
 0001:000875d0       _get_invalid_parameter_handler 00000001800885d0 f   libucrtd:invalid_parameter.obj
 0001:000875f0       _get_thread_local_invalid_parameter_handler 00000001800885f0 f   libucrtd:invalid_parameter.obj
 0001:00087620       _invalid_parameter         0000000180088620 f   libucrtd:invalid_parameter.obj
 0001:00087720       _invalid_parameter_noinfo  0000000180088720 f   libucrtd:invalid_parameter.obj
 0001:00087750       _invalid_parameter_noinfo_noreturn 0000000180088750 f   libucrtd:invalid_parameter.obj
 0001:00087790       _invoke_watson             0000000180088790 f   libucrtd:invalid_parameter.obj
 0001:000877f0       _set_invalid_parameter_handler 00000001800887f0 f   libucrtd:invalid_parameter.obj
 0001:00087840       _set_thread_local_invalid_parameter_handler 0000000180088840 f   libucrtd:invalid_parameter.obj
 0001:00087880       __acrt_errno_from_os_error 0000000180088880 f   libucrtd:errno.obj
 0001:00087910       __acrt_errno_map_os_error  0000000180088910 f   libucrtd:errno.obj
 0001:00087940       __doserrno                 0000000180088940 f   libucrtd:errno.obj
 0001:00087970       _errno                     0000000180088970 f   libucrtd:errno.obj
 0001:000879a0       _get_doserrno              00000001800889a0 f   libucrtd:errno.obj
 0001:00087a60       _get_errno                 0000000180088a60 f   libucrtd:errno.obj
 0001:00087b20       _set_doserrno              0000000180088b20 f   libucrtd:errno.obj
 0001:00087b60       _set_errno                 0000000180088b60 f   libucrtd:errno.obj
 0001:00087ba0       calloc                     0000000180088ba0 f   libucrtd:calloc.obj
 0001:00087be0       _recalloc                  0000000180088be0 f   libucrtd:recalloc.obj
 0001:00087c30       _recalloc_base             0000000180088c30 f   libucrtd:recalloc.obj
 0001:00087d0c       _resetstkoflw              0000000180088d0c f   libucrtd:resetstk.obj
 0001:000884c0       wcscat_s                   00000001800894c0 f   libucrtd:wcscat_s.obj
 0001:00088b90       wcsncpy_s                  0000000180089b90 f   libucrtd:wcsncpy_s.obj
 0001:00088d10       __isascii                  0000000180089d10 f   libucrtd:_ctype.obj
 0001:00088d40       __iscsym                   0000000180089d40 f   libucrtd:_ctype.obj
 0001:00088d80       __iscsymf                  0000000180089d80 f   libucrtd:_ctype.obj
 0001:00088dc0       __toascii                  0000000180089dc0 f   libucrtd:_ctype.obj
 0001:00088dd0       _isalnum_l                 0000000180089dd0 f   libucrtd:_ctype.obj
 0001:00088e00       _isalpha_l                 0000000180089e00 f   libucrtd:_ctype.obj
 0001:00088e30       _isblank_l                 0000000180089e30 f   libucrtd:_ctype.obj
 0001:00088e60       _iscntrl_l                 0000000180089e60 f   libucrtd:_ctype.obj
 0001:00088e90       _iscsym_l                  0000000180089e90 f   libucrtd:_ctype.obj
 0001:00088ee0       _iscsymf_l                 0000000180089ee0 f   libucrtd:_ctype.obj
 0001:00088f30       _isdigit_l                 0000000180089f30 f   libucrtd:_ctype.obj
 0001:00088f60       _isgraph_l                 0000000180089f60 f   libucrtd:_ctype.obj
 0001:00088f90       _islower_l                 0000000180089f90 f   libucrtd:_ctype.obj
 0001:00088fc0       _isprint_l                 0000000180089fc0 f   libucrtd:_ctype.obj
 0001:00088ff0       _ispunct_l                 0000000180089ff0 f   libucrtd:_ctype.obj
 0001:00089020       _isspace_l                 000000018008a020 f   libucrtd:_ctype.obj
 0001:00089050       _isupper_l                 000000018008a050 f   libucrtd:_ctype.obj
 0001:00089080       _isxdigit_l                000000018008a080 f   libucrtd:_ctype.obj
 0001:000890b0       isalnum                    000000018008a0b0 f   libucrtd:_ctype.obj
 0001:000890d0       isalpha                    000000018008a0d0 f   libucrtd:_ctype.obj
 0001:000890f0       isblank                    000000018008a0f0 f   libucrtd:_ctype.obj
 0001:00089120       iscntrl                    000000018008a120 f   libucrtd:_ctype.obj
 0001:00089140       isdigit                    000000018008a140 f   libucrtd:_ctype.obj
 0001:00089160       isgraph                    000000018008a160 f   libucrtd:_ctype.obj
 0001:00089180       islower                    000000018008a180 f   libucrtd:_ctype.obj
 0001:000891a0       isprint                    000000018008a1a0 f   libucrtd:_ctype.obj
 0001:000891c0       ispunct                    000000018008a1c0 f   libucrtd:_ctype.obj
 0001:000891e0       isspace                    000000018008a1e0 f   libucrtd:_ctype.obj
 0001:00089200       isupper                    000000018008a200 f   libucrtd:_ctype.obj
 0001:00089220       isxdigit                   000000018008a220 f   libucrtd:_ctype.obj
 0001:00089240       wcscat                     000000018008a240 f   libucrtd:wcscat.obj
 0001:000892c0       wcscpy                     000000018008a2c0 f   libucrtd:wcscpy.obj
 0001:00089a70       ??$open_file@AEBQEBDAEBQEBDAEBHPEAU_iobuf@@@?$__crt_char_traits@D@@SAPEAU_iobuf@@AEBQEBD0AEBH$$QEAPEAU1@@Z 000000018008aa70 f i libucrtd:fopen.obj
 0001:00089ac0       ??$open_file@AEBQEB_WAEBQEB_WAEBHPEAU_iobuf@@@?$__crt_char_traits@_W@@SAPEAU_iobuf@@AEBQEB_W0AEBH$$QEAPEAU1@@Z 000000018008aac0 f i libucrtd:fopen.obj
 0001:00089b10       ?unlock@__crt_stdio_stream@@QEBAXXZ 000000018008ab10 f i libucrtd:fopen.obj
 0001:00089b30       _fsopen                    000000018008ab30 f   libucrtd:fopen.obj
 0001:00089b60       _wfopen                    000000018008ab60 f   libucrtd:fopen.obj
 0001:00089b90       _wfopen_s                  000000018008ab90 f   libucrtd:fopen.obj
 0001:00089bc0       _wfsopen                   000000018008abc0 f   libucrtd:fopen.obj
 0001:00089bf0       fopen                      000000018008abf0 f   libucrtd:fopen.obj
 0001:00089c20       fopen_s                    000000018008ac20 f   libucrtd:fopen.obj
 0001:00089c50       ?is_in_use@__crt_stdio_stream@@QEBA_NXZ 000000018008ac50 f i libucrtd:fclose.obj
 0001:00089c90       _fclose_nolock             000000018008ac90 f   libucrtd:fclose.obj
 0001:00089e20       fclose                     000000018008ae20 f   libucrtd:fclose.obj
 0001:00089f60       _fputc_nolock              000000018008af60 f   libucrtd:fputc.obj
 0001:0008a010       _fputchar                  000000018008b010 f   libucrtd:fputc.obj
 0001:0008a040       _putc_nolock               000000018008b040 f   libucrtd:fputc.obj
 0001:0008a060       fputc                      000000018008b060 f   libucrtd:fputc.obj
 0001:0008a300       putc                       000000018008b300 f   libucrtd:fputc.obj
 0001:0008a320       putchar                    000000018008b320 f   libucrtd:fputc.obj
 0001:0008a3b0       _seh_filter_dll            000000018008b3b0 f   libucrtd:exception_filter.obj
 0001:0008a3e0       _seh_filter_exe            000000018008b3e0 f   libucrtd:exception_filter.obj
 0001:0008a680       ??$?B$$A6AXPEAXK0@Z@__crt_fast_encoded_nullptr_t@@QEBAP6AXPEAXK0@ZXZ 000000018008b680 f i libucrtd:exit.obj
 0001:0008a730       ??$__crt_fast_decode_pointer@P6AXPEAXK0@Z@@YAP6AXPEAXK0@ZQ6AX0K0@Z@Z 000000018008b730 f i libucrtd:exit.obj
 0001:0008a770       ??$__crt_fast_encode_pointer@P6AXPEAXK0@Z@@YAP6AXPEAXK0@ZQ6AX0K0@Z@Z 000000018008b770 f i libucrtd:exit.obj
 0001:0008a7b0       ??$__crt_get_proc_address@P6AXI@Z@@YAP6AXI@ZQEAUHINSTANCE__@@QEBD@Z 000000018008b7b0 f i libucrtd:exit.obj
 0001:0008a870       ??0?$__crt_unique_handle_t@U__crt_hmodule_traits@@@@QEAA@QEAUHINSTANCE__@@@Z 000000018008b870 f i libucrtd:exit.obj
 0001:0008a890       ??1?$__crt_unique_handle_t@U__crt_hmodule_traits@@@@QEAA@XZ 000000018008b890 f i libucrtd:exit.obj
 0001:0008a9f0       ?__acrt_select_exit_lock@@YA?AW4__acrt_lock_id@@XZ 000000018008b9f0 f i libucrtd:exit.obj
 0001:0008aa00       ?__crt_fast_encode_pointer@@YA?AU__crt_fast_encoded_nullptr_t@@$$T@Z 000000018008ba00 f i libucrtd:exit.obj
 0001:0008aa40       ?close@?$__crt_unique_handle_t@U__crt_hmodule_traits@@@@QEAAXXZ 000000018008ba40 f i libucrtd:exit.obj
 0001:0008aa80       ?close@__crt_hmodule_traits@@SA_NPEAUHINSTANCE__@@@Z 000000018008ba80 f i libucrtd:exit.obj
 0001:0008ab90       ?get@?$__crt_unique_handle_t@U__crt_hmodule_traits@@@@QEBAPEAUHINSTANCE__@@XZ 000000018008bb90 f i libucrtd:exit.obj
 0001:0008aba0       ?get_address_of@?$__crt_unique_handle_t@U__crt_hmodule_traits@@@@QEAAPEAPEAUHINSTANCE__@@XZ 000000018008bba0 f i libucrtd:exit.obj
 0001:0008abb0       ?get_invalid_value@__crt_hmodule_traits@@SAPEAUHINSTANCE__@@XZ 000000018008bbb0 f i libucrtd:exit.obj
 0001:0008ad70       _Exit                      000000018008bd70 f   libucrtd:exit.obj
 0001:0008ad90       __acrt_initialize_thread_local_exit_callback 000000018008bd90 f   libucrtd:exit.obj
 0001:0008adb0       _c_exit                    000000018008bdb0 f   libucrtd:exit.obj
 0001:0008add0       _cexit                     000000018008bdd0 f   libucrtd:exit.obj
 0001:0008adf0       _exit                      000000018008bdf0 f   libucrtd:exit.obj
 0001:0008ae10       _is_c_termination_complete 000000018008be10 f   libucrtd:exit.obj
 0001:0008ae30       _register_thread_local_exe_atexit_callback 000000018008be30 f   libucrtd:exit.obj
 0001:0008ae80       exit                       000000018008be80 f   libucrtd:exit.obj
 0001:0008aea0       quick_exit                 000000018008bea0 f   libucrtd:exit.obj
 0001:0008aec0       ??$?RE@__crt_internal_free_policy@@QEBAXQEBE@Z 000000018008bec0 f i libucrtd:argv_parsing.obj
 0001:0008aef0       ??$?RPEAD@__crt_internal_free_policy@@QEBAXQEBQEAD@Z 000000018008bef0 f i libucrtd:argv_parsing.obj
 0001:0008af20       ??$?RPEA_W@__crt_internal_free_policy@@QEBAXQEBQEA_W@Z 000000018008bf20 f i libucrtd:argv_parsing.obj
 0001:0008b670       ??$get_module_file_name@$$TAEAY0BAF@DH@?$__crt_char_traits@D@@SAK$$QEA$$TAEAY0BAF@D$$QEAH@Z 000000018008c670 f i libucrtd:argv_parsing.obj
 0001:0008b6b0       ??$get_module_file_name@$$TAEAY0BAF@_WH@?$__crt_char_traits@_W@@SAK$$QEA$$TAEAY0BAF@_W$$QEAH@Z 000000018008c6b0 f i libucrtd:argv_parsing.obj
 0001:0008c060       ??$set_program_name@PEAD@?$__crt_char_traits@D@@SAX$$QEAPEAD@Z 000000018008d060 f i libucrtd:argv_parsing.obj
 0001:0008c080       ??$set_program_name@PEA_W@?$__crt_char_traits@_W@@SAX$$QEAPEA_W@Z 000000018008d080 f i libucrtd:argv_parsing.obj
 0001:0008c0e0       ??0?$__crt_unique_heap_ptr@EU__crt_internal_free_policy@@@@QEAA@QEAE@Z 000000018008d0e0 f i libucrtd:argv_parsing.obj
 0001:0008c100       ??0?$__crt_unique_heap_ptr@PEADU__crt_internal_free_policy@@@@QEAA@QEAPEAD@Z 000000018008d100 f i libucrtd:argv_parsing.obj
 0001:0008c120       ??0?$__crt_unique_heap_ptr@PEA_WU__crt_internal_free_policy@@@@QEAA@QEAPEA_W@Z 000000018008d120 f i libucrtd:argv_parsing.obj
 0001:0008c140       ??1?$__crt_unique_heap_ptr@EU__crt_internal_free_policy@@@@QEAA@XZ 000000018008d140 f i libucrtd:argv_parsing.obj
 0001:0008c160       ??1?$__crt_unique_heap_ptr@PEADU__crt_internal_free_policy@@@@QEAA@XZ 000000018008d160 f i libucrtd:argv_parsing.obj
 0001:0008c180       ??1?$__crt_unique_heap_ptr@PEA_WU__crt_internal_free_policy@@@@QEAA@XZ 000000018008d180 f i libucrtd:argv_parsing.obj
 0001:0008c1a0       ??B?$__crt_unique_heap_ptr@EU__crt_internal_free_policy@@@@QEBA_NXZ 000000018008d1a0 f i libucrtd:argv_parsing.obj
 0001:0008c280       ?detach@?$__crt_unique_heap_ptr@EU__crt_internal_free_policy@@@@QEAAPEAEXZ 000000018008d280 f i libucrtd:argv_parsing.obj
 0001:0008c2b0       ?detach@?$__crt_unique_heap_ptr@PEADU__crt_internal_free_policy@@@@QEAAPEAPEADXZ 000000018008d2b0 f i libucrtd:argv_parsing.obj
 0001:0008c2e0       ?detach@?$__crt_unique_heap_ptr@PEA_WU__crt_internal_free_policy@@@@QEAAPEAPEA_WXZ 000000018008d2e0 f i libucrtd:argv_parsing.obj
 0001:0008c3a0       ?get@?$__crt_unique_heap_ptr@EU__crt_internal_free_policy@@@@QEBAPEAEXZ 000000018008d3a0 f i libucrtd:argv_parsing.obj
 0001:0008c3b0       ?get@?$__crt_unique_heap_ptr@PEADU__crt_internal_free_policy@@@@QEBAPEAPEADXZ 000000018008d3b0 f i libucrtd:argv_parsing.obj
 0001:0008c3c0       ?get@?$__crt_unique_heap_ptr@PEA_WU__crt_internal_free_policy@@@@QEBAPEAPEA_WXZ 000000018008d3c0 f i libucrtd:argv_parsing.obj
 0001:0008c3d0       ?get_address_of@?$__crt_unique_heap_ptr@PEADU__crt_internal_free_policy@@@@QEAAPEAPEAPEADXZ 000000018008d3d0 f i libucrtd:argv_parsing.obj
 0001:0008c3e0       ?get_address_of@?$__crt_unique_heap_ptr@PEA_WU__crt_internal_free_policy@@@@QEAAPEAPEAPEA_WXZ 000000018008d3e0 f i libucrtd:argv_parsing.obj
 0001:0008c430       ?is_valid@?$__crt_unique_heap_ptr@EU__crt_internal_free_policy@@@@QEBA_NXZ 000000018008d430 f i libucrtd:argv_parsing.obj
 0001:0008c460       ?release@?$__crt_unique_heap_ptr@EU__crt_internal_free_policy@@@@QEAAXXZ 000000018008d460 f i libucrtd:argv_parsing.obj
 0001:0008c490       ?release@?$__crt_unique_heap_ptr@PEADU__crt_internal_free_policy@@@@QEAAXXZ 000000018008d490 f i libucrtd:argv_parsing.obj
 0001:0008c4c0       ?release@?$__crt_unique_heap_ptr@PEA_WU__crt_internal_free_policy@@@@QEAAXXZ 000000018008d4c0 f i libucrtd:argv_parsing.obj
 0001:0008c540       __acrt_allocate_buffer_for_argv 000000018008d540 f   libucrtd:argv_parsing.obj
 0001:0008c660       _configure_narrow_argv     000000018008d660 f   libucrtd:argv_parsing.obj
 0001:0008c680       _configure_wide_argv       000000018008d680 f   libucrtd:argv_parsing.obj
 0001:0008c6a0       _set_pgmptr                000000018008d6a0 f i libucrtd:argv_parsing.obj
 0001:0008c6c0       _set_wpgmptr               000000018008d6c0 f i libucrtd:argv_parsing.obj
 0001:0008c6d4       ??$?R_W@__crt_internal_free_policy@@QEBAXQEB_W@Z 000000018008d6d4 f i libucrtd:environment_initialization.obj
 0001:0008ccac       ??$get_environment_from_os@$$V@?$__crt_char_traits@D@@SAPEADXZ 000000018008dcac f i libucrtd:environment_initialization.obj
 0001:0008ccb4       ??$get_environment_from_os@$$V@?$__crt_char_traits@_W@@SAPEA_WXZ 000000018008dcb4 f i libucrtd:environment_initialization.obj
 0001:0008ce84       ??$set_variable_in_environment_nolock@PEADH@?$__crt_char_traits@D@@SAH$$QEAPEAD$$QEAH@Z 000000018008de84 f i libucrtd:environment_initialization.obj
 0001:0008ce90       ??$set_variable_in_environment_nolock@PEA_WH@?$__crt_char_traits@_W@@SAH$$QEAPEA_W$$QEAH@Z 000000018008de90 f i libucrtd:environment_initialization.obj
 0001:0008ce9c       ??$tcscpy_s@PEADAEB_KAEAPEAD@?$__crt_char_traits@D@@SAH$$QEAPEADAEB_KAEAPEAD@Z 000000018008de9c f i libucrtd:environment_initialization.obj
 0001:0008ceac       ??$tcscpy_s@PEA_WAEB_KAEAPEA_W@?$__crt_char_traits@_W@@SAH$$QEAPEA_WAEB_KAEAPEA_W@Z 000000018008deac f i libucrtd:environment_initialization.obj
 0001:0008cebc       ??$tcslen@AEAPEAD@?$__crt_char_traits@D@@SA_KAEAPEAD@Z 000000018008debc f i libucrtd:environment_initialization.obj
 0001:0008ced0       ??$tcslen@AEAPEA_W@?$__crt_char_traits@_W@@SA_KAEAPEA_W@Z 000000018008ded0 f i libucrtd:environment_initialization.obj
 0001:0008cee4       ??$uninitialize@A6AXAEAPEAPEAD@Z@?$dual_state_global@PEAPEAD@__crt_state_management@@QEAAXA6AXAEAPEAPEAD@Z@Z 000000018008dee4 f i libucrtd:environment_initialization.obj
 0001:0008cf28       ??$uninitialize@A6AXAEAPEAPEA_W@Z@?$dual_state_global@PEAPEA_W@__crt_state_management@@QEAAXA6AXAEAPEAPEA_W@Z@Z 000000018008df28 f i libucrtd:environment_initialization.obj
 0001:0008cfa4       ??0?$__crt_unique_heap_ptr@_WU__crt_internal_free_policy@@@@QEAA@QEA_W@Z 000000018008dfa4 f i libucrtd:environment_initialization.obj
 0001:0008cfac       ??1?$__crt_unique_heap_ptr@_WU__crt_internal_free_policy@@@@QEAA@XZ 000000018008dfac f i libucrtd:environment_initialization.obj
 0001:0008cfcc       ??B?$__crt_unique_heap_ptr@PEADU__crt_internal_free_policy@@@@QEBA_NXZ 000000018008dfcc f i libucrtd:environment_initialization.obj
 0001:0008cfd4       ??B?$__crt_unique_heap_ptr@PEA_WU__crt_internal_free_policy@@@@QEBA_NXZ 000000018008dfd4 f i libucrtd:environment_initialization.obj
 0001:0008cfdc       ??B?$__crt_unique_heap_ptr@_WU__crt_internal_free_policy@@@@QEBA_NXZ 000000018008dfdc f i libucrtd:environment_initialization.obj
 0001:0008cfe4       ?__crt_compute_required_transform_buffer_count@@YA_KIQEBD@Z 000000018008dfe4 f i libucrtd:environment_initialization.obj
 0001:0008d008       ?__crt_compute_required_transform_buffer_count@@YA_KIQEB_W@Z 000000018008e008 f i libucrtd:environment_initialization.obj
 0001:0008d038       ?__crt_transform_string@@YA_KIQEBDQEA_W_K@Z 000000018008e038 f i libucrtd:environment_initialization.obj
 0001:0008d05c       ?__crt_transform_string@@YA_KIQEB_WQEAD_K@Z 000000018008e05c f i libucrtd:environment_initialization.obj
 0001:0008d08c       ?detach@?$__crt_unique_heap_ptr@DU__crt_internal_free_policy@@@@QEAAPEADXZ 000000018008e08c f i libucrtd:environment_initialization.obj
 0001:0008d094       ?detach@?$__crt_unique_heap_ptr@_WU__crt_internal_free_policy@@@@QEAAPEA_WXZ 000000018008e094 f i libucrtd:environment_initialization.obj
 0001:0008d09c       ?get@?$__crt_unique_heap_ptr@_WU__crt_internal_free_policy@@@@QEBAPEA_WXZ 000000018008e09c f i libucrtd:environment_initialization.obj
 0001:0008d0d0       ?initialize@?$dual_state_global@PEAPEAD@__crt_state_management@@QEAAXQEAPEAD@Z 000000018008e0d0 f i libucrtd:environment_initialization.obj
 0001:0008d0f8       ?initialize@?$dual_state_global@PEAPEA_W@__crt_state_management@@QEAAXQEAPEA_W@Z 000000018008e0f8 f i libucrtd:environment_initialization.obj
 0001:0008d120       ?is_valid@?$__crt_unique_heap_ptr@PEADU__crt_internal_free_policy@@@@QEBA_NXZ 000000018008e120 f i libucrtd:environment_initialization.obj
 0001:0008d128       ?is_valid@?$__crt_unique_heap_ptr@PEA_WU__crt_internal_free_policy@@@@QEBA_NXZ 000000018008e128 f i libucrtd:environment_initialization.obj
 0001:0008d130       ?is_valid@?$__crt_unique_heap_ptr@_WU__crt_internal_free_policy@@@@QEBA_NXZ 000000018008e130 f i libucrtd:environment_initialization.obj
 0001:0008d144       ?release@?$__crt_unique_heap_ptr@_WU__crt_internal_free_policy@@@@QEAAXXZ 000000018008e144 f i libucrtd:environment_initialization.obj
 0001:0008d164       ?value@?$dual_state_global@PEAPEAD@__crt_state_management@@QEAAAEAPEAPEADXZ 000000018008e164 f i libucrtd:environment_initialization.obj
 0001:0008d168       ?value@?$dual_state_global@PEAPEA_W@__crt_state_management@@QEAAAEAPEAPEA_WXZ 000000018008e168 f i libucrtd:environment_initialization.obj
 0001:0008d16c       __dcrt_get_or_create_narrow_environment_nolock 000000018008e16c f   libucrtd:environment_initialization.obj
 0001:0008d1a8       __dcrt_get_or_create_wide_environment_nolock 000000018008e1a8 f   libucrtd:environment_initialization.obj
 0001:0008d1e4       __dcrt_uninitialize_environments_nolock 000000018008e1e4 f   libucrtd:environment_initialization.obj
 0001:0008d21c       __p__environ               000000018008e21c f   libucrtd:environment_initialization.obj
 0001:0008d224       __p__wenviron              000000018008e224 f   libucrtd:environment_initialization.obj
 0001:0008d22c       _get_initial_narrow_environment 000000018008e22c f   libucrtd:environment_initialization.obj
 0001:0008d27c       _get_initial_wide_environment 000000018008e27c f   libucrtd:environment_initialization.obj
 0001:0008d2cc       _initialize_narrow_environment 000000018008e2cc f   libucrtd:environment_initialization.obj
 0001:0008d2d4       _initialize_wide_environment 000000018008e2d4 f   libucrtd:environment_initialization.obj
 0001:0008d2e0       ??$?B$$A6AXXZ@__crt_fast_encoded_nullptr_t@@QEBAP6AXXZXZ 000000018008e2e0 f i libucrtd:onexit.obj
 0001:0008d300       ??$?BP6AXXZ@__crt_fast_encoded_nullptr_t@@QEBAPEAP6AXXZXZ 000000018008e300 f i libucrtd:onexit.obj
 0001:0008d320       ??$?RP6AXXZ@__crt_internal_free_policy@@QEBAXQEBQ6AXXZ@Z 000000018008e320 f i libucrtd:onexit.obj
 0001:0008d490       ??$__crt_fast_decode_pointer@P6AXXZ@@YAP6AXXZQ6AXXZ@Z 000000018008e490 f i libucrtd:onexit.obj
 0001:0008d4d0       ??$__crt_fast_decode_pointer@PEAP6AXXZ@@YAPEAP6AXXZQEAP6AXXZ@Z 000000018008e4d0 f i libucrtd:onexit.obj
 0001:0008d510       ??$__crt_fast_encode_pointer@P6AHXZ@@YAP6AHXZQ6AHXZ@Z 000000018008e510 f i libucrtd:onexit.obj
 0001:0008d550       ??$__crt_fast_encode_pointer@P6AXXZ@@YAP6AXXZQ6AXXZ@Z 000000018008e550 f i libucrtd:onexit.obj
 0001:0008d590       ??$__crt_fast_encode_pointer@PEAP6AXXZ@@YAPEAP6AXXZQEAP6AXXZ@Z 000000018008e590 f i libucrtd:onexit.obj
 0001:0008d6a0       ??0?$__crt_unique_heap_ptr@P6AXXZU__crt_internal_free_policy@@@@QEAA@QEAP6AXXZ@Z 000000018008e6a0 f i libucrtd:onexit.obj
 0001:0008d6c0       ??1?$__crt_unique_heap_ptr@P6AXXZU__crt_internal_free_policy@@@@QEAA@XZ 000000018008e6c0 f i libucrtd:onexit.obj
 0001:0008d6e0       ??1scoped_global_state_reset@__crt_state_management@@QEAA@XZ 000000018008e6e0 f i libucrtd:onexit.obj
 0001:0008dcb0       ?detach@?$__crt_unique_heap_ptr@P6AXXZU__crt_internal_free_policy@@@@QEAAPEAP6AXXZXZ 000000018008ecb0 f i libucrtd:onexit.obj
 0001:0008dce0       ?release@?$__crt_unique_heap_ptr@P6AXXZU__crt_internal_free_policy@@@@QEAAXXZ 000000018008ece0 f i libucrtd:onexit.obj
 0001:0008dd10       _crt_at_quick_exit         000000018008ed10 f   libucrtd:onexit.obj
 0001:0008dd30       _crt_atexit                000000018008ed30 f   libucrtd:onexit.obj
 0001:0008dd50       _execute_onexit_table      000000018008ed50 f   libucrtd:onexit.obj
 0001:0008dd90       _initialize_onexit_table   000000018008ed90 f   libucrtd:onexit.obj
 0001:0008de10       _register_onexit_function  000000018008ee10 f   libucrtd:onexit.obj
 0001:0008e080       ??$?BX@__crt_fast_encoded_nullptr_t@@QEBAPEAXXZ 000000018008f080 f i libucrtd:initialization.obj
 0001:0008e0a0       ??$__crt_fast_encode_pointer@PEAX@@YAPEAXQEAX@Z 000000018008f0a0 f i libucrtd:initialization.obj
 0001:0008e190       ?initialize@?$dual_state_global@PEAU__crt_locale_data@@@__crt_state_management@@QEAAXQEAU__crt_locale_data@@@Z 000000018008f190 f i libucrtd:initialization.obj
 0001:0008e1e0       __acrt_initialize          000000018008f1e0 f   libucrtd:initialization.obj
 0001:0008e210       __acrt_thread_attach       000000018008f210 f   libucrtd:initialization.obj
 0001:0008e230       __acrt_thread_detach       000000018008f230 f   libucrtd:initialization.obj
 0001:0008e240       __acrt_uninitialize        000000018008f240 f   libucrtd:initialization.obj
 0001:0008e270       __acrt_uninitialize_critical 000000018008f270 f   libucrtd:initialization.obj
 0001:00090260       _CrtCheckMemory            0000000180091260 f   libucrtd:debug_heap.obj
 0001:000903f0       _CrtDoForAllClientObjects  00000001800913f0 f   libucrtd:debug_heap.obj
 0001:00090520       _CrtDumpMemoryLeaks        0000000180091520 f   libucrtd:debug_heap.obj
 0001:000905e0       _CrtGetAllocHook           00000001800915e0 f   libucrtd:debug_heap.obj
 0001:000905f0       _CrtGetDumpClient          00000001800915f0 f   libucrtd:debug_heap.obj
 0001:00090600       _CrtIsMemoryBlock          0000000180091600 f   libucrtd:debug_heap.obj
 0001:00090740       _CrtIsValidHeapPointer     0000000180091740 f   libucrtd:debug_heap.obj
 0001:00090780       _CrtIsValidPointer         0000000180091780 f   libucrtd:debug_heap.obj
 0001:000907c0       _CrtMemCheckpoint          00000001800917c0 f   libucrtd:debug_heap.obj
 0001:00090a40       _CrtMemDifference          0000000180091a40 f   libucrtd:debug_heap.obj
 0001:00090da0       _CrtMemDumpAllObjectsSince 0000000180091da0 f   libucrtd:debug_heap.obj
 0001:00090e00       _CrtMemDumpStatistics      0000000180091e00 f   libucrtd:debug_heap.obj
 0001:00090fa0       _CrtReportBlockType        0000000180091fa0 f   libucrtd:debug_heap.obj
 0001:00090fd0       _CrtSetAllocHook           0000000180091fd0 f   libucrtd:debug_heap.obj
 0001:00091000       _CrtSetBreakAlloc          0000000180092000 f   libucrtd:debug_heap.obj
 0001:00091030       _CrtSetDbgBlockType        0000000180092030 f   libucrtd:debug_heap.obj
 0001:000910d0       _CrtSetDbgFlag             00000001800920d0 f   libucrtd:debug_heap.obj
 0001:00091230       _CrtSetDumpClient          0000000180092230 f   libucrtd:debug_heap.obj
 0001:00091260       __acrt_get_locale_data_prefix 0000000180092260 f i libucrtd:debug_heap.obj
 0001:00091280       __p__crtBreakAlloc         0000000180092280 f   libucrtd:debug_heap.obj
 0001:00091290       __p__crtDbgFlag            0000000180092290 f   libucrtd:debug_heap.obj
 0001:000912a0       _aligned_free_dbg          00000001800922a0 f   libucrtd:debug_heap.obj
 0001:00091390       _aligned_malloc_dbg        0000000180092390 f   libucrtd:debug_heap.obj
 0001:000913d0       _aligned_msize_dbg         00000001800923d0 f   libucrtd:debug_heap.obj
 0001:000915a0       _aligned_offset_malloc_dbg 00000001800925a0 f   libucrtd:debug_heap.obj
 0001:00091890       _aligned_offset_realloc_dbg 0000000180092890 f   libucrtd:debug_heap.obj
 0001:00091d40       _aligned_offset_recalloc_dbg 0000000180092d40 f   libucrtd:debug_heap.obj
 0001:00091e60       _aligned_realloc_dbg       0000000180092e60 f   libucrtd:debug_heap.obj
 0001:00091eb0       _aligned_recalloc_dbg      0000000180092eb0 f   libucrtd:debug_heap.obj
 0001:00091f10       _calloc_dbg                0000000180092f10 f   libucrtd:debug_heap.obj
 0001:00091fb0       _chvalidchk_l              0000000180092fb0 f i libucrtd:debug_heap.obj
 0001:00091fe0       _expand_dbg                0000000180092fe0 f   libucrtd:debug_heap.obj
 0001:00092110       _free_dbg                  0000000180093110 f   libucrtd:debug_heap.obj
 0001:00092180       _ischartype_l              0000000180093180 f i libucrtd:debug_heap.obj
 0001:00092210       _malloc_dbg                0000000180093210 f   libucrtd:debug_heap.obj
 0001:00092250       _msize_dbg                 0000000180093250 f   libucrtd:debug_heap.obj
 0001:000923f0       _realloc_dbg               00000001800933f0 f   libucrtd:debug_heap.obj
 0001:00092460       _recalloc_dbg              0000000180093460 f   libucrtd:debug_heap.obj
 0001:00092560       _initterm                  0000000180093560 f   libucrtd:initterm.obj
 0001:000925c0       _initterm_e                00000001800935c0 f   libucrtd:initterm.obj
 0001:00092b10       strcpy_s                   0000000180093b10 f   libucrtd:strcpy_s.obj
 0001:000931b0       strcat_s                   00000001800941b0 f   libucrtd:strcat_s.obj
 0001:000931e0       ??$?B$$A6AH_K@Z@__crt_fast_encoded_nullptr_t@@QEBAP6AH_K@ZXZ 00000001800941e0 f i libucrtd:new_handler.obj
 0001:00093200       ??$__crt_fast_decode_pointer@P6AH_K@Z@@YAP6AH_K@ZQ6AH0@Z@Z 0000000180094200 f i libucrtd:new_handler.obj
 0001:00093240       ??$__crt_fast_encode_pointer@P6AH_K@Z@@YAP6AH_K@ZQ6AH0@Z@Z 0000000180094240 f i libucrtd:new_handler.obj
 0001:00093280       ?_set_new_handler@@YAP6AH_K@ZH@Z 0000000180094280 f   libucrtd:new_handler.obj
 0001:000932f0       ?initialize@?$dual_state_global@P6AH_K@Z@__crt_state_management@@QEAAXQ6AH_K@Z@Z 00000001800942f0 f i libucrtd:new_handler.obj
 0001:00093340       ?value@?$dual_state_global@P6AH_K@Z@__crt_state_management@@QEAAAEAP6AH_K@ZXZ 0000000180094340 f i libucrtd:new_handler.obj
 0001:00093360       __acrt_initialize_new_handler 0000000180094360 f   libucrtd:new_handler.obj
 0001:00093380       _callnewh                  0000000180094380 f   libucrtd:new_handler.obj
 0001:000933d0       _query_new_handler         00000001800943d0 f   libucrtd:new_handler.obj
 0001:00093410       _set_new_handler           0000000180094410 f   libucrtd:new_handler.obj
 0001:000934c0       _get_terminate             00000001800944c0 f   libucrtd:terminate.obj
 0001:000934e0       set_terminate              00000001800944e0 f   libucrtd:terminate.obj
 0001:00093520       terminate                  0000000180094520 f   libucrtd:terminate.obj
 0001:00094320       _makepath                  0000000180095320 f   libucrtd:makepath.obj
 0001:00094370       _makepath_s                0000000180095370 f   libucrtd:makepath.obj
 0001:000943c0       _wmakepath                 00000001800953c0 f   libucrtd:makepath.obj
 0001:00094410       _wmakepath_s               0000000180095410 f   libucrtd:makepath.obj
 0001:00096a40       ??$tcsncpy_s@AEAPEAD_KAEAPEBDAEB_K@?$__crt_char_traits@D@@SAHAEAPEAD$$QEA_KAEAPEBDAEB_K@Z 0000000180097a40 f i libucrtd:splitpath.obj
 0001:00096a90       ??$tcsncpy_s@AEAPEAD_KAEAPEBDH@?$__crt_char_traits@D@@SAHAEAPEAD$$QEA_KAEAPEBD$$QEAH@Z 0000000180097a90 f i libucrtd:splitpath.obj
 0001:00096ae0       ??$tcsncpy_s@AEAPEA_W_KAEAPEB_WAEB_K@?$__crt_char_traits@_W@@SAHAEAPEA_W$$QEA_KAEAPEB_WAEB_K@Z 0000000180097ae0 f i libucrtd:splitpath.obj
 0001:00096b30       ??$tcsncpy_s@AEAPEA_W_KAEAPEB_WH@?$__crt_char_traits@_W@@SAHAEAPEA_W$$QEA_KAEAPEB_W$$QEAH@Z 0000000180097b30 f i libucrtd:splitpath.obj
 0001:00096de0       _splitpath                 0000000180097de0 f   libucrtd:splitpath.obj
 0001:00096e20       _splitpath_s               0000000180097e20 f   libucrtd:splitpath.obj
 0001:00096ec0       _wsplitpath                0000000180097ec0 f   libucrtd:splitpath.obj
 0001:00096f00       _wsplitpath_s              0000000180097f00 f   libucrtd:splitpath.obj
 0001:00096fa0       _set_abort_behavior        0000000180097fa0 f   libucrtd:abort.obj
 0001:00096fe0       abort                      0000000180097fe0 f   libucrtd:abort.obj
 0001:00097070       strcmp                     0000000180098070 f   libucrtd:strcmp.obj
 0001:000970f0       strlen                     00000001800980f0 f   libucrtd:strlen.obj
 0001:000971a0       ??$is_overflow_condition@K@__crt_strtox@@YA_NIK@Z 00000001800981a0 f i libucrtd:atox.obj
 0001:00097210       ??$is_overflow_condition@_K@__crt_strtox@@YA_NI_K@Z 0000000180098210 f i libucrtd:atox.obj
 0001:00097280       ??$make_c_string_character_source@D$$T@__crt_strtox@@YA?AV?$c_string_character_source@D@0@QEBD$$T@Z 0000000180098280 f i libucrtd:atox.obj
 0001:000972c0       ??$make_c_string_character_source@_W$$T@__crt_strtox@@YA?AV?$c_string_character_source@_W@0@QEB_W$$T@Z 00000001800982c0 f i libucrtd:atox.obj
 0001:00097300       ??$parse_integer@KV?$c_string_character_source@D@__crt_strtox@@@__crt_strtox@@YAKQEAU__crt_locale_pointers@@V?$c_string_character_source@D@0@H_N@Z 0000000180098300 f i libucrtd:atox.obj
 0001:00097790       ??$parse_integer@KV?$c_string_character_source@_W@__crt_strtox@@@__crt_strtox@@YAKQEAU__crt_locale_pointers@@V?$c_string_character_source@_W@0@H_N@Z 0000000180098790 f i libucrtd:atox.obj
 0001:00097c40       ??$parse_integer@_KV?$c_string_character_source@D@__crt_strtox@@@__crt_strtox@@YA_KQEAU__crt_locale_pointers@@V?$c_string_character_source@D@0@H_N@Z 0000000180098c40 f i libucrtd:atox.obj
 0001:00098160       ??$parse_integer@_KV?$c_string_character_source@_W@__crt_strtox@@@__crt_strtox@@YA_KQEAU__crt_locale_pointers@@V?$c_string_character_source@_W@0@H_N@Z 0000000180099160 f i libucrtd:atox.obj
 0001:00098680       ??$parse_integer_from_string@JD$$T@__crt_strtox@@YAJQEBD$$THQEAU__crt_locale_pointers@@@Z 0000000180099680 f i libucrtd:atox.obj
 0001:000986d0       ??$parse_integer_from_string@J_W$$T@__crt_strtox@@YAJQEB_W$$THQEAU__crt_locale_pointers@@@Z 00000001800996d0 f i libucrtd:atox.obj
 0001:00098720       ??$parse_integer_from_string@_JD$$T@__crt_strtox@@YA_JQEBD$$THQEAU__crt_locale_pointers@@@Z 0000000180099720 f i libucrtd:atox.obj
 0001:00098770       ??$parse_integer_from_string@_J_W$$T@__crt_strtox@@YA_JQEB_W$$THQEAU__crt_locale_pointers@@@Z 0000000180099770 f i libucrtd:atox.obj
 0001:000987c0       ??0?$c_string_character_source@D@__crt_strtox@@QEAA@QEBDQEAPEBD@Z 00000001800997c0 f i libucrtd:atox.obj
 0001:00098810       ??0?$c_string_character_source@_W@__crt_strtox@@QEAA@QEB_WQEAPEB_W@Z 0000000180099810 f i libucrtd:atox.obj
 0001:00098860       ??1?$c_string_character_source@D@__crt_strtox@@QEAA@XZ 0000000180099860 f i libucrtd:atox.obj
 0001:00098890       ??1?$c_string_character_source@_W@__crt_strtox@@QEAA@XZ 0000000180099890 f i libucrtd:atox.obj
 0001:000988c0       ?get@?$c_string_character_source@D@__crt_strtox@@QEAADXZ 00000001800998c0 f i libucrtd:atox.obj
 0001:00098900       ?get@?$c_string_character_source@_W@__crt_strtox@@QEAA_WXZ 0000000180099900 f i libucrtd:atox.obj
 0001:00098940       ?is_space@__crt_strtox@@YA_NDQEAU__crt_locale_pointers@@@Z 0000000180099940 f i libucrtd:atox.obj
 0001:00098990       ?is_space@__crt_strtox@@YA_N_WPEAU__crt_locale_pointers@@@Z 0000000180099990 f i libucrtd:atox.obj
 0001:000989d0       ?maximum_signed_value@__crt_strtox@@YAJK@Z 00000001800999d0 f i libucrtd:atox.obj
 0001:000989e0       ?maximum_signed_value@__crt_strtox@@YA_J_K@Z 00000001800999e0 f i libucrtd:atox.obj
 0001:000989f0       ?minimum_signed_value@__crt_strtox@@YAJK@Z 00000001800999f0 f i libucrtd:atox.obj
 0001:00098a00       ?minimum_signed_value@__crt_strtox@@YA_J_K@Z 0000000180099a00 f i libucrtd:atox.obj
 0001:00098a10       ?parse_digit@__crt_strtox@@YAID@Z 0000000180099a10 f i libucrtd:atox.obj
 0001:00098a80       ?parse_digit@__crt_strtox@@YAI_W@Z 0000000180099a80 f i libucrtd:atox.obj
 0001:00098ad0       ?restore_state@?$c_string_character_source@D@__crt_strtox@@QEAA_NQEBD@Z 0000000180099ad0 f i libucrtd:atox.obj
 0001:00098af0       ?restore_state@?$c_string_character_source@_W@__crt_strtox@@QEAA_NQEB_W@Z 0000000180099af0 f i libucrtd:atox.obj
 0001:00098b10       ?save_state@?$c_string_character_source@D@__crt_strtox@@QEBAPEBDXZ 0000000180099b10 f i libucrtd:atox.obj
 0001:00098b20       ?save_state@?$c_string_character_source@_W@__crt_strtox@@QEBAPEB_WXZ 0000000180099b20 f i libucrtd:atox.obj
 0001:00098b30       ?unget@?$c_string_character_source@D@__crt_strtox@@QEAAXD@Z 0000000180099b30 f i libucrtd:atox.obj
 0001:00098c10       ?unget@?$c_string_character_source@_W@__crt_strtox@@QEAAX_W@Z 0000000180099c10 f i libucrtd:atox.obj
 0001:00098cf0       ?validate@?$c_string_character_source@D@__crt_strtox@@QEBA_NXZ 0000000180099cf0 f i libucrtd:atox.obj
 0001:00098db0       ?validate@?$c_string_character_source@_W@__crt_strtox@@QEBA_NXZ 0000000180099db0 f i libucrtd:atox.obj
 0001:00098e70       ?wide_character_to_digit@__crt_strtox@@YAH_W@Z 0000000180099e70 f i libucrtd:atox.obj
 0001:000991e0       __ascii_iswalpha           000000018009a1e0 f i libucrtd:atox.obj
 0001:00099220       __ascii_toupper            000000018009a220 f i libucrtd:atox.obj
 0001:00099240       __ascii_towupper           000000018009a240 f i libucrtd:atox.obj
 0001:00099260       _atoi64                    000000018009a260 f   libucrtd:atox.obj
 0001:00099290       _atoi64_l                  000000018009a290 f   libucrtd:atox.obj
 0001:000992c0       _atoi_l                    000000018009a2c0 f   libucrtd:atox.obj
 0001:000992f0       _atol_l                    000000018009a2f0 f   libucrtd:atox.obj
 0001:00099320       _atoll_l                   000000018009a320 f   libucrtd:atox.obj
 0001:00099350       _wtoi                      000000018009a350 f   libucrtd:atox.obj
 0001:00099380       _wtoi64                    000000018009a380 f   libucrtd:atox.obj
 0001:000993b0       _wtoi64_l                  000000018009a3b0 f   libucrtd:atox.obj
 0001:000993e0       _wtoi_l                    000000018009a3e0 f   libucrtd:atox.obj
 0001:00099410       _wtol                      000000018009a410 f   libucrtd:atox.obj
 0001:00099440       _wtol_l                    000000018009a440 f   libucrtd:atox.obj
 0001:00099470       _wtoll                     000000018009a470 f   libucrtd:atox.obj
 0001:000994a0       _wtoll_l                   000000018009a4a0 f   libucrtd:atox.obj
 0001:000994d0       atoi                       000000018009a4d0 f   libucrtd:atox.obj
 0001:00099500       atol                       000000018009a500 f   libucrtd:atox.obj
 0001:00099530       atoll                      000000018009a530 f   libucrtd:atox.obj
 0001:00099570       strncmp                    000000018009a570 f   libucrtd:strncmp.obj
 0001:000995f0       wcsncmp                    000000018009a5f0 f   libucrtd:wcsncmp.obj
 0001:00099680       _CrtGetDebugFillThreshold  000000018009a680 f   libucrtd:debug_fill_threshold.obj
 0001:00099690       _CrtSetDebugFillThreshold  000000018009a690 f   libucrtd:debug_fill_threshold.obj
 0001:000996c0       ??$make_c_string_character_source@DPEAPEAD@__crt_strtox@@YA?AV?$c_string_character_source@D@0@QEBDQEAPEAD@Z 000000018009a6c0 f i libucrtd:strtox.obj
 0001:00099700       ??$make_c_string_character_source@_WPEAPEA_W@__crt_strtox@@YA?AV?$c_string_character_source@_W@0@QEB_WQEAPEA_W@Z 000000018009a700 f i libucrtd:strtox.obj
 0001:00099740       ??$parse_integer_from_string@JDPEAPEAD@__crt_strtox@@YAJQEBDQEAPEADHQEAU__crt_locale_pointers@@@Z 000000018009a740 f i libucrtd:strtox.obj
 0001:00099790       ??$parse_integer_from_string@J_WPEAPEA_W@__crt_strtox@@YAJQEB_WQEAPEA_WHQEAU__crt_locale_pointers@@@Z 000000018009a790 f i libucrtd:strtox.obj
 0001:000997e0       ??$parse_integer_from_string@KDPEAPEAD@__crt_strtox@@YAKQEBDQEAPEADHQEAU__crt_locale_pointers@@@Z 000000018009a7e0 f i libucrtd:strtox.obj
 0001:00099830       ??$parse_integer_from_string@K_WPEAPEA_W@__crt_strtox@@YAKQEB_WQEAPEA_WHQEAU__crt_locale_pointers@@@Z 000000018009a830 f i libucrtd:strtox.obj
 0001:00099880       ??$parse_integer_from_string@_JDPEAPEAD@__crt_strtox@@YA_JQEBDQEAPEADHQEAU__crt_locale_pointers@@@Z 000000018009a880 f i libucrtd:strtox.obj
 0001:000998d0       ??$parse_integer_from_string@_J_WPEAPEA_W@__crt_strtox@@YA_JQEB_WQEAPEA_WHQEAU__crt_locale_pointers@@@Z 000000018009a8d0 f i libucrtd:strtox.obj
 0001:00099920       ??$parse_integer_from_string@_KDPEAPEAD@__crt_strtox@@YA_KQEBDQEAPEADHQEAU__crt_locale_pointers@@@Z 000000018009a920 f i libucrtd:strtox.obj
 0001:00099970       ??$parse_integer_from_string@_K_WPEAPEA_W@__crt_strtox@@YA_KQEB_WQEAPEA_WHQEAU__crt_locale_pointers@@@Z 000000018009a970 f i libucrtd:strtox.obj
 0001:000999c0       _strtoi64                  000000018009a9c0 f   libucrtd:strtox.obj
 0001:000999f0       _strtoi64_l                000000018009a9f0 f   libucrtd:strtox.obj
 0001:00099a30       _strtoimax_l               000000018009aa30 f   libucrtd:strtox.obj
 0001:00099a70       _strtol_l                  000000018009aa70 f   libucrtd:strtox.obj
 0001:00099ab0       _strtoll_l                 000000018009aab0 f   libucrtd:strtox.obj
 0001:00099af0       _strtoui64                 000000018009aaf0 f   libucrtd:strtox.obj
 0001:00099b20       _strtoui64_l               000000018009ab20 f   libucrtd:strtox.obj
 0001:00099b60       _strtoul_l                 000000018009ab60 f   libucrtd:strtox.obj
 0001:00099ba0       _strtoull_l                000000018009aba0 f   libucrtd:strtox.obj
 0001:00099be0       _strtoumax_l               000000018009abe0 f   libucrtd:strtox.obj
 0001:00099c20       _wcstoi64                  000000018009ac20 f   libucrtd:strtox.obj
 0001:00099c50       _wcstoi64_l                000000018009ac50 f   libucrtd:strtox.obj
 0001:00099c90       _wcstoimax_l               000000018009ac90 f   libucrtd:strtox.obj
