 OPOSFiscalPrinter

 Timestamp is 5ed45816 (Mon Jun  1 10:21:26 2020)

 Preferred load address is 0000000180000000

 Start         Length     Name                   Class
 0001:00000000 00001400H .text$di                CODE
 0001:00001400 000db5e0H .text$mn                CODE
 0001:000dc9e0 00000040H .text$mn$00             CODE
 0001:000dca20 00001390H .text$x                 CODE
 0001:000dddb0 000001b4H .text$yd                CODE
 0002:00000000 000006d8H .idata$5                DATA
 0002:000006d8 00000028H .00cfg                  DATA
 0002:00000700 00000008H .CRT$XCA                DATA
 0002:00000708 00000008H .CRT$XCL                DATA
 0002:00000710 000000d8H .CRT$XCU                DATA
 0002:000007e8 00000008H .CRT$XCZ                DATA
 0002:000007f0 00000008H .CRT$XIA                DATA
 0002:000007f8 00000028H .CRT$XIC                DATA
 0002:00000820 00000008H .CRT$XIZ                DATA
 0002:00000828 00000008H .CRT$XLA                DATA
 0002:00000830 00000008H .CRT$XLZ                DATA
 0002:00000838 00000008H .CRT$XPA                DATA
 0002:00000840 00000010H .CRT$XPX                DATA
 0002:00000850 00000008H .CRT$XPXA               DATA
 0002:00000858 00000008H .CRT$XPZ                DATA
 0002:00000860 00000008H .CRT$XTA                DATA
 0002:00000868 00000008H .CRT$XTZ                DATA
 0002:00000870 00000000H .gfids$y                DATA
 0002:00000870 0003ef20H .rdata                  DATA
 0002:0003f790 00000028H .rdata$T                DATA
 0002:0003f7b8 0000056cH .rdata$r                DATA
 0002:0003fd24 00000434H .rdata$zzzdbg           DATA
 0002:00040158 00000008H .rtc$IAA                DATA
 0002:00040160 00000030H .rtc$IMZ                DATA
 0002:00040190 00000008H .rtc$IZZ                DATA
 0002:00040198 00000008H .rtc$TAA                DATA
 0002:000401a0 00000030H .rtc$TMZ                DATA
 0002:000401d0 00000008H .rtc$TZZ                DATA
 0002:000401d8 00000004H .tls                    DATA
 0002:000401dc 00000004H .tls$                   DATA
 0002:000401e0 00000010H .tls$ZZZ                DATA
 0002:000401f0 00009e28H .xdata                  DATA
 0002:0004a018 00000150H .xdata$x                DATA
 0002:0004a168 00000008H ATL$__a                 DATA
 0002:0004a170 00000010H ATL$__z                 DATA
 0002:0004a180 000000b0H .edata                  DATA
 0002:0004a230 00000078H .idata$2                DATA
 0002:0004a2a8 00000018H .idata$3                DATA
 0002:0004a2c0 000006d8H .idata$4                DATA
 0002:0004a998 00000dbeH .idata$6                DATA
 0003:00000000 000010b8H .data                   DATA
 0003:000010b8 00000198H .data$r                 DATA
 0003:00001250 00003eccH .bss                    DATA
 0004:00000000 0000c918H .pdata                  DATA
 0005:00000000 00000094H _RDATA                  DATA
 0006:00000000 00000220H .rsrc$01                DATA
 0006:00000220 00009888H .rsrc$02                DATA

  Address         Publics by Value              Rva+Base               Lib:Object

 0000:00000000       __arm64x_redirection_metadata 0000000000000000     <absolute>
 0000:00000000       __hybrid_code_map_count    0000000000000000     <absolute>
 0000:00000000       __enclave_config           0000000000000000     <absolute>
 0000:00000000       __volatile_metadata        0000000000000000     <absolute>
 0000:00000000       __guard_iat_count          0000000000000000     <absolute>
 0000:00000000       __guard_eh_cont_table      0000000000000000     <absolute>
 0000:00000000       __guard_longjmp_count      0000000000000000     <absolute>
 0000:00000000       __dynamic_value_reloc_table 0000000000000000     <absolute>
 0000:00000000       __hybrid_code_map          0000000000000000     <absolute>
 0000:00000000       __arm64x_native_entrypoint 0000000000000000     <absolute>
 0000:00000000       __AbsoluteZero             0000000000000000     <absolute>
 0000:00000000       __guard_iat_table          0000000000000000     <absolute>
 0000:00000000       __guard_longjmp_table      0000000000000000     <absolute>
 0000:00000000       __guard_fids_count         0000000000000000     <absolute>
 0000:00000000       ___safe_se_handler_count   0000000000000000     <absolute>
 0000:00000000       __guard_eh_cont_count      0000000000000000     <absolute>
 0000:00000000       __hybrid_auxiliary_iat     0000000000000000     <absolute>
 0000:00000000       __x64_code_ranges_to_entry_points 0000000000000000     <absolute>
 0000:00000000       __guard_fids_table         0000000000000000     <absolute>
 0000:00000000       ___safe_se_handler_table   0000000000000000     <absolute>
 0000:00000100       __guard_flags              0000000000000100     <absolute>
 0000:00000000       __ImageBase                0000000180000000     <linker-defined>
 0001:00001400       ?_assert@@YAXPEB_W0I@Z     0000000180002400 f   Assert.obj
 0001:00001500       __local_stdio_printf_options 0000000180002500 f i Assert.obj
 0001:00001510       __vswprintf_l              0000000180002510 f i Assert.obj
 0001:00001570       _swprintf                  0000000180002570 f i Assert.obj
 0001:000015f0       _vswprintf_c_l             00000001800025f0 f i Assert.obj
 0001:00001680       _vswprintf_l               0000000180002680 f i Assert.obj
 0001:000016e0       ?cw_memcpy@@YAHPEADPEB_WH@Z 00000001800026e0 f   CWString.obj
 0001:00001770       ?cw_memcpy@@YAHPEA_WPEBDH@Z 0000000180002770 f   CWString.obj
 0001:000017f0       ?cw_memcpy@@YAHPEADPEBDH@Z 00000001800027f0 f   CWString.obj
 0001:00001890       ?cw_memcpy@@YAHPEA_WPEB_WH@Z 0000000180002890 f   CWString.obj
 0001:00001900       ?cw_memset@@YAXPEADDH@Z    0000000180002900 f   CWString.obj
 0001:00001970       ?cw_memset@@YAXPEA_W_WH@Z  0000000180002970 f   CWString.obj
 0001:00001a10       ?cw_strlen@@YAHPEBD@Z      0000000180002a10 f   CWString.obj
 0001:00001a80       ?cw_strlen@@YAHPEB_W@Z     0000000180002a80 f   CWString.obj
 0001:00001af0       ?cw_strcpy@@YAHPEADPEB_W@Z 0000000180002af0 f   CWString.obj
 0001:00001b40       ?cw_strcpy@@YAHPEA_WPEBD@Z 0000000180002b40 f   CWString.obj
 0001:00001b90       ?cw_strcpy@@YAHPEADPEBD@Z  0000000180002b90 f   CWString.obj
 0001:00001be0       ?cw_strcpy@@YAHPEA_WPEB_W@Z 0000000180002be0 f   CWString.obj
 0001:00001c30       ?cw_strcat@@YAHPEADPEB_W@Z 0000000180002c30 f   CWString.obj
 0001:00001c90       ?cw_strcat@@YAHPEA_WPEBD@Z 0000000180002c90 f   CWString.obj
 0001:00001cf0       ?cw_strcat@@YAHPEADPEBD@Z  0000000180002cf0 f   CWString.obj
 0001:00001d50       ?cw_strcat@@YAHPEA_WPEB_W@Z 0000000180002d50 f   CWString.obj
 0001:00001db0       ?cw_dup@@YAXPEBDAEAHAEAPEA_W1@Z 0000000180002db0 f   CWString.obj
 0001:00001ec0       ?cw_dup@@YAXPEB_WAEAHAEAPEAD1@Z 0000000180002ec0 f   CWString.obj
 0001:00001fb0       ?DupChar@_CW@@AEAAXXZ      0000000180002fb0 f   CWString.obj
 0001:00002010       ?DupWide@_CW@@AEAAXXZ      0000000180003010 f   CWString.obj
 0001:00002080       ?GetCharsMbcs@_CW@@QEAAHXZ 0000000180003080 f   CWString.obj
 0001:000020f0       ?GetCharsWide@_CW@@QEAAHXZ 00000001800030f0 f   CWString.obj
 0001:00002160       ?SetVARIANT_BOOL@OposVariant@@QEAAXF@Z 0000000180003160 f   OposVariant.obj
 0001:000021d0       ?SetVARIANT_BOOL_Ptr@OposVariant@@QEAAXPEAFAEAJ@Z 00000001800031d0 f   OposVariant.obj
 0001:00002240       ?GetLONG@OposVariant@@QEAAJXZ 0000000180003240 f   OposVariant.obj
 0001:000022a0       ?ChangeLONG@OposVariant@@QEAAXPEAJAEAJ@Z 00000001800032a0 f   OposVariant.obj
 0001:00002350       ?SetLONG@OposVariant@@QEAAXJ@Z 0000000180003350 f   OposVariant.obj
 0001:000023b0       ?SetLONG_Ptr@OposVariant@@QEAAXPEAJAEAJ@Z 00000001800033b0 f   OposVariant.obj
 0001:00002420       ?ChangeCURRENCY@OposVariant@@QEAAXPEATtagCY@@AEAJ@Z 0000000180003420 f   OposVariant.obj
 0001:000024d0       ?SetCURRENCY@OposVariant@@QEAAXTtagCY@@@Z 00000001800034d0 f   OposVariant.obj
 0001:00002530       ?SetCURRENCY_Ptr@OposVariant@@QEAAXPEATtagCY@@AEAJ@Z 0000000180003530 f   OposVariant.obj
 0001:000025a0       ?ChangeBSTR@OposVariant@@QEAAXPEAPEA_WAEAJ@Z 00000001800035a0 f   OposVariant.obj
 0001:00002650       ?SetBSTR@OposVariant@@QEAAXPEA_WAEAJ@Z 0000000180003650 f   OposVariant.obj
 0001:000026d0       ?SetBSTR_Copy@OposVariant@@QEAAXPEA_WAEAJ@Z 00000001800036d0 f   OposVariant.obj
 0001:00002780       ?SetBSTR_OutPtr@OposVariant@@QEAA_NPEAPEA_WAEAJ@Z 0000000180003780 f   OposVariant.obj
 0001:000027f0       ?SetBSTR_InOutPtr@OposVariant@@QEAA_NPEAPEA_WAEAJ@Z 00000001800037f0 f   OposVariant.obj
 0001:00002870       ?SetVARIANT@OposVariant@@QEAAXAEAUtagVARIANT@@GAEAJ@Z 0000000180003870 f   OposVariant.obj
 0001:00002910       ?SetVARIANT_Ptr@OposVariant@@QEAAXAEAPEAUtagVARIANT@@GAEAJ@Z 0000000180003910 f   OposVariant.obj
 0001:000029c0       ?SetString@OposVariant@@QEAAXPEB_WAEAJ@Z 00000001800039c0 f   OposVariant.obj
 0001:00002a70       ?SetDispatch_Ptr@OposVariant@@QEAAXPEAUIDispatch@@AEAJ@Z 0000000180003a70 f   OposVariant.obj
 0001:00002b00       ??0OposDispParms@@QEAA@PEAVOposVariant@@H@Z 0000000180003b00 f   OposVariant.obj
 0001:00002c10       ??1OposDispParms@@QEAA@XZ  0000000180003c10 f   OposVariant.obj
 0001:00002c60       ??$AtlMultiply@_K@ATL@@YAJPEA_K_K1@Z 0000000180003c60 f i OposVariant.obj
 0001:00002ce0       ??0?$CHeapPtr@_WVCCRTAllocator@ATL@@@ATL@@QEAA@XZ 0000000180003ce0 f i OposVariant.obj
 0001:00002d20       ??0?$CHeapPtrBase@_WVCCRTAllocator@ATL@@@ATL@@IEAA@XZ 0000000180003d20 f i OposVariant.obj
 0001:00002d40       ??0?$CSimpleArray@GV?$CSimpleArrayEqualHelper@G@ATL@@@ATL@@QEAA@XZ 0000000180003d40 f i OposVariant.obj
 0001:00002d80       ??0?$CTraceCategoryEx@$00$0A@@ATL@@QEAA@PEB_W@Z 0000000180003d80 f i OposVariant.obj
 0001:00002dc0       ??0?$CTraceCategoryEx@$01$0A@@ATL@@QEAA@PEB_W@Z 0000000180003dc0 f i OposVariant.obj
 0001:00002e00       ??0?$CTraceCategoryEx@$03$0A@@ATL@@QEAA@PEB_W@Z 0000000180003e00 f i OposVariant.obj
 0001:00002e40       ??0?$CTraceCategoryEx@$07$0A@@ATL@@QEAA@PEB_W@Z 0000000180003e40 f i OposVariant.obj
 0001:00002e80       ??0?$CTraceCategoryEx@$0BA@$0A@@ATL@@QEAA@PEB_W@Z 0000000180003e80 f i OposVariant.obj
 0001:00002ec0       ??0?$CTraceCategoryEx@$0BAA@$0A@@ATL@@QEAA@PEB_W@Z 0000000180003ec0 f i OposVariant.obj
 0001:00002f00       ??0?$CTraceCategoryEx@$0BAAA@$0A@@ATL@@QEAA@PEB_W@Z 0000000180003f00 f i OposVariant.obj
 0001:00002f40       ??0?$CTraceCategoryEx@$0BAAAA@$0A@@ATL@@QEAA@PEB_W@Z 0000000180003f40 f i OposVariant.obj
 0001:00002f80       ??0?$CTraceCategoryEx@$0BAAAAA@$0A@@ATL@@QEAA@PEB_W@Z 0000000180003f80 f i OposVariant.obj
 0001:00002fc0       ??0?$CTraceCategoryEx@$0CA@$0A@@ATL@@QEAA@PEB_W@Z 0000000180003fc0 f i OposVariant.obj
 0001:00003000       ??0?$CTraceCategoryEx@$0CAA@$0A@@ATL@@QEAA@PEB_W@Z 0000000180004000 f i OposVariant.obj
 0001:00003040       ??0?$CTraceCategoryEx@$0CAAA@$0A@@ATL@@QEAA@PEB_W@Z 0000000180004040 f i OposVariant.obj
 0001:00003080       ??0?$CTraceCategoryEx@$0CAAAA@$0A@@ATL@@QEAA@PEB_W@Z 0000000180004080 f i OposVariant.obj
 0001:000030c0       ??0?$CTraceCategoryEx@$0CAAAAA@$0A@@ATL@@QEAA@PEB_W@Z 00000001800040c0 f i OposVariant.obj
 0001:00003100       ??0?$CTraceCategoryEx@$0EA@$0A@@ATL@@QEAA@PEB_W@Z 0000000180004100 f i OposVariant.obj
 0001:00003140       ??0?$CTraceCategoryEx@$0EAA@$0A@@ATL@@QEAA@PEB_W@Z 0000000180004140 f i OposVariant.obj
 0001:00003180       ??0?$CTraceCategoryEx@$0EAAA@$0A@@ATL@@QEAA@PEB_W@Z 0000000180004180 f i OposVariant.obj
 0001:000031c0       ??0?$CTraceCategoryEx@$0EAAAA@$0A@@ATL@@QEAA@PEB_W@Z 00000001800041c0 f i OposVariant.obj
 0001:00003200       ??0?$CTraceCategoryEx@$0EAAAAA@$0A@@ATL@@QEAA@PEB_W@Z 0000000180004200 f i OposVariant.obj
 0001:00003240       ??0?$CTraceCategoryEx@$0IA@$0A@@ATL@@QEAA@PEB_W@Z 0000000180004240 f i OposVariant.obj
 0001:00003280       ??0?$CTraceCategoryEx@$0IAA@$0A@@ATL@@QEAA@PEB_W@Z 0000000180004280 f i OposVariant.obj
 0001:000032c0       ??0?$CTraceCategoryEx@$0IAAA@$0A@@ATL@@QEAA@PEB_W@Z 00000001800042c0 f i OposVariant.obj
 0001:00003300       ??0?$CTraceCategoryEx@$0IAAAA@$0A@@ATL@@QEAA@PEB_W@Z 0000000180004300 f i OposVariant.obj
 0001:00003340       ??0CAtlComModule@ATL@@QEAA@XZ 0000000180004340 f i OposVariant.obj
 0001:00003460       ??0CAtlWinModule@ATL@@QEAA@XZ 0000000180004460 f i OposVariant.obj
 0001:00003510       ??0CComCriticalSection@ATL@@QEAA@XZ 0000000180004510 f i OposVariant.obj
 0001:00003550       ??0CPreserveLastError@ATL@@QEAA@XZ 0000000180004550 f i OposVariant.obj
 0001:00003590       ??0CTraceFileAndLineInfo@ATL@@QEAA@PEBDH@Z 0000000180004590 f i OposVariant.obj
 0001:000035c0       ??0_ATL_COM_MODULE70@ATL@@QEAA@XZ 00000001800045c0 f i OposVariant.obj
 0001:00003600       ??0_ATL_WIN_MODULE70@ATL@@QEAA@XZ 0000000180004600 f i OposVariant.obj
 0001:00003650       ??1?$CHeapPtr@_WVCCRTAllocator@ATL@@@ATL@@QEAA@XZ 0000000180004650 f i OposVariant.obj
 0001:00003680       ??1?$CHeapPtrBase@_WVCCRTAllocator@ATL@@@ATL@@QEAA@XZ 0000000180004680 f i OposVariant.obj
 0001:000036b0       ??1?$CSimpleArray@GV?$CSimpleArrayEqualHelper@G@ATL@@@ATL@@QEAA@XZ 00000001800046b0 f i OposVariant.obj
 0001:000036e0       ??1CAtlComModule@ATL@@QEAA@XZ 00000001800046e0 f i OposVariant.obj
 0001:00003720       ??1CAtlWinModule@ATL@@QEAA@XZ 0000000180004720 f i OposVariant.obj
 0001:00003760       ??1CComBSTR@ATL@@QEAA@XZ   0000000180004760 f i OposVariant.obj
 0001:000037a0       ??1CComCriticalSection@ATL@@QEAA@XZ 00000001800047a0 f i OposVariant.obj
 0001:000037b0       ??1CPreserveLastError@ATL@@QEAA@XZ 00000001800047b0 f i OposVariant.obj
 0001:000037f0       ??1_ATL_COM_MODULE70@ATL@@QEAA@XZ 00000001800047f0 f i OposVariant.obj
 0001:00003830       ??1_ATL_WIN_MODULE70@ATL@@QEAA@XZ 0000000180004830 f i OposVariant.obj
 0001:00003880       ??1stringdispid@CComTypeInfoHolder@ATL@@QEAA@XZ 0000000180004880 f i OposVariant.obj
 0001:000038c0       ??A?$CSimpleArray@GV?$CSimpleArrayEqualHelper@G@ATL@@@ATL@@QEAAAEAGH@Z 00000001800048c0 f i OposVariant.obj
 0001:00003970       ??B?$CHeapPtrBase@_WVCCRTAllocator@ATL@@@ATL@@QEBAPEA_WXZ 0000000180004970 f i OposVariant.obj
 0001:00003980       ??B?$CTraceCategoryEx@$01$0A@@ATL@@QEAAIXZ 0000000180004980 f i OposVariant.obj
 0001:00003990       ??B?$CTraceCategoryEx@$0CA@$0A@@ATL@@QEAAIXZ 0000000180004990 f i OposVariant.obj
 0001:000039a0       ??RCTraceFileAndLineInfo@ATL@@QEBAXHIPEB_WZZ 00000001800049a0 f i OposVariant.obj
 0001:00003a50       ??_Estringdispid@CComTypeInfoHolder@ATL@@QEAAPEAXI@Z 0000000180004a50 f i OposVariant.obj
 0001:00003b00       ??_H@YAXPEAX_K1P6APEAX0@Z@Z 0000000180004b00 f i OposVariant.obj
 0001:00003b90       ??_I@YAXPEAX_K1P6AX0@Z@Z   0000000180004b90 f i OposVariant.obj
 0001:00003c40       ?Allocate@?$CHeapPtr@_WVCCRTAllocator@ATL@@@ATL@@QEAA_N_K@Z 0000000180004c40 f i OposVariant.obj
 0001:00003cc0       ?Allocate@CCRTAllocator@ATL@@SAPEAX_K@Z 0000000180004cc0 f i OposVariant.obj
 0001:00003cf0       ?AllocateBytes@?$CHeapPtrBase@_WVCCRTAllocator@ATL@@@ATL@@QEAA_N_K@Z 0000000180004cf0 f i OposVariant.obj
 0001:00003d90       ?AtlWinModuleInit@ATL@@YAJPEAU_ATL_WIN_MODULE70@1@@Z 0000000180004d90 f i OposVariant.obj
 0001:00003e90       ?AtlWinModuleTerm@ATL@@YAJPEAU_ATL_WIN_MODULE70@1@PEAUHINSTANCE__@@@Z 0000000180004e90 f i OposVariant.obj
 0001:00003f80       ?Clear@OposVariant@@QEAAJXZ 0000000180004f80 f i OposVariant.obj
 0001:00003fc0       ?Free@?$CHeapPtrBase@_WVCCRTAllocator@ATL@@@ATL@@QEAAXXZ 0000000180004fc0 f i OposVariant.obj
 0001:00004000       ?Free@CCRTAllocator@ATL@@SAXPEAX@Z 0000000180005000 f i OposVariant.obj
 0001:00004030       ?GetCategoryName@CTrace@ATL@@CAPEA_WI@Z 0000000180005030 f i OposVariant.obj
 0001:000040b0       ?GetModuleInstance@CAtlBaseModule@ATL@@QEAAPEAUHINSTANCE__@@XZ 00000001800050b0 f i OposVariant.obj
 0001:000040d0       ?GetSize@?$CSimpleArray@GV?$CSimpleArrayEqualHelper@G@ATL@@@ATL@@QEBAHXZ 00000001800050d0 f i OposVariant.obj
 0001:000040e0       ?Init@CComCriticalSection@ATL@@QEAAJXZ 00000001800050e0 f i OposVariant.obj
 0001:00004140       ?RegisterCategory@CTrace@ATL@@SAXPEB_WI@Z 0000000180005140 f i OposVariant.obj
 0001:00004220       ?RemoveAll@?$CSimpleArray@GV?$CSimpleArrayEqualHelper@G@ATL@@@ATL@@QEAAXXZ 0000000180005220 f i OposVariant.obj
 0001:000042b0       ?Term@CAtlComModule@ATL@@QEAAXXZ 00000001800052b0 f i OposVariant.obj
 0001:00004390       ?Term@CAtlWinModule@ATL@@QEAAXXZ 0000000180005390 f i OposVariant.obj
 0001:000043d0       ?Term@CComCriticalSection@ATL@@QEAAJXZ 00000001800053d0 f i OposVariant.obj
 0001:00004410       ?TraceV@CTrace@ATL@@CAXPEBDHIIPEB_W@Z 0000000180005410 f i OposVariant.obj
 0001:000046c0       ?TraceV@CTrace@ATL@@SAXPEBDHIIPEB_WPEAD@Z 00000001800056c0 f i OposVariant.obj
 0001:00004870       ?_AtlInitializeCriticalSectionEx@ATL@@YAHPEAU_RTL_CRITICAL_SECTION@@KK@Z 0000000180005870 f i OposVariant.obj
 0001:000048c0       ?_AtlRaiseException@ATL@@YAXKK@Z 00000001800058c0 f i OposVariant.obj
 0001:00004900       HRESULT_FROM_WIN32         0000000180005900 f i OposVariant.obj
 0001:00004950       _vswprintf_s_l             0000000180005950 f i OposVariant.obj
 0001:000049e0       swprintf_s                 00000001800059e0 f i OposVariant.obj
 0001:00004a70       ?ObjectMain@CComObjectRootBase@ATL@@SAX_N@Z 0000000180005a70 f i FiscalPrinter.obj
 0001:00004a80       ?GetCategoryMap@CComObjectRootBase@ATL@@SAPEBU_ATL_CATMAP_ENTRY@2@XZ 0000000180005a80 f i FiscalPrinter.obj
 0001:00004a90       ?GetObjectDescription@?$CComCoClass@VCOPOSFiscalPrinter@@$1?CLSID_OPOSFiscalPrinter@@3U_GUID@@B@ATL@@SAPEB_WXZ 0000000180005a90 f i FiscalPrinter.obj
 0001:00004aa0       ?UpdateRegistry@COPOSFiscalPrinter@@SAJH@Z 0000000180005aa0 f i FiscalPrinter.obj
 0001:00004ae0       ?CreateInstance@?$CComCreator@V?$CComObjectCached@VCComClassFactory@ATL@@@ATL@@@ATL@@SAJPEAXAEBU_GUID@@PEAPEAX@Z 0000000180005ae0 f i FiscalPrinter.obj
 0001:00004cd0       ?CreateInstance@?$CComCreator2@V?$CComCreator@V?$CComObject@VCOPOSFiscalPrinter@@@ATL@@@ATL@@V?$CComCreator@V?$CComAggObject@VCOPOSFiscalPrinter@@@ATL@@@2@@ATL@@SAJPEAXAEBU_GUID@@PEAPEAX@Z 0000000180005cd0 f i FiscalPrinter.obj
 0001:00004ee0       DllGetClassObject          0000000180005ee0 f   FiscalPrinter.obj
 0001:00004f30       DllCanUnloadNow            0000000180005f30 f   FiscalPrinter.obj
 0001:00004f80       DllRegisterServer          0000000180005f80 f   FiscalPrinter.obj
 0001:00004fc0       DllUnregisterServer        0000000180005fc0 f   FiscalPrinter.obj
 0001:000051c0       DllMain                    00000001800061c0 f   FiscalPrinter.obj
 0001:00005240       ??$?2G@Wrapper@?$CSimpleArray@GV?$CSimpleArrayEqualHelper@G@ATL@@@ATL@@SAPEAX_KPEAG@Z 0000000180006240 f i FiscalPrinter.obj
 0001:00005260       ??$?2PEA_W@?$Wrapper@PEA_W@?$CSimpleMap@PEA_WPEA_WVCExpansionVectorEqualHelper@ATL@@@ATL@@SAPEAX_KPEAPEA_W@Z 0000000180006260 f i FiscalPrinter.obj
 0001:00005280       ??$?4UITypeInfo2@@@?$CComPtr@UITypeInfo@@@ATL@@QEAAPEAUITypeInfo@@AEBV?$CComPtr@UITypeInfo2@@@1@@Z 0000000180006280 f i FiscalPrinter.obj
 0001:000052f0       ??$AtlAdd@_K@ATL@@YAJPEA_K_K1@Z 00000001800062f0 f i FiscalPrinter.obj
 0001:00005360       ??$AtlAddThrow@_K@ATL@@YA_K_K0@Z 0000000180006360 f i FiscalPrinter.obj
 0001:000053d0       ??$AtlModuleRegisterWndClassInfoT@VAtlModuleRegisterWndClassInfoParamW@ATL@@@ATL@@YAGPEAU_ATL_BASE_MODULE70@0@PEAU_ATL_WIN_MODULE70@0@PEAU_ATL_WNDCLASSINFOW@0@PEAP6A_JPEAUHWND__@@I_K_J@ZVAtlModuleRegisterWndClassInfoParamW@0@@Z 00000001800063d0 f i FiscalPrinter.obj
 0001:000059a0       ??$AtlMultiply@H@ATL@@YAJPEAHHH@Z 00000001800069a0 f i FiscalPrinter.obj
 0001:00005a10       ??$AtlMultiply@K@ATL@@YAJPEAKKK@Z 0000000180006a10 f i FiscalPrinter.obj
 0001:00005a80       ??$AtlMultiplyThrow@_K@ATL@@YA_K_K0@Z 0000000180006a80 f i FiscalPrinter.obj
 0001:00005af0       ??$QueryInterface@UIPersistStream@@@IUnknown@@QEAAJPEAPEAUIPersistStream@@@Z 0000000180006af0 f i FiscalPrinter.obj
 0001:00005b40       ??$QueryInterface@UITypeInfo2@@@IUnknown@@QEAAJPEAPEAUITypeInfo2@@@Z 0000000180006b40 f i FiscalPrinter.obj
 0001:00005b90       ??0?$CAtlModuleT@VCComModule@ATL@@@ATL@@QEAA@XZ 0000000180006b90 f i FiscalPrinter.obj
 0001:00005bd0       ??0?$CAtlSafeAllocBufferManager@VCCRTAllocator@ATL@@@_ATL_SAFE_ALLOCA_IMPL@ATL@@QEAA@XZ 0000000180006bd0 f i FiscalPrinter.obj
 0001:00005bf0       ??0?$CAutoVectorPtr@_W@ATL@@QEAA@XZ 0000000180006bf0 f i FiscalPrinter.obj
 0001:00005c10       ??0?$CComAggObject@VCOPOSFiscalPrinter@@@ATL@@QEAA@PEAX@Z 0000000180006c10 f i FiscalPrinter.obj
 0001:00005ca0       ??0?$CComContainedObject@VCOPOSFiscalPrinter@@@ATL@@QEAA@PEAX@Z 0000000180006ca0 f i FiscalPrinter.obj
 0001:00005e40       ??0?$CComCritSecLock@VCComCriticalSection@ATL@@@ATL@@QEAA@AEAVCComCriticalSection@1@_N@Z 0000000180006e40 f i FiscalPrinter.obj
 0001:00005eb0       ??0?$CComEnum@UIEnumConnectionPoints@@$1?_GUID_b196b285_bab4_101a_b69c_00aa00341d07@@3U__s_GUID@@BPEAUIConnectionPoint@@V?$_CopyInterface@UIConnectionPoint@@@ATL@@VCComSingleThreadModel@6@@ATL@@QEAA@XZ 0000000180006eb0 f i FiscalPrinter.obj
 0001:00005f00       ??0?$CComEnum@UIEnumConnections@@$1?_GUID_b196b287_bab4_101a_b69c_00aa00341d07@@3U__s_GUID@@BUtagCONNECTDATA@@V?$_Copy@UtagCONNECTDATA@@@ATL@@VCComSingleThreadModel@6@@ATL@@QEAA@XZ 0000000180006f00 f i FiscalPrinter.obj
 0001:00005f50       ??0?$CComEnumImpl@UIEnumConnectionPoints@@$1?_GUID_b196b285_bab4_101a_b69c_00aa00341d07@@3U__s_GUID@@BPEAUIConnectionPoint@@V?$_CopyInterface@UIConnectionPoint@@@ATL@@@ATL@@QEAA@XZ 0000000180006f50 f i FiscalPrinter.obj
 0001:00005fd0       ??0?$CComEnumImpl@UIEnumConnections@@$1?_GUID_b196b287_bab4_101a_b69c_00aa00341d07@@3U__s_GUID@@BUtagCONNECTDATA@@V?$_Copy@UtagCONNECTDATA@@@ATL@@@ATL@@QEAA@XZ 0000000180006fd0 f i FiscalPrinter.obj
 0001:00006050       ??0?$CComObject@V?$CComEnum@UIEnumConnectionPoints@@$1?_GUID_b196b285_bab4_101a_b69c_00aa00341d07@@3U__s_GUID@@BPEAUIConnectionPoint@@V?$_CopyInterface@UIConnectionPoint@@@ATL@@VCComSingleThreadModel@6@@ATL@@@ATL@@QEAA@PEAX@Z 0000000180007050 f i FiscalPrinter.obj
 0001:000060b0       ??0?$CComObject@V?$CComEnum@UIEnumConnections@@$1?_GUID_b196b287_bab4_101a_b69c_00aa00341d07@@3U__s_GUID@@BUtagCONNECTDATA@@V?$_Copy@UtagCONNECTDATA@@@ATL@@VCComSingleThreadModel@6@@ATL@@@ATL@@QEAA@PEAX@Z 00000001800070b0 f i FiscalPrinter.obj
 0001:00006110       ??0?$CComObject@VCOPOSFiscalPrinter@@@ATL@@QEAA@PEAX@Z 0000000180007110 f i FiscalPrinter.obj
 0001:000062b0       ??0?$CComObjectCached@VCComClassFactory@ATL@@@ATL@@QEAA@PEAX@Z 00000001800072b0 f i FiscalPrinter.obj
 0001:00006300       ??0?$CComObjectRootEx@VCComMultiThreadModel@ATL@@@ATL@@QEAA@XZ 0000000180007300 f i FiscalPrinter.obj
 0001:00006350       ??0?$CComObjectRootEx@VCComSingleThreadModel@ATL@@@ATL@@QEAA@XZ 0000000180007350 f i FiscalPrinter.obj
 0001:00006390       ??0?$CComPtr@UIAdviseSink@@@ATL@@QEAA@PEAUIAdviseSink@@@Z 0000000180007390 f i FiscalPrinter.obj
 0001:000063d0       ??0?$CComPtr@UICatRegister@@@ATL@@QEAA@XZ 00000001800073d0 f i FiscalPrinter.obj
 0001:00006410       ??0?$CComPtr@UIConnectionPoint@@@ATL@@QEAA@XZ 0000000180007410 f i FiscalPrinter.obj
 0001:00006450       ??0?$CComPtr@UIConnectionPointContainer@@@ATL@@QEAA@XZ 0000000180007450 f i FiscalPrinter.obj
 0001:00006490       ??0?$CComPtr@UIDataObject@@@ATL@@QEAA@XZ 0000000180007490 f i FiscalPrinter.obj
 0001:000064d0       ??0?$CComPtr@UIDispatch@@@ATL@@QEAA@XZ 00000001800074d0 f i FiscalPrinter.obj
 0001:00006510       ??0?$CComPtr@UIOleClientSite@@@ATL@@QEAA@PEAUIOleClientSite@@@Z 0000000180007510 f i FiscalPrinter.obj
 0001:00006550       ??0?$CComPtr@UIOleControlSite@@@ATL@@QEAA@XZ 0000000180007550 f i FiscalPrinter.obj
 0001:00006590       ??0?$CComPtr@UIOleInPlaceActiveObject@@@ATL@@QEAA@XZ 0000000180007590 f i FiscalPrinter.obj
 0001:000065d0       ??0?$CComPtr@UIOleInPlaceFrame@@@ATL@@QEAA@XZ 00000001800075d0 f i FiscalPrinter.obj
 0001:00006610       ??0?$CComPtr@UIOleInPlaceObject@@@ATL@@QEAA@XZ 0000000180007610 f i FiscalPrinter.obj
 0001:00006650       ??0?$CComPtr@UIOleInPlaceUIWindow@@@ATL@@QEAA@XZ 0000000180007650 f i FiscalPrinter.obj
 0001:00006690       ??0?$CComPtr@UIOleObject@@@ATL@@QEAA@XZ 0000000180007690 f i FiscalPrinter.obj
 0001:000066d0       ??0?$CComPtr@UIPersistStream@@@ATL@@QEAA@XZ 00000001800076d0 f i FiscalPrinter.obj
 0001:00006710       ??0?$CComPtr@UIPersistStreamInit@@@ATL@@QEAA@XZ 0000000180007710 f i FiscalPrinter.obj
 0001:00006750       ??0?$CComPtr@UIPointerInactive@@@ATL@@QEAA@XZ 0000000180007750 f i FiscalPrinter.obj
 0001:00006790       ??0?$CComPtr@UIProvideClassInfo2@@@ATL@@QEAA@XZ 0000000180007790 f i FiscalPrinter.obj
 0001:000067d0       ??0?$CComPtr@UISpecifyPropertyPages@@@ATL@@QEAA@XZ 00000001800077d0 f i FiscalPrinter.obj
 0001:00006810       ??0?$CComPtr@UIStream@@@ATL@@QEAA@XZ 0000000180007810 f i FiscalPrinter.obj
 0001:00006850       ??0?$CComPtr@UITypeInfo2@@@ATL@@QEAA@XZ 0000000180007850 f i FiscalPrinter.obj
 0001:00006890       ??0?$CComPtr@UITypeInfo@@@ATL@@QEAA@AEBV01@@Z 0000000180007890 f i FiscalPrinter.obj
 0001:000068d0       ??0?$CComPtr@UITypeInfo@@@ATL@@QEAA@XZ 00000001800078d0 f i FiscalPrinter.obj
 0001:00006910       ??0?$CComPtr@UITypeLib@@@ATL@@QEAA@XZ 0000000180007910 f i FiscalPrinter.obj
 0001:00006950       ??0?$CComPtr@UIUnknown@@@ATL@@QEAA@AEBV01@@Z 0000000180007950 f i FiscalPrinter.obj
 0001:00006990       ??0?$CComPtr@UIUnknown@@@ATL@@QEAA@PEAUIUnknown@@@Z 0000000180007990 f i FiscalPrinter.obj
 0001:000069d0       ??0?$CComPtr@UIUnknown@@@ATL@@QEAA@XZ 00000001800079d0 f i FiscalPrinter.obj
 0001:00006a10       ??0?$CComPtr@UIViewObjectEx@@@ATL@@QEAA@XZ 0000000180007a10 f i FiscalPrinter.obj
 0001:00006a50       ??0?$CComPtrBase@UIAdviseSink@@@ATL@@IEAA@PEAUIAdviseSink@@@Z 0000000180007a50 f i FiscalPrinter.obj
 0001:00006ab0       ??0?$CComPtrBase@UICatRegister@@@ATL@@IEAA@XZ 0000000180007ab0 f i FiscalPrinter.obj
 0001:00006ad0       ??0?$CComPtrBase@UIConnectionPoint@@@ATL@@IEAA@XZ 0000000180007ad0 f i FiscalPrinter.obj
 0001:00006af0       ??0?$CComPtrBase@UIConnectionPointContainer@@@ATL@@IEAA@XZ 0000000180007af0 f i FiscalPrinter.obj
 0001:00006b10       ??0?$CComPtrBase@UIDataObject@@@ATL@@IEAA@XZ 0000000180007b10 f i FiscalPrinter.obj
 0001:00006b30       ??0?$CComPtrBase@UIDispatch@@@ATL@@IEAA@XZ 0000000180007b30 f i FiscalPrinter.obj
 0001:00006b50       ??0?$CComPtrBase@UIOleClientSite@@@ATL@@IEAA@PEAUIOleClientSite@@@Z 0000000180007b50 f i FiscalPrinter.obj
 0001:00006bb0       ??0?$CComPtrBase@UIOleControlSite@@@ATL@@IEAA@XZ 0000000180007bb0 f i FiscalPrinter.obj
 0001:00006bd0       ??0?$CComPtrBase@UIOleInPlaceActiveObject@@@ATL@@IEAA@XZ 0000000180007bd0 f i FiscalPrinter.obj
 0001:00006bf0       ??0?$CComPtrBase@UIOleInPlaceFrame@@@ATL@@IEAA@XZ 0000000180007bf0 f i FiscalPrinter.obj
 0001:00006c10       ??0?$CComPtrBase@UIOleInPlaceObject@@@ATL@@IEAA@XZ 0000000180007c10 f i FiscalPrinter.obj
 0001:00006c30       ??0?$CComPtrBase@UIOleInPlaceUIWindow@@@ATL@@IEAA@XZ 0000000180007c30 f i FiscalPrinter.obj
 0001:00006c50       ??0?$CComPtrBase@UIOleObject@@@ATL@@IEAA@XZ 0000000180007c50 f i FiscalPrinter.obj
 0001:00006c70       ??0?$CComPtrBase@UIPersistStream@@@ATL@@IEAA@XZ 0000000180007c70 f i FiscalPrinter.obj
 0001:00006c90       ??0?$CComPtrBase@UIPersistStreamInit@@@ATL@@IEAA@XZ 0000000180007c90 f i FiscalPrinter.obj
 0001:00006cb0       ??0?$CComPtrBase@UIPointerInactive@@@ATL@@IEAA@XZ 0000000180007cb0 f i FiscalPrinter.obj
 0001:00006cd0       ??0?$CComPtrBase@UIProvideClassInfo2@@@ATL@@IEAA@XZ 0000000180007cd0 f i FiscalPrinter.obj
 0001:00006cf0       ??0?$CComPtrBase@UISpecifyPropertyPages@@@ATL@@IEAA@XZ 0000000180007cf0 f i FiscalPrinter.obj
 0001:00006d10       ??0?$CComPtrBase@UIStream@@@ATL@@IEAA@XZ 0000000180007d10 f i FiscalPrinter.obj
 0001:00006d30       ??0?$CComPtrBase@UITypeInfo2@@@ATL@@IEAA@XZ 0000000180007d30 f i FiscalPrinter.obj
 0001:00006d50       ??0?$CComPtrBase@UITypeInfo@@@ATL@@IEAA@PEAUITypeInfo@@@Z 0000000180007d50 f i FiscalPrinter.obj
 0001:00006db0       ??0?$CComPtrBase@UITypeInfo@@@ATL@@IEAA@XZ 0000000180007db0 f i FiscalPrinter.obj
 0001:00006dd0       ??0?$CComPtrBase@UITypeLib@@@ATL@@IEAA@XZ 0000000180007dd0 f i FiscalPrinter.obj
 0001:00006df0       ??0?$CComPtrBase@UIUnknown@@@ATL@@IEAA@PEAUIUnknown@@@Z 0000000180007df0 f i FiscalPrinter.obj
 0001:00006e50       ??0?$CComPtrBase@UIUnknown@@@ATL@@IEAA@XZ 0000000180007e50 f i FiscalPrinter.obj
 0001:00006e70       ??0?$CComPtrBase@UIViewObjectEx@@@ATL@@IEAA@XZ 0000000180007e70 f i FiscalPrinter.obj
 0001:00006e90       ??0?$CComQIPtr@UIOleControlSite@@$1?_GUID_b196b289_bab4_101a_b69c_00aa00341d07@@3U__s_GUID@@B@ATL@@QEAA@PEAUIUnknown@@@Z 0000000180007e90 f i FiscalPrinter.obj
 0001:00006f00       ??0?$CComQIPtr@UIOleObject@@$1?_GUID_00000112_0000_0000_c000_000000000046@@3U__s_GUID@@B@ATL@@QEAA@XZ 0000000180007f00 f i FiscalPrinter.obj
 0001:00006f40       ??0?$CComQIPtr@UISpecifyPropertyPages@@$1?_GUID_b196b28b_bab4_101a_b69c_00aa00341d07@@3U__s_GUID@@B@ATL@@QEAA@XZ 0000000180007f40 f i FiscalPrinter.obj
 0001:00006f80       ??0?$CSimpleMap@PEA_WPEA_WVCExpansionVectorEqualHelper@ATL@@@ATL@@QEAA@XZ 0000000180007f80 f i FiscalPrinter.obj
 0001:00006fc0       ??0?$CTempBuffer@E$0BAA@VCCRTAllocator@ATL@@@ATL@@QEAA@XZ 0000000180007fc0 f i FiscalPrinter.obj
 0001:00006fe0       ??0?$CTempBuffer@_W$0BAA@VCCRTAllocator@ATL@@@ATL@@QEAA@XZ 0000000180007fe0 f i FiscalPrinter.obj
 0001:00007000       ??0?$CTempBuffer@_W$0EAA@VCCRTAllocator@ATL@@@ATL@@QEAA@XZ 0000000180008000 f i FiscalPrinter.obj
 0001:00007020       ??0?$Wrapper@PEA_W@?$CSimpleMap@PEA_WPEA_WVCExpansionVectorEqualHelper@ATL@@@ATL@@QEAA@AEBQEA_W@Z 0000000180008020 f i FiscalPrinter.obj
 0001:00007050       ??0CAtlModule@ATL@@QEAA@XZ 0000000180008050 f i FiscalPrinter.obj
 0001:000071c0       ??0CComAutoDeleteCriticalSection@ATL@@QEAA@XZ 00000001800081c0 f i FiscalPrinter.obj
 0001:00007200       ??0CComBSTR@ATL@@QEAA@XZ   0000000180008200 f i FiscalPrinter.obj
 0001:00007220       ??0CComClassFactory@ATL@@QEAA@XZ 0000000180008220 f i FiscalPrinter.obj
 0001:00007280       ??0CComModule@ATL@@QEAA@XZ 0000000180008280 f i FiscalPrinter.obj
 0001:00007320       ??0CComObjectRootBase@ATL@@QEAA@XZ 0000000180008320 f i FiscalPrinter.obj
 0001:00007340       ??0CComSafeDeleteCriticalSection@ATL@@QEAA@XZ 0000000180008340 f i FiscalPrinter.obj
 0001:00007380       ??0CComVariant@ATL@@QEAA@XZ 0000000180008380 f i FiscalPrinter.obj
 0001:000073d0       ??0CExpansionVector@ATL@@QEAA@XZ 00000001800083d0 f i FiscalPrinter.obj
 0001:00007410       ??0CParseBuffer@CRegParser@ATL@@QEAA@H@Z 0000000180008410 f i FiscalPrinter.obj
 0001:000074a0       ??0CRegKey@ATL@@QEAA@PEAUHKEY__@@@Z 00000001800084a0 f i FiscalPrinter.obj
 0001:000074e0       ??0CRegKey@ATL@@QEAA@PEAVCAtlTransactionManager@1@@Z 00000001800084e0 f i FiscalPrinter.obj
 0001:00007520       ??0CRegObject@ATL@@QEAA@XZ 0000000180008520 f i FiscalPrinter.obj
 0001:00007580       ??0CRegParser@ATL@@QEAA@PEAVCRegObject@1@@Z 0000000180008580 f i FiscalPrinter.obj
 0001:000075b0       ??0IClassFactory@@QEAA@XZ  00000001800085b0 f i FiscalPrinter.obj
 0001:000075f0       ??0IEnumConnectionPoints@@QEAA@XZ 00000001800085f0 f i FiscalPrinter.obj
 0001:00007630       ??0IEnumConnections@@QEAA@XZ 0000000180008630 f i FiscalPrinter.obj
 0001:00007670       ??0IRegistrarBase@@QEAA@XZ 0000000180008670 f i FiscalPrinter.obj
 0001:000076b0       ??0IUnknown@@QEAA@XZ       00000001800086b0 f i FiscalPrinter.obj
 0001:000076c0       ??0ModuleLockHelper@ATL@@QEAA@XZ 00000001800086c0 f i FiscalPrinter.obj
 0001:00007700       ??0OposVariant@@QEAA@XZ    0000000180008700 f i FiscalPrinter.obj
 0001:00007720       ??0Wrapper@?$CSimpleArray@GV?$CSimpleArrayEqualHelper@G@ATL@@@ATL@@QEAA@AEBG@Z 0000000180008720 f i FiscalPrinter.obj
 0001:00007750       ??0_ATL_MODULE70@ATL@@QEAA@XZ 0000000180008750 f i FiscalPrinter.obj
 0001:00007790       ??0_ATL_MSG@ATL@@QEAA@PEAUHWND__@@I_K_JH@Z 0000000180008790 f i FiscalPrinter.obj
 0001:00007820       ??0_U_MENUorID@ATL@@QEAA@I@Z 0000000180008820 f i FiscalPrinter.obj
 0001:00007840       ??0_U_RECT@ATL@@QEAA@AEAUtagRECT@@@Z 0000000180008840 f i FiscalPrinter.obj
 0001:00007860       ??0stringdispid@CComTypeInfoHolder@ATL@@QEAA@XZ 0000000180008860 f i FiscalPrinter.obj
 0001:000078b0       ??1?$CAtlModuleT@VCComModule@ATL@@@ATL@@UEAA@XZ 00000001800088b0 f i FiscalPrinter.obj
 0001:000078e0       ??1?$CAtlSafeAllocBufferManager@VCCRTAllocator@ATL@@@_ATL_SAFE_ALLOCA_IMPL@ATL@@QEAA@XZ 00000001800088e0 f i FiscalPrinter.obj
 0001:00007940       ??1?$CAutoVectorPtr@_W@ATL@@QEAA@XZ 0000000180008940 f i FiscalPrinter.obj
 0001:00007970       ??1?$CComAggObject@VCOPOSFiscalPrinter@@@ATL@@UEAA@XZ 0000000180008970 f i FiscalPrinter.obj
 0001:000079f0       ??1?$CComContainedObject@VCOPOSFiscalPrinter@@@ATL@@UEAA@XZ 00000001800089f0 f i FiscalPrinter.obj
 0001:00007a20       ??1?$CComCritSecLock@VCComCriticalSection@ATL@@@ATL@@QEAA@XZ 0000000180008a20 f i FiscalPrinter.obj
 0001:00007a60       ??1?$CComEnum@UIEnumConnectionPoints@@$1?_GUID_b196b285_bab4_101a_b69c_00aa00341d07@@3U__s_GUID@@BPEAUIConnectionPoint@@V?$_CopyInterface@UIConnectionPoint@@@ATL@@VCComSingleThreadModel@6@@ATL@@UEAA@XZ 0000000180008a60 f i FiscalPrinter.obj
 0001:00007aa0       ??1?$CComEnum@UIEnumConnections@@$1?_GUID_b196b287_bab4_101a_b69c_00aa00341d07@@3U__s_GUID@@BUtagCONNECTDATA@@V?$_Copy@UtagCONNECTDATA@@@ATL@@VCComSingleThreadModel@6@@ATL@@UEAA@XZ 0000000180008aa0 f i FiscalPrinter.obj
 0001:00007ae0       ??1?$CComEnumImpl@UIEnumConnectionPoints@@$1?_GUID_b196b285_bab4_101a_b69c_00aa00341d07@@3U__s_GUID@@BPEAUIConnectionPoint@@V?$_CopyInterface@UIConnectionPoint@@@ATL@@@ATL@@UEAA@XZ 0000000180008ae0 f i FiscalPrinter.obj
 0001:00007b80       ??1?$CComEnumImpl@UIEnumConnections@@$1?_GUID_b196b287_bab4_101a_b69c_00aa00341d07@@3U__s_GUID@@BUtagCONNECTDATA@@V?$_Copy@UtagCONNECTDATA@@@ATL@@@ATL@@UEAA@XZ 0000000180008b80 f i FiscalPrinter.obj
 0001:00007c20       ??1?$CComObject@V?$CComEnum@UIEnumConnectionPoints@@$1?_GUID_b196b285_bab4_101a_b69c_00aa00341d07@@3U__s_GUID@@BPEAUIConnectionPoint@@V?$_CopyInterface@UIConnectionPoint@@@ATL@@VCComSingleThreadModel@6@@ATL@@@ATL@@UEAA@XZ 0000000180008c20 f i FiscalPrinter.obj
 0001:00007c90       ??1?$CComObject@V?$CComEnum@UIEnumConnections@@$1?_GUID_b196b287_bab4_101a_b69c_00aa00341d07@@3U__s_GUID@@BUtagCONNECTDATA@@V?$_Copy@UtagCONNECTDATA@@@ATL@@VCComSingleThreadModel@6@@ATL@@@ATL@@UEAA@XZ 0000000180008c90 f i FiscalPrinter.obj
 0001:00007d00       ??1?$CComObject@VCOPOSFiscalPrinter@@@ATL@@UEAA@XZ 0000000180008d00 f i FiscalPrinter.obj
 0001:00007eb0       ??1?$CComObjectCached@VCComClassFactory@ATL@@@ATL@@UEAA@XZ 0000000180008eb0 f i FiscalPrinter.obj
 0001:00007f10       ??1?$CComObjectRootEx@VCComMultiThreadModel@ATL@@@ATL@@QEAA@XZ 0000000180008f10 f i FiscalPrinter.obj
 0001:00007f50       ??1?$CComObjectRootEx@VCComSingleThreadModel@ATL@@@ATL@@QEAA@XZ 0000000180008f50 f i FiscalPrinter.obj
 0001:00007f80       ??1?$CComPtr@UIAdviseSink@@@ATL@@QEAA@XZ 0000000180008f80 f i FiscalPrinter.obj
 0001:00007fb0       ??1?$CComPtr@UICatRegister@@@ATL@@QEAA@XZ 0000000180008fb0 f i FiscalPrinter.obj
 0001:00007fe0       ??1?$CComPtr@UIConnectionPoint@@@ATL@@QEAA@XZ 0000000180008fe0 f i FiscalPrinter.obj
 0001:00008010       ??1?$CComPtr@UIConnectionPointContainer@@@ATL@@QEAA@XZ 0000000180009010 f i FiscalPrinter.obj
 0001:00008040       ??1?$CComPtr@UIDataObject@@@ATL@@QEAA@XZ 0000000180009040 f i FiscalPrinter.obj
 0001:00008070       ??1?$CComPtr@UIDispatch@@@ATL@@QEAA@XZ 0000000180009070 f i FiscalPrinter.obj
 0001:000080a0       ??1?$CComPtr@UIOleClientSite@@@ATL@@QEAA@XZ 00000001800090a0 f i FiscalPrinter.obj
 0001:000080d0       ??1?$CComPtr@UIOleControlSite@@@ATL@@QEAA@XZ 00000001800090d0 f i FiscalPrinter.obj
 0001:00008100       ??1?$CComPtr@UIOleInPlaceActiveObject@@@ATL@@QEAA@XZ 0000000180009100 f i FiscalPrinter.obj
 0001:00008130       ??1?$CComPtr@UIOleInPlaceFrame@@@ATL@@QEAA@XZ 0000000180009130 f i FiscalPrinter.obj
 0001:00008160       ??1?$CComPtr@UIOleInPlaceObject@@@ATL@@QEAA@XZ 0000000180009160 f i FiscalPrinter.obj
 0001:00008190       ??1?$CComPtr@UIOleInPlaceUIWindow@@@ATL@@QEAA@XZ 0000000180009190 f i FiscalPrinter.obj
 0001:000081c0       ??1?$CComPtr@UIOleObject@@@ATL@@QEAA@XZ 00000001800091c0 f i FiscalPrinter.obj
 0001:000081f0       ??1?$CComPtr@UIPersistStream@@@ATL@@QEAA@XZ 00000001800091f0 f i FiscalPrinter.obj
 0001:00008220       ??1?$CComPtr@UIPersistStreamInit@@@ATL@@QEAA@XZ 0000000180009220 f i FiscalPrinter.obj
 0001:00008250       ??1?$CComPtr@UIPointerInactive@@@ATL@@QEAA@XZ 0000000180009250 f i FiscalPrinter.obj
 0001:00008280       ??1?$CComPtr@UIProvideClassInfo2@@@ATL@@QEAA@XZ 0000000180009280 f i FiscalPrinter.obj
 0001:000082b0       ??1?$CComPtr@UISpecifyPropertyPages@@@ATL@@QEAA@XZ 00000001800092b0 f i FiscalPrinter.obj
 0001:000082e0       ??1?$CComPtr@UIStream@@@ATL@@QEAA@XZ 00000001800092e0 f i FiscalPrinter.obj
 0001:00008310       ??1?$CComPtr@UITypeInfo2@@@ATL@@QEAA@XZ 0000000180009310 f i FiscalPrinter.obj
 0001:00008340       ??1?$CComPtr@UITypeInfo@@@ATL@@QEAA@XZ 0000000180009340 f i FiscalPrinter.obj
 0001:00008370       ??1?$CComPtr@UITypeLib@@@ATL@@QEAA@XZ 0000000180009370 f i FiscalPrinter.obj
 0001:000083a0       ??1?$CComPtr@UIUnknown@@@ATL@@QEAA@XZ 00000001800093a0 f i FiscalPrinter.obj
 0001:000083d0       ??1?$CComPtr@UIViewObjectEx@@@ATL@@QEAA@XZ 00000001800093d0 f i FiscalPrinter.obj
 0001:00008400       ??1?$CComPtrBase@UIAdviseSink@@@ATL@@QEAA@XZ 0000000180009400 f i FiscalPrinter.obj
 0001:00008450       ??1?$CComPtrBase@UICatRegister@@@ATL@@QEAA@XZ 0000000180009450 f i FiscalPrinter.obj
 0001:000084a0       ??1?$CComPtrBase@UIConnectionPoint@@@ATL@@QEAA@XZ 00000001800094a0 f i FiscalPrinter.obj
 0001:000084f0       ??1?$CComPtrBase@UIConnectionPointContainer@@@ATL@@QEAA@XZ 00000001800094f0 f i FiscalPrinter.obj
 0001:00008540       ??1?$CComPtrBase@UIDataObject@@@ATL@@QEAA@XZ 0000000180009540 f i FiscalPrinter.obj
 0001:00008590       ??1?$CComPtrBase@UIDispatch@@@ATL@@QEAA@XZ 0000000180009590 f i FiscalPrinter.obj
 0001:000085e0       ??1?$CComPtrBase@UIOleClientSite@@@ATL@@QEAA@XZ 00000001800095e0 f i FiscalPrinter.obj
 0001:00008630       ??1?$CComPtrBase@UIOleControlSite@@@ATL@@QEAA@XZ 0000000180009630 f i FiscalPrinter.obj
 0001:00008680       ??1?$CComPtrBase@UIOleInPlaceActiveObject@@@ATL@@QEAA@XZ 0000000180009680 f i FiscalPrinter.obj
 0001:000086d0       ??1?$CComPtrBase@UIOleInPlaceFrame@@@ATL@@QEAA@XZ 00000001800096d0 f i FiscalPrinter.obj
 0001:00008720       ??1?$CComPtrBase@UIOleInPlaceObject@@@ATL@@QEAA@XZ 0000000180009720 f i FiscalPrinter.obj
 0001:00008770       ??1?$CComPtrBase@UIOleInPlaceUIWindow@@@ATL@@QEAA@XZ 0000000180009770 f i FiscalPrinter.obj
 0001:000087c0       ??1?$CComPtrBase@UIOleObject@@@ATL@@QEAA@XZ 00000001800097c0 f i FiscalPrinter.obj
 0001:00008810       ??1?$CComPtrBase@UIPersistStream@@@ATL@@QEAA@XZ 0000000180009810 f i FiscalPrinter.obj
 0001:00008860       ??1?$CComPtrBase@UIPersistStreamInit@@@ATL@@QEAA@XZ 0000000180009860 f i FiscalPrinter.obj
 0001:000088b0       ??1?$CComPtrBase@UIPointerInactive@@@ATL@@QEAA@XZ 00000001800098b0 f i FiscalPrinter.obj
 0001:00008900       ??1?$CComPtrBase@UIProvideClassInfo2@@@ATL@@QEAA@XZ 0000000180009900 f i FiscalPrinter.obj
 0001:00008950       ??1?$CComPtrBase@UISpecifyPropertyPages@@@ATL@@QEAA@XZ 0000000180009950 f i FiscalPrinter.obj
 0001:000089a0       ??1?$CComPtrBase@UIStream@@@ATL@@QEAA@XZ 00000001800099a0 f i FiscalPrinter.obj
 0001:000089f0       ??1?$CComPtrBase@UITypeInfo2@@@ATL@@QEAA@XZ 00000001800099f0 f i FiscalPrinter.obj
 0001:00008a40       ??1?$CComPtrBase@UITypeInfo@@@ATL@@QEAA@XZ 0000000180009a40 f i FiscalPrinter.obj
 0001:00008a90       ??1?$CComPtrBase@UITypeLib@@@ATL@@QEAA@XZ 0000000180009a90 f i FiscalPrinter.obj
 0001:00008ae0       ??1?$CComPtrBase@UIUnknown@@@ATL@@QEAA@XZ 0000000180009ae0 f i FiscalPrinter.obj
 0001:00008b30       ??1?$CComPtrBase@UIViewObjectEx@@@ATL@@QEAA@XZ 0000000180009b30 f i FiscalPrinter.obj
 0001:00008b80       ??1?$CComQIPtr@UIOleControlSite@@$1?_GUID_b196b289_bab4_101a_b69c_00aa00341d07@@3U__s_GUID@@B@ATL@@QEAA@XZ 0000000180009b80 f i FiscalPrinter.obj
 0001:00008bb0       ??1?$CComQIPtr@UIOleObject@@$1?_GUID_00000112_0000_0000_c000_000000000046@@3U__s_GUID@@B@ATL@@QEAA@XZ 0000000180009bb0 f i FiscalPrinter.obj
 0001:00008be0       ??1?$CComQIPtr@UISpecifyPropertyPages@@$1?_GUID_b196b28b_bab4_101a_b69c_00aa00341d07@@3U__s_GUID@@B@ATL@@QEAA@XZ 0000000180009be0 f i FiscalPrinter.obj
 0001:00008c10       ??1?$CSimpleMap@PEA_WPEA_WVCExpansionVectorEqualHelper@ATL@@@ATL@@QEAA@XZ 0000000180009c10 f i FiscalPrinter.obj
 0001:00008c40       ??1?$CTempBuffer@E$0BAA@VCCRTAllocator@ATL@@@ATL@@QEAA@XZ 0000000180009c40 f i FiscalPrinter.obj
 0001:00008c90       ??1?$CTempBuffer@_W$0BAA@VCCRTAllocator@ATL@@@ATL@@QEAA@XZ 0000000180009c90 f i FiscalPrinter.obj
 0001:00008ce0       ??1?$CTempBuffer@_W$0EAA@VCCRTAllocator@ATL@@@ATL@@QEAA@XZ 0000000180009ce0 f i FiscalPrinter.obj
 0001:00008d30       ??1CAtlModule@ATL@@UEAA@XZ 0000000180009d30 f i FiscalPrinter.obj
 0001:00008d70       ??1CComAutoDeleteCriticalSection@ATL@@QEAA@XZ 0000000180009d70 f i FiscalPrinter.obj
 0001:00008da0       ??1CComClassFactory@ATL@@UEAA@XZ 0000000180009da0 f i FiscalPrinter.obj
 0001:00008df0       ??1CComModule@ATL@@UEAA@XZ 0000000180009df0 f i FiscalPrinter.obj
 0001:00008e30       ??1CComObjectRootBase@ATL@@QEAA@XZ 0000000180009e30 f i FiscalPrinter.obj
 0001:00008e40       ??1CComSafeDeleteCriticalSection@ATL@@QEAA@XZ 0000000180009e40 f i FiscalPrinter.obj
 0001:00008e90       ??1CComVariant@ATL@@QEAA@XZ 0000000180009e90 f i FiscalPrinter.obj
 0001:00008f10       ??1CExpansionVector@ATL@@QEAA@XZ 0000000180009f10 f i FiscalPrinter.obj
 0001:00008f50       ??1CParseBuffer@CRegParser@ATL@@QEAA@XZ 0000000180009f50 f i FiscalPrinter.obj
 0001:00008f90       ??1CRegKey@ATL@@QEAA@XZ    0000000180009f90 f i FiscalPrinter.obj
 0001:00008fc0       ??1CRegObject@ATL@@UEAA@XZ 0000000180009fc0 f i FiscalPrinter.obj
 0001:00009010       ??1ModuleLockHelper@ATL@@QEAA@XZ 000000018000a010 f i FiscalPrinter.obj
 0001:00009050       ??1OposVariant@@QEAA@XZ    000000018000a050 f i FiscalPrinter.obj
 0001:00009090       ??1_ATL_MODULE70@ATL@@QEAA@XZ 000000018000a090 f i FiscalPrinter.obj
 0001:000090d0       ??4?$CComPtr@UIAdviseSink@@@ATL@@QEAAPEAUIAdviseSink@@PEAU2@@Z 000000018000a0d0 f i FiscalPrinter.obj
 0001:00009140       ??4?$CComPtr@UIOleClientSite@@@ATL@@QEAAPEAUIOleClientSite@@PEAU2@@Z 000000018000a140 f i FiscalPrinter.obj
 0001:000091b0       ??4?$CComPtr@UIUnknown@@@ATL@@QEAAPEAUIUnknown@@PEAU2@@Z 000000018000a1b0 f i FiscalPrinter.obj
 0001:00009220       ??4?$CComQIPtr@UIOleObject@@$1?_GUID_00000112_0000_0000_c000_000000000046@@3U__s_GUID@@B@ATL@@QEAAPEAUIOleObject@@PEAUIUnknown@@@Z 000000018000a220 f i FiscalPrinter.obj
 0001:00009280       ??4?$CComQIPtr@UISpecifyPropertyPages@@$1?_GUID_b196b28b_bab4_101a_b69c_00aa00341d07@@3U__s_GUID@@B@ATL@@QEAAPEAUISpecifyPropertyPages@@PEAUIUnknown@@@Z 000000018000a280 f i FiscalPrinter.obj
 0001:000092e0       ??7?$CComPtrBase@UIOleClientSite@@@ATL@@QEBA_NXZ 000000018000a2e0 f i FiscalPrinter.obj
 0001:00009330       ??7?$CComPtrBase@UIOleInPlaceSiteWindowless@@@ATL@@QEBA_NXZ 000000018000a330 f i FiscalPrinter.obj
 0001:00009380       ??7CComBSTR@ATL@@QEBA_NXZ  000000018000a380 f i FiscalPrinter.obj
 0001:000093d0       ??8?$CComPtrBase@UIAdviseSink@@@ATL@@QEBA_NPEAUIAdviseSink@@@Z 000000018000a3d0 f i FiscalPrinter.obj
 0001:00009420       ??8?$CComPtrBase@UIConnectionPointContainer@@@ATL@@QEBA_NPEAUIConnectionPointContainer@@@Z 000000018000a420 f i FiscalPrinter.obj
 0001:00009470       ??8?$CComPtrBase@UIDataAdviseHolder@@@ATL@@QEBA_NPEAUIDataAdviseHolder@@@Z 000000018000a470 f i FiscalPrinter.obj
 0001:000094c0       ??8?$CComPtrBase@UIOleAdviseHolder@@@ATL@@QEBA_NPEAUIOleAdviseHolder@@@Z 000000018000a4c0 f i FiscalPrinter.obj
 0001:00009510       ??8?$CComPtrBase@UIOleClientSite@@@ATL@@QEBA_NPEAUIOleClientSite@@@Z 000000018000a510 f i FiscalPrinter.obj
 0001:00009560       ??8?$CComPtrBase@UIOleControlSite@@@ATL@@QEBA_NPEAUIOleControlSite@@@Z 000000018000a560 f i FiscalPrinter.obj
 0001:000095b0       ??8?$CComPtrBase@UIOleInPlaceObject@@@ATL@@QEBA_NPEAUIOleInPlaceObject@@@Z 000000018000a5b0 f i FiscalPrinter.obj
 0001:00009600       ??8?$CComPtrBase@UIOleInPlaceSiteWindowless@@@ATL@@QEBA_NPEAUIOleInPlaceSiteWindowless@@@Z 000000018000a600 f i FiscalPrinter.obj
 0001:00009650       ??8?$CComPtrBase@UIOleObject@@@ATL@@QEBA_NPEAUIOleObject@@@Z 000000018000a650 f i FiscalPrinter.obj
 0001:000096a0       ??8?$CComPtrBase@UIPersistStream@@@ATL@@QEBA_NPEAUIPersistStream@@@Z 000000018000a6a0 f i FiscalPrinter.obj
 0001:000096f0       ??8?$CComPtrBase@UIPersistStreamInit@@@ATL@@QEBA_NPEAUIPersistStreamInit@@@Z 000000018000a6f0 f i FiscalPrinter.obj
 0001:00009740       ??8?$CComPtrBase@UIPointerInactive@@@ATL@@QEBA_NPEAUIPointerInactive@@@Z 000000018000a740 f i FiscalPrinter.obj
 0001:00009790       ??8?$CComPtrBase@UIUnknown@@@ATL@@QEBA_NPEAUIUnknown@@@Z 000000018000a790 f i FiscalPrinter.obj
 0001:000097e0       ??8?$CComPtrBase@UIViewObjectEx@@@ATL@@QEBA_NPEAUIViewObjectEx@@@Z 000000018000a7e0 f i FiscalPrinter.obj
 0001:00009830       ??8CComBSTR@ATL@@QEBA_NH@Z 000000018000a830 f i FiscalPrinter.obj
 0001:000098b0       ??9?$CComPtrBase@UIAdviseSink@@@ATL@@QEBA_NPEAUIAdviseSink@@@Z 000000018000a8b0 f i FiscalPrinter.obj
 0001:00009910       ??9?$CComPtrBase@UIConnectionPointContainer@@@ATL@@QEBA_NPEAUIConnectionPointContainer@@@Z 000000018000a910 f i FiscalPrinter.obj
 0001:00009970       ??9?$CComPtrBase@UIDataAdviseHolder@@@ATL@@QEBA_NPEAUIDataAdviseHolder@@@Z 000000018000a970 f i FiscalPrinter.obj
 0001:000099d0       ??9?$CComPtrBase@UIOleAdviseHolder@@@ATL@@QEBA_NPEAUIOleAdviseHolder@@@Z 000000018000a9d0 f i FiscalPrinter.obj
 0001:00009a30       ??9?$CComPtrBase@UIOleClientSite@@@ATL@@QEBA_NPEAUIOleClientSite@@@Z 000000018000aa30 f i FiscalPrinter.obj
 0001:00009a90       ??9?$CComPtrBase@UIOleControlSite@@@ATL@@QEBA_NPEAUIOleControlSite@@@Z 000000018000aa90 f i FiscalPrinter.obj
 0001:00009af0       ??9?$CComPtrBase@UIOleInPlaceObject@@@ATL@@QEBA_NPEAUIOleInPlaceObject@@@Z 000000018000aaf0 f i FiscalPrinter.obj
 0001:00009b50       ??9?$CComPtrBase@UIOleInPlaceSiteWindowless@@@ATL@@QEBA_NPEAUIOleInPlaceSiteWindowless@@@Z 000000018000ab50 f i FiscalPrinter.obj
 0001:00009bb0       ??9?$CComPtrBase@UIOleObject@@@ATL@@QEBA_NPEAUIOleObject@@@Z 000000018000abb0 f i FiscalPrinter.obj
 0001:00009c10       ??9?$CComPtrBase@UIPersistStream@@@ATL@@QEBA_NPEAUIPersistStream@@@Z 000000018000ac10 f i FiscalPrinter.obj
 0001:00009c70       ??9?$CComPtrBase@UIPersistStreamInit@@@ATL@@QEBA_NPEAUIPersistStreamInit@@@Z 000000018000ac70 f i FiscalPrinter.obj
 0001:00009cd0       ??9?$CComPtrBase@UIPointerInactive@@@ATL@@QEBA_NPEAUIPointerInactive@@@Z 000000018000acd0 f i FiscalPrinter.obj
 0001:00009d30       ??9?$CComPtrBase@UIUnknown@@@ATL@@QEBA_NPEAUIUnknown@@@Z 000000018000ad30 f i FiscalPrinter.obj
 0001:00009d90       ??9?$CComPtrBase@UIViewObjectEx@@@ATL@@QEBA_NPEAUIViewObjectEx@@@Z 000000018000ad90 f i FiscalPrinter.obj
 0001:00009df0       ??9CComBSTR@ATL@@QEBA_NH@Z 000000018000adf0 f i FiscalPrinter.obj
 0001:00009e50       ??B?$CComPtrBase@UIAdviseSink@@@ATL@@QEBAPEAUIAdviseSink@@XZ 000000018000ae50 f i FiscalPrinter.obj
 0001:00009e60       ??B?$CComPtrBase@UIDataAdviseHolder@@@ATL@@QEBAPEAUIDataAdviseHolder@@XZ 000000018000ae60 f i FiscalPrinter.obj
 0001:00009e70       ??B?$CComPtrBase@UIDataObject@@@ATL@@QEBAPEAUIDataObject@@XZ 000000018000ae70 f i FiscalPrinter.obj
 0001:00009e80       ??B?$CComPtrBase@UIOleAdviseHolder@@@ATL@@QEBAPEAUIOleAdviseHolder@@XZ 000000018000ae80 f i FiscalPrinter.obj
 0001:00009e90       ??B?$CComPtrBase@UIOleClientSite@@@ATL@@QEBAPEAUIOleClientSite@@XZ 000000018000ae90 f i FiscalPrinter.obj
 0001:00009ea0       ??B?$CComPtrBase@UIOleControlSite@@@ATL@@QEBAPEAUIOleControlSite@@XZ 000000018000aea0 f i FiscalPrinter.obj
 0001:00009eb0       ??B?$CComPtrBase@UIOleInPlaceActiveObject@@@ATL@@QEBAPEAUIOleInPlaceActiveObject@@XZ 000000018000aeb0 f i FiscalPrinter.obj
 0001:00009ec0       ??B?$CComPtrBase@UIOleInPlaceFrame@@@ATL@@QEBAPEAUIOleInPlaceFrame@@XZ 000000018000aec0 f i FiscalPrinter.obj
 0001:00009ed0       ??B?$CComPtrBase@UIOleInPlaceSiteWindowless@@@ATL@@QEBAPEAUIOleInPlaceSiteWindowless@@XZ 000000018000aed0 f i FiscalPrinter.obj
 0001:00009ee0       ??B?$CComPtrBase@UIOleInPlaceUIWindow@@@ATL@@QEBAPEAUIOleInPlaceUIWindow@@XZ 000000018000aee0 f i FiscalPrinter.obj
 0001:00009ef0       ??B?$CComPtrBase@UIOleObject@@@ATL@@QEBAPEAUIOleObject@@XZ 000000018000aef0 f i FiscalPrinter.obj
 0001:00009f00       ??B?$CComPtrBase@UIPersistStream@@@ATL@@QEBAPEAUIPersistStream@@XZ 000000018000af00 f i FiscalPrinter.obj
 0001:00009f10       ??B?$CComPtrBase@UIProvideClassInfo2@@@ATL@@QEBAPEAUIProvideClassInfo2@@XZ 000000018000af10 f i FiscalPrinter.obj
 0001:00009f20       ??B?$CComPtrBase@UISpecifyPropertyPages@@@ATL@@QEBAPEAUISpecifyPropertyPages@@XZ 000000018000af20 f i FiscalPrinter.obj
 0001:00009f30       ??B?$CComPtrBase@UIStream@@@ATL@@QEBAPEAUIStream@@XZ 000000018000af30 f i FiscalPrinter.obj
 0001:00009f40       ??B?$CComPtrBase@UITypeInfo2@@@ATL@@QEBAPEAUITypeInfo2@@XZ 000000018000af40 f i FiscalPrinter.obj
 0001:00009f50       ??B?$CComPtrBase@UITypeInfo@@@ATL@@QEBAPEAUITypeInfo@@XZ 000000018000af50 f i FiscalPrinter.obj
 0001:00009f60       ??B?$CComPtrBase@UITypeLib@@@ATL@@QEBAPEAUITypeLib@@XZ 000000018000af60 f i FiscalPrinter.obj
 0001:00009f70       ??B?$CComPtrBase@UIUnknown@@@ATL@@QEBAPEAUIUnknown@@XZ 000000018000af70 f i FiscalPrinter.obj
 0001:00009f80       ??B?$CTempBuffer@E$0BAA@VCCRTAllocator@ATL@@@ATL@@QEBAPEAEXZ 000000018000af80 f i FiscalPrinter.obj
 0001:00009f90       ??B?$CTempBuffer@_W$0BAA@VCCRTAllocator@ATL@@@ATL@@QEBAPEA_WXZ 000000018000af90 f i FiscalPrinter.obj
 0001:00009fa0       ??B?$CTempBuffer@_W$0EAA@VCCRTAllocator@ATL@@@ATL@@QEBAPEA_WXZ 000000018000afa0 f i FiscalPrinter.obj
 0001:00009fb0       ??B?$CTraceCategoryEx@$00$0A@@ATL@@QEAAIXZ 000000018000afb0 f i FiscalPrinter.obj
 0001:00009fc0       ??B?$CTraceCategoryEx@$07$0A@@ATL@@QEAAIXZ 000000018000afc0 f i FiscalPrinter.obj
 0001:00009fd0       ??B?$CTraceCategoryEx@$0CAAA@$0A@@ATL@@QEAAIXZ 000000018000afd0 f i FiscalPrinter.obj
 0001:00009fe0       ??B?$CTraceCategoryEx@$0EA@$0A@@ATL@@QEAAIXZ 000000018000afe0 f i FiscalPrinter.obj
 0001:00009ff0       ??B?$CTraceCategoryEx@$0IAA@$0A@@ATL@@QEAAIXZ 000000018000aff0 f i FiscalPrinter.obj
 0001:0000a000       ??BCComBSTR@ATL@@QEBAPEA_WXZ 000000018000b000 f i FiscalPrinter.obj
 0001:0000a010       ??BCRegKey@ATL@@QEBAPEAUHKEY__@@XZ 000000018000b010 f i FiscalPrinter.obj
 0001:0000a020       ??C?$CComPtrBase@UIAdviseSink@@@ATL@@QEBAPEAV?$_NoAddRefReleaseOnCComPtr@UIAdviseSink@@@1@XZ 000000018000b020 f i FiscalPrinter.obj
 0001:0000a0a0       ??C?$CComPtrBase@UICatRegister@@@ATL@@QEBAPEAV?$_NoAddRefReleaseOnCComPtr@UICatRegister@@@1@XZ 000000018000b0a0 f i FiscalPrinter.obj
 0001:0000a120       ??C?$CComPtrBase@UIConnectionPoint@@@ATL@@QEBAPEAV?$_NoAddRefReleaseOnCComPtr@UIConnectionPoint@@@1@XZ 000000018000b120 f i FiscalPrinter.obj
 0001:0000a1a0       ??C?$CComPtrBase@UIConnectionPointContainer@@@ATL@@QEBAPEAV?$_NoAddRefReleaseOnCComPtr@UIConnectionPointContainer@@@1@XZ 000000018000b1a0 f i FiscalPrinter.obj
 0001:0000a220       ??C?$CComPtrBase@UIDataAdviseHolder@@@ATL@@QEBAPEAV?$_NoAddRefReleaseOnCComPtr@UIDataAdviseHolder@@@1@XZ 000000018000b220 f i FiscalPrinter.obj
 0001:0000a2a0       ??C?$CComPtrBase@UIOleAdviseHolder@@@ATL@@QEBAPEAV?$_NoAddRefReleaseOnCComPtr@UIOleAdviseHolder@@@1@XZ 000000018000b2a0 f i FiscalPrinter.obj
 0001:0000a320       ??C?$CComPtrBase@UIOleClientSite@@@ATL@@QEBAPEAV?$_NoAddRefReleaseOnCComPtr@UIOleClientSite@@@1@XZ 000000018000b320 f i FiscalPrinter.obj
 0001:0000a3a0       ??C?$CComPtrBase@UIOleControlSite@@@ATL@@QEBAPEAV?$_NoAddRefReleaseOnCComPtr@UIOleControlSite@@@1@XZ 000000018000b3a0 f i FiscalPrinter.obj
 0001:0000a420       ??C?$CComPtrBase@UIOleInPlaceFrame@@@ATL@@QEBAPEAV?$_NoAddRefReleaseOnCComPtr@UIOleInPlaceFrame@@@1@XZ 000000018000b420 f i FiscalPrinter.obj
 0001:0000a4a0       ??C?$CComPtrBase@UIOleInPlaceObject@@@ATL@@QEBAPEAV?$_NoAddRefReleaseOnCComPtr@UIOleInPlaceObject@@@1@XZ 000000018000b4a0 f i FiscalPrinter.obj
 0001:0000a520       ??C?$CComPtrBase@UIOleInPlaceSiteWindowless@@@ATL@@QEBAPEAV?$_NoAddRefReleaseOnCComPtr@UIOleInPlaceSiteWindowless@@@1@XZ 000000018000b520 f i FiscalPrinter.obj
 0001:0000a5a0       ??C?$CComPtrBase@UIOleInPlaceUIWindow@@@ATL@@QEBAPEAV?$_NoAddRefReleaseOnCComPtr@UIOleInPlaceUIWindow@@@1@XZ 000000018000b5a0 f i FiscalPrinter.obj
 0001:0000a620       ??C?$CComPtrBase@UIOleObject@@@ATL@@QEBAPEAV?$_NoAddRefReleaseOnCComPtr@UIOleObject@@@1@XZ 000000018000b620 f i FiscalPrinter.obj
 0001:0000a6a0       ??C?$CComPtrBase@UIPersistStream@@@ATL@@QEBAPEAV?$_NoAddRefReleaseOnCComPtr@UIPersistStream@@@1@XZ 000000018000b6a0 f i FiscalPrinter.obj
 0001:0000a720       ??C?$CComPtrBase@UIPersistStreamInit@@@ATL@@QEBAPEAV?$_NoAddRefReleaseOnCComPtr@UIPersistStreamInit@@@1@XZ 000000018000b720 f i FiscalPrinter.obj
 0001:0000a7a0       ??C?$CComPtrBase@UIPointerInactive@@@ATL@@QEBAPEAV?$_NoAddRefReleaseOnCComPtr@UIPointerInactive@@@1@XZ 000000018000b7a0 f i FiscalPrinter.obj
 0001:0000a820       ??C?$CComPtrBase@UIProvideClassInfo2@@@ATL@@QEBAPEAV?$_NoAddRefReleaseOnCComPtr@UIProvideClassInfo2@@@1@XZ 000000018000b820 f i FiscalPrinter.obj
 0001:0000a8a0       ??C?$CComPtrBase@UISpecifyPropertyPages@@@ATL@@QEBAPEAV?$_NoAddRefReleaseOnCComPtr@UISpecifyPropertyPages@@@1@XZ 000000018000b8a0 f i FiscalPrinter.obj
 0001:0000a920       ??C?$CComPtrBase@UITypeInfo@@@ATL@@QEBAPEAV?$_NoAddRefReleaseOnCComPtr@UITypeInfo@@@1@XZ 000000018000b920 f i FiscalPrinter.obj
 0001:0000a9a0       ??C?$CComPtrBase@UITypeLib@@@ATL@@QEBAPEAV?$_NoAddRefReleaseOnCComPtr@UITypeLib@@@1@XZ 000000018000b9a0 f i FiscalPrinter.obj
 0001:0000aa20       ??C?$CComPtrBase@UIUnknown@@@ATL@@QEBAPEAV?$_NoAddRefReleaseOnCComPtr@UIUnknown@@@1@XZ 000000018000ba20 f i FiscalPrinter.obj
 0001:0000aaa0       ??C?$CComPtrBase@UIViewObjectEx@@@ATL@@QEBAPEAV?$_NoAddRefReleaseOnCComPtr@UIViewObjectEx@@@1@XZ 000000018000baa0 f i FiscalPrinter.obj
 0001:0000ab20       ??I?$CComPtrBase@UICatRegister@@@ATL@@QEAAPEAPEAUICatRegister@@XZ 000000018000bb20 f i FiscalPrinter.obj
 0001:0000ab90       ??I?$CComPtrBase@UIConnectionPoint@@@ATL@@QEAAPEAPEAUIConnectionPoint@@XZ 000000018000bb90 f i FiscalPrinter.obj
 0001:0000ac00       ??I?$CComPtrBase@UIConnectionPointContainer@@@ATL@@QEAAPEAPEAUIConnectionPointContainer@@XZ 000000018000bc00 f i FiscalPrinter.obj
 0001:0000ac70       ??I?$CComPtrBase@UIDataAdviseHolder@@@ATL@@QEAAPEAPEAUIDataAdviseHolder@@XZ 000000018000bc70 f i FiscalPrinter.obj
 0001:0000ace0       ??I?$CComPtrBase@UIDataObject@@@ATL@@QEAAPEAPEAUIDataObject@@XZ 000000018000bce0 f i FiscalPrinter.obj
 0001:0000ad50       ??I?$CComPtrBase@UIDispatch@@@ATL@@QEAAPEAPEAUIDispatch@@XZ 000000018000bd50 f i FiscalPrinter.obj
 0001:0000adc0       ??I?$CComPtrBase@UIOleAdviseHolder@@@ATL@@QEAAPEAPEAUIOleAdviseHolder@@XZ 000000018000bdc0 f i FiscalPrinter.obj
 0001:0000ae30       ??I?$CComPtrBase@UIOleControlSite@@@ATL@@QEAAPEAPEAUIOleControlSite@@XZ 000000018000be30 f i FiscalPrinter.obj
 0001:0000aea0       ??I?$CComPtrBase@UIOleInPlaceActiveObject@@@ATL@@QEAAPEAPEAUIOleInPlaceActiveObject@@XZ 000000018000bea0 f i FiscalPrinter.obj
 0001:0000af10       ??I?$CComPtrBase@UIOleInPlaceFrame@@@ATL@@QEAAPEAPEAUIOleInPlaceFrame@@XZ 000000018000bf10 f i FiscalPrinter.obj
 0001:0000af80       ??I?$CComPtrBase@UIOleInPlaceObject@@@ATL@@QEAAPEAPEAUIOleInPlaceObject@@XZ 000000018000bf80 f i FiscalPrinter.obj
 0001:0000aff0       ??I?$CComPtrBase@UIOleInPlaceSiteWindowless@@@ATL@@QEAAPEAPEAUIOleInPlaceSiteWindowless@@XZ 000000018000bff0 f i FiscalPrinter.obj
 0001:0000b060       ??I?$CComPtrBase@UIOleInPlaceUIWindow@@@ATL@@QEAAPEAPEAUIOleInPlaceUIWindow@@XZ 000000018000c060 f i FiscalPrinter.obj
 0001:0000b0d0       ??I?$CComPtrBase@UIOleObject@@@ATL@@QEAAPEAPEAUIOleObject@@XZ 000000018000c0d0 f i FiscalPrinter.obj
 0001:0000b140       ??I?$CComPtrBase@UIPersistStream@@@ATL@@QEAAPEAPEAUIPersistStream@@XZ 000000018000c140 f i FiscalPrinter.obj
 0001:0000b1b0       ??I?$CComPtrBase@UIPointerInactive@@@ATL@@QEAAPEAPEAUIPointerInactive@@XZ 000000018000c1b0 f i FiscalPrinter.obj
 0001:0000b220       ??I?$CComPtrBase@UIProvideClassInfo2@@@ATL@@QEAAPEAPEAUIProvideClassInfo2@@XZ 000000018000c220 f i FiscalPrinter.obj
 0001:0000b290       ??I?$CComPtrBase@UIStream@@@ATL@@QEAAPEAPEAUIStream@@XZ 000000018000c290 f i FiscalPrinter.obj
 0001:0000b300       ??I?$CComPtrBase@UITypeInfo2@@@ATL@@QEAAPEAPEAUITypeInfo2@@XZ 000000018000c300 f i FiscalPrinter.obj
 0001:0000b370       ??I?$CComPtrBase@UITypeInfo@@@ATL@@QEAAPEAPEAUITypeInfo@@XZ 000000018000c370 f i FiscalPrinter.obj
 0001:0000b3e0       ??I?$CComPtrBase@UITypeLib@@@ATL@@QEAAPEAPEAUITypeLib@@XZ 000000018000c3e0 f i FiscalPrinter.obj
 0001:0000b450       ??I?$CComPtrBase@UIUnknown@@@ATL@@QEAAPEAPEAUIUnknown@@XZ 000000018000c450 f i FiscalPrinter.obj
 0001:0000b4c0       ??I?$CComPtrBase@UIViewObjectEx@@@ATL@@QEAAPEAPEAUIViewObjectEx@@XZ 000000018000c4c0 f i FiscalPrinter.obj
 0001:0000b530       ??ICComBSTR@ATL@@QEAAPEAPEA_WXZ 000000018000c530 f i FiscalPrinter.obj
 0001:0000b540       ??_E?$CComContainedObject@VCOPOSFiscalPrinter@@@ATL@@W7EAAPEAXI@Z 000000018000c540 f i FiscalPrinter.obj
 0001:0000b54c       ??_E?$CComContainedObject@VCOPOSFiscalPrinter@@@ATL@@WHA@EAAPEAXI@Z 000000018000c54c f i FiscalPrinter.obj
 0001:0000b558       ??_E?$CComObject@VCOPOSFiscalPrinter@@@ATL@@W7EAAPEAXI@Z 000000018000c558 f i FiscalPrinter.obj
 0001:0000b564       ??_E?$CComObject@VCOPOSFiscalPrinter@@@ATL@@WHA@EAAPEAXI@Z 000000018000c564 f i FiscalPrinter.obj
 0001:0000b570       ??_E?$CComAggObject@VCOPOSFiscalPrinter@@@ATL@@UEAAPEAXI@Z 000000018000c570 f i FiscalPrinter.obj
 0001:0000b570       ??_G?$CComAggObject@VCOPOSFiscalPrinter@@@ATL@@UEAAPEAXI@Z 000000018000c570 f i FiscalPrinter.obj
 0001:0000b5d0       ??_E?$CComContainedObject@VCOPOSFiscalPrinter@@@ATL@@UEAAPEAXI@Z 000000018000c5d0 f i FiscalPrinter.obj
 0001:0000b5d0       ??_G?$CComContainedObject@VCOPOSFiscalPrinter@@@ATL@@UEAAPEAXI@Z 000000018000c5d0 f i FiscalPrinter.obj
 0001:0000b630       ??_G?$CComObject@V?$CComEnum@UIEnumConnectionPoints@@$1?_GUID_b196b285_bab4_101a_b69c_00aa00341d07@@3U__s_GUID@@BPEAUIConnectionPoint@@V?$_CopyInterface@UIConnectionPoint@@@ATL@@VCComSingleThreadModel@6@@ATL@@@ATL@@UEAAPEAXI@Z 000000018000c630 f i FiscalPrinter.obj
 0001:0000b630       ??_E?$CComObject@V?$CComEnum@UIEnumConnectionPoints@@$1?_GUID_b196b285_bab4_101a_b69c_00aa00341d07@@3U__s_GUID@@BPEAUIConnectionPoint@@V?$_CopyInterface@UIConnectionPoint@@@ATL@@VCComSingleThreadModel@6@@ATL@@@ATL@@UEAAPEAXI@Z 000000018000c630 f i FiscalPrinter.obj
 0001:0000b690       ??_G?$CComObject@V?$CComEnum@UIEnumConnections@@$1?_GUID_b196b287_bab4_101a_b69c_00aa00341d07@@3U__s_GUID@@BUtagCONNECTDATA@@V?$_Copy@UtagCONNECTDATA@@@ATL@@VCComSingleThreadModel@6@@ATL@@@ATL@@UEAAPEAXI@Z 000000018000c690 f i FiscalPrinter.obj
 0001:0000b690       ??_E?$CComObject@V?$CComEnum@UIEnumConnections@@$1?_GUID_b196b287_bab4_101a_b69c_00aa00341d07@@3U__s_GUID@@BUtagCONNECTDATA@@V?$_Copy@UtagCONNECTDATA@@@ATL@@VCComSingleThreadModel@6@@ATL@@@ATL@@UEAAPEAXI@Z 000000018000c690 f i FiscalPrinter.obj
 0001:0000b6f0       ??_E?$CComObject@VCOPOSFiscalPrinter@@@ATL@@UEAAPEAXI@Z 000000018000c6f0 f i FiscalPrinter.obj
 0001:0000b6f0       ??_G?$CComObject@VCOPOSFiscalPrinter@@@ATL@@UEAAPEAXI@Z 000000018000c6f0 f i FiscalPrinter.obj
 0001:0000b750       ??_G?$CComObjectCached@VCComClassFactory@ATL@@@ATL@@UEAAPEAXI@Z 000000018000c750 f i FiscalPrinter.obj
 0001:0000b750       ??_E?$CComObjectCached@VCComClassFactory@ATL@@@ATL@@UEAAPEAXI@Z 000000018000c750 f i FiscalPrinter.obj
 0001:0000b7b0       ??_GCComClassFactory@ATL@@UEAAPEAXI@Z 000000018000c7b0 f i FiscalPrinter.obj
 0001:0000b7b0       ??_ECComClassFactory@ATL@@UEAAPEAXI@Z 000000018000c7b0 f i FiscalPrinter.obj
 0001:0000b810       ??_ECComModule@ATL@@UEAAPEAXI@Z 000000018000c810 f i FiscalPrinter.obj
 0001:0000b810       ??_GCComModule@ATL@@UEAAPEAXI@Z 000000018000c810 f i FiscalPrinter.obj
 0001:0000b870       ??_ECRegObject@ATL@@UEAAPEAXI@Z 000000018000c870 f i FiscalPrinter.obj
 0001:0000b870       ??_GCRegObject@ATL@@UEAAPEAXI@Z 000000018000c870 f i FiscalPrinter.obj
 0001:0000b8d0       ?Add@?$CSimpleArray@GV?$CSimpleArrayEqualHelper@G@ATL@@@ATL@@QEAAHAEBG@Z 000000018000c8d0 f i FiscalPrinter.obj
 0001:0000ba70       ?Add@?$CSimpleMap@PEA_WPEA_WVCExpansionVectorEqualHelper@ATL@@@ATL@@QEAAHAEBQEA_W0@Z 000000018000ca70 f i FiscalPrinter.obj
 0001:0000bb60       ?Add@CComDynamicUnkArray@ATL@@QEAAKPEAUIUnknown@@@Z 000000018000cb60 f i FiscalPrinter.obj
 0001:0000bd40       ?Add@CExpansionVector@ATL@@QEAAHPEB_W0@Z 000000018000cd40 f i FiscalPrinter.obj
 0001:0000c070       ?AddChar@CParseBuffer@CRegParser@ATL@@QEAAHPEB_W@Z 000000018000d070 f i FiscalPrinter.obj
 0001:0000c0c0       ?AddCommonRGSReplacements@?$CAtlModuleT@VCComModule@ATL@@@ATL@@UEAAJPEAUIRegistrarBase@@@Z 000000018000d0c0 f i FiscalPrinter.obj
 0001:0000c120       ?AddCreateWndData@CAtlWinModule@ATL@@QEAAXPEAU_AtlCreateWndData@2@PEAX@Z 000000018000d120 f i FiscalPrinter.obj
 0001:0000c170       ?AddRef@?$CComAggObject@VCOPOSFiscalPrinter@@@ATL@@UEAAKXZ 000000018000d170 f i FiscalPrinter.obj
 0001:0000c1b0       ?AddRef@?$CComContainedObject@VCOPOSFiscalPrinter@@@ATL@@UEAAKXZ 000000018000d1b0 f i FiscalPrinter.obj
 0001:0000c1e8       ?AddRef@?$CComContainedObject@VCOPOSFiscalPrinter@@@ATL@@WBAA@EAAKXZ 000000018000d1e8 f i FiscalPrinter.obj
 0001:0000c1f4       ?AddRef@?$CComContainedObject@VCOPOSFiscalPrinter@@@ATL@@WBAI@EAAKXZ 000000018000d1f4 f i FiscalPrinter.obj
 0001:0000c200       ?AddRef@?$CComContainedObject@VCOPOSFiscalPrinter@@@ATL@@WBBA@EAAKXZ 000000018000d200 f i FiscalPrinter.obj
 0001:0000c20c       ?AddRef@?$CComContainedObject@VCOPOSFiscalPrinter@@@ATL@@WBBI@EAAKXZ 000000018000d20c f i FiscalPrinter.obj
 0001:0000c218       ?AddRef@?$CComContainedObject@VCOPOSFiscalPrinter@@@ATL@@WBCI@EAAKXZ 000000018000d218 f i FiscalPrinter.obj
 0001:0000c224       ?AddRef@?$CComContainedObject@VCOPOSFiscalPrinter@@@ATL@@WBEA@EAAKXZ 000000018000d224 f i FiscalPrinter.obj
 0001:0000c230       ?AddRef@?$CComContainedObject@VCOPOSFiscalPrinter@@@ATL@@WLI@EAAKXZ 000000018000d230 f i FiscalPrinter.obj
 0001:0000c23c       ?AddRef@?$CComContainedObject@VCOPOSFiscalPrinter@@@ATL@@WMA@EAAKXZ 000000018000d23c f i FiscalPrinter.obj
 0001:0000c248       ?AddRef@?$CComContainedObject@VCOPOSFiscalPrinter@@@ATL@@WMI@EAAKXZ 000000018000d248 f i FiscalPrinter.obj
 0001:0000c254       ?AddRef@?$CComContainedObject@VCOPOSFiscalPrinter@@@ATL@@WNA@EAAKXZ 000000018000d254 f i FiscalPrinter.obj
 0001:0000c260       ?AddRef@?$CComContainedObject@VCOPOSFiscalPrinter@@@ATL@@WNI@EAAKXZ 000000018000d260 f i FiscalPrinter.obj
 0001:0000c26c       ?AddRef@?$CComContainedObject@VCOPOSFiscalPrinter@@@ATL@@WOA@EAAKXZ 000000018000d26c f i FiscalPrinter.obj
 0001:0000c278       ?AddRef@?$CComContainedObject@VCOPOSFiscalPrinter@@@ATL@@WOI@EAAKXZ 000000018000d278 f i FiscalPrinter.obj
 0001:0000c284       ?AddRef@?$CComContainedObject@VCOPOSFiscalPrinter@@@ATL@@WPA@EAAKXZ 000000018000d284 f i FiscalPrinter.obj
 0001:0000c290       ?AddRef@?$CComContainedObject@VCOPOSFiscalPrinter@@@ATL@@WPI@EAAKXZ 000000018000d290 f i FiscalPrinter.obj
 0001:0000c2a0       ?AddRef@?$CComObject@V?$CComEnum@UIEnumConnectionPoints@@$1?_GUID_b196b285_bab4_101a_b69c_00aa00341d07@@3U__s_GUID@@BPEAUIConnectionPoint@@V?$_CopyInterface@UIConnectionPoint@@@ATL@@VCComSingleThreadModel@6@@ATL@@@ATL@@UEAAKXZ 000000018000d2a0 f i FiscalPrinter.obj
 0001:0000c2e0       ?AddRef@?$CComObject@V?$CComEnum@UIEnumConnections@@$1?_GUID_b196b287_bab4_101a_b69c_00aa00341d07@@3U__s_GUID@@BUtagCONNECTDATA@@V?$_Copy@UtagCONNECTDATA@@@ATL@@VCComSingleThreadModel@6@@ATL@@@ATL@@UEAAKXZ 000000018000d2e0 f i FiscalPrinter.obj
 0001:0000c320       ?AddRef@?$CComObject@VCOPOSFiscalPrinter@@@ATL@@UEAAKXZ 000000018000d320 f i FiscalPrinter.obj
 0001:0000c358       ?AddRef@?$CComObject@VCOPOSFiscalPrinter@@@ATL@@WBAA@EAAKXZ 000000018000d358 f i FiscalPrinter.obj
 0001:0000c364       ?AddRef@?$CComObject@VCOPOSFiscalPrinter@@@ATL@@WBAI@EAAKXZ 000000018000d364 f i FiscalPrinter.obj
 0001:0000c370       ?AddRef@?$CComObject@VCOPOSFiscalPrinter@@@ATL@@WBBA@EAAKXZ 000000018000d370 f i FiscalPrinter.obj
 0001:0000c37c       ?AddRef@?$CComObject@VCOPOSFiscalPrinter@@@ATL@@WBBI@EAAKXZ 000000018000d37c f i FiscalPrinter.obj
 0001:0000c388       ?AddRef@?$CComObject@VCOPOSFiscalPrinter@@@ATL@@WBCI@EAAKXZ 000000018000d388 f i FiscalPrinter.obj
 0001:0000c394       ?AddRef@?$CComObject@VCOPOSFiscalPrinter@@@ATL@@WBEA@EAAKXZ 000000018000d394 f i FiscalPrinter.obj
 0001:0000c3a0       ?AddRef@?$CComObject@VCOPOSFiscalPrinter@@@ATL@@WLI@EAAKXZ 000000018000d3a0 f i FiscalPrinter.obj
 0001:0000c3ac       ?AddRef@?$CComObject@VCOPOSFiscalPrinter@@@ATL@@WMA@EAAKXZ 000000018000d3ac f i FiscalPrinter.obj
 0001:0000c3b8       ?AddRef@?$CComObject@VCOPOSFiscalPrinter@@@ATL@@WMI@EAAKXZ 000000018000d3b8 f i FiscalPrinter.obj
 0001:0000c3c4       ?AddRef@?$CComObject@VCOPOSFiscalPrinter@@@ATL@@WNA@EAAKXZ 000000018000d3c4 f i FiscalPrinter.obj
 0001:0000c3d0       ?AddRef@?$CComObject@VCOPOSFiscalPrinter@@@ATL@@WNI@EAAKXZ 000000018000d3d0 f i FiscalPrinter.obj
 0001:0000c3dc       ?AddRef@?$CComObject@VCOPOSFiscalPrinter@@@ATL@@WOA@EAAKXZ 000000018000d3dc f i FiscalPrinter.obj
 0001:0000c3e8       ?AddRef@?$CComObject@VCOPOSFiscalPrinter@@@ATL@@WOI@EAAKXZ 000000018000d3e8 f i FiscalPrinter.obj
 0001:0000c3f4       ?AddRef@?$CComObject@VCOPOSFiscalPrinter@@@ATL@@WPA@EAAKXZ 000000018000d3f4 f i FiscalPrinter.obj
 0001:0000c400       ?AddRef@?$CComObject@VCOPOSFiscalPrinter@@@ATL@@WPI@EAAKXZ 000000018000d400 f i FiscalPrinter.obj
 0001:0000c410       ?AddRef@?$CComObjectCached@VCComClassFactory@ATL@@@ATL@@UEAAKXZ 000000018000d410 f i FiscalPrinter.obj
 0001:0000c470       ?AddRef@CRegObject@ATL@@UEAAKXZ 000000018000d470 f i FiscalPrinter.obj
 0001:0000c4e0       ?AddReplacement@CRegObject@ATL@@UEAAJPEB_W0@Z 000000018000d4e0 f i FiscalPrinter.obj
 0001:0000c610       ?AddString@CParseBuffer@CRegParser@ATL@@QEAAHPEB_W@Z 000000018000d610 f i FiscalPrinter.obj
 0001:0000c700       ?AddTermFunc@CAtlModule@ATL@@QEAAJP6AX_K@Z0@Z 000000018000d700 f i FiscalPrinter.obj
 0001:0000c770       ?AddValue@CRegParser@ATL@@IEAAJAEAVCRegKey@2@PEB_WPEA_W@Z 000000018000d770 f i FiscalPrinter.obj
 0001:0000d040       ?Advise@?$CProxy_IOPOSEvents@VCOPOSFiscalPrinter@@@@UEAAJPEAUIUnknown@@PEAK@Z 000000018000e040 f i FiscalPrinter.obj
 0001:0000d0b0       ?Advise@?$IConnectionPointImpl@VCOPOSFiscalPrinter@@$1?DIID__IOPOSFiscalPrinterEvents@@3U_GUID@@BVCComDynamicUnkArray@ATL@@@ATL@@UEAAJPEAUIUnknown@@PEAK@Z 000000018000e0b0 f i FiscalPrinter.obj
 0001:0000d2b0       ?Advise@?$IConnectionPointImpl@VCOPOSFiscalPrinter@@$1?IID_IPropertyNotifySink@@3U_GUID@@BVCComDynamicUnkArray@ATL@@@ATL@@UEAAJPEAUIUnknown@@PEAK@Z 000000018000e2b0 f i FiscalPrinter.obj
 0001:0000d4b0       ?Advise@?$IOleObjectImpl@VCOPOSFiscalPrinter@@@ATL@@UEAAJPEAUIAdviseSink@@PEAK@Z 000000018000e4b0 f i FiscalPrinter.obj
 0001:0000d570       ?Allocate@?$CAtlSafeAllocBufferManager@VCCRTAllocator@ATL@@@_ATL_SAFE_ALLOCA_IMPL@ATL@@QEAAPEAX_K@Z 000000018000e570 f i FiscalPrinter.obj
 0001:0000d5f0       ?Allocate@?$CTempBuffer@E$0BAA@VCCRTAllocator@ATL@@@ATL@@QEAAPEAE_K@Z 000000018000e5f0 f i FiscalPrinter.obj
 0001:0000d640       ?Allocate@?$CTempBuffer@_W$0BAA@VCCRTAllocator@ATL@@@ATL@@QEAAPEA_W_K@Z 000000018000e640 f i FiscalPrinter.obj
 0001:0000d690       ?Allocate@?$CTempBuffer@_W$0EAA@VCCRTAllocator@ATL@@@ATL@@QEAAPEA_W_K@Z 000000018000e690 f i FiscalPrinter.obj
 0001:0000d6e0       ?AllocateBytes@?$CTempBuffer@E$0BAA@VCCRTAllocator@ATL@@@ATL@@QEAAPEAE_K@Z 000000018000e6e0 f i FiscalPrinter.obj
 0001:0000d790       ?AllocateBytes@?$CTempBuffer@_W$0BAA@VCCRTAllocator@ATL@@@ATL@@QEAAPEA_W_K@Z 000000018000e790 f i FiscalPrinter.obj
 0001:0000d840       ?AllocateBytes@?$CTempBuffer@_W$0EAA@VCCRTAllocator@ATL@@@ATL@@QEAAPEA_W_K@Z 000000018000e840 f i FiscalPrinter.obj
 0001:0000d8f0       ?AllocateHeap@?$CTempBuffer@E$0BAA@VCCRTAllocator@ATL@@@ATL@@AEAAX_K@Z 000000018000e8f0 f i FiscalPrinter.obj
 0001:0000d950       ?AllocateHeap@?$CTempBuffer@_W$0BAA@VCCRTAllocator@ATL@@@ATL@@AEAAX_K@Z 000000018000e950 f i FiscalPrinter.obj
 0001:0000d9b0       ?AllocateHeap@?$CTempBuffer@_W$0EAA@VCCRTAllocator@ATL@@@ATL@@AEAAX_K@Z 000000018000e9b0 f i FiscalPrinter.obj
 0001:0000da10       ?Append@CParseBuffer@CRegParser@ATL@@QEAAHPEB_WH@Z 000000018000ea10 f i FiscalPrinter.obj
 0001:0000dc40       ?AtlCallTermFunc@ATL@@YAXPEAU_ATL_MODULE70@1@@Z 000000018000ec40 f i FiscalPrinter.obj
 0001:0000dcf0       ?AtlCoTaskMemCAlloc@ATL@@YAPEAXKK@Z 000000018000ecf0 f i FiscalPrinter.obj
 0001:0000dd70       ?AtlCoTaskMemRecalloc@ATL@@YAPEAXPEAXKK@Z 000000018000ed70 f i FiscalPrinter.obj
 0001:0000ddf0       ?AtlComModuleGetClassObject@ATL@@YAJPEAU_ATL_COM_MODULE70@1@AEBU_GUID@@1PEAPEAX@Z 000000018000edf0 f i FiscalPrinter.obj
 0001:0000e120       ?AtlComModuleRegisterServer@ATL@@YAJPEAU_ATL_COM_MODULE70@1@HPEBU_GUID@@@Z 000000018000f120 f i FiscalPrinter.obj
 0001:0000e320       ?AtlComModuleUnregisterServer@ATL@@YAJPEAU_ATL_COM_MODULE70@1@HPEBU_GUID@@@Z 000000018000f320 f i FiscalPrinter.obj
 0001:0000e480       ?AtlComQIPtrAssign2@ATL@@YAXPEAPEAUIUnknown@@PEAU2@AEBU_GUID@@@Z 000000018000f480 f i FiscalPrinter.obj
 0001:0000e510       ?AtlCreateTargetDC@ATL@@YAPEAUHDC__@@PEAU2@PEAUtagDVTARGETDEVICE@@@Z 000000018000f510 f i FiscalPrinter.obj
 0001:0000e740       ?AtlCrtErrorCheck@ATL@@YAHH@Z 000000018000f740 f i FiscalPrinter.obj
 0001:0000e7c0       ?AtlGetPerUserRegistration@ATL@@YAJPEA_N@Z 000000018000f7c0 f i FiscalPrinter.obj
 0001:0000e7f0       ?AtlHiMetricToPixel@ATL@@YAXPEBUtagSIZE@@PEAU2@@Z 000000018000f7f0 f i FiscalPrinter.obj
 0001:0000e9f0       ?AtlHresultFromLastError@ATL@@YAJXZ 000000018000f9f0 f i FiscalPrinter.obj
 0001:0000ea20       ?AtlHresultFromWin32@ATL@@YAJK@Z 000000018000fa20 f i FiscalPrinter.obj
 0001:0000ea50       ?AtlIPersistStreamInit_Load@ATL@@YAJPEAUIStream@@PEBUATL_PROPMAP_ENTRY@1@PEAXPEAUIUnknown@@@Z 000000018000fa50 f i FiscalPrinter.obj
 0001:0000f0c0       ?AtlIPersistStreamInit_Save@ATL@@YAJPEAUIStream@@HPEBUATL_PROPMAP_ENTRY@1@PEAXPEAUIUnknown@@@Z 00000001800100c0 f i FiscalPrinter.obj
 0001:0000f650       ?AtlInternalOleLoadFromStream@ATL@@YAJPEAUIStream@@AEBU_GUID@@PEAPEAXTClassesAllowedInStream@1@K@Z 0000000180010650 f i FiscalPrinter.obj
 0001:0000f990       ?AtlInternalQueryInterface@ATL@@YAJPEAXPEBU_ATL_INTMAP_ENTRY@1@AEBU_GUID@@PEAPEAX@Z 0000000180010990 f i FiscalPrinter.obj
 0001:0000fc50       ?AtlLoadTypeLib@ATL@@YAJPEAUHINSTANCE__@@PEB_WPEAPEA_WPEAPEAUITypeLib@@@Z 0000000180010c50 f i FiscalPrinter.obj
 0001:00010120       ?AtlModuleAddTermFunc@ATL@@YAJPEAU_ATL_MODULE70@1@P6AX_K@Z1@Z 0000000180011120 f i FiscalPrinter.obj
 0001:000102f0       ?AtlRegisterClassCategoriesHelper@ATL@@YAJAEBU_GUID@@PEBU_ATL_CATMAP_ENTRY@1@H@Z 00000001800112f0 f i FiscalPrinter.obj
 0001:00010ac0       ?AtlRegisterTypeLib@ATL@@YAJPEAUHINSTANCE__@@PEB_W@Z 0000000180011ac0 f i FiscalPrinter.obj
 0001:00010e20       ?AtlThrowImpl@ATL@@YAXJ@Z  0000000180011e20 f i FiscalPrinter.obj
 0001:00010f00       ?AtlUnRegisterTypeLib@ATL@@YAJPEAUHINSTANCE__@@PEB_W@Z 0000000180011f00 f i FiscalPrinter.obj
 0001:00011130       ?AtlWinModuleAddCreateWndData@ATL@@YAXPEAU_ATL_WIN_MODULE70@1@PEAU_AtlCreateWndData@1@PEAX@Z 0000000180012130 f i FiscalPrinter.obj
 0001:00011320       ?AtlWinModuleExtractCreateWndData@ATL@@YAPEAXPEAU_ATL_WIN_MODULE70@1@@Z 0000000180012320 f i FiscalPrinter.obj
 0001:00011520       ?AtlWinModuleRegisterClassExW@ATL@@YAGPEAU_ATL_WIN_MODULE70@1@PEBUtagWNDCLASSEXW@@@Z 0000000180012520 f i FiscalPrinter.obj
 0001:000115f0       ?AtlWinModuleRegisterWndClassInfoW@ATL@@YAGPEAU_ATL_WIN_MODULE70@1@PEAU_ATL_BASE_MODULE70@1@PEAU_ATL_WNDCLASSINFOW@1@PEAP6A_JPEAUHWND__@@I_K_J@Z@Z 00000001800125f0 f i FiscalPrinter.obj
 0001:00011660       ?Attach@?$CAutoVectorPtr@_W@ATL@@QEAAXPEA_W@Z 0000000180012660 f i FiscalPrinter.obj
 0001:000116f0       ?Attach@CComBSTR@ATL@@QEAAXPEA_W@Z 00000001800126f0 f i FiscalPrinter.obj
 0001:00011750       ?Attach@CRegKey@ATL@@QEAAXPEAUHKEY__@@@Z 0000000180012750 f i FiscalPrinter.obj
 0001:000117f0       ?CanForceRemoveKey@CRegParser@ATL@@IEAAHPEB_W@Z 00000001800127f0 f i FiscalPrinter.obj
 0001:00011860       ?ChToByte@CRegParser@ATL@@KAE_W@Z 0000000180012860 f i FiscalPrinter.obj
 0001:000119c0       ?ChangeType@CComVariant@ATL@@QEAAJGPEBUtagVARIANT@@@Z 00000001800129c0 f i FiscalPrinter.obj
 0001:00011a30       ?Cleanup@CComTypeInfoHolder@ATL@@SAX_K@Z 0000000180012a30 f i FiscalPrinter.obj
 0001:00011b20       ?Clear@CComVariant@ATL@@QEAAJXZ 0000000180012b20 f i FiscalPrinter.obj
 0001:00011b50       ?ClearReplacements@CExpansionVector@ATL@@QEAAJXZ 0000000180012b50 f i FiscalPrinter.obj
 0001:00011bf0       ?ClearReplacements@CRegObject@ATL@@UEAAJXZ 0000000180012bf0 f i FiscalPrinter.obj
 0001:00011c50       ?Clone@?$CComEnumImpl@UIEnumConnectionPoints@@$1?_GUID_b196b285_bab4_101a_b69c_00aa00341d07@@3U__s_GUID@@BPEAUIConnectionPoint@@V?$_CopyInterface@UIConnectionPoint@@@ATL@@@ATL@@UEAAJPEAPEAUIEnumConnectionPoints@@@Z 0000000180012c50 f i FiscalPrinter.obj
 0001:00011e40       ?Clone@?$CComEnumImpl@UIEnumConnections@@$1?_GUID_b196b287_bab4_101a_b69c_00aa00341d07@@3U__s_GUID@@BUtagCONNECTDATA@@V?$_Copy@UtagCONNECTDATA@@@ATL@@@ATL@@UEAAJPEAPEAUIEnumConnections@@@Z 0000000180012e40 f i FiscalPrinter.obj
 0001:00012030       ?Close@?$IOleObjectImpl@VCOPOSFiscalPrinter@@@ATL@@UEAAJK@Z 0000000180013030 f i FiscalPrinter.obj
 0001:000120e0       ?Close@CRegKey@ATL@@QEAAJXZ 00000001800130e0 f i FiscalPrinter.obj
 0001:00012150       ?ContextSensitiveHelp@?$IOleInPlaceActiveObjectImpl@VCOPOSFiscalPrinter@@@ATL@@UEAAJH@Z 0000000180013150 f i FiscalPrinter.obj
 0001:000121d0       ?ContextSensitiveHelp@?$IOleInPlaceObjectWindowlessImpl@VCOPOSFiscalPrinter@@@ATL@@UEAAJH@Z 00000001800131d0 f i FiscalPrinter.obj
 0001:00012250       ?ControlQueryInterface@?$CComControl@VCOPOSFiscalPrinter@@V?$CWindowImpl@VCOPOSFiscalPrinter@@VCWindow@ATL@@V?$CWinTraits@$0FGAAAAAA@$0A@@3@@ATL@@@ATL@@UEAAJAEBU_GUID@@PEAPEAX@Z 0000000180013250 f i FiscalPrinter.obj
 0001:000122e0       ?CreateControlWindow@?$CComControl@VCOPOSFiscalPrinter@@V?$CWindowImpl@VCOPOSFiscalPrinter@@VCWindow@ATL@@V?$CWinTraits@$0FGAAAAAA@$0A@@3@@ATL@@@ATL@@UEAAPEAUHWND__@@PEAU3@AEAUtagRECT@@@Z 00000001800132e0 f i FiscalPrinter.obj
 0001:000123d0       ?CreateInstance@?$CComCreator@V?$CComAggObject@VCOPOSFiscalPrinter@@@ATL@@@ATL@@SAJPEAXAEBU_GUID@@PEAPEAX@Z 00000001800133d0 f i FiscalPrinter.obj
 0001:000125b0       ?CreateInstance@?$CComCreator@V?$CComObject@VCOPOSFiscalPrinter@@@ATL@@@ATL@@SAJPEAXAEBU_GUID@@PEAPEAX@Z 00000001800135b0 f i FiscalPrinter.obj
 0001:000127b0       ?CreateInstance@?$CComObject@V?$CComEnum@UIEnumConnectionPoints@@$1?_GUID_b196b285_bab4_101a_b69c_00aa00341d07@@3U__s_GUID@@BPEAUIConnectionPoint@@V?$_CopyInterface@UIConnectionPoint@@@ATL@@VCComSingleThreadModel@6@@ATL@@@ATL@@SAJPEAPEAV12@@Z 00000001800137b0 f i FiscalPrinter.obj
 0001:00012970       ?CreateInstance@?$CComObject@V?$CComEnum@UIEnumConnections@@$1?_GUID_b196b287_bab4_101a_b69c_00aa00341d07@@3U__s_GUID@@BUtagCONNECTDATA@@V?$_Copy@UtagCONNECTDATA@@@ATL@@VCComSingleThreadModel@6@@ATL@@@ATL@@SAJPEAPEAV12@@Z 0000000180013970 f i FiscalPrinter.obj
 0001:00012b30       ?CreateInstance@CComClassFactory@ATL@@UEAAJPEAUIUnknown@@AEBU_GUID@@PEAPEAX@Z 0000000180013b30 f i FiscalPrinter.obj
 0001:00012c50       ?DAdvise@?$IDataObjectImpl@VCOPOSFiscalPrinter@@@ATL@@UEAAJPEAUtagFORMATETC@@KPEAUIAdviseSink@@PEAK@Z 0000000180013c50 f i FiscalPrinter.obj
 0001:00012db0       ?DEVMODEOLE2T_EX@@YAPEAU_devicemodeW@@PEAU1@@Z 0000000180013db0 f i FiscalPrinter.obj
 0001:00012dc0       ?DUnadvise@?$IDataObjectImpl@VCOPOSFiscalPrinter@@@ATL@@UEAAJK@Z 0000000180013dc0 f i FiscalPrinter.obj
 0001:00012ec0       ?Decrement@CComMultiThreadModel@ATL@@SAKPEAJ@Z 0000000180013ec0 f i FiscalPrinter.obj
 0001:00012ee0       ?Decrement@CComSingleThreadModel@ATL@@SAKPEAJ@Z 0000000180013ee0 f i FiscalPrinter.obj
 0001:00012f00       ?DefWindowProcW@?$CWindowImplBaseT@VCWindow@ATL@@V?$CWinTraits@$0FGAAAAAA@$0A@@2@@ATL@@QEAA_JI_K_J@Z 0000000180013f00 f i FiscalPrinter.obj
 0001:00012f60       ?DefaultReflectionHandler@?$CWindowImplRoot@VCWindow@ATL@@@ATL@@SAHPEAUHWND__@@I_K_JAEA_J@Z 0000000180013f60 f i FiscalPrinter.obj
 0001:00013050       ?DeleteSubKey@CRegKey@ATL@@QEAAJPEB_W@Z 0000000180014050 f i FiscalPrinter.obj
 0001:00013180       ?DeleteValue@CRegKey@ATL@@QEAAJPEB_W@Z 0000000180014180 f i FiscalPrinter.obj
 0001:00013210       ?Detach@?$CAutoVectorPtr@_W@ATL@@QEAAPEA_WXZ 0000000180014210 f i FiscalPrinter.obj
 0001:00013250       ?Detach@?$CComPtrBase@UIPersistStream@@@ATL@@QEAAPEAUIPersistStream@@XZ 0000000180014250 f i FiscalPrinter.obj
 0001:00013290       ?Detach@?$CComPtrBase@UITypeInfo@@@ATL@@QEAAPEAUITypeInfo@@XZ 0000000180014290 f i FiscalPrinter.obj
 0001:000132d0       ?Detach@?$CComPtrBase@UIUnknown@@@ATL@@QEAAPEAUIUnknown@@XZ 00000001800142d0 f i FiscalPrinter.obj
 0001:00013310       ?Detach@CComBSTR@ATL@@QEAAPEA_WXZ 0000000180014310 f i FiscalPrinter.obj
 0001:00013350       ?Detach@CParseBuffer@CRegParser@ATL@@QEAAPEA_WXZ 0000000180014350 f i FiscalPrinter.obj
 0001:000133b0       ?Detach@CRegKey@ATL@@QEAAPEAUHKEY__@@XZ 00000001800143b0 f i FiscalPrinter.obj
 0001:00013410       ?DoEvent@COPOSFiscalPrinter@@IEAAXI_K_J@Z 0000000180014410 f i FiscalPrinter.obj
 0001:00013550       ?DoVerb@?$IOleObjectImpl@VCOPOSFiscalPrinter@@@ATL@@UEAAJJPEAUtagMSG@@PEAUIOleClientSite@@JPEAUHWND__@@PEBUtagRECT@@@Z 0000000180014550 f i FiscalPrinter.obj
 0001:00013860       ?DoVerbDiscardUndo@?$IOleObjectImpl@VCOPOSFiscalPrinter@@@ATL@@QEAAJPEBUtagRECT@@PEAUHWND__@@@Z 0000000180014860 f i FiscalPrinter.obj
 0001:00013900       ?DoVerbHide@?$IOleObjectImpl@VCOPOSFiscalPrinter@@@ATL@@QEAAJPEBUtagRECT@@PEAUHWND__@@@Z 0000000180014900 f i FiscalPrinter.obj
 0001:000139e0       ?DoVerbInPlaceActivate@?$IOleObjectImpl@VCOPOSFiscalPrinter@@@ATL@@QEAAJPEBUtagRECT@@PEAUHWND__@@@Z 00000001800149e0 f i FiscalPrinter.obj
 0001:00013ac0       ?DoVerbOpen@?$IOleObjectImpl@VCOPOSFiscalPrinter@@@ATL@@QEAAJPEBUtagRECT@@PEAUHWND__@@@Z 0000000180014ac0 f i FiscalPrinter.obj
 0001:00013b60       ?DoVerbPrimary@?$IOleObjectImpl@VCOPOSFiscalPrinter@@@ATL@@QEAAJPEBUtagRECT@@PEAUHWND__@@@Z 0000000180014b60 f i FiscalPrinter.obj
 0001:00013ca0       ?DoVerbProperties@CComControlBase@ATL@@QEAAJPEBUtagRECT@@PEAUHWND__@@@Z 0000000180014ca0 f i FiscalPrinter.obj
 0001:00014050       ?DoVerbShow@?$IOleObjectImpl@VCOPOSFiscalPrinter@@@ATL@@QEAAJPEBUtagRECT@@PEAUHWND__@@@Z 0000000180015050 f i FiscalPrinter.obj
 0001:00014110       ?DoVerbUIActivate@?$IOleObjectImpl@VCOPOSFiscalPrinter@@@ATL@@QEAAJPEBUtagRECT@@PEAUHWND__@@@Z 0000000180015110 f i FiscalPrinter.obj
 0001:000141f0       ?DoesVerbActivate@CComControlBase@ATL@@QEAAHJ@Z 00000001800151f0 f i FiscalPrinter.obj
 0001:00014250       ?DoesVerbUIActivate@CComControlBase@ATL@@QEAAHJ@Z 0000000180015250 f i FiscalPrinter.obj
 0001:000142d0       ?Draw@?$IViewObjectExImpl@VCOPOSFiscalPrinter@@@ATL@@UEAAJKJPEAXPEAUtagDVTARGETDEVICE@@PEAUHDC__@@2PEBU_RECTL@@3P6AH_K@Z4@Z 00000001800152d0 f i FiscalPrinter.obj
 0001:000143f0       ?Empty@CComBSTR@ATL@@QEAAXXZ 00000001800153f0 f i FiscalPrinter.obj
 0001:00014430       ?EnableModeless@?$IOleInPlaceActiveObjectImpl@VCOPOSFiscalPrinter@@@ATL@@UEAAJH@Z 0000000180015430 f i FiscalPrinter.obj
 0001:000144a0       ?EndOfVar@CRegParser@ATL@@IEAAHXZ 00000001800154a0 f i FiscalPrinter.obj
 0001:00014500       ?EnsureTI@CComTypeInfoHolder@ATL@@QEAAJK@Z 0000000180015500 f i FiscalPrinter.obj
 0001:00014560       ?EnumAdvise@?$IOleObjectImpl@VCOPOSFiscalPrinter@@@ATL@@UEAAJPEAPEAUIEnumSTATDATA@@@Z 0000000180015560 f i FiscalPrinter.obj
 0001:000146c0       ?EnumConnectionPoints@?$IConnectionPointContainerImpl@VCOPOSFiscalPrinter@@@ATL@@UEAAJPEAPEAUIEnumConnectionPoints@@@Z 00000001800156c0 f i FiscalPrinter.obj
 0001:00014bb0       ?EnumConnections@?$IConnectionPointImpl@VCOPOSFiscalPrinter@@$1?DIID__IOPOSFiscalPrinterEvents@@3U_GUID@@BVCComDynamicUnkArray@ATL@@@ATL@@UEAAJPEAPEAUIEnumConnections@@@Z 0000000180015bb0 f i FiscalPrinter.obj
 0001:00014f00       ?EnumConnections@?$IConnectionPointImpl@VCOPOSFiscalPrinter@@$1?IID_IPropertyNotifySink@@3U_GUID@@BVCComDynamicUnkArray@ATL@@@ATL@@UEAAJPEAPEAUIEnumConnections@@@Z 0000000180015f00 f i FiscalPrinter.obj
 0001:00015250       ?EnumDAdvise@?$IDataObjectImpl@VCOPOSFiscalPrinter@@@ATL@@UEAAJPEAPEAUIEnumSTATDATA@@@Z 0000000180016250 f i FiscalPrinter.obj
 0001:000153a0       ?EnumFormatEtc@?$IDataObjectImpl@VCOPOSFiscalPrinter@@@ATL@@UEAAJKPEAPEAUIEnumFORMATETC@@@Z 00000001800163a0 f i FiscalPrinter.obj
 0001:00015430       ?EnumVerbs@?$IOleObjectImpl@VCOPOSFiscalPrinter@@@ATL@@UEAAJPEAPEAUIEnumOLEVERB@@@Z 0000000180016430 f i FiscalPrinter.obj
 0001:00015500       ?EscapeSingleQuote@CAtlModule@ATL@@SAXPEA_W_KPEB_W@Z 0000000180016500 f i FiscalPrinter.obj
 0001:00015600       ?ExtractCreateWndData@CAtlWinModule@ATL@@QEAAPEAXXZ 0000000180016600 f i FiscalPrinter.obj
 0001:00015630       ?FAccessAllowed@?$IObjectSafetyImpl@VCOPOSFiscalPrinter@@$02@ATL@@MEAAHXZ 0000000180016630 f i FiscalPrinter.obj
 0001:00015640       ?FinalConstruct@?$CComAggObject@VCOPOSFiscalPrinter@@@ATL@@QEAAJXZ 0000000180016640 f i FiscalPrinter.obj
 0001:00015690       ?FinalConstruct@CComObjectRootBase@ATL@@QEAAJXZ 0000000180016690 f i FiscalPrinter.obj
 0001:000156a0       ?FinalConstruct@CRegObject@ATL@@QEAAJXZ 00000001800166a0 f i FiscalPrinter.obj
 0001:000156e0       ?FinalRelease@?$CComAggObject@VCOPOSFiscalPrinter@@@ATL@@QEAAXXZ 00000001800166e0 f i FiscalPrinter.obj
 0001:00015730       ?FinalRelease@CComObjectRootBase@ATL@@QEAAXXZ 0000000180016730 f i FiscalPrinter.obj
 0001:00015740       ?FindConnectionPoint@?$IConnectionPointContainerImpl@VCOPOSFiscalPrinter@@@ATL@@UEAAJAEBU_GUID@@PEAPEAUIConnectionPoint@@@Z 0000000180016740 f i FiscalPrinter.obj
 0001:000158b0       ?FindKey@?$CSimpleMap@PEA_WPEA_WVCExpansionVectorEqualHelper@ATL@@@ATL@@QEBAHAEBQEA_W@Z 00000001800168b0 f i FiscalPrinter.obj
 0001:00015930       ?FireTheEvent@?$CProxy_IOPOSEvents@VCOPOSFiscalPrinter@@@@IEAAXPEAUIUnknown@@PEAVOposVariant@@IAEAJPEB_WJ@Z 0000000180016930 f i FiscalPrinter.obj
 0001:00015b10       ?FireViewChange@CComControlBase@ATL@@QEAAJXZ 0000000180016b10 f i FiscalPrinter.obj
 0001:00015bf0       ?Fire_DirectIOEvent@?$CProxy_IOPOSEvents@VCOPOSFiscalPrinter@@@@QEAAXJPEAJPEAPEA_W@Z 0000000180016bf0 f i FiscalPrinter.obj
 0001:00015e80       ?Fire_ErrorEvent@?$CProxy_IOPOSEvents@VCOPOSFiscalPrinter@@@@QEAAXJJJPEAJ@Z 0000000180016e80 f i FiscalPrinter.obj
 0001:00016130       ?Fire_OutputCompleteEvent@?$CProxy_IOPOSEvents@VCOPOSFiscalPrinter@@@@QEAAXJ@Z 0000000180017130 f i FiscalPrinter.obj
 0001:00016320       ?Fire_StatusUpdateEvent@?$CProxy_IOPOSEvents@VCOPOSFiscalPrinter@@@@QEAAXJ@Z 0000000180017320 f i FiscalPrinter.obj
 0001:00016510       ?FormatWindowClassName@AtlModuleRegisterWndClassInfoParamW@ATL@@SAXPEA_WKPEAX@Z 0000000180017510 f i FiscalPrinter.obj
 0001:00016560       ?Free@?$CAutoVectorPtr@_W@ATL@@QEAAXXZ 0000000180017560 f i FiscalPrinter.obj
 0001:000165b0       ?FreeHeap@?$CTempBuffer@E$0BAA@VCCRTAllocator@ATL@@@ATL@@AEAAXXZ 00000001800175b0 f i FiscalPrinter.obj
 0001:000165f0       ?FreeHeap@?$CTempBuffer@_W$0BAA@VCCRTAllocator@ATL@@@ATL@@AEAAXXZ 00000001800175f0 f i FiscalPrinter.obj
 0001:00016630       ?FreeHeap@?$CTempBuffer@_W$0EAA@VCCRTAllocator@ATL@@@ATL@@AEAAXXZ 0000000180017630 f i FiscalPrinter.obj
 0001:00016670       ?Freeze@?$IViewObjectExImpl@VCOPOSFiscalPrinter@@@ATL@@UEAAJKJPEAXPEAK@Z 0000000180017670 f i FiscalPrinter.obj
 0001:00016700       ?GenerateError@CRegParser@ATL@@IEAAJI@Z 0000000180017700 f i FiscalPrinter.obj
 0001:00016720       ?GetAdvise@?$IViewObjectExImpl@VCOPOSFiscalPrinter@@@ATL@@UEAAJPEAK0PEAPEAUIAdviseSink@@@Z 0000000180017720 f i FiscalPrinter.obj
 0001:00016870       ?GetAmbientLocaleID@CComControlBase@ATL@@QEAAJAEAK@Z 0000000180017870 f i FiscalPrinter.obj
 0001:00016950       ?GetAmbientProperty@CComControlBase@ATL@@QEAAJJAEAUtagVARIANT@@@Z 0000000180017950 f i FiscalPrinter.obj
 0001:000169c0       ?GetAmbientUserMode@CComControlBase@ATL@@QEAAJAEAH@Z 00000001800179c0 f i FiscalPrinter.obj
 0001:00016ae0       ?GetAppId@?$CAtlModuleT@VCComModule@ATL@@@ATL@@SAPEB_WXZ 0000000180017ae0 f i FiscalPrinter.obj
 0001:00016af0       ?GetAt@CComDynamicUnkArray@ATL@@QEAAPEAUIUnknown@@H@Z 0000000180017af0 f i FiscalPrinter.obj
 0001:00016ba0       ?GetCanonicalFormatEtc@?$IDataObjectImpl@VCOPOSFiscalPrinter@@@ATL@@UEAAJPEAUtagFORMATETC@@0@Z 0000000180017ba0 f i FiscalPrinter.obj
 0001:00016c30       ?GetClassID@?$IPersistStorageImpl@VCOPOSFiscalPrinter@@@ATL@@UEAAJPEAU_GUID@@@Z 0000000180017c30 f i FiscalPrinter.obj
 0001:00016cd0       ?GetClassID@?$IPersistStreamInitImpl@VCOPOSFiscalPrinter@@@ATL@@UEAAJPEAU_GUID@@@Z 0000000180017cd0 f i FiscalPrinter.obj
 0001:00016d70       ?GetClassInfoExW@AtlModuleRegisterWndClassInfoParamW@ATL@@SAHPEAUHINSTANCE__@@PEB_WPEAUtagWNDCLASSEXW@@@Z 0000000180017d70 f i FiscalPrinter.obj
 0001:00016dc0       ?GetClassInfoW@?$IProvideClassInfo2Impl@$1?CLSID_OPOSFiscalPrinter@@3U_GUID@@B$1?DIID__IOPOSFiscalPrinterEvents@@3U2@B$1?LIBID_OposFiscalPrinter_CCO@@3U2@B$00$0A@VCComTypeInfoHolder@ATL@@@ATL@@UEAAJPEAPEAUITypeInfo@@@Z 0000000180017dc0 f i FiscalPrinter.obj
 0001:00016e00       ?GetClassObject@CComModule@ATL@@QEAAJAEBU_GUID@@0PEAPEAX@Z 0000000180017e00 f i FiscalPrinter.obj
 0001:00017070       ?GetClientSite@?$IOleObjectImpl@VCOPOSFiscalPrinter@@@ATL@@UEAAJPEAPEAUIOleClientSite@@@Z 0000000180018070 f i FiscalPrinter.obj
 0001:00017120       ?GetClipboardData@?$IOleObjectImpl@VCOPOSFiscalPrinter@@@ATL@@UEAAJKPEAPEAUIDataObject@@@Z 0000000180018120 f i FiscalPrinter.obj
 0001:000171b0       ?GetCodeAddress@CDynamicStdCallThunk2@ATL@@QEAAPEAXXZ 00000001800181b0 f i FiscalPrinter.obj
 0001:000171f0       ?GetColorSet@?$IViewObjectExImpl@VCOPOSFiscalPrinter@@@ATL@@UEAAJKJPEAXPEAUtagDVTARGETDEVICE@@PEAUHDC__@@PEAPEAUtagLOGPALETTE@@@Z 00000001800181f0 f i FiscalPrinter.obj
 0001:00017280       ?GetConnMap@COPOSFiscalPrinter@@SAPEBU_ATL_CONNMAP_ENTRY@ATL@@PEAH@Z 0000000180018280 f i FiscalPrinter.obj
 0001:000173e0       ?GetConnectionInterface@?$IConnectionPointImpl@VCOPOSFiscalPrinter@@$1?DIID__IOPOSFiscalPrinterEvents@@3U_GUID@@BVCComDynamicUnkArray@ATL@@@ATL@@UEAAJPEAU_GUID@@@Z 00000001800183e0 f i FiscalPrinter.obj
 0001:00017420       ?GetConnectionInterface@?$IConnectionPointImpl@VCOPOSFiscalPrinter@@$1?IID_IPropertyNotifySink@@3U_GUID@@BVCComDynamicUnkArray@ATL@@@ATL@@UEAAJPEAU_GUID@@@Z 0000000180018420 f i FiscalPrinter.obj
 0001:00017460       ?GetConnectionPointContainer@?$IConnectionPointImpl@VCOPOSFiscalPrinter@@$1?DIID__IOPOSFiscalPrinterEvents@@3U_GUID@@BVCComDynamicUnkArray@ATL@@@ATL@@UEAAJPEAPEAUIConnectionPointContainer@@@Z 0000000180018460 f i FiscalPrinter.obj
 0001:000174e0       ?GetConnectionPointContainer@?$IConnectionPointImpl@VCOPOSFiscalPrinter@@$1?IID_IPropertyNotifySink@@3U_GUID@@BVCComDynamicUnkArray@ATL@@@ATL@@UEAAJPEAPEAUIConnectionPointContainer@@@Z 00000001800184e0 f i FiscalPrinter.obj
 0001:00017560       ?GetContentExtent@?$IQuickActivateImpl@VCOPOSFiscalPrinter@@@ATL@@UEAAJPEAUtagSIZE@@@Z 0000000180018560 f i FiscalPrinter.obj
 0001:00017620       ?GetControlInfo@?$IOleControlImpl@VCOPOSFiscalPrinter@@@ATL@@UEAAJPEAUtagCONTROLINFO@@@Z 0000000180018620 f i FiscalPrinter.obj
 0001:000176b0       ?GetCookie@CComDynamicUnkArray@ATL@@QEAAKPEAPEAUIUnknown@@@Z 00000001800186b0 f i FiscalPrinter.obj
 0001:000177a0       ?GetData@?$IDataObjectImpl@VCOPOSFiscalPrinter@@@ATL@@UEAAJPEAUtagFORMATETC@@PEAUtagSTGMEDIUM@@@Z 00000001800187a0 f i FiscalPrinter.obj
 0001:00017860       ?GetData@CAtlSafeAllocBufferNode@?$CAtlSafeAllocBufferManager@VCCRTAllocator@ATL@@@_ATL_SAFE_ALLOCA_IMPL@ATL@@QEAAPEAXXZ 0000000180018860 f i FiscalPrinter.obj
 0001:00017880       ?GetDataHere@?$IDataObjectImpl@VCOPOSFiscalPrinter@@@ATL@@UEAAJPEAUtagFORMATETC@@PEAUtagSTGMEDIUM@@@Z 0000000180018880 f i FiscalPrinter.obj
 0001:00017910       ?GetDropTarget@?$IOleInPlaceObjectWindowlessImpl@VCOPOSFiscalPrinter@@@ATL@@UEAAJPEAPEAUIDropTarget@@@Z 0000000180018910 f i FiscalPrinter.obj
 0001:000179a0       ?GetExtent@?$IOleObjectImpl@VCOPOSFiscalPrinter@@@ATL@@UEAAJKPEAUtagSIZE@@@Z 00000001800189a0 f i FiscalPrinter.obj
 0001:00017a70       ?GetExtent@?$IViewObjectExImpl@VCOPOSFiscalPrinter@@@ATL@@UEAAJKJPEAUtagDVTARGETDEVICE@@PEAUtagSIZE@@@Z 0000000180018a70 f i FiscalPrinter.obj
 0001:00017b80       ?GetGITPtr@CAtlModule@ATL@@UEAAJPEAPEAUIGlobalInterfaceTable@@@Z 0000000180018b80 f i FiscalPrinter.obj
 0001:00017cc0       ?GetGUID@?$IProvideClassInfo2Impl@$1?CLSID_OPOSFiscalPrinter@@3U_GUID@@B$1?DIID__IOPOSFiscalPrinterEvents@@3U2@B$1?LIBID_OposFiscalPrinter_CCO@@3U2@B$00$0A@VCComTypeInfoHolder@ATL@@@ATL@@UEAAJKPEAU_GUID@@@Z 0000000180018cc0 f i FiscalPrinter.obj
 0001:00017d40       ?GetIDsOfNames@?$IDispatchImpl@UIOPOSFiscalPrinter@@$1?IID_IOPOSFiscalPrinter@@3U_GUID@@B$1?LIBID_OposFiscalPrinter_CCO@@3U3@B$00$0A@VCComTypeInfoHolder@ATL@@@ATL@@UEAAJAEBU_GUID@@PEAPEA_WIKPEAJ@Z 0000000180018d40 f i FiscalPrinter.obj
 0001:00017da0       ?GetIDsOfNames@CComTypeInfoHolder@ATL@@QEAAJAEBU_GUID@@PEAPEA_WIKPEAJ@Z 0000000180018da0 f i FiscalPrinter.obj
 0001:00017fc0       ?GetInterfaceSafetyOptions@?$IObjectSafetyImpl@VCOPOSFiscalPrinter@@$02@ATL@@UEAAJAEBU_GUID@@PEAK1@Z 0000000180018fc0 f i FiscalPrinter.obj
 0001:00018160       ?GetKeyAt@?$CSimpleMap@PEA_WPEA_WVCExpansionVectorEqualHelper@ATL@@@ATL@@QEBAAEAPEA_WH@Z 0000000180019160 f i FiscalPrinter.obj
 0001:00018210       ?GetLockCount@CAtlModule@ATL@@UEAAJXZ 0000000180019210 f i FiscalPrinter.obj
 0001:00018220       ?GetMiscStatus@?$IOleObjectImpl@VCOPOSFiscalPrinter@@@ATL@@UEAAJKPEAK@Z 0000000180019220 f i FiscalPrinter.obj
 0001:000182b0       ?GetMoniker@?$IOleObjectImpl@VCOPOSFiscalPrinter@@@ATL@@UEAAJKKPEAPEAUIMoniker@@@Z 00000001800192b0 f i FiscalPrinter.obj
 0001:00018340       ?GetNaturalExtent@?$IViewObjectExImpl@VCOPOSFiscalPrinter@@@ATL@@UEAAJKJPEAUtagDVTARGETDEVICE@@PEAUHDC__@@PEAUtagExtentInfo@@PEAUtagSIZE@@@Z 0000000180019340 f i FiscalPrinter.obj
 0001:000184d0       ?GetObjectCLSID@?$CComCoClass@VCOPOSFiscalPrinter@@$1?CLSID_OPOSFiscalPrinter@@3U_GUID@@B@ATL@@SAAEBU_GUID@@XZ 00000001800194d0 f i FiscalPrinter.obj
 0001:000184e0       ?GetPages@?$ISpecifyPropertyPagesImpl@VCOPOSFiscalPrinter@@@ATL@@UEAAJPEAUtagCAUUID@@@Z 00000001800194e0 f i FiscalPrinter.obj
 0001:00018570       ?GetPagesHelper@?$ISpecifyPropertyPagesImpl@VCOPOSFiscalPrinter@@@ATL@@IEAAJPEAUtagCAUUID@@PEBUATL_PROPMAP_ENTRY@2@@Z 0000000180019570 f i FiscalPrinter.obj
 0001:000187e0       ?GetProperty@?$CComPtr@UIDispatch@@@ATL@@QEAAJJPEAUtagVARIANT@@@Z 00000001800197e0 f i FiscalPrinter.obj
 0001:00018830       ?GetProperty@?$CComPtr@UIDispatch@@@ATL@@SAJPEAUIDispatch@@JPEAUtagVARIANT@@@Z 0000000180019830 f i FiscalPrinter.obj
 0001:00018a00       ?GetPropertyMap@COPOSFiscalPrinter@@SAPEBUATL_PROPMAP_ENTRY@ATL@@XZ 0000000180019a00 f i FiscalPrinter.obj
 0001:00018a10       ?GetRect@?$IViewObjectExImpl@VCOPOSFiscalPrinter@@@ATL@@UEAAJKPEAU_RECTL@@@Z 0000000180019a10 f i FiscalPrinter.obj
 0001:00018aa0       ?GetSize@?$CSimpleMap@PEA_WPEA_WVCExpansionVectorEqualHelper@ATL@@@ATL@@QEBAHXZ 0000000180019aa0 f i FiscalPrinter.obj
 0001:00018ab0       ?GetSize@CComDynamicUnkArray@ATL@@QEBAHXZ 0000000180019ab0 f i FiscalPrinter.obj
 0001:00018ac0       ?GetSizeMax@?$IPersistStreamInitImpl@VCOPOSFiscalPrinter@@@ATL@@UEAAJPEAT_ULARGE_INTEGER@@@Z 0000000180019ac0 f i FiscalPrinter.obj
 0001:00019250       ?GetSizeMax@CComVariant@ATL@@QEBAJPEAT_ULARGE_INTEGER@@@Z 000000018001a250 f i FiscalPrinter.obj
 0001:00019680       ?GetStreamSize@CComBSTR@ATL@@SAKPEA_W@Z 000000018001a680 f i FiscalPrinter.obj
 0001:000196e0       ?GetTI@CComTypeInfoHolder@ATL@@QEAAJK@Z 000000018001a6e0 f i FiscalPrinter.obj
 0001:00019fb0       ?GetTI@CComTypeInfoHolder@ATL@@QEAAJKPEAPEAUITypeInfo@@@Z 000000018001afb0 f i FiscalPrinter.obj
 0001:0001a0a0       ?GetTypeInfo@?$IDispatchImpl@UIOPOSFiscalPrinter@@$1?IID_IOPOSFiscalPrinter@@3U_GUID@@B$1?LIBID_OposFiscalPrinter_CCO@@3U3@B$00$0A@VCComTypeInfoHolder@ATL@@@ATL@@UEAAJIKPEAPEAUITypeInfo@@@Z 000000018001b0a0 f i FiscalPrinter.obj
 0001:0001a0f0       ?GetTypeInfo@CComTypeInfoHolder@ATL@@QEAAJIKPEAPEAUITypeInfo@@@Z 000000018001b0f0 f i FiscalPrinter.obj
 0001:0001a150       ?GetTypeInfoCount@?$IDispatchImpl@UIOPOSFiscalPrinter@@$1?IID_IOPOSFiscalPrinter@@3U_GUID@@B$1?LIBID_OposFiscalPrinter_CCO@@3U3@B$00$0A@VCComTypeInfoHolder@ATL@@@ATL@@UEAAJPEAI@Z 000000018001b150 f i FiscalPrinter.obj
 0001:0001a180       ?GetUnknown@CComDynamicUnkArray@ATL@@QEAAPEAUIUnknown@@K@Z 000000018001b180 f i FiscalPrinter.obj
 0001:0001a230       ?GetUnknown@COPOSFiscalPrinter@@QEAAPEAUIUnknown@@XZ 000000018001b230 f i FiscalPrinter.obj
 0001:0001a260       ?GetUserClassID@?$IOleObjectImpl@VCOPOSFiscalPrinter@@@ATL@@UEAAJPEAU_GUID@@@Z 000000018001b260 f i FiscalPrinter.obj
 0001:0001a340       ?GetUserType@?$IOleObjectImpl@VCOPOSFiscalPrinter@@@ATL@@UEAAJKPEAPEA_W@Z 000000018001b340 f i FiscalPrinter.obj
 0001:0001a3d0       ?GetValueAt@?$CSimpleMap@PEA_WPEA_WVCExpansionVectorEqualHelper@ATL@@@ATL@@QEBAAEAPEA_WH@Z 000000018001b3d0 f i FiscalPrinter.obj
 0001:0001a480       ?GetViewStatus@?$IViewObjectExImpl@VCOPOSFiscalPrinter@@@ATL@@UEAAJPEAK@Z 000000018001b480 f i FiscalPrinter.obj
 0001:0001a580       ?GetWNDPROC@CWndProcThunk@ATL@@QEAAP6A_JPEAUHWND__@@I_K_J@ZXZ 000000018001b580 f i FiscalPrinter.obj
 0001:0001a5c0       ?GetWindow@?$IOleInPlaceActiveObjectImpl@VCOPOSFiscalPrinter@@@ATL@@UEAAJPEAPEAUHWND__@@@Z 000000018001b5c0 f i FiscalPrinter.obj
 0001:0001a6c0       ?GetWindow@?$IOleInPlaceObjectWindowlessImpl@VCOPOSFiscalPrinter@@@ATL@@UEAAJPEAPEAUHWND__@@@Z 000000018001b6c0 f i FiscalPrinter.obj
 0001:0001a7c0       ?GetWindowProc@?$CWindowImplBaseT@VCWindow@ATL@@V?$CWinTraits@$0FGAAAAAA@$0A@@2@@ATL@@UEAAP6A_JPEAUHWND__@@I_K_J@ZXZ 000000018001b7c0 f i FiscalPrinter.obj
 0001:0001a7d0       ?GetWndCaption@?$CWindowImpl@VCOPOSFiscalPrinter@@VCWindow@ATL@@V?$CWinTraits@$0FGAAAAAA@$0A@@3@@ATL@@SAPEB_WXZ 000000018001b7d0 f i FiscalPrinter.obj
 0001:0001a7e0       ?GetWndClassInfo@?$CWindowImpl@VCOPOSFiscalPrinter@@VCWindow@ATL@@V?$CWinTraits@$0FGAAAAAA@$0A@@3@@ATL@@SAAEAU_ATL_WNDCLASSINFOW@2@XZ 000000018001b7e0 f i FiscalPrinter.obj
 0001:0001a7f0       ?GetWndClassName@CWindow@ATL@@SAPEB_WXZ 000000018001b7f0 f i FiscalPrinter.obj
 0001:0001a800       ?GetWndExStyle@?$CWinTraits@$0FGAAAAAA@$0A@@ATL@@SAKK@Z 000000018001b800 f i FiscalPrinter.obj
 0001:0001a840       ?GetWndExStyle@?$CWindowImplBaseT@VCWindow@ATL@@V?$CWinTraits@$0FGAAAAAA@$0A@@2@@ATL@@SAKK@Z 000000018001b840 f i FiscalPrinter.obj
 0001:0001a870       ?GetWndStyle@?$CWinTraits@$0FGAAAAAA@$0A@@ATL@@SAKK@Z 000000018001b870 f i FiscalPrinter.obj
 0001:0001a8b0       ?GetWndStyle@?$CWindowImplBaseT@VCWindow@ATL@@V?$CWinTraits@$0FGAAAAAA@$0A@@2@@ATL@@SAKK@Z 000000018001b8b0 f i FiscalPrinter.obj
 0001:0001a8e0       ?GetZoomInfo@CComControlBase@ATL@@QEAAXAEAUATL_DRAWINFO@@@Z 000000018001b8e0 f i FiscalPrinter.obj
 0001:0001aa90       ?HKeyFromString@CRegParser@ATL@@KAPEAUHKEY__@@PEA_W@Z 000000018001ba90 f i FiscalPrinter.obj
 0001:0001ab20       ?HandsOffStorage@?$IPersistStorageImpl@VCOPOSFiscalPrinter@@@ATL@@UEAAJXZ 000000018001bb20 f i FiscalPrinter.obj
 0001:0001ab90       ?HasSubKeys@CRegParser@ATL@@IEAAHPEAUHKEY__@@@Z 000000018001bb90 f i FiscalPrinter.obj
 0001:0001ad00       ?IDataObject_GetData@CComControlBase@ATL@@QEAAJPEAUtagFORMATETC@@PEAUtagSTGMEDIUM@@@Z 000000018001bd00 f i FiscalPrinter.obj
 0001:0001b1b0       ?IOleInPlaceObject_InPlaceDeactivate@CComControlBase@ATL@@QEAAJXZ 000000018001c1b0 f i FiscalPrinter.obj
 0001:0001b420       ?IOleInPlaceObject_SetObjectRects@CComControlBase@ATL@@QEAAJPEBUtagRECT@@0@Z 000000018001c420 f i FiscalPrinter.obj
 0001:0001b600       ?IOleInPlaceObject_UIDeactivate@CComControlBase@ATL@@QEAAJXZ 000000018001c600 f i FiscalPrinter.obj
 0001:0001b870       ?IOleObject_Advise@CComControlBase@ATL@@QEAAJPEAUIAdviseSink@@PEAK@Z 000000018001c870 f i FiscalPrinter.obj
 0001:0001b920       ?IOleObject_Close@CComControlBase@ATL@@QEAAJK@Z 000000018001c920 f i FiscalPrinter.obj
 0001:0001bc90       ?IOleObject_GetClientSite@CComControlBase@ATL@@QEAAJPEAPEAUIOleClientSite@@@Z 000000018001cc90 f i FiscalPrinter.obj
 0001:0001bd60       ?IOleObject_SetClientSite@CComControlBase@ATL@@QEAAJPEAUIOleClientSite@@@Z 000000018001cd60 f i FiscalPrinter.obj
 0001:0001be70       ?IOleObject_SetExtent@CComControlBase@ATL@@QEAAJKPEAUtagSIZE@@@Z 000000018001ce70 f i FiscalPrinter.obj
 0001:0001bfe0       ?IPSI_GetIPersistStreamInit@?$IPersistStorageImpl@VCOPOSFiscalPrinter@@@ATL@@AEAAPEAUIPersistStreamInit@@XZ 000000018001cfe0 f i FiscalPrinter.obj
 0001:0001c0a0       ?IPersistStreamInit_Load@?$IPersistStreamInitImpl@VCOPOSFiscalPrinter@@@ATL@@QEAAJPEAUIStream@@PEBUATL_PROPMAP_ENTRY@2@@Z 000000018001d0a0 f i FiscalPrinter.obj
 0001:0001c140       ?IPersistStreamInit_Save@?$IPersistStreamInitImpl@VCOPOSFiscalPrinter@@@ATL@@QEAAJPEAUIStream@@HPEBUATL_PROPMAP_ENTRY@2@@Z 000000018001d140 f i FiscalPrinter.obj
 0001:0001c200       ?IQuickActivate_QuickActivate@CComControlBase@ATL@@QEAAJPEAUtagQACONTAINER@@PEAUtagQACONTROL@@@Z 000000018001d200 f i FiscalPrinter.obj
 0001:0001ca40       ?IViewObject_Draw@CComControlBase@ATL@@QEAAJKJPEAXPEAUtagDVTARGETDEVICE@@PEAUHDC__@@2PEBU_RECTL@@3@Z 000000018001da40 f i FiscalPrinter.obj
 0001:0001ce90       ?InPlaceActivate@CComControlBase@ATL@@QEAAJJPEBUtagRECT@@@Z 000000018001de90 f i FiscalPrinter.obj
 0001:0001da30       ?InPlaceDeactivate@?$IOleInPlaceObjectWindowlessImpl@VCOPOSFiscalPrinter@@@ATL@@UEAAJXZ 000000018001ea30 f i FiscalPrinter.obj
 0001:0001dae0       ?Increment@CComMultiThreadModel@ATL@@SAKPEAJ@Z 000000018001eae0 f i FiscalPrinter.obj
 0001:0001db00       ?Increment@CComSingleThreadModel@ATL@@SAKPEAJ@Z 000000018001eb00 f i FiscalPrinter.obj
 0001:0001db20       ?Init@?$CComEnumImpl@UIEnumConnectionPoints@@$1?_GUID_b196b285_bab4_101a_b69c_00aa00341d07@@3U__s_GUID@@BPEAUIConnectionPoint@@V?$_CopyInterface@UIConnectionPoint@@@ATL@@@ATL@@QEAAJPEAPEAUIConnectionPoint@@0PEAUIUnknown@@W4CComEnumFlags@2@@Z 000000018001eb20 f i FiscalPrinter.obj
 0001:0001de10       ?Init@?$CComEnumImpl@UIEnumConnections@@$1?_GUID_b196b287_bab4_101a_b69c_00aa00341d07@@3U__s_GUID@@BUtagCONNECTDATA@@V?$_Copy@UtagCONNECTDATA@@@ATL@@@ATL@@QEAAJPEAUtagCONNECTDATA@@0PEAUIUnknown@@W4CComEnumFlags@2@@Z 000000018001ee10 f i FiscalPrinter.obj
 0001:0001e100       ?Init@CComFakeCriticalSection@ATL@@QEAAJXZ 000000018001f100 f i FiscalPrinter.obj
 0001:0001e110       ?Init@CComModule@ATL@@QEAAJPEAU_ATL_OBJMAP_ENTRY30@2@PEAUHINSTANCE__@@PEBU_GUID@@@Z 000000018001f110 f i FiscalPrinter.obj
 0001:0001e200       ?Init@CComSafeDeleteCriticalSection@ATL@@QEAAJXZ 000000018001f200 f i FiscalPrinter.obj
 0001:0001e290       ?Init@CDynamicStdCallThunk2@ATL@@QEAAH_KPEAX@Z 000000018001f290 f i FiscalPrinter.obj
 0001:0001e310       ?Init@CWndProcThunk@ATL@@QEAAHP6A_JPEAUHWND__@@I_K_J@ZPEAX@Z 000000018001f310 f i FiscalPrinter.obj
 0001:0001e360       ?InitFromData@?$IOleObjectImpl@VCOPOSFiscalPrinter@@@ATL@@UEAAJPEAUIDataObject@@HK@Z 000000018001f360 f i FiscalPrinter.obj
 0001:0001e3f0       ?InitLibId@?$CAtlModuleT@VCComModule@ATL@@@ATL@@SAXXZ 000000018001f3f0 f i FiscalPrinter.obj
 0001:0001e400       ?InitNew@?$IPersistStorageImpl@VCOPOSFiscalPrinter@@@ATL@@UEAAJPEAUIStorage@@@Z 000000018001f400 f i FiscalPrinter.obj
 0001:0001e4f0       ?InitNew@?$IPersistStreamInitImpl@VCOPOSFiscalPrinter@@@ATL@@UEAAJXZ 000000018001f4f0 f i FiscalPrinter.obj
 0001:0001e5a0       ?InlineIsEqualUnknown@ATL@@YAHAEBU_GUID@@@Z 000000018001f5a0 f i FiscalPrinter.obj
 0001:0001e630       ?InternalAddRef@?$CComObjectRootEx@VCComMultiThreadModel@ATL@@@ATL@@QEAAKXZ 000000018001f630 f i FiscalPrinter.obj
 0001:0001e6b0       ?InternalAddRef@?$CComObjectRootEx@VCComSingleThreadModel@ATL@@@ATL@@QEAAKXZ 000000018001f6b0 f i FiscalPrinter.obj
 0001:0001e730       ?InternalFinalConstructAddRef@CComObjectRootBase@ATL@@QEAAXXZ 000000018001f730 f i FiscalPrinter.obj
 0001:0001e740       ?InternalFinalConstructAddRef@COPOSFiscalPrinter@@QEAAXXZ 000000018001f740 f i FiscalPrinter.obj
 0001:0001e780       ?InternalFinalConstructRelease@CComObjectRootBase@ATL@@QEAAXXZ 000000018001f780 f i FiscalPrinter.obj
 0001:0001e7f0       ?InternalFinalConstructRelease@COPOSFiscalPrinter@@QEAAXXZ 000000018001f7f0 f i FiscalPrinter.obj
 0001:0001e830       ?InternalGetSite@CComControlBase@ATL@@QEAAJAEBU_GUID@@PEAPEAX@Z 000000018001f830 f i FiscalPrinter.obj
 0001:0001e910       ?InternalQueryInterface@CComObjectRootBase@ATL@@SAJPEAXPEBU_ATL_INTMAP_ENTRY@2@AEBU_GUID@@PEAPEAX@Z 000000018001f910 f i FiscalPrinter.obj
 0001:0001ea30       ?InternalRelease@?$CComObjectRootEx@VCComMultiThreadModel@ATL@@@ATL@@QEAAKXZ 000000018001fa30 f i FiscalPrinter.obj
 0001:0001eab0       ?InternalRelease@?$CComObjectRootEx@VCComSingleThreadModel@ATL@@@ATL@@QEAAKXZ 000000018001fab0 f i FiscalPrinter.obj
 0001:0001eb30       ?InternalSetAtIndex@?$CSimpleArray@GV?$CSimpleArrayEqualHelper@G@ATL@@@ATL@@QEAAXHAEBG@Z 000000018001fb30 f i FiscalPrinter.obj
 0001:0001ebb0       ?InternalSetAtIndex@?$CSimpleMap@PEA_WPEA_WVCExpansionVectorEqualHelper@ATL@@@ATL@@QEAAXHAEBQEA_W0@Z 000000018001fbb0 f i FiscalPrinter.obj
 0001:0001ec80       ?Invoke@?$IDispatchImpl@UIOPOSFiscalPrinter@@$1?IID_IOPOSFiscalPrinter@@3U_GUID@@B$1?LIBID_OposFiscalPrinter_CCO@@3U3@B$00$0A@VCComTypeInfoHolder@ATL@@@ATL@@UEAAJJAEBU_GUID@@KGPEAUtagDISPPARAMS@@PEAUtagVARIANT@@PEAUtagEXCEPINFO@@PEAI@Z 000000018001fc80 f i FiscalPrinter.obj
 0001:0001ed20       ?Invoke@CComTypeInfoHolder@ATL@@QEAAJPEAUIDispatch@@JAEBU_GUID@@KGPEAUtagDISPPARAMS@@PEAUtagVARIANT@@PEAUtagEXCEPINFO@@PEAI@Z 000000018001fd20 f i FiscalPrinter.obj
 0001:0001ede0       ?IsDirty@?$IPersistStorageImpl@VCOPOSFiscalPrinter@@@ATL@@UEAAJXZ 000000018001fde0 f i FiscalPrinter.obj
 0001:0001eed0       ?IsDirty@?$IPersistStreamInitImpl@VCOPOSFiscalPrinter@@@ATL@@UEAAJXZ 000000018001fed0 f i FiscalPrinter.obj
 0001:0001ef90       ?IsEqualKey@CExpansionVectorEqualHelper@ATL@@SA_NQEA_W0@Z 000000018001ff90 f i FiscalPrinter.obj
 0001:0001efe0       ?IsEqualObject@?$CComPtrBase@UIOleClientSite@@@ATL@@QEAA_NPEAUIUnknown@@@Z 000000018001ffe0 f i FiscalPrinter.obj
 0001:0001f130       ?IsEqualObject@?$CComPtrBase@UITypeInfo@@@ATL@@QEAA_NPEAUIUnknown@@@Z 0000000180020130 f i FiscalPrinter.obj
 0001:0001f280       ?IsSpace@CRegParser@ATL@@IEAAH_W@Z 0000000180020280 f i FiscalPrinter.obj
 0001:0001f2e0       ?IsUpToDate@?$IOleObjectImpl@VCOPOSFiscalPrinter@@@ATL@@UEAAJXZ 00000001800202e0 f i FiscalPrinter.obj
 0001:0001f350       ?Length@CComBSTR@ATL@@QEBAIXZ 0000000180020350 f i FiscalPrinter.obj
 0001:0001f390       ?Load@?$IPersistStorageImpl@VCOPOSFiscalPrinter@@@ATL@@UEAAJPEAUIStorage@@@Z 0000000180020390 f i FiscalPrinter.obj
 0001:0001f540       ?Load@?$IPersistStreamInitImpl@VCOPOSFiscalPrinter@@@ATL@@UEAAJPEAUIStream@@@Z 0000000180020540 f i FiscalPrinter.obj
 0001:0001f600       ?LoadCursorW@AtlModuleRegisterWndClassInfoParamW@ATL@@SAPEAUHICON__@@PEAUHINSTANCE__@@PEB_W@Z 0000000180020600 f i FiscalPrinter.obj
 0001:0001f640       ?LoadNameCache@CComTypeInfoHolder@ATL@@QEAAJPEAUITypeInfo@@@Z 0000000180020640 f i FiscalPrinter.obj
 0001:0001f980       ?Lock@?$CComCritSecLock@VCComCriticalSection@ATL@@@ATL@@QEAAJXZ 0000000180020980 f i FiscalPrinter.obj
 0001:0001fa70       ?Lock@?$CComObjectRootEx@VCComSingleThreadModel@ATL@@@ATL@@QEAAXXZ 0000000180020a70 f i FiscalPrinter.obj
 0001:0001fa80       ?Lock@CAtlModule@ATL@@UEAAJXZ 0000000180020a80 f i FiscalPrinter.obj
 0001:0001fac0       ?Lock@CComCriticalSection@ATL@@QEAAJXZ 0000000180020ac0 f i FiscalPrinter.obj
 0001:0001fb00       ?Lock@CComFakeCriticalSection@ATL@@QEAAJXZ 0000000180020b00 f i FiscalPrinter.obj
 0001:0001fb10       ?LockServer@CComClassFactory@ATL@@UEAAJH@Z 0000000180020b10 f i FiscalPrinter.obj
 0001:0001fb70       ?Lookup@?$CSimpleMap@PEA_WPEA_WVCExpansionVectorEqualHelper@ATL@@@ATL@@QEBAPEA_WAEBQEA_W@Z 0000000180020b70 f i FiscalPrinter.obj
 0001:0001fbd0       ?Next@?$CComEnumImpl@UIEnumConnectionPoints@@$1?_GUID_b196b285_bab4_101a_b69c_00aa00341d07@@3U__s_GUID@@BPEAUIConnectionPoint@@V?$_CopyInterface@UIConnectionPoint@@@ATL@@@ATL@@UEAAJKPEAPEAUIConnectionPoint@@PEAK@Z 0000000180020bd0 f i FiscalPrinter.obj
 0001:0001fd90       ?Next@?$CComEnumImpl@UIEnumConnections@@$1?_GUID_b196b287_bab4_101a_b69c_00aa00341d07@@3U__s_GUID@@BUtagCONNECTDATA@@V?$_Copy@UtagCONNECTDATA@@@ATL@@@ATL@@UEAAJKPEAUtagCONNECTDATA@@PEAK@Z 0000000180020d90 f i FiscalPrinter.obj
 0001:0001ff50       ?NextToken@CRegParser@ATL@@IEAAJPEA_W@Z 0000000180020f50 f i FiscalPrinter.obj
 0001:000202e0       ?OLE2CT_EX@@YAPEB_WPEB_WI@Z 00000001800212e0 f i FiscalPrinter.obj
 0001:00020300       ?OLE2CT_EX_DEF@@YAPEB_WPEB_W@Z 0000000180021300 f i FiscalPrinter.obj
 0001:00020310       ?OLE2T_EX@@YAPEA_WPEA_WI@Z 0000000180021310 f i FiscalPrinter.obj
 0001:00020330       ?OnAmbientPropertyChange@?$IOleControlImpl@VCOPOSFiscalPrinter@@@ATL@@UEAAJJ@Z 0000000180021330 f i FiscalPrinter.obj
 0001:000203f0       ?OnDocWindowActivate@?$IOleInPlaceActiveObjectImpl@VCOPOSFiscalPrinter@@@ATL@@UEAAJH@Z 00000001800213f0 f i FiscalPrinter.obj
 0001:000204b0       ?OnDrawAdvanced@CComControlBase@ATL@@UEAAJAEAUATL_DRAWINFO@@@Z 00000001800214b0 f i FiscalPrinter.obj
 0001:00020700       ?OnFinalMessage@?$CWindowImplBaseT@VCWindow@ATL@@V?$CWinTraits@$0FGAAAAAA@$0A@@2@@ATL@@UEAAXPEAUHWND__@@@Z 0000000180021700 f i FiscalPrinter.obj
 0001:00020710       ?OnFrameWindowActivate@?$IOleInPlaceActiveObjectImpl@VCOPOSFiscalPrinter@@@ATL@@UEAAJH@Z 0000000180021710 f i FiscalPrinter.obj
 0001:00020780       ?OnKillFocus@CComControlBase@ATL@@QEAA_JI_K_JAEAH@Z 0000000180021780 f i FiscalPrinter.obj
 0001:00020870       ?OnMnemonic@?$IOleControlImpl@VCOPOSFiscalPrinter@@@ATL@@UEAAJPEAUtagMSG@@@Z 0000000180021870 f i FiscalPrinter.obj
 0001:00020900       ?OnMouseActivate@CComControlBase@ATL@@QEAA_JI_K_JAEAH@Z 0000000180021900 f i FiscalPrinter.obj
 0001:00020aa0       ?OnPaint@CComControlBase@ATL@@QEAA_JI_K_JAEAH@Z 0000000180021aa0 f i FiscalPrinter.obj
 0001:00020c30       ?OnPostVerbDiscardUndo@?$IOleObjectImpl@VCOPOSFiscalPrinter@@@ATL@@QEAAJXZ 0000000180021c30 f i FiscalPrinter.obj
 0001:00020c40       ?OnPostVerbHide@?$IOleObjectImpl@VCOPOSFiscalPrinter@@@ATL@@QEAAJXZ 0000000180021c40 f i FiscalPrinter.obj
 0001:00020c50       ?OnPostVerbInPlaceActivate@?$IOleObjectImpl@VCOPOSFiscalPrinter@@@ATL@@QEAAJXZ 0000000180021c50 f i FiscalPrinter.obj
 0001:00020c60       ?OnPostVerbOpen@?$IOleObjectImpl@VCOPOSFiscalPrinter@@@ATL@@QEAAJXZ 0000000180021c60 f i FiscalPrinter.obj
 0001:00020c70       ?OnPostVerbShow@?$IOleObjectImpl@VCOPOSFiscalPrinter@@@ATL@@QEAAJXZ 0000000180021c70 f i FiscalPrinter.obj
 0001:00020c80       ?OnPostVerbUIActivate@?$IOleObjectImpl@VCOPOSFiscalPrinter@@@ATL@@QEAAJXZ 0000000180021c80 f i FiscalPrinter.obj
 0001:00020c90       ?OnPreVerbDiscardUndo@?$IOleObjectImpl@VCOPOSFiscalPrinter@@@ATL@@QEAAJXZ 0000000180021c90 f i FiscalPrinter.obj
 0001:00020ca0       ?OnPreVerbHide@?$IOleObjectImpl@VCOPOSFiscalPrinter@@@ATL@@QEAAJXZ 0000000180021ca0 f i FiscalPrinter.obj
 0001:00020cb0       ?OnPreVerbInPlaceActivate@?$IOleObjectImpl@VCOPOSFiscalPrinter@@@ATL@@QEAAJXZ 0000000180021cb0 f i FiscalPrinter.obj
 0001:00020cc0       ?OnPreVerbOpen@?$IOleObjectImpl@VCOPOSFiscalPrinter@@@ATL@@QEAAJXZ 0000000180021cc0 f i FiscalPrinter.obj
 0001:00020cd0       ?OnPreVerbShow@?$IOleObjectImpl@VCOPOSFiscalPrinter@@@ATL@@QEAAJXZ 0000000180021cd0 f i FiscalPrinter.obj
 0001:00020ce0       ?OnPreVerbUIActivate@?$IOleObjectImpl@VCOPOSFiscalPrinter@@@ATL@@QEAAJXZ 0000000180021ce0 f i FiscalPrinter.obj
 0001:00020cf0       ?OnSetFocus@CComControlBase@ATL@@QEAA_JI_K_JAEAH@Z 0000000180021cf0 f i FiscalPrinter.obj
 0001:00020ef0       ?OnWindowMessage@?$IOleInPlaceObjectWindowlessImpl@VCOPOSFiscalPrinter@@@ATL@@UEAAJI_K_JPEA_J@Z 0000000180021ef0 f i FiscalPrinter.obj
 0001:00021110       ?Open@CRegKey@ATL@@QEAAJPEAUHKEY__@@PEB_WK@Z 0000000180022110 f i FiscalPrinter.obj
 0001:00021290       ?OuterAddRef@CComObjectRootBase@ATL@@QEAAKXZ 0000000180022290 f i FiscalPrinter.obj
 0001:000212d0       ?OuterQueryInterface@CComObjectRootBase@ATL@@QEAAJAEBU_GUID@@PEAPEAX@Z 00000001800222d0 f i FiscalPrinter.obj
 0001:00021320       ?OuterRelease@CComObjectRootBase@ATL@@QEAAKXZ 0000000180022320 f i FiscalPrinter.obj
 0001:00021360       ?PreProcessBuffer@CRegParser@ATL@@QEAAJPEA_WPEAPEA_W@Z 0000000180022360 f i FiscalPrinter.obj
 0001:00021a40       ?PreTranslateAccelerator@CComControlBase@ATL@@QEAAHPEAUtagMSG@@AEAJ@Z 0000000180022a40 f i FiscalPrinter.obj
 0001:00021a60       ?ProcessWindowMessage@?$CComControl@VCOPOSFiscalPrinter@@V?$CWindowImpl@VCOPOSFiscalPrinter@@VCWindow@ATL@@V?$CWinTraits@$0FGAAAAAA@$0A@@3@@ATL@@@ATL@@UEAAHPEAUHWND__@@I_K_JAEA_JK@Z 0000000180022a60 f i FiscalPrinter.obj
 0001:00021ce0       ?ProcessWindowMessage@COPOSFiscalPrinter@@UEAAHPEAUHWND__@@I_K_JAEA_JK@Z 0000000180022ce0 f i FiscalPrinter.obj
 0001:00021e60       ?PutProperty@?$CComPtr@UIDispatch@@@ATL@@QEAAJJPEAUtagVARIANT@@@Z 0000000180022e60 f i FiscalPrinter.obj
 0001:00021eb0       ?PutProperty@?$CComPtr@UIDispatch@@@ATL@@SAJPEAUIDispatch@@JPEAUtagVARIANT@@@Z 0000000180022eb0 f i FiscalPrinter.obj
 0001:00022150       ?QueryGetData@?$IDataObjectImpl@VCOPOSFiscalPrinter@@@ATL@@UEAAJPEAUtagFORMATETC@@@Z 0000000180023150 f i FiscalPrinter.obj
 0001:000221e0       ?QueryHitPoint@?$IViewObjectExImpl@VCOPOSFiscalPrinter@@@ATL@@UEAAJKPEBUtagRECT@@UtagPOINT@@JPEAK@Z 00000001800231e0 f i FiscalPrinter.obj
 0001:00022350       ?QueryHitRect@?$IViewObjectExImpl@VCOPOSFiscalPrinter@@@ATL@@UEAAJKPEBUtagRECT@@0JPEAK@Z 0000000180023350 f i FiscalPrinter.obj
 0001:00022520       ?QueryInterface@?$CComAggObject@VCOPOSFiscalPrinter@@@ATL@@UEAAJAEBU_GUID@@PEAPEAX@Z 0000000180023520 f i FiscalPrinter.obj
 0001:00022610       ?QueryInterface@?$CComContainedObject@VCOPOSFiscalPrinter@@@ATL@@UEAAJAEBU_GUID@@PEAPEAX@Z 0000000180023610 f i FiscalPrinter.obj
 0001:0002265c       ?QueryInterface@?$CComContainedObject@VCOPOSFiscalPrinter@@@ATL@@WBAA@EAAJAEBU_GUID@@PEAPEAX@Z 000000018002365c f i FiscalPrinter.obj
 0001:00022668       ?QueryInterface@?$CComContainedObject@VCOPOSFiscalPrinter@@@ATL@@WBAI@EAAJAEBU_GUID@@PEAPEAX@Z 0000000180023668 f i FiscalPrinter.obj
 0001:00022674       ?QueryInterface@?$CComContainedObject@VCOPOSFiscalPrinter@@@ATL@@WBBA@EAAJAEBU_GUID@@PEAPEAX@Z 0000000180023674 f i FiscalPrinter.obj
 0001:00022680       ?QueryInterface@?$CComContainedObject@VCOPOSFiscalPrinter@@@ATL@@WBBI@EAAJAEBU_GUID@@PEAPEAX@Z 0000000180023680 f i FiscalPrinter.obj
 0001:0002268c       ?QueryInterface@?$CComContainedObject@VCOPOSFiscalPrinter@@@ATL@@WLI@EAAJAEBU_GUID@@PEAPEAX@Z 000000018002368c f i FiscalPrinter.obj
 0001:00022698       ?QueryInterface@?$CComContainedObject@VCOPOSFiscalPrinter@@@ATL@@WMA@EAAJAEBU_GUID@@PEAPEAX@Z 0000000180023698 f i FiscalPrinter.obj
 0001:000226a4       ?QueryInterface@?$CComContainedObject@VCOPOSFiscalPrinter@@@ATL@@WMI@EAAJAEBU_GUID@@PEAPEAX@Z 00000001800236a4 f i FiscalPrinter.obj
 0001:000226b0       ?QueryInterface@?$CComContainedObject@VCOPOSFiscalPrinter@@@ATL@@WNA@EAAJAEBU_GUID@@PEAPEAX@Z 00000001800236b0 f i FiscalPrinter.obj
 0001:000226bc       ?QueryInterface@?$CComContainedObject@VCOPOSFiscalPrinter@@@ATL@@WNI@EAAJAEBU_GUID@@PEAPEAX@Z 00000001800236bc f i FiscalPrinter.obj
 0001:000226c8       ?QueryInterface@?$CComContainedObject@VCOPOSFiscalPrinter@@@ATL@@WOA@EAAJAEBU_GUID@@PEAPEAX@Z 00000001800236c8 f i FiscalPrinter.obj
 0001:000226d4       ?QueryInterface@?$CComContainedObject@VCOPOSFiscalPrinter@@@ATL@@WOI@EAAJAEBU_GUID@@PEAPEAX@Z 00000001800236d4 f i FiscalPrinter.obj
 0001:000226e0       ?QueryInterface@?$CComContainedObject@VCOPOSFiscalPrinter@@@ATL@@WPA@EAAJAEBU_GUID@@PEAPEAX@Z 00000001800236e0 f i FiscalPrinter.obj
 0001:000226ec       ?QueryInterface@?$CComContainedObject@VCOPOSFiscalPrinter@@@ATL@@WPI@EAAJAEBU_GUID@@PEAPEAX@Z 00000001800236ec f i FiscalPrinter.obj
 0001:00022700       ?QueryInterface@?$CComObject@V?$CComEnum@UIEnumConnectionPoints@@$1?_GUID_b196b285_bab4_101a_b69c_00aa00341d07@@3U__s_GUID@@BPEAUIConnectionPoint@@V?$_CopyInterface@UIConnectionPoint@@@ATL@@VCComSingleThreadModel@6@@ATL@@@ATL@@UEAAJAEBU_GUID@@PEAPEAX@Z 0000000180023700 f i FiscalPrinter.obj
 0001:00022750       ?QueryInterface@?$CComObject@V?$CComEnum@UIEnumConnections@@$1?_GUID_b196b287_bab4_101a_b69c_00aa00341d07@@3U__s_GUID@@BUtagCONNECTDATA@@V?$_Copy@UtagCONNECTDATA@@@ATL@@VCComSingleThreadModel@6@@ATL@@@ATL@@UEAAJAEBU_GUID@@PEAPEAX@Z 0000000180023750 f i FiscalPrinter.obj
 0001:000227a0       ?QueryInterface@?$CComObject@VCOPOSFiscalPrinter@@@ATL@@UEAAJAEBU_GUID@@PEAPEAX@Z 00000001800237a0 f i FiscalPrinter.obj
 0001:000227e4       ?QueryInterface@?$CComObject@VCOPOSFiscalPrinter@@@ATL@@WBAA@EAAJAEBU_GUID@@PEAPEAX@Z 00000001800237e4 f i FiscalPrinter.obj
 0001:000227f0       ?QueryInterface@?$CComObject@VCOPOSFiscalPrinter@@@ATL@@WBAI@EAAJAEBU_GUID@@PEAPEAX@Z 00000001800237f0 f i FiscalPrinter.obj
 0001:000227fc       ?QueryInterface@?$CComObject@VCOPOSFiscalPrinter@@@ATL@@WBBA@EAAJAEBU_GUID@@PEAPEAX@Z 00000001800237fc f i FiscalPrinter.obj
 0001:00022808       ?QueryInterface@?$CComObject@VCOPOSFiscalPrinter@@@ATL@@WBBI@EAAJAEBU_GUID@@PEAPEAX@Z 0000000180023808 f i FiscalPrinter.obj
 0001:00022814       ?QueryInterface@?$CComObject@VCOPOSFiscalPrinter@@@ATL@@WLI@EAAJAEBU_GUID@@PEAPEAX@Z 0000000180023814 f i FiscalPrinter.obj
 0001:00022820       ?QueryInterface@?$CComObject@VCOPOSFiscalPrinter@@@ATL@@WMA@EAAJAEBU_GUID@@PEAPEAX@Z 0000000180023820 f i FiscalPrinter.obj
 0001:0002282c       ?QueryInterface@?$CComObject@VCOPOSFiscalPrinter@@@ATL@@WMI@EAAJAEBU_GUID@@PEAPEAX@Z 000000018002382c f i FiscalPrinter.obj
 0001:00022838       ?QueryInterface@?$CComObject@VCOPOSFiscalPrinter@@@ATL@@WNA@EAAJAEBU_GUID@@PEAPEAX@Z 0000000180023838 f i FiscalPrinter.obj
 0001:00022844       ?QueryInterface@?$CComObject@VCOPOSFiscalPrinter@@@ATL@@WNI@EAAJAEBU_GUID@@PEAPEAX@Z 0000000180023844 f i FiscalPrinter.obj
 0001:00022850       ?QueryInterface@?$CComObject@VCOPOSFiscalPrinter@@@ATL@@WOA@EAAJAEBU_GUID@@PEAPEAX@Z 0000000180023850 f i FiscalPrinter.obj
 0001:0002285c       ?QueryInterface@?$CComObject@VCOPOSFiscalPrinter@@@ATL@@WOI@EAAJAEBU_GUID@@PEAPEAX@Z 000000018002385c f i FiscalPrinter.obj
 0001:00022868       ?QueryInterface@?$CComObject@VCOPOSFiscalPrinter@@@ATL@@WPA@EAAJAEBU_GUID@@PEAPEAX@Z 0000000180023868 f i FiscalPrinter.obj
 0001:00022874       ?QueryInterface@?$CComObject@VCOPOSFiscalPrinter@@@ATL@@WPI@EAAJAEBU_GUID@@PEAPEAX@Z 0000000180023874 f i FiscalPrinter.obj
 0001:00022880       ?QueryInterface@?$CComObjectCached@VCComClassFactory@ATL@@@ATL@@UEAAJAEBU_GUID@@PEAPEAX@Z 0000000180023880 f i FiscalPrinter.obj
 0001:000228d0       ?QueryInterface@CRegObject@ATL@@UEAAJAEBU_GUID@@PEAPEAX@Z 00000001800238d0 f i FiscalPrinter.obj
 0001:00022950       ?QuickActivate@?$IQuickActivateImpl@VCOPOSFiscalPrinter@@@ATL@@UEAAJPEAUtagQACONTAINER@@PEAUtagQACONTROL@@@Z 0000000180023950 f i FiscalPrinter.obj
 0001:00022a10       ?ReactivateAndUndo@?$IOleInPlaceObjectWindowlessImpl@VCOPOSFiscalPrinter@@@ATL@@UEAAJXZ 0000000180023a10 f i FiscalPrinter.obj
 0001:00022a90       ?ReadFromStream@CComBSTR@ATL@@QEAAJPEAUIStream@@@Z 0000000180023a90 f i FiscalPrinter.obj
 0001:00022f70       ?ReadFromStream@CComVariant@ATL@@QEAAJPEAUIStream@@GTClassesAllowedInStream@2@K@Z 0000000180023f70 f i FiscalPrinter.obj
 0001:000233a0       ?RecurseDeleteKey@CRegKey@ATL@@QEAAJPEB_W@Z 00000001800243a0 f i FiscalPrinter.obj
 0001:000235c0       ?RegCreateKeyExW@CAtlTransactionManager@ATL@@QEAAJPEAUHKEY__@@PEB_WKPEA_WKKQEAU_SECURITY_ATTRIBUTES@@PEAPEAU3@PEAK@Z 00000001800245c0 f i FiscalPrinter.obj
 0001:00023790       ?RegDeleteKeyW@CAtlTransactionManager@ATL@@QEAAJPEAUHKEY__@@PEB_W@Z 0000000180024790 f i FiscalPrinter.obj
 0001:000238a0       ?RegOpenKeyExW@CAtlTransactionManager@ATL@@QEAAJPEAUHKEY__@@PEB_WKKPEAPEAU3@@Z 00000001800248a0 f i FiscalPrinter.obj
 0001:000239f0       ?Register@_ATL_WNDCLASSINFOW@ATL@@QEAAGPEAP6A_JPEAUHWND__@@I_K_J@Z@Z 00000001800249f0 f i FiscalPrinter.obj
 0001:00023a40       ?RegisterBuffer@CRegParser@ATL@@QEAAJPEA_WH@Z 0000000180024a40 f i FiscalPrinter.obj
 0001:00023e30       ?RegisterClassExW@AtlModuleRegisterWndClassInfoParamW@ATL@@SAGPEAU_ATL_WIN_MODULE70@2@PEBUtagWNDCLASSEXW@@@Z 0000000180024e30 f i FiscalPrinter.obj
 0001:00023e70       ?RegisterFromResource@CRegObject@ATL@@IEAAJPEB_W00H@Z 0000000180024e70 f i FiscalPrinter.obj
 0001:000242d0       ?RegisterServer@?$CAtlModuleT@VCComModule@ATL@@@ATL@@QEAAJHPEBU_GUID@@@Z 00000001800252d0 f i FiscalPrinter.obj
 0001:00024350       ?RegisterServer@CAtlComModule@ATL@@QEAAJHPEBU_GUID@@@Z 0000000180025350 f i FiscalPrinter.obj
 0001:00024390       ?RegisterServer@CComModule@ATL@@QEAAJHPEBU_GUID@@@Z 0000000180025390 f i FiscalPrinter.obj
 0001:00024490       ?RegisterSubkeys@CRegParser@ATL@@IEAAJPEA_WPEAUHKEY__@@HH@Z 0000000180025490 f i FiscalPrinter.obj
 0001:00025270       ?Release@?$CComAggObject@VCOPOSFiscalPrinter@@@ATL@@UEAAKXZ 0000000180026270 f i FiscalPrinter.obj
 0001:00025320       ?Release@?$CComContainedObject@VCOPOSFiscalPrinter@@@ATL@@UEAAKXZ 0000000180026320 f i FiscalPrinter.obj
 0001:00025358       ?Release@?$CComContainedObject@VCOPOSFiscalPrinter@@@ATL@@WBAA@EAAKXZ 0000000180026358 f i FiscalPrinter.obj
 0001:00025364       ?Release@?$CComContainedObject@VCOPOSFiscalPrinter@@@ATL@@WBAI@EAAKXZ 0000000180026364 f i FiscalPrinter.obj
 0001:00025370       ?Release@?$CComContainedObject@VCOPOSFiscalPrinter@@@ATL@@WBBA@EAAKXZ 0000000180026370 f i FiscalPrinter.obj
 0001:0002537c       ?Release@?$CComContainedObject@VCOPOSFiscalPrinter@@@ATL@@WBBI@EAAKXZ 000000018002637c f i FiscalPrinter.obj
 0001:00025388       ?Release@?$CComContainedObject@VCOPOSFiscalPrinter@@@ATL@@WBCI@EAAKXZ 0000000180026388 f i FiscalPrinter.obj
 0001:00025394       ?Release@?$CComContainedObject@VCOPOSFiscalPrinter@@@ATL@@WBEA@EAAKXZ 0000000180026394 f i FiscalPrinter.obj
 0001:000253a0       ?Release@?$CComContainedObject@VCOPOSFiscalPrinter@@@ATL@@WLI@EAAKXZ 00000001800263a0 f i FiscalPrinter.obj
 0001:000253ac       ?Release@?$CComContainedObject@VCOPOSFiscalPrinter@@@ATL@@WMA@EAAKXZ 00000001800263ac f i FiscalPrinter.obj
 0001:000253b8       ?Release@?$CComContainedObject@VCOPOSFiscalPrinter@@@ATL@@WMI@EAAKXZ 00000001800263b8 f i FiscalPrinter.obj
 0001:000253c4       ?Release@?$CComContainedObject@VCOPOSFiscalPrinter@@@ATL@@WNA@EAAKXZ 00000001800263c4 f i FiscalPrinter.obj
 0001:000253d0       ?Release@?$CComContainedObject@VCOPOSFiscalPrinter@@@ATL@@WNI@EAAKXZ 00000001800263d0 f i FiscalPrinter.obj
 0001:000253dc       ?Release@?$CComContainedObject@VCOPOSFiscalPrinter@@@ATL@@WOA@EAAKXZ 00000001800263dc f i FiscalPrinter.obj
 0001:000253e8       ?Release@?$CComContainedObject@VCOPOSFiscalPrinter@@@ATL@@WOI@EAAKXZ 00000001800263e8 f i FiscalPrinter.obj
 0001:000253f4       ?Release@?$CComContainedObject@VCOPOSFiscalPrinter@@@ATL@@WPA@EAAKXZ 00000001800263f4 f i FiscalPrinter.obj
 0001:00025400       ?Release@?$CComContainedObject@VCOPOSFiscalPrinter@@@ATL@@WPI@EAAKXZ 0000000180026400 f i FiscalPrinter.obj
 0001:00025410       ?Release@?$CComObject@V?$CComEnum@UIEnumConnectionPoints@@$1?_GUID_b196b285_bab4_101a_b69c_00aa00341d07@@3U__s_GUID@@BPEAUIConnectionPoint@@V?$_CopyInterface@UIConnectionPoint@@@ATL@@VCComSingleThreadModel@6@@ATL@@@ATL@@UEAAKXZ 0000000180026410 f i FiscalPrinter.obj
 0001:000254c0       ?Release@?$CComObject@V?$CComEnum@UIEnumConnections@@$1?_GUID_b196b287_bab4_101a_b69c_00aa00341d07@@3U__s_GUID@@BUtagCONNECTDATA@@V?$_Copy@UtagCONNECTDATA@@@ATL@@VCComSingleThreadModel@6@@ATL@@@ATL@@UEAAKXZ 00000001800264c0 f i FiscalPrinter.obj
 0001:00025570       ?Release@?$CComObject@VCOPOSFiscalPrinter@@@ATL@@UEAAKXZ 0000000180026570 f i FiscalPrinter.obj
 0001:00025628       ?Release@?$CComObject@VCOPOSFiscalPrinter@@@ATL@@WBAA@EAAKXZ 0000000180026628 f i FiscalPrinter.obj
 0001:00025634       ?Release@?$CComObject@VCOPOSFiscalPrinter@@@ATL@@WBAI@EAAKXZ 0000000180026634 f i FiscalPrinter.obj
 0001:00025640       ?Release@?$CComObject@VCOPOSFiscalPrinter@@@ATL@@WBBA@EAAKXZ 0000000180026640 f i FiscalPrinter.obj
 0001:0002564c       ?Release@?$CComObject@VCOPOSFiscalPrinter@@@ATL@@WBBI@EAAKXZ 000000018002664c f i FiscalPrinter.obj
 0001:00025658       ?Release@?$CComObject@VCOPOSFiscalPrinter@@@ATL@@WBCI@EAAKXZ 0000000180026658 f i FiscalPrinter.obj
 0001:00025664       ?Release@?$CComObject@VCOPOSFiscalPrinter@@@ATL@@WBEA@EAAKXZ 0000000180026664 f i FiscalPrinter.obj
 0001:00025670       ?Release@?$CComObject@VCOPOSFiscalPrinter@@@ATL@@WLI@EAAKXZ 0000000180026670 f i FiscalPrinter.obj
 0001:0002567c       ?Release@?$CComObject@VCOPOSFiscalPrinter@@@ATL@@WMA@EAAKXZ 000000018002667c f i FiscalPrinter.obj
 0001:00025688       ?Release@?$CComObject@VCOPOSFiscalPrinter@@@ATL@@WMI@EAAKXZ 0000000180026688 f i FiscalPrinter.obj
 0001:00025694       ?Release@?$CComObject@VCOPOSFiscalPrinter@@@ATL@@WNA@EAAKXZ 0000000180026694 f i FiscalPrinter.obj
 0001:000256a0       ?Release@?$CComObject@VCOPOSFiscalPrinter@@@ATL@@WNI@EAAKXZ 00000001800266a0 f i FiscalPrinter.obj
 0001:000256ac       ?Release@?$CComObject@VCOPOSFiscalPrinter@@@ATL@@WOA@EAAKXZ 00000001800266ac f i FiscalPrinter.obj
 0001:000256b8       ?Release@?$CComObject@VCOPOSFiscalPrinter@@@ATL@@WOI@EAAKXZ 00000001800266b8 f i FiscalPrinter.obj
 0001:000256c4       ?Release@?$CComObject@VCOPOSFiscalPrinter@@@ATL@@WPA@EAAKXZ 00000001800266c4 f i FiscalPrinter.obj
 0001:000256d0       ?Release@?$CComObject@VCOPOSFiscalPrinter@@@ATL@@WPI@EAAKXZ 00000001800266d0 f i FiscalPrinter.obj
 0001:000256e0       ?Release@?$CComObjectCached@VCComClassFactory@ATL@@@ATL@@UEAAKXZ 00000001800266e0 f i FiscalPrinter.obj
 0001:00025780       ?Release@?$CComPtrBase@UIAdviseSink@@@ATL@@QEAAXXZ 0000000180026780 f i FiscalPrinter.obj
 0001:000257e0       ?Release@?$CComPtrBase@UIDispatch@@@ATL@@QEAAXXZ 00000001800267e0 f i FiscalPrinter.obj
 0001:00025840       ?Release@?$CComPtrBase@UIOleInPlaceSiteWindowless@@@ATL@@QEAAXXZ 0000000180026840 f i FiscalPrinter.obj
 0001:000258a0       ?Release@CRegObject@ATL@@UEAAKXZ 00000001800268a0 f i FiscalPrinter.obj
 0001:00025910       ?Remove@CComDynamicUnkArray@ATL@@QEAAHK@Z 0000000180026910 f i FiscalPrinter.obj
 0001:000259f0       ?RemoveAll@?$CSimpleMap@PEA_WPEA_WVCExpansionVectorEqualHelper@ATL@@@ATL@@QEAAXXZ 00000001800269f0 f i FiscalPrinter.obj
 0001:00025a90       ?Reset@?$CComEnumImpl@UIEnumConnectionPoints@@$1?_GUID_b196b285_bab4_101a_b69c_00aa00341d07@@3U__s_GUID@@BPEAUIConnectionPoint@@V?$_CopyInterface@UIConnectionPoint@@@ATL@@@ATL@@UEAAJXZ 0000000180026a90 f i FiscalPrinter.obj
 0001:00025ab0       ?Reset@?$CComEnumImpl@UIEnumConnections@@$1?_GUID_b196b287_bab4_101a_b69c_00aa00341d07@@3U__s_GUID@@BUtagCONNECTDATA@@V?$_Copy@UtagCONNECTDATA@@@ATL@@@ATL@@UEAAJXZ 0000000180026ab0 f i FiscalPrinter.obj
 0001:00025ad0       ?ResizeBorder@?$IOleInPlaceActiveObjectImpl@VCOPOSFiscalPrinter@@@ATL@@UEAAJPEBUtagRECT@@PEAUIOleInPlaceUIWindow@@H@Z 0000000180026ad0 f i FiscalPrinter.obj
 0001:00025b50       ?ResourceRegister@CRegObject@ATL@@QEAAJPEB_WI0@Z 0000000180026b50 f i FiscalPrinter.obj
 0001:00025c30       ?ResourceRegisterSz@CRegObject@ATL@@QEAAJPEB_W00@Z 0000000180026c30 f i FiscalPrinter.obj
 0001:00025d50       ?ResourceUnregister@CRegObject@ATL@@QEAAJPEB_WI0@Z 0000000180026d50 f i FiscalPrinter.obj
 0001:00025e30       ?ResourceUnregisterSz@CRegObject@ATL@@QEAAJPEB_W00@Z 0000000180026e30 f i FiscalPrinter.obj
 0001:00025f50       ?SODataDummy@COPOSFiscalPrinter@@MEAAJJ@Z 0000000180026f50 f i FiscalPrinter.obj
 0001:00025f70       ?SODirectIO@COPOSFiscalPrinter@@MEAAJJPEAJPEAPEA_W@Z 0000000180026f70 f i FiscalPrinter.obj
 0001:000261b0       ?SOError@COPOSFiscalPrinter@@MEAAJJJJPEAJ@Z 00000001800271b0 f i FiscalPrinter.obj
 0001:000262c0       ?SOOutputComplete@COPOSFiscalPrinter@@MEAAJJ@Z 00000001800272c0 f i FiscalPrinter.obj
 0001:00026360       ?SOStatusUpdate@COPOSFiscalPrinter@@MEAAJJ@Z 0000000180027360 f i FiscalPrinter.obj
 0001:00026400       ?Save@?$IPersistStorageImpl@VCOPOSFiscalPrinter@@@ATL@@UEAAJPEAUIStorage@@H@Z 0000000180027400 f i FiscalPrinter.obj
 0001:000265c0       ?Save@?$IPersistStreamInitImpl@VCOPOSFiscalPrinter@@@ATL@@UEAAJPEAUIStream@@H@Z 00000001800275c0 f i FiscalPrinter.obj
 0001:00026680       ?SaveCompleted@?$IPersistStorageImpl@VCOPOSFiscalPrinter@@@ATL@@UEAAJPEAUIStorage@@@Z 0000000180027680 f i FiscalPrinter.obj
 0001:000266f0       ?SendOnDataChange@CComControlBase@ATL@@QEAAJK@Z 00000001800276f0 f i FiscalPrinter.obj
 0001:000267e0       ?SendOnSave@CComControlBase@ATL@@QEAAJXZ 00000001800277e0 f i FiscalPrinter.obj
 0001:00026850       ?SendOnViewChange@CComControlBase@ATL@@QEAAJKJ@Z 0000000180027850 f i FiscalPrinter.obj
 0001:000268d0       ?SetAdvise@?$IViewObjectExImpl@VCOPOSFiscalPrinter@@@ATL@@UEAAJKKPEAUIAdviseSink@@@Z 00000001800278d0 f i FiscalPrinter.obj
 0001:00026990       ?SetClientSite@?$IOleObjectImpl@VCOPOSFiscalPrinter@@@ATL@@UEAAJPEAUIOleClientSite@@@Z 0000000180027990 f i FiscalPrinter.obj
 0001:00026a40       ?SetColorScheme@?$IOleObjectImpl@VCOPOSFiscalPrinter@@@ATL@@UEAAJPEAUtagLOGPALETTE@@@Z 0000000180027a40 f i FiscalPrinter.obj
 0001:00026ad0       ?SetContentExtent@?$IQuickActivateImpl@VCOPOSFiscalPrinter@@@ATL@@UEAAJPEAUtagSIZE@@@Z 0000000180027ad0 f i FiscalPrinter.obj
 0001:00026b90       ?SetControlFocus@CComControlBase@ATL@@QEAAHH@Z 0000000180027b90 f i FiscalPrinter.obj
 0001:00026d20       ?SetDWORDValue@CRegKey@ATL@@QEAAJPEB_WK@Z 0000000180027d20 f i FiscalPrinter.obj
 0001:00026dd0       ?SetData@?$IDataObjectImpl@VCOPOSFiscalPrinter@@@ATL@@UEAAJPEAUtagFORMATETC@@PEAUtagSTGMEDIUM@@H@Z 0000000180027dd0 f i FiscalPrinter.obj
 0001:00026e60       ?SetExtent@?$IOleObjectImpl@VCOPOSFiscalPrinter@@@ATL@@UEAAJKPEAUtagSIZE@@@Z 0000000180027e60 f i FiscalPrinter.obj
 0001:00026f20       ?SetHostNames@?$IOleObjectImpl@VCOPOSFiscalPrinter@@@ATL@@UEAAJPEB_W0@Z 0000000180027f20 f i FiscalPrinter.obj
 0001:00026fa0       ?SetInterfaceSafetyOptions@?$IObjectSafetyImpl@VCOPOSFiscalPrinter@@$02@ATL@@UEAAJAEBU_GUID@@KK@Z 0000000180027fa0 f i FiscalPrinter.obj
 0001:00027140       ?SetMoniker@?$IOleObjectImpl@VCOPOSFiscalPrinter@@@ATL@@UEAAJKPEAUIMoniker@@@Z 0000000180028140 f i FiscalPrinter.obj
 0001:000271d0       ?SetMultiStringValue@CRegKey@ATL@@QEAAJPEB_W0@Z 00000001800281d0 f i FiscalPrinter.obj
 0001:00027340       ?SetObjectRects@?$IOleInPlaceObjectWindowlessImpl@VCOPOSFiscalPrinter@@@ATL@@UEAAJPEBUtagRECT@@0@Z 0000000180028340 f i FiscalPrinter.obj
 0001:00027400       ?SetStringValue@CRegKey@ATL@@QEAAJPEB_W0K@Z 0000000180028400 f i FiscalPrinter.obj
 0001:00027580       ?SetVoid@CComClassFactory@ATL@@QEAAXPEAX@Z 0000000180028580 f i FiscalPrinter.obj
 0001:000275a0       ?SetVoid@CComObjectRootBase@ATL@@QEAAXPEAX@Z 00000001800285a0 f i FiscalPrinter.obj
 0001:000275b0       ?ShowWindow@CWindow@ATL@@QEAAHH@Z 00000001800285b0 f i FiscalPrinter.obj
 0001:00027640       ?Skip@?$CComEnumImpl@UIEnumConnectionPoints@@$1?_GUID_b196b285_bab4_101a_b69c_00aa00341d07@@3U__s_GUID@@BPEAUIConnectionPoint@@V?$_CopyInterface@UIConnectionPoint@@@ATL@@@ATL@@UEAAJK@Z 0000000180028640 f i FiscalPrinter.obj
 0001:000276e0       ?Skip@?$CComEnumImpl@UIEnumConnections@@$1?_GUID_b196b287_bab4_101a_b69c_00aa00341d07@@3U__s_GUID@@BUtagCONNECTDATA@@V?$_Copy@UtagCONNECTDATA@@@ATL@@@ATL@@UEAAJK@Z 00000001800286e0 f i FiscalPrinter.obj
 0001:00027780       ?SkipAssignment@CRegParser@ATL@@IEAAJPEA_W@Z 0000000180028780 f i FiscalPrinter.obj
 0001:00027880       ?SkipWhiteSpace@CRegParser@ATL@@IEAAXXZ 0000000180028880 f i FiscalPrinter.obj
 0001:000278e0       ?StartWindowProc@?$CWindowImplBaseT@VCWindow@ATL@@V?$CWinTraits@$0FGAAAAAA@$0A@@2@@ATL@@SA_JPEAUHWND__@@I_K_J@Z 00000001800288e0 f i FiscalPrinter.obj
 0001:00027a50       ?StrChrW@CRegParser@ATL@@KAPEA_WPEA_W_W@Z 0000000180028a50 f i FiscalPrinter.obj
 0001:00027ad0       ?StrFromMap@CRegObject@ATL@@QEAAPEB_WPEA_W@Z 0000000180028ad0 f i FiscalPrinter.obj
 0001:00027b90       ?Swap@?$CComPtrBase@UIAdviseSink@@@ATL@@IEAAXAEAV12@@Z 0000000180028b90 f i FiscalPrinter.obj
 0001:00027bf0       ?Swap@?$CComPtrBase@UIOleClientSite@@@ATL@@IEAAXAEAV12@@Z 0000000180028bf0 f i FiscalPrinter.obj
 0001:00027c50       ?Swap@?$CComPtrBase@UIUnknown@@@ATL@@IEAAXAEAV12@@Z 0000000180028c50 f i FiscalPrinter.obj
 0001:00027cb0       ?T2COLE_EX@@YAPEB_WPEB_WI@Z 0000000180028cb0 f i FiscalPrinter.obj
 0001:00027cd0       ?T2OLE_EX@@YAPEA_WPEA_WI@Z 0000000180028cd0 f i FiscalPrinter.obj
 0001:00027cf0       ?Term@CAtlModule@ATL@@QEAAXXZ 0000000180028cf0 f i FiscalPrinter.obj
 0001:00027db0       ?Term@CComModule@ATL@@QEAAXXZ 0000000180028db0 f i FiscalPrinter.obj
 0001:00027ea0       ?TranslateAcceleratorW@?$IOleInPlaceActiveObjectImpl@VCOPOSFiscalPrinter@@@ATL@@UEAAJPEAUtagMSG@@@Z 0000000180028ea0 f i FiscalPrinter.obj
 0001:00028110       ?UIDeactivate@?$IOleInPlaceObjectWindowlessImpl@VCOPOSFiscalPrinter@@@ATL@@UEAAJXZ 0000000180029110 f i FiscalPrinter.obj
 0001:000281c0       ?Unadvise@?$CProxy_IOPOSEvents@VCOPOSFiscalPrinter@@@@UEAAJK@Z 00000001800291c0 f i FiscalPrinter.obj
 0001:00028210       ?Unadvise@?$IConnectionPointImpl@VCOPOSFiscalPrinter@@$1?DIID__IOPOSFiscalPrinterEvents@@3U_GUID@@BVCComDynamicUnkArray@ATL@@@ATL@@UEAAJK@Z 0000000180029210 f i FiscalPrinter.obj
 0001:00028300       ?Unadvise@?$IConnectionPointImpl@VCOPOSFiscalPrinter@@$1?IID_IPropertyNotifySink@@3U_GUID@@BVCComDynamicUnkArray@ATL@@@ATL@@UEAAJK@Z 0000000180029300 f i FiscalPrinter.obj
 0001:000283f0       ?Unadvise@?$IOleObjectImpl@VCOPOSFiscalPrinter@@@ATL@@UEAAJK@Z 00000001800293f0 f i FiscalPrinter.obj
 0001:000284e0       ?Unfreeze@?$IViewObjectExImpl@VCOPOSFiscalPrinter@@@ATL@@UEAAJK@Z 00000001800294e0 f i FiscalPrinter.obj
 0001:00028560       ?Unlock@?$CComCritSecLock@VCComCriticalSection@ATL@@@ATL@@QEAAXXZ 0000000180029560 f i FiscalPrinter.obj
 0001:000285f0       ?Unlock@?$CComObjectRootEx@VCComSingleThreadModel@ATL@@@ATL@@QEAAXXZ 00000001800295f0 f i FiscalPrinter.obj
 0001:00028600       ?Unlock@CAtlModule@ATL@@UEAAJXZ 0000000180029600 f i FiscalPrinter.obj
 0001:00028640       ?Unlock@CComCriticalSection@ATL@@QEAAJXZ 0000000180029640 f i FiscalPrinter.obj
 0001:00028680       ?Unlock@CComFakeCriticalSection@ATL@@QEAAJXZ 0000000180029680 f i FiscalPrinter.obj
 0001:00028690       ?UnregisterServer@?$CAtlModuleT@VCComModule@ATL@@@ATL@@QEAAJHPEBU_GUID@@@Z 0000000180029690 f i FiscalPrinter.obj
 0001:00028700       ?UnregisterServer@CAtlComModule@ATL@@QEAAJHPEBU_GUID@@@Z 0000000180029700 f i FiscalPrinter.obj
 0001:00028740       ?UnregisterServer@CComModule@ATL@@QEAAJHPEBU_GUID@@@Z 0000000180029740 f i FiscalPrinter.obj
 0001:00028830       ?Update@?$IOleObjectImpl@VCOPOSFiscalPrinter@@@ATL@@UEAAJXZ 0000000180029830 f i FiscalPrinter.obj
 0001:000288a0       ?UpdateRegistryFromResource@CAtlModule@ATL@@QEAAJIHPEAU_ATL_REGMAP_ENTRY@2@@Z 00000001800298a0 f i FiscalPrinter.obj
 0001:00028dd0       ?UpdateRegistryFromResource@CAtlModule@ATL@@QEAAJPEB_WHPEAU_ATL_REGMAP_ENTRY@2@@Z 0000000180029dd0 f i FiscalPrinter.obj
 0001:00029320       ?UpdateRegistryFromResource@CComModule@ATL@@UEAAJIHPEAU_ATL_REGMAP_ENTRY@2@@Z 000000018002a320 f i FiscalPrinter.obj
 0001:00029370       ?UpdateRegistryFromResource@CComModule@ATL@@UEAAJPEB_WHPEAU_ATL_REGMAP_ENTRY@2@@Z 000000018002a370 f i FiscalPrinter.obj
 0001:000293c0       ?UpdateRegistryFromResourceD@CComModule@ATL@@UEAAJIHPEAU_ATL_REGMAP_ENTRY@2@@Z 000000018002a3c0 f i FiscalPrinter.obj
 0001:000293e0       ?UpdateRegistryFromResourceD@CComModule@ATL@@UEAAJPEB_WHPEAU_ATL_REGMAP_ENTRY@2@@Z 000000018002a3e0 f i FiscalPrinter.obj
 0001:00029400       ?VTFromRegType@CRegParser@ATL@@KAHPEB_WAEAG@Z 000000018002a400 f i FiscalPrinter.obj
 0001:000294e0       ?WindowProc@?$CWindowImplBaseT@VCWindow@ATL@@V?$CWinTraits@$0FGAAAAAA@$0A@@2@@ATL@@SA_JPEAUHWND__@@I_K_J@Z 000000018002a4e0 f i FiscalPrinter.obj
 0001:000297c0       ?WriteToStream@CComBSTR@ATL@@QEAAJPEAUIStream@@@Z 000000018002a7c0 f i FiscalPrinter.obj
 0001:00029930       ?WriteToStream@CComVariant@ATL@@QEAAJPEAUIStream@@@Z 000000018002a930 f i FiscalPrinter.obj
 0001:00029d40       ?WriteToStream@CComVariant@ATL@@QEAAJPEAUIStream@@G@Z 000000018002ad40 f i FiscalPrinter.obj
 0001:00029e20       ?_AtlFinalConstruct@CComObjectRootBase@ATL@@QEAAJXZ 000000018002ae20 f i FiscalPrinter.obj
 0001:00029e30       ?_AtlGetConversionACP@ATL@@YAIXZ 000000018002ae30 f i FiscalPrinter.obj
 0001:00029e40       ?_AtlInitialConstruct@?$CComAggObject@VCOPOSFiscalPrinter@@@ATL@@QEAAJXZ 000000018002ae40 f i FiscalPrinter.obj
 0001:00029ea0       ?_AtlInitialConstruct@?$CComObjectRootEx@VCComMultiThreadModel@ATL@@@ATL@@QEAAJXZ 000000018002aea0 f i FiscalPrinter.obj
 0001:00029ee0       ?_AtlInitialConstruct@?$CComObjectRootEx@VCComSingleThreadModel@ATL@@@ATL@@QEAAJXZ 000000018002aee0 f i FiscalPrinter.obj
 0001:00029ef0       ?_AtlVerifyStackAvailable@_ATL_SAFE_ALLOCA_IMPL@ATL@@YA_N_K@Z 000000018002aef0 f i FiscalPrinter.obj
 0001:0002a050       ?_GetEntries@?$CComEnum@UIEnumConnectionPoints@@$1?_GUID_b196b285_bab4_101a_b69c_00aa00341d07@@3U__s_GUID@@BPEAUIConnectionPoint@@V?$_CopyInterface@UIConnectionPoint@@@ATL@@VCComSingleThreadModel@6@@ATL@@SAPEBU_ATL_INTMAP_ENTRY@2@XZ 000000018002b050 f i FiscalPrinter.obj
 0001:0002a070       ?_GetEntries@?$CComEnum@UIEnumConnections@@$1?_GUID_b196b287_bab4_101a_b69c_00aa00341d07@@3U__s_GUID@@BUtagCONNECTDATA@@V?$_Copy@UtagCONNECTDATA@@@ATL@@VCComSingleThreadModel@6@@ATL@@SAPEBU_ATL_INTMAP_ENTRY@2@XZ 000000018002b070 f i FiscalPrinter.obj
 0001:0002a090       ?_GetEntries@CComClassFactory@ATL@@SAPEBU_ATL_INTMAP_ENTRY@2@XZ 000000018002b090 f i FiscalPrinter.obj
 0001:0002a0b0       ?_GetEntries@COPOSFiscalPrinter@@SAPEBU_ATL_INTMAP_ENTRY@ATL@@XZ 000000018002b0b0 f i FiscalPrinter.obj
 0001:0002a0d0       ?_GetRawUnknown@COPOSFiscalPrinter@@QEAAPEAUIUnknown@@XZ 000000018002b0d0 f i FiscalPrinter.obj
 0001:0002a160       ?_GetViewStatus@COPOSFiscalPrinter@@QEAAKXZ 000000018002b160 f i FiscalPrinter.obj
 0001:0002a170       ?_InternalQueryInterface@?$CComEnum@UIEnumConnectionPoints@@$1?_GUID_b196b285_bab4_101a_b69c_00aa00341d07@@3U__s_GUID@@BPEAUIConnectionPoint@@V?$_CopyInterface@UIConnectionPoint@@@ATL@@VCComSingleThreadModel@6@@ATL@@QEAAJAEBU_GUID@@PEAPEAX@Z 000000018002b170 f i FiscalPrinter.obj
 0001:0002a1c0       ?_InternalQueryInterface@?$CComEnum@UIEnumConnections@@$1?_GUID_b196b287_bab4_101a_b69c_00aa00341d07@@3U__s_GUID@@BUtagCONNECTDATA@@V?$_Copy@UtagCONNECTDATA@@@ATL@@VCComSingleThreadModel@6@@ATL@@QEAAJAEBU_GUID@@PEAPEAX@Z 000000018002b1c0 f i FiscalPrinter.obj
 0001:0002a210       ?_InternalQueryInterface@CComClassFactory@ATL@@QEAAJAEBU_GUID@@PEAPEAX@Z 000000018002b210 f i FiscalPrinter.obj
 0001:0002a260       ?_InternalQueryInterface@COPOSFiscalPrinter@@QEAAJAEBU_GUID@@PEAPEAX@Z 000000018002b260 f i FiscalPrinter.obj
 0001:0002a2b0       ?_LocCPQueryInterface@?$IConnectionPointImpl@VCOPOSFiscalPrinter@@$1?DIID__IOPOSFiscalPrinterEvents@@3U_GUID@@BVCComDynamicUnkArray@ATL@@@ATL@@UEAAJAEBU_GUID@@PEAPEAX@Z 000000018002b2b0 f i FiscalPrinter.obj
 0001:0002a390       ?_LocCPQueryInterface@?$IConnectionPointImpl@VCOPOSFiscalPrinter@@$1?IID_IPropertyNotifySink@@3U_GUID@@BVCComDynamicUnkArray@ATL@@@ATL@@UEAAJAEBU_GUID@@PEAPEAX@Z 000000018002b390 f i FiscalPrinter.obj
 0001:0002a470       ?atlCreate@?$CWindowImpl@VCOPOSFiscalPrinter@@VCWindow@ATL@@V?$CWinTraits@$0FGAAAAAA@$0A@@3@@ATL@@QEAAPEAUHWND__@@PEAU3@V_U_RECT@2@PEB_WKKV_U_MENUorID@2@PEAX@Z 000000018002b470 f i FiscalPrinter.obj
 0001:0002a5a0       ?atlCreate@?$CWindowImplBaseT@VCWindow@ATL@@V?$CWinTraits@$0FGAAAAAA@$0A@@2@@ATL@@QEAAPEAUHWND__@@PEAU3@V_U_RECT@2@PEB_WKKV_U_MENUorID@2@GPEAX@Z 000000018002b5a0 f i FiscalPrinter.obj
 0001:0002a800       ?atlCreate@CRegKey@ATL@@QEAAJPEAUHKEY__@@PEB_WPEA_WKKPEAU_SECURITY_ATTRIBUTES@@PEAK@Z 000000018002b800 f i FiscalPrinter.obj
 0001:0002a9f0       ?begin@CComDynamicUnkArray@ATL@@QEAAPEAPEAUIUnknown@@XZ 000000018002b9f0 f i FiscalPrinter.obj
 0001:0002aa00       ?copy@?$_Copy@UtagCONNECTDATA@@@ATL@@SAJPEAUtagCONNECTDATA@@PEBU3@@Z 000000018002ba00 f i FiscalPrinter.obj
 0001:0002aaf0       ?copy@?$_CopyInterface@UIConnectionPoint@@@ATL@@SAJPEAPEAUIConnectionPoint@@PEBQEAU3@@Z 000000018002baf0 f i FiscalPrinter.obj
 0001:0002abe0       ?destroy@?$_Copy@UtagCONNECTDATA@@@ATL@@SAXPEAUtagCONNECTDATA@@@Z 000000018002bbe0 f i FiscalPrinter.obj
 0001:0002ac30       ?destroy@?$_CopyInterface@UIConnectionPoint@@@ATL@@SAXPEAPEAUIConnectionPoint@@@Z 000000018002bc30 f i FiscalPrinter.obj
 0001:0002ac80       ?end@CComDynamicUnkArray@ATL@@QEAAPEAPEAUIUnknown@@XZ 000000018002bc80 f i FiscalPrinter.obj
 0001:0002aca0       ?init@?$_Copy@UtagCONNECTDATA@@@ATL@@SAXPEAUtagCONNECTDATA@@@Z 000000018002bca0 f i FiscalPrinter.obj
 0001:0002acb0       ?init@?$_CopyInterface@UIConnectionPoint@@@ATL@@SAXPEAPEAUIConnectionPoint@@@Z 000000018002bcb0 f i FiscalPrinter.obj
 0001:0002acc0       ?memcpy_s@Checked@ATL@@YAXPEAX_KPEBX1@Z 000000018002bcc0 f i FiscalPrinter.obj
 0001:0002ad20       ?ocscpy_s@@YA_NPEA_W_KPEB_W@Z 000000018002bd20 f i FiscalPrinter.obj
 0001:0002ada0       ?ocslen@@YAHPEB_W@Z        000000018002bda0 f i FiscalPrinter.obj
 0001:0002ade0       ?tcsncpy_s@Checked@ATL@@YAHPEA_W_KPEB_W1@Z 000000018002bde0 f i FiscalPrinter.obj
 0001:0002ae40       ?wcscat_s@Checked@ATL@@YAXPEA_W_KPEB_W@Z 000000018002be40 f i FiscalPrinter.obj
 0001:0002ae90       ?wcscpy_s@Checked@ATL@@YAXPEA_W_KPEB_W@Z 000000018002be90 f i FiscalPrinter.obj
 0001:0002aee0       ?wcsncpy_s@Checked@ATL@@YAHPEA_W_KPEB_W1@Z 000000018002bee0 f i FiscalPrinter.obj
 0001:0002af40       ?wcsstr@@YAPEA_WPEA_WPEB_W@Z 000000018002bf40 f i FiscalPrinter.obj
 0001:0002af80       InlineIsEqualGUID          000000018002bf80 f i FiscalPrinter.obj
 0001:0002b050       IsEqualGUID                000000018002c050 f i FiscalPrinter.obj
 0001:0002b0b0       ??0COPOSFiscalPrinter@@QEAA@XZ 000000018002c0b0 f   FiscalPrinterImpl.obj
 0001:0002b230       ?FinalConstruct@COPOSFiscalPrinter@@QEAAJXZ 000000018002c230 f   FiscalPrinterImpl.obj
 0001:0002b320       ??1COPOSFiscalPrinter@@UEAA@XZ 000000018002c320 f   FiscalPrinterImpl.obj
 0001:0002b400       ?WriteTrace@COPOSFiscalPrinter@@QEAAXPEB_WZZ 000000018002c400 f   FiscalPrinterImpl.obj
 0001:0002b4c0       ?WriteTraceString@COPOSFiscalPrinter@@QEAAXPEB_WPEA_W@Z 000000018002c4c0 f   FiscalPrinterImpl.obj
 0001:0002b900       ?WriteTraceString@COPOSFiscalPrinter@@QEAAXPEAXHHHPEB_WZZ 000000018002c900 f   FiscalPrinterImpl.obj
 0001:0002bb90       ?WriteTraceError@COPOSFiscalPrinter@@QEAAXPEB_WK@Z 000000018002cb90 f   FiscalPrinterImpl.obj
 0001:0002bc90       ?WriteTraceMethods@COPOSFiscalPrinter@@QEAAXPEAJH@Z 000000018002cc90 f   FiscalPrinterImpl.obj
 0001:0002bd20       ?FormatCurrency@COPOSFiscalPrinter@@QEAAPEB_WTtagCY@@@Z 000000018002cd20 f   FiscalPrinterImpl.obj
 0001:0002be40       ?GetOposProp@COPOSFiscalPrinter@@IEAAJPEBDJPEAJJ@Z 000000018002ce40 f   FiscalPrinterImpl.obj
 0001:0002c160       ?SetOposProp@COPOSFiscalPrinter@@IEAAJPEBDJJJ@Z 000000018002d160 f   FiscalPrinterImpl.obj
 0001:0002c4c0       ?GetOposProp@COPOSFiscalPrinter@@IEAAJPEBDJPEAFJ@Z 000000018002d4c0 f   FiscalPrinterImpl.obj
 0001:0002c560       ?SetOposProp@COPOSFiscalPrinter@@IEAAJPEBDJFJ@Z 000000018002d560 f   FiscalPrinterImpl.obj
 0001:0002c5e0       ?GetOposProp@COPOSFiscalPrinter@@IEAAJPEBDJPEAPEA_WJ@Z 000000018002d5e0 f   FiscalPrinterImpl.obj
 0001:0002c900       ?SetOposProp@COPOSFiscalPrinter@@IEAAJPEBDJPEA_WJ@Z 000000018002d900 f   FiscalPrinterImpl.obj
 0001:0002cce0       ?DoInvoke@COPOSFiscalPrinter@@IEAAJPEBDJPEAVOposVariant@@IHPEAJ_N@Z 000000018002dce0 f   FiscalPrinterImpl.obj
 0001:0002d920       ?SetCOFreezeEvents@COPOSFiscalPrinter@@IEAAXF@Z 000000018002e920 f   FiscalPrinterImpl.obj
 0001:0002dab0       ?FreezeEvents@COPOSFiscalPrinter@@MEAAJH@Z 000000018002eab0 f   FiscalPrinterImpl.obj
 0001:0002dbe0       ?OnDraw@COPOSFiscalPrinter@@MEAAJAEAUATL_DRAWINFO@@@Z 000000018002ebe0 f   FiscalPrinterImpl.obj
 0001:0002ddb0       ?SOProcessID@COPOSFiscalPrinter@@UEAAJPEAJ@Z 000000018002edb0 f   FiscalPrinterImpl.obj
 0001:0002de10       ?get_OpenResult@COPOSFiscalPrinter@@UEAAJPEAJ@Z 000000018002ee10 f   FiscalPrinterImpl.obj
 0001:0002de70       ?get_BinaryConversion@COPOSFiscalPrinter@@UEAAJPEAJ@Z 000000018002ee70 f   FiscalPrinterImpl.obj
 0001:0002ded0       ?put_BinaryConversion@COPOSFiscalPrinter@@UEAAJJ@Z 000000018002eed0 f   FiscalPrinterImpl.obj
 0001:0002df40       ?get_CapPowerReporting@COPOSFiscalPrinter@@UEAAJPEAJ@Z 000000018002ef40 f   FiscalPrinterImpl.obj
 0001:0002dfa0       ?get_CheckHealthText@COPOSFiscalPrinter@@UEAAJPEAPEA_W@Z 000000018002efa0 f   FiscalPrinterImpl.obj
 0001:0002e000       ?get_Claimed@COPOSFiscalPrinter@@UEAAJPEAF@Z 000000018002f000 f   FiscalPrinterImpl.obj
 0001:0002e060       ?get_DeviceEnabled@COPOSFiscalPrinter@@UEAAJPEAF@Z 000000018002f060 f   FiscalPrinterImpl.obj
 0001:0002e0c0       ?put_DeviceEnabled@COPOSFiscalPrinter@@UEAAJF@Z 000000018002f0c0 f   FiscalPrinterImpl.obj
 0001:0002e120       ?get_FreezeEvents@COPOSFiscalPrinter@@UEAAJPEAF@Z 000000018002f120 f   FiscalPrinterImpl.obj
 0001:0002e180       ?put_FreezeEvents@COPOSFiscalPrinter@@UEAAJF@Z 000000018002f180 f   FiscalPrinterImpl.obj
 0001:0002e260       ?get_OutputID@COPOSFiscalPrinter@@UEAAJPEAJ@Z 000000018002f260 f   FiscalPrinterImpl.obj
 0001:0002e2c0       ?get_PowerNotify@COPOSFiscalPrinter@@UEAAJPEAJ@Z 000000018002f2c0 f   FiscalPrinterImpl.obj
 0001:0002e320       ?put_PowerNotify@COPOSFiscalPrinter@@UEAAJJ@Z 000000018002f320 f   FiscalPrinterImpl.obj
 0001:0002e380       ?get_PowerState@COPOSFiscalPrinter@@UEAAJPEAJ@Z 000000018002f380 f   FiscalPrinterImpl.obj
 0001:0002e3e0       ?get_ResultCode@COPOSFiscalPrinter@@UEAAJPEAJ@Z 000000018002f3e0 f   FiscalPrinterImpl.obj
 0001:0002e4b0       ?get_ResultCodeExtended@COPOSFiscalPrinter@@UEAAJPEAJ@Z 000000018002f4b0 f   FiscalPrinterImpl.obj
 0001:0002e510       ?get_State@COPOSFiscalPrinter@@UEAAJPEAJ@Z 000000018002f510 f   FiscalPrinterImpl.obj
 0001:0002e5a0       ?get_ControlObjectDescription@COPOSFiscalPrinter@@UEAAJPEAPEA_W@Z 000000018002f5a0 f   FiscalPrinterImpl.obj
 0001:0002e620       ?get_ControlObjectVersion@COPOSFiscalPrinter@@UEAAJPEAJ@Z 000000018002f620 f   FiscalPrinterImpl.obj
 0001:0002e680       ?get_ServiceObjectDescription@COPOSFiscalPrinter@@UEAAJPEAPEA_W@Z 000000018002f680 f   FiscalPrinterImpl.obj
 0001:0002e6e0       ?get_ServiceObjectVersion@COPOSFiscalPrinter@@UEAAJPEAJ@Z 000000018002f6e0 f   FiscalPrinterImpl.obj
 0001:0002e740       ?get_DeviceDescription@COPOSFiscalPrinter@@UEAAJPEAPEA_W@Z 000000018002f740 f   FiscalPrinterImpl.obj
 0001:0002e7a0       ?get_DeviceName@COPOSFiscalPrinter@@UEAAJPEAPEA_W@Z 000000018002f7a0 f   FiscalPrinterImpl.obj
 0001:0002e800       ?CheckHealth@COPOSFiscalPrinter@@UEAAJJPEAJ@Z 000000018002f800 f   FiscalPrinterImpl.obj
 0001:0002e8c0       ?ClaimDevice@COPOSFiscalPrinter@@UEAAJJPEAJ@Z 000000018002f8c0 f   FiscalPrinterImpl.obj
 0001:0002e9e0       ?ClearOutput@COPOSFiscalPrinter@@UEAAJPEAJ@Z 000000018002f9e0 f   FiscalPrinterImpl.obj
 0001:0002ea50       ?Close@COPOSFiscalPrinter@@UEAAJPEAJ@Z 000000018002fa50 f   FiscalPrinterImpl.obj
 0001:0002eb60       ?DirectIO@COPOSFiscalPrinter@@UEAAJJPEAJPEAPEA_W0@Z 000000018002fb60 f   FiscalPrinterImpl.obj
 0001:0002ece0       ?Open@COPOSFiscalPrinter@@UEAAJPEA_WPEAJ@Z 000000018002fce0 f   FiscalPrinterImpl.obj
 0001:000301c0       ?ReleaseDevice@COPOSFiscalPrinter@@UEAAJPEAJ@Z 00000001800311c0 f   FiscalPrinterImpl.obj
 0001:00030270       ?get_AmountDecimalPlaces@COPOSFiscalPrinter@@UEAAJPEAJ@Z 0000000180031270 f   FiscalPrinterImpl.obj
 0001:000302d0       ?get_AsyncMode@COPOSFiscalPrinter@@UEAAJPEAF@Z 00000001800312d0 f   FiscalPrinterImpl.obj
 0001:00030330       ?put_AsyncMode@COPOSFiscalPrinter@@UEAAJF@Z 0000000180031330 f   FiscalPrinterImpl.obj
 0001:00030390       ?get_CapAdditionalLines@COPOSFiscalPrinter@@UEAAJPEAF@Z 0000000180031390 f   FiscalPrinterImpl.obj
 0001:000303f0       ?get_CapAmountAdjustment@COPOSFiscalPrinter@@UEAAJPEAF@Z 00000001800313f0 f   FiscalPrinterImpl.obj
 0001:00030450       ?get_CapAmountNotPaid@COPOSFiscalPrinter@@UEAAJPEAF@Z 0000000180031450 f   FiscalPrinterImpl.obj
 0001:000304b0       ?get_CapCheckTotal@COPOSFiscalPrinter@@UEAAJPEAF@Z 00000001800314b0 f   FiscalPrinterImpl.obj
 0001:00030510       ?get_CapCoverSensor@COPOSFiscalPrinter@@UEAAJPEAF@Z 0000000180031510 f   FiscalPrinterImpl.obj
 0001:00030570       ?get_CapDoubleWidth@COPOSFiscalPrinter@@UEAAJPEAF@Z 0000000180031570 f   FiscalPrinterImpl.obj
 0001:000305d0       ?get_CapDuplicateReceipt@COPOSFiscalPrinter@@UEAAJPEAF@Z 00000001800315d0 f   FiscalPrinterImpl.obj
 0001:00030630       ?get_CapFixedOutput@COPOSFiscalPrinter@@UEAAJPEAF@Z 0000000180031630 f   FiscalPrinterImpl.obj
 0001:00030690       ?get_CapHasVatTable@COPOSFiscalPrinter@@UEAAJPEAF@Z 0000000180031690 f   FiscalPrinterImpl.obj
 0001:000306f0       ?get_CapIndependentHeader@COPOSFiscalPrinter@@UEAAJPEAF@Z 00000001800316f0 f   FiscalPrinterImpl.obj
 0001:00030750       ?get_CapItemList@COPOSFiscalPrinter@@UEAAJPEAF@Z 0000000180031750 f   FiscalPrinterImpl.obj
 0001:000307b0       ?get_CapJrnEmptySensor@COPOSFiscalPrinter@@UEAAJPEAF@Z 00000001800317b0 f   FiscalPrinterImpl.obj
 0001:00030810       ?get_CapJrnNearEndSensor@COPOSFiscalPrinter@@UEAAJPEAF@Z 0000000180031810 f   FiscalPrinterImpl.obj
 0001:00030870       ?get_CapJrnPresent@COPOSFiscalPrinter@@UEAAJPEAF@Z 0000000180031870 f   FiscalPrinterImpl.obj
 0001:000308d0       ?get_CapNonFiscalMode@COPOSFiscalPrinter@@UEAAJPEAF@Z 00000001800318d0 f   FiscalPrinterImpl.obj
 0001:00030930       ?get_CapOrderAdjustmentFirst@COPOSFiscalPrinter@@UEAAJPEAF@Z 0000000180031930 f   FiscalPrinterImpl.obj
 0001:00030990       ?get_CapPercentAdjustment@COPOSFiscalPrinter@@UEAAJPEAF@Z 0000000180031990 f   FiscalPrinterImpl.obj
 0001:000309f0       ?get_CapPositiveAdjustment@COPOSFiscalPrinter@@UEAAJPEAF@Z 00000001800319f0 f   FiscalPrinterImpl.obj
 0001:00030a50       ?get_CapPowerLossReport@COPOSFiscalPrinter@@UEAAJPEAF@Z 0000000180031a50 f   FiscalPrinterImpl.obj
 0001:00030ab0       ?get_CapPredefinedPaymentLines@COPOSFiscalPrinter@@UEAAJPEAF@Z 0000000180031ab0 f   FiscalPrinterImpl.obj
 0001:00030b10       ?get_CapReceiptNotPaid@COPOSFiscalPrinter@@UEAAJPEAF@Z 0000000180031b10 f   FiscalPrinterImpl.obj
 0001:00030b70       ?get_CapRecEmptySensor@COPOSFiscalPrinter@@UEAAJPEAF@Z 0000000180031b70 f   FiscalPrinterImpl.obj
 0001:00030bd0       ?get_CapRecNearEndSensor@COPOSFiscalPrinter@@UEAAJPEAF@Z 0000000180031bd0 f   FiscalPrinterImpl.obj
 0001:00030c30       ?get_CapRecPresent@COPOSFiscalPrinter@@UEAAJPEAF@Z 0000000180031c30 f   FiscalPrinterImpl.obj
 0001:00030c90       ?get_CapRemainingFiscalMemory@COPOSFiscalPrinter@@UEAAJPEAF@Z 0000000180031c90 f   FiscalPrinterImpl.obj
 0001:00030cf0       ?get_CapReservedWord@COPOSFiscalPrinter@@UEAAJPEAF@Z 0000000180031cf0 f   FiscalPrinterImpl.obj
 0001:00030d50       ?get_CapSetHeader@COPOSFiscalPrinter@@UEAAJPEAF@Z 0000000180031d50 f   FiscalPrinterImpl.obj
 0001:00030db0       ?get_CapSetPOSID@COPOSFiscalPrinter@@UEAAJPEAF@Z 0000000180031db0 f   FiscalPrinterImpl.obj
 0001:00030e10       ?get_CapSetStoreFiscalID@COPOSFiscalPrinter@@UEAAJPEAF@Z 0000000180031e10 f   FiscalPrinterImpl.obj
 0001:00030e70       ?get_CapSetTrailer@COPOSFiscalPrinter@@UEAAJPEAF@Z 0000000180031e70 f   FiscalPrinterImpl.obj
 0001:00030ed0       ?get_CapSetVatTable@COPOSFiscalPrinter@@UEAAJPEAF@Z 0000000180031ed0 f   FiscalPrinterImpl.obj
 0001:00030f30       ?get_CapSlpEmptySensor@COPOSFiscalPrinter@@UEAAJPEAF@Z 0000000180031f30 f   FiscalPrinterImpl.obj
 0001:00030f90       ?get_CapSlpFiscalDocument@COPOSFiscalPrinter@@UEAAJPEAF@Z 0000000180031f90 f   FiscalPrinterImpl.obj
 0001:00030ff0       ?get_CapSlpFullSlip@COPOSFiscalPrinter@@UEAAJPEAF@Z 0000000180031ff0 f   FiscalPrinterImpl.obj
 0001:00031050       ?get_CapSlpNearEndSensor@COPOSFiscalPrinter@@UEAAJPEAF@Z 0000000180032050 f   FiscalPrinterImpl.obj
 0001:000310b0       ?get_CapSlpPresent@COPOSFiscalPrinter@@UEAAJPEAF@Z 00000001800320b0 f   FiscalPrinterImpl.obj
 0001:00031110       ?get_CapSlpValidation@COPOSFiscalPrinter@@UEAAJPEAF@Z 0000000180032110 f   FiscalPrinterImpl.obj
 0001:00031170       ?get_CapSubAmountAdjustment@COPOSFiscalPrinter@@UEAAJPEAF@Z 0000000180032170 f   FiscalPrinterImpl.obj
 0001:000311d0       ?get_CapSubPercentAdjustment@COPOSFiscalPrinter@@UEAAJPEAF@Z 00000001800321d0 f   FiscalPrinterImpl.obj
 0001:00031230       ?get_CapSubtotal@COPOSFiscalPrinter@@UEAAJPEAF@Z 0000000180032230 f   FiscalPrinterImpl.obj
 0001:00031290       ?get_CapTrainingMode@COPOSFiscalPrinter@@UEAAJPEAF@Z 0000000180032290 f   FiscalPrinterImpl.obj
 0001:000312f0       ?get_CapValidateJournal@COPOSFiscalPrinter@@UEAAJPEAF@Z 00000001800322f0 f   FiscalPrinterImpl.obj
 0001:00031350       ?get_CapXReport@COPOSFiscalPrinter@@UEAAJPEAF@Z 0000000180032350 f   FiscalPrinterImpl.obj
 0001:000313b0       ?get_CheckTotal@COPOSFiscalPrinter@@UEAAJPEAF@Z 00000001800323b0 f   FiscalPrinterImpl.obj
 0001:00031410       ?put_CheckTotal@COPOSFiscalPrinter@@UEAAJF@Z 0000000180032410 f   FiscalPrinterImpl.obj
 0001:00031470       ?get_CountryCode@COPOSFiscalPrinter@@UEAAJPEAJ@Z 0000000180032470 f   FiscalPrinterImpl.obj
 0001:000314d0       ?get_CoverOpen@COPOSFiscalPrinter@@UEAAJPEAF@Z 00000001800324d0 f   FiscalPrinterImpl.obj
 0001:00031530       ?get_DayOpened@COPOSFiscalPrinter@@UEAAJPEAF@Z 0000000180032530 f   FiscalPrinterImpl.obj
 0001:00031590       ?get_DescriptionLength@COPOSFiscalPrinter@@UEAAJPEAJ@Z 0000000180032590 f   FiscalPrinterImpl.obj
 0001:000315f0       ?get_DuplicateReceipt@COPOSFiscalPrinter@@UEAAJPEAF@Z 00000001800325f0 f   FiscalPrinterImpl.obj
 0001:00031650       ?put_DuplicateReceipt@COPOSFiscalPrinter@@UEAAJF@Z 0000000180032650 f   FiscalPrinterImpl.obj
 0001:000316b0       ?get_ErrorLevel@COPOSFiscalPrinter@@UEAAJPEAJ@Z 00000001800326b0 f   FiscalPrinterImpl.obj
 0001:00031710       ?get_ErrorOutID@COPOSFiscalPrinter@@UEAAJPEAJ@Z 0000000180032710 f   FiscalPrinterImpl.obj
 0001:00031770       ?get_ErrorState@COPOSFiscalPrinter@@UEAAJPEAJ@Z 0000000180032770 f   FiscalPrinterImpl.obj
 0001:000317d0       ?get_ErrorStation@COPOSFiscalPrinter@@UEAAJPEAJ@Z 00000001800327d0 f   FiscalPrinterImpl.obj
 0001:00031830       ?get_ErrorString@COPOSFiscalPrinter@@UEAAJPEAPEA_W@Z 0000000180032830 f   FiscalPrinterImpl.obj
 0001:00031890       ?get_FlagWhenIdle@COPOSFiscalPrinter@@UEAAJPEAF@Z 0000000180032890 f   FiscalPrinterImpl.obj
 0001:000318f0       ?put_FlagWhenIdle@COPOSFiscalPrinter@@UEAAJF@Z 00000001800328f0 f   FiscalPrinterImpl.obj
 0001:00031950       ?get_JrnEmpty@COPOSFiscalPrinter@@UEAAJPEAF@Z 0000000180032950 f   FiscalPrinterImpl.obj
 0001:000319b0       ?get_JrnNearEnd@COPOSFiscalPrinter@@UEAAJPEAF@Z 00000001800329b0 f   FiscalPrinterImpl.obj
 0001:00031a10       ?get_MessageLength@COPOSFiscalPrinter@@UEAAJPEAJ@Z 0000000180032a10 f   FiscalPrinterImpl.obj
 0001:00031a70       ?get_NumHeaderLines@COPOSFiscalPrinter@@UEAAJPEAJ@Z 0000000180032a70 f   FiscalPrinterImpl.obj
 0001:00031ad0       ?get_NumTrailerLines@COPOSFiscalPrinter@@UEAAJPEAJ@Z 0000000180032ad0 f   FiscalPrinterImpl.obj
 0001:00031b30       ?get_NumVatRates@COPOSFiscalPrinter@@UEAAJPEAJ@Z 0000000180032b30 f   FiscalPrinterImpl.obj
 0001:00031b90       ?get_PredefinedPaymentLines@COPOSFiscalPrinter@@UEAAJPEAPEA_W@Z 0000000180032b90 f   FiscalPrinterImpl.obj
 0001:00031bf0       ?get_PrinterState@COPOSFiscalPrinter@@UEAAJPEAJ@Z 0000000180032bf0 f   FiscalPrinterImpl.obj
 0001:00031c50       ?get_QuantityDecimalPlaces@COPOSFiscalPrinter@@UEAAJPEAJ@Z 0000000180032c50 f   FiscalPrinterImpl.obj
 0001:00031cb0       ?get_QuantityLength@COPOSFiscalPrinter@@UEAAJPEAJ@Z 0000000180032cb0 f   FiscalPrinterImpl.obj
 0001:00031d10       ?get_RecEmpty@COPOSFiscalPrinter@@UEAAJPEAF@Z 0000000180032d10 f   FiscalPrinterImpl.obj
 0001:00031d70       ?get_RecNearEnd@COPOSFiscalPrinter@@UEAAJPEAF@Z 0000000180032d70 f   FiscalPrinterImpl.obj
 0001:00031dd0       ?get_RemainingFiscalMemory@COPOSFiscalPrinter@@UEAAJPEAJ@Z 0000000180032dd0 f   FiscalPrinterImpl.obj
 0001:00031e30       ?get_ReservedWord@COPOSFiscalPrinter@@UEAAJPEAPEA_W@Z 0000000180032e30 f   FiscalPrinterImpl.obj
 0001:00031e90       ?get_SlipSelection@COPOSFiscalPrinter@@UEAAJPEAJ@Z 0000000180032e90 f   FiscalPrinterImpl.obj
 0001:00031ef0       ?put_SlipSelection@COPOSFiscalPrinter@@UEAAJJ@Z 0000000180032ef0 f   FiscalPrinterImpl.obj
 0001:00031f50       ?get_SlpEmpty@COPOSFiscalPrinter@@UEAAJPEAF@Z 0000000180032f50 f   FiscalPrinterImpl.obj
 0001:00031fb0       ?get_SlpNearEnd@COPOSFiscalPrinter@@UEAAJPEAF@Z 0000000180032fb0 f   FiscalPrinterImpl.obj
 0001:00032010       ?get_TrainingModeActive@COPOSFiscalPrinter@@UEAAJPEAF@Z 0000000180033010 f   FiscalPrinterImpl.obj
 0001:00032070       ?BeginFiscalDocument@COPOSFiscalPrinter@@UEAAJJPEAJ@Z 0000000180033070 f   FiscalPrinterImpl.obj
 0001:00032130       ?BeginFiscalReceipt@COPOSFiscalPrinter@@UEAAJFPEAJ@Z 0000000180033130 f   FiscalPrinterImpl.obj
 0001:000321f0       ?BeginFixedOutput@COPOSFiscalPrinter@@UEAAJJJPEAJ@Z 00000001800331f0 f   FiscalPrinterImpl.obj
 0001:00032310       ?BeginInsertion@COPOSFiscalPrinter@@UEAAJJPEAJ@Z 0000000180033310 f   FiscalPrinterImpl.obj
 0001:000323d0       ?BeginItemList@COPOSFiscalPrinter@@UEAAJJPEAJ@Z 00000001800333d0 f   FiscalPrinterImpl.obj
 0001:00032490       ?BeginNonFiscal@COPOSFiscalPrinter@@UEAAJPEAJ@Z 0000000180033490 f   FiscalPrinterImpl.obj
 0001:00032500       ?BeginRemoval@COPOSFiscalPrinter@@UEAAJJPEAJ@Z 0000000180033500 f   FiscalPrinterImpl.obj
 0001:000325c0       ?BeginTraining@COPOSFiscalPrinter@@UEAAJPEAJ@Z 00000001800335c0 f   FiscalPrinterImpl.obj
 0001:00032630       ?ClearError@COPOSFiscalPrinter@@UEAAJPEAJ@Z 0000000180033630 f   FiscalPrinterImpl.obj
 0001:000326a0       ?EndFiscalDocument@COPOSFiscalPrinter@@UEAAJPEAJ@Z 00000001800336a0 f   FiscalPrinterImpl.obj
 0001:00032710       ?EndFiscalReceipt@COPOSFiscalPrinter@@UEAAJFPEAJ@Z 0000000180033710 f   FiscalPrinterImpl.obj
 0001:000327d0       ?EndFixedOutput@COPOSFiscalPrinter@@UEAAJPEAJ@Z 00000001800337d0 f   FiscalPrinterImpl.obj
 0001:00032840       ?EndInsertion@COPOSFiscalPrinter@@UEAAJPEAJ@Z 0000000180033840 f   FiscalPrinterImpl.obj
 0001:000328b0       ?EndItemList@COPOSFiscalPrinter@@UEAAJPEAJ@Z 00000001800338b0 f   FiscalPrinterImpl.obj
 0001:00032920       ?EndNonFiscal@COPOSFiscalPrinter@@UEAAJPEAJ@Z 0000000180033920 f   FiscalPrinterImpl.obj
 0001:00032990       ?EndRemoval@COPOSFiscalPrinter@@UEAAJPEAJ@Z 0000000180033990 f   FiscalPrinterImpl.obj
 0001:00032a00       ?EndTraining@COPOSFiscalPrinter@@UEAAJPEAJ@Z 0000000180033a00 f   FiscalPrinterImpl.obj
 0001:00032a70       ?GetData@COPOSFiscalPrinter@@UEAAJJPEAJPEAPEA_W0@Z 0000000180033a70 f   FiscalPrinterImpl.obj
 0001:00032bf0       ?GetDate@COPOSFiscalPrinter@@UEAAJPEAPEA_WPEAJ@Z 0000000180033bf0 f   FiscalPrinterImpl.obj
 0001:00032cd0       ?GetTotalizer@COPOSFiscalPrinter@@UEAAJJJPEAPEA_WPEAJ@Z 0000000180033cd0 f   FiscalPrinterImpl.obj
 0001:00032e40       ?GetVatEntry@COPOSFiscalPrinter@@UEAAJJJPEAJ0@Z 0000000180033e40 f   FiscalPrinterImpl.obj
 0001:00032fb0       ?PrintDuplicateReceipt@COPOSFiscalPrinter@@UEAAJPEAJ@Z 0000000180033fb0 f   FiscalPrinterImpl.obj
 0001:00033020       ?PrintFiscalDocumentLine@COPOSFiscalPrinter@@UEAAJPEA_WPEAJ@Z 0000000180034020 f   FiscalPrinterImpl.obj
 0001:00033100       ?PrintFixedOutput@COPOSFiscalPrinter@@UEAAJJJPEA_WPEAJ@Z 0000000180034100 f   FiscalPrinterImpl.obj
 0001:00033270       ?PrintNormal@COPOSFiscalPrinter@@UEAAJJPEA_WPEAJ@Z 0000000180034270 f   FiscalPrinterImpl.obj
 0001:000333a0       ?PrintPeriodicTotalsReport@COPOSFiscalPrinter@@UEAAJPEA_W0PEAJ@Z 00000001800343a0 f   FiscalPrinterImpl.obj
 0001:000334e0       ?PrintPowerLossReport@COPOSFiscalPrinter@@UEAAJPEAJ@Z 00000001800344e0 f   FiscalPrinterImpl.obj
 0001:00033550       ?PrintRecItem@COPOSFiscalPrinter@@UEAAJPEA_WTtagCY@@JJ10PEAJ@Z 0000000180034550 f   FiscalPrinterImpl.obj
 0001:00033720       ?PrintRecItemAdjustment@COPOSFiscalPrinter@@UEAAJJPEA_WTtagCY@@JPEAJ@Z 0000000180034720 f   FiscalPrinterImpl.obj
 0001:000338b0       ?PrintRecMessage@COPOSFiscalPrinter@@UEAAJPEA_WPEAJ@Z 00000001800348b0 f   FiscalPrinterImpl.obj
 0001:00033990       ?PrintRecNotPaid@COPOSFiscalPrinter@@UEAAJPEA_WTtagCY@@PEAJ@Z 0000000180034990 f   FiscalPrinterImpl.obj
 0001:00033ac0       ?PrintRecRefund@COPOSFiscalPrinter@@UEAAJPEA_WTtagCY@@JPEAJ@Z 0000000180034ac0 f   FiscalPrinterImpl.obj
 0001:00033c30       ?PrintRecSubtotal@COPOSFiscalPrinter@@UEAAJTtagCY@@PEAJ@Z 0000000180034c30 f   FiscalPrinterImpl.obj
 0001:00033cf0       ?PrintRecSubtotalAdjustment@COPOSFiscalPrinter@@UEAAJJPEA_WTtagCY@@PEAJ@Z 0000000180034cf0 f   FiscalPrinterImpl.obj
 0001:00033e60       ?PrintRecTotal@COPOSFiscalPrinter@@UEAAJTtagCY@@0PEA_WPEAJ@Z 0000000180034e60 f   FiscalPrinterImpl.obj
 0001:00033fd0       ?PrintRecVoid@COPOSFiscalPrinter@@UEAAJPEA_WPEAJ@Z 0000000180034fd0 f   FiscalPrinterImpl.obj
 0001:000340b0       ?PrintRecVoidItem@COPOSFiscalPrinter@@UEAAJPEA_WTtagCY@@JJ1JPEAJ@Z 00000001800350b0 f   FiscalPrinterImpl.obj
 0001:00034280       ?PrintReport@COPOSFiscalPrinter@@UEAAJJPEA_W0PEAJ@Z 0000000180035280 f   FiscalPrinterImpl.obj
 0001:00034400       ?PrintXReport@COPOSFiscalPrinter@@UEAAJPEAJ@Z 0000000180035400 f   FiscalPrinterImpl.obj
 0001:00034470       ?PrintZReport@COPOSFiscalPrinter@@UEAAJPEAJ@Z 0000000180035470 f   FiscalPrinterImpl.obj
 0001:000344e0       ?ResetPrinterW@COPOSFiscalPrinter@@UEAAJPEAJ@Z 00000001800354e0 f   FiscalPrinterImpl.obj
 0001:00034550       ?SetDate@COPOSFiscalPrinter@@UEAAJPEA_WPEAJ@Z 0000000180035550 f   FiscalPrinterImpl.obj
 0001:00034630       ?SetHeaderLine@COPOSFiscalPrinter@@UEAAJJPEA_WFPEAJ@Z 0000000180035630 f   FiscalPrinterImpl.obj
 0001:000347a0       ?SetPOSID@COPOSFiscalPrinter@@UEAAJPEA_W0PEAJ@Z 00000001800357a0 f   FiscalPrinterImpl.obj
 0001:000348e0       ?SetStoreFiscalID@COPOSFiscalPrinter@@UEAAJPEA_WPEAJ@Z 00000001800358e0 f   FiscalPrinterImpl.obj
 0001:000349c0       ?SetTrailerLine@COPOSFiscalPrinter@@UEAAJJPEA_WFPEAJ@Z 00000001800359c0 f   FiscalPrinterImpl.obj
 0001:00034b30       ?SetVatTable@COPOSFiscalPrinter@@UEAAJPEAJ@Z 0000000180035b30 f   FiscalPrinterImpl.obj
 0001:00034ba0       ?SetVatValue@COPOSFiscalPrinter@@UEAAJJPEA_WPEAJ@Z 0000000180035ba0 f   FiscalPrinterImpl.obj
 0001:00034cd0       ?VerifyItem@COPOSFiscalPrinter@@UEAAJPEA_WJPEAJ@Z 0000000180035cd0 f   FiscalPrinterImpl.obj
 0001:00034e00       ?get_ActualCurrency@COPOSFiscalPrinter@@UEAAJPEAJ@Z 0000000180035e00 f   FiscalPrinterImpl.obj
 0001:00034e60       ?get_AdditionalHeader@COPOSFiscalPrinter@@UEAAJPEAPEA_W@Z 0000000180035e60 f   FiscalPrinterImpl.obj
 0001:00034ec0       ?put_AdditionalHeader@COPOSFiscalPrinter@@UEAAJPEA_W@Z 0000000180035ec0 f   FiscalPrinterImpl.obj
 0001:00034f20       ?get_AdditionalTrailer@COPOSFiscalPrinter@@UEAAJPEAPEA_W@Z 0000000180035f20 f   FiscalPrinterImpl.obj
 0001:00034f80       ?put_AdditionalTrailer@COPOSFiscalPrinter@@UEAAJPEA_W@Z 0000000180035f80 f   FiscalPrinterImpl.obj
 0001:00034fe0       ?get_CapAdditionalHeader@COPOSFiscalPrinter@@UEAAJPEAF@Z 0000000180035fe0 f   FiscalPrinterImpl.obj
 0001:00035040       ?get_CapAdditionalTrailer@COPOSFiscalPrinter@@UEAAJPEAF@Z 0000000180036040 f   FiscalPrinterImpl.obj
 0001:000350a0       ?get_CapChangeDue@COPOSFiscalPrinter@@UEAAJPEAF@Z 00000001800360a0 f   FiscalPrinterImpl.obj
 0001:00035100       ?get_CapEmptyReceiptIsVoidable@COPOSFiscalPrinter@@UEAAJPEAF@Z 0000000180036100 f   FiscalPrinterImpl.obj
 0001:00035160       ?get_CapFiscalReceiptStation@COPOSFiscalPrinter@@UEAAJPEAF@Z 0000000180036160 f   FiscalPrinterImpl.obj
 0001:000351c0       ?get_CapFiscalReceiptType@COPOSFiscalPrinter@@UEAAJPEAF@Z 00000001800361c0 f   FiscalPrinterImpl.obj
 0001:00035220       ?get_CapMultiContractor@COPOSFiscalPrinter@@UEAAJPEAF@Z 0000000180036220 f   FiscalPrinterImpl.obj
 0001:00035280       ?get_CapOnlyVoidLastItem@COPOSFiscalPrinter@@UEAAJPEAF@Z 0000000180036280 f   FiscalPrinterImpl.obj
 0001:000352e0       ?get_CapPackageAdjustment@COPOSFiscalPrinter@@UEAAJPEAF@Z 00000001800362e0 f   FiscalPrinterImpl.obj
 0001:00035340       ?get_CapPostPreLine@COPOSFiscalPrinter@@UEAAJPEAF@Z 0000000180036340 f   FiscalPrinterImpl.obj
 0001:000353a0       ?get_CapSetCurrency@COPOSFiscalPrinter@@UEAAJPEAF@Z 00000001800363a0 f   FiscalPrinterImpl.obj
 0001:00035400       ?get_CapTotalizerType@COPOSFiscalPrinter@@UEAAJPEAF@Z 0000000180036400 f   FiscalPrinterImpl.obj
 0001:00035460       ?get_ChangeDue@COPOSFiscalPrinter@@UEAAJPEAPEA_W@Z 0000000180036460 f   FiscalPrinterImpl.obj
 0001:000354c0       ?put_ChangeDue@COPOSFiscalPrinter@@UEAAJPEA_W@Z 00000001800364c0 f   FiscalPrinterImpl.obj
 0001:00035520       ?get_ContractorId@COPOSFiscalPrinter@@UEAAJPEAJ@Z 0000000180036520 f   FiscalPrinterImpl.obj
 0001:00035580       ?put_ContractorId@COPOSFiscalPrinter@@UEAAJJ@Z 0000000180036580 f   FiscalPrinterImpl.obj
 0001:000355e0       ?get_DateType@COPOSFiscalPrinter@@UEAAJPEAJ@Z 00000001800365e0 f   FiscalPrinterImpl.obj
 0001:00035640       ?put_DateType@COPOSFiscalPrinter@@UEAAJJ@Z 0000000180036640 f   FiscalPrinterImpl.obj
 0001:000356a0       ?get_FiscalReceiptStation@COPOSFiscalPrinter@@UEAAJPEAJ@Z 00000001800366a0 f   FiscalPrinterImpl.obj
 0001:00035700       ?put_FiscalReceiptStation@COPOSFiscalPrinter@@UEAAJJ@Z 0000000180036700 f   FiscalPrinterImpl.obj
 0001:00035760       ?get_FiscalReceiptType@COPOSFiscalPrinter@@UEAAJPEAJ@Z 0000000180036760 f   FiscalPrinterImpl.obj
 0001:000357c0       ?put_FiscalReceiptType@COPOSFiscalPrinter@@UEAAJJ@Z 00000001800367c0 f   FiscalPrinterImpl.obj
 0001:00035820       ?get_MessageType@COPOSFiscalPrinter@@UEAAJPEAJ@Z 0000000180036820 f   FiscalPrinterImpl.obj
 0001:00035880       ?put_MessageType@COPOSFiscalPrinter@@UEAAJJ@Z 0000000180036880 f   FiscalPrinterImpl.obj
 0001:000358e0       ?get_PostLine@COPOSFiscalPrinter@@UEAAJPEAPEA_W@Z 00000001800368e0 f   FiscalPrinterImpl.obj
 0001:00035940       ?put_PostLine@COPOSFiscalPrinter@@UEAAJPEA_W@Z 0000000180036940 f   FiscalPrinterImpl.obj
 0001:000359a0       ?get_PreLine@COPOSFiscalPrinter@@UEAAJPEAPEA_W@Z 00000001800369a0 f   FiscalPrinterImpl.obj
 0001:00035a00       ?put_PreLine@COPOSFiscalPrinter@@UEAAJPEA_W@Z 0000000180036a00 f   FiscalPrinterImpl.obj
 0001:00035a60       ?get_TotalizerType@COPOSFiscalPrinter@@UEAAJPEAJ@Z 0000000180036a60 f   FiscalPrinterImpl.obj
 0001:00035ac0       ?put_TotalizerType@COPOSFiscalPrinter@@UEAAJJ@Z 0000000180036ac0 f   FiscalPrinterImpl.obj
 0001:00035b20       ?PrintRecCash@COPOSFiscalPrinter@@UEAAJTtagCY@@PEAJ@Z 0000000180036b20 f   FiscalPrinterImpl.obj
 0001:00035be0       ?PrintRecItemFuel@COPOSFiscalPrinter@@UEAAJPEA_WTtagCY@@JJ1010PEAJ@Z 0000000180036be0 f   FiscalPrinterImpl.obj
 0001:00035e00       ?PrintRecItemFuelVoid@COPOSFiscalPrinter@@UEAAJPEA_WTtagCY@@J1PEAJ@Z 0000000180036e00 f   FiscalPrinterImpl.obj
 0001:00035f90       ?PrintRecPackageAdjustment@COPOSFiscalPrinter@@UEAAJJPEA_W0PEAJ@Z 0000000180036f90 f   FiscalPrinterImpl.obj
 0001:00036110       ?PrintRecPackageAdjustVoid@COPOSFiscalPrinter@@UEAAJJPEA_WPEAJ@Z 0000000180037110 f   FiscalPrinterImpl.obj
 0001:00036240       ?PrintRecRefundVoid@COPOSFiscalPrinter@@UEAAJPEA_WTtagCY@@JPEAJ@Z 0000000180037240 f   FiscalPrinterImpl.obj
 0001:000363b0       ?PrintRecSubtotalAdjustVoid@COPOSFiscalPrinter@@UEAAJJTtagCY@@PEAJ@Z 00000001800373b0 f   FiscalPrinterImpl.obj
 0001:000364d0       ?PrintRecTaxID@COPOSFiscalPrinter@@UEAAJPEA_WPEAJ@Z 00000001800374d0 f   FiscalPrinterImpl.obj
 0001:000365b0       ?SetCurrency@COPOSFiscalPrinter@@UEAAJJPEAJ@Z 00000001800375b0 f   FiscalPrinterImpl.obj
 0001:00036670       ?get_CapStatisticsReporting@COPOSFiscalPrinter@@UEAAJPEAF@Z 0000000180037670 f   FiscalPrinterImpl.obj
 0001:000366d0       ?get_CapUpdateStatistics@COPOSFiscalPrinter@@UEAAJPEAF@Z 00000001800376d0 f   FiscalPrinterImpl.obj
 0001:00036730       ?ResetStatistics@COPOSFiscalPrinter@@UEAAJPEA_WPEAJ@Z 0000000180037730 f   FiscalPrinterImpl.obj
 0001:00036810       ?RetrieveStatistics@COPOSFiscalPrinter@@UEAAJPEAPEA_WPEAJ@Z 0000000180037810 f   FiscalPrinterImpl.obj
 0001:000368f0       ?UpdateStatistics@COPOSFiscalPrinter@@UEAAJPEA_WPEAJ@Z 00000001800378f0 f   FiscalPrinterImpl.obj
 0001:000369d0       ?get_CapCompareFirmwareVersion@COPOSFiscalPrinter@@UEAAJPEAF@Z 00000001800379d0 f   FiscalPrinterImpl.obj
 0001:00036a30       ?get_CapUpdateFirmware@COPOSFiscalPrinter@@UEAAJPEAF@Z 0000000180037a30 f   FiscalPrinterImpl.obj
 0001:00036a90       ?CompareFirmwareVersion@COPOSFiscalPrinter@@UEAAJPEA_WPEAJ1@Z 0000000180037a90 f   FiscalPrinterImpl.obj
 0001:00036bd0       ?UpdateFirmware@COPOSFiscalPrinter@@UEAAJPEA_WPEAJ@Z 0000000180037bd0 f   FiscalPrinterImpl.obj
 0001:00036cb0       ?get_CapPositiveSubtotalAdjustment@COPOSFiscalPrinter@@UEAAJPEAF@Z 0000000180037cb0 f   FiscalPrinterImpl.obj
 0001:00036d10       ?PrintRecItemAdjustmentVoid@COPOSFiscalPrinter@@UEAAJJPEA_WTtagCY@@JPEAJ@Z 0000000180037d10 f   FiscalPrinterImpl.obj
 0001:00036ea0       ?PrintRecItemVoid@COPOSFiscalPrinter@@UEAAJPEA_WTtagCY@@JJ10PEAJ@Z 0000000180037ea0 f   FiscalPrinterImpl.obj
 0001:00037070       ?PrintRecItemRefund@COPOSFiscalPrinter@@UEAAJPEA_WTtagCY@@JJ10PEAJ@Z 0000000180038070 f   FiscalPrinterImpl.obj
 0001:00037240       ?PrintRecItemRefundVoid@COPOSFiscalPrinter@@UEAAJPEA_WTtagCY@@JJ10PEAJ@Z 0000000180038240 f   FiscalPrinterImpl.obj
 0001:00037410       ??0?$CComControl@VCOPOSFiscalPrinter@@V?$CWindowImpl@VCOPOSFiscalPrinter@@VCWindow@ATL@@V?$CWinTraits@$0FGAAAAAA@$0A@@3@@ATL@@@ATL@@QEAA@XZ 0000000180038410 f i FiscalPrinterImpl.obj
 0001:00037460       ??0?$CComPtr@UIAdviseSink@@@ATL@@QEAA@XZ 0000000180038460 f i FiscalPrinterImpl.obj
 0001:000374a0       ??0?$CComPtr@UIDataAdviseHolder@@@ATL@@QEAA@XZ 00000001800384a0 f i FiscalPrinterImpl.obj
 0001:000374e0       ??0?$CComPtr@UIOleAdviseHolder@@@ATL@@QEAA@XZ 00000001800384e0 f i FiscalPrinterImpl.obj
 0001:00037520       ??0?$CComPtr@UIOleClientSite@@@ATL@@QEAA@XZ 0000000180038520 f i FiscalPrinterImpl.obj
 0001:00037560       ??0?$CComPtr@UIOleInPlaceSiteWindowless@@@ATL@@QEAA@XZ 0000000180038560 f i FiscalPrinterImpl.obj
 0001:000375a0       ??0?$CComPtrBase@UIAdviseSink@@@ATL@@IEAA@XZ 00000001800385a0 f i FiscalPrinterImpl.obj
 0001:000375c0       ??0?$CComPtrBase@UIDataAdviseHolder@@@ATL@@IEAA@XZ 00000001800385c0 f i FiscalPrinterImpl.obj
 0001:000375e0       ??0?$CComPtrBase@UIOleAdviseHolder@@@ATL@@IEAA@XZ 00000001800385e0 f i FiscalPrinterImpl.obj
 0001:00037600       ??0?$CComPtrBase@UIOleClientSite@@@ATL@@IEAA@XZ 0000000180038600 f i FiscalPrinterImpl.obj
 0001:00037620       ??0?$CComPtrBase@UIOleInPlaceSiteWindowless@@@ATL@@IEAA@XZ 0000000180038620 f i FiscalPrinterImpl.obj
 0001:00037640       ??0?$CComQIPtr@UIDispatch@@$1?_GUID_00020400_0000_0000_c000_000000000046@@3U__s_GUID@@B@ATL@@QEAA@XZ 0000000180038640 f i FiscalPrinterImpl.obj
 0001:00037680       ??0?$CProxy_IOPOSEvents@VCOPOSFiscalPrinter@@@@QEAA@PEAVCOPOSFiscalPrinter@@@Z 0000000180038680 f i FiscalPrinterImpl.obj
 0001:00037710       ??0?$CWindowImpl@VCOPOSFiscalPrinter@@VCWindow@ATL@@V?$CWinTraits@$0FGAAAAAA@$0A@@3@@ATL@@QEAA@XZ 0000000180038710 f i FiscalPrinterImpl.obj
 0001:00037750       ??0?$CWindowImplBaseT@VCWindow@ATL@@V?$CWinTraits@$0FGAAAAAA@$0A@@2@@ATL@@QEAA@XZ 0000000180038750 f i FiscalPrinterImpl.obj
 0001:000377a0       ??0?$CWindowImplRoot@VCWindow@ATL@@@ATL@@QEAA@XZ 00000001800387a0 f i FiscalPrinterImpl.obj
 0001:00037810       ??0?$IConnectionPointContainerImpl@VCOPOSFiscalPrinter@@@ATL@@QEAA@XZ 0000000180038810 f i FiscalPrinterImpl.obj
 0001:00037850       ??0?$IConnectionPointImpl@VCOPOSFiscalPrinter@@$1?DIID__IOPOSFiscalPrinterEvents@@3U_GUID@@BVCComDynamicUnkArray@ATL@@@ATL@@QEAA@XZ 0000000180038850 f i FiscalPrinterImpl.obj
 0001:000378a0       ??0?$IConnectionPointImpl@VCOPOSFiscalPrinter@@$1?IID_IPropertyNotifySink@@3U_GUID@@BVCComDynamicUnkArray@ATL@@@ATL@@QEAA@XZ 00000001800388a0 f i FiscalPrinterImpl.obj
 0001:000378f0       ??0?$IDataObjectImpl@VCOPOSFiscalPrinter@@@ATL@@QEAA@XZ 00000001800388f0 f i FiscalPrinterImpl.obj
 0001:00037930       ??0?$IDispatchImpl@UIOPOSFiscalPrinter@@$1?IID_IOPOSFiscalPrinter@@3U_GUID@@B$1?LIBID_OposFiscalPrinter_CCO@@3U3@B$00$0A@VCComTypeInfoHolder@ATL@@@ATL@@QEAA@XZ 0000000180038930 f i FiscalPrinterImpl.obj
 0001:00037970       ??0?$IObjectSafetyImpl@VCOPOSFiscalPrinter@@$02@ATL@@QEAA@XZ 0000000180038970 f i FiscalPrinterImpl.obj
 0001:000379b0       ??0?$IOleControlImpl@VCOPOSFiscalPrinter@@@ATL@@QEAA@XZ 00000001800389b0 f i FiscalPrinterImpl.obj
 0001:000379f0       ??0?$IOleInPlaceActiveObjectImpl@VCOPOSFiscalPrinter@@@ATL@@QEAA@XZ 00000001800389f0 f i FiscalPrinterImpl.obj
 0001:00037a30       ??0?$IOleInPlaceObjectWindowlessImpl@VCOPOSFiscalPrinter@@@ATL@@QEAA@XZ 0000000180038a30 f i FiscalPrinterImpl.obj
 0001:00037a70       ??0?$IOleObjectImpl@VCOPOSFiscalPrinter@@@ATL@@QEAA@XZ 0000000180038a70 f i FiscalPrinterImpl.obj
 0001:00037ab0       ??0?$IPersistStorageImpl@VCOPOSFiscalPrinter@@@ATL@@QEAA@XZ 0000000180038ab0 f i FiscalPrinterImpl.obj
 0001:00037af0       ??0?$IPersistStreamInitImpl@VCOPOSFiscalPrinter@@@ATL@@QEAA@XZ 0000000180038af0 f i FiscalPrinterImpl.obj
 0001:00037b30       ??0?$IPropertyNotifySinkCP@VCOPOSFiscalPrinter@@VCComDynamicUnkArray@ATL@@@ATL@@QEAA@XZ 0000000180038b30 f i FiscalPrinterImpl.obj
 0001:00037b70       ??0?$IProvideClassInfo2Impl@$1?CLSID_OPOSFiscalPrinter@@3U_GUID@@B$1?DIID__IOPOSFiscalPrinterEvents@@3U2@B$1?LIBID_OposFiscalPrinter_CCO@@3U2@B$00$0A@VCComTypeInfoHolder@ATL@@@ATL@@QEAA@XZ 0000000180038b70 f i FiscalPrinterImpl.obj
 0001:00037bb0       ??0?$IQuickActivateImpl@VCOPOSFiscalPrinter@@@ATL@@QEAA@XZ 0000000180038bb0 f i FiscalPrinterImpl.obj
 0001:00037bf0       ??0?$ISpecifyPropertyPagesImpl@VCOPOSFiscalPrinter@@@ATL@@QEAA@XZ 0000000180038bf0 f i FiscalPrinterImpl.obj
 0001:00037c30       ??0?$IViewObjectExImpl@VCOPOSFiscalPrinter@@@ATL@@QEAA@XZ 0000000180038c30 f i FiscalPrinterImpl.obj
 0001:00037c70       ??0?$_ICPLocator@$1?DIID__IOPOSFiscalPrinterEvents@@3U_GUID@@B@ATL@@QEAA@XZ 0000000180038c70 f i FiscalPrinterImpl.obj
 0001:00037c80       ??0?$_ICPLocator@$1?IID_IPropertyNotifySink@@3U_GUID@@B@ATL@@QEAA@XZ 0000000180038c80 f i FiscalPrinterImpl.obj
 0001:00037c90       ??0CComControlBase@ATL@@QEAA@AEAPEAUHWND__@@@Z 0000000180038c90 f i FiscalPrinterImpl.obj
 0001:00037eb0       ??0CComDynamicUnkArray@ATL@@QEAA@XZ 0000000180038eb0 f i FiscalPrinterImpl.obj
 0001:00037ee0       ??0CDynamicStdCallThunk2@ATL@@QEAA@XZ 0000000180038ee0 f i FiscalPrinterImpl.obj
 0001:00037f00       ??0CMessageMap@ATL@@QEAA@XZ 0000000180038f00 f i FiscalPrinterImpl.obj
 0001:00037f10       ??0CWindow@ATL@@QEAA@PEAUHWND__@@@Z 0000000180038f10 f i FiscalPrinterImpl.obj
 0001:00037f30       ??0CWndProcThunk@ATL@@QEAA@XZ 0000000180038f30 f i FiscalPrinterImpl.obj
 0001:00037f70       ??0IConnectionPointContainer@@QEAA@XZ 0000000180038f70 f i FiscalPrinterImpl.obj
 0001:00037fb0       ??0IDataObject@@QEAA@XZ    0000000180038fb0 f i FiscalPrinterImpl.obj
 0001:00037ff0       ??0IDispatch@@QEAA@XZ      0000000180038ff0 f i FiscalPrinterImpl.obj
 0001:00038030       ??0IOPOSFiscalPrinter@@QEAA@XZ 0000000180039030 f i FiscalPrinterImpl.obj
 0001:00038070       ??0IOPOSFiscalPrinter_1_11@@QEAA@XZ 0000000180039070 f i FiscalPrinterImpl.obj
 0001:000380b0       ??0IOPOSFiscalPrinter_1_12@@QEAA@XZ 00000001800390b0 f i FiscalPrinterImpl.obj
 0001:000380f0       ??0IOPOSFiscalPrinter_1_6@@QEAA@XZ 00000001800390f0 f i FiscalPrinterImpl.obj
 0001:00038130       ??0IOPOSFiscalPrinter_1_8@@QEAA@XZ 0000000180039130 f i FiscalPrinterImpl.obj
 0001:00038170       ??0IOPOSFiscalPrinter_1_9@@QEAA@XZ 0000000180039170 f i FiscalPrinterImpl.obj
 0001:000381b0       ??0IObjectSafety@@QEAA@XZ  00000001800391b0 f i FiscalPrinterImpl.obj
 0001:000381f0       ??0IOleControl@@QEAA@XZ    00000001800391f0 f i FiscalPrinterImpl.obj
 0001:00038230       ??0IOleInPlaceActiveObject@@QEAA@XZ 0000000180039230 f i FiscalPrinterImpl.obj
 0001:00038270       ??0IOleInPlaceObject@@QEAA@XZ 0000000180039270 f i FiscalPrinterImpl.obj
 0001:000382b0       ??0IOleInPlaceObjectWindowless@@QEAA@XZ 00000001800392b0 f i FiscalPrinterImpl.obj
 0001:000382f0       ??0IOleObject@@QEAA@XZ     00000001800392f0 f i FiscalPrinterImpl.obj
 0001:00038330       ??0IOleWindow@@QEAA@XZ     0000000180039330 f i FiscalPrinterImpl.obj
 0001:00038370       ??0IPersist@@QEAA@XZ       0000000180039370 f i FiscalPrinterImpl.obj
 0001:000383b0       ??0IPersistStorage@@QEAA@XZ 00000001800393b0 f i FiscalPrinterImpl.obj
 0001:000383f0       ??0IPersistStreamInit@@QEAA@XZ 00000001800393f0 f i FiscalPrinterImpl.obj
 0001:00038430       ??0IProvideClassInfo2@@QEAA@XZ 0000000180039430 f i FiscalPrinterImpl.obj
 0001:00038470       ??0IProvideClassInfo@@QEAA@XZ 0000000180039470 f i FiscalPrinterImpl.obj
 0001:000384b0       ??0IQuickActivate@@QEAA@XZ 00000001800394b0 f i FiscalPrinterImpl.obj
 0001:000384f0       ??0ISpecifyPropertyPages@@QEAA@XZ 00000001800394f0 f i FiscalPrinterImpl.obj
 0001:00038530       ??0IViewObject2@@QEAA@XZ   0000000180039530 f i FiscalPrinterImpl.obj
 0001:00038570       ??0IViewObject@@QEAA@XZ    0000000180039570 f i FiscalPrinterImpl.obj
 0001:000385b0       ??0IViewObjectEx@@QEAA@XZ  00000001800395b0 f i FiscalPrinterImpl.obj
 0001:000385f0       ??0OposVariantResult@@QEAA@XZ 00000001800395f0 f i FiscalPrinterImpl.obj
 0001:00038630       ??0_CW@@QEAA@PEBD@Z        0000000180039630 f i FiscalPrinterImpl.obj
 0001:00038680       ??0_CW@@QEAA@PEB_W@Z       0000000180039680 f i FiscalPrinterImpl.obj
 0001:000386d0       ??0_CWNCC@@QEAA@PEBD@Z     00000001800396d0 f i FiscalPrinterImpl.obj
 0001:00038710       ??1?$CComControl@VCOPOSFiscalPrinter@@V?$CWindowImpl@VCOPOSFiscalPrinter@@VCWindow@ATL@@V?$CWinTraits@$0FGAAAAAA@$0A@@3@@ATL@@@ATL@@UEAA@XZ 0000000180039710 f i FiscalPrinterImpl.obj
 0001:00038750       ??1?$CComPtr@UIDataAdviseHolder@@@ATL@@QEAA@XZ 0000000180039750 f i FiscalPrinterImpl.obj
 0001:00038780       ??1?$CComPtr@UIOleAdviseHolder@@@ATL@@QEAA@XZ 0000000180039780 f i FiscalPrinterImpl.obj
 0001:000387b0       ??1?$CComPtr@UIOleInPlaceSiteWindowless@@@ATL@@QEAA@XZ 00000001800397b0 f i FiscalPrinterImpl.obj
 0001:000387e0       ??1?$CComPtrBase@UIDataAdviseHolder@@@ATL@@QEAA@XZ 00000001800397e0 f i FiscalPrinterImpl.obj
 0001:00038830       ??1?$CComPtrBase@UIOleAdviseHolder@@@ATL@@QEAA@XZ 0000000180039830 f i FiscalPrinterImpl.obj
 0001:00038880       ??1?$CComPtrBase@UIOleInPlaceSiteWindowless@@@ATL@@QEAA@XZ 0000000180039880 f i FiscalPrinterImpl.obj
 0001:000388d0       ??1?$CComQIPtr@UIDispatch@@$1?_GUID_00020400_0000_0000_c000_000000000046@@3U__s_GUID@@B@ATL@@QEAA@XZ 00000001800398d0 f i FiscalPrinterImpl.obj
 0001:00038900       ??1?$CProxy_IOPOSEvents@VCOPOSFiscalPrinter@@@@QEAA@XZ 0000000180039900 f i FiscalPrinterImpl.obj
 0001:00038930       ??1?$CWindowImpl@VCOPOSFiscalPrinter@@VCWindow@ATL@@V?$CWinTraits@$0FGAAAAAA@$0A@@3@@ATL@@UEAA@XZ 0000000180039930 f i FiscalPrinterImpl.obj
 0001:00038960       ??1?$CWindowImplBaseT@VCWindow@ATL@@V?$CWinTraits@$0FGAAAAAA@$0A@@2@@ATL@@UEAA@XZ 0000000180039960 f i FiscalPrinterImpl.obj
 0001:00038990       ??1?$CWindowImplRoot@VCWindow@ATL@@@ATL@@UEAA@XZ 0000000180039990 f i FiscalPrinterImpl.obj
 0001:00038a50       ??1?$IConnectionPointImpl@VCOPOSFiscalPrinter@@$1?DIID__IOPOSFiscalPrinterEvents@@3U_GUID@@BVCComDynamicUnkArray@ATL@@@ATL@@QEAA@XZ 0000000180039a50 f i FiscalPrinterImpl.obj
 0001:00038af0       ??1?$IConnectionPointImpl@VCOPOSFiscalPrinter@@$1?IID_IPropertyNotifySink@@3U_GUID@@BVCComDynamicUnkArray@ATL@@@ATL@@QEAA@XZ 0000000180039af0 f i FiscalPrinterImpl.obj
 0001:00038b90       ??1?$IPropertyNotifySinkCP@VCOPOSFiscalPrinter@@VCComDynamicUnkArray@ATL@@@ATL@@QEAA@XZ 0000000180039b90 f i FiscalPrinterImpl.obj
 0001:00038bc0       ??1CComControlBase@ATL@@UEAA@XZ 0000000180039bc0 f i FiscalPrinterImpl.obj
 0001:00038cb0       ??1CComDynamicUnkArray@ATL@@QEAA@XZ 0000000180039cb0 f i FiscalPrinterImpl.obj
 0001:00038cf0       ??1CDynamicStdCallThunk2@ATL@@QEAA@XZ 0000000180039cf0 f i FiscalPrinterImpl.obj
 0001:00038d30       ??1CWndProcThunk@ATL@@QEAA@XZ 0000000180039d30 f i FiscalPrinterImpl.obj
 0001:00038d70       ??1OposVariantResult@@QEAA@XZ 0000000180039d70 f i FiscalPrinterImpl.obj
 0001:00038db0       ??1_CW@@QEAA@XZ            0000000180039db0 f i FiscalPrinterImpl.obj
 0001:00038e30       ??1_CWNCC@@QEAA@XZ         0000000180039e30 f i FiscalPrinterImpl.obj
 0001:00038e60       ??B_CW@@QEAAPEB_WXZ        0000000180039e60 f i FiscalPrinterImpl.obj
 0001:00038eb0       ??B_CWNCC@@QEAAPEA_WXZ     0000000180039eb0 f i FiscalPrinterImpl.obj
 0001:00038ee0       ??_EOposVariant@@QEAAPEAXI@Z 0000000180039ee0 f i FiscalPrinterImpl.obj
 0001:00038f90       ?EventClaim@COPOSFiscalPrinter@@IEAAXXZ 0000000180039f90 f i FiscalPrinterImpl.obj
 0001:00038fe0       ?EventClose@COPOSFiscalPrinter@@IEAAXXZ 0000000180039fe0 f i FiscalPrinterImpl.obj
 0001:00039080       ?EventInit@COPOSFiscalPrinter@@IEAAJXZ 000000018003a080 f i FiscalPrinterImpl.obj
 0001:00039330       ?EventOpen@COPOSFiscalPrinter@@IEAAXXZ 000000018003a330 f i FiscalPrinterImpl.obj
 0001:00039370       ?EventPreCloseRelease@COPOSFiscalPrinter@@IEAAXXZ 000000018003a370 f i FiscalPrinterImpl.obj
 0001:000393f0       ?EventUninit@COPOSFiscalPrinter@@IEAAXXZ 000000018003a3f0 f i FiscalPrinterImpl.obj
 0001:00039520       ?EventWindowProc@COPOSFiscalPrinter@@IEAA_JI_K_J@Z 000000018003a520 f i FiscalPrinterImpl.obj
 0001:000396f0       ?FireEventCleanup@COPOSFiscalPrinter@@IEAAXXZ 000000018003a6f0 f i FiscalPrinterImpl.obj
 0001:00039740       ?FireEventSetup@COPOSFiscalPrinter@@IEAA_NXZ 000000018003a740 f i FiscalPrinterImpl.obj
 0001:000397c0       ?GetModuleInstance@CComModule@ATL@@QEAAPEAUHINSTANCE__@@XZ 000000018003a7c0 f i FiscalPrinterImpl.obj
 0001:000397d0       ?SetRC@COPOSFiscalPrinter@@IEAAJJ@Z 000000018003a7d0 f i FiscalPrinterImpl.obj
 0001:000397f0       ?s_EventWindowProc@COPOSFiscalPrinter@@KA_JPEAUHWND__@@I_K_J@Z 000000018003a7f0 f i FiscalPrinterImpl.obj
 0001:000398a0       _snwprintf                 000000018003a8a0 f i FiscalPrinterImpl.obj
 0001:00039930       _vfwprintf_l               000000018003a930 f i FiscalPrinterImpl.obj
 0001:00039990       _vsnwprintf                000000018003a990 f i FiscalPrinterImpl.obj
 0001:000399f0       _vsnwprintf_l              000000018003a9f0 f i FiscalPrinterImpl.obj
 0001:00039a80       vfwprintf                  000000018003aa80 f i FiscalPrinterImpl.obj
 0001:00039ac5       DebugBreak                 000000018003aac5 f   kernel32:KERNEL32.dll
 0001:00039acb       Sleep                      000000018003aacb f   kernel32:KERNEL32.dll
 0001:00039ad1       GetCurrentProcess          000000018003aad1 f   kernel32:KERNEL32.dll
 0001:00039ad7       TerminateProcess           000000018003aad7 f   kernel32:KERNEL32.dll
 0001:00039add       MultiByteToWideChar        000000018003aadd f   kernel32:KERNEL32.dll
 0001:00039ae3       WideCharToMultiByte        000000018003aae3 f   kernel32:KERNEL32.dll
 0001:00039ae9       DecodePointer              000000018003aae9 f   kernel32:KERNEL32.dll
 0001:00039aef       RaiseException             000000018003aaef f   kernel32:KERNEL32.dll
 0001:00039af5       GetLastError               000000018003aaf5 f   kernel32:KERNEL32.dll
 0001:00039afb       SetLastError               000000018003aafb f   kernel32:KERNEL32.dll
 0001:00039b01       InitializeCriticalSectionEx 000000018003ab01 f   kernel32:KERNEL32.dll
 0001:00039b07       DeleteCriticalSection      000000018003ab07 f   kernel32:KERNEL32.dll
 0001:00039b0d       EncodePointer              000000018003ab0d f   kernel32:KERNEL32.dll
 0001:00039b13       EnterCriticalSection       000000018003ab13 f   kernel32:KERNEL32.dll
 0001:00039b19       LeaveCriticalSection       000000018003ab19 f   kernel32:KERNEL32.dll
 0001:00039b1f       ResetEvent                 000000018003ab1f f   kernel32:KERNEL32.dll
 0001:00039b25       ReleaseMutex               000000018003ab25 f   kernel32:KERNEL32.dll
 0001:00039b2b       WaitForSingleObject        000000018003ab2b f   kernel32:KERNEL32.dll
 0001:00039b31       GetCurrentThreadId         000000018003ab31 f   kernel32:KERNEL32.dll
 0001:00039b37       DisableThreadLibraryCalls  000000018003ab37 f   kernel32:KERNEL32.dll
 0001:00039b3d       FreeLibrary                000000018003ab3d f   kernel32:KERNEL32.dll
 0001:00039b43       GetModuleFileNameW         000000018003ab43 f   kernel32:KERNEL32.dll
 0001:00039b49       GetModuleHandleW           000000018003ab49 f   kernel32:KERNEL32.dll
 0001:00039b4f       GetProcAddress             000000018003ab4f f   kernel32:KERNEL32.dll
 0001:00039b55       LoadLibraryExW             000000018003ab55 f   kernel32:KERNEL32.dll
 0001:00039b5b       LoadResource               000000018003ab5b f   kernel32:KERNEL32.dll
 0001:00039b61       SizeofResource             000000018003ab61 f   kernel32:KERNEL32.dll
 0001:00039b67       FindResourceW              000000018003ab67 f   kernel32:KERNEL32.dll
 0001:00039b6d       GlobalAlloc                000000018003ab6d f   kernel32:KERNEL32.dll
 0001:00039b73       GlobalUnlock               000000018003ab73 f   kernel32:KERNEL32.dll
 0001:00039b79       GlobalLock                 000000018003ab79 f   kernel32:KERNEL32.dll
 0001:00039b7f       MulDiv                     000000018003ab7f f   kernel32:KERNEL32.dll
 0001:00039b85       lstrcmpiW                  000000018003ab85 f   kernel32:KERNEL32.dll
 0001:00039b8b       DeleteFileW                000000018003ab8b f   kernel32:KERNEL32.dll
 0001:00039b91       CloseHandle                000000018003ab91 f   kernel32:KERNEL32.dll
 0001:00039b97       SetEvent                   000000018003ab97 f   kernel32:KERNEL32.dll
 0001:00039b9d       CreateMutexW               000000018003ab9d f   kernel32:KERNEL32.dll
 0001:00039ba3       CreateEventW               000000018003aba3 f   kernel32:KERNEL32.dll
 0001:00039ba9       GetCurrentProcessId        000000018003aba9 f   kernel32:KERNEL32.dll
 0001:00039baf       LocalFree                  000000018003abaf f   kernel32:KERNEL32.dll
 0001:00039bb5       FormatMessageW             000000018003abb5 f   kernel32:KERNEL32.dll
 0001:00039bbb       GetActiveWindow            000000018003abbb f   user32:USER32.dll
 0001:00039bc1       MessageBoxW                000000018003abc1 f   user32:USER32.dll
 0001:00039bc7       UnregisterClassW           000000018003abc7 f   user32:USER32.dll
 0001:00039bcd       PostMessageW               000000018003abcd f   user32:USER32.dll
 0001:00039bd3       DefWindowProcW             000000018003abd3 f   user32:USER32.dll
 0001:00039bd9       CallWindowProcW            000000018003abd9 f   user32:USER32.dll
 0001:00039bdf       RegisterClassExW           000000018003abdf f   user32:USER32.dll
 0001:00039be5       GetClassInfoExW            000000018003abe5 f   user32:USER32.dll
 0001:00039beb       CreateWindowExW            000000018003abeb f   user32:USER32.dll
 0001:00039bf1       IsWindow                   000000018003abf1 f   user32:USER32.dll
 0001:00039bf7       IsChild                    000000018003abf7 f   user32:USER32.dll
 0001:00039bfd       DestroyWindow              000000018003abfd f   user32:USER32.dll
 0001:00039c03       ShowWindow                 000000018003ac03 f   user32:USER32.dll
 0001:00039c09       SetWindowPos               000000018003ac09 f   user32:USER32.dll
 0001:00039c0f       CharNextW                  000000018003ac0f f   user32:USER32.dll
 0001:00039c15       SetFocus                   000000018003ac15 f   user32:USER32.dll
 0001:00039c1b       GetFocus                   000000018003ac1b f   user32:USER32.dll
 0001:00039c21       GetKeyState                000000018003ac21 f   user32:USER32.dll
 0001:00039c27       GetDC                      000000018003ac27 f   user32:USER32.dll
 0001:00039c2d       ReleaseDC                  000000018003ac2d f   user32:USER32.dll
 0001:00039c33       BeginPaint                 000000018003ac33 f   user32:USER32.dll
 0001:00039c39       EndPaint                   000000018003ac39 f   user32:USER32.dll
 0001:00039c3f       SetWindowRgn               000000018003ac3f f   user32:USER32.dll
 0001:00039c45       InvalidateRect             000000018003ac45 f   user32:USER32.dll
 0001:00039c4b       GetClientRect              000000018003ac4b f   user32:USER32.dll
 0001:00039c51       IntersectRect              000000018003ac51 f   user32:USER32.dll
 0001:00039c57       UnionRect                  000000018003ac57 f   user32:USER32.dll
 0001:00039c5d       OffsetRect                 000000018003ac5d f   user32:USER32.dll
 0001:00039c63       EqualRect                  000000018003ac63 f   user32:USER32.dll
 0001:00039c69       PtInRect                   000000018003ac69 f   user32:USER32.dll
 0001:00039c6f       GetWindowLongPtrW          000000018003ac6f f   user32:USER32.dll
 0001:00039c75       SetWindowLongPtrW          000000018003ac75 f   user32:USER32.dll
 0001:00039c7b       GetParent                  000000018003ac7b f   user32:USER32.dll
 0001:00039c81       LoadCursorW                000000018003ac81 f   user32:USER32.dll
 0001:00039c87       PeekMessageW               000000018003ac87 f   user32:USER32.dll
 0001:00039c8d       RegisterClassW             000000018003ac8d f   user32:USER32.dll
 0001:00039c93       LoadBitmapW                000000018003ac93 f   user32:USER32.dll
 0001:00039c99       CloseMetaFile              000000018003ac99 f   gdi32:GDI32.dll
 0001:00039c9f       CreateDCW                  000000018003ac9f f   gdi32:GDI32.dll
 0001:00039ca5       CreateMetaFileW            000000018003aca5 f   gdi32:GDI32.dll
 0001:00039cab       CreateRectRgnIndirect      000000018003acab f   gdi32:GDI32.dll
 0001:00039cb1       DeleteDC                   000000018003acb1 f   gdi32:GDI32.dll
 0001:00039cb7       DeleteMetaFile             000000018003acb7 f   gdi32:GDI32.dll
 0001:00039cbd       GetDeviceCaps              000000018003acbd f   gdi32:GDI32.dll
 0001:00039cc3       RestoreDC                  000000018003acc3 f   gdi32:GDI32.dll
 0001:00039cc9       SaveDC                     000000018003acc9 f   gdi32:GDI32.dll
 0001:00039ccf       SetMapMode                 000000018003accf f   gdi32:GDI32.dll
 0001:00039cd5       LPtoDP                     000000018003acd5 f   gdi32:GDI32.dll
 0001:00039cdb       SetViewportOrgEx           000000018003acdb f   gdi32:GDI32.dll
 0001:00039ce1       SetWindowExtEx             000000018003ace1 f   gdi32:GDI32.dll
 0001:00039ce7       SetWindowOrgEx             000000018003ace7 f   gdi32:GDI32.dll
 0001:00039ced       BitBlt                     000000018003aced f   gdi32:GDI32.dll
 0001:00039cf3       CreateCompatibleDC         000000018003acf3 f   gdi32:GDI32.dll
 0001:00039cf9       DeleteObject               000000018003acf9 f   gdi32:GDI32.dll
 0001:00039cff       SelectObject               000000018003acff f   gdi32:GDI32.dll
 0001:00039d05       GetObjectW                 000000018003ad05 f   gdi32:GDI32.dll
 0001:00039d0b       RegCloseKey                000000018003ad0b f   advapi32:ADVAPI32.dll
 0001:00039d11       RegCreateKeyExW            000000018003ad11 f   advapi32:ADVAPI32.dll
 0001:00039d17       RegDeleteKeyW              000000018003ad17 f   advapi32:ADVAPI32.dll
 0001:00039d1d       RegDeleteValueW            000000018003ad1d f   advapi32:ADVAPI32.dll
 0001:00039d23       RegEnumKeyExW              000000018003ad23 f   advapi32:ADVAPI32.dll
 0001:00039d29       RegOpenKeyExW              000000018003ad29 f   advapi32:ADVAPI32.dll
 0001:00039d2f       RegQueryInfoKeyW           000000018003ad2f f   advapi32:ADVAPI32.dll
 0001:00039d35       RegSetValueExW             000000018003ad35 f   advapi32:ADVAPI32.dll
 0001:00039d3b       RegQueryValueExW           000000018003ad3b f   advapi32:ADVAPI32.dll
 0001:00039d41       CoCreateInstance           000000018003ad41 f   ole32:ole32.dll
 0001:00039d47       StringFromGUID2            000000018003ad47 f   ole32:ole32.dll
 0001:00039d4d       CoTaskMemAlloc             000000018003ad4d f   ole32:ole32.dll
 0001:00039d53       CoTaskMemRealloc           000000018003ad53 f   ole32:ole32.dll
 0001:00039d59       CoTaskMemFree              000000018003ad59 f   ole32:ole32.dll
 0001:00039d5f       ReadClassStm               000000018003ad5f f   ole32:ole32.dll
 0001:00039d65       WriteClassStm              000000018003ad65 f   ole32:ole32.dll
 0001:00039d6b       CreateDataAdviseHolder     000000018003ad6b f   ole32:ole32.dll
 0001:00039d71       OleSaveToStream            000000018003ad71 f   ole32:ole32.dll
 0001:00039d77       CreateOleAdviseHolder      000000018003ad77 f   ole32:ole32.dll
 0001:00039d7d       OleRegGetUserType          000000018003ad7d f   ole32:ole32.dll
 0001:00039d83       OleRegGetMiscStatus        000000018003ad83 f   ole32:ole32.dll
 0001:00039d89       OleRegEnumVerbs            000000018003ad89 f   ole32:ole32.dll
 0001:00039d8f       CLSIDFromProgID            000000018003ad8f f   ole32:ole32.dll
 0001:00039d95       SysAllocString             000000018003ad95 f   oleaut32:OLEAUT32.dll
 0001:00039d9b       SysAllocStringLen          000000018003ad9b f   oleaut32:OLEAUT32.dll
 0001:00039da1       SysFreeString              000000018003ada1 f   oleaut32:OLEAUT32.dll
 0001:00039da7       SysStringLen               000000018003ada7 f   oleaut32:OLEAUT32.dll
 0001:00039dad       VariantClear               000000018003adad f   oleaut32:OLEAUT32.dll
 0001:00039db3       VariantCopyInd             000000018003adb3 f   oleaut32:OLEAUT32.dll
 0001:00039db9       VariantChangeType          000000018003adb9 f   oleaut32:OLEAUT32.dll
 0001:00039dbf       SysStringByteLen           000000018003adbf f   oleaut32:OLEAUT32.dll
 0001:00039dc5       SysAllocStringByteLen      000000018003adc5 f   oleaut32:OLEAUT32.dll
 0001:00039dcb       VariantInit                000000018003adcb f   oleaut32:OLEAUT32.dll
 0001:00039dd1       VarUI4FromStr              000000018003add1 f   oleaut32:OLEAUT32.dll
 0001:00039dd7       LoadTypeLib                000000018003add7 f   oleaut32:OLEAUT32.dll
 0001:00039ddd       LoadRegTypeLib             000000018003addd f   oleaut32:OLEAUT32.dll
 0001:00039de3       RegisterTypeLib            000000018003ade3 f   oleaut32:OLEAUT32.dll
 0001:00039de9       UnRegisterTypeLib          000000018003ade9 f   oleaut32:OLEAUT32.dll
 0001:00039def       OleCreatePropertyFrame     000000018003adef f   oleaut32:OLEAUT32.dll
 0001:00039e00       _RTC_AllocaHelper          000000018003ae00 f   LIBCMTD:stack.obj
 0001:00039e40       _RTC_CheckStackVars        000000018003ae40 f   LIBCMTD:stack.obj
 0001:00039ed0       _RTC_CheckStackVars2       000000018003aed0 f   LIBCMTD:stack.obj
 0001:00039fe0       _CRT_RTC_INIT              000000018003afe0 f   LIBCMTD:init.obj
 0001:00039ff0       _CRT_RTC_INITW             000000018003aff0 f   LIBCMTD:init.obj
 0001:0003a000       _RTC_InitBase              000000018003b000 f   LIBCMTD:init.obj
 0001:0003a040       _RTC_Shutdown              000000018003b040 f   LIBCMTD:init.obj
 0001:0003a070       __GSHandlerCheck           000000018003b070 f   LIBCMTD:gshandler.obj
 0001:0003a0b0       __GSHandlerCheckCommon     000000018003b0b0 f   LIBCMTD:gshandler.obj
 0001:0003a1c0       __security_check_cookie    000000018003b1c0 f   LIBCMTD:amdsecgs.obj
 0001:0003a1f0       ??_U@YAPEAX_K@Z            000000018003b1f0 f   LIBCMTD:new_array.obj
 0001:0003a210       ??3@YAXPEAX_K@Z            000000018003b210 f   LIBCMTD:delete_scalar_size.obj
 0001:0003a230       ??_V@YAXPEAX@Z             000000018003b230 f   LIBCMTD:delete_array.obj
 0001:0003a250       ??_V@YAXPEAX_K@Z           000000018003b250 f   LIBCMTD:delete_array_size.obj
 0001:0003a270       ?configure_argv@__scrt_narrow_argv_policy@@SAHXZ 000000018003b270 f i LIBCMTD:utility.obj
 0001:0003a360       ?initialize_environment@__scrt_narrow_environment_policy@@SAHXZ 000000018003b360 f i LIBCMTD:utility.obj
 0001:0003a400       NtCurrentTeb               000000018003b400 f i LIBCMTD:utility.obj
 0001:0003a410       __scrt_acquire_startup_lock 000000018003b410 f   LIBCMTD:utility.obj
 0001:0003a480       __scrt_dllmain_after_initialize_c 000000018003b480 f   LIBCMTD:utility.obj
 0001:0003a4b0       __scrt_dllmain_before_initialize_c 000000018003b4b0 f   LIBCMTD:utility.obj
 0001:0003a4d0       __scrt_dllmain_crt_thread_attach 000000018003b4d0 f   LIBCMTD:utility.obj
 0001:0003a500       __scrt_dllmain_crt_thread_detach 000000018003b500 f   LIBCMTD:utility.obj
 0001:0003a520       __scrt_dllmain_exception_filter 000000018003b520 f   LIBCMTD:utility.obj
 0001:0003a590       __scrt_dllmain_uninitialize_c 000000018003b590 f   LIBCMTD:utility.obj
 0001:0003a5c0       __scrt_dllmain_uninitialize_critical 000000018003b5c0 f   LIBCMTD:utility.obj
 0001:0003a5e0       __scrt_initialize_crt      000000018003b5e0 f   LIBCMTD:utility.obj
 0001:0003a630       __scrt_initialize_onexit_tables 000000018003b630 f   LIBCMTD:utility.obj
 0001:0003a740       __scrt_is_nonwritable_in_current_image 000000018003b740 f   LIBCMTD:utility.obj
 0001:0003a7d0       __scrt_release_startup_lock 000000018003b7d0 f   LIBCMTD:utility.obj
 0001:0003a800       __scrt_uninitialize_crt    000000018003b800 f   LIBCMTD:utility.obj
 0001:0003a840       _onexit                    000000018003b840 f   LIBCMTD:utility.obj
 0001:0003a8c0       at_quick_exit              000000018003b8c0 f   LIBCMTD:utility.obj
 0001:0003a910       atexit                     000000018003b910 f   LIBCMTD:utility.obj
 0001:0003a950       ??3@YAXPEAX@Z              000000018003b950 f   LIBCMTD:delete_scalar.obj
 0001:0003a970       __raise_securityfailure    000000018003b970 f   LIBCMTD:gs_report.obj
 0001:0003a9b0       __report_gsfailure         000000018003b9b0 f   LIBCMTD:gs_report.obj
 0001:0003aa90       __report_rangecheckfailure 000000018003ba90 f   LIBCMTD:gs_report.obj
 0001:0003aab0       __report_securityfailure   000000018003bab0 f   LIBCMTD:gs_report.obj
 0001:0003ab50       __report_securityfailureEx 000000018003bb50 f   LIBCMTD:gs_report.obj
 0001:0003af10       _Init_thread_abort         000000018003bf10 f   LIBCMTD:thread_safe_statics.obj
 0001:0003af40       _Init_thread_footer        000000018003bf40 f   LIBCMTD:thread_safe_statics.obj
 0001:0003afa0       _Init_thread_header        000000018003bfa0 f   LIBCMTD:thread_safe_statics.obj
 0001:0003b030       _Init_thread_lock          000000018003c030 f   LIBCMTD:thread_safe_statics.obj
 0001:0003b050       _Init_thread_notify        000000018003c050 f   LIBCMTD:thread_safe_statics.obj
 0001:0003b0b0       _Init_thread_unlock        000000018003c0b0 f   LIBCMTD:thread_safe_statics.obj
 0001:0003b0d0       _Init_thread_wait          000000018003c0d0 f   LIBCMTD:thread_safe_statics.obj
 0001:0003b180       ??2@YAPEAX_KAEBUnothrow_t@std@@@Z 000000018003c180 f   LIBCMTD:new_scalar_nothrow.obj
 0001:0003b1c0       ??_U@YAPEAX_KAEBUnothrow_t@std@@@Z 000000018003c1c0 f   LIBCMTD:new_array_nothrow.obj
 0001:0003b1f0       __GSHandlerCheck_SEH       000000018003c1f0 f   LIBCMTD:gshandlerseh.obj
 0001:0003b2c0       __chkstk                   000000018003c2c0 f   LIBCMTD:chkstk.obj
 0001:0003b2c0       _alloca_probe              000000018003c2c0 f   LIBCMTD:chkstk.obj
 0001:0003b730       _CRT_INIT                  000000018003c730 f   LIBCMTD:dll_dllmain.obj
 0001:0003b760       _DllMainCRTStartup         000000018003c760 f   LIBCMTD:dll_dllmain.obj
 0001:0003b830       ?_RTC_AllocaFailure@@YAXPEAXPEAU_RTC_ALLOCA_NODE@@H@Z 000000018003c830 f   LIBCMTD:error.obj
 0001:0003b990       ?_RTC_Failure@@YAXPEAXH@Z  000000018003c990 f   LIBCMTD:error.obj
 0001:0003b9e0       ?_RTC_StackFailure@@YAXPEAXPEBD@Z 000000018003c9e0 f   LIBCMTD:error.obj
 0001:0003be10       _RTC_UninitUse             000000018003ce10 f   LIBCMTD:error.obj
 0001:0003bee0       _vsprintf_s_l              000000018003cee0 f i LIBCMTD:error.obj
 0001:0003bf50       sprintf_s                  000000018003cf50 f i LIBCMTD:error.obj
 0001:0003bf80       ?_RTC_GetErrorFunc@@YAP6AHHPEBDH00ZZPEBX@Z 000000018003cf80 f   LIBCMTD:userapi.obj
 0001:0003bf90       ?_RTC_GetErrorFuncW@@YAP6AHHPEB_WH00ZZPEBX@Z 000000018003cf90 f   LIBCMTD:userapi.obj
 0001:0003bfa0       _RTC_GetErrDesc            000000018003cfa0 f   LIBCMTD:userapi.obj
 0001:0003bfc0       _RTC_NumErrors             000000018003cfc0 f   LIBCMTD:userapi.obj
 0001:0003bfd0       _RTC_SetErrorFunc          000000018003cfd0 f   LIBCMTD:userapi.obj
 0001:0003bff0       _RTC_SetErrorFuncW         000000018003cff0 f   LIBCMTD:userapi.obj
 0001:0003c010       _RTC_SetErrorType          000000018003d010 f   LIBCMTD:userapi.obj
 0001:0003c030       ??2@YAPEAX_K@Z             000000018003d030 f   LIBCMTD:new_scalar.obj
 0001:0003c080       __isa_available_init       000000018003d080 f   LIBCMTD:cpu_disp.obj
 0001:0003c420       _get_startup_argv_mode     000000018003d420 f   LIBCMTD:argv_mode.obj
 0001:0003c430       __scrt_is_ucrt_dll_in_use  000000018003d430 f   LIBCMTD:ucrt_detection.obj
 0001:0003c460       __crt_debugger_hook        000000018003d460 f   LIBCMTD:utility_desktop.obj
 0001:0003c470       __scrt_fastfail            000000018003d470 f   LIBCMTD:utility_desktop.obj
 0001:0003c610       __scrt_get_show_window_mode 000000018003d610 f   LIBCMTD:utility_desktop.obj
 0001:0003c670       __scrt_initialize_mta      000000018003d670 f   LIBCMTD:utility_desktop.obj
 0001:0003c680       __scrt_initialize_winrt    000000018003d680 f   LIBCMTD:utility_desktop.obj
 0001:0003c690       __scrt_is_managed_app      000000018003d690 f   LIBCMTD:utility_desktop.obj
 0001:0003c740       __scrt_set_unhandled_exception_filter 000000018003d740 f   LIBCMTD:utility_desktop.obj
 0001:0003c760       __scrt_exe_initialize_mta  000000018003d760 f   LIBCMTD:utility_desktop.obj
 0001:0003c760       __scrt_stub_for_initialize_mta 000000018003d760 f   LIBCMTD:utility_desktop.obj
 0001:0003c770       __scrt_unhandled_exception_filter 000000018003d770 f   LIBCMTD:utility_desktop.obj
 0001:0003c810       _guard_check_icall_nop     000000018003d810 f i LIBCMTD:guard_support.obj
 0001:0003c820       ReadNoFence64              000000018003d820 f i LIBCMTD:guard_support.obj
 0001:0003c840       ReadPointerNoFence         000000018003d840 f i LIBCMTD:guard_support.obj
 0001:0003c860       _guard_icall_checks_enforced 000000018003d860 f i LIBCMTD:guard_support.obj
 0001:0003c8a0       _guard_rf_checks_enforced  000000018003d8a0 f i LIBCMTD:guard_support.obj
 0001:0003c970       __security_init_cookie     000000018003d970 f   LIBCMTD:gs_support.obj
 0001:0003c9f0       ?__scrt_initialize_type_info@@YAXXZ 000000018003d9f0 f   LIBCMTD:tncleanup.obj
 0001:0003ca10       ?__scrt_uninitialize_type_info@@YAXXZ 000000018003da10 f   LIBCMTD:tncleanup.obj
 0001:0003ca30       __local_stdio_scanf_options 000000018003da30 f i LIBCMTD:default_local_stdio_options.obj
 0001:0003ca40       __scrt_initialize_default_local_stdio_options 000000018003da40 f   LIBCMTD:default_local_stdio_options.obj
 0001:0003ca90       __scrt_get_dyn_tls_init_callback 000000018003da90 f   LIBCMTD:dyn_tls_init.obj
 0001:0003caa0       _RTC_Initialize            000000018003daa0 f   LIBCMTD:initsect.obj
 0001:0003caf0       _RTC_Terminate             000000018003daf0 f   LIBCMTD:initsect.obj
 0001:0003d050       ?_RTC_GetSrcLine@@YAHPEAEPEA_WKPEAH1K@Z 000000018003e050 f   LIBCMTD:pdblkup.obj
 0001:0003d420       ??0bad_alloc@std@@AEAA@QEBD@Z 000000018003e420 f i LIBCMTD:throw_bad_alloc.obj
 0001:0003d460       ??0bad_alloc@std@@QEAA@AEBV01@@Z 000000018003e460 f i LIBCMTD:throw_bad_alloc.obj
 0001:0003d4a0       ??0bad_alloc@std@@QEAA@XZ  000000018003e4a0 f i LIBCMTD:throw_bad_alloc.obj
 0001:0003d4e0       ??0bad_array_new_length@std@@QEAA@AEBV01@@Z 000000018003e4e0 f i LIBCMTD:throw_bad_alloc.obj
 0001:0003d520       ??0bad_array_new_length@std@@QEAA@XZ 000000018003e520 f i LIBCMTD:throw_bad_alloc.obj
 0001:0003d560       ??0exception@std@@QEAA@AEBV01@@Z 000000018003e560 f i LIBCMTD:throw_bad_alloc.obj
 0001:0003d5c0       ??0exception@std@@QEAA@QEBDH@Z 000000018003e5c0 f i LIBCMTD:throw_bad_alloc.obj
 0001:0003d610       ??1bad_alloc@std@@UEAA@XZ  000000018003e610 f i LIBCMTD:throw_bad_alloc.obj
 0001:0003d630       ??1bad_array_new_length@std@@UEAA@XZ 000000018003e630 f i LIBCMTD:throw_bad_alloc.obj
 0001:0003d650       ??1exception@std@@UEAA@XZ  000000018003e650 f i LIBCMTD:throw_bad_alloc.obj
 0001:0003d680       ??_Gbad_alloc@std@@UEAAPEAXI@Z 000000018003e680 f i LIBCMTD:throw_bad_alloc.obj
 0001:0003d680       ??_Ebad_alloc@std@@UEAAPEAXI@Z 000000018003e680 f i LIBCMTD:throw_bad_alloc.obj
 0001:0003d6c0       ??_Gbad_array_new_length@std@@UEAAPEAXI@Z 000000018003e6c0 f i LIBCMTD:throw_bad_alloc.obj
 0001:0003d6c0       ??_Ebad_array_new_length@std@@UEAAPEAXI@Z 000000018003e6c0 f i LIBCMTD:throw_bad_alloc.obj
 0001:0003d700       ??_Eexception@std@@UEAAPEAXI@Z 000000018003e700 f i LIBCMTD:throw_bad_alloc.obj
 0001:0003d700       ??_Gexception@std@@UEAAPEAXI@Z 000000018003e700 f i LIBCMTD:throw_bad_alloc.obj
 0001:0003d740       ?__scrt_throw_std_bad_alloc@@YAXXZ 000000018003e740 f   LIBCMTD:throw_bad_alloc.obj
 0001:0003d770       ?__scrt_throw_std_bad_array_new_length@@YAXXZ 000000018003e770 f   LIBCMTD:throw_bad_alloc.obj
 0001:0003d7a0       ?what@exception@std@@UEBAPEBDXZ 000000018003e7a0 f i LIBCMTD:throw_bad_alloc.obj
 0001:0003d7e0       ??1type_info@@UEAA@XZ      000000018003e7e0 f   LIBCMTD:std_type_info_static.obj
 0001:0003d800       ??_Gtype_info@@UEAAPEAXI@Z 000000018003e800 f i LIBCMTD:std_type_info_static.obj
 0001:0003d800       ??_Etype_info@@UEAAPEAXI@Z 000000018003e800 f i LIBCMTD:std_type_info_static.obj
 0001:0003d83c       ??$?2PEAUHINSTANCE__@@@Wrapper@?$CSimpleArray@PEAUHINSTANCE__@@V?$CSimpleArrayEqualHelper@PEAUHINSTANCE__@@@ATL@@@ATL@@SAPEAX_KPEAPEAUHINSTANCE__@@@Z 000000018003e83c f i atls:atlbase.obj
 0001:0003d840       ??0?$CSimpleArray@PEAUHINSTANCE__@@V?$CSimpleArrayEqualHelper@PEAUHINSTANCE__@@@ATL@@@ATL@@QEAA@XZ 000000018003e840 f i atls:atlbase.obj
 0001:0003d850       ??0CAtlBaseModule@ATL@@QEAA@XZ 000000018003e850 f   atls:atlbase.obj
 0001:0003d8f8       ??0Wrapper@?$CSimpleArray@PEAUHINSTANCE__@@V?$CSimpleArrayEqualHelper@PEAUHINSTANCE__@@@ATL@@@ATL@@QEAA@AEBQEAUHINSTANCE__@@@Z 000000018003e8f8 f i atls:atlbase.obj
 0001:0003d904       ??0_ATL_BASE_MODULE70@ATL@@QEAA@XZ 000000018003e904 f i atls:atlbase.obj
 0001:0003d930       ??1?$CSimpleArray@PEAUHINSTANCE__@@V?$CSimpleArrayEqualHelper@PEAUHINSTANCE__@@@ATL@@@ATL@@QEAA@XZ 000000018003e930 f i atls:atlbase.obj
 0001:0003d958       ??1CAtlBaseModule@ATL@@QEAA@XZ 000000018003e958 f   atls:atlbase.obj
 0001:0003d98c       ??1_ATL_BASE_MODULE70@ATL@@QEAA@XZ 000000018003e98c f i atls:atlbase.obj
 0001:0003d9b8       ??A?$CSimpleArray@PEAUHINSTANCE__@@V?$CSimpleArrayEqualHelper@PEAUHINSTANCE__@@@ATL@@@ATL@@QEAAAEAPEAUHINSTANCE__@@H@Z 000000018003e9b8 f i atls:atlbase.obj
 0001:0003d9e4       ?Add@?$CSimpleArray@PEAUHINSTANCE__@@V?$CSimpleArrayEqualHelper@PEAUHINSTANCE__@@@ATL@@@ATL@@QEAAHAEBQEAUHINSTANCE__@@@Z 000000018003e9e4 f i atls:atlbase.obj
 0001:0003da98       ?AddResourceInstance@CAtlBaseModule@ATL@@QEAA_NPEAUHINSTANCE__@@@Z 000000018003ea98 f   atls:atlbase.obj
 0001:0003dae0       ?GetHInstanceAt@CAtlBaseModule@ATL@@QEAAPEAUHINSTANCE__@@H@Z 000000018003eae0 f   atls:atlbase.obj
 0001:0003db58       ?GetSize@?$CSimpleArray@PEAUHINSTANCE__@@V?$CSimpleArrayEqualHelper@PEAUHINSTANCE__@@@ATL@@@ATL@@QEBAHXZ 000000018003eb58 f i atls:atlbase.obj
 0001:0003db5c       ?InternalSetAtIndex@?$CSimpleArray@PEAUHINSTANCE__@@V?$CSimpleArrayEqualHelper@PEAUHINSTANCE__@@@ATL@@@ATL@@QEAAXHAEBQEAUHINSTANCE__@@@Z 000000018003eb5c f i atls:atlbase.obj
 0001:0003db74       ?RemoveAll@?$CSimpleArray@PEAUHINSTANCE__@@V?$CSimpleArrayEqualHelper@PEAUHINSTANCE__@@@ATL@@@ATL@@QEAAXXZ 000000018003eb74 f i atls:atlbase.obj
 0001:0003db9c       ?RemoveAt@?$CSimpleArray@PEAUHINSTANCE__@@V?$CSimpleArrayEqualHelper@PEAUHINSTANCE__@@@ATL@@@ATL@@QEAAHH@Z 000000018003eb9c f i atls:atlbase.obj
 0001:0003dc40       ?RemoveResourceInstance@CAtlBaseModule@ATL@@QEAA_NPEAUHINSTANCE__@@@Z 000000018003ec40 f   atls:atlbase.obj
 0001:0003dcc0       ?memmove_s@Checked@ATL@@YAXPEAX_KPEBX1@Z 000000018003ecc0 f i atls:atlbase.obj
 0001:0003e168       ?GetCodeAddress@_stdcallthunk@ATL@@QEAAPEAXXZ 000000018003f168 f i atls:atlthunk.obj
 0001:0003e194       ?Init@_stdcallthunk@ATL@@QEAAH_KPEAX@Z 000000018003f194 f i atls:atlthunk.obj
 0001:0003e1e4       ?__AllocStdCallThunk@@YAPEAXXZ 000000018003f1e4 f   atls:atlthunk.obj
 0001:0003e1ec       ?__AllocStdCallThunk@ATL@@YAPEAXXZ 000000018003f1ec f   atls:atlthunk.obj
 0001:0003e1f4       ?__AllocStdCallThunk_cmn@@YAPEAXXZ 000000018003f1f4 f   atls:atlthunk.obj
 0001:0003e2cc       ?__FreeStdCallThunk@@YAXPEAX@Z 000000018003f2cc f   atls:atlthunk.obj
 0001:0003e2ec       ?__FreeStdCallThunk@ATL@@YAXPEAX@Z 000000018003f2ec f   atls:atlthunk.obj
 0001:0003e30c       ?__FreeStdCallThunk_cmn@@YAXPEAX@Z 000000018003f30c f   atls:atlthunk.obj
 0001:0003e3ac       AtlThunk_AllocateData      000000018003f3ac f   atls:atlthunk.obj
 0001:0003e428       AtlThunk_DataToCode        000000018003f428 f   atls:atlthunk.obj
 0001:0003e47c       AtlThunk_FreeData          000000018003f47c f   atls:atlthunk.obj
 0001:0003e4dc       AtlThunk_InitData          000000018003f4dc f   atls:atlthunk.obj
 0001:0003e5a0       memset_repmovs             000000018003f5a0 f   libvcruntimed:memset.obj
 0001:0003e5c0       memset                     000000018003f5c0 f   libvcruntimed:memset.obj
 0001:0003e750       ??$__crt_interlocked_exchange_pointer@$$A6AXXZP6AXXZ@@YAP6AXXZPEDS6AXXZQ6AXXZ@Z 000000018003f750 f i libvcruntimed:purevirt.obj
 0001:0003e770       ??$__crt_interlocked_read_pointer@$$A6AXXZ@@YAP6AXXZPEDS6AXXZ@Z 000000018003f770 f i libvcruntimed:purevirt.obj
 0001:0003e790       ?__crt_interlocked_read_64@@YA_JPED_J@Z 000000018003f790 f i libvcruntimed:purevirt.obj
 0001:0003e7b0       _get_purecall_handler      000000018003f7b0 f   libvcruntimed:purevirt.obj
 0001:0003e7d0       _purecall                  000000018003f7d0 f   libvcruntimed:purevirt.obj
 0001:0003e810       _set_purecall_handler      000000018003f810 f   libvcruntimed:purevirt.obj
 0001:0003e840       memcmp                     000000018003f840 f   libvcruntimed:memcmp.obj
 0001:0003e920       memcpy_repmovs             000000018003f920 f   libvcruntimed:memcpy.obj
 0001:0003e940       memmove                    000000018003f940 f   libvcruntimed:memcpy.obj
 0001:0003e940       memcpy                     000000018003f940 f   libvcruntimed:memcpy.obj
 0001:0003ed20       wcsstr                     000000018003fd20 f   libvcruntimed:wcsstr.obj
 0001:0003f380       __vcrt_initialize          0000000180040380 f   libvcruntimed:initialization.obj
 0001:0003f3c0       __vcrt_thread_attach       00000001800403c0 f   libvcruntimed:initialization.obj
 0001:0003f3e0       __vcrt_thread_detach       00000001800403e0 f   libvcruntimed:initialization.obj
 0001:0003f400       __vcrt_uninitialize        0000000180040400 f   libvcruntimed:initialization.obj
 0001:0003f420       __vcrt_uninitialize_critical 0000000180040420 f   libvcruntimed:initialization.obj
 0001:0003f440       __C_specific_handler       0000000180040440 f   libvcruntimed:riscchandler.obj
 0001:0003f8b0       ??$?0AEAViterator@TryBlockMap4@FH4@@AEAV012@$0A@@?$pair@Viterator@TryBlockMap4@FH4@@V123@@std@@QEAA@AEAViterator@TryBlockMap4@FH4@@0@Z 00000001800408b0 f i libvcruntimed:risctrnsctrl.obj
 0001:0003f910       ??$?0AEAViterator@TryBlockMap@__FrameHandler3@@AEAV012@$0A@@?$pair@Viterator@TryBlockMap@__FrameHandler3@@V123@@std@@QEAA@AEAViterator@TryBlockMap@__FrameHandler3@@0@Z 0000000180040910 f i libvcruntimed:risctrnsctrl.obj
 0001:0003fae0       ??$_CallSETranslator@V__FrameHandler3@@@@YAHPEAUEHExceptionRecord@@PEA_KPEAU_CONTEXT@@PEAU_xDISPATCHER_CONTEXT@@PEBU_s_FuncInfo@@K1H@Z 0000000180040ae0 f i libvcruntimed:risctrnsctrl.obj
 0001:0003fb70       ??$_CallSETranslator@V__FrameHandler4@@@@YAHPEAUEHExceptionRecord@@PEA_KPEAU_CONTEXT@@PEAU_xDISPATCHER_CONTEXT@@PEAUFuncInfo4@FH4@@K1H@Z 0000000180040b70 f i libvcruntimed:risctrnsctrl.obj
 0001:0003fc00       ??$forward@AEAViterator@TryBlockMap4@FH4@@@std@@YAAEAViterator@TryBlockMap4@FH4@@AEAV123@@Z 0000000180040c00 f i libvcruntimed:risctrnsctrl.obj
 0001:0003fc10       ??$forward@AEAViterator@TryBlockMap@__FrameHandler3@@@std@@YAAEAViterator@TryBlockMap@__FrameHandler3@@AEAV123@@Z 0000000180040c10 f i libvcruntimed:risctrnsctrl.obj
 0001:0003fc20       ??0FuncInfo4@FH4@@QEAA@XZ  0000000180040c20 f i libvcruntimed:risctrnsctrl.obj
 0001:0003fc90       ??0FuncInfoHeader@FH4@@QEAA@XZ 0000000180040c90 f i libvcruntimed:risctrnsctrl.obj
 0001:0003fcb0       ??0iterator@TryBlockMap4@FH4@@QEAA@AEAV12@I@Z 0000000180040cb0 f i libvcruntimed:risctrnsctrl.obj
 0001:0003fce0       ??0iterator@TryBlockMap@__FrameHandler3@@QEAA@AEAV12@I@Z 0000000180040ce0 f i libvcruntimed:risctrnsctrl.obj
 0001:0003fd10       ??4iterator@TryBlockMap4@FH4@@QEAAAEAV012@AEBV012@@Z 0000000180040d10 f i libvcruntimed:risctrnsctrl.obj
 0001:0003fd30       ??9iterator@TryBlockMap4@FH4@@QEBA_NAEBV012@@Z 0000000180040d30 f i libvcruntimed:risctrnsctrl.obj
 0001:0003fd70       ??Diterator@TryBlockMap4@FH4@@QEAA?AUTryBlockMapEntry4@2@XZ 0000000180040d70 f i libvcruntimed:risctrnsctrl.obj
 0001:0003fda0       ??Eiterator@TryBlockMap4@FH4@@QEAAAEAV012@XZ 0000000180040da0 f i libvcruntimed:risctrnsctrl.obj
 0001:0003fde0       ?CatchTryBlock@__FrameHandler3@@SAPEBU_s_TryBlockMapEntry@@PEBU_s_FuncInfo@@H@Z 0000000180040de0 f   libvcruntimed:risctrnsctrl.obj
 0001:0003fe70       ?DecompFuncInfo@FH4@@YA_JPEAEAEAUFuncInfo4@1@_KH@Z 0000000180040e70 f i libvcruntimed:risctrnsctrl.obj
 0001:0003feb0       ?DecompFuncInfo@FH4@@YA_JPEAEAEAUFuncInfo4@1@_KH_N@Z 0000000180040eb0 f i libvcruntimed:risctrnsctrl.obj
 0001:00040080       ?DecompTryBlock@TryBlockMap4@FH4@@AEAAXXZ 0000000180041080 f i libvcruntimed:risctrnsctrl.obj
 0001:00040100       ?ExecutionInCatch@__FrameHandler3@@SA_NPEAU_xDISPATCHER_CONTEXT@@PEBU_s_FuncInfo@@@Z 0000000180041100 f   libvcruntimed:risctrnsctrl.obj
 0001:00040150       ?ExecutionInCatch@__FrameHandler4@@SA_NPEAU_xDISPATCHER_CONTEXT@@PEAUFuncInfo4@FH4@@@Z 0000000180041150 f   libvcruntimed:risctrnsctrl.obj
 0001:00040170       ?FrameUnwindToEmptyState@__FrameHandler3@@SAXPEA_KPEAU_xDISPATCHER_CONTEXT@@PEBU_s_FuncInfo@@@Z 0000000180041170 f   libvcruntimed:risctrnsctrl.obj
 0001:00040210       ?FrameUnwindToEmptyState@__FrameHandler4@@SAXPEA_KPEAU_xDISPATCHER_CONTEXT@@PEAUFuncInfo4@FH4@@@Z 0000000180041210 f   libvcruntimed:risctrnsctrl.obj
 0001:00040260       ?GetEstablisherFrame@__FrameHandler3@@SAPEA_KPEA_KPEAU_xDISPATCHER_CONTEXT@@PEBU_s_FuncInfo@@0@Z 0000000180041260 f   libvcruntimed:risctrnsctrl.obj
 0001:000403d0       ?GetEstablisherFrame@__FrameHandler4@@SAPEA_KPEA_KPEAU_xDISPATCHER_CONTEXT@@PEAUFuncInfo4@FH4@@0@Z 00000001800413d0 f   libvcruntimed:risctrnsctrl.obj
 0001:00040440       ?GetRangeOfTrysToCheck@__FrameHandler3@@SA?AU?$pair@Viterator@TryBlockMap@__FrameHandler3@@V123@@std@@AEAVTryBlockMap@1@HPEAU_xDISPATCHER_CONTEXT@@PEBU_s_FuncInfo@@H@Z 0000000180041440 f   libvcruntimed:risctrnsctrl.obj
 0001:00040680       ?GetRangeOfTrysToCheck@__FrameHandler4@@SA?AU?$pair@Viterator@TryBlockMap4@FH4@@V123@@std@@AEAVTryBlockMap4@FH4@@HPEAU_xDISPATCHER_CONTEXT@@PEAUFuncInfo4@5@H@Z 0000000180041680 f   libvcruntimed:risctrnsctrl.obj
 0001:00040830       ?ReadInt@FH4@@YAHPEAPEAE@Z 0000000180041830 f i libvcruntimed:risctrnsctrl.obj
 0001:00040870       ?ReadUnsigned@FH4@@YAIPEAPEAE@Z 0000000180041870 f i libvcruntimed:risctrnsctrl.obj
 0001:00040900       ?UnwindNestedFrames@__FrameHandler3@@SAXPEA_KPEAUEHExceptionRecord@@PEAU_CONTEXT@@0PEAXPEBU_s_FuncInfo@@HHPEBU_s_HandlerType@@PEAU_xDISPATCHER_CONTEXT@@E@Z 0000000180041900 f   libvcruntimed:risctrnsctrl.obj
 0001:00040a70       ?UnwindNestedFrames@__FrameHandler4@@SAXPEA_KPEAUEHExceptionRecord@@PEAU_CONTEXT@@0PEAXPEAUFuncInfo4@FH4@@HHPEAUHandlerType4@5@PEAU_xDISPATCHER_CONTEXT@@E@Z 0000000180041a70 f   libvcruntimed:risctrnsctrl.obj
 0001:00040c40       ?begin@TryBlockMap4@FH4@@QEAA?AViterator@12@XZ 0000000180041c40 f i libvcruntimed:risctrnsctrl.obj
 0001:00040c70       ?end@TryBlockMap4@FH4@@QEAA?AViterator@12@XZ 0000000180041c70 f i libvcruntimed:risctrnsctrl.obj
 0001:00040ca0       ?imageRelToByteBuffer@FH4@@YAPEAE_KH@Z 0000000180041ca0 f i libvcruntimed:risctrnsctrl.obj
 0001:00040cc0       ?incrementToSentinel@iterator@TryBlockMap4@FH4@@QEAAXXZ 0000000180041cc0 f i libvcruntimed:risctrnsctrl.obj
 0001:00040ce0       ?setBuffer@TryBlockMap4@FH4@@QEAAXViterator@12@@Z 0000000180041ce0 f i libvcruntimed:risctrnsctrl.obj
 0001:00040d50       _CreateFrameInfo           0000000180041d50 f   libvcruntimed:risctrnsctrl.obj
 0001:00040dc0       _FindAndUnlinkFrame        0000000180041dc0 f   libvcruntimed:risctrnsctrl.obj
 0001:00040e40       _GetImageBase              0000000180041e40 f   libvcruntimed:risctrnsctrl.obj
 0001:00040e60       _GetThrowImageBase         0000000180041e60 f   libvcruntimed:risctrnsctrl.obj
 0001:00040e80       _SetImageBase              0000000180041e80 f   libvcruntimed:risctrnsctrl.obj
 0001:00040ea0       _SetThrowImageBase         0000000180041ea0 f   libvcruntimed:risctrnsctrl.obj
 0001:00040ec0       __CxxFrameHandler          0000000180041ec0 f   libvcruntimed:risctrnsctrl.obj
 0001:00040f00       __CxxFrameHandler2         0000000180041f00 f   libvcruntimed:risctrnsctrl.obj
 0001:00040f40       __CxxFrameHandler3         0000000180041f40 f   libvcruntimed:risctrnsctrl.obj
 0001:00041020       __CxxFrameHandler4         0000000180042020 f   libvcruntimed:risctrnsctrl.obj
 0001:00041130       __C_specific_handler_noexcept 0000000180042130 f   libvcruntimed:chandler_noexcept.obj
 0001:000411c0       __DestructExceptionObject  00000001800421c0 f   libvcruntimed:ehhelpers.obj
 0001:000412c0       ?_CallMemberFunction0@@YAXQEAX0@Z 00000001800422c0 f i libvcruntimed:ehhelpers.obj
 0001:00041390       ?raw_name@type_info@@QEBAPEBDXZ 0000000180042390 f i libvcruntimed:ehhelpers.obj
 0001:000413a0       _IsExceptionObjectToBeDestroyed 00000001800423a0 f   libvcruntimed:ehhelpers.obj
 0001:000413f0       _SetWinRTOutOfMemoryExceptionCallback 00000001800423f0 f   libvcruntimed:ehhelpers.obj
 0001:00041410       __AdjustPointer            0000000180042410 f   libvcruntimed:ehhelpers.obj
 0001:00041490       __FrameUnwindFilter        0000000180042490 f   libvcruntimed:ehhelpers.obj
 0001:00041540       __GetPlatformExceptionInfo 0000000180042540 f   libvcruntimed:ehhelpers.obj
 0001:000415f0       __current_exception        00000001800425f0 f   libvcruntimed:ehhelpers.obj
 0001:00041610       __current_exception_context 0000000180042610 f   libvcruntimed:ehhelpers.obj
 0001:00041630       __processing_throw         0000000180042630 f   libvcruntimed:ehhelpers.obj
 0001:00041650       __std_terminate            0000000180042650 f   libvcruntimed:ehhelpers.obj
 0001:00041660       _is_exception_typeof       0000000180042660 f   libvcruntimed:ehhelpers.obj
 0001:000417f0       ??$?RD@__crt_internal_free_policy@@QEBAXQEBD@Z 00000001800427f0 f i libvcruntimed:std_type_info.obj
 0001:00041820       ??$?RX@__crt_internal_free_policy@@QEBAXQEBX@Z 0000000180042820 f i libvcruntimed:std_type_info.obj
 0001:00041850       ??$__crt_interlocked_compare_exchange_pointer@$$CBDPEAD$$T@@YAPEBDPEDSEBDQEAD$$T@Z 0000000180042850 f i libvcruntimed:std_type_info.obj
 0001:00041890       ??$__crt_interlocked_read_pointer@$$CBD@@YAPEBDPEDSEBD@Z 0000000180042890 f i libvcruntimed:std_type_info.obj
 0001:000418b0       ??0?$__crt_unique_heap_ptr@DU__crt_internal_free_policy@@@@QEAA@QEAD@Z 00000001800428b0 f i libvcruntimed:std_type_info.obj
 0001:000418d0       ??0?$__crt_unique_heap_ptr@XU__crt_internal_free_policy@@@@QEAA@QEAX@Z 00000001800428d0 f i libvcruntimed:std_type_info.obj
 0001:000418f0       ??1?$__crt_unique_heap_ptr@DU__crt_internal_free_policy@@@@QEAA@XZ 00000001800428f0 f i libvcruntimed:std_type_info.obj
 0001:00041910       ??1?$__crt_unique_heap_ptr@XU__crt_internal_free_policy@@@@QEAA@XZ 0000000180042910 f i libvcruntimed:std_type_info.obj
 0001:00041930       ??B?$__crt_unique_heap_ptr@DU__crt_internal_free_policy@@@@QEBA_NXZ 0000000180042930 f i libvcruntimed:std_type_info.obj
 0001:00041950       ??B?$__crt_unique_heap_ptr@XU__crt_internal_free_policy@@@@QEBA_NXZ 0000000180042950 f i libvcruntimed:std_type_info.obj
 0001:000419f0       ?detach@?$__crt_unique_heap_ptr@XU__crt_internal_free_policy@@@@QEAAPEAXXZ 00000001800429f0 f i libvcruntimed:std_type_info.obj
 0001:00041a20       ?get@?$__crt_unique_heap_ptr@DU__crt_internal_free_policy@@@@QEBAPEADXZ 0000000180042a20 f i libvcruntimed:std_type_info.obj
 0001:00041a30       ?get@?$__crt_unique_heap_ptr@XU__crt_internal_free_policy@@@@QEBAPEAXXZ 0000000180042a30 f i libvcruntimed:std_type_info.obj
 0001:00041a40       ?is_valid@?$__crt_unique_heap_ptr@DU__crt_internal_free_policy@@@@QEBA_NXZ 0000000180042a40 f i libvcruntimed:std_type_info.obj
 0001:00041a70       ?is_valid@?$__crt_unique_heap_ptr@XU__crt_internal_free_policy@@@@QEBA_NXZ 0000000180042a70 f i libvcruntimed:std_type_info.obj
 0001:00041aa0       ?release@?$__crt_unique_heap_ptr@DU__crt_internal_free_policy@@@@QEAAXXZ 0000000180042aa0 f i libvcruntimed:std_type_info.obj
 0001:00041ad0       ?release@?$__crt_unique_heap_ptr@XU__crt_internal_free_policy@@@@QEAAXXZ 0000000180042ad0 f i libvcruntimed:std_type_info.obj
 0001:00041b00       __std_type_info_compare    0000000180042b00 f   libvcruntimed:std_type_info.obj
 0001:00041b40       __std_type_info_destroy_list 0000000180042b40 f   libvcruntimed:std_type_info.obj
 0001:00041ba0       __std_type_info_hash       0000000180042ba0 f   libvcruntimed:std_type_info.obj
 0001:00041c50       __std_type_info_name       0000000180042c50 f   libvcruntimed:std_type_info.obj
 0001:00041f00       __vcrt_GetModuleFileNameW  0000000180042f00 f   libvcruntimed:winapi_thunks.obj
 0001:00041f30       __vcrt_GetModuleHandleW    0000000180042f30 f   libvcruntimed:winapi_thunks.obj
 0001:00041f50       __vcrt_LoadLibraryExW      0000000180042f50 f   libvcruntimed:winapi_thunks.obj
 0001:00041f80       ??$?RD@__crt_public_free_policy@@QEBAXQEBD@Z 0000000180042f80 f i libvcruntimed:std_exception.obj
 0001:00041fa0       ??0?$__crt_unique_heap_ptr@DU__crt_public_free_policy@@@@QEAA@QEAD@Z 0000000180042fa0 f i libvcruntimed:std_exception.obj
 0001:00041fc0       ??1?$__crt_unique_heap_ptr@DU__crt_public_free_policy@@@@QEAA@XZ 0000000180042fc0 f i libvcruntimed:std_exception.obj
 0001:00041fe0       ??B?$__crt_unique_heap_ptr@DU__crt_public_free_policy@@@@QEBA_NXZ 0000000180042fe0 f i libvcruntimed:std_exception.obj
 0001:00042000       ?detach@?$__crt_unique_heap_ptr@DU__crt_public_free_policy@@@@QEAAPEADXZ 0000000180043000 f i libvcruntimed:std_exception.obj
 0001:00042030       ?get@?$__crt_unique_heap_ptr@DU__crt_public_free_policy@@@@QEBAPEADXZ 0000000180043030 f i libvcruntimed:std_exception.obj
 0001:00042040       ?is_valid@?$__crt_unique_heap_ptr@DU__crt_public_free_policy@@@@QEBA_NXZ 0000000180043040 f i libvcruntimed:std_exception.obj
 0001:00042070       ?release@?$__crt_unique_heap_ptr@DU__crt_public_free_policy@@@@QEAAXXZ 0000000180043070 f i libvcruntimed:std_exception.obj
 0001:000420a0       __std_exception_copy       00000001800430a0 f   libvcruntimed:std_exception.obj
 0001:000421e0       __std_exception_destroy    00000001800431e0 f   libvcruntimed:std_exception.obj
 0001:00042220       _CxxThrowException         0000000180043220 f   libvcruntimed:throw.obj
 0001:00042350       ??$?RU__vcrt_ptd@@@__crt_internal_free_policy@@QEBAXQEBU__vcrt_ptd@@@Z 0000000180043350 f i libvcruntimed:per_thread_data.obj
 0001:00042380       ??0?$__crt_unique_heap_ptr@U__vcrt_ptd@@U__crt_internal_free_policy@@@@QEAA@QEAU__vcrt_ptd@@@Z 0000000180043380 f i libvcruntimed:per_thread_data.obj
 0001:000423c0       ??1?$__crt_unique_heap_ptr@U__vcrt_ptd@@U__crt_internal_free_policy@@@@QEAA@XZ 00000001800433c0 f i libvcruntimed:per_thread_data.obj
 0001:00042400       ??B?$__crt_unique_heap_ptr@U__vcrt_ptd@@U__crt_internal_free_policy@@@@QEBA_NXZ 0000000180043400 f i libvcruntimed:per_thread_data.obj
 0001:00042420       ?detach@?$__crt_unique_heap_ptr@U__vcrt_ptd@@U__crt_internal_free_policy@@@@QEAAPEAU__vcrt_ptd@@XZ 0000000180043420 f i libvcruntimed:per_thread_data.obj
 0001:00042450       ?get@?$__crt_unique_heap_ptr@U__vcrt_ptd@@U__crt_internal_free_policy@@@@QEBAPEAU__vcrt_ptd@@XZ 0000000180043450 f i libvcruntimed:per_thread_data.obj
 0001:00042460       ?is_valid@?$__crt_unique_heap_ptr@U__vcrt_ptd@@U__crt_internal_free_policy@@@@QEBA_NXZ 0000000180043460 f i libvcruntimed:per_thread_data.obj
 0001:00042490       ?release@?$__crt_unique_heap_ptr@U__vcrt_ptd@@U__crt_internal_free_policy@@@@QEAAXXZ 0000000180043490 f i libvcruntimed:per_thread_data.obj
 0001:00042500       __vcrt_freefls             0000000180043500 f   libvcruntimed:per_thread_data.obj
 0001:00042540       __vcrt_freeptd             0000000180043540 f   libvcruntimed:per_thread_data.obj
 0001:000425a0       __vcrt_getptd              00000001800435a0 f   libvcruntimed:per_thread_data.obj
 0001:000425d0       __vcrt_getptd_noexit       00000001800435d0 f   libvcruntimed:per_thread_data.obj
 0001:00042770       __vcrt_getptd_noinit       0000000180043770 f   libvcruntimed:per_thread_data.obj
 0001:000427d0       __vcrt_initialize_ptd      00000001800437d0 f   libvcruntimed:per_thread_data.obj
 0001:00042820       __vcrt_uninitialize_ptd    0000000180043820 f   libvcruntimed:per_thread_data.obj
 0001:00042850       __vcrt_initialize_locks    0000000180043850 f   libvcruntimed:locks.obj
 0001:000428c0       __vcrt_lock                00000001800438c0 f   libvcruntimed:locks.obj
 0001:000428f0       __vcrt_uninitialize_locks  00000001800438f0 f   libvcruntimed:locks.obj
 0001:00042950       __vcrt_unlock              0000000180043950 f   libvcruntimed:locks.obj
 0001:00042990       _NLG_Notify                0000000180043990 f   libvcruntimed:notify.obj
 0001:000429b0       __NLG_Dispatch2            00000001800439b0 f   libvcruntimed:notify.obj
 0001:000429c0       __NLG_Return2              00000001800439c0 f   libvcruntimed:notify.obj
 0001:000429e0       __except_validate_context_record 00000001800439e0 f   libvcruntimed:jbcxrval.obj
 0001:00042a40       __except_validate_jump_buffer 0000000180043a40 f   libvcruntimed:jbcxrval.obj
 0001:00042a60       __except_validate_jump_buffer_common 0000000180043a60 f i libvcruntimed:jbcxrval.obj
 0001:00042ae0       ?GetCurrentState@__FrameHandler3@@SAHPEA_KPEAU_xDISPATCHER_CONTEXT@@PEBU_s_FuncInfo@@@Z 0000000180043ae0 f   libvcruntimed:ehstate.obj
 0001:00042b40       ?GetUnwindTryBlock@__FrameHandler3@@SAHPEA_KPEAU_xDISPATCHER_CONTEXT@@PEBU_s_FuncInfo@@@Z 0000000180043b40 f   libvcruntimed:ehstate.obj
 0001:00042b90       ?SetState@__FrameHandler3@@SAXPEA_KPEBU_s_FuncInfo@@H@Z 0000000180043b90 f   libvcruntimed:ehstate.obj
 0001:00042bc0       ?SetUnwindTryBlock@__FrameHandler3@@SAXPEA_KPEAU_xDISPATCHER_CONTEXT@@PEBU_s_FuncInfo@@H@Z 0000000180043bc0 f   libvcruntimed:ehstate.obj
 0001:00042c30       ?StateFromControlPc@__FrameHandler3@@SAHPEBU_s_FuncInfo@@PEAU_xDISPATCHER_CONTEXT@@@Z 0000000180043c30 f   libvcruntimed:ehstate.obj
 0001:00042c70       ?StateFromControlPc@__FrameHandler4@@SAHPEAUFuncInfo4@FH4@@PEAU_xDISPATCHER_CONTEXT@@@Z 0000000180043c70 f   libvcruntimed:ehstate.obj
 0001:00042cb0       ?StateFromIp@__FrameHandler3@@SAHPEBU_s_FuncInfo@@PEAU_xDISPATCHER_CONTEXT@@_K@Z 0000000180043cb0 f   libvcruntimed:ehstate.obj
 0001:00042da0       ?StateFromIp@__FrameHandler4@@SAHPEAUFuncInfo4@FH4@@PEAU_xDISPATCHER_CONTEXT@@_K@Z 0000000180043da0 f   libvcruntimed:ehstate.obj
 0001:00042e90       ?__FuncRelToRealOffset@@YA_KPEAU_xDISPATCHER_CONTEXT@@I@Z 0000000180043e90 f i libvcruntimed:ehstate.obj
 0001:00042ec0       ?__RVAtoRealOffset@@YA_KPEAU_xDISPATCHER_CONTEXT@@H@Z 0000000180043ec0 f i libvcruntimed:ehstate.obj
 0001:00045140       ??$TypeMatchHelper@V__FrameHandler3@@@@YAHPEBU_s_HandlerType@@PEBU_s_CatchableType@@PEBU_s_ThrowInfo@@@Z 0000000180046140 f i libvcruntimed:frame.obj
 0001:00045340       ??$TypeMatchHelper@V__FrameHandler4@@@@YAHPEAUHandlerType4@FH4@@PEBU_s_CatchableType@@PEBU_s_ThrowInfo@@@Z 0000000180046340 f i libvcruntimed:frame.obj
 0001:00045550       ??$__InternalCxxFrameHandler@V__FrameHandler3@@@@YA?AW4_EXCEPTION_DISPOSITION@@PEAUEHExceptionRecord@@PEA_KPEAU_CONTEXT@@PEAU_xDISPATCHER_CONTEXT@@PEBU_s_FuncInfo@@H1E@Z 0000000180046550 f i libvcruntimed:frame.obj
 0001:000459c0       ??$__InternalCxxFrameHandler@V__FrameHandler4@@@@YA?AW4_EXCEPTION_DISPOSITION@@PEAUEHExceptionRecord@@PEA_KPEAU_CONTEXT@@PEAU_xDISPATCHER_CONTEXT@@PEAUFuncInfo4@FH4@@H1E@Z 00000001800469c0 f i libvcruntimed:frame.obj
 0001:00045e50       ??0HandlerMap4@FH4@@QEAA@PEBUTryBlockMapEntry4@1@_KH@Z 0000000180046e50 f i libvcruntimed:frame.obj
 0001:00045f10       ??0HandlerMap@__FrameHandler3@@QEAA@PEBU_s_TryBlockMapEntry@@_KI@Z 0000000180046f10 f i libvcruntimed:frame.obj
 0001:00045f60       ??0HandlerType4@FH4@@QEAA@XZ 0000000180046f60 f i libvcruntimed:frame.obj
 0001:00045f80       ??0TryBlockMap4@FH4@@QEAA@PEBUFuncInfo4@1@_K@Z 0000000180046f80 f i libvcruntimed:frame.obj
 0001:00046010       ??0TryBlockMap@__FrameHandler3@@QEAA@PEBU_s_FuncInfo@@_K@Z 0000000180047010 f i libvcruntimed:frame.obj
 0001:00046040       ??0UWMap4@FH4@@QEAA@PEBUFuncInfo4@1@_K@Z 0000000180047040 f i libvcruntimed:frame.obj
 0001:000460b0       ??0bad_exception@std@@QEAA@AEBV01@@Z 00000001800470b0 f i libvcruntimed:frame.obj
 0001:000460f0       ??0bad_exception@std@@QEAA@XZ 00000001800470f0 f i libvcruntimed:frame.obj
 0001:00046130       ??0iterator@HandlerMap4@FH4@@QEAA@AEAV12@I@Z 0000000180047130 f i libvcruntimed:frame.obj
 0001:00046160       ??0iterator@HandlerMap@__FrameHandler3@@QEAA@AEAV12@I@Z 0000000180047160 f i libvcruntimed:frame.obj
 0001:00046190       ??0iterator@UWMap4@FH4@@QEAA@AEAV12@PEAE@Z 0000000180047190 f i libvcruntimed:frame.obj
 0001:000461c0       ??1bad_exception@std@@UEAA@XZ 00000001800471c0 f i libvcruntimed:frame.obj
 0001:000461e0       ??4iterator@UWMap4@FH4@@QEAAAEAV012@AEBV012@@Z 00000001800471e0 f i libvcruntimed:frame.obj
 0001:00046230       ??8iterator@HandlerMap4@FH4@@QEBA_NAEBV012@@Z 0000000180047230 f i libvcruntimed:frame.obj
 0001:00046270       ??8iterator@HandlerMap@__FrameHandler3@@QEBA_NAEBV012@@Z 0000000180047270 f i libvcruntimed:frame.obj
 0001:000462b0       ??8type_info@@QEBA_NAEBV0@@Z 00000001800472b0 f i libvcruntimed:frame.obj
 0001:00046300       ??9iterator@HandlerMap4@FH4@@QEBA_NAEBV012@@Z 0000000180047300 f i libvcruntimed:frame.obj
 0001:00046340       ??9iterator@HandlerMap@__FrameHandler3@@QEBA_NAEBV012@@Z 0000000180047340 f i libvcruntimed:frame.obj
 0001:00046380       ??Diterator@HandlerMap4@FH4@@QEAA?AUHandlerType4@2@XZ 0000000180047380 f i libvcruntimed:frame.obj
 0001:000463b0       ??Diterator@HandlerMap@__FrameHandler3@@QEAA?BU_s_HandlerType@@XZ 00000001800473b0 f i libvcruntimed:frame.obj
 0001:000463f0       ??Diterator@TryBlockMap@__FrameHandler3@@QEAA?BU_s_TryBlockMapEntry@@XZ 00000001800473f0 f i libvcruntimed:frame.obj
 0001:00046440       ??Diterator@UWMap4@FH4@@QEAA?AUUnwindMapEntry4@2@XZ 0000000180047440 f i libvcruntimed:frame.obj
 0001:000464c0       ??Eiterator@HandlerMap4@FH4@@QEAAAEAV012@XZ 00000001800474c0 f i libvcruntimed:frame.obj
 0001:00046500       ??Eiterator@HandlerMap@__FrameHandler3@@QEAAAEAV012@XZ 0000000180047500 f i libvcruntimed:frame.obj
 0001:00046520       ??Eiterator@TryBlockMap@__FrameHandler3@@QEAAAEAV012@XZ 0000000180047520 f i libvcruntimed:frame.obj
 0001:00046540       ??Eiterator@UWMap4@FH4@@QEAAAEAV012@XZ 0000000180047540 f i libvcruntimed:frame.obj
 0001:00046580       ??Giterator@UWMap4@FH4@@QEBA_JAEBV012@@Z 0000000180047580 f i libvcruntimed:frame.obj
 0001:000465a0       ??Miterator@TryBlockMap4@FH4@@QEBA_NAEBV012@@Z 00000001800475a0 f i libvcruntimed:frame.obj
 0001:000465e0       ??Miterator@TryBlockMap@__FrameHandler3@@QEBA_NAEBV012@@Z 00000001800475e0 f i libvcruntimed:frame.obj
 0001:00046620       ??Oiterator@UWMap4@FH4@@QEBA_NAEBV012@@Z 0000000180047620 f i libvcruntimed:frame.obj
 0001:00046660       ??Piterator@UWMap4@FH4@@QEBA_NAEBV012@@Z 0000000180047660 f i libvcruntimed:frame.obj
 0001:000466a0       ??_Ebad_exception@std@@UEAAPEAXI@Z 00000001800476a0 f i libvcruntimed:frame.obj
 0001:000466a0       ??_Gbad_exception@std@@UEAAPEAXI@Z 00000001800476a0 f i libvcruntimed:frame.obj
 0001:000466e0       ?BuildCatchObject@__FrameHandler3@@SAXPEAUEHExceptionRecord@@PEAXPEBU_s_HandlerType@@PEBU_s_CatchableType@@@Z 00000001800476e0 f   libvcruntimed:frame.obj
 0001:00046720       ?BuildCatchObject@__FrameHandler4@@SAXPEAUEHExceptionRecord@@PEAXPEAUHandlerType4@FH4@@PEBU_s_CatchableType@@@Z 0000000180047720 f   libvcruntimed:frame.obj
 0001:00046760       ?BuildCatchObjectHelper@__FrameHandler3@@SAHPEAUEHExceptionRecord@@PEAXPEBU_s_HandlerType@@PEBU_s_CatchableType@@@Z 0000000180047760 f   libvcruntimed:frame.obj
 0001:000467a0       ?BuildCatchObjectHelper@__FrameHandler4@@SAHPEAUEHExceptionRecord@@PEAXPEAUHandlerType4@FH4@@PEBU_s_CatchableType@@@Z 00000001800477a0 f   libvcruntimed:frame.obj
 0001:000467e0       ?CxxCallCatchBlock@__FrameHandler3@@SAPEAXPEAU_EXCEPTION_RECORD@@@Z 00000001800477e0 f   libvcruntimed:frame.obj
 0001:00046a40       ?CxxCallCatchBlock@__FrameHandler4@@SAPEAXPEAU_EXCEPTION_RECORD@@@Z 0000000180047a40 f   libvcruntimed:frame.obj
 0001:00046d70       ?DecompHandler@HandlerMap4@FH4@@AEAAXXZ 0000000180047d70 f i libvcruntimed:frame.obj
 0001:00047140       ?FrameUnwindToState@__FrameHandler3@@SAXPEA_KPEAU_xDISPATCHER_CONTEXT@@PEBU_s_FuncInfo@@H@Z 0000000180048140 f   libvcruntimed:frame.obj
 0001:00047390       ?FrameUnwindToState@__FrameHandler4@@SAXPEA_KPEAU_xDISPATCHER_CONTEXT@@PEAUFuncInfo4@FH4@@H@Z 0000000180048390 f   libvcruntimed:frame.obj
 0001:000476a0       ?GetHandlerSearchState@__FrameHandler3@@SAHPEA_KPEAU_xDISPATCHER_CONTEXT@@PEBU_s_FuncInfo@@@Z 00000001800486a0 f i libvcruntimed:frame.obj
 0001:00047750       ?GetHandlerSearchState@__FrameHandler4@@SAHPEA_KPEAU_xDISPATCHER_CONTEXT@@PEAUFuncInfo4@FH4@@@Z 0000000180048750 f i libvcruntimed:frame.obj
 0001:000477d0       ?GetMaxState@__FrameHandler3@@SAHPEAU_xDISPATCHER_CONTEXT@@PEBU_s_FuncInfo@@@Z 00000001800487d0 f i libvcruntimed:frame.obj
 0001:000477f0       ?GetMaxState@__FrameHandler4@@SAHPEAU_xDISPATCHER_CONTEXT@@PEAUFuncInfo4@FH4@@@Z 00000001800487f0 f i libvcruntimed:frame.obj
 0001:00047a20       ?ReadEntry@UWMap4@FH4@@AEAAXPEAPEAE@Z 0000000180048a20 f i libvcruntimed:frame.obj
 0001:00047ad0       ?TypeMatch@__FrameHandler3@@SAHPEBU_s_HandlerType@@PEBU_s_CatchableType@@PEBU_s_ThrowInfo@@@Z 0000000180048ad0 f   libvcruntimed:frame.obj
 0001:00047b00       ?TypeMatch@__FrameHandler4@@SAHPEAUHandlerType4@FH4@@PEBU_s_CatchableType@@PEBU_s_ThrowInfo@@@Z 0000000180048b00 f   libvcruntimed:frame.obj
 0001:00047b30       ?WalkBack@UWMap4@FH4@@AEAAXPEAPEAE@Z 0000000180048b30 f i libvcruntimed:frame.obj
 0001:00047b80       ?WalkBack@iterator@UWMap4@FH4@@QEAAXXZ 0000000180048b80 f i libvcruntimed:frame.obj
 0001:00047bc0       ?WalkForward@UWMap4@FH4@@AEAAXPEAPEAE@Z 0000000180048bc0 f i libvcruntimed:frame.obj
 0001:00047bf0       ?_CallMemberFunction1@@YAXQEAX00@Z 0000000180048bf0 f i libvcruntimed:frame.obj
 0001:00047c30       ?_CallMemberFunction2@@YAXQEAX00H@Z 0000000180048c30 f i libvcruntimed:frame.obj
 0001:00047cc0       ?begin@HandlerMap4@FH4@@QEAA?AViterator@12@XZ 0000000180048cc0 f i libvcruntimed:frame.obj
 0001:00047cf0       ?begin@HandlerMap@__FrameHandler3@@QEAA?AViterator@12@XZ 0000000180048cf0 f i libvcruntimed:frame.obj
 0001:00047d20       ?begin@UWMap4@FH4@@QEAA?AViterator@12@XZ 0000000180048d20 f i libvcruntimed:frame.obj
 0001:00047d50       ?end@HandlerMap4@FH4@@QEAA?AViterator@12@XZ 0000000180048d50 f i libvcruntimed:frame.obj
 0001:00047d80       ?end@HandlerMap@__FrameHandler3@@QEAA?AViterator@12@XZ 0000000180048d80 f i libvcruntimed:frame.obj
 0001:00047db0       ?getESTypes@__FrameHandler3@@SAPEBU_s_ESTypeList@@PEBU_s_FuncInfo@@@Z 0000000180048db0 f i libvcruntimed:frame.obj
 0001:00047df0       ?getESTypes@__FrameHandler4@@SAPEBU_s_ESTypeList@@PEAUFuncInfo4@FH4@@@Z 0000000180048df0 f i libvcruntimed:frame.obj
 0001:00047e00       ?getLastEntry@HandlerMap4@FH4@@QEAAPEAUHandlerType4@2@XZ 0000000180048e00 f i libvcruntimed:frame.obj
 0001:00047e40       ?getLastEntry@HandlerMap@__FrameHandler3@@QEAAPEBU_s_HandlerType@@XZ 0000000180048e40 f i libvcruntimed:frame.obj
 0001:00047e60       ?getMagicNum@__FrameHandler3@@SAIPEBU_s_FuncInfo@@@Z 0000000180048e60 f i libvcruntimed:frame.obj
 0001:00047e80       ?getMagicNum@__FrameHandler4@@SAIPEAUFuncInfo4@FH4@@@Z 0000000180048e80 f i libvcruntimed:frame.obj
 0001:00047e90       ?getNumTryBlocks@TryBlockMap4@FH4@@QEAAIXZ 0000000180048e90 f i libvcruntimed:frame.obj
 0001:00047ea0       ?getNumTryBlocks@TryBlockMap@__FrameHandler3@@QEAAIXZ 0000000180048ea0 f i libvcruntimed:frame.obj
 0001:00047ec0       ?getStartStop@UWMap4@FH4@@QEAAXHHAEAViterator@12@0@Z 0000000180048ec0 f i libvcruntimed:frame.obj
 0001:00047fe0       ?getStateFromIterators@UWMap4@FH4@@SAHAEBViterator@12@H0H0@Z 0000000180048fe0 f i libvcruntimed:frame.obj
 0001:00048120       ?isEHs@__FrameHandler3@@SA_NPEBU_s_FuncInfo@@@Z 0000000180049120 f i libvcruntimed:frame.obj
 0001:00048160       ?isEHs@__FrameHandler4@@SA_NPEAUFuncInfo4@FH4@@@Z 0000000180049160 f i libvcruntimed:frame.obj
 0001:00048180       ?isNoExcept@__FrameHandler3@@SA_NPEBU_s_FuncInfo@@@Z 0000000180049180 f i libvcruntimed:frame.obj
 0001:000481c0       ?isNoExcept@__FrameHandler4@@SA_NPEAUFuncInfo4@FH4@@@Z 00000001800491c0 f i libvcruntimed:frame.obj
 0001:000481e0       ?reset@HandlerType4@FH4@@QEAAXXZ 00000001800491e0 f i libvcruntimed:frame.obj
 0001:00048240       ?resetBuffer@HandlerMap4@FH4@@QEAAXXZ 0000000180049240 f i libvcruntimed:frame.obj
 0001:00048260       ?setBuffer@HandlerMap4@FH4@@QEAAXI@Z 0000000180049260 f i libvcruntimed:frame.obj
 0001:000482c0       __BuildCatchObject         00000001800492c0 f   libvcruntimed:frame.obj
 0001:00048300       __BuildCatchObjectHelper   0000000180049300 f   libvcruntimed:frame.obj
 0001:00048340       __TypeMatch                0000000180049340 f   libvcruntimed:frame.obj
 0001:00048370       __vcrt_EncodePointer       0000000180049370 f i libvcruntimed:frame.obj
 0001:00048390       ??$?0$00@DName@@QEAA@PEBDU?$StringLifeSelector@$00@@@Z 0000000180049390 f i libvcruntimed:undname.obj
 0001:00048400       ??$?0$00@pcharNode@@QEAA@PEBDHU?$StringLifeSelector@$00@@@Z 0000000180049400 f i libvcruntimed:undname.obj
 0001:00048460       ??$?0$01@DName@@QEAA@PEBDU?$StringLifeSelector@$01@@@Z 0000000180049460 f i libvcruntimed:undname.obj
 0001:000484d0       ??$?0$01@pcharNode@@QEAA@PEBDHU?$StringLifeSelector@$01@@@Z 00000001800494d0 f i libvcruntimed:undname.obj
 0001:00048580       ??$?0$0A@@DName@@QEAA@PEBDU?$StringLifeSelector@$0A@@@@Z 0000000180049580 f i libvcruntimed:undname.obj
 0001:000485f0       ??$?0$0A@@pcharNode@@QEAA@PEBDHU?$StringLifeSelector@$0A@@@@Z 00000001800495f0 f i libvcruntimed:undname.obj
 0001:000486a0       ??$?0_K$0A@@?$optional@_K@std@@QEAA@$$QEA_K@Z 00000001800496a0 f i libvcruntimed:undname.obj
 0001:000486f0       ??$?0_K@?$_Optional_construct_base@_K@std@@QEAA@Uin_place_t@1@$$QEA_K@Z 00000001800496f0 f i libvcruntimed:undname.obj
 0001:00048720       ??$?0_K@?$_Optional_destruct_base@_K$00@std@@QEAA@Uin_place_t@1@$$QEA_K@Z 0000000180049720 f i libvcruntimed:undname.obj
 0001:00048760       ??$append@VDNameNode@@@DName@@AEAAXPEBVDNameNode@@@Z 0000000180049760 f i libvcruntimed:undname.obj
 0001:00048810       ??$append@VDNameStatusNode@@@DName@@AEAAXPEBVDNameStatusNode@@@Z 0000000180049810 f i libvcruntimed:undname.obj
 0001:000488c0       ??$append@VcharNode@@@DName@@AEAAXPEBVcharNode@@@Z 00000001800498c0 f i libvcruntimed:undname.obj
 0001:00048970       ??$append@VpDNameNode@@@DName@@AEAAXPEBVpDNameNode@@@Z 0000000180049970 f i libvcruntimed:undname.obj
 0001:00048a20       ??$append@VpcharNode@@@DName@@AEAAXPEBVpcharNode@@@Z 0000000180049a20 f i libvcruntimed:undname.obj
 0001:00048ad0       ??$doPchar@$00@DName@@AEAAXPEBDH@Z 0000000180049ad0 f i libvcruntimed:undname.obj
 0001:00048c30       ??$doPchar@$01@DName@@AEAAXPEBDH@Z 0000000180049c30 f i libvcruntimed:undname.obj
 0001:00048d90       ??$doPchar@$0A@@DName@@AEAAXPEBDH@Z 0000000180049d90 f i libvcruntimed:undname.obj
 0001:00048ef0       ??$forward@_K@std@@YA$$QEA_KAEA_K@Z 0000000180049ef0 f i libvcruntimed:undname.obj
 0001:00048f00       ??$size@D$04@std@@YA_KAEAY04$$CBD@Z 0000000180049f00 f i libvcruntimed:undname.obj
 0001:00048f10       ??$size@D$0EB@@std@@YA_KAEAY0EB@$$CBD@Z 0000000180049f10 f i libvcruntimed:undname.obj
 0001:00048f20       ??0?$_Optional_construct_base@_K@std@@QEAA@XZ 0000000180049f20 f i libvcruntimed:undname.obj
 0001:00048f40       ??0?$_Optional_destruct_base@_K$00@std@@QEAA@XZ 0000000180049f40 f i libvcruntimed:undname.obj
 0001:00048f60       ??0?$optional@_K@std@@QEAA@XZ 0000000180049f60 f i libvcruntimed:undname.obj
 0001:00048f90       ??0Block@_HeapManager@@QEAA@XZ 0000000180049f90 f i libvcruntimed:undname.obj
 0001:00048fb0       ??0DName@@QEAA@AEAPEBDD@Z  0000000180049fb0 f   libvcruntimed:undname.obj
 0001:00049180       ??0DName@@QEAA@AEBUStringLiteral@@@Z 000000018004a180 f   libvcruntimed:undname.obj
 0001:000491e0       ??0DName@@QEAA@AEBV0@@Z    000000018004a1e0 f i libvcruntimed:undname.obj
 0001:00049210       ??0DName@@QEAA@D@Z         000000018004a210 f   libvcruntimed:undname.obj
 0001:00049250       ??0DName@@QEAA@PEAV0@@Z    000000018004a250 f   libvcruntimed:undname.obj
 0001:00049330       ??0DName@@QEAA@W4DNameStatus@@@Z 000000018004a330 f   libvcruntimed:undname.obj
 0001:000493e0       ??0DName@@QEAA@XZ          000000018004a3e0 f i libvcruntimed:undname.obj
 0001:00049410       ??0DName@@QEAA@_J@Z        000000018004a410 f   libvcruntimed:undname.obj
 0001:00049520       ??0DName@@QEAA@_K@Z        000000018004a520 f   libvcruntimed:undname.obj
 0001:000495f0       ??0DNameNode@@IEAA@XZ      000000018004a5f0 f i libvcruntimed:undname.obj
 0001:00049610       ??0Replicator@@QEAA@XZ     000000018004a610 f i libvcruntimed:undname.obj
 0001:00049650       ??0UnDecorator@@QEAA@PEBDP6APEADJ@ZK@Z 000000018004a650 f i libvcruntimed:undname.obj
 0001:00049700       ??0charNode@@QEAA@D@Z      000000018004a700 f i libvcruntimed:undname.obj
 0001:00049740       ??0pDNameNode@@QEAA@PEAVDName@@@Z 000000018004a740 f   libvcruntimed:undname.obj
 0001:000497c0       ??0pairNode@@QEAA@PEBVDNameNode@@0@Z 000000018004a7c0 f i libvcruntimed:undname.obj
 0001:00049840       ??2@YAPEAX_KAEAV_HeapManager@@H@Z 000000018004a840 f   libvcruntimed:undname.obj
 0001:000498a0       ??4DName@@QEAAAEAV0@AEBUStringLiteral@@@Z 000000018004a8a0 f   libvcruntimed:undname.obj
 0001:000498f0       ??4DName@@QEAAAEAV0@AEBV0@@Z 000000018004a8f0 f   libvcruntimed:undname.obj
 0001:00049920       ??4DName@@QEAAAEAV0@D@Z    000000018004a920 f i libvcruntimed:undname.obj
 0001:00049960       ??4DName@@QEAAAEAV0@PEAV0@@Z 000000018004a960 f   libvcruntimed:undname.obj
 0001:00049a30       ??4DName@@QEAAAEAV0@W4DNameStatus@@@Z 000000018004aa30 f   libvcruntimed:undname.obj
 0001:00049ac0       ??AReplicator@@QEBA?AVDName@@H@Z 000000018004aac0 f   libvcruntimed:undname.obj
 0001:00049b50       ??B?$optional@_K@std@@QEBA_NXZ 000000018004ab50 f i libvcruntimed:undname.obj
 0001:00049b60       ??D?$optional@_K@std@@QEGAAAEA_KXZ 000000018004ab60 f i libvcruntimed:undname.obj
 0001:00049b70       ??H@YA?AVDName@@AEBUStringLiteral@@AEBV0@@Z 000000018004ab70 f i libvcruntimed:undname.obj
 0001:00049bc0       ??H@YA?AVDName@@DAEBV0@@Z  000000018004abc0 f i libvcruntimed:undname.obj
 0001:00049c10       ??H@YA?AVDName@@W4DNameStatus@@AEBV0@@Z 000000018004ac10 f i libvcruntimed:undname.obj
 0001:00049c60       ??HDName@@QEBA?AV0@AEBUStringLiteral@@@Z 000000018004ac60 f   libvcruntimed:undname.obj
 0001:00049cb0       ??HDName@@QEBA?AV0@AEBV0@@Z 000000018004acb0 f   libvcruntimed:undname.obj
 0001:00049d00       ??HDName@@QEBA?AV0@D@Z     000000018004ad00 f   libvcruntimed:undname.obj
 0001:00049d50       ??HDName@@QEBA?AV0@PEAV0@@Z 000000018004ad50 f   libvcruntimed:undname.obj
 0001:00049da0       ??HDName@@QEBA?AV0@W4DNameStatus@@@Z 000000018004ada0 f   libvcruntimed:undname.obj
 0001:00049df0       ??HStringLiteral@@QEBA?AU0@H@Z 000000018004adf0 f i libvcruntimed:undname.obj
 0001:00049e30       ??YDName@@QEAAAEAV0@AEBUStringLiteral@@@Z 000000018004ae30 f   libvcruntimed:undname.obj
 0001:00049f00       ??YDName@@QEAAAEAV0@AEBV0@@Z 000000018004af00 f   libvcruntimed:undname.obj
 0001:00049fc0       ??YDName@@QEAAAEAV0@D@Z    000000018004afc0 f   libvcruntimed:undname.obj
 0001:0004a060       ??YDName@@QEAAAEAV0@PEAV0@@Z 000000018004b060 f   libvcruntimed:undname.obj
 0001:0004a140       ??YDName@@QEAAAEAV0@W4DNameStatus@@@Z 000000018004b140 f   libvcruntimed:undname.obj
 0001:0004a1b0       ??YReplicator@@QEAAAEAV0@AEBVDName@@@Z 000000018004b1b0 f   libvcruntimed:undname.obj
 0001:0004a270       ??_5DName@@QEAAAEAV0@AEBV0@@Z 000000018004b270 f   libvcruntimed:undname.obj
 0001:0004a2e0       ??__K_l@@YA?AUStringLiteral@@PEBD_K@Z 000000018004b2e0 f i libvcruntimed:undname.obj
 0001:0004a330       ?Constructor@_HeapManager@@QEAAXP6APEAX_K@ZP6AXPEAX@Z@Z 000000018004b330 f i libvcruntimed:undname.obj
 0001:0004a390       ?Destructor@_HeapManager@@QEAAXXZ 000000018004b390 f i libvcruntimed:undname.obj
 0001:0004a430       ?UScore@UnDecorator@@SA?AUStringLiteral@@W4Tokens@@@Z 000000018004b430 f   libvcruntimed:undname.obj
 0001:0004a4c0       ?composeDeclaration@UnDecorator@@CA?AVDName@@AEBV2@@Z 000000018004b4c0 f i libvcruntimed:undname.obj
 0001:0004c9c0       ?dbGetString@DName@@QEBAPEADXZ 000000018004d9c0 f   libvcruntimed:undname.obj
 0001:0004c9f0       ?doAccessSpecifiers@UnDecorator@@SAHXZ 000000018004d9f0 f i libvcruntimed:undname.obj
 0001:0004ca20       ?doAllocationLanguage@UnDecorator@@SAHXZ 000000018004da20 f i libvcruntimed:undname.obj
 0001:0004ca50       ?doAllocationModel@UnDecorator@@SAHXZ 000000018004da50 f i libvcruntimed:undname.obj
 0001:0004ca80       ?doEcsu@UnDecorator@@SAHXZ 000000018004da80 f i libvcruntimed:undname.obj
 0001:0004cab0       ?doEllipsis@UnDecorator@@SAHXZ 000000018004dab0 f i libvcruntimed:undname.obj
 0001:0004cae0       ?doFunctionReturns@UnDecorator@@SAHXZ 000000018004dae0 f i libvcruntimed:undname.obj
 0001:0004cb10       ?doMSKeywords@UnDecorator@@SAHXZ 000000018004db10 f i libvcruntimed:undname.obj
 0001:0004cb40       ?doMemberTypes@UnDecorator@@SAHXZ 000000018004db40 f i libvcruntimed:undname.obj
 0001:0004cb70       ?doNameOnly@UnDecorator@@SAHXZ 000000018004db70 f i libvcruntimed:undname.obj
 0001:0004cb80       ?doNoIdentCharCheck@UnDecorator@@SAHXZ 000000018004db80 f i libvcruntimed:undname.obj
 0001:0004cb90       ?doPchar@DName@@AEAAXD@Z   000000018004db90 f   libvcruntimed:undname.obj
 0001:0004cc20       ?doPtr64@UnDecorator@@SAHXZ 000000018004dc20 f i libvcruntimed:undname.obj
 0001:0004cc50       ?doRestrictionSpec@UnDecorator@@SAHXZ 000000018004dc50 f i libvcruntimed:undname.obj
 0001:0004cc80       ?doThisTypes@UnDecorator@@SAHXZ 000000018004dc80 f i libvcruntimed:undname.obj
 0001:0004ccb0       ?doThrowTypes@UnDecorator@@SAHXZ 000000018004dcb0 f i libvcruntimed:undname.obj
 0001:0004cce0       ?doTypeOnly@UnDecorator@@SAHXZ 000000018004dce0 f i libvcruntimed:undname.obj
 0001:0004ccf0       ?doUnderScore@UnDecorator@@SAHXZ 000000018004dcf0 f i libvcruntimed:undname.obj
 0001:0004cd20       ?getArgumentList@UnDecorator@@CA?AVDName@@XZ 000000018004dd20 f   libvcruntimed:undname.obj
 0001:0004cec0       ?getArgumentTypes@UnDecorator@@CA?AVDName@@XZ 000000018004dec0 f   libvcruntimed:undname.obj
 0001:0004d220       ?getArrayObject@UnDecorator@@CA?AVDName@@XZ 000000018004e220 f   libvcruntimed:undname.obj
 0001:0004d340       ?getArrayType@UnDecorator@@CA?AVDName@@AEBV2@@Z 000000018004e340 f i libvcruntimed:undname.obj
 0001:0004d700       ?getBasedType@UnDecorator@@CA?AVDName@@XZ 000000018004e700 f   libvcruntimed:undname.obj
 0001:0004d870       ?getBasicDataType@UnDecorator@@CA?AVDName@@AEBV2@@Z 000000018004e870 f   libvcruntimed:undname.obj
 0001:0004e540       ?getCHPEName@UnDecorator@@QEAAPEADPEADH@Z 000000018004f540 f i libvcruntimed:undname.obj
 0001:0004e710       ?getCallIndex@UnDecorator@@CA?AVDName@@XZ 000000018004f710 f i libvcruntimed:undname.obj
 0001:0004e730       ?getCallingConvention@UnDecorator@@CA?AVDName@@XZ 000000018004f730 f   libvcruntimed:undname.obj
 0001:0004ead0       ?getDataIndirectType@UnDecorator@@CA?AVDName@@AEBV2@W4IndirectionKind@@0H@Z 000000018004fad0 f   libvcruntimed:undname.obj
 0001:0004f770       ?getDataIndirectType@UnDecorator@@CA?AVDName@@XZ 0000000180050770 f i libvcruntimed:undname.obj
 0001:0004f7c0       ?getDataType@UnDecorator@@CA?AVDName@@PEAV2@@Z 00000001800507c0 f   libvcruntimed:undname.obj
 0001:0004f9a0       ?getDecoratedName@UnDecorator@@CA?AVDName@@XZ 00000001800509a0 f   libvcruntimed:undname.obj
 0001:0004fe90       ?getDimension@UnDecorator@@CA?AVDName@@_N@Z 0000000180050e90 f   libvcruntimed:undname.obj
 0001:000501a0       ?getDispatchTarget@UnDecorator@@CA?AVDName@@XZ 00000001800511a0 f   libvcruntimed:undname.obj
 0001:00050270       ?getDisplacement@UnDecorator@@CA?AVDName@@XZ 0000000180051270 f i libvcruntimed:undname.obj
 0001:00050290       ?getECSUDataType@UnDecorator@@CA?AVDName@@XZ 0000000180051290 f   libvcruntimed:undname.obj
 0001:00050620       ?getECSUName@UnDecorator@@CA?AVDName@@XZ 0000000180051620 f i libvcruntimed:undname.obj
 0001:00050640       ?getEnumType@UnDecorator@@CA?AVDName@@XZ 0000000180051640 f i libvcruntimed:undname.obj
 0001:000508d0       ?getExtendedDataIndirectType@UnDecorator@@CA?AVDName@@AEAW4IndirectionKind@@AEA_NH@Z 00000001800518d0 f   libvcruntimed:undname.obj
 0001:00050bf0       ?getExternalDataType@UnDecorator@@CA?AVDName@@AEBV2@@Z 0000000180051bf0 f i libvcruntimed:undname.obj
 0001:00050cd0       ?getFloatingPoint@UnDecorator@@CA?AVDName@@H@Z 0000000180051cd0 f   libvcruntimed:undname.obj
 0001:00050f40       ?getFunctionIndirectType@UnDecorator@@CA?AVDName@@AEBV2@@Z 0000000180051f40 f   libvcruntimed:undname.obj
 0001:00051570       ?getGuardNumber@UnDecorator@@CA?AVDName@@XZ 0000000180052570 f i libvcruntimed:undname.obj
 0001:00051590       ?getLastChar@DName@@QEBADXZ 0000000180052590 f i libvcruntimed:undname.obj
 0001:000515e0       ?getLastChar@DNameStatusNode@@UEBADXZ 00000001800525e0 f i libvcruntimed:undname.obj
 0001:00051620       ?getLastChar@charNode@@UEBADXZ 0000000180052620 f i libvcruntimed:undname.obj
 0001:00051630       ?getLastChar@pDNameNode@@UEBADXZ 0000000180052630 f i libvcruntimed:undname.obj
 0001:00051670       ?getLastChar@pairNode@@UEBADXZ 0000000180052670 f i libvcruntimed:undname.obj
 0001:000516f0       ?getLastChar@pcharNode@@UEBADXZ 00000001800526f0 f i libvcruntimed:undname.obj
 0001:00051730       ?getLexicalFrame@UnDecorator@@CA?AVDName@@XZ 0000000180052730 f i libvcruntimed:undname.obj
 0001:00051780       ?getMemoryWithBuffer@_HeapManager@@QEAAPEAX_K@Z 0000000180052780 f   libvcruntimed:undname.obj
 0001:000518d0       ?getMemoryWithoutBuffer@_HeapManager@@QEAAPEAX_K@Z 00000001800528d0 f   libvcruntimed:undname.obj
 0001:00051920       ?getNoexcept@UnDecorator@@CA?AVDName@@XZ 0000000180052920 f   libvcruntimed:undname.obj
 0001:000519d0       ?getNumberOfDimensions@UnDecorator@@CAHXZ 00000001800529d0 f   libvcruntimed:undname.obj
 0001:00051af0       ?getOperatorName@UnDecorator@@CA?AVDName@@_NPEA_N@Z 0000000180052af0 f i libvcruntimed:undname.obj
 0001:00052a00       ?getPointerType@UnDecorator@@CA?AVDName@@AEBV2@0@Z 0000000180053a00 f i libvcruntimed:undname.obj
 0001:00052a40       ?getPointerTypeArray@UnDecorator@@CA?AVDName@@AEBV2@0@Z 0000000180053a40 f i libvcruntimed:undname.obj
 0001:00052a80       ?getPrimaryDataType@UnDecorator@@CA?AVDName@@AEBV2@@Z 0000000180053a80 f   libvcruntimed:undname.obj
 0001:00053070       ?getPtrRefDataType@UnDecorator@@CA?AVDName@@AEBV2@H@Z 0000000180054070 f   libvcruntimed:undname.obj
 0001:00053460       ?getPtrRefType@UnDecorator@@CA?AVDName@@AEBV2@0W4IndirectionKind@@@Z 0000000180054460 f   libvcruntimed:undname.obj
 0001:000536a0       ?getReferenceType@UnDecorator@@CA?AVDName@@AEBV2@0W4IndirectionKind@@@Z 00000001800546a0 f i libvcruntimed:undname.obj
 0001:000536e0       ?getRestrictionSpec@UnDecorator@@CA?AVDName@@XZ 00000001800546e0 f   libvcruntimed:undname.obj
 0001:00053970       ?getReturnType@UnDecorator@@CA?AVDName@@PEAV2@@Z 0000000180054970 f   libvcruntimed:undname.obj
 0001:000539d0       ?getScope@UnDecorator@@CA?AVDName@@XZ 00000001800549d0 f   libvcruntimed:undname.obj
 0001:00054120       ?getScopedName@UnDecorator@@CA?AVDName@@XZ 0000000180055120 f   libvcruntimed:undname.obj
 0001:00054320       ?getSignedDimension@UnDecorator@@CA?AVDName@@XZ 0000000180055320 f   libvcruntimed:undname.obj
 0001:000543b0       ?getStorageConvention@UnDecorator@@CA?AVDName@@XZ 00000001800553b0 f i libvcruntimed:undname.obj
 0001:000543d0       ?getString@DName@@QEBAPEADPEAD0@Z 00000001800553d0 f i libvcruntimed:undname.obj
 0001:00054450       ?getString@DName@@QEBAPEADPEADH@Z 0000000180055450 f i libvcruntimed:undname.obj
 0001:00054510       ?getString@DNameStatusNode@@UEBAPEADPEAD0@Z 0000000180055510 f i libvcruntimed:undname.obj
 0001:00054560       ?getString@charNode@@UEBAPEADPEAD0@Z 0000000180055560 f i libvcruntimed:undname.obj
 0001:000545a0       ?getString@pDNameNode@@UEBAPEADPEAD0@Z 00000001800555a0 f i libvcruntimed:undname.obj
 0001:00054600       ?getString@pairNode@@UEBAPEADPEAD0@Z 0000000180055600 f i libvcruntimed:undname.obj
 0001:000546d0       ?getString@pcharNode@@UEBAPEADPEAD0@Z 00000001800556d0 f i libvcruntimed:undname.obj
 0001:00054710       ?getStringEncoding@UnDecorator@@CA?AVDName@@W4PrefixKind@@H@Z 0000000180055710 f   libvcruntimed:undname.obj
 0001:00054870       ?getStringHelper@@YAPEADPEADPEBD1H@Z 0000000180055870 f i libvcruntimed:undname.obj
 0001:000548e0       ?getStringObject@UnDecorator@@CA?AVDName@@XZ 00000001800558e0 f   libvcruntimed:undname.obj
 0001:000549c0       ?getSymbolName@UnDecorator@@CA?AVDName@@XZ 00000001800559c0 f i libvcruntimed:undname.obj
 0001:00054a60       ?getTemplateArgumentList@UnDecorator@@CA?AVDName@@XZ 0000000180055a60 f   libvcruntimed:undname.obj
 0001:00054d70       ?getTemplateName@UnDecorator@@CA?AVDName@@_N@Z 0000000180055d70 f   libvcruntimed:undname.obj
 0001:00054fb0       ?getTemplateNonTypeArgument@UnDecorator@@CA?AVDName@@XZ 0000000180055fb0 f   libvcruntimed:undname.obj
 0001:000556a0       ?getTemplateTypeArgument@UnDecorator@@CA?AVDName@@XZ 00000001800566a0 f   libvcruntimed:undname.obj
 0001:00055910       ?getThisType@UnDecorator@@CA?AVDName@@XZ 0000000180056910 f i libvcruntimed:undname.obj
 0001:00055960       ?getThrowTypes@UnDecorator@@CA?AVDName@@XZ 0000000180056960 f   libvcruntimed:undname.obj
 0001:000559b0       ?getTypeEncoding@UnDecorator@@CAHXZ 00000001800569b0 f i libvcruntimed:undname.obj
 0001:000565e0       ?getUndecoratedName@UnDecorator@@QEAAPEADPEADH@Z 00000001800575e0 f i libvcruntimed:undname.obj
 0001:000567d0       ?getVCallThunkType@UnDecorator@@CA?AVDName@@XZ 00000001800577d0 f i libvcruntimed:undname.obj
 0001:00056880       ?getValue@UnDecorator@@CA?AV?$optional@_K@std@@XZ 0000000180057880 f   libvcruntimed:undname.obj
 0001:00056950       ?getValueObject@UnDecorator@@CA?AVDName@@XZ 0000000180057950 f   libvcruntimed:undname.obj
 0001:00056b10       ?getVbTableType@UnDecorator@@CA?AVDName@@AEBV2@@Z 0000000180057b10 f i libvcruntimed:undname.obj
 0001:00056b40       ?getVdispMapType@UnDecorator@@CA?AVDName@@AEBV2@@Z 0000000180057b40 f i libvcruntimed:undname.obj
 0001:00056c00       ?getVfTableType@UnDecorator@@CA?AVDName@@AEBV2@@Z 0000000180057c00 f i libvcruntimed:undname.obj
 0001:00056ea0       ?getZName@UnDecorator@@CA?AVDName@@_N0@Z 0000000180057ea0 f   libvcruntimed:undname.obj
 0001:00057330       ?haveTemplateParameters@UnDecorator@@SAHXZ 0000000180058330 f i libvcruntimed:undname.obj
 0001:00057340       ?isArray@DName@@QEBAHXZ    0000000180058340 f i libvcruntimed:undname.obj
 0001:00057360       ?isComArray@DName@@QEBAHXZ 0000000180058360 f i libvcruntimed:undname.obj
 0001:00057380       ?isEmpty@DName@@QEBAHXZ    0000000180058380 f i libvcruntimed:undname.obj
 0001:000573b0       ?isFull@Replicator@@QEBAHXZ 00000001800583b0 f i libvcruntimed:undname.obj
 0001:000573e0       ?isNoTE@DName@@QEBAHXZ     00000001800583e0 f i libvcruntimed:undname.obj
 0001:00057400       ?isPinPtr@DName@@QEBAHXZ   0000000180058400 f i libvcruntimed:undname.obj
 0001:00057420       ?isPtrRef@DName@@QEBAHXZ   0000000180058420 f i libvcruntimed:undname.obj
 0001:00057440       ?isUDC@DName@@QEBAHXZ      0000000180058440 f i libvcruntimed:undname.obj
 0001:00057490       ?isUDTThunk@DName@@QEBAHXZ 0000000180058490 f i libvcruntimed:undname.obj
 0001:000574e0       ?isVCallThunk@DName@@QEBAHXZ 00000001800584e0 f i libvcruntimed:undname.obj
 0001:00057500       ?isValid@DName@@QEBAHXZ    0000000180058500 f i libvcruntimed:undname.obj
 0001:00057540       ?length@DName@@QEBAHXZ     0000000180058540 f i libvcruntimed:undname.obj
 0001:00057590       ?length@DNameStatusNode@@UEBAHXZ 0000000180058590 f i libvcruntimed:undname.obj
 0001:000575a0       ?length@charNode@@UEBAHXZ  00000001800585a0 f i libvcruntimed:undname.obj
 0001:000575b0       ?length@pDNameNode@@UEBAHXZ 00000001800585b0 f i libvcruntimed:undname.obj
 0001:000575f0       ?length@pairNode@@UEBAHXZ  00000001800585f0 f i libvcruntimed:undname.obj
 0001:00057680       ?length@pcharNode@@UEBAHXZ 0000000180058680 f i libvcruntimed:undname.obj
 0001:00057690       ?make@DNameStatusNode@@SAPEBV1@W4DNameStatus@@@Z 0000000180058690 f i libvcruntimed:undname.obj
 0001:000576e0       ?parseDecoratedName@UnDecorator@@CA?AVDName@@XZ 00000001800586e0 f   libvcruntimed:undname.obj
 0001:000578d0       ?raw_length@DNameStatusNode@@UEBAHXZ 00000001800588d0 f i libvcruntimed:undname.obj
 0001:000578f0       ?raw_length@charNode@@UEBAHXZ 00000001800588f0 f i libvcruntimed:undname.obj
 0001:00057910       ?raw_length@pDNameNode@@UEBAHXZ 0000000180058910 f i libvcruntimed:undname.obj
 0001:00057920       ?raw_length@pairNode@@UEBAHXZ 0000000180058920 f i libvcruntimed:undname.obj
 0001:00057930       ?raw_length@pcharNode@@UEBAHXZ 0000000180058930 f i libvcruntimed:undname.obj
 0001:00057950       ?setIsArray@DName@@QEAAXXZ 0000000180058950 f i libvcruntimed:undname.obj
 0001:00057970       ?setIsComArray@DName@@QEAAXXZ 0000000180058970 f i libvcruntimed:undname.obj
 0001:00057990       ?setIsNoTE@DName@@QEAAXXZ  0000000180058990 f i libvcruntimed:undname.obj
 0001:000579b0       ?setIsPinPtr@DName@@QEAAXXZ 00000001800589b0 f i libvcruntimed:undname.obj
 0001:000579d0       ?setIsUDC@DName@@QEAAXXZ   00000001800589d0 f i libvcruntimed:undname.obj
 0001:00057a00       ?setIsVCallThunk@DName@@QEAAXXZ 0000000180058a00 f i libvcruntimed:undname.obj
 0001:00057a20       ?setPtrRef@DName@@QEAAAEAV1@XZ 0000000180058a20 f i libvcruntimed:undname.obj
 0001:00057a40       ?status@DName@@QEBA?AW4DNameStatus@@XZ 0000000180058a40 f i libvcruntimed:undname.obj
 0001:00057b70       __unDName                  0000000180058b70 f   libvcruntimed:undname.obj
 0001:00057bd0       __unDNameEx                0000000180058bd0 f   libvcruntimed:undname.obj
 0001:00057c90       unDNameGenerateCHPE        0000000180058c90 f   libvcruntimed:undname.obj
 0001:00057d40       ??$__crt_interlocked_exchange_pointer@UHINSTANCE__@@PEAU1@@@YAPEAUHINSTANCE__@@PEDSEAU0@QEAU0@@Z 0000000180058d40 f i libvcruntimed:winapi_downlevel.obj
 0001:00057d60       ??$__crt_interlocked_exchange_pointer@UHINSTANCE__@@PEAX@@YAPEAUHINSTANCE__@@PEDSEAU0@QEAX@Z 0000000180058d60 f i libvcruntimed:winapi_downlevel.obj
 0001:00057d80       ??$__crt_interlocked_exchange_pointer@XPEAX@@YAPEAXPEDSEAXQEAX@Z 0000000180058d80 f i libvcruntimed:winapi_downlevel.obj
 0001:00057da0       ??$__crt_interlocked_read_pointer@UHINSTANCE__@@@@YAPEAUHINSTANCE__@@PEDSEAU0@@Z 0000000180058da0 f i libvcruntimed:winapi_downlevel.obj
 0001:00057dc0       ??$__crt_interlocked_read_pointer@X@@YAPEAXPEDSEAX@Z 0000000180058dc0 f i libvcruntimed:winapi_downlevel.obj
 0001:000582d0       __vcrt_FlsAlloc            00000001800592d0 f   libvcruntimed:winapi_downlevel.obj
 0001:00058320       __vcrt_FlsFree             0000000180059320 f   libvcruntimed:winapi_downlevel.obj
 0001:00058370       __vcrt_FlsGetValue         0000000180059370 f   libvcruntimed:winapi_downlevel.obj
 0001:000583c0       __vcrt_FlsSetValue         00000001800593c0 f   libvcruntimed:winapi_downlevel.obj
 0001:00058420       __vcrt_InitializeCriticalSectionEx 0000000180059420 f   libvcruntimed:winapi_downlevel.obj
 0001:000584a0       _CallSettingFrame          00000001800594a0 f   libvcruntimed:handlers.obj
 0001:000584f0       _CallSettingFrame_LookupContinuationIndex 00000001800594f0 f   libvcruntimed:handlers.obj
 0001:00058520       _CallSettingFrame_NotifyContinuationAddr 0000000180059520 f   libvcruntimed:handlers.obj
 0001:00058550       _CallSettingFrameEncoded   0000000180059550 f   libvcruntimed:handlers.obj
 0001:000585a0       ??$?0AEBV?$stream_output_adapter@D@__crt_stdio_output@@AEB_KAEBQEBDAEBQEAU__crt_locale_pointers@@AEBQEAD@?$format_validation_base@DV?$stream_output_adapter@D@__crt_stdio_output@@@__crt_stdio_output@@IEAA@AEBV?$stream_output_adapter@D@1@AEB_KAEBQEBDAEBQEAU__crt_locale_pointers@@AEBQEAD@Z 00000001800595a0 f i libucrtd:output.obj
 0001:000585f0       ??$?0AEBV?$stream_output_adapter@D@__crt_stdio_output@@AEB_KAEBQEBDAEBQEAU__crt_locale_pointers@@AEBQEAD@?$positional_parameter_base@DV?$stream_output_adapter@D@__crt_stdio_output@@@__crt_stdio_output@@IEAA@AEBV?$stream_output_adapter@D@1@AEB_KAEBQEBDAEBQEAU__crt_locale_pointers@@AEBQEAD@Z 00000001800595f0 f i libucrtd:output.obj
 0001:00058690       ??$?0AEBV?$stream_output_adapter@D@__crt_stdio_output@@AEB_KAEBQEBDAEBQEAU__crt_locale_pointers@@AEBQEAD@?$standard_base@DV?$stream_output_adapter@D@__crt_stdio_output@@@__crt_stdio_output@@IEAA@AEBV?$stream_output_adapter@D@1@AEB_KAEBQEBDAEBQEAU__crt_locale_pointers@@AEBQEAD@Z 0000000180059690 f i libucrtd:output.obj
 0001:00058700       ??$?0AEBV?$stream_output_adapter@_W@__crt_stdio_output@@AEB_KAEBQEB_WAEBQEAU__crt_locale_pointers@@AEBQEAD@?$format_validation_base@_WV?$stream_output_adapter@_W@__crt_stdio_output@@@__crt_stdio_output@@IEAA@AEBV?$stream_output_adapter@_W@1@AEB_KAEBQEB_WAEBQEAU__crt_locale_pointers@@AEBQEAD@Z 0000000180059700 f i libucrtd:output.obj
 0001:00058750       ??$?0AEBV?$stream_output_adapter@_W@__crt_stdio_output@@AEB_KAEBQEB_WAEBQEAU__crt_locale_pointers@@AEBQEAD@?$positional_parameter_base@_WV?$stream_output_adapter@_W@__crt_stdio_output@@@__crt_stdio_output@@IEAA@AEBV?$stream_output_adapter@_W@1@AEB_KAEBQEB_WAEBQEAU__crt_locale_pointers@@AEBQEAD@Z 0000000180059750 f i libucrtd:output.obj
 0001:000587f0       ??$?0AEBV?$stream_output_adapter@_W@__crt_stdio_output@@AEB_KAEBQEB_WAEBQEAU__crt_locale_pointers@@AEBQEAD@?$standard_base@_WV?$stream_output_adapter@_W@__crt_stdio_output@@@__crt_stdio_output@@IEAA@AEBV?$stream_output_adapter@_W@1@AEB_KAEBQEB_WAEBQEAU__crt_locale_pointers@@AEBQEAD@Z 00000001800597f0 f i libucrtd:output.obj
 0001:00058860       ??$?0AEBV?$string_output_adapter@D@__crt_stdio_output@@AEB_KAEBQEBDAEBQEAU__crt_locale_pointers@@AEBQEAD@?$format_validation_base@DV?$string_output_adapter@D@__crt_stdio_output@@@__crt_stdio_output@@IEAA@AEBV?$string_output_adapter@D@1@AEB_KAEBQEBDAEBQEAU__crt_locale_pointers@@AEBQEAD@Z 0000000180059860 f i libucrtd:output.obj
 0001:000588b0       ??$?0AEBV?$string_output_adapter@D@__crt_stdio_output@@AEB_KAEBQEBDAEBQEAU__crt_locale_pointers@@AEBQEAD@?$positional_parameter_base@DV?$string_output_adapter@D@__crt_stdio_output@@@__crt_stdio_output@@IEAA@AEBV?$string_output_adapter@D@1@AEB_KAEBQEBDAEBQEAU__crt_locale_pointers@@AEBQEAD@Z 00000001800598b0 f i libucrtd:output.obj
 0001:00058950       ??$?0AEBV?$string_output_adapter@D@__crt_stdio_output@@AEB_KAEBQEBDAEBQEAU__crt_locale_pointers@@AEBQEAD@?$standard_base@DV?$string_output_adapter@D@__crt_stdio_output@@@__crt_stdio_output@@IEAA@AEBV?$string_output_adapter@D@1@AEB_KAEBQEBDAEBQEAU__crt_locale_pointers@@AEBQEAD@Z 0000000180059950 f i libucrtd:output.obj
 0001:000589c0       ??$?0AEBV?$string_output_adapter@_W@__crt_stdio_output@@AEB_KAEBQEB_WAEBQEAU__crt_locale_pointers@@AEBQEAD@?$format_validation_base@_WV?$string_output_adapter@_W@__crt_stdio_output@@@__crt_stdio_output@@IEAA@AEBV?$string_output_adapter@_W@1@AEB_KAEBQEB_WAEBQEAU__crt_locale_pointers@@AEBQEAD@Z 00000001800599c0 f i libucrtd:output.obj
 0001:00058a10       ??$?0AEBV?$string_output_adapter@_W@__crt_stdio_output@@AEB_KAEBQEB_WAEBQEAU__crt_locale_pointers@@AEBQEAD@?$positional_parameter_base@_WV?$string_output_adapter@_W@__crt_stdio_output@@@__crt_stdio_output@@IEAA@AEBV?$string_output_adapter@_W@1@AEB_KAEBQEB_WAEBQEAU__crt_locale_pointers@@AEBQEAD@Z 0000000180059a10 f i libucrtd:output.obj
 0001:00058ab0       ??$?0AEBV?$string_output_adapter@_W@__crt_stdio_output@@AEB_KAEBQEB_WAEBQEAU__crt_locale_pointers@@AEBQEAD@?$standard_base@_WV?$string_output_adapter@_W@__crt_stdio_output@@@__crt_stdio_output@@IEAA@AEBV?$string_output_adapter@_W@1@AEB_KAEBQEB_WAEBQEAU__crt_locale_pointers@@AEBQEAD@Z 0000000180059ab0 f i libucrtd:output.obj
 0001:00058ee0       ??$__crt_interlocked_read@J@@YAJPEDJ@Z 0000000180059ee0 f i libucrtd:output.obj
 0001:0005c9c0       ??$count@D@formatting_buffer@__crt_stdio_output@@QEBA_KXZ 000000018005d9c0 f i libucrtd:output.obj
 0001:0005ca10       ??$count@_W@formatting_buffer@__crt_stdio_output@@QEBA_KXZ 000000018005da10 f i libucrtd:output.obj
 0001:0005ca60       ??$data@D@formatting_buffer@__crt_stdio_output@@QEAAPEADXZ 000000018005da60 f i libucrtd:output.obj
 0001:0005cab0       ??$data@_W@formatting_buffer@__crt_stdio_output@@QEAAPEA_WXZ 000000018005dab0 f i libucrtd:output.obj
 0001:0005cb00       ??$ensure_buffer_is_big_enough@D@formatting_buffer@__crt_stdio_output@@QEAA_N_K@Z 000000018005db00 f i libucrtd:output.obj
 0001:0005cc30       ??$ensure_buffer_is_big_enough@_W@formatting_buffer@__crt_stdio_output@@QEAA_N_K@Z 000000018005dc30 f i libucrtd:output.obj
 0001:0005cd60       ??$extract_argument_from_va_list@C_J@?$positional_parameter_base@DV?$stream_output_adapter@D@__crt_stdio_output@@@__crt_stdio_output@@IEAA_NAEA_J@Z 000000018005dd60 f i libucrtd:output.obj
 0001:0005cee0       ??$extract_argument_from_va_list@C_J@?$positional_parameter_base@DV?$string_output_adapter@D@__crt_stdio_output@@@__crt_stdio_output@@IEAA_NAEA_J@Z 000000018005dee0 f i libucrtd:output.obj
 0001:0005d060       ??$extract_argument_from_va_list@C_J@?$positional_parameter_base@_WV?$stream_output_adapter@_W@__crt_stdio_output@@@__crt_stdio_output@@IEAA_NAEA_J@Z 000000018005e060 f i libucrtd:output.obj
 0001:0005d1e0       ??$extract_argument_from_va_list@C_J@?$positional_parameter_base@_WV?$string_output_adapter@_W@__crt_stdio_output@@@__crt_stdio_output@@IEAA_NAEA_J@Z 000000018005e1e0 f i libucrtd:output.obj
 0001:0005d360       ??$extract_argument_from_va_list@C_J@?$standard_base@DV?$stream_output_adapter@D@__crt_stdio_output@@@__crt_stdio_output@@IEAA_NAEA_J@Z 000000018005e360 f i libucrtd:output.obj
 0001:0005d3a0       ??$extract_argument_from_va_list@C_J@?$standard_base@DV?$string_output_adapter@D@__crt_stdio_output@@@__crt_stdio_output@@IEAA_NAEA_J@Z 000000018005e3a0 f i libucrtd:output.obj
 0001:0005d3e0       ??$extract_argument_from_va_list@C_J@?$standard_base@_WV?$stream_output_adapter@_W@__crt_stdio_output@@@__crt_stdio_output@@IEAA_NAEA_J@Z 000000018005e3e0 f i libucrtd:output.obj
 0001:0005d420       ??$extract_argument_from_va_list@C_J@?$standard_base@_WV?$string_output_adapter@_W@__crt_stdio_output@@@__crt_stdio_output@@IEAA_NAEA_J@Z 000000018005e420 f i libucrtd:output.obj
 0001:0005d460       ??$extract_argument_from_va_list@E_J@?$positional_parameter_base@DV?$stream_output_adapter@D@__crt_stdio_output@@@__crt_stdio_output@@IEAA_NAEA_J@Z 000000018005e460 f i libucrtd:output.obj
 0001:0005d5e0       ??$extract_argument_from_va_list@E_J@?$positional_parameter_base@DV?$string_output_adapter@D@__crt_stdio_output@@@__crt_stdio_output@@IEAA_NAEA_J@Z 000000018005e5e0 f i libucrtd:output.obj
 0001:0005d760       ??$extract_argument_from_va_list@E_J@?$positional_parameter_base@_WV?$stream_output_adapter@_W@__crt_stdio_output@@@__crt_stdio_output@@IEAA_NAEA_J@Z 000000018005e760 f i libucrtd:output.obj
 0001:0005d8e0       ??$extract_argument_from_va_list@E_J@?$positional_parameter_base@_WV?$string_output_adapter@_W@__crt_stdio_output@@@__crt_stdio_output@@IEAA_NAEA_J@Z 000000018005e8e0 f i libucrtd:output.obj
 0001:0005da60       ??$extract_argument_from_va_list@E_J@?$standard_base@DV?$stream_output_adapter@D@__crt_stdio_output@@@__crt_stdio_output@@IEAA_NAEA_J@Z 000000018005ea60 f i libucrtd:output.obj
 0001:0005daa0       ??$extract_argument_from_va_list@E_J@?$standard_base@DV?$string_output_adapter@D@__crt_stdio_output@@@__crt_stdio_output@@IEAA_NAEA_J@Z 000000018005eaa0 f i libucrtd:output.obj
 0001:0005dae0       ??$extract_argument_from_va_list@E_J@?$standard_base@_WV?$stream_output_adapter@_W@__crt_stdio_output@@@__crt_stdio_output@@IEAA_NAEA_J@Z 000000018005eae0 f i libucrtd:output.obj
 0001:0005db20       ??$extract_argument_from_va_list@E_J@?$standard_base@_WV?$string_output_adapter@_W@__crt_stdio_output@@@__crt_stdio_output@@IEAA_NAEA_J@Z 000000018005eb20 f i libucrtd:output.obj
 0001:0005db60       ??$extract_argument_from_va_list@F_J@?$positional_parameter_base@DV?$stream_output_adapter@D@__crt_stdio_output@@@__crt_stdio_output@@IEAA_NAEA_J@Z 000000018005eb60 f i libucrtd:output.obj
 0001:0005dce0       ??$extract_argument_from_va_list@F_J@?$positional_parameter_base@DV?$string_output_adapter@D@__crt_stdio_output@@@__crt_stdio_output@@IEAA_NAEA_J@Z 000000018005ece0 f i libucrtd:output.obj
 0001:0005de60       ??$extract_argument_from_va_list@F_J@?$positional_parameter_base@_WV?$stream_output_adapter@_W@__crt_stdio_output@@@__crt_stdio_output@@IEAA_NAEA_J@Z 000000018005ee60 f i libucrtd:output.obj
 0001:0005dfe0       ??$extract_argument_from_va_list@F_J@?$positional_parameter_base@_WV?$string_output_adapter@_W@__crt_stdio_output@@@__crt_stdio_output@@IEAA_NAEA_J@Z 000000018005efe0 f i libucrtd:output.obj
 0001:0005e160       ??$extract_argument_from_va_list@F_J@?$standard_base@DV?$stream_output_adapter@D@__crt_stdio_output@@@__crt_stdio_output@@IEAA_NAEA_J@Z 000000018005f160 f i libucrtd:output.obj
 0001:0005e1a0       ??$extract_argument_from_va_list@F_J@?$standard_base@DV?$string_output_adapter@D@__crt_stdio_output@@@__crt_stdio_output@@IEAA_NAEA_J@Z 000000018005f1a0 f i libucrtd:output.obj
 0001:0005e1e0       ??$extract_argument_from_va_list@F_J@?$standard_base@_WV?$stream_output_adapter@_W@__crt_stdio_output@@@__crt_stdio_output@@IEAA_NAEA_J@Z 000000018005f1e0 f i libucrtd:output.obj
 0001:0005e220       ??$extract_argument_from_va_list@F_J@?$standard_base@_WV?$string_output_adapter@_W@__crt_stdio_output@@@__crt_stdio_output@@IEAA_NAEA_J@Z 000000018005f220 f i libucrtd:output.obj
 0001:0005e260       ??$extract_argument_from_va_list@GD@?$positional_parameter_base@DV?$stream_output_adapter@D@__crt_stdio_output@@@__crt_stdio_output@@IEAA_NAEAD@Z 000000018005f260 f i libucrtd:output.obj
 0001:0005e3e0       ??$extract_argument_from_va_list@GD@?$positional_parameter_base@DV?$string_output_adapter@D@__crt_stdio_output@@@__crt_stdio_output@@IEAA_NAEAD@Z 000000018005f3e0 f i libucrtd:output.obj
 0001:0005e560       ??$extract_argument_from_va_list@GD@?$standard_base@DV?$stream_output_adapter@D@__crt_stdio_output@@@__crt_stdio_output@@IEAA_NAEAD@Z 000000018005f560 f i libucrtd:output.obj
 0001:0005e590       ??$extract_argument_from_va_list@GD@?$standard_base@DV?$string_output_adapter@D@__crt_stdio_output@@@__crt_stdio_output@@IEAA_NAEAD@Z 000000018005f590 f i libucrtd:output.obj
 0001:0005e5c0       ??$extract_argument_from_va_list@G_J@?$positional_parameter_base@DV?$stream_output_adapter@D@__crt_stdio_output@@@__crt_stdio_output@@IEAA_NAEA_J@Z 000000018005f5c0 f i libucrtd:output.obj
 0001:0005e740       ??$extract_argument_from_va_list@G_J@?$positional_parameter_base@DV?$string_output_adapter@D@__crt_stdio_output@@@__crt_stdio_output@@IEAA_NAEA_J@Z 000000018005f740 f i libucrtd:output.obj
 0001:0005e8c0       ??$extract_argument_from_va_list@G_J@?$positional_parameter_base@_WV?$stream_output_adapter@_W@__crt_stdio_output@@@__crt_stdio_output@@IEAA_NAEA_J@Z 000000018005f8c0 f i libucrtd:output.obj
 0001:0005ea40       ??$extract_argument_from_va_list@G_J@?$positional_parameter_base@_WV?$string_output_adapter@_W@__crt_stdio_output@@@__crt_stdio_output@@IEAA_NAEA_J@Z 000000018005fa40 f i libucrtd:output.obj
 0001:0005ebc0       ??$extract_argument_from_va_list@G_J@?$standard_base@DV?$stream_output_adapter@D@__crt_stdio_output@@@__crt_stdio_output@@IEAA_NAEA_J@Z 000000018005fbc0 f i libucrtd:output.obj
 0001:0005ec00       ??$extract_argument_from_va_list@G_J@?$standard_base@DV?$string_output_adapter@D@__crt_stdio_output@@@__crt_stdio_output@@IEAA_NAEA_J@Z 000000018005fc00 f i libucrtd:output.obj
 0001:0005ec40       ??$extract_argument_from_va_list@G_J@?$standard_base@_WV?$stream_output_adapter@_W@__crt_stdio_output@@@__crt_stdio_output@@IEAA_NAEA_J@Z 000000018005fc40 f i libucrtd:output.obj
 0001:0005ec80       ??$extract_argument_from_va_list@G_J@?$standard_base@_WV?$string_output_adapter@_W@__crt_stdio_output@@@__crt_stdio_output@@IEAA_NAEA_J@Z 000000018005fc80 f i libucrtd:output.obj
 0001:0005ecc0       ??$extract_argument_from_va_list@H_J@?$positional_parameter_base@DV?$stream_output_adapter@D@__crt_stdio_output@@@__crt_stdio_output@@IEAA_NAEA_J@Z 000000018005fcc0 f i libucrtd:output.obj
 0001:0005ee40       ??$extract_argument_from_va_list@H_J@?$positional_parameter_base@DV?$string_output_adapter@D@__crt_stdio_output@@@__crt_stdio_output@@IEAA_NAEA_J@Z 000000018005fe40 f i libucrtd:output.obj
 0001:0005efc0       ??$extract_argument_from_va_list@H_J@?$positional_parameter_base@_WV?$stream_output_adapter@_W@__crt_stdio_output@@@__crt_stdio_output@@IEAA_NAEA_J@Z 000000018005ffc0 f i libucrtd:output.obj
 0001:0005f140       ??$extract_argument_from_va_list@H_J@?$positional_parameter_base@_WV?$string_output_adapter@_W@__crt_stdio_output@@@__crt_stdio_output@@IEAA_NAEA_J@Z 0000000180060140 f i libucrtd:output.obj
 0001:0005f2c0       ??$extract_argument_from_va_list@H_J@?$standard_base@DV?$stream_output_adapter@D@__crt_stdio_output@@@__crt_stdio_output@@IEAA_NAEA_J@Z 00000001800602c0 f i libucrtd:output.obj
 0001:0005f2f0       ??$extract_argument_from_va_list@H_J@?$standard_base@DV?$string_output_adapter@D@__crt_stdio_output@@@__crt_stdio_output@@IEAA_NAEA_J@Z 00000001800602f0 f i libucrtd:output.obj
 0001:0005f320       ??$extract_argument_from_va_list@H_J@?$standard_base@_WV?$stream_output_adapter@_W@__crt_stdio_output@@@__crt_stdio_output@@IEAA_NAEA_J@Z 0000000180060320 f i libucrtd:output.obj
 0001:0005f350       ??$extract_argument_from_va_list@H_J@?$standard_base@_WV?$string_output_adapter@_W@__crt_stdio_output@@@__crt_stdio_output@@IEAA_NAEA_J@Z 0000000180060350 f i libucrtd:output.obj
 0001:0005f380       ??$extract_argument_from_va_list@I_J@?$positional_parameter_base@DV?$stream_output_adapter@D@__crt_stdio_output@@@__crt_stdio_output@@IEAA_NAEA_J@Z 0000000180060380 f i libucrtd:output.obj
 0001:0005f500       ??$extract_argument_from_va_list@I_J@?$positional_parameter_base@DV?$string_output_adapter@D@__crt_stdio_output@@@__crt_stdio_output@@IEAA_NAEA_J@Z 0000000180060500 f i libucrtd:output.obj
 0001:0005f680       ??$extract_argument_from_va_list@I_J@?$positional_parameter_base@_WV?$stream_output_adapter@_W@__crt_stdio_output@@@__crt_stdio_output@@IEAA_NAEA_J@Z 0000000180060680 f i libucrtd:output.obj
 0001:0005f800       ??$extract_argument_from_va_list@I_J@?$positional_parameter_base@_WV?$string_output_adapter@_W@__crt_stdio_output@@@__crt_stdio_output@@IEAA_NAEA_J@Z 0000000180060800 f i libucrtd:output.obj
 0001:0005f980       ??$extract_argument_from_va_list@I_J@?$standard_base@DV?$stream_output_adapter@D@__crt_stdio_output@@@__crt_stdio_output@@IEAA_NAEA_J@Z 0000000180060980 f i libucrtd:output.obj
 0001:0005f9b0       ??$extract_argument_from_va_list@I_J@?$standard_base@DV?$string_output_adapter@D@__crt_stdio_output@@@__crt_stdio_output@@IEAA_NAEA_J@Z 00000001800609b0 f i libucrtd:output.obj
 0001:0005f9e0       ??$extract_argument_from_va_list@I_J@?$standard_base@_WV?$stream_output_adapter@_W@__crt_stdio_output@@@__crt_stdio_output@@IEAA_NAEA_J@Z 00000001800609e0 f i libucrtd:output.obj
 0001:0005fa10       ??$extract_argument_from_va_list@I_J@?$standard_base@_WV?$string_output_adapter@_W@__crt_stdio_output@@@__crt_stdio_output@@IEAA_NAEA_J@Z 0000000180060a10 f i libucrtd:output.obj
 0001:0005fa40       ??$extract_argument_from_va_list@PEADPEAD@?$positional_parameter_base@DV?$stream_output_adapter@D@__crt_stdio_output@@@__crt_stdio_output@@IEAA_NAEAPEAD@Z 0000000180060a40 f i libucrtd:output.obj
 0001:0005fbc0       ??$extract_argument_from_va_list@PEADPEAD@?$positional_parameter_base@DV?$string_output_adapter@D@__crt_stdio_output@@@__crt_stdio_output@@IEAA_NAEAPEAD@Z 0000000180060bc0 f i libucrtd:output.obj
 0001:0005fd40       ??$extract_argument_from_va_list@PEADPEAD@?$positional_parameter_base@_WV?$stream_output_adapter@_W@__crt_stdio_output@@@__crt_stdio_output@@IEAA_NAEAPEAD@Z 0000000180060d40 f i libucrtd:output.obj
 0001:0005fec0       ??$extract_argument_from_va_list@PEADPEAD@?$positional_parameter_base@_WV?$string_output_adapter@_W@__crt_stdio_output@@@__crt_stdio_output@@IEAA_NAEAPEAD@Z 0000000180060ec0 f i libucrtd:output.obj
 0001:00060040       ??$extract_argument_from_va_list@PEADPEAD@?$standard_base@DV?$stream_output_adapter@D@__crt_stdio_output@@@__crt_stdio_output@@IEAA_NAEAPEAD@Z 0000000180061040 f i libucrtd:output.obj
 0001:00060070       ??$extract_argument_from_va_list@PEADPEAD@?$standard_base@DV?$string_output_adapter@D@__crt_stdio_output@@@__crt_stdio_output@@IEAA_NAEAPEAD@Z 0000000180061070 f i libucrtd:output.obj
 0001:000600a0       ??$extract_argument_from_va_list@PEADPEAD@?$standard_base@_WV?$stream_output_adapter@_W@__crt_stdio_output@@@__crt_stdio_output@@IEAA_NAEAPEAD@Z 00000001800610a0 f i libucrtd:output.obj
 0001:000600d0       ??$extract_argument_from_va_list@PEADPEAD@?$standard_base@_WV?$string_output_adapter@_W@__crt_stdio_output@@@__crt_stdio_output@@IEAA_NAEAPEAD@Z 00000001800610d0 f i libucrtd:output.obj
 0001:00060100       ??$extract_argument_from_va_list@PEAUansi_string@?1??type_case_Z@?$output_processor@DV?$stream_output_adapter@D@__crt_stdio_output@@V?$format_validation_base@DV?$stream_output_adapter@D@__crt_stdio_output@@@2@@__crt_stdio_output@@AEAA_NXZ@PEAU1?1??234@AEAA_NXZ@@?$standard_base@DV?$stream_output_adapter@D@__crt_stdio_output@@@__crt_stdio_output@@IEAA_NAEAPEAUansi_string@?1??type_case_Z@?$output_processor@DV?$stream_output_adapter@D@__crt_stdio_output@@V?$format_validation_base@DV?$stream_output_adapter@D@__crt_stdio_output@@@2@@1@AEAA_NXZ@@Z 0000000180061100 f i libucrtd:output.obj
 0001:00060130       ??$extract_argument_from_va_list@PEAUansi_string@?1??type_case_Z@?$output_processor@DV?$stream_output_adapter@D@__crt_stdio_output@@V?$positional_parameter_base@DV?$stream_output_adapter@D@__crt_stdio_output@@@2@@__crt_stdio_output@@AEAA_NXZ@PEAU1?1??234@AEAA_NXZ@@?$positional_parameter_base@DV?$stream_output_adapter@D@__crt_stdio_output@@@__crt_stdio_output@@IEAA_NAEAPEAUansi_string@?1??type_case_Z@?$output_processor@DV?$stream_output_adapter@D@__crt_stdio_output@@V?$positional_parameter_base@DV?$stream_output_adapter@D@__crt_stdio_output@@@2@@1@AEAA_NXZ@@Z 0000000180061130 f i libucrtd:output.obj
 0001:000602b0       ??$extract_argument_from_va_list@PEAUansi_string@?1??type_case_Z@?$output_processor@DV?$stream_output_adapter@D@__crt_stdio_output@@V?$positional_parameter_base@DV?$stream_output_adapter@D@__crt_stdio_output@@@2@@__crt_stdio_output@@AEAA_NXZ@PEAU1?1??234@AEAA_NXZ@@?$standard_base@DV?$stream_output_adapter@D@__crt_stdio_output@@@__crt_stdio_output@@IEAA_NAEAPEAUansi_string@?1??type_case_Z@?$output_processor@DV?$stream_output_adapter@D@__crt_stdio_output@@V?$positional_parameter_base@DV?$stream_output_adapter@D@__crt_stdio_output@@@2@@1@AEAA_NXZ@@Z 00000001800612b0 f i libucrtd:output.obj
 0001:000602e0       ??$extract_argument_from_va_list@PEAUansi_string@?1??type_case_Z@?$output_processor@DV?$stream_output_adapter@D@__crt_stdio_output@@V?$standard_base@DV?$stream_output_adapter@D@__crt_stdio_output@@@2@@__crt_stdio_output@@AEAA_NXZ@PEAU1?1??234@AEAA_NXZ@@?$standard_base@DV?$stream_output_adapter@D@__crt_stdio_output@@@__crt_stdio_output@@IEAA_NAEAPEAUansi_string@?1??type_case_Z@?$output_processor@DV?$stream_output_adapter@D@__crt_stdio_output@@V?$standard_base@DV?$stream_output_adapter@D@__crt_stdio_output@@@2@@1@AEAA_NXZ@@Z 00000001800612e0 f i libucrtd:output.obj
 0001:00060310       ??$extract_argument_from_va_list@PEAUansi_string@?1??type_case_Z@?$output_processor@DV?$string_output_adapter@D@__crt_stdio_output@@V?$format_validation_base@DV?$string_output_adapter@D@__crt_stdio_output@@@2@@__crt_stdio_output@@AEAA_NXZ@PEAU1?1??234@AEAA_NXZ@@?$standard_base@DV?$string_output_adapter@D@__crt_stdio_output@@@__crt_stdio_output@@IEAA_NAEAPEAUansi_string@?1??type_case_Z@?$output_processor@DV?$string_output_adapter@D@__crt_stdio_output@@V?$format_validation_base@DV?$string_output_adapter@D@__crt_stdio_output@@@2@@1@AEAA_NXZ@@Z 0000000180061310 f i libucrtd:output.obj
 0001:00060340       ??$extract_argument_from_va_list@PEAUansi_string@?1??type_case_Z@?$output_processor@DV?$string_output_adapter@D@__crt_stdio_output@@V?$positional_parameter_base@DV?$string_output_adapter@D@__crt_stdio_output@@@2@@__crt_stdio_output@@AEAA_NXZ@PEAU1?1??234@AEAA_NXZ@@?$positional_parameter_base@DV?$string_output_adapter@D@__crt_stdio_output@@@__crt_stdio_output@@IEAA_NAEAPEAUansi_string@?1??type_case_Z@?$output_processor@DV?$string_output_adapter@D@__crt_stdio_output@@V?$positional_parameter_base@DV?$string_output_adapter@D@__crt_stdio_output@@@2@@1@AEAA_NXZ@@Z 0000000180061340 f i libucrtd:output.obj
 0001:000604c0       ??$extract_argument_from_va_list@PEAUansi_string@?1??type_case_Z@?$output_processor@DV?$string_output_adapter@D@__crt_stdio_output@@V?$positional_parameter_base@DV?$string_output_adapter@D@__crt_stdio_output@@@2@@__crt_stdio_output@@AEAA_NXZ@PEAU1?1??234@AEAA_NXZ@@?$standard_base@DV?$string_output_adapter@D@__crt_stdio_output@@@__crt_stdio_output@@IEAA_NAEAPEAUansi_string@?1??type_case_Z@?$output_processor@DV?$string_output_adapter@D@__crt_stdio_output@@V?$positional_parameter_base@DV?$string_output_adapter@D@__crt_stdio_output@@@2@@1@AEAA_NXZ@@Z 00000001800614c0 f i libucrtd:output.obj
 0001:000604f0       ??$extract_argument_from_va_list@PEAUansi_string@?1??type_case_Z@?$output_processor@DV?$string_output_adapter@D@__crt_stdio_output@@V?$standard_base@DV?$string_output_adapter@D@__crt_stdio_output@@@2@@__crt_stdio_output@@AEAA_NXZ@PEAU1?1??234@AEAA_NXZ@@?$standard_base@DV?$string_output_adapter@D@__crt_stdio_output@@@__crt_stdio_output@@IEAA_NAEAPEAUansi_string@?1??type_case_Z@?$output_processor@DV?$string_output_adapter@D@__crt_stdio_output@@V?$standard_base@DV?$string_output_adapter@D@__crt_stdio_output@@@2@@1@AEAA_NXZ@@Z 00000001800614f0 f i libucrtd:output.obj
 0001:00060520       ??$extract_argument_from_va_list@PEAUansi_string@?1??type_case_Z@?$output_processor@_WV?$stream_output_adapter@_W@__crt_stdio_output@@V?$format_validation_base@_WV?$stream_output_adapter@_W@__crt_stdio_output@@@2@@__crt_stdio_output@@AEAA_NXZ@PEAU1?1??234@AEAA_NXZ@@?$standard_base@_WV?$stream_output_adapter@_W@__crt_stdio_output@@@__crt_stdio_output@@IEAA_NAEAPEAUansi_string@?1??type_case_Z@?$output_processor@_WV?$stream_output_adapter@_W@__crt_stdio_output@@V?$format_validation_base@_WV?$stream_output_adapter@_W@__crt_stdio_output@@@2@@1@AEAA_NXZ@@Z 0000000180061520 f i libucrtd:output.obj
 0001:00060550       ??$extract_argument_from_va_list@PEAUansi_string@?1??type_case_Z@?$output_processor@_WV?$stream_output_adapter@_W@__crt_stdio_output@@V?$positional_parameter_base@_WV?$stream_output_adapter@_W@__crt_stdio_output@@@2@@__crt_stdio_output@@AEAA_NXZ@PEAU1?1??234@AEAA_NXZ@@?$positional_parameter_base@_WV?$stream_output_adapter@_W@__crt_stdio_output@@@__crt_stdio_output@@IEAA_NAEAPEAUansi_string@?1??type_case_Z@?$output_processor@_WV?$stream_output_adapter@_W@__crt_stdio_output@@V?$positional_parameter_base@_WV?$stream_output_adapter@_W@__crt_stdio_output@@@2@@1@AEAA_NXZ@@Z 0000000180061550 f i libucrtd:output.obj
 0001:000606d0       ??$extract_argument_from_va_list@PEAUansi_string@?1??type_case_Z@?$output_processor@_WV?$stream_output_adapter@_W@__crt_stdio_output@@V?$positional_parameter_base@_WV?$stream_output_adapter@_W@__crt_stdio_output@@@2@@__crt_stdio_output@@AEAA_NXZ@PEAU1?1??234@AEAA_NXZ@@?$standard_base@_WV?$stream_output_adapter@_W@__crt_stdio_output@@@__crt_stdio_output@@IEAA_NAEAPEAUansi_string@?1??type_case_Z@?$output_processor@_WV?$stream_output_adapter@_W@__crt_stdio_output@@V?$positional_parameter_base@_WV?$stream_output_adapter@_W@__crt_stdio_output@@@2@@1@AEAA_NXZ@@Z 00000001800616d0 f i libucrtd:output.obj
 0001:00060700       ??$extract_argument_from_va_list@PEAUansi_string@?1??type_case_Z@?$output_processor@_WV?$stream_output_adapter@_W@__crt_stdio_output@@V?$standard_base@_WV?$stream_output_adapter@_W@__crt_stdio_output@@@2@@__crt_stdio_output@@AEAA_NXZ@PEAU1?1??234@AEAA_NXZ@@?$standard_base@_WV?$stream_output_adapter@_W@__crt_stdio_output@@@__crt_stdio_output@@IEAA_NAEAPEAUansi_string@?1??type_case_Z@?$output_processor@_WV?$stream_output_adapter@_W@__crt_stdio_output@@V?$standard_base@_WV?$stream_output_adapter@_W@__crt_stdio_output@@@2@@1@AEAA_NXZ@@Z 0000000180061700 f i libucrtd:output.obj
 0001:00060730       ??$extract_argument_from_va_list@PEAUansi_string@?1??type_case_Z@?$output_processor@_WV?$string_output_adapter@_W@__crt_stdio_output@@V?$format_validation_base@_WV?$string_output_adapter@_W@__crt_stdio_output@@@2@@__crt_stdio_output@@AEAA_NXZ@PEAU1?1??234@AEAA_NXZ@@?$standard_base@_WV?$string_output_adapter@_W@__crt_stdio_output@@@__crt_stdio_output@@IEAA_NAEAPEAUansi_string@?1??type_case_Z@?$output_processor@_WV?$string_output_adapter@_W@__crt_stdio_output@@V?$format_validation_base@_WV?$string_output_adapter@_W@__crt_stdio_output@@@2@@1@AEAA_NXZ@@Z 0000000180061730 f i libucrtd:output.obj
 0001:00060760       ??$extract_argument_from_va_list@PEAUansi_string@?1??type_case_Z@?$output_processor@_WV?$string_output_adapter@_W@__crt_stdio_output@@V?$positional_parameter_base@_WV?$string_output_adapter@_W@__crt_stdio_output@@@2@@__crt_stdio_output@@AEAA_NXZ@PEAU1?1??234@AEAA_NXZ@@?$positional_parameter_base@_WV?$string_output_adapter@_W@__crt_stdio_output@@@__crt_stdio_output@@IEAA_NAEAPEAUansi_string@?1??type_case_Z@?$output_processor@_WV?$string_output_adapter@_W@__crt_stdio_output@@V?$positional_parameter_base@_WV?$string_output_adapter@_W@__crt_stdio_output@@@2@@1@AEAA_NXZ@@Z 0000000180061760 f i libucrtd:output.obj
 0001:000608e0       ??$extract_argument_from_va_list@PEAUansi_string@?1??type_case_Z@?$output_processor@_WV?$string_output_adapter@_W@__crt_stdio_output@@V?$positional_parameter_base@_WV?$string_output_adapter@_W@__crt_stdio_output@@@2@@__crt_stdio_output@@AEAA_NXZ@PEAU1?1??234@AEAA_NXZ@@?$standard_base@_WV?$string_output_adapter@_W@__crt_stdio_output@@@__crt_stdio_output@@IEAA_NAEAPEAUansi_string@?1??type_case_Z@?$output_processor@_WV?$string_output_adapter@_W@__crt_stdio_output@@V?$positional_parameter_base@_WV?$string_output_adapter@_W@__crt_stdio_output@@@2@@1@AEAA_NXZ@@Z 00000001800618e0 f i libucrtd:output.obj
 0001:00060910       ??$extract_argument_from_va_list@PEAUansi_string@?1??type_case_Z@?$output_processor@_WV?$string_output_adapter@_W@__crt_stdio_output@@V?$standard_base@_WV?$string_output_adapter@_W@__crt_stdio_output@@@2@@__crt_stdio_output@@AEAA_NXZ@PEAU1?1??234@AEAA_NXZ@@?$standard_base@_WV?$string_output_adapter@_W@__crt_stdio_output@@@__crt_stdio_output@@IEAA_NAEAPEAUansi_string@?1??type_case_Z@?$output_processor@_WV?$string_output_adapter@_W@__crt_stdio_output@@V?$standard_base@_WV?$string_output_adapter@_W@__crt_stdio_output@@@2@@1@AEAA_NXZ@@Z 0000000180061910 f i libucrtd:output.obj
 0001:00060940       ??$extract_argument_from_va_list@PEAXPEAX@?$positional_parameter_base@DV?$stream_output_adapter@D@__crt_stdio_output@@@__crt_stdio_output@@IEAA_NAEAPEAX@Z 0000000180061940 f i libucrtd:output.obj
 0001:00060ac0       ??$extract_argument_from_va_list@PEAXPEAX@?$positional_parameter_base@DV?$string_output_adapter@D@__crt_stdio_output@@@__crt_stdio_output@@IEAA_NAEAPEAX@Z 0000000180061ac0 f i libucrtd:output.obj
 0001:00060c40       ??$extract_argument_from_va_list@PEAXPEAX@?$positional_parameter_base@_WV?$stream_output_adapter@_W@__crt_stdio_output@@@__crt_stdio_output@@IEAA_NAEAPEAX@Z 0000000180061c40 f i libucrtd:output.obj
 0001:00060dc0       ??$extract_argument_from_va_list@PEAXPEAX@?$positional_parameter_base@_WV?$string_output_adapter@_W@__crt_stdio_output@@@__crt_stdio_output@@IEAA_NAEAPEAX@Z 0000000180061dc0 f i libucrtd:output.obj
 0001:00060f40       ??$extract_argument_from_va_list@PEAXPEAX@?$standard_base@DV?$stream_output_adapter@D@__crt_stdio_output@@@__crt_stdio_output@@IEAA_NAEAPEAX@Z 0000000180061f40 f i libucrtd:output.obj
 0001:00060f70       ??$extract_argument_from_va_list@PEAXPEAX@?$standard_base@DV?$string_output_adapter@D@__crt_stdio_output@@@__crt_stdio_output@@IEAA_NAEAPEAX@Z 0000000180061f70 f i libucrtd:output.obj
 0001:00060fa0       ??$extract_argument_from_va_list@PEAXPEAX@?$standard_base@_WV?$stream_output_adapter@_W@__crt_stdio_output@@@__crt_stdio_output@@IEAA_NAEAPEAX@Z 0000000180061fa0 f i libucrtd:output.obj
 0001:00060fd0       ??$extract_argument_from_va_list@PEAXPEAX@?$standard_base@_WV?$string_output_adapter@_W@__crt_stdio_output@@@__crt_stdio_output@@IEAA_NAEAPEAX@Z 0000000180061fd0 f i libucrtd:output.obj
 0001:00061000       ??$extract_argument_from_va_list@U_CRT_DOUBLE@@U1@@?$positional_parameter_base@DV?$stream_output_adapter@D@__crt_stdio_output@@@__crt_stdio_output@@IEAA_NAEAU_CRT_DOUBLE@@@Z 0000000180062000 f i libucrtd:output.obj
 0001:000611a0       ??$extract_argument_from_va_list@U_CRT_DOUBLE@@U1@@?$positional_parameter_base@DV?$string_output_adapter@D@__crt_stdio_output@@@__crt_stdio_output@@IEAA_NAEAU_CRT_DOUBLE@@@Z 00000001800621a0 f i libucrtd:output.obj
 0001:00061340       ??$extract_argument_from_va_list@U_CRT_DOUBLE@@U1@@?$positional_parameter_base@_WV?$stream_output_adapter@_W@__crt_stdio_output@@@__crt_stdio_output@@IEAA_NAEAU_CRT_DOUBLE@@@Z 0000000180062340 f i libucrtd:output.obj
 0001:000614e0       ??$extract_argument_from_va_list@U_CRT_DOUBLE@@U1@@?$positional_parameter_base@_WV?$string_output_adapter@_W@__crt_stdio_output@@@__crt_stdio_output@@IEAA_NAEAU_CRT_DOUBLE@@@Z 00000001800624e0 f i libucrtd:output.obj
 0001:00061680       ??$extract_argument_from_va_list@U_CRT_DOUBLE@@U1@@?$standard_base@DV?$stream_output_adapter@D@__crt_stdio_output@@@__crt_stdio_output@@IEAA_NAEAU_CRT_DOUBLE@@@Z 0000000180062680 f i libucrtd:output.obj
 0001:000616d0       ??$extract_argument_from_va_list@U_CRT_DOUBLE@@U1@@?$standard_base@DV?$string_output_adapter@D@__crt_stdio_output@@@__crt_stdio_output@@IEAA_NAEAU_CRT_DOUBLE@@@Z 00000001800626d0 f i libucrtd:output.obj
 0001:00061720       ??$extract_argument_from_va_list@U_CRT_DOUBLE@@U1@@?$standard_base@_WV?$stream_output_adapter@_W@__crt_stdio_output@@@__crt_stdio_output@@IEAA_NAEAU_CRT_DOUBLE@@@Z 0000000180062720 f i libucrtd:output.obj
 0001:00061770       ??$extract_argument_from_va_list@U_CRT_DOUBLE@@U1@@?$standard_base@_WV?$string_output_adapter@_W@__crt_stdio_output@@@__crt_stdio_output@@IEAA_NAEAU_CRT_DOUBLE@@@Z 0000000180062770 f i libucrtd:output.obj
 0001:000617c0       ??$extract_argument_from_va_list@_J_J@?$positional_parameter_base@DV?$stream_output_adapter@D@__crt_stdio_output@@@__crt_stdio_output@@IEAA_NAEA_J@Z 00000001800627c0 f i libucrtd:output.obj
 0001:00061940       ??$extract_argument_from_va_list@_J_J@?$positional_parameter_base@DV?$string_output_adapter@D@__crt_stdio_output@@@__crt_stdio_output@@IEAA_NAEA_J@Z 0000000180062940 f i libucrtd:output.obj
 0001:00061ac0       ??$extract_argument_from_va_list@_J_J@?$positional_parameter_base@_WV?$stream_output_adapter@_W@__crt_stdio_output@@@__crt_stdio_output@@IEAA_NAEA_J@Z 0000000180062ac0 f i libucrtd:output.obj
 0001:00061c40       ??$extract_argument_from_va_list@_J_J@?$positional_parameter_base@_WV?$string_output_adapter@_W@__crt_stdio_output@@@__crt_stdio_output@@IEAA_NAEA_J@Z 0000000180062c40 f i libucrtd:output.obj
 0001:00061dc0       ??$extract_argument_from_va_list@_J_J@?$standard_base@DV?$stream_output_adapter@D@__crt_stdio_output@@@__crt_stdio_output@@IEAA_NAEA_J@Z 0000000180062dc0 f i libucrtd:output.obj
 0001:00061df0       ??$extract_argument_from_va_list@_J_J@?$standard_base@DV?$string_output_adapter@D@__crt_stdio_output@@@__crt_stdio_output@@IEAA_NAEA_J@Z 0000000180062df0 f i libucrtd:output.obj
 0001:00061e20       ??$extract_argument_from_va_list@_J_J@?$standard_base@_WV?$stream_output_adapter@_W@__crt_stdio_output@@@__crt_stdio_output@@IEAA_NAEA_J@Z 0000000180062e20 f i libucrtd:output.obj
 0001:00061e50       ??$extract_argument_from_va_list@_J_J@?$standard_base@_WV?$string_output_adapter@_W@__crt_stdio_output@@@__crt_stdio_output@@IEAA_NAEA_J@Z 0000000180062e50 f i libucrtd:output.obj
 0001:00061e80       ??$extract_argument_from_va_list@_K_J@?$positional_parameter_base@DV?$stream_output_adapter@D@__crt_stdio_output@@@__crt_stdio_output@@IEAA_NAEA_J@Z 0000000180062e80 f i libucrtd:output.obj
 0001:00062000       ??$extract_argument_from_va_list@_K_J@?$positional_parameter_base@DV?$string_output_adapter@D@__crt_stdio_output@@@__crt_stdio_output@@IEAA_NAEA_J@Z 0000000180063000 f i libucrtd:output.obj
 0001:00062180       ??$extract_argument_from_va_list@_K_J@?$positional_parameter_base@_WV?$stream_output_adapter@_W@__crt_stdio_output@@@__crt_stdio_output@@IEAA_NAEA_J@Z 0000000180063180 f i libucrtd:output.obj
 0001:00062300       ??$extract_argument_from_va_list@_K_J@?$positional_parameter_base@_WV?$string_output_adapter@_W@__crt_stdio_output@@@__crt_stdio_output@@IEAA_NAEA_J@Z 0000000180063300 f i libucrtd:output.obj
 0001:00062480       ??$extract_argument_from_va_list@_K_J@?$standard_base@DV?$stream_output_adapter@D@__crt_stdio_output@@@__crt_stdio_output@@IEAA_NAEA_J@Z 0000000180063480 f i libucrtd:output.obj
 0001:000624b0       ??$extract_argument_from_va_list@_K_J@?$standard_base@DV?$string_output_adapter@D@__crt_stdio_output@@@__crt_stdio_output@@IEAA_NAEA_J@Z 00000001800634b0 f i libucrtd:output.obj
 0001:000624e0       ??$extract_argument_from_va_list@_K_J@?$standard_base@_WV?$stream_output_adapter@_W@__crt_stdio_output@@@__crt_stdio_output@@IEAA_NAEA_J@Z 00000001800634e0 f i libucrtd:output.obj
 0001:00062510       ??$extract_argument_from_va_list@_K_J@?$standard_base@_WV?$string_output_adapter@_W@__crt_stdio_output@@@__crt_stdio_output@@IEAA_NAEA_J@Z 0000000180063510 f i libucrtd:output.obj
 0001:00062540       ??$extract_argument_from_va_list@_W_W@?$positional_parameter_base@DV?$stream_output_adapter@D@__crt_stdio_output@@@__crt_stdio_output@@IEAA_NAEA_W@Z 0000000180063540 f i libucrtd:output.obj
 0001:000626c0       ??$extract_argument_from_va_list@_W_W@?$positional_parameter_base@DV?$string_output_adapter@D@__crt_stdio_output@@@__crt_stdio_output@@IEAA_NAEA_W@Z 00000001800636c0 f i libucrtd:output.obj
 0001:00062840       ??$extract_argument_from_va_list@_W_W@?$positional_parameter_base@_WV?$stream_output_adapter@_W@__crt_stdio_output@@@__crt_stdio_output@@IEAA_NAEA_W@Z 0000000180063840 f i libucrtd:output.obj
 0001:000629c0       ??$extract_argument_from_va_list@_W_W@?$positional_parameter_base@_WV?$string_output_adapter@_W@__crt_stdio_output@@@__crt_stdio_output@@IEAA_NAEA_W@Z 00000001800639c0 f i libucrtd:output.obj
 0001:00062b40       ??$extract_argument_from_va_list@_W_W@?$standard_base@DV?$stream_output_adapter@D@__crt_stdio_output@@@__crt_stdio_output@@IEAA_NAEA_W@Z 0000000180063b40 f i libucrtd:output.obj
 0001:00062b70       ??$extract_argument_from_va_list@_W_W@?$standard_base@DV?$string_output_adapter@D@__crt_stdio_output@@@__crt_stdio_output@@IEAA_NAEA_W@Z 0000000180063b70 f i libucrtd:output.obj
 0001:00062ba0       ??$extract_argument_from_va_list@_W_W@?$standard_base@_WV?$stream_output_adapter@_W@__crt_stdio_output@@@__crt_stdio_output@@IEAA_NAEA_W@Z 0000000180063ba0 f i libucrtd:output.obj
 0001:00062bd0       ??$extract_argument_from_va_list@_W_W@?$standard_base@_WV?$string_output_adapter@_W@__crt_stdio_output@@@__crt_stdio_output@@IEAA_NAEA_W@Z 0000000180063bd0 f i libucrtd:output.obj
 0001:00062c00       ??$get_parameter_type@D@?$positional_parameter_base@DV?$stream_output_adapter@D@__crt_stdio_output@@@__crt_stdio_output@@CA?AW4parameter_type@01@PEAD@Z 0000000180063c00 f i libucrtd:output.obj
 0001:00062c10       ??$get_parameter_type@D@?$positional_parameter_base@DV?$string_output_adapter@D@__crt_stdio_output@@@__crt_stdio_output@@CA?AW4parameter_type@01@PEAD@Z 0000000180063c10 f i libucrtd:output.obj
 0001:00062c20       ??$get_parameter_type@D@?$positional_parameter_base@_WV?$stream_output_adapter@_W@__crt_stdio_output@@@__crt_stdio_output@@CA?AW4parameter_type@01@PEAD@Z 0000000180063c20 f i libucrtd:output.obj
 0001:00062c30       ??$get_parameter_type@D@?$positional_parameter_base@_WV?$string_output_adapter@_W@__crt_stdio_output@@@__crt_stdio_output@@CA?AW4parameter_type@01@PEAD@Z 0000000180063c30 f i libucrtd:output.obj
 0001:00062c40       ??$get_parameter_type@Uansi_string@?1??type_case_Z@?$output_processor@DV?$stream_output_adapter@D@__crt_stdio_output@@V?$positional_parameter_base@DV?$stream_output_adapter@D@__crt_stdio_output@@@2@@__crt_stdio_output@@AEAA_NXZ@@?$positional_parameter_base@DV?$stream_output_adapter@D@__crt_stdio_output@@@__crt_stdio_output@@CA?AW4parameter_type@01@PEAUansi_string@?1??type_case_Z@?$output_processor@DV?$stream_output_adapter@D@__crt_stdio_output@@V?$positional_parameter_base@DV?$stream_output_adapter@D@__crt_stdio_output@@@2@@1@AEAA_NXZ@@Z 0000000180063c40 f i libucrtd:output.obj
 0001:00062c50       ??$get_parameter_type@Uansi_string@?1??type_case_Z@?$output_processor@DV?$string_output_adapter@D@__crt_stdio_output@@V?$positional_parameter_base@DV?$string_output_adapter@D@__crt_stdio_output@@@2@@__crt_stdio_output@@AEAA_NXZ@@?$positional_parameter_base@DV?$string_output_adapter@D@__crt_stdio_output@@@__crt_stdio_output@@CA?AW4parameter_type@01@PEAUansi_string@?1??type_case_Z@?$output_processor@DV?$string_output_adapter@D@__crt_stdio_output@@V?$positional_parameter_base@DV?$string_output_adapter@D@__crt_stdio_output@@@2@@1@AEAA_NXZ@@Z 0000000180063c50 f i libucrtd:output.obj
 0001:00062c60       ??$get_parameter_type@Uansi_string@?1??type_case_Z@?$output_processor@_WV?$stream_output_adapter@_W@__crt_stdio_output@@V?$positional_parameter_base@_WV?$stream_output_adapter@_W@__crt_stdio_output@@@2@@__crt_stdio_output@@AEAA_NXZ@@?$positional_parameter_base@_WV?$stream_output_adapter@_W@__crt_stdio_output@@@__crt_stdio_output@@CA?AW4parameter_type@01@PEAUansi_string@?1??type_case_Z@?$output_processor@_WV?$stream_output_adapter@_W@__crt_stdio_output@@V?$positional_parameter_base@_WV?$stream_output_adapter@_W@__crt_stdio_output@@@2@@1@AEAA_NXZ@@Z 0000000180063c60 f i libucrtd:output.obj
 0001:00062c70       ??$get_parameter_type@Uansi_string@?1??type_case_Z@?$output_processor@_WV?$string_output_adapter@_W@__crt_stdio_output@@V?$positional_parameter_base@_WV?$string_output_adapter@_W@__crt_stdio_output@@@2@@__crt_stdio_output@@AEAA_NXZ@@?$positional_parameter_base@_WV?$string_output_adapter@_W@__crt_stdio_output@@@__crt_stdio_output@@CA?AW4parameter_type@01@PEAUansi_string@?1??type_case_Z@?$output_processor@_WV?$string_output_adapter@_W@__crt_stdio_output@@V?$positional_parameter_base@_WV?$string_output_adapter@_W@__crt_stdio_output@@@2@@1@AEAA_NXZ@@Z 0000000180063c70 f i libucrtd:output.obj
 0001:00062c80       ??$get_parameter_type@X@?$positional_parameter_base@DV?$stream_output_adapter@D@__crt_stdio_output@@@__crt_stdio_output@@CA?AW4parameter_type@01@PEAX@Z 0000000180063c80 f i libucrtd:output.obj
 0001:00062c90       ??$get_parameter_type@X@?$positional_parameter_base@DV?$string_output_adapter@D@__crt_stdio_output@@@__crt_stdio_output@@CA?AW4parameter_type@01@PEAX@Z 0000000180063c90 f i libucrtd:output.obj
 0001:00062ca0       ??$get_parameter_type@X@?$positional_parameter_base@_WV?$stream_output_adapter@_W@__crt_stdio_output@@@__crt_stdio_output@@CA?AW4parameter_type@01@PEAX@Z 0000000180063ca0 f i libucrtd:output.obj
 0001:00062cb0       ??$get_parameter_type@X@?$positional_parameter_base@_WV?$string_output_adapter@_W@__crt_stdio_output@@@__crt_stdio_output@@CA?AW4parameter_type@01@PEAX@Z 0000000180063cb0 f i libucrtd:output.obj
 0001:00062cc0       ??$is_character_specifier@D@?$positional_parameter_base@DV?$stream_output_adapter@D@__crt_stdio_output@@@__crt_stdio_output@@CA_ND@Z 0000000180063cc0 f i libucrtd:output.obj
 0001:00062d00       ??$is_character_specifier@D@?$positional_parameter_base@DV?$string_output_adapter@D@__crt_stdio_output@@@__crt_stdio_output@@CA_ND@Z 0000000180063d00 f i libucrtd:output.obj
 0001:00062d40       ??$is_character_specifier@_W@?$positional_parameter_base@_WV?$stream_output_adapter@_W@__crt_stdio_output@@@__crt_stdio_output@@CA_N_W@Z 0000000180063d40 f i libucrtd:output.obj
 0001:00062d80       ??$is_character_specifier@_W@?$positional_parameter_base@_WV?$string_output_adapter@_W@__crt_stdio_output@@@__crt_stdio_output@@CA_N_W@Z 0000000180063d80 f i libucrtd:output.obj
 0001:00062dc0       ??$is_integral_specifier@D@?$positional_parameter_base@DV?$stream_output_adapter@D@__crt_stdio_output@@@__crt_stdio_output@@CA_ND@Z 0000000180063dc0 f i libucrtd:output.obj
 0001:00062e30       ??$is_integral_specifier@D@?$positional_parameter_base@DV?$string_output_adapter@D@__crt_stdio_output@@@__crt_stdio_output@@CA_ND@Z 0000000180063e30 f i libucrtd:output.obj
 0001:00062ea0       ??$is_integral_specifier@_W@?$positional_parameter_base@_WV?$stream_output_adapter@_W@__crt_stdio_output@@@__crt_stdio_output@@CA_N_W@Z 0000000180063ea0 f i libucrtd:output.obj
 0001:00062f10       ??$is_integral_specifier@_W@?$positional_parameter_base@_WV?$string_output_adapter@_W@__crt_stdio_output@@@__crt_stdio_output@@CA_N_W@Z 0000000180063f10 f i libucrtd:output.obj
 0001:00062f80       ??$is_pointer_specifier@D@?$positional_parameter_base@DV?$stream_output_adapter@D@__crt_stdio_output@@@__crt_stdio_output@@CA_ND@Z 0000000180063f80 f i libucrtd:output.obj
 0001:00062fb0       ??$is_pointer_specifier@D@?$positional_parameter_base@DV?$string_output_adapter@D@__crt_stdio_output@@@__crt_stdio_output@@CA_ND@Z 0000000180063fb0 f i libucrtd:output.obj
 0001:00062fe0       ??$is_pointer_specifier@_W@?$positional_parameter_base@_WV?$stream_output_adapter@_W@__crt_stdio_output@@@__crt_stdio_output@@CA_N_W@Z 0000000180063fe0 f i libucrtd:output.obj
 0001:00063010       ??$is_pointer_specifier@_W@?$positional_parameter_base@_WV?$string_output_adapter@_W@__crt_stdio_output@@@__crt_stdio_output@@CA_N_W@Z 0000000180064010 f i libucrtd:output.obj
 0001:00063040       ??$is_string_specifier@D@?$positional_parameter_base@DV?$stream_output_adapter@D@__crt_stdio_output@@@__crt_stdio_output@@CA_ND@Z 0000000180064040 f i libucrtd:output.obj
 0001:00063080       ??$is_string_specifier@D@?$positional_parameter_base@DV?$string_output_adapter@D@__crt_stdio_output@@@__crt_stdio_output@@CA_ND@Z 0000000180064080 f i libucrtd:output.obj
 0001:000630c0       ??$is_string_specifier@_W@?$positional_parameter_base@_WV?$stream_output_adapter@_W@__crt_stdio_output@@@__crt_stdio_output@@CA_N_W@Z 00000001800640c0 f i libucrtd:output.obj
 0001:00063100       ??$is_string_specifier@_W@?$positional_parameter_base@_WV?$string_output_adapter@_W@__crt_stdio_output@@@__crt_stdio_output@@CA_N_W@Z 0000000180064100 f i libucrtd:output.obj
 0001:00063140       ??$is_wide_character_specifier@D@__crt_stdio_output@@YA_N_KDW4length_modifier@0@@Z 0000000180064140 f i libucrtd:output.obj
 0001:000631e0       ??$is_wide_character_specifier@_W@__crt_stdio_output@@YA_N_K_WW4length_modifier@0@@Z 00000001800641e0 f i libucrtd:output.obj
 0001:000632b0       ??$peek_va_arg@C@__crt_stdio_output@@YACPEAD@Z 00000001800642b0 f i libucrtd:output.obj
 0001:00063310       ??$peek_va_arg@E@__crt_stdio_output@@YAEPEAD@Z 0000000180064310 f i libucrtd:output.obj
 0001:00063370       ??$peek_va_arg@F@__crt_stdio_output@@YAFPEAD@Z 0000000180064370 f i libucrtd:output.obj
 0001:000633d0       ??$peek_va_arg@G@__crt_stdio_output@@YAGPEAD@Z 00000001800643d0 f i libucrtd:output.obj
 0001:00063430       ??$peek_va_arg@H@__crt_stdio_output@@YAHPEAD@Z 0000000180064430 f i libucrtd:output.obj
 0001:00063480       ??$peek_va_arg@I@__crt_stdio_output@@YAIPEAD@Z 0000000180064480 f i libucrtd:output.obj
 0001:000634d0       ??$peek_va_arg@PEAD@__crt_stdio_output@@YAPEADPEAD@Z 00000001800644d0 f i libucrtd:output.obj
 0001:00063530       ??$peek_va_arg@PEAUansi_string@?1??type_case_Z@?$output_processor@DV?$stream_output_adapter@D@__crt_stdio_output@@V?$positional_parameter_base@DV?$stream_output_adapter@D@__crt_stdio_output@@@2@@__crt_stdio_output@@AEAA_NXZ@@__crt_stdio_output@@YAPEAUansi_string@?1??type_case_Z@?$output_processor@DV?$stream_output_adapter@D@__crt_stdio_output@@V?$positional_parameter_base@DV?$stream_output_adapter@D@__crt_stdio_output@@@2@@0@AEAA_NXZ@PEAD@Z 0000000180064530 f i libucrtd:output.obj
 0001:00063590       ??$peek_va_arg@PEAUansi_string@?1??type_case_Z@?$output_processor@DV?$string_output_adapter@D@__crt_stdio_output@@V?$positional_parameter_base@DV?$string_output_adapter@D@__crt_stdio_output@@@2@@__crt_stdio_output@@AEAA_NXZ@@__crt_stdio_output@@YAPEAUansi_string@?1??type_case_Z@?$output_processor@DV?$string_output_adapter@D@__crt_stdio_output@@V?$positional_parameter_base@DV?$string_output_adapter@D@__crt_stdio_output@@@2@@0@AEAA_NXZ@PEAD@Z 0000000180064590 f i libucrtd:output.obj
 0001:000635f0       ??$peek_va_arg@PEAUansi_string@?1??type_case_Z@?$output_processor@_WV?$stream_output_adapter@_W@__crt_stdio_output@@V?$positional_parameter_base@_WV?$stream_output_adapter@_W@__crt_stdio_output@@@2@@__crt_stdio_output@@AEAA_NXZ@@__crt_stdio_output@@YAPEAUansi_string@?1??type_case_Z@?$output_processor@_WV?$stream_output_adapter@_W@__crt_stdio_output@@V?$positional_parameter_base@_WV?$stream_output_adapter@_W@__crt_stdio_output@@@2@@0@AEAA_NXZ@PEAD@Z 00000001800645f0 f i libucrtd:output.obj
 0001:00063650       ??$peek_va_arg@PEAUansi_string@?1??type_case_Z@?$output_processor@_WV?$string_output_adapter@_W@__crt_stdio_output@@V?$positional_parameter_base@_WV?$string_output_adapter@_W@__crt_stdio_output@@@2@@__crt_stdio_output@@AEAA_NXZ@@__crt_stdio_output@@YAPEAUansi_string@?1??type_case_Z@?$output_processor@_WV?$string_output_adapter@_W@__crt_stdio_output@@V?$positional_parameter_base@_WV?$string_output_adapter@_W@__crt_stdio_output@@@2@@0@AEAA_NXZ@PEAD@Z 0000000180064650 f i libucrtd:output.obj
 0001:000636b0       ??$peek_va_arg@PEAX@__crt_stdio_output@@YAPEAXPEAD@Z 00000001800646b0 f i libucrtd:output.obj
 0001:00063710       ??$peek_va_arg@U_CRT_DOUBLE@@@__crt_stdio_output@@YA?AU_CRT_DOUBLE@@PEAD@Z 0000000180064710 f i libucrtd:output.obj
 0001:00063770       ??$peek_va_arg@_J@__crt_stdio_output@@YA_JPEAD@Z 0000000180064770 f i libucrtd:output.obj
 0001:000637d0       ??$peek_va_arg@_K@__crt_stdio_output@@YA_KPEAD@Z 00000001800647d0 f i libucrtd:output.obj
 0001:00063830       ??$peek_va_arg@_W@__crt_stdio_output@@YA_WPEAD@Z 0000000180064830 f i libucrtd:output.obj
 0001:00063890       ??$puttc_nolock@AEBDPEAU_iobuf@@@?$__crt_char_traits@D@@SAHAEBD$$QEAPEAU_iobuf@@@Z 0000000180064890 f i libucrtd:output.obj
 0001:000638c0       ??$puttc_nolock@AEB_WPEAU_iobuf@@@?$__crt_char_traits@_W@@SAGAEB_W$$QEAPEAU_iobuf@@@Z 00000001800648c0 f i libucrtd:output.obj
 0001:000638f0       ??$read_va_arg@C@__crt_stdio_output@@YACAEAPEAD@Z 00000001800648f0 f i libucrtd:output.obj
 0001:00063960       ??$read_va_arg@E@__crt_stdio_output@@YAEAEAPEAD@Z 0000000180064960 f i libucrtd:output.obj
 0001:000639d0       ??$read_va_arg@F@__crt_stdio_output@@YAFAEAPEAD@Z 00000001800649d0 f i libucrtd:output.obj
 0001:00063a40       ??$read_va_arg@G@__crt_stdio_output@@YAGAEAPEAD@Z 0000000180064a40 f i libucrtd:output.obj
 0001:00063ab0       ??$read_va_arg@H@__crt_stdio_output@@YAHAEAPEAD@Z 0000000180064ab0 f i libucrtd:output.obj
 0001:00063b10       ??$read_va_arg@I@__crt_stdio_output@@YAIAEAPEAD@Z 0000000180064b10 f i libucrtd:output.obj
 0001:00063b70       ??$read_va_arg@PEAD@__crt_stdio_output@@YAPEADAEAPEAD@Z 0000000180064b70 f i libucrtd:output.obj
 0001:00063be0       ??$read_va_arg@PEAUansi_string@?1??type_case_Z@?$output_processor@DV?$stream_output_adapter@D@__crt_stdio_output@@V?$format_validation_base@DV?$stream_output_adapter@D@__crt_stdio_output@@@2@@__crt_stdio_output@@AEAA_NXZ@@__crt_stdio_output@@YAPEAUansi_string@?1??type_case_Z@?$output_processor@DV?$stream_output_adapter@D@__crt_stdio_output@@V?$format_validation_base@DV?$stream_output_adapter@D@__crt_stdio_output@@@2@@0@AEAA_NXZ@AEAPEAD@Z 0000000180064be0 f i libucrtd:output.obj
 0001:00063c50       ??$read_va_arg@PEAUansi_string@?1??type_case_Z@?$output_processor@DV?$stream_output_adapter@D@__crt_stdio_output@@V?$positional_parameter_base@DV?$stream_output_adapter@D@__crt_stdio_output@@@2@@__crt_stdio_output@@AEAA_NXZ@@__crt_stdio_output@@YAPEAUansi_string@?1??type_case_Z@?$output_processor@DV?$stream_output_adapter@D@__crt_stdio_output@@V?$positional_parameter_base@DV?$stream_output_adapter@D@__crt_stdio_output@@@2@@0@AEAA_NXZ@AEAPEAD@Z 0000000180064c50 f i libucrtd:output.obj
 0001:00063cc0       ??$read_va_arg@PEAUansi_string@?1??type_case_Z@?$output_processor@DV?$stream_output_adapter@D@__crt_stdio_output@@V?$standard_base@DV?$stream_output_adapter@D@__crt_stdio_output@@@2@@__crt_stdio_output@@AEAA_NXZ@@__crt_stdio_output@@YAPEAUansi_string@?1??type_case_Z@?$output_processor@DV?$stream_output_adapter@D@__crt_stdio_output@@V?$standard_base@DV?$stream_output_adapter@D@__crt_stdio_output@@@2@@0@AEAA_NXZ@AEAPEAD@Z 0000000180064cc0 f i libucrtd:output.obj
 0001:00063d30       ??$read_va_arg@PEAUansi_string@?1??type_case_Z@?$output_processor@DV?$string_output_adapter@D@__crt_stdio_output@@V?$format_validation_base@DV?$string_output_adapter@D@__crt_stdio_output@@@2@@__crt_stdio_output@@AEAA_NXZ@@__crt_stdio_output@@YAPEAUansi_string@?1??type_case_Z@?$output_processor@DV?$string_output_adapter@D@__crt_stdio_output@@V?$format_validation_base@DV?$string_output_adapter@D@__crt_stdio_output@@@2@@0@AEAA_NXZ@AEAPEAD@Z 0000000180064d30 f i libucrtd:output.obj
 0001:00063da0       ??$read_va_arg@PEAUansi_string@?1??type_case_Z@?$output_processor@DV?$string_output_adapter@D@__crt_stdio_output@@V?$positional_parameter_base@DV?$string_output_adapter@D@__crt_stdio_output@@@2@@__crt_stdio_output@@AEAA_NXZ@@__crt_stdio_output@@YAPEAUansi_string@?1??type_case_Z@?$output_processor@DV?$string_output_adapter@D@__crt_stdio_output@@V?$positional_parameter_base@DV?$string_output_adapter@D@__crt_stdio_output@@@2@@0@AEAA_NXZ@AEAPEAD@Z 0000000180064da0 f i libucrtd:output.obj
 0001:00063e10       ??$read_va_arg@PEAUansi_string@?1??type_case_Z@?$output_processor@DV?$string_output_adapter@D@__crt_stdio_output@@V?$standard_base@DV?$string_output_adapter@D@__crt_stdio_output@@@2@@__crt_stdio_output@@AEAA_NXZ@@__crt_stdio_output@@YAPEAUansi_string@?1??type_case_Z@?$output_processor@DV?$string_output_adapter@D@__crt_stdio_output@@V?$standard_base@DV?$string_output_adapter@D@__crt_stdio_output@@@2@@0@AEAA_NXZ@AEAPEAD@Z 0000000180064e10 f i libucrtd:output.obj
 0001:00063e80       ??$read_va_arg@PEAUansi_string@?1??type_case_Z@?$output_processor@_WV?$stream_output_adapter@_W@__crt_stdio_output@@V?$format_validation_base@_WV?$stream_output_adapter@_W@__crt_stdio_output@@@2@@__crt_stdio_output@@AEAA_NXZ@@__crt_stdio_output@@YAPEAUansi_string@?1??type_case_Z@?$output_processor@_WV?$stream_output_adapter@_W@__crt_stdio_output@@V?$format_validation_base@_WV?$stream_output_adapter@_W@__crt_stdio_output@@@2@@0@AEAA_NXZ@AEAPEAD@Z 0000000180064e80 f i libucrtd:output.obj
 0001:00063ef0       ??$read_va_arg@PEAUansi_string@?1??type_case_Z@?$output_processor@_WV?$stream_output_adapter@_W@__crt_stdio_output@@V?$positional_parameter_base@_WV?$stream_output_adapter@_W@__crt_stdio_output@@@2@@__crt_stdio_output@@AEAA_NXZ@@__crt_stdio_output@@YAPEAUansi_string@?1??type_case_Z@?$output_processor@_WV?$stream_output_adapter@_W@__crt_stdio_output@@V?$positional_parameter_base@_WV?$stream_output_adapter@_W@__crt_stdio_output@@@2@@0@AEAA_NXZ@AEAPEAD@Z 0000000180064ef0 f i libucrtd:output.obj
 0001:00063f60       ??$read_va_arg@PEAUansi_string@?1??type_case_Z@?$output_processor@_WV?$stream_output_adapter@_W@__crt_stdio_output@@V?$standard_base@_WV?$stream_output_adapter@_W@__crt_stdio_output@@@2@@__crt_stdio_output@@AEAA_NXZ@@__crt_stdio_output@@YAPEAUansi_string@?1??type_case_Z@?$output_processor@_WV?$stream_output_adapter@_W@__crt_stdio_output@@V?$standard_base@_WV?$stream_output_adapter@_W@__crt_stdio_output@@@2@@0@AEAA_NXZ@AEAPEAD@Z 0000000180064f60 f i libucrtd:output.obj
 0001:00063fd0       ??$read_va_arg@PEAUansi_string@?1??type_case_Z@?$output_processor@_WV?$string_output_adapter@_W@__crt_stdio_output@@V?$format_validation_base@_WV?$string_output_adapter@_W@__crt_stdio_output@@@2@@__crt_stdio_output@@AEAA_NXZ@@__crt_stdio_output@@YAPEAUansi_string@?1??type_case_Z@?$output_processor@_WV?$string_output_adapter@_W@__crt_stdio_output@@V?$format_validation_base@_WV?$string_output_adapter@_W@__crt_stdio_output@@@2@@0@AEAA_NXZ@AEAPEAD@Z 0000000180064fd0 f i libucrtd:output.obj
 0001:00064040       ??$read_va_arg@PEAUansi_string@?1??type_case_Z@?$output_processor@_WV?$string_output_adapter@_W@__crt_stdio_output@@V?$positional_parameter_base@_WV?$string_output_adapter@_W@__crt_stdio_output@@@2@@__crt_stdio_output@@AEAA_NXZ@@__crt_stdio_output@@YAPEAUansi_string@?1??type_case_Z@?$output_processor@_WV?$string_output_adapter@_W@__crt_stdio_output@@V?$positional_parameter_base@_WV?$string_output_adapter@_W@__crt_stdio_output@@@2@@0@AEAA_NXZ@AEAPEAD@Z 0000000180065040 f i libucrtd:output.obj
 0001:000640b0       ??$read_va_arg@PEAUansi_string@?1??type_case_Z@?$output_processor@_WV?$string_output_adapter@_W@__crt_stdio_output@@V?$standard_base@_WV?$string_output_adapter@_W@__crt_stdio_output@@@2@@__crt_stdio_output@@AEAA_NXZ@@__crt_stdio_output@@YAPEAUansi_string@?1??type_case_Z@?$output_processor@_WV?$string_output_adapter@_W@__crt_stdio_output@@V?$standard_base@_WV?$string_output_adapter@_W@__crt_stdio_output@@@2@@0@AEAA_NXZ@AEAPEAD@Z 00000001800650b0 f i libucrtd:output.obj
 0001:00064120       ??$read_va_arg@PEAX@__crt_stdio_output@@YAPEAXAEAPEAD@Z 0000000180065120 f i libucrtd:output.obj
 0001:00064190       ??$read_va_arg@U_CRT_DOUBLE@@@__crt_stdio_output@@YA?AU_CRT_DOUBLE@@AEAPEAD@Z 0000000180065190 f i libucrtd:output.obj
 0001:00064200       ??$read_va_arg@_J@__crt_stdio_output@@YA_JAEAPEAD@Z 0000000180065200 f i libucrtd:output.obj
 0001:00064270       ??$read_va_arg@_K@__crt_stdio_output@@YA_KAEAPEAD@Z 0000000180065270 f i libucrtd:output.obj
 0001:000642e0       ??$read_va_arg@_W@__crt_stdio_output@@YA_WAEAPEAD@Z 00000001800652e0 f i libucrtd:output.obj
 0001:00064350       ??$scratch_count@D@formatting_buffer@__crt_stdio_output@@QEBA_KXZ 0000000180065350 f i libucrtd:output.obj
 0001:00064370       ??$scratch_data@D@formatting_buffer@__crt_stdio_output@@QEAAPEADXZ 0000000180065370 f i libucrtd:output.obj
 0001:000643e0       ??$tcstol@AEAPEBDPEAPEADH@?$__crt_char_traits@D@@SAJAEAPEBD$$QEAPEAPEAD$$QEAH@Z 00000001800653e0 f i libucrtd:output.obj
 0001:00064420       ??$tcstol@AEAPEB_WPEAPEA_WH@?$__crt_char_traits@_W@@SAJAEAPEB_W$$QEAPEAPEA_W$$QEAH@Z 0000000180065420 f i libucrtd:output.obj
 0001:00064460       ??$tcstol@PEBDPEAPEADH@?$__crt_char_traits@D@@SAJ$$QEAPEBD$$QEAPEAPEAD$$QEAH@Z 0000000180065460 f i libucrtd:output.obj
 0001:000644a0       ??$tcstol@PEB_WPEAPEA_WH@?$__crt_char_traits@_W@@SAJ$$QEAPEB_W$$QEAPEAPEA_W$$QEAH@Z 00000001800654a0 f i libucrtd:output.obj
 0001:000644e0       ??$type_case_integer_parse_into_buffer@I@?$output_processor@DV?$stream_output_adapter@D@__crt_stdio_output@@V?$format_validation_base@DV?$stream_output_adapter@D@__crt_stdio_output@@@2@@__crt_stdio_output@@AEAAXII_N@Z 00000001800654e0 f i libucrtd:output.obj
 0001:00064610       ??$type_case_integer_parse_into_buffer@I@?$output_processor@DV?$stream_output_adapter@D@__crt_stdio_output@@V?$positional_parameter_base@DV?$stream_output_adapter@D@__crt_stdio_output@@@2@@__crt_stdio_output@@AEAAXII_N@Z 0000000180065610 f i libucrtd:output.obj
 0001:00064740       ??$type_case_integer_parse_into_buffer@I@?$output_processor@DV?$stream_output_adapter@D@__crt_stdio_output@@V?$standard_base@DV?$stream_output_adapter@D@__crt_stdio_output@@@2@@__crt_stdio_output@@AEAAXII_N@Z 0000000180065740 f i libucrtd:output.obj
 0001:00064870       ??$type_case_integer_parse_into_buffer@I@?$output_processor@DV?$string_output_adapter@D@__crt_stdio_output@@V?$format_validation_base@DV?$string_output_adapter@D@__crt_stdio_output@@@2@@__crt_stdio_output@@AEAAXII_N@Z 0000000180065870 f i libucrtd:output.obj
 0001:000649a0       ??$type_case_integer_parse_into_buffer@I@?$output_processor@DV?$string_output_adapter@D@__crt_stdio_output@@V?$positional_parameter_base@DV?$string_output_adapter@D@__crt_stdio_output@@@2@@__crt_stdio_output@@AEAAXII_N@Z 00000001800659a0 f i libucrtd:output.obj
 0001:00064ad0       ??$type_case_integer_parse_into_buffer@I@?$output_processor@DV?$string_output_adapter@D@__crt_stdio_output@@V?$standard_base@DV?$string_output_adapter@D@__crt_stdio_output@@@2@@__crt_stdio_output@@AEAAXII_N@Z 0000000180065ad0 f i libucrtd:output.obj
 0001:00064c00       ??$type_case_integer_parse_into_buffer@I@?$output_processor@_WV?$stream_output_adapter@_W@__crt_stdio_output@@V?$format_validation_base@_WV?$stream_output_adapter@_W@__crt_stdio_output@@@2@@__crt_stdio_output@@AEAAXII_N@Z 0000000180065c00 f i libucrtd:output.obj
 0001:00064d40       ??$type_case_integer_parse_into_buffer@I@?$output_processor@_WV?$stream_output_adapter@_W@__crt_stdio_output@@V?$positional_parameter_base@_WV?$stream_output_adapter@_W@__crt_stdio_output@@@2@@__crt_stdio_output@@AEAAXII_N@Z 0000000180065d40 f i libucrtd:output.obj
 0001:00064e80       ??$type_case_integer_parse_into_buffer@I@?$output_processor@_WV?$stream_output_adapter@_W@__crt_stdio_output@@V?$standard_base@_WV?$stream_output_adapter@_W@__crt_stdio_output@@@2@@__crt_stdio_output@@AEAAXII_N@Z 0000000180065e80 f i libucrtd:output.obj
 0001:00064fc0       ??$type_case_integer_parse_into_buffer@I@?$output_processor@_WV?$string_output_adapter@_W@__crt_stdio_output@@V?$format_validation_base@_WV?$string_output_adapter@_W@__crt_stdio_output@@@2@@__crt_stdio_output@@AEAAXII_N@Z 0000000180065fc0 f i libucrtd:output.obj
 0001:00065100       ??$type_case_integer_parse_into_buffer@I@?$output_processor@_WV?$string_output_adapter@_W@__crt_stdio_output@@V?$positional_parameter_base@_WV?$string_output_adapter@_W@__crt_stdio_output@@@2@@__crt_stdio_output@@AEAAXII_N@Z 0000000180066100 f i libucrtd:output.obj
 0001:00065240       ??$type_case_integer_parse_into_buffer@I@?$output_processor@_WV?$string_output_adapter@_W@__crt_stdio_output@@V?$standard_base@_WV?$string_output_adapter@_W@__crt_stdio_output@@@2@@__crt_stdio_output@@AEAAXII_N@Z 0000000180066240 f i libucrtd:output.obj
 0001:00065380       ??$type_case_integer_parse_into_buffer@_K@?$output_processor@DV?$stream_output_adapter@D@__crt_stdio_output@@V?$format_validation_base@DV?$stream_output_adapter@D@__crt_stdio_output@@@2@@__crt_stdio_output@@AEAAX_KI_N@Z 0000000180066380 f i libucrtd:output.obj
 0001:000654d0       ??$type_case_integer_parse_into_buffer@_K@?$output_processor@DV?$stream_output_adapter@D@__crt_stdio_output@@V?$positional_parameter_base@DV?$stream_output_adapter@D@__crt_stdio_output@@@2@@__crt_stdio_output@@AEAAX_KI_N@Z 00000001800664d0 f i libucrtd:output.obj
 0001:00065620       ??$type_case_integer_parse_into_buffer@_K@?$output_processor@DV?$stream_output_adapter@D@__crt_stdio_output@@V?$standard_base@DV?$stream_output_adapter@D@__crt_stdio_output@@@2@@__crt_stdio_output@@AEAAX_KI_N@Z 0000000180066620 f i libucrtd:output.obj
 0001:00065770       ??$type_case_integer_parse_into_buffer@_K@?$output_processor@DV?$string_output_adapter@D@__crt_stdio_output@@V?$format_validation_base@DV?$string_output_adapter@D@__crt_stdio_output@@@2@@__crt_stdio_output@@AEAAX_KI_N@Z 0000000180066770 f i libucrtd:output.obj
 0001:000658c0       ??$type_case_integer_parse_into_buffer@_K@?$output_processor@DV?$string_output_adapter@D@__crt_stdio_output@@V?$positional_parameter_base@DV?$string_output_adapter@D@__crt_stdio_output@@@2@@__crt_stdio_output@@AEAAX_KI_N@Z 00000001800668c0 f i libucrtd:output.obj
 0001:00065a10       ??$type_case_integer_parse_into_buffer@_K@?$output_processor@DV?$string_output_adapter@D@__crt_stdio_output@@V?$standard_base@DV?$string_output_adapter@D@__crt_stdio_output@@@2@@__crt_stdio_output@@AEAAX_KI_N@Z 0000000180066a10 f i libucrtd:output.obj
 0001:00065b60       ??$type_case_integer_parse_into_buffer@_K@?$output_processor@_WV?$stream_output_adapter@_W@__crt_stdio_output@@V?$format_validation_base@_WV?$stream_output_adapter@_W@__crt_stdio_output@@@2@@__crt_stdio_output@@AEAAX_KI_N@Z 0000000180066b60 f i libucrtd:output.obj
 0001:00065cc0       ??$type_case_integer_parse_into_buffer@_K@?$output_processor@_WV?$stream_output_adapter@_W@__crt_stdio_output@@V?$positional_parameter_base@_WV?$stream_output_adapter@_W@__crt_stdio_output@@@2@@__crt_stdio_output@@AEAAX_KI_N@Z 0000000180066cc0 f i libucrtd:output.obj
 0001:00065e20       ??$type_case_integer_parse_into_buffer@_K@?$output_processor@_WV?$stream_output_adapter@_W@__crt_stdio_output@@V?$standard_base@_WV?$stream_output_adapter@_W@__crt_stdio_output@@@2@@__crt_stdio_output@@AEAAX_KI_N@Z 0000000180066e20 f i libucrtd:output.obj
 0001:00065f80       ??$type_case_integer_parse_into_buffer@_K@?$output_processor@_WV?$string_output_adapter@_W@__crt_stdio_output@@V?$format_validation_base@_WV?$string_output_adapter@_W@__crt_stdio_output@@@2@@__crt_stdio_output@@AEAAX_KI_N@Z 0000000180066f80 f i libucrtd:output.obj
 0001:000660e0       ??$type_case_integer_parse_into_buffer@_K@?$output_processor@_WV?$string_output_adapter@_W@__crt_stdio_output@@V?$positional_parameter_base@_WV?$string_output_adapter@_W@__crt_stdio_output@@@2@@__crt_stdio_output@@AEAAX_KI_N@Z 00000001800670e0 f i libucrtd:output.obj
 0001:00066240       ??$type_case_integer_parse_into_buffer@_K@?$output_processor@_WV?$string_output_adapter@_W@__crt_stdio_output@@V?$standard_base@_WV?$string_output_adapter@_W@__crt_stdio_output@@@2@@__crt_stdio_output@@AEAAX_KI_N@Z 0000000180067240 f i libucrtd:output.obj
 0001:000663a0       ??$write_multiple_characters@V?$stream_output_adapter@D@__crt_stdio_output@@D@__crt_stdio_output@@YAXAEBV?$stream_output_adapter@D@0@DHQEAH@Z 00000001800673a0 f i libucrtd:output.obj
 0001:00066400       ??$write_multiple_characters@V?$stream_output_adapter@_W@__crt_stdio_output@@D@__crt_stdio_output@@YAXAEBV?$stream_output_adapter@_W@0@DHQEAH@Z 0000000180067400 f i libucrtd:output.obj
 0001:00066460       ??$write_multiple_characters@V?$string_output_adapter@D@__crt_stdio_output@@D@__crt_stdio_output@@YAXAEBV?$string_output_adapter@D@0@DHQEAH@Z 0000000180067460 f i libucrtd:output.obj
 0001:000664c0       ??$write_multiple_characters@V?$string_output_adapter@_W@__crt_stdio_output@@D@__crt_stdio_output@@YAXAEBV?$string_output_adapter@_W@0@DHQEAH@Z 00000001800674c0 f i libucrtd:output.obj
 0001:000668e0       ??0?$common_data@D@__crt_stdio_output@@IEAA@XZ 00000001800678e0 f i libucrtd:output.obj
 0001:000669b0       ??0?$common_data@_W@__crt_stdio_output@@IEAA@XZ 00000001800679b0 f i libucrtd:output.obj
 0001:00066a80       ??0?$output_adapter_data@DV?$stream_output_adapter@D@__crt_stdio_output@@@__crt_stdio_output@@IEAA@AEBV?$stream_output_adapter@D@1@_KQEBDQEAU__crt_locale_pointers@@QEAD@Z 0000000180067a80 f i libucrtd:output.obj
 0001:00066b00       ??0?$output_adapter_data@DV?$string_output_adapter@D@__crt_stdio_output@@@__crt_stdio_output@@IEAA@AEBV?$string_output_adapter@D@1@_KQEBDQEAU__crt_locale_pointers@@QEAD@Z 0000000180067b00 f i libucrtd:output.obj
 0001:00066b80       ??0?$output_adapter_data@_WV?$stream_output_adapter@_W@__crt_stdio_output@@@__crt_stdio_output@@IEAA@AEBV?$stream_output_adapter@_W@1@_KQEB_WQEAU__crt_locale_pointers@@QEAD@Z 0000000180067b80 f i libucrtd:output.obj
 0001:00066c00       ??0?$output_adapter_data@_WV?$string_output_adapter@_W@__crt_stdio_output@@@__crt_stdio_output@@IEAA@AEBV?$string_output_adapter@_W@1@_KQEB_WQEAU__crt_locale_pointers@@QEAD@Z 0000000180067c00 f i libucrtd:output.obj
 0001:00066c80       ??0?$output_processor@DV?$stream_output_adapter@D@__crt_stdio_output@@V?$format_validation_base@DV?$stream_output_adapter@D@__crt_stdio_output@@@2@@__crt_stdio_output@@QEAA@AEBV?$stream_output_adapter@D@1@_KQEBDQEAU__crt_locale_pointers@@QEAD@Z 0000000180067c80 f i libucrtd:output.obj
 0001:00066cd0       ??0?$output_processor@DV?$stream_output_adapter@D@__crt_stdio_output@@V?$positional_parameter_base@DV?$stream_output_adapter@D@__crt_stdio_output@@@2@@__crt_stdio_output@@QEAA@AEBV?$stream_output_adapter@D@1@_KQEBDQEAU__crt_locale_pointers@@QEAD@Z 0000000180067cd0 f i libucrtd:output.obj
 0001:00066d20       ??0?$output_processor@DV?$stream_output_adapter@D@__crt_stdio_output@@V?$standard_base@DV?$stream_output_adapter@D@__crt_stdio_output@@@2@@__crt_stdio_output@@QEAA@AEBV?$stream_output_adapter@D@1@_KQEBDQEAU__crt_locale_pointers@@QEAD@Z 0000000180067d20 f i libucrtd:output.obj
 0001:00066d70       ??0?$output_processor@DV?$string_output_adapter@D@__crt_stdio_output@@V?$format_validation_base@DV?$string_output_adapter@D@__crt_stdio_output@@@2@@__crt_stdio_output@@QEAA@AEBV?$string_output_adapter@D@1@_KQEBDQEAU__crt_locale_pointers@@QEAD@Z 0000000180067d70 f i libucrtd:output.obj
 0001:00066dc0       ??0?$output_processor@DV?$string_output_adapter@D@__crt_stdio_output@@V?$positional_parameter_base@DV?$string_output_adapter@D@__crt_stdio_output@@@2@@__crt_stdio_output@@QEAA@AEBV?$string_output_adapter@D@1@_KQEBDQEAU__crt_locale_pointers@@QEAD@Z 0000000180067dc0 f i libucrtd:output.obj
 0001:00066e10       ??0?$output_processor@DV?$string_output_adapter@D@__crt_stdio_output@@V?$standard_base@DV?$string_output_adapter@D@__crt_stdio_output@@@2@@__crt_stdio_output@@QEAA@AEBV?$string_output_adapter@D@1@_KQEBDQEAU__crt_locale_pointers@@QEAD@Z 0000000180067e10 f i libucrtd:output.obj
 0001:00066e60       ??0?$output_processor@_WV?$stream_output_adapter@_W@__crt_stdio_output@@V?$format_validation_base@_WV?$stream_output_adapter@_W@__crt_stdio_output@@@2@@__crt_stdio_output@@QEAA@AEBV?$stream_output_adapter@_W@1@_KQEB_WQEAU__crt_locale_pointers@@QEAD@Z 0000000180067e60 f i libucrtd:output.obj
 0001:00066eb0       ??0?$output_processor@_WV?$stream_output_adapter@_W@__crt_stdio_output@@V?$positional_parameter_base@_WV?$stream_output_adapter@_W@__crt_stdio_output@@@2@@__crt_stdio_output@@QEAA@AEBV?$stream_output_adapter@_W@1@_KQEB_WQEAU__crt_locale_pointers@@QEAD@Z 0000000180067eb0 f i libucrtd:output.obj
 0001:00066f00       ??0?$output_processor@_WV?$stream_output_adapter@_W@__crt_stdio_output@@V?$standard_base@_WV?$stream_output_adapter@_W@__crt_stdio_output@@@2@@__crt_stdio_output@@QEAA@AEBV?$stream_output_adapter@_W@1@_KQEB_WQEAU__crt_locale_pointers@@QEAD@Z 0000000180067f00 f i libucrtd:output.obj
 0001:00066f50       ??0?$output_processor@_WV?$string_output_adapter@_W@__crt_stdio_output@@V?$format_validation_base@_WV?$string_output_adapter@_W@__crt_stdio_output@@@2@@__crt_stdio_output@@QEAA@AEBV?$string_output_adapter@_W@1@_KQEB_WQEAU__crt_locale_pointers@@QEAD@Z 0000000180067f50 f i libucrtd:output.obj
 0001:00066fa0       ??0?$output_processor@_WV?$string_output_adapter@_W@__crt_stdio_output@@V?$positional_parameter_base@_WV?$string_output_adapter@_W@__crt_stdio_output@@@2@@__crt_stdio_output@@QEAA@AEBV?$string_output_adapter@_W@1@_KQEB_WQEAU__crt_locale_pointers@@QEAD@Z 0000000180067fa0 f i libucrtd:output.obj
 0001:00066ff0       ??0?$output_processor@_WV?$string_output_adapter@_W@__crt_stdio_output@@V?$standard_base@_WV?$string_output_adapter@_W@__crt_stdio_output@@@2@@__crt_stdio_output@@QEAA@AEBV?$string_output_adapter@_W@1@_KQEB_WQEAU__crt_locale_pointers@@QEAD@Z 0000000180067ff0 f i libucrtd:output.obj
 0001:00067040       ??0?$stream_output_adapter@D@__crt_stdio_output@@QEAA@QEAU_iobuf@@@Z 0000000180068040 f i libucrtd:output.obj
 0001:00067070       ??0?$stream_output_adapter@_W@__crt_stdio_output@@QEAA@QEAU_iobuf@@@Z 0000000180068070 f i libucrtd:output.obj
 0001:000670a0       ??0?$string_output_adapter@D@__crt_stdio_output@@QEAA@QEAU?$string_output_adapter_context@D@1@@Z 00000001800680a0 f i libucrtd:output.obj
 0001:000670c0       ??0?$string_output_adapter@_W@__crt_stdio_output@@QEAA@QEAU?$string_output_adapter_context@_W@1@@Z 00000001800680c0 f i libucrtd:output.obj
 0001:000670e0       ??0_LocaleUpdate@@QEAA@QEAU__crt_locale_pointers@@@Z 00000001800680e0 f i libucrtd:output.obj
 0001:00067200       ??0__acrt_stdio_temporary_buffering_guard@@QEAA@QEAU_iobuf@@@Z 0000000180068200 f i libucrtd:output.obj
 0001:00067240       ??0__crt_deferred_errno_cache@@QEAA@XZ 0000000180068240 f i libucrtd:output.obj
 0001:00067260       ??0__crt_errno_guard@@QEAA@QEAH@Z 0000000180068260 f i libucrtd:output.obj
 0001:000672a0       ??0__crt_stdio_stream@@QEAA@QEAU_iobuf@@@Z 00000001800682a0 f i libucrtd:output.obj
 0001:000672c0       ??0formatting_buffer@__crt_stdio_output@@QEAA@XZ 00000001800682c0 f i libucrtd:output.obj
 0001:00067300       ??1?$common_data@D@__crt_stdio_output@@QEAA@XZ 0000000180068300 f i libucrtd:output.obj
 0001:00067320       ??1?$common_data@_W@__crt_stdio_output@@QEAA@XZ 0000000180068320 f i libucrtd:output.obj
 0001:00067340       ??1?$format_validation_base@DV?$stream_output_adapter@D@__crt_stdio_output@@@__crt_stdio_output@@QEAA@XZ 0000000180068340 f i libucrtd:output.obj
 0001:00067360       ??1?$format_validation_base@DV?$string_output_adapter@D@__crt_stdio_output@@@__crt_stdio_output@@QEAA@XZ 0000000180068360 f i libucrtd:output.obj
 0001:00067380       ??1?$format_validation_base@_WV?$stream_output_adapter@_W@__crt_stdio_output@@@__crt_stdio_output@@QEAA@XZ 0000000180068380 f i libucrtd:output.obj
 0001:000673a0       ??1?$format_validation_base@_WV?$string_output_adapter@_W@__crt_stdio_output@@@__crt_stdio_output@@QEAA@XZ 00000001800683a0 f i libucrtd:output.obj
 0001:000673c0       ??1?$output_adapter_data@DV?$stream_output_adapter@D@__crt_stdio_output@@@__crt_stdio_output@@QEAA@XZ 00000001800683c0 f i libucrtd:output.obj
 0001:000673e0       ??1?$output_adapter_data@DV?$string_output_adapter@D@__crt_stdio_output@@@__crt_stdio_output@@QEAA@XZ 00000001800683e0 f i libucrtd:output.obj
 0001:00067400       ??1?$output_adapter_data@_WV?$stream_output_adapter@_W@__crt_stdio_output@@@__crt_stdio_output@@QEAA@XZ 0000000180068400 f i libucrtd:output.obj
 0001:00067420       ??1?$output_adapter_data@_WV?$string_output_adapter@_W@__crt_stdio_output@@@__crt_stdio_output@@QEAA@XZ 0000000180068420 f i libucrtd:output.obj
 0001:00067440       ??1?$output_processor@DV?$stream_output_adapter@D@__crt_stdio_output@@V?$format_validation_base@DV?$stream_output_adapter@D@__crt_stdio_output@@@2@@__crt_stdio_output@@QEAA@XZ 0000000180068440 f i libucrtd:output.obj
 0001:00067460       ??1?$output_processor@DV?$stream_output_adapter@D@__crt_stdio_output@@V?$positional_parameter_base@DV?$stream_output_adapter@D@__crt_stdio_output@@@2@@__crt_stdio_output@@QEAA@XZ 0000000180068460 f i libucrtd:output.obj
 0001:00067480       ??1?$output_processor@DV?$stream_output_adapter@D@__crt_stdio_output@@V?$standard_base@DV?$stream_output_adapter@D@__crt_stdio_output@@@2@@__crt_stdio_output@@QEAA@XZ 0000000180068480 f i libucrtd:output.obj
 0001:000674a0       ??1?$output_processor@DV?$string_output_adapter@D@__crt_stdio_output@@V?$format_validation_base@DV?$string_output_adapter@D@__crt_stdio_output@@@2@@__crt_stdio_output@@QEAA@XZ 00000001800684a0 f i libucrtd:output.obj
 0001:000674c0       ??1?$output_processor@DV?$string_output_adapter@D@__crt_stdio_output@@V?$positional_parameter_base@DV?$string_output_adapter@D@__crt_stdio_output@@@2@@__crt_stdio_output@@QEAA@XZ 00000001800684c0 f i libucrtd:output.obj
 0001:000674e0       ??1?$output_processor@DV?$string_output_adapter@D@__crt_stdio_output@@V?$standard_base@DV?$string_output_adapter@D@__crt_stdio_output@@@2@@__crt_stdio_output@@QEAA@XZ 00000001800684e0 f i libucrtd:output.obj
 0001:00067500       ??1?$output_processor@_WV?$stream_output_adapter@_W@__crt_stdio_output@@V?$format_validation_base@_WV?$stream_output_adapter@_W@__crt_stdio_output@@@2@@__crt_stdio_output@@QEAA@XZ 0000000180068500 f i libucrtd:output.obj
 0001:00067520       ??1?$output_processor@_WV?$stream_output_adapter@_W@__crt_stdio_output@@V?$positional_parameter_base@_WV?$stream_output_adapter@_W@__crt_stdio_output@@@2@@__crt_stdio_output@@QEAA@XZ 0000000180068520 f i libucrtd:output.obj
 0001:00067540       ??1?$output_processor@_WV?$stream_output_adapter@_W@__crt_stdio_output@@V?$standard_base@_WV?$stream_output_adapter@_W@__crt_stdio_output@@@2@@__crt_stdio_output@@QEAA@XZ 0000000180068540 f i libucrtd:output.obj
 0001:00067560       ??1?$output_processor@_WV?$string_output_adapter@_W@__crt_stdio_output@@V?$format_validation_base@_WV?$string_output_adapter@_W@__crt_stdio_output@@@2@@__crt_stdio_output@@QEAA@XZ 0000000180068560 f i libucrtd:output.obj
 0001:00067580       ??1?$output_processor@_WV?$string_output_adapter@_W@__crt_stdio_output@@V?$positional_parameter_base@_WV?$string_output_adapter@_W@__crt_stdio_output@@@2@@__crt_stdio_output@@QEAA@XZ 0000000180068580 f i libucrtd:output.obj
 0001:000675a0       ??1?$output_processor@_WV?$string_output_adapter@_W@__crt_stdio_output@@V?$standard_base@_WV?$string_output_adapter@_W@__crt_stdio_output@@@2@@__crt_stdio_output@@QEAA@XZ 00000001800685a0 f i libucrtd:output.obj
 0001:000675c0       ??1?$positional_parameter_base@DV?$stream_output_adapter@D@__crt_stdio_output@@@__crt_stdio_output@@QEAA@XZ 00000001800685c0 f i libucrtd:output.obj
 0001:000675e0       ??1?$positional_parameter_base@DV?$string_output_adapter@D@__crt_stdio_output@@@__crt_stdio_output@@QEAA@XZ 00000001800685e0 f i libucrtd:output.obj
 0001:00067600       ??1?$positional_parameter_base@_WV?$stream_output_adapter@_W@__crt_stdio_output@@@__crt_stdio_output@@QEAA@XZ 0000000180068600 f i libucrtd:output.obj
 0001:00067620       ??1?$positional_parameter_base@_WV?$string_output_adapter@_W@__crt_stdio_output@@@__crt_stdio_output@@QEAA@XZ 0000000180068620 f i libucrtd:output.obj
 0001:00067640       ??1?$standard_base@DV?$stream_output_adapter@D@__crt_stdio_output@@@__crt_stdio_output@@QEAA@XZ 0000000180068640 f i libucrtd:output.obj
 0001:00067660       ??1?$standard_base@DV?$string_output_adapter@D@__crt_stdio_output@@@__crt_stdio_output@@QEAA@XZ 0000000180068660 f i libucrtd:output.obj
 0001:00067680       ??1?$standard_base@_WV?$stream_output_adapter@_W@__crt_stdio_output@@@__crt_stdio_output@@QEAA@XZ 0000000180068680 f i libucrtd:output.obj
 0001:000676a0       ??1?$standard_base@_WV?$string_output_adapter@_W@__crt_stdio_output@@@__crt_stdio_output@@QEAA@XZ 00000001800686a0 f i libucrtd:output.obj
 0001:000676c0       ??1_LocaleUpdate@@QEAA@XZ  00000001800686c0 f i libucrtd:output.obj
 0001:000676f0       ??1__acrt_stdio_temporary_buffering_guard@@QEAA@XZ 00000001800686f0 f i libucrtd:output.obj
 0001:00067720       ??1__crt_errno_guard@@QEAA@XZ 0000000180068720 f i libucrtd:output.obj
 0001:00067750       ??1formatting_buffer@__crt_stdio_output@@QEAA@XZ 0000000180068750 f i libucrtd:output.obj
 0001:00067780       ??4?$__crt_unique_heap_ptr@DU__crt_internal_free_policy@@@@QEAAAEAV0@$$QEAV0@@Z 0000000180068780 f i libucrtd:output.obj
 0001:000677c0       ??A?$spectre_mitigated_lookup_table@Ustate_transition_pair@__crt_stdio_output@@$0IA@@__crt_stdio_output@@QEBAAEBUstate_transition_pair@1@_K@Z 00000001800687c0 f i libucrtd:output.obj
 0001:000677e0       ??C__crt_stdio_stream@@QEBAPEAU__crt_stdio_stream_data@@XZ 00000001800687e0 f i libucrtd:output.obj
 0001:00068090       ?GetLocaleT@_LocaleUpdate@@QEAAPEAU__crt_locale_pointers@@XZ 0000000180069090 f i libucrtd:output.obj
 0001:000680a0       ?__crt_interlocked_read_32@@YAHPEDH@Z 00000001800690a0 f i libucrtd:output.obj
 0001:000680c0       ?adjust_hexit@?$output_processor@DV?$stream_output_adapter@D@__crt_stdio_output@@V?$format_validation_base@DV?$stream_output_adapter@D@__crt_stdio_output@@@2@@__crt_stdio_output@@CADH_N@Z 00000001800690c0 f i libucrtd:output.obj
 0001:00068110       ?adjust_hexit@?$output_processor@DV?$stream_output_adapter@D@__crt_stdio_output@@V?$positional_parameter_base@DV?$stream_output_adapter@D@__crt_stdio_output@@@2@@__crt_stdio_output@@CADH_N@Z 0000000180069110 f i libucrtd:output.obj
 0001:00068160       ?adjust_hexit@?$output_processor@DV?$stream_output_adapter@D@__crt_stdio_output@@V?$standard_base@DV?$stream_output_adapter@D@__crt_stdio_output@@@2@@__crt_stdio_output@@CADH_N@Z 0000000180069160 f i libucrtd:output.obj
 0001:000681b0       ?adjust_hexit@?$output_processor@DV?$string_output_adapter@D@__crt_stdio_output@@V?$format_validation_base@DV?$string_output_adapter@D@__crt_stdio_output@@@2@@__crt_stdio_output@@CADH_N@Z 00000001800691b0 f i libucrtd:output.obj
 0001:00068200       ?adjust_hexit@?$output_processor@DV?$string_output_adapter@D@__crt_stdio_output@@V?$positional_parameter_base@DV?$string_output_adapter@D@__crt_stdio_output@@@2@@__crt_stdio_output@@CADH_N@Z 0000000180069200 f i libucrtd:output.obj
 0001:00068250       ?adjust_hexit@?$output_processor@DV?$string_output_adapter@D@__crt_stdio_output@@V?$standard_base@DV?$string_output_adapter@D@__crt_stdio_output@@@2@@__crt_stdio_output@@CADH_N@Z 0000000180069250 f i libucrtd:output.obj
 0001:000682a0       ?adjust_hexit@?$output_processor@_WV?$stream_output_adapter@_W@__crt_stdio_output@@V?$format_validation_base@_WV?$stream_output_adapter@_W@__crt_stdio_output@@@2@@__crt_stdio_output@@CADH_N@Z 00000001800692a0 f i libucrtd:output.obj
 0001:000682f0       ?adjust_hexit@?$output_processor@_WV?$stream_output_adapter@_W@__crt_stdio_output@@V?$positional_parameter_base@_WV?$stream_output_adapter@_W@__crt_stdio_output@@@2@@__crt_stdio_output@@CADH_N@Z 00000001800692f0 f i libucrtd:output.obj
 0001:00068340       ?adjust_hexit@?$output_processor@_WV?$stream_output_adapter@_W@__crt_stdio_output@@V?$standard_base@_WV?$stream_output_adapter@_W@__crt_stdio_output@@@2@@__crt_stdio_output@@CADH_N@Z 0000000180069340 f i libucrtd:output.obj
 0001:00068390       ?adjust_hexit@?$output_processor@_WV?$string_output_adapter@_W@__crt_stdio_output@@V?$format_validation_base@_WV?$string_output_adapter@_W@__crt_stdio_output@@@2@@__crt_stdio_output@@CADH_N@Z 0000000180069390 f i libucrtd:output.obj
 0001:000683e0       ?adjust_hexit@?$output_processor@_WV?$string_output_adapter@_W@__crt_stdio_output@@V?$positional_parameter_base@_WV?$string_output_adapter@_W@__crt_stdio_output@@@2@@__crt_stdio_output@@CADH_N@Z 00000001800693e0 f i libucrtd:output.obj
 0001:00068430       ?adjust_hexit@?$output_processor@_WV?$string_output_adapter@_W@__crt_stdio_output@@V?$standard_base@_WV?$string_output_adapter@_W@__crt_stdio_output@@@2@@__crt_stdio_output@@CADH_N@Z 0000000180069430 f i libucrtd:output.obj
 0001:00068480       ?advance_to_next_pass@?$positional_parameter_base@DV?$stream_output_adapter@D@__crt_stdio_output@@@__crt_stdio_output@@IEAA_NXZ 0000000180069480 f i libucrtd:output.obj
 0001:00068530       ?advance_to_next_pass@?$positional_parameter_base@DV?$string_output_adapter@D@__crt_stdio_output@@@__crt_stdio_output@@IEAA_NXZ 0000000180069530 f i libucrtd:output.obj
 0001:000685e0       ?advance_to_next_pass@?$positional_parameter_base@_WV?$stream_output_adapter@_W@__crt_stdio_output@@@__crt_stdio_output@@IEAA_NXZ 00000001800695e0 f i libucrtd:output.obj
 0001:00068690       ?advance_to_next_pass@?$positional_parameter_base@_WV?$string_output_adapter@_W@__crt_stdio_output@@@__crt_stdio_output@@IEAA_NXZ 0000000180069690 f i libucrtd:output.obj
 0001:00068740       ?advance_to_next_pass@?$standard_base@DV?$stream_output_adapter@D@__crt_stdio_output@@@__crt_stdio_output@@IEAA_NXZ 0000000180069740 f i libucrtd:output.obj
 0001:00068790       ?advance_to_next_pass@?$standard_base@DV?$string_output_adapter@D@__crt_stdio_output@@@__crt_stdio_output@@IEAA_NXZ 0000000180069790 f i libucrtd:output.obj
 0001:000687e0       ?advance_to_next_pass@?$standard_base@_WV?$stream_output_adapter@_W@__crt_stdio_output@@@__crt_stdio_output@@IEAA_NXZ 00000001800697e0 f i libucrtd:output.obj
 0001:00068830       ?advance_to_next_pass@?$standard_base@_WV?$string_output_adapter@_W@__crt_stdio_output@@@__crt_stdio_output@@IEAA_NXZ 0000000180069830 f i libucrtd:output.obj
 0001:00068880       ?crop_zeroes@__crt_stdio_output@@YAXPEADQEAU__crt_locale_pointers@@@Z 0000000180069880 f i libucrtd:output.obj
 0001:000689c0       ?find_next_state@?$output_processor@DV?$stream_output_adapter@D@__crt_stdio_output@@V?$format_validation_base@DV?$stream_output_adapter@D@__crt_stdio_output@@@2@@__crt_stdio_output@@AEBA?AW4state@2@DW432@@Z 00000001800699c0 f i libucrtd:output.obj
 0001:00068a50       ?find_next_state@?$output_processor@DV?$stream_output_adapter@D@__crt_stdio_output@@V?$positional_parameter_base@DV?$stream_output_adapter@D@__crt_stdio_output@@@2@@__crt_stdio_output@@AEBA?AW4state@2@DW432@@Z 0000000180069a50 f i libucrtd:output.obj
 0001:00068ae0       ?find_next_state@?$output_processor@DV?$stream_output_adapter@D@__crt_stdio_output@@V?$standard_base@DV?$stream_output_adapter@D@__crt_stdio_output@@@2@@__crt_stdio_output@@AEBA?AW4state@2@DW432@@Z 0000000180069ae0 f i libucrtd:output.obj
 0001:00068b70       ?find_next_state@?$output_processor@DV?$string_output_adapter@D@__crt_stdio_output@@V?$format_validation_base@DV?$string_output_adapter@D@__crt_stdio_output@@@2@@__crt_stdio_output@@AEBA?AW4state@2@DW432@@Z 0000000180069b70 f i libucrtd:output.obj
 0001:00068c00       ?find_next_state@?$output_processor@DV?$string_output_adapter@D@__crt_stdio_output@@V?$positional_parameter_base@DV?$string_output_adapter@D@__crt_stdio_output@@@2@@__crt_stdio_output@@AEBA?AW4state@2@DW432@@Z 0000000180069c00 f i libucrtd:output.obj
 0001:00068c90       ?find_next_state@?$output_processor@DV?$string_output_adapter@D@__crt_stdio_output@@V?$standard_base@DV?$string_output_adapter@D@__crt_stdio_output@@@2@@__crt_stdio_output@@AEBA?AW4state@2@DW432@@Z 0000000180069c90 f i libucrtd:output.obj
 0001:00068d20       ?find_next_state@?$output_processor@_WV?$stream_output_adapter@_W@__crt_stdio_output@@V?$format_validation_base@_WV?$stream_output_adapter@_W@__crt_stdio_output@@@2@@__crt_stdio_output@@AEBA?AW4state@2@_WW432@@Z 0000000180069d20 f i libucrtd:output.obj
 0001:00068db0       ?find_next_state@?$output_processor@_WV?$stream_output_adapter@_W@__crt_stdio_output@@V?$positional_parameter_base@_WV?$stream_output_adapter@_W@__crt_stdio_output@@@2@@__crt_stdio_output@@AEBA?AW4state@2@_WW432@@Z 0000000180069db0 f i libucrtd:output.obj
 0001:00068e40       ?find_next_state@?$output_processor@_WV?$stream_output_adapter@_W@__crt_stdio_output@@V?$standard_base@_WV?$stream_output_adapter@_W@__crt_stdio_output@@@2@@__crt_stdio_output@@AEBA?AW4state@2@_WW432@@Z 0000000180069e40 f i libucrtd:output.obj
 0001:00068ed0       ?find_next_state@?$output_processor@_WV?$string_output_adapter@_W@__crt_stdio_output@@V?$format_validation_base@_WV?$string_output_adapter@_W@__crt_stdio_output@@@2@@__crt_stdio_output@@AEBA?AW4state@2@_WW432@@Z 0000000180069ed0 f i libucrtd:output.obj
 0001:00068f60       ?find_next_state@?$output_processor@_WV?$string_output_adapter@_W@__crt_stdio_output@@V?$positional_parameter_base@_WV?$string_output_adapter@_W@__crt_stdio_output@@@2@@__crt_stdio_output@@AEBA?AW4state@2@_WW432@@Z 0000000180069f60 f i libucrtd:output.obj
 0001:00068ff0       ?find_next_state@?$output_processor@_WV?$string_output_adapter@_W@__crt_stdio_output@@V?$standard_base@_WV?$string_output_adapter@_W@__crt_stdio_output@@@2@@__crt_stdio_output@@AEBA?AW4state@2@_WW432@@Z 0000000180069ff0 f i libucrtd:output.obj
 0001:00069080       ?force_decimal_point@__crt_stdio_output@@YAXPEADQEAU__crt_locale_pointers@@@Z 000000018006a080 f i libucrtd:output.obj
 0001:00069180       ?get@__crt_deferred_errno_cache@@QEAAAEAHXZ 000000018006a180 f i libucrtd:output.obj
 0001:000691b0       ?get_flags@__crt_stdio_stream@@QEBAJXZ 000000018006a1b0 f i libucrtd:output.obj
 0001:000691e0       ?get_parameter_type@?$positional_parameter_base@DV?$stream_output_adapter@D@__crt_stdio_output@@@__crt_stdio_output@@CA?AW4parameter_type@12@F@Z 000000018006a1e0 f i libucrtd:output.obj
 0001:000691f0       ?get_parameter_type@?$positional_parameter_base@DV?$stream_output_adapter@D@__crt_stdio_output@@@__crt_stdio_output@@CA?AW4parameter_type@12@G@Z 000000018006a1f0 f i libucrtd:output.obj
 0001:00069200       ?get_parameter_type@?$positional_parameter_base@DV?$stream_output_adapter@D@__crt_stdio_output@@@__crt_stdio_output@@CA?AW4parameter_type@12@H@Z 000000018006a200 f i libucrtd:output.obj
 0001:00069210       ?get_parameter_type@?$positional_parameter_base@DV?$stream_output_adapter@D@__crt_stdio_output@@@__crt_stdio_output@@CA?AW4parameter_type@12@I@Z 000000018006a210 f i libucrtd:output.obj
 0001:00069220       ?get_parameter_type@?$positional_parameter_base@DV?$stream_output_adapter@D@__crt_stdio_output@@@__crt_stdio_output@@CA?AW4parameter_type@12@U_CRT_DOUBLE@@@Z 000000018006a220 f i libucrtd:output.obj
 0001:00069230       ?get_parameter_type@?$positional_parameter_base@DV?$stream_output_adapter@D@__crt_stdio_output@@@__crt_stdio_output@@CA?AW4parameter_type@12@_J@Z 000000018006a230 f i libucrtd:output.obj
 0001:00069240       ?get_parameter_type@?$positional_parameter_base@DV?$stream_output_adapter@D@__crt_stdio_output@@@__crt_stdio_output@@CA?AW4parameter_type@12@_K@Z 000000018006a240 f i libucrtd:output.obj
 0001:00069250       ?get_parameter_type@?$positional_parameter_base@DV?$stream_output_adapter@D@__crt_stdio_output@@@__crt_stdio_output@@CA?AW4parameter_type@12@_W@Z 000000018006a250 f i libucrtd:output.obj
 0001:00069260       ?get_parameter_type@?$positional_parameter_base@DV?$string_output_adapter@D@__crt_stdio_output@@@__crt_stdio_output@@CA?AW4parameter_type@12@F@Z 000000018006a260 f i libucrtd:output.obj
 0001:00069270       ?get_parameter_type@?$positional_parameter_base@DV?$string_output_adapter@D@__crt_stdio_output@@@__crt_stdio_output@@CA?AW4parameter_type@12@G@Z 000000018006a270 f i libucrtd:output.obj
 0001:00069280       ?get_parameter_type@?$positional_parameter_base@DV?$string_output_adapter@D@__crt_stdio_output@@@__crt_stdio_output@@CA?AW4parameter_type@12@H@Z 000000018006a280 f i libucrtd:output.obj
 0001:00069290       ?get_parameter_type@?$positional_parameter_base@DV?$string_output_adapter@D@__crt_stdio_output@@@__crt_stdio_output@@CA?AW4parameter_type@12@I@Z 000000018006a290 f i libucrtd:output.obj
 0001:000692a0       ?get_parameter_type@?$positional_parameter_base@DV?$string_output_adapter@D@__crt_stdio_output@@@__crt_stdio_output@@CA?AW4parameter_type@12@U_CRT_DOUBLE@@@Z 000000018006a2a0 f i libucrtd:output.obj
 0001:000692b0       ?get_parameter_type@?$positional_parameter_base@DV?$string_output_adapter@D@__crt_stdio_output@@@__crt_stdio_output@@CA?AW4parameter_type@12@_J@Z 000000018006a2b0 f i libucrtd:output.obj
 0001:000692c0       ?get_parameter_type@?$positional_parameter_base@DV?$string_output_adapter@D@__crt_stdio_output@@@__crt_stdio_output@@CA?AW4parameter_type@12@_K@Z 000000018006a2c0 f i libucrtd:output.obj
 0001:000692d0       ?get_parameter_type@?$positional_parameter_base@DV?$string_output_adapter@D@__crt_stdio_output@@@__crt_stdio_output@@CA?AW4parameter_type@12@_W@Z 000000018006a2d0 f i libucrtd:output.obj
 0001:000692e0       ?get_parameter_type@?$positional_parameter_base@_WV?$stream_output_adapter@_W@__crt_stdio_output@@@__crt_stdio_output@@CA?AW4parameter_type@12@F@Z 000000018006a2e0 f i libucrtd:output.obj
 0001:000692f0       ?get_parameter_type@?$positional_parameter_base@_WV?$stream_output_adapter@_W@__crt_stdio_output@@@__crt_stdio_output@@CA?AW4parameter_type@12@G@Z 000000018006a2f0 f i libucrtd:output.obj
 0001:00069300       ?get_parameter_type@?$positional_parameter_base@_WV?$stream_output_adapter@_W@__crt_stdio_output@@@__crt_stdio_output@@CA?AW4parameter_type@12@H@Z 000000018006a300 f i libucrtd:output.obj
 0001:00069310       ?get_parameter_type@?$positional_parameter_base@_WV?$stream_output_adapter@_W@__crt_stdio_output@@@__crt_stdio_output@@CA?AW4parameter_type@12@I@Z 000000018006a310 f i libucrtd:output.obj
 0001:00069320       ?get_parameter_type@?$positional_parameter_base@_WV?$stream_output_adapter@_W@__crt_stdio_output@@@__crt_stdio_output@@CA?AW4parameter_type@12@U_CRT_DOUBLE@@@Z 000000018006a320 f i libucrtd:output.obj
 0001:00069330       ?get_parameter_type@?$positional_parameter_base@_WV?$stream_output_adapter@_W@__crt_stdio_output@@@__crt_stdio_output@@CA?AW4parameter_type@12@_J@Z 000000018006a330 f i libucrtd:output.obj
 0001:00069340       ?get_parameter_type@?$positional_parameter_base@_WV?$stream_output_adapter@_W@__crt_stdio_output@@@__crt_stdio_output@@CA?AW4parameter_type@12@_K@Z 000000018006a340 f i libucrtd:output.obj
 0001:00069350       ?get_parameter_type@?$positional_parameter_base@_WV?$stream_output_adapter@_W@__crt_stdio_output@@@__crt_stdio_output@@CA?AW4parameter_type@12@_W@Z 000000018006a350 f i libucrtd:output.obj
 0001:00069360       ?get_parameter_type@?$positional_parameter_base@_WV?$string_output_adapter@_W@__crt_stdio_output@@@__crt_stdio_output@@CA?AW4parameter_type@12@F@Z 000000018006a360 f i libucrtd:output.obj
 0001:00069370       ?get_parameter_type@?$positional_parameter_base@_WV?$string_output_adapter@_W@__crt_stdio_output@@@__crt_stdio_output@@CA?AW4parameter_type@12@G@Z 000000018006a370 f i libucrtd:output.obj
 0001:00069380       ?get_parameter_type@?$positional_parameter_base@_WV?$string_output_adapter@_W@__crt_stdio_output@@@__crt_stdio_output@@CA?AW4parameter_type@12@H@Z 000000018006a380 f i libucrtd:output.obj
 0001:00069390       ?get_parameter_type@?$positional_parameter_base@_WV?$string_output_adapter@_W@__crt_stdio_output@@@__crt_stdio_output@@CA?AW4parameter_type@12@I@Z 000000018006a390 f i libucrtd:output.obj
 0001:000693a0       ?get_parameter_type@?$positional_parameter_base@_WV?$string_output_adapter@_W@__crt_stdio_output@@@__crt_stdio_output@@CA?AW4parameter_type@12@U_CRT_DOUBLE@@@Z 000000018006a3a0 f i libucrtd:output.obj
 0001:000693b0       ?get_parameter_type@?$positional_parameter_base@_WV?$string_output_adapter@_W@__crt_stdio_output@@@__crt_stdio_output@@CA?AW4parameter_type@12@_J@Z 000000018006a3b0 f i libucrtd:output.obj
 0001:000693c0       ?get_parameter_type@?$positional_parameter_base@_WV?$string_output_adapter@_W@__crt_stdio_output@@@__crt_stdio_output@@CA?AW4parameter_type@12@_K@Z 000000018006a3c0 f i libucrtd:output.obj
 0001:000693d0       ?get_parameter_type@?$positional_parameter_base@_WV?$string_output_adapter@_W@__crt_stdio_output@@@__crt_stdio_output@@CA?AW4parameter_type@12@_W@Z 000000018006a3d0 f i libucrtd:output.obj
 0001:000693e0       ?has_flag@?$output_processor@DV?$stream_output_adapter@D@__crt_stdio_output@@V?$format_validation_base@DV?$stream_output_adapter@D@__crt_stdio_output@@@2@@__crt_stdio_output@@AEBA_NI@Z 000000018006a3e0 f i libucrtd:output.obj
 0001:00069420       ?has_flag@?$output_processor@DV?$stream_output_adapter@D@__crt_stdio_output@@V?$positional_parameter_base@DV?$stream_output_adapter@D@__crt_stdio_output@@@2@@__crt_stdio_output@@AEBA_NI@Z 000000018006a420 f i libucrtd:output.obj
 0001:00069460       ?has_flag@?$output_processor@DV?$stream_output_adapter@D@__crt_stdio_output@@V?$standard_base@DV?$stream_output_adapter@D@__crt_stdio_output@@@2@@__crt_stdio_output@@AEBA_NI@Z 000000018006a460 f i libucrtd:output.obj
 0001:000694a0       ?has_flag@?$output_processor@DV?$string_output_adapter@D@__crt_stdio_output@@V?$format_validation_base@DV?$string_output_adapter@D@__crt_stdio_output@@@2@@__crt_stdio_output@@AEBA_NI@Z 000000018006a4a0 f i libucrtd:output.obj
 0001:000694e0       ?has_flag@?$output_processor@DV?$string_output_adapter@D@__crt_stdio_output@@V?$positional_parameter_base@DV?$string_output_adapter@D@__crt_stdio_output@@@2@@__crt_stdio_output@@AEBA_NI@Z 000000018006a4e0 f i libucrtd:output.obj
 0001:00069520       ?has_flag@?$output_processor@DV?$string_output_adapter@D@__crt_stdio_output@@V?$standard_base@DV?$string_output_adapter@D@__crt_stdio_output@@@2@@__crt_stdio_output@@AEBA_NI@Z 000000018006a520 f i libucrtd:output.obj
 0001:00069560       ?has_flag@?$output_processor@_WV?$stream_output_adapter@_W@__crt_stdio_output@@V?$format_validation_base@_WV?$stream_output_adapter@_W@__crt_stdio_output@@@2@@__crt_stdio_output@@AEBA_NI@Z 000000018006a560 f i libucrtd:output.obj
 0001:000695a0       ?has_flag@?$output_processor@_WV?$stream_output_adapter@_W@__crt_stdio_output@@V?$positional_parameter_base@_WV?$stream_output_adapter@_W@__crt_stdio_output@@@2@@__crt_stdio_output@@AEBA_NI@Z 000000018006a5a0 f i libucrtd:output.obj
 0001:000695e0       ?has_flag@?$output_processor@_WV?$stream_output_adapter@_W@__crt_stdio_output@@V?$standard_base@_WV?$stream_output_adapter@_W@__crt_stdio_output@@@2@@__crt_stdio_output@@AEBA_NI@Z 000000018006a5e0 f i libucrtd:output.obj
 0001:00069620       ?has_flag@?$output_processor@_WV?$string_output_adapter@_W@__crt_stdio_output@@V?$format_validation_base@_WV?$string_output_adapter@_W@__crt_stdio_output@@@2@@__crt_stdio_output@@AEBA_NI@Z 000000018006a620 f i libucrtd:output.obj
 0001:00069660       ?has_flag@?$output_processor@_WV?$string_output_adapter@_W@__crt_stdio_output@@V?$positional_parameter_base@_WV?$string_output_adapter@_W@__crt_stdio_output@@@2@@__crt_stdio_output@@AEBA_NI@Z 000000018006a660 f i libucrtd:output.obj
 0001:000696a0       ?has_flag@?$output_processor@_WV?$string_output_adapter@_W@__crt_stdio_output@@V?$standard_base@_WV?$string_output_adapter@_W@__crt_stdio_output@@@2@@__crt_stdio_output@@AEBA_NI@Z 000000018006a6a0 f i libucrtd:output.obj
 0001:000696e0       ?is_positional_parameter_reappearance_consistent@?$positional_parameter_base@DV?$stream_output_adapter@D@__crt_stdio_output@@@__crt_stdio_output@@AEAA_NAEBUparameter_data@12@W4parameter_type@12@DW4length_modifier@2@@Z 000000018006a6e0 f i libucrtd:output.obj
 0001:00069940       ?is_positional_parameter_reappearance_consistent@?$positional_parameter_base@DV?$string_output_adapter@D@__crt_stdio_output@@@__crt_stdio_output@@AEAA_NAEBUparameter_data@12@W4parameter_type@12@DW4length_modifier@2@@Z 000000018006a940 f i libucrtd:output.obj
 0001:00069ba0       ?is_positional_parameter_reappearance_consistent@?$positional_parameter_base@_WV?$stream_output_adapter@_W@__crt_stdio_output@@@__crt_stdio_output@@AEAA_NAEBUparameter_data@12@W4parameter_type@12@_WW4length_modifier@2@@Z 000000018006aba0 f i libucrtd:output.obj
 0001:00069e00       ?is_positional_parameter_reappearance_consistent@?$positional_parameter_base@_WV?$string_output_adapter@_W@__crt_stdio_output@@@__crt_stdio_output@@AEAA_NAEBUparameter_data@12@W4parameter_type@12@_WW4length_modifier@2@@Z 000000018006ae00 f i libucrtd:output.obj
 0001:0006a060       ?is_string_backed@__crt_stdio_stream@@QEBA_NXZ 000000018006b060 f i libucrtd:output.obj
 0001:0006a0a0       ?narrow_null_string@?$output_processor@DV?$stream_output_adapter@D@__crt_stdio_output@@V?$format_validation_base@DV?$stream_output_adapter@D@__crt_stdio_output@@@2@@__crt_stdio_output@@CAPEADXZ 000000018006b0a0 f i libucrtd:output.obj
 0001:0006a0b0       ?narrow_null_string@?$output_processor@DV?$stream_output_adapter@D@__crt_stdio_output@@V?$positional_parameter_base@DV?$stream_output_adapter@D@__crt_stdio_output@@@2@@__crt_stdio_output@@CAPEADXZ 000000018006b0b0 f i libucrtd:output.obj
 0001:0006a0c0       ?narrow_null_string@?$output_processor@DV?$stream_output_adapter@D@__crt_stdio_output@@V?$standard_base@DV?$stream_output_adapter@D@__crt_stdio_output@@@2@@__crt_stdio_output@@CAPEADXZ 000000018006b0c0 f i libucrtd:output.obj
 0001:0006a0d0       ?narrow_null_string@?$output_processor@DV?$string_output_adapter@D@__crt_stdio_output@@V?$format_validation_base@DV?$string_output_adapter@D@__crt_stdio_output@@@2@@__crt_stdio_output@@CAPEADXZ 000000018006b0d0 f i libucrtd:output.obj
 0001:0006a0e0       ?narrow_null_string@?$output_processor@DV?$string_output_adapter@D@__crt_stdio_output@@V?$positional_parameter_base@DV?$string_output_adapter@D@__crt_stdio_output@@@2@@__crt_stdio_output@@CAPEADXZ 000000018006b0e0 f i libucrtd:output.obj
 0001:0006a0f0       ?narrow_null_string@?$output_processor@DV?$string_output_adapter@D@__crt_stdio_output@@V?$standard_base@DV?$string_output_adapter@D@__crt_stdio_output@@@2@@__crt_stdio_output@@CAPEADXZ 000000018006b0f0 f i libucrtd:output.obj
 0001:0006a100       ?narrow_null_string@?$output_processor@_WV?$stream_output_adapter@_W@__crt_stdio_output@@V?$format_validation_base@_WV?$stream_output_adapter@_W@__crt_stdio_output@@@2@@__crt_stdio_output@@CAPEADXZ 000000018006b100 f i libucrtd:output.obj
 0001:0006a110       ?narrow_null_string@?$output_processor@_WV?$stream_output_adapter@_W@__crt_stdio_output@@V?$positional_parameter_base@_WV?$stream_output_adapter@_W@__crt_stdio_output@@@2@@__crt_stdio_output@@CAPEADXZ 000000018006b110 f i libucrtd:output.obj
 0001:0006a120       ?narrow_null_string@?$output_processor@_WV?$stream_output_adapter@_W@__crt_stdio_output@@V?$standard_base@_WV?$stream_output_adapter@_W@__crt_stdio_output@@@2@@__crt_stdio_output@@CAPEADXZ 000000018006b120 f i libucrtd:output.obj
 0001:0006a130       ?narrow_null_string@?$output_processor@_WV?$string_output_adapter@_W@__crt_stdio_output@@V?$format_validation_base@_WV?$string_output_adapter@_W@__crt_stdio_output@@@2@@__crt_stdio_output@@CAPEADXZ 000000018006b130 f i libucrtd:output.obj
 0001:0006a140       ?narrow_null_string@?$output_processor@_WV?$string_output_adapter@_W@__crt_stdio_output@@V?$positional_parameter_base@_WV?$string_output_adapter@_W@__crt_stdio_output@@@2@@__crt_stdio_output@@CAPEADXZ 000000018006b140 f i libucrtd:output.obj
 0001:0006a150       ?narrow_null_string@?$output_processor@_WV?$string_output_adapter@_W@__crt_stdio_output@@V?$standard_base@_WV?$string_output_adapter@_W@__crt_stdio_output@@@2@@__crt_stdio_output@@CAPEADXZ 000000018006b150 f i libucrtd:output.obj
 0001:0006a160       ?parse_int_from_format_string@?$output_processor@DV?$stream_output_adapter@D@__crt_stdio_output@@V?$format_validation_base@DV?$stream_output_adapter@D@__crt_stdio_output@@@2@@__crt_stdio_output@@AEAA_NQEAH@Z 000000018006b160 f i libucrtd:output.obj
 0001:0006a250       ?parse_int_from_format_string@?$output_processor@DV?$stream_output_adapter@D@__crt_stdio_output@@V?$positional_parameter_base@DV?$stream_output_adapter@D@__crt_stdio_output@@@2@@__crt_stdio_output@@AEAA_NQEAH@Z 000000018006b250 f i libucrtd:output.obj
 0001:0006a340       ?parse_int_from_format_string@?$output_processor@DV?$stream_output_adapter@D@__crt_stdio_output@@V?$standard_base@DV?$stream_output_adapter@D@__crt_stdio_output@@@2@@__crt_stdio_output@@AEAA_NQEAH@Z 000000018006b340 f i libucrtd:output.obj
 0001:0006a430       ?parse_int_from_format_string@?$output_processor@DV?$string_output_adapter@D@__crt_stdio_output@@V?$format_validation_base@DV?$string_output_adapter@D@__crt_stdio_output@@@2@@__crt_stdio_output@@AEAA_NQEAH@Z 000000018006b430 f i libucrtd:output.obj
 0001:0006a520       ?parse_int_from_format_string@?$output_processor@DV?$string_output_adapter@D@__crt_stdio_output@@V?$positional_parameter_base@DV?$string_output_adapter@D@__crt_stdio_output@@@2@@__crt_stdio_output@@AEAA_NQEAH@Z 000000018006b520 f i libucrtd:output.obj
 0001:0006a610       ?parse_int_from_format_string@?$output_processor@DV?$string_output_adapter@D@__crt_stdio_output@@V?$standard_base@DV?$string_output_adapter@D@__crt_stdio_output@@@2@@__crt_stdio_output@@AEAA_NQEAH@Z 000000018006b610 f i libucrtd:output.obj
 0001:0006a700       ?parse_int_from_format_string@?$output_processor@_WV?$stream_output_adapter@_W@__crt_stdio_output@@V?$format_validation_base@_WV?$stream_output_adapter@_W@__crt_stdio_output@@@2@@__crt_stdio_output@@AEAA_NQEAH@Z 000000018006b700 f i libucrtd:output.obj
 0001:0006a7f0       ?parse_int_from_format_string@?$output_processor@_WV?$stream_output_adapter@_W@__crt_stdio_output@@V?$positional_parameter_base@_WV?$stream_output_adapter@_W@__crt_stdio_output@@@2@@__crt_stdio_output@@AEAA_NQEAH@Z 000000018006b7f0 f i libucrtd:output.obj
 0001:0006a8e0       ?parse_int_from_format_string@?$output_processor@_WV?$stream_output_adapter@_W@__crt_stdio_output@@V?$standard_base@_WV?$stream_output_adapter@_W@__crt_stdio_output@@@2@@__crt_stdio_output@@AEAA_NQEAH@Z 000000018006b8e0 f i libucrtd:output.obj
 0001:0006a9d0       ?parse_int_from_format_string@?$output_processor@_WV?$string_output_adapter@_W@__crt_stdio_output@@V?$format_validation_base@_WV?$string_output_adapter@_W@__crt_stdio_output@@@2@@__crt_stdio_output@@AEAA_NQEAH@Z 000000018006b9d0 f i libucrtd:output.obj
 0001:0006aac0       ?parse_int_from_format_string@?$output_processor@_WV?$string_output_adapter@_W@__crt_stdio_output@@V?$positional_parameter_base@_WV?$string_output_adapter@_W@__crt_stdio_output@@@2@@__crt_stdio_output@@AEAA_NQEAH@Z 000000018006bac0 f i libucrtd:output.obj
 0001:0006abb0       ?parse_int_from_format_string@?$output_processor@_WV?$string_output_adapter@_W@__crt_stdio_output@@V?$standard_base@_WV?$string_output_adapter@_W@__crt_stdio_output@@@2@@__crt_stdio_output@@AEAA_NQEAH@Z 000000018006bbb0 f i libucrtd:output.obj
 0001:0006aca0       ?process@?$output_processor@DV?$stream_output_adapter@D@__crt_stdio_output@@V?$format_validation_base@DV?$stream_output_adapter@D@__crt_stdio_output@@@2@@__crt_stdio_output@@QEAAHXZ 000000018006bca0 f i libucrtd:output.obj
 0001:0006b000       ?process@?$output_processor@DV?$stream_output_adapter@D@__crt_stdio_output@@V?$positional_parameter_base@DV?$stream_output_adapter@D@__crt_stdio_output@@@2@@__crt_stdio_output@@QEAAHXZ 000000018006c000 f i libucrtd:output.obj
 0001:0006b360       ?process@?$output_processor@DV?$stream_output_adapter@D@__crt_stdio_output@@V?$standard_base@DV?$stream_output_adapter@D@__crt_stdio_output@@@2@@__crt_stdio_output@@QEAAHXZ 000000018006c360 f i libucrtd:output.obj
 0001:0006b6c0       ?process@?$output_processor@DV?$string_output_adapter@D@__crt_stdio_output@@V?$format_validation_base@DV?$string_output_adapter@D@__crt_stdio_output@@@2@@__crt_stdio_output@@QEAAHXZ 000000018006c6c0 f i libucrtd:output.obj
 0001:0006ba20       ?process@?$output_processor@DV?$string_output_adapter@D@__crt_stdio_output@@V?$positional_parameter_base@DV?$string_output_adapter@D@__crt_stdio_output@@@2@@__crt_stdio_output@@QEAAHXZ 000000018006ca20 f i libucrtd:output.obj
 0001:0006bd80       ?process@?$output_processor@DV?$string_output_adapter@D@__crt_stdio_output@@V?$standard_base@DV?$string_output_adapter@D@__crt_stdio_output@@@2@@__crt_stdio_output@@QEAAHXZ 000000018006cd80 f i libucrtd:output.obj
 0001:0006c0e0       ?process@?$output_processor@_WV?$stream_output_adapter@_W@__crt_stdio_output@@V?$format_validation_base@_WV?$stream_output_adapter@_W@__crt_stdio_output@@@2@@__crt_stdio_output@@QEAAHXZ 000000018006d0e0 f i libucrtd:output.obj
 0001:0006c440       ?process@?$output_processor@_WV?$stream_output_adapter@_W@__crt_stdio_output@@V?$positional_parameter_base@_WV?$stream_output_adapter@_W@__crt_stdio_output@@@2@@__crt_stdio_output@@QEAAHXZ 000000018006d440 f i libucrtd:output.obj
 0001:0006c7a0       ?process@?$output_processor@_WV?$stream_output_adapter@_W@__crt_stdio_output@@V?$standard_base@_WV?$stream_output_adapter@_W@__crt_stdio_output@@@2@@__crt_stdio_output@@QEAAHXZ 000000018006d7a0 f i libucrtd:output.obj
 0001:0006cb00       ?process@?$output_processor@_WV?$string_output_adapter@_W@__crt_stdio_output@@V?$format_validation_base@_WV?$string_output_adapter@_W@__crt_stdio_output@@@2@@__crt_stdio_output@@QEAAHXZ 000000018006db00 f i libucrtd:output.obj
 0001:0006ce60       ?process@?$output_processor@_WV?$string_output_adapter@_W@__crt_stdio_output@@V?$positional_parameter_base@_WV?$string_output_adapter@_W@__crt_stdio_output@@@2@@__crt_stdio_output@@QEAAHXZ 000000018006de60 f i libucrtd:output.obj
 0001:0006d1c0       ?process@?$output_processor@_WV?$string_output_adapter@_W@__crt_stdio_output@@V?$standard_base@_WV?$string_output_adapter@_W@__crt_stdio_output@@@2@@__crt_stdio_output@@QEAAHXZ 000000018006e1c0 f i libucrtd:output.obj
 0001:0006d520       ?public_stream@__crt_stdio_stream@@QEBAPEAU_iobuf@@XZ 000000018006e520 f i libucrtd:output.obj
 0001:0006d530       ?set_flag@?$output_processor@DV?$stream_output_adapter@D@__crt_stdio_output@@V?$format_validation_base@DV?$stream_output_adapter@D@__crt_stdio_output@@@2@@__crt_stdio_output@@AEAAXI@Z 000000018006e530 f i libucrtd:output.obj
 0001:0006d550       ?set_flag@?$output_processor@DV?$stream_output_adapter@D@__crt_stdio_output@@V?$positional_parameter_base@DV?$stream_output_adapter@D@__crt_stdio_output@@@2@@__crt_stdio_output@@AEAAXI@Z 000000018006e550 f i libucrtd:output.obj
 0001:0006d570       ?set_flag@?$output_processor@DV?$stream_output_adapter@D@__crt_stdio_output@@V?$standard_base@DV?$stream_output_adapter@D@__crt_stdio_output@@@2@@__crt_stdio_output@@AEAAXI@Z 000000018006e570 f i libucrtd:output.obj
 0001:0006d590       ?set_flag@?$output_processor@DV?$string_output_adapter@D@__crt_stdio_output@@V?$format_validation_base@DV?$string_output_adapter@D@__crt_stdio_output@@@2@@__crt_stdio_output@@AEAAXI@Z 000000018006e590 f i libucrtd:output.obj
 0001:0006d5b0       ?set_flag@?$output_processor@DV?$string_output_adapter@D@__crt_stdio_output@@V?$positional_parameter_base@DV?$string_output_adapter@D@__crt_stdio_output@@@2@@__crt_stdio_output@@AEAAXI@Z 000000018006e5b0 f i libucrtd:output.obj
 0001:0006d5d0       ?set_flag@?$output_processor@DV?$string_output_adapter@D@__crt_stdio_output@@V?$standard_base@DV?$string_output_adapter@D@__crt_stdio_output@@@2@@__crt_stdio_output@@AEAAXI@Z 000000018006e5d0 f i libucrtd:output.obj
 0001:0006d5f0       ?set_flag@?$output_processor@_WV?$stream_output_adapter@_W@__crt_stdio_output@@V?$format_validation_base@_WV?$stream_output_adapter@_W@__crt_stdio_output@@@2@@__crt_stdio_output@@AEAAXI@Z 000000018006e5f0 f i libucrtd:output.obj
 0001:0006d610       ?set_flag@?$output_processor@_WV?$stream_output_adapter@_W@__crt_stdio_output@@V?$positional_parameter_base@_WV?$stream_output_adapter@_W@__crt_stdio_output@@@2@@__crt_stdio_output@@AEAAXI@Z 000000018006e610 f i libucrtd:output.obj
 0001:0006d630       ?set_flag@?$output_processor@_WV?$stream_output_adapter@_W@__crt_stdio_output@@V?$standard_base@_WV?$stream_output_adapter@_W@__crt_stdio_output@@@2@@__crt_stdio_output@@AEAAXI@Z 000000018006e630 f i libucrtd:output.obj
 0001:0006d650       ?set_flag@?$output_processor@_WV?$string_output_adapter@_W@__crt_stdio_output@@V?$format_validation_base@_WV?$string_output_adapter@_W@__crt_stdio_output@@@2@@__crt_stdio_output@@AEAAXI@Z 000000018006e650 f i libucrtd:output.obj
 0001:0006d670       ?set_flag@?$output_processor@_WV?$string_output_adapter@_W@__crt_stdio_output@@V?$positional_parameter_base@_WV?$string_output_adapter@_W@__crt_stdio_output@@@2@@__crt_stdio_output@@AEAAXI@Z 000000018006e670 f i libucrtd:output.obj
 0001:0006d690       ?set_flag@?$output_processor@_WV?$string_output_adapter@_W@__crt_stdio_output@@V?$standard_base@_WV?$string_output_adapter@_W@__crt_stdio_output@@@2@@__crt_stdio_output@@AEAAXI@Z 000000018006e690 f i libucrtd:output.obj
 0001:0006d6b0       ?should_format@?$positional_parameter_base@DV?$stream_output_adapter@D@__crt_stdio_output@@@__crt_stdio_output@@IEAA_NXZ 000000018006e6b0 f i libucrtd:output.obj
 0001:0006d6f0       ?should_format@?$positional_parameter_base@DV?$string_output_adapter@D@__crt_stdio_output@@@__crt_stdio_output@@IEAA_NXZ 000000018006e6f0 f i libucrtd:output.obj
 0001:0006d730       ?should_format@?$positional_parameter_base@_WV?$stream_output_adapter@_W@__crt_stdio_output@@@__crt_stdio_output@@IEAA_NXZ 000000018006e730 f i libucrtd:output.obj
 0001:0006d770       ?should_format@?$positional_parameter_base@_WV?$string_output_adapter@_W@__crt_stdio_output@@@__crt_stdio_output@@IEAA_NXZ 000000018006e770 f i libucrtd:output.obj
 0001:0006d7b0       ?should_format@?$standard_base@DV?$stream_output_adapter@D@__crt_stdio_output@@@__crt_stdio_output@@IEAA_NXZ 000000018006e7b0 f i libucrtd:output.obj
 0001:0006d7c0       ?should_format@?$standard_base@DV?$string_output_adapter@D@__crt_stdio_output@@@__crt_stdio_output@@IEAA_NXZ 000000018006e7c0 f i libucrtd:output.obj
 0001:0006d7d0       ?should_format@?$standard_base@_WV?$stream_output_adapter@_W@__crt_stdio_output@@@__crt_stdio_output@@IEAA_NXZ 000000018006e7d0 f i libucrtd:output.obj
 0001:0006d7e0       ?should_format@?$standard_base@_WV?$string_output_adapter@_W@__crt_stdio_output@@@__crt_stdio_output@@IEAA_NXZ 000000018006e7e0 f i libucrtd:output.obj
 0001:0006d7f0       ?should_skip_normal_state_processing@?$positional_parameter_base@DV?$stream_output_adapter@D@__crt_stdio_output@@@__crt_stdio_output@@IEAA_NXZ 000000018006e7f0 f i libucrtd:output.obj
 0001:0006d840       ?should_skip_normal_state_processing@?$positional_parameter_base@DV?$string_output_adapter@D@__crt_stdio_output@@@__crt_stdio_output@@IEAA_NXZ 000000018006e840 f i libucrtd:output.obj
 0001:0006d890       ?should_skip_normal_state_processing@?$positional_parameter_base@_WV?$stream_output_adapter@_W@__crt_stdio_output@@@__crt_stdio_output@@IEAA_NXZ 000000018006e890 f i libucrtd:output.obj
 0001:0006d8e0       ?should_skip_normal_state_processing@?$positional_parameter_base@_WV?$string_output_adapter@_W@__crt_stdio_output@@@__crt_stdio_output@@IEAA_NXZ 000000018006e8e0 f i libucrtd:output.obj
 0001:0006d930       ?should_skip_normal_state_processing@?$standard_base@DV?$stream_output_adapter@D@__crt_stdio_output@@@__crt_stdio_output@@IEAA_NXZ 000000018006e930 f i libucrtd:output.obj
 0001:0006d940       ?should_skip_normal_state_processing@?$standard_base@DV?$string_output_adapter@D@__crt_stdio_output@@@__crt_stdio_output@@IEAA_NXZ 000000018006e940 f i libucrtd:output.obj
 0001:0006d950       ?should_skip_normal_state_processing@?$standard_base@_WV?$stream_output_adapter@_W@__crt_stdio_output@@@__crt_stdio_output@@IEAA_NXZ 000000018006e950 f i libucrtd:output.obj
 0001:0006d960       ?should_skip_normal_state_processing@?$standard_base@_WV?$string_output_adapter@_W@__crt_stdio_output@@@__crt_stdio_output@@IEAA_NXZ 000000018006e960 f i libucrtd:output.obj
 0001:0006d970       ?should_skip_type_state_output@?$positional_parameter_base@DV?$stream_output_adapter@D@__crt_stdio_output@@@__crt_stdio_output@@IEBA_NXZ 000000018006e970 f i libucrtd:output.obj
 0001:0006d9b0       ?should_skip_type_state_output@?$positional_parameter_base@DV?$string_output_adapter@D@__crt_stdio_output@@@__crt_stdio_output@@IEBA_NXZ 000000018006e9b0 f i libucrtd:output.obj
 0001:0006d9f0       ?should_skip_type_state_output@?$positional_parameter_base@_WV?$stream_output_adapter@_W@__crt_stdio_output@@@__crt_stdio_output@@IEBA_NXZ 000000018006e9f0 f i libucrtd:output.obj
 0001:0006da30       ?should_skip_type_state_output@?$positional_parameter_base@_WV?$string_output_adapter@_W@__crt_stdio_output@@@__crt_stdio_output@@IEBA_NXZ 000000018006ea30 f i libucrtd:output.obj
 0001:0006da70       ?should_skip_type_state_output@?$standard_base@DV?$stream_output_adapter@D@__crt_stdio_output@@@__crt_stdio_output@@IEBA_NXZ 000000018006ea70 f i libucrtd:output.obj
 0001:0006da80       ?should_skip_type_state_output@?$standard_base@DV?$string_output_adapter@D@__crt_stdio_output@@@__crt_stdio_output@@IEBA_NXZ 000000018006ea80 f i libucrtd:output.obj
 0001:0006da90       ?should_skip_type_state_output@?$standard_base@_WV?$stream_output_adapter@_W@__crt_stdio_output@@@__crt_stdio_output@@IEBA_NXZ 000000018006ea90 f i libucrtd:output.obj
 0001:0006daa0       ?should_skip_type_state_output@?$standard_base@_WV?$string_output_adapter@_W@__crt_stdio_output@@@__crt_stdio_output@@IEBA_NXZ 000000018006eaa0 f i libucrtd:output.obj
 0001:0006dab0       ?state_case_dot@?$output_processor@DV?$stream_output_adapter@D@__crt_stdio_output@@V?$format_validation_base@DV?$stream_output_adapter@D@__crt_stdio_output@@@2@@__crt_stdio_output@@AEAA_NXZ 000000018006eab0 f i libucrtd:output.obj
 0001:0006dad0       ?state_case_dot@?$output_processor@DV?$stream_output_adapter@D@__crt_stdio_output@@V?$positional_parameter_base@DV?$stream_output_adapter@D@__crt_stdio_output@@@2@@__crt_stdio_output@@AEAA_NXZ 000000018006ead0 f i libucrtd:output.obj
 0001:0006daf0       ?state_case_dot@?$output_processor@DV?$stream_output_adapter@D@__crt_stdio_output@@V?$standard_base@DV?$stream_output_adapter@D@__crt_stdio_output@@@2@@__crt_stdio_output@@AEAA_NXZ 000000018006eaf0 f i libucrtd:output.obj
 0001:0006db10       ?state_case_dot@?$output_processor@DV?$string_output_adapter@D@__crt_stdio_output@@V?$format_validation_base@DV?$string_output_adapter@D@__crt_stdio_output@@@2@@__crt_stdio_output@@AEAA_NXZ 000000018006eb10 f i libucrtd:output.obj
 0001:0006db30       ?state_case_dot@?$output_processor@DV?$string_output_adapter@D@__crt_stdio_output@@V?$positional_parameter_base@DV?$string_output_adapter@D@__crt_stdio_output@@@2@@__crt_stdio_output@@AEAA_NXZ 000000018006eb30 f i libucrtd:output.obj
 0001:0006db50       ?state_case_dot@?$output_processor@DV?$string_output_adapter@D@__crt_stdio_output@@V?$standard_base@DV?$string_output_adapter@D@__crt_stdio_output@@@2@@__crt_stdio_output@@AEAA_NXZ 000000018006eb50 f i libucrtd:output.obj
 0001:0006db70       ?state_case_dot@?$output_processor@_WV?$stream_output_adapter@_W@__crt_stdio_output@@V?$format_validation_base@_WV?$stream_output_adapter@_W@__crt_stdio_output@@@2@@__crt_stdio_output@@AEAA_NXZ 000000018006eb70 f i libucrtd:output.obj
 0001:0006db90       ?state_case_dot@?$output_processor@_WV?$stream_output_adapter@_W@__crt_stdio_output@@V?$positional_parameter_base@_WV?$stream_output_adapter@_W@__crt_stdio_output@@@2@@__crt_stdio_output@@AEAA_NXZ 000000018006eb90 f i libucrtd:output.obj
 0001:0006dbb0       ?state_case_dot@?$output_processor@_WV?$stream_output_adapter@_W@__crt_stdio_output@@V?$standard_base@_WV?$stream_output_adapter@_W@__crt_stdio_output@@@2@@__crt_stdio_output@@AEAA_NXZ 000000018006ebb0 f i libucrtd:output.obj
 0001:0006dbd0       ?state_case_dot@?$output_processor@_WV?$string_output_adapter@_W@__crt_stdio_output@@V?$format_validation_base@_WV?$string_output_adapter@_W@__crt_stdio_output@@@2@@__crt_stdio_output@@AEAA_NXZ 000000018006ebd0 f i libucrtd:output.obj
 0001:0006dbf0       ?state_case_dot@?$output_processor@_WV?$string_output_adapter@_W@__crt_stdio_output@@V?$positional_parameter_base@_WV?$string_output_adapter@_W@__crt_stdio_output@@@2@@__crt_stdio_output@@AEAA_NXZ 000000018006ebf0 f i libucrtd:output.obj
 0001:0006dc10       ?state_case_dot@?$output_processor@_WV?$string_output_adapter@_W@__crt_stdio_output@@V?$standard_base@_WV?$string_output_adapter@_W@__crt_stdio_output@@@2@@__crt_stdio_output@@AEAA_NXZ 000000018006ec10 f i libucrtd:output.obj
 0001:0006dc30       ?state_case_flag@?$output_processor@DV?$stream_output_adapter@D@__crt_stdio_output@@V?$format_validation_base@DV?$stream_output_adapter@D@__crt_stdio_output@@@2@@__crt_stdio_output@@AEAA_NXZ 000000018006ec30 f i libucrtd:output.obj
 0001:0006dcd0       ?state_case_flag@?$output_processor@DV?$stream_output_adapter@D@__crt_stdio_output@@V?$positional_parameter_base@DV?$stream_output_adapter@D@__crt_stdio_output@@@2@@__crt_stdio_output@@AEAA_NXZ 000000018006ecd0 f i libucrtd:output.obj
 0001:0006dd70       ?state_case_flag@?$output_processor@DV?$stream_output_adapter@D@__crt_stdio_output@@V?$standard_base@DV?$stream_output_adapter@D@__crt_stdio_output@@@2@@__crt_stdio_output@@AEAA_NXZ 000000018006ed70 f i libucrtd:output.obj
 0001:0006de10       ?state_case_flag@?$output_processor@DV?$string_output_adapter@D@__crt_stdio_output@@V?$format_validation_base@DV?$string_output_adapter@D@__crt_stdio_output@@@2@@__crt_stdio_output@@AEAA_NXZ 000000018006ee10 f i libucrtd:output.obj
 0001:0006deb0       ?state_case_flag@?$output_processor@DV?$string_output_adapter@D@__crt_stdio_output@@V?$positional_parameter_base@DV?$string_output_adapter@D@__crt_stdio_output@@@2@@__crt_stdio_output@@AEAA_NXZ 000000018006eeb0 f i libucrtd:output.obj
 0001:0006df50       ?state_case_flag@?$output_processor@DV?$string_output_adapter@D@__crt_stdio_output@@V?$standard_base@DV?$string_output_adapter@D@__crt_stdio_output@@@2@@__crt_stdio_output@@AEAA_NXZ 000000018006ef50 f i libucrtd:output.obj
 0001:0006dff0       ?state_case_flag@?$output_processor@_WV?$stream_output_adapter@_W@__crt_stdio_output@@V?$format_validation_base@_WV?$stream_output_adapter@_W@__crt_stdio_output@@@2@@__crt_stdio_output@@AEAA_NXZ 000000018006eff0 f i libucrtd:output.obj
 0001:0006e090       ?state_case_flag@?$output_processor@_WV?$stream_output_adapter@_W@__crt_stdio_output@@V?$positional_parameter_base@_WV?$stream_output_adapter@_W@__crt_stdio_output@@@2@@__crt_stdio_output@@AEAA_NXZ 000000018006f090 f i libucrtd:output.obj
 0001:0006e130       ?state_case_flag@?$output_processor@_WV?$stream_output_adapter@_W@__crt_stdio_output@@V?$standard_base@_WV?$stream_output_adapter@_W@__crt_stdio_output@@@2@@__crt_stdio_output@@AEAA_NXZ 000000018006f130 f i libucrtd:output.obj
 0001:0006e1d0       ?state_case_flag@?$output_processor@_WV?$string_output_adapter@_W@__crt_stdio_output@@V?$format_validation_base@_WV?$string_output_adapter@_W@__crt_stdio_output@@@2@@__crt_stdio_output@@AEAA_NXZ 000000018006f1d0 f i libucrtd:output.obj
 0001:0006e270       ?state_case_flag@?$output_processor@_WV?$string_output_adapter@_W@__crt_stdio_output@@V?$positional_parameter_base@_WV?$string_output_adapter@_W@__crt_stdio_output@@@2@@__crt_stdio_output@@AEAA_NXZ 000000018006f270 f i libucrtd:output.obj
 0001:0006e310       ?state_case_flag@?$output_processor@_WV?$string_output_adapter@_W@__crt_stdio_output@@V?$standard_base@_WV?$string_output_adapter@_W@__crt_stdio_output@@@2@@__crt_stdio_output@@AEAA_NXZ 000000018006f310 f i libucrtd:output.obj
 0001:0006e3b0       ?state_case_normal@?$output_processor@DV?$stream_output_adapter@D@__crt_stdio_output@@V?$format_validation_base@DV?$stream_output_adapter@D@__crt_stdio_output@@@2@@__crt_stdio_output@@AEAA_NXZ 000000018006f3b0 f i libucrtd:output.obj
 0001:0006e490       ?state_case_normal@?$output_processor@DV?$stream_output_adapter@D@__crt_stdio_output@@V?$positional_parameter_base@DV?$stream_output_adapter@D@__crt_stdio_output@@@2@@__crt_stdio_output@@AEAA_NXZ 000000018006f490 f i libucrtd:output.obj
 0001:0006e570       ?state_case_normal@?$output_processor@DV?$stream_output_adapter@D@__crt_stdio_output@@V?$standard_base@DV?$stream_output_adapter@D@__crt_stdio_output@@@2@@__crt_stdio_output@@AEAA_NXZ 000000018006f570 f i libucrtd:output.obj
 0001:0006e650       ?state_case_normal@?$output_processor@DV?$string_output_adapter@D@__crt_stdio_output@@V?$format_validation_base@DV?$string_output_adapter@D@__crt_stdio_output@@@2@@__crt_stdio_output@@AEAA_NXZ 000000018006f650 f i libucrtd:output.obj
 0001:0006e730       ?state_case_normal@?$output_processor@DV?$string_output_adapter@D@__crt_stdio_output@@V?$positional_parameter_base@DV?$string_output_adapter@D@__crt_stdio_output@@@2@@__crt_stdio_output@@AEAA_NXZ 000000018006f730 f i libucrtd:output.obj
 0001:0006e810       ?state_case_normal@?$output_processor@DV?$string_output_adapter@D@__crt_stdio_output@@V?$standard_base@DV?$string_output_adapter@D@__crt_stdio_output@@@2@@__crt_stdio_output@@AEAA_NXZ 000000018006f810 f i libucrtd:output.obj
 0001:0006e8f0       ?state_case_normal@?$output_processor@_WV?$stream_output_adapter@_W@__crt_stdio_output@@V?$format_validation_base@_WV?$stream_output_adapter@_W@__crt_stdio_output@@@2@@__crt_stdio_output@@AEAA_NXZ 000000018006f8f0 f i libucrtd:output.obj
 0001:0006e9d0       ?state_case_normal@?$output_processor@_WV?$stream_output_adapter@_W@__crt_stdio_output@@V?$positional_parameter_base@_WV?$stream_output_adapter@_W@__crt_stdio_output@@@2@@__crt_stdio_output@@AEAA_NXZ 000000018006f9d0 f i libucrtd:output.obj
 0001:0006eab0       ?state_case_normal@?$output_processor@_WV?$stream_output_adapter@_W@__crt_stdio_output@@V?$standard_base@_WV?$stream_output_adapter@_W@__crt_stdio_output@@@2@@__crt_stdio_output@@AEAA_NXZ 000000018006fab0 f i libucrtd:output.obj
 0001:0006eb90       ?state_case_normal@?$output_processor@_WV?$string_output_adapter@_W@__crt_stdio_output@@V?$format_validation_base@_WV?$string_output_adapter@_W@__crt_stdio_output@@@2@@__crt_stdio_output@@AEAA_NXZ 000000018006fb90 f i libucrtd:output.obj
 0001:0006ec70       ?state_case_normal@?$output_processor@_WV?$string_output_adapter@_W@__crt_stdio_output@@V?$positional_parameter_base@_WV?$string_output_adapter@_W@__crt_stdio_output@@@2@@__crt_stdio_output@@AEAA_NXZ 000000018006fc70 f i libucrtd:output.obj
 0001:0006ed50       ?state_case_normal@?$output_processor@_WV?$string_output_adapter@_W@__crt_stdio_output@@V?$standard_base@_WV?$string_output_adapter@_W@__crt_stdio_output@@@2@@__crt_stdio_output@@AEAA_NXZ 000000018006fd50 f i libucrtd:output.obj
 0001:0006ee30       ?state_case_normal_common@?$output_processor@DV?$stream_output_adapter@D@__crt_stdio_output@@V?$format_validation_base@DV?$stream_output_adapter@D@__crt_stdio_output@@@2@@__crt_stdio_output@@AEAA_NXZ 000000018006fe30 f i libucrtd:output.obj
 0001:0006ee80       ?state_case_normal_common@?$output_processor@DV?$stream_output_adapter@D@__crt_stdio_output@@V?$positional_parameter_base@DV?$stream_output_adapter@D@__crt_stdio_output@@@2@@__crt_stdio_output@@AEAA_NXZ 000000018006fe80 f i libucrtd:output.obj
 0001:0006eed0       ?state_case_normal_common@?$output_processor@DV?$stream_output_adapter@D@__crt_stdio_output@@V?$standard_base@DV?$stream_output_adapter@D@__crt_stdio_output@@@2@@__crt_stdio_output@@AEAA_NXZ 000000018006fed0 f i libucrtd:output.obj
 0001:0006ef20       ?state_case_normal_common@?$output_processor@DV?$string_output_adapter@D@__crt_stdio_output@@V?$format_validation_base@DV?$string_output_adapter@D@__crt_stdio_output@@@2@@__crt_stdio_output@@AEAA_NXZ 000000018006ff20 f i libucrtd:output.obj
 0001:0006ef70       ?state_case_normal_common@?$output_processor@DV?$string_output_adapter@D@__crt_stdio_output@@V?$positional_parameter_base@DV?$string_output_adapter@D@__crt_stdio_output@@@2@@__crt_stdio_output@@AEAA_NXZ 000000018006ff70 f i libucrtd:output.obj
 0001:0006efc0       ?state_case_normal_common@?$output_processor@DV?$string_output_adapter@D@__crt_stdio_output@@V?$standard_base@DV?$string_output_adapter@D@__crt_stdio_output@@@2@@__crt_stdio_output@@AEAA_NXZ 000000018006ffc0 f i libucrtd:output.obj
 0001:0006f010       ?state_case_normal_common@?$output_processor@_WV?$stream_output_adapter@_W@__crt_stdio_output@@V?$format_validation_base@_WV?$stream_output_adapter@_W@__crt_stdio_output@@@2@@__crt_stdio_output@@AEAA_NXZ 0000000180070010 f i libucrtd:output.obj
 0001:0006f060       ?state_case_normal_common@?$output_processor@_WV?$stream_output_adapter@_W@__crt_stdio_output@@V?$positional_parameter_base@_WV?$stream_output_adapter@_W@__crt_stdio_output@@@2@@__crt_stdio_output@@AEAA_NXZ 0000000180070060 f i libucrtd:output.obj
 0001:0006f0b0       ?state_case_normal_common@?$output_processor@_WV?$stream_output_adapter@_W@__crt_stdio_output@@V?$standard_base@_WV?$stream_output_adapter@_W@__crt_stdio_output@@@2@@__crt_stdio_output@@AEAA_NXZ 00000001800700b0 f i libucrtd:output.obj
 0001:0006f100       ?state_case_normal_common@?$output_processor@_WV?$string_output_adapter@_W@__crt_stdio_output@@V?$format_validation_base@_WV?$string_output_adapter@_W@__crt_stdio_output@@@2@@__crt_stdio_output@@AEAA_NXZ 0000000180070100 f i libucrtd:output.obj
 0001:0006f150       ?state_case_normal_common@?$output_processor@_WV?$string_output_adapter@_W@__crt_stdio_output@@V?$positional_parameter_base@_WV?$string_output_adapter@_W@__crt_stdio_output@@@2@@__crt_stdio_output@@AEAA_NXZ 0000000180070150 f i libucrtd:output.obj
 0001:0006f1a0       ?state_case_normal_common@?$output_processor@_WV?$string_output_adapter@_W@__crt_stdio_output@@V?$standard_base@_WV?$string_output_adapter@_W@__crt_stdio_output@@@2@@__crt_stdio_output@@AEAA_NXZ 00000001800701a0 f i libucrtd:output.obj
 0001:0006f1f0       ?state_case_normal_tchar@?$output_processor@DV?$stream_output_adapter@D@__crt_stdio_output@@V?$format_validation_base@DV?$stream_output_adapter@D@__crt_stdio_output@@@2@@__crt_stdio_output@@AEAA_ND@Z 00000001800701f0 f i libucrtd:output.obj
 0001:0006f330       ?state_case_normal_tchar@?$output_processor@DV?$stream_output_adapter@D@__crt_stdio_output@@V?$positional_parameter_base@DV?$stream_output_adapter@D@__crt_stdio_output@@@2@@__crt_stdio_output@@AEAA_ND@Z 0000000180070330 f i libucrtd:output.obj
 0001:0006f470       ?state_case_normal_tchar@?$output_processor@DV?$stream_output_adapter@D@__crt_stdio_output@@V?$standard_base@DV?$stream_output_adapter@D@__crt_stdio_output@@@2@@__crt_stdio_output@@AEAA_ND@Z 0000000180070470 f i libucrtd:output.obj
 0001:0006f5b0       ?state_case_normal_tchar@?$output_processor@DV?$string_output_adapter@D@__crt_stdio_output@@V?$format_validation_base@DV?$string_output_adapter@D@__crt_stdio_output@@@2@@__crt_stdio_output@@AEAA_ND@Z 00000001800705b0 f i libucrtd:output.obj
 0001:0006f6f0       ?state_case_normal_tchar@?$output_processor@DV?$string_output_adapter@D@__crt_stdio_output@@V?$positional_parameter_base@DV?$string_output_adapter@D@__crt_stdio_output@@@2@@__crt_stdio_output@@AEAA_ND@Z 00000001800706f0 f i libucrtd:output.obj
 0001:0006f830       ?state_case_normal_tchar@?$output_processor@DV?$string_output_adapter@D@__crt_stdio_output@@V?$standard_base@DV?$string_output_adapter@D@__crt_stdio_output@@@2@@__crt_stdio_output@@AEAA_ND@Z 0000000180070830 f i libucrtd:output.obj
 0001:0006f970       ?state_case_normal_tchar@?$output_processor@_WV?$stream_output_adapter@_W@__crt_stdio_output@@V?$format_validation_base@_WV?$stream_output_adapter@_W@__crt_stdio_output@@@2@@__crt_stdio_output@@AEAA_N_W@Z 0000000180070970 f i libucrtd:output.obj
 0001:0006f990       ?state_case_normal_tchar@?$output_processor@_WV?$stream_output_adapter@_W@__crt_stdio_output@@V?$positional_parameter_base@_WV?$stream_output_adapter@_W@__crt_stdio_output@@@2@@__crt_stdio_output@@AEAA_N_W@Z 0000000180070990 f i libucrtd:output.obj
 0001:0006f9b0       ?state_case_normal_tchar@?$output_processor@_WV?$stream_output_adapter@_W@__crt_stdio_output@@V?$standard_base@_WV?$stream_output_adapter@_W@__crt_stdio_output@@@2@@__crt_stdio_output@@AEAA_N_W@Z 00000001800709b0 f i libucrtd:output.obj
 0001:0006f9d0       ?state_case_normal_tchar@?$output_processor@_WV?$string_output_adapter@_W@__crt_stdio_output@@V?$format_validation_base@_WV?$string_output_adapter@_W@__crt_stdio_output@@@2@@__crt_stdio_output@@AEAA_N_W@Z 00000001800709d0 f i libucrtd:output.obj
 0001:0006f9f0       ?state_case_normal_tchar@?$output_processor@_WV?$string_output_adapter@_W@__crt_stdio_output@@V?$positional_parameter_base@_WV?$string_output_adapter@_W@__crt_stdio_output@@@2@@__crt_stdio_output@@AEAA_N_W@Z 00000001800709f0 f i libucrtd:output.obj
 0001:0006fa10       ?state_case_normal_tchar@?$output_processor@_WV?$string_output_adapter@_W@__crt_stdio_output@@V?$standard_base@_WV?$string_output_adapter@_W@__crt_stdio_output@@@2@@__crt_stdio_output@@AEAA_N_W@Z 0000000180070a10 f i libucrtd:output.obj
 0001:0006fa30       ?state_case_percent@?$output_processor@DV?$stream_output_adapter@D@__crt_stdio_output@@V?$format_validation_base@DV?$stream_output_adapter@D@__crt_stdio_output@@@2@@__crt_stdio_output@@AEAA_NXZ 0000000180070a30 f i libucrtd:output.obj
 0001:0006fa80       ?state_case_percent@?$output_processor@DV?$stream_output_adapter@D@__crt_stdio_output@@V?$positional_parameter_base@DV?$stream_output_adapter@D@__crt_stdio_output@@@2@@__crt_stdio_output@@AEAA_NXZ 0000000180070a80 f i libucrtd:output.obj
 0001:0006fad0       ?state_case_percent@?$output_processor@DV?$stream_output_adapter@D@__crt_stdio_output@@V?$standard_base@DV?$stream_output_adapter@D@__crt_stdio_output@@@2@@__crt_stdio_output@@AEAA_NXZ 0000000180070ad0 f i libucrtd:output.obj
 0001:0006fb20       ?state_case_percent@?$output_processor@DV?$string_output_adapter@D@__crt_stdio_output@@V?$format_validation_base@DV?$string_output_adapter@D@__crt_stdio_output@@@2@@__crt_stdio_output@@AEAA_NXZ 0000000180070b20 f i libucrtd:output.obj
 0001:0006fb70       ?state_case_percent@?$output_processor@DV?$string_output_adapter@D@__crt_stdio_output@@V?$positional_parameter_base@DV?$string_output_adapter@D@__crt_stdio_output@@@2@@__crt_stdio_output@@AEAA_NXZ 0000000180070b70 f i libucrtd:output.obj
 0001:0006fbc0       ?state_case_percent@?$output_processor@DV?$string_output_adapter@D@__crt_stdio_output@@V?$standard_base@DV?$string_output_adapter@D@__crt_stdio_output@@@2@@__crt_stdio_output@@AEAA_NXZ 0000000180070bc0 f i libucrtd:output.obj
 0001:0006fc10       ?state_case_percent@?$output_processor@_WV?$stream_output_adapter@_W@__crt_stdio_output@@V?$format_validation_base@_WV?$stream_output_adapter@_W@__crt_stdio_output@@@2@@__crt_stdio_output@@AEAA_NXZ 0000000180070c10 f i libucrtd:output.obj
 0001:0006fc60       ?state_case_percent@?$output_processor@_WV?$stream_output_adapter@_W@__crt_stdio_output@@V?$positional_parameter_base@_WV?$stream_output_adapter@_W@__crt_stdio_output@@@2@@__crt_stdio_output@@AEAA_NXZ 0000000180070c60 f i libucrtd:output.obj
 0001:0006fcb0       ?state_case_percent@?$output_processor@_WV?$stream_output_adapter@_W@__crt_stdio_output@@V?$standard_base@_WV?$stream_output_adapter@_W@__crt_stdio_output@@@2@@__crt_stdio_output@@AEAA_NXZ 0000000180070cb0 f i libucrtd:output.obj
 0001:0006fd00       ?state_case_percent@?$output_processor@_WV?$string_output_adapter@_W@__crt_stdio_output@@V?$format_validation_base@_WV?$string_output_adapter@_W@__crt_stdio_output@@@2@@__crt_stdio_output@@AEAA_NXZ 0000000180070d00 f i libucrtd:output.obj
 0001:0006fd50       ?state_case_percent@?$output_processor@_WV?$string_output_adapter@_W@__crt_stdio_output@@V?$positional_parameter_base@_WV?$string_output_adapter@_W@__crt_stdio_output@@@2@@__crt_stdio_output@@AEAA_NXZ 0000000180070d50 f i libucrtd:output.obj
 0001:0006fda0       ?state_case_percent@?$output_processor@_WV?$string_output_adapter@_W@__crt_stdio_output@@V?$standard_base@_WV?$string_output_adapter@_W@__crt_stdio_output@@@2@@__crt_stdio_output@@AEAA_NXZ 0000000180070da0 f i libucrtd:output.obj
 0001:0006fdf0       ?state_case_precision@?$output_processor@DV?$stream_output_adapter@D@__crt_stdio_output@@V?$format_validation_base@DV?$stream_output_adapter@D@__crt_stdio_output@@@2@@__crt_stdio_output@@AEAA_NXZ 0000000180070df0 f i libucrtd:output.obj
 0001:0006fe70       ?state_case_precision@?$output_processor@DV?$stream_output_adapter@D@__crt_stdio_output@@V?$positional_parameter_base@DV?$stream_output_adapter@D@__crt_stdio_output@@@2@@__crt_stdio_output@@AEAA_NXZ 0000000180070e70 f i libucrtd:output.obj
 0001:0006fef0       ?state_case_precision@?$output_processor@DV?$stream_output_adapter@D@__crt_stdio_output@@V?$standard_base@DV?$stream_output_adapter@D@__crt_stdio_output@@@2@@__crt_stdio_output@@AEAA_NXZ 0000000180070ef0 f i libucrtd:output.obj
 0001:0006ff70       ?state_case_precision@?$output_processor@DV?$string_output_adapter@D@__crt_stdio_output@@V?$format_validation_base@DV?$string_output_adapter@D@__crt_stdio_output@@@2@@__crt_stdio_output@@AEAA_NXZ 0000000180070f70 f i libucrtd:output.obj
 0001:0006fff0       ?state_case_precision@?$output_processor@DV?$string_output_adapter@D@__crt_stdio_output@@V?$positional_parameter_base@DV?$string_output_adapter@D@__crt_stdio_output@@@2@@__crt_stdio_output@@AEAA_NXZ 0000000180070ff0 f i libucrtd:output.obj
 0001:00070070       ?state_case_precision@?$output_processor@DV?$string_output_adapter@D@__crt_stdio_output@@V?$standard_base@DV?$string_output_adapter@D@__crt_stdio_output@@@2@@__crt_stdio_output@@AEAA_NXZ 0000000180071070 f i libucrtd:output.obj
 0001:000700f0       ?state_case_precision@?$output_processor@_WV?$stream_output_adapter@_W@__crt_stdio_output@@V?$format_validation_base@_WV?$stream_output_adapter@_W@__crt_stdio_output@@@2@@__crt_stdio_output@@AEAA_NXZ 00000001800710f0 f i libucrtd:output.obj
 0001:00070170       ?state_case_precision@?$output_processor@_WV?$stream_output_adapter@_W@__crt_stdio_output@@V?$positional_parameter_base@_WV?$stream_output_adapter@_W@__crt_stdio_output@@@2@@__crt_stdio_output@@AEAA_NXZ 0000000180071170 f i libucrtd:output.obj
 0001:000701f0       ?state_case_precision@?$output_processor@_WV?$stream_output_adapter@_W@__crt_stdio_output@@V?$standard_base@_WV?$stream_output_adapter@_W@__crt_stdio_output@@@2@@__crt_stdio_output@@AEAA_NXZ 00000001800711f0 f i libucrtd:output.obj
 0001:00070270       ?state_case_precision@?$output_processor@_WV?$string_output_adapter@_W@__crt_stdio_output@@V?$format_validation_base@_WV?$string_output_adapter@_W@__crt_stdio_output@@@2@@__crt_stdio_output@@AEAA_NXZ 0000000180071270 f i libucrtd:output.obj
 0001:000702f0       ?state_case_precision@?$output_processor@_WV?$string_output_adapter@_W@__crt_stdio_output@@V?$positional_parameter_base@_WV?$string_output_adapter@_W@__crt_stdio_output@@@2@@__crt_stdio_output@@AEAA_NXZ 00000001800712f0 f i libucrtd:output.obj
 0001:00070370       ?state_case_precision@?$output_processor@_WV?$string_output_adapter@_W@__crt_stdio_output@@V?$standard_base@_WV?$string_output_adapter@_W@__crt_stdio_output@@@2@@__crt_stdio_output@@AEAA_NXZ 0000000180071370 f i libucrtd:output.obj
 0001:000703f0       ?state_case_size@?$output_processor@DV?$stream_output_adapter@D@__crt_stdio_output@@V?$format_validation_base@DV?$stream_output_adapter@D@__crt_stdio_output@@@2@@__crt_stdio_output@@AEAA_NXZ 00000001800713f0 f i libucrtd:output.obj
 0001:00070870       ?state_case_size@?$output_processor@DV?$stream_output_adapter@D@__crt_stdio_output@@V?$positional_parameter_base@DV?$stream_output_adapter@D@__crt_stdio_output@@@2@@__crt_stdio_output@@AEAA_NXZ 0000000180071870 f i libucrtd:output.obj
 0001:00070cf0       ?state_case_size@?$output_processor@DV?$stream_output_adapter@D@__crt_stdio_output@@V?$standard_base@DV?$stream_output_adapter@D@__crt_stdio_output@@@2@@__crt_stdio_output@@AEAA_NXZ 0000000180071cf0 f i libucrtd:output.obj
 0001:00071170       ?state_case_size@?$output_processor@DV?$string_output_adapter@D@__crt_stdio_output@@V?$format_validation_base@DV?$string_output_adapter@D@__crt_stdio_output@@@2@@__crt_stdio_output@@AEAA_NXZ 0000000180072170 f i libucrtd:output.obj
 0001:000715f0       ?state_case_size@?$output_processor@DV?$string_output_adapter@D@__crt_stdio_output@@V?$positional_parameter_base@DV?$string_output_adapter@D@__crt_stdio_output@@@2@@__crt_stdio_output@@AEAA_NXZ 00000001800725f0 f i libucrtd:output.obj
 0001:00071a70       ?state_case_size@?$output_processor@DV?$string_output_adapter@D@__crt_stdio_output@@V?$standard_base@DV?$string_output_adapter@D@__crt_stdio_output@@@2@@__crt_stdio_output@@AEAA_NXZ 0000000180072a70 f i libucrtd:output.obj
 0001:00071ef0       ?state_case_size@?$output_processor@_WV?$stream_output_adapter@_W@__crt_stdio_output@@V?$format_validation_base@_WV?$stream_output_adapter@_W@__crt_stdio_output@@@2@@__crt_stdio_output@@AEAA_NXZ 0000000180072ef0 f i libucrtd:output.obj
 0001:00072370       ?state_case_size@?$output_processor@_WV?$stream_output_adapter@_W@__crt_stdio_output@@V?$positional_parameter_base@_WV?$stream_output_adapter@_W@__crt_stdio_output@@@2@@__crt_stdio_output@@AEAA_NXZ 0000000180073370 f i libucrtd:output.obj
 0001:000727f0       ?state_case_size@?$output_processor@_WV?$stream_output_adapter@_W@__crt_stdio_output@@V?$standard_base@_WV?$stream_output_adapter@_W@__crt_stdio_output@@@2@@__crt_stdio_output@@AEAA_NXZ 00000001800737f0 f i libucrtd:output.obj
 0001:00072c70       ?state_case_size@?$output_processor@_WV?$string_output_adapter@_W@__crt_stdio_output@@V?$format_validation_base@_WV?$string_output_adapter@_W@__crt_stdio_output@@@2@@__crt_stdio_output@@AEAA_NXZ 0000000180073c70 f i libucrtd:output.obj
 0001:000730f0       ?state_case_size@?$output_processor@_WV?$string_output_adapter@_W@__crt_stdio_output@@V?$positional_parameter_base@_WV?$string_output_adapter@_W@__crt_stdio_output@@@2@@__crt_stdio_output@@AEAA_NXZ 00000001800740f0 f i libucrtd:output.obj
 0001:00073570       ?state_case_size@?$output_processor@_WV?$string_output_adapter@_W@__crt_stdio_output@@V?$standard_base@_WV?$string_output_adapter@_W@__crt_stdio_output@@@2@@__crt_stdio_output@@AEAA_NXZ 0000000180074570 f i libucrtd:output.obj
 0001:000739f0       ?state_case_type@?$output_processor@DV?$stream_output_adapter@D@__crt_stdio_output@@V?$format_validation_base@DV?$stream_output_adapter@D@__crt_stdio_output@@@2@@__crt_stdio_output@@AEAA_NXZ 00000001800749f0 f i libucrtd:output.obj
 0001:00073e90       ?state_case_type@?$output_processor@DV?$stream_output_adapter@D@__crt_stdio_output@@V?$positional_parameter_base@DV?$stream_output_adapter@D@__crt_stdio_output@@@2@@__crt_stdio_output@@AEAA_NXZ 0000000180074e90 f i libucrtd:output.obj
 0001:00074330       ?state_case_type@?$output_processor@DV?$stream_output_adapter@D@__crt_stdio_output@@V?$standard_base@DV?$stream_output_adapter@D@__crt_stdio_output@@@2@@__crt_stdio_output@@AEAA_NXZ 0000000180075330 f i libucrtd:output.obj
 0001:000747d0       ?state_case_type@?$output_processor@DV?$string_output_adapter@D@__crt_stdio_output@@V?$format_validation_base@DV?$string_output_adapter@D@__crt_stdio_output@@@2@@__crt_stdio_output@@AEAA_NXZ 00000001800757d0 f i libucrtd:output.obj
 0001:00074c70       ?state_case_type@?$output_processor@DV?$string_output_adapter@D@__crt_stdio_output@@V?$positional_parameter_base@DV?$string_output_adapter@D@__crt_stdio_output@@@2@@__crt_stdio_output@@AEAA_NXZ 0000000180075c70 f i libucrtd:output.obj
 0001:00075110       ?state_case_type@?$output_processor@DV?$string_output_adapter@D@__crt_stdio_output@@V?$standard_base@DV?$string_output_adapter@D@__crt_stdio_output@@@2@@__crt_stdio_output@@AEAA_NXZ 0000000180076110 f i libucrtd:output.obj
 0001:000755b0       ?state_case_type@?$output_processor@_WV?$stream_output_adapter@_W@__crt_stdio_output@@V?$format_validation_base@_WV?$stream_output_adapter@_W@__crt_stdio_output@@@2@@__crt_stdio_output@@AEAA_NXZ 00000001800765b0 f i libucrtd:output.obj
 0001:00075b10       ?state_case_type@?$output_processor@_WV?$stream_output_adapter@_W@__crt_stdio_output@@V?$positional_parameter_base@_WV?$stream_output_adapter@_W@__crt_stdio_output@@@2@@__crt_stdio_output@@AEAA_NXZ 0000000180076b10 f i libucrtd:output.obj
 0001:00076070       ?state_case_type@?$output_processor@_WV?$stream_output_adapter@_W@__crt_stdio_output@@V?$standard_base@_WV?$stream_output_adapter@_W@__crt_stdio_output@@@2@@__crt_stdio_output@@AEAA_NXZ 0000000180077070 f i libucrtd:output.obj
 0001:000765d0       ?state_case_type@?$output_processor@_WV?$string_output_adapter@_W@__crt_stdio_output@@V?$format_validation_base@_WV?$string_output_adapter@_W@__crt_stdio_output@@@2@@__crt_stdio_output@@AEAA_NXZ 00000001800775d0 f i libucrtd:output.obj
 0001:00076b30       ?state_case_type@?$output_processor@_WV?$string_output_adapter@_W@__crt_stdio_output@@V?$positional_parameter_base@_WV?$string_output_adapter@_W@__crt_stdio_output@@@2@@__crt_stdio_output@@AEAA_NXZ 0000000180077b30 f i libucrtd:output.obj
 0001:00077090       ?state_case_type@?$output_processor@_WV?$string_output_adapter@_W@__crt_stdio_output@@V?$standard_base@_WV?$string_output_adapter@_W@__crt_stdio_output@@@2@@__crt_stdio_output@@AEAA_NXZ 0000000180078090 f i libucrtd:output.obj
 0001:000775f0       ?state_case_width@?$output_processor@DV?$stream_output_adapter@D@__crt_stdio_output@@V?$format_validation_base@DV?$stream_output_adapter@D@__crt_stdio_output@@@2@@__crt_stdio_output@@AEAA_NXZ 00000001800785f0 f i libucrtd:output.obj
 0001:00077680       ?state_case_width@?$output_processor@DV?$stream_output_adapter@D@__crt_stdio_output@@V?$positional_parameter_base@DV?$stream_output_adapter@D@__crt_stdio_output@@@2@@__crt_stdio_output@@AEAA_NXZ 0000000180078680 f i libucrtd:output.obj
 0001:00077710       ?state_case_width@?$output_processor@DV?$stream_output_adapter@D@__crt_stdio_output@@V?$standard_base@DV?$stream_output_adapter@D@__crt_stdio_output@@@2@@__crt_stdio_output@@AEAA_NXZ 0000000180078710 f i libucrtd:output.obj
 0001:000777a0       ?state_case_width@?$output_processor@DV?$string_output_adapter@D@__crt_stdio_output@@V?$format_validation_base@DV?$string_output_adapter@D@__crt_stdio_output@@@2@@__crt_stdio_output@@AEAA_NXZ 00000001800787a0 f i libucrtd:output.obj
 0001:00077830       ?state_case_width@?$output_processor@DV?$string_output_adapter@D@__crt_stdio_output@@V?$positional_parameter_base@DV?$string_output_adapter@D@__crt_stdio_output@@@2@@__crt_stdio_output@@AEAA_NXZ 0000000180078830 f i libucrtd:output.obj
 0001:000778c0       ?state_case_width@?$output_processor@DV?$string_output_adapter@D@__crt_stdio_output@@V?$standard_base@DV?$string_output_adapter@D@__crt_stdio_output@@@2@@__crt_stdio_output@@AEAA_NXZ 00000001800788c0 f i libucrtd:output.obj
 0001:00077950       ?state_case_width@?$output_processor@_WV?$stream_output_adapter@_W@__crt_stdio_output@@V?$format_validation_base@_WV?$stream_output_adapter@_W@__crt_stdio_output@@@2@@__crt_stdio_output@@AEAA_NXZ 0000000180078950 f i libucrtd:output.obj
 0001:000779e0       ?state_case_width@?$output_processor@_WV?$stream_output_adapter@_W@__crt_stdio_output@@V?$positional_parameter_base@_WV?$stream_output_adapter@_W@__crt_stdio_output@@@2@@__crt_stdio_output@@AEAA_NXZ 00000001800789e0 f i libucrtd:output.obj
 0001:00077a70       ?state_case_width@?$output_processor@_WV?$stream_output_adapter@_W@__crt_stdio_output@@V?$standard_base@_WV?$stream_output_adapter@_W@__crt_stdio_output@@@2@@__crt_stdio_output@@AEAA_NXZ 0000000180078a70 f i libucrtd:output.obj
 0001:00077b00       ?state_case_width@?$output_processor@_WV?$string_output_adapter@_W@__crt_stdio_output@@V?$format_validation_base@_WV?$string_output_adapter@_W@__crt_stdio_output@@@2@@__crt_stdio_output@@AEAA_NXZ 0000000180078b00 f i libucrtd:output.obj
 0001:00077b90       ?state_case_width@?$output_processor@_WV?$string_output_adapter@_W@__crt_stdio_output@@V?$positional_parameter_base@_WV?$string_output_adapter@_W@__crt_stdio_output@@@2@@__crt_stdio_output@@AEAA_NXZ 0000000180078b90 f i libucrtd:output.obj
 0001:00077c20       ?state_case_width@?$output_processor@_WV?$string_output_adapter@_W@__crt_stdio_output@@V?$standard_base@_WV?$string_output_adapter@_W@__crt_stdio_output@@@2@@__crt_stdio_output@@AEAA_NXZ 0000000180078c20 f i libucrtd:output.obj
 0001:00077cb0       ?state_count@?$format_validation_base@DV?$stream_output_adapter@D@__crt_stdio_output@@@__crt_stdio_output@@KAIXZ 0000000180078cb0 f i libucrtd:output.obj
 0001:00077cc0       ?state_count@?$format_validation_base@DV?$string_output_adapter@D@__crt_stdio_output@@@__crt_stdio_output@@KAIXZ 0000000180078cc0 f i libucrtd:output.obj
 0001:00077cd0       ?state_count@?$format_validation_base@_WV?$stream_output_adapter@_W@__crt_stdio_output@@@__crt_stdio_output@@KAIXZ 0000000180078cd0 f i libucrtd:output.obj
 0001:00077ce0       ?state_count@?$format_validation_base@_WV?$string_output_adapter@_W@__crt_stdio_output@@@__crt_stdio_output@@KAIXZ 0000000180078ce0 f i libucrtd:output.obj
 0001:00077cf0       ?state_count@?$standard_base@DV?$stream_output_adapter@D@__crt_stdio_output@@@__crt_stdio_output@@KAIXZ 0000000180078cf0 f i libucrtd:output.obj
 0001:00077d00       ?state_count@?$standard_base@DV?$string_output_adapter@D@__crt_stdio_output@@@__crt_stdio_output@@KAIXZ 0000000180078d00 f i libucrtd:output.obj
 0001:00077d10       ?state_count@?$standard_base@_WV?$stream_output_adapter@_W@__crt_stdio_output@@@__crt_stdio_output@@KAIXZ 0000000180078d10 f i libucrtd:output.obj
 0001:00077d20       ?state_count@?$standard_base@_WV?$string_output_adapter@_W@__crt_stdio_output@@@__crt_stdio_output@@KAIXZ 0000000180078d20 f i libucrtd:output.obj
 0001:00077d30       ?state_transition_table@?$format_validation_base@DV?$stream_output_adapter@D@__crt_stdio_output@@@__crt_stdio_output@@KAAEBV?$spectre_mitigated_lookup_table@Ustate_transition_pair@__crt_stdio_output@@$0IA@@2@XZ 0000000180078d30 f i libucrtd:output.obj
 0001:00077d40       ?state_transition_table@?$format_validation_base@DV?$string_output_adapter@D@__crt_stdio_output@@@__crt_stdio_output@@KAAEBV?$spectre_mitigated_lookup_table@Ustate_transition_pair@__crt_stdio_output@@$0IA@@2@XZ 0000000180078d40 f i libucrtd:output.obj
 0001:00077d50       ?state_transition_table@?$format_validation_base@_WV?$stream_output_adapter@_W@__crt_stdio_output@@@__crt_stdio_output@@KAAEBV?$spectre_mitigated_lookup_table@Ustate_transition_pair@__crt_stdio_output@@$0IA@@2@XZ 0000000180078d50 f i libucrtd:output.obj
 0001:00077d60       ?state_transition_table@?$format_validation_base@_WV?$string_output_adapter@_W@__crt_stdio_output@@@__crt_stdio_output@@KAAEBV?$spectre_mitigated_lookup_table@Ustate_transition_pair@__crt_stdio_output@@$0IA@@2@XZ 0000000180078d60 f i libucrtd:output.obj
 0001:00077d70       ?state_transition_table@?$standard_base@DV?$stream_output_adapter@D@__crt_stdio_output@@@__crt_stdio_output@@KAAEBV?$spectre_mitigated_lookup_table@Ustate_transition_pair@__crt_stdio_output@@$0IA@@2@XZ 0000000180078d70 f i libucrtd:output.obj
 0001:00077d80       ?state_transition_table@?$standard_base@DV?$string_output_adapter@D@__crt_stdio_output@@@__crt_stdio_output@@KAAEBV?$spectre_mitigated_lookup_table@Ustate_transition_pair@__crt_stdio_output@@$0IA@@2@XZ 0000000180078d80 f i libucrtd:output.obj
 0001:00077d90       ?state_transition_table@?$standard_base@_WV?$stream_output_adapter@_W@__crt_stdio_output@@@__crt_stdio_output@@KAAEBV?$spectre_mitigated_lookup_table@Ustate_transition_pair@__crt_stdio_output@@$0IA@@2@XZ 0000000180078d90 f i libucrtd:output.obj
 0001:00077da0       ?state_transition_table@?$standard_base@_WV?$string_output_adapter@_W@__crt_stdio_output@@@__crt_stdio_output@@KAAEBV?$spectre_mitigated_lookup_table@Ustate_transition_pair@__crt_stdio_output@@$0IA@@2@XZ 0000000180078da0 f i libucrtd:output.obj
 0001:00077db0       ?tchar_string@?$common_data@D@__crt_stdio_output@@IEAAAEAPEADD@Z 0000000180078db0 f i libucrtd:output.obj
 0001:00077dd0       ?tchar_string@?$common_data@D@__crt_stdio_output@@IEAAAEAPEADXZ 0000000180078dd0 f i libucrtd:output.obj
 0001:00077df0       ?tchar_string@?$common_data@_W@__crt_stdio_output@@IEAAAEAPEA_WXZ 0000000180078df0 f i libucrtd:output.obj
 0001:00077e10       ?tchar_string@?$common_data@_W@__crt_stdio_output@@IEAAAEAPEA_W_W@Z 0000000180078e10 f i libucrtd:output.obj
 0001:00077e30       ?to_integer_size@__crt_stdio_output@@YA_KW4length_modifier@1@@Z 0000000180078e30 f i libucrtd:output.obj
 0001:00077ee0       ?type_case_X@?$output_processor@DV?$stream_output_adapter@D@__crt_stdio_output@@V?$format_validation_base@DV?$stream_output_adapter@D@__crt_stdio_output@@@2@@__crt_stdio_output@@AEAA_NXZ 0000000180078ee0 f i libucrtd:output.obj
 0001:00077f00       ?type_case_X@?$output_processor@DV?$stream_output_adapter@D@__crt_stdio_output@@V?$positional_parameter_base@DV?$stream_output_adapter@D@__crt_stdio_output@@@2@@__crt_stdio_output@@AEAA_NXZ 0000000180078f00 f i libucrtd:output.obj
 0001:00077f20       ?type_case_X@?$output_processor@DV?$stream_output_adapter@D@__crt_stdio_output@@V?$standard_base@DV?$stream_output_adapter@D@__crt_stdio_output@@@2@@__crt_stdio_output@@AEAA_NXZ 0000000180078f20 f i libucrtd:output.obj
 0001:00077f40       ?type_case_X@?$output_processor@DV?$string_output_adapter@D@__crt_stdio_output@@V?$format_validation_base@DV?$string_output_adapter@D@__crt_stdio_output@@@2@@__crt_stdio_output@@AEAA_NXZ 0000000180078f40 f i libucrtd:output.obj
 0001:00077f60       ?type_case_X@?$output_processor@DV?$string_output_adapter@D@__crt_stdio_output@@V?$positional_parameter_base@DV?$string_output_adapter@D@__crt_stdio_output@@@2@@__crt_stdio_output@@AEAA_NXZ 0000000180078f60 f i libucrtd:output.obj
 0001:00077f80       ?type_case_X@?$output_processor@DV?$string_output_adapter@D@__crt_stdio_output@@V?$standard_base@DV?$string_output_adapter@D@__crt_stdio_output@@@2@@__crt_stdio_output@@AEAA_NXZ 0000000180078f80 f i libucrtd:output.obj
 0001:00077fa0       ?type_case_X@?$output_processor@_WV?$stream_output_adapter@_W@__crt_stdio_output@@V?$format_validation_base@_WV?$stream_output_adapter@_W@__crt_stdio_output@@@2@@__crt_stdio_output@@AEAA_NXZ 0000000180078fa0 f i libucrtd:output.obj
 0001:00077fc0       ?type_case_X@?$output_processor@_WV?$stream_output_adapter@_W@__crt_stdio_output@@V?$positional_parameter_base@_WV?$stream_output_adapter@_W@__crt_stdio_output@@@2@@__crt_stdio_output@@AEAA_NXZ 0000000180078fc0 f i libucrtd:output.obj
 0001:00077fe0       ?type_case_X@?$output_processor@_WV?$stream_output_adapter@_W@__crt_stdio_output@@V?$standard_base@_WV?$stream_output_adapter@_W@__crt_stdio_output@@@2@@__crt_stdio_output@@AEAA_NXZ 0000000180078fe0 f i libucrtd:output.obj
 0001:00078000       ?type_case_X@?$output_processor@_WV?$string_output_adapter@_W@__crt_stdio_output@@V?$format_validation_base@_WV?$string_output_adapter@_W@__crt_stdio_output@@@2@@__crt_stdio_output@@AEAA_NXZ 0000000180079000 f i libucrtd:output.obj
 0001:00078020       ?type_case_X@?$output_processor@_WV?$string_output_adapter@_W@__crt_stdio_output@@V?$positional_parameter_base@_WV?$string_output_adapter@_W@__crt_stdio_output@@@2@@__crt_stdio_output@@AEAA_NXZ 0000000180079020 f i libucrtd:output.obj
 0001:00078040       ?type_case_X@?$output_processor@_WV?$string_output_adapter@_W@__crt_stdio_output@@V?$standard_base@_WV?$string_output_adapter@_W@__crt_stdio_output@@@2@@__crt_stdio_output@@AEAA_NXZ 0000000180079040 f i libucrtd:output.obj
 0001:00078060       ?type_case_Z@?$output_processor@DV?$stream_output_adapter@D@__crt_stdio_output@@V?$format_validation_base@DV?$stream_output_adapter@D@__crt_stdio_output@@@2@@__crt_stdio_output@@AEAA_NXZ 0000000180079060 f i libucrtd:output.obj
 0001:00078180       ?type_case_Z@?$output_processor@DV?$stream_output_adapter@D@__crt_stdio_output@@V?$positional_parameter_base@DV?$stream_output_adapter@D@__crt_stdio_output@@@2@@__crt_stdio_output@@AEAA_NXZ 0000000180079180 f i libucrtd:output.obj
 0001:000782a0       ?type_case_Z@?$output_processor@DV?$stream_output_adapter@D@__crt_stdio_output@@V?$standard_base@DV?$stream_output_adapter@D@__crt_stdio_output@@@2@@__crt_stdio_output@@AEAA_NXZ 00000001800792a0 f i libucrtd:output.obj
 0001:000783c0       ?type_case_Z@?$output_processor@DV?$string_output_adapter@D@__crt_stdio_output@@V?$format_validation_base@DV?$string_output_adapter@D@__crt_stdio_output@@@2@@__crt_stdio_output@@AEAA_NXZ 00000001800793c0 f i libucrtd:output.obj
 0001:000784e0       ?type_case_Z@?$output_processor@DV?$string_output_adapter@D@__crt_stdio_output@@V?$positional_parameter_base@DV?$string_output_adapter@D@__crt_stdio_output@@@2@@__crt_stdio_output@@AEAA_NXZ 00000001800794e0 f i libucrtd:output.obj
 0001:00078600       ?type_case_Z@?$output_processor@DV?$string_output_adapter@D@__crt_stdio_output@@V?$standard_base@DV?$string_output_adapter@D@__crt_stdio_output@@@2@@__crt_stdio_output@@AEAA_NXZ 0000000180079600 f i libucrtd:output.obj
 0001:00078720       ?type_case_Z@?$output_processor@_WV?$stream_output_adapter@_W@__crt_stdio_output@@V?$format_validation_base@_WV?$stream_output_adapter@_W@__crt_stdio_output@@@2@@__crt_stdio_output@@AEAA_NXZ 0000000180079720 f i libucrtd:output.obj
 0001:00078840       ?type_case_Z@?$output_processor@_WV?$stream_output_adapter@_W@__crt_stdio_output@@V?$positional_parameter_base@_WV?$stream_output_adapter@_W@__crt_stdio_output@@@2@@__crt_stdio_output@@AEAA_NXZ 0000000180079840 f i libucrtd:output.obj
 0001:00078960       ?type_case_Z@?$output_processor@_WV?$stream_output_adapter@_W@__crt_stdio_output@@V?$standard_base@_WV?$stream_output_adapter@_W@__crt_stdio_output@@@2@@__crt_stdio_output@@AEAA_NXZ 0000000180079960 f i libucrtd:output.obj
 0001:00078a80       ?type_case_Z@?$output_processor@_WV?$string_output_adapter@_W@__crt_stdio_output@@V?$format_validation_base@_WV?$string_output_adapter@_W@__crt_stdio_output@@@2@@__crt_stdio_output@@AEAA_NXZ 0000000180079a80 f i libucrtd:output.obj
 0001:00078ba0       ?type_case_Z@?$output_processor@_WV?$string_output_adapter@_W@__crt_stdio_output@@V?$positional_parameter_base@_WV?$string_output_adapter@_W@__crt_stdio_output@@@2@@__crt_stdio_output@@AEAA_NXZ 0000000180079ba0 f i libucrtd:output.obj
 0001:00078cc0       ?type_case_Z@?$output_processor@_WV?$string_output_adapter@_W@__crt_stdio_output@@V?$standard_base@_WV?$string_output_adapter@_W@__crt_stdio_output@@@2@@__crt_stdio_output@@AEAA_NXZ 0000000180079cc0 f i libucrtd:output.obj
 0001:00078de0       ?type_case_a@?$output_processor@DV?$stream_output_adapter@D@__crt_stdio_output@@V?$format_validation_base@DV?$stream_output_adapter@D@__crt_stdio_output@@@2@@__crt_stdio_output@@AEAA_NXZ 0000000180079de0 f i libucrtd:output.obj
 0001:000791b0       ?type_case_a@?$output_processor@DV?$stream_output_adapter@D@__crt_stdio_output@@V?$positional_parameter_base@DV?$stream_output_adapter@D@__crt_stdio_output@@@2@@__crt_stdio_output@@AEAA_NXZ 000000018007a1b0 f i libucrtd:output.obj
 0001:00079580       ?type_case_a@?$output_processor@DV?$stream_output_adapter@D@__crt_stdio_output@@V?$standard_base@DV?$stream_output_adapter@D@__crt_stdio_output@@@2@@__crt_stdio_output@@AEAA_NXZ 000000018007a580 f i libucrtd:output.obj
 0001:00079950       ?type_case_a@?$output_processor@DV?$string_output_adapter@D@__crt_stdio_output@@V?$format_validation_base@DV?$string_output_adapter@D@__crt_stdio_output@@@2@@__crt_stdio_output@@AEAA_NXZ 000000018007a950 f i libucrtd:output.obj
 0001:00079d20       ?type_case_a@?$output_processor@DV?$string_output_adapter@D@__crt_stdio_output@@V?$positional_parameter_base@DV?$string_output_adapter@D@__crt_stdio_output@@@2@@__crt_stdio_output@@AEAA_NXZ 000000018007ad20 f i libucrtd:output.obj
 0001:0007a0f0       ?type_case_a@?$output_processor@DV?$string_output_adapter@D@__crt_stdio_output@@V?$standard_base@DV?$string_output_adapter@D@__crt_stdio_output@@@2@@__crt_stdio_output@@AEAA_NXZ 000000018007b0f0 f i libucrtd:output.obj
 0001:0007a4c0       ?type_case_a@?$output_processor@_WV?$stream_output_adapter@_W@__crt_stdio_output@@V?$format_validation_base@_WV?$stream_output_adapter@_W@__crt_stdio_output@@@2@@__crt_stdio_output@@AEAA_NXZ 000000018007b4c0 f i libucrtd:output.obj
 0001:0007a890       ?type_case_a@?$output_processor@_WV?$stream_output_adapter@_W@__crt_stdio_output@@V?$positional_parameter_base@_WV?$stream_output_adapter@_W@__crt_stdio_output@@@2@@__crt_stdio_output@@AEAA_NXZ 000000018007b890 f i libucrtd:output.obj
 0001:0007ac60       ?type_case_a@?$output_processor@_WV?$stream_output_adapter@_W@__crt_stdio_output@@V?$standard_base@_WV?$stream_output_adapter@_W@__crt_stdio_output@@@2@@__crt_stdio_output@@AEAA_NXZ 000000018007bc60 f i libucrtd:output.obj
 0001:0007b030       ?type_case_a@?$output_processor@_WV?$string_output_adapter@_W@__crt_stdio_output@@V?$format_validation_base@_WV?$string_output_adapter@_W@__crt_stdio_output@@@2@@__crt_stdio_output@@AEAA_NXZ 000000018007c030 f i libucrtd:output.obj
 0001:0007b400       ?type_case_a@?$output_processor@_WV?$string_output_adapter@_W@__crt_stdio_output@@V?$positional_parameter_base@_WV?$string_output_adapter@_W@__crt_stdio_output@@@2@@__crt_stdio_output@@AEAA_NXZ 000000018007c400 f i libucrtd:output.obj
 0001:0007b7d0       ?type_case_a@?$output_processor@_WV?$string_output_adapter@_W@__crt_stdio_output@@V?$standard_base@_WV?$string_output_adapter@_W@__crt_stdio_output@@@2@@__crt_stdio_output@@AEAA_NXZ 000000018007c7d0 f i libucrtd:output.obj
 0001:0007bba0       ?type_case_c@?$output_processor@DV?$stream_output_adapter@D@__crt_stdio_output@@V?$format_validation_base@DV?$stream_output_adapter@D@__crt_stdio_output@@@2@@__crt_stdio_output@@AEAA_NXZ 000000018007cba0 f i libucrtd:output.obj
 0001:0007bbc0       ?type_case_c@?$output_processor@DV?$stream_output_adapter@D@__crt_stdio_output@@V?$positional_parameter_base@DV?$stream_output_adapter@D@__crt_stdio_output@@@2@@__crt_stdio_output@@AEAA_NXZ 000000018007cbc0 f i libucrtd:output.obj
 0001:0007bbe0       ?type_case_c@?$output_processor@DV?$stream_output_adapter@D@__crt_stdio_output@@V?$standard_base@DV?$stream_output_adapter@D@__crt_stdio_output@@@2@@__crt_stdio_output@@AEAA_NXZ 000000018007cbe0 f i libucrtd:output.obj
 0001:0007bc00       ?type_case_c@?$output_processor@DV?$string_output_adapter@D@__crt_stdio_output@@V?$format_validation_base@DV?$string_output_adapter@D@__crt_stdio_output@@@2@@__crt_stdio_output@@AEAA_NXZ 000000018007cc00 f i libucrtd:output.obj
 0001:0007bc20       ?type_case_c@?$output_processor@DV?$string_output_adapter@D@__crt_stdio_output@@V?$positional_parameter_base@DV?$string_output_adapter@D@__crt_stdio_output@@@2@@__crt_stdio_output@@AEAA_NXZ 000000018007cc20 f i libucrtd:output.obj
 0001:0007bc40       ?type_case_c@?$output_processor@DV?$string_output_adapter@D@__crt_stdio_output@@V?$standard_base@DV?$string_output_adapter@D@__crt_stdio_output@@@2@@__crt_stdio_output@@AEAA_NXZ 000000018007cc40 f i libucrtd:output.obj
 0001:0007bc60       ?type_case_c@?$output_processor@_WV?$stream_output_adapter@_W@__crt_stdio_output@@V?$format_validation_base@_WV?$stream_output_adapter@_W@__crt_stdio_output@@@2@@__crt_stdio_output@@AEAA_NXZ 000000018007cc60 f i libucrtd:output.obj
 0001:0007bc80       ?type_case_c@?$output_processor@_WV?$stream_output_adapter@_W@__crt_stdio_output@@V?$positional_parameter_base@_WV?$stream_output_adapter@_W@__crt_stdio_output@@@2@@__crt_stdio_output@@AEAA_NXZ 000000018007cc80 f i libucrtd:output.obj
 0001:0007bca0       ?type_case_c@?$output_processor@_WV?$stream_output_adapter@_W@__crt_stdio_output@@V?$standard_base@_WV?$stream_output_adapter@_W@__crt_stdio_output@@@2@@__crt_stdio_output@@AEAA_NXZ 000000018007cca0 f i libucrtd:output.obj
 0001:0007bcc0       ?type_case_c@?$output_processor@_WV?$string_output_adapter@_W@__crt_stdio_output@@V?$format_validation_base@_WV?$string_output_adapter@_W@__crt_stdio_output@@@2@@__crt_stdio_output@@AEAA_NXZ 000000018007ccc0 f i libucrtd:output.obj
 0001:0007bce0       ?type_case_c@?$output_processor@_WV?$string_output_adapter@_W@__crt_stdio_output@@V?$positional_parameter_base@_WV?$string_output_adapter@_W@__crt_stdio_output@@@2@@__crt_stdio_output@@AEAA_NXZ 000000018007cce0 f i libucrtd:output.obj
 0001:0007bd00       ?type_case_c@?$output_processor@_WV?$string_output_adapter@_W@__crt_stdio_output@@V?$standard_base@_WV?$string_output_adapter@_W@__crt_stdio_output@@@2@@__crt_stdio_output@@AEAA_NXZ 000000018007cd00 f i libucrtd:output.obj
 0001:0007bd20       ?type_case_c_tchar@?$output_processor@DV?$stream_output_adapter@D@__crt_stdio_output@@V?$format_validation_base@DV?$stream_output_adapter@D@__crt_stdio_output@@@2@@__crt_stdio_output@@AEAA_ND@Z 000000018007cd20 f i libucrtd:output.obj
 0001:0007be80       ?type_case_c_tchar@?$output_processor@DV?$stream_output_adapter@D@__crt_stdio_output@@V?$positional_parameter_base@DV?$stream_output_adapter@D@__crt_stdio_output@@@2@@__crt_stdio_output@@AEAA_ND@Z 000000018007ce80 f i libucrtd:output.obj
 0001:0007bfe0       ?type_case_c_tchar@?$output_processor@DV?$stream_output_adapter@D@__crt_stdio_output@@V?$standard_base@DV?$stream_output_adapter@D@__crt_stdio_output@@@2@@__crt_stdio_output@@AEAA_ND@Z 000000018007cfe0 f i libucrtd:output.obj
 0001:0007c140       ?type_case_c_tchar@?$output_processor@DV?$string_output_adapter@D@__crt_stdio_output@@V?$format_validation_base@DV?$string_output_adapter@D@__crt_stdio_output@@@2@@__crt_stdio_output@@AEAA_ND@Z 000000018007d140 f i libucrtd:output.obj
 0001:0007c2a0       ?type_case_c_tchar@?$output_processor@DV?$string_output_adapter@D@__crt_stdio_output@@V?$positional_parameter_base@DV?$string_output_adapter@D@__crt_stdio_output@@@2@@__crt_stdio_output@@AEAA_ND@Z 000000018007d2a0 f i libucrtd:output.obj
 0001:0007c400       ?type_case_c_tchar@?$output_processor@DV?$string_output_adapter@D@__crt_stdio_output@@V?$standard_base@DV?$string_output_adapter@D@__crt_stdio_output@@@2@@__crt_stdio_output@@AEAA_ND@Z 000000018007d400 f i libucrtd:output.obj
 0001:0007c560       ?type_case_c_tchar@?$output_processor@_WV?$stream_output_adapter@_W@__crt_stdio_output@@V?$format_validation_base@_WV?$stream_output_adapter@_W@__crt_stdio_output@@@2@@__crt_stdio_output@@AEAA_N_W@Z 000000018007d560 f i libucrtd:output.obj
 0001:0007c690       ?type_case_c_tchar@?$output_processor@_WV?$stream_output_adapter@_W@__crt_stdio_output@@V?$positional_parameter_base@_WV?$stream_output_adapter@_W@__crt_stdio_output@@@2@@__crt_stdio_output@@AEAA_N_W@Z 000000018007d690 f i libucrtd:output.obj
 0001:0007c7c0       ?type_case_c_tchar@?$output_processor@_WV?$stream_output_adapter@_W@__crt_stdio_output@@V?$standard_base@_WV?$stream_output_adapter@_W@__crt_stdio_output@@@2@@__crt_stdio_output@@AEAA_N_W@Z 000000018007d7c0 f i libucrtd:output.obj
 0001:0007c8f0       ?type_case_c_tchar@?$output_processor@_WV?$string_output_adapter@_W@__crt_stdio_output@@V?$format_validation_base@_WV?$string_output_adapter@_W@__crt_stdio_output@@@2@@__crt_stdio_output@@AEAA_N_W@Z 000000018007d8f0 f i libucrtd:output.obj
 0001:0007ca20       ?type_case_c_tchar@?$output_processor@_WV?$string_output_adapter@_W@__crt_stdio_output@@V?$positional_parameter_base@_WV?$string_output_adapter@_W@__crt_stdio_output@@@2@@__crt_stdio_output@@AEAA_N_W@Z 000000018007da20 f i libucrtd:output.obj
 0001:0007cb50       ?type_case_c_tchar@?$output_processor@_WV?$string_output_adapter@_W@__crt_stdio_output@@V?$standard_base@_WV?$string_output_adapter@_W@__crt_stdio_output@@@2@@__crt_stdio_output@@AEAA_N_W@Z 000000018007db50 f i libucrtd:output.obj
 0001:0007cc80       ?type_case_d@?$output_processor@DV?$stream_output_adapter@D@__crt_stdio_output@@V?$format_validation_base@DV?$stream_output_adapter@D@__crt_stdio_output@@@2@@__crt_stdio_output@@AEAA_NXZ 000000018007dc80 f i libucrtd:output.obj
 0001:0007ccb0       ?type_case_d@?$output_processor@DV?$stream_output_adapter@D@__crt_stdio_output@@V?$positional_parameter_base@DV?$stream_output_adapter@D@__crt_stdio_output@@@2@@__crt_stdio_output@@AEAA_NXZ 000000018007dcb0 f i libucrtd:output.obj
 0001:0007cce0       ?type_case_d@?$output_processor@DV?$stream_output_adapter@D@__crt_stdio_output@@V?$standard_base@DV?$stream_output_adapter@D@__crt_stdio_output@@@2@@__crt_stdio_output@@AEAA_NXZ 000000018007dce0 f i libucrtd:output.obj
 0001:0007cd10       ?type_case_d@?$output_processor@DV?$string_output_adapter@D@__crt_stdio_output@@V?$format_validation_base@DV?$string_output_adapter@D@__crt_stdio_output@@@2@@__crt_stdio_output@@AEAA_NXZ 000000018007dd10 f i libucrtd:output.obj
 0001:0007cd40       ?type_case_d@?$output_processor@DV?$string_output_adapter@D@__crt_stdio_output@@V?$positional_parameter_base@DV?$string_output_adapter@D@__crt_stdio_output@@@2@@__crt_stdio_output@@AEAA_NXZ 000000018007dd40 f i libucrtd:output.obj
 0001:0007cd70       ?type_case_d@?$output_processor@DV?$string_output_adapter@D@__crt_stdio_output@@V?$standard_base@DV?$string_output_adapter@D@__crt_stdio_output@@@2@@__crt_stdio_output@@AEAA_NXZ 000000018007dd70 f i libucrtd:output.obj
 0001:0007cda0       ?type_case_d@?$output_processor@_WV?$stream_output_adapter@_W@__crt_stdio_output@@V?$format_validation_base@_WV?$stream_output_adapter@_W@__crt_stdio_output@@@2@@__crt_stdio_output@@AEAA_NXZ 000000018007dda0 f i libucrtd:output.obj
 0001:0007cdd0       ?type_case_d@?$output_processor@_WV?$stream_output_adapter@_W@__crt_stdio_output@@V?$positional_parameter_base@_WV?$stream_output_adapter@_W@__crt_stdio_output@@@2@@__crt_stdio_output@@AEAA_NXZ 000000018007ddd0 f i libucrtd:output.obj
 0001:0007ce00       ?type_case_d@?$output_processor@_WV?$stream_output_adapter@_W@__crt_stdio_output@@V?$standard_base@_WV?$stream_output_adapter@_W@__crt_stdio_output@@@2@@__crt_stdio_output@@AEAA_NXZ 000000018007de00 f i libucrtd:output.obj
 0001:0007ce30       ?type_case_d@?$output_processor@_WV?$string_output_adapter@_W@__crt_stdio_output@@V?$format_validation_base@_WV?$string_output_adapter@_W@__crt_stdio_output@@@2@@__crt_stdio_output@@AEAA_NXZ 000000018007de30 f i libucrtd:output.obj
 0001:0007ce60       ?type_case_d@?$output_processor@_WV?$string_output_adapter@_W@__crt_stdio_output@@V?$positional_parameter_base@_WV?$string_output_adapter@_W@__crt_stdio_output@@@2@@__crt_stdio_output@@AEAA_NXZ 000000018007de60 f i libucrtd:output.obj
 0001:0007ce90       ?type_case_d@?$output_processor@_WV?$string_output_adapter@_W@__crt_stdio_output@@V?$standard_base@_WV?$string_output_adapter@_W@__crt_stdio_output@@@2@@__crt_stdio_output@@AEAA_NXZ 000000018007de90 f i libucrtd:output.obj
 0001:0007cec0       ?type_case_integer@?$output_processor@DV?$stream_output_adapter@D@__crt_stdio_output@@V?$format_validation_base@DV?$stream_output_adapter@D@__crt_stdio_output@@@2@@__crt_stdio_output@@AEAA_NI_N@Z 000000018007dec0 f i libucrtd:output.obj
 0001:0007d310       ?type_case_integer@?$output_processor@DV?$stream_output_adapter@D@__crt_stdio_output@@V?$positional_parameter_base@DV?$stream_output_adapter@D@__crt_stdio_output@@@2@@__crt_stdio_output@@AEAA_NI_N@Z 000000018007e310 f i libucrtd:output.obj
 0001:0007d760       ?type_case_integer@?$output_processor@DV?$stream_output_adapter@D@__crt_stdio_output@@V?$standard_base@DV?$stream_output_adapter@D@__crt_stdio_output@@@2@@__crt_stdio_output@@AEAA_NI_N@Z 000000018007e760 f i libucrtd:output.obj
 0001:0007dbb0       ?type_case_integer@?$output_processor@DV?$string_output_adapter@D@__crt_stdio_output@@V?$format_validation_base@DV?$string_output_adapter@D@__crt_stdio_output@@@2@@__crt_stdio_output@@AEAA_NI_N@Z 000000018007ebb0 f i libucrtd:output.obj
 0001:0007e000       ?type_case_integer@?$output_processor@DV?$string_output_adapter@D@__crt_stdio_output@@V?$positional_parameter_base@DV?$string_output_adapter@D@__crt_stdio_output@@@2@@__crt_stdio_output@@AEAA_NI_N@Z 000000018007f000 f i libucrtd:output.obj
 0001:0007e450       ?type_case_integer@?$output_processor@DV?$string_output_adapter@D@__crt_stdio_output@@V?$standard_base@DV?$string_output_adapter@D@__crt_stdio_output@@@2@@__crt_stdio_output@@AEAA_NI_N@Z 000000018007f450 f i libucrtd:output.obj
 0001:0007e8a0       ?type_case_integer@?$output_processor@_WV?$stream_output_adapter@_W@__crt_stdio_output@@V?$format_validation_base@_WV?$stream_output_adapter@_W@__crt_stdio_output@@@2@@__crt_stdio_output@@AEAA_NI_N@Z 000000018007f8a0 f i libucrtd:output.obj
 0001:0007ecf0       ?type_case_integer@?$output_processor@_WV?$stream_output_adapter@_W@__crt_stdio_output@@V?$positional_parameter_base@_WV?$stream_output_adapter@_W@__crt_stdio_output@@@2@@__crt_stdio_output@@AEAA_NI_N@Z 000000018007fcf0 f i libucrtd:output.obj
 0001:0007f140       ?type_case_integer@?$output_processor@_WV?$stream_output_adapter@_W@__crt_stdio_output@@V?$standard_base@_WV?$stream_output_adapter@_W@__crt_stdio_output@@@2@@__crt_stdio_output@@AEAA_NI_N@Z 0000000180080140 f i libucrtd:output.obj
 0001:0007f590       ?type_case_integer@?$output_processor@_WV?$string_output_adapter@_W@__crt_stdio_output@@V?$format_validation_base@_WV?$string_output_adapter@_W@__crt_stdio_output@@@2@@__crt_stdio_output@@AEAA_NI_N@Z 0000000180080590 f i libucrtd:output.obj
 0001:0007f9e0       ?type_case_integer@?$output_processor@_WV?$string_output_adapter@_W@__crt_stdio_output@@V?$positional_parameter_base@_WV?$string_output_adapter@_W@__crt_stdio_output@@@2@@__crt_stdio_output@@AEAA_NI_N@Z 00000001800809e0 f i libucrtd:output.obj
 0001:0007fe30       ?type_case_integer@?$output_processor@_WV?$string_output_adapter@_W@__crt_stdio_output@@V?$standard_base@_WV?$string_output_adapter@_W@__crt_stdio_output@@@2@@__crt_stdio_output@@AEAA_NI_N@Z 0000000180080e30 f i libucrtd:output.obj
 0001:00080280       ?type_case_n@?$output_processor@DV?$stream_output_adapter@D@__crt_stdio_output@@V?$format_validation_base@DV?$stream_output_adapter@D@__crt_stdio_output@@@2@@__crt_stdio_output@@AEAA_NXZ 0000000180081280 f i libucrtd:output.obj
 0001:000804c0       ?type_case_n@?$output_processor@DV?$stream_output_adapter@D@__crt_stdio_output@@V?$positional_parameter_base@DV?$stream_output_adapter@D@__crt_stdio_output@@@2@@__crt_stdio_output@@AEAA_NXZ 00000001800814c0 f i libucrtd:output.obj
 0001:00080700       ?type_case_n@?$output_processor@DV?$stream_output_adapter@D@__crt_stdio_output@@V?$standard_base@DV?$stream_output_adapter@D@__crt_stdio_output@@@2@@__crt_stdio_output@@AEAA_NXZ 0000000180081700 f i libucrtd:output.obj
 0001:00080940       ?type_case_n@?$output_processor@DV?$string_output_adapter@D@__crt_stdio_output@@V?$format_validation_base@DV?$string_output_adapter@D@__crt_stdio_output@@@2@@__crt_stdio_output@@AEAA_NXZ 0000000180081940 f i libucrtd:output.obj
 0001:00080b80       ?type_case_n@?$output_processor@DV?$string_output_adapter@D@__crt_stdio_output@@V?$positional_parameter_base@DV?$string_output_adapter@D@__crt_stdio_output@@@2@@__crt_stdio_output@@AEAA_NXZ 0000000180081b80 f i libucrtd:output.obj
 0001:00080dc0       ?type_case_n@?$output_processor@DV?$string_output_adapter@D@__crt_stdio_output@@V?$standard_base@DV?$string_output_adapter@D@__crt_stdio_output@@@2@@__crt_stdio_output@@AEAA_NXZ 0000000180081dc0 f i libucrtd:output.obj
 0001:00081000       ?type_case_n@?$output_processor@_WV?$stream_output_adapter@_W@__crt_stdio_output@@V?$format_validation_base@_WV?$stream_output_adapter@_W@__crt_stdio_output@@@2@@__crt_stdio_output@@AEAA_NXZ 0000000180082000 f i libucrtd:output.obj
 0001:00081240       ?type_case_n@?$output_processor@_WV?$stream_output_adapter@_W@__crt_stdio_output@@V?$positional_parameter_base@_WV?$stream_output_adapter@_W@__crt_stdio_output@@@2@@__crt_stdio_output@@AEAA_NXZ 0000000180082240 f i libucrtd:output.obj
 0001:00081480       ?type_case_n@?$output_processor@_WV?$stream_output_adapter@_W@__crt_stdio_output@@V?$standard_base@_WV?$stream_output_adapter@_W@__crt_stdio_output@@@2@@__crt_stdio_output@@AEAA_NXZ 0000000180082480 f i libucrtd:output.obj
 0001:000816c0       ?type_case_n@?$output_processor@_WV?$string_output_adapter@_W@__crt_stdio_output@@V?$format_validation_base@_WV?$string_output_adapter@_W@__crt_stdio_output@@@2@@__crt_stdio_output@@AEAA_NXZ 00000001800826c0 f i libucrtd:output.obj
 0001:00081900       ?type_case_n@?$output_processor@_WV?$string_output_adapter@_W@__crt_stdio_output@@V?$positional_parameter_base@_WV?$string_output_adapter@_W@__crt_stdio_output@@@2@@__crt_stdio_output@@AEAA_NXZ 0000000180082900 f i libucrtd:output.obj
 0001:00081b40       ?type_case_n@?$output_processor@_WV?$string_output_adapter@_W@__crt_stdio_output@@V?$standard_base@_WV?$string_output_adapter@_W@__crt_stdio_output@@@2@@__crt_stdio_output@@AEAA_NXZ 0000000180082b40 f i libucrtd:output.obj
 0001:00081d80       ?type_case_o@?$output_processor@DV?$stream_output_adapter@D@__crt_stdio_output@@V?$format_validation_base@DV?$stream_output_adapter@D@__crt_stdio_output@@@2@@__crt_stdio_output@@AEAA_NXZ 0000000180082d80 f i libucrtd:output.obj
 0001:00081dd0       ?type_case_o@?$output_processor@DV?$stream_output_adapter@D@__crt_stdio_output@@V?$positional_parameter_base@DV?$stream_output_adapter@D@__crt_stdio_output@@@2@@__crt_stdio_output@@AEAA_NXZ 0000000180082dd0 f i libucrtd:output.obj
 0001:00081e20       ?type_case_o@?$output_processor@DV?$stream_output_adapter@D@__crt_stdio_output@@V?$standard_base@DV?$stream_output_adapter@D@__crt_stdio_output@@@2@@__crt_stdio_output@@AEAA_NXZ 0000000180082e20 f i libucrtd:output.obj
 0001:00081e70       ?type_case_o@?$output_processor@DV?$string_output_adapter@D@__crt_stdio_output@@V?$format_validation_base@DV?$string_output_adapter@D@__crt_stdio_output@@@2@@__crt_stdio_output@@AEAA_NXZ 0000000180082e70 f i libucrtd:output.obj
 0001:00081ec0       ?type_case_o@?$output_processor@DV?$string_output_adapter@D@__crt_stdio_output@@V?$positional_parameter_base@DV?$string_output_adapter@D@__crt_stdio_output@@@2@@__crt_stdio_output@@AEAA_NXZ 0000000180082ec0 f i libucrtd:output.obj
 0001:00081f10       ?type_case_o@?$output_processor@DV?$string_output_adapter@D@__crt_stdio_output@@V?$standard_base@DV?$string_output_adapter@D@__crt_stdio_output@@@2@@__crt_stdio_output@@AEAA_NXZ 0000000180082f10 f i libucrtd:output.obj
 0001:00081f60       ?type_case_o@?$output_processor@_WV?$stream_output_adapter@_W@__crt_stdio_output@@V?$format_validation_base@_WV?$stream_output_adapter@_W@__crt_stdio_output@@@2@@__crt_stdio_output@@AEAA_NXZ 0000000180082f60 f i libucrtd:output.obj
 0001:00081fb0       ?type_case_o@?$output_processor@_WV?$stream_output_adapter@_W@__crt_stdio_output@@V?$positional_parameter_base@_WV?$stream_output_adapter@_W@__crt_stdio_output@@@2@@__crt_stdio_output@@AEAA_NXZ 0000000180082fb0 f i libucrtd:output.obj
 0001:00082000       ?type_case_o@?$output_processor@_WV?$stream_output_adapter@_W@__crt_stdio_output@@V?$standard_base@_WV?$stream_output_adapter@_W@__crt_stdio_output@@@2@@__crt_stdio_output@@AEAA_NXZ 0000000180083000 f i libucrtd:output.obj
 0001:00082050       ?type_case_o@?$output_processor@_WV?$string_output_adapter@_W@__crt_stdio_output@@V?$format_validation_base@_WV?$string_output_adapter@_W@__crt_stdio_output@@@2@@__crt_stdio_output@@AEAA_NXZ 0000000180083050 f i libucrtd:output.obj
 0001:000820a0       ?type_case_o@?$output_processor@_WV?$string_output_adapter@_W@__crt_stdio_output@@V?$positional_parameter_base@_WV?$string_output_adapter@_W@__crt_stdio_output@@@2@@__crt_stdio_output@@AEAA_NXZ 00000001800830a0 f i libucrtd:output.obj
 0001:000820f0       ?type_case_o@?$output_processor@_WV?$string_output_adapter@_W@__crt_stdio_output@@V?$standard_base@_WV?$string_output_adapter@_W@__crt_stdio_output@@@2@@__crt_stdio_output@@AEAA_NXZ 00000001800830f0 f i libucrtd:output.obj
 0001:00082140       ?type_case_p@?$output_processor@DV?$stream_output_adapter@D@__crt_stdio_output@@V?$format_validation_base@DV?$stream_output_adapter@D@__crt_stdio_output@@@2@@__crt_stdio_output@@AEAA_NXZ 0000000180083140 f i libucrtd:output.obj
 0001:00082180       ?type_case_p@?$output_processor@DV?$stream_output_adapter@D@__crt_stdio_output@@V?$positional_parameter_base@DV?$stream_output_adapter@D@__crt_stdio_output@@@2@@__crt_stdio_output@@AEAA_NXZ 0000000180083180 f i libucrtd:output.obj
 0001:000821c0       ?type_case_p@?$output_processor@DV?$stream_output_adapter@D@__crt_stdio_output@@V?$standard_base@DV?$stream_output_adapter@D@__crt_stdio_output@@@2@@__crt_stdio_output@@AEAA_NXZ 00000001800831c0 f i libucrtd:output.obj
 0001:00082200       ?type_case_p@?$output_processor@DV?$string_output_adapter@D@__crt_stdio_output@@V?$format_validation_base@DV?$string_output_adapter@D@__crt_stdio_output@@@2@@__crt_stdio_output@@AEAA_NXZ 0000000180083200 f i libucrtd:output.obj
 0001:00082240       ?type_case_p@?$output_processor@DV?$string_output_adapter@D@__crt_stdio_output@@V?$positional_parameter_base@DV?$string_output_adapter@D@__crt_stdio_output@@@2@@__crt_stdio_output@@AEAA_NXZ 0000000180083240 f i libucrtd:output.obj
 0001:00082280       ?type_case_p@?$output_processor@DV?$string_output_adapter@D@__crt_stdio_output@@V?$standard_base@DV?$string_output_adapter@D@__crt_stdio_output@@@2@@__crt_stdio_output@@AEAA_NXZ 0000000180083280 f i libucrtd:output.obj
 0001:000822c0       ?type_case_p@?$output_processor@_WV?$stream_output_adapter@_W@__crt_stdio_output@@V?$format_validation_base@_WV?$stream_output_adapter@_W@__crt_stdio_output@@@2@@__crt_stdio_output@@AEAA_NXZ 00000001800832c0 f i libucrtd:output.obj
 0001:00082300       ?type_case_p@?$output_processor@_WV?$stream_output_adapter@_W@__crt_stdio_output@@V?$positional_parameter_base@_WV?$stream_output_adapter@_W@__crt_stdio_output@@@2@@__crt_stdio_output@@AEAA_NXZ 0000000180083300 f i libucrtd:output.obj
 0001:00082340       ?type_case_p@?$output_processor@_WV?$stream_output_adapter@_W@__crt_stdio_output@@V?$standard_base@_WV?$stream_output_adapter@_W@__crt_stdio_output@@@2@@__crt_stdio_output@@AEAA_NXZ 0000000180083340 f i libucrtd:output.obj
 0001:00082380       ?type_case_p@?$output_processor@_WV?$string_output_adapter@_W@__crt_stdio_output@@V?$format_validation_base@_WV?$string_output_adapter@_W@__crt_stdio_output@@@2@@__crt_stdio_output@@AEAA_NXZ 0000000180083380 f i libucrtd:output.obj
 0001:000823c0       ?type_case_p@?$output_processor@_WV?$string_output_adapter@_W@__crt_stdio_output@@V?$positional_parameter_base@_WV?$string_output_adapter@_W@__crt_stdio_output@@@2@@__crt_stdio_output@@AEAA_NXZ 00000001800833c0 f i libucrtd:output.obj
 0001:00082400       ?type_case_p@?$output_processor@_WV?$string_output_adapter@_W@__crt_stdio_output@@V?$standard_base@_WV?$string_output_adapter@_W@__crt_stdio_output@@@2@@__crt_stdio_output@@AEAA_NXZ 0000000180083400 f i libucrtd:output.obj
 0001:00082440       ?type_case_s@?$output_processor@DV?$stream_output_adapter@D@__crt_stdio_output@@V?$format_validation_base@DV?$stream_output_adapter@D@__crt_stdio_output@@@2@@__crt_stdio_output@@AEAA_NXZ 0000000180083440 f i libucrtd:output.obj
 0001:00082560       ?type_case_s@?$output_processor@DV?$stream_output_adapter@D@__crt_stdio_output@@V?$positional_parameter_base@DV?$stream_output_adapter@D@__crt_stdio_output@@@2@@__crt_stdio_output@@AEAA_NXZ 0000000180083560 f i libucrtd:output.obj
 0001:00082680       ?type_case_s@?$output_processor@DV?$stream_output_adapter@D@__crt_stdio_output@@V?$standard_base@DV?$stream_output_adapter@D@__crt_stdio_output@@@2@@__crt_stdio_output@@AEAA_NXZ 0000000180083680 f i libucrtd:output.obj
 0001:000827a0       ?type_case_s@?$output_processor@DV?$string_output_adapter@D@__crt_stdio_output@@V?$format_validation_base@DV?$string_output_adapter@D@__crt_stdio_output@@@2@@__crt_stdio_output@@AEAA_NXZ 00000001800837a0 f i libucrtd:output.obj
 0001:000828c0       ?type_case_s@?$output_processor@DV?$string_output_adapter@D@__crt_stdio_output@@V?$positional_parameter_base@DV?$string_output_adapter@D@__crt_stdio_output@@@2@@__crt_stdio_output@@AEAA_NXZ 00000001800838c0 f i libucrtd:output.obj
 0001:000829e0       ?type_case_s@?$output_processor@DV?$string_output_adapter@D@__crt_stdio_output@@V?$standard_base@DV?$string_output_adapter@D@__crt_stdio_output@@@2@@__crt_stdio_output@@AEAA_NXZ 00000001800839e0 f i libucrtd:output.obj
 0001:00082b00       ?type_case_s@?$output_processor@_WV?$stream_output_adapter@_W@__crt_stdio_output@@V?$format_validation_base@_WV?$stream_output_adapter@_W@__crt_stdio_output@@@2@@__crt_stdio_output@@AEAA_NXZ 0000000180083b00 f i libucrtd:output.obj
 0001:00082c20       ?type_case_s@?$output_processor@_WV?$stream_output_adapter@_W@__crt_stdio_output@@V?$positional_parameter_base@_WV?$stream_output_adapter@_W@__crt_stdio_output@@@2@@__crt_stdio_output@@AEAA_NXZ 0000000180083c20 f i libucrtd:output.obj
 0001:00082d40       ?type_case_s@?$output_processor@_WV?$stream_output_adapter@_W@__crt_stdio_output@@V?$standard_base@_WV?$stream_output_adapter@_W@__crt_stdio_output@@@2@@__crt_stdio_output@@AEAA_NXZ 0000000180083d40 f i libucrtd:output.obj
 0001:00082e60       ?type_case_s@?$output_processor@_WV?$string_output_adapter@_W@__crt_stdio_output@@V?$format_validation_base@_WV?$string_output_adapter@_W@__crt_stdio_output@@@2@@__crt_stdio_output@@AEAA_NXZ 0000000180083e60 f i libucrtd:output.obj
 0001:00082f80       ?type_case_s@?$output_processor@_WV?$string_output_adapter@_W@__crt_stdio_output@@V?$positional_parameter_base@_WV?$string_output_adapter@_W@__crt_stdio_output@@@2@@__crt_stdio_output@@AEAA_NXZ 0000000180083f80 f i libucrtd:output.obj
 0001:000830a0       ?type_case_s@?$output_processor@_WV?$string_output_adapter@_W@__crt_stdio_output@@V?$standard_base@_WV?$string_output_adapter@_W@__crt_stdio_output@@@2@@__crt_stdio_output@@AEAA_NXZ 00000001800840a0 f i libucrtd:output.obj
 0001:000831c0       ?type_case_s_compute_narrow_string_length@?$output_processor@DV?$stream_output_adapter@D@__crt_stdio_output@@V?$format_validation_base@DV?$stream_output_adapter@D@__crt_stdio_output@@@2@@__crt_stdio_output@@AEBAHHD@Z 00000001800841c0 f i libucrtd:output.obj
 0001:000831f0       ?type_case_s_compute_narrow_string_length@?$output_processor@DV?$stream_output_adapter@D@__crt_stdio_output@@V?$positional_parameter_base@DV?$stream_output_adapter@D@__crt_stdio_output@@@2@@__crt_stdio_output@@AEBAHHD@Z 00000001800841f0 f i libucrtd:output.obj
 0001:00083220       ?type_case_s_compute_narrow_string_length@?$output_processor@DV?$stream_output_adapter@D@__crt_stdio_output@@V?$standard_base@DV?$stream_output_adapter@D@__crt_stdio_output@@@2@@__crt_stdio_output@@AEBAHHD@Z 0000000180084220 f i libucrtd:output.obj
 0001:00083250       ?type_case_s_compute_narrow_string_length@?$output_processor@DV?$string_output_adapter@D@__crt_stdio_output@@V?$format_validation_base@DV?$string_output_adapter@D@__crt_stdio_output@@@2@@__crt_stdio_output@@AEBAHHD@Z 0000000180084250 f i libucrtd:output.obj
 0001:00083280       ?type_case_s_compute_narrow_string_length@?$output_processor@DV?$string_output_adapter@D@__crt_stdio_output@@V?$positional_parameter_base@DV?$string_output_adapter@D@__crt_stdio_output@@@2@@__crt_stdio_output@@AEBAHHD@Z 0000000180084280 f i libucrtd:output.obj
 0001:000832b0       ?type_case_s_compute_narrow_string_length@?$output_processor@DV?$string_output_adapter@D@__crt_stdio_output@@V?$standard_base@DV?$string_output_adapter@D@__crt_stdio_output@@@2@@__crt_stdio_output@@AEBAHHD@Z 00000001800842b0 f i libucrtd:output.obj
 0001:000832e0       ?type_case_s_compute_narrow_string_length@?$output_processor@_WV?$stream_output_adapter@_W@__crt_stdio_output@@V?$format_validation_base@_WV?$stream_output_adapter@_W@__crt_stdio_output@@@2@@__crt_stdio_output@@AEBAHH_W@Z 00000001800842e0 f i libucrtd:output.obj
 0001:00083370       ?type_case_s_compute_narrow_string_length@?$output_processor@_WV?$stream_output_adapter@_W@__crt_stdio_output@@V?$positional_parameter_base@_WV?$stream_output_adapter@_W@__crt_stdio_output@@@2@@__crt_stdio_output@@AEBAHH_W@Z 0000000180084370 f i libucrtd:output.obj
 0001:00083400       ?type_case_s_compute_narrow_string_length@?$output_processor@_WV?$stream_output_adapter@_W@__crt_stdio_output@@V?$standard_base@_WV?$stream_output_adapter@_W@__crt_stdio_output@@@2@@__crt_stdio_output@@AEBAHH_W@Z 0000000180084400 f i libucrtd:output.obj
 0001:00083490       ?type_case_s_compute_narrow_string_length@?$output_processor@_WV?$string_output_adapter@_W@__crt_stdio_output@@V?$format_validation_base@_WV?$string_output_adapter@_W@__crt_stdio_output@@@2@@__crt_stdio_output@@AEBAHH_W@Z 0000000180084490 f i libucrtd:output.obj
 0001:00083520       ?type_case_s_compute_narrow_string_length@?$output_processor@_WV?$string_output_adapter@_W@__crt_stdio_output@@V?$positional_parameter_base@_WV?$string_output_adapter@_W@__crt_stdio_output@@@2@@__crt_stdio_output@@AEBAHH_W@Z 0000000180084520 f i libucrtd:output.obj
 0001:000835b0       ?type_case_s_compute_narrow_string_length@?$output_processor@_WV?$string_output_adapter@_W@__crt_stdio_output@@V?$standard_base@_WV?$string_output_adapter@_W@__crt_stdio_output@@@2@@__crt_stdio_output@@AEBAHH_W@Z 00000001800845b0 f i libucrtd:output.obj
 0001:00083640       ?type_case_u@?$output_processor@DV?$stream_output_adapter@D@__crt_stdio_output@@V?$format_validation_base@DV?$stream_output_adapter@D@__crt_stdio_output@@@2@@__crt_stdio_output@@AEAA_NXZ 0000000180084640 f i libucrtd:output.obj
 0001:00083660       ?type_case_u@?$output_processor@DV?$stream_output_adapter@D@__crt_stdio_output@@V?$positional_parameter_base@DV?$stream_output_adapter@D@__crt_stdio_output@@@2@@__crt_stdio_output@@AEAA_NXZ 0000000180084660 f i libucrtd:output.obj
 0001:00083680       ?type_case_u@?$output_processor@DV?$stream_output_adapter@D@__crt_stdio_output@@V?$standard_base@DV?$stream_output_adapter@D@__crt_stdio_output@@@2@@__crt_stdio_output@@AEAA_NXZ 0000000180084680 f i libucrtd:output.obj
 0001:000836a0       ?type_case_u@?$output_processor@DV?$string_output_adapter@D@__crt_stdio_output@@V?$format_validation_base@DV?$string_output_adapter@D@__crt_stdio_output@@@2@@__crt_stdio_output@@AEAA_NXZ 00000001800846a0 f i libucrtd:output.obj
 0001:000836c0       ?type_case_u@?$output_processor@DV?$string_output_adapter@D@__crt_stdio_output@@V?$positional_parameter_base@DV?$string_output_adapter@D@__crt_stdio_output@@@2@@__crt_stdio_output@@AEAA_NXZ 00000001800846c0 f i libucrtd:output.obj
 0001:000836e0       ?type_case_u@?$output_processor@DV?$string_output_adapter@D@__crt_stdio_output@@V?$standard_base@DV?$string_output_adapter@D@__crt_stdio_output@@@2@@__crt_stdio_output@@AEAA_NXZ 00000001800846e0 f i libucrtd:output.obj
 0001:00083700       ?type_case_u@?$output_processor@_WV?$stream_output_adapter@_W@__crt_stdio_output@@V?$format_validation_base@_WV?$stream_output_adapter@_W@__crt_stdio_output@@@2@@__crt_stdio_output@@AEAA_NXZ 0000000180084700 f i libucrtd:output.obj
 0001:00083720       ?type_case_u@?$output_processor@_WV?$stream_output_adapter@_W@__crt_stdio_output@@V?$positional_parameter_base@_WV?$stream_output_adapter@_W@__crt_stdio_output@@@2@@__crt_stdio_output@@AEAA_NXZ 0000000180084720 f i libucrtd:output.obj
 0001:00083740       ?type_case_u@?$output_processor@_WV?$stream_output_adapter@_W@__crt_stdio_output@@V?$standard_base@_WV?$stream_output_adapter@_W@__crt_stdio_output@@@2@@__crt_stdio_output@@AEAA_NXZ 0000000180084740 f i libucrtd:output.obj
 0001:00083760       ?type_case_u@?$output_processor@_WV?$string_output_adapter@_W@__crt_stdio_output@@V?$format_validation_base@_WV?$string_output_adapter@_W@__crt_stdio_output@@@2@@__crt_stdio_output@@AEAA_NXZ 0000000180084760 f i libucrtd:output.obj
 0001:00083780       ?type_case_u@?$output_processor@_WV?$string_output_adapter@_W@__crt_stdio_output@@V?$positional_parameter_base@_WV?$string_output_adapter@_W@__crt_stdio_output@@@2@@__crt_stdio_output@@AEAA_NXZ 0000000180084780 f i libucrtd:output.obj
 0001:000837a0       ?type_case_u@?$output_processor@_WV?$string_output_adapter@_W@__crt_stdio_output@@V?$standard_base@_WV?$string_output_adapter@_W@__crt_stdio_output@@@2@@__crt_stdio_output@@AEAA_NXZ 00000001800847a0 f i libucrtd:output.obj
 0001:000837c0       ?type_case_x@?$output_processor@DV?$stream_output_adapter@D@__crt_stdio_output@@V?$format_validation_base@DV?$stream_output_adapter@D@__crt_stdio_output@@@2@@__crt_stdio_output@@AEAA_NXZ 00000001800847c0 f i libucrtd:output.obj
 0001:000837e0       ?type_case_x@?$output_processor@DV?$stream_output_adapter@D@__crt_stdio_output@@V?$positional_parameter_base@DV?$stream_output_adapter@D@__crt_stdio_output@@@2@@__crt_stdio_output@@AEAA_NXZ 00000001800847e0 f i libucrtd:output.obj
 0001:00083800       ?type_case_x@?$output_processor@DV?$stream_output_adapter@D@__crt_stdio_output@@V?$standard_base@DV?$stream_output_adapter@D@__crt_stdio_output@@@2@@__crt_stdio_output@@AEAA_NXZ 0000000180084800 f i libucrtd:output.obj
 0001:00083820       ?type_case_x@?$output_processor@DV?$string_output_adapter@D@__crt_stdio_output@@V?$format_validation_base@DV?$string_output_adapter@D@__crt_stdio_output@@@2@@__crt_stdio_output@@AEAA_NXZ 0000000180084820 f i libucrtd:output.obj
 0001:00083840       ?type_case_x@?$output_processor@DV?$string_output_adapter@D@__crt_stdio_output@@V?$positional_parameter_base@DV?$string_output_adapter@D@__crt_stdio_output@@@2@@__crt_stdio_output@@AEAA_NXZ 0000000180084840 f i libucrtd:output.obj
 0001:00083860       ?type_case_x@?$output_processor@DV?$string_output_adapter@D@__crt_stdio_output@@V?$standard_base@DV?$string_output_adapter@D@__crt_stdio_output@@@2@@__crt_stdio_output@@AEAA_NXZ 0000000180084860 f i libucrtd:output.obj
 0001:00083880       ?type_case_x@?$output_processor@_WV?$stream_output_adapter@_W@__crt_stdio_output@@V?$format_validation_base@_WV?$stream_output_adapter@_W@__crt_stdio_output@@@2@@__crt_stdio_output@@AEAA_NXZ 0000000180084880 f i libucrtd:output.obj
 0001:000838a0       ?type_case_x@?$output_processor@_WV?$stream_output_adapter@_W@__crt_stdio_output@@V?$positional_parameter_base@_WV?$stream_output_adapter@_W@__crt_stdio_output@@@2@@__crt_stdio_output@@AEAA_NXZ 00000001800848a0 f i libucrtd:output.obj
 0001:000838c0       ?type_case_x@?$output_processor@_WV?$stream_output_adapter@_W@__crt_stdio_output@@V?$standard_base@_WV?$stream_output_adapter@_W@__crt_stdio_output@@@2@@__crt_stdio_output@@AEAA_NXZ 00000001800848c0 f i libucrtd:output.obj
 0001:000838e0       ?type_case_x@?$output_processor@_WV?$string_output_adapter@_W@__crt_stdio_output@@V?$format_validation_base@_WV?$string_output_adapter@_W@__crt_stdio_output@@@2@@__crt_stdio_output@@AEAA_NXZ 00000001800848e0 f i libucrtd:output.obj
 0001:00083900       ?type_case_x@?$output_processor@_WV?$string_output_adapter@_W@__crt_stdio_output@@V?$positional_parameter_base@_WV?$string_output_adapter@_W@__crt_stdio_output@@@2@@__crt_stdio_output@@AEAA_NXZ 0000000180084900 f i libucrtd:output.obj
 0001:00083920       ?type_case_x@?$output_processor@_WV?$string_output_adapter@_W@__crt_stdio_output@@V?$standard_base@_WV?$string_output_adapter@_W@__crt_stdio_output@@@2@@__crt_stdio_output@@AEAA_NXZ 0000000180084920 f i libucrtd:output.obj
 0001:00083940       ?unset_flag@?$output_processor@DV?$stream_output_adapter@D@__crt_stdio_output@@V?$format_validation_base@DV?$stream_output_adapter@D@__crt_stdio_output@@@2@@__crt_stdio_output@@AEAAXI@Z 0000000180084940 f i libucrtd:output.obj
 0001:00083970       ?unset_flag@?$output_processor@DV?$stream_output_adapter@D@__crt_stdio_output@@V?$positional_parameter_base@DV?$stream_output_adapter@D@__crt_stdio_output@@@2@@__crt_stdio_output@@AEAAXI@Z 0000000180084970 f i libucrtd:output.obj
 0001:000839a0       ?unset_flag@?$output_processor@DV?$stream_output_adapter@D@__crt_stdio_output@@V?$standard_base@DV?$stream_output_adapter@D@__crt_stdio_output@@@2@@__crt_stdio_output@@AEAAXI@Z 00000001800849a0 f i libucrtd:output.obj
 0001:000839d0       ?unset_flag@?$output_processor@DV?$string_output_adapter@D@__crt_stdio_output@@V?$format_validation_base@DV?$string_output_adapter@D@__crt_stdio_output@@@2@@__crt_stdio_output@@AEAAXI@Z 00000001800849d0 f i libucrtd:output.obj
 0001:00083a00       ?unset_flag@?$output_processor@DV?$string_output_adapter@D@__crt_stdio_output@@V?$positional_parameter_base@DV?$string_output_adapter@D@__crt_stdio_output@@@2@@__crt_stdio_output@@AEAAXI@Z 0000000180084a00 f i libucrtd:output.obj
 0001:00083a30       ?unset_flag@?$output_processor@DV?$string_output_adapter@D@__crt_stdio_output@@V?$standard_base@DV?$string_output_adapter@D@__crt_stdio_output@@@2@@__crt_stdio_output@@AEAAXI@Z 0000000180084a30 f i libucrtd:output.obj
 0001:00083a60       ?unset_flag@?$output_processor@_WV?$stream_output_adapter@_W@__crt_stdio_output@@V?$format_validation_base@_WV?$stream_output_adapter@_W@__crt_stdio_output@@@2@@__crt_stdio_output@@AEAAXI@Z 0000000180084a60 f i libucrtd:output.obj
 0001:00083a90       ?unset_flag@?$output_processor@_WV?$stream_output_adapter@_W@__crt_stdio_output@@V?$positional_parameter_base@_WV?$stream_output_adapter@_W@__crt_stdio_output@@@2@@__crt_stdio_output@@AEAAXI@Z 0000000180084a90 f i libucrtd:output.obj
 0001:00083ac0       ?unset_flag@?$output_processor@_WV?$stream_output_adapter@_W@__crt_stdio_output@@V?$standard_base@_WV?$stream_output_adapter@_W@__crt_stdio_output@@@2@@__crt_stdio_output@@AEAAXI@Z 0000000180084ac0 f i libucrtd:output.obj
 0001:00083af0       ?unset_flag@?$output_processor@_WV?$string_output_adapter@_W@__crt_stdio_output@@V?$format_validation_base@_WV?$string_output_adapter@_W@__crt_stdio_output@@@2@@__crt_stdio_output@@AEAAXI@Z 0000000180084af0 f i libucrtd:output.obj
 0001:00083b20       ?unset_flag@?$output_processor@_WV?$string_output_adapter@_W@__crt_stdio_output@@V?$positional_parameter_base@_WV?$string_output_adapter@_W@__crt_stdio_output@@@2@@__crt_stdio_output@@AEAAXI@Z 0000000180084b20 f i libucrtd:output.obj
 0001:00083b50       ?unset_flag@?$output_processor@_WV?$string_output_adapter@_W@__crt_stdio_output@@V?$standard_base@_WV?$string_output_adapter@_W@__crt_stdio_output@@@2@@__crt_stdio_output@@AEAAXI@Z 0000000180084b50 f i libucrtd:output.obj
 0001:00083b80       ?update_field_width@?$positional_parameter_base@DV?$stream_output_adapter@D@__crt_stdio_output@@@__crt_stdio_output@@IEAA_NXZ 0000000180084b80 f i libucrtd:output.obj
 0001:00083d70       ?update_field_width@?$positional_parameter_base@DV?$string_output_adapter@D@__crt_stdio_output@@@__crt_stdio_output@@IEAA_NXZ 0000000180084d70 f i libucrtd:output.obj
 0001:00083f60       ?update_field_width@?$positional_parameter_base@_WV?$stream_output_adapter@_W@__crt_stdio_output@@@__crt_stdio_output@@IEAA_NXZ 0000000180084f60 f i libucrtd:output.obj
 0001:00084150       ?update_field_width@?$positional_parameter_base@_WV?$string_output_adapter@_W@__crt_stdio_output@@@__crt_stdio_output@@IEAA_NXZ 0000000180085150 f i libucrtd:output.obj
 0001:00084340       ?update_field_width@?$standard_base@DV?$stream_output_adapter@D@__crt_stdio_output@@@__crt_stdio_output@@IEAA_NXZ 0000000180085340 f i libucrtd:output.obj
 0001:00084370       ?update_field_width@?$standard_base@DV?$string_output_adapter@D@__crt_stdio_output@@@__crt_stdio_output@@IEAA_NXZ 0000000180085370 f i libucrtd:output.obj
 0001:000843a0       ?update_field_width@?$standard_base@_WV?$stream_output_adapter@_W@__crt_stdio_output@@@__crt_stdio_output@@IEAA_NXZ 00000001800853a0 f i libucrtd:output.obj
 0001:000843d0       ?update_field_width@?$standard_base@_WV?$string_output_adapter@_W@__crt_stdio_output@@@__crt_stdio_output@@IEAA_NXZ 00000001800853d0 f i libucrtd:output.obj
 0001:00084400       ?update_precision@?$positional_parameter_base@DV?$stream_output_adapter@D@__crt_stdio_output@@@__crt_stdio_output@@IEAA_NXZ 0000000180085400 f i libucrtd:output.obj
 0001:000845f0       ?update_precision@?$positional_parameter_base@DV?$string_output_adapter@D@__crt_stdio_output@@@__crt_stdio_output@@IEAA_NXZ 00000001800855f0 f i libucrtd:output.obj
 0001:000847e0       ?update_precision@?$positional_parameter_base@_WV?$stream_output_adapter@_W@__crt_stdio_output@@@__crt_stdio_output@@IEAA_NXZ 00000001800857e0 f i libucrtd:output.obj
 0001:000849d0       ?update_precision@?$positional_parameter_base@_WV?$string_output_adapter@_W@__crt_stdio_output@@@__crt_stdio_output@@IEAA_NXZ 00000001800859d0 f i libucrtd:output.obj
 0001:00084bc0       ?update_precision@?$standard_base@DV?$stream_output_adapter@D@__crt_stdio_output@@@__crt_stdio_output@@IEAA_NXZ 0000000180085bc0 f i libucrtd:output.obj
 0001:00084bf0       ?update_precision@?$standard_base@DV?$string_output_adapter@D@__crt_stdio_output@@@__crt_stdio_output@@IEAA_NXZ 0000000180085bf0 f i libucrtd:output.obj
 0001:00084c20       ?update_precision@?$standard_base@_WV?$stream_output_adapter@_W@__crt_stdio_output@@@__crt_stdio_output@@IEAA_NXZ 0000000180085c20 f i libucrtd:output.obj
 0001:00084c50       ?update_precision@?$standard_base@_WV?$string_output_adapter@_W@__crt_stdio_output@@@__crt_stdio_output@@IEAA_NXZ 0000000180085c50 f i libucrtd:output.obj
 0001:00084c80       ?valid@__crt_stdio_stream@@QEBA_NXZ 0000000180085c80 f i libucrtd:output.obj
 0001:00084cb0       ?validate@?$stream_output_adapter@D@__crt_stdio_output@@QEBA_NXZ 0000000180085cb0 f i libucrtd:output.obj
 0001:00084d90       ?validate@?$stream_output_adapter@_W@__crt_stdio_output@@QEBA_NXZ 0000000180085d90 f i libucrtd:output.obj
 0001:00084e70       ?validate@?$string_output_adapter@D@__crt_stdio_output@@QEBA_NXZ 0000000180085e70 f i libucrtd:output.obj
 0001:00084f30       ?validate@?$string_output_adapter@_W@__crt_stdio_output@@QEBA_NXZ 0000000180085f30 f i libucrtd:output.obj
 0001:00084ff0       ?validate_and_store_parameter_data@?$positional_parameter_base@DV?$stream_output_adapter@D@__crt_stdio_output@@@__crt_stdio_output@@AEAA_NAEAUparameter_data@12@W4parameter_type@12@DW4length_modifier@2@@Z 0000000180085ff0 f i libucrtd:output.obj
 0001:00085110       ?validate_and_store_parameter_data@?$positional_parameter_base@DV?$string_output_adapter@D@__crt_stdio_output@@@__crt_stdio_output@@AEAA_NAEAUparameter_data@12@W4parameter_type@12@DW4length_modifier@2@@Z 0000000180086110 f i libucrtd:output.obj
 0001:00085230       ?validate_and_store_parameter_data@?$positional_parameter_base@_WV?$stream_output_adapter@_W@__crt_stdio_output@@@__crt_stdio_output@@AEAA_NAEAUparameter_data@12@W4parameter_type@12@_WW4length_modifier@2@@Z 0000000180086230 f i libucrtd:output.obj
 0001:00085350       ?validate_and_store_parameter_data@?$positional_parameter_base@_WV?$string_output_adapter@_W@__crt_stdio_output@@@__crt_stdio_output@@AEAA_NAEAUparameter_data@12@W4parameter_type@12@_WW4length_modifier@2@@Z 0000000180086350 f i libucrtd:output.obj
 0001:00085470       ?validate_and_update_state_at_beginning_of_format_character@?$positional_parameter_base@DV?$stream_output_adapter@D@__crt_stdio_output@@@__crt_stdio_output@@IEAA_NXZ 0000000180086470 f i libucrtd:output.obj
 0001:00085750       ?validate_and_update_state_at_beginning_of_format_character@?$positional_parameter_base@DV?$string_output_adapter@D@__crt_stdio_output@@@__crt_stdio_output@@IEAA_NXZ 0000000180086750 f i libucrtd:output.obj
 0001:00085a30       ?validate_and_update_state_at_beginning_of_format_character@?$positional_parameter_base@_WV?$stream_output_adapter@_W@__crt_stdio_output@@@__crt_stdio_output@@IEAA_NXZ 0000000180086a30 f i libucrtd:output.obj
 0001:00085d10       ?validate_and_update_state_at_beginning_of_format_character@?$positional_parameter_base@_WV?$string_output_adapter@_W@__crt_stdio_output@@@__crt_stdio_output@@IEAA_NXZ 0000000180086d10 f i libucrtd:output.obj
 0001:00085ff0       ?validate_and_update_state_at_beginning_of_format_character@?$standard_base@DV?$stream_output_adapter@D@__crt_stdio_output@@@__crt_stdio_output@@IEAA_NXZ 0000000180086ff0 f i libucrtd:output.obj
 0001:00086000       ?validate_and_update_state_at_beginning_of_format_character@?$standard_base@DV?$string_output_adapter@D@__crt_stdio_output@@@__crt_stdio_output@@IEAA_NXZ 0000000180087000 f i libucrtd:output.obj
 0001:00086010       ?validate_and_update_state_at_beginning_of_format_character@?$standard_base@_WV?$stream_output_adapter@_W@__crt_stdio_output@@@__crt_stdio_output@@IEAA_NXZ 0000000180087010 f i libucrtd:output.obj
 0001:00086020       ?validate_and_update_state_at_beginning_of_format_character@?$standard_base@_WV?$string_output_adapter@_W@__crt_stdio_output@@@__crt_stdio_output@@IEAA_NXZ 0000000180087020 f i libucrtd:output.obj
 0001:00086030       ?validate_and_update_state_at_end_of_format_string@?$format_validation_base@DV?$stream_output_adapter@D@__crt_stdio_output@@@__crt_stdio_output@@IEBA_NXZ 0000000180087030 f i libucrtd:output.obj
 0001:000860f0       ?validate_and_update_state_at_end_of_format_string@?$format_validation_base@DV?$string_output_adapter@D@__crt_stdio_output@@@__crt_stdio_output@@IEBA_NXZ 00000001800870f0 f i libucrtd:output.obj
 0001:000861b0       ?validate_and_update_state_at_end_of_format_string@?$format_validation_base@_WV?$stream_output_adapter@_W@__crt_stdio_output@@@__crt_stdio_output@@IEBA_NXZ 00000001800871b0 f i libucrtd:output.obj
 0001:00086270       ?validate_and_update_state_at_end_of_format_string@?$format_validation_base@_WV?$string_output_adapter@_W@__crt_stdio_output@@@__crt_stdio_output@@IEBA_NXZ 0000000180087270 f i libucrtd:output.obj
 0001:00086330       ?validate_and_update_state_at_end_of_format_string@?$positional_parameter_base@DV?$stream_output_adapter@D@__crt_stdio_output@@@__crt_stdio_output@@IEAA_NXZ 0000000180087330 f i libucrtd:output.obj
 0001:00086520       ?validate_and_update_state_at_end_of_format_string@?$positional_parameter_base@DV?$string_output_adapter@D@__crt_stdio_output@@@__crt_stdio_output@@IEAA_NXZ 0000000180087520 f i libucrtd:output.obj
 0001:00086710       ?validate_and_update_state_at_end_of_format_string@?$positional_parameter_base@_WV?$stream_output_adapter@_W@__crt_stdio_output@@@__crt_stdio_output@@IEAA_NXZ 0000000180087710 f i libucrtd:output.obj
 0001:00086900       ?validate_and_update_state_at_end_of_format_string@?$positional_parameter_base@_WV?$string_output_adapter@_W@__crt_stdio_output@@@__crt_stdio_output@@IEAA_NXZ 0000000180087900 f i libucrtd:output.obj
 0001:00086af0       ?validate_and_update_state_at_end_of_format_string@?$standard_base@DV?$stream_output_adapter@D@__crt_stdio_output@@@__crt_stdio_output@@IEBA_NXZ 0000000180087af0 f i libucrtd:output.obj
 0001:00086b00       ?validate_and_update_state_at_end_of_format_string@?$standard_base@DV?$string_output_adapter@D@__crt_stdio_output@@@__crt_stdio_output@@IEBA_NXZ 0000000180087b00 f i libucrtd:output.obj
 0001:00086b10       ?validate_and_update_state_at_end_of_format_string@?$standard_base@_WV?$stream_output_adapter@_W@__crt_stdio_output@@@__crt_stdio_output@@IEBA_NXZ 0000000180087b10 f i libucrtd:output.obj
 0001:00086b20       ?validate_and_update_state_at_end_of_format_string@?$standard_base@_WV?$string_output_adapter@_W@__crt_stdio_output@@@__crt_stdio_output@@IEBA_NXZ 0000000180087b20 f i libucrtd:output.obj
 0001:00086b30       ?validate_state_for_type_case_a@?$positional_parameter_base@DV?$stream_output_adapter@D@__crt_stdio_output@@@__crt_stdio_output@@IEAA_NXZ 0000000180087b30 f i libucrtd:output.obj
 0001:00086c70       ?validate_state_for_type_case_a@?$positional_parameter_base@DV?$string_output_adapter@D@__crt_stdio_output@@@__crt_stdio_output@@IEAA_NXZ 0000000180087c70 f i libucrtd:output.obj
 0001:00086db0       ?validate_state_for_type_case_a@?$positional_parameter_base@_WV?$stream_output_adapter@_W@__crt_stdio_output@@@__crt_stdio_output@@IEAA_NXZ 0000000180087db0 f i libucrtd:output.obj
 0001:00086ef0       ?validate_state_for_type_case_a@?$positional_parameter_base@_WV?$string_output_adapter@_W@__crt_stdio_output@@@__crt_stdio_output@@IEAA_NXZ 0000000180087ef0 f i libucrtd:output.obj
 0001:00087030       ?validate_state_for_type_case_a@?$standard_base@DV?$stream_output_adapter@D@__crt_stdio_output@@@__crt_stdio_output@@IEBA_NXZ 0000000180088030 f i libucrtd:output.obj
 0001:00087040       ?validate_state_for_type_case_a@?$standard_base@DV?$string_output_adapter@D@__crt_stdio_output@@@__crt_stdio_output@@IEBA_NXZ 0000000180088040 f i libucrtd:output.obj
 0001:00087050       ?validate_state_for_type_case_a@?$standard_base@_WV?$stream_output_adapter@_W@__crt_stdio_output@@@__crt_stdio_output@@IEBA_NXZ 0000000180088050 f i libucrtd:output.obj
 0001:00087060       ?validate_state_for_type_case_a@?$standard_base@_WV?$string_output_adapter@_W@__crt_stdio_output@@@__crt_stdio_output@@IEBA_NXZ 0000000180088060 f i libucrtd:output.obj
 0001:00087070       ?validate_stream_is_ansi_if_required@?$__acrt_stdio_char_traits@D@@SA_NQEAU_iobuf@@@Z 0000000180088070 f i libucrtd:output.obj
 0001:00087200       ?validate_stream_is_ansi_if_required@?$__acrt_stdio_char_traits@_W@@SA_NQEAU_iobuf@@@Z 0000000180088200 f i libucrtd:output.obj
 0001:00087210       ?wide_null_string@?$output_processor@DV?$stream_output_adapter@D@__crt_stdio_output@@V?$format_validation_base@DV?$stream_output_adapter@D@__crt_stdio_output@@@2@@__crt_stdio_output@@CAPEA_WXZ 0000000180088210 f i libucrtd:output.obj
 0001:00087220       ?wide_null_string@?$output_processor@DV?$stream_output_adapter@D@__crt_stdio_output@@V?$positional_parameter_base@DV?$stream_output_adapter@D@__crt_stdio_output@@@2@@__crt_stdio_output@@CAPEA_WXZ 0000000180088220 f i libucrtd:output.obj
 0001:00087230       ?wide_null_string@?$output_processor@DV?$stream_output_adapter@D@__crt_stdio_output@@V?$standard_base@DV?$stream_output_adapter@D@__crt_stdio_output@@@2@@__crt_stdio_output@@CAPEA_WXZ 0000000180088230 f i libucrtd:output.obj
 0001:00087240       ?wide_null_string@?$output_processor@DV?$string_output_adapter@D@__crt_stdio_output@@V?$format_validation_base@DV?$string_output_adapter@D@__crt_stdio_output@@@2@@__crt_stdio_output@@CAPEA_WXZ 0000000180088240 f i libucrtd:output.obj
 0001:00087250       ?wide_null_string@?$output_processor@DV?$string_output_adapter@D@__crt_stdio_output@@V?$positional_parameter_base@DV?$string_output_adapter@D@__crt_stdio_output@@@2@@__crt_stdio_output@@CAPEA_WXZ 0000000180088250 f i libucrtd:output.obj
 0001:00087260       ?wide_null_string@?$output_processor@DV?$string_output_adapter@D@__crt_stdio_output@@V?$standard_base@DV?$string_output_adapter@D@__crt_stdio_output@@@2@@__crt_stdio_output@@CAPEA_WXZ 0000000180088260 f i libucrtd:output.obj
 0001:00087270       ?wide_null_string@?$output_processor@_WV?$stream_output_adapter@_W@__crt_stdio_output@@V?$format_validation_base@_WV?$stream_output_adapter@_W@__crt_stdio_output@@@2@@__crt_stdio_output@@CAPEA_WXZ 0000000180088270 f i libucrtd:output.obj
 0001:00087280       ?wide_null_string@?$output_processor@_WV?$stream_output_adapter@_W@__crt_stdio_output@@V?$positional_parameter_base@_WV?$stream_output_adapter@_W@__crt_stdio_output@@@2@@__crt_stdio_output@@CAPEA_WXZ 0000000180088280 f i libucrtd:output.obj
 0001:00087290       ?wide_null_string@?$output_processor@_WV?$stream_output_adapter@_W@__crt_stdio_output@@V?$standard_base@_WV?$stream_output_adapter@_W@__crt_stdio_output@@@2@@__crt_stdio_output@@CAPEA_WXZ 0000000180088290 f i libucrtd:output.obj
 0001:000872a0       ?wide_null_string@?$output_processor@_WV?$string_output_adapter@_W@__crt_stdio_output@@V?$format_validation_base@_WV?$string_output_adapter@_W@__crt_stdio_output@@@2@@__crt_stdio_output@@CAPEA_WXZ 00000001800882a0 f i libucrtd:output.obj
 0001:000872b0       ?wide_null_string@?$output_processor@_WV?$string_output_adapter@_W@__crt_stdio_output@@V?$positional_parameter_base@_WV?$string_output_adapter@_W@__crt_stdio_output@@@2@@__crt_stdio_output@@CAPEA_WXZ 00000001800882b0 f i libucrtd:output.obj
 0001:000872c0       ?wide_null_string@?$output_processor@_WV?$string_output_adapter@_W@__crt_stdio_output@@V?$standard_base@_WV?$string_output_adapter@_W@__crt_stdio_output@@@2@@__crt_stdio_output@@CAPEA_WXZ 00000001800882c0 f i libucrtd:output.obj
 0001:000872d0       ?write_character@?$output_adapter_common@DV?$stream_output_adapter@D@__crt_stdio_output@@@__crt_stdio_output@@QEBAXDQEAH@Z 00000001800882d0 f i libucrtd:output.obj
 0001:00087320       ?write_character@?$output_adapter_common@_WV?$stream_output_adapter@_W@__crt_stdio_output@@@__crt_stdio_output@@QEBAX_WQEAH@Z 0000000180088320 f i libucrtd:output.obj
 0001:00087370       ?write_character@?$string_output_adapter@D@__crt_stdio_output@@QEBA_NDQEAH@Z 0000000180088370 f i libucrtd:output.obj
 0001:00087430       ?write_character@?$string_output_adapter@_W@__crt_stdio_output@@QEBA_N_WQEAH@Z 0000000180088430 f i libucrtd:output.obj
 0001:000874f0       ?write_character_without_count_update@?$stream_output_adapter@D@__crt_stdio_output@@QEBA_ND@Z 00000001800884f0 f i libucrtd:output.obj
 0001:00087570       ?write_character_without_count_update@?$stream_output_adapter@_W@__crt_stdio_output@@QEBA_N_W@Z 0000000180088570 f i libucrtd:output.obj
 0001:00087600       ?write_stored_string_tchar@?$output_processor@DV?$stream_output_adapter@D@__crt_stdio_output@@V?$format_validation_base@DV?$stream_output_adapter@D@__crt_stdio_output@@@2@@__crt_stdio_output@@AEAA_ND@Z 0000000180088600 f i libucrtd:output.obj
 0001:000877c0       ?write_stored_string_tchar@?$output_processor@DV?$stream_output_adapter@D@__crt_stdio_output@@V?$positional_parameter_base@DV?$stream_output_adapter@D@__crt_stdio_output@@@2@@__crt_stdio_output@@AEAA_ND@Z 00000001800887c0 f i libucrtd:output.obj
 0001:00087980       ?write_stored_string_tchar@?$output_processor@DV?$stream_output_adapter@D@__crt_stdio_output@@V?$standard_base@DV?$stream_output_adapter@D@__crt_stdio_output@@@2@@__crt_stdio_output@@AEAA_ND@Z 0000000180088980 f i libucrtd:output.obj
 0001:00087b40       ?write_stored_string_tchar@?$output_processor@DV?$string_output_adapter@D@__crt_stdio_output@@V?$format_validation_base@DV?$string_output_adapter@D@__crt_stdio_output@@@2@@__crt_stdio_output@@AEAA_ND@Z 0000000180088b40 f i libucrtd:output.obj
 0001:00087d00       ?write_stored_string_tchar@?$output_processor@DV?$string_output_adapter@D@__crt_stdio_output@@V?$positional_parameter_base@DV?$string_output_adapter@D@__crt_stdio_output@@@2@@__crt_stdio_output@@AEAA_ND@Z 0000000180088d00 f i libucrtd:output.obj
 0001:00087ec0       ?write_stored_string_tchar@?$output_processor@DV?$string_output_adapter@D@__crt_stdio_output@@V?$standard_base@DV?$string_output_adapter@D@__crt_stdio_output@@@2@@__crt_stdio_output@@AEAA_ND@Z 0000000180088ec0 f i libucrtd:output.obj
 0001:00088080       ?write_stored_string_tchar@?$output_processor@_WV?$stream_output_adapter@_W@__crt_stdio_output@@V?$format_validation_base@_WV?$stream_output_adapter@_W@__crt_stdio_output@@@2@@__crt_stdio_output@@AEAA_N_W@Z 0000000180089080 f i libucrtd:output.obj
 0001:000881d0       ?write_stored_string_tchar@?$output_processor@_WV?$stream_output_adapter@_W@__crt_stdio_output@@V?$positional_parameter_base@_WV?$stream_output_adapter@_W@__crt_stdio_output@@@2@@__crt_stdio_output@@AEAA_N_W@Z 00000001800891d0 f i libucrtd:output.obj
 0001:00088320       ?write_stored_string_tchar@?$output_processor@_WV?$stream_output_adapter@_W@__crt_stdio_output@@V?$standard_base@_WV?$stream_output_adapter@_W@__crt_stdio_output@@@2@@__crt_stdio_output@@AEAA_N_W@Z 0000000180089320 f i libucrtd:output.obj
 0001:00088470       ?write_stored_string_tchar@?$output_processor@_WV?$string_output_adapter@_W@__crt_stdio_output@@V?$format_validation_base@_WV?$string_output_adapter@_W@__crt_stdio_output@@@2@@__crt_stdio_output@@AEAA_N_W@Z 0000000180089470 f i libucrtd:output.obj
 0001:000885c0       ?write_stored_string_tchar@?$output_processor@_WV?$string_output_adapter@_W@__crt_stdio_output@@V?$positional_parameter_base@_WV?$string_output_adapter@_W@__crt_stdio_output@@@2@@__crt_stdio_output@@AEAA_N_W@Z 00000001800895c0 f i libucrtd:output.obj
 0001:00088710       ?write_stored_string_tchar@?$output_processor@_WV?$string_output_adapter@_W@__crt_stdio_output@@V?$standard_base@_WV?$string_output_adapter@_W@__crt_stdio_output@@@2@@__crt_stdio_output@@AEAA_N_W@Z 0000000180089710 f i libucrtd:output.obj
 0001:00088860       ?write_string@?$stream_output_adapter@D@__crt_stdio_output@@QEBAXQEBDHQEAHAEAV__crt_deferred_errno_cache@@@Z 0000000180089860 f i libucrtd:output.obj
 0001:000888e0       ?write_string@?$stream_output_adapter@_W@__crt_stdio_output@@QEBAXQEB_WHQEAHAEAV__crt_deferred_errno_cache@@@Z 00000001800898e0 f i libucrtd:output.obj
 0001:00088960       ?write_string@?$string_output_adapter@D@__crt_stdio_output@@QEBAXQEBDHQEAHAEAV__crt_deferred_errno_cache@@@Z 0000000180089960 f i libucrtd:output.obj
 0001:00088ad0       ?write_string@?$string_output_adapter@_W@__crt_stdio_output@@QEBAXQEB_WHQEAHAEAV__crt_deferred_errno_cache@@@Z 0000000180089ad0 f i libucrtd:output.obj
 0001:00088c40       ?write_string_impl@?$output_adapter_common@DV?$stream_output_adapter@D@__crt_stdio_output@@@__crt_stdio_output@@IEBAXQEBDHQEAHAEAV__crt_deferred_errno_cache@@@Z 0000000180089c40 f i libucrtd:output.obj
 0001:00088d20       ?write_string_impl@?$output_adapter_common@_WV?$stream_output_adapter@_W@__crt_stdio_output@@@__crt_stdio_output@@IEBAXQEB_WHQEAHAEAV__crt_deferred_errno_cache@@@Z 0000000180089d20 f i libucrtd:output.obj
 0001:00088e00       __acrt_disable_global_locale_sync 0000000180089e00 f i libucrtd:output.obj
 0001:00088e30       __acrt_enable_global_locale_sync 0000000180089e30 f i libucrtd:output.obj
 0001:00088e60       __acrt_isleadbyte_l_noupdate 0000000180089e60 f i libucrtd:output.obj
 0001:00088e90       __acrt_locale_changed      0000000180089e90 f i libucrtd:output.obj
 0001:00088ec0       __acrt_locale_get_ctype_array_value 0000000180089ec0 f i libucrtd:output.obj
 0001:00088f00       __stdio_common_vfprintf    0000000180089f00 f   libucrtd:output.obj
 0001:00088f40       __stdio_common_vfprintf_p  0000000180089f40 f   libucrtd:output.obj
 0001:00088f80       __stdio_common_vfprintf_s  0000000180089f80 f   libucrtd:output.obj
 0001:00088fc0       __stdio_common_vfwprintf   0000000180089fc0 f   libucrtd:output.obj
 0001:00089000       __stdio_common_vfwprintf_p 000000018008a000 f   libucrtd:output.obj
 0001:00089040       __stdio_common_vfwprintf_s 000000018008a040 f   libucrtd:output.obj
 0001:00089080       __stdio_common_vsnprintf_s 000000018008a080 f   libucrtd:output.obj
 0001:000890e0       __stdio_common_vsnwprintf_s 000000018008a0e0 f   libucrtd:output.obj
 0001:00089140       __stdio_common_vsprintf    000000018008a140 f   libucrtd:output.obj
 0001:00089190       __stdio_common_vsprintf_p  000000018008a190 f   libucrtd:output.obj
 0001:000891e0       __stdio_common_vsprintf_s  000000018008a1e0 f   libucrtd:output.obj
 0001:00089230       __stdio_common_vswprintf   000000018008a230 f   libucrtd:output.obj
 0001:00089280       __stdio_common_vswprintf_p 000000018008a280 f   libucrtd:output.obj
 0001:000892d0       __stdio_common_vswprintf_s 000000018008a2d0 f   libucrtd:output.obj
 0001:00089320       _ctype_fast_check_internal 000000018008a320 f i libucrtd:output.obj
 0001:00089350       _isdigit_fast_internal     000000018008a350 f i libucrtd:output.obj
 0001:00089380       _tolower_fast_internal     000000018008a380 f i libucrtd:output.obj
 0001:000893b0       free                       000000018008a3b0 f   libucrtd:free.obj
 0001:000893e0       malloc                     000000018008a3e0 f   libucrtd:malloc.obj
 0001:00089410       ??$?RU?$__crt_report_hook_node@D@@@__crt_internal_free_policy@@QEBAXQEBU?$__crt_report_hook_node@D@@@Z 000000018008a410 f i libucrtd:dbgrpt.obj
 0001:00089440       ??$?RU?$__crt_report_hook_node@_W@@@__crt_internal_free_policy@@QEBAXQEBU?$__crt_report_hook_node@_W@@@Z 000000018008a440 f i libucrtd:dbgrpt.obj
 0001:0008a680       ??$get_module_file_name@AEAPEAUHINSTANCE__@@AEAY0BAF@DK@?$__crt_char_traits@D@@SAKAEAPEAUHINSTANCE__@@AEAY0BAF@D$$QEAK@Z 000000018008b680 f i libucrtd:dbgrpt.obj
 0001:0008a6c0       ??$get_module_file_name@AEAPEAUHINSTANCE__@@AEAY0BAF@_WK@?$__crt_char_traits@_W@@SAKAEAPEAUHINSTANCE__@@AEAY0BAF@_W$$QEAK@Z 000000018008b6c0 f i libucrtd:dbgrpt.obj
 0001:0008a700       ??$tcscpy_s@AEAY0BAF@D_KPEBD@?$__crt_char_traits@D@@SAHAEAY0BAF@D$$QEA_K$$QEAPEBD@Z 000000018008b700 f i libucrtd:dbgrpt.obj
 0001:0008a740       ??$tcscpy_s@AEAY0BAF@_W_KPEB_W@?$__crt_char_traits@_W@@SAHAEAY0BAF@_W$$QEA_K$$QEAPEB_W@Z 000000018008b740 f i libucrtd:dbgrpt.obj
 0001:0008a780       ??$tcslen@AEAY0BAF@D@?$__crt_char_traits@D@@SA_KAEAY0BAF@D@Z 000000018008b780 f i libucrtd:dbgrpt.obj
 0001:0008a7a0       ??$tcslen@AEAY0BAF@_W@?$__crt_char_traits@_W@@SA_KAEAY0BAF@_W@Z 000000018008b7a0 f i libucrtd:dbgrpt.obj
 0001:0008a7c0       ??$tcslen@AEBQEBD@?$__crt_char_traits@D@@SA_KAEBQEBD@Z 000000018008b7c0 f i libucrtd:dbgrpt.obj
 0001:0008a7e0       ??$tcslen@AEBQEB_W@?$__crt_char_traits@_W@@SA_KAEBQEB_W@Z 000000018008b7e0 f i libucrtd:dbgrpt.obj
 0001:0008a8e0       ??0?$__crt_unique_heap_ptr@U?$__crt_report_hook_node@D@@U__crt_internal_free_policy@@@@QEAA@QEAU?$__crt_report_hook_node@D@@@Z 000000018008b8e0 f i libucrtd:dbgrpt.obj
 0001:0008a900       ??0?$__crt_unique_heap_ptr@U?$__crt_report_hook_node@_W@@U__crt_internal_free_policy@@@@QEAA@QEAU?$__crt_report_hook_node@_W@@@Z 000000018008b900 f i libucrtd:dbgrpt.obj
 0001:0008a920       ??1?$__crt_unique_heap_ptr@U?$__crt_report_hook_node@D@@U__crt_internal_free_policy@@@@QEAA@XZ 000000018008b920 f i libucrtd:dbgrpt.obj
 0001:0008a940       ??1?$__crt_unique_heap_ptr@U?$__crt_report_hook_node@_W@@U__crt_internal_free_policy@@@@QEAA@XZ 000000018008b940 f i libucrtd:dbgrpt.obj
 0001:0008a960       ??B?$__crt_unique_heap_ptr@U?$__crt_report_hook_node@D@@U__crt_internal_free_policy@@@@QEBA_NXZ 000000018008b960 f i libucrtd:dbgrpt.obj
 0001:0008a980       ??B?$__crt_unique_heap_ptr@U?$__crt_report_hook_node@_W@@U__crt_internal_free_policy@@@@QEBA_NXZ 000000018008b980 f i libucrtd:dbgrpt.obj
 0001:0008b060       ?detach@?$__crt_unique_heap_ptr@U?$__crt_report_hook_node@D@@U__crt_internal_free_policy@@@@QEAAPEAU?$__crt_report_hook_node@D@@XZ 000000018008c060 f i libucrtd:dbgrpt.obj
 0001:0008b090       ?detach@?$__crt_unique_heap_ptr@U?$__crt_report_hook_node@_W@@U__crt_internal_free_policy@@@@QEAAPEAU?$__crt_report_hook_node@_W@@XZ 000000018008c090 f i libucrtd:dbgrpt.obj
 0001:0008b0c0       ?get@?$__crt_unique_heap_ptr@U?$__crt_report_hook_node@D@@U__crt_internal_free_policy@@@@QEBAPEAU?$__crt_report_hook_node@D@@XZ 000000018008c0c0 f i libucrtd:dbgrpt.obj
 0001:0008b0d0       ?get@?$__crt_unique_heap_ptr@U?$__crt_report_hook_node@_W@@U__crt_internal_free_policy@@@@QEBAPEAU?$__crt_report_hook_node@_W@@XZ 000000018008c0d0 f i libucrtd:dbgrpt.obj
 0001:0008b140       ?is_valid@?$__crt_unique_heap_ptr@U?$__crt_report_hook_node@D@@U__crt_internal_free_policy@@@@QEBA_NXZ 000000018008c140 f i libucrtd:dbgrpt.obj
 0001:0008b170       ?is_valid@?$__crt_unique_heap_ptr@U?$__crt_report_hook_node@_W@@U__crt_internal_free_policy@@@@QEBA_NXZ 000000018008c170 f i libucrtd:dbgrpt.obj
 0001:0008b1a0       ?release@?$__crt_unique_heap_ptr@U?$__crt_report_hook_node@D@@U__crt_internal_free_policy@@@@QEAAXXZ 000000018008c1a0 f i libucrtd:dbgrpt.obj
 0001:0008b1d0       ?release@?$__crt_unique_heap_ptr@U?$__crt_report_hook_node@_W@@U__crt_internal_free_policy@@@@QEAAXXZ 000000018008c1d0 f i libucrtd:dbgrpt.obj
 0001:0008b200       _CrtDbgReport              000000018008c200 f   libucrtd:dbgrpt.obj
 0001:0008b280       _CrtDbgReportW             000000018008c280 f   libucrtd:dbgrpt.obj
 0001:0008b300       _CrtSetReportHook2         000000018008c300 f   libucrtd:dbgrpt.obj
 0001:0008b320       _CrtSetReportHookW2        000000018008c320 f   libucrtd:dbgrpt.obj
 0001:0008b340       __acrt_MessageWindowA      000000018008c340 f   libucrtd:dbgrpt.obj
 0001:0008b390       __acrt_MessageWindowW      000000018008c390 f   libucrtd:dbgrpt.obj
 0001:0008b3e0       _invoke_watson_if_error    000000018008c3e0 f i libucrtd:dbgrpt.obj
 0001:0008b430       _invoke_watson_if_oneof    000000018008c430 f i libucrtd:dbgrpt.obj
 0001:0008b490       _snwprintf_s               000000018008c490 f i libucrtd:dbgrpt.obj
 0001:0008b500       _vsnwprintf_s_l            000000018008c500 f i libucrtd:dbgrpt.obj
 0001:0008ba60       wcscpy_s                   000000018008ca60 f   libucrtd:wcscpy_s.obj
 0001:0008cdf0       ??1?$__crt_simd_cleanup_guard@$00@@QEAA@XZ 000000018008ddf0 f i libucrtd:strnlen.obj
 0001:0008ce00       ??1?$__crt_simd_cleanup_guard@$0A@@@QEAA@XZ 000000018008de00 f i libucrtd:strnlen.obj
 0001:0008ce10       ?compare_equals@?$__crt_simd_traits@$00E@@SA?AT__m256i@@T2@0@Z 000000018008de10 f i libucrtd:strnlen.obj
 0001:0008ce50       ?compare_equals@?$__crt_simd_traits@$00G@@SA?AT__m256i@@T2@0@Z 000000018008de50 f i libucrtd:strnlen.obj
 0001:0008ce90       ?compare_equals@?$__crt_simd_traits@$0A@E@@SA?AT__m128i@@T2@0@Z 000000018008de90 f i libucrtd:strnlen.obj
 0001:0008cec0       ?compare_equals@?$__crt_simd_traits@$0A@G@@SA?AT__m128i@@T2@0@Z 000000018008dec0 f i libucrtd:strnlen.obj
 0001:0008cef0       ?compute_byte_mask@?$__crt_simd_pack_traits@$00@@SAHT__m256i@@@Z 000000018008def0 f i libucrtd:strnlen.obj
 0001:0008cf10       ?compute_byte_mask@?$__crt_simd_pack_traits@$0A@@@SAHT__m128i@@@Z 000000018008df10 f i libucrtd:strnlen.obj
 0001:0008cf30       ?get_zero_pack@?$__crt_simd_pack_traits@$00@@SA?AT__m256i@@XZ 000000018008df30 f i libucrtd:strnlen.obj
 0001:0008cf60       ?get_zero_pack@?$__crt_simd_pack_traits@$0A@@@SA?AT__m128i@@XZ 000000018008df60 f i libucrtd:strnlen.obj
 0001:0008cf80       strnlen                    000000018008df80 f   libucrtd:strnlen.obj
 0001:0008cfb0       wcslen                     000000018008dfb0 f   libucrtd:strnlen.obj
 0001:0008cfd0       wcsnlen                    000000018008dfd0 f   libucrtd:strnlen.obj
 0001:0008d000       ??$__crt_fast_decode_pointer@P6AXPEB_W00I_K@Z@@YAP6AXPEB_W00I_K@ZQ6AX000I1@Z@Z 000000018008e000 f i libucrtd:invalid_parameter.obj
 0001:0008d040       ??$__crt_fast_encode_pointer@P6AXPEB_W00I_K@Z@@YAP6AXPEB_W00I_K@ZQ6AX000I1@Z@Z 000000018008e040 f i libucrtd:invalid_parameter.obj
 0001:0008d080       ??$initialize_from_array@$$BY00Q6AXPEB_W00I_K@Z@?$dual_state_global@P6AXPEB_W00I_K@Z@__crt_state_management@@QEAAXAEAY00Q6AXPEB_W00I_K@Z@Z 000000018008e080 f i libucrtd:invalid_parameter.obj
 0001:0008d0e0       ?__crt_rotate_pointer_value@@YA_K_KH@Z 000000018008e0e0 f i libucrtd:invalid_parameter.obj
 0001:0008d1a0       ?dangerous_get_state_array@?$dual_state_global@P6AXPEB_W00I_K@Z@__crt_state_management@@QEAAPEAP6AXPEB_W00I_K@ZXZ 000000018008e1a0 f i libucrtd:invalid_parameter.obj
 0001:0008d1b0       ?get_current_state_index@__crt_state_management@@YA_KXZ 000000018008e1b0 f i libucrtd:invalid_parameter.obj
 0001:0008d1c0       ?value@?$dual_state_global@P6AXPEB_W00I_K@Z@__crt_state_management@@QEAAAEAP6AXPEB_W00I_K@ZXZ 000000018008e1c0 f i libucrtd:invalid_parameter.obj
 0001:0008d1e0       __acrt_call_reportfault    000000018008e1e0 f   libucrtd:invalid_parameter.obj
 0001:0008d310       __acrt_initialize_invalid_parameter_handler 000000018008e310 f   libucrtd:invalid_parameter.obj
 0001:0008d340       _get_invalid_parameter_handler 000000018008e340 f   libucrtd:invalid_parameter.obj
 0001:0008d360       _get_thread_local_invalid_parameter_handler 000000018008e360 f   libucrtd:invalid_parameter.obj
 0001:0008d390       _invalid_parameter         000000018008e390 f   libucrtd:invalid_parameter.obj
 0001:0008d490       _invalid_parameter_noinfo  000000018008e490 f   libucrtd:invalid_parameter.obj
 0001:0008d4c0       _invalid_parameter_noinfo_noreturn 000000018008e4c0 f   libucrtd:invalid_parameter.obj
 0001:0008d500       _invoke_watson             000000018008e500 f   libucrtd:invalid_parameter.obj
 0001:0008d560       _set_invalid_parameter_handler 000000018008e560 f   libucrtd:invalid_parameter.obj
 0001:0008d5b0       _set_thread_local_invalid_parameter_handler 000000018008e5b0 f   libucrtd:invalid_parameter.obj
 0001:0008d5f0       __acrt_errno_from_os_error 000000018008e5f0 f   libucrtd:errno.obj
 0001:0008d680       __acrt_errno_map_os_error  000000018008e680 f   libucrtd:errno.obj
 0001:0008d6b0       __doserrno                 000000018008e6b0 f   libucrtd:errno.obj
 0001:0008d6e0       _errno                     000000018008e6e0 f   libucrtd:errno.obj
 0001:0008d710       _get_doserrno              000000018008e710 f   libucrtd:errno.obj
 0001:0008d7d0       _get_errno                 000000018008e7d0 f   libucrtd:errno.obj
 0001:0008d890       _set_doserrno              000000018008e890 f   libucrtd:errno.obj
 0001:0008d8d0       _set_errno                 000000018008e8d0 f   libucrtd:errno.obj
 0001:0008d910       calloc                     000000018008e910 f   libucrtd:calloc.obj
 0001:0008d950       _recalloc                  000000018008e950 f   libucrtd:recalloc.obj
 0001:0008d9a0       _recalloc_base             000000018008e9a0 f   libucrtd:recalloc.obj
 0001:0008da7c       _resetstkoflw              000000018008ea7c f   libucrtd:resetstk.obj
 0001:0008e230       wcscat_s                   000000018008f230 f   libucrtd:wcscat_s.obj
 0001:0008e900       wcsncpy_s                  000000018008f900 f   libucrtd:wcsncpy_s.obj
 0001:0008ea80       __isascii                  000000018008fa80 f   libucrtd:_ctype.obj
 0001:0008eab0       __iscsym                   000000018008fab0 f   libucrtd:_ctype.obj
 0001:0008eaf0       __iscsymf                  000000018008faf0 f   libucrtd:_ctype.obj
 0001:0008eb30       __toascii                  000000018008fb30 f   libucrtd:_ctype.obj
 0001:0008eb40       _isalnum_l                 000000018008fb40 f   libucrtd:_ctype.obj
 0001:0008eb70       _isalpha_l                 000000018008fb70 f   libucrtd:_ctype.obj
 0001:0008eba0       _isblank_l                 000000018008fba0 f   libucrtd:_ctype.obj
 0001:0008ebd0       _iscntrl_l                 000000018008fbd0 f   libucrtd:_ctype.obj
 0001:0008ec00       _iscsym_l                  000000018008fc00 f   libucrtd:_ctype.obj
 0001:0008ec50       _iscsymf_l                 000000018008fc50 f   libucrtd:_ctype.obj
 0001:0008eca0       _isdigit_l                 000000018008fca0 f   libucrtd:_ctype.obj
 0001:0008ecd0       _isgraph_l                 000000018008fcd0 f   libucrtd:_ctype.obj
 0001:0008ed00       _islower_l                 000000018008fd00 f   libucrtd:_ctype.obj
 0001:0008ed30       _isprint_l                 000000018008fd30 f   libucrtd:_ctype.obj
 0001:0008ed60       _ispunct_l                 000000018008fd60 f   libucrtd:_ctype.obj
 0001:0008ed90       _isspace_l                 000000018008fd90 f   libucrtd:_ctype.obj
 0001:0008edc0       _isupper_l                 000000018008fdc0 f   libucrtd:_ctype.obj
 0001:0008edf0       _isxdigit_l                000000018008fdf0 f   libucrtd:_ctype.obj
 0001:0008ee20       isalnum                    000000018008fe20 f   libucrtd:_ctype.obj
 0001:0008ee40       isalpha                    000000018008fe40 f   libucrtd:_ctype.obj
 0001:0008ee60       isblank                    000000018008fe60 f   libucrtd:_ctype.obj
 0001:0008ee90       iscntrl                    000000018008fe90 f   libucrtd:_ctype.obj
 0001:0008eeb0       isdigit                    000000018008feb0 f   libucrtd:_ctype.obj
 0001:0008eed0       isgraph                    000000018008fed0 f   libucrtd:_ctype.obj
 0001:0008eef0       islower                    000000018008fef0 f   libucrtd:_ctype.obj
 0001:0008ef10       isprint                    000000018008ff10 f   libucrtd:_ctype.obj
 0001:0008ef30       ispunct                    000000018008ff30 f   libucrtd:_ctype.obj
 0001:0008ef50       isspace                    000000018008ff50 f   libucrtd:_ctype.obj
 0001:0008ef70       isupper                    000000018008ff70 f   libucrtd:_ctype.obj
 0001:0008ef90       isxdigit                   000000018008ff90 f   libucrtd:_ctype.obj
 0001:0008efb0       wcscat                     000000018008ffb0 f   libucrtd:wcscat.obj
 0001:0008f030       wcscpy                     0000000180090030 f   libucrtd:wcscpy.obj
 0001:0008f7e0       ??$open_file@AEBQEBDAEBQEBDAEBHPEAU_iobuf@@@?$__crt_char_traits@D@@SAPEAU_iobuf@@AEBQEBD0AEBH$$QEAPEAU1@@Z 00000001800907e0 f i libucrtd:fopen.obj
 0001:0008f830       ??$open_file@AEBQEB_WAEBQEB_WAEBHPEAU_iobuf@@@?$__crt_char_traits@_W@@SAPEAU_iobuf@@AEBQEB_W0AEBH$$QEAPEAU1@@Z 0000000180090830 f i libucrtd:fopen.obj
 0001:0008f880       ?unlock@__crt_stdio_stream@@QEBAXXZ 0000000180090880 f i libucrtd:fopen.obj
 0001:0008f8a0       _fsopen                    00000001800908a0 f   libucrtd:fopen.obj
 0001:0008f8d0       _wfopen                    00000001800908d0 f   libucrtd:fopen.obj
 0001:0008f900       _wfopen_s                  0000000180090900 f   libucrtd:fopen.obj
 0001:0008f930       _wfsopen                   0000000180090930 f   libucrtd:fopen.obj
 0001:0008f960       fopen                      0000000180090960 f   libucrtd:fopen.obj
 0001:0008f990       fopen_s                    0000000180090990 f   libucrtd:fopen.obj
 0001:0008f9c0       ?is_in_use@__crt_stdio_stream@@QEBA_NXZ 00000001800909c0 f i libucrtd:fclose.obj
 0001:0008fa00       _fclose_nolock             0000000180090a00 f   libucrtd:fclose.obj
 0001:0008fb90       fclose                     0000000180090b90 f   libucrtd:fclose.obj
 0001:0008fcd0       _fputc_nolock              0000000180090cd0 f   libucrtd:fputc.obj
 0001:0008fd80       _fputchar                  0000000180090d80 f   libucrtd:fputc.obj
 0001:0008fdb0       _putc_nolock               0000000180090db0 f   libucrtd:fputc.obj
 0001:0008fdd0       fputc                      0000000180090dd0 f   libucrtd:fputc.obj
 0001:00090070       putc                       0000000180091070 f   libucrtd:fputc.obj
 0001:00090090       putchar                    0000000180091090 f   libucrtd:fputc.obj
 0001:00090120       _seh_filter_dll            0000000180091120 f   libucrtd:exception_filter.obj
 0001:00090150       _seh_filter_exe            0000000180091150 f   libucrtd:exception_filter.obj
 0001:000903f0       ??$?B$$A6AXPEAXK0@Z@__crt_fast_encoded_nullptr_t@@QEBAP6AXPEAXK0@ZXZ 00000001800913f0 f i libucrtd:exit.obj
 0001:000904a0       ??$__crt_fast_decode_pointer@P6AXPEAXK0@Z@@YAP6AXPEAXK0@ZQ6AX0K0@Z@Z 00000001800914a0 f i libucrtd:exit.obj
 0001:000904e0       ??$__crt_fast_encode_pointer@P6AXPEAXK0@Z@@YAP6AXPEAXK0@ZQ6AX0K0@Z@Z 00000001800914e0 f i libucrtd:exit.obj
 0001:00090520       ??$__crt_get_proc_address@P6AXI@Z@@YAP6AXI@ZQEAUHINSTANCE__@@QEBD@Z 0000000180091520 f i libucrtd:exit.obj
 0001:000905e0       ??0?$__crt_unique_handle_t@U__crt_hmodule_traits@@@@QEAA@QEAUHINSTANCE__@@@Z 00000001800915e0 f i libucrtd:exit.obj
 0001:00090600       ??1?$__crt_unique_handle_t@U__crt_hmodule_traits@@@@QEAA@XZ 0000000180091600 f i libucrtd:exit.obj
 0001:00090760       ?__acrt_select_exit_lock@@YA?AW4__acrt_lock_id@@XZ 0000000180091760 f i libucrtd:exit.obj
 0001:00090770       ?__crt_fast_encode_pointer@@YA?AU__crt_fast_encoded_nullptr_t@@$$T@Z 0000000180091770 f i libucrtd:exit.obj
 0001:000907b0       ?close@?$__crt_unique_handle_t@U__crt_hmodule_traits@@@@QEAAXXZ 00000001800917b0 f i libucrtd:exit.obj
 0001:000907f0       ?close@__crt_hmodule_traits@@SA_NPEAUHINSTANCE__@@@Z 00000001800917f0 f i libucrtd:exit.obj
 0001:00090900       ?get@?$__crt_unique_handle_t@U__crt_hmodule_traits@@@@QEBAPEAUHINSTANCE__@@XZ 0000000180091900 f i libucrtd:exit.obj
 0001:00090910       ?get_address_of@?$__crt_unique_handle_t@U__crt_hmodule_traits@@@@QEAAPEAPEAUHINSTANCE__@@XZ 0000000180091910 f i libucrtd:exit.obj
 0001:00090920       ?get_invalid_value@__crt_hmodule_traits@@SAPEAUHINSTANCE__@@XZ 0000000180091920 f i libucrtd:exit.obj
 0001:00090ae0       _Exit                      0000000180091ae0 f   libucrtd:exit.obj
 0001:00090b00       __acrt_initialize_thread_local_exit_callback 0000000180091b00 f   libucrtd:exit.obj
 0001:00090b20       _c_exit                    0000000180091b20 f   libucrtd:exit.obj
 0001:00090b40       _cexit                     0000000180091b40 f   libucrtd:exit.obj
 0001:00090b60       _exit                      0000000180091b60 f   libucrtd:exit.obj
 0001:00090b80       _is_c_termination_complete 0000000180091b80 f   libucrtd:exit.obj
 0001:00090ba0       _register_thread_local_exe_atexit_callback 0000000180091ba0 f   libucrtd:exit.obj
 0001:00090bf0       exit                       0000000180091bf0 f   libucrtd:exit.obj
 0001:00090c10       quick_exit                 0000000180091c10 f   libucrtd:exit.obj
 0001:00090c30       ??$?RE@__crt_internal_free_policy@@QEBAXQEBE@Z 0000000180091c30 f i libucrtd:argv_parsing.obj
 0001:00090c60       ??$?RPEAD@__crt_internal_free_policy@@QEBAXQEBQEAD@Z 0000000180091c60 f i libucrtd:argv_parsing.obj
 0001:00090c90       ??$?RPEA_W@__crt_internal_free_policy@@QEBAXQEBQEA_W@Z 0000000180091c90 f i libucrtd:argv_parsing.obj
 0001:000913e0       ??$get_module_file_name@$$TAEAY0BAF@DH@?$__crt_char_traits@D@@SAK$$QEA$$TAEAY0BAF@D$$QEAH@Z 00000001800923e0 f i libucrtd:argv_parsing.obj
 0001:00091420       ??$get_module_file_name@$$TAEAY0BAF@_WH@?$__crt_char_traits@_W@@SAK$$QEA$$TAEAY0BAF@_W$$QEAH@Z 0000000180092420 f i libucrtd:argv_parsing.obj
 0001:00091dd0       ??$set_program_name@PEAD@?$__crt_char_traits@D@@SAX$$QEAPEAD@Z 0000000180092dd0 f i libucrtd:argv_parsing.obj
 0001:00091df0       ??$set_program_name@PEA_W@?$__crt_char_traits@_W@@SAX$$QEAPEA_W@Z 0000000180092df0 f i libucrtd:argv_parsing.obj
 0001:00091e50       ??0?$__crt_unique_heap_ptr@EU__crt_internal_free_policy@@@@QEAA@QEAE@Z 0000000180092e50 f i libucrtd:argv_parsing.obj
 0001:00091e70       ??0?$__crt_unique_heap_ptr@PEADU__crt_internal_free_policy@@@@QEAA@QEAPEAD@Z 0000000180092e70 f i libucrtd:argv_parsing.obj
 0001:00091e90       ??0?$__crt_unique_heap_ptr@PEA_WU__crt_internal_free_policy@@@@QEAA@QEAPEA_W@Z 0000000180092e90 f i libucrtd:argv_parsing.obj
 0001:00091eb0       ??1?$__crt_unique_heap_ptr@EU__crt_internal_free_policy@@@@QEAA@XZ 0000000180092eb0 f i libucrtd:argv_parsing.obj
 0001:00091ed0       ??1?$__crt_unique_heap_ptr@PEADU__crt_internal_free_policy@@@@QEAA@XZ 0000000180092ed0 f i libucrtd:argv_parsing.obj
 0001:00091ef0       ??1?$__crt_unique_heap_ptr@PEA_WU__crt_internal_free_policy@@@@QEAA@XZ 0000000180092ef0 f i libucrtd:argv_parsing.obj
 0001:00091f10       ??B?$__crt_unique_heap_ptr@EU__crt_internal_free_policy@@@@QEBA_NXZ 0000000180092f10 f i libucrtd:argv_parsing.obj
 0001:00091ff0       ?detach@?$__crt_unique_heap_ptr@EU__crt_internal_free_policy@@@@QEAAPEAEXZ 0000000180092ff0 f i libucrtd:argv_parsing.obj
 0001:00092020       ?detach@?$__crt_unique_heap_ptr@PEADU__crt_internal_free_policy@@@@QEAAPEAPEADXZ 0000000180093020 f i libucrtd:argv_parsing.obj
 0001:00092050       ?detach@?$__crt_unique_heap_ptr@PEA_WU__crt_internal_free_policy@@@@QEAAPEAPEA_WXZ 0000000180093050 f i libucrtd:argv_parsing.obj
 0001:00092110       ?get@?$__crt_unique_heap_ptr@EU__crt_internal_free_policy@@@@QEBAPEAEXZ 0000000180093110 f i libucrtd:argv_parsing.obj
 0001:00092120       ?get@?$__crt_unique_heap_ptr@PEADU__crt_internal_free_policy@@@@QEBAPEAPEADXZ 0000000180093120 f i libucrtd:argv_parsing.obj
 0001:00092130       ?get@?$__crt_unique_heap_ptr@PEA_WU__crt_internal_free_policy@@@@QEBAPEAPEA_WXZ 0000000180093130 f i libucrtd:argv_parsing.obj
 0001:00092140       ?get_address_of@?$__crt_unique_heap_ptr@PEADU__crt_internal_free_policy@@@@QEAAPEAPEAPEADXZ 0000000180093140 f i libucrtd:argv_parsing.obj
 0001:00092150       ?get_address_of@?$__crt_unique_heap_ptr@PEA_WU__crt_internal_free_policy@@@@QEAAPEAPEAPEA_WXZ 0000000180093150 f i libucrtd:argv_parsing.obj
 0001:000921a0       ?is_valid@?$__crt_unique_heap_ptr@EU__crt_internal_free_policy@@@@QEBA_NXZ 00000001800931a0 f i libucrtd:argv_parsing.obj
 0001:000921d0       ?release@?$__crt_unique_heap_ptr@EU__crt_internal_free_policy@@@@QEAAXXZ 00000001800931d0 f i libucrtd:argv_parsing.obj
 0001:00092200       ?release@?$__crt_unique_heap_ptr@PEADU__crt_internal_free_policy@@@@QEAAXXZ 0000000180093200 f i libucrtd:argv_parsing.obj
 0001:00092230       ?release@?$__crt_unique_heap_ptr@PEA_WU__crt_internal_free_policy@@@@QEAAXXZ 0000000180093230 f i libucrtd:argv_parsing.obj
 0001:000922b0       __acrt_allocate_buffer_for_argv 00000001800932b0 f   libucrtd:argv_parsing.obj
 0001:000923d0       _configure_narrow_argv     00000001800933d0 f   libucrtd:argv_parsing.obj
 0001:000923f0       _configure_wide_argv       00000001800933f0 f   libucrtd:argv_parsing.obj
 0001:00092410       _set_pgmptr                0000000180093410 f i libucrtd:argv_parsing.obj
 0001:00092430       _set_wpgmptr               0000000180093430 f i libucrtd:argv_parsing.obj
 0001:00092444       ??$?R_W@__crt_internal_free_policy@@QEBAXQEB_W@Z 0000000180093444 f i libucrtd:environment_initialization.obj
 0001:00092a1c       ??$get_environment_from_os@$$V@?$__crt_char_traits@D@@SAPEADXZ 0000000180093a1c f i libucrtd:environment_initialization.obj
 0001:00092a24       ??$get_environment_from_os@$$V@?$__crt_char_traits@_W@@SAPEA_WXZ 0000000180093a24 f i libucrtd:environment_initialization.obj
 0001:00092bf4       ??$set_variable_in_environment_nolock@PEADH@?$__crt_char_traits@D@@SAH$$QEAPEAD$$QEAH@Z 0000000180093bf4 f i libucrtd:environment_initialization.obj
 0001:00092c00       ??$set_variable_in_environment_nolock@PEA_WH@?$__crt_char_traits@_W@@SAH$$QEAPEA_W$$QEAH@Z 0000000180093c00 f i libucrtd:environment_initialization.obj
 0001:00092c0c       ??$tcscpy_s@PEADAEB_KAEAPEAD@?$__crt_char_traits@D@@SAH$$QEAPEADAEB_KAEAPEAD@Z 0000000180093c0c f i libucrtd:environment_initialization.obj
 0001:00092c1c       ??$tcscpy_s@PEA_WAEB_KAEAPEA_W@?$__crt_char_traits@_W@@SAH$$QEAPEA_WAEB_KAEAPEA_W@Z 0000000180093c1c f i libucrtd:environment_initialization.obj
 0001:00092c2c       ??$tcslen@AEAPEAD@?$__crt_char_traits@D@@SA_KAEAPEAD@Z 0000000180093c2c f i libucrtd:environment_initialization.obj
 0001:00092c40       ??$tcslen@AEAPEA_W@?$__crt_char_traits@_W@@SA_KAEAPEA_W@Z 0000000180093c40 f i libucrtd:environment_initialization.obj
 0001:00092c54       ??$uninitialize@A6AXAEAPEAPEAD@Z@?$dual_state_global@PEAPEAD@__crt_state_management@@QEAAXA6AXAEAPEAPEAD@Z@Z 0000000180093c54 f i libucrtd:environment_initialization.obj
 0001:00092c98       ??$uninitialize@A6AXAEAPEAPEA_W@Z@?$dual_state_global@PEAPEA_W@__crt_state_management@@QEAAXA6AXAEAPEAPEA_W@Z@Z 0000000180093c98 f i libucrtd:environment_initialization.obj
 0001:00092d14       ??0?$__crt_unique_heap_ptr@_WU__crt_internal_free_policy@@@@QEAA@QEA_W@Z 0000000180093d14 f i libucrtd:environment_initialization.obj
 0001:00092d1c       ??1?$__crt_unique_heap_ptr@_WU__crt_internal_free_policy@@@@QEAA@XZ 0000000180093d1c f i libucrtd:environment_initialization.obj
 0001:00092d3c       ??B?$__crt_unique_heap_ptr@PEADU__crt_internal_free_policy@@@@QEBA_NXZ 0000000180093d3c f i libucrtd:environment_initialization.obj
 0001:00092d44       ??B?$__crt_unique_heap_ptr@PEA_WU__crt_internal_free_policy@@@@QEBA_NXZ 0000000180093d44 f i libucrtd:environment_initialization.obj
 0001:00092d4c       ??B?$__crt_unique_heap_ptr@_WU__crt_internal_free_policy@@@@QEBA_NXZ 0000000180093d4c f i libucrtd:environment_initialization.obj
 0001:00092d54       ?__crt_compute_required_transform_buffer_count@@YA_KIQEBD@Z 0000000180093d54 f i libucrtd:environment_initialization.obj
 0001:00092d78       ?__crt_compute_required_transform_buffer_count@@YA_KIQEB_W@Z 0000000180093d78 f i libucrtd:environment_initialization.obj
 0001:00092da8       ?__crt_transform_string@@YA_KIQEBDQEA_W_K@Z 0000000180093da8 f i libucrtd:environment_initialization.obj
 0001:00092dcc       ?__crt_transform_string@@YA_KIQEB_WQEAD_K@Z 0000000180093dcc f i libucrtd:environment_initialization.obj
 0001:00092dfc       ?detach@?$__crt_unique_heap_ptr@DU__crt_internal_free_policy@@@@QEAAPEADXZ 0000000180093dfc f i libucrtd:environment_initialization.obj
 0001:00092e04       ?detach@?$__crt_unique_heap_ptr@_WU__crt_internal_free_policy@@@@QEAAPEA_WXZ 0000000180093e04 f i libucrtd:environment_initialization.obj
 0001:00092e0c       ?get@?$__crt_unique_heap_ptr@_WU__crt_internal_free_policy@@@@QEBAPEA_WXZ 0000000180093e0c f i libucrtd:environment_initialization.obj
 0001:00092e40       ?initialize@?$dual_state_global@PEAPEAD@__crt_state_management@@QEAAXQEAPEAD@Z 0000000180093e40 f i libucrtd:environment_initialization.obj
 0001:00092e68       ?initialize@?$dual_state_global@PEAPEA_W@__crt_state_management@@QEAAXQEAPEA_W@Z 0000000180093e68 f i libucrtd:environment_initialization.obj
 0001:00092e90       ?is_valid@?$__crt_unique_heap_ptr@PEADU__crt_internal_free_policy@@@@QEBA_NXZ 0000000180093e90 f i libucrtd:environment_initialization.obj
 0001:00092e98       ?is_valid@?$__crt_unique_heap_ptr@PEA_WU__crt_internal_free_policy@@@@QEBA_NXZ 0000000180093e98 f i libucrtd:environment_initialization.obj
 0001:00092ea0       ?is_valid@?$__crt_unique_heap_ptr@_WU__crt_internal_free_policy@@@@QEBA_NXZ 0000000180093ea0 f i libucrtd:environment_initialization.obj
 0001:00092eb4       ?release@?$__crt_unique_heap_ptr@_WU__crt_internal_free_policy@@@@QEAAXXZ 0000000180093eb4 f i libucrtd:environment_initialization.obj
 0001:00092ed4       ?value@?$dual_state_global@PEAPEAD@__crt_state_management@@QEAAAEAPEAPEADXZ 0000000180093ed4 f i libucrtd:environment_initialization.obj
 0001:00092ed8       ?value@?$dual_state_global@PEAPEA_W@__crt_state_management@@QEAAAEAPEAPEA_WXZ 0000000180093ed8 f i libucrtd:environment_initialization.obj
 0001:00092edc       __dcrt_get_or_create_narrow_environment_nolock 0000000180093edc f   libucrtd:environment_initialization.obj
 0001:00092f18       __dcrt_get_or_create_wide_environment_nolock 0000000180093f18 f   libucrtd:environment_initialization.obj
 0001:00092f54       __dcrt_uninitialize_environments_nolock 0000000180093f54 f   libucrtd:environment_initialization.obj
 0001:00092f8c       __p__environ               0000000180093f8c f   libucrtd:environment_initialization.obj
 0001:00092f94       __p__wenviron              0000000180093f94 f   libucrtd:environment_initialization.obj
 0001:00092f9c       _get_initial_narrow_environment 0000000180093f9c f   libucrtd:environment_initialization.obj
 0001:00092fec       _get_initial_wide_environment 0000000180093fec f   libucrtd:environment_initialization.obj
 0001:0009303c       _initialize_narrow_environment 000000018009403c f   libucrtd:environment_initialization.obj
 0001:00093044       _initialize_wide_environment 0000000180094044 f   libucrtd:environment_initialization.obj
 0001:00093050       ??$?B$$A6AXXZ@__crt_fast_encoded_nullptr_t@@QEBAP6AXXZXZ 0000000180094050 f i libucrtd:onexit.obj
 0001:00093070       ??$?BP6AXXZ@__crt_fast_encoded_nullptr_t@@QEBAPEAP6AXXZXZ 0000000180094070 f i libucrtd:onexit.obj
 0001:00093090       ??$?RP6AXXZ@__crt_internal_free_policy@@QEBAXQEBQ6AXXZ@Z 0000000180094090 f i libucrtd:onexit.obj
 0001:00093200       ??$__crt_fast_decode_pointer@P6AXXZ@@YAP6AXXZQ6AXXZ@Z 0000000180094200 f i libucrtd:onexit.obj
