 OPOSCoinAcceptor

 Timestamp is 5ed457b1 (Mon Jun  1 10:19:45 2020)

 Preferred load address is 0000000180000000

 Start         Length     Name                   Class
 0001:00000000 00001400H .text$di                CODE
 0001:00001400 000d4e20H .text$mn                CODE
 0001:000d6220 00000040H .text$mn$00             CODE
 0001:000d6260 00001390H .text$x                 CODE
 0001:000d75f0 000001b4H .text$yd                CODE
 0002:00000000 000006d8H .idata$5                DATA
 0002:000006d8 00000028H .00cfg                  DATA
 0002:00000700 00000008H .CRT$XCA                DATA
 0002:00000708 00000008H .CRT$XCL                DATA
 0002:00000710 000000d8H .CRT$XCU                DATA
 0002:000007e8 00000008H .CRT$XCZ                DATA
 0002:000007f0 00000008H .CRT$XIA                DATA
 0002:000007f8 00000028H .CRT$XIC                DATA
 0002:00000820 00000008H .CRT$XIZ                DATA
 0002:00000828 00000008H .CRT$XLA                DATA
 0002:00000830 00000008H .CRT$XLZ                DATA
 0002:00000838 00000008H .CRT$XPA                DATA
 0002:00000840 00000010H .CRT$XPX                DATA
 0002:00000850 00000008H .CRT$XPXA               DATA
 0002:00000858 00000008H .CRT$XPZ                DATA
 0002:00000860 00000008H .CRT$XTA                DATA
 0002:00000868 00000008H .CRT$XTZ                DATA
 0002:00000870 00000000H .gfids$y                DATA
 0002:00000870 0003ba40H .rdata                  DATA
 0002:0003c2b0 00000028H .rdata$T                DATA
 0002:0003c2d8 0000056cH .rdata$r                DATA
 0002:0003c844 00000434H .rdata$zzzdbg           DATA
 0002:0003cc78 00000008H .rtc$IAA                DATA
 0002:0003cc80 00000030H .rtc$IMZ                DATA
 0002:0003ccb0 00000008H .rtc$IZZ                DATA
 0002:0003ccb8 00000008H .rtc$TAA                DATA
 0002:0003ccc0 00000030H .rtc$TMZ                DATA
 0002:0003ccf0 00000008H .rtc$TZZ                DATA
 0002:0003ccf8 00000004H .tls                    DATA
 0002:0003ccfc 00000004H .tls$                   DATA
 0002:0003cd00 00000010H .tls$ZZZ                DATA
 0002:0003cd10 000097d8H .xdata                  DATA
 0002:000464e8 00000150H .xdata$x                DATA
 0002:00046638 00000008H ATL$__a                 DATA
 0002:00046640 00000010H ATL$__z                 DATA
 0002:00046650 000000b0H .edata                  DATA
 0002:00046700 00000078H .idata$2                DATA
 0002:00046778 00000018H .idata$3                DATA
 0002:00046790 000006d8H .idata$4                DATA
 0002:00046e68 00000dbeH .idata$6                DATA
 0003:00000000 00000ed8H .data                   DATA
 0003:00000ed8 00000198H .data$r                 DATA
 0003:00001070 00003e9cH .bss                    DATA
 0004:00000000 0000c18cH .pdata                  DATA
 0005:00000000 00000094H _RDATA                  DATA
 0006:00000000 00000220H .rsrc$01                DATA
 0006:00000220 000040d8H .rsrc$02                DATA

  Address         Publics by Value              Rva+Base               Lib:Object

 0000:00000000       ___safe_se_handler_table   0000000000000000     <absolute>
 0000:00000000       __guard_fids_count         0000000000000000     <absolute>
 0000:00000000       __guard_eh_cont_count      0000000000000000     <absolute>
 0000:00000000       __arm64x_redirection_metadata 0000000000000000     <absolute>
 0000:00000000       __guard_iat_table          0000000000000000     <absolute>
 0000:00000000       __hybrid_code_map          0000000000000000     <absolute>
 0000:00000000       __hybrid_code_map_count    0000000000000000     <absolute>
 0000:00000000       __guard_longjmp_table      0000000000000000     <absolute>
 0000:00000000       __guard_eh_cont_table      0000000000000000     <absolute>
 0000:00000000       __volatile_metadata        0000000000000000     <absolute>
 0000:00000000       ___safe_se_handler_count   0000000000000000     <absolute>
 0000:00000000       __hybrid_auxiliary_iat     0000000000000000     <absolute>
 0000:00000000       __dynamic_value_reloc_table 0000000000000000     <absolute>
 0000:00000000       __x64_code_ranges_to_entry_points 0000000000000000     <absolute>
 0000:00000000       __enclave_config           0000000000000000     <absolute>
 0000:00000000       __guard_longjmp_count      0000000000000000     <absolute>
 0000:00000000       __arm64x_native_entrypoint 0000000000000000     <absolute>
 0000:00000000       __AbsoluteZero             0000000000000000     <absolute>
 0000:00000000       __guard_fids_table         0000000000000000     <absolute>
 0000:00000000       __guard_iat_count          0000000000000000     <absolute>
 0000:00000100       __guard_flags              0000000000000100     <absolute>
 0000:00000000       __ImageBase                0000000180000000     <linker-defined>
 0001:00001400       ?_assert@@YAXPEB_W0I@Z     0000000180002400 f   Assert.obj
 0001:00001500       __local_stdio_printf_options 0000000180002500 f i Assert.obj
 0001:00001510       __vswprintf_l              0000000180002510 f i Assert.obj
 0001:00001570       _swprintf                  0000000180002570 f i Assert.obj
 0001:000015f0       _vswprintf_c_l             00000001800025f0 f i Assert.obj
 0001:00001680       _vswprintf_l               0000000180002680 f i Assert.obj
 0001:000016e0       ?cw_memcpy@@YAHPEADPEB_WH@Z 00000001800026e0 f   CWString.obj
 0001:00001770       ?cw_memcpy@@YAHPEA_WPEBDH@Z 0000000180002770 f   CWString.obj
 0001:000017f0       ?cw_memcpy@@YAHPEADPEBDH@Z 00000001800027f0 f   CWString.obj
 0001:00001890       ?cw_memcpy@@YAHPEA_WPEB_WH@Z 0000000180002890 f   CWString.obj
 0001:00001900       ?cw_memset@@YAXPEADDH@Z    0000000180002900 f   CWString.obj
 0001:00001970       ?cw_memset@@YAXPEA_W_WH@Z  0000000180002970 f   CWString.obj
 0001:00001a10       ?cw_strlen@@YAHPEBD@Z      0000000180002a10 f   CWString.obj
 0001:00001a80       ?cw_strlen@@YAHPEB_W@Z     0000000180002a80 f   CWString.obj
 0001:00001af0       ?cw_strcpy@@YAHPEADPEB_W@Z 0000000180002af0 f   CWString.obj
 0001:00001b40       ?cw_strcpy@@YAHPEA_WPEBD@Z 0000000180002b40 f   CWString.obj
 0001:00001b90       ?cw_strcpy@@YAHPEADPEBD@Z  0000000180002b90 f   CWString.obj
 0001:00001be0       ?cw_strcpy@@YAHPEA_WPEB_W@Z 0000000180002be0 f   CWString.obj
 0001:00001c30       ?cw_strcat@@YAHPEADPEB_W@Z 0000000180002c30 f   CWString.obj
 0001:00001c90       ?cw_strcat@@YAHPEA_WPEBD@Z 0000000180002c90 f   CWString.obj
 0001:00001cf0       ?cw_strcat@@YAHPEADPEBD@Z  0000000180002cf0 f   CWString.obj
 0001:00001d50       ?cw_strcat@@YAHPEA_WPEB_W@Z 0000000180002d50 f   CWString.obj
 0001:00001db0       ?cw_dup@@YAXPEBDAEAHAEAPEA_W1@Z 0000000180002db0 f   CWString.obj
 0001:00001ec0       ?cw_dup@@YAXPEB_WAEAHAEAPEAD1@Z 0000000180002ec0 f   CWString.obj
 0001:00001fb0       ?DupChar@_CW@@AEAAXXZ      0000000180002fb0 f   CWString.obj
 0001:00002010       ?DupWide@_CW@@AEAAXXZ      0000000180003010 f   CWString.obj
 0001:00002080       ?GetCharsMbcs@_CW@@QEAAHXZ 0000000180003080 f   CWString.obj
 0001:000020f0       ?GetCharsWide@_CW@@QEAAHXZ 00000001800030f0 f   CWString.obj
 0001:00002160       ?SetVARIANT_BOOL@OposVariant@@QEAAXF@Z 0000000180003160 f   OposVariant.obj
 0001:000021d0       ?SetVARIANT_BOOL_Ptr@OposVariant@@QEAAXPEAFAEAJ@Z 00000001800031d0 f   OposVariant.obj
 0001:00002240       ?GetLONG@OposVariant@@QEAAJXZ 0000000180003240 f   OposVariant.obj
 0001:000022a0       ?ChangeLONG@OposVariant@@QEAAXPEAJAEAJ@Z 00000001800032a0 f   OposVariant.obj
 0001:00002350       ?SetLONG@OposVariant@@QEAAXJ@Z 0000000180003350 f   OposVariant.obj
 0001:000023b0       ?SetLONG_Ptr@OposVariant@@QEAAXPEAJAEAJ@Z 00000001800033b0 f   OposVariant.obj
 0001:00002420       ?ChangeCURRENCY@OposVariant@@QEAAXPEATtagCY@@AEAJ@Z 0000000180003420 f   OposVariant.obj
 0001:000024d0       ?SetCURRENCY@OposVariant@@QEAAXTtagCY@@@Z 00000001800034d0 f   OposVariant.obj
 0001:00002530       ?SetCURRENCY_Ptr@OposVariant@@QEAAXPEATtagCY@@AEAJ@Z 0000000180003530 f   OposVariant.obj
 0001:000025a0       ?ChangeBSTR@OposVariant@@QEAAXPEAPEA_WAEAJ@Z 00000001800035a0 f   OposVariant.obj
 0001:00002650       ?SetBSTR@OposVariant@@QEAAXPEA_WAEAJ@Z 0000000180003650 f   OposVariant.obj
 0001:000026d0       ?SetBSTR_Copy@OposVariant@@QEAAXPEA_WAEAJ@Z 00000001800036d0 f   OposVariant.obj
 0001:00002780       ?SetBSTR_OutPtr@OposVariant@@QEAA_NPEAPEA_WAEAJ@Z 0000000180003780 f   OposVariant.obj
 0001:000027f0       ?SetBSTR_InOutPtr@OposVariant@@QEAA_NPEAPEA_WAEAJ@Z 00000001800037f0 f   OposVariant.obj
 0001:00002870       ?SetVARIANT@OposVariant@@QEAAXAEAUtagVARIANT@@GAEAJ@Z 0000000180003870 f   OposVariant.obj
 0001:00002910       ?SetVARIANT_Ptr@OposVariant@@QEAAXAEAPEAUtagVARIANT@@GAEAJ@Z 0000000180003910 f   OposVariant.obj
 0001:000029c0       ?SetString@OposVariant@@QEAAXPEB_WAEAJ@Z 00000001800039c0 f   OposVariant.obj
 0001:00002a70       ?SetDispatch_Ptr@OposVariant@@QEAAXPEAUIDispatch@@AEAJ@Z 0000000180003a70 f   OposVariant.obj
 0001:00002b00       ??0OposDispParms@@QEAA@PEAVOposVariant@@H@Z 0000000180003b00 f   OposVariant.obj
 0001:00002c10       ??1OposDispParms@@QEAA@XZ  0000000180003c10 f   OposVariant.obj
 0001:00002c60       ??$AtlMultiply@_K@ATL@@YAJPEA_K_K1@Z 0000000180003c60 f i OposVariant.obj
 0001:00002ce0       ??0?$CHeapPtr@_WVCCRTAllocator@ATL@@@ATL@@QEAA@XZ 0000000180003ce0 f i OposVariant.obj
 0001:00002d20       ??0?$CHeapPtrBase@_WVCCRTAllocator@ATL@@@ATL@@IEAA@XZ 0000000180003d20 f i OposVariant.obj
 0001:00002d40       ??0?$CSimpleArray@GV?$CSimpleArrayEqualHelper@G@ATL@@@ATL@@QEAA@XZ 0000000180003d40 f i OposVariant.obj
 0001:00002d80       ??0?$CTraceCategoryEx@$00$0A@@ATL@@QEAA@PEB_W@Z 0000000180003d80 f i OposVariant.obj
 0001:00002dc0       ??0?$CTraceCategoryEx@$01$0A@@ATL@@QEAA@PEB_W@Z 0000000180003dc0 f i OposVariant.obj
 0001:00002e00       ??0?$CTraceCategoryEx@$03$0A@@ATL@@QEAA@PEB_W@Z 0000000180003e00 f i OposVariant.obj
 0001:00002e40       ??0?$CTraceCategoryEx@$07$0A@@ATL@@QEAA@PEB_W@Z 0000000180003e40 f i OposVariant.obj
 0001:00002e80       ??0?$CTraceCategoryEx@$0BA@$0A@@ATL@@QEAA@PEB_W@Z 0000000180003e80 f i OposVariant.obj
 0001:00002ec0       ??0?$CTraceCategoryEx@$0BAA@$0A@@ATL@@QEAA@PEB_W@Z 0000000180003ec0 f i OposVariant.obj
 0001:00002f00       ??0?$CTraceCategoryEx@$0BAAA@$0A@@ATL@@QEAA@PEB_W@Z 0000000180003f00 f i OposVariant.obj
 0001:00002f40       ??0?$CTraceCategoryEx@$0BAAAA@$0A@@ATL@@QEAA@PEB_W@Z 0000000180003f40 f i OposVariant.obj
 0001:00002f80       ??0?$CTraceCategoryEx@$0BAAAAA@$0A@@ATL@@QEAA@PEB_W@Z 0000000180003f80 f i OposVariant.obj
 0001:00002fc0       ??0?$CTraceCategoryEx@$0CA@$0A@@ATL@@QEAA@PEB_W@Z 0000000180003fc0 f i OposVariant.obj
 0001:00003000       ??0?$CTraceCategoryEx@$0CAA@$0A@@ATL@@QEAA@PEB_W@Z 0000000180004000 f i OposVariant.obj
 0001:00003040       ??0?$CTraceCategoryEx@$0CAAA@$0A@@ATL@@QEAA@PEB_W@Z 0000000180004040 f i OposVariant.obj
 0001:00003080       ??0?$CTraceCategoryEx@$0CAAAA@$0A@@ATL@@QEAA@PEB_W@Z 0000000180004080 f i OposVariant.obj
 0001:000030c0       ??0?$CTraceCategoryEx@$0CAAAAA@$0A@@ATL@@QEAA@PEB_W@Z 00000001800040c0 f i OposVariant.obj
 0001:00003100       ??0?$CTraceCategoryEx@$0EA@$0A@@ATL@@QEAA@PEB_W@Z 0000000180004100 f i OposVariant.obj
 0001:00003140       ??0?$CTraceCategoryEx@$0EAA@$0A@@ATL@@QEAA@PEB_W@Z 0000000180004140 f i OposVariant.obj
 0001:00003180       ??0?$CTraceCategoryEx@$0EAAA@$0A@@ATL@@QEAA@PEB_W@Z 0000000180004180 f i OposVariant.obj
 0001:000031c0       ??0?$CTraceCategoryEx@$0EAAAA@$0A@@ATL@@QEAA@PEB_W@Z 00000001800041c0 f i OposVariant.obj
 0001:00003200       ??0?$CTraceCategoryEx@$0EAAAAA@$0A@@ATL@@QEAA@PEB_W@Z 0000000180004200 f i OposVariant.obj
 0001:00003240       ??0?$CTraceCategoryEx@$0IA@$0A@@ATL@@QEAA@PEB_W@Z 0000000180004240 f i OposVariant.obj
 0001:00003280       ??0?$CTraceCategoryEx@$0IAA@$0A@@ATL@@QEAA@PEB_W@Z 0000000180004280 f i OposVariant.obj
 0001:000032c0       ??0?$CTraceCategoryEx@$0IAAA@$0A@@ATL@@QEAA@PEB_W@Z 00000001800042c0 f i OposVariant.obj
 0001:00003300       ??0?$CTraceCategoryEx@$0IAAAA@$0A@@ATL@@QEAA@PEB_W@Z 0000000180004300 f i OposVariant.obj
 0001:00003340       ??0CAtlComModule@ATL@@QEAA@XZ 0000000180004340 f i OposVariant.obj
 0001:00003460       ??0CAtlWinModule@ATL@@QEAA@XZ 0000000180004460 f i OposVariant.obj
 0001:00003510       ??0CComCriticalSection@ATL@@QEAA@XZ 0000000180004510 f i OposVariant.obj
 0001:00003550       ??0CPreserveLastError@ATL@@QEAA@XZ 0000000180004550 f i OposVariant.obj
 0001:00003590       ??0CTraceFileAndLineInfo@ATL@@QEAA@PEBDH@Z 0000000180004590 f i OposVariant.obj
 0001:000035c0       ??0_ATL_COM_MODULE70@ATL@@QEAA@XZ 00000001800045c0 f i OposVariant.obj
 0001:00003600       ??0_ATL_WIN_MODULE70@ATL@@QEAA@XZ 0000000180004600 f i OposVariant.obj
 0001:00003650       ??1?$CHeapPtr@_WVCCRTAllocator@ATL@@@ATL@@QEAA@XZ 0000000180004650 f i OposVariant.obj
 0001:00003680       ??1?$CHeapPtrBase@_WVCCRTAllocator@ATL@@@ATL@@QEAA@XZ 0000000180004680 f i OposVariant.obj
 0001:000036b0       ??1?$CSimpleArray@GV?$CSimpleArrayEqualHelper@G@ATL@@@ATL@@QEAA@XZ 00000001800046b0 f i OposVariant.obj
 0001:000036e0       ??1CAtlComModule@ATL@@QEAA@XZ 00000001800046e0 f i OposVariant.obj
 0001:00003720       ??1CAtlWinModule@ATL@@QEAA@XZ 0000000180004720 f i OposVariant.obj
 0001:00003760       ??1CComBSTR@ATL@@QEAA@XZ   0000000180004760 f i OposVariant.obj
 0001:000037a0       ??1CComCriticalSection@ATL@@QEAA@XZ 00000001800047a0 f i OposVariant.obj
 0001:000037b0       ??1CPreserveLastError@ATL@@QEAA@XZ 00000001800047b0 f i OposVariant.obj
 0001:000037f0       ??1_ATL_COM_MODULE70@ATL@@QEAA@XZ 00000001800047f0 f i OposVariant.obj
 0001:00003830       ??1_ATL_WIN_MODULE70@ATL@@QEAA@XZ 0000000180004830 f i OposVariant.obj
 0001:00003880       ??1stringdispid@CComTypeInfoHolder@ATL@@QEAA@XZ 0000000180004880 f i OposVariant.obj
 0001:000038c0       ??A?$CSimpleArray@GV?$CSimpleArrayEqualHelper@G@ATL@@@ATL@@QEAAAEAGH@Z 00000001800048c0 f i OposVariant.obj
 0001:00003970       ??B?$CHeapPtrBase@_WVCCRTAllocator@ATL@@@ATL@@QEBAPEA_WXZ 0000000180004970 f i OposVariant.obj
 0001:00003980       ??B?$CTraceCategoryEx@$01$0A@@ATL@@QEAAIXZ 0000000180004980 f i OposVariant.obj
 0001:00003990       ??B?$CTraceCategoryEx@$0CA@$0A@@ATL@@QEAAIXZ 0000000180004990 f i OposVariant.obj
 0001:000039a0       ??RCTraceFileAndLineInfo@ATL@@QEBAXHIPEB_WZZ 00000001800049a0 f i OposVariant.obj
 0001:00003a50       ??_Estringdispid@CComTypeInfoHolder@ATL@@QEAAPEAXI@Z 0000000180004a50 f i OposVariant.obj
 0001:00003b00       ??_H@YAXPEAX_K1P6APEAX0@Z@Z 0000000180004b00 f i OposVariant.obj
 0001:00003b90       ??_I@YAXPEAX_K1P6AX0@Z@Z   0000000180004b90 f i OposVariant.obj
 0001:00003c40       ?Allocate@?$CHeapPtr@_WVCCRTAllocator@ATL@@@ATL@@QEAA_N_K@Z 0000000180004c40 f i OposVariant.obj
 0001:00003cc0       ?Allocate@CCRTAllocator@ATL@@SAPEAX_K@Z 0000000180004cc0 f i OposVariant.obj
 0001:00003cf0       ?AllocateBytes@?$CHeapPtrBase@_WVCCRTAllocator@ATL@@@ATL@@QEAA_N_K@Z 0000000180004cf0 f i OposVariant.obj
 0001:00003d90       ?AtlWinModuleInit@ATL@@YAJPEAU_ATL_WIN_MODULE70@1@@Z 0000000180004d90 f i OposVariant.obj
 0001:00003e90       ?AtlWinModuleTerm@ATL@@YAJPEAU_ATL_WIN_MODULE70@1@PEAUHINSTANCE__@@@Z 0000000180004e90 f i OposVariant.obj
 0001:00003f80       ?Clear@OposVariant@@QEAAJXZ 0000000180004f80 f i OposVariant.obj
 0001:00003fc0       ?Free@?$CHeapPtrBase@_WVCCRTAllocator@ATL@@@ATL@@QEAAXXZ 0000000180004fc0 f i OposVariant.obj
 0001:00004000       ?Free@CCRTAllocator@ATL@@SAXPEAX@Z 0000000180005000 f i OposVariant.obj
 0001:00004030       ?GetCategoryName@CTrace@ATL@@CAPEA_WI@Z 0000000180005030 f i OposVariant.obj
 0001:000040b0       ?GetModuleInstance@CAtlBaseModule@ATL@@QEAAPEAUHINSTANCE__@@XZ 00000001800050b0 f i OposVariant.obj
 0001:000040d0       ?GetSize@?$CSimpleArray@GV?$CSimpleArrayEqualHelper@G@ATL@@@ATL@@QEBAHXZ 00000001800050d0 f i OposVariant.obj
 0001:000040e0       ?Init@CComCriticalSection@ATL@@QEAAJXZ 00000001800050e0 f i OposVariant.obj
 0001:00004140       ?RegisterCategory@CTrace@ATL@@SAXPEB_WI@Z 0000000180005140 f i OposVariant.obj
 0001:00004220       ?RemoveAll@?$CSimpleArray@GV?$CSimpleArrayEqualHelper@G@ATL@@@ATL@@QEAAXXZ 0000000180005220 f i OposVariant.obj
 0001:000042b0       ?Term@CAtlComModule@ATL@@QEAAXXZ 00000001800052b0 f i OposVariant.obj
 0001:00004390       ?Term@CAtlWinModule@ATL@@QEAAXXZ 0000000180005390 f i OposVariant.obj
 0001:000043d0       ?Term@CComCriticalSection@ATL@@QEAAJXZ 00000001800053d0 f i OposVariant.obj
 0001:00004410       ?TraceV@CTrace@ATL@@CAXPEBDHIIPEB_W@Z 0000000180005410 f i OposVariant.obj
 0001:000046c0       ?TraceV@CTrace@ATL@@SAXPEBDHIIPEB_WPEAD@Z 00000001800056c0 f i OposVariant.obj
 0001:00004870       ?_AtlInitializeCriticalSectionEx@ATL@@YAHPEAU_RTL_CRITICAL_SECTION@@KK@Z 0000000180005870 f i OposVariant.obj
 0001:000048c0       ?_AtlRaiseException@ATL@@YAXKK@Z 00000001800058c0 f i OposVariant.obj
 0001:00004900       HRESULT_FROM_WIN32         0000000180005900 f i OposVariant.obj
 0001:00004950       _vswprintf_s_l             0000000180005950 f i OposVariant.obj
 0001:000049e0       swprintf_s                 00000001800059e0 f i OposVariant.obj
 0001:00004a70       ?ObjectMain@CComObjectRootBase@ATL@@SAX_N@Z 0000000180005a70 f i CoinAcceptor.obj
 0001:00004a80       ?GetCategoryMap@CComObjectRootBase@ATL@@SAPEBU_ATL_CATMAP_ENTRY@2@XZ 0000000180005a80 f i CoinAcceptor.obj
 0001:00004a90       ?GetObjectDescription@?$CComCoClass@VCOPOSCoinAcceptor@@$1?CLSID_OPOSCoinAcceptor@@3U_GUID@@B@ATL@@SAPEB_WXZ 0000000180005a90 f i CoinAcceptor.obj
 0001:00004aa0       ?UpdateRegistry@COPOSCoinAcceptor@@SAJH@Z 0000000180005aa0 f i CoinAcceptor.obj
 0001:00004ae0       ?CreateInstance@?$CComCreator@V?$CComObjectCached@VCComClassFactory@ATL@@@ATL@@@ATL@@SAJPEAXAEBU_GUID@@PEAPEAX@Z 0000000180005ae0 f i CoinAcceptor.obj
 0001:00004cd0       ?CreateInstance@?$CComCreator2@V?$CComCreator@V?$CComObject@VCOPOSCoinAcceptor@@@ATL@@@ATL@@V?$CComCreator@V?$CComAggObject@VCOPOSCoinAcceptor@@@ATL@@@2@@ATL@@SAJPEAXAEBU_GUID@@PEAPEAX@Z 0000000180005cd0 f i CoinAcceptor.obj
 0001:00004ee0       DllGetClassObject          0000000180005ee0 f   CoinAcceptor.obj
 0001:00004f30       DllCanUnloadNow            0000000180005f30 f   CoinAcceptor.obj
 0001:00004f80       DllRegisterServer          0000000180005f80 f   CoinAcceptor.obj
 0001:00004fc0       DllUnregisterServer        0000000180005fc0 f   CoinAcceptor.obj
 0001:000051c0       DllMain                    00000001800061c0 f   CoinAcceptor.obj
 0001:00005240       ??$?2G@Wrapper@?$CSimpleArray@GV?$CSimpleArrayEqualHelper@G@ATL@@@ATL@@SAPEAX_KPEAG@Z 0000000180006240 f i CoinAcceptor.obj
 0001:00005260       ??$?2PEA_W@?$Wrapper@PEA_W@?$CSimpleMap@PEA_WPEA_WVCExpansionVectorEqualHelper@ATL@@@ATL@@SAPEAX_KPEAPEA_W@Z 0000000180006260 f i CoinAcceptor.obj
 0001:00005280       ??$?4UITypeInfo2@@@?$CComPtr@UITypeInfo@@@ATL@@QEAAPEAUITypeInfo@@AEBV?$CComPtr@UITypeInfo2@@@1@@Z 0000000180006280 f i CoinAcceptor.obj
 0001:000052f0       ??$AtlAdd@_K@ATL@@YAJPEA_K_K1@Z 00000001800062f0 f i CoinAcceptor.obj
 0001:00005360       ??$AtlAddThrow@_K@ATL@@YA_K_K0@Z 0000000180006360 f i CoinAcceptor.obj
 0001:000053d0       ??$AtlModuleRegisterWndClassInfoT@VAtlModuleRegisterWndClassInfoParamW@ATL@@@ATL@@YAGPEAU_ATL_BASE_MODULE70@0@PEAU_ATL_WIN_MODULE70@0@PEAU_ATL_WNDCLASSINFOW@0@PEAP6A_JPEAUHWND__@@I_K_J@ZVAtlModuleRegisterWndClassInfoParamW@0@@Z 00000001800063d0 f i CoinAcceptor.obj
 0001:000059a0       ??$AtlMultiply@H@ATL@@YAJPEAHHH@Z 00000001800069a0 f i CoinAcceptor.obj
 0001:00005a10       ??$AtlMultiply@K@ATL@@YAJPEAKKK@Z 0000000180006a10 f i CoinAcceptor.obj
 0001:00005a80       ??$AtlMultiplyThrow@_K@ATL@@YA_K_K0@Z 0000000180006a80 f i CoinAcceptor.obj
 0001:00005af0       ??$QueryInterface@UIPersistStream@@@IUnknown@@QEAAJPEAPEAUIPersistStream@@@Z 0000000180006af0 f i CoinAcceptor.obj
 0001:00005b40       ??$QueryInterface@UITypeInfo2@@@IUnknown@@QEAAJPEAPEAUITypeInfo2@@@Z 0000000180006b40 f i CoinAcceptor.obj
 0001:00005b90       ??0?$CAtlModuleT@VCComModule@ATL@@@ATL@@QEAA@XZ 0000000180006b90 f i CoinAcceptor.obj
 0001:00005bd0       ??0?$CAtlSafeAllocBufferManager@VCCRTAllocator@ATL@@@_ATL_SAFE_ALLOCA_IMPL@ATL@@QEAA@XZ 0000000180006bd0 f i CoinAcceptor.obj
 0001:00005bf0       ??0?$CAutoVectorPtr@_W@ATL@@QEAA@XZ 0000000180006bf0 f i CoinAcceptor.obj
 0001:00005c10       ??0?$CComAggObject@VCOPOSCoinAcceptor@@@ATL@@QEAA@PEAX@Z 0000000180006c10 f i CoinAcceptor.obj
 0001:00005ca0       ??0?$CComContainedObject@VCOPOSCoinAcceptor@@@ATL@@QEAA@PEAX@Z 0000000180006ca0 f i CoinAcceptor.obj
 0001:00005e40       ??0?$CComCritSecLock@VCComCriticalSection@ATL@@@ATL@@QEAA@AEAVCComCriticalSection@1@_N@Z 0000000180006e40 f i CoinAcceptor.obj
 0001:00005eb0       ??0?$CComEnum@UIEnumConnectionPoints@@$1?_GUID_b196b285_bab4_101a_b69c_00aa00341d07@@3U__s_GUID@@BPEAUIConnectionPoint@@V?$_CopyInterface@UIConnectionPoint@@@ATL@@VCComSingleThreadModel@6@@ATL@@QEAA@XZ 0000000180006eb0 f i CoinAcceptor.obj
 0001:00005f00       ??0?$CComEnum@UIEnumConnections@@$1?_GUID_b196b287_bab4_101a_b69c_00aa00341d07@@3U__s_GUID@@BUtagCONNECTDATA@@V?$_Copy@UtagCONNECTDATA@@@ATL@@VCComSingleThreadModel@6@@ATL@@QEAA@XZ 0000000180006f00 f i CoinAcceptor.obj
 0001:00005f50       ??0?$CComEnumImpl@UIEnumConnectionPoints@@$1?_GUID_b196b285_bab4_101a_b69c_00aa00341d07@@3U__s_GUID@@BPEAUIConnectionPoint@@V?$_CopyInterface@UIConnectionPoint@@@ATL@@@ATL@@QEAA@XZ 0000000180006f50 f i CoinAcceptor.obj
 0001:00005fd0       ??0?$CComEnumImpl@UIEnumConnections@@$1?_GUID_b196b287_bab4_101a_b69c_00aa00341d07@@3U__s_GUID@@BUtagCONNECTDATA@@V?$_Copy@UtagCONNECTDATA@@@ATL@@@ATL@@QEAA@XZ 0000000180006fd0 f i CoinAcceptor.obj
 0001:00006050       ??0?$CComObject@V?$CComEnum@UIEnumConnectionPoints@@$1?_GUID_b196b285_bab4_101a_b69c_00aa00341d07@@3U__s_GUID@@BPEAUIConnectionPoint@@V?$_CopyInterface@UIConnectionPoint@@@ATL@@VCComSingleThreadModel@6@@ATL@@@ATL@@QEAA@PEAX@Z 0000000180007050 f i CoinAcceptor.obj
 0001:000060b0       ??0?$CComObject@V?$CComEnum@UIEnumConnections@@$1?_GUID_b196b287_bab4_101a_b69c_00aa00341d07@@3U__s_GUID@@BUtagCONNECTDATA@@V?$_Copy@UtagCONNECTDATA@@@ATL@@VCComSingleThreadModel@6@@ATL@@@ATL@@QEAA@PEAX@Z 00000001800070b0 f i CoinAcceptor.obj
 0001:00006110       ??0?$CComObject@VCOPOSCoinAcceptor@@@ATL@@QEAA@PEAX@Z 0000000180007110 f i CoinAcceptor.obj
 0001:000062b0       ??0?$CComObjectCached@VCComClassFactory@ATL@@@ATL@@QEAA@PEAX@Z 00000001800072b0 f i CoinAcceptor.obj
 0001:00006300       ??0?$CComObjectRootEx@VCComMultiThreadModel@ATL@@@ATL@@QEAA@XZ 0000000180007300 f i CoinAcceptor.obj
 0001:00006350       ??0?$CComObjectRootEx@VCComSingleThreadModel@ATL@@@ATL@@QEAA@XZ 0000000180007350 f i CoinAcceptor.obj
 0001:00006390       ??0?$CComPtr@UIAdviseSink@@@ATL@@QEAA@PEAUIAdviseSink@@@Z 0000000180007390 f i CoinAcceptor.obj
 0001:000063d0       ??0?$CComPtr@UICatRegister@@@ATL@@QEAA@XZ 00000001800073d0 f i CoinAcceptor.obj
 0001:00006410       ??0?$CComPtr@UIConnectionPoint@@@ATL@@QEAA@XZ 0000000180007410 f i CoinAcceptor.obj
 0001:00006450       ??0?$CComPtr@UIConnectionPointContainer@@@ATL@@QEAA@XZ 0000000180007450 f i CoinAcceptor.obj
 0001:00006490       ??0?$CComPtr@UIDataObject@@@ATL@@QEAA@XZ 0000000180007490 f i CoinAcceptor.obj
 0001:000064d0       ??0?$CComPtr@UIDispatch@@@ATL@@QEAA@XZ 00000001800074d0 f i CoinAcceptor.obj
 0001:00006510       ??0?$CComPtr@UIOleClientSite@@@ATL@@QEAA@PEAUIOleClientSite@@@Z 0000000180007510 f i CoinAcceptor.obj
 0001:00006550       ??0?$CComPtr@UIOleControlSite@@@ATL@@QEAA@XZ 0000000180007550 f i CoinAcceptor.obj
 0001:00006590       ??0?$CComPtr@UIOleInPlaceActiveObject@@@ATL@@QEAA@XZ 0000000180007590 f i CoinAcceptor.obj
 0001:000065d0       ??0?$CComPtr@UIOleInPlaceFrame@@@ATL@@QEAA@XZ 00000001800075d0 f i CoinAcceptor.obj
 0001:00006610       ??0?$CComPtr@UIOleInPlaceObject@@@ATL@@QEAA@XZ 0000000180007610 f i CoinAcceptor.obj
 0001:00006650       ??0?$CComPtr@UIOleInPlaceUIWindow@@@ATL@@QEAA@XZ 0000000180007650 f i CoinAcceptor.obj
 0001:00006690       ??0?$CComPtr@UIOleObject@@@ATL@@QEAA@XZ 0000000180007690 f i CoinAcceptor.obj
 0001:000066d0       ??0?$CComPtr@UIPersistStream@@@ATL@@QEAA@XZ 00000001800076d0 f i CoinAcceptor.obj
 0001:00006710       ??0?$CComPtr@UIPersistStreamInit@@@ATL@@QEAA@XZ 0000000180007710 f i CoinAcceptor.obj
 0001:00006750       ??0?$CComPtr@UIPointerInactive@@@ATL@@QEAA@XZ 0000000180007750 f i CoinAcceptor.obj
 0001:00006790       ??0?$CComPtr@UIProvideClassInfo2@@@ATL@@QEAA@XZ 0000000180007790 f i CoinAcceptor.obj
 0001:000067d0       ??0?$CComPtr@UISpecifyPropertyPages@@@ATL@@QEAA@XZ 00000001800077d0 f i CoinAcceptor.obj
 0001:00006810       ??0?$CComPtr@UIStream@@@ATL@@QEAA@XZ 0000000180007810 f i CoinAcceptor.obj
 0001:00006850       ??0?$CComPtr@UITypeInfo2@@@ATL@@QEAA@XZ 0000000180007850 f i CoinAcceptor.obj
 0001:00006890       ??0?$CComPtr@UITypeInfo@@@ATL@@QEAA@AEBV01@@Z 0000000180007890 f i CoinAcceptor.obj
 0001:000068d0       ??0?$CComPtr@UITypeInfo@@@ATL@@QEAA@XZ 00000001800078d0 f i CoinAcceptor.obj
 0001:00006910       ??0?$CComPtr@UITypeLib@@@ATL@@QEAA@XZ 0000000180007910 f i CoinAcceptor.obj
 0001:00006950       ??0?$CComPtr@UIUnknown@@@ATL@@QEAA@AEBV01@@Z 0000000180007950 f i CoinAcceptor.obj
 0001:00006990       ??0?$CComPtr@UIUnknown@@@ATL@@QEAA@PEAUIUnknown@@@Z 0000000180007990 f i CoinAcceptor.obj
 0001:000069d0       ??0?$CComPtr@UIUnknown@@@ATL@@QEAA@XZ 00000001800079d0 f i CoinAcceptor.obj
 0001:00006a10       ??0?$CComPtr@UIViewObjectEx@@@ATL@@QEAA@XZ 0000000180007a10 f i CoinAcceptor.obj
 0001:00006a50       ??0?$CComPtrBase@UIAdviseSink@@@ATL@@IEAA@PEAUIAdviseSink@@@Z 0000000180007a50 f i CoinAcceptor.obj
 0001:00006ab0       ??0?$CComPtrBase@UICatRegister@@@ATL@@IEAA@XZ 0000000180007ab0 f i CoinAcceptor.obj
 0001:00006ad0       ??0?$CComPtrBase@UIConnectionPoint@@@ATL@@IEAA@XZ 0000000180007ad0 f i CoinAcceptor.obj
 0001:00006af0       ??0?$CComPtrBase@UIConnectionPointContainer@@@ATL@@IEAA@XZ 0000000180007af0 f i CoinAcceptor.obj
 0001:00006b10       ??0?$CComPtrBase@UIDataObject@@@ATL@@IEAA@XZ 0000000180007b10 f i CoinAcceptor.obj
 0001:00006b30       ??0?$CComPtrBase@UIDispatch@@@ATL@@IEAA@XZ 0000000180007b30 f i CoinAcceptor.obj
 0001:00006b50       ??0?$CComPtrBase@UIOleClientSite@@@ATL@@IEAA@PEAUIOleClientSite@@@Z 0000000180007b50 f i CoinAcceptor.obj
 0001:00006bb0       ??0?$CComPtrBase@UIOleControlSite@@@ATL@@IEAA@XZ 0000000180007bb0 f i CoinAcceptor.obj
 0001:00006bd0       ??0?$CComPtrBase@UIOleInPlaceActiveObject@@@ATL@@IEAA@XZ 0000000180007bd0 f i CoinAcceptor.obj
 0001:00006bf0       ??0?$CComPtrBase@UIOleInPlaceFrame@@@ATL@@IEAA@XZ 0000000180007bf0 f i CoinAcceptor.obj
 0001:00006c10       ??0?$CComPtrBase@UIOleInPlaceObject@@@ATL@@IEAA@XZ 0000000180007c10 f i CoinAcceptor.obj
 0001:00006c30       ??0?$CComPtrBase@UIOleInPlaceUIWindow@@@ATL@@IEAA@XZ 0000000180007c30 f i CoinAcceptor.obj
 0001:00006c50       ??0?$CComPtrBase@UIOleObject@@@ATL@@IEAA@XZ 0000000180007c50 f i CoinAcceptor.obj
 0001:00006c70       ??0?$CComPtrBase@UIPersistStream@@@ATL@@IEAA@XZ 0000000180007c70 f i CoinAcceptor.obj
 0001:00006c90       ??0?$CComPtrBase@UIPersistStreamInit@@@ATL@@IEAA@XZ 0000000180007c90 f i CoinAcceptor.obj
 0001:00006cb0       ??0?$CComPtrBase@UIPointerInactive@@@ATL@@IEAA@XZ 0000000180007cb0 f i CoinAcceptor.obj
 0001:00006cd0       ??0?$CComPtrBase@UIProvideClassInfo2@@@ATL@@IEAA@XZ 0000000180007cd0 f i CoinAcceptor.obj
 0001:00006cf0       ??0?$CComPtrBase@UISpecifyPropertyPages@@@ATL@@IEAA@XZ 0000000180007cf0 f i CoinAcceptor.obj
 0001:00006d10       ??0?$CComPtrBase@UIStream@@@ATL@@IEAA@XZ 0000000180007d10 f i CoinAcceptor.obj
 0001:00006d30       ??0?$CComPtrBase@UITypeInfo2@@@ATL@@IEAA@XZ 0000000180007d30 f i CoinAcceptor.obj
 0001:00006d50       ??0?$CComPtrBase@UITypeInfo@@@ATL@@IEAA@PEAUITypeInfo@@@Z 0000000180007d50 f i CoinAcceptor.obj
 0001:00006db0       ??0?$CComPtrBase@UITypeInfo@@@ATL@@IEAA@XZ 0000000180007db0 f i CoinAcceptor.obj
 0001:00006dd0       ??0?$CComPtrBase@UITypeLib@@@ATL@@IEAA@XZ 0000000180007dd0 f i CoinAcceptor.obj
 0001:00006df0       ??0?$CComPtrBase@UIUnknown@@@ATL@@IEAA@PEAUIUnknown@@@Z 0000000180007df0 f i CoinAcceptor.obj
 0001:00006e50       ??0?$CComPtrBase@UIUnknown@@@ATL@@IEAA@XZ 0000000180007e50 f i CoinAcceptor.obj
 0001:00006e70       ??0?$CComPtrBase@UIViewObjectEx@@@ATL@@IEAA@XZ 0000000180007e70 f i CoinAcceptor.obj
 0001:00006e90       ??0?$CComQIPtr@UIOleControlSite@@$1?_GUID_b196b289_bab4_101a_b69c_00aa00341d07@@3U__s_GUID@@B@ATL@@QEAA@PEAUIUnknown@@@Z 0000000180007e90 f i CoinAcceptor.obj
 0001:00006f00       ??0?$CComQIPtr@UIOleObject@@$1?_GUID_00000112_0000_0000_c000_000000000046@@3U__s_GUID@@B@ATL@@QEAA@XZ 0000000180007f00 f i CoinAcceptor.obj
 0001:00006f40       ??0?$CComQIPtr@UISpecifyPropertyPages@@$1?_GUID_b196b28b_bab4_101a_b69c_00aa00341d07@@3U__s_GUID@@B@ATL@@QEAA@XZ 0000000180007f40 f i CoinAcceptor.obj
 0001:00006f80       ??0?$CSimpleMap@PEA_WPEA_WVCExpansionVectorEqualHelper@ATL@@@ATL@@QEAA@XZ 0000000180007f80 f i CoinAcceptor.obj
 0001:00006fc0       ??0?$CTempBuffer@E$0BAA@VCCRTAllocator@ATL@@@ATL@@QEAA@XZ 0000000180007fc0 f i CoinAcceptor.obj
 0001:00006fe0       ??0?$CTempBuffer@_W$0BAA@VCCRTAllocator@ATL@@@ATL@@QEAA@XZ 0000000180007fe0 f i CoinAcceptor.obj
 0001:00007000       ??0?$CTempBuffer@_W$0EAA@VCCRTAllocator@ATL@@@ATL@@QEAA@XZ 0000000180008000 f i CoinAcceptor.obj
 0001:00007020       ??0?$Wrapper@PEA_W@?$CSimpleMap@PEA_WPEA_WVCExpansionVectorEqualHelper@ATL@@@ATL@@QEAA@AEBQEA_W@Z 0000000180008020 f i CoinAcceptor.obj
 0001:00007050       ??0CAtlModule@ATL@@QEAA@XZ 0000000180008050 f i CoinAcceptor.obj
 0001:000071c0       ??0CComAutoDeleteCriticalSection@ATL@@QEAA@XZ 00000001800081c0 f i CoinAcceptor.obj
 0001:00007200       ??0CComBSTR@ATL@@QEAA@XZ   0000000180008200 f i CoinAcceptor.obj
 0001:00007220       ??0CComClassFactory@ATL@@QEAA@XZ 0000000180008220 f i CoinAcceptor.obj
 0001:00007280       ??0CComModule@ATL@@QEAA@XZ 0000000180008280 f i CoinAcceptor.obj
 0001:00007320       ??0CComObjectRootBase@ATL@@QEAA@XZ 0000000180008320 f i CoinAcceptor.obj
 0001:00007340       ??0CComSafeDeleteCriticalSection@ATL@@QEAA@XZ 0000000180008340 f i CoinAcceptor.obj
 0001:00007380       ??0CComVariant@ATL@@QEAA@XZ 0000000180008380 f i CoinAcceptor.obj
 0001:000073d0       ??0CExpansionVector@ATL@@QEAA@XZ 00000001800083d0 f i CoinAcceptor.obj
 0001:00007410       ??0CParseBuffer@CRegParser@ATL@@QEAA@H@Z 0000000180008410 f i CoinAcceptor.obj
 0001:000074a0       ??0CRegKey@ATL@@QEAA@PEAUHKEY__@@@Z 00000001800084a0 f i CoinAcceptor.obj
 0001:000074e0       ??0CRegKey@ATL@@QEAA@PEAVCAtlTransactionManager@1@@Z 00000001800084e0 f i CoinAcceptor.obj
 0001:00007520       ??0CRegObject@ATL@@QEAA@XZ 0000000180008520 f i CoinAcceptor.obj
 0001:00007580       ??0CRegParser@ATL@@QEAA@PEAVCRegObject@1@@Z 0000000180008580 f i CoinAcceptor.obj
 0001:000075b0       ??0IClassFactory@@QEAA@XZ  00000001800085b0 f i CoinAcceptor.obj
 0001:000075f0       ??0IEnumConnectionPoints@@QEAA@XZ 00000001800085f0 f i CoinAcceptor.obj
 0001:00007630       ??0IEnumConnections@@QEAA@XZ 0000000180008630 f i CoinAcceptor.obj
 0001:00007670       ??0IRegistrarBase@@QEAA@XZ 0000000180008670 f i CoinAcceptor.obj
 0001:000076b0       ??0IUnknown@@QEAA@XZ       00000001800086b0 f i CoinAcceptor.obj
 0001:000076c0       ??0ModuleLockHelper@ATL@@QEAA@XZ 00000001800086c0 f i CoinAcceptor.obj
 0001:00007700       ??0OposVariant@@QEAA@XZ    0000000180008700 f i CoinAcceptor.obj
 0001:00007720       ??0Wrapper@?$CSimpleArray@GV?$CSimpleArrayEqualHelper@G@ATL@@@ATL@@QEAA@AEBG@Z 0000000180008720 f i CoinAcceptor.obj
 0001:00007750       ??0_ATL_MODULE70@ATL@@QEAA@XZ 0000000180008750 f i CoinAcceptor.obj
 0001:00007790       ??0_ATL_MSG@ATL@@QEAA@PEAUHWND__@@I_K_JH@Z 0000000180008790 f i CoinAcceptor.obj
 0001:00007820       ??0_U_MENUorID@ATL@@QEAA@I@Z 0000000180008820 f i CoinAcceptor.obj
 0001:00007840       ??0_U_RECT@ATL@@QEAA@AEAUtagRECT@@@Z 0000000180008840 f i CoinAcceptor.obj
 0001:00007860       ??0stringdispid@CComTypeInfoHolder@ATL@@QEAA@XZ 0000000180008860 f i CoinAcceptor.obj
 0001:000078b0       ??1?$CAtlModuleT@VCComModule@ATL@@@ATL@@UEAA@XZ 00000001800088b0 f i CoinAcceptor.obj
 0001:000078e0       ??1?$CAtlSafeAllocBufferManager@VCCRTAllocator@ATL@@@_ATL_SAFE_ALLOCA_IMPL@ATL@@QEAA@XZ 00000001800088e0 f i CoinAcceptor.obj
 0001:00007940       ??1?$CAutoVectorPtr@_W@ATL@@QEAA@XZ 0000000180008940 f i CoinAcceptor.obj
 0001:00007970       ??1?$CComAggObject@VCOPOSCoinAcceptor@@@ATL@@UEAA@XZ 0000000180008970 f i CoinAcceptor.obj
 0001:000079f0       ??1?$CComContainedObject@VCOPOSCoinAcceptor@@@ATL@@UEAA@XZ 00000001800089f0 f i CoinAcceptor.obj
 0001:00007a20       ??1?$CComCritSecLock@VCComCriticalSection@ATL@@@ATL@@QEAA@XZ 0000000180008a20 f i CoinAcceptor.obj
 0001:00007a60       ??1?$CComEnum@UIEnumConnectionPoints@@$1?_GUID_b196b285_bab4_101a_b69c_00aa00341d07@@3U__s_GUID@@BPEAUIConnectionPoint@@V?$_CopyInterface@UIConnectionPoint@@@ATL@@VCComSingleThreadModel@6@@ATL@@UEAA@XZ 0000000180008a60 f i CoinAcceptor.obj
 0001:00007aa0       ??1?$CComEnum@UIEnumConnections@@$1?_GUID_b196b287_bab4_101a_b69c_00aa00341d07@@3U__s_GUID@@BUtagCONNECTDATA@@V?$_Copy@UtagCONNECTDATA@@@ATL@@VCComSingleThreadModel@6@@ATL@@UEAA@XZ 0000000180008aa0 f i CoinAcceptor.obj
 0001:00007ae0       ??1?$CComEnumImpl@UIEnumConnectionPoints@@$1?_GUID_b196b285_bab4_101a_b69c_00aa00341d07@@3U__s_GUID@@BPEAUIConnectionPoint@@V?$_CopyInterface@UIConnectionPoint@@@ATL@@@ATL@@UEAA@XZ 0000000180008ae0 f i CoinAcceptor.obj
 0001:00007b80       ??1?$CComEnumImpl@UIEnumConnections@@$1?_GUID_b196b287_bab4_101a_b69c_00aa00341d07@@3U__s_GUID@@BUtagCONNECTDATA@@V?$_Copy@UtagCONNECTDATA@@@ATL@@@ATL@@UEAA@XZ 0000000180008b80 f i CoinAcceptor.obj
 0001:00007c20       ??1?$CComObject@V?$CComEnum@UIEnumConnectionPoints@@$1?_GUID_b196b285_bab4_101a_b69c_00aa00341d07@@3U__s_GUID@@BPEAUIConnectionPoint@@V?$_CopyInterface@UIConnectionPoint@@@ATL@@VCComSingleThreadModel@6@@ATL@@@ATL@@UEAA@XZ 0000000180008c20 f i CoinAcceptor.obj
 0001:00007c90       ??1?$CComObject@V?$CComEnum@UIEnumConnections@@$1?_GUID_b196b287_bab4_101a_b69c_00aa00341d07@@3U__s_GUID@@BUtagCONNECTDATA@@V?$_Copy@UtagCONNECTDATA@@@ATL@@VCComSingleThreadModel@6@@ATL@@@ATL@@UEAA@XZ 0000000180008c90 f i CoinAcceptor.obj
 0001:00007d00       ??1?$CComObject@VCOPOSCoinAcceptor@@@ATL@@UEAA@XZ 0000000180008d00 f i CoinAcceptor.obj
 0001:00007eb0       ??1?$CComObjectCached@VCComClassFactory@ATL@@@ATL@@UEAA@XZ 0000000180008eb0 f i CoinAcceptor.obj
 0001:00007f10       ??1?$CComObjectRootEx@VCComMultiThreadModel@ATL@@@ATL@@QEAA@XZ 0000000180008f10 f i CoinAcceptor.obj
 0001:00007f50       ??1?$CComObjectRootEx@VCComSingleThreadModel@ATL@@@ATL@@QEAA@XZ 0000000180008f50 f i CoinAcceptor.obj
 0001:00007f80       ??1?$CComPtr@UIAdviseSink@@@ATL@@QEAA@XZ 0000000180008f80 f i CoinAcceptor.obj
 0001:00007fb0       ??1?$CComPtr@UICatRegister@@@ATL@@QEAA@XZ 0000000180008fb0 f i CoinAcceptor.obj
 0001:00007fe0       ??1?$CComPtr@UIConnectionPoint@@@ATL@@QEAA@XZ 0000000180008fe0 f i CoinAcceptor.obj
 0001:00008010       ??1?$CComPtr@UIConnectionPointContainer@@@ATL@@QEAA@XZ 0000000180009010 f i CoinAcceptor.obj
 0001:00008040       ??1?$CComPtr@UIDataObject@@@ATL@@QEAA@XZ 0000000180009040 f i CoinAcceptor.obj
 0001:00008070       ??1?$CComPtr@UIDispatch@@@ATL@@QEAA@XZ 0000000180009070 f i CoinAcceptor.obj
 0001:000080a0       ??1?$CComPtr@UIOleClientSite@@@ATL@@QEAA@XZ 00000001800090a0 f i CoinAcceptor.obj
 0001:000080d0       ??1?$CComPtr@UIOleControlSite@@@ATL@@QEAA@XZ 00000001800090d0 f i CoinAcceptor.obj
 0001:00008100       ??1?$CComPtr@UIOleInPlaceActiveObject@@@ATL@@QEAA@XZ 0000000180009100 f i CoinAcceptor.obj
 0001:00008130       ??1?$CComPtr@UIOleInPlaceFrame@@@ATL@@QEAA@XZ 0000000180009130 f i CoinAcceptor.obj
 0001:00008160       ??1?$CComPtr@UIOleInPlaceObject@@@ATL@@QEAA@XZ 0000000180009160 f i CoinAcceptor.obj
 0001:00008190       ??1?$CComPtr@UIOleInPlaceUIWindow@@@ATL@@QEAA@XZ 0000000180009190 f i CoinAcceptor.obj
 0001:000081c0       ??1?$CComPtr@UIOleObject@@@ATL@@QEAA@XZ 00000001800091c0 f i CoinAcceptor.obj
 0001:000081f0       ??1?$CComPtr@UIPersistStream@@@ATL@@QEAA@XZ 00000001800091f0 f i CoinAcceptor.obj
 0001:00008220       ??1?$CComPtr@UIPersistStreamInit@@@ATL@@QEAA@XZ 0000000180009220 f i CoinAcceptor.obj
 0001:00008250       ??1?$CComPtr@UIPointerInactive@@@ATL@@QEAA@XZ 0000000180009250 f i CoinAcceptor.obj
 0001:00008280       ??1?$CComPtr@UIProvideClassInfo2@@@ATL@@QEAA@XZ 0000000180009280 f i CoinAcceptor.obj
 0001:000082b0       ??1?$CComPtr@UISpecifyPropertyPages@@@ATL@@QEAA@XZ 00000001800092b0 f i CoinAcceptor.obj
 0001:000082e0       ??1?$CComPtr@UIStream@@@ATL@@QEAA@XZ 00000001800092e0 f i CoinAcceptor.obj
 0001:00008310       ??1?$CComPtr@UITypeInfo2@@@ATL@@QEAA@XZ 0000000180009310 f i CoinAcceptor.obj
 0001:00008340       ??1?$CComPtr@UITypeInfo@@@ATL@@QEAA@XZ 0000000180009340 f i CoinAcceptor.obj
 0001:00008370       ??1?$CComPtr@UITypeLib@@@ATL@@QEAA@XZ 0000000180009370 f i CoinAcceptor.obj
 0001:000083a0       ??1?$CComPtr@UIUnknown@@@ATL@@QEAA@XZ 00000001800093a0 f i CoinAcceptor.obj
 0001:000083d0       ??1?$CComPtr@UIViewObjectEx@@@ATL@@QEAA@XZ 00000001800093d0 f i CoinAcceptor.obj
 0001:00008400       ??1?$CComPtrBase@UIAdviseSink@@@ATL@@QEAA@XZ 0000000180009400 f i CoinAcceptor.obj
 0001:00008450       ??1?$CComPtrBase@UICatRegister@@@ATL@@QEAA@XZ 0000000180009450 f i CoinAcceptor.obj
 0001:000084a0       ??1?$CComPtrBase@UIConnectionPoint@@@ATL@@QEAA@XZ 00000001800094a0 f i CoinAcceptor.obj
 0001:000084f0       ??1?$CComPtrBase@UIConnectionPointContainer@@@ATL@@QEAA@XZ 00000001800094f0 f i CoinAcceptor.obj
 0001:00008540       ??1?$CComPtrBase@UIDataObject@@@ATL@@QEAA@XZ 0000000180009540 f i CoinAcceptor.obj
 0001:00008590       ??1?$CComPtrBase@UIDispatch@@@ATL@@QEAA@XZ 0000000180009590 f i CoinAcceptor.obj
 0001:000085e0       ??1?$CComPtrBase@UIOleClientSite@@@ATL@@QEAA@XZ 00000001800095e0 f i CoinAcceptor.obj
 0001:00008630       ??1?$CComPtrBase@UIOleControlSite@@@ATL@@QEAA@XZ 0000000180009630 f i CoinAcceptor.obj
 0001:00008680       ??1?$CComPtrBase@UIOleInPlaceActiveObject@@@ATL@@QEAA@XZ 0000000180009680 f i CoinAcceptor.obj
 0001:000086d0       ??1?$CComPtrBase@UIOleInPlaceFrame@@@ATL@@QEAA@XZ 00000001800096d0 f i CoinAcceptor.obj
 0001:00008720       ??1?$CComPtrBase@UIOleInPlaceObject@@@ATL@@QEAA@XZ 0000000180009720 f i CoinAcceptor.obj
 0001:00008770       ??1?$CComPtrBase@UIOleInPlaceUIWindow@@@ATL@@QEAA@XZ 0000000180009770 f i CoinAcceptor.obj
 0001:000087c0       ??1?$CComPtrBase@UIOleObject@@@ATL@@QEAA@XZ 00000001800097c0 f i CoinAcceptor.obj
 0001:00008810       ??1?$CComPtrBase@UIPersistStream@@@ATL@@QEAA@XZ 0000000180009810 f i CoinAcceptor.obj
 0001:00008860       ??1?$CComPtrBase@UIPersistStreamInit@@@ATL@@QEAA@XZ 0000000180009860 f i CoinAcceptor.obj
 0001:000088b0       ??1?$CComPtrBase@UIPointerInactive@@@ATL@@QEAA@XZ 00000001800098b0 f i CoinAcceptor.obj
 0001:00008900       ??1?$CComPtrBase@UIProvideClassInfo2@@@ATL@@QEAA@XZ 0000000180009900 f i CoinAcceptor.obj
 0001:00008950       ??1?$CComPtrBase@UISpecifyPropertyPages@@@ATL@@QEAA@XZ 0000000180009950 f i CoinAcceptor.obj
 0001:000089a0       ??1?$CComPtrBase@UIStream@@@ATL@@QEAA@XZ 00000001800099a0 f i CoinAcceptor.obj
 0001:000089f0       ??1?$CComPtrBase@UITypeInfo2@@@ATL@@QEAA@XZ 00000001800099f0 f i CoinAcceptor.obj
 0001:00008a40       ??1?$CComPtrBase@UITypeInfo@@@ATL@@QEAA@XZ 0000000180009a40 f i CoinAcceptor.obj
 0001:00008a90       ??1?$CComPtrBase@UITypeLib@@@ATL@@QEAA@XZ 0000000180009a90 f i CoinAcceptor.obj
 0001:00008ae0       ??1?$CComPtrBase@UIUnknown@@@ATL@@QEAA@XZ 0000000180009ae0 f i CoinAcceptor.obj
 0001:00008b30       ??1?$CComPtrBase@UIViewObjectEx@@@ATL@@QEAA@XZ 0000000180009b30 f i CoinAcceptor.obj
 0001:00008b80       ??1?$CComQIPtr@UIOleControlSite@@$1?_GUID_b196b289_bab4_101a_b69c_00aa00341d07@@3U__s_GUID@@B@ATL@@QEAA@XZ 0000000180009b80 f i CoinAcceptor.obj
 0001:00008bb0       ??1?$CComQIPtr@UIOleObject@@$1?_GUID_00000112_0000_0000_c000_000000000046@@3U__s_GUID@@B@ATL@@QEAA@XZ 0000000180009bb0 f i CoinAcceptor.obj
 0001:00008be0       ??1?$CComQIPtr@UISpecifyPropertyPages@@$1?_GUID_b196b28b_bab4_101a_b69c_00aa00341d07@@3U__s_GUID@@B@ATL@@QEAA@XZ 0000000180009be0 f i CoinAcceptor.obj
 0001:00008c10       ??1?$CSimpleMap@PEA_WPEA_WVCExpansionVectorEqualHelper@ATL@@@ATL@@QEAA@XZ 0000000180009c10 f i CoinAcceptor.obj
 0001:00008c40       ??1?$CTempBuffer@E$0BAA@VCCRTAllocator@ATL@@@ATL@@QEAA@XZ 0000000180009c40 f i CoinAcceptor.obj
 0001:00008c90       ??1?$CTempBuffer@_W$0BAA@VCCRTAllocator@ATL@@@ATL@@QEAA@XZ 0000000180009c90 f i CoinAcceptor.obj
 0001:00008ce0       ??1?$CTempBuffer@_W$0EAA@VCCRTAllocator@ATL@@@ATL@@QEAA@XZ 0000000180009ce0 f i CoinAcceptor.obj
 0001:00008d30       ??1CAtlModule@ATL@@UEAA@XZ 0000000180009d30 f i CoinAcceptor.obj
 0001:00008d70       ??1CComAutoDeleteCriticalSection@ATL@@QEAA@XZ 0000000180009d70 f i CoinAcceptor.obj
 0001:00008da0       ??1CComClassFactory@ATL@@UEAA@XZ 0000000180009da0 f i CoinAcceptor.obj
 0001:00008df0       ??1CComModule@ATL@@UEAA@XZ 0000000180009df0 f i CoinAcceptor.obj
 0001:00008e30       ??1CComObjectRootBase@ATL@@QEAA@XZ 0000000180009e30 f i CoinAcceptor.obj
 0001:00008e40       ??1CComSafeDeleteCriticalSection@ATL@@QEAA@XZ 0000000180009e40 f i CoinAcceptor.obj
 0001:00008e90       ??1CComVariant@ATL@@QEAA@XZ 0000000180009e90 f i CoinAcceptor.obj
 0001:00008f10       ??1CExpansionVector@ATL@@QEAA@XZ 0000000180009f10 f i CoinAcceptor.obj
 0001:00008f50       ??1CParseBuffer@CRegParser@ATL@@QEAA@XZ 0000000180009f50 f i CoinAcceptor.obj
 0001:00008f90       ??1CRegKey@ATL@@QEAA@XZ    0000000180009f90 f i CoinAcceptor.obj
 0001:00008fc0       ??1CRegObject@ATL@@UEAA@XZ 0000000180009fc0 f i CoinAcceptor.obj
 0001:00009010       ??1ModuleLockHelper@ATL@@QEAA@XZ 000000018000a010 f i CoinAcceptor.obj
 0001:00009050       ??1OposVariant@@QEAA@XZ    000000018000a050 f i CoinAcceptor.obj
 0001:00009090       ??1_ATL_MODULE70@ATL@@QEAA@XZ 000000018000a090 f i CoinAcceptor.obj
 0001:000090d0       ??4?$CComPtr@UIAdviseSink@@@ATL@@QEAAPEAUIAdviseSink@@PEAU2@@Z 000000018000a0d0 f i CoinAcceptor.obj
 0001:00009140       ??4?$CComPtr@UIOleClientSite@@@ATL@@QEAAPEAUIOleClientSite@@PEAU2@@Z 000000018000a140 f i CoinAcceptor.obj
 0001:000091b0       ??4?$CComPtr@UIUnknown@@@ATL@@QEAAPEAUIUnknown@@PEAU2@@Z 000000018000a1b0 f i CoinAcceptor.obj
 0001:00009220       ??4?$CComQIPtr@UIOleObject@@$1?_GUID_00000112_0000_0000_c000_000000000046@@3U__s_GUID@@B@ATL@@QEAAPEAUIOleObject@@PEAUIUnknown@@@Z 000000018000a220 f i CoinAcceptor.obj
 0001:00009280       ??4?$CComQIPtr@UISpecifyPropertyPages@@$1?_GUID_b196b28b_bab4_101a_b69c_00aa00341d07@@3U__s_GUID@@B@ATL@@QEAAPEAUISpecifyPropertyPages@@PEAUIUnknown@@@Z 000000018000a280 f i CoinAcceptor.obj
 0001:000092e0       ??7?$CComPtrBase@UIOleClientSite@@@ATL@@QEBA_NXZ 000000018000a2e0 f i CoinAcceptor.obj
 0001:00009330       ??7?$CComPtrBase@UIOleInPlaceSiteWindowless@@@ATL@@QEBA_NXZ 000000018000a330 f i CoinAcceptor.obj
 0001:00009380       ??7CComBSTR@ATL@@QEBA_NXZ  000000018000a380 f i CoinAcceptor.obj
 0001:000093d0       ??8?$CComPtrBase@UIAdviseSink@@@ATL@@QEBA_NPEAUIAdviseSink@@@Z 000000018000a3d0 f i CoinAcceptor.obj
 0001:00009420       ??8?$CComPtrBase@UIConnectionPointContainer@@@ATL@@QEBA_NPEAUIConnectionPointContainer@@@Z 000000018000a420 f i CoinAcceptor.obj
 0001:00009470       ??8?$CComPtrBase@UIDataAdviseHolder@@@ATL@@QEBA_NPEAUIDataAdviseHolder@@@Z 000000018000a470 f i CoinAcceptor.obj
 0001:000094c0       ??8?$CComPtrBase@UIOleAdviseHolder@@@ATL@@QEBA_NPEAUIOleAdviseHolder@@@Z 000000018000a4c0 f i CoinAcceptor.obj
 0001:00009510       ??8?$CComPtrBase@UIOleClientSite@@@ATL@@QEBA_NPEAUIOleClientSite@@@Z 000000018000a510 f i CoinAcceptor.obj
 0001:00009560       ??8?$CComPtrBase@UIOleControlSite@@@ATL@@QEBA_NPEAUIOleControlSite@@@Z 000000018000a560 f i CoinAcceptor.obj
 0001:000095b0       ??8?$CComPtrBase@UIOleInPlaceObject@@@ATL@@QEBA_NPEAUIOleInPlaceObject@@@Z 000000018000a5b0 f i CoinAcceptor.obj
 0001:00009600       ??8?$CComPtrBase@UIOleInPlaceSiteWindowless@@@ATL@@QEBA_NPEAUIOleInPlaceSiteWindowless@@@Z 000000018000a600 f i CoinAcceptor.obj
 0001:00009650       ??8?$CComPtrBase@UIOleObject@@@ATL@@QEBA_NPEAUIOleObject@@@Z 000000018000a650 f i CoinAcceptor.obj
 0001:000096a0       ??8?$CComPtrBase@UIPersistStream@@@ATL@@QEBA_NPEAUIPersistStream@@@Z 000000018000a6a0 f i CoinAcceptor.obj
 0001:000096f0       ??8?$CComPtrBase@UIPersistStreamInit@@@ATL@@QEBA_NPEAUIPersistStreamInit@@@Z 000000018000a6f0 f i CoinAcceptor.obj
 0001:00009740       ??8?$CComPtrBase@UIPointerInactive@@@ATL@@QEBA_NPEAUIPointerInactive@@@Z 000000018000a740 f i CoinAcceptor.obj
 0001:00009790       ??8?$CComPtrBase@UIUnknown@@@ATL@@QEBA_NPEAUIUnknown@@@Z 000000018000a790 f i CoinAcceptor.obj
 0001:000097e0       ??8?$CComPtrBase@UIViewObjectEx@@@ATL@@QEBA_NPEAUIViewObjectEx@@@Z 000000018000a7e0 f i CoinAcceptor.obj
 0001:00009830       ??8CComBSTR@ATL@@QEBA_NH@Z 000000018000a830 f i CoinAcceptor.obj
 0001:000098b0       ??9?$CComPtrBase@UIAdviseSink@@@ATL@@QEBA_NPEAUIAdviseSink@@@Z 000000018000a8b0 f i CoinAcceptor.obj
 0001:00009910       ??9?$CComPtrBase@UIConnectionPointContainer@@@ATL@@QEBA_NPEAUIConnectionPointContainer@@@Z 000000018000a910 f i CoinAcceptor.obj
 0001:00009970       ??9?$CComPtrBase@UIDataAdviseHolder@@@ATL@@QEBA_NPEAUIDataAdviseHolder@@@Z 000000018000a970 f i CoinAcceptor.obj
 0001:000099d0       ??9?$CComPtrBase@UIOleAdviseHolder@@@ATL@@QEBA_NPEAUIOleAdviseHolder@@@Z 000000018000a9d0 f i CoinAcceptor.obj
 0001:00009a30       ??9?$CComPtrBase@UIOleClientSite@@@ATL@@QEBA_NPEAUIOleClientSite@@@Z 000000018000aa30 f i CoinAcceptor.obj
 0001:00009a90       ??9?$CComPtrBase@UIOleControlSite@@@ATL@@QEBA_NPEAUIOleControlSite@@@Z 000000018000aa90 f i CoinAcceptor.obj
 0001:00009af0       ??9?$CComPtrBase@UIOleInPlaceObject@@@ATL@@QEBA_NPEAUIOleInPlaceObject@@@Z 000000018000aaf0 f i CoinAcceptor.obj
 0001:00009b50       ??9?$CComPtrBase@UIOleInPlaceSiteWindowless@@@ATL@@QEBA_NPEAUIOleInPlaceSiteWindowless@@@Z 000000018000ab50 f i CoinAcceptor.obj
 0001:00009bb0       ??9?$CComPtrBase@UIOleObject@@@ATL@@QEBA_NPEAUIOleObject@@@Z 000000018000abb0 f i CoinAcceptor.obj
 0001:00009c10       ??9?$CComPtrBase@UIPersistStream@@@ATL@@QEBA_NPEAUIPersistStream@@@Z 000000018000ac10 f i CoinAcceptor.obj
 0001:00009c70       ??9?$CComPtrBase@UIPersistStreamInit@@@ATL@@QEBA_NPEAUIPersistStreamInit@@@Z 000000018000ac70 f i CoinAcceptor.obj
 0001:00009cd0       ??9?$CComPtrBase@UIPointerInactive@@@ATL@@QEBA_NPEAUIPointerInactive@@@Z 000000018000acd0 f i CoinAcceptor.obj
 0001:00009d30       ??9?$CComPtrBase@UIUnknown@@@ATL@@QEBA_NPEAUIUnknown@@@Z 000000018000ad30 f i CoinAcceptor.obj
 0001:00009d90       ??9?$CComPtrBase@UIViewObjectEx@@@ATL@@QEBA_NPEAUIViewObjectEx@@@Z 000000018000ad90 f i CoinAcceptor.obj
 0001:00009df0       ??9CComBSTR@ATL@@QEBA_NH@Z 000000018000adf0 f i CoinAcceptor.obj
 0001:00009e50       ??B?$CComPtrBase@UIAdviseSink@@@ATL@@QEBAPEAUIAdviseSink@@XZ 000000018000ae50 f i CoinAcceptor.obj
 0001:00009e60       ??B?$CComPtrBase@UIDataAdviseHolder@@@ATL@@QEBAPEAUIDataAdviseHolder@@XZ 000000018000ae60 f i CoinAcceptor.obj
 0001:00009e70       ??B?$CComPtrBase@UIDataObject@@@ATL@@QEBAPEAUIDataObject@@XZ 000000018000ae70 f i CoinAcceptor.obj
 0001:00009e80       ??B?$CComPtrBase@UIOleAdviseHolder@@@ATL@@QEBAPEAUIOleAdviseHolder@@XZ 000000018000ae80 f i CoinAcceptor.obj
 0001:00009e90       ??B?$CComPtrBase@UIOleClientSite@@@ATL@@QEBAPEAUIOleClientSite@@XZ 000000018000ae90 f i CoinAcceptor.obj
 0001:00009ea0       ??B?$CComPtrBase@UIOleControlSite@@@ATL@@QEBAPEAUIOleControlSite@@XZ 000000018000aea0 f i CoinAcceptor.obj
 0001:00009eb0       ??B?$CComPtrBase@UIOleInPlaceActiveObject@@@ATL@@QEBAPEAUIOleInPlaceActiveObject@@XZ 000000018000aeb0 f i CoinAcceptor.obj
 0001:00009ec0       ??B?$CComPtrBase@UIOleInPlaceFrame@@@ATL@@QEBAPEAUIOleInPlaceFrame@@XZ 000000018000aec0 f i CoinAcceptor.obj
 0001:00009ed0       ??B?$CComPtrBase@UIOleInPlaceSiteWindowless@@@ATL@@QEBAPEAUIOleInPlaceSiteWindowless@@XZ 000000018000aed0 f i CoinAcceptor.obj
 0001:00009ee0       ??B?$CComPtrBase@UIOleInPlaceUIWindow@@@ATL@@QEBAPEAUIOleInPlaceUIWindow@@XZ 000000018000aee0 f i CoinAcceptor.obj
 0001:00009ef0       ??B?$CComPtrBase@UIOleObject@@@ATL@@QEBAPEAUIOleObject@@XZ 000000018000aef0 f i CoinAcceptor.obj
 0001:00009f00       ??B?$CComPtrBase@UIPersistStream@@@ATL@@QEBAPEAUIPersistStream@@XZ 000000018000af00 f i CoinAcceptor.obj
 0001:00009f10       ??B?$CComPtrBase@UIProvideClassInfo2@@@ATL@@QEBAPEAUIProvideClassInfo2@@XZ 000000018000af10 f i CoinAcceptor.obj
 0001:00009f20       ??B?$CComPtrBase@UISpecifyPropertyPages@@@ATL@@QEBAPEAUISpecifyPropertyPages@@XZ 000000018000af20 f i CoinAcceptor.obj
 0001:00009f30       ??B?$CComPtrBase@UIStream@@@ATL@@QEBAPEAUIStream@@XZ 000000018000af30 f i CoinAcceptor.obj
 0001:00009f40       ??B?$CComPtrBase@UITypeInfo2@@@ATL@@QEBAPEAUITypeInfo2@@XZ 000000018000af40 f i CoinAcceptor.obj
 0001:00009f50       ??B?$CComPtrBase@UITypeInfo@@@ATL@@QEBAPEAUITypeInfo@@XZ 000000018000af50 f i CoinAcceptor.obj
 0001:00009f60       ??B?$CComPtrBase@UITypeLib@@@ATL@@QEBAPEAUITypeLib@@XZ 000000018000af60 f i CoinAcceptor.obj
 0001:00009f70       ??B?$CComPtrBase@UIUnknown@@@ATL@@QEBAPEAUIUnknown@@XZ 000000018000af70 f i CoinAcceptor.obj
 0001:00009f80       ??B?$CTempBuffer@E$0BAA@VCCRTAllocator@ATL@@@ATL@@QEBAPEAEXZ 000000018000af80 f i CoinAcceptor.obj
 0001:00009f90       ??B?$CTempBuffer@_W$0BAA@VCCRTAllocator@ATL@@@ATL@@QEBAPEA_WXZ 000000018000af90 f i CoinAcceptor.obj
 0001:00009fa0       ??B?$CTempBuffer@_W$0EAA@VCCRTAllocator@ATL@@@ATL@@QEBAPEA_WXZ 000000018000afa0 f i CoinAcceptor.obj
 0001:00009fb0       ??B?$CTraceCategoryEx@$00$0A@@ATL@@QEAAIXZ 000000018000afb0 f i CoinAcceptor.obj
 0001:00009fc0       ??B?$CTraceCategoryEx@$07$0A@@ATL@@QEAAIXZ 000000018000afc0 f i CoinAcceptor.obj
 0001:00009fd0       ??B?$CTraceCategoryEx@$0CAAA@$0A@@ATL@@QEAAIXZ 000000018000afd0 f i CoinAcceptor.obj
 0001:00009fe0       ??B?$CTraceCategoryEx@$0EA@$0A@@ATL@@QEAAIXZ 000000018000afe0 f i CoinAcceptor.obj
 0001:00009ff0       ??B?$CTraceCategoryEx@$0IAA@$0A@@ATL@@QEAAIXZ 000000018000aff0 f i CoinAcceptor.obj
 0001:0000a000       ??BCComBSTR@ATL@@QEBAPEA_WXZ 000000018000b000 f i CoinAcceptor.obj
 0001:0000a010       ??BCRegKey@ATL@@QEBAPEAUHKEY__@@XZ 000000018000b010 f i CoinAcceptor.obj
 0001:0000a020       ??C?$CComPtrBase@UIAdviseSink@@@ATL@@QEBAPEAV?$_NoAddRefReleaseOnCComPtr@UIAdviseSink@@@1@XZ 000000018000b020 f i CoinAcceptor.obj
 0001:0000a0a0       ??C?$CComPtrBase@UICatRegister@@@ATL@@QEBAPEAV?$_NoAddRefReleaseOnCComPtr@UICatRegister@@@1@XZ 000000018000b0a0 f i CoinAcceptor.obj
 0001:0000a120       ??C?$CComPtrBase@UIConnectionPoint@@@ATL@@QEBAPEAV?$_NoAddRefReleaseOnCComPtr@UIConnectionPoint@@@1@XZ 000000018000b120 f i CoinAcceptor.obj
 0001:0000a1a0       ??C?$CComPtrBase@UIConnectionPointContainer@@@ATL@@QEBAPEAV?$_NoAddRefReleaseOnCComPtr@UIConnectionPointContainer@@@1@XZ 000000018000b1a0 f i CoinAcceptor.obj
 0001:0000a220       ??C?$CComPtrBase@UIDataAdviseHolder@@@ATL@@QEBAPEAV?$_NoAddRefReleaseOnCComPtr@UIDataAdviseHolder@@@1@XZ 000000018000b220 f i CoinAcceptor.obj
 0001:0000a2a0       ??C?$CComPtrBase@UIOleAdviseHolder@@@ATL@@QEBAPEAV?$_NoAddRefReleaseOnCComPtr@UIOleAdviseHolder@@@1@XZ 000000018000b2a0 f i CoinAcceptor.obj
 0001:0000a320       ??C?$CComPtrBase@UIOleClientSite@@@ATL@@QEBAPEAV?$_NoAddRefReleaseOnCComPtr@UIOleClientSite@@@1@XZ 000000018000b320 f i CoinAcceptor.obj
 0001:0000a3a0       ??C?$CComPtrBase@UIOleControlSite@@@ATL@@QEBAPEAV?$_NoAddRefReleaseOnCComPtr@UIOleControlSite@@@1@XZ 000000018000b3a0 f i CoinAcceptor.obj
 0001:0000a420       ??C?$CComPtrBase@UIOleInPlaceFrame@@@ATL@@QEBAPEAV?$_NoAddRefReleaseOnCComPtr@UIOleInPlaceFrame@@@1@XZ 000000018000b420 f i CoinAcceptor.obj
 0001:0000a4a0       ??C?$CComPtrBase@UIOleInPlaceObject@@@ATL@@QEBAPEAV?$_NoAddRefReleaseOnCComPtr@UIOleInPlaceObject@@@1@XZ 000000018000b4a0 f i CoinAcceptor.obj
 0001:0000a520       ??C?$CComPtrBase@UIOleInPlaceSiteWindowless@@@ATL@@QEBAPEAV?$_NoAddRefReleaseOnCComPtr@UIOleInPlaceSiteWindowless@@@1@XZ 000000018000b520 f i CoinAcceptor.obj
 0001:0000a5a0       ??C?$CComPtrBase@UIOleInPlaceUIWindow@@@ATL@@QEBAPEAV?$_NoAddRefReleaseOnCComPtr@UIOleInPlaceUIWindow@@@1@XZ 000000018000b5a0 f i CoinAcceptor.obj
 0001:0000a620       ??C?$CComPtrBase@UIOleObject@@@ATL@@QEBAPEAV?$_NoAddRefReleaseOnCComPtr@UIOleObject@@@1@XZ 000000018000b620 f i CoinAcceptor.obj
 0001:0000a6a0       ??C?$CComPtrBase@UIPersistStream@@@ATL@@QEBAPEAV?$_NoAddRefReleaseOnCComPtr@UIPersistStream@@@1@XZ 000000018000b6a0 f i CoinAcceptor.obj
 0001:0000a720       ??C?$CComPtrBase@UIPersistStreamInit@@@ATL@@QEBAPEAV?$_NoAddRefReleaseOnCComPtr@UIPersistStreamInit@@@1@XZ 000000018000b720 f i CoinAcceptor.obj
 0001:0000a7a0       ??C?$CComPtrBase@UIPointerInactive@@@ATL@@QEBAPEAV?$_NoAddRefReleaseOnCComPtr@UIPointerInactive@@@1@XZ 000000018000b7a0 f i CoinAcceptor.obj
 0001:0000a820       ??C?$CComPtrBase@UIProvideClassInfo2@@@ATL@@QEBAPEAV?$_NoAddRefReleaseOnCComPtr@UIProvideClassInfo2@@@1@XZ 000000018000b820 f i CoinAcceptor.obj
 0001:0000a8a0       ??C?$CComPtrBase@UISpecifyPropertyPages@@@ATL@@QEBAPEAV?$_NoAddRefReleaseOnCComPtr@UISpecifyPropertyPages@@@1@XZ 000000018000b8a0 f i CoinAcceptor.obj
 0001:0000a920       ??C?$CComPtrBase@UITypeInfo@@@ATL@@QEBAPEAV?$_NoAddRefReleaseOnCComPtr@UITypeInfo@@@1@XZ 000000018000b920 f i CoinAcceptor.obj
 0001:0000a9a0       ??C?$CComPtrBase@UITypeLib@@@ATL@@QEBAPEAV?$_NoAddRefReleaseOnCComPtr@UITypeLib@@@1@XZ 000000018000b9a0 f i CoinAcceptor.obj
 0001:0000aa20       ??C?$CComPtrBase@UIUnknown@@@ATL@@QEBAPEAV?$_NoAddRefReleaseOnCComPtr@UIUnknown@@@1@XZ 000000018000ba20 f i CoinAcceptor.obj
 0001:0000aaa0       ??C?$CComPtrBase@UIViewObjectEx@@@ATL@@QEBAPEAV?$_NoAddRefReleaseOnCComPtr@UIViewObjectEx@@@1@XZ 000000018000baa0 f i CoinAcceptor.obj
 0001:0000ab20       ??I?$CComPtrBase@UICatRegister@@@ATL@@QEAAPEAPEAUICatRegister@@XZ 000000018000bb20 f i CoinAcceptor.obj
 0001:0000ab90       ??I?$CComPtrBase@UIConnectionPoint@@@ATL@@QEAAPEAPEAUIConnectionPoint@@XZ 000000018000bb90 f i CoinAcceptor.obj
 0001:0000ac00       ??I?$CComPtrBase@UIConnectionPointContainer@@@ATL@@QEAAPEAPEAUIConnectionPointContainer@@XZ 000000018000bc00 f i CoinAcceptor.obj
 0001:0000ac70       ??I?$CComPtrBase@UIDataAdviseHolder@@@ATL@@QEAAPEAPEAUIDataAdviseHolder@@XZ 000000018000bc70 f i CoinAcceptor.obj
 0001:0000ace0       ??I?$CComPtrBase@UIDataObject@@@ATL@@QEAAPEAPEAUIDataObject@@XZ 000000018000bce0 f i CoinAcceptor.obj
 0001:0000ad50       ??I?$CComPtrBase@UIDispatch@@@ATL@@QEAAPEAPEAUIDispatch@@XZ 000000018000bd50 f i CoinAcceptor.obj
 0001:0000adc0       ??I?$CComPtrBase@UIOleAdviseHolder@@@ATL@@QEAAPEAPEAUIOleAdviseHolder@@XZ 000000018000bdc0 f i CoinAcceptor.obj
 0001:0000ae30       ??I?$CComPtrBase@UIOleControlSite@@@ATL@@QEAAPEAPEAUIOleControlSite@@XZ 000000018000be30 f i CoinAcceptor.obj
 0001:0000aea0       ??I?$CComPtrBase@UIOleInPlaceActiveObject@@@ATL@@QEAAPEAPEAUIOleInPlaceActiveObject@@XZ 000000018000bea0 f i CoinAcceptor.obj
 0001:0000af10       ??I?$CComPtrBase@UIOleInPlaceFrame@@@ATL@@QEAAPEAPEAUIOleInPlaceFrame@@XZ 000000018000bf10 f i CoinAcceptor.obj
 0001:0000af80       ??I?$CComPtrBase@UIOleInPlaceObject@@@ATL@@QEAAPEAPEAUIOleInPlaceObject@@XZ 000000018000bf80 f i CoinAcceptor.obj
 0001:0000aff0       ??I?$CComPtrBase@UIOleInPlaceSiteWindowless@@@ATL@@QEAAPEAPEAUIOleInPlaceSiteWindowless@@XZ 000000018000bff0 f i CoinAcceptor.obj
 0001:0000b060       ??I?$CComPtrBase@UIOleInPlaceUIWindow@@@ATL@@QEAAPEAPEAUIOleInPlaceUIWindow@@XZ 000000018000c060 f i CoinAcceptor.obj
 0001:0000b0d0       ??I?$CComPtrBase@UIOleObject@@@ATL@@QEAAPEAPEAUIOleObject@@XZ 000000018000c0d0 f i CoinAcceptor.obj
 0001:0000b140       ??I?$CComPtrBase@UIPersistStream@@@ATL@@QEAAPEAPEAUIPersistStream@@XZ 000000018000c140 f i CoinAcceptor.obj
 0001:0000b1b0       ??I?$CComPtrBase@UIPointerInactive@@@ATL@@QEAAPEAPEAUIPointerInactive@@XZ 000000018000c1b0 f i CoinAcceptor.obj
 0001:0000b220       ??I?$CComPtrBase@UIProvideClassInfo2@@@ATL@@QEAAPEAPEAUIProvideClassInfo2@@XZ 000000018000c220 f i CoinAcceptor.obj
 0001:0000b290       ??I?$CComPtrBase@UIStream@@@ATL@@QEAAPEAPEAUIStream@@XZ 000000018000c290 f i CoinAcceptor.obj
 0001:0000b300       ??I?$CComPtrBase@UITypeInfo2@@@ATL@@QEAAPEAPEAUITypeInfo2@@XZ 000000018000c300 f i CoinAcceptor.obj
 0001:0000b370       ??I?$CComPtrBase@UITypeInfo@@@ATL@@QEAAPEAPEAUITypeInfo@@XZ 000000018000c370 f i CoinAcceptor.obj
 0001:0000b3e0       ??I?$CComPtrBase@UITypeLib@@@ATL@@QEAAPEAPEAUITypeLib@@XZ 000000018000c3e0 f i CoinAcceptor.obj
 0001:0000b450       ??I?$CComPtrBase@UIUnknown@@@ATL@@QEAAPEAPEAUIUnknown@@XZ 000000018000c450 f i CoinAcceptor.obj
 0001:0000b4c0       ??I?$CComPtrBase@UIViewObjectEx@@@ATL@@QEAAPEAPEAUIViewObjectEx@@XZ 000000018000c4c0 f i CoinAcceptor.obj
 0001:0000b530       ??ICComBSTR@ATL@@QEAAPEAPEA_WXZ 000000018000c530 f i CoinAcceptor.obj
 0001:0000b540       ??_E?$CComContainedObject@VCOPOSCoinAcceptor@@@ATL@@W7EAAPEAXI@Z 000000018000c540 f i CoinAcceptor.obj
 0001:0000b54c       ??_E?$CComContainedObject@VCOPOSCoinAcceptor@@@ATL@@WHA@EAAPEAXI@Z 000000018000c54c f i CoinAcceptor.obj
 0001:0000b558       ??_E?$CComObject@VCOPOSCoinAcceptor@@@ATL@@W7EAAPEAXI@Z 000000018000c558 f i CoinAcceptor.obj
 0001:0000b564       ??_E?$CComObject@VCOPOSCoinAcceptor@@@ATL@@WHA@EAAPEAXI@Z 000000018000c564 f i CoinAcceptor.obj
 0001:0000b570       ??_E?$CComAggObject@VCOPOSCoinAcceptor@@@ATL@@UEAAPEAXI@Z 000000018000c570 f i CoinAcceptor.obj
 0001:0000b570       ??_G?$CComAggObject@VCOPOSCoinAcceptor@@@ATL@@UEAAPEAXI@Z 000000018000c570 f i CoinAcceptor.obj
 0001:0000b5d0       ??_G?$CComContainedObject@VCOPOSCoinAcceptor@@@ATL@@UEAAPEAXI@Z 000000018000c5d0 f i CoinAcceptor.obj
 0001:0000b5d0       ??_E?$CComContainedObject@VCOPOSCoinAcceptor@@@ATL@@UEAAPEAXI@Z 000000018000c5d0 f i CoinAcceptor.obj
 0001:0000b630       ??_E?$CComObject@V?$CComEnum@UIEnumConnectionPoints@@$1?_GUID_b196b285_bab4_101a_b69c_00aa00341d07@@3U__s_GUID@@BPEAUIConnectionPoint@@V?$_CopyInterface@UIConnectionPoint@@@ATL@@VCComSingleThreadModel@6@@ATL@@@ATL@@UEAAPEAXI@Z 000000018000c630 f i CoinAcceptor.obj
 0001:0000b630       ??_G?$CComObject@V?$CComEnum@UIEnumConnectionPoints@@$1?_GUID_b196b285_bab4_101a_b69c_00aa00341d07@@3U__s_GUID@@BPEAUIConnectionPoint@@V?$_CopyInterface@UIConnectionPoint@@@ATL@@VCComSingleThreadModel@6@@ATL@@@ATL@@UEAAPEAXI@Z 000000018000c630 f i CoinAcceptor.obj
 0001:0000b690       ??_E?$CComObject@V?$CComEnum@UIEnumConnections@@$1?_GUID_b196b287_bab4_101a_b69c_00aa00341d07@@3U__s_GUID@@BUtagCONNECTDATA@@V?$_Copy@UtagCONNECTDATA@@@ATL@@VCComSingleThreadModel@6@@ATL@@@ATL@@UEAAPEAXI@Z 000000018000c690 f i CoinAcceptor.obj
 0001:0000b690       ??_G?$CComObject@V?$CComEnum@UIEnumConnections@@$1?_GUID_b196b287_bab4_101a_b69c_00aa00341d07@@3U__s_GUID@@BUtagCONNECTDATA@@V?$_Copy@UtagCONNECTDATA@@@ATL@@VCComSingleThreadModel@6@@ATL@@@ATL@@UEAAPEAXI@Z 000000018000c690 f i CoinAcceptor.obj
 0001:0000b6f0       ??_E?$CComObject@VCOPOSCoinAcceptor@@@ATL@@UEAAPEAXI@Z 000000018000c6f0 f i CoinAcceptor.obj
 0001:0000b6f0       ??_G?$CComObject@VCOPOSCoinAcceptor@@@ATL@@UEAAPEAXI@Z 000000018000c6f0 f i CoinAcceptor.obj
 0001:0000b750       ??_G?$CComObjectCached@VCComClassFactory@ATL@@@ATL@@UEAAPEAXI@Z 000000018000c750 f i CoinAcceptor.obj
 0001:0000b750       ??_E?$CComObjectCached@VCComClassFactory@ATL@@@ATL@@UEAAPEAXI@Z 000000018000c750 f i CoinAcceptor.obj
 0001:0000b7b0       ??_GCComClassFactory@ATL@@UEAAPEAXI@Z 000000018000c7b0 f i CoinAcceptor.obj
 0001:0000b7b0       ??_ECComClassFactory@ATL@@UEAAPEAXI@Z 000000018000c7b0 f i CoinAcceptor.obj
 0001:0000b810       ??_GCComModule@ATL@@UEAAPEAXI@Z 000000018000c810 f i CoinAcceptor.obj
 0001:0000b810       ??_ECComModule@ATL@@UEAAPEAXI@Z 000000018000c810 f i CoinAcceptor.obj
 0001:0000b870       ??_ECRegObject@ATL@@UEAAPEAXI@Z 000000018000c870 f i CoinAcceptor.obj
 0001:0000b870       ??_GCRegObject@ATL@@UEAAPEAXI@Z 000000018000c870 f i CoinAcceptor.obj
 0001:0000b8d0       ?Add@?$CSimpleArray@GV?$CSimpleArrayEqualHelper@G@ATL@@@ATL@@QEAAHAEBG@Z 000000018000c8d0 f i CoinAcceptor.obj
 0001:0000ba70       ?Add@?$CSimpleMap@PEA_WPEA_WVCExpansionVectorEqualHelper@ATL@@@ATL@@QEAAHAEBQEA_W0@Z 000000018000ca70 f i CoinAcceptor.obj
 0001:0000bb60       ?Add@CComDynamicUnkArray@ATL@@QEAAKPEAUIUnknown@@@Z 000000018000cb60 f i CoinAcceptor.obj
 0001:0000bd40       ?Add@CExpansionVector@ATL@@QEAAHPEB_W0@Z 000000018000cd40 f i CoinAcceptor.obj
 0001:0000c070       ?AddChar@CParseBuffer@CRegParser@ATL@@QEAAHPEB_W@Z 000000018000d070 f i CoinAcceptor.obj
 0001:0000c0c0       ?AddCommonRGSReplacements@?$CAtlModuleT@VCComModule@ATL@@@ATL@@UEAAJPEAUIRegistrarBase@@@Z 000000018000d0c0 f i CoinAcceptor.obj
 0001:0000c120       ?AddCreateWndData@CAtlWinModule@ATL@@QEAAXPEAU_AtlCreateWndData@2@PEAX@Z 000000018000d120 f i CoinAcceptor.obj
 0001:0000c170       ?AddRef@?$CComAggObject@VCOPOSCoinAcceptor@@@ATL@@UEAAKXZ 000000018000d170 f i CoinAcceptor.obj
 0001:0000c1b0       ?AddRef@?$CComContainedObject@VCOPOSCoinAcceptor@@@ATL@@UEAAKXZ 000000018000d1b0 f i CoinAcceptor.obj
 0001:0000c1e8       ?AddRef@?$CComContainedObject@VCOPOSCoinAcceptor@@@ATL@@WBAA@EAAKXZ 000000018000d1e8 f i CoinAcceptor.obj
 0001:0000c1f4       ?AddRef@?$CComContainedObject@VCOPOSCoinAcceptor@@@ATL@@WBAI@EAAKXZ 000000018000d1f4 f i CoinAcceptor.obj
 0001:0000c200       ?AddRef@?$CComContainedObject@VCOPOSCoinAcceptor@@@ATL@@WBBA@EAAKXZ 000000018000d200 f i CoinAcceptor.obj
 0001:0000c20c       ?AddRef@?$CComContainedObject@VCOPOSCoinAcceptor@@@ATL@@WBBI@EAAKXZ 000000018000d20c f i CoinAcceptor.obj
 0001:0000c218       ?AddRef@?$CComContainedObject@VCOPOSCoinAcceptor@@@ATL@@WBCI@EAAKXZ 000000018000d218 f i CoinAcceptor.obj
 0001:0000c224       ?AddRef@?$CComContainedObject@VCOPOSCoinAcceptor@@@ATL@@WBEA@EAAKXZ 000000018000d224 f i CoinAcceptor.obj
 0001:0000c230       ?AddRef@?$CComContainedObject@VCOPOSCoinAcceptor@@@ATL@@WLI@EAAKXZ 000000018000d230 f i CoinAcceptor.obj
 0001:0000c23c       ?AddRef@?$CComContainedObject@VCOPOSCoinAcceptor@@@ATL@@WMA@EAAKXZ 000000018000d23c f i CoinAcceptor.obj
 0001:0000c248       ?AddRef@?$CComContainedObject@VCOPOSCoinAcceptor@@@ATL@@WMI@EAAKXZ 000000018000d248 f i CoinAcceptor.obj
 0001:0000c254       ?AddRef@?$CComContainedObject@VCOPOSCoinAcceptor@@@ATL@@WNA@EAAKXZ 000000018000d254 f i CoinAcceptor.obj
 0001:0000c260       ?AddRef@?$CComContainedObject@VCOPOSCoinAcceptor@@@ATL@@WNI@EAAKXZ 000000018000d260 f i CoinAcceptor.obj
 0001:0000c26c       ?AddRef@?$CComContainedObject@VCOPOSCoinAcceptor@@@ATL@@WOA@EAAKXZ 000000018000d26c f i CoinAcceptor.obj
 0001:0000c278       ?AddRef@?$CComContainedObject@VCOPOSCoinAcceptor@@@ATL@@WOI@EAAKXZ 000000018000d278 f i CoinAcceptor.obj
 0001:0000c284       ?AddRef@?$CComContainedObject@VCOPOSCoinAcceptor@@@ATL@@WPA@EAAKXZ 000000018000d284 f i CoinAcceptor.obj
 0001:0000c290       ?AddRef@?$CComContainedObject@VCOPOSCoinAcceptor@@@ATL@@WPI@EAAKXZ 000000018000d290 f i CoinAcceptor.obj
 0001:0000c2a0       ?AddRef@?$CComObject@V?$CComEnum@UIEnumConnectionPoints@@$1?_GUID_b196b285_bab4_101a_b69c_00aa00341d07@@3U__s_GUID@@BPEAUIConnectionPoint@@V?$_CopyInterface@UIConnectionPoint@@@ATL@@VCComSingleThreadModel@6@@ATL@@@ATL@@UEAAKXZ 000000018000d2a0 f i CoinAcceptor.obj
 0001:0000c2e0       ?AddRef@?$CComObject@V?$CComEnum@UIEnumConnections@@$1?_GUID_b196b287_bab4_101a_b69c_00aa00341d07@@3U__s_GUID@@BUtagCONNECTDATA@@V?$_Copy@UtagCONNECTDATA@@@ATL@@VCComSingleThreadModel@6@@ATL@@@ATL@@UEAAKXZ 000000018000d2e0 f i CoinAcceptor.obj
 0001:0000c320       ?AddRef@?$CComObject@VCOPOSCoinAcceptor@@@ATL@@UEAAKXZ 000000018000d320 f i CoinAcceptor.obj
 0001:0000c358       ?AddRef@?$CComObject@VCOPOSCoinAcceptor@@@ATL@@WBAA@EAAKXZ 000000018000d358 f i CoinAcceptor.obj
 0001:0000c364       ?AddRef@?$CComObject@VCOPOSCoinAcceptor@@@ATL@@WBAI@EAAKXZ 000000018000d364 f i CoinAcceptor.obj
 0001:0000c370       ?AddRef@?$CComObject@VCOPOSCoinAcceptor@@@ATL@@WBBA@EAAKXZ 000000018000d370 f i CoinAcceptor.obj
 0001:0000c37c       ?AddRef@?$CComObject@VCOPOSCoinAcceptor@@@ATL@@WBBI@EAAKXZ 000000018000d37c f i CoinAcceptor.obj
 0001:0000c388       ?AddRef@?$CComObject@VCOPOSCoinAcceptor@@@ATL@@WBCI@EAAKXZ 000000018000d388 f i CoinAcceptor.obj
 0001:0000c394       ?AddRef@?$CComObject@VCOPOSCoinAcceptor@@@ATL@@WBEA@EAAKXZ 000000018000d394 f i CoinAcceptor.obj
 0001:0000c3a0       ?AddRef@?$CComObject@VCOPOSCoinAcceptor@@@ATL@@WLI@EAAKXZ 000000018000d3a0 f i CoinAcceptor.obj
 0001:0000c3ac       ?AddRef@?$CComObject@VCOPOSCoinAcceptor@@@ATL@@WMA@EAAKXZ 000000018000d3ac f i CoinAcceptor.obj
 0001:0000c3b8       ?AddRef@?$CComObject@VCOPOSCoinAcceptor@@@ATL@@WMI@EAAKXZ 000000018000d3b8 f i CoinAcceptor.obj
 0001:0000c3c4       ?AddRef@?$CComObject@VCOPOSCoinAcceptor@@@ATL@@WNA@EAAKXZ 000000018000d3c4 f i CoinAcceptor.obj
 0001:0000c3d0       ?AddRef@?$CComObject@VCOPOSCoinAcceptor@@@ATL@@WNI@EAAKXZ 000000018000d3d0 f i CoinAcceptor.obj
 0001:0000c3dc       ?AddRef@?$CComObject@VCOPOSCoinAcceptor@@@ATL@@WOA@EAAKXZ 000000018000d3dc f i CoinAcceptor.obj
 0001:0000c3e8       ?AddRef@?$CComObject@VCOPOSCoinAcceptor@@@ATL@@WOI@EAAKXZ 000000018000d3e8 f i CoinAcceptor.obj
 0001:0000c3f4       ?AddRef@?$CComObject@VCOPOSCoinAcceptor@@@ATL@@WPA@EAAKXZ 000000018000d3f4 f i CoinAcceptor.obj
 0001:0000c400       ?AddRef@?$CComObject@VCOPOSCoinAcceptor@@@ATL@@WPI@EAAKXZ 000000018000d400 f i CoinAcceptor.obj
 0001:0000c410       ?AddRef@?$CComObjectCached@VCComClassFactory@ATL@@@ATL@@UEAAKXZ 000000018000d410 f i CoinAcceptor.obj
 0001:0000c470       ?AddRef@CRegObject@ATL@@UEAAKXZ 000000018000d470 f i CoinAcceptor.obj
 0001:0000c4e0       ?AddReplacement@CRegObject@ATL@@UEAAJPEB_W0@Z 000000018000d4e0 f i CoinAcceptor.obj
 0001:0000c610       ?AddString@CParseBuffer@CRegParser@ATL@@QEAAHPEB_W@Z 000000018000d610 f i CoinAcceptor.obj
 0001:0000c700       ?AddTermFunc@CAtlModule@ATL@@QEAAJP6AX_K@Z0@Z 000000018000d700 f i CoinAcceptor.obj
 0001:0000c770       ?AddValue@CRegParser@ATL@@IEAAJAEAVCRegKey@2@PEB_WPEA_W@Z 000000018000d770 f i CoinAcceptor.obj
 0001:0000d040       ?Advise@?$CProxy_IOPOSEvents@VCOPOSCoinAcceptor@@@@UEAAJPEAUIUnknown@@PEAK@Z 000000018000e040 f i CoinAcceptor.obj
 0001:0000d0b0       ?Advise@?$IConnectionPointImpl@VCOPOSCoinAcceptor@@$1?DIID__IOPOSCoinAcceptorEvents@@3U_GUID@@BVCComDynamicUnkArray@ATL@@@ATL@@UEAAJPEAUIUnknown@@PEAK@Z 000000018000e0b0 f i CoinAcceptor.obj
 0001:0000d2b0       ?Advise@?$IConnectionPointImpl@VCOPOSCoinAcceptor@@$1?IID_IPropertyNotifySink@@3U_GUID@@BVCComDynamicUnkArray@ATL@@@ATL@@UEAAJPEAUIUnknown@@PEAK@Z 000000018000e2b0 f i CoinAcceptor.obj
 0001:0000d4b0       ?Advise@?$IOleObjectImpl@VCOPOSCoinAcceptor@@@ATL@@UEAAJPEAUIAdviseSink@@PEAK@Z 000000018000e4b0 f i CoinAcceptor.obj
 0001:0000d570       ?Allocate@?$CAtlSafeAllocBufferManager@VCCRTAllocator@ATL@@@_ATL_SAFE_ALLOCA_IMPL@ATL@@QEAAPEAX_K@Z 000000018000e570 f i CoinAcceptor.obj
 0001:0000d5f0       ?Allocate@?$CTempBuffer@E$0BAA@VCCRTAllocator@ATL@@@ATL@@QEAAPEAE_K@Z 000000018000e5f0 f i CoinAcceptor.obj
 0001:0000d640       ?Allocate@?$CTempBuffer@_W$0BAA@VCCRTAllocator@ATL@@@ATL@@QEAAPEA_W_K@Z 000000018000e640 f i CoinAcceptor.obj
 0001:0000d690       ?Allocate@?$CTempBuffer@_W$0EAA@VCCRTAllocator@ATL@@@ATL@@QEAAPEA_W_K@Z 000000018000e690 f i CoinAcceptor.obj
 0001:0000d6e0       ?AllocateBytes@?$CTempBuffer@E$0BAA@VCCRTAllocator@ATL@@@ATL@@QEAAPEAE_K@Z 000000018000e6e0 f i CoinAcceptor.obj
 0001:0000d790       ?AllocateBytes@?$CTempBuffer@_W$0BAA@VCCRTAllocator@ATL@@@ATL@@QEAAPEA_W_K@Z 000000018000e790 f i CoinAcceptor.obj
 0001:0000d840       ?AllocateBytes@?$CTempBuffer@_W$0EAA@VCCRTAllocator@ATL@@@ATL@@QEAAPEA_W_K@Z 000000018000e840 f i CoinAcceptor.obj
 0001:0000d8f0       ?AllocateHeap@?$CTempBuffer@E$0BAA@VCCRTAllocator@ATL@@@ATL@@AEAAX_K@Z 000000018000e8f0 f i CoinAcceptor.obj
 0001:0000d950       ?AllocateHeap@?$CTempBuffer@_W$0BAA@VCCRTAllocator@ATL@@@ATL@@AEAAX_K@Z 000000018000e950 f i CoinAcceptor.obj
 0001:0000d9b0       ?AllocateHeap@?$CTempBuffer@_W$0EAA@VCCRTAllocator@ATL@@@ATL@@AEAAX_K@Z 000000018000e9b0 f i CoinAcceptor.obj
 0001:0000da10       ?Append@CParseBuffer@CRegParser@ATL@@QEAAHPEB_WH@Z 000000018000ea10 f i CoinAcceptor.obj
 0001:0000dc40       ?AtlCallTermFunc@ATL@@YAXPEAU_ATL_MODULE70@1@@Z 000000018000ec40 f i CoinAcceptor.obj
 0001:0000dcf0       ?AtlCoTaskMemCAlloc@ATL@@YAPEAXKK@Z 000000018000ecf0 f i CoinAcceptor.obj
 0001:0000dd70       ?AtlCoTaskMemRecalloc@ATL@@YAPEAXPEAXKK@Z 000000018000ed70 f i CoinAcceptor.obj
 0001:0000ddf0       ?AtlComModuleGetClassObject@ATL@@YAJPEAU_ATL_COM_MODULE70@1@AEBU_GUID@@1PEAPEAX@Z 000000018000edf0 f i CoinAcceptor.obj
 0001:0000e120       ?AtlComModuleRegisterServer@ATL@@YAJPEAU_ATL_COM_MODULE70@1@HPEBU_GUID@@@Z 000000018000f120 f i CoinAcceptor.obj
 0001:0000e320       ?AtlComModuleUnregisterServer@ATL@@YAJPEAU_ATL_COM_MODULE70@1@HPEBU_GUID@@@Z 000000018000f320 f i CoinAcceptor.obj
 0001:0000e480       ?AtlComQIPtrAssign2@ATL@@YAXPEAPEAUIUnknown@@PEAU2@AEBU_GUID@@@Z 000000018000f480 f i CoinAcceptor.obj
 0001:0000e510       ?AtlCreateTargetDC@ATL@@YAPEAUHDC__@@PEAU2@PEAUtagDVTARGETDEVICE@@@Z 000000018000f510 f i CoinAcceptor.obj
 0001:0000e740       ?AtlCrtErrorCheck@ATL@@YAHH@Z 000000018000f740 f i CoinAcceptor.obj
 0001:0000e7c0       ?AtlGetPerUserRegistration@ATL@@YAJPEA_N@Z 000000018000f7c0 f i CoinAcceptor.obj
 0001:0000e7f0       ?AtlHiMetricToPixel@ATL@@YAXPEBUtagSIZE@@PEAU2@@Z 000000018000f7f0 f i CoinAcceptor.obj
 0001:0000e9f0       ?AtlHresultFromLastError@ATL@@YAJXZ 000000018000f9f0 f i CoinAcceptor.obj
 0001:0000ea20       ?AtlHresultFromWin32@ATL@@YAJK@Z 000000018000fa20 f i CoinAcceptor.obj
 0001:0000ea50       ?AtlIPersistStreamInit_Load@ATL@@YAJPEAUIStream@@PEBUATL_PROPMAP_ENTRY@1@PEAXPEAUIUnknown@@@Z 000000018000fa50 f i CoinAcceptor.obj
 0001:0000f0c0       ?AtlIPersistStreamInit_Save@ATL@@YAJPEAUIStream@@HPEBUATL_PROPMAP_ENTRY@1@PEAXPEAUIUnknown@@@Z 00000001800100c0 f i CoinAcceptor.obj
 0001:0000f650       ?AtlInternalOleLoadFromStream@ATL@@YAJPEAUIStream@@AEBU_GUID@@PEAPEAXTClassesAllowedInStream@1@K@Z 0000000180010650 f i CoinAcceptor.obj
 0001:0000f990       ?AtlInternalQueryInterface@ATL@@YAJPEAXPEBU_ATL_INTMAP_ENTRY@1@AEBU_GUID@@PEAPEAX@Z 0000000180010990 f i CoinAcceptor.obj
 0001:0000fc50       ?AtlLoadTypeLib@ATL@@YAJPEAUHINSTANCE__@@PEB_WPEAPEA_WPEAPEAUITypeLib@@@Z 0000000180010c50 f i CoinAcceptor.obj
 0001:00010120       ?AtlModuleAddTermFunc@ATL@@YAJPEAU_ATL_MODULE70@1@P6AX_K@Z1@Z 0000000180011120 f i CoinAcceptor.obj
 0001:000102f0       ?AtlRegisterClassCategoriesHelper@ATL@@YAJAEBU_GUID@@PEBU_ATL_CATMAP_ENTRY@1@H@Z 00000001800112f0 f i CoinAcceptor.obj
 0001:00010ac0       ?AtlRegisterTypeLib@ATL@@YAJPEAUHINSTANCE__@@PEB_W@Z 0000000180011ac0 f i CoinAcceptor.obj
 0001:00010e20       ?AtlThrowImpl@ATL@@YAXJ@Z  0000000180011e20 f i CoinAcceptor.obj
 0001:00010f00       ?AtlUnRegisterTypeLib@ATL@@YAJPEAUHINSTANCE__@@PEB_W@Z 0000000180011f00 f i CoinAcceptor.obj
 0001:00011130       ?AtlWinModuleAddCreateWndData@ATL@@YAXPEAU_ATL_WIN_MODULE70@1@PEAU_AtlCreateWndData@1@PEAX@Z 0000000180012130 f i CoinAcceptor.obj
 0001:00011320       ?AtlWinModuleExtractCreateWndData@ATL@@YAPEAXPEAU_ATL_WIN_MODULE70@1@@Z 0000000180012320 f i CoinAcceptor.obj
 0001:00011520       ?AtlWinModuleRegisterClassExW@ATL@@YAGPEAU_ATL_WIN_MODULE70@1@PEBUtagWNDCLASSEXW@@@Z 0000000180012520 f i CoinAcceptor.obj
 0001:000115f0       ?AtlWinModuleRegisterWndClassInfoW@ATL@@YAGPEAU_ATL_WIN_MODULE70@1@PEAU_ATL_BASE_MODULE70@1@PEAU_ATL_WNDCLASSINFOW@1@PEAP6A_JPEAUHWND__@@I_K_J@Z@Z 00000001800125f0 f i CoinAcceptor.obj
 0001:00011660       ?Attach@?$CAutoVectorPtr@_W@ATL@@QEAAXPEA_W@Z 0000000180012660 f i CoinAcceptor.obj
 0001:000116f0       ?Attach@CComBSTR@ATL@@QEAAXPEA_W@Z 00000001800126f0 f i CoinAcceptor.obj
 0001:00011750       ?Attach@CRegKey@ATL@@QEAAXPEAUHKEY__@@@Z 0000000180012750 f i CoinAcceptor.obj
 0001:000117f0       ?CanForceRemoveKey@CRegParser@ATL@@IEAAHPEB_W@Z 00000001800127f0 f i CoinAcceptor.obj
 0001:00011860       ?ChToByte@CRegParser@ATL@@KAE_W@Z 0000000180012860 f i CoinAcceptor.obj
 0001:000119c0       ?ChangeType@CComVariant@ATL@@QEAAJGPEBUtagVARIANT@@@Z 00000001800129c0 f i CoinAcceptor.obj
 0001:00011a30       ?Cleanup@CComTypeInfoHolder@ATL@@SAX_K@Z 0000000180012a30 f i CoinAcceptor.obj
 0001:00011b20       ?Clear@CComVariant@ATL@@QEAAJXZ 0000000180012b20 f i CoinAcceptor.obj
 0001:00011b50       ?ClearReplacements@CExpansionVector@ATL@@QEAAJXZ 0000000180012b50 f i CoinAcceptor.obj
 0001:00011bf0       ?ClearReplacements@CRegObject@ATL@@UEAAJXZ 0000000180012bf0 f i CoinAcceptor.obj
 0001:00011c50       ?Clone@?$CComEnumImpl@UIEnumConnectionPoints@@$1?_GUID_b196b285_bab4_101a_b69c_00aa00341d07@@3U__s_GUID@@BPEAUIConnectionPoint@@V?$_CopyInterface@UIConnectionPoint@@@ATL@@@ATL@@UEAAJPEAPEAUIEnumConnectionPoints@@@Z 0000000180012c50 f i CoinAcceptor.obj
 0001:00011e40       ?Clone@?$CComEnumImpl@UIEnumConnections@@$1?_GUID_b196b287_bab4_101a_b69c_00aa00341d07@@3U__s_GUID@@BUtagCONNECTDATA@@V?$_Copy@UtagCONNECTDATA@@@ATL@@@ATL@@UEAAJPEAPEAUIEnumConnections@@@Z 0000000180012e40 f i CoinAcceptor.obj
 0001:00012030       ?Close@?$IOleObjectImpl@VCOPOSCoinAcceptor@@@ATL@@UEAAJK@Z 0000000180013030 f i CoinAcceptor.obj
 0001:000120e0       ?Close@CRegKey@ATL@@QEAAJXZ 00000001800130e0 f i CoinAcceptor.obj
 0001:00012150       ?ContextSensitiveHelp@?$IOleInPlaceActiveObjectImpl@VCOPOSCoinAcceptor@@@ATL@@UEAAJH@Z 0000000180013150 f i CoinAcceptor.obj
 0001:000121d0       ?ContextSensitiveHelp@?$IOleInPlaceObjectWindowlessImpl@VCOPOSCoinAcceptor@@@ATL@@UEAAJH@Z 00000001800131d0 f i CoinAcceptor.obj
 0001:00012250       ?ControlQueryInterface@?$CComControl@VCOPOSCoinAcceptor@@V?$CWindowImpl@VCOPOSCoinAcceptor@@VCWindow@ATL@@V?$CWinTraits@$0FGAAAAAA@$0A@@3@@ATL@@@ATL@@UEAAJAEBU_GUID@@PEAPEAX@Z 0000000180013250 f i CoinAcceptor.obj
 0001:000122e0       ?CreateControlWindow@?$CComControl@VCOPOSCoinAcceptor@@V?$CWindowImpl@VCOPOSCoinAcceptor@@VCWindow@ATL@@V?$CWinTraits@$0FGAAAAAA@$0A@@3@@ATL@@@ATL@@UEAAPEAUHWND__@@PEAU3@AEAUtagRECT@@@Z 00000001800132e0 f i CoinAcceptor.obj
 0001:000123d0       ?CreateInstance@?$CComCreator@V?$CComAggObject@VCOPOSCoinAcceptor@@@ATL@@@ATL@@SAJPEAXAEBU_GUID@@PEAPEAX@Z 00000001800133d0 f i CoinAcceptor.obj
 0001:000125b0       ?CreateInstance@?$CComCreator@V?$CComObject@VCOPOSCoinAcceptor@@@ATL@@@ATL@@SAJPEAXAEBU_GUID@@PEAPEAX@Z 00000001800135b0 f i CoinAcceptor.obj
 0001:000127b0       ?CreateInstance@?$CComObject@V?$CComEnum@UIEnumConnectionPoints@@$1?_GUID_b196b285_bab4_101a_b69c_00aa00341d07@@3U__s_GUID@@BPEAUIConnectionPoint@@V?$_CopyInterface@UIConnectionPoint@@@ATL@@VCComSingleThreadModel@6@@ATL@@@ATL@@SAJPEAPEAV12@@Z 00000001800137b0 f i CoinAcceptor.obj
 0001:00012970       ?CreateInstance@?$CComObject@V?$CComEnum@UIEnumConnections@@$1?_GUID_b196b287_bab4_101a_b69c_00aa00341d07@@3U__s_GUID@@BUtagCONNECTDATA@@V?$_Copy@UtagCONNECTDATA@@@ATL@@VCComSingleThreadModel@6@@ATL@@@ATL@@SAJPEAPEAV12@@Z 0000000180013970 f i CoinAcceptor.obj
 0001:00012b30       ?CreateInstance@CComClassFactory@ATL@@UEAAJPEAUIUnknown@@AEBU_GUID@@PEAPEAX@Z 0000000180013b30 f i CoinAcceptor.obj
 0001:00012c50       ?DAdvise@?$IDataObjectImpl@VCOPOSCoinAcceptor@@@ATL@@UEAAJPEAUtagFORMATETC@@KPEAUIAdviseSink@@PEAK@Z 0000000180013c50 f i CoinAcceptor.obj
 0001:00012db0       ?DEVMODEOLE2T_EX@@YAPEAU_devicemodeW@@PEAU1@@Z 0000000180013db0 f i CoinAcceptor.obj
 0001:00012dc0       ?DUnadvise@?$IDataObjectImpl@VCOPOSCoinAcceptor@@@ATL@@UEAAJK@Z 0000000180013dc0 f i CoinAcceptor.obj
 0001:00012ec0       ?Decrement@CComMultiThreadModel@ATL@@SAKPEAJ@Z 0000000180013ec0 f i CoinAcceptor.obj
 0001:00012ee0       ?Decrement@CComSingleThreadModel@ATL@@SAKPEAJ@Z 0000000180013ee0 f i CoinAcceptor.obj
 0001:00012f00       ?DefWindowProcW@?$CWindowImplBaseT@VCWindow@ATL@@V?$CWinTraits@$0FGAAAAAA@$0A@@2@@ATL@@QEAA_JI_K_J@Z 0000000180013f00 f i CoinAcceptor.obj
 0001:00012f60       ?DefaultReflectionHandler@?$CWindowImplRoot@VCWindow@ATL@@@ATL@@SAHPEAUHWND__@@I_K_JAEA_J@Z 0000000180013f60 f i CoinAcceptor.obj
 0001:00013050       ?DeleteSubKey@CRegKey@ATL@@QEAAJPEB_W@Z 0000000180014050 f i CoinAcceptor.obj
 0001:00013180       ?DeleteValue@CRegKey@ATL@@QEAAJPEB_W@Z 0000000180014180 f i CoinAcceptor.obj
 0001:00013210       ?Detach@?$CAutoVectorPtr@_W@ATL@@QEAAPEA_WXZ 0000000180014210 f i CoinAcceptor.obj
 0001:00013250       ?Detach@?$CComPtrBase@UIPersistStream@@@ATL@@QEAAPEAUIPersistStream@@XZ 0000000180014250 f i CoinAcceptor.obj
 0001:00013290       ?Detach@?$CComPtrBase@UITypeInfo@@@ATL@@QEAAPEAUITypeInfo@@XZ 0000000180014290 f i CoinAcceptor.obj
 0001:000132d0       ?Detach@?$CComPtrBase@UIUnknown@@@ATL@@QEAAPEAUIUnknown@@XZ 00000001800142d0 f i CoinAcceptor.obj
 0001:00013310       ?Detach@CComBSTR@ATL@@QEAAPEA_WXZ 0000000180014310 f i CoinAcceptor.obj
 0001:00013350       ?Detach@CParseBuffer@CRegParser@ATL@@QEAAPEA_WXZ 0000000180014350 f i CoinAcceptor.obj
 0001:000133b0       ?Detach@CRegKey@ATL@@QEAAPEAUHKEY__@@XZ 00000001800143b0 f i CoinAcceptor.obj
 0001:00013410       ?DoEvent@COPOSCoinAcceptor@@IEAAXI_K_J@Z 0000000180014410 f i CoinAcceptor.obj
 0001:00013550       ?DoVerb@?$IOleObjectImpl@VCOPOSCoinAcceptor@@@ATL@@UEAAJJPEAUtagMSG@@PEAUIOleClientSite@@JPEAUHWND__@@PEBUtagRECT@@@Z 0000000180014550 f i CoinAcceptor.obj
 0001:00013860       ?DoVerbDiscardUndo@?$IOleObjectImpl@VCOPOSCoinAcceptor@@@ATL@@QEAAJPEBUtagRECT@@PEAUHWND__@@@Z 0000000180014860 f i CoinAcceptor.obj
 0001:00013900       ?DoVerbHide@?$IOleObjectImpl@VCOPOSCoinAcceptor@@@ATL@@QEAAJPEBUtagRECT@@PEAUHWND__@@@Z 0000000180014900 f i CoinAcceptor.obj
 0001:000139e0       ?DoVerbInPlaceActivate@?$IOleObjectImpl@VCOPOSCoinAcceptor@@@ATL@@QEAAJPEBUtagRECT@@PEAUHWND__@@@Z 00000001800149e0 f i CoinAcceptor.obj
 0001:00013ac0       ?DoVerbOpen@?$IOleObjectImpl@VCOPOSCoinAcceptor@@@ATL@@QEAAJPEBUtagRECT@@PEAUHWND__@@@Z 0000000180014ac0 f i CoinAcceptor.obj
 0001:00013b60       ?DoVerbPrimary@?$IOleObjectImpl@VCOPOSCoinAcceptor@@@ATL@@QEAAJPEBUtagRECT@@PEAUHWND__@@@Z 0000000180014b60 f i CoinAcceptor.obj
 0001:00013ca0       ?DoVerbProperties@CComControlBase@ATL@@QEAAJPEBUtagRECT@@PEAUHWND__@@@Z 0000000180014ca0 f i CoinAcceptor.obj
 0001:00014050       ?DoVerbShow@?$IOleObjectImpl@VCOPOSCoinAcceptor@@@ATL@@QEAAJPEBUtagRECT@@PEAUHWND__@@@Z 0000000180015050 f i CoinAcceptor.obj
 0001:00014110       ?DoVerbUIActivate@?$IOleObjectImpl@VCOPOSCoinAcceptor@@@ATL@@QEAAJPEBUtagRECT@@PEAUHWND__@@@Z 0000000180015110 f i CoinAcceptor.obj
 0001:000141f0       ?DoesVerbActivate@CComControlBase@ATL@@QEAAHJ@Z 00000001800151f0 f i CoinAcceptor.obj
 0001:00014250       ?DoesVerbUIActivate@CComControlBase@ATL@@QEAAHJ@Z 0000000180015250 f i CoinAcceptor.obj
 0001:000142d0       ?Draw@?$IViewObjectExImpl@VCOPOSCoinAcceptor@@@ATL@@UEAAJKJPEAXPEAUtagDVTARGETDEVICE@@PEAUHDC__@@2PEBU_RECTL@@3P6AH_K@Z4@Z 00000001800152d0 f i CoinAcceptor.obj
 0001:000143f0       ?Empty@CComBSTR@ATL@@QEAAXXZ 00000001800153f0 f i CoinAcceptor.obj
 0001:00014430       ?EnableModeless@?$IOleInPlaceActiveObjectImpl@VCOPOSCoinAcceptor@@@ATL@@UEAAJH@Z 0000000180015430 f i CoinAcceptor.obj
 0001:000144a0       ?EndOfVar@CRegParser@ATL@@IEAAHXZ 00000001800154a0 f i CoinAcceptor.obj
 0001:00014500       ?EnsureTI@CComTypeInfoHolder@ATL@@QEAAJK@Z 0000000180015500 f i CoinAcceptor.obj
 0001:00014560       ?EnumAdvise@?$IOleObjectImpl@VCOPOSCoinAcceptor@@@ATL@@UEAAJPEAPEAUIEnumSTATDATA@@@Z 0000000180015560 f i CoinAcceptor.obj
 0001:000146c0       ?EnumConnectionPoints@?$IConnectionPointContainerImpl@VCOPOSCoinAcceptor@@@ATL@@UEAAJPEAPEAUIEnumConnectionPoints@@@Z 00000001800156c0 f i CoinAcceptor.obj
 0001:00014bb0       ?EnumConnections@?$IConnectionPointImpl@VCOPOSCoinAcceptor@@$1?DIID__IOPOSCoinAcceptorEvents@@3U_GUID@@BVCComDynamicUnkArray@ATL@@@ATL@@UEAAJPEAPEAUIEnumConnections@@@Z 0000000180015bb0 f i CoinAcceptor.obj
 0001:00014f00       ?EnumConnections@?$IConnectionPointImpl@VCOPOSCoinAcceptor@@$1?IID_IPropertyNotifySink@@3U_GUID@@BVCComDynamicUnkArray@ATL@@@ATL@@UEAAJPEAPEAUIEnumConnections@@@Z 0000000180015f00 f i CoinAcceptor.obj
 0001:00015250       ?EnumDAdvise@?$IDataObjectImpl@VCOPOSCoinAcceptor@@@ATL@@UEAAJPEAPEAUIEnumSTATDATA@@@Z 0000000180016250 f i CoinAcceptor.obj
 0001:000153a0       ?EnumFormatEtc@?$IDataObjectImpl@VCOPOSCoinAcceptor@@@ATL@@UEAAJKPEAPEAUIEnumFORMATETC@@@Z 00000001800163a0 f i CoinAcceptor.obj
 0001:00015430       ?EnumVerbs@?$IOleObjectImpl@VCOPOSCoinAcceptor@@@ATL@@UEAAJPEAPEAUIEnumOLEVERB@@@Z 0000000180016430 f i CoinAcceptor.obj
 0001:00015500       ?EscapeSingleQuote@CAtlModule@ATL@@SAXPEA_W_KPEB_W@Z 0000000180016500 f i CoinAcceptor.obj
 0001:00015600       ?ExtractCreateWndData@CAtlWinModule@ATL@@QEAAPEAXXZ 0000000180016600 f i CoinAcceptor.obj
 0001:00015630       ?FAccessAllowed@?$IObjectSafetyImpl@VCOPOSCoinAcceptor@@$02@ATL@@MEAAHXZ 0000000180016630 f i CoinAcceptor.obj
 0001:00015640       ?FinalConstruct@?$CComAggObject@VCOPOSCoinAcceptor@@@ATL@@QEAAJXZ 0000000180016640 f i CoinAcceptor.obj
 0001:00015690       ?FinalConstruct@CComObjectRootBase@ATL@@QEAAJXZ 0000000180016690 f i CoinAcceptor.obj
 0001:000156a0       ?FinalConstruct@CRegObject@ATL@@QEAAJXZ 00000001800166a0 f i CoinAcceptor.obj
 0001:000156e0       ?FinalRelease@?$CComAggObject@VCOPOSCoinAcceptor@@@ATL@@QEAAXXZ 00000001800166e0 f i CoinAcceptor.obj
 0001:00015730       ?FinalRelease@CComObjectRootBase@ATL@@QEAAXXZ 0000000180016730 f i CoinAcceptor.obj
 0001:00015740       ?FindConnectionPoint@?$IConnectionPointContainerImpl@VCOPOSCoinAcceptor@@@ATL@@UEAAJAEBU_GUID@@PEAPEAUIConnectionPoint@@@Z 0000000180016740 f i CoinAcceptor.obj
 0001:000158b0       ?FindKey@?$CSimpleMap@PEA_WPEA_WVCExpansionVectorEqualHelper@ATL@@@ATL@@QEBAHAEBQEA_W@Z 00000001800168b0 f i CoinAcceptor.obj
 0001:00015930       ?FireTheEvent@?$CProxy_IOPOSEvents@VCOPOSCoinAcceptor@@@@IEAAXPEAUIUnknown@@PEAVOposVariant@@IAEAJPEB_WJ@Z 0000000180016930 f i CoinAcceptor.obj
 0001:00015b10       ?FireViewChange@CComControlBase@ATL@@QEAAJXZ 0000000180016b10 f i CoinAcceptor.obj
 0001:00015bf0       ?Fire_DataEvent@?$CProxy_IOPOSEvents@VCOPOSCoinAcceptor@@@@QEAAXJ@Z 0000000180016bf0 f i CoinAcceptor.obj
 0001:00015de0       ?Fire_DirectIOEvent@?$CProxy_IOPOSEvents@VCOPOSCoinAcceptor@@@@QEAAXJPEAJPEAPEA_W@Z 0000000180016de0 f i CoinAcceptor.obj
 0001:00016070       ?Fire_StatusUpdateEvent@?$CProxy_IOPOSEvents@VCOPOSCoinAcceptor@@@@QEAAXJ@Z 0000000180017070 f i CoinAcceptor.obj
 0001:00016260       ?FormatWindowClassName@AtlModuleRegisterWndClassInfoParamW@ATL@@SAXPEA_WKPEAX@Z 0000000180017260 f i CoinAcceptor.obj
 0001:000162b0       ?Free@?$CAutoVectorPtr@_W@ATL@@QEAAXXZ 00000001800172b0 f i CoinAcceptor.obj
 0001:00016300       ?FreeHeap@?$CTempBuffer@E$0BAA@VCCRTAllocator@ATL@@@ATL@@AEAAXXZ 0000000180017300 f i CoinAcceptor.obj
 0001:00016340       ?FreeHeap@?$CTempBuffer@_W$0BAA@VCCRTAllocator@ATL@@@ATL@@AEAAXXZ 0000000180017340 f i CoinAcceptor.obj
 0001:00016380       ?FreeHeap@?$CTempBuffer@_W$0EAA@VCCRTAllocator@ATL@@@ATL@@AEAAXXZ 0000000180017380 f i CoinAcceptor.obj
 0001:000163c0       ?Freeze@?$IViewObjectExImpl@VCOPOSCoinAcceptor@@@ATL@@UEAAJKJPEAXPEAK@Z 00000001800173c0 f i CoinAcceptor.obj
 0001:00016450       ?GenerateError@CRegParser@ATL@@IEAAJI@Z 0000000180017450 f i CoinAcceptor.obj
 0001:00016470       ?GetAdvise@?$IViewObjectExImpl@VCOPOSCoinAcceptor@@@ATL@@UEAAJPEAK0PEAPEAUIAdviseSink@@@Z 0000000180017470 f i CoinAcceptor.obj
 0001:000165c0       ?GetAmbientLocaleID@CComControlBase@ATL@@QEAAJAEAK@Z 00000001800175c0 f i CoinAcceptor.obj
 0001:000166a0       ?GetAmbientProperty@CComControlBase@ATL@@QEAAJJAEAUtagVARIANT@@@Z 00000001800176a0 f i CoinAcceptor.obj
 0001:00016710       ?GetAmbientUserMode@CComControlBase@ATL@@QEAAJAEAH@Z 0000000180017710 f i CoinAcceptor.obj
 0001:00016830       ?GetAppId@?$CAtlModuleT@VCComModule@ATL@@@ATL@@SAPEB_WXZ 0000000180017830 f i CoinAcceptor.obj
 0001:00016840       ?GetAt@CComDynamicUnkArray@ATL@@QEAAPEAUIUnknown@@H@Z 0000000180017840 f i CoinAcceptor.obj
 0001:000168f0       ?GetCanonicalFormatEtc@?$IDataObjectImpl@VCOPOSCoinAcceptor@@@ATL@@UEAAJPEAUtagFORMATETC@@0@Z 00000001800178f0 f i CoinAcceptor.obj
 0001:00016980       ?GetClassID@?$IPersistStorageImpl@VCOPOSCoinAcceptor@@@ATL@@UEAAJPEAU_GUID@@@Z 0000000180017980 f i CoinAcceptor.obj
 0001:00016a20       ?GetClassID@?$IPersistStreamInitImpl@VCOPOSCoinAcceptor@@@ATL@@UEAAJPEAU_GUID@@@Z 0000000180017a20 f i CoinAcceptor.obj
 0001:00016ac0       ?GetClassInfoExW@AtlModuleRegisterWndClassInfoParamW@ATL@@SAHPEAUHINSTANCE__@@PEB_WPEAUtagWNDCLASSEXW@@@Z 0000000180017ac0 f i CoinAcceptor.obj
 0001:00016b10       ?GetClassInfoW@?$IProvideClassInfo2Impl@$1?CLSID_OPOSCoinAcceptor@@3U_GUID@@B$1?DIID__IOPOSCoinAcceptorEvents@@3U2@B$1?LIBID_OposCoinAcceptor_CCO@@3U2@B$00$0A@VCComTypeInfoHolder@ATL@@@ATL@@UEAAJPEAPEAUITypeInfo@@@Z 0000000180017b10 f i CoinAcceptor.obj
 0001:00016b50       ?GetClassObject@CComModule@ATL@@QEAAJAEBU_GUID@@0PEAPEAX@Z 0000000180017b50 f i CoinAcceptor.obj
 0001:00016dc0       ?GetClientSite@?$IOleObjectImpl@VCOPOSCoinAcceptor@@@ATL@@UEAAJPEAPEAUIOleClientSite@@@Z 0000000180017dc0 f i CoinAcceptor.obj
 0001:00016e70       ?GetClipboardData@?$IOleObjectImpl@VCOPOSCoinAcceptor@@@ATL@@UEAAJKPEAPEAUIDataObject@@@Z 0000000180017e70 f i CoinAcceptor.obj
 0001:00016f00       ?GetCodeAddress@CDynamicStdCallThunk2@ATL@@QEAAPEAXXZ 0000000180017f00 f i CoinAcceptor.obj
 0001:00016f40       ?GetColorSet@?$IViewObjectExImpl@VCOPOSCoinAcceptor@@@ATL@@UEAAJKJPEAXPEAUtagDVTARGETDEVICE@@PEAUHDC__@@PEAPEAUtagLOGPALETTE@@@Z 0000000180017f40 f i CoinAcceptor.obj
 0001:00016fd0       ?GetConnMap@COPOSCoinAcceptor@@SAPEBU_ATL_CONNMAP_ENTRY@ATL@@PEAH@Z 0000000180017fd0 f i CoinAcceptor.obj
 0001:00017130       ?GetConnectionInterface@?$IConnectionPointImpl@VCOPOSCoinAcceptor@@$1?DIID__IOPOSCoinAcceptorEvents@@3U_GUID@@BVCComDynamicUnkArray@ATL@@@ATL@@UEAAJPEAU_GUID@@@Z 0000000180018130 f i CoinAcceptor.obj
 0001:00017170       ?GetConnectionInterface@?$IConnectionPointImpl@VCOPOSCoinAcceptor@@$1?IID_IPropertyNotifySink@@3U_GUID@@BVCComDynamicUnkArray@ATL@@@ATL@@UEAAJPEAU_GUID@@@Z 0000000180018170 f i CoinAcceptor.obj
 0001:000171b0       ?GetConnectionPointContainer@?$IConnectionPointImpl@VCOPOSCoinAcceptor@@$1?DIID__IOPOSCoinAcceptorEvents@@3U_GUID@@BVCComDynamicUnkArray@ATL@@@ATL@@UEAAJPEAPEAUIConnectionPointContainer@@@Z 00000001800181b0 f i CoinAcceptor.obj
 0001:00017230       ?GetConnectionPointContainer@?$IConnectionPointImpl@VCOPOSCoinAcceptor@@$1?IID_IPropertyNotifySink@@3U_GUID@@BVCComDynamicUnkArray@ATL@@@ATL@@UEAAJPEAPEAUIConnectionPointContainer@@@Z 0000000180018230 f i CoinAcceptor.obj
 0001:000172b0       ?GetContentExtent@?$IQuickActivateImpl@VCOPOSCoinAcceptor@@@ATL@@UEAAJPEAUtagSIZE@@@Z 00000001800182b0 f i CoinAcceptor.obj
 0001:00017370       ?GetControlInfo@?$IOleControlImpl@VCOPOSCoinAcceptor@@@ATL@@UEAAJPEAUtagCONTROLINFO@@@Z 0000000180018370 f i CoinAcceptor.obj
 0001:00017400       ?GetCookie@CComDynamicUnkArray@ATL@@QEAAKPEAPEAUIUnknown@@@Z 0000000180018400 f i CoinAcceptor.obj
 0001:000174f0       ?GetData@?$IDataObjectImpl@VCOPOSCoinAcceptor@@@ATL@@UEAAJPEAUtagFORMATETC@@PEAUtagSTGMEDIUM@@@Z 00000001800184f0 f i CoinAcceptor.obj
 0001:000175b0       ?GetData@CAtlSafeAllocBufferNode@?$CAtlSafeAllocBufferManager@VCCRTAllocator@ATL@@@_ATL_SAFE_ALLOCA_IMPL@ATL@@QEAAPEAXXZ 00000001800185b0 f i CoinAcceptor.obj
 0001:000175d0       ?GetDataHere@?$IDataObjectImpl@VCOPOSCoinAcceptor@@@ATL@@UEAAJPEAUtagFORMATETC@@PEAUtagSTGMEDIUM@@@Z 00000001800185d0 f i CoinAcceptor.obj
 0001:00017660       ?GetDropTarget@?$IOleInPlaceObjectWindowlessImpl@VCOPOSCoinAcceptor@@@ATL@@UEAAJPEAPEAUIDropTarget@@@Z 0000000180018660 f i CoinAcceptor.obj
 0001:000176f0       ?GetExtent@?$IOleObjectImpl@VCOPOSCoinAcceptor@@@ATL@@UEAAJKPEAUtagSIZE@@@Z 00000001800186f0 f i CoinAcceptor.obj
 0001:000177c0       ?GetExtent@?$IViewObjectExImpl@VCOPOSCoinAcceptor@@@ATL@@UEAAJKJPEAUtagDVTARGETDEVICE@@PEAUtagSIZE@@@Z 00000001800187c0 f i CoinAcceptor.obj
 0001:000178d0       ?GetGITPtr@CAtlModule@ATL@@UEAAJPEAPEAUIGlobalInterfaceTable@@@Z 00000001800188d0 f i CoinAcceptor.obj
 0001:00017a10       ?GetGUID@?$IProvideClassInfo2Impl@$1?CLSID_OPOSCoinAcceptor@@3U_GUID@@B$1?DIID__IOPOSCoinAcceptorEvents@@3U2@B$1?LIBID_OposCoinAcceptor_CCO@@3U2@B$00$0A@VCComTypeInfoHolder@ATL@@@ATL@@UEAAJKPEAU_GUID@@@Z 0000000180018a10 f i CoinAcceptor.obj
 0001:00017a90       ?GetIDsOfNames@?$IDispatchImpl@UIOPOSCoinAcceptor@@$1?IID_IOPOSCoinAcceptor@@3U_GUID@@B$1?LIBID_OposCoinAcceptor_CCO@@3U3@B$00$0A@VCComTypeInfoHolder@ATL@@@ATL@@UEAAJAEBU_GUID@@PEAPEA_WIKPEAJ@Z 0000000180018a90 f i CoinAcceptor.obj
 0001:00017af0       ?GetIDsOfNames@CComTypeInfoHolder@ATL@@QEAAJAEBU_GUID@@PEAPEA_WIKPEAJ@Z 0000000180018af0 f i CoinAcceptor.obj
 0001:00017d10       ?GetInterfaceSafetyOptions@?$IObjectSafetyImpl@VCOPOSCoinAcceptor@@$02@ATL@@UEAAJAEBU_GUID@@PEAK1@Z 0000000180018d10 f i CoinAcceptor.obj
 0001:00017eb0       ?GetKeyAt@?$CSimpleMap@PEA_WPEA_WVCExpansionVectorEqualHelper@ATL@@@ATL@@QEBAAEAPEA_WH@Z 0000000180018eb0 f i CoinAcceptor.obj
 0001:00017f60       ?GetLockCount@CAtlModule@ATL@@UEAAJXZ 0000000180018f60 f i CoinAcceptor.obj
 0001:00017f70       ?GetMiscStatus@?$IOleObjectImpl@VCOPOSCoinAcceptor@@@ATL@@UEAAJKPEAK@Z 0000000180018f70 f i CoinAcceptor.obj
 0001:00018000       ?GetMoniker@?$IOleObjectImpl@VCOPOSCoinAcceptor@@@ATL@@UEAAJKKPEAPEAUIMoniker@@@Z 0000000180019000 f i CoinAcceptor.obj
 0001:00018090       ?GetNaturalExtent@?$IViewObjectExImpl@VCOPOSCoinAcceptor@@@ATL@@UEAAJKJPEAUtagDVTARGETDEVICE@@PEAUHDC__@@PEAUtagExtentInfo@@PEAUtagSIZE@@@Z 0000000180019090 f i CoinAcceptor.obj
 0001:00018220       ?GetObjectCLSID@?$CComCoClass@VCOPOSCoinAcceptor@@$1?CLSID_OPOSCoinAcceptor@@3U_GUID@@B@ATL@@SAAEBU_GUID@@XZ 0000000180019220 f i CoinAcceptor.obj
 0001:00018230       ?GetPages@?$ISpecifyPropertyPagesImpl@VCOPOSCoinAcceptor@@@ATL@@UEAAJPEAUtagCAUUID@@@Z 0000000180019230 f i CoinAcceptor.obj
 0001:000182c0       ?GetPagesHelper@?$ISpecifyPropertyPagesImpl@VCOPOSCoinAcceptor@@@ATL@@IEAAJPEAUtagCAUUID@@PEBUATL_PROPMAP_ENTRY@2@@Z 00000001800192c0 f i CoinAcceptor.obj
 0001:00018530       ?GetProperty@?$CComPtr@UIDispatch@@@ATL@@QEAAJJPEAUtagVARIANT@@@Z 0000000180019530 f i CoinAcceptor.obj
 0001:00018580       ?GetProperty@?$CComPtr@UIDispatch@@@ATL@@SAJPEAUIDispatch@@JPEAUtagVARIANT@@@Z 0000000180019580 f i CoinAcceptor.obj
 0001:00018750       ?GetPropertyMap@COPOSCoinAcceptor@@SAPEBUATL_PROPMAP_ENTRY@ATL@@XZ 0000000180019750 f i CoinAcceptor.obj
 0001:00018760       ?GetRect@?$IViewObjectExImpl@VCOPOSCoinAcceptor@@@ATL@@UEAAJKPEAU_RECTL@@@Z 0000000180019760 f i CoinAcceptor.obj
 0001:000187f0       ?GetSize@?$CSimpleMap@PEA_WPEA_WVCExpansionVectorEqualHelper@ATL@@@ATL@@QEBAHXZ 00000001800197f0 f i CoinAcceptor.obj
 0001:00018800       ?GetSize@CComDynamicUnkArray@ATL@@QEBAHXZ 0000000180019800 f i CoinAcceptor.obj
 0001:00018810       ?GetSizeMax@?$IPersistStreamInitImpl@VCOPOSCoinAcceptor@@@ATL@@UEAAJPEAT_ULARGE_INTEGER@@@Z 0000000180019810 f i CoinAcceptor.obj
 0001:00018fa0       ?GetSizeMax@CComVariant@ATL@@QEBAJPEAT_ULARGE_INTEGER@@@Z 0000000180019fa0 f i CoinAcceptor.obj
 0001:000193d0       ?GetStreamSize@CComBSTR@ATL@@SAKPEA_W@Z 000000018001a3d0 f i CoinAcceptor.obj
 0001:00019430       ?GetTI@CComTypeInfoHolder@ATL@@QEAAJK@Z 000000018001a430 f i CoinAcceptor.obj
 0001:00019d00       ?GetTI@CComTypeInfoHolder@ATL@@QEAAJKPEAPEAUITypeInfo@@@Z 000000018001ad00 f i CoinAcceptor.obj
 0001:00019df0       ?GetTypeInfo@?$IDispatchImpl@UIOPOSCoinAcceptor@@$1?IID_IOPOSCoinAcceptor@@3U_GUID@@B$1?LIBID_OposCoinAcceptor_CCO@@3U3@B$00$0A@VCComTypeInfoHolder@ATL@@@ATL@@UEAAJIKPEAPEAUITypeInfo@@@Z 000000018001adf0 f i CoinAcceptor.obj
 0001:00019e40       ?GetTypeInfo@CComTypeInfoHolder@ATL@@QEAAJIKPEAPEAUITypeInfo@@@Z 000000018001ae40 f i CoinAcceptor.obj
 0001:00019ea0       ?GetTypeInfoCount@?$IDispatchImpl@UIOPOSCoinAcceptor@@$1?IID_IOPOSCoinAcceptor@@3U_GUID@@B$1?LIBID_OposCoinAcceptor_CCO@@3U3@B$00$0A@VCComTypeInfoHolder@ATL@@@ATL@@UEAAJPEAI@Z 000000018001aea0 f i CoinAcceptor.obj
 0001:00019ed0       ?GetUnknown@CComDynamicUnkArray@ATL@@QEAAPEAUIUnknown@@K@Z 000000018001aed0 f i CoinAcceptor.obj
 0001:00019f80       ?GetUnknown@COPOSCoinAcceptor@@QEAAPEAUIUnknown@@XZ 000000018001af80 f i CoinAcceptor.obj
 0001:00019fb0       ?GetUserClassID@?$IOleObjectImpl@VCOPOSCoinAcceptor@@@ATL@@UEAAJPEAU_GUID@@@Z 000000018001afb0 f i CoinAcceptor.obj
 0001:0001a090       ?GetUserType@?$IOleObjectImpl@VCOPOSCoinAcceptor@@@ATL@@UEAAJKPEAPEA_W@Z 000000018001b090 f i CoinAcceptor.obj
 0001:0001a120       ?GetValueAt@?$CSimpleMap@PEA_WPEA_WVCExpansionVectorEqualHelper@ATL@@@ATL@@QEBAAEAPEA_WH@Z 000000018001b120 f i CoinAcceptor.obj
 0001:0001a1d0       ?GetViewStatus@?$IViewObjectExImpl@VCOPOSCoinAcceptor@@@ATL@@UEAAJPEAK@Z 000000018001b1d0 f i CoinAcceptor.obj
 0001:0001a2d0       ?GetWNDPROC@CWndProcThunk@ATL@@QEAAP6A_JPEAUHWND__@@I_K_J@ZXZ 000000018001b2d0 f i CoinAcceptor.obj
 0001:0001a310       ?GetWindow@?$IOleInPlaceActiveObjectImpl@VCOPOSCoinAcceptor@@@ATL@@UEAAJPEAPEAUHWND__@@@Z 000000018001b310 f i CoinAcceptor.obj
 0001:0001a410       ?GetWindow@?$IOleInPlaceObjectWindowlessImpl@VCOPOSCoinAcceptor@@@ATL@@UEAAJPEAPEAUHWND__@@@Z 000000018001b410 f i CoinAcceptor.obj
 0001:0001a510       ?GetWindowProc@?$CWindowImplBaseT@VCWindow@ATL@@V?$CWinTraits@$0FGAAAAAA@$0A@@2@@ATL@@UEAAP6A_JPEAUHWND__@@I_K_J@ZXZ 000000018001b510 f i CoinAcceptor.obj
 0001:0001a520       ?GetWndCaption@?$CWindowImpl@VCOPOSCoinAcceptor@@VCWindow@ATL@@V?$CWinTraits@$0FGAAAAAA@$0A@@3@@ATL@@SAPEB_WXZ 000000018001b520 f i CoinAcceptor.obj
 0001:0001a530       ?GetWndClassInfo@?$CWindowImpl@VCOPOSCoinAcceptor@@VCWindow@ATL@@V?$CWinTraits@$0FGAAAAAA@$0A@@3@@ATL@@SAAEAU_ATL_WNDCLASSINFOW@2@XZ 000000018001b530 f i CoinAcceptor.obj
 0001:0001a540       ?GetWndClassName@CWindow@ATL@@SAPEB_WXZ 000000018001b540 f i CoinAcceptor.obj
 0001:0001a550       ?GetWndExStyle@?$CWinTraits@$0FGAAAAAA@$0A@@ATL@@SAKK@Z 000000018001b550 f i CoinAcceptor.obj
 0001:0001a590       ?GetWndExStyle@?$CWindowImplBaseT@VCWindow@ATL@@V?$CWinTraits@$0FGAAAAAA@$0A@@2@@ATL@@SAKK@Z 000000018001b590 f i CoinAcceptor.obj
 0001:0001a5c0       ?GetWndStyle@?$CWinTraits@$0FGAAAAAA@$0A@@ATL@@SAKK@Z 000000018001b5c0 f i CoinAcceptor.obj
 0001:0001a600       ?GetWndStyle@?$CWindowImplBaseT@VCWindow@ATL@@V?$CWinTraits@$0FGAAAAAA@$0A@@2@@ATL@@SAKK@Z 000000018001b600 f i CoinAcceptor.obj
 0001:0001a630       ?GetZoomInfo@CComControlBase@ATL@@QEAAXAEAUATL_DRAWINFO@@@Z 000000018001b630 f i CoinAcceptor.obj
 0001:0001a7e0       ?HKeyFromString@CRegParser@ATL@@KAPEAUHKEY__@@PEA_W@Z 000000018001b7e0 f i CoinAcceptor.obj
 0001:0001a870       ?HandsOffStorage@?$IPersistStorageImpl@VCOPOSCoinAcceptor@@@ATL@@UEAAJXZ 000000018001b870 f i CoinAcceptor.obj
 0001:0001a8e0       ?HasSubKeys@CRegParser@ATL@@IEAAHPEAUHKEY__@@@Z 000000018001b8e0 f i CoinAcceptor.obj
 0001:0001aa50       ?IDataObject_GetData@CComControlBase@ATL@@QEAAJPEAUtagFORMATETC@@PEAUtagSTGMEDIUM@@@Z 000000018001ba50 f i CoinAcceptor.obj
 0001:0001af00       ?IOleInPlaceObject_InPlaceDeactivate@CComControlBase@ATL@@QEAAJXZ 000000018001bf00 f i CoinAcceptor.obj
 0001:0001b170       ?IOleInPlaceObject_SetObjectRects@CComControlBase@ATL@@QEAAJPEBUtagRECT@@0@Z 000000018001c170 f i CoinAcceptor.obj
 0001:0001b350       ?IOleInPlaceObject_UIDeactivate@CComControlBase@ATL@@QEAAJXZ 000000018001c350 f i CoinAcceptor.obj
 0001:0001b5c0       ?IOleObject_Advise@CComControlBase@ATL@@QEAAJPEAUIAdviseSink@@PEAK@Z 000000018001c5c0 f i CoinAcceptor.obj
 0001:0001b670       ?IOleObject_Close@CComControlBase@ATL@@QEAAJK@Z 000000018001c670 f i CoinAcceptor.obj
 0001:0001b9e0       ?IOleObject_GetClientSite@CComControlBase@ATL@@QEAAJPEAPEAUIOleClientSite@@@Z 000000018001c9e0 f i CoinAcceptor.obj
 0001:0001bab0       ?IOleObject_SetClientSite@CComControlBase@ATL@@QEAAJPEAUIOleClientSite@@@Z 000000018001cab0 f i CoinAcceptor.obj
 0001:0001bbc0       ?IOleObject_SetExtent@CComControlBase@ATL@@QEAAJKPEAUtagSIZE@@@Z 000000018001cbc0 f i CoinAcceptor.obj
 0001:0001bd30       ?IPSI_GetIPersistStreamInit@?$IPersistStorageImpl@VCOPOSCoinAcceptor@@@ATL@@AEAAPEAUIPersistStreamInit@@XZ 000000018001cd30 f i CoinAcceptor.obj
 0001:0001bdf0       ?IPersistStreamInit_Load@?$IPersistStreamInitImpl@VCOPOSCoinAcceptor@@@ATL@@QEAAJPEAUIStream@@PEBUATL_PROPMAP_ENTRY@2@@Z 000000018001cdf0 f i CoinAcceptor.obj
 0001:0001be90       ?IPersistStreamInit_Save@?$IPersistStreamInitImpl@VCOPOSCoinAcceptor@@@ATL@@QEAAJPEAUIStream@@HPEBUATL_PROPMAP_ENTRY@2@@Z 000000018001ce90 f i CoinAcceptor.obj
 0001:0001bf50       ?IQuickActivate_QuickActivate@CComControlBase@ATL@@QEAAJPEAUtagQACONTAINER@@PEAUtagQACONTROL@@@Z 000000018001cf50 f i CoinAcceptor.obj
 0001:0001c790       ?IViewObject_Draw@CComControlBase@ATL@@QEAAJKJPEAXPEAUtagDVTARGETDEVICE@@PEAUHDC__@@2PEBU_RECTL@@3@Z 000000018001d790 f i CoinAcceptor.obj
 0001:0001cbe0       ?InPlaceActivate@CComControlBase@ATL@@QEAAJJPEBUtagRECT@@@Z 000000018001dbe0 f i CoinAcceptor.obj
 0001:0001d780       ?InPlaceDeactivate@?$IOleInPlaceObjectWindowlessImpl@VCOPOSCoinAcceptor@@@ATL@@UEAAJXZ 000000018001e780 f i CoinAcceptor.obj
 0001:0001d830       ?Increment@CComMultiThreadModel@ATL@@SAKPEAJ@Z 000000018001e830 f i CoinAcceptor.obj
 0001:0001d850       ?Increment@CComSingleThreadModel@ATL@@SAKPEAJ@Z 000000018001e850 f i CoinAcceptor.obj
 0001:0001d870       ?Init@?$CComEnumImpl@UIEnumConnectionPoints@@$1?_GUID_b196b285_bab4_101a_b69c_00aa00341d07@@3U__s_GUID@@BPEAUIConnectionPoint@@V?$_CopyInterface@UIConnectionPoint@@@ATL@@@ATL@@QEAAJPEAPEAUIConnectionPoint@@0PEAUIUnknown@@W4CComEnumFlags@2@@Z 000000018001e870 f i CoinAcceptor.obj
 0001:0001db60       ?Init@?$CComEnumImpl@UIEnumConnections@@$1?_GUID_b196b287_bab4_101a_b69c_00aa00341d07@@3U__s_GUID@@BUtagCONNECTDATA@@V?$_Copy@UtagCONNECTDATA@@@ATL@@@ATL@@QEAAJPEAUtagCONNECTDATA@@0PEAUIUnknown@@W4CComEnumFlags@2@@Z 000000018001eb60 f i CoinAcceptor.obj
 0001:0001de50       ?Init@CComFakeCriticalSection@ATL@@QEAAJXZ 000000018001ee50 f i CoinAcceptor.obj
 0001:0001de60       ?Init@CComModule@ATL@@QEAAJPEAU_ATL_OBJMAP_ENTRY30@2@PEAUHINSTANCE__@@PEBU_GUID@@@Z 000000018001ee60 f i CoinAcceptor.obj
 0001:0001df50       ?Init@CComSafeDeleteCriticalSection@ATL@@QEAAJXZ 000000018001ef50 f i CoinAcceptor.obj
 0001:0001dfe0       ?Init@CDynamicStdCallThunk2@ATL@@QEAAH_KPEAX@Z 000000018001efe0 f i CoinAcceptor.obj
 0001:0001e060       ?Init@CWndProcThunk@ATL@@QEAAHP6A_JPEAUHWND__@@I_K_J@ZPEAX@Z 000000018001f060 f i CoinAcceptor.obj
 0001:0001e0b0       ?InitFromData@?$IOleObjectImpl@VCOPOSCoinAcceptor@@@ATL@@UEAAJPEAUIDataObject@@HK@Z 000000018001f0b0 f i CoinAcceptor.obj
 0001:0001e140       ?InitLibId@?$CAtlModuleT@VCComModule@ATL@@@ATL@@SAXXZ 000000018001f140 f i CoinAcceptor.obj
 0001:0001e150       ?InitNew@?$IPersistStorageImpl@VCOPOSCoinAcceptor@@@ATL@@UEAAJPEAUIStorage@@@Z 000000018001f150 f i CoinAcceptor.obj
 0001:0001e240       ?InitNew@?$IPersistStreamInitImpl@VCOPOSCoinAcceptor@@@ATL@@UEAAJXZ 000000018001f240 f i CoinAcceptor.obj
 0001:0001e2f0       ?InlineIsEqualUnknown@ATL@@YAHAEBU_GUID@@@Z 000000018001f2f0 f i CoinAcceptor.obj
 0001:0001e380       ?InternalAddRef@?$CComObjectRootEx@VCComMultiThreadModel@ATL@@@ATL@@QEAAKXZ 000000018001f380 f i CoinAcceptor.obj
 0001:0001e400       ?InternalAddRef@?$CComObjectRootEx@VCComSingleThreadModel@ATL@@@ATL@@QEAAKXZ 000000018001f400 f i CoinAcceptor.obj
 0001:0001e480       ?InternalFinalConstructAddRef@CComObjectRootBase@ATL@@QEAAXXZ 000000018001f480 f i CoinAcceptor.obj
 0001:0001e490       ?InternalFinalConstructAddRef@COPOSCoinAcceptor@@QEAAXXZ 000000018001f490 f i CoinAcceptor.obj
 0001:0001e4d0       ?InternalFinalConstructRelease@CComObjectRootBase@ATL@@QEAAXXZ 000000018001f4d0 f i CoinAcceptor.obj
 0001:0001e540       ?InternalFinalConstructRelease@COPOSCoinAcceptor@@QEAAXXZ 000000018001f540 f i CoinAcceptor.obj
 0001:0001e580       ?InternalGetSite@CComControlBase@ATL@@QEAAJAEBU_GUID@@PEAPEAX@Z 000000018001f580 f i CoinAcceptor.obj
 0001:0001e660       ?InternalQueryInterface@CComObjectRootBase@ATL@@SAJPEAXPEBU_ATL_INTMAP_ENTRY@2@AEBU_GUID@@PEAPEAX@Z 000000018001f660 f i CoinAcceptor.obj
 0001:0001e780       ?InternalRelease@?$CComObjectRootEx@VCComMultiThreadModel@ATL@@@ATL@@QEAAKXZ 000000018001f780 f i CoinAcceptor.obj
 0001:0001e800       ?InternalRelease@?$CComObjectRootEx@VCComSingleThreadModel@ATL@@@ATL@@QEAAKXZ 000000018001f800 f i CoinAcceptor.obj
 0001:0001e880       ?InternalSetAtIndex@?$CSimpleArray@GV?$CSimpleArrayEqualHelper@G@ATL@@@ATL@@QEAAXHAEBG@Z 000000018001f880 f i CoinAcceptor.obj
 0001:0001e900       ?InternalSetAtIndex@?$CSimpleMap@PEA_WPEA_WVCExpansionVectorEqualHelper@ATL@@@ATL@@QEAAXHAEBQEA_W0@Z 000000018001f900 f i CoinAcceptor.obj
 0001:0001e9d0       ?Invoke@?$IDispatchImpl@UIOPOSCoinAcceptor@@$1?IID_IOPOSCoinAcceptor@@3U_GUID@@B$1?LIBID_OposCoinAcceptor_CCO@@3U3@B$00$0A@VCComTypeInfoHolder@ATL@@@ATL@@UEAAJJAEBU_GUID@@KGPEAUtagDISPPARAMS@@PEAUtagVARIANT@@PEAUtagEXCEPINFO@@PEAI@Z 000000018001f9d0 f i CoinAcceptor.obj
 0001:0001ea70       ?Invoke@CComTypeInfoHolder@ATL@@QEAAJPEAUIDispatch@@JAEBU_GUID@@KGPEAUtagDISPPARAMS@@PEAUtagVARIANT@@PEAUtagEXCEPINFO@@PEAI@Z 000000018001fa70 f i CoinAcceptor.obj
 0001:0001eb30       ?IsDirty@?$IPersistStorageImpl@VCOPOSCoinAcceptor@@@ATL@@UEAAJXZ 000000018001fb30 f i CoinAcceptor.obj
 0001:0001ec20       ?IsDirty@?$IPersistStreamInitImpl@VCOPOSCoinAcceptor@@@ATL@@UEAAJXZ 000000018001fc20 f i CoinAcceptor.obj
 0001:0001ece0       ?IsEqualKey@CExpansionVectorEqualHelper@ATL@@SA_NQEA_W0@Z 000000018001fce0 f i CoinAcceptor.obj
 0001:0001ed30       ?IsEqualObject@?$CComPtrBase@UIOleClientSite@@@ATL@@QEAA_NPEAUIUnknown@@@Z 000000018001fd30 f i CoinAcceptor.obj
 0001:0001ee80       ?IsEqualObject@?$CComPtrBase@UITypeInfo@@@ATL@@QEAA_NPEAUIUnknown@@@Z 000000018001fe80 f i CoinAcceptor.obj
 0001:0001efd0       ?IsSpace@CRegParser@ATL@@IEAAH_W@Z 000000018001ffd0 f i CoinAcceptor.obj
 0001:0001f030       ?IsUpToDate@?$IOleObjectImpl@VCOPOSCoinAcceptor@@@ATL@@UEAAJXZ 0000000180020030 f i CoinAcceptor.obj
 0001:0001f0a0       ?Length@CComBSTR@ATL@@QEBAIXZ 00000001800200a0 f i CoinAcceptor.obj
 0001:0001f0e0       ?Load@?$IPersistStorageImpl@VCOPOSCoinAcceptor@@@ATL@@UEAAJPEAUIStorage@@@Z 00000001800200e0 f i CoinAcceptor.obj
 0001:0001f290       ?Load@?$IPersistStreamInitImpl@VCOPOSCoinAcceptor@@@ATL@@UEAAJPEAUIStream@@@Z 0000000180020290 f i CoinAcceptor.obj
 0001:0001f350       ?LoadCursorW@AtlModuleRegisterWndClassInfoParamW@ATL@@SAPEAUHICON__@@PEAUHINSTANCE__@@PEB_W@Z 0000000180020350 f i CoinAcceptor.obj
 0001:0001f390       ?LoadNameCache@CComTypeInfoHolder@ATL@@QEAAJPEAUITypeInfo@@@Z 0000000180020390 f i CoinAcceptor.obj
 0001:0001f6d0       ?Lock@?$CComCritSecLock@VCComCriticalSection@ATL@@@ATL@@QEAAJXZ 00000001800206d0 f i CoinAcceptor.obj
 0001:0001f7c0       ?Lock@?$CComObjectRootEx@VCComSingleThreadModel@ATL@@@ATL@@QEAAXXZ 00000001800207c0 f i CoinAcceptor.obj
 0001:0001f7d0       ?Lock@CAtlModule@ATL@@UEAAJXZ 00000001800207d0 f i CoinAcceptor.obj
 0001:0001f810       ?Lock@CComCriticalSection@ATL@@QEAAJXZ 0000000180020810 f i CoinAcceptor.obj
 0001:0001f850       ?Lock@CComFakeCriticalSection@ATL@@QEAAJXZ 0000000180020850 f i CoinAcceptor.obj
 0001:0001f860       ?LockServer@CComClassFactory@ATL@@UEAAJH@Z 0000000180020860 f i CoinAcceptor.obj
 0001:0001f8c0       ?Lookup@?$CSimpleMap@PEA_WPEA_WVCExpansionVectorEqualHelper@ATL@@@ATL@@QEBAPEA_WAEBQEA_W@Z 00000001800208c0 f i CoinAcceptor.obj
 0001:0001f920       ?Next@?$CComEnumImpl@UIEnumConnectionPoints@@$1?_GUID_b196b285_bab4_101a_b69c_00aa00341d07@@3U__s_GUID@@BPEAUIConnectionPoint@@V?$_CopyInterface@UIConnectionPoint@@@ATL@@@ATL@@UEAAJKPEAPEAUIConnectionPoint@@PEAK@Z 0000000180020920 f i CoinAcceptor.obj
 0001:0001fae0       ?Next@?$CComEnumImpl@UIEnumConnections@@$1?_GUID_b196b287_bab4_101a_b69c_00aa00341d07@@3U__s_GUID@@BUtagCONNECTDATA@@V?$_Copy@UtagCONNECTDATA@@@ATL@@@ATL@@UEAAJKPEAUtagCONNECTDATA@@PEAK@Z 0000000180020ae0 f i CoinAcceptor.obj
 0001:0001fca0       ?NextToken@CRegParser@ATL@@IEAAJPEA_W@Z 0000000180020ca0 f i CoinAcceptor.obj
 0001:00020030       ?OLE2CT_EX@@YAPEB_WPEB_WI@Z 0000000180021030 f i CoinAcceptor.obj
 0001:00020050       ?OLE2CT_EX_DEF@@YAPEB_WPEB_W@Z 0000000180021050 f i CoinAcceptor.obj
 0001:00020060       ?OLE2T_EX@@YAPEA_WPEA_WI@Z 0000000180021060 f i CoinAcceptor.obj
 0001:00020080       ?OnAmbientPropertyChange@?$IOleControlImpl@VCOPOSCoinAcceptor@@@ATL@@UEAAJJ@Z 0000000180021080 f i CoinAcceptor.obj
 0001:00020140       ?OnDocWindowActivate@?$IOleInPlaceActiveObjectImpl@VCOPOSCoinAcceptor@@@ATL@@UEAAJH@Z 0000000180021140 f i CoinAcceptor.obj
 0001:00020200       ?OnDrawAdvanced@CComControlBase@ATL@@UEAAJAEAUATL_DRAWINFO@@@Z 0000000180021200 f i CoinAcceptor.obj
 0001:00020450       ?OnFinalMessage@?$CWindowImplBaseT@VCWindow@ATL@@V?$CWinTraits@$0FGAAAAAA@$0A@@2@@ATL@@UEAAXPEAUHWND__@@@Z 0000000180021450 f i CoinAcceptor.obj
 0001:00020460       ?OnFrameWindowActivate@?$IOleInPlaceActiveObjectImpl@VCOPOSCoinAcceptor@@@ATL@@UEAAJH@Z 0000000180021460 f i CoinAcceptor.obj
 0001:000204d0       ?OnKillFocus@CComControlBase@ATL@@QEAA_JI_K_JAEAH@Z 00000001800214d0 f i CoinAcceptor.obj
 0001:000205c0       ?OnMnemonic@?$IOleControlImpl@VCOPOSCoinAcceptor@@@ATL@@UEAAJPEAUtagMSG@@@Z 00000001800215c0 f i CoinAcceptor.obj
 0001:00020650       ?OnMouseActivate@CComControlBase@ATL@@QEAA_JI_K_JAEAH@Z 0000000180021650 f i CoinAcceptor.obj
 0001:000207f0       ?OnPaint@CComControlBase@ATL@@QEAA_JI_K_JAEAH@Z 00000001800217f0 f i CoinAcceptor.obj
 0001:00020980       ?OnPostVerbDiscardUndo@?$IOleObjectImpl@VCOPOSCoinAcceptor@@@ATL@@QEAAJXZ 0000000180021980 f i CoinAcceptor.obj
 0001:00020990       ?OnPostVerbHide@?$IOleObjectImpl@VCOPOSCoinAcceptor@@@ATL@@QEAAJXZ 0000000180021990 f i CoinAcceptor.obj
 0001:000209a0       ?OnPostVerbInPlaceActivate@?$IOleObjectImpl@VCOPOSCoinAcceptor@@@ATL@@QEAAJXZ 00000001800219a0 f i CoinAcceptor.obj
 0001:000209b0       ?OnPostVerbOpen@?$IOleObjectImpl@VCOPOSCoinAcceptor@@@ATL@@QEAAJXZ 00000001800219b0 f i CoinAcceptor.obj
 0001:000209c0       ?OnPostVerbShow@?$IOleObjectImpl@VCOPOSCoinAcceptor@@@ATL@@QEAAJXZ 00000001800219c0 f i CoinAcceptor.obj
 0001:000209d0       ?OnPostVerbUIActivate@?$IOleObjectImpl@VCOPOSCoinAcceptor@@@ATL@@QEAAJXZ 00000001800219d0 f i CoinAcceptor.obj
 0001:000209e0       ?OnPreVerbDiscardUndo@?$IOleObjectImpl@VCOPOSCoinAcceptor@@@ATL@@QEAAJXZ 00000001800219e0 f i CoinAcceptor.obj
 0001:000209f0       ?OnPreVerbHide@?$IOleObjectImpl@VCOPOSCoinAcceptor@@@ATL@@QEAAJXZ 00000001800219f0 f i CoinAcceptor.obj
 0001:00020a00       ?OnPreVerbInPlaceActivate@?$IOleObjectImpl@VCOPOSCoinAcceptor@@@ATL@@QEAAJXZ 0000000180021a00 f i CoinAcceptor.obj
 0001:00020a10       ?OnPreVerbOpen@?$IOleObjectImpl@VCOPOSCoinAcceptor@@@ATL@@QEAAJXZ 0000000180021a10 f i CoinAcceptor.obj
 0001:00020a20       ?OnPreVerbShow@?$IOleObjectImpl@VCOPOSCoinAcceptor@@@ATL@@QEAAJXZ 0000000180021a20 f i CoinAcceptor.obj
 0001:00020a30       ?OnPreVerbUIActivate@?$IOleObjectImpl@VCOPOSCoinAcceptor@@@ATL@@QEAAJXZ 0000000180021a30 f i CoinAcceptor.obj
 0001:00020a40       ?OnSetFocus@CComControlBase@ATL@@QEAA_JI_K_JAEAH@Z 0000000180021a40 f i CoinAcceptor.obj
 0001:00020c40       ?OnWindowMessage@?$IOleInPlaceObjectWindowlessImpl@VCOPOSCoinAcceptor@@@ATL@@UEAAJI_K_JPEA_J@Z 0000000180021c40 f i CoinAcceptor.obj
 0001:00020e60       ?Open@CRegKey@ATL@@QEAAJPEAUHKEY__@@PEB_WK@Z 0000000180021e60 f i CoinAcceptor.obj
 0001:00020fe0       ?OuterAddRef@CComObjectRootBase@ATL@@QEAAKXZ 0000000180021fe0 f i CoinAcceptor.obj
 0001:00021020       ?OuterQueryInterface@CComObjectRootBase@ATL@@QEAAJAEBU_GUID@@PEAPEAX@Z 0000000180022020 f i CoinAcceptor.obj
 0001:00021070       ?OuterRelease@CComObjectRootBase@ATL@@QEAAKXZ 0000000180022070 f i CoinAcceptor.obj
 0001:000210b0       ?PreProcessBuffer@CRegParser@ATL@@QEAAJPEA_WPEAPEA_W@Z 00000001800220b0 f i CoinAcceptor.obj
 0001:00021790       ?PreTranslateAccelerator@CComControlBase@ATL@@QEAAHPEAUtagMSG@@AEAJ@Z 0000000180022790 f i CoinAcceptor.obj
 0001:000217b0       ?ProcessWindowMessage@?$CComControl@VCOPOSCoinAcceptor@@V?$CWindowImpl@VCOPOSCoinAcceptor@@VCWindow@ATL@@V?$CWinTraits@$0FGAAAAAA@$0A@@3@@ATL@@@ATL@@UEAAHPEAUHWND__@@I_K_JAEA_JK@Z 00000001800227b0 f i CoinAcceptor.obj
 0001:00021a30       ?ProcessWindowMessage@COPOSCoinAcceptor@@UEAAHPEAUHWND__@@I_K_JAEA_JK@Z 0000000180022a30 f i CoinAcceptor.obj
 0001:00021bb0       ?PutProperty@?$CComPtr@UIDispatch@@@ATL@@QEAAJJPEAUtagVARIANT@@@Z 0000000180022bb0 f i CoinAcceptor.obj
 0001:00021c00       ?PutProperty@?$CComPtr@UIDispatch@@@ATL@@SAJPEAUIDispatch@@JPEAUtagVARIANT@@@Z 0000000180022c00 f i CoinAcceptor.obj
 0001:00021ea0       ?QueryGetData@?$IDataObjectImpl@VCOPOSCoinAcceptor@@@ATL@@UEAAJPEAUtagFORMATETC@@@Z 0000000180022ea0 f i CoinAcceptor.obj
 0001:00021f30       ?QueryHitPoint@?$IViewObjectExImpl@VCOPOSCoinAcceptor@@@ATL@@UEAAJKPEBUtagRECT@@UtagPOINT@@JPEAK@Z 0000000180022f30 f i CoinAcceptor.obj
 0001:000220a0       ?QueryHitRect@?$IViewObjectExImpl@VCOPOSCoinAcceptor@@@ATL@@UEAAJKPEBUtagRECT@@0JPEAK@Z 00000001800230a0 f i CoinAcceptor.obj
 0001:00022270       ?QueryInterface@?$CComAggObject@VCOPOSCoinAcceptor@@@ATL@@UEAAJAEBU_GUID@@PEAPEAX@Z 0000000180023270 f i CoinAcceptor.obj
 0001:00022360       ?QueryInterface@?$CComContainedObject@VCOPOSCoinAcceptor@@@ATL@@UEAAJAEBU_GUID@@PEAPEAX@Z 0000000180023360 f i CoinAcceptor.obj
 0001:000223ac       ?QueryInterface@?$CComContainedObject@VCOPOSCoinAcceptor@@@ATL@@WBAA@EAAJAEBU_GUID@@PEAPEAX@Z 00000001800233ac f i CoinAcceptor.obj
 0001:000223b8       ?QueryInterface@?$CComContainedObject@VCOPOSCoinAcceptor@@@ATL@@WBAI@EAAJAEBU_GUID@@PEAPEAX@Z 00000001800233b8 f i CoinAcceptor.obj
 0001:000223c4       ?QueryInterface@?$CComContainedObject@VCOPOSCoinAcceptor@@@ATL@@WBBA@EAAJAEBU_GUID@@PEAPEAX@Z 00000001800233c4 f i CoinAcceptor.obj
 0001:000223d0       ?QueryInterface@?$CComContainedObject@VCOPOSCoinAcceptor@@@ATL@@WBBI@EAAJAEBU_GUID@@PEAPEAX@Z 00000001800233d0 f i CoinAcceptor.obj
 0001:000223dc       ?QueryInterface@?$CComContainedObject@VCOPOSCoinAcceptor@@@ATL@@WLI@EAAJAEBU_GUID@@PEAPEAX@Z 00000001800233dc f i CoinAcceptor.obj
 0001:000223e8       ?QueryInterface@?$CComContainedObject@VCOPOSCoinAcceptor@@@ATL@@WMA@EAAJAEBU_GUID@@PEAPEAX@Z 00000001800233e8 f i CoinAcceptor.obj
 0001:000223f4       ?QueryInterface@?$CComContainedObject@VCOPOSCoinAcceptor@@@ATL@@WMI@EAAJAEBU_GUID@@PEAPEAX@Z 00000001800233f4 f i CoinAcceptor.obj
 0001:00022400       ?QueryInterface@?$CComContainedObject@VCOPOSCoinAcceptor@@@ATL@@WNA@EAAJAEBU_GUID@@PEAPEAX@Z 0000000180023400 f i CoinAcceptor.obj
 0001:0002240c       ?QueryInterface@?$CComContainedObject@VCOPOSCoinAcceptor@@@ATL@@WNI@EAAJAEBU_GUID@@PEAPEAX@Z 000000018002340c f i CoinAcceptor.obj
 0001:00022418       ?QueryInterface@?$CComContainedObject@VCOPOSCoinAcceptor@@@ATL@@WOA@EAAJAEBU_GUID@@PEAPEAX@Z 0000000180023418 f i CoinAcceptor.obj
 0001:00022424       ?QueryInterface@?$CComContainedObject@VCOPOSCoinAcceptor@@@ATL@@WOI@EAAJAEBU_GUID@@PEAPEAX@Z 0000000180023424 f i CoinAcceptor.obj
 0001:00022430       ?QueryInterface@?$CComContainedObject@VCOPOSCoinAcceptor@@@ATL@@WPA@EAAJAEBU_GUID@@PEAPEAX@Z 0000000180023430 f i CoinAcceptor.obj
 0001:0002243c       ?QueryInterface@?$CComContainedObject@VCOPOSCoinAcceptor@@@ATL@@WPI@EAAJAEBU_GUID@@PEAPEAX@Z 000000018002343c f i CoinAcceptor.obj
 0001:00022450       ?QueryInterface@?$CComObject@V?$CComEnum@UIEnumConnectionPoints@@$1?_GUID_b196b285_bab4_101a_b69c_00aa00341d07@@3U__s_GUID@@BPEAUIConnectionPoint@@V?$_CopyInterface@UIConnectionPoint@@@ATL@@VCComSingleThreadModel@6@@ATL@@@ATL@@UEAAJAEBU_GUID@@PEAPEAX@Z 0000000180023450 f i CoinAcceptor.obj
 0001:000224a0       ?QueryInterface@?$CComObject@V?$CComEnum@UIEnumConnections@@$1?_GUID_b196b287_bab4_101a_b69c_00aa00341d07@@3U__s_GUID@@BUtagCONNECTDATA@@V?$_Copy@UtagCONNECTDATA@@@ATL@@VCComSingleThreadModel@6@@ATL@@@ATL@@UEAAJAEBU_GUID@@PEAPEAX@Z 00000001800234a0 f i CoinAcceptor.obj
 0001:000224f0       ?QueryInterface@?$CComObject@VCOPOSCoinAcceptor@@@ATL@@UEAAJAEBU_GUID@@PEAPEAX@Z 00000001800234f0 f i CoinAcceptor.obj
 0001:00022534       ?QueryInterface@?$CComObject@VCOPOSCoinAcceptor@@@ATL@@WBAA@EAAJAEBU_GUID@@PEAPEAX@Z 0000000180023534 f i CoinAcceptor.obj
 0001:00022540       ?QueryInterface@?$CComObject@VCOPOSCoinAcceptor@@@ATL@@WBAI@EAAJAEBU_GUID@@PEAPEAX@Z 0000000180023540 f i CoinAcceptor.obj
 0001:0002254c       ?QueryInterface@?$CComObject@VCOPOSCoinAcceptor@@@ATL@@WBBA@EAAJAEBU_GUID@@PEAPEAX@Z 000000018002354c f i CoinAcceptor.obj
 0001:00022558       ?QueryInterface@?$CComObject@VCOPOSCoinAcceptor@@@ATL@@WBBI@EAAJAEBU_GUID@@PEAPEAX@Z 0000000180023558 f i CoinAcceptor.obj
 0001:00022564       ?QueryInterface@?$CComObject@VCOPOSCoinAcceptor@@@ATL@@WLI@EAAJAEBU_GUID@@PEAPEAX@Z 0000000180023564 f i CoinAcceptor.obj
 0001:00022570       ?QueryInterface@?$CComObject@VCOPOSCoinAcceptor@@@ATL@@WMA@EAAJAEBU_GUID@@PEAPEAX@Z 0000000180023570 f i CoinAcceptor.obj
 0001:0002257c       ?QueryInterface@?$CComObject@VCOPOSCoinAcceptor@@@ATL@@WMI@EAAJAEBU_GUID@@PEAPEAX@Z 000000018002357c f i CoinAcceptor.obj
 0001:00022588       ?QueryInterface@?$CComObject@VCOPOSCoinAcceptor@@@ATL@@WNA@EAAJAEBU_GUID@@PEAPEAX@Z 0000000180023588 f i CoinAcceptor.obj
 0001:00022594       ?QueryInterface@?$CComObject@VCOPOSCoinAcceptor@@@ATL@@WNI@EAAJAEBU_GUID@@PEAPEAX@Z 0000000180023594 f i CoinAcceptor.obj
 0001:000225a0       ?QueryInterface@?$CComObject@VCOPOSCoinAcceptor@@@ATL@@WOA@EAAJAEBU_GUID@@PEAPEAX@Z 00000001800235a0 f i CoinAcceptor.obj
 0001:000225ac       ?QueryInterface@?$CComObject@VCOPOSCoinAcceptor@@@ATL@@WOI@EAAJAEBU_GUID@@PEAPEAX@Z 00000001800235ac f i CoinAcceptor.obj
 0001:000225b8       ?QueryInterface@?$CComObject@VCOPOSCoinAcceptor@@@ATL@@WPA@EAAJAEBU_GUID@@PEAPEAX@Z 00000001800235b8 f i CoinAcceptor.obj
 0001:000225c4       ?QueryInterface@?$CComObject@VCOPOSCoinAcceptor@@@ATL@@WPI@EAAJAEBU_GUID@@PEAPEAX@Z 00000001800235c4 f i CoinAcceptor.obj
 0001:000225d0       ?QueryInterface@?$CComObjectCached@VCComClassFactory@ATL@@@ATL@@UEAAJAEBU_GUID@@PEAPEAX@Z 00000001800235d0 f i CoinAcceptor.obj
 0001:00022620       ?QueryInterface@CRegObject@ATL@@UEAAJAEBU_GUID@@PEAPEAX@Z 0000000180023620 f i CoinAcceptor.obj
 0001:000226a0       ?QuickActivate@?$IQuickActivateImpl@VCOPOSCoinAcceptor@@@ATL@@UEAAJPEAUtagQACONTAINER@@PEAUtagQACONTROL@@@Z 00000001800236a0 f i CoinAcceptor.obj
 0001:00022760       ?ReactivateAndUndo@?$IOleInPlaceObjectWindowlessImpl@VCOPOSCoinAcceptor@@@ATL@@UEAAJXZ 0000000180023760 f i CoinAcceptor.obj
 0001:000227e0       ?ReadFromStream@CComBSTR@ATL@@QEAAJPEAUIStream@@@Z 00000001800237e0 f i CoinAcceptor.obj
 0001:00022cc0       ?ReadFromStream@CComVariant@ATL@@QEAAJPEAUIStream@@GTClassesAllowedInStream@2@K@Z 0000000180023cc0 f i CoinAcceptor.obj
 0001:000230f0       ?RecurseDeleteKey@CRegKey@ATL@@QEAAJPEB_W@Z 00000001800240f0 f i CoinAcceptor.obj
 0001:00023310       ?RegCreateKeyExW@CAtlTransactionManager@ATL@@QEAAJPEAUHKEY__@@PEB_WKPEA_WKKQEAU_SECURITY_ATTRIBUTES@@PEAPEAU3@PEAK@Z 0000000180024310 f i CoinAcceptor.obj
 0001:000234e0       ?RegDeleteKeyW@CAtlTransactionManager@ATL@@QEAAJPEAUHKEY__@@PEB_W@Z 00000001800244e0 f i CoinAcceptor.obj
 0001:000235f0       ?RegOpenKeyExW@CAtlTransactionManager@ATL@@QEAAJPEAUHKEY__@@PEB_WKKPEAPEAU3@@Z 00000001800245f0 f i CoinAcceptor.obj
 0001:00023740       ?Register@_ATL_WNDCLASSINFOW@ATL@@QEAAGPEAP6A_JPEAUHWND__@@I_K_J@Z@Z 0000000180024740 f i CoinAcceptor.obj
 0001:00023790       ?RegisterBuffer@CRegParser@ATL@@QEAAJPEA_WH@Z 0000000180024790 f i CoinAcceptor.obj
 0001:00023b80       ?RegisterClassExW@AtlModuleRegisterWndClassInfoParamW@ATL@@SAGPEAU_ATL_WIN_MODULE70@2@PEBUtagWNDCLASSEXW@@@Z 0000000180024b80 f i CoinAcceptor.obj
 0001:00023bc0       ?RegisterFromResource@CRegObject@ATL@@IEAAJPEB_W00H@Z 0000000180024bc0 f i CoinAcceptor.obj
 0001:00024020       ?RegisterServer@?$CAtlModuleT@VCComModule@ATL@@@ATL@@QEAAJHPEBU_GUID@@@Z 0000000180025020 f i CoinAcceptor.obj
 0001:000240a0       ?RegisterServer@CAtlComModule@ATL@@QEAAJHPEBU_GUID@@@Z 00000001800250a0 f i CoinAcceptor.obj
 0001:000240e0       ?RegisterServer@CComModule@ATL@@QEAAJHPEBU_GUID@@@Z 00000001800250e0 f i CoinAcceptor.obj
 0001:000241e0       ?RegisterSubkeys@CRegParser@ATL@@IEAAJPEA_WPEAUHKEY__@@HH@Z 00000001800251e0 f i CoinAcceptor.obj
 0001:00024fc0       ?Release@?$CComAggObject@VCOPOSCoinAcceptor@@@ATL@@UEAAKXZ 0000000180025fc0 f i CoinAcceptor.obj
 0001:00025070       ?Release@?$CComContainedObject@VCOPOSCoinAcceptor@@@ATL@@UEAAKXZ 0000000180026070 f i CoinAcceptor.obj
 0001:000250a8       ?Release@?$CComContainedObject@VCOPOSCoinAcceptor@@@ATL@@WBAA@EAAKXZ 00000001800260a8 f i CoinAcceptor.obj
 0001:000250b4       ?Release@?$CComContainedObject@VCOPOSCoinAcceptor@@@ATL@@WBAI@EAAKXZ 00000001800260b4 f i CoinAcceptor.obj
 0001:000250c0       ?Release@?$CComContainedObject@VCOPOSCoinAcceptor@@@ATL@@WBBA@EAAKXZ 00000001800260c0 f i CoinAcceptor.obj
 0001:000250cc       ?Release@?$CComContainedObject@VCOPOSCoinAcceptor@@@ATL@@WBBI@EAAKXZ 00000001800260cc f i CoinAcceptor.obj
 0001:000250d8       ?Release@?$CComContainedObject@VCOPOSCoinAcceptor@@@ATL@@WBCI@EAAKXZ 00000001800260d8 f i CoinAcceptor.obj
 0001:000250e4       ?Release@?$CComContainedObject@VCOPOSCoinAcceptor@@@ATL@@WBEA@EAAKXZ 00000001800260e4 f i CoinAcceptor.obj
 0001:000250f0       ?Release@?$CComContainedObject@VCOPOSCoinAcceptor@@@ATL@@WLI@EAAKXZ 00000001800260f0 f i CoinAcceptor.obj
 0001:000250fc       ?Release@?$CComContainedObject@VCOPOSCoinAcceptor@@@ATL@@WMA@EAAKXZ 00000001800260fc f i CoinAcceptor.obj
 0001:00025108       ?Release@?$CComContainedObject@VCOPOSCoinAcceptor@@@ATL@@WMI@EAAKXZ 0000000180026108 f i CoinAcceptor.obj
 0001:00025114       ?Release@?$CComContainedObject@VCOPOSCoinAcceptor@@@ATL@@WNA@EAAKXZ 0000000180026114 f i CoinAcceptor.obj
 0001:00025120       ?Release@?$CComContainedObject@VCOPOSCoinAcceptor@@@ATL@@WNI@EAAKXZ 0000000180026120 f i CoinAcceptor.obj
 0001:0002512c       ?Release@?$CComContainedObject@VCOPOSCoinAcceptor@@@ATL@@WOA@EAAKXZ 000000018002612c f i CoinAcceptor.obj
 0001:00025138       ?Release@?$CComContainedObject@VCOPOSCoinAcceptor@@@ATL@@WOI@EAAKXZ 0000000180026138 f i CoinAcceptor.obj
 0001:00025144       ?Release@?$CComContainedObject@VCOPOSCoinAcceptor@@@ATL@@WPA@EAAKXZ 0000000180026144 f i CoinAcceptor.obj
 0001:00025150       ?Release@?$CComContainedObject@VCOPOSCoinAcceptor@@@ATL@@WPI@EAAKXZ 0000000180026150 f i CoinAcceptor.obj
 0001:00025160       ?Release@?$CComObject@V?$CComEnum@UIEnumConnectionPoints@@$1?_GUID_b196b285_bab4_101a_b69c_00aa00341d07@@3U__s_GUID@@BPEAUIConnectionPoint@@V?$_CopyInterface@UIConnectionPoint@@@ATL@@VCComSingleThreadModel@6@@ATL@@@ATL@@UEAAKXZ 0000000180026160 f i CoinAcceptor.obj
 0001:00025210       ?Release@?$CComObject@V?$CComEnum@UIEnumConnections@@$1?_GUID_b196b287_bab4_101a_b69c_00aa00341d07@@3U__s_GUID@@BUtagCONNECTDATA@@V?$_Copy@UtagCONNECTDATA@@@ATL@@VCComSingleThreadModel@6@@ATL@@@ATL@@UEAAKXZ 0000000180026210 f i CoinAcceptor.obj
 0001:000252c0       ?Release@?$CComObject@VCOPOSCoinAcceptor@@@ATL@@UEAAKXZ 00000001800262c0 f i CoinAcceptor.obj
 0001:00025378       ?Release@?$CComObject@VCOPOSCoinAcceptor@@@ATL@@WBAA@EAAKXZ 0000000180026378 f i CoinAcceptor.obj
 0001:00025384       ?Release@?$CComObject@VCOPOSCoinAcceptor@@@ATL@@WBAI@EAAKXZ 0000000180026384 f i CoinAcceptor.obj
 0001:00025390       ?Release@?$CComObject@VCOPOSCoinAcceptor@@@ATL@@WBBA@EAAKXZ 0000000180026390 f i CoinAcceptor.obj
 0001:0002539c       ?Release@?$CComObject@VCOPOSCoinAcceptor@@@ATL@@WBBI@EAAKXZ 000000018002639c f i CoinAcceptor.obj
 0001:000253a8       ?Release@?$CComObject@VCOPOSCoinAcceptor@@@ATL@@WBCI@EAAKXZ 00000001800263a8 f i CoinAcceptor.obj
 0001:000253b4       ?Release@?$CComObject@VCOPOSCoinAcceptor@@@ATL@@WBEA@EAAKXZ 00000001800263b4 f i CoinAcceptor.obj
 0001:000253c0       ?Release@?$CComObject@VCOPOSCoinAcceptor@@@ATL@@WLI@EAAKXZ 00000001800263c0 f i CoinAcceptor.obj
 0001:000253cc       ?Release@?$CComObject@VCOPOSCoinAcceptor@@@ATL@@WMA@EAAKXZ 00000001800263cc f i CoinAcceptor.obj
 0001:000253d8       ?Release@?$CComObject@VCOPOSCoinAcceptor@@@ATL@@WMI@EAAKXZ 00000001800263d8 f i CoinAcceptor.obj
 0001:000253e4       ?Release@?$CComObject@VCOPOSCoinAcceptor@@@ATL@@WNA@EAAKXZ 00000001800263e4 f i CoinAcceptor.obj
 0001:000253f0       ?Release@?$CComObject@VCOPOSCoinAcceptor@@@ATL@@WNI@EAAKXZ 00000001800263f0 f i CoinAcceptor.obj
 0001:000253fc       ?Release@?$CComObject@VCOPOSCoinAcceptor@@@ATL@@WOA@EAAKXZ 00000001800263fc f i CoinAcceptor.obj
 0001:00025408       ?Release@?$CComObject@VCOPOSCoinAcceptor@@@ATL@@WOI@EAAKXZ 0000000180026408 f i CoinAcceptor.obj
 0001:00025414       ?Release@?$CComObject@VCOPOSCoinAcceptor@@@ATL@@WPA@EAAKXZ 0000000180026414 f i CoinAcceptor.obj
 0001:00025420       ?Release@?$CComObject@VCOPOSCoinAcceptor@@@ATL@@WPI@EAAKXZ 0000000180026420 f i CoinAcceptor.obj
 0001:00025430       ?Release@?$CComObjectCached@VCComClassFactory@ATL@@@ATL@@UEAAKXZ 0000000180026430 f i CoinAcceptor.obj
 0001:000254d0       ?Release@?$CComPtrBase@UIAdviseSink@@@ATL@@QEAAXXZ 00000001800264d0 f i CoinAcceptor.obj
 0001:00025530       ?Release@?$CComPtrBase@UIDispatch@@@ATL@@QEAAXXZ 0000000180026530 f i CoinAcceptor.obj
 0001:00025590       ?Release@?$CComPtrBase@UIOleInPlaceSiteWindowless@@@ATL@@QEAAXXZ 0000000180026590 f i CoinAcceptor.obj
 0001:000255f0       ?Release@CRegObject@ATL@@UEAAKXZ 00000001800265f0 f i CoinAcceptor.obj
 0001:00025660       ?Remove@CComDynamicUnkArray@ATL@@QEAAHK@Z 0000000180026660 f i CoinAcceptor.obj
 0001:00025740       ?RemoveAll@?$CSimpleMap@PEA_WPEA_WVCExpansionVectorEqualHelper@ATL@@@ATL@@QEAAXXZ 0000000180026740 f i CoinAcceptor.obj
 0001:000257e0       ?Reset@?$CComEnumImpl@UIEnumConnectionPoints@@$1?_GUID_b196b285_bab4_101a_b69c_00aa00341d07@@3U__s_GUID@@BPEAUIConnectionPoint@@V?$_CopyInterface@UIConnectionPoint@@@ATL@@@ATL@@UEAAJXZ 00000001800267e0 f i CoinAcceptor.obj
 0001:00025800       ?Reset@?$CComEnumImpl@UIEnumConnections@@$1?_GUID_b196b287_bab4_101a_b69c_00aa00341d07@@3U__s_GUID@@BUtagCONNECTDATA@@V?$_Copy@UtagCONNECTDATA@@@ATL@@@ATL@@UEAAJXZ 0000000180026800 f i CoinAcceptor.obj
 0001:00025820       ?ResizeBorder@?$IOleInPlaceActiveObjectImpl@VCOPOSCoinAcceptor@@@ATL@@UEAAJPEBUtagRECT@@PEAUIOleInPlaceUIWindow@@H@Z 0000000180026820 f i CoinAcceptor.obj
 0001:000258a0       ?ResourceRegister@CRegObject@ATL@@QEAAJPEB_WI0@Z 00000001800268a0 f i CoinAcceptor.obj
 0001:00025980       ?ResourceRegisterSz@CRegObject@ATL@@QEAAJPEB_W00@Z 0000000180026980 f i CoinAcceptor.obj
 0001:00025aa0       ?ResourceUnregister@CRegObject@ATL@@QEAAJPEB_WI0@Z 0000000180026aa0 f i CoinAcceptor.obj
 0001:00025b80       ?ResourceUnregisterSz@CRegObject@ATL@@QEAAJPEB_W00@Z 0000000180026b80 f i CoinAcceptor.obj
 0001:00025ca0       ?SOData@COPOSCoinAcceptor@@MEAAJJ@Z 0000000180026ca0 f i CoinAcceptor.obj
 0001:00025d40       ?SODirectIO@COPOSCoinAcceptor@@MEAAJJPEAJPEAPEA_W@Z 0000000180026d40 f i CoinAcceptor.obj
 0001:00025f80       ?SOErrorDummy@COPOSCoinAcceptor@@MEAAJJJJPEAJ@Z 0000000180026f80 f i CoinAcceptor.obj
 0001:00025fa0       ?SOOutputCompleteDummy@COPOSCoinAcceptor@@MEAAJJ@Z 0000000180026fa0 f i CoinAcceptor.obj
 0001:00025fc0       ?SOStatusUpdate@COPOSCoinAcceptor@@MEAAJJ@Z 0000000180026fc0 f i CoinAcceptor.obj
 0001:00026060       ?Save@?$IPersistStorageImpl@VCOPOSCoinAcceptor@@@ATL@@UEAAJPEAUIStorage@@H@Z 0000000180027060 f i CoinAcceptor.obj
 0001:00026220       ?Save@?$IPersistStreamInitImpl@VCOPOSCoinAcceptor@@@ATL@@UEAAJPEAUIStream@@H@Z 0000000180027220 f i CoinAcceptor.obj
 0001:000262e0       ?SaveCompleted@?$IPersistStorageImpl@VCOPOSCoinAcceptor@@@ATL@@UEAAJPEAUIStorage@@@Z 00000001800272e0 f i CoinAcceptor.obj
 0001:00026350       ?SendOnDataChange@CComControlBase@ATL@@QEAAJK@Z 0000000180027350 f i CoinAcceptor.obj
 0001:00026440       ?SendOnSave@CComControlBase@ATL@@QEAAJXZ 0000000180027440 f i CoinAcceptor.obj
 0001:000264b0       ?SendOnViewChange@CComControlBase@ATL@@QEAAJKJ@Z 00000001800274b0 f i CoinAcceptor.obj
 0001:00026530       ?SetAdvise@?$IViewObjectExImpl@VCOPOSCoinAcceptor@@@ATL@@UEAAJKKPEAUIAdviseSink@@@Z 0000000180027530 f i CoinAcceptor.obj
 0001:000265f0       ?SetClientSite@?$IOleObjectImpl@VCOPOSCoinAcceptor@@@ATL@@UEAAJPEAUIOleClientSite@@@Z 00000001800275f0 f i CoinAcceptor.obj
 0001:000266a0       ?SetColorScheme@?$IOleObjectImpl@VCOPOSCoinAcceptor@@@ATL@@UEAAJPEAUtagLOGPALETTE@@@Z 00000001800276a0 f i CoinAcceptor.obj
 0001:00026730       ?SetContentExtent@?$IQuickActivateImpl@VCOPOSCoinAcceptor@@@ATL@@UEAAJPEAUtagSIZE@@@Z 0000000180027730 f i CoinAcceptor.obj
 0001:000267f0       ?SetControlFocus@CComControlBase@ATL@@QEAAHH@Z 00000001800277f0 f i CoinAcceptor.obj
 0001:00026980       ?SetDWORDValue@CRegKey@ATL@@QEAAJPEB_WK@Z 0000000180027980 f i CoinAcceptor.obj
 0001:00026a30       ?SetData@?$IDataObjectImpl@VCOPOSCoinAcceptor@@@ATL@@UEAAJPEAUtagFORMATETC@@PEAUtagSTGMEDIUM@@H@Z 0000000180027a30 f i CoinAcceptor.obj
 0001:00026ac0       ?SetExtent@?$IOleObjectImpl@VCOPOSCoinAcceptor@@@ATL@@UEAAJKPEAUtagSIZE@@@Z 0000000180027ac0 f i CoinAcceptor.obj
 0001:00026b80       ?SetHostNames@?$IOleObjectImpl@VCOPOSCoinAcceptor@@@ATL@@UEAAJPEB_W0@Z 0000000180027b80 f i CoinAcceptor.obj
 0001:00026c00       ?SetInterfaceSafetyOptions@?$IObjectSafetyImpl@VCOPOSCoinAcceptor@@$02@ATL@@UEAAJAEBU_GUID@@KK@Z 0000000180027c00 f i CoinAcceptor.obj
 0001:00026da0       ?SetMoniker@?$IOleObjectImpl@VCOPOSCoinAcceptor@@@ATL@@UEAAJKPEAUIMoniker@@@Z 0000000180027da0 f i CoinAcceptor.obj
 0001:00026e30       ?SetMultiStringValue@CRegKey@ATL@@QEAAJPEB_W0@Z 0000000180027e30 f i CoinAcceptor.obj
 0001:00026fa0       ?SetObjectRects@?$IOleInPlaceObjectWindowlessImpl@VCOPOSCoinAcceptor@@@ATL@@UEAAJPEBUtagRECT@@0@Z 0000000180027fa0 f i CoinAcceptor.obj
 0001:00027060       ?SetStringValue@CRegKey@ATL@@QEAAJPEB_W0K@Z 0000000180028060 f i CoinAcceptor.obj
 0001:000271e0       ?SetVoid@CComClassFactory@ATL@@QEAAXPEAX@Z 00000001800281e0 f i CoinAcceptor.obj
 0001:00027200       ?SetVoid@CComObjectRootBase@ATL@@QEAAXPEAX@Z 0000000180028200 f i CoinAcceptor.obj
 0001:00027210       ?ShowWindow@CWindow@ATL@@QEAAHH@Z 0000000180028210 f i CoinAcceptor.obj
 0001:000272a0       ?Skip@?$CComEnumImpl@UIEnumConnectionPoints@@$1?_GUID_b196b285_bab4_101a_b69c_00aa00341d07@@3U__s_GUID@@BPEAUIConnectionPoint@@V?$_CopyInterface@UIConnectionPoint@@@ATL@@@ATL@@UEAAJK@Z 00000001800282a0 f i CoinAcceptor.obj
 0001:00027340       ?Skip@?$CComEnumImpl@UIEnumConnections@@$1?_GUID_b196b287_bab4_101a_b69c_00aa00341d07@@3U__s_GUID@@BUtagCONNECTDATA@@V?$_Copy@UtagCONNECTDATA@@@ATL@@@ATL@@UEAAJK@Z 0000000180028340 f i CoinAcceptor.obj
 0001:000273e0       ?SkipAssignment@CRegParser@ATL@@IEAAJPEA_W@Z 00000001800283e0 f i CoinAcceptor.obj
 0001:000274e0       ?SkipWhiteSpace@CRegParser@ATL@@IEAAXXZ 00000001800284e0 f i CoinAcceptor.obj
 0001:00027540       ?StartWindowProc@?$CWindowImplBaseT@VCWindow@ATL@@V?$CWinTraits@$0FGAAAAAA@$0A@@2@@ATL@@SA_JPEAUHWND__@@I_K_J@Z 0000000180028540 f i CoinAcceptor.obj
 0001:000276b0       ?StrChrW@CRegParser@ATL@@KAPEA_WPEA_W_W@Z 00000001800286b0 f i CoinAcceptor.obj
 0001:00027730       ?StrFromMap@CRegObject@ATL@@QEAAPEB_WPEA_W@Z 0000000180028730 f i CoinAcceptor.obj
 0001:000277f0       ?Swap@?$CComPtrBase@UIAdviseSink@@@ATL@@IEAAXAEAV12@@Z 00000001800287f0 f i CoinAcceptor.obj
 0001:00027850       ?Swap@?$CComPtrBase@UIOleClientSite@@@ATL@@IEAAXAEAV12@@Z 0000000180028850 f i CoinAcceptor.obj
 0001:000278b0       ?Swap@?$CComPtrBase@UIUnknown@@@ATL@@IEAAXAEAV12@@Z 00000001800288b0 f i CoinAcceptor.obj
 0001:00027910       ?T2COLE_EX@@YAPEB_WPEB_WI@Z 0000000180028910 f i CoinAcceptor.obj
 0001:00027930       ?T2OLE_EX@@YAPEA_WPEA_WI@Z 0000000180028930 f i CoinAcceptor.obj
 0001:00027950       ?Term@CAtlModule@ATL@@QEAAXXZ 0000000180028950 f i CoinAcceptor.obj
 0001:00027a10       ?Term@CComModule@ATL@@QEAAXXZ 0000000180028a10 f i CoinAcceptor.obj
 0001:00027b00       ?TranslateAcceleratorW@?$IOleInPlaceActiveObjectImpl@VCOPOSCoinAcceptor@@@ATL@@UEAAJPEAUtagMSG@@@Z 0000000180028b00 f i CoinAcceptor.obj
 0001:00027d70       ?UIDeactivate@?$IOleInPlaceObjectWindowlessImpl@VCOPOSCoinAcceptor@@@ATL@@UEAAJXZ 0000000180028d70 f i CoinAcceptor.obj
 0001:00027e20       ?Unadvise@?$CProxy_IOPOSEvents@VCOPOSCoinAcceptor@@@@UEAAJK@Z 0000000180028e20 f i CoinAcceptor.obj
 0001:00027e70       ?Unadvise@?$IConnectionPointImpl@VCOPOSCoinAcceptor@@$1?DIID__IOPOSCoinAcceptorEvents@@3U_GUID@@BVCComDynamicUnkArray@ATL@@@ATL@@UEAAJK@Z 0000000180028e70 f i CoinAcceptor.obj
 0001:00027f60       ?Unadvise@?$IConnectionPointImpl@VCOPOSCoinAcceptor@@$1?IID_IPropertyNotifySink@@3U_GUID@@BVCComDynamicUnkArray@ATL@@@ATL@@UEAAJK@Z 0000000180028f60 f i CoinAcceptor.obj
 0001:00028050       ?Unadvise@?$IOleObjectImpl@VCOPOSCoinAcceptor@@@ATL@@UEAAJK@Z 0000000180029050 f i CoinAcceptor.obj
 0001:00028140       ?Unfreeze@?$IViewObjectExImpl@VCOPOSCoinAcceptor@@@ATL@@UEAAJK@Z 0000000180029140 f i CoinAcceptor.obj
 0001:000281c0       ?Unlock@?$CComCritSecLock@VCComCriticalSection@ATL@@@ATL@@QEAAXXZ 00000001800291c0 f i CoinAcceptor.obj
 0001:00028250       ?Unlock@?$CComObjectRootEx@VCComSingleThreadModel@ATL@@@ATL@@QEAAXXZ 0000000180029250 f i CoinAcceptor.obj
 0001:00028260       ?Unlock@CAtlModule@ATL@@UEAAJXZ 0000000180029260 f i CoinAcceptor.obj
 0001:000282a0       ?Unlock@CComCriticalSection@ATL@@QEAAJXZ 00000001800292a0 f i CoinAcceptor.obj
 0001:000282e0       ?Unlock@CComFakeCriticalSection@ATL@@QEAAJXZ 00000001800292e0 f i CoinAcceptor.obj
 0001:000282f0       ?UnregisterServer@?$CAtlModuleT@VCComModule@ATL@@@ATL@@QEAAJHPEBU_GUID@@@Z 00000001800292f0 f i CoinAcceptor.obj
 0001:00028360       ?UnregisterServer@CAtlComModule@ATL@@QEAAJHPEBU_GUID@@@Z 0000000180029360 f i CoinAcceptor.obj
 0001:000283a0       ?UnregisterServer@CComModule@ATL@@QEAAJHPEBU_GUID@@@Z 00000001800293a0 f i CoinAcceptor.obj
 0001:00028490       ?Update@?$IOleObjectImpl@VCOPOSCoinAcceptor@@@ATL@@UEAAJXZ 0000000180029490 f i CoinAcceptor.obj
 0001:00028500       ?UpdateRegistryFromResource@CAtlModule@ATL@@QEAAJIHPEAU_ATL_REGMAP_ENTRY@2@@Z 0000000180029500 f i CoinAcceptor.obj
 0001:00028a30       ?UpdateRegistryFromResource@CAtlModule@ATL@@QEAAJPEB_WHPEAU_ATL_REGMAP_ENTRY@2@@Z 0000000180029a30 f i CoinAcceptor.obj
 0001:00028f80       ?UpdateRegistryFromResource@CComModule@ATL@@UEAAJIHPEAU_ATL_REGMAP_ENTRY@2@@Z 0000000180029f80 f i CoinAcceptor.obj
 0001:00028fd0       ?UpdateRegistryFromResource@CComModule@ATL@@UEAAJPEB_WHPEAU_ATL_REGMAP_ENTRY@2@@Z 0000000180029fd0 f i CoinAcceptor.obj
 0001:00029020       ?UpdateRegistryFromResourceD@CComModule@ATL@@UEAAJIHPEAU_ATL_REGMAP_ENTRY@2@@Z 000000018002a020 f i CoinAcceptor.obj
 0001:00029040       ?UpdateRegistryFromResourceD@CComModule@ATL@@UEAAJPEB_WHPEAU_ATL_REGMAP_ENTRY@2@@Z 000000018002a040 f i CoinAcceptor.obj
 0001:00029060       ?VTFromRegType@CRegParser@ATL@@KAHPEB_WAEAG@Z 000000018002a060 f i CoinAcceptor.obj
 0001:00029140       ?WindowProc@?$CWindowImplBaseT@VCWindow@ATL@@V?$CWinTraits@$0FGAAAAAA@$0A@@2@@ATL@@SA_JPEAUHWND__@@I_K_J@Z 000000018002a140 f i CoinAcceptor.obj
 0001:00029420       ?WriteToStream@CComBSTR@ATL@@QEAAJPEAUIStream@@@Z 000000018002a420 f i CoinAcceptor.obj
 0001:00029590       ?WriteToStream@CComVariant@ATL@@QEAAJPEAUIStream@@@Z 000000018002a590 f i CoinAcceptor.obj
 0001:000299a0       ?WriteToStream@CComVariant@ATL@@QEAAJPEAUIStream@@G@Z 000000018002a9a0 f i CoinAcceptor.obj
 0001:00029a80       ?_AtlFinalConstruct@CComObjectRootBase@ATL@@QEAAJXZ 000000018002aa80 f i CoinAcceptor.obj
 0001:00029a90       ?_AtlGetConversionACP@ATL@@YAIXZ 000000018002aa90 f i CoinAcceptor.obj
 0001:00029aa0       ?_AtlInitialConstruct@?$CComAggObject@VCOPOSCoinAcceptor@@@ATL@@QEAAJXZ 000000018002aaa0 f i CoinAcceptor.obj
 0001:00029b00       ?_AtlInitialConstruct@?$CComObjectRootEx@VCComMultiThreadModel@ATL@@@ATL@@QEAAJXZ 000000018002ab00 f i CoinAcceptor.obj
 0001:00029b40       ?_AtlInitialConstruct@?$CComObjectRootEx@VCComSingleThreadModel@ATL@@@ATL@@QEAAJXZ 000000018002ab40 f i CoinAcceptor.obj
 0001:00029b50       ?_AtlVerifyStackAvailable@_ATL_SAFE_ALLOCA_IMPL@ATL@@YA_N_K@Z 000000018002ab50 f i CoinAcceptor.obj
 0001:00029cb0       ?_GetEntries@?$CComEnum@UIEnumConnectionPoints@@$1?_GUID_b196b285_bab4_101a_b69c_00aa00341d07@@3U__s_GUID@@BPEAUIConnectionPoint@@V?$_CopyInterface@UIConnectionPoint@@@ATL@@VCComSingleThreadModel@6@@ATL@@SAPEBU_ATL_INTMAP_ENTRY@2@XZ 000000018002acb0 f i CoinAcceptor.obj
 0001:00029cd0       ?_GetEntries@?$CComEnum@UIEnumConnections@@$1?_GUID_b196b287_bab4_101a_b69c_00aa00341d07@@3U__s_GUID@@BUtagCONNECTDATA@@V?$_Copy@UtagCONNECTDATA@@@ATL@@VCComSingleThreadModel@6@@ATL@@SAPEBU_ATL_INTMAP_ENTRY@2@XZ 000000018002acd0 f i CoinAcceptor.obj
 0001:00029cf0       ?_GetEntries@CComClassFactory@ATL@@SAPEBU_ATL_INTMAP_ENTRY@2@XZ 000000018002acf0 f i CoinAcceptor.obj
 0001:00029d10       ?_GetEntries@COPOSCoinAcceptor@@SAPEBU_ATL_INTMAP_ENTRY@ATL@@XZ 000000018002ad10 f i CoinAcceptor.obj
 0001:00029d30       ?_GetRawUnknown@COPOSCoinAcceptor@@QEAAPEAUIUnknown@@XZ 000000018002ad30 f i CoinAcceptor.obj
 0001:00029dc0       ?_GetViewStatus@COPOSCoinAcceptor@@QEAAKXZ 000000018002adc0 f i CoinAcceptor.obj
 0001:00029dd0       ?_InternalQueryInterface@?$CComEnum@UIEnumConnectionPoints@@$1?_GUID_b196b285_bab4_101a_b69c_00aa00341d07@@3U__s_GUID@@BPEAUIConnectionPoint@@V?$_CopyInterface@UIConnectionPoint@@@ATL@@VCComSingleThreadModel@6@@ATL@@QEAAJAEBU_GUID@@PEAPEAX@Z 000000018002add0 f i CoinAcceptor.obj
 0001:00029e20       ?_InternalQueryInterface@?$CComEnum@UIEnumConnections@@$1?_GUID_b196b287_bab4_101a_b69c_00aa00341d07@@3U__s_GUID@@BUtagCONNECTDATA@@V?$_Copy@UtagCONNECTDATA@@@ATL@@VCComSingleThreadModel@6@@ATL@@QEAAJAEBU_GUID@@PEAPEAX@Z 000000018002ae20 f i CoinAcceptor.obj
 0001:00029e70       ?_InternalQueryInterface@CComClassFactory@ATL@@QEAAJAEBU_GUID@@PEAPEAX@Z 000000018002ae70 f i CoinAcceptor.obj
 0001:00029ec0       ?_InternalQueryInterface@COPOSCoinAcceptor@@QEAAJAEBU_GUID@@PEAPEAX@Z 000000018002aec0 f i CoinAcceptor.obj
 0001:00029f10       ?_LocCPQueryInterface@?$IConnectionPointImpl@VCOPOSCoinAcceptor@@$1?DIID__IOPOSCoinAcceptorEvents@@3U_GUID@@BVCComDynamicUnkArray@ATL@@@ATL@@UEAAJAEBU_GUID@@PEAPEAX@Z 000000018002af10 f i CoinAcceptor.obj
 0001:00029ff0       ?_LocCPQueryInterface@?$IConnectionPointImpl@VCOPOSCoinAcceptor@@$1?IID_IPropertyNotifySink@@3U_GUID@@BVCComDynamicUnkArray@ATL@@@ATL@@UEAAJAEBU_GUID@@PEAPEAX@Z 000000018002aff0 f i CoinAcceptor.obj
 0001:0002a0d0       ?atlCreate@?$CWindowImpl@VCOPOSCoinAcceptor@@VCWindow@ATL@@V?$CWinTraits@$0FGAAAAAA@$0A@@3@@ATL@@QEAAPEAUHWND__@@PEAU3@V_U_RECT@2@PEB_WKKV_U_MENUorID@2@PEAX@Z 000000018002b0d0 f i CoinAcceptor.obj
 0001:0002a200       ?atlCreate@?$CWindowImplBaseT@VCWindow@ATL@@V?$CWinTraits@$0FGAAAAAA@$0A@@2@@ATL@@QEAAPEAUHWND__@@PEAU3@V_U_RECT@2@PEB_WKKV_U_MENUorID@2@GPEAX@Z 000000018002b200 f i CoinAcceptor.obj
 0001:0002a460       ?atlCreate@CRegKey@ATL@@QEAAJPEAUHKEY__@@PEB_WPEA_WKKPEAU_SECURITY_ATTRIBUTES@@PEAK@Z 000000018002b460 f i CoinAcceptor.obj
 0001:0002a650       ?begin@CComDynamicUnkArray@ATL@@QEAAPEAPEAUIUnknown@@XZ 000000018002b650 f i CoinAcceptor.obj
 0001:0002a660       ?copy@?$_Copy@UtagCONNECTDATA@@@ATL@@SAJPEAUtagCONNECTDATA@@PEBU3@@Z 000000018002b660 f i CoinAcceptor.obj
 0001:0002a750       ?copy@?$_CopyInterface@UIConnectionPoint@@@ATL@@SAJPEAPEAUIConnectionPoint@@PEBQEAU3@@Z 000000018002b750 f i CoinAcceptor.obj
 0001:0002a840       ?destroy@?$_Copy@UtagCONNECTDATA@@@ATL@@SAXPEAUtagCONNECTDATA@@@Z 000000018002b840 f i CoinAcceptor.obj
 0001:0002a890       ?destroy@?$_CopyInterface@UIConnectionPoint@@@ATL@@SAXPEAPEAUIConnectionPoint@@@Z 000000018002b890 f i CoinAcceptor.obj
 0001:0002a8e0       ?end@CComDynamicUnkArray@ATL@@QEAAPEAPEAUIUnknown@@XZ 000000018002b8e0 f i CoinAcceptor.obj
 0001:0002a900       ?init@?$_Copy@UtagCONNECTDATA@@@ATL@@SAXPEAUtagCONNECTDATA@@@Z 000000018002b900 f i CoinAcceptor.obj
 0001:0002a910       ?init@?$_CopyInterface@UIConnectionPoint@@@ATL@@SAXPEAPEAUIConnectionPoint@@@Z 000000018002b910 f i CoinAcceptor.obj
 0001:0002a920       ?memcpy_s@Checked@ATL@@YAXPEAX_KPEBX1@Z 000000018002b920 f i CoinAcceptor.obj
 0001:0002a980       ?ocscpy_s@@YA_NPEA_W_KPEB_W@Z 000000018002b980 f i CoinAcceptor.obj
 0001:0002aa00       ?ocslen@@YAHPEB_W@Z        000000018002ba00 f i CoinAcceptor.obj
 0001:0002aa40       ?tcsncpy_s@Checked@ATL@@YAHPEA_W_KPEB_W1@Z 000000018002ba40 f i CoinAcceptor.obj
 0001:0002aaa0       ?wcscat_s@Checked@ATL@@YAXPEA_W_KPEB_W@Z 000000018002baa0 f i CoinAcceptor.obj
 0001:0002aaf0       ?wcscpy_s@Checked@ATL@@YAXPEA_W_KPEB_W@Z 000000018002baf0 f i CoinAcceptor.obj
 0001:0002ab40       ?wcsncpy_s@Checked@ATL@@YAHPEA_W_KPEB_W1@Z 000000018002bb40 f i CoinAcceptor.obj
 0001:0002aba0       ?wcsstr@@YAPEA_WPEA_WPEB_W@Z 000000018002bba0 f i CoinAcceptor.obj
 0001:0002abe0       InlineIsEqualGUID          000000018002bbe0 f i CoinAcceptor.obj
 0001:0002acb0       IsEqualGUID                000000018002bcb0 f i CoinAcceptor.obj
 0001:0002ad10       ??0COPOSCoinAcceptor@@QEAA@XZ 000000018002bd10 f   CoinAcceptorImpl.obj
 0001:0002ae90       ?FinalConstruct@COPOSCoinAcceptor@@QEAAJXZ 000000018002be90 f   CoinAcceptorImpl.obj
 0001:0002af80       ??1COPOSCoinAcceptor@@UEAA@XZ 000000018002bf80 f   CoinAcceptorImpl.obj
 0001:0002b060       ?WriteTrace@COPOSCoinAcceptor@@QEAAXPEB_WZZ 000000018002c060 f   CoinAcceptorImpl.obj
 0001:0002b120       ?WriteTraceString@COPOSCoinAcceptor@@QEAAXPEB_WPEA_W@Z 000000018002c120 f   CoinAcceptorImpl.obj
 0001:0002b560       ?WriteTraceString@COPOSCoinAcceptor@@QEAAXPEAXHHHPEB_WZZ 000000018002c560 f   CoinAcceptorImpl.obj
 0001:0002b7f0       ?WriteTraceError@COPOSCoinAcceptor@@QEAAXPEB_WK@Z 000000018002c7f0 f   CoinAcceptorImpl.obj
 0001:0002b8f0       ?WriteTraceMethods@COPOSCoinAcceptor@@QEAAXPEAJH@Z 000000018002c8f0 f   CoinAcceptorImpl.obj
 0001:0002b980       ?GetOposProp@COPOSCoinAcceptor@@IEAAJPEBDJPEAJJ@Z 000000018002c980 f   CoinAcceptorImpl.obj
 0001:0002bca0       ?SetOposProp@COPOSCoinAcceptor@@IEAAJPEBDJJJ@Z 000000018002cca0 f   CoinAcceptorImpl.obj
 0001:0002c000       ?GetOposProp@COPOSCoinAcceptor@@IEAAJPEBDJPEAFJ@Z 000000018002d000 f   CoinAcceptorImpl.obj
 0001:0002c0a0       ?SetOposProp@COPOSCoinAcceptor@@IEAAJPEBDJFJ@Z 000000018002d0a0 f   CoinAcceptorImpl.obj
 0001:0002c120       ?GetOposProp@COPOSCoinAcceptor@@IEAAJPEBDJPEAPEA_WJ@Z 000000018002d120 f   CoinAcceptorImpl.obj
 0001:0002c440       ?SetOposProp@COPOSCoinAcceptor@@IEAAJPEBDJPEA_WJ@Z 000000018002d440 f   CoinAcceptorImpl.obj
 0001:0002c820       ?DoInvoke@COPOSCoinAcceptor@@IEAAJPEBDJPEAVOposVariant@@IHPEAJ_N@Z 000000018002d820 f   CoinAcceptorImpl.obj
 0001:0002d370       ?SetCOFreezeEvents@COPOSCoinAcceptor@@IEAAXF@Z 000000018002e370 f   CoinAcceptorImpl.obj
 0001:0002d500       ?FreezeEvents@COPOSCoinAcceptor@@MEAAJH@Z 000000018002e500 f   CoinAcceptorImpl.obj
 0001:0002d630       ?OnDraw@COPOSCoinAcceptor@@MEAAJAEAUATL_DRAWINFO@@@Z 000000018002e630 f   CoinAcceptorImpl.obj
 0001:0002d800       ?SOProcessID@COPOSCoinAcceptor@@UEAAJPEAJ@Z 000000018002e800 f   CoinAcceptorImpl.obj
 0001:0002d860       ?get_OpenResult@COPOSCoinAcceptor@@UEAAJPEAJ@Z 000000018002e860 f   CoinAcceptorImpl.obj
 0001:0002d8c0       ?get_BinaryConversion@COPOSCoinAcceptor@@UEAAJPEAJ@Z 000000018002e8c0 f   CoinAcceptorImpl.obj
 0001:0002d920       ?put_BinaryConversion@COPOSCoinAcceptor@@UEAAJJ@Z 000000018002e920 f   CoinAcceptorImpl.obj
 0001:0002d990       ?get_CapPowerReporting@COPOSCoinAcceptor@@UEAAJPEAJ@Z 000000018002e990 f   CoinAcceptorImpl.obj
 0001:0002d9f0       ?get_CheckHealthText@COPOSCoinAcceptor@@UEAAJPEAPEA_W@Z 000000018002e9f0 f   CoinAcceptorImpl.obj
 0001:0002da50       ?get_Claimed@COPOSCoinAcceptor@@UEAAJPEAF@Z 000000018002ea50 f   CoinAcceptorImpl.obj
 0001:0002dab0       ?get_DataCount@COPOSCoinAcceptor@@UEAAJPEAJ@Z 000000018002eab0 f   CoinAcceptorImpl.obj
 0001:0002db10       ?get_DataEventEnabled@COPOSCoinAcceptor@@UEAAJPEAF@Z 000000018002eb10 f   CoinAcceptorImpl.obj
 0001:0002db70       ?put_DataEventEnabled@COPOSCoinAcceptor@@UEAAJF@Z 000000018002eb70 f   CoinAcceptorImpl.obj
 0001:0002dbd0       ?get_DeviceEnabled@COPOSCoinAcceptor@@UEAAJPEAF@Z 000000018002ebd0 f   CoinAcceptorImpl.obj
 0001:0002dc30       ?put_DeviceEnabled@COPOSCoinAcceptor@@UEAAJF@Z 000000018002ec30 f   CoinAcceptorImpl.obj
 0001:0002dc90       ?get_FreezeEvents@COPOSCoinAcceptor@@UEAAJPEAF@Z 000000018002ec90 f   CoinAcceptorImpl.obj
 0001:0002dcf0       ?put_FreezeEvents@COPOSCoinAcceptor@@UEAAJF@Z 000000018002ecf0 f   CoinAcceptorImpl.obj
 0001:0002ddd0       ?get_PowerNotify@COPOSCoinAcceptor@@UEAAJPEAJ@Z 000000018002edd0 f   CoinAcceptorImpl.obj
 0001:0002de30       ?put_PowerNotify@COPOSCoinAcceptor@@UEAAJJ@Z 000000018002ee30 f   CoinAcceptorImpl.obj
 0001:0002de90       ?get_PowerState@COPOSCoinAcceptor@@UEAAJPEAJ@Z 000000018002ee90 f   CoinAcceptorImpl.obj
 0001:0002def0       ?get_ResultCode@COPOSCoinAcceptor@@UEAAJPEAJ@Z 000000018002eef0 f   CoinAcceptorImpl.obj
 0001:0002dfc0       ?get_ResultCodeExtended@COPOSCoinAcceptor@@UEAAJPEAJ@Z 000000018002efc0 f   CoinAcceptorImpl.obj
 0001:0002e020       ?get_State@COPOSCoinAcceptor@@UEAAJPEAJ@Z 000000018002f020 f   CoinAcceptorImpl.obj
 0001:0002e0b0       ?get_ControlObjectDescription@COPOSCoinAcceptor@@UEAAJPEAPEA_W@Z 000000018002f0b0 f   CoinAcceptorImpl.obj
 0001:0002e130       ?get_ControlObjectVersion@COPOSCoinAcceptor@@UEAAJPEAJ@Z 000000018002f130 f   CoinAcceptorImpl.obj
 0001:0002e190       ?get_ServiceObjectDescription@COPOSCoinAcceptor@@UEAAJPEAPEA_W@Z 000000018002f190 f   CoinAcceptorImpl.obj
 0001:0002e1f0       ?get_ServiceObjectVersion@COPOSCoinAcceptor@@UEAAJPEAJ@Z 000000018002f1f0 f   CoinAcceptorImpl.obj
 0001:0002e250       ?get_DeviceDescription@COPOSCoinAcceptor@@UEAAJPEAPEA_W@Z 000000018002f250 f   CoinAcceptorImpl.obj
 0001:0002e2b0       ?get_DeviceName@COPOSCoinAcceptor@@UEAAJPEAPEA_W@Z 000000018002f2b0 f   CoinAcceptorImpl.obj
 0001:0002e310       ?get_CapStatisticsReporting@COPOSCoinAcceptor@@UEAAJPEAF@Z 000000018002f310 f   CoinAcceptorImpl.obj
 0001:0002e370       ?get_CapUpdateStatistics@COPOSCoinAcceptor@@UEAAJPEAF@Z 000000018002f370 f   CoinAcceptorImpl.obj
 0001:0002e3d0       ?get_CapCompareFirmwareVersion@COPOSCoinAcceptor@@UEAAJPEAF@Z 000000018002f3d0 f   CoinAcceptorImpl.obj
 0001:0002e430       ?get_CapUpdateFirmware@COPOSCoinAcceptor@@UEAAJPEAF@Z 000000018002f430 f   CoinAcceptorImpl.obj
 0001:0002e490       ?CheckHealth@COPOSCoinAcceptor@@UEAAJJPEAJ@Z 000000018002f490 f   CoinAcceptorImpl.obj
 0001:0002e550       ?ClaimDevice@COPOSCoinAcceptor@@UEAAJJPEAJ@Z 000000018002f550 f   CoinAcceptorImpl.obj
 0001:0002e670       ?ClearInput@COPOSCoinAcceptor@@UEAAJPEAJ@Z 000000018002f670 f   CoinAcceptorImpl.obj
 0001:0002e6e0       ?Close@COPOSCoinAcceptor@@UEAAJPEAJ@Z 000000018002f6e0 f   CoinAcceptorImpl.obj
 0001:0002e7f0       ?DirectIO@COPOSCoinAcceptor@@UEAAJJPEAJPEAPEA_W0@Z 000000018002f7f0 f   CoinAcceptorImpl.obj
 0001:0002e970       ?Open@COPOSCoinAcceptor@@UEAAJPEA_WPEAJ@Z 000000018002f970 f   CoinAcceptorImpl.obj
 0001:0002fe50       ?ReleaseDevice@COPOSCoinAcceptor@@UEAAJPEAJ@Z 0000000180030e50 f   CoinAcceptorImpl.obj
 0001:0002ff00       ?ResetStatistics@COPOSCoinAcceptor@@UEAAJPEA_WPEAJ@Z 0000000180030f00 f   CoinAcceptorImpl.obj
 0001:0002ffe0       ?RetrieveStatistics@COPOSCoinAcceptor@@UEAAJPEAPEA_WPEAJ@Z 0000000180030fe0 f   CoinAcceptorImpl.obj
 0001:000300c0       ?UpdateStatistics@COPOSCoinAcceptor@@UEAAJPEA_WPEAJ@Z 00000001800310c0 f   CoinAcceptorImpl.obj
 0001:000301a0       ?CompareFirmwareVersion@COPOSCoinAcceptor@@UEAAJPEA_WPEAJ1@Z 00000001800311a0 f   CoinAcceptorImpl.obj
 0001:000302e0       ?UpdateFirmware@COPOSCoinAcceptor@@UEAAJPEA_WPEAJ@Z 00000001800312e0 f   CoinAcceptorImpl.obj
 0001:000303c0       ?get_CapDiscrepancy@COPOSCoinAcceptor@@UEAAJPEAF@Z 00000001800313c0 f   CoinAcceptorImpl.obj
 0001:00030420       ?get_CapFullSensor@COPOSCoinAcceptor@@UEAAJPEAF@Z 0000000180031420 f   CoinAcceptorImpl.obj
 0001:00030480       ?get_CapJamSensor@COPOSCoinAcceptor@@UEAAJPEAF@Z 0000000180031480 f   CoinAcceptorImpl.obj
 0001:000304e0       ?get_CapNearFullSensor@COPOSCoinAcceptor@@UEAAJPEAF@Z 00000001800314e0 f   CoinAcceptorImpl.obj
 0001:00030540       ?get_CapPauseDeposit@COPOSCoinAcceptor@@UEAAJPEAF@Z 0000000180031540 f   CoinAcceptorImpl.obj
 0001:000305a0       ?get_CapRealTimeData@COPOSCoinAcceptor@@UEAAJPEAF@Z 00000001800315a0 f   CoinAcceptorImpl.obj
 0001:00030600       ?get_CurrencyCode@COPOSCoinAcceptor@@UEAAJPEAPEA_W@Z 0000000180031600 f   CoinAcceptorImpl.obj
 0001:00030660       ?put_CurrencyCode@COPOSCoinAcceptor@@UEAAJPEA_W@Z 0000000180031660 f   CoinAcceptorImpl.obj
 0001:000306c0       ?get_DepositAmount@COPOSCoinAcceptor@@UEAAJPEAJ@Z 00000001800316c0 f   CoinAcceptorImpl.obj
 0001:00030720       ?get_DepositCashList@COPOSCoinAcceptor@@UEAAJPEAPEA_W@Z 0000000180031720 f   CoinAcceptorImpl.obj
 0001:00030780       ?get_DepositCodeList@COPOSCoinAcceptor@@UEAAJPEAPEA_W@Z 0000000180031780 f   CoinAcceptorImpl.obj
 0001:000307e0       ?get_DepositCounts@COPOSCoinAcceptor@@UEAAJPEAPEA_W@Z 00000001800317e0 f   CoinAcceptorImpl.obj
 0001:00030840       ?get_DepositStatus@COPOSCoinAcceptor@@UEAAJPEAJ@Z 0000000180031840 f   CoinAcceptorImpl.obj
 0001:000308a0       ?get_FullStatus@COPOSCoinAcceptor@@UEAAJPEAJ@Z 00000001800318a0 f   CoinAcceptorImpl.obj
 0001:00030900       ?get_RealTimeDataEnabled@COPOSCoinAcceptor@@UEAAJPEAF@Z 0000000180031900 f   CoinAcceptorImpl.obj
 0001:00030960       ?AdjustCashCounts@COPOSCoinAcceptor@@UEAAJPEA_WPEAJ@Z 0000000180031960 f   CoinAcceptorImpl.obj
 0001:00030a40       ?BeginDeposit@COPOSCoinAcceptor@@UEAAJPEAJ@Z 0000000180031a40 f   CoinAcceptorImpl.obj
 0001:00030ab0       ?EndDeposit@COPOSCoinAcceptor@@UEAAJJPEAJ@Z 0000000180031ab0 f   CoinAcceptorImpl.obj
 0001:00030b70       ?FixDeposit@COPOSCoinAcceptor@@UEAAJPEAJ@Z 0000000180031b70 f   CoinAcceptorImpl.obj
 0001:00030be0       ?PauseDeposit@COPOSCoinAcceptor@@UEAAJJPEAJ@Z 0000000180031be0 f   CoinAcceptorImpl.obj
 0001:00030ca0       ?ReadCashCounts@COPOSCoinAcceptor@@UEAAJPEAPEA_WPEAFPEAJ@Z 0000000180031ca0 f   CoinAcceptorImpl.obj
 0001:00030dd0       ??0?$CComControl@VCOPOSCoinAcceptor@@V?$CWindowImpl@VCOPOSCoinAcceptor@@VCWindow@ATL@@V?$CWinTraits@$0FGAAAAAA@$0A@@3@@ATL@@@ATL@@QEAA@XZ 0000000180031dd0 f i CoinAcceptorImpl.obj
 0001:00030e20       ??0?$CComPtr@UIAdviseSink@@@ATL@@QEAA@XZ 0000000180031e20 f i CoinAcceptorImpl.obj
 0001:00030e60       ??0?$CComPtr@UIDataAdviseHolder@@@ATL@@QEAA@XZ 0000000180031e60 f i CoinAcceptorImpl.obj
 0001:00030ea0       ??0?$CComPtr@UIOleAdviseHolder@@@ATL@@QEAA@XZ 0000000180031ea0 f i CoinAcceptorImpl.obj
 0001:00030ee0       ??0?$CComPtr@UIOleClientSite@@@ATL@@QEAA@XZ 0000000180031ee0 f i CoinAcceptorImpl.obj
 0001:00030f20       ??0?$CComPtr@UIOleInPlaceSiteWindowless@@@ATL@@QEAA@XZ 0000000180031f20 f i CoinAcceptorImpl.obj
 0001:00030f60       ??0?$CComPtrBase@UIAdviseSink@@@ATL@@IEAA@XZ 0000000180031f60 f i CoinAcceptorImpl.obj
 0001:00030f80       ??0?$CComPtrBase@UIDataAdviseHolder@@@ATL@@IEAA@XZ 0000000180031f80 f i CoinAcceptorImpl.obj
 0001:00030fa0       ??0?$CComPtrBase@UIOleAdviseHolder@@@ATL@@IEAA@XZ 0000000180031fa0 f i CoinAcceptorImpl.obj
 0001:00030fc0       ??0?$CComPtrBase@UIOleClientSite@@@ATL@@IEAA@XZ 0000000180031fc0 f i CoinAcceptorImpl.obj
 0001:00030fe0       ??0?$CComPtrBase@UIOleInPlaceSiteWindowless@@@ATL@@IEAA@XZ 0000000180031fe0 f i CoinAcceptorImpl.obj
 0001:00031000       ??0?$CComQIPtr@UIDispatch@@$1?_GUID_00020400_0000_0000_c000_000000000046@@3U__s_GUID@@B@ATL@@QEAA@XZ 0000000180032000 f i CoinAcceptorImpl.obj
 0001:00031040       ??0?$CProxy_IOPOSEvents@VCOPOSCoinAcceptor@@@@QEAA@PEAVCOPOSCoinAcceptor@@@Z 0000000180032040 f i CoinAcceptorImpl.obj
 0001:000310c0       ??0?$CWindowImpl@VCOPOSCoinAcceptor@@VCWindow@ATL@@V?$CWinTraits@$0FGAAAAAA@$0A@@3@@ATL@@QEAA@XZ 00000001800320c0 f i CoinAcceptorImpl.obj
 0001:00031100       ??0?$CWindowImplBaseT@VCWindow@ATL@@V?$CWinTraits@$0FGAAAAAA@$0A@@2@@ATL@@QEAA@XZ 0000000180032100 f i CoinAcceptorImpl.obj
 0001:00031150       ??0?$CWindowImplRoot@VCWindow@ATL@@@ATL@@QEAA@XZ 0000000180032150 f i CoinAcceptorImpl.obj
 0001:000311c0       ??0?$IConnectionPointContainerImpl@VCOPOSCoinAcceptor@@@ATL@@QEAA@XZ 00000001800321c0 f i CoinAcceptorImpl.obj
 0001:00031200       ??0?$IConnectionPointImpl@VCOPOSCoinAcceptor@@$1?DIID__IOPOSCoinAcceptorEvents@@3U_GUID@@BVCComDynamicUnkArray@ATL@@@ATL@@QEAA@XZ 0000000180032200 f i CoinAcceptorImpl.obj
 0001:00031250       ??0?$IConnectionPointImpl@VCOPOSCoinAcceptor@@$1?IID_IPropertyNotifySink@@3U_GUID@@BVCComDynamicUnkArray@ATL@@@ATL@@QEAA@XZ 0000000180032250 f i CoinAcceptorImpl.obj
 0001:000312a0       ??0?$IDataObjectImpl@VCOPOSCoinAcceptor@@@ATL@@QEAA@XZ 00000001800322a0 f i CoinAcceptorImpl.obj
 0001:000312e0       ??0?$IDispatchImpl@UIOPOSCoinAcceptor@@$1?IID_IOPOSCoinAcceptor@@3U_GUID@@B$1?LIBID_OposCoinAcceptor_CCO@@3U3@B$00$0A@VCComTypeInfoHolder@ATL@@@ATL@@QEAA@XZ 00000001800322e0 f i CoinAcceptorImpl.obj
 0001:00031320       ??0?$IObjectSafetyImpl@VCOPOSCoinAcceptor@@$02@ATL@@QEAA@XZ 0000000180032320 f i CoinAcceptorImpl.obj
 0001:00031360       ??0?$IOleControlImpl@VCOPOSCoinAcceptor@@@ATL@@QEAA@XZ 0000000180032360 f i CoinAcceptorImpl.obj
 0001:000313a0       ??0?$IOleInPlaceActiveObjectImpl@VCOPOSCoinAcceptor@@@ATL@@QEAA@XZ 00000001800323a0 f i CoinAcceptorImpl.obj
 0001:000313e0       ??0?$IOleInPlaceObjectWindowlessImpl@VCOPOSCoinAcceptor@@@ATL@@QEAA@XZ 00000001800323e0 f i CoinAcceptorImpl.obj
 0001:00031420       ??0?$IOleObjectImpl@VCOPOSCoinAcceptor@@@ATL@@QEAA@XZ 0000000180032420 f i CoinAcceptorImpl.obj
 0001:00031460       ??0?$IPersistStorageImpl@VCOPOSCoinAcceptor@@@ATL@@QEAA@XZ 0000000180032460 f i CoinAcceptorImpl.obj
 0001:000314a0       ??0?$IPersistStreamInitImpl@VCOPOSCoinAcceptor@@@ATL@@QEAA@XZ 00000001800324a0 f i CoinAcceptorImpl.obj
 0001:000314e0       ??0?$IPropertyNotifySinkCP@VCOPOSCoinAcceptor@@VCComDynamicUnkArray@ATL@@@ATL@@QEAA@XZ 00000001800324e0 f i CoinAcceptorImpl.obj
 0001:00031520       ??0?$IProvideClassInfo2Impl@$1?CLSID_OPOSCoinAcceptor@@3U_GUID@@B$1?DIID__IOPOSCoinAcceptorEvents@@3U2@B$1?LIBID_OposCoinAcceptor_CCO@@3U2@B$00$0A@VCComTypeInfoHolder@ATL@@@ATL@@QEAA@XZ 0000000180032520 f i CoinAcceptorImpl.obj
 0001:00031560       ??0?$IQuickActivateImpl@VCOPOSCoinAcceptor@@@ATL@@QEAA@XZ 0000000180032560 f i CoinAcceptorImpl.obj
 0001:000315a0       ??0?$ISpecifyPropertyPagesImpl@VCOPOSCoinAcceptor@@@ATL@@QEAA@XZ 00000001800325a0 f i CoinAcceptorImpl.obj
 0001:000315e0       ??0?$IViewObjectExImpl@VCOPOSCoinAcceptor@@@ATL@@QEAA@XZ 00000001800325e0 f i CoinAcceptorImpl.obj
 0001:00031620       ??0?$_ICPLocator@$1?DIID__IOPOSCoinAcceptorEvents@@3U_GUID@@B@ATL@@QEAA@XZ 0000000180032620 f i CoinAcceptorImpl.obj
 0001:00031630       ??0?$_ICPLocator@$1?IID_IPropertyNotifySink@@3U_GUID@@B@ATL@@QEAA@XZ 0000000180032630 f i CoinAcceptorImpl.obj
 0001:00031640       ??0CComControlBase@ATL@@QEAA@AEAPEAUHWND__@@@Z 0000000180032640 f i CoinAcceptorImpl.obj
 0001:00031860       ??0CComDynamicUnkArray@ATL@@QEAA@XZ 0000000180032860 f i CoinAcceptorImpl.obj
 0001:00031890       ??0CDynamicStdCallThunk2@ATL@@QEAA@XZ 0000000180032890 f i CoinAcceptorImpl.obj
 0001:000318b0       ??0CMessageMap@ATL@@QEAA@XZ 00000001800328b0 f i CoinAcceptorImpl.obj
 0001:000318c0       ??0CWindow@ATL@@QEAA@PEAUHWND__@@@Z 00000001800328c0 f i CoinAcceptorImpl.obj
 0001:000318e0       ??0CWndProcThunk@ATL@@QEAA@XZ 00000001800328e0 f i CoinAcceptorImpl.obj
 0001:00031920       ??0IConnectionPointContainer@@QEAA@XZ 0000000180032920 f i CoinAcceptorImpl.obj
 0001:00031960       ??0IDataObject@@QEAA@XZ    0000000180032960 f i CoinAcceptorImpl.obj
 0001:000319a0       ??0IDispatch@@QEAA@XZ      00000001800329a0 f i CoinAcceptorImpl.obj
 0001:000319e0       ??0IOPOSCoinAcceptor@@QEAA@XZ 00000001800329e0 f i CoinAcceptorImpl.obj
 0001:00031a20       ??0IOPOSCoinAcceptor_1_11@@QEAA@XZ 0000000180032a20 f i CoinAcceptorImpl.obj
 0001:00031a60       ??0IObjectSafety@@QEAA@XZ  0000000180032a60 f i CoinAcceptorImpl.obj
 0001:00031aa0       ??0IOleControl@@QEAA@XZ    0000000180032aa0 f i CoinAcceptorImpl.obj
 0001:00031ae0       ??0IOleInPlaceActiveObject@@QEAA@XZ 0000000180032ae0 f i CoinAcceptorImpl.obj
 0001:00031b20       ??0IOleInPlaceObject@@QEAA@XZ 0000000180032b20 f i CoinAcceptorImpl.obj
 0001:00031b60       ??0IOleInPlaceObjectWindowless@@QEAA@XZ 0000000180032b60 f i CoinAcceptorImpl.obj
 0001:00031ba0       ??0IOleObject@@QEAA@XZ     0000000180032ba0 f i CoinAcceptorImpl.obj
 0001:00031be0       ??0IOleWindow@@QEAA@XZ     0000000180032be0 f i CoinAcceptorImpl.obj
 0001:00031c20       ??0IPersist@@QEAA@XZ       0000000180032c20 f i CoinAcceptorImpl.obj
 0001:00031c60       ??0IPersistStorage@@QEAA@XZ 0000000180032c60 f i CoinAcceptorImpl.obj
 0001:00031ca0       ??0IPersistStreamInit@@QEAA@XZ 0000000180032ca0 f i CoinAcceptorImpl.obj
 0001:00031ce0       ??0IProvideClassInfo2@@QEAA@XZ 0000000180032ce0 f i CoinAcceptorImpl.obj
 0001:00031d20       ??0IProvideClassInfo@@QEAA@XZ 0000000180032d20 f i CoinAcceptorImpl.obj
 0001:00031d60       ??0IQuickActivate@@QEAA@XZ 0000000180032d60 f i CoinAcceptorImpl.obj
 0001:00031da0       ??0ISpecifyPropertyPages@@QEAA@XZ 0000000180032da0 f i CoinAcceptorImpl.obj
 0001:00031de0       ??0IViewObject2@@QEAA@XZ   0000000180032de0 f i CoinAcceptorImpl.obj
 0001:00031e20       ??0IViewObject@@QEAA@XZ    0000000180032e20 f i CoinAcceptorImpl.obj
 0001:00031e60       ??0IViewObjectEx@@QEAA@XZ  0000000180032e60 f i CoinAcceptorImpl.obj
 0001:00031ea0       ??0OposVariantResult@@QEAA@XZ 0000000180032ea0 f i CoinAcceptorImpl.obj
 0001:00031ee0       ??0_CW@@QEAA@PEBD@Z        0000000180032ee0 f i CoinAcceptorImpl.obj
 0001:00031f30       ??0_CW@@QEAA@PEB_W@Z       0000000180032f30 f i CoinAcceptorImpl.obj
 0001:00031f80       ??0_CWNCC@@QEAA@PEBD@Z     0000000180032f80 f i CoinAcceptorImpl.obj
 0001:00031fc0       ??1?$CComControl@VCOPOSCoinAcceptor@@V?$CWindowImpl@VCOPOSCoinAcceptor@@VCWindow@ATL@@V?$CWinTraits@$0FGAAAAAA@$0A@@3@@ATL@@@ATL@@UEAA@XZ 0000000180032fc0 f i CoinAcceptorImpl.obj
 0001:00032000       ??1?$CComPtr@UIDataAdviseHolder@@@ATL@@QEAA@XZ 0000000180033000 f i CoinAcceptorImpl.obj
 0001:00032030       ??1?$CComPtr@UIOleAdviseHolder@@@ATL@@QEAA@XZ 0000000180033030 f i CoinAcceptorImpl.obj
 0001:00032060       ??1?$CComPtr@UIOleInPlaceSiteWindowless@@@ATL@@QEAA@XZ 0000000180033060 f i CoinAcceptorImpl.obj
 0001:00032090       ??1?$CComPtrBase@UIDataAdviseHolder@@@ATL@@QEAA@XZ 0000000180033090 f i CoinAcceptorImpl.obj
 0001:000320e0       ??1?$CComPtrBase@UIOleAdviseHolder@@@ATL@@QEAA@XZ 00000001800330e0 f i CoinAcceptorImpl.obj
 0001:00032130       ??1?$CComPtrBase@UIOleInPlaceSiteWindowless@@@ATL@@QEAA@XZ 0000000180033130 f i CoinAcceptorImpl.obj
 0001:00032180       ??1?$CComQIPtr@UIDispatch@@$1?_GUID_00020400_0000_0000_c000_000000000046@@3U__s_GUID@@B@ATL@@QEAA@XZ 0000000180033180 f i CoinAcceptorImpl.obj
 0001:000321b0       ??1?$CProxy_IOPOSEvents@VCOPOSCoinAcceptor@@@@QEAA@XZ 00000001800331b0 f i CoinAcceptorImpl.obj
 0001:000321e0       ??1?$CWindowImpl@VCOPOSCoinAcceptor@@VCWindow@ATL@@V?$CWinTraits@$0FGAAAAAA@$0A@@3@@ATL@@UEAA@XZ 00000001800331e0 f i CoinAcceptorImpl.obj
 0001:00032210       ??1?$CWindowImplBaseT@VCWindow@ATL@@V?$CWinTraits@$0FGAAAAAA@$0A@@2@@ATL@@UEAA@XZ 0000000180033210 f i CoinAcceptorImpl.obj
 0001:00032240       ??1?$CWindowImplRoot@VCWindow@ATL@@@ATL@@UEAA@XZ 0000000180033240 f i CoinAcceptorImpl.obj
 0001:00032300       ??1?$IConnectionPointImpl@VCOPOSCoinAcceptor@@$1?DIID__IOPOSCoinAcceptorEvents@@3U_GUID@@BVCComDynamicUnkArray@ATL@@@ATL@@QEAA@XZ 0000000180033300 f i CoinAcceptorImpl.obj
 0001:000323a0       ??1?$IConnectionPointImpl@VCOPOSCoinAcceptor@@$1?IID_IPropertyNotifySink@@3U_GUID@@BVCComDynamicUnkArray@ATL@@@ATL@@QEAA@XZ 00000001800333a0 f i CoinAcceptorImpl.obj
 0001:00032440       ??1?$IPropertyNotifySinkCP@VCOPOSCoinAcceptor@@VCComDynamicUnkArray@ATL@@@ATL@@QEAA@XZ 0000000180033440 f i CoinAcceptorImpl.obj
 0001:00032470       ??1CComControlBase@ATL@@UEAA@XZ 0000000180033470 f i CoinAcceptorImpl.obj
 0001:00032560       ??1CComDynamicUnkArray@ATL@@QEAA@XZ 0000000180033560 f i CoinAcceptorImpl.obj
 0001:000325a0       ??1CDynamicStdCallThunk2@ATL@@QEAA@XZ 00000001800335a0 f i CoinAcceptorImpl.obj
 0001:000325e0       ??1CWndProcThunk@ATL@@QEAA@XZ 00000001800335e0 f i CoinAcceptorImpl.obj
 0001:00032620       ??1OposVariantResult@@QEAA@XZ 0000000180033620 f i CoinAcceptorImpl.obj
 0001:00032660       ??1_CW@@QEAA@XZ            0000000180033660 f i CoinAcceptorImpl.obj
 0001:000326e0       ??1_CWNCC@@QEAA@XZ         00000001800336e0 f i CoinAcceptorImpl.obj
 0001:00032710       ??B_CW@@QEAAPEB_WXZ        0000000180033710 f i CoinAcceptorImpl.obj
 0001:00032760       ??B_CWNCC@@QEAAPEA_WXZ     0000000180033760 f i CoinAcceptorImpl.obj
 0001:00032790       ??_EOposVariant@@QEAAPEAXI@Z 0000000180033790 f i CoinAcceptorImpl.obj
 0001:00032840       ?EventClaim@COPOSCoinAcceptor@@IEAAXXZ 0000000180033840 f i CoinAcceptorImpl.obj
 0001:00032890       ?EventClose@COPOSCoinAcceptor@@IEAAXXZ 0000000180033890 f i CoinAcceptorImpl.obj
 0001:00032930       ?EventInit@COPOSCoinAcceptor@@IEAAJXZ 0000000180033930 f i CoinAcceptorImpl.obj
 0001:00032be0       ?EventOpen@COPOSCoinAcceptor@@IEAAXXZ 0000000180033be0 f i CoinAcceptorImpl.obj
 0001:00032c20       ?EventPreCloseRelease@COPOSCoinAcceptor@@IEAAXXZ 0000000180033c20 f i CoinAcceptorImpl.obj
 0001:00032ca0       ?EventUninit@COPOSCoinAcceptor@@IEAAXXZ 0000000180033ca0 f i CoinAcceptorImpl.obj
 0001:00032dd0       ?EventWindowProc@COPOSCoinAcceptor@@IEAA_JI_K_J@Z 0000000180033dd0 f i CoinAcceptorImpl.obj
 0001:00032f30       ?FireEventCleanup@COPOSCoinAcceptor@@IEAAXXZ 0000000180033f30 f i CoinAcceptorImpl.obj
 0001:00032f80       ?FireEventSetup@COPOSCoinAcceptor@@IEAA_NXZ 0000000180033f80 f i CoinAcceptorImpl.obj
 0001:00033000       ?GetModuleInstance@CComModule@ATL@@QEAAPEAUHINSTANCE__@@XZ 0000000180034000 f i CoinAcceptorImpl.obj
 0001:00033010       ?SetRC@COPOSCoinAcceptor@@IEAAJJ@Z 0000000180034010 f i CoinAcceptorImpl.obj
 0001:00033030       ?s_EventWindowProc@COPOSCoinAcceptor@@KA_JPEAUHWND__@@I_K_J@Z 0000000180034030 f i CoinAcceptorImpl.obj
 0001:000330e0       _snwprintf                 00000001800340e0 f i CoinAcceptorImpl.obj
 0001:00033170       _vfwprintf_l               0000000180034170 f i CoinAcceptorImpl.obj
 0001:000331d0       _vsnwprintf                00000001800341d0 f i CoinAcceptorImpl.obj
 0001:00033230       _vsnwprintf_l              0000000180034230 f i CoinAcceptorImpl.obj
 0001:000332c0       vfwprintf                  00000001800342c0 f i CoinAcceptorImpl.obj
 0001:00033305       DebugBreak                 0000000180034305 f   kernel32:KERNEL32.dll
 0001:0003330b       Sleep                      000000018003430b f   kernel32:KERNEL32.dll
 0001:00033311       GetCurrentProcess          0000000180034311 f   kernel32:KERNEL32.dll
 0001:00033317       TerminateProcess           0000000180034317 f   kernel32:KERNEL32.dll
 0001:0003331d       MultiByteToWideChar        000000018003431d f   kernel32:KERNEL32.dll
 0001:00033323       WideCharToMultiByte        0000000180034323 f   kernel32:KERNEL32.dll
 0001:00033329       DecodePointer              0000000180034329 f   kernel32:KERNEL32.dll
 0001:0003332f       RaiseException             000000018003432f f   kernel32:KERNEL32.dll
 0001:00033335       GetLastError               0000000180034335 f   kernel32:KERNEL32.dll
 0001:0003333b       SetLastError               000000018003433b f   kernel32:KERNEL32.dll
 0001:00033341       InitializeCriticalSectionEx 0000000180034341 f   kernel32:KERNEL32.dll
 0001:00033347       DeleteCriticalSection      0000000180034347 f   kernel32:KERNEL32.dll
 0001:0003334d       EncodePointer              000000018003434d f   kernel32:KERNEL32.dll
 0001:00033353       EnterCriticalSection       0000000180034353 f   kernel32:KERNEL32.dll
 0001:00033359       LeaveCriticalSection       0000000180034359 f   kernel32:KERNEL32.dll
 0001:0003335f       ResetEvent                 000000018003435f f   kernel32:KERNEL32.dll
 0001:00033365       ReleaseMutex               0000000180034365 f   kernel32:KERNEL32.dll
 0001:0003336b       WaitForSingleObject        000000018003436b f   kernel32:KERNEL32.dll
 0001:00033371       GetCurrentThreadId         0000000180034371 f   kernel32:KERNEL32.dll
 0001:00033377       DisableThreadLibraryCalls  0000000180034377 f   kernel32:KERNEL32.dll
 0001:0003337d       FreeLibrary                000000018003437d f   kernel32:KERNEL32.dll
 0001:00033383       GetModuleFileNameW         0000000180034383 f   kernel32:KERNEL32.dll
 0001:00033389       GetModuleHandleW           0000000180034389 f   kernel32:KERNEL32.dll
 0001:0003338f       GetProcAddress             000000018003438f f   kernel32:KERNEL32.dll
 0001:00033395       LoadLibraryExW             0000000180034395 f   kernel32:KERNEL32.dll
 0001:0003339b       LoadResource               000000018003439b f   kernel32:KERNEL32.dll
 0001:000333a1       SizeofResource             00000001800343a1 f   kernel32:KERNEL32.dll
 0001:000333a7       FindResourceW              00000001800343a7 f   kernel32:KERNEL32.dll
 0001:000333ad       GlobalAlloc                00000001800343ad f   kernel32:KERNEL32.dll
 0001:000333b3       GlobalUnlock               00000001800343b3 f   kernel32:KERNEL32.dll
 0001:000333b9       GlobalLock                 00000001800343b9 f   kernel32:KERNEL32.dll
 0001:000333bf       MulDiv                     00000001800343bf f   kernel32:KERNEL32.dll
 0001:000333c5       lstrcmpiW                  00000001800343c5 f   kernel32:KERNEL32.dll
 0001:000333cb       DeleteFileW                00000001800343cb f   kernel32:KERNEL32.dll
 0001:000333d1       CloseHandle                00000001800343d1 f   kernel32:KERNEL32.dll
 0001:000333d7       SetEvent                   00000001800343d7 f   kernel32:KERNEL32.dll
 0001:000333dd       CreateMutexW               00000001800343dd f   kernel32:KERNEL32.dll
 0001:000333e3       CreateEventW               00000001800343e3 f   kernel32:KERNEL32.dll
 0001:000333e9       GetCurrentProcessId        00000001800343e9 f   kernel32:KERNEL32.dll
 0001:000333ef       LocalFree                  00000001800343ef f   kernel32:KERNEL32.dll
 0001:000333f5       FormatMessageW             00000001800343f5 f   kernel32:KERNEL32.dll
 0001:000333fb       GetActiveWindow            00000001800343fb f   user32:USER32.dll
 0001:00033401       MessageBoxW                0000000180034401 f   user32:USER32.dll
 0001:00033407       UnregisterClassW           0000000180034407 f   user32:USER32.dll
 0001:0003340d       PostMessageW               000000018003440d f   user32:USER32.dll
 0001:00033413       DefWindowProcW             0000000180034413 f   user32:USER32.dll
 0001:00033419       CallWindowProcW            0000000180034419 f   user32:USER32.dll
 0001:0003341f       RegisterClassExW           000000018003441f f   user32:USER32.dll
 0001:00033425       GetClassInfoExW            0000000180034425 f   user32:USER32.dll
 0001:0003342b       CreateWindowExW            000000018003442b f   user32:USER32.dll
 0001:00033431       IsWindow                   0000000180034431 f   user32:USER32.dll
 0001:00033437       IsChild                    0000000180034437 f   user32:USER32.dll
 0001:0003343d       DestroyWindow              000000018003443d f   user32:USER32.dll
 0001:00033443       ShowWindow                 0000000180034443 f   user32:USER32.dll
 0001:00033449       SetWindowPos               0000000180034449 f   user32:USER32.dll
 0001:0003344f       CharNextW                  000000018003444f f   user32:USER32.dll
 0001:00033455       SetFocus                   0000000180034455 f   user32:USER32.dll
 0001:0003345b       GetFocus                   000000018003445b f   user32:USER32.dll
 0001:00033461       GetKeyState                0000000180034461 f   user32:USER32.dll
 0001:00033467       GetDC                      0000000180034467 f   user32:USER32.dll
 0001:0003346d       ReleaseDC                  000000018003446d f   user32:USER32.dll
 0001:00033473       BeginPaint                 0000000180034473 f   user32:USER32.dll
 0001:00033479       EndPaint                   0000000180034479 f   user32:USER32.dll
 0001:0003347f       SetWindowRgn               000000018003447f f   user32:USER32.dll
 0001:00033485       InvalidateRect             0000000180034485 f   user32:USER32.dll
 0001:0003348b       GetClientRect              000000018003448b f   user32:USER32.dll
 0001:00033491       IntersectRect              0000000180034491 f   user32:USER32.dll
 0001:00033497       UnionRect                  0000000180034497 f   user32:USER32.dll
 0001:0003349d       OffsetRect                 000000018003449d f   user32:USER32.dll
 0001:000334a3       EqualRect                  00000001800344a3 f   user32:USER32.dll
 0001:000334a9       PtInRect                   00000001800344a9 f   user32:USER32.dll
 0001:000334af       GetWindowLongPtrW          00000001800344af f   user32:USER32.dll
 0001:000334b5       SetWindowLongPtrW          00000001800344b5 f   user32:USER32.dll
 0001:000334bb       GetParent                  00000001800344bb f   user32:USER32.dll
 0001:000334c1       LoadCursorW                00000001800344c1 f   user32:USER32.dll
 0001:000334c7       PeekMessageW               00000001800344c7 f   user32:USER32.dll
 0001:000334cd       RegisterClassW             00000001800344cd f   user32:USER32.dll
 0001:000334d3       LoadBitmapW                00000001800344d3 f   user32:USER32.dll
 0001:000334d9       CloseMetaFile              00000001800344d9 f   gdi32:GDI32.dll
 0001:000334df       CreateDCW                  00000001800344df f   gdi32:GDI32.dll
 0001:000334e5       CreateMetaFileW            00000001800344e5 f   gdi32:GDI32.dll
 0001:000334eb       CreateRectRgnIndirect      00000001800344eb f   gdi32:GDI32.dll
 0001:000334f1       DeleteDC                   00000001800344f1 f   gdi32:GDI32.dll
 0001:000334f7       DeleteMetaFile             00000001800344f7 f   gdi32:GDI32.dll
 0001:000334fd       GetDeviceCaps              00000001800344fd f   gdi32:GDI32.dll
 0001:00033503       RestoreDC                  0000000180034503 f   gdi32:GDI32.dll
 0001:00033509       SaveDC                     0000000180034509 f   gdi32:GDI32.dll
 0001:0003350f       SetMapMode                 000000018003450f f   gdi32:GDI32.dll
 0001:00033515       LPtoDP                     0000000180034515 f   gdi32:GDI32.dll
 0001:0003351b       SetViewportOrgEx           000000018003451b f   gdi32:GDI32.dll
 0001:00033521       SetWindowExtEx             0000000180034521 f   gdi32:GDI32.dll
 0001:00033527       SetWindowOrgEx             0000000180034527 f   gdi32:GDI32.dll
 0001:0003352d       BitBlt                     000000018003452d f   gdi32:GDI32.dll
 0001:00033533       CreateCompatibleDC         0000000180034533 f   gdi32:GDI32.dll
 0001:00033539       DeleteObject               0000000180034539 f   gdi32:GDI32.dll
 0001:0003353f       SelectObject               000000018003453f f   gdi32:GDI32.dll
 0001:00033545       GetObjectW                 0000000180034545 f   gdi32:GDI32.dll
 0001:0003354b       RegCloseKey                000000018003454b f   advapi32:ADVAPI32.dll
 0001:00033551       RegCreateKeyExW            0000000180034551 f   advapi32:ADVAPI32.dll
 0001:00033557       RegDeleteKeyW              0000000180034557 f   advapi32:ADVAPI32.dll
 0001:0003355d       RegDeleteValueW            000000018003455d f   advapi32:ADVAPI32.dll
 0001:00033563       RegEnumKeyExW              0000000180034563 f   advapi32:ADVAPI32.dll
 0001:00033569       RegOpenKeyExW              0000000180034569 f   advapi32:ADVAPI32.dll
 0001:0003356f       RegQueryInfoKeyW           000000018003456f f   advapi32:ADVAPI32.dll
 0001:00033575       RegSetValueExW             0000000180034575 f   advapi32:ADVAPI32.dll
 0001:0003357b       RegQueryValueExW           000000018003457b f   advapi32:ADVAPI32.dll
 0001:00033581       CoCreateInstance           0000000180034581 f   ole32:ole32.dll
 0001:00033587       StringFromGUID2            0000000180034587 f   ole32:ole32.dll
 0001:0003358d       CoTaskMemAlloc             000000018003458d f   ole32:ole32.dll
 0001:00033593       CoTaskMemRealloc           0000000180034593 f   ole32:ole32.dll
 0001:00033599       CoTaskMemFree              0000000180034599 f   ole32:ole32.dll
 0001:0003359f       ReadClassStm               000000018003459f f   ole32:ole32.dll
 0001:000335a5       WriteClassStm              00000001800345a5 f   ole32:ole32.dll
 0001:000335ab       CreateDataAdviseHolder     00000001800345ab f   ole32:ole32.dll
 0001:000335b1       OleSaveToStream            00000001800345b1 f   ole32:ole32.dll
 0001:000335b7       CreateOleAdviseHolder      00000001800345b7 f   ole32:ole32.dll
 0001:000335bd       OleRegGetUserType          00000001800345bd f   ole32:ole32.dll
 0001:000335c3       OleRegGetMiscStatus        00000001800345c3 f   ole32:ole32.dll
 0001:000335c9       OleRegEnumVerbs            00000001800345c9 f   ole32:ole32.dll
 0001:000335cf       CLSIDFromProgID            00000001800345cf f   ole32:ole32.dll
 0001:000335d5       SysAllocString             00000001800345d5 f   oleaut32:OLEAUT32.dll
 0001:000335db       SysAllocStringLen          00000001800345db f   oleaut32:OLEAUT32.dll
 0001:000335e1       SysFreeString              00000001800345e1 f   oleaut32:OLEAUT32.dll
 0001:000335e7       SysStringLen               00000001800345e7 f   oleaut32:OLEAUT32.dll
 0001:000335ed       VariantClear               00000001800345ed f   oleaut32:OLEAUT32.dll
 0001:000335f3       VariantCopyInd             00000001800345f3 f   oleaut32:OLEAUT32.dll
 0001:000335f9       VariantChangeType          00000001800345f9 f   oleaut32:OLEAUT32.dll
 0001:000335ff       SysStringByteLen           00000001800345ff f   oleaut32:OLEAUT32.dll
 0001:00033605       SysAllocStringByteLen      0000000180034605 f   oleaut32:OLEAUT32.dll
 0001:0003360b       VariantInit                000000018003460b f   oleaut32:OLEAUT32.dll
 0001:00033611       VarUI4FromStr              0000000180034611 f   oleaut32:OLEAUT32.dll
 0001:00033617       LoadTypeLib                0000000180034617 f   oleaut32:OLEAUT32.dll
 0001:0003361d       LoadRegTypeLib             000000018003461d f   oleaut32:OLEAUT32.dll
 0001:00033623       RegisterTypeLib            0000000180034623 f   oleaut32:OLEAUT32.dll
 0001:00033629       UnRegisterTypeLib          0000000180034629 f   oleaut32:OLEAUT32.dll
 0001:0003362f       OleCreatePropertyFrame     000000018003462f f   oleaut32:OLEAUT32.dll
 0001:00033640       _RTC_AllocaHelper          0000000180034640 f   LIBCMTD:stack.obj
 0001:00033680       _RTC_CheckStackVars        0000000180034680 f   LIBCMTD:stack.obj
 0001:00033710       _RTC_CheckStackVars2       0000000180034710 f   LIBCMTD:stack.obj
 0001:00033820       _CRT_RTC_INIT              0000000180034820 f   LIBCMTD:init.obj
 0001:00033830       _CRT_RTC_INITW             0000000180034830 f   LIBCMTD:init.obj
 0001:00033840       _RTC_InitBase              0000000180034840 f   LIBCMTD:init.obj
 0001:00033880       _RTC_Shutdown              0000000180034880 f   LIBCMTD:init.obj
 0001:000338b0       __GSHandlerCheck           00000001800348b0 f   LIBCMTD:gshandler.obj
 0001:000338f0       __GSHandlerCheckCommon     00000001800348f0 f   LIBCMTD:gshandler.obj
 0001:00033a00       __security_check_cookie    0000000180034a00 f   LIBCMTD:amdsecgs.obj
 0001:00033a30       ??_U@YAPEAX_K@Z            0000000180034a30 f   LIBCMTD:new_array.obj
 0001:00033a50       ??3@YAXPEAX_K@Z            0000000180034a50 f   LIBCMTD:delete_scalar_size.obj
 0001:00033a70       ??_V@YAXPEAX@Z             0000000180034a70 f   LIBCMTD:delete_array.obj
 0001:00033a90       ??_V@YAXPEAX_K@Z           0000000180034a90 f   LIBCMTD:delete_array_size.obj
 0001:00033ab0       ?configure_argv@__scrt_narrow_argv_policy@@SAHXZ 0000000180034ab0 f i LIBCMTD:utility.obj
 0001:00033ba0       ?initialize_environment@__scrt_narrow_environment_policy@@SAHXZ 0000000180034ba0 f i LIBCMTD:utility.obj
 0001:00033c40       NtCurrentTeb               0000000180034c40 f i LIBCMTD:utility.obj
 0001:00033c50       __scrt_acquire_startup_lock 0000000180034c50 f   LIBCMTD:utility.obj
 0001:00033cc0       __scrt_dllmain_after_initialize_c 0000000180034cc0 f   LIBCMTD:utility.obj
 0001:00033cf0       __scrt_dllmain_before_initialize_c 0000000180034cf0 f   LIBCMTD:utility.obj
 0001:00033d10       __scrt_dllmain_crt_thread_attach 0000000180034d10 f   LIBCMTD:utility.obj
 0001:00033d40       __scrt_dllmain_crt_thread_detach 0000000180034d40 f   LIBCMTD:utility.obj
 0001:00033d60       __scrt_dllmain_exception_filter 0000000180034d60 f   LIBCMTD:utility.obj
 0001:00033dd0       __scrt_dllmain_uninitialize_c 0000000180034dd0 f   LIBCMTD:utility.obj
 0001:00033e00       __scrt_dllmain_uninitialize_critical 0000000180034e00 f   LIBCMTD:utility.obj
 0001:00033e20       __scrt_initialize_crt      0000000180034e20 f   LIBCMTD:utility.obj
 0001:00033e70       __scrt_initialize_onexit_tables 0000000180034e70 f   LIBCMTD:utility.obj
 0001:00033f80       __scrt_is_nonwritable_in_current_image 0000000180034f80 f   LIBCMTD:utility.obj
 0001:00034010       __scrt_release_startup_lock 0000000180035010 f   LIBCMTD:utility.obj
 0001:00034040       __scrt_uninitialize_crt    0000000180035040 f   LIBCMTD:utility.obj
 0001:00034080       _onexit                    0000000180035080 f   LIBCMTD:utility.obj
 0001:00034100       at_quick_exit              0000000180035100 f   LIBCMTD:utility.obj
 0001:00034150       atexit                     0000000180035150 f   LIBCMTD:utility.obj
 0001:00034190       ??3@YAXPEAX@Z              0000000180035190 f   LIBCMTD:delete_scalar.obj
 0001:000341b0       __raise_securityfailure    00000001800351b0 f   LIBCMTD:gs_report.obj
 0001:000341f0       __report_gsfailure         00000001800351f0 f   LIBCMTD:gs_report.obj
 0001:000342d0       __report_rangecheckfailure 00000001800352d0 f   LIBCMTD:gs_report.obj
 0001:000342f0       __report_securityfailure   00000001800352f0 f   LIBCMTD:gs_report.obj
 0001:00034390       __report_securityfailureEx 0000000180035390 f   LIBCMTD:gs_report.obj
 0001:00034750       _Init_thread_abort         0000000180035750 f   LIBCMTD:thread_safe_statics.obj
 0001:00034780       _Init_thread_footer        0000000180035780 f   LIBCMTD:thread_safe_statics.obj
 0001:000347e0       _Init_thread_header        00000001800357e0 f   LIBCMTD:thread_safe_statics.obj
 0001:00034870       _Init_thread_lock          0000000180035870 f   LIBCMTD:thread_safe_statics.obj
 0001:00034890       _Init_thread_notify        0000000180035890 f   LIBCMTD:thread_safe_statics.obj
 0001:000348f0       _Init_thread_unlock        00000001800358f0 f   LIBCMTD:thread_safe_statics.obj
 0001:00034910       _Init_thread_wait          0000000180035910 f   LIBCMTD:thread_safe_statics.obj
 0001:000349c0       ??2@YAPEAX_KAEBUnothrow_t@std@@@Z 00000001800359c0 f   LIBCMTD:new_scalar_nothrow.obj
 0001:00034a00       ??_U@YAPEAX_KAEBUnothrow_t@std@@@Z 0000000180035a00 f   LIBCMTD:new_array_nothrow.obj
 0001:00034a30       __GSHandlerCheck_SEH       0000000180035a30 f   LIBCMTD:gshandlerseh.obj
 0001:00034b00       __chkstk                   0000000180035b00 f   LIBCMTD:chkstk.obj
 0001:00034b00       _alloca_probe              0000000180035b00 f   LIBCMTD:chkstk.obj
 0001:00034f70       _CRT_INIT                  0000000180035f70 f   LIBCMTD:dll_dllmain.obj
 0001:00034fa0       _DllMainCRTStartup         0000000180035fa0 f   LIBCMTD:dll_dllmain.obj
 0001:00035070       ?_RTC_AllocaFailure@@YAXPEAXPEAU_RTC_ALLOCA_NODE@@H@Z 0000000180036070 f   LIBCMTD:error.obj
 0001:000351d0       ?_RTC_Failure@@YAXPEAXH@Z  00000001800361d0 f   LIBCMTD:error.obj
 0001:00035220       ?_RTC_StackFailure@@YAXPEAXPEBD@Z 0000000180036220 f   LIBCMTD:error.obj
 0001:00035650       _RTC_UninitUse             0000000180036650 f   LIBCMTD:error.obj
 0001:00035720       _vsprintf_s_l              0000000180036720 f i LIBCMTD:error.obj
 0001:00035790       sprintf_s                  0000000180036790 f i LIBCMTD:error.obj
 0001:000357c0       ?_RTC_GetErrorFunc@@YAP6AHHPEBDH00ZZPEBX@Z 00000001800367c0 f   LIBCMTD:userapi.obj
 0001:000357d0       ?_RTC_GetErrorFuncW@@YAP6AHHPEB_WH00ZZPEBX@Z 00000001800367d0 f   LIBCMTD:userapi.obj
 0001:000357e0       _RTC_GetErrDesc            00000001800367e0 f   LIBCMTD:userapi.obj
 0001:00035800       _RTC_NumErrors             0000000180036800 f   LIBCMTD:userapi.obj
 0001:00035810       _RTC_SetErrorFunc          0000000180036810 f   LIBCMTD:userapi.obj
 0001:00035830       _RTC_SetErrorFuncW         0000000180036830 f   LIBCMTD:userapi.obj
 0001:00035850       _RTC_SetErrorType          0000000180036850 f   LIBCMTD:userapi.obj
 0001:00035870       ??2@YAPEAX_K@Z             0000000180036870 f   LIBCMTD:new_scalar.obj
 0001:000358c0       __isa_available_init       00000001800368c0 f   LIBCMTD:cpu_disp.obj
 0001:00035c60       _get_startup_argv_mode     0000000180036c60 f   LIBCMTD:argv_mode.obj
 0001:00035c70       __scrt_is_ucrt_dll_in_use  0000000180036c70 f   LIBCMTD:ucrt_detection.obj
 0001:00035ca0       __crt_debugger_hook        0000000180036ca0 f   LIBCMTD:utility_desktop.obj
 0001:00035cb0       __scrt_fastfail            0000000180036cb0 f   LIBCMTD:utility_desktop.obj
 0001:00035e50       __scrt_get_show_window_mode 0000000180036e50 f   LIBCMTD:utility_desktop.obj
 0001:00035eb0       __scrt_initialize_mta      0000000180036eb0 f   LIBCMTD:utility_desktop.obj
 0001:00035ec0       __scrt_initialize_winrt    0000000180036ec0 f   LIBCMTD:utility_desktop.obj
 0001:00035ed0       __scrt_is_managed_app      0000000180036ed0 f   LIBCMTD:utility_desktop.obj
 0001:00035f80       __scrt_set_unhandled_exception_filter 0000000180036f80 f   LIBCMTD:utility_desktop.obj
 0001:00035fa0       __scrt_stub_for_initialize_mta 0000000180036fa0 f   LIBCMTD:utility_desktop.obj
 0001:00035fa0       __scrt_exe_initialize_mta  0000000180036fa0 f   LIBCMTD:utility_desktop.obj
 0001:00035fb0       __scrt_unhandled_exception_filter 0000000180036fb0 f   LIBCMTD:utility_desktop.obj
 0001:00036050       _guard_check_icall_nop     0000000180037050 f i LIBCMTD:guard_support.obj
 0001:00036060       ReadNoFence64              0000000180037060 f i LIBCMTD:guard_support.obj
 0001:00036080       ReadPointerNoFence         0000000180037080 f i LIBCMTD:guard_support.obj
 0001:000360a0       _guard_icall_checks_enforced 00000001800370a0 f i LIBCMTD:guard_support.obj
 0001:000360e0       _guard_rf_checks_enforced  00000001800370e0 f i LIBCMTD:guard_support.obj
 0001:000361b0       __security_init_cookie     00000001800371b0 f   LIBCMTD:gs_support.obj
 0001:00036230       ?__scrt_initialize_type_info@@YAXXZ 0000000180037230 f   LIBCMTD:tncleanup.obj
 0001:00036250       ?__scrt_uninitialize_type_info@@YAXXZ 0000000180037250 f   LIBCMTD:tncleanup.obj
 0001:00036270       __local_stdio_scanf_options 0000000180037270 f i LIBCMTD:default_local_stdio_options.obj
 0001:00036280       __scrt_initialize_default_local_stdio_options 0000000180037280 f   LIBCMTD:default_local_stdio_options.obj
 0001:000362d0       __scrt_get_dyn_tls_init_callback 00000001800372d0 f   LIBCMTD:dyn_tls_init.obj
 0001:000362e0       _RTC_Initialize            00000001800372e0 f   LIBCMTD:initsect.obj
 0001:00036330       _RTC_Terminate             0000000180037330 f   LIBCMTD:initsect.obj
 0001:00036890       ?_RTC_GetSrcLine@@YAHPEAEPEA_WKPEAH1K@Z 0000000180037890 f   LIBCMTD:pdblkup.obj
 0001:00036c60       ??0bad_alloc@std@@AEAA@QEBD@Z 0000000180037c60 f i LIBCMTD:throw_bad_alloc.obj
 0001:00036ca0       ??0bad_alloc@std@@QEAA@AEBV01@@Z 0000000180037ca0 f i LIBCMTD:throw_bad_alloc.obj
 0001:00036ce0       ??0bad_alloc@std@@QEAA@XZ  0000000180037ce0 f i LIBCMTD:throw_bad_alloc.obj
 0001:00036d20       ??0bad_array_new_length@std@@QEAA@AEBV01@@Z 0000000180037d20 f i LIBCMTD:throw_bad_alloc.obj
 0001:00036d60       ??0bad_array_new_length@std@@QEAA@XZ 0000000180037d60 f i LIBCMTD:throw_bad_alloc.obj
 0001:00036da0       ??0exception@std@@QEAA@AEBV01@@Z 0000000180037da0 f i LIBCMTD:throw_bad_alloc.obj
 0001:00036e00       ??0exception@std@@QEAA@QEBDH@Z 0000000180037e00 f i LIBCMTD:throw_bad_alloc.obj
 0001:00036e50       ??1bad_alloc@std@@UEAA@XZ  0000000180037e50 f i LIBCMTD:throw_bad_alloc.obj
 0001:00036e70       ??1bad_array_new_length@std@@UEAA@XZ 0000000180037e70 f i LIBCMTD:throw_bad_alloc.obj
 0001:00036e90       ??1exception@std@@UEAA@XZ  0000000180037e90 f i LIBCMTD:throw_bad_alloc.obj
 0001:00036ec0       ??_Gbad_alloc@std@@UEAAPEAXI@Z 0000000180037ec0 f i LIBCMTD:throw_bad_alloc.obj
 0001:00036ec0       ??_Ebad_alloc@std@@UEAAPEAXI@Z 0000000180037ec0 f i LIBCMTD:throw_bad_alloc.obj
 0001:00036f00       ??_Gbad_array_new_length@std@@UEAAPEAXI@Z 0000000180037f00 f i LIBCMTD:throw_bad_alloc.obj
 0001:00036f00       ??_Ebad_array_new_length@std@@UEAAPEAXI@Z 0000000180037f00 f i LIBCMTD:throw_bad_alloc.obj
 0001:00036f40       ??_Eexception@std@@UEAAPEAXI@Z 0000000180037f40 f i LIBCMTD:throw_bad_alloc.obj
 0001:00036f40       ??_Gexception@std@@UEAAPEAXI@Z 0000000180037f40 f i LIBCMTD:throw_bad_alloc.obj
 0001:00036f80       ?__scrt_throw_std_bad_alloc@@YAXXZ 0000000180037f80 f   LIBCMTD:throw_bad_alloc.obj
 0001:00036fb0       ?__scrt_throw_std_bad_array_new_length@@YAXXZ 0000000180037fb0 f   LIBCMTD:throw_bad_alloc.obj
 0001:00036fe0       ?what@exception@std@@UEBAPEBDXZ 0000000180037fe0 f i LIBCMTD:throw_bad_alloc.obj
 0001:00037020       ??1type_info@@UEAA@XZ      0000000180038020 f   LIBCMTD:std_type_info_static.obj
 0001:00037040       ??_Etype_info@@UEAAPEAXI@Z 0000000180038040 f i LIBCMTD:std_type_info_static.obj
 0001:00037040       ??_Gtype_info@@UEAAPEAXI@Z 0000000180038040 f i LIBCMTD:std_type_info_static.obj
 0001:0003707c       ??$?2PEAUHINSTANCE__@@@Wrapper@?$CSimpleArray@PEAUHINSTANCE__@@V?$CSimpleArrayEqualHelper@PEAUHINSTANCE__@@@ATL@@@ATL@@SAPEAX_KPEAPEAUHINSTANCE__@@@Z 000000018003807c f i atls:atlbase.obj
 0001:00037080       ??0?$CSimpleArray@PEAUHINSTANCE__@@V?$CSimpleArrayEqualHelper@PEAUHINSTANCE__@@@ATL@@@ATL@@QEAA@XZ 0000000180038080 f i atls:atlbase.obj
 0001:00037090       ??0CAtlBaseModule@ATL@@QEAA@XZ 0000000180038090 f   atls:atlbase.obj
 0001:00037138       ??0Wrapper@?$CSimpleArray@PEAUHINSTANCE__@@V?$CSimpleArrayEqualHelper@PEAUHINSTANCE__@@@ATL@@@ATL@@QEAA@AEBQEAUHINSTANCE__@@@Z 0000000180038138 f i atls:atlbase.obj
 0001:00037144       ??0_ATL_BASE_MODULE70@ATL@@QEAA@XZ 0000000180038144 f i atls:atlbase.obj
 0001:00037170       ??1?$CSimpleArray@PEAUHINSTANCE__@@V?$CSimpleArrayEqualHelper@PEAUHINSTANCE__@@@ATL@@@ATL@@QEAA@XZ 0000000180038170 f i atls:atlbase.obj
 0001:00037198       ??1CAtlBaseModule@ATL@@QEAA@XZ 0000000180038198 f   atls:atlbase.obj
 0001:000371cc       ??1_ATL_BASE_MODULE70@ATL@@QEAA@XZ 00000001800381cc f i atls:atlbase.obj
 0001:000371f8       ??A?$CSimpleArray@PEAUHINSTANCE__@@V?$CSimpleArrayEqualHelper@PEAUHINSTANCE__@@@ATL@@@ATL@@QEAAAEAPEAUHINSTANCE__@@H@Z 00000001800381f8 f i atls:atlbase.obj
 0001:00037224       ?Add@?$CSimpleArray@PEAUHINSTANCE__@@V?$CSimpleArrayEqualHelper@PEAUHINSTANCE__@@@ATL@@@ATL@@QEAAHAEBQEAUHINSTANCE__@@@Z 0000000180038224 f i atls:atlbase.obj
 0001:000372d8       ?AddResourceInstance@CAtlBaseModule@ATL@@QEAA_NPEAUHINSTANCE__@@@Z 00000001800382d8 f   atls:atlbase.obj
 0001:00037320       ?GetHInstanceAt@CAtlBaseModule@ATL@@QEAAPEAUHINSTANCE__@@H@Z 0000000180038320 f   atls:atlbase.obj
 0001:00037398       ?GetSize@?$CSimpleArray@PEAUHINSTANCE__@@V?$CSimpleArrayEqualHelper@PEAUHINSTANCE__@@@ATL@@@ATL@@QEBAHXZ 0000000180038398 f i atls:atlbase.obj
 0001:0003739c       ?InternalSetAtIndex@?$CSimpleArray@PEAUHINSTANCE__@@V?$CSimpleArrayEqualHelper@PEAUHINSTANCE__@@@ATL@@@ATL@@QEAAXHAEBQEAUHINSTANCE__@@@Z 000000018003839c f i atls:atlbase.obj
 0001:000373b4       ?RemoveAll@?$CSimpleArray@PEAUHINSTANCE__@@V?$CSimpleArrayEqualHelper@PEAUHINSTANCE__@@@ATL@@@ATL@@QEAAXXZ 00000001800383b4 f i atls:atlbase.obj
 0001:000373dc       ?RemoveAt@?$CSimpleArray@PEAUHINSTANCE__@@V?$CSimpleArrayEqualHelper@PEAUHINSTANCE__@@@ATL@@@ATL@@QEAAHH@Z 00000001800383dc f i atls:atlbase.obj
 0001:00037480       ?RemoveResourceInstance@CAtlBaseModule@ATL@@QEAA_NPEAUHINSTANCE__@@@Z 0000000180038480 f   atls:atlbase.obj
 0001:00037500       ?memmove_s@Checked@ATL@@YAXPEAX_KPEBX1@Z 0000000180038500 f i atls:atlbase.obj
 0001:000379a8       ?GetCodeAddress@_stdcallthunk@ATL@@QEAAPEAXXZ 00000001800389a8 f i atls:atlthunk.obj
 0001:000379d4       ?Init@_stdcallthunk@ATL@@QEAAH_KPEAX@Z 00000001800389d4 f i atls:atlthunk.obj
 0001:00037a24       ?__AllocStdCallThunk@@YAPEAXXZ 0000000180038a24 f   atls:atlthunk.obj
 0001:00037a2c       ?__AllocStdCallThunk@ATL@@YAPEAXXZ 0000000180038a2c f   atls:atlthunk.obj
 0001:00037a34       ?__AllocStdCallThunk_cmn@@YAPEAXXZ 0000000180038a34 f   atls:atlthunk.obj
 0001:00037b0c       ?__FreeStdCallThunk@@YAXPEAX@Z 0000000180038b0c f   atls:atlthunk.obj
 0001:00037b2c       ?__FreeStdCallThunk@ATL@@YAXPEAX@Z 0000000180038b2c f   atls:atlthunk.obj
 0001:00037b4c       ?__FreeStdCallThunk_cmn@@YAXPEAX@Z 0000000180038b4c f   atls:atlthunk.obj
 0001:00037bec       AtlThunk_AllocateData      0000000180038bec f   atls:atlthunk.obj
 0001:00037c68       AtlThunk_DataToCode        0000000180038c68 f   atls:atlthunk.obj
 0001:00037cbc       AtlThunk_FreeData          0000000180038cbc f   atls:atlthunk.obj
 0001:00037d1c       AtlThunk_InitData          0000000180038d1c f   atls:atlthunk.obj
 0001:00037de0       memset_repmovs             0000000180038de0 f   libvcruntimed:memset.obj
 0001:00037e00       memset                     0000000180038e00 f   libvcruntimed:memset.obj
 0001:00037f90       ??$__crt_interlocked_exchange_pointer@$$A6AXXZP6AXXZ@@YAP6AXXZPEDS6AXXZQ6AXXZ@Z 0000000180038f90 f i libvcruntimed:purevirt.obj
 0001:00037fb0       ??$__crt_interlocked_read_pointer@$$A6AXXZ@@YAP6AXXZPEDS6AXXZ@Z 0000000180038fb0 f i libvcruntimed:purevirt.obj
 0001:00037fd0       ?__crt_interlocked_read_64@@YA_JPED_J@Z 0000000180038fd0 f i libvcruntimed:purevirt.obj
 0001:00037ff0       _get_purecall_handler      0000000180038ff0 f   libvcruntimed:purevirt.obj
 0001:00038010       _purecall                  0000000180039010 f   libvcruntimed:purevirt.obj
 0001:00038050       _set_purecall_handler      0000000180039050 f   libvcruntimed:purevirt.obj
 0001:00038080       memcmp                     0000000180039080 f   libvcruntimed:memcmp.obj
 0001:00038160       memcpy_repmovs             0000000180039160 f   libvcruntimed:memcpy.obj
 0001:00038180       memmove                    0000000180039180 f   libvcruntimed:memcpy.obj
 0001:00038180       memcpy                     0000000180039180 f   libvcruntimed:memcpy.obj
 0001:00038560       wcsstr                     0000000180039560 f   libvcruntimed:wcsstr.obj
 0001:00038bc0       __vcrt_initialize          0000000180039bc0 f   libvcruntimed:initialization.obj
 0001:00038c00       __vcrt_thread_attach       0000000180039c00 f   libvcruntimed:initialization.obj
 0001:00038c20       __vcrt_thread_detach       0000000180039c20 f   libvcruntimed:initialization.obj
 0001:00038c40       __vcrt_uninitialize        0000000180039c40 f   libvcruntimed:initialization.obj
 0001:00038c60       __vcrt_uninitialize_critical 0000000180039c60 f   libvcruntimed:initialization.obj
 0001:00038c80       __C_specific_handler       0000000180039c80 f   libvcruntimed:riscchandler.obj
 0001:000390f0       ??$?0AEAViterator@TryBlockMap4@FH4@@AEAV012@$0A@@?$pair@Viterator@TryBlockMap4@FH4@@V123@@std@@QEAA@AEAViterator@TryBlockMap4@FH4@@0@Z 000000018003a0f0 f i libvcruntimed:risctrnsctrl.obj
 0001:00039150       ??$?0AEAViterator@TryBlockMap@__FrameHandler3@@AEAV012@$0A@@?$pair@Viterator@TryBlockMap@__FrameHandler3@@V123@@std@@QEAA@AEAViterator@TryBlockMap@__FrameHandler3@@0@Z 000000018003a150 f i libvcruntimed:risctrnsctrl.obj
 0001:00039320       ??$_CallSETranslator@V__FrameHandler3@@@@YAHPEAUEHExceptionRecord@@PEA_KPEAU_CONTEXT@@PEAU_xDISPATCHER_CONTEXT@@PEBU_s_FuncInfo@@K1H@Z 000000018003a320 f i libvcruntimed:risctrnsctrl.obj
 0001:000393b0       ??$_CallSETranslator@V__FrameHandler4@@@@YAHPEAUEHExceptionRecord@@PEA_KPEAU_CONTEXT@@PEAU_xDISPATCHER_CONTEXT@@PEAUFuncInfo4@FH4@@K1H@Z 000000018003a3b0 f i libvcruntimed:risctrnsctrl.obj
 0001:00039440       ??$forward@AEAViterator@TryBlockMap4@FH4@@@std@@YAAEAViterator@TryBlockMap4@FH4@@AEAV123@@Z 000000018003a440 f i libvcruntimed:risctrnsctrl.obj
 0001:00039450       ??$forward@AEAViterator@TryBlockMap@__FrameHandler3@@@std@@YAAEAViterator@TryBlockMap@__FrameHandler3@@AEAV123@@Z 000000018003a450 f i libvcruntimed:risctrnsctrl.obj
 0001:00039460       ??0FuncInfo4@FH4@@QEAA@XZ  000000018003a460 f i libvcruntimed:risctrnsctrl.obj
 0001:000394d0       ??0FuncInfoHeader@FH4@@QEAA@XZ 000000018003a4d0 f i libvcruntimed:risctrnsctrl.obj
 0001:000394f0       ??0iterator@TryBlockMap4@FH4@@QEAA@AEAV12@I@Z 000000018003a4f0 f i libvcruntimed:risctrnsctrl.obj
 0001:00039520       ??0iterator@TryBlockMap@__FrameHandler3@@QEAA@AEAV12@I@Z 000000018003a520 f i libvcruntimed:risctrnsctrl.obj
 0001:00039550       ??4iterator@TryBlockMap4@FH4@@QEAAAEAV012@AEBV012@@Z 000000018003a550 f i libvcruntimed:risctrnsctrl.obj
 0001:00039570       ??9iterator@TryBlockMap4@FH4@@QEBA_NAEBV012@@Z 000000018003a570 f i libvcruntimed:risctrnsctrl.obj
 0001:000395b0       ??Diterator@TryBlockMap4@FH4@@QEAA?AUTryBlockMapEntry4@2@XZ 000000018003a5b0 f i libvcruntimed:risctrnsctrl.obj
 0001:000395e0       ??Eiterator@TryBlockMap4@FH4@@QEAAAEAV012@XZ 000000018003a5e0 f i libvcruntimed:risctrnsctrl.obj
 0001:00039620       ?CatchTryBlock@__FrameHandler3@@SAPEBU_s_TryBlockMapEntry@@PEBU_s_FuncInfo@@H@Z 000000018003a620 f   libvcruntimed:risctrnsctrl.obj
 0001:000396b0       ?DecompFuncInfo@FH4@@YA_JPEAEAEAUFuncInfo4@1@_KH@Z 000000018003a6b0 f i libvcruntimed:risctrnsctrl.obj
 0001:000396f0       ?DecompFuncInfo@FH4@@YA_JPEAEAEAUFuncInfo4@1@_KH_N@Z 000000018003a6f0 f i libvcruntimed:risctrnsctrl.obj
 0001:000398c0       ?DecompTryBlock@TryBlockMap4@FH4@@AEAAXXZ 000000018003a8c0 f i libvcruntimed:risctrnsctrl.obj
 0001:00039940       ?ExecutionInCatch@__FrameHandler3@@SA_NPEAU_xDISPATCHER_CONTEXT@@PEBU_s_FuncInfo@@@Z 000000018003a940 f   libvcruntimed:risctrnsctrl.obj
 0001:00039990       ?ExecutionInCatch@__FrameHandler4@@SA_NPEAU_xDISPATCHER_CONTEXT@@PEAUFuncInfo4@FH4@@@Z 000000018003a990 f   libvcruntimed:risctrnsctrl.obj
 0001:000399b0       ?FrameUnwindToEmptyState@__FrameHandler3@@SAXPEA_KPEAU_xDISPATCHER_CONTEXT@@PEBU_s_FuncInfo@@@Z 000000018003a9b0 f   libvcruntimed:risctrnsctrl.obj
 0001:00039a50       ?FrameUnwindToEmptyState@__FrameHandler4@@SAXPEA_KPEAU_xDISPATCHER_CONTEXT@@PEAUFuncInfo4@FH4@@@Z 000000018003aa50 f   libvcruntimed:risctrnsctrl.obj
 0001:00039aa0       ?GetEstablisherFrame@__FrameHandler3@@SAPEA_KPEA_KPEAU_xDISPATCHER_CONTEXT@@PEBU_s_FuncInfo@@0@Z 000000018003aaa0 f   libvcruntimed:risctrnsctrl.obj
 0001:00039c10       ?GetEstablisherFrame@__FrameHandler4@@SAPEA_KPEA_KPEAU_xDISPATCHER_CONTEXT@@PEAUFuncInfo4@FH4@@0@Z 000000018003ac10 f   libvcruntimed:risctrnsctrl.obj
 0001:00039c80       ?GetRangeOfTrysToCheck@__FrameHandler3@@SA?AU?$pair@Viterator@TryBlockMap@__FrameHandler3@@V123@@std@@AEAVTryBlockMap@1@HPEAU_xDISPATCHER_CONTEXT@@PEBU_s_FuncInfo@@H@Z 000000018003ac80 f   libvcruntimed:risctrnsctrl.obj
 0001:00039ec0       ?GetRangeOfTrysToCheck@__FrameHandler4@@SA?AU?$pair@Viterator@TryBlockMap4@FH4@@V123@@std@@AEAVTryBlockMap4@FH4@@HPEAU_xDISPATCHER_CONTEXT@@PEAUFuncInfo4@5@H@Z 000000018003aec0 f   libvcruntimed:risctrnsctrl.obj
 0001:0003a070       ?ReadInt@FH4@@YAHPEAPEAE@Z 000000018003b070 f i libvcruntimed:risctrnsctrl.obj
 0001:0003a0b0       ?ReadUnsigned@FH4@@YAIPEAPEAE@Z 000000018003b0b0 f i libvcruntimed:risctrnsctrl.obj
 0001:0003a140       ?UnwindNestedFrames@__FrameHandler3@@SAXPEA_KPEAUEHExceptionRecord@@PEAU_CONTEXT@@0PEAXPEBU_s_FuncInfo@@HHPEBU_s_HandlerType@@PEAU_xDISPATCHER_CONTEXT@@E@Z 000000018003b140 f   libvcruntimed:risctrnsctrl.obj
 0001:0003a2b0       ?UnwindNestedFrames@__FrameHandler4@@SAXPEA_KPEAUEHExceptionRecord@@PEAU_CONTEXT@@0PEAXPEAUFuncInfo4@FH4@@HHPEAUHandlerType4@5@PEAU_xDISPATCHER_CONTEXT@@E@Z 000000018003b2b0 f   libvcruntimed:risctrnsctrl.obj
 0001:0003a480       ?begin@TryBlockMap4@FH4@@QEAA?AViterator@12@XZ 000000018003b480 f i libvcruntimed:risctrnsctrl.obj
 0001:0003a4b0       ?end@TryBlockMap4@FH4@@QEAA?AViterator@12@XZ 000000018003b4b0 f i libvcruntimed:risctrnsctrl.obj
 0001:0003a4e0       ?imageRelToByteBuffer@FH4@@YAPEAE_KH@Z 000000018003b4e0 f i libvcruntimed:risctrnsctrl.obj
 0001:0003a500       ?incrementToSentinel@iterator@TryBlockMap4@FH4@@QEAAXXZ 000000018003b500 f i libvcruntimed:risctrnsctrl.obj
 0001:0003a520       ?setBuffer@TryBlockMap4@FH4@@QEAAXViterator@12@@Z 000000018003b520 f i libvcruntimed:risctrnsctrl.obj
 0001:0003a590       _CreateFrameInfo           000000018003b590 f   libvcruntimed:risctrnsctrl.obj
 0001:0003a600       _FindAndUnlinkFrame        000000018003b600 f   libvcruntimed:risctrnsctrl.obj
 0001:0003a680       _GetImageBase              000000018003b680 f   libvcruntimed:risctrnsctrl.obj
 0001:0003a6a0       _GetThrowImageBase         000000018003b6a0 f   libvcruntimed:risctrnsctrl.obj
 0001:0003a6c0       _SetImageBase              000000018003b6c0 f   libvcruntimed:risctrnsctrl.obj
 0001:0003a6e0       _SetThrowImageBase         000000018003b6e0 f   libvcruntimed:risctrnsctrl.obj
 0001:0003a700       __CxxFrameHandler          000000018003b700 f   libvcruntimed:risctrnsctrl.obj
 0001:0003a740       __CxxFrameHandler2         000000018003b740 f   libvcruntimed:risctrnsctrl.obj
 0001:0003a780       __CxxFrameHandler3         000000018003b780 f   libvcruntimed:risctrnsctrl.obj
 0001:0003a860       __CxxFrameHandler4         000000018003b860 f   libvcruntimed:risctrnsctrl.obj
 0001:0003a970       __C_specific_handler_noexcept 000000018003b970 f   libvcruntimed:chandler_noexcept.obj
 0001:0003aa00       __DestructExceptionObject  000000018003ba00 f   libvcruntimed:ehhelpers.obj
 0001:0003ab00       ?_CallMemberFunction0@@YAXQEAX0@Z 000000018003bb00 f i libvcruntimed:ehhelpers.obj
 0001:0003abd0       ?raw_name@type_info@@QEBAPEBDXZ 000000018003bbd0 f i libvcruntimed:ehhelpers.obj
 0001:0003abe0       _IsExceptionObjectToBeDestroyed 000000018003bbe0 f   libvcruntimed:ehhelpers.obj
 0001:0003ac30       _SetWinRTOutOfMemoryExceptionCallback 000000018003bc30 f   libvcruntimed:ehhelpers.obj
 0001:0003ac50       __AdjustPointer            000000018003bc50 f   libvcruntimed:ehhelpers.obj
 0001:0003acd0       __FrameUnwindFilter        000000018003bcd0 f   libvcruntimed:ehhelpers.obj
 0001:0003ad80       __GetPlatformExceptionInfo 000000018003bd80 f   libvcruntimed:ehhelpers.obj
 0001:0003ae30       __current_exception        000000018003be30 f   libvcruntimed:ehhelpers.obj
 0001:0003ae50       __current_exception_context 000000018003be50 f   libvcruntimed:ehhelpers.obj
 0001:0003ae70       __processing_throw         000000018003be70 f   libvcruntimed:ehhelpers.obj
 0001:0003ae90       __std_terminate            000000018003be90 f   libvcruntimed:ehhelpers.obj
 0001:0003aea0       _is_exception_typeof       000000018003bea0 f   libvcruntimed:ehhelpers.obj
 0001:0003b030       ??$?RD@__crt_internal_free_policy@@QEBAXQEBD@Z 000000018003c030 f i libvcruntimed:std_type_info.obj
 0001:0003b060       ??$?RX@__crt_internal_free_policy@@QEBAXQEBX@Z 000000018003c060 f i libvcruntimed:std_type_info.obj
 0001:0003b090       ??$__crt_interlocked_compare_exchange_pointer@$$CBDPEAD$$T@@YAPEBDPEDSEBDQEAD$$T@Z 000000018003c090 f i libvcruntimed:std_type_info.obj
 0001:0003b0d0       ??$__crt_interlocked_read_pointer@$$CBD@@YAPEBDPEDSEBD@Z 000000018003c0d0 f i libvcruntimed:std_type_info.obj
 0001:0003b0f0       ??0?$__crt_unique_heap_ptr@DU__crt_internal_free_policy@@@@QEAA@QEAD@Z 000000018003c0f0 f i libvcruntimed:std_type_info.obj
 0001:0003b110       ??0?$__crt_unique_heap_ptr@XU__crt_internal_free_policy@@@@QEAA@QEAX@Z 000000018003c110 f i libvcruntimed:std_type_info.obj
 0001:0003b130       ??1?$__crt_unique_heap_ptr@DU__crt_internal_free_policy@@@@QEAA@XZ 000000018003c130 f i libvcruntimed:std_type_info.obj
 0001:0003b150       ??1?$__crt_unique_heap_ptr@XU__crt_internal_free_policy@@@@QEAA@XZ 000000018003c150 f i libvcruntimed:std_type_info.obj
 0001:0003b170       ??B?$__crt_unique_heap_ptr@DU__crt_internal_free_policy@@@@QEBA_NXZ 000000018003c170 f i libvcruntimed:std_type_info.obj
 0001:0003b190       ??B?$__crt_unique_heap_ptr@XU__crt_internal_free_policy@@@@QEBA_NXZ 000000018003c190 f i libvcruntimed:std_type_info.obj
 0001:0003b230       ?detach@?$__crt_unique_heap_ptr@XU__crt_internal_free_policy@@@@QEAAPEAXXZ 000000018003c230 f i libvcruntimed:std_type_info.obj
 0001:0003b260       ?get@?$__crt_unique_heap_ptr@DU__crt_internal_free_policy@@@@QEBAPEADXZ 000000018003c260 f i libvcruntimed:std_type_info.obj
 0001:0003b270       ?get@?$__crt_unique_heap_ptr@XU__crt_internal_free_policy@@@@QEBAPEAXXZ 000000018003c270 f i libvcruntimed:std_type_info.obj
 0001:0003b280       ?is_valid@?$__crt_unique_heap_ptr@DU__crt_internal_free_policy@@@@QEBA_NXZ 000000018003c280 f i libvcruntimed:std_type_info.obj
 0001:0003b2b0       ?is_valid@?$__crt_unique_heap_ptr@XU__crt_internal_free_policy@@@@QEBA_NXZ 000000018003c2b0 f i libvcruntimed:std_type_info.obj
 0001:0003b2e0       ?release@?$__crt_unique_heap_ptr@DU__crt_internal_free_policy@@@@QEAAXXZ 000000018003c2e0 f i libvcruntimed:std_type_info.obj
 0001:0003b310       ?release@?$__crt_unique_heap_ptr@XU__crt_internal_free_policy@@@@QEAAXXZ 000000018003c310 f i libvcruntimed:std_type_info.obj
 0001:0003b340       __std_type_info_compare    000000018003c340 f   libvcruntimed:std_type_info.obj
 0001:0003b380       __std_type_info_destroy_list 000000018003c380 f   libvcruntimed:std_type_info.obj
 0001:0003b3e0       __std_type_info_hash       000000018003c3e0 f   libvcruntimed:std_type_info.obj
 0001:0003b490       __std_type_info_name       000000018003c490 f   libvcruntimed:std_type_info.obj
 0001:0003b740       __vcrt_GetModuleFileNameW  000000018003c740 f   libvcruntimed:winapi_thunks.obj
 0001:0003b770       __vcrt_GetModuleHandleW    000000018003c770 f   libvcruntimed:winapi_thunks.obj
 0001:0003b790       __vcrt_LoadLibraryExW      000000018003c790 f   libvcruntimed:winapi_thunks.obj
 0001:0003b7c0       ??$?RD@__crt_public_free_policy@@QEBAXQEBD@Z 000000018003c7c0 f i libvcruntimed:std_exception.obj
 0001:0003b7e0       ??0?$__crt_unique_heap_ptr@DU__crt_public_free_policy@@@@QEAA@QEAD@Z 000000018003c7e0 f i libvcruntimed:std_exception.obj
 0001:0003b800       ??1?$__crt_unique_heap_ptr@DU__crt_public_free_policy@@@@QEAA@XZ 000000018003c800 f i libvcruntimed:std_exception.obj
 0001:0003b820       ??B?$__crt_unique_heap_ptr@DU__crt_public_free_policy@@@@QEBA_NXZ 000000018003c820 f i libvcruntimed:std_exception.obj
 0001:0003b840       ?detach@?$__crt_unique_heap_ptr@DU__crt_public_free_policy@@@@QEAAPEADXZ 000000018003c840 f i libvcruntimed:std_exception.obj
 0001:0003b870       ?get@?$__crt_unique_heap_ptr@DU__crt_public_free_policy@@@@QEBAPEADXZ 000000018003c870 f i libvcruntimed:std_exception.obj
 0001:0003b880       ?is_valid@?$__crt_unique_heap_ptr@DU__crt_public_free_policy@@@@QEBA_NXZ 000000018003c880 f i libvcruntimed:std_exception.obj
 0001:0003b8b0       ?release@?$__crt_unique_heap_ptr@DU__crt_public_free_policy@@@@QEAAXXZ 000000018003c8b0 f i libvcruntimed:std_exception.obj
 0001:0003b8e0       __std_exception_copy       000000018003c8e0 f   libvcruntimed:std_exception.obj
 0001:0003ba20       __std_exception_destroy    000000018003ca20 f   libvcruntimed:std_exception.obj
 0001:0003ba60       _CxxThrowException         000000018003ca60 f   libvcruntimed:throw.obj
 0001:0003bb90       ??$?RU__vcrt_ptd@@@__crt_internal_free_policy@@QEBAXQEBU__vcrt_ptd@@@Z 000000018003cb90 f i libvcruntimed:per_thread_data.obj
 0001:0003bbc0       ??0?$__crt_unique_heap_ptr@U__vcrt_ptd@@U__crt_internal_free_policy@@@@QEAA@QEAU__vcrt_ptd@@@Z 000000018003cbc0 f i libvcruntimed:per_thread_data.obj
 0001:0003bc00       ??1?$__crt_unique_heap_ptr@U__vcrt_ptd@@U__crt_internal_free_policy@@@@QEAA@XZ 000000018003cc00 f i libvcruntimed:per_thread_data.obj
 0001:0003bc40       ??B?$__crt_unique_heap_ptr@U__vcrt_ptd@@U__crt_internal_free_policy@@@@QEBA_NXZ 000000018003cc40 f i libvcruntimed:per_thread_data.obj
 0001:0003bc60       ?detach@?$__crt_unique_heap_ptr@U__vcrt_ptd@@U__crt_internal_free_policy@@@@QEAAPEAU__vcrt_ptd@@XZ 000000018003cc60 f i libvcruntimed:per_thread_data.obj
 0001:0003bc90       ?get@?$__crt_unique_heap_ptr@U__vcrt_ptd@@U__crt_internal_free_policy@@@@QEBAPEAU__vcrt_ptd@@XZ 000000018003cc90 f i libvcruntimed:per_thread_data.obj
 0001:0003bca0       ?is_valid@?$__crt_unique_heap_ptr@U__vcrt_ptd@@U__crt_internal_free_policy@@@@QEBA_NXZ 000000018003cca0 f i libvcruntimed:per_thread_data.obj
 0001:0003bcd0       ?release@?$__crt_unique_heap_ptr@U__vcrt_ptd@@U__crt_internal_free_policy@@@@QEAAXXZ 000000018003ccd0 f i libvcruntimed:per_thread_data.obj
 0001:0003bd40       __vcrt_freefls             000000018003cd40 f   libvcruntimed:per_thread_data.obj
 0001:0003bd80       __vcrt_freeptd             000000018003cd80 f   libvcruntimed:per_thread_data.obj
 0001:0003bde0       __vcrt_getptd              000000018003cde0 f   libvcruntimed:per_thread_data.obj
 0001:0003be10       __vcrt_getptd_noexit       000000018003ce10 f   libvcruntimed:per_thread_data.obj
 0001:0003bfb0       __vcrt_getptd_noinit       000000018003cfb0 f   libvcruntimed:per_thread_data.obj
 0001:0003c010       __vcrt_initialize_ptd      000000018003d010 f   libvcruntimed:per_thread_data.obj
 0001:0003c060       __vcrt_uninitialize_ptd    000000018003d060 f   libvcruntimed:per_thread_data.obj
 0001:0003c090       __vcrt_initialize_locks    000000018003d090 f   libvcruntimed:locks.obj
 0001:0003c100       __vcrt_lock                000000018003d100 f   libvcruntimed:locks.obj
 0001:0003c130       __vcrt_uninitialize_locks  000000018003d130 f   libvcruntimed:locks.obj
 0001:0003c190       __vcrt_unlock              000000018003d190 f   libvcruntimed:locks.obj
 0001:0003c1d0       _NLG_Notify                000000018003d1d0 f   libvcruntimed:notify.obj
 0001:0003c1f0       __NLG_Dispatch2            000000018003d1f0 f   libvcruntimed:notify.obj
 0001:0003c200       __NLG_Return2              000000018003d200 f   libvcruntimed:notify.obj
 0001:0003c220       __except_validate_context_record 000000018003d220 f   libvcruntimed:jbcxrval.obj
 0001:0003c280       __except_validate_jump_buffer 000000018003d280 f   libvcruntimed:jbcxrval.obj
 0001:0003c2a0       __except_validate_jump_buffer_common 000000018003d2a0 f i libvcruntimed:jbcxrval.obj
 0001:0003c320       ?GetCurrentState@__FrameHandler3@@SAHPEA_KPEAU_xDISPATCHER_CONTEXT@@PEBU_s_FuncInfo@@@Z 000000018003d320 f   libvcruntimed:ehstate.obj
 0001:0003c380       ?GetUnwindTryBlock@__FrameHandler3@@SAHPEA_KPEAU_xDISPATCHER_CONTEXT@@PEBU_s_FuncInfo@@@Z 000000018003d380 f   libvcruntimed:ehstate.obj
 0001:0003c3d0       ?SetState@__FrameHandler3@@SAXPEA_KPEBU_s_FuncInfo@@H@Z 000000018003d3d0 f   libvcruntimed:ehstate.obj
 0001:0003c400       ?SetUnwindTryBlock@__FrameHandler3@@SAXPEA_KPEAU_xDISPATCHER_CONTEXT@@PEBU_s_FuncInfo@@H@Z 000000018003d400 f   libvcruntimed:ehstate.obj
 0001:0003c470       ?StateFromControlPc@__FrameHandler3@@SAHPEBU_s_FuncInfo@@PEAU_xDISPATCHER_CONTEXT@@@Z 000000018003d470 f   libvcruntimed:ehstate.obj
 0001:0003c4b0       ?StateFromControlPc@__FrameHandler4@@SAHPEAUFuncInfo4@FH4@@PEAU_xDISPATCHER_CONTEXT@@@Z 000000018003d4b0 f   libvcruntimed:ehstate.obj
 0001:0003c4f0       ?StateFromIp@__FrameHandler3@@SAHPEBU_s_FuncInfo@@PEAU_xDISPATCHER_CONTEXT@@_K@Z 000000018003d4f0 f   libvcruntimed:ehstate.obj
 0001:0003c5e0       ?StateFromIp@__FrameHandler4@@SAHPEAUFuncInfo4@FH4@@PEAU_xDISPATCHER_CONTEXT@@_K@Z 000000018003d5e0 f   libvcruntimed:ehstate.obj
 0001:0003c6d0       ?__FuncRelToRealOffset@@YA_KPEAU_xDISPATCHER_CONTEXT@@I@Z 000000018003d6d0 f i libvcruntimed:ehstate.obj
 0001:0003c700       ?__RVAtoRealOffset@@YA_KPEAU_xDISPATCHER_CONTEXT@@H@Z 000000018003d700 f i libvcruntimed:ehstate.obj
 0001:0003e980       ??$TypeMatchHelper@V__FrameHandler3@@@@YAHPEBU_s_HandlerType@@PEBU_s_CatchableType@@PEBU_s_ThrowInfo@@@Z 000000018003f980 f i libvcruntimed:frame.obj
 0001:0003eb80       ??$TypeMatchHelper@V__FrameHandler4@@@@YAHPEAUHandlerType4@FH4@@PEBU_s_CatchableType@@PEBU_s_ThrowInfo@@@Z 000000018003fb80 f i libvcruntimed:frame.obj
 0001:0003ed90       ??$__InternalCxxFrameHandler@V__FrameHandler3@@@@YA?AW4_EXCEPTION_DISPOSITION@@PEAUEHExceptionRecord@@PEA_KPEAU_CONTEXT@@PEAU_xDISPATCHER_CONTEXT@@PEBU_s_FuncInfo@@H1E@Z 000000018003fd90 f i libvcruntimed:frame.obj
 0001:0003f200       ??$__InternalCxxFrameHandler@V__FrameHandler4@@@@YA?AW4_EXCEPTION_DISPOSITION@@PEAUEHExceptionRecord@@PEA_KPEAU_CONTEXT@@PEAU_xDISPATCHER_CONTEXT@@PEAUFuncInfo4@FH4@@H1E@Z 0000000180040200 f i libvcruntimed:frame.obj
 0001:0003f690       ??0HandlerMap4@FH4@@QEAA@PEBUTryBlockMapEntry4@1@_KH@Z 0000000180040690 f i libvcruntimed:frame.obj
 0001:0003f750       ??0HandlerMap@__FrameHandler3@@QEAA@PEBU_s_TryBlockMapEntry@@_KI@Z 0000000180040750 f i libvcruntimed:frame.obj
 0001:0003f7a0       ??0HandlerType4@FH4@@QEAA@XZ 00000001800407a0 f i libvcruntimed:frame.obj
 0001:0003f7c0       ??0TryBlockMap4@FH4@@QEAA@PEBUFuncInfo4@1@_K@Z 00000001800407c0 f i libvcruntimed:frame.obj
 0001:0003f850       ??0TryBlockMap@__FrameHandler3@@QEAA@PEBU_s_FuncInfo@@_K@Z 0000000180040850 f i libvcruntimed:frame.obj
 0001:0003f880       ??0UWMap4@FH4@@QEAA@PEBUFuncInfo4@1@_K@Z 0000000180040880 f i libvcruntimed:frame.obj
 0001:0003f8f0       ??0bad_exception@std@@QEAA@AEBV01@@Z 00000001800408f0 f i libvcruntimed:frame.obj
 0001:0003f930       ??0bad_exception@std@@QEAA@XZ 0000000180040930 f i libvcruntimed:frame.obj
 0001:0003f970       ??0iterator@HandlerMap4@FH4@@QEAA@AEAV12@I@Z 0000000180040970 f i libvcruntimed:frame.obj
 0001:0003f9a0       ??0iterator@HandlerMap@__FrameHandler3@@QEAA@AEAV12@I@Z 00000001800409a0 f i libvcruntimed:frame.obj
 0001:0003f9d0       ??0iterator@UWMap4@FH4@@QEAA@AEAV12@PEAE@Z 00000001800409d0 f i libvcruntimed:frame.obj
 0001:0003fa00       ??1bad_exception@std@@UEAA@XZ 0000000180040a00 f i libvcruntimed:frame.obj
 0001:0003fa20       ??4iterator@UWMap4@FH4@@QEAAAEAV012@AEBV012@@Z 0000000180040a20 f i libvcruntimed:frame.obj
 0001:0003fa70       ??8iterator@HandlerMap4@FH4@@QEBA_NAEBV012@@Z 0000000180040a70 f i libvcruntimed:frame.obj
 0001:0003fab0       ??8iterator@HandlerMap@__FrameHandler3@@QEBA_NAEBV012@@Z 0000000180040ab0 f i libvcruntimed:frame.obj
 0001:0003faf0       ??8type_info@@QEBA_NAEBV0@@Z 0000000180040af0 f i libvcruntimed:frame.obj
 0001:0003fb40       ??9iterator@HandlerMap4@FH4@@QEBA_NAEBV012@@Z 0000000180040b40 f i libvcruntimed:frame.obj
 0001:0003fb80       ??9iterator@HandlerMap@__FrameHandler3@@QEBA_NAEBV012@@Z 0000000180040b80 f i libvcruntimed:frame.obj
 0001:0003fbc0       ??Diterator@HandlerMap4@FH4@@QEAA?AUHandlerType4@2@XZ 0000000180040bc0 f i libvcruntimed:frame.obj
 0001:0003fbf0       ??Diterator@HandlerMap@__FrameHandler3@@QEAA?BU_s_HandlerType@@XZ 0000000180040bf0 f i libvcruntimed:frame.obj
 0001:0003fc30       ??Diterator@TryBlockMap@__FrameHandler3@@QEAA?BU_s_TryBlockMapEntry@@XZ 0000000180040c30 f i libvcruntimed:frame.obj
 0001:0003fc80       ??Diterator@UWMap4@FH4@@QEAA?AUUnwindMapEntry4@2@XZ 0000000180040c80 f i libvcruntimed:frame.obj
 0001:0003fd00       ??Eiterator@HandlerMap4@FH4@@QEAAAEAV012@XZ 0000000180040d00 f i libvcruntimed:frame.obj
 0001:0003fd40       ??Eiterator@HandlerMap@__FrameHandler3@@QEAAAEAV012@XZ 0000000180040d40 f i libvcruntimed:frame.obj
 0001:0003fd60       ??Eiterator@TryBlockMap@__FrameHandler3@@QEAAAEAV012@XZ 0000000180040d60 f i libvcruntimed:frame.obj
 0001:0003fd80       ??Eiterator@UWMap4@FH4@@QEAAAEAV012@XZ 0000000180040d80 f i libvcruntimed:frame.obj
 0001:0003fdc0       ??Giterator@UWMap4@FH4@@QEBA_JAEBV012@@Z 0000000180040dc0 f i libvcruntimed:frame.obj
 0001:0003fde0       ??Miterator@TryBlockMap4@FH4@@QEBA_NAEBV012@@Z 0000000180040de0 f i libvcruntimed:frame.obj
 0001:0003fe20       ??Miterator@TryBlockMap@__FrameHandler3@@QEBA_NAEBV012@@Z 0000000180040e20 f i libvcruntimed:frame.obj
 0001:0003fe60       ??Oiterator@UWMap4@FH4@@QEBA_NAEBV012@@Z 0000000180040e60 f i libvcruntimed:frame.obj
 0001:0003fea0       ??Piterator@UWMap4@FH4@@QEBA_NAEBV012@@Z 0000000180040ea0 f i libvcruntimed:frame.obj
 0001:0003fee0       ??_Ebad_exception@std@@UEAAPEAXI@Z 0000000180040ee0 f i libvcruntimed:frame.obj
 0001:0003fee0       ??_Gbad_exception@std@@UEAAPEAXI@Z 0000000180040ee0 f i libvcruntimed:frame.obj
 0001:0003ff20       ?BuildCatchObject@__FrameHandler3@@SAXPEAUEHExceptionRecord@@PEAXPEBU_s_HandlerType@@PEBU_s_CatchableType@@@Z 0000000180040f20 f   libvcruntimed:frame.obj
 0001:0003ff60       ?BuildCatchObject@__FrameHandler4@@SAXPEAUEHExceptionRecord@@PEAXPEAUHandlerType4@FH4@@PEBU_s_CatchableType@@@Z 0000000180040f60 f   libvcruntimed:frame.obj
 0001:0003ffa0       ?BuildCatchObjectHelper@__FrameHandler3@@SAHPEAUEHExceptionRecord@@PEAXPEBU_s_HandlerType@@PEBU_s_CatchableType@@@Z 0000000180040fa0 f   libvcruntimed:frame.obj
 0001:0003ffe0       ?BuildCatchObjectHelper@__FrameHandler4@@SAHPEAUEHExceptionRecord@@PEAXPEAUHandlerType4@FH4@@PEBU_s_CatchableType@@@Z 0000000180040fe0 f   libvcruntimed:frame.obj
 0001:00040020       ?CxxCallCatchBlock@__FrameHandler3@@SAPEAXPEAU_EXCEPTION_RECORD@@@Z 0000000180041020 f   libvcruntimed:frame.obj
 0001:00040280       ?CxxCallCatchBlock@__FrameHandler4@@SAPEAXPEAU_EXCEPTION_RECORD@@@Z 0000000180041280 f   libvcruntimed:frame.obj
 0001:000405b0       ?DecompHandler@HandlerMap4@FH4@@AEAAXXZ 00000001800415b0 f i libvcruntimed:frame.obj
 0001:00040980       ?FrameUnwindToState@__FrameHandler3@@SAXPEA_KPEAU_xDISPATCHER_CONTEXT@@PEBU_s_FuncInfo@@H@Z 0000000180041980 f   libvcruntimed:frame.obj
 0001:00040bd0       ?FrameUnwindToState@__FrameHandler4@@SAXPEA_KPEAU_xDISPATCHER_CONTEXT@@PEAUFuncInfo4@FH4@@H@Z 0000000180041bd0 f   libvcruntimed:frame.obj
 0001:00040ee0       ?GetHandlerSearchState@__FrameHandler3@@SAHPEA_KPEAU_xDISPATCHER_CONTEXT@@PEBU_s_FuncInfo@@@Z 0000000180041ee0 f i libvcruntimed:frame.obj
 0001:00040f90       ?GetHandlerSearchState@__FrameHandler4@@SAHPEA_KPEAU_xDISPATCHER_CONTEXT@@PEAUFuncInfo4@FH4@@@Z 0000000180041f90 f i libvcruntimed:frame.obj
 0001:00041010       ?GetMaxState@__FrameHandler3@@SAHPEAU_xDISPATCHER_CONTEXT@@PEBU_s_FuncInfo@@@Z 0000000180042010 f i libvcruntimed:frame.obj
 0001:00041030       ?GetMaxState@__FrameHandler4@@SAHPEAU_xDISPATCHER_CONTEXT@@PEAUFuncInfo4@FH4@@@Z 0000000180042030 f i libvcruntimed:frame.obj
 0001:00041260       ?ReadEntry@UWMap4@FH4@@AEAAXPEAPEAE@Z 0000000180042260 f i libvcruntimed:frame.obj
 0001:00041310       ?TypeMatch@__FrameHandler3@@SAHPEBU_s_HandlerType@@PEBU_s_CatchableType@@PEBU_s_ThrowInfo@@@Z 0000000180042310 f   libvcruntimed:frame.obj
 0001:00041340       ?TypeMatch@__FrameHandler4@@SAHPEAUHandlerType4@FH4@@PEBU_s_CatchableType@@PEBU_s_ThrowInfo@@@Z 0000000180042340 f   libvcruntimed:frame.obj
 0001:00041370       ?WalkBack@UWMap4@FH4@@AEAAXPEAPEAE@Z 0000000180042370 f i libvcruntimed:frame.obj
 0001:000413c0       ?WalkBack@iterator@UWMap4@FH4@@QEAAXXZ 00000001800423c0 f i libvcruntimed:frame.obj
 0001:00041400       ?WalkForward@UWMap4@FH4@@AEAAXPEAPEAE@Z 0000000180042400 f i libvcruntimed:frame.obj
 0001:00041430       ?_CallMemberFunction1@@YAXQEAX00@Z 0000000180042430 f i libvcruntimed:frame.obj
 0001:00041470       ?_CallMemberFunction2@@YAXQEAX00H@Z 0000000180042470 f i libvcruntimed:frame.obj
 0001:00041500       ?begin@HandlerMap4@FH4@@QEAA?AViterator@12@XZ 0000000180042500 f i libvcruntimed:frame.obj
 0001:00041530       ?begin@HandlerMap@__FrameHandler3@@QEAA?AViterator@12@XZ 0000000180042530 f i libvcruntimed:frame.obj
 0001:00041560       ?begin@UWMap4@FH4@@QEAA?AViterator@12@XZ 0000000180042560 f i libvcruntimed:frame.obj
 0001:00041590       ?end@HandlerMap4@FH4@@QEAA?AViterator@12@XZ 0000000180042590 f i libvcruntimed:frame.obj
 0001:000415c0       ?end@HandlerMap@__FrameHandler3@@QEAA?AViterator@12@XZ 00000001800425c0 f i libvcruntimed:frame.obj
 0001:000415f0       ?getESTypes@__FrameHandler3@@SAPEBU_s_ESTypeList@@PEBU_s_FuncInfo@@@Z 00000001800425f0 f i libvcruntimed:frame.obj
 0001:00041630       ?getESTypes@__FrameHandler4@@SAPEBU_s_ESTypeList@@PEAUFuncInfo4@FH4@@@Z 0000000180042630 f i libvcruntimed:frame.obj
 0001:00041640       ?getLastEntry@HandlerMap4@FH4@@QEAAPEAUHandlerType4@2@XZ 0000000180042640 f i libvcruntimed:frame.obj
 0001:00041680       ?getLastEntry@HandlerMap@__FrameHandler3@@QEAAPEBU_s_HandlerType@@XZ 0000000180042680 f i libvcruntimed:frame.obj
 0001:000416a0       ?getMagicNum@__FrameHandler3@@SAIPEBU_s_FuncInfo@@@Z 00000001800426a0 f i libvcruntimed:frame.obj
 0001:000416c0       ?getMagicNum@__FrameHandler4@@SAIPEAUFuncInfo4@FH4@@@Z 00000001800426c0 f i libvcruntimed:frame.obj
 0001:000416d0       ?getNumTryBlocks@TryBlockMap4@FH4@@QEAAIXZ 00000001800426d0 f i libvcruntimed:frame.obj
 0001:000416e0       ?getNumTryBlocks@TryBlockMap@__FrameHandler3@@QEAAIXZ 00000001800426e0 f i libvcruntimed:frame.obj
 0001:00041700       ?getStartStop@UWMap4@FH4@@QEAAXHHAEAViterator@12@0@Z 0000000180042700 f i libvcruntimed:frame.obj
 0001:00041820       ?getStateFromIterators@UWMap4@FH4@@SAHAEBViterator@12@H0H0@Z 0000000180042820 f i libvcruntimed:frame.obj
 0001:00041960       ?isEHs@__FrameHandler3@@SA_NPEBU_s_FuncInfo@@@Z 0000000180042960 f i libvcruntimed:frame.obj
 0001:000419a0       ?isEHs@__FrameHandler4@@SA_NPEAUFuncInfo4@FH4@@@Z 00000001800429a0 f i libvcruntimed:frame.obj
 0001:000419c0       ?isNoExcept@__FrameHandler3@@SA_NPEBU_s_FuncInfo@@@Z 00000001800429c0 f i libvcruntimed:frame.obj
 0001:00041a00       ?isNoExcept@__FrameHandler4@@SA_NPEAUFuncInfo4@FH4@@@Z 0000000180042a00 f i libvcruntimed:frame.obj
 0001:00041a20       ?reset@HandlerType4@FH4@@QEAAXXZ 0000000180042a20 f i libvcruntimed:frame.obj
 0001:00041a80       ?resetBuffer@HandlerMap4@FH4@@QEAAXXZ 0000000180042a80 f i libvcruntimed:frame.obj
 0001:00041aa0       ?setBuffer@HandlerMap4@FH4@@QEAAXI@Z 0000000180042aa0 f i libvcruntimed:frame.obj
 0001:00041b00       __BuildCatchObject         0000000180042b00 f   libvcruntimed:frame.obj
 0001:00041b40       __BuildCatchObjectHelper   0000000180042b40 f   libvcruntimed:frame.obj
 0001:00041b80       __TypeMatch                0000000180042b80 f   libvcruntimed:frame.obj
 0001:00041bb0       __vcrt_EncodePointer       0000000180042bb0 f i libvcruntimed:frame.obj
 0001:00041bd0       ??$?0$00@DName@@QEAA@PEBDU?$StringLifeSelector@$00@@@Z 0000000180042bd0 f i libvcruntimed:undname.obj
 0001:00041c40       ??$?0$00@pcharNode@@QEAA@PEBDHU?$StringLifeSelector@$00@@@Z 0000000180042c40 f i libvcruntimed:undname.obj
 0001:00041ca0       ??$?0$01@DName@@QEAA@PEBDU?$StringLifeSelector@$01@@@Z 0000000180042ca0 f i libvcruntimed:undname.obj
 0001:00041d10       ??$?0$01@pcharNode@@QEAA@PEBDHU?$StringLifeSelector@$01@@@Z 0000000180042d10 f i libvcruntimed:undname.obj
 0001:00041dc0       ??$?0$0A@@DName@@QEAA@PEBDU?$StringLifeSelector@$0A@@@@Z 0000000180042dc0 f i libvcruntimed:undname.obj
 0001:00041e30       ??$?0$0A@@pcharNode@@QEAA@PEBDHU?$StringLifeSelector@$0A@@@@Z 0000000180042e30 f i libvcruntimed:undname.obj
 0001:00041ee0       ??$?0_K$0A@@?$optional@_K@std@@QEAA@$$QEA_K@Z 0000000180042ee0 f i libvcruntimed:undname.obj
 0001:00041f30       ??$?0_K@?$_Optional_construct_base@_K@std@@QEAA@Uin_place_t@1@$$QEA_K@Z 0000000180042f30 f i libvcruntimed:undname.obj
 0001:00041f60       ??$?0_K@?$_Optional_destruct_base@_K$00@std@@QEAA@Uin_place_t@1@$$QEA_K@Z 0000000180042f60 f i libvcruntimed:undname.obj
 0001:00041fa0       ??$append@VDNameNode@@@DName@@AEAAXPEBVDNameNode@@@Z 0000000180042fa0 f i libvcruntimed:undname.obj
 0001:00042050       ??$append@VDNameStatusNode@@@DName@@AEAAXPEBVDNameStatusNode@@@Z 0000000180043050 f i libvcruntimed:undname.obj
 0001:00042100       ??$append@VcharNode@@@DName@@AEAAXPEBVcharNode@@@Z 0000000180043100 f i libvcruntimed:undname.obj
 0001:000421b0       ??$append@VpDNameNode@@@DName@@AEAAXPEBVpDNameNode@@@Z 00000001800431b0 f i libvcruntimed:undname.obj
 0001:00042260       ??$append@VpcharNode@@@DName@@AEAAXPEBVpcharNode@@@Z 0000000180043260 f i libvcruntimed:undname.obj
 0001:00042310       ??$doPchar@$00@DName@@AEAAXPEBDH@Z 0000000180043310 f i libvcruntimed:undname.obj
 0001:00042470       ??$doPchar@$01@DName@@AEAAXPEBDH@Z 0000000180043470 f i libvcruntimed:undname.obj
 0001:000425d0       ??$doPchar@$0A@@DName@@AEAAXPEBDH@Z 00000001800435d0 f i libvcruntimed:undname.obj
 0001:00042730       ??$forward@_K@std@@YA$$QEA_KAEA_K@Z 0000000180043730 f i libvcruntimed:undname.obj
 0001:00042740       ??$size@D$04@std@@YA_KAEAY04$$CBD@Z 0000000180043740 f i libvcruntimed:undname.obj
 0001:00042750       ??$size@D$0EB@@std@@YA_KAEAY0EB@$$CBD@Z 0000000180043750 f i libvcruntimed:undname.obj
 0001:00042760       ??0?$_Optional_construct_base@_K@std@@QEAA@XZ 0000000180043760 f i libvcruntimed:undname.obj
 0001:00042780       ??0?$_Optional_destruct_base@_K$00@std@@QEAA@XZ 0000000180043780 f i libvcruntimed:undname.obj
 0001:000427a0       ??0?$optional@_K@std@@QEAA@XZ 00000001800437a0 f i libvcruntimed:undname.obj
 0001:000427d0       ??0Block@_HeapManager@@QEAA@XZ 00000001800437d0 f i libvcruntimed:undname.obj
 0001:000427f0       ??0DName@@QEAA@AEAPEBDD@Z  00000001800437f0 f   libvcruntimed:undname.obj
 0001:000429c0       ??0DName@@QEAA@AEBUStringLiteral@@@Z 00000001800439c0 f   libvcruntimed:undname.obj
 0001:00042a20       ??0DName@@QEAA@AEBV0@@Z    0000000180043a20 f i libvcruntimed:undname.obj
 0001:00042a50       ??0DName@@QEAA@D@Z         0000000180043a50 f   libvcruntimed:undname.obj
 0001:00042a90       ??0DName@@QEAA@PEAV0@@Z    0000000180043a90 f   libvcruntimed:undname.obj
 0001:00042b70       ??0DName@@QEAA@W4DNameStatus@@@Z 0000000180043b70 f   libvcruntimed:undname.obj
 0001:00042c20       ??0DName@@QEAA@XZ          0000000180043c20 f i libvcruntimed:undname.obj
 0001:00042c50       ??0DName@@QEAA@_J@Z        0000000180043c50 f   libvcruntimed:undname.obj
 0001:00042d60       ??0DName@@QEAA@_K@Z        0000000180043d60 f   libvcruntimed:undname.obj
 0001:00042e30       ??0DNameNode@@IEAA@XZ      0000000180043e30 f i libvcruntimed:undname.obj
 0001:00042e50       ??0Replicator@@QEAA@XZ     0000000180043e50 f i libvcruntimed:undname.obj
 0001:00042e90       ??0UnDecorator@@QEAA@PEBDP6APEADJ@ZK@Z 0000000180043e90 f i libvcruntimed:undname.obj
 0001:00042f40       ??0charNode@@QEAA@D@Z      0000000180043f40 f i libvcruntimed:undname.obj
 0001:00042f80       ??0pDNameNode@@QEAA@PEAVDName@@@Z 0000000180043f80 f   libvcruntimed:undname.obj
 0001:00043000       ??0pairNode@@QEAA@PEBVDNameNode@@0@Z 0000000180044000 f i libvcruntimed:undname.obj
 0001:00043080       ??2@YAPEAX_KAEAV_HeapManager@@H@Z 0000000180044080 f   libvcruntimed:undname.obj
 0001:000430e0       ??4DName@@QEAAAEAV0@AEBUStringLiteral@@@Z 00000001800440e0 f   libvcruntimed:undname.obj
 0001:00043130       ??4DName@@QEAAAEAV0@AEBV0@@Z 0000000180044130 f   libvcruntimed:undname.obj
 0001:00043160       ??4DName@@QEAAAEAV0@D@Z    0000000180044160 f i libvcruntimed:undname.obj
 0001:000431a0       ??4DName@@QEAAAEAV0@PEAV0@@Z 00000001800441a0 f   libvcruntimed:undname.obj
 0001:00043270       ??4DName@@QEAAAEAV0@W4DNameStatus@@@Z 0000000180044270 f   libvcruntimed:undname.obj
 0001:00043300       ??AReplicator@@QEBA?AVDName@@H@Z 0000000180044300 f   libvcruntimed:undname.obj
 0001:00043390       ??B?$optional@_K@std@@QEBA_NXZ 0000000180044390 f i libvcruntimed:undname.obj
 0001:000433a0       ??D?$optional@_K@std@@QEGAAAEA_KXZ 00000001800443a0 f i libvcruntimed:undname.obj
 0001:000433b0       ??H@YA?AVDName@@AEBUStringLiteral@@AEBV0@@Z 00000001800443b0 f i libvcruntimed:undname.obj
 0001:00043400       ??H@YA?AVDName@@DAEBV0@@Z  0000000180044400 f i libvcruntimed:undname.obj
 0001:00043450       ??H@YA?AVDName@@W4DNameStatus@@AEBV0@@Z 0000000180044450 f i libvcruntimed:undname.obj
 0001:000434a0       ??HDName@@QEBA?AV0@AEBUStringLiteral@@@Z 00000001800444a0 f   libvcruntimed:undname.obj
 0001:000434f0       ??HDName@@QEBA?AV0@AEBV0@@Z 00000001800444f0 f   libvcruntimed:undname.obj
 0001:00043540       ??HDName@@QEBA?AV0@D@Z     0000000180044540 f   libvcruntimed:undname.obj
 0001:00043590       ??HDName@@QEBA?AV0@PEAV0@@Z 0000000180044590 f   libvcruntimed:undname.obj
 0001:000435e0       ??HDName@@QEBA?AV0@W4DNameStatus@@@Z 00000001800445e0 f   libvcruntimed:undname.obj
 0001:00043630       ??HStringLiteral@@QEBA?AU0@H@Z 0000000180044630 f i libvcruntimed:undname.obj
 0001:00043670       ??YDName@@QEAAAEAV0@AEBUStringLiteral@@@Z 0000000180044670 f   libvcruntimed:undname.obj
 0001:00043740       ??YDName@@QEAAAEAV0@AEBV0@@Z 0000000180044740 f   libvcruntimed:undname.obj
 0001:00043800       ??YDName@@QEAAAEAV0@D@Z    0000000180044800 f   libvcruntimed:undname.obj
 0001:000438a0       ??YDName@@QEAAAEAV0@PEAV0@@Z 00000001800448a0 f   libvcruntimed:undname.obj
 0001:00043980       ??YDName@@QEAAAEAV0@W4DNameStatus@@@Z 0000000180044980 f   libvcruntimed:undname.obj
 0001:000439f0       ??YReplicator@@QEAAAEAV0@AEBVDName@@@Z 00000001800449f0 f   libvcruntimed:undname.obj
 0001:00043ab0       ??_5DName@@QEAAAEAV0@AEBV0@@Z 0000000180044ab0 f   libvcruntimed:undname.obj
 0001:00043b20       ??__K_l@@YA?AUStringLiteral@@PEBD_K@Z 0000000180044b20 f i libvcruntimed:undname.obj
 0001:00043b70       ?Constructor@_HeapManager@@QEAAXP6APEAX_K@ZP6AXPEAX@Z@Z 0000000180044b70 f i libvcruntimed:undname.obj
 0001:00043bd0       ?Destructor@_HeapManager@@QEAAXXZ 0000000180044bd0 f i libvcruntimed:undname.obj
 0001:00043c70       ?UScore@UnDecorator@@SA?AUStringLiteral@@W4Tokens@@@Z 0000000180044c70 f   libvcruntimed:undname.obj
 0001:00043d00       ?composeDeclaration@UnDecorator@@CA?AVDName@@AEBV2@@Z 0000000180044d00 f i libvcruntimed:undname.obj
 0001:00046200       ?dbGetString@DName@@QEBAPEADXZ 0000000180047200 f   libvcruntimed:undname.obj
 0001:00046230       ?doAccessSpecifiers@UnDecorator@@SAHXZ 0000000180047230 f i libvcruntimed:undname.obj
 0001:00046260       ?doAllocationLanguage@UnDecorator@@SAHXZ 0000000180047260 f i libvcruntimed:undname.obj
 0001:00046290       ?doAllocationModel@UnDecorator@@SAHXZ 0000000180047290 f i libvcruntimed:undname.obj
 0001:000462c0       ?doEcsu@UnDecorator@@SAHXZ 00000001800472c0 f i libvcruntimed:undname.obj
 0001:000462f0       ?doEllipsis@UnDecorator@@SAHXZ 00000001800472f0 f i libvcruntimed:undname.obj
 0001:00046320       ?doFunctionReturns@UnDecorator@@SAHXZ 0000000180047320 f i libvcruntimed:undname.obj
 0001:00046350       ?doMSKeywords@UnDecorator@@SAHXZ 0000000180047350 f i libvcruntimed:undname.obj
 0001:00046380       ?doMemberTypes@UnDecorator@@SAHXZ 0000000180047380 f i libvcruntimed:undname.obj
 0001:000463b0       ?doNameOnly@UnDecorator@@SAHXZ 00000001800473b0 f i libvcruntimed:undname.obj
 0001:000463c0       ?doNoIdentCharCheck@UnDecorator@@SAHXZ 00000001800473c0 f i libvcruntimed:undname.obj
 0001:000463d0       ?doPchar@DName@@AEAAXD@Z   00000001800473d0 f   libvcruntimed:undname.obj
 0001:00046460       ?doPtr64@UnDecorator@@SAHXZ 0000000180047460 f i libvcruntimed:undname.obj
 0001:00046490       ?doRestrictionSpec@UnDecorator@@SAHXZ 0000000180047490 f i libvcruntimed:undname.obj
 0001:000464c0       ?doThisTypes@UnDecorator@@SAHXZ 00000001800474c0 f i libvcruntimed:undname.obj
 0001:000464f0       ?doThrowTypes@UnDecorator@@SAHXZ 00000001800474f0 f i libvcruntimed:undname.obj
 0001:00046520       ?doTypeOnly@UnDecorator@@SAHXZ 0000000180047520 f i libvcruntimed:undname.obj
 0001:00046530       ?doUnderScore@UnDecorator@@SAHXZ 0000000180047530 f i libvcruntimed:undname.obj
 0001:00046560       ?getArgumentList@UnDecorator@@CA?AVDName@@XZ 0000000180047560 f   libvcruntimed:undname.obj
 0001:00046700       ?getArgumentTypes@UnDecorator@@CA?AVDName@@XZ 0000000180047700 f   libvcruntimed:undname.obj
 0001:00046a60       ?getArrayObject@UnDecorator@@CA?AVDName@@XZ 0000000180047a60 f   libvcruntimed:undname.obj
 0001:00046b80       ?getArrayType@UnDecorator@@CA?AVDName@@AEBV2@@Z 0000000180047b80 f i libvcruntimed:undname.obj
 0001:00046f40       ?getBasedType@UnDecorator@@CA?AVDName@@XZ 0000000180047f40 f   libvcruntimed:undname.obj
 0001:000470b0       ?getBasicDataType@UnDecorator@@CA?AVDName@@AEBV2@@Z 00000001800480b0 f   libvcruntimed:undname.obj
 0001:00047d80       ?getCHPEName@UnDecorator@@QEAAPEADPEADH@Z 0000000180048d80 f i libvcruntimed:undname.obj
 0001:00047f50       ?getCallIndex@UnDecorator@@CA?AVDName@@XZ 0000000180048f50 f i libvcruntimed:undname.obj
 0001:00047f70       ?getCallingConvention@UnDecorator@@CA?AVDName@@XZ 0000000180048f70 f   libvcruntimed:undname.obj
 0001:00048310       ?getDataIndirectType@UnDecorator@@CA?AVDName@@AEBV2@W4IndirectionKind@@0H@Z 0000000180049310 f   libvcruntimed:undname.obj
 0001:00048fb0       ?getDataIndirectType@UnDecorator@@CA?AVDName@@XZ 0000000180049fb0 f i libvcruntimed:undname.obj
 0001:00049000       ?getDataType@UnDecorator@@CA?AVDName@@PEAV2@@Z 000000018004a000 f   libvcruntimed:undname.obj
 0001:000491e0       ?getDecoratedName@UnDecorator@@CA?AVDName@@XZ 000000018004a1e0 f   libvcruntimed:undname.obj
 0001:000496d0       ?getDimension@UnDecorator@@CA?AVDName@@_N@Z 000000018004a6d0 f   libvcruntimed:undname.obj
 0001:000499e0       ?getDispatchTarget@UnDecorator@@CA?AVDName@@XZ 000000018004a9e0 f   libvcruntimed:undname.obj
 0001:00049ab0       ?getDisplacement@UnDecorator@@CA?AVDName@@XZ 000000018004aab0 f i libvcruntimed:undname.obj
 0001:00049ad0       ?getECSUDataType@UnDecorator@@CA?AVDName@@XZ 000000018004aad0 f   libvcruntimed:undname.obj
 0001:00049e60       ?getECSUName@UnDecorator@@CA?AVDName@@XZ 000000018004ae60 f i libvcruntimed:undname.obj
 0001:00049e80       ?getEnumType@UnDecorator@@CA?AVDName@@XZ 000000018004ae80 f i libvcruntimed:undname.obj
 0001:0004a110       ?getExtendedDataIndirectType@UnDecorator@@CA?AVDName@@AEAW4IndirectionKind@@AEA_NH@Z 000000018004b110 f   libvcruntimed:undname.obj
 0001:0004a430       ?getExternalDataType@UnDecorator@@CA?AVDName@@AEBV2@@Z 000000018004b430 f i libvcruntimed:undname.obj
 0001:0004a510       ?getFloatingPoint@UnDecorator@@CA?AVDName@@H@Z 000000018004b510 f   libvcruntimed:undname.obj
 0001:0004a780       ?getFunctionIndirectType@UnDecorator@@CA?AVDName@@AEBV2@@Z 000000018004b780 f   libvcruntimed:undname.obj
 0001:0004adb0       ?getGuardNumber@UnDecorator@@CA?AVDName@@XZ 000000018004bdb0 f i libvcruntimed:undname.obj
 0001:0004add0       ?getLastChar@DName@@QEBADXZ 000000018004bdd0 f i libvcruntimed:undname.obj
 0001:0004ae20       ?getLastChar@DNameStatusNode@@UEBADXZ 000000018004be20 f i libvcruntimed:undname.obj
 0001:0004ae60       ?getLastChar@charNode@@UEBADXZ 000000018004be60 f i libvcruntimed:undname.obj
 0001:0004ae70       ?getLastChar@pDNameNode@@UEBADXZ 000000018004be70 f i libvcruntimed:undname.obj
 0001:0004aeb0       ?getLastChar@pairNode@@UEBADXZ 000000018004beb0 f i libvcruntimed:undname.obj
 0001:0004af30       ?getLastChar@pcharNode@@UEBADXZ 000000018004bf30 f i libvcruntimed:undname.obj
 0001:0004af70       ?getLexicalFrame@UnDecorator@@CA?AVDName@@XZ 000000018004bf70 f i libvcruntimed:undname.obj
 0001:0004afc0       ?getMemoryWithBuffer@_HeapManager@@QEAAPEAX_K@Z 000000018004bfc0 f   libvcruntimed:undname.obj
 0001:0004b110       ?getMemoryWithoutBuffer@_HeapManager@@QEAAPEAX_K@Z 000000018004c110 f   libvcruntimed:undname.obj
 0001:0004b160       ?getNoexcept@UnDecorator@@CA?AVDName@@XZ 000000018004c160 f   libvcruntimed:undname.obj
 0001:0004b210       ?getNumberOfDimensions@UnDecorator@@CAHXZ 000000018004c210 f   libvcruntimed:undname.obj
 0001:0004b330       ?getOperatorName@UnDecorator@@CA?AVDName@@_NPEA_N@Z 000000018004c330 f i libvcruntimed:undname.obj
 0001:0004c240       ?getPointerType@UnDecorator@@CA?AVDName@@AEBV2@0@Z 000000018004d240 f i libvcruntimed:undname.obj
 0001:0004c280       ?getPointerTypeArray@UnDecorator@@CA?AVDName@@AEBV2@0@Z 000000018004d280 f i libvcruntimed:undname.obj
 0001:0004c2c0       ?getPrimaryDataType@UnDecorator@@CA?AVDName@@AEBV2@@Z 000000018004d2c0 f   libvcruntimed:undname.obj
 0001:0004c8b0       ?getPtrRefDataType@UnDecorator@@CA?AVDName@@AEBV2@H@Z 000000018004d8b0 f   libvcruntimed:undname.obj
 0001:0004cca0       ?getPtrRefType@UnDecorator@@CA?AVDName@@AEBV2@0W4IndirectionKind@@@Z 000000018004dca0 f   libvcruntimed:undname.obj
 0001:0004cee0       ?getReferenceType@UnDecorator@@CA?AVDName@@AEBV2@0W4IndirectionKind@@@Z 000000018004dee0 f i libvcruntimed:undname.obj
 0001:0004cf20       ?getRestrictionSpec@UnDecorator@@CA?AVDName@@XZ 000000018004df20 f   libvcruntimed:undname.obj
 0001:0004d1b0       ?getReturnType@UnDecorator@@CA?AVDName@@PEAV2@@Z 000000018004e1b0 f   libvcruntimed:undname.obj
 0001:0004d210       ?getScope@UnDecorator@@CA?AVDName@@XZ 000000018004e210 f   libvcruntimed:undname.obj
 0001:0004d960       ?getScopedName@UnDecorator@@CA?AVDName@@XZ 000000018004e960 f   libvcruntimed:undname.obj
 0001:0004db60       ?getSignedDimension@UnDecorator@@CA?AVDName@@XZ 000000018004eb60 f   libvcruntimed:undname.obj
 0001:0004dbf0       ?getStorageConvention@UnDecorator@@CA?AVDName@@XZ 000000018004ebf0 f i libvcruntimed:undname.obj
 0001:0004dc10       ?getString@DName@@QEBAPEADPEAD0@Z 000000018004ec10 f i libvcruntimed:undname.obj
 0001:0004dc90       ?getString@DName@@QEBAPEADPEADH@Z 000000018004ec90 f i libvcruntimed:undname.obj
 0001:0004dd50       ?getString@DNameStatusNode@@UEBAPEADPEAD0@Z 000000018004ed50 f i libvcruntimed:undname.obj
 0001:0004dda0       ?getString@charNode@@UEBAPEADPEAD0@Z 000000018004eda0 f i libvcruntimed:undname.obj
 0001:0004dde0       ?getString@pDNameNode@@UEBAPEADPEAD0@Z 000000018004ede0 f i libvcruntimed:undname.obj
 0001:0004de40       ?getString@pairNode@@UEBAPEADPEAD0@Z 000000018004ee40 f i libvcruntimed:undname.obj
 0001:0004df10       ?getString@pcharNode@@UEBAPEADPEAD0@Z 000000018004ef10 f i libvcruntimed:undname.obj
 0001:0004df50       ?getStringEncoding@UnDecorator@@CA?AVDName@@W4PrefixKind@@H@Z 000000018004ef50 f   libvcruntimed:undname.obj
 0001:0004e0b0       ?getStringHelper@@YAPEADPEADPEBD1H@Z 000000018004f0b0 f i libvcruntimed:undname.obj
 0001:0004e120       ?getStringObject@UnDecorator@@CA?AVDName@@XZ 000000018004f120 f   libvcruntimed:undname.obj
 0001:0004e200       ?getSymbolName@UnDecorator@@CA?AVDName@@XZ 000000018004f200 f i libvcruntimed:undname.obj
 0001:0004e2a0       ?getTemplateArgumentList@UnDecorator@@CA?AVDName@@XZ 000000018004f2a0 f   libvcruntimed:undname.obj
 0001:0004e5b0       ?getTemplateName@UnDecorator@@CA?AVDName@@_N@Z 000000018004f5b0 f   libvcruntimed:undname.obj
 0001:0004e7f0       ?getTemplateNonTypeArgument@UnDecorator@@CA?AVDName@@XZ 000000018004f7f0 f   libvcruntimed:undname.obj
 0001:0004eee0       ?getTemplateTypeArgument@UnDecorator@@CA?AVDName@@XZ 000000018004fee0 f   libvcruntimed:undname.obj
 0001:0004f150       ?getThisType@UnDecorator@@CA?AVDName@@XZ 0000000180050150 f i libvcruntimed:undname.obj
 0001:0004f1a0       ?getThrowTypes@UnDecorator@@CA?AVDName@@XZ 00000001800501a0 f   libvcruntimed:undname.obj
 0001:0004f1f0       ?getTypeEncoding@UnDecorator@@CAHXZ 00000001800501f0 f i libvcruntimed:undname.obj
 0001:0004fe20       ?getUndecoratedName@UnDecorator@@QEAAPEADPEADH@Z 0000000180050e20 f i libvcruntimed:undname.obj
 0001:00050010       ?getVCallThunkType@UnDecorator@@CA?AVDName@@XZ 0000000180051010 f i libvcruntimed:undname.obj
 0001:000500c0       ?getValue@UnDecorator@@CA?AV?$optional@_K@std@@XZ 00000001800510c0 f   libvcruntimed:undname.obj
 0001:00050190       ?getValueObject@UnDecorator@@CA?AVDName@@XZ 0000000180051190 f   libvcruntimed:undname.obj
 0001:00050350       ?getVbTableType@UnDecorator@@CA?AVDName@@AEBV2@@Z 0000000180051350 f i libvcruntimed:undname.obj
 0001:00050380       ?getVdispMapType@UnDecorator@@CA?AVDName@@AEBV2@@Z 0000000180051380 f i libvcruntimed:undname.obj
 0001:00050440       ?getVfTableType@UnDecorator@@CA?AVDName@@AEBV2@@Z 0000000180051440 f i libvcruntimed:undname.obj
 0001:000506e0       ?getZName@UnDecorator@@CA?AVDName@@_N0@Z 00000001800516e0 f   libvcruntimed:undname.obj
 0001:00050b70       ?haveTemplateParameters@UnDecorator@@SAHXZ 0000000180051b70 f i libvcruntimed:undname.obj
 0001:00050b80       ?isArray@DName@@QEBAHXZ    0000000180051b80 f i libvcruntimed:undname.obj
 0001:00050ba0       ?isComArray@DName@@QEBAHXZ 0000000180051ba0 f i libvcruntimed:undname.obj
 0001:00050bc0       ?isEmpty@DName@@QEBAHXZ    0000000180051bc0 f i libvcruntimed:undname.obj
 0001:00050bf0       ?isFull@Replicator@@QEBAHXZ 0000000180051bf0 f i libvcruntimed:undname.obj
 0001:00050c20       ?isNoTE@DName@@QEBAHXZ     0000000180051c20 f i libvcruntimed:undname.obj
 0001:00050c40       ?isPinPtr@DName@@QEBAHXZ   0000000180051c40 f i libvcruntimed:undname.obj
 0001:00050c60       ?isPtrRef@DName@@QEBAHXZ   0000000180051c60 f i libvcruntimed:undname.obj
 0001:00050c80       ?isUDC@DName@@QEBAHXZ      0000000180051c80 f i libvcruntimed:undname.obj
 0001:00050cd0       ?isUDTThunk@DName@@QEBAHXZ 0000000180051cd0 f i libvcruntimed:undname.obj
 0001:00050d20       ?isVCallThunk@DName@@QEBAHXZ 0000000180051d20 f i libvcruntimed:undname.obj
 0001:00050d40       ?isValid@DName@@QEBAHXZ    0000000180051d40 f i libvcruntimed:undname.obj
 0001:00050d80       ?length@DName@@QEBAHXZ     0000000180051d80 f i libvcruntimed:undname.obj
 0001:00050dd0       ?length@DNameStatusNode@@UEBAHXZ 0000000180051dd0 f i libvcruntimed:undname.obj
 0001:00050de0       ?length@charNode@@UEBAHXZ  0000000180051de0 f i libvcruntimed:undname.obj
 0001:00050df0       ?length@pDNameNode@@UEBAHXZ 0000000180051df0 f i libvcruntimed:undname.obj
 0001:00050e30       ?length@pairNode@@UEBAHXZ  0000000180051e30 f i libvcruntimed:undname.obj
 0001:00050ec0       ?length@pcharNode@@UEBAHXZ 0000000180051ec0 f i libvcruntimed:undname.obj
 0001:00050ed0       ?make@DNameStatusNode@@SAPEBV1@W4DNameStatus@@@Z 0000000180051ed0 f i libvcruntimed:undname.obj
 0001:00050f20       ?parseDecoratedName@UnDecorator@@CA?AVDName@@XZ 0000000180051f20 f   libvcruntimed:undname.obj
 0001:00051110       ?raw_length@DNameStatusNode@@UEBAHXZ 0000000180052110 f i libvcruntimed:undname.obj
 0001:00051130       ?raw_length@charNode@@UEBAHXZ 0000000180052130 f i libvcruntimed:undname.obj
 0001:00051150       ?raw_length@pDNameNode@@UEBAHXZ 0000000180052150 f i libvcruntimed:undname.obj
 0001:00051160       ?raw_length@pairNode@@UEBAHXZ 0000000180052160 f i libvcruntimed:undname.obj
 0001:00051170       ?raw_length@pcharNode@@UEBAHXZ 0000000180052170 f i libvcruntimed:undname.obj
 0001:00051190       ?setIsArray@DName@@QEAAXXZ 0000000180052190 f i libvcruntimed:undname.obj
 0001:000511b0       ?setIsComArray@DName@@QEAAXXZ 00000001800521b0 f i libvcruntimed:undname.obj
 0001:000511d0       ?setIsNoTE@DName@@QEAAXXZ  00000001800521d0 f i libvcruntimed:undname.obj
 0001:000511f0       ?setIsPinPtr@DName@@QEAAXXZ 00000001800521f0 f i libvcruntimed:undname.obj
 0001:00051210       ?setIsUDC@DName@@QEAAXXZ   0000000180052210 f i libvcruntimed:undname.obj
 0001:00051240       ?setIsVCallThunk@DName@@QEAAXXZ 0000000180052240 f i libvcruntimed:undname.obj
 0001:00051260       ?setPtrRef@DName@@QEAAAEAV1@XZ 0000000180052260 f i libvcruntimed:undname.obj
 0001:00051280       ?status@DName@@QEBA?AW4DNameStatus@@XZ 0000000180052280 f i libvcruntimed:undname.obj
 0001:000513b0       __unDName                  00000001800523b0 f   libvcruntimed:undname.obj
 0001:00051410       __unDNameEx                0000000180052410 f   libvcruntimed:undname.obj
 0001:000514d0       unDNameGenerateCHPE        00000001800524d0 f   libvcruntimed:undname.obj
 0001:00051580       ??$__crt_interlocked_exchange_pointer@UHINSTANCE__@@PEAU1@@@YAPEAUHINSTANCE__@@PEDSEAU0@QEAU0@@Z 0000000180052580 f i libvcruntimed:winapi_downlevel.obj
 0001:000515a0       ??$__crt_interlocked_exchange_pointer@UHINSTANCE__@@PEAX@@YAPEAUHINSTANCE__@@PEDSEAU0@QEAX@Z 00000001800525a0 f i libvcruntimed:winapi_downlevel.obj
 0001:000515c0       ??$__crt_interlocked_exchange_pointer@XPEAX@@YAPEAXPEDSEAXQEAX@Z 00000001800525c0 f i libvcruntimed:winapi_downlevel.obj
 0001:000515e0       ??$__crt_interlocked_read_pointer@UHINSTANCE__@@@@YAPEAUHINSTANCE__@@PEDSEAU0@@Z 00000001800525e0 f i libvcruntimed:winapi_downlevel.obj
 0001:00051600       ??$__crt_interlocked_read_pointer@X@@YAPEAXPEDSEAX@Z 0000000180052600 f i libvcruntimed:winapi_downlevel.obj
 0001:00051b10       __vcrt_FlsAlloc            0000000180052b10 f   libvcruntimed:winapi_downlevel.obj
 0001:00051b60       __vcrt_FlsFree             0000000180052b60 f   libvcruntimed:winapi_downlevel.obj
 0001:00051bb0       __vcrt_FlsGetValue         0000000180052bb0 f   libvcruntimed:winapi_downlevel.obj
 0001:00051c00       __vcrt_FlsSetValue         0000000180052c00 f   libvcruntimed:winapi_downlevel.obj
 0001:00051c60       __vcrt_InitializeCriticalSectionEx 0000000180052c60 f   libvcruntimed:winapi_downlevel.obj
 0001:00051ce0       _CallSettingFrame          0000000180052ce0 f   libvcruntimed:handlers.obj
 0001:00051d30       _CallSettingFrame_LookupContinuationIndex 0000000180052d30 f   libvcruntimed:handlers.obj
 0001:00051d60       _CallSettingFrame_NotifyContinuationAddr 0000000180052d60 f   libvcruntimed:handlers.obj
 0001:00051d90       _CallSettingFrameEncoded   0000000180052d90 f   libvcruntimed:handlers.obj
 0001:00051de0       ??$?0AEBV?$stream_output_adapter@D@__crt_stdio_output@@AEB_KAEBQEBDAEBQEAU__crt_locale_pointers@@AEBQEAD@?$format_validation_base@DV?$stream_output_adapter@D@__crt_stdio_output@@@__crt_stdio_output@@IEAA@AEBV?$stream_output_adapter@D@1@AEB_KAEBQEBDAEBQEAU__crt_locale_pointers@@AEBQEAD@Z 0000000180052de0 f i libucrtd:output.obj
 0001:00051e30       ??$?0AEBV?$stream_output_adapter@D@__crt_stdio_output@@AEB_KAEBQEBDAEBQEAU__crt_locale_pointers@@AEBQEAD@?$positional_parameter_base@DV?$stream_output_adapter@D@__crt_stdio_output@@@__crt_stdio_output@@IEAA@AEBV?$stream_output_adapter@D@1@AEB_KAEBQEBDAEBQEAU__crt_locale_pointers@@AEBQEAD@Z 0000000180052e30 f i libucrtd:output.obj
 0001:00051ed0       ??$?0AEBV?$stream_output_adapter@D@__crt_stdio_output@@AEB_KAEBQEBDAEBQEAU__crt_locale_pointers@@AEBQEAD@?$standard_base@DV?$stream_output_adapter@D@__crt_stdio_output@@@__crt_stdio_output@@IEAA@AEBV?$stream_output_adapter@D@1@AEB_KAEBQEBDAEBQEAU__crt_locale_pointers@@AEBQEAD@Z 0000000180052ed0 f i libucrtd:output.obj
 0001:00051f40       ??$?0AEBV?$stream_output_adapter@_W@__crt_stdio_output@@AEB_KAEBQEB_WAEBQEAU__crt_locale_pointers@@AEBQEAD@?$format_validation_base@_WV?$stream_output_adapter@_W@__crt_stdio_output@@@__crt_stdio_output@@IEAA@AEBV?$stream_output_adapter@_W@1@AEB_KAEBQEB_WAEBQEAU__crt_locale_pointers@@AEBQEAD@Z 0000000180052f40 f i libucrtd:output.obj
 0001:00051f90       ??$?0AEBV?$stream_output_adapter@_W@__crt_stdio_output@@AEB_KAEBQEB_WAEBQEAU__crt_locale_pointers@@AEBQEAD@?$positional_parameter_base@_WV?$stream_output_adapter@_W@__crt_stdio_output@@@__crt_stdio_output@@IEAA@AEBV?$stream_output_adapter@_W@1@AEB_KAEBQEB_WAEBQEAU__crt_locale_pointers@@AEBQEAD@Z 0000000180052f90 f i libucrtd:output.obj
 0001:00052030       ??$?0AEBV?$stream_output_adapter@_W@__crt_stdio_output@@AEB_KAEBQEB_WAEBQEAU__crt_locale_pointers@@AEBQEAD@?$standard_base@_WV?$stream_output_adapter@_W@__crt_stdio_output@@@__crt_stdio_output@@IEAA@AEBV?$stream_output_adapter@_W@1@AEB_KAEBQEB_WAEBQEAU__crt_locale_pointers@@AEBQEAD@Z 0000000180053030 f i libucrtd:output.obj
 0001:000520a0       ??$?0AEBV?$string_output_adapter@D@__crt_stdio_output@@AEB_KAEBQEBDAEBQEAU__crt_locale_pointers@@AEBQEAD@?$format_validation_base@DV?$string_output_adapter@D@__crt_stdio_output@@@__crt_stdio_output@@IEAA@AEBV?$string_output_adapter@D@1@AEB_KAEBQEBDAEBQEAU__crt_locale_pointers@@AEBQEAD@Z 00000001800530a0 f i libucrtd:output.obj
 0001:000520f0       ??$?0AEBV?$string_output_adapter@D@__crt_stdio_output@@AEB_KAEBQEBDAEBQEAU__crt_locale_pointers@@AEBQEAD@?$positional_parameter_base@DV?$string_output_adapter@D@__crt_stdio_output@@@__crt_stdio_output@@IEAA@AEBV?$string_output_adapter@D@1@AEB_KAEBQEBDAEBQEAU__crt_locale_pointers@@AEBQEAD@Z 00000001800530f0 f i libucrtd:output.obj
 0001:00052190       ??$?0AEBV?$string_output_adapter@D@__crt_stdio_output@@AEB_KAEBQEBDAEBQEAU__crt_locale_pointers@@AEBQEAD@?$standard_base@DV?$string_output_adapter@D@__crt_stdio_output@@@__crt_stdio_output@@IEAA@AEBV?$string_output_adapter@D@1@AEB_KAEBQEBDAEBQEAU__crt_locale_pointers@@AEBQEAD@Z 0000000180053190 f i libucrtd:output.obj
 0001:00052200       ??$?0AEBV?$string_output_adapter@_W@__crt_stdio_output@@AEB_KAEBQEB_WAEBQEAU__crt_locale_pointers@@AEBQEAD@?$format_validation_base@_WV?$string_output_adapter@_W@__crt_stdio_output@@@__crt_stdio_output@@IEAA@AEBV?$string_output_adapter@_W@1@AEB_KAEBQEB_WAEBQEAU__crt_locale_pointers@@AEBQEAD@Z 0000000180053200 f i libucrtd:output.obj
 0001:00052250       ??$?0AEBV?$string_output_adapter@_W@__crt_stdio_output@@AEB_KAEBQEB_WAEBQEAU__crt_locale_pointers@@AEBQEAD@?$positional_parameter_base@_WV?$string_output_adapter@_W@__crt_stdio_output@@@__crt_stdio_output@@IEAA@AEBV?$string_output_adapter@_W@1@AEB_KAEBQEB_WAEBQEAU__crt_locale_pointers@@AEBQEAD@Z 0000000180053250 f i libucrtd:output.obj
 0001:000522f0       ??$?0AEBV?$string_output_adapter@_W@__crt_stdio_output@@AEB_KAEBQEB_WAEBQEAU__crt_locale_pointers@@AEBQEAD@?$standard_base@_WV?$string_output_adapter@_W@__crt_stdio_output@@@__crt_stdio_output@@IEAA@AEBV?$string_output_adapter@_W@1@AEB_KAEBQEB_WAEBQEAU__crt_locale_pointers@@AEBQEAD@Z 00000001800532f0 f i libucrtd:output.obj
 0001:00052720       ??$__crt_interlocked_read@J@@YAJPEDJ@Z 0000000180053720 f i libucrtd:output.obj
 0001:00056200       ??$count@D@formatting_buffer@__crt_stdio_output@@QEBA_KXZ 0000000180057200 f i libucrtd:output.obj
 0001:00056250       ??$count@_W@formatting_buffer@__crt_stdio_output@@QEBA_KXZ 0000000180057250 f i libucrtd:output.obj
 0001:000562a0       ??$data@D@formatting_buffer@__crt_stdio_output@@QEAAPEADXZ 00000001800572a0 f i libucrtd:output.obj
 0001:000562f0       ??$data@_W@formatting_buffer@__crt_stdio_output@@QEAAPEA_WXZ 00000001800572f0 f i libucrtd:output.obj
 0001:00056340       ??$ensure_buffer_is_big_enough@D@formatting_buffer@__crt_stdio_output@@QEAA_N_K@Z 0000000180057340 f i libucrtd:output.obj
 0001:00056470       ??$ensure_buffer_is_big_enough@_W@formatting_buffer@__crt_stdio_output@@QEAA_N_K@Z 0000000180057470 f i libucrtd:output.obj
 0001:000565a0       ??$extract_argument_from_va_list@C_J@?$positional_parameter_base@DV?$stream_output_adapter@D@__crt_stdio_output@@@__crt_stdio_output@@IEAA_NAEA_J@Z 00000001800575a0 f i libucrtd:output.obj
 0001:00056720       ??$extract_argument_from_va_list@C_J@?$positional_parameter_base@DV?$string_output_adapter@D@__crt_stdio_output@@@__crt_stdio_output@@IEAA_NAEA_J@Z 0000000180057720 f i libucrtd:output.obj
 0001:000568a0       ??$extract_argument_from_va_list@C_J@?$positional_parameter_base@_WV?$stream_output_adapter@_W@__crt_stdio_output@@@__crt_stdio_output@@IEAA_NAEA_J@Z 00000001800578a0 f i libucrtd:output.obj
 0001:00056a20       ??$extract_argument_from_va_list@C_J@?$positional_parameter_base@_WV?$string_output_adapter@_W@__crt_stdio_output@@@__crt_stdio_output@@IEAA_NAEA_J@Z 0000000180057a20 f i libucrtd:output.obj
 0001:00056ba0       ??$extract_argument_from_va_list@C_J@?$standard_base@DV?$stream_output_adapter@D@__crt_stdio_output@@@__crt_stdio_output@@IEAA_NAEA_J@Z 0000000180057ba0 f i libucrtd:output.obj
 0001:00056be0       ??$extract_argument_from_va_list@C_J@?$standard_base@DV?$string_output_adapter@D@__crt_stdio_output@@@__crt_stdio_output@@IEAA_NAEA_J@Z 0000000180057be0 f i libucrtd:output.obj
 0001:00056c20       ??$extract_argument_from_va_list@C_J@?$standard_base@_WV?$stream_output_adapter@_W@__crt_stdio_output@@@__crt_stdio_output@@IEAA_NAEA_J@Z 0000000180057c20 f i libucrtd:output.obj
 0001:00056c60       ??$extract_argument_from_va_list@C_J@?$standard_base@_WV?$string_output_adapter@_W@__crt_stdio_output@@@__crt_stdio_output@@IEAA_NAEA_J@Z 0000000180057c60 f i libucrtd:output.obj
 0001:00056ca0       ??$extract_argument_from_va_list@E_J@?$positional_parameter_base@DV?$stream_output_adapter@D@__crt_stdio_output@@@__crt_stdio_output@@IEAA_NAEA_J@Z 0000000180057ca0 f i libucrtd:output.obj
 0001:00056e20       ??$extract_argument_from_va_list@E_J@?$positional_parameter_base@DV?$string_output_adapter@D@__crt_stdio_output@@@__crt_stdio_output@@IEAA_NAEA_J@Z 0000000180057e20 f i libucrtd:output.obj
 0001:00056fa0       ??$extract_argument_from_va_list@E_J@?$positional_parameter_base@_WV?$stream_output_adapter@_W@__crt_stdio_output@@@__crt_stdio_output@@IEAA_NAEA_J@Z 0000000180057fa0 f i libucrtd:output.obj
 0001:00057120       ??$extract_argument_from_va_list@E_J@?$positional_parameter_base@_WV?$string_output_adapter@_W@__crt_stdio_output@@@__crt_stdio_output@@IEAA_NAEA_J@Z 0000000180058120 f i libucrtd:output.obj
 0001:000572a0       ??$extract_argument_from_va_list@E_J@?$standard_base@DV?$stream_output_adapter@D@__crt_stdio_output@@@__crt_stdio_output@@IEAA_NAEA_J@Z 00000001800582a0 f i libucrtd:output.obj
 0001:000572e0       ??$extract_argument_from_va_list@E_J@?$standard_base@DV?$string_output_adapter@D@__crt_stdio_output@@@__crt_stdio_output@@IEAA_NAEA_J@Z 00000001800582e0 f i libucrtd:output.obj
 0001:00057320       ??$extract_argument_from_va_list@E_J@?$standard_base@_WV?$stream_output_adapter@_W@__crt_stdio_output@@@__crt_stdio_output@@IEAA_NAEA_J@Z 0000000180058320 f i libucrtd:output.obj
 0001:00057360       ??$extract_argument_from_va_list@E_J@?$standard_base@_WV?$string_output_adapter@_W@__crt_stdio_output@@@__crt_stdio_output@@IEAA_NAEA_J@Z 0000000180058360 f i libucrtd:output.obj
 0001:000573a0       ??$extract_argument_from_va_list@F_J@?$positional_parameter_base@DV?$stream_output_adapter@D@__crt_stdio_output@@@__crt_stdio_output@@IEAA_NAEA_J@Z 00000001800583a0 f i libucrtd:output.obj
 0001:00057520       ??$extract_argument_from_va_list@F_J@?$positional_parameter_base@DV?$string_output_adapter@D@__crt_stdio_output@@@__crt_stdio_output@@IEAA_NAEA_J@Z 0000000180058520 f i libucrtd:output.obj
 0001:000576a0       ??$extract_argument_from_va_list@F_J@?$positional_parameter_base@_WV?$stream_output_adapter@_W@__crt_stdio_output@@@__crt_stdio_output@@IEAA_NAEA_J@Z 00000001800586a0 f i libucrtd:output.obj
 0001:00057820       ??$extract_argument_from_va_list@F_J@?$positional_parameter_base@_WV?$string_output_adapter@_W@__crt_stdio_output@@@__crt_stdio_output@@IEAA_NAEA_J@Z 0000000180058820 f i libucrtd:output.obj
 0001:000579a0       ??$extract_argument_from_va_list@F_J@?$standard_base@DV?$stream_output_adapter@D@__crt_stdio_output@@@__crt_stdio_output@@IEAA_NAEA_J@Z 00000001800589a0 f i libucrtd:output.obj
 0001:000579e0       ??$extract_argument_from_va_list@F_J@?$standard_base@DV?$string_output_adapter@D@__crt_stdio_output@@@__crt_stdio_output@@IEAA_NAEA_J@Z 00000001800589e0 f i libucrtd:output.obj
 0001:00057a20       ??$extract_argument_from_va_list@F_J@?$standard_base@_WV?$stream_output_adapter@_W@__crt_stdio_output@@@__crt_stdio_output@@IEAA_NAEA_J@Z 0000000180058a20 f i libucrtd:output.obj
 0001:00057a60       ??$extract_argument_from_va_list@F_J@?$standard_base@_WV?$string_output_adapter@_W@__crt_stdio_output@@@__crt_stdio_output@@IEAA_NAEA_J@Z 0000000180058a60 f i libucrtd:output.obj
 0001:00057aa0       ??$extract_argument_from_va_list@GD@?$positional_parameter_base@DV?$stream_output_adapter@D@__crt_stdio_output@@@__crt_stdio_output@@IEAA_NAEAD@Z 0000000180058aa0 f i libucrtd:output.obj
 0001:00057c20       ??$extract_argument_from_va_list@GD@?$positional_parameter_base@DV?$string_output_adapter@D@__crt_stdio_output@@@__crt_stdio_output@@IEAA_NAEAD@Z 0000000180058c20 f i libucrtd:output.obj
 0001:00057da0       ??$extract_argument_from_va_list@GD@?$standard_base@DV?$stream_output_adapter@D@__crt_stdio_output@@@__crt_stdio_output@@IEAA_NAEAD@Z 0000000180058da0 f i libucrtd:output.obj
 0001:00057dd0       ??$extract_argument_from_va_list@GD@?$standard_base@DV?$string_output_adapter@D@__crt_stdio_output@@@__crt_stdio_output@@IEAA_NAEAD@Z 0000000180058dd0 f i libucrtd:output.obj
 0001:00057e00       ??$extract_argument_from_va_list@G_J@?$positional_parameter_base@DV?$stream_output_adapter@D@__crt_stdio_output@@@__crt_stdio_output@@IEAA_NAEA_J@Z 0000000180058e00 f i libucrtd:output.obj
 0001:00057f80       ??$extract_argument_from_va_list@G_J@?$positional_parameter_base@DV?$string_output_adapter@D@__crt_stdio_output@@@__crt_stdio_output@@IEAA_NAEA_J@Z 0000000180058f80 f i libucrtd:output.obj
 0001:00058100       ??$extract_argument_from_va_list@G_J@?$positional_parameter_base@_WV?$stream_output_adapter@_W@__crt_stdio_output@@@__crt_stdio_output@@IEAA_NAEA_J@Z 0000000180059100 f i libucrtd:output.obj
 0001:00058280       ??$extract_argument_from_va_list@G_J@?$positional_parameter_base@_WV?$string_output_adapter@_W@__crt_stdio_output@@@__crt_stdio_output@@IEAA_NAEA_J@Z 0000000180059280 f i libucrtd:output.obj
 0001:00058400       ??$extract_argument_from_va_list@G_J@?$standard_base@DV?$stream_output_adapter@D@__crt_stdio_output@@@__crt_stdio_output@@IEAA_NAEA_J@Z 0000000180059400 f i libucrtd:output.obj
 0001:00058440       ??$extract_argument_from_va_list@G_J@?$standard_base@DV?$string_output_adapter@D@__crt_stdio_output@@@__crt_stdio_output@@IEAA_NAEA_J@Z 0000000180059440 f i libucrtd:output.obj
 0001:00058480       ??$extract_argument_from_va_list@G_J@?$standard_base@_WV?$stream_output_adapter@_W@__crt_stdio_output@@@__crt_stdio_output@@IEAA_NAEA_J@Z 0000000180059480 f i libucrtd:output.obj
 0001:000584c0       ??$extract_argument_from_va_list@G_J@?$standard_base@_WV?$string_output_adapter@_W@__crt_stdio_output@@@__crt_stdio_output@@IEAA_NAEA_J@Z 00000001800594c0 f i libucrtd:output.obj
 0001:00058500       ??$extract_argument_from_va_list@H_J@?$positional_parameter_base@DV?$stream_output_adapter@D@__crt_stdio_output@@@__crt_stdio_output@@IEAA_NAEA_J@Z 0000000180059500 f i libucrtd:output.obj
 0001:00058680       ??$extract_argument_from_va_list@H_J@?$positional_parameter_base@DV?$string_output_adapter@D@__crt_stdio_output@@@__crt_stdio_output@@IEAA_NAEA_J@Z 0000000180059680 f i libucrtd:output.obj
 0001:00058800       ??$extract_argument_from_va_list@H_J@?$positional_parameter_base@_WV?$stream_output_adapter@_W@__crt_stdio_output@@@__crt_stdio_output@@IEAA_NAEA_J@Z 0000000180059800 f i libucrtd:output.obj
 0001:00058980       ??$extract_argument_from_va_list@H_J@?$positional_parameter_base@_WV?$string_output_adapter@_W@__crt_stdio_output@@@__crt_stdio_output@@IEAA_NAEA_J@Z 0000000180059980 f i libucrtd:output.obj
 0001:00058b00       ??$extract_argument_from_va_list@H_J@?$standard_base@DV?$stream_output_adapter@D@__crt_stdio_output@@@__crt_stdio_output@@IEAA_NAEA_J@Z 0000000180059b00 f i libucrtd:output.obj
 0001:00058b30       ??$extract_argument_from_va_list@H_J@?$standard_base@DV?$string_output_adapter@D@__crt_stdio_output@@@__crt_stdio_output@@IEAA_NAEA_J@Z 0000000180059b30 f i libucrtd:output.obj
 0001:00058b60       ??$extract_argument_from_va_list@H_J@?$standard_base@_WV?$stream_output_adapter@_W@__crt_stdio_output@@@__crt_stdio_output@@IEAA_NAEA_J@Z 0000000180059b60 f i libucrtd:output.obj
 0001:00058b90       ??$extract_argument_from_va_list@H_J@?$standard_base@_WV?$string_output_adapter@_W@__crt_stdio_output@@@__crt_stdio_output@@IEAA_NAEA_J@Z 0000000180059b90 f i libucrtd:output.obj
 0001:00058bc0       ??$extract_argument_from_va_list@I_J@?$positional_parameter_base@DV?$stream_output_adapter@D@__crt_stdio_output@@@__crt_stdio_output@@IEAA_NAEA_J@Z 0000000180059bc0 f i libucrtd:output.obj
 0001:00058d40       ??$extract_argument_from_va_list@I_J@?$positional_parameter_base@DV?$string_output_adapter@D@__crt_stdio_output@@@__crt_stdio_output@@IEAA_NAEA_J@Z 0000000180059d40 f i libucrtd:output.obj
 0001:00058ec0       ??$extract_argument_from_va_list@I_J@?$positional_parameter_base@_WV?$stream_output_adapter@_W@__crt_stdio_output@@@__crt_stdio_output@@IEAA_NAEA_J@Z 0000000180059ec0 f i libucrtd:output.obj
 0001:00059040       ??$extract_argument_from_va_list@I_J@?$positional_parameter_base@_WV?$string_output_adapter@_W@__crt_stdio_output@@@__crt_stdio_output@@IEAA_NAEA_J@Z 000000018005a040 f i libucrtd:output.obj
 0001:000591c0       ??$extract_argument_from_va_list@I_J@?$standard_base@DV?$stream_output_adapter@D@__crt_stdio_output@@@__crt_stdio_output@@IEAA_NAEA_J@Z 000000018005a1c0 f i libucrtd:output.obj
 0001:000591f0       ??$extract_argument_from_va_list@I_J@?$standard_base@DV?$string_output_adapter@D@__crt_stdio_output@@@__crt_stdio_output@@IEAA_NAEA_J@Z 000000018005a1f0 f i libucrtd:output.obj
 0001:00059220       ??$extract_argument_from_va_list@I_J@?$standard_base@_WV?$stream_output_adapter@_W@__crt_stdio_output@@@__crt_stdio_output@@IEAA_NAEA_J@Z 000000018005a220 f i libucrtd:output.obj
 0001:00059250       ??$extract_argument_from_va_list@I_J@?$standard_base@_WV?$string_output_adapter@_W@__crt_stdio_output@@@__crt_stdio_output@@IEAA_NAEA_J@Z 000000018005a250 f i libucrtd:output.obj
 0001:00059280       ??$extract_argument_from_va_list@PEADPEAD@?$positional_parameter_base@DV?$stream_output_adapter@D@__crt_stdio_output@@@__crt_stdio_output@@IEAA_NAEAPEAD@Z 000000018005a280 f i libucrtd:output.obj
 0001:00059400       ??$extract_argument_from_va_list@PEADPEAD@?$positional_parameter_base@DV?$string_output_adapter@D@__crt_stdio_output@@@__crt_stdio_output@@IEAA_NAEAPEAD@Z 000000018005a400 f i libucrtd:output.obj
 0001:00059580       ??$extract_argument_from_va_list@PEADPEAD@?$positional_parameter_base@_WV?$stream_output_adapter@_W@__crt_stdio_output@@@__crt_stdio_output@@IEAA_NAEAPEAD@Z 000000018005a580 f i libucrtd:output.obj
 0001:00059700       ??$extract_argument_from_va_list@PEADPEAD@?$positional_parameter_base@_WV?$string_output_adapter@_W@__crt_stdio_output@@@__crt_stdio_output@@IEAA_NAEAPEAD@Z 000000018005a700 f i libucrtd:output.obj
 0001:00059880       ??$extract_argument_from_va_list@PEADPEAD@?$standard_base@DV?$stream_output_adapter@D@__crt_stdio_output@@@__crt_stdio_output@@IEAA_NAEAPEAD@Z 000000018005a880 f i libucrtd:output.obj
 0001:000598b0       ??$extract_argument_from_va_list@PEADPEAD@?$standard_base@DV?$string_output_adapter@D@__crt_stdio_output@@@__crt_stdio_output@@IEAA_NAEAPEAD@Z 000000018005a8b0 f i libucrtd:output.obj
 0001:000598e0       ??$extract_argument_from_va_list@PEADPEAD@?$standard_base@_WV?$stream_output_adapter@_W@__crt_stdio_output@@@__crt_stdio_output@@IEAA_NAEAPEAD@Z 000000018005a8e0 f i libucrtd:output.obj
 0001:00059910       ??$extract_argument_from_va_list@PEADPEAD@?$standard_base@_WV?$string_output_adapter@_W@__crt_stdio_output@@@__crt_stdio_output@@IEAA_NAEAPEAD@Z 000000018005a910 f i libucrtd:output.obj
 0001:00059940       ??$extract_argument_from_va_list@PEAUansi_string@?1??type_case_Z@?$output_processor@DV?$stream_output_adapter@D@__crt_stdio_output@@V?$format_validation_base@DV?$stream_output_adapter@D@__crt_stdio_output@@@2@@__crt_stdio_output@@AEAA_NXZ@PEAU1?1??234@AEAA_NXZ@@?$standard_base@DV?$stream_output_adapter@D@__crt_stdio_output@@@__crt_stdio_output@@IEAA_NAEAPEAUansi_string@?1??type_case_Z@?$output_processor@DV?$stream_output_adapter@D@__crt_stdio_output@@V?$format_validation_base@DV?$stream_output_adapter@D@__crt_stdio_output@@@2@@1@AEAA_NXZ@@Z 000000018005a940 f i libucrtd:output.obj
 0001:00059970       ??$extract_argument_from_va_list@PEAUansi_string@?1??type_case_Z@?$output_processor@DV?$stream_output_adapter@D@__crt_stdio_output@@V?$positional_parameter_base@DV?$stream_output_adapter@D@__crt_stdio_output@@@2@@__crt_stdio_output@@AEAA_NXZ@PEAU1?1??234@AEAA_NXZ@@?$positional_parameter_base@DV?$stream_output_adapter@D@__crt_stdio_output@@@__crt_stdio_output@@IEAA_NAEAPEAUansi_string@?1??type_case_Z@?$output_processor@DV?$stream_output_adapter@D@__crt_stdio_output@@V?$positional_parameter_base@DV?$stream_output_adapter@D@__crt_stdio_output@@@2@@1@AEAA_NXZ@@Z 000000018005a970 f i libucrtd:output.obj
 0001:00059af0       ??$extract_argument_from_va_list@PEAUansi_string@?1??type_case_Z@?$output_processor@DV?$stream_output_adapter@D@__crt_stdio_output@@V?$positional_parameter_base@DV?$stream_output_adapter@D@__crt_stdio_output@@@2@@__crt_stdio_output@@AEAA_NXZ@PEAU1?1??234@AEAA_NXZ@@?$standard_base@DV?$stream_output_adapter@D@__crt_stdio_output@@@__crt_stdio_output@@IEAA_NAEAPEAUansi_string@?1??type_case_Z@?$output_processor@DV?$stream_output_adapter@D@__crt_stdio_output@@V?$positional_parameter_base@DV?$stream_output_adapter@D@__crt_stdio_output@@@2@@1@AEAA_NXZ@@Z 000000018005aaf0 f i libucrtd:output.obj
 0001:00059b20       ??$extract_argument_from_va_list@PEAUansi_string@?1??type_case_Z@?$output_processor@DV?$stream_output_adapter@D@__crt_stdio_output@@V?$standard_base@DV?$stream_output_adapter@D@__crt_stdio_output@@@2@@__crt_stdio_output@@AEAA_NXZ@PEAU1?1??234@AEAA_NXZ@@?$standard_base@DV?$stream_output_adapter@D@__crt_stdio_output@@@__crt_stdio_output@@IEAA_NAEAPEAUansi_string@?1??type_case_Z@?$output_processor@DV?$stream_output_adapter@D@__crt_stdio_output@@V?$standard_base@DV?$stream_output_adapter@D@__crt_stdio_output@@@2@@1@AEAA_NXZ@@Z 000000018005ab20 f i libucrtd:output.obj
 0001:00059b50       ??$extract_argument_from_va_list@PEAUansi_string@?1??type_case_Z@?$output_processor@DV?$string_output_adapter@D@__crt_stdio_output@@V?$format_validation_base@DV?$string_output_adapter@D@__crt_stdio_output@@@2@@__crt_stdio_output@@AEAA_NXZ@PEAU1?1??234@AEAA_NXZ@@?$standard_base@DV?$string_output_adapter@D@__crt_stdio_output@@@__crt_stdio_output@@IEAA_NAEAPEAUansi_string@?1??type_case_Z@?$output_processor@DV?$string_output_adapter@D@__crt_stdio_output@@V?$format_validation_base@DV?$string_output_adapter@D@__crt_stdio_output@@@2@@1@AEAA_NXZ@@Z 000000018005ab50 f i libucrtd:output.obj
 0001:00059b80       ??$extract_argument_from_va_list@PEAUansi_string@?1??type_case_Z@?$output_processor@DV?$string_output_adapter@D@__crt_stdio_output@@V?$positional_parameter_base@DV?$string_output_adapter@D@__crt_stdio_output@@@2@@__crt_stdio_output@@AEAA_NXZ@PEAU1?1??234@AEAA_NXZ@@?$positional_parameter_base@DV?$string_output_adapter@D@__crt_stdio_output@@@__crt_stdio_output@@IEAA_NAEAPEAUansi_string@?1??type_case_Z@?$output_processor@DV?$string_output_adapter@D@__crt_stdio_output@@V?$positional_parameter_base@DV?$string_output_adapter@D@__crt_stdio_output@@@2@@1@AEAA_NXZ@@Z 000000018005ab80 f i libucrtd:output.obj
 0001:00059d00       ??$extract_argument_from_va_list@PEAUansi_string@?1??type_case_Z@?$output_processor@DV?$string_output_adapter@D@__crt_stdio_output@@V?$positional_parameter_base@DV?$string_output_adapter@D@__crt_stdio_output@@@2@@__crt_stdio_output@@AEAA_NXZ@PEAU1?1??234@AEAA_NXZ@@?$standard_base@DV?$string_output_adapter@D@__crt_stdio_output@@@__crt_stdio_output@@IEAA_NAEAPEAUansi_string@?1??type_case_Z@?$output_processor@DV?$string_output_adapter@D@__crt_stdio_output@@V?$positional_parameter_base@DV?$string_output_adapter@D@__crt_stdio_output@@@2@@1@AEAA_NXZ@@Z 000000018005ad00 f i libucrtd:output.obj
 0001:00059d30       ??$extract_argument_from_va_list@PEAUansi_string@?1??type_case_Z@?$output_processor@DV?$string_output_adapter@D@__crt_stdio_output@@V?$standard_base@DV?$string_output_adapter@D@__crt_stdio_output@@@2@@__crt_stdio_output@@AEAA_NXZ@PEAU1?1??234@AEAA_NXZ@@?$standard_base@DV?$string_output_adapter@D@__crt_stdio_output@@@__crt_stdio_output@@IEAA_NAEAPEAUansi_string@?1??type_case_Z@?$output_processor@DV?$string_output_adapter@D@__crt_stdio_output@@V?$standard_base@DV?$string_output_adapter@D@__crt_stdio_output@@@2@@1@AEAA_NXZ@@Z 000000018005ad30 f i libucrtd:output.obj
 0001:00059d60       ??$extract_argument_from_va_list@PEAUansi_string@?1??type_case_Z@?$output_processor@_WV?$stream_output_adapter@_W@__crt_stdio_output@@V?$format_validation_base@_WV?$stream_output_adapter@_W@__crt_stdio_output@@@2@@__crt_stdio_output@@AEAA_NXZ@PEAU1?1??234@AEAA_NXZ@@?$standard_base@_WV?$stream_output_adapter@_W@__crt_stdio_output@@@__crt_stdio_output@@IEAA_NAEAPEAUansi_string@?1??type_case_Z@?$output_processor@_WV?$stream_output_adapter@_W@__crt_stdio_output@@V?$format_validation_base@_WV?$stream_output_adapter@_W@__crt_stdio_output@@@2@@1@AEAA_NXZ@@Z 000000018005ad60 f i libucrtd:output.obj
 0001:00059d90       ??$extract_argument_from_va_list@PEAUansi_string@?1??type_case_Z@?$output_processor@_WV?$stream_output_adapter@_W@__crt_stdio_output@@V?$positional_parameter_base@_WV?$stream_output_adapter@_W@__crt_stdio_output@@@2@@__crt_stdio_output@@AEAA_NXZ@PEAU1?1??234@AEAA_NXZ@@?$positional_parameter_base@_WV?$stream_output_adapter@_W@__crt_stdio_output@@@__crt_stdio_output@@IEAA_NAEAPEAUansi_string@?1??type_case_Z@?$output_processor@_WV?$stream_output_adapter@_W@__crt_stdio_output@@V?$positional_parameter_base@_WV?$stream_output_adapter@_W@__crt_stdio_output@@@2@@1@AEAA_NXZ@@Z 000000018005ad90 f i libucrtd:output.obj
 0001:00059f10       ??$extract_argument_from_va_list@PEAUansi_string@?1??type_case_Z@?$output_processor@_WV?$stream_output_adapter@_W@__crt_stdio_output@@V?$positional_parameter_base@_WV?$stream_output_adapter@_W@__crt_stdio_output@@@2@@__crt_stdio_output@@AEAA_NXZ@PEAU1?1??234@AEAA_NXZ@@?$standard_base@_WV?$stream_output_adapter@_W@__crt_stdio_output@@@__crt_stdio_output@@IEAA_NAEAPEAUansi_string@?1??type_case_Z@?$output_processor@_WV?$stream_output_adapter@_W@__crt_stdio_output@@V?$positional_parameter_base@_WV?$stream_output_adapter@_W@__crt_stdio_output@@@2@@1@AEAA_NXZ@@Z 000000018005af10 f i libucrtd:output.obj
 0001:00059f40       ??$extract_argument_from_va_list@PEAUansi_string@?1??type_case_Z@?$output_processor@_WV?$stream_output_adapter@_W@__crt_stdio_output@@V?$standard_base@_WV?$stream_output_adapter@_W@__crt_stdio_output@@@2@@__crt_stdio_output@@AEAA_NXZ@PEAU1?1??234@AEAA_NXZ@@?$standard_base@_WV?$stream_output_adapter@_W@__crt_stdio_output@@@__crt_stdio_output@@IEAA_NAEAPEAUansi_string@?1??type_case_Z@?$output_processor@_WV?$stream_output_adapter@_W@__crt_stdio_output@@V?$standard_base@_WV?$stream_output_adapter@_W@__crt_stdio_output@@@2@@1@AEAA_NXZ@@Z 000000018005af40 f i libucrtd:output.obj
 0001:00059f70       ??$extract_argument_from_va_list@PEAUansi_string@?1??type_case_Z@?$output_processor@_WV?$string_output_adapter@_W@__crt_stdio_output@@V?$format_validation_base@_WV?$string_output_adapter@_W@__crt_stdio_output@@@2@@__crt_stdio_output@@AEAA_NXZ@PEAU1?1??234@AEAA_NXZ@@?$standard_base@_WV?$string_output_adapter@_W@__crt_stdio_output@@@__crt_stdio_output@@IEAA_NAEAPEAUansi_string@?1??type_case_Z@?$output_processor@_WV?$string_output_adapter@_W@__crt_stdio_output@@V?$format_validation_base@_WV?$string_output_adapter@_W@__crt_stdio_output@@@2@@1@AEAA_NXZ@@Z 000000018005af70 f i libucrtd:output.obj
 0001:00059fa0       ??$extract_argument_from_va_list@PEAUansi_string@?1??type_case_Z@?$output_processor@_WV?$string_output_adapter@_W@__crt_stdio_output@@V?$positional_parameter_base@_WV?$string_output_adapter@_W@__crt_stdio_output@@@2@@__crt_stdio_output@@AEAA_NXZ@PEAU1?1??234@AEAA_NXZ@@?$positional_parameter_base@_WV?$string_output_adapter@_W@__crt_stdio_output@@@__crt_stdio_output@@IEAA_NAEAPEAUansi_string@?1??type_case_Z@?$output_processor@_WV?$string_output_adapter@_W@__crt_stdio_output@@V?$positional_parameter_base@_WV?$string_output_adapter@_W@__crt_stdio_output@@@2@@1@AEAA_NXZ@@Z 000000018005afa0 f i libucrtd:output.obj
 0001:0005a120       ??$extract_argument_from_va_list@PEAUansi_string@?1??type_case_Z@?$output_processor@_WV?$string_output_adapter@_W@__crt_stdio_output@@V?$positional_parameter_base@_WV?$string_output_adapter@_W@__crt_stdio_output@@@2@@__crt_stdio_output@@AEAA_NXZ@PEAU1?1??234@AEAA_NXZ@@?$standard_base@_WV?$string_output_adapter@_W@__crt_stdio_output@@@__crt_stdio_output@@IEAA_NAEAPEAUansi_string@?1??type_case_Z@?$output_processor@_WV?$string_output_adapter@_W@__crt_stdio_output@@V?$positional_parameter_base@_WV?$string_output_adapter@_W@__crt_stdio_output@@@2@@1@AEAA_NXZ@@Z 000000018005b120 f i libucrtd:output.obj
 0001:0005a150       ??$extract_argument_from_va_list@PEAUansi_string@?1??type_case_Z@?$output_processor@_WV?$string_output_adapter@_W@__crt_stdio_output@@V?$standard_base@_WV?$string_output_adapter@_W@__crt_stdio_output@@@2@@__crt_stdio_output@@AEAA_NXZ@PEAU1?1??234@AEAA_NXZ@@?$standard_base@_WV?$string_output_adapter@_W@__crt_stdio_output@@@__crt_stdio_output@@IEAA_NAEAPEAUansi_string@?1??type_case_Z@?$output_processor@_WV?$string_output_adapter@_W@__crt_stdio_output@@V?$standard_base@_WV?$string_output_adapter@_W@__crt_stdio_output@@@2@@1@AEAA_NXZ@@Z 000000018005b150 f i libucrtd:output.obj
 0001:0005a180       ??$extract_argument_from_va_list@PEAXPEAX@?$positional_parameter_base@DV?$stream_output_adapter@D@__crt_stdio_output@@@__crt_stdio_output@@IEAA_NAEAPEAX@Z 000000018005b180 f i libucrtd:output.obj
 0001:0005a300       ??$extract_argument_from_va_list@PEAXPEAX@?$positional_parameter_base@DV?$string_output_adapter@D@__crt_stdio_output@@@__crt_stdio_output@@IEAA_NAEAPEAX@Z 000000018005b300 f i libucrtd:output.obj
 0001:0005a480       ??$extract_argument_from_va_list@PEAXPEAX@?$positional_parameter_base@_WV?$stream_output_adapter@_W@__crt_stdio_output@@@__crt_stdio_output@@IEAA_NAEAPEAX@Z 000000018005b480 f i libucrtd:output.obj
 0001:0005a600       ??$extract_argument_from_va_list@PEAXPEAX@?$positional_parameter_base@_WV?$string_output_adapter@_W@__crt_stdio_output@@@__crt_stdio_output@@IEAA_NAEAPEAX@Z 000000018005b600 f i libucrtd:output.obj
 0001:0005a780       ??$extract_argument_from_va_list@PEAXPEAX@?$standard_base@DV?$stream_output_adapter@D@__crt_stdio_output@@@__crt_stdio_output@@IEAA_NAEAPEAX@Z 000000018005b780 f i libucrtd:output.obj
 0001:0005a7b0       ??$extract_argument_from_va_list@PEAXPEAX@?$standard_base@DV?$string_output_adapter@D@__crt_stdio_output@@@__crt_stdio_output@@IEAA_NAEAPEAX@Z 000000018005b7b0 f i libucrtd:output.obj
 0001:0005a7e0       ??$extract_argument_from_va_list@PEAXPEAX@?$standard_base@_WV?$stream_output_adapter@_W@__crt_stdio_output@@@__crt_stdio_output@@IEAA_NAEAPEAX@Z 000000018005b7e0 f i libucrtd:output.obj
 0001:0005a810       ??$extract_argument_from_va_list@PEAXPEAX@?$standard_base@_WV?$string_output_adapter@_W@__crt_stdio_output@@@__crt_stdio_output@@IEAA_NAEAPEAX@Z 000000018005b810 f i libucrtd:output.obj
 0001:0005a840       ??$extract_argument_from_va_list@U_CRT_DOUBLE@@U1@@?$positional_parameter_base@DV?$stream_output_adapter@D@__crt_stdio_output@@@__crt_stdio_output@@IEAA_NAEAU_CRT_DOUBLE@@@Z 000000018005b840 f i libucrtd:output.obj
 0001:0005a9e0       ??$extract_argument_from_va_list@U_CRT_DOUBLE@@U1@@?$positional_parameter_base@DV?$string_output_adapter@D@__crt_stdio_output@@@__crt_stdio_output@@IEAA_NAEAU_CRT_DOUBLE@@@Z 000000018005b9e0 f i libucrtd:output.obj
 0001:0005ab80       ??$extract_argument_from_va_list@U_CRT_DOUBLE@@U1@@?$positional_parameter_base@_WV?$stream_output_adapter@_W@__crt_stdio_output@@@__crt_stdio_output@@IEAA_NAEAU_CRT_DOUBLE@@@Z 000000018005bb80 f i libucrtd:output.obj
 0001:0005ad20       ??$extract_argument_from_va_list@U_CRT_DOUBLE@@U1@@?$positional_parameter_base@_WV?$string_output_adapter@_W@__crt_stdio_output@@@__crt_stdio_output@@IEAA_NAEAU_CRT_DOUBLE@@@Z 000000018005bd20 f i libucrtd:output.obj
 0001:0005aec0       ??$extract_argument_from_va_list@U_CRT_DOUBLE@@U1@@?$standard_base@DV?$stream_output_adapter@D@__crt_stdio_output@@@__crt_stdio_output@@IEAA_NAEAU_CRT_DOUBLE@@@Z 000000018005bec0 f i libucrtd:output.obj
 0001:0005af10       ??$extract_argument_from_va_list@U_CRT_DOUBLE@@U1@@?$standard_base@DV?$string_output_adapter@D@__crt_stdio_output@@@__crt_stdio_output@@IEAA_NAEAU_CRT_DOUBLE@@@Z 000000018005bf10 f i libucrtd:output.obj
 0001:0005af60       ??$extract_argument_from_va_list@U_CRT_DOUBLE@@U1@@?$standard_base@_WV?$stream_output_adapter@_W@__crt_stdio_output@@@__crt_stdio_output@@IEAA_NAEAU_CRT_DOUBLE@@@Z 000000018005bf60 f i libucrtd:output.obj
 0001:0005afb0       ??$extract_argument_from_va_list@U_CRT_DOUBLE@@U1@@?$standard_base@_WV?$string_output_adapter@_W@__crt_stdio_output@@@__crt_stdio_output@@IEAA_NAEAU_CRT_DOUBLE@@@Z 000000018005bfb0 f i libucrtd:output.obj
 0001:0005b000       ??$extract_argument_from_va_list@_J_J@?$positional_parameter_base@DV?$stream_output_adapter@D@__crt_stdio_output@@@__crt_stdio_output@@IEAA_NAEA_J@Z 000000018005c000 f i libucrtd:output.obj
 0001:0005b180       ??$extract_argument_from_va_list@_J_J@?$positional_parameter_base@DV?$string_output_adapter@D@__crt_stdio_output@@@__crt_stdio_output@@IEAA_NAEA_J@Z 000000018005c180 f i libucrtd:output.obj
 0001:0005b300       ??$extract_argument_from_va_list@_J_J@?$positional_parameter_base@_WV?$stream_output_adapter@_W@__crt_stdio_output@@@__crt_stdio_output@@IEAA_NAEA_J@Z 000000018005c300 f i libucrtd:output.obj
 0001:0005b480       ??$extract_argument_from_va_list@_J_J@?$positional_parameter_base@_WV?$string_output_adapter@_W@__crt_stdio_output@@@__crt_stdio_output@@IEAA_NAEA_J@Z 000000018005c480 f i libucrtd:output.obj
 0001:0005b600       ??$extract_argument_from_va_list@_J_J@?$standard_base@DV?$stream_output_adapter@D@__crt_stdio_output@@@__crt_stdio_output@@IEAA_NAEA_J@Z 000000018005c600 f i libucrtd:output.obj
 0001:0005b630       ??$extract_argument_from_va_list@_J_J@?$standard_base@DV?$string_output_adapter@D@__crt_stdio_output@@@__crt_stdio_output@@IEAA_NAEA_J@Z 000000018005c630 f i libucrtd:output.obj
 0001:0005b660       ??$extract_argument_from_va_list@_J_J@?$standard_base@_WV?$stream_output_adapter@_W@__crt_stdio_output@@@__crt_stdio_output@@IEAA_NAEA_J@Z 000000018005c660 f i libucrtd:output.obj
 0001:0005b690       ??$extract_argument_from_va_list@_J_J@?$standard_base@_WV?$string_output_adapter@_W@__crt_stdio_output@@@__crt_stdio_output@@IEAA_NAEA_J@Z 000000018005c690 f i libucrtd:output.obj
 0001:0005b6c0       ??$extract_argument_from_va_list@_K_J@?$positional_parameter_base@DV?$stream_output_adapter@D@__crt_stdio_output@@@__crt_stdio_output@@IEAA_NAEA_J@Z 000000018005c6c0 f i libucrtd:output.obj
 0001:0005b840       ??$extract_argument_from_va_list@_K_J@?$positional_parameter_base@DV?$string_output_adapter@D@__crt_stdio_output@@@__crt_stdio_output@@IEAA_NAEA_J@Z 000000018005c840 f i libucrtd:output.obj
 0001:0005b9c0       ??$extract_argument_from_va_list@_K_J@?$positional_parameter_base@_WV?$stream_output_adapter@_W@__crt_stdio_output@@@__crt_stdio_output@@IEAA_NAEA_J@Z 000000018005c9c0 f i libucrtd:output.obj
 0001:0005bb40       ??$extract_argument_from_va_list@_K_J@?$positional_parameter_base@_WV?$string_output_adapter@_W@__crt_stdio_output@@@__crt_stdio_output@@IEAA_NAEA_J@Z 000000018005cb40 f i libucrtd:output.obj
 0001:0005bcc0       ??$extract_argument_from_va_list@_K_J@?$standard_base@DV?$stream_output_adapter@D@__crt_stdio_output@@@__crt_stdio_output@@IEAA_NAEA_J@Z 000000018005ccc0 f i libucrtd:output.obj
 0001:0005bcf0       ??$extract_argument_from_va_list@_K_J@?$standard_base@DV?$string_output_adapter@D@__crt_stdio_output@@@__crt_stdio_output@@IEAA_NAEA_J@Z 000000018005ccf0 f i libucrtd:output.obj
 0001:0005bd20       ??$extract_argument_from_va_list@_K_J@?$standard_base@_WV?$stream_output_adapter@_W@__crt_stdio_output@@@__crt_stdio_output@@IEAA_NAEA_J@Z 000000018005cd20 f i libucrtd:output.obj
 0001:0005bd50       ??$extract_argument_from_va_list@_K_J@?$standard_base@_WV?$string_output_adapter@_W@__crt_stdio_output@@@__crt_stdio_output@@IEAA_NAEA_J@Z 000000018005cd50 f i libucrtd:output.obj
 0001:0005bd80       ??$extract_argument_from_va_list@_W_W@?$positional_parameter_base@DV?$stream_output_adapter@D@__crt_stdio_output@@@__crt_stdio_output@@IEAA_NAEA_W@Z 000000018005cd80 f i libucrtd:output.obj
 0001:0005bf00       ??$extract_argument_from_va_list@_W_W@?$positional_parameter_base@DV?$string_output_adapter@D@__crt_stdio_output@@@__crt_stdio_output@@IEAA_NAEA_W@Z 000000018005cf00 f i libucrtd:output.obj
 0001:0005c080       ??$extract_argument_from_va_list@_W_W@?$positional_parameter_base@_WV?$stream_output_adapter@_W@__crt_stdio_output@@@__crt_stdio_output@@IEAA_NAEA_W@Z 000000018005d080 f i libucrtd:output.obj
 0001:0005c200       ??$extract_argument_from_va_list@_W_W@?$positional_parameter_base@_WV?$string_output_adapter@_W@__crt_stdio_output@@@__crt_stdio_output@@IEAA_NAEA_W@Z 000000018005d200 f i libucrtd:output.obj
 0001:0005c380       ??$extract_argument_from_va_list@_W_W@?$standard_base@DV?$stream_output_adapter@D@__crt_stdio_output@@@__crt_stdio_output@@IEAA_NAEA_W@Z 000000018005d380 f i libucrtd:output.obj
 0001:0005c3b0       ??$extract_argument_from_va_list@_W_W@?$standard_base@DV?$string_output_adapter@D@__crt_stdio_output@@@__crt_stdio_output@@IEAA_NAEA_W@Z 000000018005d3b0 f i libucrtd:output.obj
 0001:0005c3e0       ??$extract_argument_from_va_list@_W_W@?$standard_base@_WV?$stream_output_adapter@_W@__crt_stdio_output@@@__crt_stdio_output@@IEAA_NAEA_W@Z 000000018005d3e0 f i libucrtd:output.obj
 0001:0005c410       ??$extract_argument_from_va_list@_W_W@?$standard_base@_WV?$string_output_adapter@_W@__crt_stdio_output@@@__crt_stdio_output@@IEAA_NAEA_W@Z 000000018005d410 f i libucrtd:output.obj
 0001:0005c440       ??$get_parameter_type@D@?$positional_parameter_base@DV?$stream_output_adapter@D@__crt_stdio_output@@@__crt_stdio_output@@CA?AW4parameter_type@01@PEAD@Z 000000018005d440 f i libucrtd:output.obj
 0001:0005c450       ??$get_parameter_type@D@?$positional_parameter_base@DV?$string_output_adapter@D@__crt_stdio_output@@@__crt_stdio_output@@CA?AW4parameter_type@01@PEAD@Z 000000018005d450 f i libucrtd:output.obj
 0001:0005c460       ??$get_parameter_type@D@?$positional_parameter_base@_WV?$stream_output_adapter@_W@__crt_stdio_output@@@__crt_stdio_output@@CA?AW4parameter_type@01@PEAD@Z 000000018005d460 f i libucrtd:output.obj
 0001:0005c470       ??$get_parameter_type@D@?$positional_parameter_base@_WV?$string_output_adapter@_W@__crt_stdio_output@@@__crt_stdio_output@@CA?AW4parameter_type@01@PEAD@Z 000000018005d470 f i libucrtd:output.obj
 0001:0005c480       ??$get_parameter_type@Uansi_string@?1??type_case_Z@?$output_processor@DV?$stream_output_adapter@D@__crt_stdio_output@@V?$positional_parameter_base@DV?$stream_output_adapter@D@__crt_stdio_output@@@2@@__crt_stdio_output@@AEAA_NXZ@@?$positional_parameter_base@DV?$stream_output_adapter@D@__crt_stdio_output@@@__crt_stdio_output@@CA?AW4parameter_type@01@PEAUansi_string@?1??type_case_Z@?$output_processor@DV?$stream_output_adapter@D@__crt_stdio_output@@V?$positional_parameter_base@DV?$stream_output_adapter@D@__crt_stdio_output@@@2@@1@AEAA_NXZ@@Z 000000018005d480 f i libucrtd:output.obj
 0001:0005c490       ??$get_parameter_type@Uansi_string@?1??type_case_Z@?$output_processor@DV?$string_output_adapter@D@__crt_stdio_output@@V?$positional_parameter_base@DV?$string_output_adapter@D@__crt_stdio_output@@@2@@__crt_stdio_output@@AEAA_NXZ@@?$positional_parameter_base@DV?$string_output_adapter@D@__crt_stdio_output@@@__crt_stdio_output@@CA?AW4parameter_type@01@PEAUansi_string@?1??type_case_Z@?$output_processor@DV?$string_output_adapter@D@__crt_stdio_output@@V?$positional_parameter_base@DV?$string_output_adapter@D@__crt_stdio_output@@@2@@1@AEAA_NXZ@@Z 000000018005d490 f i libucrtd:output.obj
 0001:0005c4a0       ??$get_parameter_type@Uansi_string@?1??type_case_Z@?$output_processor@_WV?$stream_output_adapter@_W@__crt_stdio_output@@V?$positional_parameter_base@_WV?$stream_output_adapter@_W@__crt_stdio_output@@@2@@__crt_stdio_output@@AEAA_NXZ@@?$positional_parameter_base@_WV?$stream_output_adapter@_W@__crt_stdio_output@@@__crt_stdio_output@@CA?AW4parameter_type@01@PEAUansi_string@?1??type_case_Z@?$output_processor@_WV?$stream_output_adapter@_W@__crt_stdio_output@@V?$positional_parameter_base@_WV?$stream_output_adapter@_W@__crt_stdio_output@@@2@@1@AEAA_NXZ@@Z 000000018005d4a0 f i libucrtd:output.obj
 0001:0005c4b0       ??$get_parameter_type@Uansi_string@?1??type_case_Z@?$output_processor@_WV?$string_output_adapter@_W@__crt_stdio_output@@V?$positional_parameter_base@_WV?$string_output_adapter@_W@__crt_stdio_output@@@2@@__crt_stdio_output@@AEAA_NXZ@@?$positional_parameter_base@_WV?$string_output_adapter@_W@__crt_stdio_output@@@__crt_stdio_output@@CA?AW4parameter_type@01@PEAUansi_string@?1??type_case_Z@?$output_processor@_WV?$string_output_adapter@_W@__crt_stdio_output@@V?$positional_parameter_base@_WV?$string_output_adapter@_W@__crt_stdio_output@@@2@@1@AEAA_NXZ@@Z 000000018005d4b0 f i libucrtd:output.obj
 0001:0005c4c0       ??$get_parameter_type@X@?$positional_parameter_base@DV?$stream_output_adapter@D@__crt_stdio_output@@@__crt_stdio_output@@CA?AW4parameter_type@01@PEAX@Z 000000018005d4c0 f i libucrtd:output.obj
 0001:0005c4d0       ??$get_parameter_type@X@?$positional_parameter_base@DV?$string_output_adapter@D@__crt_stdio_output@@@__crt_stdio_output@@CA?AW4parameter_type@01@PEAX@Z 000000018005d4d0 f i libucrtd:output.obj
 0001:0005c4e0       ??$get_parameter_type@X@?$positional_parameter_base@_WV?$stream_output_adapter@_W@__crt_stdio_output@@@__crt_stdio_output@@CA?AW4parameter_type@01@PEAX@Z 000000018005d4e0 f i libucrtd:output.obj
 0001:0005c4f0       ??$get_parameter_type@X@?$positional_parameter_base@_WV?$string_output_adapter@_W@__crt_stdio_output@@@__crt_stdio_output@@CA?AW4parameter_type@01@PEAX@Z 000000018005d4f0 f i libucrtd:output.obj
 0001:0005c500       ??$is_character_specifier@D@?$positional_parameter_base@DV?$stream_output_adapter@D@__crt_stdio_output@@@__crt_stdio_output@@CA_ND@Z 000000018005d500 f i libucrtd:output.obj
 0001:0005c540       ??$is_character_specifier@D@?$positional_parameter_base@DV?$string_output_adapter@D@__crt_stdio_output@@@__crt_stdio_output@@CA_ND@Z 000000018005d540 f i libucrtd:output.obj
 0001:0005c580       ??$is_character_specifier@_W@?$positional_parameter_base@_WV?$stream_output_adapter@_W@__crt_stdio_output@@@__crt_stdio_output@@CA_N_W@Z 000000018005d580 f i libucrtd:output.obj
 0001:0005c5c0       ??$is_character_specifier@_W@?$positional_parameter_base@_WV?$string_output_adapter@_W@__crt_stdio_output@@@__crt_stdio_output@@CA_N_W@Z 000000018005d5c0 f i libucrtd:output.obj
 0001:0005c600       ??$is_integral_specifier@D@?$positional_parameter_base@DV?$stream_output_adapter@D@__crt_stdio_output@@@__crt_stdio_output@@CA_ND@Z 000000018005d600 f i libucrtd:output.obj
 0001:0005c670       ??$is_integral_specifier@D@?$positional_parameter_base@DV?$string_output_adapter@D@__crt_stdio_output@@@__crt_stdio_output@@CA_ND@Z 000000018005d670 f i libucrtd:output.obj
 0001:0005c6e0       ??$is_integral_specifier@_W@?$positional_parameter_base@_WV?$stream_output_adapter@_W@__crt_stdio_output@@@__crt_stdio_output@@CA_N_W@Z 000000018005d6e0 f i libucrtd:output.obj
 0001:0005c750       ??$is_integral_specifier@_W@?$positional_parameter_base@_WV?$string_output_adapter@_W@__crt_stdio_output@@@__crt_stdio_output@@CA_N_W@Z 000000018005d750 f i libucrtd:output.obj
 0001:0005c7c0       ??$is_pointer_specifier@D@?$positional_parameter_base@DV?$stream_output_adapter@D@__crt_stdio_output@@@__crt_stdio_output@@CA_ND@Z 000000018005d7c0 f i libucrtd:output.obj
 0001:0005c7f0       ??$is_pointer_specifier@D@?$positional_parameter_base@DV?$string_output_adapter@D@__crt_stdio_output@@@__crt_stdio_output@@CA_ND@Z 000000018005d7f0 f i libucrtd:output.obj
 0001:0005c820       ??$is_pointer_specifier@_W@?$positional_parameter_base@_WV?$stream_output_adapter@_W@__crt_stdio_output@@@__crt_stdio_output@@CA_N_W@Z 000000018005d820 f i libucrtd:output.obj
 0001:0005c850       ??$is_pointer_specifier@_W@?$positional_parameter_base@_WV?$string_output_adapter@_W@__crt_stdio_output@@@__crt_stdio_output@@CA_N_W@Z 000000018005d850 f i libucrtd:output.obj
 0001:0005c880       ??$is_string_specifier@D@?$positional_parameter_base@DV?$stream_output_adapter@D@__crt_stdio_output@@@__crt_stdio_output@@CA_ND@Z 000000018005d880 f i libucrtd:output.obj
 0001:0005c8c0       ??$is_string_specifier@D@?$positional_parameter_base@DV?$string_output_adapter@D@__crt_stdio_output@@@__crt_stdio_output@@CA_ND@Z 000000018005d8c0 f i libucrtd:output.obj
 0001:0005c900       ??$is_string_specifier@_W@?$positional_parameter_base@_WV?$stream_output_adapter@_W@__crt_stdio_output@@@__crt_stdio_output@@CA_N_W@Z 000000018005d900 f i libucrtd:output.obj
 0001:0005c940       ??$is_string_specifier@_W@?$positional_parameter_base@_WV?$string_output_adapter@_W@__crt_stdio_output@@@__crt_stdio_output@@CA_N_W@Z 000000018005d940 f i libucrtd:output.obj
 0001:0005c980       ??$is_wide_character_specifier@D@__crt_stdio_output@@YA_N_KDW4length_modifier@0@@Z 000000018005d980 f i libucrtd:output.obj
 0001:0005ca20       ??$is_wide_character_specifier@_W@__crt_stdio_output@@YA_N_K_WW4length_modifier@0@@Z 000000018005da20 f i libucrtd:output.obj
 0001:0005caf0       ??$peek_va_arg@C@__crt_stdio_output@@YACPEAD@Z 000000018005daf0 f i libucrtd:output.obj
 0001:0005cb50       ??$peek_va_arg@E@__crt_stdio_output@@YAEPEAD@Z 000000018005db50 f i libucrtd:output.obj
 0001:0005cbb0       ??$peek_va_arg@F@__crt_stdio_output@@YAFPEAD@Z 000000018005dbb0 f i libucrtd:output.obj
 0001:0005cc10       ??$peek_va_arg@G@__crt_stdio_output@@YAGPEAD@Z 000000018005dc10 f i libucrtd:output.obj
 0001:0005cc70       ??$peek_va_arg@H@__crt_stdio_output@@YAHPEAD@Z 000000018005dc70 f i libucrtd:output.obj
 0001:0005ccc0       ??$peek_va_arg@I@__crt_stdio_output@@YAIPEAD@Z 000000018005dcc0 f i libucrtd:output.obj
 0001:0005cd10       ??$peek_va_arg@PEAD@__crt_stdio_output@@YAPEADPEAD@Z 000000018005dd10 f i libucrtd:output.obj
 0001:0005cd70       ??$peek_va_arg@PEAUansi_string@?1??type_case_Z@?$output_processor@DV?$stream_output_adapter@D@__crt_stdio_output@@V?$positional_parameter_base@DV?$stream_output_adapter@D@__crt_stdio_output@@@2@@__crt_stdio_output@@AEAA_NXZ@@__crt_stdio_output@@YAPEAUansi_string@?1??type_case_Z@?$output_processor@DV?$stream_output_adapter@D@__crt_stdio_output@@V?$positional_parameter_base@DV?$stream_output_adapter@D@__crt_stdio_output@@@2@@0@AEAA_NXZ@PEAD@Z 000000018005dd70 f i libucrtd:output.obj
 0001:0005cdd0       ??$peek_va_arg@PEAUansi_string@?1??type_case_Z@?$output_processor@DV?$string_output_adapter@D@__crt_stdio_output@@V?$positional_parameter_base@DV?$string_output_adapter@D@__crt_stdio_output@@@2@@__crt_stdio_output@@AEAA_NXZ@@__crt_stdio_output@@YAPEAUansi_string@?1??type_case_Z@?$output_processor@DV?$string_output_adapter@D@__crt_stdio_output@@V?$positional_parameter_base@DV?$string_output_adapter@D@__crt_stdio_output@@@2@@0@AEAA_NXZ@PEAD@Z 000000018005ddd0 f i libucrtd:output.obj
 0001:0005ce30       ??$peek_va_arg@PEAUansi_string@?1??type_case_Z@?$output_processor@_WV?$stream_output_adapter@_W@__crt_stdio_output@@V?$positional_parameter_base@_WV?$stream_output_adapter@_W@__crt_stdio_output@@@2@@__crt_stdio_output@@AEAA_NXZ@@__crt_stdio_output@@YAPEAUansi_string@?1??type_case_Z@?$output_processor@_WV?$stream_output_adapter@_W@__crt_stdio_output@@V?$positional_parameter_base@_WV?$stream_output_adapter@_W@__crt_stdio_output@@@2@@0@AEAA_NXZ@PEAD@Z 000000018005de30 f i libucrtd:output.obj
 0001:0005ce90       ??$peek_va_arg@PEAUansi_string@?1??type_case_Z@?$output_processor@_WV?$string_output_adapter@_W@__crt_stdio_output@@V?$positional_parameter_base@_WV?$string_output_adapter@_W@__crt_stdio_output@@@2@@__crt_stdio_output@@AEAA_NXZ@@__crt_stdio_output@@YAPEAUansi_string@?1??type_case_Z@?$output_processor@_WV?$string_output_adapter@_W@__crt_stdio_output@@V?$positional_parameter_base@_WV?$string_output_adapter@_W@__crt_stdio_output@@@2@@0@AEAA_NXZ@PEAD@Z 000000018005de90 f i libucrtd:output.obj
 0001:0005cef0       ??$peek_va_arg@PEAX@__crt_stdio_output@@YAPEAXPEAD@Z 000000018005def0 f i libucrtd:output.obj
 0001:0005cf50       ??$peek_va_arg@U_CRT_DOUBLE@@@__crt_stdio_output@@YA?AU_CRT_DOUBLE@@PEAD@Z 000000018005df50 f i libucrtd:output.obj
 0001:0005cfb0       ??$peek_va_arg@_J@__crt_stdio_output@@YA_JPEAD@Z 000000018005dfb0 f i libucrtd:output.obj
 0001:0005d010       ??$peek_va_arg@_K@__crt_stdio_output@@YA_KPEAD@Z 000000018005e010 f i libucrtd:output.obj
 0001:0005d070       ??$peek_va_arg@_W@__crt_stdio_output@@YA_WPEAD@Z 000000018005e070 f i libucrtd:output.obj
 0001:0005d0d0       ??$puttc_nolock@AEBDPEAU_iobuf@@@?$__crt_char_traits@D@@SAHAEBD$$QEAPEAU_iobuf@@@Z 000000018005e0d0 f i libucrtd:output.obj
 0001:0005d100       ??$puttc_nolock@AEB_WPEAU_iobuf@@@?$__crt_char_traits@_W@@SAGAEB_W$$QEAPEAU_iobuf@@@Z 000000018005e100 f i libucrtd:output.obj
 0001:0005d130       ??$read_va_arg@C@__crt_stdio_output@@YACAEAPEAD@Z 000000018005e130 f i libucrtd:output.obj
 0001:0005d1a0       ??$read_va_arg@E@__crt_stdio_output@@YAEAEAPEAD@Z 000000018005e1a0 f i libucrtd:output.obj
 0001:0005d210       ??$read_va_arg@F@__crt_stdio_output@@YAFAEAPEAD@Z 000000018005e210 f i libucrtd:output.obj
 0001:0005d280       ??$read_va_arg@G@__crt_stdio_output@@YAGAEAPEAD@Z 000000018005e280 f i libucrtd:output.obj
 0001:0005d2f0       ??$read_va_arg@H@__crt_stdio_output@@YAHAEAPEAD@Z 000000018005e2f0 f i libucrtd:output.obj
 0001:0005d350       ??$read_va_arg@I@__crt_stdio_output@@YAIAEAPEAD@Z 000000018005e350 f i libucrtd:output.obj
 0001:0005d3b0       ??$read_va_arg@PEAD@__crt_stdio_output@@YAPEADAEAPEAD@Z 000000018005e3b0 f i libucrtd:output.obj
 0001:0005d420       ??$read_va_arg@PEAUansi_string@?1??type_case_Z@?$output_processor@DV?$stream_output_adapter@D@__crt_stdio_output@@V?$format_validation_base@DV?$stream_output_adapter@D@__crt_stdio_output@@@2@@__crt_stdio_output@@AEAA_NXZ@@__crt_stdio_output@@YAPEAUansi_string@?1??type_case_Z@?$output_processor@DV?$stream_output_adapter@D@__crt_stdio_output@@V?$format_validation_base@DV?$stream_output_adapter@D@__crt_stdio_output@@@2@@0@AEAA_NXZ@AEAPEAD@Z 000000018005e420 f i libucrtd:output.obj
 0001:0005d490       ??$read_va_arg@PEAUansi_string@?1??type_case_Z@?$output_processor@DV?$stream_output_adapter@D@__crt_stdio_output@@V?$positional_parameter_base@DV?$stream_output_adapter@D@__crt_stdio_output@@@2@@__crt_stdio_output@@AEAA_NXZ@@__crt_stdio_output@@YAPEAUansi_string@?1??type_case_Z@?$output_processor@DV?$stream_output_adapter@D@__crt_stdio_output@@V?$positional_parameter_base@DV?$stream_output_adapter@D@__crt_stdio_output@@@2@@0@AEAA_NXZ@AEAPEAD@Z 000000018005e490 f i libucrtd:output.obj
 0001:0005d500       ??$read_va_arg@PEAUansi_string@?1??type_case_Z@?$output_processor@DV?$stream_output_adapter@D@__crt_stdio_output@@V?$standard_base@DV?$stream_output_adapter@D@__crt_stdio_output@@@2@@__crt_stdio_output@@AEAA_NXZ@@__crt_stdio_output@@YAPEAUansi_string@?1??type_case_Z@?$output_processor@DV?$stream_output_adapter@D@__crt_stdio_output@@V?$standard_base@DV?$stream_output_adapter@D@__crt_stdio_output@@@2@@0@AEAA_NXZ@AEAPEAD@Z 000000018005e500 f i libucrtd:output.obj
 0001:0005d570       ??$read_va_arg@PEAUansi_string@?1??type_case_Z@?$output_processor@DV?$string_output_adapter@D@__crt_stdio_output@@V?$format_validation_base@DV?$string_output_adapter@D@__crt_stdio_output@@@2@@__crt_stdio_output@@AEAA_NXZ@@__crt_stdio_output@@YAPEAUansi_string@?1??type_case_Z@?$output_processor@DV?$string_output_adapter@D@__crt_stdio_output@@V?$format_validation_base@DV?$string_output_adapter@D@__crt_stdio_output@@@2@@0@AEAA_NXZ@AEAPEAD@Z 000000018005e570 f i libucrtd:output.obj
 0001:0005d5e0       ??$read_va_arg@PEAUansi_string@?1??type_case_Z@?$output_processor@DV?$string_output_adapter@D@__crt_stdio_output@@V?$positional_parameter_base@DV?$string_output_adapter@D@__crt_stdio_output@@@2@@__crt_stdio_output@@AEAA_NXZ@@__crt_stdio_output@@YAPEAUansi_string@?1??type_case_Z@?$output_processor@DV?$string_output_adapter@D@__crt_stdio_output@@V?$positional_parameter_base@DV?$string_output_adapter@D@__crt_stdio_output@@@2@@0@AEAA_NXZ@AEAPEAD@Z 000000018005e5e0 f i libucrtd:output.obj
 0001:0005d650       ??$read_va_arg@PEAUansi_string@?1??type_case_Z@?$output_processor@DV?$string_output_adapter@D@__crt_stdio_output@@V?$standard_base@DV?$string_output_adapter@D@__crt_stdio_output@@@2@@__crt_stdio_output@@AEAA_NXZ@@__crt_stdio_output@@YAPEAUansi_string@?1??type_case_Z@?$output_processor@DV?$string_output_adapter@D@__crt_stdio_output@@V?$standard_base@DV?$string_output_adapter@D@__crt_stdio_output@@@2@@0@AEAA_NXZ@AEAPEAD@Z 000000018005e650 f i libucrtd:output.obj
 0001:0005d6c0       ??$read_va_arg@PEAUansi_string@?1??type_case_Z@?$output_processor@_WV?$stream_output_adapter@_W@__crt_stdio_output@@V?$format_validation_base@_WV?$stream_output_adapter@_W@__crt_stdio_output@@@2@@__crt_stdio_output@@AEAA_NXZ@@__crt_stdio_output@@YAPEAUansi_string@?1??type_case_Z@?$output_processor@_WV?$stream_output_adapter@_W@__crt_stdio_output@@V?$format_validation_base@_WV?$stream_output_adapter@_W@__crt_stdio_output@@@2@@0@AEAA_NXZ@AEAPEAD@Z 000000018005e6c0 f i libucrtd:output.obj
 0001:0005d730       ??$read_va_arg@PEAUansi_string@?1??type_case_Z@?$output_processor@_WV?$stream_output_adapter@_W@__crt_stdio_output@@V?$positional_parameter_base@_WV?$stream_output_adapter@_W@__crt_stdio_output@@@2@@__crt_stdio_output@@AEAA_NXZ@@__crt_stdio_output@@YAPEAUansi_string@?1??type_case_Z@?$output_processor@_WV?$stream_output_adapter@_W@__crt_stdio_output@@V?$positional_parameter_base@_WV?$stream_output_adapter@_W@__crt_stdio_output@@@2@@0@AEAA_NXZ@AEAPEAD@Z 000000018005e730 f i libucrtd:output.obj
 0001:0005d7a0       ??$read_va_arg@PEAUansi_string@?1??type_case_Z@?$output_processor@_WV?$stream_output_adapter@_W@__crt_stdio_output@@V?$standard_base@_WV?$stream_output_adapter@_W@__crt_stdio_output@@@2@@__crt_stdio_output@@AEAA_NXZ@@__crt_stdio_output@@YAPEAUansi_string@?1??type_case_Z@?$output_processor@_WV?$stream_output_adapter@_W@__crt_stdio_output@@V?$standard_base@_WV?$stream_output_adapter@_W@__crt_stdio_output@@@2@@0@AEAA_NXZ@AEAPEAD@Z 000000018005e7a0 f i libucrtd:output.obj
 0001:0005d810       ??$read_va_arg@PEAUansi_string@?1??type_case_Z@?$output_processor@_WV?$string_output_adapter@_W@__crt_stdio_output@@V?$format_validation_base@_WV?$string_output_adapter@_W@__crt_stdio_output@@@2@@__crt_stdio_output@@AEAA_NXZ@@__crt_stdio_output@@YAPEAUansi_string@?1??type_case_Z@?$output_processor@_WV?$string_output_adapter@_W@__crt_stdio_output@@V?$format_validation_base@_WV?$string_output_adapter@_W@__crt_stdio_output@@@2@@0@AEAA_NXZ@AEAPEAD@Z 000000018005e810 f i libucrtd:output.obj
 0001:0005d880       ??$read_va_arg@PEAUansi_string@?1??type_case_Z@?$output_processor@_WV?$string_output_adapter@_W@__crt_stdio_output@@V?$positional_parameter_base@_WV?$string_output_adapter@_W@__crt_stdio_output@@@2@@__crt_stdio_output@@AEAA_NXZ@@__crt_stdio_output@@YAPEAUansi_string@?1??type_case_Z@?$output_processor@_WV?$string_output_adapter@_W@__crt_stdio_output@@V?$positional_parameter_base@_WV?$string_output_adapter@_W@__crt_stdio_output@@@2@@0@AEAA_NXZ@AEAPEAD@Z 000000018005e880 f i libucrtd:output.obj
 0001:0005d8f0       ??$read_va_arg@PEAUansi_string@?1??type_case_Z@?$output_processor@_WV?$string_output_adapter@_W@__crt_stdio_output@@V?$standard_base@_WV?$string_output_adapter@_W@__crt_stdio_output@@@2@@__crt_stdio_output@@AEAA_NXZ@@__crt_stdio_output@@YAPEAUansi_string@?1??type_case_Z@?$output_processor@_WV?$string_output_adapter@_W@__crt_stdio_output@@V?$standard_base@_WV?$string_output_adapter@_W@__crt_stdio_output@@@2@@0@AEAA_NXZ@AEAPEAD@Z 000000018005e8f0 f i libucrtd:output.obj
 0001:0005d960       ??$read_va_arg@PEAX@__crt_stdio_output@@YAPEAXAEAPEAD@Z 000000018005e960 f i libucrtd:output.obj
 0001:0005d9d0       ??$read_va_arg@U_CRT_DOUBLE@@@__crt_stdio_output@@YA?AU_CRT_DOUBLE@@AEAPEAD@Z 000000018005e9d0 f i libucrtd:output.obj
 0001:0005da40       ??$read_va_arg@_J@__crt_stdio_output@@YA_JAEAPEAD@Z 000000018005ea40 f i libucrtd:output.obj
 0001:0005dab0       ??$read_va_arg@_K@__crt_stdio_output@@YA_KAEAPEAD@Z 000000018005eab0 f i libucrtd:output.obj
 0001:0005db20       ??$read_va_arg@_W@__crt_stdio_output@@YA_WAEAPEAD@Z 000000018005eb20 f i libucrtd:output.obj
 0001:0005db90       ??$scratch_count@D@formatting_buffer@__crt_stdio_output@@QEBA_KXZ 000000018005eb90 f i libucrtd:output.obj
 0001:0005dbb0       ??$scratch_data@D@formatting_buffer@__crt_stdio_output@@QEAAPEADXZ 000000018005ebb0 f i libucrtd:output.obj
 0001:0005dc20       ??$tcstol@AEAPEBDPEAPEADH@?$__crt_char_traits@D@@SAJAEAPEBD$$QEAPEAPEAD$$QEAH@Z 000000018005ec20 f i libucrtd:output.obj
 0001:0005dc60       ??$tcstol@AEAPEB_WPEAPEA_WH@?$__crt_char_traits@_W@@SAJAEAPEB_W$$QEAPEAPEA_W$$QEAH@Z 000000018005ec60 f i libucrtd:output.obj
 0001:0005dca0       ??$tcstol@PEBDPEAPEADH@?$__crt_char_traits@D@@SAJ$$QEAPEBD$$QEAPEAPEAD$$QEAH@Z 000000018005eca0 f i libucrtd:output.obj
 0001:0005dce0       ??$tcstol@PEB_WPEAPEA_WH@?$__crt_char_traits@_W@@SAJ$$QEAPEB_W$$QEAPEAPEA_W$$QEAH@Z 000000018005ece0 f i libucrtd:output.obj
 0001:0005dd20       ??$type_case_integer_parse_into_buffer@I@?$output_processor@DV?$stream_output_adapter@D@__crt_stdio_output@@V?$format_validation_base@DV?$stream_output_adapter@D@__crt_stdio_output@@@2@@__crt_stdio_output@@AEAAXII_N@Z 000000018005ed20 f i libucrtd:output.obj
 0001:0005de50       ??$type_case_integer_parse_into_buffer@I@?$output_processor@DV?$stream_output_adapter@D@__crt_stdio_output@@V?$positional_parameter_base@DV?$stream_output_adapter@D@__crt_stdio_output@@@2@@__crt_stdio_output@@AEAAXII_N@Z 000000018005ee50 f i libucrtd:output.obj
 0001:0005df80       ??$type_case_integer_parse_into_buffer@I@?$output_processor@DV?$stream_output_adapter@D@__crt_stdio_output@@V?$standard_base@DV?$stream_output_adapter@D@__crt_stdio_output@@@2@@__crt_stdio_output@@AEAAXII_N@Z 000000018005ef80 f i libucrtd:output.obj
 0001:0005e0b0       ??$type_case_integer_parse_into_buffer@I@?$output_processor@DV?$string_output_adapter@D@__crt_stdio_output@@V?$format_validation_base@DV?$string_output_adapter@D@__crt_stdio_output@@@2@@__crt_stdio_output@@AEAAXII_N@Z 000000018005f0b0 f i libucrtd:output.obj
 0001:0005e1e0       ??$type_case_integer_parse_into_buffer@I@?$output_processor@DV?$string_output_adapter@D@__crt_stdio_output@@V?$positional_parameter_base@DV?$string_output_adapter@D@__crt_stdio_output@@@2@@__crt_stdio_output@@AEAAXII_N@Z 000000018005f1e0 f i libucrtd:output.obj
 0001:0005e310       ??$type_case_integer_parse_into_buffer@I@?$output_processor@DV?$string_output_adapter@D@__crt_stdio_output@@V?$standard_base@DV?$string_output_adapter@D@__crt_stdio_output@@@2@@__crt_stdio_output@@AEAAXII_N@Z 000000018005f310 f i libucrtd:output.obj
 0001:0005e440       ??$type_case_integer_parse_into_buffer@I@?$output_processor@_WV?$stream_output_adapter@_W@__crt_stdio_output@@V?$format_validation_base@_WV?$stream_output_adapter@_W@__crt_stdio_output@@@2@@__crt_stdio_output@@AEAAXII_N@Z 000000018005f440 f i libucrtd:output.obj
 0001:0005e580       ??$type_case_integer_parse_into_buffer@I@?$output_processor@_WV?$stream_output_adapter@_W@__crt_stdio_output@@V?$positional_parameter_base@_WV?$stream_output_adapter@_W@__crt_stdio_output@@@2@@__crt_stdio_output@@AEAAXII_N@Z 000000018005f580 f i libucrtd:output.obj
 0001:0005e6c0       ??$type_case_integer_parse_into_buffer@I@?$output_processor@_WV?$stream_output_adapter@_W@__crt_stdio_output@@V?$standard_base@_WV?$stream_output_adapter@_W@__crt_stdio_output@@@2@@__crt_stdio_output@@AEAAXII_N@Z 000000018005f6c0 f i libucrtd:output.obj
 0001:0005e800       ??$type_case_integer_parse_into_buffer@I@?$output_processor@_WV?$string_output_adapter@_W@__crt_stdio_output@@V?$format_validation_base@_WV?$string_output_adapter@_W@__crt_stdio_output@@@2@@__crt_stdio_output@@AEAAXII_N@Z 000000018005f800 f i libucrtd:output.obj
 0001:0005e940       ??$type_case_integer_parse_into_buffer@I@?$output_processor@_WV?$string_output_adapter@_W@__crt_stdio_output@@V?$positional_parameter_base@_WV?$string_output_adapter@_W@__crt_stdio_output@@@2@@__crt_stdio_output@@AEAAXII_N@Z 000000018005f940 f i libucrtd:output.obj
 0001:0005ea80       ??$type_case_integer_parse_into_buffer@I@?$output_processor@_WV?$string_output_adapter@_W@__crt_stdio_output@@V?$standard_base@_WV?$string_output_adapter@_W@__crt_stdio_output@@@2@@__crt_stdio_output@@AEAAXII_N@Z 000000018005fa80 f i libucrtd:output.obj
 0001:0005ebc0       ??$type_case_integer_parse_into_buffer@_K@?$output_processor@DV?$stream_output_adapter@D@__crt_stdio_output@@V?$format_validation_base@DV?$stream_output_adapter@D@__crt_stdio_output@@@2@@__crt_stdio_output@@AEAAX_KI_N@Z 000000018005fbc0 f i libucrtd:output.obj
 0001:0005ed10       ??$type_case_integer_parse_into_buffer@_K@?$output_processor@DV?$stream_output_adapter@D@__crt_stdio_output@@V?$positional_parameter_base@DV?$stream_output_adapter@D@__crt_stdio_output@@@2@@__crt_stdio_output@@AEAAX_KI_N@Z 000000018005fd10 f i libucrtd:output.obj
 0001:0005ee60       ??$type_case_integer_parse_into_buffer@_K@?$output_processor@DV?$stream_output_adapter@D@__crt_stdio_output@@V?$standard_base@DV?$stream_output_adapter@D@__crt_stdio_output@@@2@@__crt_stdio_output@@AEAAX_KI_N@Z 000000018005fe60 f i libucrtd:output.obj
 0001:0005efb0       ??$type_case_integer_parse_into_buffer@_K@?$output_processor@DV?$string_output_adapter@D@__crt_stdio_output@@V?$format_validation_base@DV?$string_output_adapter@D@__crt_stdio_output@@@2@@__crt_stdio_output@@AEAAX_KI_N@Z 000000018005ffb0 f i libucrtd:output.obj
 0001:0005f100       ??$type_case_integer_parse_into_buffer@_K@?$output_processor@DV?$string_output_adapter@D@__crt_stdio_output@@V?$positional_parameter_base@DV?$string_output_adapter@D@__crt_stdio_output@@@2@@__crt_stdio_output@@AEAAX_KI_N@Z 0000000180060100 f i libucrtd:output.obj
 0001:0005f250       ??$type_case_integer_parse_into_buffer@_K@?$output_processor@DV?$string_output_adapter@D@__crt_stdio_output@@V?$standard_base@DV?$string_output_adapter@D@__crt_stdio_output@@@2@@__crt_stdio_output@@AEAAX_KI_N@Z 0000000180060250 f i libucrtd:output.obj
 0001:0005f3a0       ??$type_case_integer_parse_into_buffer@_K@?$output_processor@_WV?$stream_output_adapter@_W@__crt_stdio_output@@V?$format_validation_base@_WV?$stream_output_adapter@_W@__crt_stdio_output@@@2@@__crt_stdio_output@@AEAAX_KI_N@Z 00000001800603a0 f i libucrtd:output.obj
 0001:0005f500       ??$type_case_integer_parse_into_buffer@_K@?$output_processor@_WV?$stream_output_adapter@_W@__crt_stdio_output@@V?$positional_parameter_base@_WV?$stream_output_adapter@_W@__crt_stdio_output@@@2@@__crt_stdio_output@@AEAAX_KI_N@Z 0000000180060500 f i libucrtd:output.obj
 0001:0005f660       ??$type_case_integer_parse_into_buffer@_K@?$output_processor@_WV?$stream_output_adapter@_W@__crt_stdio_output@@V?$standard_base@_WV?$stream_output_adapter@_W@__crt_stdio_output@@@2@@__crt_stdio_output@@AEAAX_KI_N@Z 0000000180060660 f i libucrtd:output.obj
 0001:0005f7c0       ??$type_case_integer_parse_into_buffer@_K@?$output_processor@_WV?$string_output_adapter@_W@__crt_stdio_output@@V?$format_validation_base@_WV?$string_output_adapter@_W@__crt_stdio_output@@@2@@__crt_stdio_output@@AEAAX_KI_N@Z 00000001800607c0 f i libucrtd:output.obj
 0001:0005f920       ??$type_case_integer_parse_into_buffer@_K@?$output_processor@_WV?$string_output_adapter@_W@__crt_stdio_output@@V?$positional_parameter_base@_WV?$string_output_adapter@_W@__crt_stdio_output@@@2@@__crt_stdio_output@@AEAAX_KI_N@Z 0000000180060920 f i libucrtd:output.obj
 0001:0005fa80       ??$type_case_integer_parse_into_buffer@_K@?$output_processor@_WV?$string_output_adapter@_W@__crt_stdio_output@@V?$standard_base@_WV?$string_output_adapter@_W@__crt_stdio_output@@@2@@__crt_stdio_output@@AEAAX_KI_N@Z 0000000180060a80 f i libucrtd:output.obj
 0001:0005fbe0       ??$write_multiple_characters@V?$stream_output_adapter@D@__crt_stdio_output@@D@__crt_stdio_output@@YAXAEBV?$stream_output_adapter@D@0@DHQEAH@Z 0000000180060be0 f i libucrtd:output.obj
 0001:0005fc40       ??$write_multiple_characters@V?$stream_output_adapter@_W@__crt_stdio_output@@D@__crt_stdio_output@@YAXAEBV?$stream_output_adapter@_W@0@DHQEAH@Z 0000000180060c40 f i libucrtd:output.obj
 0001:0005fca0       ??$write_multiple_characters@V?$string_output_adapter@D@__crt_stdio_output@@D@__crt_stdio_output@@YAXAEBV?$string_output_adapter@D@0@DHQEAH@Z 0000000180060ca0 f i libucrtd:output.obj
 0001:0005fd00       ??$write_multiple_characters@V?$string_output_adapter@_W@__crt_stdio_output@@D@__crt_stdio_output@@YAXAEBV?$string_output_adapter@_W@0@DHQEAH@Z 0000000180060d00 f i libucrtd:output.obj
 0001:00060120       ??0?$common_data@D@__crt_stdio_output@@IEAA@XZ 0000000180061120 f i libucrtd:output.obj
 0001:000601f0       ??0?$common_data@_W@__crt_stdio_output@@IEAA@XZ 00000001800611f0 f i libucrtd:output.obj
 0001:000602c0       ??0?$output_adapter_data@DV?$stream_output_adapter@D@__crt_stdio_output@@@__crt_stdio_output@@IEAA@AEBV?$stream_output_adapter@D@1@_KQEBDQEAU__crt_locale_pointers@@QEAD@Z 00000001800612c0 f i libucrtd:output.obj
 0001:00060340       ??0?$output_adapter_data@DV?$string_output_adapter@D@__crt_stdio_output@@@__crt_stdio_output@@IEAA@AEBV?$string_output_adapter@D@1@_KQEBDQEAU__crt_locale_pointers@@QEAD@Z 0000000180061340 f i libucrtd:output.obj
 0001:000603c0       ??0?$output_adapter_data@_WV?$stream_output_adapter@_W@__crt_stdio_output@@@__crt_stdio_output@@IEAA@AEBV?$stream_output_adapter@_W@1@_KQEB_WQEAU__crt_locale_pointers@@QEAD@Z 00000001800613c0 f i libucrtd:output.obj
 0001:00060440       ??0?$output_adapter_data@_WV?$string_output_adapter@_W@__crt_stdio_output@@@__crt_stdio_output@@IEAA@AEBV?$string_output_adapter@_W@1@_KQEB_WQEAU__crt_locale_pointers@@QEAD@Z 0000000180061440 f i libucrtd:output.obj
 0001:000604c0       ??0?$output_processor@DV?$stream_output_adapter@D@__crt_stdio_output@@V?$format_validation_base@DV?$stream_output_adapter@D@__crt_stdio_output@@@2@@__crt_stdio_output@@QEAA@AEBV?$stream_output_adapter@D@1@_KQEBDQEAU__crt_locale_pointers@@QEAD@Z 00000001800614c0 f i libucrtd:output.obj
 0001:00060510       ??0?$output_processor@DV?$stream_output_adapter@D@__crt_stdio_output@@V?$positional_parameter_base@DV?$stream_output_adapter@D@__crt_stdio_output@@@2@@__crt_stdio_output@@QEAA@AEBV?$stream_output_adapter@D@1@_KQEBDQEAU__crt_locale_pointers@@QEAD@Z 0000000180061510 f i libucrtd:output.obj
 0001:00060560       ??0?$output_processor@DV?$stream_output_adapter@D@__crt_stdio_output@@V?$standard_base@DV?$stream_output_adapter@D@__crt_stdio_output@@@2@@__crt_stdio_output@@QEAA@AEBV?$stream_output_adapter@D@1@_KQEBDQEAU__crt_locale_pointers@@QEAD@Z 0000000180061560 f i libucrtd:output.obj
 0001:000605b0       ??0?$output_processor@DV?$string_output_adapter@D@__crt_stdio_output@@V?$format_validation_base@DV?$string_output_adapter@D@__crt_stdio_output@@@2@@__crt_stdio_output@@QEAA@AEBV?$string_output_adapter@D@1@_KQEBDQEAU__crt_locale_pointers@@QEAD@Z 00000001800615b0 f i libucrtd:output.obj
 0001:00060600       ??0?$output_processor@DV?$string_output_adapter@D@__crt_stdio_output@@V?$positional_parameter_base@DV?$string_output_adapter@D@__crt_stdio_output@@@2@@__crt_stdio_output@@QEAA@AEBV?$string_output_adapter@D@1@_KQEBDQEAU__crt_locale_pointers@@QEAD@Z 0000000180061600 f i libucrtd:output.obj
 0001:00060650       ??0?$output_processor@DV?$string_output_adapter@D@__crt_stdio_output@@V?$standard_base@DV?$string_output_adapter@D@__crt_stdio_output@@@2@@__crt_stdio_output@@QEAA@AEBV?$string_output_adapter@D@1@_KQEBDQEAU__crt_locale_pointers@@QEAD@Z 0000000180061650 f i libucrtd:output.obj
 0001:000606a0       ??0?$output_processor@_WV?$stream_output_adapter@_W@__crt_stdio_output@@V?$format_validation_base@_WV?$stream_output_adapter@_W@__crt_stdio_output@@@2@@__crt_stdio_output@@QEAA@AEBV?$stream_output_adapter@_W@1@_KQEB_WQEAU__crt_locale_pointers@@QEAD@Z 00000001800616a0 f i libucrtd:output.obj
 0001:000606f0       ??0?$output_processor@_WV?$stream_output_adapter@_W@__crt_stdio_output@@V?$positional_parameter_base@_WV?$stream_output_adapter@_W@__crt_stdio_output@@@2@@__crt_stdio_output@@QEAA@AEBV?$stream_output_adapter@_W@1@_KQEB_WQEAU__crt_locale_pointers@@QEAD@Z 00000001800616f0 f i libucrtd:output.obj
 0001:00060740       ??0?$output_processor@_WV?$stream_output_adapter@_W@__crt_stdio_output@@V?$standard_base@_WV?$stream_output_adapter@_W@__crt_stdio_output@@@2@@__crt_stdio_output@@QEAA@AEBV?$stream_output_adapter@_W@1@_KQEB_WQEAU__crt_locale_pointers@@QEAD@Z 0000000180061740 f i libucrtd:output.obj
 0001:00060790       ??0?$output_processor@_WV?$string_output_adapter@_W@__crt_stdio_output@@V?$format_validation_base@_WV?$string_output_adapter@_W@__crt_stdio_output@@@2@@__crt_stdio_output@@QEAA@AEBV?$string_output_adapter@_W@1@_KQEB_WQEAU__crt_locale_pointers@@QEAD@Z 0000000180061790 f i libucrtd:output.obj
 0001:000607e0       ??0?$output_processor@_WV?$string_output_adapter@_W@__crt_stdio_output@@V?$positional_parameter_base@_WV?$string_output_adapter@_W@__crt_stdio_output@@@2@@__crt_stdio_output@@QEAA@AEBV?$string_output_adapter@_W@1@_KQEB_WQEAU__crt_locale_pointers@@QEAD@Z 00000001800617e0 f i libucrtd:output.obj
 0001:00060830       ??0?$output_processor@_WV?$string_output_adapter@_W@__crt_stdio_output@@V?$standard_base@_WV?$string_output_adapter@_W@__crt_stdio_output@@@2@@__crt_stdio_output@@QEAA@AEBV?$string_output_adapter@_W@1@_KQEB_WQEAU__crt_locale_pointers@@QEAD@Z 0000000180061830 f i libucrtd:output.obj
 0001:00060880       ??0?$stream_output_adapter@D@__crt_stdio_output@@QEAA@QEAU_iobuf@@@Z 0000000180061880 f i libucrtd:output.obj
 0001:000608b0       ??0?$stream_output_adapter@_W@__crt_stdio_output@@QEAA@QEAU_iobuf@@@Z 00000001800618b0 f i libucrtd:output.obj
 0001:000608e0       ??0?$string_output_adapter@D@__crt_stdio_output@@QEAA@QEAU?$string_output_adapter_context@D@1@@Z 00000001800618e0 f i libucrtd:output.obj
 0001:00060900       ??0?$string_output_adapter@_W@__crt_stdio_output@@QEAA@QEAU?$string_output_adapter_context@_W@1@@Z 0000000180061900 f i libucrtd:output.obj
 0001:00060920       ??0_LocaleUpdate@@QEAA@QEAU__crt_locale_pointers@@@Z 0000000180061920 f i libucrtd:output.obj
 0001:00060a40       ??0__acrt_stdio_temporary_buffering_guard@@QEAA@QEAU_iobuf@@@Z 0000000180061a40 f i libucrtd:output.obj
 0001:00060a80       ??0__crt_deferred_errno_cache@@QEAA@XZ 0000000180061a80 f i libucrtd:output.obj
 0001:00060aa0       ??0__crt_errno_guard@@QEAA@QEAH@Z 0000000180061aa0 f i libucrtd:output.obj
 0001:00060ae0       ??0__crt_stdio_stream@@QEAA@QEAU_iobuf@@@Z 0000000180061ae0 f i libucrtd:output.obj
 0001:00060b00       ??0formatting_buffer@__crt_stdio_output@@QEAA@XZ 0000000180061b00 f i libucrtd:output.obj
 0001:00060b40       ??1?$common_data@D@__crt_stdio_output@@QEAA@XZ 0000000180061b40 f i libucrtd:output.obj
 0001:00060b60       ??1?$common_data@_W@__crt_stdio_output@@QEAA@XZ 0000000180061b60 f i libucrtd:output.obj
 0001:00060b80       ??1?$format_validation_base@DV?$stream_output_adapter@D@__crt_stdio_output@@@__crt_stdio_output@@QEAA@XZ 0000000180061b80 f i libucrtd:output.obj
 0001:00060ba0       ??1?$format_validation_base@DV?$string_output_adapter@D@__crt_stdio_output@@@__crt_stdio_output@@QEAA@XZ 0000000180061ba0 f i libucrtd:output.obj
 0001:00060bc0       ??1?$format_validation_base@_WV?$stream_output_adapter@_W@__crt_stdio_output@@@__crt_stdio_output@@QEAA@XZ 0000000180061bc0 f i libucrtd:output.obj
 0001:00060be0       ??1?$format_validation_base@_WV?$string_output_adapter@_W@__crt_stdio_output@@@__crt_stdio_output@@QEAA@XZ 0000000180061be0 f i libucrtd:output.obj
 0001:00060c00       ??1?$output_adapter_data@DV?$stream_output_adapter@D@__crt_stdio_output@@@__crt_stdio_output@@QEAA@XZ 0000000180061c00 f i libucrtd:output.obj
 0001:00060c20       ??1?$output_adapter_data@DV?$string_output_adapter@D@__crt_stdio_output@@@__crt_stdio_output@@QEAA@XZ 0000000180061c20 f i libucrtd:output.obj
 0001:00060c40       ??1?$output_adapter_data@_WV?$stream_output_adapter@_W@__crt_stdio_output@@@__crt_stdio_output@@QEAA@XZ 0000000180061c40 f i libucrtd:output.obj
 0001:00060c60       ??1?$output_adapter_data@_WV?$string_output_adapter@_W@__crt_stdio_output@@@__crt_stdio_output@@QEAA@XZ 0000000180061c60 f i libucrtd:output.obj
 0001:00060c80       ??1?$output_processor@DV?$stream_output_adapter@D@__crt_stdio_output@@V?$format_validation_base@DV?$stream_output_adapter@D@__crt_stdio_output@@@2@@__crt_stdio_output@@QEAA@XZ 0000000180061c80 f i libucrtd:output.obj
 0001:00060ca0       ??1?$output_processor@DV?$stream_output_adapter@D@__crt_stdio_output@@V?$positional_parameter_base@DV?$stream_output_adapter@D@__crt_stdio_output@@@2@@__crt_stdio_output@@QEAA@XZ 0000000180061ca0 f i libucrtd:output.obj
 0001:00060cc0       ??1?$output_processor@DV?$stream_output_adapter@D@__crt_stdio_output@@V?$standard_base@DV?$stream_output_adapter@D@__crt_stdio_output@@@2@@__crt_stdio_output@@QEAA@XZ 0000000180061cc0 f i libucrtd:output.obj
 0001:00060ce0       ??1?$output_processor@DV?$string_output_adapter@D@__crt_stdio_output@@V?$format_validation_base@DV?$string_output_adapter@D@__crt_stdio_output@@@2@@__crt_stdio_output@@QEAA@XZ 0000000180061ce0 f i libucrtd:output.obj
 0001:00060d00       ??1?$output_processor@DV?$string_output_adapter@D@__crt_stdio_output@@V?$positional_parameter_base@DV?$string_output_adapter@D@__crt_stdio_output@@@2@@__crt_stdio_output@@QEAA@XZ 0000000180061d00 f i libucrtd:output.obj
 0001:00060d20       ??1?$output_processor@DV?$string_output_adapter@D@__crt_stdio_output@@V?$standard_base@DV?$string_output_adapter@D@__crt_stdio_output@@@2@@__crt_stdio_output@@QEAA@XZ 0000000180061d20 f i libucrtd:output.obj
 0001:00060d40       ??1?$output_processor@_WV?$stream_output_adapter@_W@__crt_stdio_output@@V?$format_validation_base@_WV?$stream_output_adapter@_W@__crt_stdio_output@@@2@@__crt_stdio_output@@QEAA@XZ 0000000180061d40 f i libucrtd:output.obj
 0001:00060d60       ??1?$output_processor@_WV?$stream_output_adapter@_W@__crt_stdio_output@@V?$positional_parameter_base@_WV?$stream_output_adapter@_W@__crt_stdio_output@@@2@@__crt_stdio_output@@QEAA@XZ 0000000180061d60 f i libucrtd:output.obj
 0001:00060d80       ??1?$output_processor@_WV?$stream_output_adapter@_W@__crt_stdio_output@@V?$standard_base@_WV?$stream_output_adapter@_W@__crt_stdio_output@@@2@@__crt_stdio_output@@QEAA@XZ 0000000180061d80 f i libucrtd:output.obj
 0001:00060da0       ??1?$output_processor@_WV?$string_output_adapter@_W@__crt_stdio_output@@V?$format_validation_base@_WV?$string_output_adapter@_W@__crt_stdio_output@@@2@@__crt_stdio_output@@QEAA@XZ 0000000180061da0 f i libucrtd:output.obj
 0001:00060dc0       ??1?$output_processor@_WV?$string_output_adapter@_W@__crt_stdio_output@@V?$positional_parameter_base@_WV?$string_output_adapter@_W@__crt_stdio_output@@@2@@__crt_stdio_output@@QEAA@XZ 0000000180061dc0 f i libucrtd:output.obj
 0001:00060de0       ??1?$output_processor@_WV?$string_output_adapter@_W@__crt_stdio_output@@V?$standard_base@_WV?$string_output_adapter@_W@__crt_stdio_output@@@2@@__crt_stdio_output@@QEAA@XZ 0000000180061de0 f i libucrtd:output.obj
 0001:00060e00       ??1?$positional_parameter_base@DV?$stream_output_adapter@D@__crt_stdio_output@@@__crt_stdio_output@@QEAA@XZ 0000000180061e00 f i libucrtd:output.obj
 0001:00060e20       ??1?$positional_parameter_base@DV?$string_output_adapter@D@__crt_stdio_output@@@__crt_stdio_output@@QEAA@XZ 0000000180061e20 f i libucrtd:output.obj
 0001:00060e40       ??1?$positional_parameter_base@_WV?$stream_output_adapter@_W@__crt_stdio_output@@@__crt_stdio_output@@QEAA@XZ 0000000180061e40 f i libucrtd:output.obj
 0001:00060e60       ??1?$positional_parameter_base@_WV?$string_output_adapter@_W@__crt_stdio_output@@@__crt_stdio_output@@QEAA@XZ 0000000180061e60 f i libucrtd:output.obj
 0001:00060e80       ??1?$standard_base@DV?$stream_output_adapter@D@__crt_stdio_output@@@__crt_stdio_output@@QEAA@XZ 0000000180061e80 f i libucrtd:output.obj
 0001:00060ea0       ??1?$standard_base@DV?$string_output_adapter@D@__crt_stdio_output@@@__crt_stdio_output@@QEAA@XZ 0000000180061ea0 f i libucrtd:output.obj
 0001:00060ec0       ??1?$standard_base@_WV?$stream_output_adapter@_W@__crt_stdio_output@@@__crt_stdio_output@@QEAA@XZ 0000000180061ec0 f i libucrtd:output.obj
 0001:00060ee0       ??1?$standard_base@_WV?$string_output_adapter@_W@__crt_stdio_output@@@__crt_stdio_output@@QEAA@XZ 0000000180061ee0 f i libucrtd:output.obj
 0001:00060f00       ??1_LocaleUpdate@@QEAA@XZ  0000000180061f00 f i libucrtd:output.obj
 0001:00060f30       ??1__acrt_stdio_temporary_buffering_guard@@QEAA@XZ 0000000180061f30 f i libucrtd:output.obj
 0001:00060f60       ??1__crt_errno_guard@@QEAA@XZ 0000000180061f60 f i libucrtd:output.obj
 0001:00060f90       ??1formatting_buffer@__crt_stdio_output@@QEAA@XZ 0000000180061f90 f i libucrtd:output.obj
 0001:00060fc0       ??4?$__crt_unique_heap_ptr@DU__crt_internal_free_policy@@@@QEAAAEAV0@$$QEAV0@@Z 0000000180061fc0 f i libucrtd:output.obj
 0001:00061000       ??A?$spectre_mitigated_lookup_table@Ustate_transition_pair@__crt_stdio_output@@$0IA@@__crt_stdio_output@@QEBAAEBUstate_transition_pair@1@_K@Z 0000000180062000 f i libucrtd:output.obj
 0001:00061020       ??C__crt_stdio_stream@@QEBAPEAU__crt_stdio_stream_data@@XZ 0000000180062020 f i libucrtd:output.obj
 0001:000618d0       ?GetLocaleT@_LocaleUpdate@@QEAAPEAU__crt_locale_pointers@@XZ 00000001800628d0 f i libucrtd:output.obj
 0001:000618e0       ?__crt_interlocked_read_32@@YAHPEDH@Z 00000001800628e0 f i libucrtd:output.obj
 0001:00061900       ?adjust_hexit@?$output_processor@DV?$stream_output_adapter@D@__crt_stdio_output@@V?$format_validation_base@DV?$stream_output_adapter@D@__crt_stdio_output@@@2@@__crt_stdio_output@@CADH_N@Z 0000000180062900 f i libucrtd:output.obj
 0001:00061950       ?adjust_hexit@?$output_processor@DV?$stream_output_adapter@D@__crt_stdio_output@@V?$positional_parameter_base@DV?$stream_output_adapter@D@__crt_stdio_output@@@2@@__crt_stdio_output@@CADH_N@Z 0000000180062950 f i libucrtd:output.obj
 0001:000619a0       ?adjust_hexit@?$output_processor@DV?$stream_output_adapter@D@__crt_stdio_output@@V?$standard_base@DV?$stream_output_adapter@D@__crt_stdio_output@@@2@@__crt_stdio_output@@CADH_N@Z 00000001800629a0 f i libucrtd:output.obj
 0001:000619f0       ?adjust_hexit@?$output_processor@DV?$string_output_adapter@D@__crt_stdio_output@@V?$format_validation_base@DV?$string_output_adapter@D@__crt_stdio_output@@@2@@__crt_stdio_output@@CADH_N@Z 00000001800629f0 f i libucrtd:output.obj
 0001:00061a40       ?adjust_hexit@?$output_processor@DV?$string_output_adapter@D@__crt_stdio_output@@V?$positional_parameter_base@DV?$string_output_adapter@D@__crt_stdio_output@@@2@@__crt_stdio_output@@CADH_N@Z 0000000180062a40 f i libucrtd:output.obj
 0001:00061a90       ?adjust_hexit@?$output_processor@DV?$string_output_adapter@D@__crt_stdio_output@@V?$standard_base@DV?$string_output_adapter@D@__crt_stdio_output@@@2@@__crt_stdio_output@@CADH_N@Z 0000000180062a90 f i libucrtd:output.obj
 0001:00061ae0       ?adjust_hexit@?$output_processor@_WV?$stream_output_adapter@_W@__crt_stdio_output@@V?$format_validation_base@_WV?$stream_output_adapter@_W@__crt_stdio_output@@@2@@__crt_stdio_output@@CADH_N@Z 0000000180062ae0 f i libucrtd:output.obj
 0001:00061b30       ?adjust_hexit@?$output_processor@_WV?$stream_output_adapter@_W@__crt_stdio_output@@V?$positional_parameter_base@_WV?$stream_output_adapter@_W@__crt_stdio_output@@@2@@__crt_stdio_output@@CADH_N@Z 0000000180062b30 f i libucrtd:output.obj
 0001:00061b80       ?adjust_hexit@?$output_processor@_WV?$stream_output_adapter@_W@__crt_stdio_output@@V?$standard_base@_WV?$stream_output_adapter@_W@__crt_stdio_output@@@2@@__crt_stdio_output@@CADH_N@Z 0000000180062b80 f i libucrtd:output.obj
 0001:00061bd0       ?adjust_hexit@?$output_processor@_WV?$string_output_adapter@_W@__crt_stdio_output@@V?$format_validation_base@_WV?$string_output_adapter@_W@__crt_stdio_output@@@2@@__crt_stdio_output@@CADH_N@Z 0000000180062bd0 f i libucrtd:output.obj
 0001:00061c20       ?adjust_hexit@?$output_processor@_WV?$string_output_adapter@_W@__crt_stdio_output@@V?$positional_parameter_base@_WV?$string_output_adapter@_W@__crt_stdio_output@@@2@@__crt_stdio_output@@CADH_N@Z 0000000180062c20 f i libucrtd:output.obj
 0001:00061c70       ?adjust_hexit@?$output_processor@_WV?$string_output_adapter@_W@__crt_stdio_output@@V?$standard_base@_WV?$string_output_adapter@_W@__crt_stdio_output@@@2@@__crt_stdio_output@@CADH_N@Z 0000000180062c70 f i libucrtd:output.obj
 0001:00061cc0       ?advance_to_next_pass@?$positional_parameter_base@DV?$stream_output_adapter@D@__crt_stdio_output@@@__crt_stdio_output@@IEAA_NXZ 0000000180062cc0 f i libucrtd:output.obj
 0001:00061d70       ?advance_to_next_pass@?$positional_parameter_base@DV?$string_output_adapter@D@__crt_stdio_output@@@__crt_stdio_output@@IEAA_NXZ 0000000180062d70 f i libucrtd:output.obj
 0001:00061e20       ?advance_to_next_pass@?$positional_parameter_base@_WV?$stream_output_adapter@_W@__crt_stdio_output@@@__crt_stdio_output@@IEAA_NXZ 0000000180062e20 f i libucrtd:output.obj
 0001:00061ed0       ?advance_to_next_pass@?$positional_parameter_base@_WV?$string_output_adapter@_W@__crt_stdio_output@@@__crt_stdio_output@@IEAA_NXZ 0000000180062ed0 f i libucrtd:output.obj
 0001:00061f80       ?advance_to_next_pass@?$standard_base@DV?$stream_output_adapter@D@__crt_stdio_output@@@__crt_stdio_output@@IEAA_NXZ 0000000180062f80 f i libucrtd:output.obj
 0001:00061fd0       ?advance_to_next_pass@?$standard_base@DV?$string_output_adapter@D@__crt_stdio_output@@@__crt_stdio_output@@IEAA_NXZ 0000000180062fd0 f i libucrtd:output.obj
 0001:00062020       ?advance_to_next_pass@?$standard_base@_WV?$stream_output_adapter@_W@__crt_stdio_output@@@__crt_stdio_output@@IEAA_NXZ 0000000180063020 f i libucrtd:output.obj
 0001:00062070       ?advance_to_next_pass@?$standard_base@_WV?$string_output_adapter@_W@__crt_stdio_output@@@__crt_stdio_output@@IEAA_NXZ 0000000180063070 f i libucrtd:output.obj
 0001:000620c0       ?crop_zeroes@__crt_stdio_output@@YAXPEADQEAU__crt_locale_pointers@@@Z 00000001800630c0 f i libucrtd:output.obj
 0001:00062200       ?find_next_state@?$output_processor@DV?$stream_output_adapter@D@__crt_stdio_output@@V?$format_validation_base@DV?$stream_output_adapter@D@__crt_stdio_output@@@2@@__crt_stdio_output@@AEBA?AW4state@2@DW432@@Z 0000000180063200 f i libucrtd:output.obj
 0001:00062290       ?find_next_state@?$output_processor@DV?$stream_output_adapter@D@__crt_stdio_output@@V?$positional_parameter_base@DV?$stream_output_adapter@D@__crt_stdio_output@@@2@@__crt_stdio_output@@AEBA?AW4state@2@DW432@@Z 0000000180063290 f i libucrtd:output.obj
 0001:00062320       ?find_next_state@?$output_processor@DV?$stream_output_adapter@D@__crt_stdio_output@@V?$standard_base@DV?$stream_output_adapter@D@__crt_stdio_output@@@2@@__crt_stdio_output@@AEBA?AW4state@2@DW432@@Z 0000000180063320 f i libucrtd:output.obj
 0001:000623b0       ?find_next_state@?$output_processor@DV?$string_output_adapter@D@__crt_stdio_output@@V?$format_validation_base@DV?$string_output_adapter@D@__crt_stdio_output@@@2@@__crt_stdio_output@@AEBA?AW4state@2@DW432@@Z 00000001800633b0 f i libucrtd:output.obj
 0001:00062440       ?find_next_state@?$output_processor@DV?$string_output_adapter@D@__crt_stdio_output@@V?$positional_parameter_base@DV?$string_output_adapter@D@__crt_stdio_output@@@2@@__crt_stdio_output@@AEBA?AW4state@2@DW432@@Z 0000000180063440 f i libucrtd:output.obj
 0001:000624d0       ?find_next_state@?$output_processor@DV?$string_output_adapter@D@__crt_stdio_output@@V?$standard_base@DV?$string_output_adapter@D@__crt_stdio_output@@@2@@__crt_stdio_output@@AEBA?AW4state@2@DW432@@Z 00000001800634d0 f i libucrtd:output.obj
 0001:00062560       ?find_next_state@?$output_processor@_WV?$stream_output_adapter@_W@__crt_stdio_output@@V?$format_validation_base@_WV?$stream_output_adapter@_W@__crt_stdio_output@@@2@@__crt_stdio_output@@AEBA?AW4state@2@_WW432@@Z 0000000180063560 f i libucrtd:output.obj
 0001:000625f0       ?find_next_state@?$output_processor@_WV?$stream_output_adapter@_W@__crt_stdio_output@@V?$positional_parameter_base@_WV?$stream_output_adapter@_W@__crt_stdio_output@@@2@@__crt_stdio_output@@AEBA?AW4state@2@_WW432@@Z 00000001800635f0 f i libucrtd:output.obj
 0001:00062680       ?find_next_state@?$output_processor@_WV?$stream_output_adapter@_W@__crt_stdio_output@@V?$standard_base@_WV?$stream_output_adapter@_W@__crt_stdio_output@@@2@@__crt_stdio_output@@AEBA?AW4state@2@_WW432@@Z 0000000180063680 f i libucrtd:output.obj
 0001:00062710       ?find_next_state@?$output_processor@_WV?$string_output_adapter@_W@__crt_stdio_output@@V?$format_validation_base@_WV?$string_output_adapter@_W@__crt_stdio_output@@@2@@__crt_stdio_output@@AEBA?AW4state@2@_WW432@@Z 0000000180063710 f i libucrtd:output.obj
 0001:000627a0       ?find_next_state@?$output_processor@_WV?$string_output_adapter@_W@__crt_stdio_output@@V?$positional_parameter_base@_WV?$string_output_adapter@_W@__crt_stdio_output@@@2@@__crt_stdio_output@@AEBA?AW4state@2@_WW432@@Z 00000001800637a0 f i libucrtd:output.obj
 0001:00062830       ?find_next_state@?$output_processor@_WV?$string_output_adapter@_W@__crt_stdio_output@@V?$standard_base@_WV?$string_output_adapter@_W@__crt_stdio_output@@@2@@__crt_stdio_output@@AEBA?AW4state@2@_WW432@@Z 0000000180063830 f i libucrtd:output.obj
 0001:000628c0       ?force_decimal_point@__crt_stdio_output@@YAXPEADQEAU__crt_locale_pointers@@@Z 00000001800638c0 f i libucrtd:output.obj
 0001:000629c0       ?get@__crt_deferred_errno_cache@@QEAAAEAHXZ 00000001800639c0 f i libucrtd:output.obj
 0001:000629f0       ?get_flags@__crt_stdio_stream@@QEBAJXZ 00000001800639f0 f i libucrtd:output.obj
 0001:00062a20       ?get_parameter_type@?$positional_parameter_base@DV?$stream_output_adapter@D@__crt_stdio_output@@@__crt_stdio_output@@CA?AW4parameter_type@12@F@Z 0000000180063a20 f i libucrtd:output.obj
 0001:00062a30       ?get_parameter_type@?$positional_parameter_base@DV?$stream_output_adapter@D@__crt_stdio_output@@@__crt_stdio_output@@CA?AW4parameter_type@12@G@Z 0000000180063a30 f i libucrtd:output.obj
 0001:00062a40       ?get_parameter_type@?$positional_parameter_base@DV?$stream_output_adapter@D@__crt_stdio_output@@@__crt_stdio_output@@CA?AW4parameter_type@12@H@Z 0000000180063a40 f i libucrtd:output.obj
 0001:00062a50       ?get_parameter_type@?$positional_parameter_base@DV?$stream_output_adapter@D@__crt_stdio_output@@@__crt_stdio_output@@CA?AW4parameter_type@12@I@Z 0000000180063a50 f i libucrtd:output.obj
 0001:00062a60       ?get_parameter_type@?$positional_parameter_base@DV?$stream_output_adapter@D@__crt_stdio_output@@@__crt_stdio_output@@CA?AW4parameter_type@12@U_CRT_DOUBLE@@@Z 0000000180063a60 f i libucrtd:output.obj
 0001:00062a70       ?get_parameter_type@?$positional_parameter_base@DV?$stream_output_adapter@D@__crt_stdio_output@@@__crt_stdio_output@@CA?AW4parameter_type@12@_J@Z 0000000180063a70 f i libucrtd:output.obj
 0001:00062a80       ?get_parameter_type@?$positional_parameter_base@DV?$stream_output_adapter@D@__crt_stdio_output@@@__crt_stdio_output@@CA?AW4parameter_type@12@_K@Z 0000000180063a80 f i libucrtd:output.obj
 0001:00062a90       ?get_parameter_type@?$positional_parameter_base@DV?$stream_output_adapter@D@__crt_stdio_output@@@__crt_stdio_output@@CA?AW4parameter_type@12@_W@Z 0000000180063a90 f i libucrtd:output.obj
 0001:00062aa0       ?get_parameter_type@?$positional_parameter_base@DV?$string_output_adapter@D@__crt_stdio_output@@@__crt_stdio_output@@CA?AW4parameter_type@12@F@Z 0000000180063aa0 f i libucrtd:output.obj
 0001:00062ab0       ?get_parameter_type@?$positional_parameter_base@DV?$string_output_adapter@D@__crt_stdio_output@@@__crt_stdio_output@@CA?AW4parameter_type@12@G@Z 0000000180063ab0 f i libucrtd:output.obj
 0001:00062ac0       ?get_parameter_type@?$positional_parameter_base@DV?$string_output_adapter@D@__crt_stdio_output@@@__crt_stdio_output@@CA?AW4parameter_type@12@H@Z 0000000180063ac0 f i libucrtd:output.obj
 0001:00062ad0       ?get_parameter_type@?$positional_parameter_base@DV?$string_output_adapter@D@__crt_stdio_output@@@__crt_stdio_output@@CA?AW4parameter_type@12@I@Z 0000000180063ad0 f i libucrtd:output.obj
 0001:00062ae0       ?get_parameter_type@?$positional_parameter_base@DV?$string_output_adapter@D@__crt_stdio_output@@@__crt_stdio_output@@CA?AW4parameter_type@12@U_CRT_DOUBLE@@@Z 0000000180063ae0 f i libucrtd:output.obj
 0001:00062af0       ?get_parameter_type@?$positional_parameter_base@DV?$string_output_adapter@D@__crt_stdio_output@@@__crt_stdio_output@@CA?AW4parameter_type@12@_J@Z 0000000180063af0 f i libucrtd:output.obj
 0001:00062b00       ?get_parameter_type@?$positional_parameter_base@DV?$string_output_adapter@D@__crt_stdio_output@@@__crt_stdio_output@@CA?AW4parameter_type@12@_K@Z 0000000180063b00 f i libucrtd:output.obj
 0001:00062b10       ?get_parameter_type@?$positional_parameter_base@DV?$string_output_adapter@D@__crt_stdio_output@@@__crt_stdio_output@@CA?AW4parameter_type@12@_W@Z 0000000180063b10 f i libucrtd:output.obj
 0001:00062b20       ?get_parameter_type@?$positional_parameter_base@_WV?$stream_output_adapter@_W@__crt_stdio_output@@@__crt_stdio_output@@CA?AW4parameter_type@12@F@Z 0000000180063b20 f i libucrtd:output.obj
 0001:00062b30       ?get_parameter_type@?$positional_parameter_base@_WV?$stream_output_adapter@_W@__crt_stdio_output@@@__crt_stdio_output@@CA?AW4parameter_type@12@G@Z 0000000180063b30 f i libucrtd:output.obj
 0001:00062b40       ?get_parameter_type@?$positional_parameter_base@_WV?$stream_output_adapter@_W@__crt_stdio_output@@@__crt_stdio_output@@CA?AW4parameter_type@12@H@Z 0000000180063b40 f i libucrtd:output.obj
 0001:00062b50       ?get_parameter_type@?$positional_parameter_base@_WV?$stream_output_adapter@_W@__crt_stdio_output@@@__crt_stdio_output@@CA?AW4parameter_type@12@I@Z 0000000180063b50 f i libucrtd:output.obj
 0001:00062b60       ?get_parameter_type@?$positional_parameter_base@_WV?$stream_output_adapter@_W@__crt_stdio_output@@@__crt_stdio_output@@CA?AW4parameter_type@12@U_CRT_DOUBLE@@@Z 0000000180063b60 f i libucrtd:output.obj
 0001:00062b70       ?get_parameter_type@?$positional_parameter_base@_WV?$stream_output_adapter@_W@__crt_stdio_output@@@__crt_stdio_output@@CA?AW4parameter_type@12@_J@Z 0000000180063b70 f i libucrtd:output.obj
 0001:00062b80       ?get_parameter_type@?$positional_parameter_base@_WV?$stream_output_adapter@_W@__crt_stdio_output@@@__crt_stdio_output@@CA?AW4parameter_type@12@_K@Z 0000000180063b80 f i libucrtd:output.obj
 0001:00062b90       ?get_parameter_type@?$positional_parameter_base@_WV?$stream_output_adapter@_W@__crt_stdio_output@@@__crt_stdio_output@@CA?AW4parameter_type@12@_W@Z 0000000180063b90 f i libucrtd:output.obj
 0001:00062ba0       ?get_parameter_type@?$positional_parameter_base@_WV?$string_output_adapter@_W@__crt_stdio_output@@@__crt_stdio_output@@CA?AW4parameter_type@12@F@Z 0000000180063ba0 f i libucrtd:output.obj
 0001:00062bb0       ?get_parameter_type@?$positional_parameter_base@_WV?$string_output_adapter@_W@__crt_stdio_output@@@__crt_stdio_output@@CA?AW4parameter_type@12@G@Z 0000000180063bb0 f i libucrtd:output.obj
 0001:00062bc0       ?get_parameter_type@?$positional_parameter_base@_WV?$string_output_adapter@_W@__crt_stdio_output@@@__crt_stdio_output@@CA?AW4parameter_type@12@H@Z 0000000180063bc0 f i libucrtd:output.obj
 0001:00062bd0       ?get_parameter_type@?$positional_parameter_base@_WV?$string_output_adapter@_W@__crt_stdio_output@@@__crt_stdio_output@@CA?AW4parameter_type@12@I@Z 0000000180063bd0 f i libucrtd:output.obj
 0001:00062be0       ?get_parameter_type@?$positional_parameter_base@_WV?$string_output_adapter@_W@__crt_stdio_output@@@__crt_stdio_output@@CA?AW4parameter_type@12@U_CRT_DOUBLE@@@Z 0000000180063be0 f i libucrtd:output.obj
 0001:00062bf0       ?get_parameter_type@?$positional_parameter_base@_WV?$string_output_adapter@_W@__crt_stdio_output@@@__crt_stdio_output@@CA?AW4parameter_type@12@_J@Z 0000000180063bf0 f i libucrtd:output.obj
 0001:00062c00       ?get_parameter_type@?$positional_parameter_base@_WV?$string_output_adapter@_W@__crt_stdio_output@@@__crt_stdio_output@@CA?AW4parameter_type@12@_K@Z 0000000180063c00 f i libucrtd:output.obj
 0001:00062c10       ?get_parameter_type@?$positional_parameter_base@_WV?$string_output_adapter@_W@__crt_stdio_output@@@__crt_stdio_output@@CA?AW4parameter_type@12@_W@Z 0000000180063c10 f i libucrtd:output.obj
 0001:00062c20       ?has_flag@?$output_processor@DV?$stream_output_adapter@D@__crt_stdio_output@@V?$format_validation_base@DV?$stream_output_adapter@D@__crt_stdio_output@@@2@@__crt_stdio_output@@AEBA_NI@Z 0000000180063c20 f i libucrtd:output.obj
 0001:00062c60       ?has_flag@?$output_processor@DV?$stream_output_adapter@D@__crt_stdio_output@@V?$positional_parameter_base@DV?$stream_output_adapter@D@__crt_stdio_output@@@2@@__crt_stdio_output@@AEBA_NI@Z 0000000180063c60 f i libucrtd:output.obj
 0001:00062ca0       ?has_flag@?$output_processor@DV?$stream_output_adapter@D@__crt_stdio_output@@V?$standard_base@DV?$stream_output_adapter@D@__crt_stdio_output@@@2@@__crt_stdio_output@@AEBA_NI@Z 0000000180063ca0 f i libucrtd:output.obj
 0001:00062ce0       ?has_flag@?$output_processor@DV?$string_output_adapter@D@__crt_stdio_output@@V?$format_validation_base@DV?$string_output_adapter@D@__crt_stdio_output@@@2@@__crt_stdio_output@@AEBA_NI@Z 0000000180063ce0 f i libucrtd:output.obj
 0001:00062d20       ?has_flag@?$output_processor@DV?$string_output_adapter@D@__crt_stdio_output@@V?$positional_parameter_base@DV?$string_output_adapter@D@__crt_stdio_output@@@2@@__crt_stdio_output@@AEBA_NI@Z 0000000180063d20 f i libucrtd:output.obj
 0001:00062d60       ?has_flag@?$output_processor@DV?$string_output_adapter@D@__crt_stdio_output@@V?$standard_base@DV?$string_output_adapter@D@__crt_stdio_output@@@2@@__crt_stdio_output@@AEBA_NI@Z 0000000180063d60 f i libucrtd:output.obj
 0001:00062da0       ?has_flag@?$output_processor@_WV?$stream_output_adapter@_W@__crt_stdio_output@@V?$format_validation_base@_WV?$stream_output_adapter@_W@__crt_stdio_output@@@2@@__crt_stdio_output@@AEBA_NI@Z 0000000180063da0 f i libucrtd:output.obj
 0001:00062de0       ?has_flag@?$output_processor@_WV?$stream_output_adapter@_W@__crt_stdio_output@@V?$positional_parameter_base@_WV?$stream_output_adapter@_W@__crt_stdio_output@@@2@@__crt_stdio_output@@AEBA_NI@Z 0000000180063de0 f i libucrtd:output.obj
 0001:00062e20       ?has_flag@?$output_processor@_WV?$stream_output_adapter@_W@__crt_stdio_output@@V?$standard_base@_WV?$stream_output_adapter@_W@__crt_stdio_output@@@2@@__crt_stdio_output@@AEBA_NI@Z 0000000180063e20 f i libucrtd:output.obj
 0001:00062e60       ?has_flag@?$output_processor@_WV?$string_output_adapter@_W@__crt_stdio_output@@V?$format_validation_base@_WV?$string_output_adapter@_W@__crt_stdio_output@@@2@@__crt_stdio_output@@AEBA_NI@Z 0000000180063e60 f i libucrtd:output.obj
 0001:00062ea0       ?has_flag@?$output_processor@_WV?$string_output_adapter@_W@__crt_stdio_output@@V?$positional_parameter_base@_WV?$string_output_adapter@_W@__crt_stdio_output@@@2@@__crt_stdio_output@@AEBA_NI@Z 0000000180063ea0 f i libucrtd:output.obj
 0001:00062ee0       ?has_flag@?$output_processor@_WV?$string_output_adapter@_W@__crt_stdio_output@@V?$standard_base@_WV?$string_output_adapter@_W@__crt_stdio_output@@@2@@__crt_stdio_output@@AEBA_NI@Z 0000000180063ee0 f i libucrtd:output.obj
 0001:00062f20       ?is_positional_parameter_reappearance_consistent@?$positional_parameter_base@DV?$stream_output_adapter@D@__crt_stdio_output@@@__crt_stdio_output@@AEAA_NAEBUparameter_data@12@W4parameter_type@12@DW4length_modifier@2@@Z 0000000180063f20 f i libucrtd:output.obj
 0001:00063180       ?is_positional_parameter_reappearance_consistent@?$positional_parameter_base@DV?$string_output_adapter@D@__crt_stdio_output@@@__crt_stdio_output@@AEAA_NAEBUparameter_data@12@W4parameter_type@12@DW4length_modifier@2@@Z 0000000180064180 f i libucrtd:output.obj
 0001:000633e0       ?is_positional_parameter_reappearance_consistent@?$positional_parameter_base@_WV?$stream_output_adapter@_W@__crt_stdio_output@@@__crt_stdio_output@@AEAA_NAEBUparameter_data@12@W4parameter_type@12@_WW4length_modifier@2@@Z 00000001800643e0 f i libucrtd:output.obj
 0001:00063640       ?is_positional_parameter_reappearance_consistent@?$positional_parameter_base@_WV?$string_output_adapter@_W@__crt_stdio_output@@@__crt_stdio_output@@AEAA_NAEBUparameter_data@12@W4parameter_type@12@_WW4length_modifier@2@@Z 0000000180064640 f i libucrtd:output.obj
 0001:000638a0       ?is_string_backed@__crt_stdio_stream@@QEBA_NXZ 00000001800648a0 f i libucrtd:output.obj
 0001:000638e0       ?narrow_null_string@?$output_processor@DV?$stream_output_adapter@D@__crt_stdio_output@@V?$format_validation_base@DV?$stream_output_adapter@D@__crt_stdio_output@@@2@@__crt_stdio_output@@CAPEADXZ 00000001800648e0 f i libucrtd:output.obj
 0001:000638f0       ?narrow_null_string@?$output_processor@DV?$stream_output_adapter@D@__crt_stdio_output@@V?$positional_parameter_base@DV?$stream_output_adapter@D@__crt_stdio_output@@@2@@__crt_stdio_output@@CAPEADXZ 00000001800648f0 f i libucrtd:output.obj
 0001:00063900       ?narrow_null_string@?$output_processor@DV?$stream_output_adapter@D@__crt_stdio_output@@V?$standard_base@DV?$stream_output_adapter@D@__crt_stdio_output@@@2@@__crt_stdio_output@@CAPEADXZ 0000000180064900 f i libucrtd:output.obj
 0001:00063910       ?narrow_null_string@?$output_processor@DV?$string_output_adapter@D@__crt_stdio_output@@V?$format_validation_base@DV?$string_output_adapter@D@__crt_stdio_output@@@2@@__crt_stdio_output@@CAPEADXZ 0000000180064910 f i libucrtd:output.obj
 0001:00063920       ?narrow_null_string@?$output_processor@DV?$string_output_adapter@D@__crt_stdio_output@@V?$positional_parameter_base@DV?$string_output_adapter@D@__crt_stdio_output@@@2@@__crt_stdio_output@@CAPEADXZ 0000000180064920 f i libucrtd:output.obj
 0001:00063930       ?narrow_null_string@?$output_processor@DV?$string_output_adapter@D@__crt_stdio_output@@V?$standard_base@DV?$string_output_adapter@D@__crt_stdio_output@@@2@@__crt_stdio_output@@CAPEADXZ 0000000180064930 f i libucrtd:output.obj
 0001:00063940       ?narrow_null_string@?$output_processor@_WV?$stream_output_adapter@_W@__crt_stdio_output@@V?$format_validation_base@_WV?$stream_output_adapter@_W@__crt_stdio_output@@@2@@__crt_stdio_output@@CAPEADXZ 0000000180064940 f i libucrtd:output.obj
 0001:00063950       ?narrow_null_string@?$output_processor@_WV?$stream_output_adapter@_W@__crt_stdio_output@@V?$positional_parameter_base@_WV?$stream_output_adapter@_W@__crt_stdio_output@@@2@@__crt_stdio_output@@CAPEADXZ 0000000180064950 f i libucrtd:output.obj
 0001:00063960       ?narrow_null_string@?$output_processor@_WV?$stream_output_adapter@_W@__crt_stdio_output@@V?$standard_base@_WV?$stream_output_adapter@_W@__crt_stdio_output@@@2@@__crt_stdio_output@@CAPEADXZ 0000000180064960 f i libucrtd:output.obj
 0001:00063970       ?narrow_null_string@?$output_processor@_WV?$string_output_adapter@_W@__crt_stdio_output@@V?$format_validation_base@_WV?$string_output_adapter@_W@__crt_stdio_output@@@2@@__crt_stdio_output@@CAPEADXZ 0000000180064970 f i libucrtd:output.obj
 0001:00063980       ?narrow_null_string@?$output_processor@_WV?$string_output_adapter@_W@__crt_stdio_output@@V?$positional_parameter_base@_WV?$string_output_adapter@_W@__crt_stdio_output@@@2@@__crt_stdio_output@@CAPEADXZ 0000000180064980 f i libucrtd:output.obj
 0001:00063990       ?narrow_null_string@?$output_processor@_WV?$string_output_adapter@_W@__crt_stdio_output@@V?$standard_base@_WV?$string_output_adapter@_W@__crt_stdio_output@@@2@@__crt_stdio_output@@CAPEADXZ 0000000180064990 f i libucrtd:output.obj
 0001:000639a0       ?parse_int_from_format_string@?$output_processor@DV?$stream_output_adapter@D@__crt_stdio_output@@V?$format_validation_base@DV?$stream_output_adapter@D@__crt_stdio_output@@@2@@__crt_stdio_output@@AEAA_NQEAH@Z 00000001800649a0 f i libucrtd:output.obj
 0001:00063a90       ?parse_int_from_format_string@?$output_processor@DV?$stream_output_adapter@D@__crt_stdio_output@@V?$positional_parameter_base@DV?$stream_output_adapter@D@__crt_stdio_output@@@2@@__crt_stdio_output@@AEAA_NQEAH@Z 0000000180064a90 f i libucrtd:output.obj
 0001:00063b80       ?parse_int_from_format_string@?$output_processor@DV?$stream_output_adapter@D@__crt_stdio_output@@V?$standard_base@DV?$stream_output_adapter@D@__crt_stdio_output@@@2@@__crt_stdio_output@@AEAA_NQEAH@Z 0000000180064b80 f i libucrtd:output.obj
 0001:00063c70       ?parse_int_from_format_string@?$output_processor@DV?$string_output_adapter@D@__crt_stdio_output@@V?$format_validation_base@DV?$string_output_adapter@D@__crt_stdio_output@@@2@@__crt_stdio_output@@AEAA_NQEAH@Z 0000000180064c70 f i libucrtd:output.obj
 0001:00063d60       ?parse_int_from_format_string@?$output_processor@DV?$string_output_adapter@D@__crt_stdio_output@@V?$positional_parameter_base@DV?$string_output_adapter@D@__crt_stdio_output@@@2@@__crt_stdio_output@@AEAA_NQEAH@Z 0000000180064d60 f i libucrtd:output.obj
 0001:00063e50       ?parse_int_from_format_string@?$output_processor@DV?$string_output_adapter@D@__crt_stdio_output@@V?$standard_base@DV?$string_output_adapter@D@__crt_stdio_output@@@2@@__crt_stdio_output@@AEAA_NQEAH@Z 0000000180064e50 f i libucrtd:output.obj
 0001:00063f40       ?parse_int_from_format_string@?$output_processor@_WV?$stream_output_adapter@_W@__crt_stdio_output@@V?$format_validation_base@_WV?$stream_output_adapter@_W@__crt_stdio_output@@@2@@__crt_stdio_output@@AEAA_NQEAH@Z 0000000180064f40 f i libucrtd:output.obj
 0001:00064030       ?parse_int_from_format_string@?$output_processor@_WV?$stream_output_adapter@_W@__crt_stdio_output@@V?$positional_parameter_base@_WV?$stream_output_adapter@_W@__crt_stdio_output@@@2@@__crt_stdio_output@@AEAA_NQEAH@Z 0000000180065030 f i libucrtd:output.obj
 0001:00064120       ?parse_int_from_format_string@?$output_processor@_WV?$stream_output_adapter@_W@__crt_stdio_output@@V?$standard_base@_WV?$stream_output_adapter@_W@__crt_stdio_output@@@2@@__crt_stdio_output@@AEAA_NQEAH@Z 0000000180065120 f i libucrtd:output.obj
 0001:00064210       ?parse_int_from_format_string@?$output_processor@_WV?$string_output_adapter@_W@__crt_stdio_output@@V?$format_validation_base@_WV?$string_output_adapter@_W@__crt_stdio_output@@@2@@__crt_stdio_output@@AEAA_NQEAH@Z 0000000180065210 f i libucrtd:output.obj
 0001:00064300       ?parse_int_from_format_string@?$output_processor@_WV?$string_output_adapter@_W@__crt_stdio_output@@V?$positional_parameter_base@_WV?$string_output_adapter@_W@__crt_stdio_output@@@2@@__crt_stdio_output@@AEAA_NQEAH@Z 0000000180065300 f i libucrtd:output.obj
 0001:000643f0       ?parse_int_from_format_string@?$output_processor@_WV?$string_output_adapter@_W@__crt_stdio_output@@V?$standard_base@_WV?$string_output_adapter@_W@__crt_stdio_output@@@2@@__crt_stdio_output@@AEAA_NQEAH@Z 00000001800653f0 f i libucrtd:output.obj
 0001:000644e0       ?process@?$output_processor@DV?$stream_output_adapter@D@__crt_stdio_output@@V?$format_validation_base@DV?$stream_output_adapter@D@__crt_stdio_output@@@2@@__crt_stdio_output@@QEAAHXZ 00000001800654e0 f i libucrtd:output.obj
 0001:00064840       ?process@?$output_processor@DV?$stream_output_adapter@D@__crt_stdio_output@@V?$positional_parameter_base@DV?$stream_output_adapter@D@__crt_stdio_output@@@2@@__crt_stdio_output@@QEAAHXZ 0000000180065840 f i libucrtd:output.obj
 0001:00064ba0       ?process@?$output_processor@DV?$stream_output_adapter@D@__crt_stdio_output@@V?$standard_base@DV?$stream_output_adapter@D@__crt_stdio_output@@@2@@__crt_stdio_output@@QEAAHXZ 0000000180065ba0 f i libucrtd:output.obj
 0001:00064f00       ?process@?$output_processor@DV?$string_output_adapter@D@__crt_stdio_output@@V?$format_validation_base@DV?$string_output_adapter@D@__crt_stdio_output@@@2@@__crt_stdio_output@@QEAAHXZ 0000000180065f00 f i libucrtd:output.obj
 0001:00065260       ?process@?$output_processor@DV?$string_output_adapter@D@__crt_stdio_output@@V?$positional_parameter_base@DV?$string_output_adapter@D@__crt_stdio_output@@@2@@__crt_stdio_output@@QEAAHXZ 0000000180066260 f i libucrtd:output.obj
 0001:000655c0       ?process@?$output_processor@DV?$string_output_adapter@D@__crt_stdio_output@@V?$standard_base@DV?$string_output_adapter@D@__crt_stdio_output@@@2@@__crt_stdio_output@@QEAAHXZ 00000001800665c0 f i libucrtd:output.obj
 0001:00065920       ?process@?$output_processor@_WV?$stream_output_adapter@_W@__crt_stdio_output@@V?$format_validation_base@_WV?$stream_output_adapter@_W@__crt_stdio_output@@@2@@__crt_stdio_output@@QEAAHXZ 0000000180066920 f i libucrtd:output.obj
 0001:00065c80       ?process@?$output_processor@_WV?$stream_output_adapter@_W@__crt_stdio_output@@V?$positional_parameter_base@_WV?$stream_output_adapter@_W@__crt_stdio_output@@@2@@__crt_stdio_output@@QEAAHXZ 0000000180066c80 f i libucrtd:output.obj
 0001:00065fe0       ?process@?$output_processor@_WV?$stream_output_adapter@_W@__crt_stdio_output@@V?$standard_base@_WV?$stream_output_adapter@_W@__crt_stdio_output@@@2@@__crt_stdio_output@@QEAAHXZ 0000000180066fe0 f i libucrtd:output.obj
 0001:00066340       ?process@?$output_processor@_WV?$string_output_adapter@_W@__crt_stdio_output@@V?$format_validation_base@_WV?$string_output_adapter@_W@__crt_stdio_output@@@2@@__crt_stdio_output@@QEAAHXZ 0000000180067340 f i libucrtd:output.obj
 0001:000666a0       ?process@?$output_processor@_WV?$string_output_adapter@_W@__crt_stdio_output@@V?$positional_parameter_base@_WV?$string_output_adapter@_W@__crt_stdio_output@@@2@@__crt_stdio_output@@QEAAHXZ 00000001800676a0 f i libucrtd:output.obj
 0001:00066a00       ?process@?$output_processor@_WV?$string_output_adapter@_W@__crt_stdio_output@@V?$standard_base@_WV?$string_output_adapter@_W@__crt_stdio_output@@@2@@__crt_stdio_output@@QEAAHXZ 0000000180067a00 f i libucrtd:output.obj
 0001:00066d60       ?public_stream@__crt_stdio_stream@@QEBAPEAU_iobuf@@XZ 0000000180067d60 f i libucrtd:output.obj
 0001:00066d70       ?set_flag@?$output_processor@DV?$stream_output_adapter@D@__crt_stdio_output@@V?$format_validation_base@DV?$stream_output_adapter@D@__crt_stdio_output@@@2@@__crt_stdio_output@@AEAAXI@Z 0000000180067d70 f i libucrtd:output.obj
 0001:00066d90       ?set_flag@?$output_processor@DV?$stream_output_adapter@D@__crt_stdio_output@@V?$positional_parameter_base@DV?$stream_output_adapter@D@__crt_stdio_output@@@2@@__crt_stdio_output@@AEAAXI@Z 0000000180067d90 f i libucrtd:output.obj
 0001:00066db0       ?set_flag@?$output_processor@DV?$stream_output_adapter@D@__crt_stdio_output@@V?$standard_base@DV?$stream_output_adapter@D@__crt_stdio_output@@@2@@__crt_stdio_output@@AEAAXI@Z 0000000180067db0 f i libucrtd:output.obj
 0001:00066dd0       ?set_flag@?$output_processor@DV?$string_output_adapter@D@__crt_stdio_output@@V?$format_validation_base@DV?$string_output_adapter@D@__crt_stdio_output@@@2@@__crt_stdio_output@@AEAAXI@Z 0000000180067dd0 f i libucrtd:output.obj
 0001:00066df0       ?set_flag@?$output_processor@DV?$string_output_adapter@D@__crt_stdio_output@@V?$positional_parameter_base@DV?$string_output_adapter@D@__crt_stdio_output@@@2@@__crt_stdio_output@@AEAAXI@Z 0000000180067df0 f i libucrtd:output.obj
 0001:00066e10       ?set_flag@?$output_processor@DV?$string_output_adapter@D@__crt_stdio_output@@V?$standard_base@DV?$string_output_adapter@D@__crt_stdio_output@@@2@@__crt_stdio_output@@AEAAXI@Z 0000000180067e10 f i libucrtd:output.obj
 0001:00066e30       ?set_flag@?$output_processor@_WV?$stream_output_adapter@_W@__crt_stdio_output@@V?$format_validation_base@_WV?$stream_output_adapter@_W@__crt_stdio_output@@@2@@__crt_stdio_output@@AEAAXI@Z 0000000180067e30 f i libucrtd:output.obj
 0001:00066e50       ?set_flag@?$output_processor@_WV?$stream_output_adapter@_W@__crt_stdio_output@@V?$positional_parameter_base@_WV?$stream_output_adapter@_W@__crt_stdio_output@@@2@@__crt_stdio_output@@AEAAXI@Z 0000000180067e50 f i libucrtd:output.obj
 0001:00066e70       ?set_flag@?$output_processor@_WV?$stream_output_adapter@_W@__crt_stdio_output@@V?$standard_base@_WV?$stream_output_adapter@_W@__crt_stdio_output@@@2@@__crt_stdio_output@@AEAAXI@Z 0000000180067e70 f i libucrtd:output.obj
 0001:00066e90       ?set_flag@?$output_processor@_WV?$string_output_adapter@_W@__crt_stdio_output@@V?$format_validation_base@_WV?$string_output_adapter@_W@__crt_stdio_output@@@2@@__crt_stdio_output@@AEAAXI@Z 0000000180067e90 f i libucrtd:output.obj
 0001:00066eb0       ?set_flag@?$output_processor@_WV?$string_output_adapter@_W@__crt_stdio_output@@V?$positional_parameter_base@_WV?$string_output_adapter@_W@__crt_stdio_output@@@2@@__crt_stdio_output@@AEAAXI@Z 0000000180067eb0 f i libucrtd:output.obj
 0001:00066ed0       ?set_flag@?$output_processor@_WV?$string_output_adapter@_W@__crt_stdio_output@@V?$standard_base@_WV?$string_output_adapter@_W@__crt_stdio_output@@@2@@__crt_stdio_output@@AEAAXI@Z 0000000180067ed0 f i libucrtd:output.obj
 0001:00066ef0       ?should_format@?$positional_parameter_base@DV?$stream_output_adapter@D@__crt_stdio_output@@@__crt_stdio_output@@IEAA_NXZ 0000000180067ef0 f i libucrtd:output.obj
 0001:00066f30       ?should_format@?$positional_parameter_base@DV?$string_output_adapter@D@__crt_stdio_output@@@__crt_stdio_output@@IEAA_NXZ 0000000180067f30 f i libucrtd:output.obj
 0001:00066f70       ?should_format@?$positional_parameter_base@_WV?$stream_output_adapter@_W@__crt_stdio_output@@@__crt_stdio_output@@IEAA_NXZ 0000000180067f70 f i libucrtd:output.obj
 0001:00066fb0       ?should_format@?$positional_parameter_base@_WV?$string_output_adapter@_W@__crt_stdio_output@@@__crt_stdio_output@@IEAA_NXZ 0000000180067fb0 f i libucrtd:output.obj
 0001:00066ff0       ?should_format@?$standard_base@DV?$stream_output_adapter@D@__crt_stdio_output@@@__crt_stdio_output@@IEAA_NXZ 0000000180067ff0 f i libucrtd:output.obj
 0001:00067000       ?should_format@?$standard_base@DV?$string_output_adapter@D@__crt_stdio_output@@@__crt_stdio_output@@IEAA_NXZ 0000000180068000 f i libucrtd:output.obj
 0001:00067010       ?should_format@?$standard_base@_WV?$stream_output_adapter@_W@__crt_stdio_output@@@__crt_stdio_output@@IEAA_NXZ 0000000180068010 f i libucrtd:output.obj
 0001:00067020       ?should_format@?$standard_base@_WV?$string_output_adapter@_W@__crt_stdio_output@@@__crt_stdio_output@@IEAA_NXZ 0000000180068020 f i libucrtd:output.obj
 0001:00067030       ?should_skip_normal_state_processing@?$positional_parameter_base@DV?$stream_output_adapter@D@__crt_stdio_output@@@__crt_stdio_output@@IEAA_NXZ 0000000180068030 f i libucrtd:output.obj
 0001:00067080       ?should_skip_normal_state_processing@?$positional_parameter_base@DV?$string_output_adapter@D@__crt_stdio_output@@@__crt_stdio_output@@IEAA_NXZ 0000000180068080 f i libucrtd:output.obj
 0001:000670d0       ?should_skip_normal_state_processing@?$positional_parameter_base@_WV?$stream_output_adapter@_W@__crt_stdio_output@@@__crt_stdio_output@@IEAA_NXZ 00000001800680d0 f i libucrtd:output.obj
 0001:00067120       ?should_skip_normal_state_processing@?$positional_parameter_base@_WV?$string_output_adapter@_W@__crt_stdio_output@@@__crt_stdio_output@@IEAA_NXZ 0000000180068120 f i libucrtd:output.obj
 0001:00067170       ?should_skip_normal_state_processing@?$standard_base@DV?$stream_output_adapter@D@__crt_stdio_output@@@__crt_stdio_output@@IEAA_NXZ 0000000180068170 f i libucrtd:output.obj
 0001:00067180       ?should_skip_normal_state_processing@?$standard_base@DV?$string_output_adapter@D@__crt_stdio_output@@@__crt_stdio_output@@IEAA_NXZ 0000000180068180 f i libucrtd:output.obj
 0001:00067190       ?should_skip_normal_state_processing@?$standard_base@_WV?$stream_output_adapter@_W@__crt_stdio_output@@@__crt_stdio_output@@IEAA_NXZ 0000000180068190 f i libucrtd:output.obj
 0001:000671a0       ?should_skip_normal_state_processing@?$standard_base@_WV?$string_output_adapter@_W@__crt_stdio_output@@@__crt_stdio_output@@IEAA_NXZ 00000001800681a0 f i libucrtd:output.obj
 0001:000671b0       ?should_skip_type_state_output@?$positional_parameter_base@DV?$stream_output_adapter@D@__crt_stdio_output@@@__crt_stdio_output@@IEBA_NXZ 00000001800681b0 f i libucrtd:output.obj
 0001:000671f0       ?should_skip_type_state_output@?$positional_parameter_base@DV?$string_output_adapter@D@__crt_stdio_output@@@__crt_stdio_output@@IEBA_NXZ 00000001800681f0 f i libucrtd:output.obj
 0001:00067230       ?should_skip_type_state_output@?$positional_parameter_base@_WV?$stream_output_adapter@_W@__crt_stdio_output@@@__crt_stdio_output@@IEBA_NXZ 0000000180068230 f i libucrtd:output.obj
 0001:00067270       ?should_skip_type_state_output@?$positional_parameter_base@_WV?$string_output_adapter@_W@__crt_stdio_output@@@__crt_stdio_output@@IEBA_NXZ 0000000180068270 f i libucrtd:output.obj
 0001:000672b0       ?should_skip_type_state_output@?$standard_base@DV?$stream_output_adapter@D@__crt_stdio_output@@@__crt_stdio_output@@IEBA_NXZ 00000001800682b0 f i libucrtd:output.obj
 0001:000672c0       ?should_skip_type_state_output@?$standard_base@DV?$string_output_adapter@D@__crt_stdio_output@@@__crt_stdio_output@@IEBA_NXZ 00000001800682c0 f i libucrtd:output.obj
 0001:000672d0       ?should_skip_type_state_output@?$standard_base@_WV?$stream_output_adapter@_W@__crt_stdio_output@@@__crt_stdio_output@@IEBA_NXZ 00000001800682d0 f i libucrtd:output.obj
 0001:000672e0       ?should_skip_type_state_output@?$standard_base@_WV?$string_output_adapter@_W@__crt_stdio_output@@@__crt_stdio_output@@IEBA_NXZ 00000001800682e0 f i libucrtd:output.obj
 0001:000672f0       ?state_case_dot@?$output_processor@DV?$stream_output_adapter@D@__crt_stdio_output@@V?$format_validation_base@DV?$stream_output_adapter@D@__crt_stdio_output@@@2@@__crt_stdio_output@@AEAA_NXZ 00000001800682f0 f i libucrtd:output.obj
 0001:00067310       ?state_case_dot@?$output_processor@DV?$stream_output_adapter@D@__crt_stdio_output@@V?$positional_parameter_base@DV?$stream_output_adapter@D@__crt_stdio_output@@@2@@__crt_stdio_output@@AEAA_NXZ 0000000180068310 f i libucrtd:output.obj
 0001:00067330       ?state_case_dot@?$output_processor@DV?$stream_output_adapter@D@__crt_stdio_output@@V?$standard_base@DV?$stream_output_adapter@D@__crt_stdio_output@@@2@@__crt_stdio_output@@AEAA_NXZ 0000000180068330 f i libucrtd:output.obj
 0001:00067350       ?state_case_dot@?$output_processor@DV?$string_output_adapter@D@__crt_stdio_output@@V?$format_validation_base@DV?$string_output_adapter@D@__crt_stdio_output@@@2@@__crt_stdio_output@@AEAA_NXZ 0000000180068350 f i libucrtd:output.obj
 0001:00067370       ?state_case_dot@?$output_processor@DV?$string_output_adapter@D@__crt_stdio_output@@V?$positional_parameter_base@DV?$string_output_adapter@D@__crt_stdio_output@@@2@@__crt_stdio_output@@AEAA_NXZ 0000000180068370 f i libucrtd:output.obj
 0001:00067390       ?state_case_dot@?$output_processor@DV?$string_output_adapter@D@__crt_stdio_output@@V?$standard_base@DV?$string_output_adapter@D@__crt_stdio_output@@@2@@__crt_stdio_output@@AEAA_NXZ 0000000180068390 f i libucrtd:output.obj
 0001:000673b0       ?state_case_dot@?$output_processor@_WV?$stream_output_adapter@_W@__crt_stdio_output@@V?$format_validation_base@_WV?$stream_output_adapter@_W@__crt_stdio_output@@@2@@__crt_stdio_output@@AEAA_NXZ 00000001800683b0 f i libucrtd:output.obj
 0001:000673d0       ?state_case_dot@?$output_processor@_WV?$stream_output_adapter@_W@__crt_stdio_output@@V?$positional_parameter_base@_WV?$stream_output_adapter@_W@__crt_stdio_output@@@2@@__crt_stdio_output@@AEAA_NXZ 00000001800683d0 f i libucrtd:output.obj
 0001:000673f0       ?state_case_dot@?$output_processor@_WV?$stream_output_adapter@_W@__crt_stdio_output@@V?$standard_base@_WV?$stream_output_adapter@_W@__crt_stdio_output@@@2@@__crt_stdio_output@@AEAA_NXZ 00000001800683f0 f i libucrtd:output.obj
 0001:00067410       ?state_case_dot@?$output_processor@_WV?$string_output_adapter@_W@__crt_stdio_output@@V?$format_validation_base@_WV?$string_output_adapter@_W@__crt_stdio_output@@@2@@__crt_stdio_output@@AEAA_NXZ 0000000180068410 f i libucrtd:output.obj
 0001:00067430       ?state_case_dot@?$output_processor@_WV?$string_output_adapter@_W@__crt_stdio_output@@V?$positional_parameter_base@_WV?$string_output_adapter@_W@__crt_stdio_output@@@2@@__crt_stdio_output@@AEAA_NXZ 0000000180068430 f i libucrtd:output.obj
 0001:00067450       ?state_case_dot@?$output_processor@_WV?$string_output_adapter@_W@__crt_stdio_output@@V?$standard_base@_WV?$string_output_adapter@_W@__crt_stdio_output@@@2@@__crt_stdio_output@@AEAA_NXZ 0000000180068450 f i libucrtd:output.obj
 0001:00067470       ?state_case_flag@?$output_processor@DV?$stream_output_adapter@D@__crt_stdio_output@@V?$format_validation_base@DV?$stream_output_adapter@D@__crt_stdio_output@@@2@@__crt_stdio_output@@AEAA_NXZ 0000000180068470 f i libucrtd:output.obj
 0001:00067510       ?state_case_flag@?$output_processor@DV?$stream_output_adapter@D@__crt_stdio_output@@V?$positional_parameter_base@DV?$stream_output_adapter@D@__crt_stdio_output@@@2@@__crt_stdio_output@@AEAA_NXZ 0000000180068510 f i libucrtd:output.obj
 0001:000675b0       ?state_case_flag@?$output_processor@DV?$stream_output_adapter@D@__crt_stdio_output@@V?$standard_base@DV?$stream_output_adapter@D@__crt_stdio_output@@@2@@__crt_stdio_output@@AEAA_NXZ 00000001800685b0 f i libucrtd:output.obj
 0001:00067650       ?state_case_flag@?$output_processor@DV?$string_output_adapter@D@__crt_stdio_output@@V?$format_validation_base@DV?$string_output_adapter@D@__crt_stdio_output@@@2@@__crt_stdio_output@@AEAA_NXZ 0000000180068650 f i libucrtd:output.obj
 0001:000676f0       ?state_case_flag@?$output_processor@DV?$string_output_adapter@D@__crt_stdio_output@@V?$positional_parameter_base@DV?$string_output_adapter@D@__crt_stdio_output@@@2@@__crt_stdio_output@@AEAA_NXZ 00000001800686f0 f i libucrtd:output.obj
 0001:00067790       ?state_case_flag@?$output_processor@DV?$string_output_adapter@D@__crt_stdio_output@@V?$standard_base@DV?$string_output_adapter@D@__crt_stdio_output@@@2@@__crt_stdio_output@@AEAA_NXZ 0000000180068790 f i libucrtd:output.obj
 0001:00067830       ?state_case_flag@?$output_processor@_WV?$stream_output_adapter@_W@__crt_stdio_output@@V?$format_validation_base@_WV?$stream_output_adapter@_W@__crt_stdio_output@@@2@@__crt_stdio_output@@AEAA_NXZ 0000000180068830 f i libucrtd:output.obj
 0001:000678d0       ?state_case_flag@?$output_processor@_WV?$stream_output_adapter@_W@__crt_stdio_output@@V?$positional_parameter_base@_WV?$stream_output_adapter@_W@__crt_stdio_output@@@2@@__crt_stdio_output@@AEAA_NXZ 00000001800688d0 f i libucrtd:output.obj
 0001:00067970       ?state_case_flag@?$output_processor@_WV?$stream_output_adapter@_W@__crt_stdio_output@@V?$standard_base@_WV?$stream_output_adapter@_W@__crt_stdio_output@@@2@@__crt_stdio_output@@AEAA_NXZ 0000000180068970 f i libucrtd:output.obj
 0001:00067a10       ?state_case_flag@?$output_processor@_WV?$string_output_adapter@_W@__crt_stdio_output@@V?$format_validation_base@_WV?$string_output_adapter@_W@__crt_stdio_output@@@2@@__crt_stdio_output@@AEAA_NXZ 0000000180068a10 f i libucrtd:output.obj
 0001:00067ab0       ?state_case_flag@?$output_processor@_WV?$string_output_adapter@_W@__crt_stdio_output@@V?$positional_parameter_base@_WV?$string_output_adapter@_W@__crt_stdio_output@@@2@@__crt_stdio_output@@AEAA_NXZ 0000000180068ab0 f i libucrtd:output.obj
 0001:00067b50       ?state_case_flag@?$output_processor@_WV?$string_output_adapter@_W@__crt_stdio_output@@V?$standard_base@_WV?$string_output_adapter@_W@__crt_stdio_output@@@2@@__crt_stdio_output@@AEAA_NXZ 0000000180068b50 f i libucrtd:output.obj
 0001:00067bf0       ?state_case_normal@?$output_processor@DV?$stream_output_adapter@D@__crt_stdio_output@@V?$format_validation_base@DV?$stream_output_adapter@D@__crt_stdio_output@@@2@@__crt_stdio_output@@AEAA_NXZ 0000000180068bf0 f i libucrtd:output.obj
 0001:00067cd0       ?state_case_normal@?$output_processor@DV?$stream_output_adapter@D@__crt_stdio_output@@V?$positional_parameter_base@DV?$stream_output_adapter@D@__crt_stdio_output@@@2@@__crt_stdio_output@@AEAA_NXZ 0000000180068cd0 f i libucrtd:output.obj
 0001:00067db0       ?state_case_normal@?$output_processor@DV?$stream_output_adapter@D@__crt_stdio_output@@V?$standard_base@DV?$stream_output_adapter@D@__crt_stdio_output@@@2@@__crt_stdio_output@@AEAA_NXZ 0000000180068db0 f i libucrtd:output.obj
 0001:00067e90       ?state_case_normal@?$output_processor@DV?$string_output_adapter@D@__crt_stdio_output@@V?$format_validation_base@DV?$string_output_adapter@D@__crt_stdio_output@@@2@@__crt_stdio_output@@AEAA_NXZ 0000000180068e90 f i libucrtd:output.obj
 0001:00067f70       ?state_case_normal@?$output_processor@DV?$string_output_adapter@D@__crt_stdio_output@@V?$positional_parameter_base@DV?$string_output_adapter@D@__crt_stdio_output@@@2@@__crt_stdio_output@@AEAA_NXZ 0000000180068f70 f i libucrtd:output.obj
 0001:00068050       ?state_case_normal@?$output_processor@DV?$string_output_adapter@D@__crt_stdio_output@@V?$standard_base@DV?$string_output_adapter@D@__crt_stdio_output@@@2@@__crt_stdio_output@@AEAA_NXZ 0000000180069050 f i libucrtd:output.obj
 0001:00068130       ?state_case_normal@?$output_processor@_WV?$stream_output_adapter@_W@__crt_stdio_output@@V?$format_validation_base@_WV?$stream_output_adapter@_W@__crt_stdio_output@@@2@@__crt_stdio_output@@AEAA_NXZ 0000000180069130 f i libucrtd:output.obj
 0001:00068210       ?state_case_normal@?$output_processor@_WV?$stream_output_adapter@_W@__crt_stdio_output@@V?$positional_parameter_base@_WV?$stream_output_adapter@_W@__crt_stdio_output@@@2@@__crt_stdio_output@@AEAA_NXZ 0000000180069210 f i libucrtd:output.obj
 0001:000682f0       ?state_case_normal@?$output_processor@_WV?$stream_output_adapter@_W@__crt_stdio_output@@V?$standard_base@_WV?$stream_output_adapter@_W@__crt_stdio_output@@@2@@__crt_stdio_output@@AEAA_NXZ 00000001800692f0 f i libucrtd:output.obj
 0001:000683d0       ?state_case_normal@?$output_processor@_WV?$string_output_adapter@_W@__crt_stdio_output@@V?$format_validation_base@_WV?$string_output_adapter@_W@__crt_stdio_output@@@2@@__crt_stdio_output@@AEAA_NXZ 00000001800693d0 f i libucrtd:output.obj
 0001:000684b0       ?state_case_normal@?$output_processor@_WV?$string_output_adapter@_W@__crt_stdio_output@@V?$positional_parameter_base@_WV?$string_output_adapter@_W@__crt_stdio_output@@@2@@__crt_stdio_output@@AEAA_NXZ 00000001800694b0 f i libucrtd:output.obj
 0001:00068590       ?state_case_normal@?$output_processor@_WV?$string_output_adapter@_W@__crt_stdio_output@@V?$standard_base@_WV?$string_output_adapter@_W@__crt_stdio_output@@@2@@__crt_stdio_output@@AEAA_NXZ 0000000180069590 f i libucrtd:output.obj
 0001:00068670       ?state_case_normal_common@?$output_processor@DV?$stream_output_adapter@D@__crt_stdio_output@@V?$format_validation_base@DV?$stream_output_adapter@D@__crt_stdio_output@@@2@@__crt_stdio_output@@AEAA_NXZ 0000000180069670 f i libucrtd:output.obj
 0001:000686c0       ?state_case_normal_common@?$output_processor@DV?$stream_output_adapter@D@__crt_stdio_output@@V?$positional_parameter_base@DV?$stream_output_adapter@D@__crt_stdio_output@@@2@@__crt_stdio_output@@AEAA_NXZ 00000001800696c0 f i libucrtd:output.obj
 0001:00068710       ?state_case_normal_common@?$output_processor@DV?$stream_output_adapter@D@__crt_stdio_output@@V?$standard_base@DV?$stream_output_adapter@D@__crt_stdio_output@@@2@@__crt_stdio_output@@AEAA_NXZ 0000000180069710 f i libucrtd:output.obj
 0001:00068760       ?state_case_normal_common@?$output_processor@DV?$string_output_adapter@D@__crt_stdio_output@@V?$format_validation_base@DV?$string_output_adapter@D@__crt_stdio_output@@@2@@__crt_stdio_output@@AEAA_NXZ 0000000180069760 f i libucrtd:output.obj
 0001:000687b0       ?state_case_normal_common@?$output_processor@DV?$string_output_adapter@D@__crt_stdio_output@@V?$positional_parameter_base@DV?$string_output_adapter@D@__crt_stdio_output@@@2@@__crt_stdio_output@@AEAA_NXZ 00000001800697b0 f i libucrtd:output.obj
 0001:00068800       ?state_case_normal_common@?$output_processor@DV?$string_output_adapter@D@__crt_stdio_output@@V?$standard_base@DV?$string_output_adapter@D@__crt_stdio_output@@@2@@__crt_stdio_output@@AEAA_NXZ 0000000180069800 f i libucrtd:output.obj
 0001:00068850       ?state_case_normal_common@?$output_processor@_WV?$stream_output_adapter@_W@__crt_stdio_output@@V?$format_validation_base@_WV?$stream_output_adapter@_W@__crt_stdio_output@@@2@@__crt_stdio_output@@AEAA_NXZ 0000000180069850 f i libucrtd:output.obj
 0001:000688a0       ?state_case_normal_common@?$output_processor@_WV?$stream_output_adapter@_W@__crt_stdio_output@@V?$positional_parameter_base@_WV?$stream_output_adapter@_W@__crt_stdio_output@@@2@@__crt_stdio_output@@AEAA_NXZ 00000001800698a0 f i libucrtd:output.obj
 0001:000688f0       ?state_case_normal_common@?$output_processor@_WV?$stream_output_adapter@_W@__crt_stdio_output@@V?$standard_base@_WV?$stream_output_adapter@_W@__crt_stdio_output@@@2@@__crt_stdio_output@@AEAA_NXZ 00000001800698f0 f i libucrtd:output.obj
 0001:00068940       ?state_case_normal_common@?$output_processor@_WV?$string_output_adapter@_W@__crt_stdio_output@@V?$format_validation_base@_WV?$string_output_adapter@_W@__crt_stdio_output@@@2@@__crt_stdio_output@@AEAA_NXZ 0000000180069940 f i libucrtd:output.obj
 0001:00068990       ?state_case_normal_common@?$output_processor@_WV?$string_output_adapter@_W@__crt_stdio_output@@V?$positional_parameter_base@_WV?$string_output_adapter@_W@__crt_stdio_output@@@2@@__crt_stdio_output@@AEAA_NXZ 0000000180069990 f i libucrtd:output.obj
 0001:000689e0       ?state_case_normal_common@?$output_processor@_WV?$string_output_adapter@_W@__crt_stdio_output@@V?$standard_base@_WV?$string_output_adapter@_W@__crt_stdio_output@@@2@@__crt_stdio_output@@AEAA_NXZ 00000001800699e0 f i libucrtd:output.obj
 0001:00068a30       ?state_case_normal_tchar@?$output_processor@DV?$stream_output_adapter@D@__crt_stdio_output@@V?$format_validation_base@DV?$stream_output_adapter@D@__crt_stdio_output@@@2@@__crt_stdio_output@@AEAA_ND@Z 0000000180069a30 f i libucrtd:output.obj
 0001:00068b70       ?state_case_normal_tchar@?$output_processor@DV?$stream_output_adapter@D@__crt_stdio_output@@V?$positional_parameter_base@DV?$stream_output_adapter@D@__crt_stdio_output@@@2@@__crt_stdio_output@@AEAA_ND@Z 0000000180069b70 f i libucrtd:output.obj
 0001:00068cb0       ?state_case_normal_tchar@?$output_processor@DV?$stream_output_adapter@D@__crt_stdio_output@@V?$standard_base@DV?$stream_output_adapter@D@__crt_stdio_output@@@2@@__crt_stdio_output@@AEAA_ND@Z 0000000180069cb0 f i libucrtd:output.obj
 0001:00068df0       ?state_case_normal_tchar@?$output_processor@DV?$string_output_adapter@D@__crt_stdio_output@@V?$format_validation_base@DV?$string_output_adapter@D@__crt_stdio_output@@@2@@__crt_stdio_output@@AEAA_ND@Z 0000000180069df0 f i libucrtd:output.obj
 0001:00068f30       ?state_case_normal_tchar@?$output_processor@DV?$string_output_adapter@D@__crt_stdio_output@@V?$positional_parameter_base@DV?$string_output_adapter@D@__crt_stdio_output@@@2@@__crt_stdio_output@@AEAA_ND@Z 0000000180069f30 f i libucrtd:output.obj
 0001:00069070       ?state_case_normal_tchar@?$output_processor@DV?$string_output_adapter@D@__crt_stdio_output@@V?$standard_base@DV?$string_output_adapter@D@__crt_stdio_output@@@2@@__crt_stdio_output@@AEAA_ND@Z 000000018006a070 f i libucrtd:output.obj
 0001:000691b0       ?state_case_normal_tchar@?$output_processor@_WV?$stream_output_adapter@_W@__crt_stdio_output@@V?$format_validation_base@_WV?$stream_output_adapter@_W@__crt_stdio_output@@@2@@__crt_stdio_output@@AEAA_N_W@Z 000000018006a1b0 f i libucrtd:output.obj
 0001:000691d0       ?state_case_normal_tchar@?$output_processor@_WV?$stream_output_adapter@_W@__crt_stdio_output@@V?$positional_parameter_base@_WV?$stream_output_adapter@_W@__crt_stdio_output@@@2@@__crt_stdio_output@@AEAA_N_W@Z 000000018006a1d0 f i libucrtd:output.obj
 0001:000691f0       ?state_case_normal_tchar@?$output_processor@_WV?$stream_output_adapter@_W@__crt_stdio_output@@V?$standard_base@_WV?$stream_output_adapter@_W@__crt_stdio_output@@@2@@__crt_stdio_output@@AEAA_N_W@Z 000000018006a1f0 f i libucrtd:output.obj
 0001:00069210       ?state_case_normal_tchar@?$output_processor@_WV?$string_output_adapter@_W@__crt_stdio_output@@V?$format_validation_base@_WV?$string_output_adapter@_W@__crt_stdio_output@@@2@@__crt_stdio_output@@AEAA_N_W@Z 000000018006a210 f i libucrtd:output.obj
 0001:00069230       ?state_case_normal_tchar@?$output_processor@_WV?$string_output_adapter@_W@__crt_stdio_output@@V?$positional_parameter_base@_WV?$string_output_adapter@_W@__crt_stdio_output@@@2@@__crt_stdio_output@@AEAA_N_W@Z 000000018006a230 f i libucrtd:output.obj
 0001:00069250       ?state_case_normal_tchar@?$output_processor@_WV?$string_output_adapter@_W@__crt_stdio_output@@V?$standard_base@_WV?$string_output_adapter@_W@__crt_stdio_output@@@2@@__crt_stdio_output@@AEAA_N_W@Z 000000018006a250 f i libucrtd:output.obj
 0001:00069270       ?state_case_percent@?$output_processor@DV?$stream_output_adapter@D@__crt_stdio_output@@V?$format_validation_base@DV?$stream_output_adapter@D@__crt_stdio_output@@@2@@__crt_stdio_output@@AEAA_NXZ 000000018006a270 f i libucrtd:output.obj
 0001:000692c0       ?state_case_percent@?$output_processor@DV?$stream_output_adapter@D@__crt_stdio_output@@V?$positional_parameter_base@DV?$stream_output_adapter@D@__crt_stdio_output@@@2@@__crt_stdio_output@@AEAA_NXZ 000000018006a2c0 f i libucrtd:output.obj
 0001:00069310       ?state_case_percent@?$output_processor@DV?$stream_output_adapter@D@__crt_stdio_output@@V?$standard_base@DV?$stream_output_adapter@D@__crt_stdio_output@@@2@@__crt_stdio_output@@AEAA_NXZ 000000018006a310 f i libucrtd:output.obj
 0001:00069360       ?state_case_percent@?$output_processor@DV?$string_output_adapter@D@__crt_stdio_output@@V?$format_validation_base@DV?$string_output_adapter@D@__crt_stdio_output@@@2@@__crt_stdio_output@@AEAA_NXZ 000000018006a360 f i libucrtd:output.obj
 0001:000693b0       ?state_case_percent@?$output_processor@DV?$string_output_adapter@D@__crt_stdio_output@@V?$positional_parameter_base@DV?$string_output_adapter@D@__crt_stdio_output@@@2@@__crt_stdio_output@@AEAA_NXZ 000000018006a3b0 f i libucrtd:output.obj
 0001:00069400       ?state_case_percent@?$output_processor@DV?$string_output_adapter@D@__crt_stdio_output@@V?$standard_base@DV?$string_output_adapter@D@__crt_stdio_output@@@2@@__crt_stdio_output@@AEAA_NXZ 000000018006a400 f i libucrtd:output.obj
 0001:00069450       ?state_case_percent@?$output_processor@_WV?$stream_output_adapter@_W@__crt_stdio_output@@V?$format_validation_base@_WV?$stream_output_adapter@_W@__crt_stdio_output@@@2@@__crt_stdio_output@@AEAA_NXZ 000000018006a450 f i libucrtd:output.obj
 0001:000694a0       ?state_case_percent@?$output_processor@_WV?$stream_output_adapter@_W@__crt_stdio_output@@V?$positional_parameter_base@_WV?$stream_output_adapter@_W@__crt_stdio_output@@@2@@__crt_stdio_output@@AEAA_NXZ 000000018006a4a0 f i libucrtd:output.obj
 0001:000694f0       ?state_case_percent@?$output_processor@_WV?$stream_output_adapter@_W@__crt_stdio_output@@V?$standard_base@_WV?$stream_output_adapter@_W@__crt_stdio_output@@@2@@__crt_stdio_output@@AEAA_NXZ 000000018006a4f0 f i libucrtd:output.obj
 0001:00069540       ?state_case_percent@?$output_processor@_WV?$string_output_adapter@_W@__crt_stdio_output@@V?$format_validation_base@_WV?$string_output_adapter@_W@__crt_stdio_output@@@2@@__crt_stdio_output@@AEAA_NXZ 000000018006a540 f i libucrtd:output.obj
 0001:00069590       ?state_case_percent@?$output_processor@_WV?$string_output_adapter@_W@__crt_stdio_output@@V?$positional_parameter_base@_WV?$string_output_adapter@_W@__crt_stdio_output@@@2@@__crt_stdio_output@@AEAA_NXZ 000000018006a590 f i libucrtd:output.obj
 0001:000695e0       ?state_case_percent@?$output_processor@_WV?$string_output_adapter@_W@__crt_stdio_output@@V?$standard_base@_WV?$string_output_adapter@_W@__crt_stdio_output@@@2@@__crt_stdio_output@@AEAA_NXZ 000000018006a5e0 f i libucrtd:output.obj
 0001:00069630       ?state_case_precision@?$output_processor@DV?$stream_output_adapter@D@__crt_stdio_output@@V?$format_validation_base@DV?$stream_output_adapter@D@__crt_stdio_output@@@2@@__crt_stdio_output@@AEAA_NXZ 000000018006a630 f i libucrtd:output.obj
 0001:000696b0       ?state_case_precision@?$output_processor@DV?$stream_output_adapter@D@__crt_stdio_output@@V?$positional_parameter_base@DV?$stream_output_adapter@D@__crt_stdio_output@@@2@@__crt_stdio_output@@AEAA_NXZ 000000018006a6b0 f i libucrtd:output.obj
 0001:00069730       ?state_case_precision@?$output_processor@DV?$stream_output_adapter@D@__crt_stdio_output@@V?$standard_base@DV?$stream_output_adapter@D@__crt_stdio_output@@@2@@__crt_stdio_output@@AEAA_NXZ 000000018006a730 f i libucrtd:output.obj
 0001:000697b0       ?state_case_precision@?$output_processor@DV?$string_output_adapter@D@__crt_stdio_output@@V?$format_validation_base@DV?$string_output_adapter@D@__crt_stdio_output@@@2@@__crt_stdio_output@@AEAA_NXZ 000000018006a7b0 f i libucrtd:output.obj
 0001:00069830       ?state_case_precision@?$output_processor@DV?$string_output_adapter@D@__crt_stdio_output@@V?$positional_parameter_base@DV?$string_output_adapter@D@__crt_stdio_output@@@2@@__crt_stdio_output@@AEAA_NXZ 000000018006a830 f i libucrtd:output.obj
 0001:000698b0       ?state_case_precision@?$output_processor@DV?$string_output_adapter@D@__crt_stdio_output@@V?$standard_base@DV?$string_output_adapter@D@__crt_stdio_output@@@2@@__crt_stdio_output@@AEAA_NXZ 000000018006a8b0 f i libucrtd:output.obj
 0001:00069930       ?state_case_precision@?$output_processor@_WV?$stream_output_adapter@_W@__crt_stdio_output@@V?$format_validation_base@_WV?$stream_output_adapter@_W@__crt_stdio_output@@@2@@__crt_stdio_output@@AEAA_NXZ 000000018006a930 f i libucrtd:output.obj
 0001:000699b0       ?state_case_precision@?$output_processor@_WV?$stream_output_adapter@_W@__crt_stdio_output@@V?$positional_parameter_base@_WV?$stream_output_adapter@_W@__crt_stdio_output@@@2@@__crt_stdio_output@@AEAA_NXZ 000000018006a9b0 f i libucrtd:output.obj
 0001:00069a30       ?state_case_precision@?$output_processor@_WV?$stream_output_adapter@_W@__crt_stdio_output@@V?$standard_base@_WV?$stream_output_adapter@_W@__crt_stdio_output@@@2@@__crt_stdio_output@@AEAA_NXZ 000000018006aa30 f i libucrtd:output.obj
 0001:00069ab0       ?state_case_precision@?$output_processor@_WV?$string_output_adapter@_W@__crt_stdio_output@@V?$format_validation_base@_WV?$string_output_adapter@_W@__crt_stdio_output@@@2@@__crt_stdio_output@@AEAA_NXZ 000000018006aab0 f i libucrtd:output.obj
 0001:00069b30       ?state_case_precision@?$output_processor@_WV?$string_output_adapter@_W@__crt_stdio_output@@V?$positional_parameter_base@_WV?$string_output_adapter@_W@__crt_stdio_output@@@2@@__crt_stdio_output@@AEAA_NXZ 000000018006ab30 f i libucrtd:output.obj
 0001:00069bb0       ?state_case_precision@?$output_processor@_WV?$string_output_adapter@_W@__crt_stdio_output@@V?$standard_base@_WV?$string_output_adapter@_W@__crt_stdio_output@@@2@@__crt_stdio_output@@AEAA_NXZ 000000018006abb0 f i libucrtd:output.obj
 0001:00069c30       ?state_case_size@?$output_processor@DV?$stream_output_adapter@D@__crt_stdio_output@@V?$format_validation_base@DV?$stream_output_adapter@D@__crt_stdio_output@@@2@@__crt_stdio_output@@AEAA_NXZ 000000018006ac30 f i libucrtd:output.obj
 0001:0006a0b0       ?state_case_size@?$output_processor@DV?$stream_output_adapter@D@__crt_stdio_output@@V?$positional_parameter_base@DV?$stream_output_adapter@D@__crt_stdio_output@@@2@@__crt_stdio_output@@AEAA_NXZ 000000018006b0b0 f i libucrtd:output.obj
 0001:0006a530       ?state_case_size@?$output_processor@DV?$stream_output_adapter@D@__crt_stdio_output@@V?$standard_base@DV?$stream_output_adapter@D@__crt_stdio_output@@@2@@__crt_stdio_output@@AEAA_NXZ 000000018006b530 f i libucrtd:output.obj
 0001:0006a9b0       ?state_case_size@?$output_processor@DV?$string_output_adapter@D@__crt_stdio_output@@V?$format_validation_base@DV?$string_output_adapter@D@__crt_stdio_output@@@2@@__crt_stdio_output@@AEAA_NXZ 000000018006b9b0 f i libucrtd:output.obj
 0001:0006ae30       ?state_case_size@?$output_processor@DV?$string_output_adapter@D@__crt_stdio_output@@V?$positional_parameter_base@DV?$string_output_adapter@D@__crt_stdio_output@@@2@@__crt_stdio_output@@AEAA_NXZ 000000018006be30 f i libucrtd:output.obj
 0001:0006b2b0       ?state_case_size@?$output_processor@DV?$string_output_adapter@D@__crt_stdio_output@@V?$standard_base@DV?$string_output_adapter@D@__crt_stdio_output@@@2@@__crt_stdio_output@@AEAA_NXZ 000000018006c2b0 f i libucrtd:output.obj
 0001:0006b730       ?state_case_size@?$output_processor@_WV?$stream_output_adapter@_W@__crt_stdio_output@@V?$format_validation_base@_WV?$stream_output_adapter@_W@__crt_stdio_output@@@2@@__crt_stdio_output@@AEAA_NXZ 000000018006c730 f i libucrtd:output.obj
 0001:0006bbb0       ?state_case_size@?$output_processor@_WV?$stream_output_adapter@_W@__crt_stdio_output@@V?$positional_parameter_base@_WV?$stream_output_adapter@_W@__crt_stdio_output@@@2@@__crt_stdio_output@@AEAA_NXZ 000000018006cbb0 f i libucrtd:output.obj
 0001:0006c030       ?state_case_size@?$output_processor@_WV?$stream_output_adapter@_W@__crt_stdio_output@@V?$standard_base@_WV?$stream_output_adapter@_W@__crt_stdio_output@@@2@@__crt_stdio_output@@AEAA_NXZ 000000018006d030 f i libucrtd:output.obj
 0001:0006c4b0       ?state_case_size@?$output_processor@_WV?$string_output_adapter@_W@__crt_stdio_output@@V?$format_validation_base@_WV?$string_output_adapter@_W@__crt_stdio_output@@@2@@__crt_stdio_output@@AEAA_NXZ 000000018006d4b0 f i libucrtd:output.obj
 0001:0006c930       ?state_case_size@?$output_processor@_WV?$string_output_adapter@_W@__crt_stdio_output@@V?$positional_parameter_base@_WV?$string_output_adapter@_W@__crt_stdio_output@@@2@@__crt_stdio_output@@AEAA_NXZ 000000018006d930 f i libucrtd:output.obj
 0001:0006cdb0       ?state_case_size@?$output_processor@_WV?$string_output_adapter@_W@__crt_stdio_output@@V?$standard_base@_WV?$string_output_adapter@_W@__crt_stdio_output@@@2@@__crt_stdio_output@@AEAA_NXZ 000000018006ddb0 f i libucrtd:output.obj
 0001:0006d230       ?state_case_type@?$output_processor@DV?$stream_output_adapter@D@__crt_stdio_output@@V?$format_validation_base@DV?$stream_output_adapter@D@__crt_stdio_output@@@2@@__crt_stdio_output@@AEAA_NXZ 000000018006e230 f i libucrtd:output.obj
 0001:0006d6d0       ?state_case_type@?$output_processor@DV?$stream_output_adapter@D@__crt_stdio_output@@V?$positional_parameter_base@DV?$stream_output_adapter@D@__crt_stdio_output@@@2@@__crt_stdio_output@@AEAA_NXZ 000000018006e6d0 f i libucrtd:output.obj
 0001:0006db70       ?state_case_type@?$output_processor@DV?$stream_output_adapter@D@__crt_stdio_output@@V?$standard_base@DV?$stream_output_adapter@D@__crt_stdio_output@@@2@@__crt_stdio_output@@AEAA_NXZ 000000018006eb70 f i libucrtd:output.obj
 0001:0006e010       ?state_case_type@?$output_processor@DV?$string_output_adapter@D@__crt_stdio_output@@V?$format_validation_base@DV?$string_output_adapter@D@__crt_stdio_output@@@2@@__crt_stdio_output@@AEAA_NXZ 000000018006f010 f i libucrtd:output.obj
 0001:0006e4b0       ?state_case_type@?$output_processor@DV?$string_output_adapter@D@__crt_stdio_output@@V?$positional_parameter_base@DV?$string_output_adapter@D@__crt_stdio_output@@@2@@__crt_stdio_output@@AEAA_NXZ 000000018006f4b0 f i libucrtd:output.obj
 0001:0006e950       ?state_case_type@?$output_processor@DV?$string_output_adapter@D@__crt_stdio_output@@V?$standard_base@DV?$string_output_adapter@D@__crt_stdio_output@@@2@@__crt_stdio_output@@AEAA_NXZ 000000018006f950 f i libucrtd:output.obj
 0001:0006edf0       ?state_case_type@?$output_processor@_WV?$stream_output_adapter@_W@__crt_stdio_output@@V?$format_validation_base@_WV?$stream_output_adapter@_W@__crt_stdio_output@@@2@@__crt_stdio_output@@AEAA_NXZ 000000018006fdf0 f i libucrtd:output.obj
 0001:0006f350       ?state_case_type@?$output_processor@_WV?$stream_output_adapter@_W@__crt_stdio_output@@V?$positional_parameter_base@_WV?$stream_output_adapter@_W@__crt_stdio_output@@@2@@__crt_stdio_output@@AEAA_NXZ 0000000180070350 f i libucrtd:output.obj
 0001:0006f8b0       ?state_case_type@?$output_processor@_WV?$stream_output_adapter@_W@__crt_stdio_output@@V?$standard_base@_WV?$stream_output_adapter@_W@__crt_stdio_output@@@2@@__crt_stdio_output@@AEAA_NXZ 00000001800708b0 f i libucrtd:output.obj
 0001:0006fe10       ?state_case_type@?$output_processor@_WV?$string_output_adapter@_W@__crt_stdio_output@@V?$format_validation_base@_WV?$string_output_adapter@_W@__crt_stdio_output@@@2@@__crt_stdio_output@@AEAA_NXZ 0000000180070e10 f i libucrtd:output.obj
 0001:00070370       ?state_case_type@?$output_processor@_WV?$string_output_adapter@_W@__crt_stdio_output@@V?$positional_parameter_base@_WV?$string_output_adapter@_W@__crt_stdio_output@@@2@@__crt_stdio_output@@AEAA_NXZ 0000000180071370 f i libucrtd:output.obj
 0001:000708d0       ?state_case_type@?$output_processor@_WV?$string_output_adapter@_W@__crt_stdio_output@@V?$standard_base@_WV?$string_output_adapter@_W@__crt_stdio_output@@@2@@__crt_stdio_output@@AEAA_NXZ 00000001800718d0 f i libucrtd:output.obj
 0001:00070e30       ?state_case_width@?$output_processor@DV?$stream_output_adapter@D@__crt_stdio_output@@V?$format_validation_base@DV?$stream_output_adapter@D@__crt_stdio_output@@@2@@__crt_stdio_output@@AEAA_NXZ 0000000180071e30 f i libucrtd:output.obj
 0001:00070ec0       ?state_case_width@?$output_processor@DV?$stream_output_adapter@D@__crt_stdio_output@@V?$positional_parameter_base@DV?$stream_output_adapter@D@__crt_stdio_output@@@2@@__crt_stdio_output@@AEAA_NXZ 0000000180071ec0 f i libucrtd:output.obj
 0001:00070f50       ?state_case_width@?$output_processor@DV?$stream_output_adapter@D@__crt_stdio_output@@V?$standard_base@DV?$stream_output_adapter@D@__crt_stdio_output@@@2@@__crt_stdio_output@@AEAA_NXZ 0000000180071f50 f i libucrtd:output.obj
 0001:00070fe0       ?state_case_width@?$output_processor@DV?$string_output_adapter@D@__crt_stdio_output@@V?$format_validation_base@DV?$string_output_adapter@D@__crt_stdio_output@@@2@@__crt_stdio_output@@AEAA_NXZ 0000000180071fe0 f i libucrtd:output.obj
 0001:00071070       ?state_case_width@?$output_processor@DV?$string_output_adapter@D@__crt_stdio_output@@V?$positional_parameter_base@DV?$string_output_adapter@D@__crt_stdio_output@@@2@@__crt_stdio_output@@AEAA_NXZ 0000000180072070 f i libucrtd:output.obj
 0001:00071100       ?state_case_width@?$output_processor@DV?$string_output_adapter@D@__crt_stdio_output@@V?$standard_base@DV?$string_output_adapter@D@__crt_stdio_output@@@2@@__crt_stdio_output@@AEAA_NXZ 0000000180072100 f i libucrtd:output.obj
 0001:00071190       ?state_case_width@?$output_processor@_WV?$stream_output_adapter@_W@__crt_stdio_output@@V?$format_validation_base@_WV?$stream_output_adapter@_W@__crt_stdio_output@@@2@@__crt_stdio_output@@AEAA_NXZ 0000000180072190 f i libucrtd:output.obj
 0001:00071220       ?state_case_width@?$output_processor@_WV?$stream_output_adapter@_W@__crt_stdio_output@@V?$positional_parameter_base@_WV?$stream_output_adapter@_W@__crt_stdio_output@@@2@@__crt_stdio_output@@AEAA_NXZ 0000000180072220 f i libucrtd:output.obj
 0001:000712b0       ?state_case_width@?$output_processor@_WV?$stream_output_adapter@_W@__crt_stdio_output@@V?$standard_base@_WV?$stream_output_adapter@_W@__crt_stdio_output@@@2@@__crt_stdio_output@@AEAA_NXZ 00000001800722b0 f i libucrtd:output.obj
 0001:00071340       ?state_case_width@?$output_processor@_WV?$string_output_adapter@_W@__crt_stdio_output@@V?$format_validation_base@_WV?$string_output_adapter@_W@__crt_stdio_output@@@2@@__crt_stdio_output@@AEAA_NXZ 0000000180072340 f i libucrtd:output.obj
 0001:000713d0       ?state_case_width@?$output_processor@_WV?$string_output_adapter@_W@__crt_stdio_output@@V?$positional_parameter_base@_WV?$string_output_adapter@_W@__crt_stdio_output@@@2@@__crt_stdio_output@@AEAA_NXZ 00000001800723d0 f i libucrtd:output.obj
 0001:00071460       ?state_case_width@?$output_processor@_WV?$string_output_adapter@_W@__crt_stdio_output@@V?$standard_base@_WV?$string_output_adapter@_W@__crt_stdio_output@@@2@@__crt_stdio_output@@AEAA_NXZ 0000000180072460 f i libucrtd:output.obj
 0001:000714f0       ?state_count@?$format_validation_base@DV?$stream_output_adapter@D@__crt_stdio_output@@@__crt_stdio_output@@KAIXZ 00000001800724f0 f i libucrtd:output.obj
 0001:00071500       ?state_count@?$format_validation_base@DV?$string_output_adapter@D@__crt_stdio_output@@@__crt_stdio_output@@KAIXZ 0000000180072500 f i libucrtd:output.obj
 0001:00071510       ?state_count@?$format_validation_base@_WV?$stream_output_adapter@_W@__crt_stdio_output@@@__crt_stdio_output@@KAIXZ 0000000180072510 f i libucrtd:output.obj
 0001:00071520       ?state_count@?$format_validation_base@_WV?$string_output_adapter@_W@__crt_stdio_output@@@__crt_stdio_output@@KAIXZ 0000000180072520 f i libucrtd:output.obj
 0001:00071530       ?state_count@?$standard_base@DV?$stream_output_adapter@D@__crt_stdio_output@@@__crt_stdio_output@@KAIXZ 0000000180072530 f i libucrtd:output.obj
 0001:00071540       ?state_count@?$standard_base@DV?$string_output_adapter@D@__crt_stdio_output@@@__crt_stdio_output@@KAIXZ 0000000180072540 f i libucrtd:output.obj
 0001:00071550       ?state_count@?$standard_base@_WV?$stream_output_adapter@_W@__crt_stdio_output@@@__crt_stdio_output@@KAIXZ 0000000180072550 f i libucrtd:output.obj
 0001:00071560       ?state_count@?$standard_base@_WV?$string_output_adapter@_W@__crt_stdio_output@@@__crt_stdio_output@@KAIXZ 0000000180072560 f i libucrtd:output.obj
 0001:00071570       ?state_transition_table@?$format_validation_base@DV?$stream_output_adapter@D@__crt_stdio_output@@@__crt_stdio_output@@KAAEBV?$spectre_mitigated_lookup_table@Ustate_transition_pair@__crt_stdio_output@@$0IA@@2@XZ 0000000180072570 f i libucrtd:output.obj
 0001:00071580       ?state_transition_table@?$format_validation_base@DV?$string_output_adapter@D@__crt_stdio_output@@@__crt_stdio_output@@KAAEBV?$spectre_mitigated_lookup_table@Ustate_transition_pair@__crt_stdio_output@@$0IA@@2@XZ 0000000180072580 f i libucrtd:output.obj
 0001:00071590       ?state_transition_table@?$format_validation_base@_WV?$stream_output_adapter@_W@__crt_stdio_output@@@__crt_stdio_output@@KAAEBV?$spectre_mitigated_lookup_table@Ustate_transition_pair@__crt_stdio_output@@$0IA@@2@XZ 0000000180072590 f i libucrtd:output.obj
 0001:000715a0       ?state_transition_table@?$format_validation_base@_WV?$string_output_adapter@_W@__crt_stdio_output@@@__crt_stdio_output@@KAAEBV?$spectre_mitigated_lookup_table@Ustate_transition_pair@__crt_stdio_output@@$0IA@@2@XZ 00000001800725a0 f i libucrtd:output.obj
 0001:000715b0       ?state_transition_table@?$standard_base@DV?$stream_output_adapter@D@__crt_stdio_output@@@__crt_stdio_output@@KAAEBV?$spectre_mitigated_lookup_table@Ustate_transition_pair@__crt_stdio_output@@$0IA@@2@XZ 00000001800725b0 f i libucrtd:output.obj
 0001:000715c0       ?state_transition_table@?$standard_base@DV?$string_output_adapter@D@__crt_stdio_output@@@__crt_stdio_output@@KAAEBV?$spectre_mitigated_lookup_table@Ustate_transition_pair@__crt_stdio_output@@$0IA@@2@XZ 00000001800725c0 f i libucrtd:output.obj
 0001:000715d0       ?state_transition_table@?$standard_base@_WV?$stream_output_adapter@_W@__crt_stdio_output@@@__crt_stdio_output@@KAAEBV?$spectre_mitigated_lookup_table@Ustate_transition_pair@__crt_stdio_output@@$0IA@@2@XZ 00000001800725d0 f i libucrtd:output.obj
 0001:000715e0       ?state_transition_table@?$standard_base@_WV?$string_output_adapter@_W@__crt_stdio_output@@@__crt_stdio_output@@KAAEBV?$spectre_mitigated_lookup_table@Ustate_transition_pair@__crt_stdio_output@@$0IA@@2@XZ 00000001800725e0 f i libucrtd:output.obj
 0001:000715f0       ?tchar_string@?$common_data@D@__crt_stdio_output@@IEAAAEAPEADD@Z 00000001800725f0 f i libucrtd:output.obj
 0001:00071610       ?tchar_string@?$common_data@D@__crt_stdio_output@@IEAAAEAPEADXZ 0000000180072610 f i libucrtd:output.obj
 0001:00071630       ?tchar_string@?$common_data@_W@__crt_stdio_output@@IEAAAEAPEA_WXZ 0000000180072630 f i libucrtd:output.obj
 0001:00071650       ?tchar_string@?$common_data@_W@__crt_stdio_output@@IEAAAEAPEA_W_W@Z 0000000180072650 f i libucrtd:output.obj
 0001:00071670       ?to_integer_size@__crt_stdio_output@@YA_KW4length_modifier@1@@Z 0000000180072670 f i libucrtd:output.obj
 0001:00071720       ?type_case_X@?$output_processor@DV?$stream_output_adapter@D@__crt_stdio_output@@V?$format_validation_base@DV?$stream_output_adapter@D@__crt_stdio_output@@@2@@__crt_stdio_output@@AEAA_NXZ 0000000180072720 f i libucrtd:output.obj
 0001:00071740       ?type_case_X@?$output_processor@DV?$stream_output_adapter@D@__crt_stdio_output@@V?$positional_parameter_base@DV?$stream_output_adapter@D@__crt_stdio_output@@@2@@__crt_stdio_output@@AEAA_NXZ 0000000180072740 f i libucrtd:output.obj
 0001:00071760       ?type_case_X@?$output_processor@DV?$stream_output_adapter@D@__crt_stdio_output@@V?$standard_base@DV?$stream_output_adapter@D@__crt_stdio_output@@@2@@__crt_stdio_output@@AEAA_NXZ 0000000180072760 f i libucrtd:output.obj
 0001:00071780       ?type_case_X@?$output_processor@DV?$string_output_adapter@D@__crt_stdio_output@@V?$format_validation_base@DV?$string_output_adapter@D@__crt_stdio_output@@@2@@__crt_stdio_output@@AEAA_NXZ 0000000180072780 f i libucrtd:output.obj
 0001:000717a0       ?type_case_X@?$output_processor@DV?$string_output_adapter@D@__crt_stdio_output@@V?$positional_parameter_base@DV?$string_output_adapter@D@__crt_stdio_output@@@2@@__crt_stdio_output@@AEAA_NXZ 00000001800727a0 f i libucrtd:output.obj
 0001:000717c0       ?type_case_X@?$output_processor@DV?$string_output_adapter@D@__crt_stdio_output@@V?$standard_base@DV?$string_output_adapter@D@__crt_stdio_output@@@2@@__crt_stdio_output@@AEAA_NXZ 00000001800727c0 f i libucrtd:output.obj
 0001:000717e0       ?type_case_X@?$output_processor@_WV?$stream_output_adapter@_W@__crt_stdio_output@@V?$format_validation_base@_WV?$stream_output_adapter@_W@__crt_stdio_output@@@2@@__crt_stdio_output@@AEAA_NXZ 00000001800727e0 f i libucrtd:output.obj
 0001:00071800       ?type_case_X@?$output_processor@_WV?$stream_output_adapter@_W@__crt_stdio_output@@V?$positional_parameter_base@_WV?$stream_output_adapter@_W@__crt_stdio_output@@@2@@__crt_stdio_output@@AEAA_NXZ 0000000180072800 f i libucrtd:output.obj
 0001:00071820       ?type_case_X@?$output_processor@_WV?$stream_output_adapter@_W@__crt_stdio_output@@V?$standard_base@_WV?$stream_output_adapter@_W@__crt_stdio_output@@@2@@__crt_stdio_output@@AEAA_NXZ 0000000180072820 f i libucrtd:output.obj
 0001:00071840       ?type_case_X@?$output_processor@_WV?$string_output_adapter@_W@__crt_stdio_output@@V?$format_validation_base@_WV?$string_output_adapter@_W@__crt_stdio_output@@@2@@__crt_stdio_output@@AEAA_NXZ 0000000180072840 f i libucrtd:output.obj
 0001:00071860       ?type_case_X@?$output_processor@_WV?$string_output_adapter@_W@__crt_stdio_output@@V?$positional_parameter_base@_WV?$string_output_adapter@_W@__crt_stdio_output@@@2@@__crt_stdio_output@@AEAA_NXZ 0000000180072860 f i libucrtd:output.obj
 0001:00071880       ?type_case_X@?$output_processor@_WV?$string_output_adapter@_W@__crt_stdio_output@@V?$standard_base@_WV?$string_output_adapter@_W@__crt_stdio_output@@@2@@__crt_stdio_output@@AEAA_NXZ 0000000180072880 f i libucrtd:output.obj
 0001:000718a0       ?type_case_Z@?$output_processor@DV?$stream_output_adapter@D@__crt_stdio_output@@V?$format_validation_base@DV?$stream_output_adapter@D@__crt_stdio_output@@@2@@__crt_stdio_output@@AEAA_NXZ 00000001800728a0 f i libucrtd:output.obj
 0001:000719c0       ?type_case_Z@?$output_processor@DV?$stream_output_adapter@D@__crt_stdio_output@@V?$positional_parameter_base@DV?$stream_output_adapter@D@__crt_stdio_output@@@2@@__crt_stdio_output@@AEAA_NXZ 00000001800729c0 f i libucrtd:output.obj
 0001:00071ae0       ?type_case_Z@?$output_processor@DV?$stream_output_adapter@D@__crt_stdio_output@@V?$standard_base@DV?$stream_output_adapter@D@__crt_stdio_output@@@2@@__crt_stdio_output@@AEAA_NXZ 0000000180072ae0 f i libucrtd:output.obj
 0001:00071c00       ?type_case_Z@?$output_processor@DV?$string_output_adapter@D@__crt_stdio_output@@V?$format_validation_base@DV?$string_output_adapter@D@__crt_stdio_output@@@2@@__crt_stdio_output@@AEAA_NXZ 0000000180072c00 f i libucrtd:output.obj
 0001:00071d20       ?type_case_Z@?$output_processor@DV?$string_output_adapter@D@__crt_stdio_output@@V?$positional_parameter_base@DV?$string_output_adapter@D@__crt_stdio_output@@@2@@__crt_stdio_output@@AEAA_NXZ 0000000180072d20 f i libucrtd:output.obj
 0001:00071e40       ?type_case_Z@?$output_processor@DV?$string_output_adapter@D@__crt_stdio_output@@V?$standard_base@DV?$string_output_adapter@D@__crt_stdio_output@@@2@@__crt_stdio_output@@AEAA_NXZ 0000000180072e40 f i libucrtd:output.obj
 0001:00071f60       ?type_case_Z@?$output_processor@_WV?$stream_output_adapter@_W@__crt_stdio_output@@V?$format_validation_base@_WV?$stream_output_adapter@_W@__crt_stdio_output@@@2@@__crt_stdio_output@@AEAA_NXZ 0000000180072f60 f i libucrtd:output.obj
 0001:00072080       ?type_case_Z@?$output_processor@_WV?$stream_output_adapter@_W@__crt_stdio_output@@V?$positional_parameter_base@_WV?$stream_output_adapter@_W@__crt_stdio_output@@@2@@__crt_stdio_output@@AEAA_NXZ 0000000180073080 f i libucrtd:output.obj
 0001:000721a0       ?type_case_Z@?$output_processor@_WV?$stream_output_adapter@_W@__crt_stdio_output@@V?$standard_base@_WV?$stream_output_adapter@_W@__crt_stdio_output@@@2@@__crt_stdio_output@@AEAA_NXZ 00000001800731a0 f i libucrtd:output.obj
 0001:000722c0       ?type_case_Z@?$output_processor@_WV?$string_output_adapter@_W@__crt_stdio_output@@V?$format_validation_base@_WV?$string_output_adapter@_W@__crt_stdio_output@@@2@@__crt_stdio_output@@AEAA_NXZ 00000001800732c0 f i libucrtd:output.obj
 0001:000723e0       ?type_case_Z@?$output_processor@_WV?$string_output_adapter@_W@__crt_stdio_output@@V?$positional_parameter_base@_WV?$string_output_adapter@_W@__crt_stdio_output@@@2@@__crt_stdio_output@@AEAA_NXZ 00000001800733e0 f i libucrtd:output.obj
 0001:00072500       ?type_case_Z@?$output_processor@_WV?$string_output_adapter@_W@__crt_stdio_output@@V?$standard_base@_WV?$string_output_adapter@_W@__crt_stdio_output@@@2@@__crt_stdio_output@@AEAA_NXZ 0000000180073500 f i libucrtd:output.obj
 0001:00072620       ?type_case_a@?$output_processor@DV?$stream_output_adapter@D@__crt_stdio_output@@V?$format_validation_base@DV?$stream_output_adapter@D@__crt_stdio_output@@@2@@__crt_stdio_output@@AEAA_NXZ 0000000180073620 f i libucrtd:output.obj
 0001:000729f0       ?type_case_a@?$output_processor@DV?$stream_output_adapter@D@__crt_stdio_output@@V?$positional_parameter_base@DV?$stream_output_adapter@D@__crt_stdio_output@@@2@@__crt_stdio_output@@AEAA_NXZ 00000001800739f0 f i libucrtd:output.obj
 0001:00072dc0       ?type_case_a@?$output_processor@DV?$stream_output_adapter@D@__crt_stdio_output@@V?$standard_base@DV?$stream_output_adapter@D@__crt_stdio_output@@@2@@__crt_stdio_output@@AEAA_NXZ 0000000180073dc0 f i libucrtd:output.obj
 0001:00073190       ?type_case_a@?$output_processor@DV?$string_output_adapter@D@__crt_stdio_output@@V?$format_validation_base@DV?$string_output_adapter@D@__crt_stdio_output@@@2@@__crt_stdio_output@@AEAA_NXZ 0000000180074190 f i libucrtd:output.obj
 0001:00073560       ?type_case_a@?$output_processor@DV?$string_output_adapter@D@__crt_stdio_output@@V?$positional_parameter_base@DV?$string_output_adapter@D@__crt_stdio_output@@@2@@__crt_stdio_output@@AEAA_NXZ 0000000180074560 f i libucrtd:output.obj
 0001:00073930       ?type_case_a@?$output_processor@DV?$string_output_adapter@D@__crt_stdio_output@@V?$standard_base@DV?$string_output_adapter@D@__crt_stdio_output@@@2@@__crt_stdio_output@@AEAA_NXZ 0000000180074930 f i libucrtd:output.obj
 0001:00073d00       ?type_case_a@?$output_processor@_WV?$stream_output_adapter@_W@__crt_stdio_output@@V?$format_validation_base@_WV?$stream_output_adapter@_W@__crt_stdio_output@@@2@@__crt_stdio_output@@AEAA_NXZ 0000000180074d00 f i libucrtd:output.obj
 0001:000740d0       ?type_case_a@?$output_processor@_WV?$stream_output_adapter@_W@__crt_stdio_output@@V?$positional_parameter_base@_WV?$stream_output_adapter@_W@__crt_stdio_output@@@2@@__crt_stdio_output@@AEAA_NXZ 00000001800750d0 f i libucrtd:output.obj
 0001:000744a0       ?type_case_a@?$output_processor@_WV?$stream_output_adapter@_W@__crt_stdio_output@@V?$standard_base@_WV?$stream_output_adapter@_W@__crt_stdio_output@@@2@@__crt_stdio_output@@AEAA_NXZ 00000001800754a0 f i libucrtd:output.obj
 0001:00074870       ?type_case_a@?$output_processor@_WV?$string_output_adapter@_W@__crt_stdio_output@@V?$format_validation_base@_WV?$string_output_adapter@_W@__crt_stdio_output@@@2@@__crt_stdio_output@@AEAA_NXZ 0000000180075870 f i libucrtd:output.obj
 0001:00074c40       ?type_case_a@?$output_processor@_WV?$string_output_adapter@_W@__crt_stdio_output@@V?$positional_parameter_base@_WV?$string_output_adapter@_W@__crt_stdio_output@@@2@@__crt_stdio_output@@AEAA_NXZ 0000000180075c40 f i libucrtd:output.obj
 0001:00075010       ?type_case_a@?$output_processor@_WV?$string_output_adapter@_W@__crt_stdio_output@@V?$standard_base@_WV?$string_output_adapter@_W@__crt_stdio_output@@@2@@__crt_stdio_output@@AEAA_NXZ 0000000180076010 f i libucrtd:output.obj
 0001:000753e0       ?type_case_c@?$output_processor@DV?$stream_output_adapter@D@__crt_stdio_output@@V?$format_validation_base@DV?$stream_output_adapter@D@__crt_stdio_output@@@2@@__crt_stdio_output@@AEAA_NXZ 00000001800763e0 f i libucrtd:output.obj
 0001:00075400       ?type_case_c@?$output_processor@DV?$stream_output_adapter@D@__crt_stdio_output@@V?$positional_parameter_base@DV?$stream_output_adapter@D@__crt_stdio_output@@@2@@__crt_stdio_output@@AEAA_NXZ 0000000180076400 f i libucrtd:output.obj
 0001:00075420       ?type_case_c@?$output_processor@DV?$stream_output_adapter@D@__crt_stdio_output@@V?$standard_base@DV?$stream_output_adapter@D@__crt_stdio_output@@@2@@__crt_stdio_output@@AEAA_NXZ 0000000180076420 f i libucrtd:output.obj
 0001:00075440       ?type_case_c@?$output_processor@DV?$string_output_adapter@D@__crt_stdio_output@@V?$format_validation_base@DV?$string_output_adapter@D@__crt_stdio_output@@@2@@__crt_stdio_output@@AEAA_NXZ 0000000180076440 f i libucrtd:output.obj
 0001:00075460       ?type_case_c@?$output_processor@DV?$string_output_adapter@D@__crt_stdio_output@@V?$positional_parameter_base@DV?$string_output_adapter@D@__crt_stdio_output@@@2@@__crt_stdio_output@@AEAA_NXZ 0000000180076460 f i libucrtd:output.obj
 0001:00075480       ?type_case_c@?$output_processor@DV?$string_output_adapter@D@__crt_stdio_output@@V?$standard_base@DV?$string_output_adapter@D@__crt_stdio_output@@@2@@__crt_stdio_output@@AEAA_NXZ 0000000180076480 f i libucrtd:output.obj
 0001:000754a0       ?type_case_c@?$output_processor@_WV?$stream_output_adapter@_W@__crt_stdio_output@@V?$format_validation_base@_WV?$stream_output_adapter@_W@__crt_stdio_output@@@2@@__crt_stdio_output@@AEAA_NXZ 00000001800764a0 f i libucrtd:output.obj
 0001:000754c0       ?type_case_c@?$output_processor@_WV?$stream_output_adapter@_W@__crt_stdio_output@@V?$positional_parameter_base@_WV?$stream_output_adapter@_W@__crt_stdio_output@@@2@@__crt_stdio_output@@AEAA_NXZ 00000001800764c0 f i libucrtd:output.obj
 0001:000754e0       ?type_case_c@?$output_processor@_WV?$stream_output_adapter@_W@__crt_stdio_output@@V?$standard_base@_WV?$stream_output_adapter@_W@__crt_stdio_output@@@2@@__crt_stdio_output@@AEAA_NXZ 00000001800764e0 f i libucrtd:output.obj
 0001:00075500       ?type_case_c@?$output_processor@_WV?$string_output_adapter@_W@__crt_stdio_output@@V?$format_validation_base@_WV?$string_output_adapter@_W@__crt_stdio_output@@@2@@__crt_stdio_output@@AEAA_NXZ 0000000180076500 f i libucrtd:output.obj
 0001:00075520       ?type_case_c@?$output_processor@_WV?$string_output_adapter@_W@__crt_stdio_output@@V?$positional_parameter_base@_WV?$string_output_adapter@_W@__crt_stdio_output@@@2@@__crt_stdio_output@@AEAA_NXZ 0000000180076520 f i libucrtd:output.obj
 0001:00075540       ?type_case_c@?$output_processor@_WV?$string_output_adapter@_W@__crt_stdio_output@@V?$standard_base@_WV?$string_output_adapter@_W@__crt_stdio_output@@@2@@__crt_stdio_output@@AEAA_NXZ 0000000180076540 f i libucrtd:output.obj
 0001:00075560       ?type_case_c_tchar@?$output_processor@DV?$stream_output_adapter@D@__crt_stdio_output@@V?$format_validation_base@DV?$stream_output_adapter@D@__crt_stdio_output@@@2@@__crt_stdio_output@@AEAA_ND@Z 0000000180076560 f i libucrtd:output.obj
 0001:000756c0       ?type_case_c_tchar@?$output_processor@DV?$stream_output_adapter@D@__crt_stdio_output@@V?$positional_parameter_base@DV?$stream_output_adapter@D@__crt_stdio_output@@@2@@__crt_stdio_output@@AEAA_ND@Z 00000001800766c0 f i libucrtd:output.obj
 0001:00075820       ?type_case_c_tchar@?$output_processor@DV?$stream_output_adapter@D@__crt_stdio_output@@V?$standard_base@DV?$stream_output_adapter@D@__crt_stdio_output@@@2@@__crt_stdio_output@@AEAA_ND@Z 0000000180076820 f i libucrtd:output.obj
 0001:00075980       ?type_case_c_tchar@?$output_processor@DV?$string_output_adapter@D@__crt_stdio_output@@V?$format_validation_base@DV?$string_output_adapter@D@__crt_stdio_output@@@2@@__crt_stdio_output@@AEAA_ND@Z 0000000180076980 f i libucrtd:output.obj
 0001:00075ae0       ?type_case_c_tchar@?$output_processor@DV?$string_output_adapter@D@__crt_stdio_output@@V?$positional_parameter_base@DV?$string_output_adapter@D@__crt_stdio_output@@@2@@__crt_stdio_output@@AEAA_ND@Z 0000000180076ae0 f i libucrtd:output.obj
 0001:00075c40       ?type_case_c_tchar@?$output_processor@DV?$string_output_adapter@D@__crt_stdio_output@@V?$standard_base@DV?$string_output_adapter@D@__crt_stdio_output@@@2@@__crt_stdio_output@@AEAA_ND@Z 0000000180076c40 f i libucrtd:output.obj
 0001:00075da0       ?type_case_c_tchar@?$output_processor@_WV?$stream_output_adapter@_W@__crt_stdio_output@@V?$format_validation_base@_WV?$stream_output_adapter@_W@__crt_stdio_output@@@2@@__crt_stdio_output@@AEAA_N_W@Z 0000000180076da0 f i libucrtd:output.obj
 0001:00075ed0       ?type_case_c_tchar@?$output_processor@_WV?$stream_output_adapter@_W@__crt_stdio_output@@V?$positional_parameter_base@_WV?$stream_output_adapter@_W@__crt_stdio_output@@@2@@__crt_stdio_output@@AEAA_N_W@Z 0000000180076ed0 f i libucrtd:output.obj
 0001:00076000       ?type_case_c_tchar@?$output_processor@_WV?$stream_output_adapter@_W@__crt_stdio_output@@V?$standard_base@_WV?$stream_output_adapter@_W@__crt_stdio_output@@@2@@__crt_stdio_output@@AEAA_N_W@Z 0000000180077000 f i libucrtd:output.obj
 0001:00076130       ?type_case_c_tchar@?$output_processor@_WV?$string_output_adapter@_W@__crt_stdio_output@@V?$format_validation_base@_WV?$string_output_adapter@_W@__crt_stdio_output@@@2@@__crt_stdio_output@@AEAA_N_W@Z 0000000180077130 f i libucrtd:output.obj
 0001:00076260       ?type_case_c_tchar@?$output_processor@_WV?$string_output_adapter@_W@__crt_stdio_output@@V?$positional_parameter_base@_WV?$string_output_adapter@_W@__crt_stdio_output@@@2@@__crt_stdio_output@@AEAA_N_W@Z 0000000180077260 f i libucrtd:output.obj
 0001:00076390       ?type_case_c_tchar@?$output_processor@_WV?$string_output_adapter@_W@__crt_stdio_output@@V?$standard_base@_WV?$string_output_adapter@_W@__crt_stdio_output@@@2@@__crt_stdio_output@@AEAA_N_W@Z 0000000180077390 f i libucrtd:output.obj
 0001:000764c0       ?type_case_d@?$output_processor@DV?$stream_output_adapter@D@__crt_stdio_output@@V?$format_validation_base@DV?$stream_output_adapter@D@__crt_stdio_output@@@2@@__crt_stdio_output@@AEAA_NXZ 00000001800774c0 f i libucrtd:output.obj
 0001:000764f0       ?type_case_d@?$output_processor@DV?$stream_output_adapter@D@__crt_stdio_output@@V?$positional_parameter_base@DV?$stream_output_adapter@D@__crt_stdio_output@@@2@@__crt_stdio_output@@AEAA_NXZ 00000001800774f0 f i libucrtd:output.obj
 0001:00076520       ?type_case_d@?$output_processor@DV?$stream_output_adapter@D@__crt_stdio_output@@V?$standard_base@DV?$stream_output_adapter@D@__crt_stdio_output@@@2@@__crt_stdio_output@@AEAA_NXZ 0000000180077520 f i libucrtd:output.obj
 0001:00076550       ?type_case_d@?$output_processor@DV?$string_output_adapter@D@__crt_stdio_output@@V?$format_validation_base@DV?$string_output_adapter@D@__crt_stdio_output@@@2@@__crt_stdio_output@@AEAA_NXZ 0000000180077550 f i libucrtd:output.obj
 0001:00076580       ?type_case_d@?$output_processor@DV?$string_output_adapter@D@__crt_stdio_output@@V?$positional_parameter_base@DV?$string_output_adapter@D@__crt_stdio_output@@@2@@__crt_stdio_output@@AEAA_NXZ 0000000180077580 f i libucrtd:output.obj
 0001:000765b0       ?type_case_d@?$output_processor@DV?$string_output_adapter@D@__crt_stdio_output@@V?$standard_base@DV?$string_output_adapter@D@__crt_stdio_output@@@2@@__crt_stdio_output@@AEAA_NXZ 00000001800775b0 f i libucrtd:output.obj
 0001:000765e0       ?type_case_d@?$output_processor@_WV?$stream_output_adapter@_W@__crt_stdio_output@@V?$format_validation_base@_WV?$stream_output_adapter@_W@__crt_stdio_output@@@2@@__crt_stdio_output@@AEAA_NXZ 00000001800775e0 f i libucrtd:output.obj
 0001:00076610       ?type_case_d@?$output_processor@_WV?$stream_output_adapter@_W@__crt_stdio_output@@V?$positional_parameter_base@_WV?$stream_output_adapter@_W@__crt_stdio_output@@@2@@__crt_stdio_output@@AEAA_NXZ 0000000180077610 f i libucrtd:output.obj
 0001:00076640       ?type_case_d@?$output_processor@_WV?$stream_output_adapter@_W@__crt_stdio_output@@V?$standard_base@_WV?$stream_output_adapter@_W@__crt_stdio_output@@@2@@__crt_stdio_output@@AEAA_NXZ 0000000180077640 f i libucrtd:output.obj
 0001:00076670       ?type_case_d@?$output_processor@_WV?$string_output_adapter@_W@__crt_stdio_output@@V?$format_validation_base@_WV?$string_output_adapter@_W@__crt_stdio_output@@@2@@__crt_stdio_output@@AEAA_NXZ 0000000180077670 f i libucrtd:output.obj
 0001:000766a0       ?type_case_d@?$output_processor@_WV?$string_output_adapter@_W@__crt_stdio_output@@V?$positional_parameter_base@_WV?$string_output_adapter@_W@__crt_stdio_output@@@2@@__crt_stdio_output@@AEAA_NXZ 00000001800776a0 f i libucrtd:output.obj
 0001:000766d0       ?type_case_d@?$output_processor@_WV?$string_output_adapter@_W@__crt_stdio_output@@V?$standard_base@_WV?$string_output_adapter@_W@__crt_stdio_output@@@2@@__crt_stdio_output@@AEAA_NXZ 00000001800776d0 f i libucrtd:output.obj
 0001:00076700       ?type_case_integer@?$output_processor@DV?$stream_output_adapter@D@__crt_stdio_output@@V?$format_validation_base@DV?$stream_output_adapter@D@__crt_stdio_output@@@2@@__crt_stdio_output@@AEAA_NI_N@Z 0000000180077700 f i libucrtd:output.obj
 0001:00076b50       ?type_case_integer@?$output_processor@DV?$stream_output_adapter@D@__crt_stdio_output@@V?$positional_parameter_base@DV?$stream_output_adapter@D@__crt_stdio_output@@@2@@__crt_stdio_output@@AEAA_NI_N@Z 0000000180077b50 f i libucrtd:output.obj
 0001:00076fa0       ?type_case_integer@?$output_processor@DV?$stream_output_adapter@D@__crt_stdio_output@@V?$standard_base@DV?$stream_output_adapter@D@__crt_stdio_output@@@2@@__crt_stdio_output@@AEAA_NI_N@Z 0000000180077fa0 f i libucrtd:output.obj
 0001:000773f0       ?type_case_integer@?$output_processor@DV?$string_output_adapter@D@__crt_stdio_output@@V?$format_validation_base@DV?$string_output_adapter@D@__crt_stdio_output@@@2@@__crt_stdio_output@@AEAA_NI_N@Z 00000001800783f0 f i libucrtd:output.obj
 0001:00077840       ?type_case_integer@?$output_processor@DV?$string_output_adapter@D@__crt_stdio_output@@V?$positional_parameter_base@DV?$string_output_adapter@D@__crt_stdio_output@@@2@@__crt_stdio_output@@AEAA_NI_N@Z 0000000180078840 f i libucrtd:output.obj
 0001:00077c90       ?type_case_integer@?$output_processor@DV?$string_output_adapter@D@__crt_stdio_output@@V?$standard_base@DV?$string_output_adapter@D@__crt_stdio_output@@@2@@__crt_stdio_output@@AEAA_NI_N@Z 0000000180078c90 f i libucrtd:output.obj
 0001:000780e0       ?type_case_integer@?$output_processor@_WV?$stream_output_adapter@_W@__crt_stdio_output@@V?$format_validation_base@_WV?$stream_output_adapter@_W@__crt_stdio_output@@@2@@__crt_stdio_output@@AEAA_NI_N@Z 00000001800790e0 f i libucrtd:output.obj
 0001:00078530       ?type_case_integer@?$output_processor@_WV?$stream_output_adapter@_W@__crt_stdio_output@@V?$positional_parameter_base@_WV?$stream_output_adapter@_W@__crt_stdio_output@@@2@@__crt_stdio_output@@AEAA_NI_N@Z 0000000180079530 f i libucrtd:output.obj
 0001:00078980       ?type_case_integer@?$output_processor@_WV?$stream_output_adapter@_W@__crt_stdio_output@@V?$standard_base@_WV?$stream_output_adapter@_W@__crt_stdio_output@@@2@@__crt_stdio_output@@AEAA_NI_N@Z 0000000180079980 f i libucrtd:output.obj
 0001:00078dd0       ?type_case_integer@?$output_processor@_WV?$string_output_adapter@_W@__crt_stdio_output@@V?$format_validation_base@_WV?$string_output_adapter@_W@__crt_stdio_output@@@2@@__crt_stdio_output@@AEAA_NI_N@Z 0000000180079dd0 f i libucrtd:output.obj
 0001:00079220       ?type_case_integer@?$output_processor@_WV?$string_output_adapter@_W@__crt_stdio_output@@V?$positional_parameter_base@_WV?$string_output_adapter@_W@__crt_stdio_output@@@2@@__crt_stdio_output@@AEAA_NI_N@Z 000000018007a220 f i libucrtd:output.obj
 0001:00079670       ?type_case_integer@?$output_processor@_WV?$string_output_adapter@_W@__crt_stdio_output@@V?$standard_base@_WV?$string_output_adapter@_W@__crt_stdio_output@@@2@@__crt_stdio_output@@AEAA_NI_N@Z 000000018007a670 f i libucrtd:output.obj
 0001:00079ac0       ?type_case_n@?$output_processor@DV?$stream_output_adapter@D@__crt_stdio_output@@V?$format_validation_base@DV?$stream_output_adapter@D@__crt_stdio_output@@@2@@__crt_stdio_output@@AEAA_NXZ 000000018007aac0 f i libucrtd:output.obj
 0001:00079d00       ?type_case_n@?$output_processor@DV?$stream_output_adapter@D@__crt_stdio_output@@V?$positional_parameter_base@DV?$stream_output_adapter@D@__crt_stdio_output@@@2@@__crt_stdio_output@@AEAA_NXZ 000000018007ad00 f i libucrtd:output.obj
 0001:00079f40       ?type_case_n@?$output_processor@DV?$stream_output_adapter@D@__crt_stdio_output@@V?$standard_base@DV?$stream_output_adapter@D@__crt_stdio_output@@@2@@__crt_stdio_output@@AEAA_NXZ 000000018007af40 f i libucrtd:output.obj
 0001:0007a180       ?type_case_n@?$output_processor@DV?$string_output_adapter@D@__crt_stdio_output@@V?$format_validation_base@DV?$string_output_adapter@D@__crt_stdio_output@@@2@@__crt_stdio_output@@AEAA_NXZ 000000018007b180 f i libucrtd:output.obj
 0001:0007a3c0       ?type_case_n@?$output_processor@DV?$string_output_adapter@D@__crt_stdio_output@@V?$positional_parameter_base@DV?$string_output_adapter@D@__crt_stdio_output@@@2@@__crt_stdio_output@@AEAA_NXZ 000000018007b3c0 f i libucrtd:output.obj
 0001:0007a600       ?type_case_n@?$output_processor@DV?$string_output_adapter@D@__crt_stdio_output@@V?$standard_base@DV?$string_output_adapter@D@__crt_stdio_output@@@2@@__crt_stdio_output@@AEAA_NXZ 000000018007b600 f i libucrtd:output.obj
 0001:0007a840       ?type_case_n@?$output_processor@_WV?$stream_output_adapter@_W@__crt_stdio_output@@V?$format_validation_base@_WV?$stream_output_adapter@_W@__crt_stdio_output@@@2@@__crt_stdio_output@@AEAA_NXZ 000000018007b840 f i libucrtd:output.obj
 0001:0007aa80       ?type_case_n@?$output_processor@_WV?$stream_output_adapter@_W@__crt_stdio_output@@V?$positional_parameter_base@_WV?$stream_output_adapter@_W@__crt_stdio_output@@@2@@__crt_stdio_output@@AEAA_NXZ 000000018007ba80 f i libucrtd:output.obj
 0001:0007acc0       ?type_case_n@?$output_processor@_WV?$stream_output_adapter@_W@__crt_stdio_output@@V?$standard_base@_WV?$stream_output_adapter@_W@__crt_stdio_output@@@2@@__crt_stdio_output@@AEAA_NXZ 000000018007bcc0 f i libucrtd:output.obj
 0001:0007af00       ?type_case_n@?$output_processor@_WV?$string_output_adapter@_W@__crt_stdio_output@@V?$format_validation_base@_WV?$string_output_adapter@_W@__crt_stdio_output@@@2@@__crt_stdio_output@@AEAA_NXZ 000000018007bf00 f i libucrtd:output.obj
 0001:0007b140       ?type_case_n@?$output_processor@_WV?$string_output_adapter@_W@__crt_stdio_output@@V?$positional_parameter_base@_WV?$string_output_adapter@_W@__crt_stdio_output@@@2@@__crt_stdio_output@@AEAA_NXZ 000000018007c140 f i libucrtd:output.obj
 0001:0007b380       ?type_case_n@?$output_processor@_WV?$string_output_adapter@_W@__crt_stdio_output@@V?$standard_base@_WV?$string_output_adapter@_W@__crt_stdio_output@@@2@@__crt_stdio_output@@AEAA_NXZ 000000018007c380 f i libucrtd:output.obj
 0001:0007b5c0       ?type_case_o@?$output_processor@DV?$stream_output_adapter@D@__crt_stdio_output@@V?$format_validation_base@DV?$stream_output_adapter@D@__crt_stdio_output@@@2@@__crt_stdio_output@@AEAA_NXZ 000000018007c5c0 f i libucrtd:output.obj
 0001:0007b610       ?type_case_o@?$output_processor@DV?$stream_output_adapter@D@__crt_stdio_output@@V?$positional_parameter_base@DV?$stream_output_adapter@D@__crt_stdio_output@@@2@@__crt_stdio_output@@AEAA_NXZ 000000018007c610 f i libucrtd:output.obj
 0001:0007b660       ?type_case_o@?$output_processor@DV?$stream_output_adapter@D@__crt_stdio_output@@V?$standard_base@DV?$stream_output_adapter@D@__crt_stdio_output@@@2@@__crt_stdio_output@@AEAA_NXZ 000000018007c660 f i libucrtd:output.obj
 0001:0007b6b0       ?type_case_o@?$output_processor@DV?$string_output_adapter@D@__crt_stdio_output@@V?$format_validation_base@DV?$string_output_adapter@D@__crt_stdio_output@@@2@@__crt_stdio_output@@AEAA_NXZ 000000018007c6b0 f i libucrtd:output.obj
 0001:0007b700       ?type_case_o@?$output_processor@DV?$string_output_adapter@D@__crt_stdio_output@@V?$positional_parameter_base@DV?$string_output_adapter@D@__crt_stdio_output@@@2@@__crt_stdio_output@@AEAA_NXZ 000000018007c700 f i libucrtd:output.obj
 0001:0007b750       ?type_case_o@?$output_processor@DV?$string_output_adapter@D@__crt_stdio_output@@V?$standard_base@DV?$string_output_adapter@D@__crt_stdio_output@@@2@@__crt_stdio_output@@AEAA_NXZ 000000018007c750 f i libucrtd:output.obj
 0001:0007b7a0       ?type_case_o@?$output_processor@_WV?$stream_output_adapter@_W@__crt_stdio_output@@V?$format_validation_base@_WV?$stream_output_adapter@_W@__crt_stdio_output@@@2@@__crt_stdio_output@@AEAA_NXZ 000000018007c7a0 f i libucrtd:output.obj
 0001:0007b7f0       ?type_case_o@?$output_processor@_WV?$stream_output_adapter@_W@__crt_stdio_output@@V?$positional_parameter_base@_WV?$stream_output_adapter@_W@__crt_stdio_output@@@2@@__crt_stdio_output@@AEAA_NXZ 000000018007c7f0 f i libucrtd:output.obj
 0001:0007b840       ?type_case_o@?$output_processor@_WV?$stream_output_adapter@_W@__crt_stdio_output@@V?$standard_base@_WV?$stream_output_adapter@_W@__crt_stdio_output@@@2@@__crt_stdio_output@@AEAA_NXZ 000000018007c840 f i libucrtd:output.obj
 0001:0007b890       ?type_case_o@?$output_processor@_WV?$string_output_adapter@_W@__crt_stdio_output@@V?$format_validation_base@_WV?$string_output_adapter@_W@__crt_stdio_output@@@2@@__crt_stdio_output@@AEAA_NXZ 000000018007c890 f i libucrtd:output.obj
 0001:0007b8e0       ?type_case_o@?$output_processor@_WV?$string_output_adapter@_W@__crt_stdio_output@@V?$positional_parameter_base@_WV?$string_output_adapter@_W@__crt_stdio_output@@@2@@__crt_stdio_output@@AEAA_NXZ 000000018007c8e0 f i libucrtd:output.obj
 0001:0007b930       ?type_case_o@?$output_processor@_WV?$string_output_adapter@_W@__crt_stdio_output@@V?$standard_base@_WV?$string_output_adapter@_W@__crt_stdio_output@@@2@@__crt_stdio_output@@AEAA_NXZ 000000018007c930 f i libucrtd:output.obj
 0001:0007b980       ?type_case_p@?$output_processor@DV?$stream_output_adapter@D@__crt_stdio_output@@V?$format_validation_base@DV?$stream_output_adapter@D@__crt_stdio_output@@@2@@__crt_stdio_output@@AEAA_NXZ 000000018007c980 f i libucrtd:output.obj
 0001:0007b9c0       ?type_case_p@?$output_processor@DV?$stream_output_adapter@D@__crt_stdio_output@@V?$positional_parameter_base@DV?$stream_output_adapter@D@__crt_stdio_output@@@2@@__crt_stdio_output@@AEAA_NXZ 000000018007c9c0 f i libucrtd:output.obj
 0001:0007ba00       ?type_case_p@?$output_processor@DV?$stream_output_adapter@D@__crt_stdio_output@@V?$standard_base@DV?$stream_output_adapter@D@__crt_stdio_output@@@2@@__crt_stdio_output@@AEAA_NXZ 000000018007ca00 f i libucrtd:output.obj
 0001:0007ba40       ?type_case_p@?$output_processor@DV?$string_output_adapter@D@__crt_stdio_output@@V?$format_validation_base@DV?$string_output_adapter@D@__crt_stdio_output@@@2@@__crt_stdio_output@@AEAA_NXZ 000000018007ca40 f i libucrtd:output.obj
 0001:0007ba80       ?type_case_p@?$output_processor@DV?$string_output_adapter@D@__crt_stdio_output@@V?$positional_parameter_base@DV?$string_output_adapter@D@__crt_stdio_output@@@2@@__crt_stdio_output@@AEAA_NXZ 000000018007ca80 f i libucrtd:output.obj
 0001:0007bac0       ?type_case_p@?$output_processor@DV?$string_output_adapter@D@__crt_stdio_output@@V?$standard_base@DV?$string_output_adapter@D@__crt_stdio_output@@@2@@__crt_stdio_output@@AEAA_NXZ 000000018007cac0 f i libucrtd:output.obj
 0001:0007bb00       ?type_case_p@?$output_processor@_WV?$stream_output_adapter@_W@__crt_stdio_output@@V?$format_validation_base@_WV?$stream_output_adapter@_W@__crt_stdio_output@@@2@@__crt_stdio_output@@AEAA_NXZ 000000018007cb00 f i libucrtd:output.obj
 0001:0007bb40       ?type_case_p@?$output_processor@_WV?$stream_output_adapter@_W@__crt_stdio_output@@V?$positional_parameter_base@_WV?$stream_output_adapter@_W@__crt_stdio_output@@@2@@__crt_stdio_output@@AEAA_NXZ 000000018007cb40 f i libucrtd:output.obj
 0001:0007bb80       ?type_case_p@?$output_processor@_WV?$stream_output_adapter@_W@__crt_stdio_output@@V?$standard_base@_WV?$stream_output_adapter@_W@__crt_stdio_output@@@2@@__crt_stdio_output@@AEAA_NXZ 000000018007cb80 f i libucrtd:output.obj
 0001:0007bbc0       ?type_case_p@?$output_processor@_WV?$string_output_adapter@_W@__crt_stdio_output@@V?$format_validation_base@_WV?$string_output_adapter@_W@__crt_stdio_output@@@2@@__crt_stdio_output@@AEAA_NXZ 000000018007cbc0 f i libucrtd:output.obj
 0001:0007bc00       ?type_case_p@?$output_processor@_WV?$string_output_adapter@_W@__crt_stdio_output@@V?$positional_parameter_base@_WV?$string_output_adapter@_W@__crt_stdio_output@@@2@@__crt_stdio_output@@AEAA_NXZ 000000018007cc00 f i libucrtd:output.obj
 0001:0007bc40       ?type_case_p@?$output_processor@_WV?$string_output_adapter@_W@__crt_stdio_output@@V?$standard_base@_WV?$string_output_adapter@_W@__crt_stdio_output@@@2@@__crt_stdio_output@@AEAA_NXZ 000000018007cc40 f i libucrtd:output.obj
 0001:0007bc80       ?type_case_s@?$output_processor@DV?$stream_output_adapter@D@__crt_stdio_output@@V?$format_validation_base@DV?$stream_output_adapter@D@__crt_stdio_output@@@2@@__crt_stdio_output@@AEAA_NXZ 000000018007cc80 f i libucrtd:output.obj
 0001:0007bda0       ?type_case_s@?$output_processor@DV?$stream_output_adapter@D@__crt_stdio_output@@V?$positional_parameter_base@DV?$stream_output_adapter@D@__crt_stdio_output@@@2@@__crt_stdio_output@@AEAA_NXZ 000000018007cda0 f i libucrtd:output.obj
 0001:0007bec0       ?type_case_s@?$output_processor@DV?$stream_output_adapter@D@__crt_stdio_output@@V?$standard_base@DV?$stream_output_adapter@D@__crt_stdio_output@@@2@@__crt_stdio_output@@AEAA_NXZ 000000018007cec0 f i libucrtd:output.obj
 0001:0007bfe0       ?type_case_s@?$output_processor@DV?$string_output_adapter@D@__crt_stdio_output@@V?$format_validation_base@DV?$string_output_adapter@D@__crt_stdio_output@@@2@@__crt_stdio_output@@AEAA_NXZ 000000018007cfe0 f i libucrtd:output.obj
 0001:0007c100       ?type_case_s@?$output_processor@DV?$string_output_adapter@D@__crt_stdio_output@@V?$positional_parameter_base@DV?$string_output_adapter@D@__crt_stdio_output@@@2@@__crt_stdio_output@@AEAA_NXZ 000000018007d100 f i libucrtd:output.obj
 0001:0007c220       ?type_case_s@?$output_processor@DV?$string_output_adapter@D@__crt_stdio_output@@V?$standard_base@DV?$string_output_adapter@D@__crt_stdio_output@@@2@@__crt_stdio_output@@AEAA_NXZ 000000018007d220 f i libucrtd:output.obj
 0001:0007c340       ?type_case_s@?$output_processor@_WV?$stream_output_adapter@_W@__crt_stdio_output@@V?$format_validation_base@_WV?$stream_output_adapter@_W@__crt_stdio_output@@@2@@__crt_stdio_output@@AEAA_NXZ 000000018007d340 f i libucrtd:output.obj
 0001:0007c460       ?type_case_s@?$output_processor@_WV?$stream_output_adapter@_W@__crt_stdio_output@@V?$positional_parameter_base@_WV?$stream_output_adapter@_W@__crt_stdio_output@@@2@@__crt_stdio_output@@AEAA_NXZ 000000018007d460 f i libucrtd:output.obj
 0001:0007c580       ?type_case_s@?$output_processor@_WV?$stream_output_adapter@_W@__crt_stdio_output@@V?$standard_base@_WV?$stream_output_adapter@_W@__crt_stdio_output@@@2@@__crt_stdio_output@@AEAA_NXZ 000000018007d580 f i libucrtd:output.obj
 0001:0007c6a0       ?type_case_s@?$output_processor@_WV?$string_output_adapter@_W@__crt_stdio_output@@V?$format_validation_base@_WV?$string_output_adapter@_W@__crt_stdio_output@@@2@@__crt_stdio_output@@AEAA_NXZ 000000018007d6a0 f i libucrtd:output.obj
 0001:0007c7c0       ?type_case_s@?$output_processor@_WV?$string_output_adapter@_W@__crt_stdio_output@@V?$positional_parameter_base@_WV?$string_output_adapter@_W@__crt_stdio_output@@@2@@__crt_stdio_output@@AEAA_NXZ 000000018007d7c0 f i libucrtd:output.obj
 0001:0007c8e0       ?type_case_s@?$output_processor@_WV?$string_output_adapter@_W@__crt_stdio_output@@V?$standard_base@_WV?$string_output_adapter@_W@__crt_stdio_output@@@2@@__crt_stdio_output@@AEAA_NXZ 000000018007d8e0 f i libucrtd:output.obj
 0001:0007ca00       ?type_case_s_compute_narrow_string_length@?$output_processor@DV?$stream_output_adapter@D@__crt_stdio_output@@V?$format_validation_base@DV?$stream_output_adapter@D@__crt_stdio_output@@@2@@__crt_stdio_output@@AEBAHHD@Z 000000018007da00 f i libucrtd:output.obj
 0001:0007ca30       ?type_case_s_compute_narrow_string_length@?$output_processor@DV?$stream_output_adapter@D@__crt_stdio_output@@V?$positional_parameter_base@DV?$stream_output_adapter@D@__crt_stdio_output@@@2@@__crt_stdio_output@@AEBAHHD@Z 000000018007da30 f i libucrtd:output.obj
 0001:0007ca60       ?type_case_s_compute_narrow_string_length@?$output_processor@DV?$stream_output_adapter@D@__crt_stdio_output@@V?$standard_base@DV?$stream_output_adapter@D@__crt_stdio_output@@@2@@__crt_stdio_output@@AEBAHHD@Z 000000018007da60 f i libucrtd:output.obj
 0001:0007ca90       ?type_case_s_compute_narrow_string_length@?$output_processor@DV?$string_output_adapter@D@__crt_stdio_output@@V?$format_validation_base@DV?$string_output_adapter@D@__crt_stdio_output@@@2@@__crt_stdio_output@@AEBAHHD@Z 000000018007da90 f i libucrtd:output.obj
 0001:0007cac0       ?type_case_s_compute_narrow_string_length@?$output_processor@DV?$string_output_adapter@D@__crt_stdio_output@@V?$positional_parameter_base@DV?$string_output_adapter@D@__crt_stdio_output@@@2@@__crt_stdio_output@@AEBAHHD@Z 000000018007dac0 f i libucrtd:output.obj
 0001:0007caf0       ?type_case_s_compute_narrow_string_length@?$output_processor@DV?$string_output_adapter@D@__crt_stdio_output@@V?$standard_base@DV?$string_output_adapter@D@__crt_stdio_output@@@2@@__crt_stdio_output@@AEBAHHD@Z 000000018007daf0 f i libucrtd:output.obj
 0001:0007cb20       ?type_case_s_compute_narrow_string_length@?$output_processor@_WV?$stream_output_adapter@_W@__crt_stdio_output@@V?$format_validation_base@_WV?$stream_output_adapter@_W@__crt_stdio_output@@@2@@__crt_stdio_output@@AEBAHH_W@Z 000000018007db20 f i libucrtd:output.obj
 0001:0007cbb0       ?type_case_s_compute_narrow_string_length@?$output_processor@_WV?$stream_output_adapter@_W@__crt_stdio_output@@V?$positional_parameter_base@_WV?$stream_output_adapter@_W@__crt_stdio_output@@@2@@__crt_stdio_output@@AEBAHH_W@Z 000000018007dbb0 f i libucrtd:output.obj
 0001:0007cc40       ?type_case_s_compute_narrow_string_length@?$output_processor@_WV?$stream_output_adapter@_W@__crt_stdio_output@@V?$standard_base@_WV?$stream_output_adapter@_W@__crt_stdio_output@@@2@@__crt_stdio_output@@AEBAHH_W@Z 000000018007dc40 f i libucrtd:output.obj
 0001:0007ccd0       ?type_case_s_compute_narrow_string_length@?$output_processor@_WV?$string_output_adapter@_W@__crt_stdio_output@@V?$format_validation_base@_WV?$string_output_adapter@_W@__crt_stdio_output@@@2@@__crt_stdio_output@@AEBAHH_W@Z 000000018007dcd0 f i libucrtd:output.obj
 0001:0007cd60       ?type_case_s_compute_narrow_string_length@?$output_processor@_WV?$string_output_adapter@_W@__crt_stdio_output@@V?$positional_parameter_base@_WV?$string_output_adapter@_W@__crt_stdio_output@@@2@@__crt_stdio_output@@AEBAHH_W@Z 000000018007dd60 f i libucrtd:output.obj
 0001:0007cdf0       ?type_case_s_compute_narrow_string_length@?$output_processor@_WV?$string_output_adapter@_W@__crt_stdio_output@@V?$standard_base@_WV?$string_output_adapter@_W@__crt_stdio_output@@@2@@__crt_stdio_output@@AEBAHH_W@Z 000000018007ddf0 f i libucrtd:output.obj
 0001:0007ce80       ?type_case_u@?$output_processor@DV?$stream_output_adapter@D@__crt_stdio_output@@V?$format_validation_base@DV?$stream_output_adapter@D@__crt_stdio_output@@@2@@__crt_stdio_output@@AEAA_NXZ 000000018007de80 f i libucrtd:output.obj
 0001:0007cea0       ?type_case_u@?$output_processor@DV?$stream_output_adapter@D@__crt_stdio_output@@V?$positional_parameter_base@DV?$stream_output_adapter@D@__crt_stdio_output@@@2@@__crt_stdio_output@@AEAA_NXZ 000000018007dea0 f i libucrtd:output.obj
 0001:0007cec0       ?type_case_u@?$output_processor@DV?$stream_output_adapter@D@__crt_stdio_output@@V?$standard_base@DV?$stream_output_adapter@D@__crt_stdio_output@@@2@@__crt_stdio_output@@AEAA_NXZ 000000018007dec0 f i libucrtd:output.obj
 0001:0007cee0       ?type_case_u@?$output_processor@DV?$string_output_adapter@D@__crt_stdio_output@@V?$format_validation_base@DV?$string_output_adapter@D@__crt_stdio_output@@@2@@__crt_stdio_output@@AEAA_NXZ 000000018007dee0 f i libucrtd:output.obj
 0001:0007cf00       ?type_case_u@?$output_processor@DV?$string_output_adapter@D@__crt_stdio_output@@V?$positional_parameter_base@DV?$string_output_adapter@D@__crt_stdio_output@@@2@@__crt_stdio_output@@AEAA_NXZ 000000018007df00 f i libucrtd:output.obj
 0001:0007cf20       ?type_case_u@?$output_processor@DV?$string_output_adapter@D@__crt_stdio_output@@V?$standard_base@DV?$string_output_adapter@D@__crt_stdio_output@@@2@@__crt_stdio_output@@AEAA_NXZ 000000018007df20 f i libucrtd:output.obj
 0001:0007cf40       ?type_case_u@?$output_processor@_WV?$stream_output_adapter@_W@__crt_stdio_output@@V?$format_validation_base@_WV?$stream_output_adapter@_W@__crt_stdio_output@@@2@@__crt_stdio_output@@AEAA_NXZ 000000018007df40 f i libucrtd:output.obj
 0001:0007cf60       ?type_case_u@?$output_processor@_WV?$stream_output_adapter@_W@__crt_stdio_output@@V?$positional_parameter_base@_WV?$stream_output_adapter@_W@__crt_stdio_output@@@2@@__crt_stdio_output@@AEAA_NXZ 000000018007df60 f i libucrtd:output.obj
 0001:0007cf80       ?type_case_u@?$output_processor@_WV?$stream_output_adapter@_W@__crt_stdio_output@@V?$standard_base@_WV?$stream_output_adapter@_W@__crt_stdio_output@@@2@@__crt_stdio_output@@AEAA_NXZ 000000018007df80 f i libucrtd:output.obj
 0001:0007cfa0       ?type_case_u@?$output_processor@_WV?$string_output_adapter@_W@__crt_stdio_output@@V?$format_validation_base@_WV?$string_output_adapter@_W@__crt_stdio_output@@@2@@__crt_stdio_output@@AEAA_NXZ 000000018007dfa0 f i libucrtd:output.obj
 0001:0007cfc0       ?type_case_u@?$output_processor@_WV?$string_output_adapter@_W@__crt_stdio_output@@V?$positional_parameter_base@_WV?$string_output_adapter@_W@__crt_stdio_output@@@2@@__crt_stdio_output@@AEAA_NXZ 000000018007dfc0 f i libucrtd:output.obj
 0001:0007cfe0       ?type_case_u@?$output_processor@_WV?$string_output_adapter@_W@__crt_stdio_output@@V?$standard_base@_WV?$string_output_adapter@_W@__crt_stdio_output@@@2@@__crt_stdio_output@@AEAA_NXZ 000000018007dfe0 f i libucrtd:output.obj
 0001:0007d000       ?type_case_x@?$output_processor@DV?$stream_output_adapter@D@__crt_stdio_output@@V?$format_validation_base@DV?$stream_output_adapter@D@__crt_stdio_output@@@2@@__crt_stdio_output@@AEAA_NXZ 000000018007e000 f i libucrtd:output.obj
 0001:0007d020       ?type_case_x@?$output_processor@DV?$stream_output_adapter@D@__crt_stdio_output@@V?$positional_parameter_base@DV?$stream_output_adapter@D@__crt_stdio_output@@@2@@__crt_stdio_output@@AEAA_NXZ 000000018007e020 f i libucrtd:output.obj
 0001:0007d040       ?type_case_x@?$output_processor@DV?$stream_output_adapter@D@__crt_stdio_output@@V?$standard_base@DV?$stream_output_adapter@D@__crt_stdio_output@@@2@@__crt_stdio_output@@AEAA_NXZ 000000018007e040 f i libucrtd:output.obj
 0001:0007d060       ?type_case_x@?$output_processor@DV?$string_output_adapter@D@__crt_stdio_output@@V?$format_validation_base@DV?$string_output_adapter@D@__crt_stdio_output@@@2@@__crt_stdio_output@@AEAA_NXZ 000000018007e060 f i libucrtd:output.obj
 0001:0007d080       ?type_case_x@?$output_processor@DV?$string_output_adapter@D@__crt_stdio_output@@V?$positional_parameter_base@DV?$string_output_adapter@D@__crt_stdio_output@@@2@@__crt_stdio_output@@AEAA_NXZ 000000018007e080 f i libucrtd:output.obj
 0001:0007d0a0       ?type_case_x@?$output_processor@DV?$string_output_adapter@D@__crt_stdio_output@@V?$standard_base@DV?$string_output_adapter@D@__crt_stdio_output@@@2@@__crt_stdio_output@@AEAA_NXZ 000000018007e0a0 f i libucrtd:output.obj
 0001:0007d0c0       ?type_case_x@?$output_processor@_WV?$stream_output_adapter@_W@__crt_stdio_output@@V?$format_validation_base@_WV?$stream_output_adapter@_W@__crt_stdio_output@@@2@@__crt_stdio_output@@AEAA_NXZ 000000018007e0c0 f i libucrtd:output.obj
 0001:0007d0e0       ?type_case_x@?$output_processor@_WV?$stream_output_adapter@_W@__crt_stdio_output@@V?$positional_parameter_base@_WV?$stream_output_adapter@_W@__crt_stdio_output@@@2@@__crt_stdio_output@@AEAA_NXZ 000000018007e0e0 f i libucrtd:output.obj
 0001:0007d100       ?type_case_x@?$output_processor@_WV?$stream_output_adapter@_W@__crt_stdio_output@@V?$standard_base@_WV?$stream_output_adapter@_W@__crt_stdio_output@@@2@@__crt_stdio_output@@AEAA_NXZ 000000018007e100 f i libucrtd:output.obj
 0001:0007d120       ?type_case_x@?$output_processor@_WV?$string_output_adapter@_W@__crt_stdio_output@@V?$format_validation_base@_WV?$string_output_adapter@_W@__crt_stdio_output@@@2@@__crt_stdio_output@@AEAA_NXZ 000000018007e120 f i libucrtd:output.obj
 0001:0007d140       ?type_case_x@?$output_processor@_WV?$string_output_adapter@_W@__crt_stdio_output@@V?$positional_parameter_base@_WV?$string_output_adapter@_W@__crt_stdio_output@@@2@@__crt_stdio_output@@AEAA_NXZ 000000018007e140 f i libucrtd:output.obj
 0001:0007d160       ?type_case_x@?$output_processor@_WV?$string_output_adapter@_W@__crt_stdio_output@@V?$standard_base@_WV?$string_output_adapter@_W@__crt_stdio_output@@@2@@__crt_stdio_output@@AEAA_NXZ 000000018007e160 f i libucrtd:output.obj
 0001:0007d180       ?unset_flag@?$output_processor@DV?$stream_output_adapter@D@__crt_stdio_output@@V?$format_validation_base@DV?$stream_output_adapter@D@__crt_stdio_output@@@2@@__crt_stdio_output@@AEAAXI@Z 000000018007e180 f i libucrtd:output.obj
 0001:0007d1b0       ?unset_flag@?$output_processor@DV?$stream_output_adapter@D@__crt_stdio_output@@V?$positional_parameter_base@DV?$stream_output_adapter@D@__crt_stdio_output@@@2@@__crt_stdio_output@@AEAAXI@Z 000000018007e1b0 f i libucrtd:output.obj
 0001:0007d1e0       ?unset_flag@?$output_processor@DV?$stream_output_adapter@D@__crt_stdio_output@@V?$standard_base@DV?$stream_output_adapter@D@__crt_stdio_output@@@2@@__crt_stdio_output@@AEAAXI@Z 000000018007e1e0 f i libucrtd:output.obj
 0001:0007d210       ?unset_flag@?$output_processor@DV?$string_output_adapter@D@__crt_stdio_output@@V?$format_validation_base@DV?$string_output_adapter@D@__crt_stdio_output@@@2@@__crt_stdio_output@@AEAAXI@Z 000000018007e210 f i libucrtd:output.obj
 0001:0007d240       ?unset_flag@?$output_processor@DV?$string_output_adapter@D@__crt_stdio_output@@V?$positional_parameter_base@DV?$string_output_adapter@D@__crt_stdio_output@@@2@@__crt_stdio_output@@AEAAXI@Z 000000018007e240 f i libucrtd:output.obj
 0001:0007d270       ?unset_flag@?$output_processor@DV?$string_output_adapter@D@__crt_stdio_output@@V?$standard_base@DV?$string_output_adapter@D@__crt_stdio_output@@@2@@__crt_stdio_output@@AEAAXI@Z 000000018007e270 f i libucrtd:output.obj
 0001:0007d2a0       ?unset_flag@?$output_processor@_WV?$stream_output_adapter@_W@__crt_stdio_output@@V?$format_validation_base@_WV?$stream_output_adapter@_W@__crt_stdio_output@@@2@@__crt_stdio_output@@AEAAXI@Z 000000018007e2a0 f i libucrtd:output.obj
 0001:0007d2d0       ?unset_flag@?$output_processor@_WV?$stream_output_adapter@_W@__crt_stdio_output@@V?$positional_parameter_base@_WV?$stream_output_adapter@_W@__crt_stdio_output@@@2@@__crt_stdio_output@@AEAAXI@Z 000000018007e2d0 f i libucrtd:output.obj
 0001:0007d300       ?unset_flag@?$output_processor@_WV?$stream_output_adapter@_W@__crt_stdio_output@@V?$standard_base@_WV?$stream_output_adapter@_W@__crt_stdio_output@@@2@@__crt_stdio_output@@AEAAXI@Z 000000018007e300 f i libucrtd:output.obj
 0001:0007d330       ?unset_flag@?$output_processor@_WV?$string_output_adapter@_W@__crt_stdio_output@@V?$format_validation_base@_WV?$string_output_adapter@_W@__crt_stdio_output@@@2@@__crt_stdio_output@@AEAAXI@Z 000000018007e330 f i libucrtd:output.obj
 0001:0007d360       ?unset_flag@?$output_processor@_WV?$string_output_adapter@_W@__crt_stdio_output@@V?$positional_parameter_base@_WV?$string_output_adapter@_W@__crt_stdio_output@@@2@@__crt_stdio_output@@AEAAXI@Z 000000018007e360 f i libucrtd:output.obj
 0001:0007d390       ?unset_flag@?$output_processor@_WV?$string_output_adapter@_W@__crt_stdio_output@@V?$standard_base@_WV?$string_output_adapter@_W@__crt_stdio_output@@@2@@__crt_stdio_output@@AEAAXI@Z 000000018007e390 f i libucrtd:output.obj
 0001:0007d3c0       ?update_field_width@?$positional_parameter_base@DV?$stream_output_adapter@D@__crt_stdio_output@@@__crt_stdio_output@@IEAA_NXZ 000000018007e3c0 f i libucrtd:output.obj
 0001:0007d5b0       ?update_field_width@?$positional_parameter_base@DV?$string_output_adapter@D@__crt_stdio_output@@@__crt_stdio_output@@IEAA_NXZ 000000018007e5b0 f i libucrtd:output.obj
 0001:0007d7a0       ?update_field_width@?$positional_parameter_base@_WV?$stream_output_adapter@_W@__crt_stdio_output@@@__crt_stdio_output@@IEAA_NXZ 000000018007e7a0 f i libucrtd:output.obj
 0001:0007d990       ?update_field_width@?$positional_parameter_base@_WV?$string_output_adapter@_W@__crt_stdio_output@@@__crt_stdio_output@@IEAA_NXZ 000000018007e990 f i libucrtd:output.obj
 0001:0007db80       ?update_field_width@?$standard_base@DV?$stream_output_adapter@D@__crt_stdio_output@@@__crt_stdio_output@@IEAA_NXZ 000000018007eb80 f i libucrtd:output.obj
 0001:0007dbb0       ?update_field_width@?$standard_base@DV?$string_output_adapter@D@__crt_stdio_output@@@__crt_stdio_output@@IEAA_NXZ 000000018007ebb0 f i libucrtd:output.obj
 0001:0007dbe0       ?update_field_width@?$standard_base@_WV?$stream_output_adapter@_W@__crt_stdio_output@@@__crt_stdio_output@@IEAA_NXZ 000000018007ebe0 f i libucrtd:output.obj
 0001:0007dc10       ?update_field_width@?$standard_base@_WV?$string_output_adapter@_W@__crt_stdio_output@@@__crt_stdio_output@@IEAA_NXZ 000000018007ec10 f i libucrtd:output.obj
 0001:0007dc40       ?update_precision@?$positional_parameter_base@DV?$stream_output_adapter@D@__crt_stdio_output@@@__crt_stdio_output@@IEAA_NXZ 000000018007ec40 f i libucrtd:output.obj
 0001:0007de30       ?update_precision@?$positional_parameter_base@DV?$string_output_adapter@D@__crt_stdio_output@@@__crt_stdio_output@@IEAA_NXZ 000000018007ee30 f i libucrtd:output.obj
 0001:0007e020       ?update_precision@?$positional_parameter_base@_WV?$stream_output_adapter@_W@__crt_stdio_output@@@__crt_stdio_output@@IEAA_NXZ 000000018007f020 f i libucrtd:output.obj
 0001:0007e210       ?update_precision@?$positional_parameter_base@_WV?$string_output_adapter@_W@__crt_stdio_output@@@__crt_stdio_output@@IEAA_NXZ 000000018007f210 f i libucrtd:output.obj
 0001:0007e400       ?update_precision@?$standard_base@DV?$stream_output_adapter@D@__crt_stdio_output@@@__crt_stdio_output@@IEAA_NXZ 000000018007f400 f i libucrtd:output.obj
 0001:0007e430       ?update_precision@?$standard_base@DV?$string_output_adapter@D@__crt_stdio_output@@@__crt_stdio_output@@IEAA_NXZ 000000018007f430 f i libucrtd:output.obj
 0001:0007e460       ?update_precision@?$standard_base@_WV?$stream_output_adapter@_W@__crt_stdio_output@@@__crt_stdio_output@@IEAA_NXZ 000000018007f460 f i libucrtd:output.obj
 0001:0007e490       ?update_precision@?$standard_base@_WV?$string_output_adapter@_W@__crt_stdio_output@@@__crt_stdio_output@@IEAA_NXZ 000000018007f490 f i libucrtd:output.obj
 0001:0007e4c0       ?valid@__crt_stdio_stream@@QEBA_NXZ 000000018007f4c0 f i libucrtd:output.obj
 0001:0007e4f0       ?validate@?$stream_output_adapter@D@__crt_stdio_output@@QEBA_NXZ 000000018007f4f0 f i libucrtd:output.obj
 0001:0007e5d0       ?validate@?$stream_output_adapter@_W@__crt_stdio_output@@QEBA_NXZ 000000018007f5d0 f i libucrtd:output.obj
 0001:0007e6b0       ?validate@?$string_output_adapter@D@__crt_stdio_output@@QEBA_NXZ 000000018007f6b0 f i libucrtd:output.obj
 0001:0007e770       ?validate@?$string_output_adapter@_W@__crt_stdio_output@@QEBA_NXZ 000000018007f770 f i libucrtd:output.obj
 0001:0007e830       ?validate_and_store_parameter_data@?$positional_parameter_base@DV?$stream_output_adapter@D@__crt_stdio_output@@@__crt_stdio_output@@AEAA_NAEAUparameter_data@12@W4parameter_type@12@DW4length_modifier@2@@Z 000000018007f830 f i libucrtd:output.obj
 0001:0007e950       ?validate_and_store_parameter_data@?$positional_parameter_base@DV?$string_output_adapter@D@__crt_stdio_output@@@__crt_stdio_output@@AEAA_NAEAUparameter_data@12@W4parameter_type@12@DW4length_modifier@2@@Z 000000018007f950 f i libucrtd:output.obj
 0001:0007ea70       ?validate_and_store_parameter_data@?$positional_parameter_base@_WV?$stream_output_adapter@_W@__crt_stdio_output@@@__crt_stdio_output@@AEAA_NAEAUparameter_data@12@W4parameter_type@12@_WW4length_modifier@2@@Z 000000018007fa70 f i libucrtd:output.obj
 0001:0007eb90       ?validate_and_store_parameter_data@?$positional_parameter_base@_WV?$string_output_adapter@_W@__crt_stdio_output@@@__crt_stdio_output@@AEAA_NAEAUparameter_data@12@W4parameter_type@12@_WW4length_modifier@2@@Z 000000018007fb90 f i libucrtd:output.obj
 0001:0007ecb0       ?validate_and_update_state_at_beginning_of_format_character@?$positional_parameter_base@DV?$stream_output_adapter@D@__crt_stdio_output@@@__crt_stdio_output@@IEAA_NXZ 000000018007fcb0 f i libucrtd:output.obj
 0001:0007ef90       ?validate_and_update_state_at_beginning_of_format_character@?$positional_parameter_base@DV?$string_output_adapter@D@__crt_stdio_output@@@__crt_stdio_output@@IEAA_NXZ 000000018007ff90 f i libucrtd:output.obj
 0001:0007f270       ?validate_and_update_state_at_beginning_of_format_character@?$positional_parameter_base@_WV?$stream_output_adapter@_W@__crt_stdio_output@@@__crt_stdio_output@@IEAA_NXZ 0000000180080270 f i libucrtd:output.obj
 0001:0007f550       ?validate_and_update_state_at_beginning_of_format_character@?$positional_parameter_base@_WV?$string_output_adapter@_W@__crt_stdio_output@@@__crt_stdio_output@@IEAA_NXZ 0000000180080550 f i libucrtd:output.obj
 0001:0007f830       ?validate_and_update_state_at_beginning_of_format_character@?$standard_base@DV?$stream_output_adapter@D@__crt_stdio_output@@@__crt_stdio_output@@IEAA_NXZ 0000000180080830 f i libucrtd:output.obj
 0001:0007f840       ?validate_and_update_state_at_beginning_of_format_character@?$standard_base@DV?$string_output_adapter@D@__crt_stdio_output@@@__crt_stdio_output@@IEAA_NXZ 0000000180080840 f i libucrtd:output.obj
 0001:0007f850       ?validate_and_update_state_at_beginning_of_format_character@?$standard_base@_WV?$stream_output_adapter@_W@__crt_stdio_output@@@__crt_stdio_output@@IEAA_NXZ 0000000180080850 f i libucrtd:output.obj
 0001:0007f860       ?validate_and_update_state_at_beginning_of_format_character@?$standard_base@_WV?$string_output_adapter@_W@__crt_stdio_output@@@__crt_stdio_output@@IEAA_NXZ 0000000180080860 f i libucrtd:output.obj
 0001:0007f870       ?validate_and_update_state_at_end_of_format_string@?$format_validation_base@DV?$stream_output_adapter@D@__crt_stdio_output@@@__crt_stdio_output@@IEBA_NXZ 0000000180080870 f i libucrtd:output.obj
 0001:0007f930       ?validate_and_update_state_at_end_of_format_string@?$format_validation_base@DV?$string_output_adapter@D@__crt_stdio_output@@@__crt_stdio_output@@IEBA_NXZ 0000000180080930 f i libucrtd:output.obj
 0001:0007f9f0       ?validate_and_update_state_at_end_of_format_string@?$format_validation_base@_WV?$stream_output_adapter@_W@__crt_stdio_output@@@__crt_stdio_output@@IEBA_NXZ 00000001800809f0 f i libucrtd:output.obj
 0001:0007fab0       ?validate_and_update_state_at_end_of_format_string@?$format_validation_base@_WV?$string_output_adapter@_W@__crt_stdio_output@@@__crt_stdio_output@@IEBA_NXZ 0000000180080ab0 f i libucrtd:output.obj
 0001:0007fb70       ?validate_and_update_state_at_end_of_format_string@?$positional_parameter_base@DV?$stream_output_adapter@D@__crt_stdio_output@@@__crt_stdio_output@@IEAA_NXZ 0000000180080b70 f i libucrtd:output.obj
 0001:0007fd60       ?validate_and_update_state_at_end_of_format_string@?$positional_parameter_base@DV?$string_output_adapter@D@__crt_stdio_output@@@__crt_stdio_output@@IEAA_NXZ 0000000180080d60 f i libucrtd:output.obj
 0001:0007ff50       ?validate_and_update_state_at_end_of_format_string@?$positional_parameter_base@_WV?$stream_output_adapter@_W@__crt_stdio_output@@@__crt_stdio_output@@IEAA_NXZ 0000000180080f50 f i libucrtd:output.obj
 0001:00080140       ?validate_and_update_state_at_end_of_format_string@?$positional_parameter_base@_WV?$string_output_adapter@_W@__crt_stdio_output@@@__crt_stdio_output@@IEAA_NXZ 0000000180081140 f i libucrtd:output.obj
 0001:00080330       ?validate_and_update_state_at_end_of_format_string@?$standard_base@DV?$stream_output_adapter@D@__crt_stdio_output@@@__crt_stdio_output@@IEBA_NXZ 0000000180081330 f i libucrtd:output.obj
 0001:00080340       ?validate_and_update_state_at_end_of_format_string@?$standard_base@DV?$string_output_adapter@D@__crt_stdio_output@@@__crt_stdio_output@@IEBA_NXZ 0000000180081340 f i libucrtd:output.obj
 0001:00080350       ?validate_and_update_state_at_end_of_format_string@?$standard_base@_WV?$stream_output_adapter@_W@__crt_stdio_output@@@__crt_stdio_output@@IEBA_NXZ 0000000180081350 f i libucrtd:output.obj
 0001:00080360       ?validate_and_update_state_at_end_of_format_string@?$standard_base@_WV?$string_output_adapter@_W@__crt_stdio_output@@@__crt_stdio_output@@IEBA_NXZ 0000000180081360 f i libucrtd:output.obj
 0001:00080370       ?validate_state_for_type_case_a@?$positional_parameter_base@DV?$stream_output_adapter@D@__crt_stdio_output@@@__crt_stdio_output@@IEAA_NXZ 0000000180081370 f i libucrtd:output.obj
 0001:000804b0       ?validate_state_for_type_case_a@?$positional_parameter_base@DV?$string_output_adapter@D@__crt_stdio_output@@@__crt_stdio_output@@IEAA_NXZ 00000001800814b0 f i libucrtd:output.obj
 0001:000805f0       ?validate_state_for_type_case_a@?$positional_parameter_base@_WV?$stream_output_adapter@_W@__crt_stdio_output@@@__crt_stdio_output@@IEAA_NXZ 00000001800815f0 f i libucrtd:output.obj
 0001:00080730       ?validate_state_for_type_case_a@?$positional_parameter_base@_WV?$string_output_adapter@_W@__crt_stdio_output@@@__crt_stdio_output@@IEAA_NXZ 0000000180081730 f i libucrtd:output.obj
 0001:00080870       ?validate_state_for_type_case_a@?$standard_base@DV?$stream_output_adapter@D@__crt_stdio_output@@@__crt_stdio_output@@IEBA_NXZ 0000000180081870 f i libucrtd:output.obj
 0001:00080880       ?validate_state_for_type_case_a@?$standard_base@DV?$string_output_adapter@D@__crt_stdio_output@@@__crt_stdio_output@@IEBA_NXZ 0000000180081880 f i libucrtd:output.obj
 0001:00080890       ?validate_state_for_type_case_a@?$standard_base@_WV?$stream_output_adapter@_W@__crt_stdio_output@@@__crt_stdio_output@@IEBA_NXZ 0000000180081890 f i libucrtd:output.obj
 0001:000808a0       ?validate_state_for_type_case_a@?$standard_base@_WV?$string_output_adapter@_W@__crt_stdio_output@@@__crt_stdio_output@@IEBA_NXZ 00000001800818a0 f i libucrtd:output.obj
 0001:000808b0       ?validate_stream_is_ansi_if_required@?$__acrt_stdio_char_traits@D@@SA_NQEAU_iobuf@@@Z 00000001800818b0 f i libucrtd:output.obj
 0001:00080a40       ?validate_stream_is_ansi_if_required@?$__acrt_stdio_char_traits@_W@@SA_NQEAU_iobuf@@@Z 0000000180081a40 f i libucrtd:output.obj
 0001:00080a50       ?wide_null_string@?$output_processor@DV?$stream_output_adapter@D@__crt_stdio_output@@V?$format_validation_base@DV?$stream_output_adapter@D@__crt_stdio_output@@@2@@__crt_stdio_output@@CAPEA_WXZ 0000000180081a50 f i libucrtd:output.obj
 0001:00080a60       ?wide_null_string@?$output_processor@DV?$stream_output_adapter@D@__crt_stdio_output@@V?$positional_parameter_base@DV?$stream_output_adapter@D@__crt_stdio_output@@@2@@__crt_stdio_output@@CAPEA_WXZ 0000000180081a60 f i libucrtd:output.obj
 0001:00080a70       ?wide_null_string@?$output_processor@DV?$stream_output_adapter@D@__crt_stdio_output@@V?$standard_base@DV?$stream_output_adapter@D@__crt_stdio_output@@@2@@__crt_stdio_output@@CAPEA_WXZ 0000000180081a70 f i libucrtd:output.obj
 0001:00080a80       ?wide_null_string@?$output_processor@DV?$string_output_adapter@D@__crt_stdio_output@@V?$format_validation_base@DV?$string_output_adapter@D@__crt_stdio_output@@@2@@__crt_stdio_output@@CAPEA_WXZ 0000000180081a80 f i libucrtd:output.obj
 0001:00080a90       ?wide_null_string@?$output_processor@DV?$string_output_adapter@D@__crt_stdio_output@@V?$positional_parameter_base@DV?$string_output_adapter@D@__crt_stdio_output@@@2@@__crt_stdio_output@@CAPEA_WXZ 0000000180081a90 f i libucrtd:output.obj
 0001:00080aa0       ?wide_null_string@?$output_processor@DV?$string_output_adapter@D@__crt_stdio_output@@V?$standard_base@DV?$string_output_adapter@D@__crt_stdio_output@@@2@@__crt_stdio_output@@CAPEA_WXZ 0000000180081aa0 f i libucrtd:output.obj
 0001:00080ab0       ?wide_null_string@?$output_processor@_WV?$stream_output_adapter@_W@__crt_stdio_output@@V?$format_validation_base@_WV?$stream_output_adapter@_W@__crt_stdio_output@@@2@@__crt_stdio_output@@CAPEA_WXZ 0000000180081ab0 f i libucrtd:output.obj
 0001:00080ac0       ?wide_null_string@?$output_processor@_WV?$stream_output_adapter@_W@__crt_stdio_output@@V?$positional_parameter_base@_WV?$stream_output_adapter@_W@__crt_stdio_output@@@2@@__crt_stdio_output@@CAPEA_WXZ 0000000180081ac0 f i libucrtd:output.obj
 0001:00080ad0       ?wide_null_string@?$output_processor@_WV?$stream_output_adapter@_W@__crt_stdio_output@@V?$standard_base@_WV?$stream_output_adapter@_W@__crt_stdio_output@@@2@@__crt_stdio_output@@CAPEA_WXZ 0000000180081ad0 f i libucrtd:output.obj
 0001:00080ae0       ?wide_null_string@?$output_processor@_WV?$string_output_adapter@_W@__crt_stdio_output@@V?$format_validation_base@_WV?$string_output_adapter@_W@__crt_stdio_output@@@2@@__crt_stdio_output@@CAPEA_WXZ 0000000180081ae0 f i libucrtd:output.obj
 0001:00080af0       ?wide_null_string@?$output_processor@_WV?$string_output_adapter@_W@__crt_stdio_output@@V?$positional_parameter_base@_WV?$string_output_adapter@_W@__crt_stdio_output@@@2@@__crt_stdio_output@@CAPEA_WXZ 0000000180081af0 f i libucrtd:output.obj
 0001:00080b00       ?wide_null_string@?$output_processor@_WV?$string_output_adapter@_W@__crt_stdio_output@@V?$standard_base@_WV?$string_output_adapter@_W@__crt_stdio_output@@@2@@__crt_stdio_output@@CAPEA_WXZ 0000000180081b00 f i libucrtd:output.obj
 0001:00080b10       ?write_character@?$output_adapter_common@DV?$stream_output_adapter@D@__crt_stdio_output@@@__crt_stdio_output@@QEBAXDQEAH@Z 0000000180081b10 f i libucrtd:output.obj
 0001:00080b60       ?write_character@?$output_adapter_common@_WV?$stream_output_adapter@_W@__crt_stdio_output@@@__crt_stdio_output@@QEBAX_WQEAH@Z 0000000180081b60 f i libucrtd:output.obj
 0001:00080bb0       ?write_character@?$string_output_adapter@D@__crt_stdio_output@@QEBA_NDQEAH@Z 0000000180081bb0 f i libucrtd:output.obj
 0001:00080c70       ?write_character@?$string_output_adapter@_W@__crt_stdio_output@@QEBA_N_WQEAH@Z 0000000180081c70 f i libucrtd:output.obj
 0001:00080d30       ?write_character_without_count_update@?$stream_output_adapter@D@__crt_stdio_output@@QEBA_ND@Z 0000000180081d30 f i libucrtd:output.obj
 0001:00080db0       ?write_character_without_count_update@?$stream_output_adapter@_W@__crt_stdio_output@@QEBA_N_W@Z 0000000180081db0 f i libucrtd:output.obj
 0001:00080e40       ?write_stored_string_tchar@?$output_processor@DV?$stream_output_adapter@D@__crt_stdio_output@@V?$format_validation_base@DV?$stream_output_adapter@D@__crt_stdio_output@@@2@@__crt_stdio_output@@AEAA_ND@Z 0000000180081e40 f i libucrtd:output.obj
 0001:00081000       ?write_stored_string_tchar@?$output_processor@DV?$stream_output_adapter@D@__crt_stdio_output@@V?$positional_parameter_base@DV?$stream_output_adapter@D@__crt_stdio_output@@@2@@__crt_stdio_output@@AEAA_ND@Z 0000000180082000 f i libucrtd:output.obj
 0001:000811c0       ?write_stored_string_tchar@?$output_processor@DV?$stream_output_adapter@D@__crt_stdio_output@@V?$standard_base@DV?$stream_output_adapter@D@__crt_stdio_output@@@2@@__crt_stdio_output@@AEAA_ND@Z 00000001800821c0 f i libucrtd:output.obj
 0001:00081380       ?write_stored_string_tchar@?$output_processor@DV?$string_output_adapter@D@__crt_stdio_output@@V?$format_validation_base@DV?$string_output_adapter@D@__crt_stdio_output@@@2@@__crt_stdio_output@@AEAA_ND@Z 0000000180082380 f i libucrtd:output.obj
 0001:00081540       ?write_stored_string_tchar@?$output_processor@DV?$string_output_adapter@D@__crt_stdio_output@@V?$positional_parameter_base@DV?$string_output_adapter@D@__crt_stdio_output@@@2@@__crt_stdio_output@@AEAA_ND@Z 0000000180082540 f i libucrtd:output.obj
 0001:00081700       ?write_stored_string_tchar@?$output_processor@DV?$string_output_adapter@D@__crt_stdio_output@@V?$standard_base@DV?$string_output_adapter@D@__crt_stdio_output@@@2@@__crt_stdio_output@@AEAA_ND@Z 0000000180082700 f i libucrtd:output.obj
 0001:000818c0       ?write_stored_string_tchar@?$output_processor@_WV?$stream_output_adapter@_W@__crt_stdio_output@@V?$format_validation_base@_WV?$stream_output_adapter@_W@__crt_stdio_output@@@2@@__crt_stdio_output@@AEAA_N_W@Z 00000001800828c0 f i libucrtd:output.obj
 0001:00081a10       ?write_stored_string_tchar@?$output_processor@_WV?$stream_output_adapter@_W@__crt_stdio_output@@V?$positional_parameter_base@_WV?$stream_output_adapter@_W@__crt_stdio_output@@@2@@__crt_stdio_output@@AEAA_N_W@Z 0000000180082a10 f i libucrtd:output.obj
 0001:00081b60       ?write_stored_string_tchar@?$output_processor@_WV?$stream_output_adapter@_W@__crt_stdio_output@@V?$standard_base@_WV?$stream_output_adapter@_W@__crt_stdio_output@@@2@@__crt_stdio_output@@AEAA_N_W@Z 0000000180082b60 f i libucrtd:output.obj
 0001:00081cb0       ?write_stored_string_tchar@?$output_processor@_WV?$string_output_adapter@_W@__crt_stdio_output@@V?$format_validation_base@_WV?$string_output_adapter@_W@__crt_stdio_output@@@2@@__crt_stdio_output@@AEAA_N_W@Z 0000000180082cb0 f i libucrtd:output.obj
 0001:00081e00       ?write_stored_string_tchar@?$output_processor@_WV?$string_output_adapter@_W@__crt_stdio_output@@V?$positional_parameter_base@_WV?$string_output_adapter@_W@__crt_stdio_output@@@2@@__crt_stdio_output@@AEAA_N_W@Z 0000000180082e00 f i libucrtd:output.obj
 0001:00081f50       ?write_stored_string_tchar@?$output_processor@_WV?$string_output_adapter@_W@__crt_stdio_output@@V?$standard_base@_WV?$string_output_adapter@_W@__crt_stdio_output@@@2@@__crt_stdio_output@@AEAA_N_W@Z 0000000180082f50 f i libucrtd:output.obj
 0001:000820a0       ?write_string@?$stream_output_adapter@D@__crt_stdio_output@@QEBAXQEBDHQEAHAEAV__crt_deferred_errno_cache@@@Z 00000001800830a0 f i libucrtd:output.obj
 0001:00082120       ?write_string@?$stream_output_adapter@_W@__crt_stdio_output@@QEBAXQEB_WHQEAHAEAV__crt_deferred_errno_cache@@@Z 0000000180083120 f i libucrtd:output.obj
 0001:000821a0       ?write_string@?$string_output_adapter@D@__crt_stdio_output@@QEBAXQEBDHQEAHAEAV__crt_deferred_errno_cache@@@Z 00000001800831a0 f i libucrtd:output.obj
 0001:00082310       ?write_string@?$string_output_adapter@_W@__crt_stdio_output@@QEBAXQEB_WHQEAHAEAV__crt_deferred_errno_cache@@@Z 0000000180083310 f i libucrtd:output.obj
 0001:00082480       ?write_string_impl@?$output_adapter_common@DV?$stream_output_adapter@D@__crt_stdio_output@@@__crt_stdio_output@@IEBAXQEBDHQEAHAEAV__crt_deferred_errno_cache@@@Z 0000000180083480 f i libucrtd:output.obj
 0001:00082560       ?write_string_impl@?$output_adapter_common@_WV?$stream_output_adapter@_W@__crt_stdio_output@@@__crt_stdio_output@@IEBAXQEB_WHQEAHAEAV__crt_deferred_errno_cache@@@Z 0000000180083560 f i libucrtd:output.obj
 0001:00082640       __acrt_disable_global_locale_sync 0000000180083640 f i libucrtd:output.obj
 0001:00082670       __acrt_enable_global_locale_sync 0000000180083670 f i libucrtd:output.obj
 0001:000826a0       __acrt_isleadbyte_l_noupdate 00000001800836a0 f i libucrtd:output.obj
 0001:000826d0       __acrt_locale_changed      00000001800836d0 f i libucrtd:output.obj
 0001:00082700       __acrt_locale_get_ctype_array_value 0000000180083700 f i libucrtd:output.obj
 0001:00082740       __stdio_common_vfprintf    0000000180083740 f   libucrtd:output.obj
 0001:00082780       __stdio_common_vfprintf_p  0000000180083780 f   libucrtd:output.obj
 0001:000827c0       __stdio_common_vfprintf_s  00000001800837c0 f   libucrtd:output.obj
 0001:00082800       __stdio_common_vfwprintf   0000000180083800 f   libucrtd:output.obj
 0001:00082840       __stdio_common_vfwprintf_p 0000000180083840 f   libucrtd:output.obj
 0001:00082880       __stdio_common_vfwprintf_s 0000000180083880 f   libucrtd:output.obj
 0001:000828c0       __stdio_common_vsnprintf_s 00000001800838c0 f   libucrtd:output.obj
 0001:00082920       __stdio_common_vsnwprintf_s 0000000180083920 f   libucrtd:output.obj
 0001:00082980       __stdio_common_vsprintf    0000000180083980 f   libucrtd:output.obj
 0001:000829d0       __stdio_common_vsprintf_p  00000001800839d0 f   libucrtd:output.obj
 0001:00082a20       __stdio_common_vsprintf_s  0000000180083a20 f   libucrtd:output.obj
 0001:00082a70       __stdio_common_vswprintf   0000000180083a70 f   libucrtd:output.obj
 0001:00082ac0       __stdio_common_vswprintf_p 0000000180083ac0 f   libucrtd:output.obj
 0001:00082b10       __stdio_common_vswprintf_s 0000000180083b10 f   libucrtd:output.obj
 0001:00082b60       _ctype_fast_check_internal 0000000180083b60 f i libucrtd:output.obj
 0001:00082b90       _isdigit_fast_internal     0000000180083b90 f i libucrtd:output.obj
 0001:00082bc0       _tolower_fast_internal     0000000180083bc0 f i libucrtd:output.obj
 0001:00082bf0       free                       0000000180083bf0 f   libucrtd:free.obj
 0001:00082c20       malloc                     0000000180083c20 f   libucrtd:malloc.obj
 0001:00082c50       ??$?RU?$__crt_report_hook_node@D@@@__crt_internal_free_policy@@QEBAXQEBU?$__crt_report_hook_node@D@@@Z 0000000180083c50 f i libucrtd:dbgrpt.obj
 0001:00082c80       ??$?RU?$__crt_report_hook_node@_W@@@__crt_internal_free_policy@@QEBAXQEBU?$__crt_report_hook_node@_W@@@Z 0000000180083c80 f i libucrtd:dbgrpt.obj
 0001:00083ec0       ??$get_module_file_name@AEAPEAUHINSTANCE__@@AEAY0BAF@DK@?$__crt_char_traits@D@@SAKAEAPEAUHINSTANCE__@@AEAY0BAF@D$$QEAK@Z 0000000180084ec0 f i libucrtd:dbgrpt.obj
 0001:00083f00       ??$get_module_file_name@AEAPEAUHINSTANCE__@@AEAY0BAF@_WK@?$__crt_char_traits@_W@@SAKAEAPEAUHINSTANCE__@@AEAY0BAF@_W$$QEAK@Z 0000000180084f00 f i libucrtd:dbgrpt.obj
 0001:00083f40       ??$tcscpy_s@AEAY0BAF@D_KPEBD@?$__crt_char_traits@D@@SAHAEAY0BAF@D$$QEA_K$$QEAPEBD@Z 0000000180084f40 f i libucrtd:dbgrpt.obj
 0001:00083f80       ??$tcscpy_s@AEAY0BAF@_W_KPEB_W@?$__crt_char_traits@_W@@SAHAEAY0BAF@_W$$QEA_K$$QEAPEB_W@Z 0000000180084f80 f i libucrtd:dbgrpt.obj
 0001:00083fc0       ??$tcslen@AEAY0BAF@D@?$__crt_char_traits@D@@SA_KAEAY0BAF@D@Z 0000000180084fc0 f i libucrtd:dbgrpt.obj
 0001:00083fe0       ??$tcslen@AEAY0BAF@_W@?$__crt_char_traits@_W@@SA_KAEAY0BAF@_W@Z 0000000180084fe0 f i libucrtd:dbgrpt.obj
 0001:00084000       ??$tcslen@AEBQEBD@?$__crt_char_traits@D@@SA_KAEBQEBD@Z 0000000180085000 f i libucrtd:dbgrpt.obj
 0001:00084020       ??$tcslen@AEBQEB_W@?$__crt_char_traits@_W@@SA_KAEBQEB_W@Z 0000000180085020 f i libucrtd:dbgrpt.obj
 0001:00084120       ??0?$__crt_unique_heap_ptr@U?$__crt_report_hook_node@D@@U__crt_internal_free_policy@@@@QEAA@QEAU?$__crt_report_hook_node@D@@@Z 0000000180085120 f i libucrtd:dbgrpt.obj
 0001:00084140       ??0?$__crt_unique_heap_ptr@U?$__crt_report_hook_node@_W@@U__crt_internal_free_policy@@@@QEAA@QEAU?$__crt_report_hook_node@_W@@@Z 0000000180085140 f i libucrtd:dbgrpt.obj
 0001:00084160       ??1?$__crt_unique_heap_ptr@U?$__crt_report_hook_node@D@@U__crt_internal_free_policy@@@@QEAA@XZ 0000000180085160 f i libucrtd:dbgrpt.obj
 0001:00084180       ??1?$__crt_unique_heap_ptr@U?$__crt_report_hook_node@_W@@U__crt_internal_free_policy@@@@QEAA@XZ 0000000180085180 f i libucrtd:dbgrpt.obj
 0001:000841a0       ??B?$__crt_unique_heap_ptr@U?$__crt_report_hook_node@D@@U__crt_internal_free_policy@@@@QEBA_NXZ 00000001800851a0 f i libucrtd:dbgrpt.obj
 0001:000841c0       ??B?$__crt_unique_heap_ptr@U?$__crt_report_hook_node@_W@@U__crt_internal_free_policy@@@@QEBA_NXZ 00000001800851c0 f i libucrtd:dbgrpt.obj
 0001:000848a0       ?detach@?$__crt_unique_heap_ptr@U?$__crt_report_hook_node@D@@U__crt_internal_free_policy@@@@QEAAPEAU?$__crt_report_hook_node@D@@XZ 00000001800858a0 f i libucrtd:dbgrpt.obj
 0001:000848d0       ?detach@?$__crt_unique_heap_ptr@U?$__crt_report_hook_node@_W@@U__crt_internal_free_policy@@@@QEAAPEAU?$__crt_report_hook_node@_W@@XZ 00000001800858d0 f i libucrtd:dbgrpt.obj
 0001:00084900       ?get@?$__crt_unique_heap_ptr@U?$__crt_report_hook_node@D@@U__crt_internal_free_policy@@@@QEBAPEAU?$__crt_report_hook_node@D@@XZ 0000000180085900 f i libucrtd:dbgrpt.obj
 0001:00084910       ?get@?$__crt_unique_heap_ptr@U?$__crt_report_hook_node@_W@@U__crt_internal_free_policy@@@@QEBAPEAU?$__crt_report_hook_node@_W@@XZ 0000000180085910 f i libucrtd:dbgrpt.obj
 0001:00084980       ?is_valid@?$__crt_unique_heap_ptr@U?$__crt_report_hook_node@D@@U__crt_internal_free_policy@@@@QEBA_NXZ 0000000180085980 f i libucrtd:dbgrpt.obj
 0001:000849b0       ?is_valid@?$__crt_unique_heap_ptr@U?$__crt_report_hook_node@_W@@U__crt_internal_free_policy@@@@QEBA_NXZ 00000001800859b0 f i libucrtd:dbgrpt.obj
 0001:000849e0       ?release@?$__crt_unique_heap_ptr@U?$__crt_report_hook_node@D@@U__crt_internal_free_policy@@@@QEAAXXZ 00000001800859e0 f i libucrtd:dbgrpt.obj
 0001:00084a10       ?release@?$__crt_unique_heap_ptr@U?$__crt_report_hook_node@_W@@U__crt_internal_free_policy@@@@QEAAXXZ 0000000180085a10 f i libucrtd:dbgrpt.obj
 0001:00084a40       _CrtDbgReport              0000000180085a40 f   libucrtd:dbgrpt.obj
 0001:00084ac0       _CrtDbgReportW             0000000180085ac0 f   libucrtd:dbgrpt.obj
 0001:00084b40       _CrtSetReportHook2         0000000180085b40 f   libucrtd:dbgrpt.obj
 0001:00084b60       _CrtSetReportHookW2        0000000180085b60 f   libucrtd:dbgrpt.obj
 0001:00084b80       __acrt_MessageWindowA      0000000180085b80 f   libucrtd:dbgrpt.obj
 0001:00084bd0       __acrt_MessageWindowW      0000000180085bd0 f   libucrtd:dbgrpt.obj
 0001:00084c20       _invoke_watson_if_error    0000000180085c20 f i libucrtd:dbgrpt.obj
 0001:00084c70       _invoke_watson_if_oneof    0000000180085c70 f i libucrtd:dbgrpt.obj
 0001:00084cd0       _snwprintf_s               0000000180085cd0 f i libucrtd:dbgrpt.obj
 0001:00084d40       _vsnwprintf_s_l            0000000180085d40 f i libucrtd:dbgrpt.obj
 0001:000852a0       wcscpy_s                   00000001800862a0 f   libucrtd:wcscpy_s.obj
 0001:00086630       ??1?$__crt_simd_cleanup_guard@$00@@QEAA@XZ 0000000180087630 f i libucrtd:strnlen.obj
 0001:00086640       ??1?$__crt_simd_cleanup_guard@$0A@@@QEAA@XZ 0000000180087640 f i libucrtd:strnlen.obj
 0001:00086650       ?compare_equals@?$__crt_simd_traits@$00E@@SA?AT__m256i@@T2@0@Z 0000000180087650 f i libucrtd:strnlen.obj
 0001:00086690       ?compare_equals@?$__crt_simd_traits@$00G@@SA?AT__m256i@@T2@0@Z 0000000180087690 f i libucrtd:strnlen.obj
 0001:000866d0       ?compare_equals@?$__crt_simd_traits@$0A@E@@SA?AT__m128i@@T2@0@Z 00000001800876d0 f i libucrtd:strnlen.obj
 0001:00086700       ?compare_equals@?$__crt_simd_traits@$0A@G@@SA?AT__m128i@@T2@0@Z 0000000180087700 f i libucrtd:strnlen.obj
 0001:00086730       ?compute_byte_mask@?$__crt_simd_pack_traits@$00@@SAHT__m256i@@@Z 0000000180087730 f i libucrtd:strnlen.obj
 0001:00086750       ?compute_byte_mask@?$__crt_simd_pack_traits@$0A@@@SAHT__m128i@@@Z 0000000180087750 f i libucrtd:strnlen.obj
 0001:00086770       ?get_zero_pack@?$__crt_simd_pack_traits@$00@@SA?AT__m256i@@XZ 0000000180087770 f i libucrtd:strnlen.obj
 0001:000867a0       ?get_zero_pack@?$__crt_simd_pack_traits@$0A@@@SA?AT__m128i@@XZ 00000001800877a0 f i libucrtd:strnlen.obj
 0001:000867c0       strnlen                    00000001800877c0 f   libucrtd:strnlen.obj
 0001:000867f0       wcslen                     00000001800877f0 f   libucrtd:strnlen.obj
 0001:00086810       wcsnlen                    0000000180087810 f   libucrtd:strnlen.obj
 0001:00086840       ??$__crt_fast_decode_pointer@P6AXPEB_W00I_K@Z@@YAP6AXPEB_W00I_K@ZQ6AX000I1@Z@Z 0000000180087840 f i libucrtd:invalid_parameter.obj
 0001:00086880       ??$__crt_fast_encode_pointer@P6AXPEB_W00I_K@Z@@YAP6AXPEB_W00I_K@ZQ6AX000I1@Z@Z 0000000180087880 f i libucrtd:invalid_parameter.obj
 0001:000868c0       ??$initialize_from_array@$$BY00Q6AXPEB_W00I_K@Z@?$dual_state_global@P6AXPEB_W00I_K@Z@__crt_state_management@@QEAAXAEAY00Q6AXPEB_W00I_K@Z@Z 00000001800878c0 f i libucrtd:invalid_parameter.obj
 0001:00086920       ?__crt_rotate_pointer_value@@YA_K_KH@Z 0000000180087920 f i libucrtd:invalid_parameter.obj
 0001:000869e0       ?dangerous_get_state_array@?$dual_state_global@P6AXPEB_W00I_K@Z@__crt_state_management@@QEAAPEAP6AXPEB_W00I_K@ZXZ 00000001800879e0 f i libucrtd:invalid_parameter.obj
 0001:000869f0       ?get_current_state_index@__crt_state_management@@YA_KXZ 00000001800879f0 f i libucrtd:invalid_parameter.obj
 0001:00086a00       ?value@?$dual_state_global@P6AXPEB_W00I_K@Z@__crt_state_management@@QEAAAEAP6AXPEB_W00I_K@ZXZ 0000000180087a00 f i libucrtd:invalid_parameter.obj
 0001:00086a20       __acrt_call_reportfault    0000000180087a20 f   libucrtd:invalid_parameter.obj
 0001:00086b50       __acrt_initialize_invalid_parameter_handler 0000000180087b50 f   libucrtd:invalid_parameter.obj
 0001:00086b80       _get_invalid_parameter_handler 0000000180087b80 f   libucrtd:invalid_parameter.obj
 0001:00086ba0       _get_thread_local_invalid_parameter_handler 0000000180087ba0 f   libucrtd:invalid_parameter.obj
 0001:00086bd0       _invalid_parameter         0000000180087bd0 f   libucrtd:invalid_parameter.obj
 0001:00086cd0       _invalid_parameter_noinfo  0000000180087cd0 f   libucrtd:invalid_parameter.obj
 0001:00086d00       _invalid_parameter_noinfo_noreturn 0000000180087d00 f   libucrtd:invalid_parameter.obj
 0001:00086d40       _invoke_watson             0000000180087d40 f   libucrtd:invalid_parameter.obj
 0001:00086da0       _set_invalid_parameter_handler 0000000180087da0 f   libucrtd:invalid_parameter.obj
 0001:00086df0       _set_thread_local_invalid_parameter_handler 0000000180087df0 f   libucrtd:invalid_parameter.obj
 0001:00086e30       __acrt_errno_from_os_error 0000000180087e30 f   libucrtd:errno.obj
 0001:00086ec0       __acrt_errno_map_os_error  0000000180087ec0 f   libucrtd:errno.obj
 0001:00086ef0       __doserrno                 0000000180087ef0 f   libucrtd:errno.obj
 0001:00086f20       _errno                     0000000180087f20 f   libucrtd:errno.obj
 0001:00086f50       _get_doserrno              0000000180087f50 f   libucrtd:errno.obj
 0001:00087010       _get_errno                 0000000180088010 f   libucrtd:errno.obj
 0001:000870d0       _set_doserrno              00000001800880d0 f   libucrtd:errno.obj
 0001:00087110       _set_errno                 0000000180088110 f   libucrtd:errno.obj
 0001:00087150       calloc                     0000000180088150 f   libucrtd:calloc.obj
 0001:00087190       _recalloc                  0000000180088190 f   libucrtd:recalloc.obj
 0001:000871e0       _recalloc_base             00000001800881e0 f   libucrtd:recalloc.obj
 0001:000872bc       _resetstkoflw              00000001800882bc f   libucrtd:resetstk.obj
 0001:00087a70       wcscat_s                   0000000180088a70 f   libucrtd:wcscat_s.obj
 0001:00088140       wcsncpy_s                  0000000180089140 f   libucrtd:wcsncpy_s.obj
 0001:000882c0       __isascii                  00000001800892c0 f   libucrtd:_ctype.obj
 0001:000882f0       __iscsym                   00000001800892f0 f   libucrtd:_ctype.obj
 0001:00088330       __iscsymf                  0000000180089330 f   libucrtd:_ctype.obj
 0001:00088370       __toascii                  0000000180089370 f   libucrtd:_ctype.obj
 0001:00088380       _isalnum_l                 0000000180089380 f   libucrtd:_ctype.obj
 0001:000883b0       _isalpha_l                 00000001800893b0 f   libucrtd:_ctype.obj
 0001:000883e0       _isblank_l                 00000001800893e0 f   libucrtd:_ctype.obj
 0001:00088410       _iscntrl_l                 0000000180089410 f   libucrtd:_ctype.obj
 0001:00088440       _iscsym_l                  0000000180089440 f   libucrtd:_ctype.obj
 0001:00088490       _iscsymf_l                 0000000180089490 f   libucrtd:_ctype.obj
 0001:000884e0       _isdigit_l                 00000001800894e0 f   libucrtd:_ctype.obj
 0001:00088510       _isgraph_l                 0000000180089510 f   libucrtd:_ctype.obj
 0001:00088540       _islower_l                 0000000180089540 f   libucrtd:_ctype.obj
 0001:00088570       _isprint_l                 0000000180089570 f   libucrtd:_ctype.obj
 0001:000885a0       _ispunct_l                 00000001800895a0 f   libucrtd:_ctype.obj
 0001:000885d0       _isspace_l                 00000001800895d0 f   libucrtd:_ctype.obj
 0001:00088600       _isupper_l                 0000000180089600 f   libucrtd:_ctype.obj
 0001:00088630       _isxdigit_l                0000000180089630 f   libucrtd:_ctype.obj
 0001:00088660       isalnum                    0000000180089660 f   libucrtd:_ctype.obj
 0001:00088680       isalpha                    0000000180089680 f   libucrtd:_ctype.obj
 0001:000886a0       isblank                    00000001800896a0 f   libucrtd:_ctype.obj
 0001:000886d0       iscntrl                    00000001800896d0 f   libucrtd:_ctype.obj
 0001:000886f0       isdigit                    00000001800896f0 f   libucrtd:_ctype.obj
 0001:00088710       isgraph                    0000000180089710 f   libucrtd:_ctype.obj
 0001:00088730       islower                    0000000180089730 f   libucrtd:_ctype.obj
 0001:00088750       isprint                    0000000180089750 f   libucrtd:_ctype.obj
 0001:00088770       ispunct                    0000000180089770 f   libucrtd:_ctype.obj
 0001:00088790       isspace                    0000000180089790 f   libucrtd:_ctype.obj
 0001:000887b0       isupper                    00000001800897b0 f   libucrtd:_ctype.obj
 0001:000887d0       isxdigit                   00000001800897d0 f   libucrtd:_ctype.obj
 0001:000887f0       wcscat                     00000001800897f0 f   libucrtd:wcscat.obj
 0001:00088870       wcscpy                     0000000180089870 f   libucrtd:wcscpy.obj
 0001:00089020       ??$open_file@AEBQEBDAEBQEBDAEBHPEAU_iobuf@@@?$__crt_char_traits@D@@SAPEAU_iobuf@@AEBQEBD0AEBH$$QEAPEAU1@@Z 000000018008a020 f i libucrtd:fopen.obj
 0001:00089070       ??$open_file@AEBQEB_WAEBQEB_WAEBHPEAU_iobuf@@@?$__crt_char_traits@_W@@SAPEAU_iobuf@@AEBQEB_W0AEBH$$QEAPEAU1@@Z 000000018008a070 f i libucrtd:fopen.obj
 0001:000890c0       ?unlock@__crt_stdio_stream@@QEBAXXZ 000000018008a0c0 f i libucrtd:fopen.obj
 0001:000890e0       _fsopen                    000000018008a0e0 f   libucrtd:fopen.obj
 0001:00089110       _wfopen                    000000018008a110 f   libucrtd:fopen.obj
 0001:00089140       _wfopen_s                  000000018008a140 f   libucrtd:fopen.obj
 0001:00089170       _wfsopen                   000000018008a170 f   libucrtd:fopen.obj
 0001:000891a0       fopen                      000000018008a1a0 f   libucrtd:fopen.obj
 0001:000891d0       fopen_s                    000000018008a1d0 f   libucrtd:fopen.obj
 0001:00089200       ?is_in_use@__crt_stdio_stream@@QEBA_NXZ 000000018008a200 f i libucrtd:fclose.obj
 0001:00089240       _fclose_nolock             000000018008a240 f   libucrtd:fclose.obj
 0001:000893d0       fclose                     000000018008a3d0 f   libucrtd:fclose.obj
 0001:00089510       _fputc_nolock              000000018008a510 f   libucrtd:fputc.obj
 0001:000895c0       _fputchar                  000000018008a5c0 f   libucrtd:fputc.obj
 0001:000895f0       _putc_nolock               000000018008a5f0 f   libucrtd:fputc.obj
 0001:00089610       fputc                      000000018008a610 f   libucrtd:fputc.obj
 0001:000898b0       putc                       000000018008a8b0 f   libucrtd:fputc.obj
 0001:000898d0       putchar                    000000018008a8d0 f   libucrtd:fputc.obj
 0001:00089960       _seh_filter_dll            000000018008a960 f   libucrtd:exception_filter.obj
 0001:00089990       _seh_filter_exe            000000018008a990 f   libucrtd:exception_filter.obj
 0001:00089c30       ??$?B$$A6AXPEAXK0@Z@__crt_fast_encoded_nullptr_t@@QEBAP6AXPEAXK0@ZXZ 000000018008ac30 f i libucrtd:exit.obj
 0001:00089ce0       ??$__crt_fast_decode_pointer@P6AXPEAXK0@Z@@YAP6AXPEAXK0@ZQ6AX0K0@Z@Z 000000018008ace0 f i libucrtd:exit.obj
 0001:00089d20       ??$__crt_fast_encode_pointer@P6AXPEAXK0@Z@@YAP6AXPEAXK0@ZQ6AX0K0@Z@Z 000000018008ad20 f i libucrtd:exit.obj
 0001:00089d60       ??$__crt_get_proc_address@P6AXI@Z@@YAP6AXI@ZQEAUHINSTANCE__@@QEBD@Z 000000018008ad60 f i libucrtd:exit.obj
 0001:00089e20       ??0?$__crt_unique_handle_t@U__crt_hmodule_traits@@@@QEAA@QEAUHINSTANCE__@@@Z 000000018008ae20 f i libucrtd:exit.obj
 0001:00089e40       ??1?$__crt_unique_handle_t@U__crt_hmodule_traits@@@@QEAA@XZ 000000018008ae40 f i libucrtd:exit.obj
 0001:00089fa0       ?__acrt_select_exit_lock@@YA?AW4__acrt_lock_id@@XZ 000000018008afa0 f i libucrtd:exit.obj
 0001:00089fb0       ?__crt_fast_encode_pointer@@YA?AU__crt_fast_encoded_nullptr_t@@$$T@Z 000000018008afb0 f i libucrtd:exit.obj
 0001:00089ff0       ?close@?$__crt_unique_handle_t@U__crt_hmodule_traits@@@@QEAAXXZ 000000018008aff0 f i libucrtd:exit.obj
 0001:0008a030       ?close@__crt_hmodule_traits@@SA_NPEAUHINSTANCE__@@@Z 000000018008b030 f i libucrtd:exit.obj
 0001:0008a140       ?get@?$__crt_unique_handle_t@U__crt_hmodule_traits@@@@QEBAPEAUHINSTANCE__@@XZ 000000018008b140 f i libucrtd:exit.obj
 0001:0008a150       ?get_address_of@?$__crt_unique_handle_t@U__crt_hmodule_traits@@@@QEAAPEAPEAUHINSTANCE__@@XZ 000000018008b150 f i libucrtd:exit.obj
 0001:0008a160       ?get_invalid_value@__crt_hmodule_traits@@SAPEAUHINSTANCE__@@XZ 000000018008b160 f i libucrtd:exit.obj
 0001:0008a320       _Exit                      000000018008b320 f   libucrtd:exit.obj
 0001:0008a340       __acrt_initialize_thread_local_exit_callback 000000018008b340 f   libucrtd:exit.obj
 0001:0008a360       _c_exit                    000000018008b360 f   libucrtd:exit.obj
 0001:0008a380       _cexit                     000000018008b380 f   libucrtd:exit.obj
 0001:0008a3a0       _exit                      000000018008b3a0 f   libucrtd:exit.obj
 0001:0008a3c0       _is_c_termination_complete 000000018008b3c0 f   libucrtd:exit.obj
 0001:0008a3e0       _register_thread_local_exe_atexit_callback 000000018008b3e0 f   libucrtd:exit.obj
 0001:0008a430       exit                       000000018008b430 f   libucrtd:exit.obj
 0001:0008a450       quick_exit                 000000018008b450 f   libucrtd:exit.obj
 0001:0008a470       ??$?RE@__crt_internal_free_policy@@QEBAXQEBE@Z 000000018008b470 f i libucrtd:argv_parsing.obj
 0001:0008a4a0       ??$?RPEAD@__crt_internal_free_policy@@QEBAXQEBQEAD@Z 000000018008b4a0 f i libucrtd:argv_parsing.obj
 0001:0008a4d0       ??$?RPEA_W@__crt_internal_free_policy@@QEBAXQEBQEA_W@Z 000000018008b4d0 f i libucrtd:argv_parsing.obj
 0001:0008ac20       ??$get_module_file_name@$$TAEAY0BAF@DH@?$__crt_char_traits@D@@SAK$$QEA$$TAEAY0BAF@D$$QEAH@Z 000000018008bc20 f i libucrtd:argv_parsing.obj
 0001:0008ac60       ??$get_module_file_name@$$TAEAY0BAF@_WH@?$__crt_char_traits@_W@@SAK$$QEA$$TAEAY0BAF@_W$$QEAH@Z 000000018008bc60 f i libucrtd:argv_parsing.obj
 0001:0008b610       ??$set_program_name@PEAD@?$__crt_char_traits@D@@SAX$$QEAPEAD@Z 000000018008c610 f i libucrtd:argv_parsing.obj
 0001:0008b630       ??$set_program_name@PEA_W@?$__crt_char_traits@_W@@SAX$$QEAPEA_W@Z 000000018008c630 f i libucrtd:argv_parsing.obj
 0001:0008b690       ??0?$__crt_unique_heap_ptr@EU__crt_internal_free_policy@@@@QEAA@QEAE@Z 000000018008c690 f i libucrtd:argv_parsing.obj
 0001:0008b6b0       ??0?$__crt_unique_heap_ptr@PEADU__crt_internal_free_policy@@@@QEAA@QEAPEAD@Z 000000018008c6b0 f i libucrtd:argv_parsing.obj
 0001:0008b6d0       ??0?$__crt_unique_heap_ptr@PEA_WU__crt_internal_free_policy@@@@QEAA@QEAPEA_W@Z 000000018008c6d0 f i libucrtd:argv_parsing.obj
 0001:0008b6f0       ??1?$__crt_unique_heap_ptr@EU__crt_internal_free_policy@@@@QEAA@XZ 000000018008c6f0 f i libucrtd:argv_parsing.obj
 0001:0008b710       ??1?$__crt_unique_heap_ptr@PEADU__crt_internal_free_policy@@@@QEAA@XZ 000000018008c710 f i libucrtd:argv_parsing.obj
 0001:0008b730       ??1?$__crt_unique_heap_ptr@PEA_WU__crt_internal_free_policy@@@@QEAA@XZ 000000018008c730 f i libucrtd:argv_parsing.obj
 0001:0008b750       ??B?$__crt_unique_heap_ptr@EU__crt_internal_free_policy@@@@QEBA_NXZ 000000018008c750 f i libucrtd:argv_parsing.obj
 0001:0008b830       ?detach@?$__crt_unique_heap_ptr@EU__crt_internal_free_policy@@@@QEAAPEAEXZ 000000018008c830 f i libucrtd:argv_parsing.obj
 0001:0008b860       ?detach@?$__crt_unique_heap_ptr@PEADU__crt_internal_free_policy@@@@QEAAPEAPEADXZ 000000018008c860 f i libucrtd:argv_parsing.obj
 0001:0008b890       ?detach@?$__crt_unique_heap_ptr@PEA_WU__crt_internal_free_policy@@@@QEAAPEAPEA_WXZ 000000018008c890 f i libucrtd:argv_parsing.obj
 0001:0008b950       ?get@?$__crt_unique_heap_ptr@EU__crt_internal_free_policy@@@@QEBAPEAEXZ 000000018008c950 f i libucrtd:argv_parsing.obj
 0001:0008b960       ?get@?$__crt_unique_heap_ptr@PEADU__crt_internal_free_policy@@@@QEBAPEAPEADXZ 000000018008c960 f i libucrtd:argv_parsing.obj
 0001:0008b970       ?get@?$__crt_unique_heap_ptr@PEA_WU__crt_internal_free_policy@@@@QEBAPEAPEA_WXZ 000000018008c970 f i libucrtd:argv_parsing.obj
 0001:0008b980       ?get_address_of@?$__crt_unique_heap_ptr@PEADU__crt_internal_free_policy@@@@QEAAPEAPEAPEADXZ 000000018008c980 f i libucrtd:argv_parsing.obj
 0001:0008b990       ?get_address_of@?$__crt_unique_heap_ptr@PEA_WU__crt_internal_free_policy@@@@QEAAPEAPEAPEA_WXZ 000000018008c990 f i libucrtd:argv_parsing.obj
 0001:0008b9e0       ?is_valid@?$__crt_unique_heap_ptr@EU__crt_internal_free_policy@@@@QEBA_NXZ 000000018008c9e0 f i libucrtd:argv_parsing.obj
 0001:0008ba10       ?release@?$__crt_unique_heap_ptr@EU__crt_internal_free_policy@@@@QEAAXXZ 000000018008ca10 f i libucrtd:argv_parsing.obj
 0001:0008ba40       ?release@?$__crt_unique_heap_ptr@PEADU__crt_internal_free_policy@@@@QEAAXXZ 000000018008ca40 f i libucrtd:argv_parsing.obj
 0001:0008ba70       ?release@?$__crt_unique_heap_ptr@PEA_WU__crt_internal_free_policy@@@@QEAAXXZ 000000018008ca70 f i libucrtd:argv_parsing.obj
 0001:0008baf0       __acrt_allocate_buffer_for_argv 000000018008caf0 f   libucrtd:argv_parsing.obj
 0001:0008bc10       _configure_narrow_argv     000000018008cc10 f   libucrtd:argv_parsing.obj
 0001:0008bc30       _configure_wide_argv       000000018008cc30 f   libucrtd:argv_parsing.obj
 0001:0008bc50       _set_pgmptr                000000018008cc50 f i libucrtd:argv_parsing.obj
 0001:0008bc70       _set_wpgmptr               000000018008cc70 f i libucrtd:argv_parsing.obj
 0001:0008bc84       ??$?R_W@__crt_internal_free_policy@@QEBAXQEB_W@Z 000000018008cc84 f i libucrtd:environment_initialization.obj
 0001:0008c25c       ??$get_environment_from_os@$$V@?$__crt_char_traits@D@@SAPEADXZ 000000018008d25c f i libucrtd:environment_initialization.obj
 0001:0008c264       ??$get_environment_from_os@$$V@?$__crt_char_traits@_W@@SAPEA_WXZ 000000018008d264 f i libucrtd:environment_initialization.obj
 0001:0008c434       ??$set_variable_in_environment_nolock@PEADH@?$__crt_char_traits@D@@SAH$$QEAPEAD$$QEAH@Z 000000018008d434 f i libucrtd:environment_initialization.obj
 0001:0008c440       ??$set_variable_in_environment_nolock@PEA_WH@?$__crt_char_traits@_W@@SAH$$QEAPEA_W$$QEAH@Z 000000018008d440 f i libucrtd:environment_initialization.obj
 0001:0008c44c       ??$tcscpy_s@PEADAEB_KAEAPEAD@?$__crt_char_traits@D@@SAH$$QEAPEADAEB_KAEAPEAD@Z 000000018008d44c f i libucrtd:environment_initialization.obj
 0001:0008c45c       ??$tcscpy_s@PEA_WAEB_KAEAPEA_W@?$__crt_char_traits@_W@@SAH$$QEAPEA_WAEB_KAEAPEA_W@Z 000000018008d45c f i libucrtd:environment_initialization.obj
 0001:0008c46c       ??$tcslen@AEAPEAD@?$__crt_char_traits@D@@SA_KAEAPEAD@Z 000000018008d46c f i libucrtd:environment_initialization.obj
 0001:0008c480       ??$tcslen@AEAPEA_W@?$__crt_char_traits@_W@@SA_KAEAPEA_W@Z 000000018008d480 f i libucrtd:environment_initialization.obj
 0001:0008c494       ??$uninitialize@A6AXAEAPEAPEAD@Z@?$dual_state_global@PEAPEAD@__crt_state_management@@QEAAXA6AXAEAPEAPEAD@Z@Z 000000018008d494 f i libucrtd:environment_initialization.obj
 0001:0008c4d8       ??$uninitialize@A6AXAEAPEAPEA_W@Z@?$dual_state_global@PEAPEA_W@__crt_state_management@@QEAAXA6AXAEAPEAPEA_W@Z@Z 000000018008d4d8 f i libucrtd:environment_initialization.obj
 0001:0008c554       ??0?$__crt_unique_heap_ptr@_WU__crt_internal_free_policy@@@@QEAA@QEA_W@Z 000000018008d554 f i libucrtd:environment_initialization.obj
 0001:0008c55c       ??1?$__crt_unique_heap_ptr@_WU__crt_internal_free_policy@@@@QEAA@XZ 000000018008d55c f i libucrtd:environment_initialization.obj
 0001:0008c57c       ??B?$__crt_unique_heap_ptr@PEADU__crt_internal_free_policy@@@@QEBA_NXZ 000000018008d57c f i libucrtd:environment_initialization.obj
 0001:0008c584       ??B?$__crt_unique_heap_ptr@PEA_WU__crt_internal_free_policy@@@@QEBA_NXZ 000000018008d584 f i libucrtd:environment_initialization.obj
 0001:0008c58c       ??B?$__crt_unique_heap_ptr@_WU__crt_internal_free_policy@@@@QEBA_NXZ 000000018008d58c f i libucrtd:environment_initialization.obj
 0001:0008c594       ?__crt_compute_required_transform_buffer_count@@YA_KIQEBD@Z 000000018008d594 f i libucrtd:environment_initialization.obj
 0001:0008c5b8       ?__crt_compute_required_transform_buffer_count@@YA_KIQEB_W@Z 000000018008d5b8 f i libucrtd:environment_initialization.obj
 0001:0008c5e8       ?__crt_transform_string@@YA_KIQEBDQEA_W_K@Z 000000018008d5e8 f i libucrtd:environment_initialization.obj
 0001:0008c60c       ?__crt_transform_string@@YA_KIQEB_WQEAD_K@Z 000000018008d60c f i libucrtd:environment_initialization.obj
 0001:0008c63c       ?detach@?$__crt_unique_heap_ptr@DU__crt_internal_free_policy@@@@QEAAPEADXZ 000000018008d63c f i libucrtd:environment_initialization.obj
 0001:0008c644       ?detach@?$__crt_unique_heap_ptr@_WU__crt_internal_free_policy@@@@QEAAPEA_WXZ 000000018008d644 f i libucrtd:environment_initialization.obj
 0001:0008c64c       ?get@?$__crt_unique_heap_ptr@_WU__crt_internal_free_policy@@@@QEBAPEA_WXZ 000000018008d64c f i libucrtd:environment_initialization.obj
 0001:0008c680       ?initialize@?$dual_state_global@PEAPEAD@__crt_state_management@@QEAAXQEAPEAD@Z 000000018008d680 f i libucrtd:environment_initialization.obj
 0001:0008c6a8       ?initialize@?$dual_state_global@PEAPEA_W@__crt_state_management@@QEAAXQEAPEA_W@Z 000000018008d6a8 f i libucrtd:environment_initialization.obj
 0001:0008c6d0       ?is_valid@?$__crt_unique_heap_ptr@PEADU__crt_internal_free_policy@@@@QEBA_NXZ 000000018008d6d0 f i libucrtd:environment_initialization.obj
 0001:0008c6d8       ?is_valid@?$__crt_unique_heap_ptr@PEA_WU__crt_internal_free_policy@@@@QEBA_NXZ 000000018008d6d8 f i libucrtd:environment_initialization.obj
 0001:0008c6e0       ?is_valid@?$__crt_unique_heap_ptr@_WU__crt_internal_free_policy@@@@QEBA_NXZ 000000018008d6e0 f i libucrtd:environment_initialization.obj
 0001:0008c6f4       ?release@?$__crt_unique_heap_ptr@_WU__crt_internal_free_policy@@@@QEAAXXZ 000000018008d6f4 f i libucrtd:environment_initialization.obj
 0001:0008c714       ?value@?$dual_state_global@PEAPEAD@__crt_state_management@@QEAAAEAPEAPEADXZ 000000018008d714 f i libucrtd:environment_initialization.obj
 0001:0008c718       ?value@?$dual_state_global@PEAPEA_W@__crt_state_management@@QEAAAEAPEAPEA_WXZ 000000018008d718 f i libucrtd:environment_initialization.obj
 0001:0008c71c       __dcrt_get_or_create_narrow_environment_nolock 000000018008d71c f   libucrtd:environment_initialization.obj
 0001:0008c758       __dcrt_get_or_create_wide_environment_nolock 000000018008d758 f   libucrtd:environment_initialization.obj
 0001:0008c794       __dcrt_uninitialize_environments_nolock 000000018008d794 f   libucrtd:environment_initialization.obj
 0001:0008c7cc       __p__environ               000000018008d7cc f   libucrtd:environment_initialization.obj
 0001:0008c7d4       __p__wenviron              000000018008d7d4 f   libucrtd:environment_initialization.obj
 0001:0008c7dc       _get_initial_narrow_environment 000000018008d7dc f   libucrtd:environment_initialization.obj
 0001:0008c82c       _get_initial_wide_environment 000000018008d82c f   libucrtd:environment_initialization.obj
 0001:0008c87c       _initialize_narrow_environment 000000018008d87c f   libucrtd:environment_initialization.obj
 0001:0008c884       _initialize_wide_environment 000000018008d884 f   libucrtd:environment_initialization.obj
 0001:0008c890       ??$?B$$A6AXXZ@__crt_fast_encoded_nullptr_t@@QEBAP6AXXZXZ 000000018008d890 f i libucrtd:onexit.obj
 0001:0008c8b0       ??$?BP6AXXZ@__crt_fast_encoded_nullptr_t@@QEBAPEAP6AXXZXZ 000000018008d8b0 f i libucrtd:onexit.obj
 0001:0008c8d0       ??$?RP6AXXZ@__crt_internal_free_policy@@QEBAXQEBQ6AXXZ@Z 000000018008d8d0 f i libucrtd:onexit.obj
 0001:0008ca40       ??$__crt_fast_decode_pointer@P6AXXZ@@YAP6AXXZQ6AXXZ@Z 000000018008da40 f i libucrtd:onexit.obj
 0001:0008ca80       ??$__crt_fast_decode_pointer@PEAP6AXXZ@@YAPEAP6AXXZQEAP6AXXZ@Z 000000018008da80 f i libucrtd:onexit.obj
 0001:0008cac0       ??$__crt_fast_encode_pointer@P6AHXZ@@YAP6AHXZQ6AHXZ@Z 000000018008dac0 f i libucrtd:onexit.obj
 0001:0008cb00       ??$__crt_fast_encode_pointer@P6AXXZ@@YAP6AXXZQ6AXXZ@Z 000000018008db00 f i libucrtd:onexit.obj
 0001:0008cb40       ??$__crt_fast_encode_pointer@PEAP6AXXZ@@YAPEAP6AXXZQEAP6AXXZ@Z 000000018008db40 f i libucrtd:onexit.obj
 0001:0008cc50       ??0?$__crt_unique_heap_ptr@P6AXXZU__crt_internal_free_policy@@@@QEAA@QEAP6AXXZ@Z 000000018008dc50 f i libucrtd:onexit.obj
 0001:0008cc70       ??1?$__crt_unique_heap_ptr@P6AXXZU__crt_internal_free_policy@@@@QEAA@XZ 000000018008dc70 f i libucrtd:onexit.obj
 0001:0008cc90       ??1scoped_global_state_reset@__crt_state_management@@QEAA@XZ 000000018008dc90 f i libucrtd:onexit.obj
 0001:0008d260       ?detach@?$__crt_unique_heap_ptr@P6AXXZU__crt_internal_free_policy@@@@QEAAPEAP6AXXZXZ 000000018008e260 f i libucrtd:onexit.obj
 0001:0008d290       ?release@?$__crt_unique_heap_ptr@P6AXXZU__crt_internal_free_policy@@@@QEAAXXZ 000000018008e290 f i libucrtd:onexit.obj
 0001:0008d2c0       _crt_at_quick_exit         000000018008e2c0 f   libucrtd:onexit.obj
 0001:0008d2e0       _crt_atexit                000000018008e2e0 f   libucrtd:onexit.obj
 0001:0008d300       _execute_onexit_table      000000018008e300 f   libucrtd:onexit.obj
 0001:0008d340       _initialize_onexit_table   000000018008e340 f   libucrtd:onexit.obj
 0001:0008d3c0       _register_onexit_function  000000018008e3c0 f   libucrtd:onexit.obj
 0001:0008d630       ??$?BX@__crt_fast_encoded_nullptr_t@@QEBAPEAXXZ 000000018008e630 f i libucrtd:initialization.obj
 0001:0008d650       ??$__crt_fast_encode_pointer@PEAX@@YAPEAXQEAX@Z 000000018008e650 f i libucrtd:initialization.obj
 0001:0008d740       ?initialize@?$dual_state_global@PEAU__crt_locale_data@@@__crt_state_management@@QEAAXQEAU__crt_locale_data@@@Z 000000018008e740 f i libucrtd:initialization.obj
 0001:0008d790       __acrt_initialize          000000018008e790 f   libucrtd:initialization.obj
 0001:0008d7c0       __acrt_thread_attach       000000018008e7c0 f   libucrtd:initialization.obj
 0001:0008d7e0       __acrt_thread_detach       000000018008e7e0 f   libucrtd:initialization.obj
 0001:0008d7f0       __acrt_uninitialize        000000018008e7f0 f   libucrtd:initialization.obj
 0001:0008d820       __acrt_uninitialize_critical 000000018008e820 f   libucrtd:initialization.obj
 0001:0008f810       _CrtCheckMemory            0000000180090810 f   libucrtd:debug_heap.obj
 0001:0008f9a0       _CrtDoForAllClientObjects  00000001800909a0 f   libucrtd:debug_heap.obj
 0001:0008fad0       _CrtDumpMemoryLeaks        0000000180090ad0 f   libucrtd:debug_heap.obj
 0001:0008fb90       _CrtGetAllocHook           0000000180090b90 f   libucrtd:debug_heap.obj
 0001:0008fba0       _CrtGetDumpClient          0000000180090ba0 f   libucrtd:debug_heap.obj
 0001:0008fbb0       _CrtIsMemoryBlock          0000000180090bb0 f   libucrtd:debug_heap.obj
 0001:0008fcf0       _CrtIsValidHeapPointer     0000000180090cf0 f   libucrtd:debug_heap.obj
 0001:0008fd30       _CrtIsValidPointer         0000000180090d30 f   libucrtd:debug_heap.obj
 0001:0008fd70       _CrtMemCheckpoint          0000000180090d70 f   libucrtd:debug_heap.obj
 0001:0008fff0       _CrtMemDifference          0000000180090ff0 f   libucrtd:debug_heap.obj
 0001:00090350       _CrtMemDumpAllObjectsSince 0000000180091350 f   libucrtd:debug_heap.obj
 0001:000903b0       _CrtMemDumpStatistics      00000001800913b0 f   libucrtd:debug_heap.obj
 0001:00090550       _CrtReportBlockType        0000000180091550 f   libucrtd:debug_heap.obj
 0001:00090580       _CrtSetAllocHook           0000000180091580 f   libucrtd:debug_heap.obj
 0001:000905b0       _CrtSetBreakAlloc          00000001800915b0 f   libucrtd:debug_heap.obj
 0001:000905e0       _CrtSetDbgBlockType        00000001800915e0 f   libucrtd:debug_heap.obj
 0001:00090680       _CrtSetDbgFlag             0000000180091680 f   libucrtd:debug_heap.obj
 0001:000907e0       _CrtSetDumpClient          00000001800917e0 f   libucrtd:debug_heap.obj
 0001:00090810       __acrt_get_locale_data_prefix 0000000180091810 f i libucrtd:debug_heap.obj
 0001:00090830       __p__crtBreakAlloc         0000000180091830 f   libucrtd:debug_heap.obj
 0001:00090840       __p__crtDbgFlag            0000000180091840 f   libucrtd:debug_heap.obj
 0001:00090850       _aligned_free_dbg          0000000180091850 f   libucrtd:debug_heap.obj
 0001:00090940       _aligned_malloc_dbg        0000000180091940 f   libucrtd:debug_heap.obj
 0001:00090980       _aligned_msize_dbg         0000000180091980 f   libucrtd:debug_heap.obj
 0001:00090b50       _aligned_offset_malloc_dbg 0000000180091b50 f   libucrtd:debug_heap.obj
 0001:00090e40       _aligned_offset_realloc_dbg 0000000180091e40 f   libucrtd:debug_heap.obj
 0001:000912f0       _aligned_offset_recalloc_dbg 00000001800922f0 f   libucrtd:debug_heap.obj
 0001:00091410       _aligned_realloc_dbg       0000000180092410 f   libucrtd:debug_heap.obj
 0001:00091460       _aligned_recalloc_dbg      0000000180092460 f   libucrtd:debug_heap.obj
 0001:000914c0       _calloc_dbg                00000001800924c0 f   libucrtd:debug_heap.obj
 0001:00091560       _chvalidchk_l              0000000180092560 f i libucrtd:debug_heap.obj
 0001:00091590       _expand_dbg                0000000180092590 f   libucrtd:debug_heap.obj
 0001:000916c0       _free_dbg                  00000001800926c0 f   libucrtd:debug_heap.obj
 0001:00091730       _ischartype_l              0000000180092730 f i libucrtd:debug_heap.obj
 0001:000917c0       _malloc_dbg                00000001800927c0 f   libucrtd:debug_heap.obj
 0001:00091800       _msize_dbg                 0000000180092800 f   libucrtd:debug_heap.obj
 0001:000919a0       _realloc_dbg               00000001800929a0 f   libucrtd:debug_heap.obj
 0001:00091a10       _recalloc_dbg              0000000180092a10 f   libucrtd:debug_heap.obj
 0001:00091b10       _initterm                  0000000180092b10 f   libucrtd:initterm.obj
 0001:00091b70       _initterm_e                0000000180092b70 f   libucrtd:initterm.obj
 0001:000920c0       strcpy_s                   00000001800930c0 f   libucrtd:strcpy_s.obj
 0001:00092760       strcat_s                   0000000180093760 f   libucrtd:strcat_s.obj
 0001:00092790       ??$?B$$A6AH_K@Z@__crt_fast_encoded_nullptr_t@@QEBAP6AH_K@ZXZ 0000000180093790 f i libucrtd:new_handler.obj
 0001:000927b0       ??$__crt_fast_decode_pointer@P6AH_K@Z@@YAP6AH_K@ZQ6AH0@Z@Z 00000001800937b0 f i libucrtd:new_handler.obj
 0001:000927f0       ??$__crt_fast_encode_pointer@P6AH_K@Z@@YAP6AH_K@ZQ6AH0@Z@Z 00000001800937f0 f i libucrtd:new_handler.obj
 0001:00092830       ?_set_new_handler@@YAP6AH_K@ZH@Z 0000000180093830 f   libucrtd:new_handler.obj
 0001:000928a0       ?initialize@?$dual_state_global@P6AH_K@Z@__crt_state_management@@QEAAXQ6AH_K@Z@Z 00000001800938a0 f i libucrtd:new_handler.obj
 0001:000928f0       ?value@?$dual_state_global@P6AH_K@Z@__crt_state_management@@QEAAAEAP6AH_K@ZXZ 00000001800938f0 f i libucrtd:new_handler.obj
 0001:00092910       __acrt_initialize_new_handler 0000000180093910 f   libucrtd:new_handler.obj
 0001:00092930       _callnewh                  0000000180093930 f   libucrtd:new_handler.obj
 0001:00092980       _query_new_handler         0000000180093980 f   libucrtd:new_handler.obj
 0001:000929c0       _set_new_handler           00000001800939c0 f   libucrtd:new_handler.obj
 0001:00092a70       _get_terminate             0000000180093a70 f   libucrtd:terminate.obj
 0001:00092a90       set_terminate              0000000180093a90 f   libucrtd:terminate.obj
 0001:00092ad0       terminate                  0000000180093ad0 f   libucrtd:terminate.obj
 0001:000938d0       _makepath                  00000001800948d0 f   libucrtd:makepath.obj
 0001:00093920       _makepath_s                0000000180094920 f   libucrtd:makepath.obj
 0001:00093970       _wmakepath                 0000000180094970 f   libucrtd:makepath.obj
 0001:000939c0       _wmakepath_s               00000001800949c0 f   libucrtd:makepath.obj
 0001:00095ff0       ??$tcsncpy_s@AEAPEAD_KAEAPEBDAEB_K@?$__crt_char_traits@D@@SAHAEAPEAD$$QEA_KAEAPEBDAEB_K@Z 0000000180096ff0 f i libucrtd:splitpath.obj
 0001:00096040       ??$tcsncpy_s@AEAPEAD_KAEAPEBDH@?$__crt_char_traits@D@@SAHAEAPEAD$$QEA_KAEAPEBD$$QEAH@Z 0000000180097040 f i libucrtd:splitpath.obj
 0001:00096090       ??$tcsncpy_s@AEAPEA_W_KAEAPEB_WAEB_K@?$__crt_char_traits@_W@@SAHAEAPEA_W$$QEA_KAEAPEB_WAEB_K@Z 0000000180097090 f i libucrtd:splitpath.obj
 0001:000960e0       ??$tcsncpy_s@AEAPEA_W_KAEAPEB_WH@?$__crt_char_traits@_W@@SAHAEAPEA_W$$QEA_KAEAPEB_W$$QEAH@Z 00000001800970e0 f i libucrtd:splitpath.obj
 0001:00096390       _splitpath                 0000000180097390 f   libucrtd:splitpath.obj
 0001:000963d0       _splitpath_s               00000001800973d0 f   libucrtd:splitpath.obj
 0001:00096470       _wsplitpath                0000000180097470 f   libucrtd:splitpath.obj
 0001:000964b0       _wsplitpath_s              00000001800974b0 f   libucrtd:splitpath.obj
 0001:00096550       _set_abort_behavior        0000000180097550 f   libucrtd:abort.obj
 0001:00096590       abort                      0000000180097590 f   libucrtd:abort.obj
 0001:00096620       strcmp                     0000000180097620 f   libucrtd:strcmp.obj
 0001:000966a0       strlen                     00000001800976a0 f   libucrtd:strlen.obj
 0001:00096750       ??$is_overflow_condition@K@__crt_strtox@@YA_NIK@Z 0000000180097750 f i libucrtd:atox.obj
 0001:000967c0       ??$is_overflow_condition@_K@__crt_strtox@@YA_NI_K@Z 00000001800977c0 f i libucrtd:atox.obj
 0001:00096830       ??$make_c_string_character_source@D$$T@__crt_strtox@@YA?AV?$c_string_character_source@D@0@QEBD$$T@Z 0000000180097830 f i libucrtd:atox.obj
 0001:00096870       ??$make_c_string_character_source@_W$$T@__crt_strtox@@YA?AV?$c_string_character_source@_W@0@QEB_W$$T@Z 0000000180097870 f i libucrtd:atox.obj
 0001:000968b0       ??$parse_integer@KV?$c_string_character_source@D@__crt_strtox@@@__crt_strtox@@YAKQEAU__crt_locale_pointers@@V?$c_string_character_source@D@0@H_N@Z 00000001800978b0 f i libucrtd:atox.obj
 0001:00096d40       ??$parse_integer@KV?$c_string_character_source@_W@__crt_strtox@@@__crt_strtox@@YAKQEAU__crt_locale_pointers@@V?$c_string_character_source@_W@0@H_N@Z 0000000180097d40 f i libucrtd:atox.obj
 0001:000971f0       ??$parse_integer@_KV?$c_string_character_source@D@__crt_strtox@@@__crt_strtox@@YA_KQEAU__crt_locale_pointers@@V?$c_string_character_source@D@0@H_N@Z 00000001800981f0 f i libucrtd:atox.obj
 0001:00097710       ??$parse_integer@_KV?$c_string_character_source@_W@__crt_strtox@@@__crt_strtox@@YA_KQEAU__crt_locale_pointers@@V?$c_string_character_source@_W@0@H_N@Z 0000000180098710 f i libucrtd:atox.obj
 0001:00097c30       ??$parse_integer_from_string@JD$$T@__crt_strtox@@YAJQEBD$$THQEAU__crt_locale_pointers@@@Z 0000000180098c30 f i libucrtd:atox.obj
 0001:00097c80       ??$parse_integer_from_string@J_W$$T@__crt_strtox@@YAJQEB_W$$THQEAU__crt_locale_pointers@@@Z 0000000180098c80 f i libucrtd:atox.obj
 0001:00097cd0       ??$parse_integer_from_string@_JD$$T@__crt_strtox@@YA_JQEBD$$THQEAU__crt_locale_pointers@@@Z 0000000180098cd0 f i libucrtd:atox.obj
 0001:00097d20       ??$parse_integer_from_string@_J_W$$T@__crt_strtox@@YA_JQEB_W$$THQEAU__crt_locale_pointers@@@Z 0000000180098d20 f i libucrtd:atox.obj
 0001:00097d70       ??0?$c_string_character_source@D@__crt_strtox@@QEAA@QEBDQEAPEBD@Z 0000000180098d70 f i libucrtd:atox.obj
 0001:00097dc0       ??0?$c_string_character_source@_W@__crt_strtox@@QEAA@QEB_WQEAPEB_W@Z 0000000180098dc0 f i libucrtd:atox.obj
 0001:00097e10       ??1?$c_string_character_source@D@__crt_strtox@@QEAA@XZ 0000000180098e10 f i libucrtd:atox.obj
 0001:00097e40       ??1?$c_string_character_source@_W@__crt_strtox@@QEAA@XZ 0000000180098e40 f i libucrtd:atox.obj
 0001:00097e70       ?get@?$c_string_character_source@D@__crt_strtox@@QEAADXZ 0000000180098e70 f i libucrtd:atox.obj
 0001:00097eb0       ?get@?$c_string_character_source@_W@__crt_strtox@@QEAA_WXZ 0000000180098eb0 f i libucrtd:atox.obj
 0001:00097ef0       ?is_space@__crt_strtox@@YA_NDQEAU__crt_locale_pointers@@@Z 0000000180098ef0 f i libucrtd:atox.obj
 0001:00097f40       ?is_space@__crt_strtox@@YA_N_WPEAU__crt_locale_pointers@@@Z 0000000180098f40 f i libucrtd:atox.obj
 0001:00097f80       ?maximum_signed_value@__crt_strtox@@YAJK@Z 0000000180098f80 f i libucrtd:atox.obj
 0001:00097f90       ?maximum_signed_value@__crt_strtox@@YA_J_K@Z 0000000180098f90 f i libucrtd:atox.obj
 0001:00097fa0       ?minimum_signed_value@__crt_strtox@@YAJK@Z 0000000180098fa0 f i libucrtd:atox.obj
 0001:00097fb0       ?minimum_signed_value@__crt_strtox@@YA_J_K@Z 0000000180098fb0 f i libucrtd:atox.obj
 0001:00097fc0       ?parse_digit@__crt_strtox@@YAID@Z 0000000180098fc0 f i libucrtd:atox.obj
 0001:00098030       ?parse_digit@__crt_strtox@@YAI_W@Z 0000000180099030 f i libucrtd:atox.obj
 0001:00098080       ?restore_state@?$c_string_character_source@D@__crt_strtox@@QEAA_NQEBD@Z 0000000180099080 f i libucrtd:atox.obj
 0001:000980a0       ?restore_state@?$c_string_character_source@_W@__crt_strtox@@QEAA_NQEB_W@Z 00000001800990a0 f i libucrtd:atox.obj
 0001:000980c0       ?save_state@?$c_string_character_source@D@__crt_strtox@@QEBAPEBDXZ 00000001800990c0 f i libucrtd:atox.obj
 0001:000980d0       ?save_state@?$c_string_character_source@_W@__crt_strtox@@QEBAPEB_WXZ 00000001800990d0 f i libucrtd:atox.obj
 0001:000980e0       ?unget@?$c_string_character_source@D@__crt_strtox@@QEAAXD@Z 00000001800990e0 f i libucrtd:atox.obj
 0001:000981c0       ?unget@?$c_string_character_source@_W@__crt_strtox@@QEAAX_W@Z 00000001800991c0 f i libucrtd:atox.obj
 0001:000982a0       ?validate@?$c_string_character_source@D@__crt_strtox@@QEBA_NXZ 00000001800992a0 f i libucrtd:atox.obj
 0001:00098360       ?validate@?$c_string_character_source@_W@__crt_strtox@@QEBA_NXZ 0000000180099360 f i libucrtd:atox.obj
 0001:00098420       ?wide_character_to_digit@__crt_strtox@@YAH_W@Z 0000000180099420 f i libucrtd:atox.obj
 0001:00098790       __ascii_iswalpha           0000000180099790 f i libucrtd:atox.obj
 0001:000987d0       __ascii_toupper            00000001800997d0 f i libucrtd:atox.obj
 0001:000987f0       __ascii_towupper           00000001800997f0 f i libucrtd:atox.obj
 0001:00098810       _atoi64                    0000000180099810 f   libucrtd:atox.obj
 0001:00098840       _atoi64_l                  0000000180099840 f   libucrtd:atox.obj
 0001:00098870       _atoi_l                    0000000180099870 f   libucrtd:atox.obj
 0001:000988a0       _atol_l                    00000001800998a0 f   libucrtd:atox.obj
 0001:000988d0       _atoll_l                   00000001800998d0 f   libucrtd:atox.obj
 0001:00098900       _wtoi                      0000000180099900 f   libucrtd:atox.obj
 0001:00098930       _wtoi64                    0000000180099930 f   libucrtd:atox.obj
 0001:00098960       _wtoi64_l                  0000000180099960 f   libucrtd:atox.obj
 0001:00098990       _wtoi_l                    0000000180099990 f   libucrtd:atox.obj
 0001:000989c0       _wtol                      00000001800999c0 f   libucrtd:atox.obj
 0001:000989f0       _wtol_l                    00000001800999f0 f   libucrtd:atox.obj
 0001:00098a20       _wtoll                     0000000180099a20 f   libucrtd:atox.obj
 0001:00098a50       _wtoll_l                   0000000180099a50 f   libucrtd:atox.obj
 0001:00098a80       atoi                       0000000180099a80 f   libucrtd:atox.obj
 0001:00098ab0       atol                       0000000180099ab0 f   libucrtd:atox.obj
 0001:00098ae0       atoll                      0000000180099ae0 f   libucrtd:atox.obj
 0001:00098b20       strncmp                    0000000180099b20 f   libucrtd:strncmp.obj
 0001:00098ba0       wcsncmp                    0000000180099ba0 f   libucrtd:wcsncmp.obj
 0001:00098c30       _CrtGetDebugFillThreshold  0000000180099c30 f   libucrtd:debug_fill_threshold.obj
 0001:00098c40       _CrtSetDebugFillThreshold  0000000180099c40 f   libucrtd:debug_fill_threshold.obj
 0001:00098c70       ??$make_c_string_character_source@DPEAPEAD@__crt_strtox@@YA?AV?$c_string_character_source@D@0@QEBDQEAPEAD@Z 0000000180099c70 f i libucrtd:strtox.obj
 0001:00098cb0       ??$make_c_string_character_source@_WPEAPEA_W@__crt_strtox@@YA?AV?$c_string_character_source@_W@0@QEB_WQEAPEA_W@Z 0000000180099cb0 f i libucrtd:strtox.obj
 0001:00098cf0       ??$parse_integer_from_string@JDPEAPEAD@__crt_strtox@@YAJQEBDQEAPEADHQEAU__crt_locale_pointers@@@Z 0000000180099cf0 f i libucrtd:strtox.obj
 0001:00098d40       ??$parse_integer_from_string@J_WPEAPEA_W@__crt_strtox@@YAJQEB_WQEAPEA_WHQEAU__crt_locale_pointers@@@Z 0000000180099d40 f i libucrtd:strtox.obj
 0001:00098d90       ??$parse_integer_from_string@KDPEAPEAD@__crt_strtox@@YAKQEBDQEAPEADHQEAU__crt_locale_pointers@@@Z 0000000180099d90 f i libucrtd:strtox.obj
 0001:00098de0       ??$parse_integer_from_string@K_WPEAPEA_W@__crt_strtox@@YAKQEB_WQEAPEA_WHQEAU__crt_locale_pointers@@@Z 0000000180099de0 f i libucrtd:strtox.obj
 0001:00098e30       ??$parse_integer_from_string@_JDPEAPEAD@__crt_strtox@@YA_JQEBDQEAPEADHQEAU__crt_locale_pointers@@@Z 0000000180099e30 f i libucrtd:strtox.obj
 0001:00098e80       ??$parse_integer_from_string@_J_WPEAPEA_W@__crt_strtox@@YA_JQEB_WQEAPEA_WHQEAU__crt_locale_pointers@@@Z 0000000180099e80 f i libucrtd:strtox.obj
 0001:00098ed0       ??$parse_integer_from_string@_KDPEAPEAD@__crt_strtox@@YA_KQEBDQEAPEADHQEAU__crt_locale_pointers@@@Z 0000000180099ed0 f i libucrtd:strtox.obj
 0001:00098f20       ??$parse_integer_from_string@_K_WPEAPEA_W@__crt_strtox@@YA_KQEB_WQEAPEA_WHQEAU__crt_locale_pointers@@@Z 0000000180099f20 f i libucrtd:strtox.obj
 0001:00098f70       _strtoi64                  0000000180099f70 f   libucrtd:strtox.obj
 0001:00098fa0       _strtoi64_l                0000000180099fa0 f   libucrtd:strtox.obj
 0001:00098fe0       _strtoimax_l               0000000180099fe0 f   libucrtd:strtox.obj
 0001:00099020       _strtol_l                  000000018009a020 f   libucrtd:strtox.obj
 0001:00099060       _strtoll_l                 000000018009a060 f   libucrtd:strtox.obj
 0001:000990a0       _strtoui64                 000000018009a0a0 f   libucrtd:strtox.obj
 0001:000990d0       _strtoui64_l               000000018009a0d0 f   libucrtd:strtox.obj
 0001:00099110       _strtoul_l                 000000018009a110 f   libucrtd:strtox.obj
 0001:00099150       _strtoull_l                000000018009a150 f   libucrtd:strtox.obj
 0001:00099190       _strtoumax_l               000000018009a190 f   libucrtd:strtox.obj
 0001:000991d0       _wcstoi64                  000000018009a1d0 f   libucrtd:strtox.obj
 0001:00099200       _wcstoi64_l                000000018009a200 f   libucrtd:strtox.obj
 0001:00099240       _wcstoimax_l               000000018009a240 f   libucrtd:strtox.obj
 0001:00099280       _wcstol_l                  000000018009a280 f   libucrtd:strtox.obj
 0001:000992c0       _wcstoll_l                 000000018009a2c0 f   libucrtd:strtox.obj
 0001:00099300       _wcstoui64                 000000018009a300 f   libucrtd:strtox.obj
 0001:00099330       _wcstoui64_l               000000018009a330 f   libucrtd:strtox.obj
 0001:00099370       _wcstoul_l                 000000018009a370 f   libucrtd:strtox.obj
 0001:000993b0       _wcstoull_l                000000018009a3b0 f   libucrtd:strtox.obj
 0001:000993f0       _wcstoumax_l               000000018009a3f0 f   libucrtd:strtox.obj
 0001:00099430       strtoimax                  000000018009a430 f   libucrtd:strtox.obj
 0001:00099460       strtol                     000000018009a460 f   libucrtd:strtox.obj
 0001:00099490       strtoll                    000000018009a490 f   libucrtd:strtox.obj
 0001:000994c0       strtoul                    000000018009a4c0 f   libucrtd:strtox.obj
 0001:000994f0       strtoull                   000000018009a4f0 f   libucrtd:strtox.obj
 0001:00099520       strtoumax                  000000018009a520 f   libucrtd:strtox.obj
 0001:00099550       wcstoimax                  000000018009a550 f   libucrtd:strtox.obj
 0001:00099580       wcstol                     000000018009a580 f   libucrtd:strtox.obj
