 OPOSSpeechSynthesis

 Timestamp is 600f7bf4 (Tue Jan 26 11:18:28 2021)

 Preferred load address is 0000000180000000

 Start         Length     Name                   Class
 0001:00000000 00001400H .text$di                CODE
 0001:00001400 000d5400H .text$mn                CODE
 0001:000d6800 00000040H .text$mn$00             CODE
 0001:000d6840 00001390H .text$x                 CODE
 0001:000d7bd0 000001b4H .text$yd                CODE
 0002:00000000 000006d8H .idata$5                DATA
 0002:000006d8 00000028H .00cfg                  DATA
 0002:00000700 00000008H .CRT$XCA                DATA
 0002:00000708 00000008H .CRT$XCL                DATA
 0002:00000710 000000d8H .CRT$XCU                DATA
 0002:000007e8 00000008H .CRT$XCZ                DATA
 0002:000007f0 00000008H .CRT$XIA                DATA
 0002:000007f8 00000028H .CRT$XIC                DATA
 0002:00000820 00000008H .CRT$XIZ                DATA
 0002:00000828 00000008H .CRT$XLA                DATA
 0002:00000830 00000008H .CRT$XLZ                DATA
 0002:00000838 00000008H .CRT$XPA                DATA
 0002:00000840 00000010H .CRT$XPX                DATA
 0002:00000850 00000008H .CRT$XPXA               DATA
 0002:00000858 00000008H .CRT$XPZ                DATA
 0002:00000860 00000008H .CRT$XTA                DATA
 0002:00000868 00000008H .CRT$XTZ                DATA
 0002:00000870 00000000H .gehcont$y              DATA
 0002:00000870 00000000H .gfids$y                DATA
 0002:00000870 0003bc10H .rdata                  DATA
 0002:0003c480 00000008H .rdata$CastGuardVftablesA DATA
 0002:0003c488 00000008H .rdata$CastGuardVftablesC DATA
 0002:0003c490 00000028H .rdata$T                DATA
 0002:0003c4b8 0000056cH .rdata$r                DATA
 0002:0003ca24 0000047cH .rdata$zzzdbg           DATA
 0002:0003cea0 00000008H .rtc$IAA                DATA
 0002:0003cea8 00000030H .rtc$IMZ                DATA
 0002:0003ced8 00000008H .rtc$IZZ                DATA
 0002:0003cee0 00000008H .rtc$TAA                DATA
 0002:0003cee8 00000030H .rtc$TMZ                DATA
 0002:0003cf18 00000008H .rtc$TZZ                DATA
 0002:0003cf20 00000004H .tls                    DATA
 0002:0003cf24 00000004H .tls$                   DATA
 0002:0003cf28 00000008H .tls$ZZZ                DATA
 0002:0003cf30 00009828H .xdata                  DATA
 0002:00046758 00000150H .xdata$x                DATA
 0002:000468a8 00000008H ATL$__a                 DATA
 0002:000468b0 00000010H ATL$__z                 DATA
 0002:000468c0 000000b0H .edata                  DATA
 0002:00046970 00000078H .idata$2                DATA
 0002:000469e8 00000018H .idata$3                DATA
 0002:00046a00 000006d8H .idata$4                DATA
 0002:000470d8 00000dbeH .idata$6                DATA
 0003:00000000 00000eb8H .data                   DATA
 0003:00000eb8 00000198H .data$r                 DATA
 0003:00001050 00003e9cH .bss                    DATA
 0004:00000000 0000c1e0H .pdata                  DATA
 0005:00000000 00000094H _RDATA                  DATA
 0006:00000000 00000220H .rsrc$01                DATA
 0006:00000220 00003e38H .rsrc$02                DATA

  Address         Publics by Value              Rva+Base               Lib:Object

 0000:00000000       __guard_fids_table         0000000000000000     <absolute>
 0000:00000000       __arm64x_redirection_metadata 0000000000000000     <absolute>
 0000:00000000       __arm64x_redirection_metadata_count 0000000000000000     <absolute>
 0000:00000000       __enclave_config           0000000000000000     <absolute>
 0000:00000000       __guard_iat_count          0000000000000000     <absolute>
 0000:00000000       ___safe_se_handler_table   0000000000000000     <absolute>
 0000:00000000       __hybrid_code_map_count    0000000000000000     <absolute>
 0000:00000000       __arm64x_native_entrypoint 0000000000000000     <absolute>
 0000:00000000       __guard_iat_table          0000000000000000     <absolute>
 0000:00000000       __volatile_metadata        0000000000000000     <absolute>
 0000:00000000       __hybrid_code_map          0000000000000000     <absolute>
 0000:00000000       __arm64x_extra_rfe_table   0000000000000000     <absolute>
 0000:00000000       __hybrid_auxiliary_iat     0000000000000000     <absolute>
 0000:00000000       __guard_eh_cont_count      0000000000000000     <absolute>
 0000:00000000       __x64_code_ranges_to_entry_points 0000000000000000     <absolute>
 0000:00000000       __guard_eh_cont_table      0000000000000000     <absolute>
 0000:00000000       __AbsoluteZero             0000000000000000     <absolute>
 0000:00000000       __guard_longjmp_table      0000000000000000     <absolute>
 0000:00000000       ___safe_se_handler_count   0000000000000000     <absolute>
 0000:00000000       __x64_code_ranges_to_entry_points_count 0000000000000000     <absolute>
 0000:00000000       __guard_fids_count         0000000000000000     <absolute>
 0000:00000000       __dynamic_value_reloc_table 0000000000000000     <absolute>
 0000:00000000       __guard_longjmp_count      0000000000000000     <absolute>
 0000:00000000       __arm64x_extra_rfe_table_size 0000000000000000     <absolute>
 0000:00000100       __guard_flags              0000000000000100     <absolute>
 0000:00000000       __ImageBase                0000000180000000     <linker-defined>
 0001:00001400       ?_assert@@YAXPEB_W0I@Z     0000000180002400 f   Assert.obj
 0001:00001500       __local_stdio_printf_options 0000000180002500 f i Assert.obj
 0001:00001510       __vswprintf_l              0000000180002510 f i Assert.obj
 0001:00001570       _swprintf                  0000000180002570 f i Assert.obj
 0001:000015f0       _vswprintf_c_l             00000001800025f0 f i Assert.obj
 0001:00001680       _vswprintf_l               0000000180002680 f i Assert.obj
 0001:000016e0       ?cw_memcpy@@YAHPEADPEB_WH@Z 00000001800026e0 f   CWString.obj
 0001:00001770       ?cw_memcpy@@YAHPEA_WPEBDH@Z 0000000180002770 f   CWString.obj
 0001:000017f0       ?cw_memcpy@@YAHPEADPEBDH@Z 00000001800027f0 f   CWString.obj
 0001:00001890       ?cw_memcpy@@YAHPEA_WPEB_WH@Z 0000000180002890 f   CWString.obj
 0001:00001900       ?cw_memset@@YAXPEADDH@Z    0000000180002900 f   CWString.obj
 0001:00001970       ?cw_memset@@YAXPEA_W_WH@Z  0000000180002970 f   CWString.obj
 0001:00001a10       ?cw_strlen@@YAHPEBD@Z      0000000180002a10 f   CWString.obj
 0001:00001a80       ?cw_strlen@@YAHPEB_W@Z     0000000180002a80 f   CWString.obj
 0001:00001af0       ?cw_strcpy@@YAHPEADPEB_W@Z 0000000180002af0 f   CWString.obj
 0001:00001b40       ?cw_strcpy@@YAHPEA_WPEBD@Z 0000000180002b40 f   CWString.obj
 0001:00001b90       ?cw_strcpy@@YAHPEADPEBD@Z  0000000180002b90 f   CWString.obj
 0001:00001be0       ?cw_strcpy@@YAHPEA_WPEB_W@Z 0000000180002be0 f   CWString.obj
 0001:00001c30       ?cw_strcat@@YAHPEADPEB_W@Z 0000000180002c30 f   CWString.obj
 0001:00001c90       ?cw_strcat@@YAHPEA_WPEBD@Z 0000000180002c90 f   CWString.obj
 0001:00001cf0       ?cw_strcat@@YAHPEADPEBD@Z  0000000180002cf0 f   CWString.obj
 0001:00001d50       ?cw_strcat@@YAHPEA_WPEB_W@Z 0000000180002d50 f   CWString.obj
 0001:00001db0       ?cw_dup@@YAXPEBDAEAHAEAPEA_W1@Z 0000000180002db0 f   CWString.obj
 0001:00001ec0       ?cw_dup@@YAXPEB_WAEAHAEAPEAD1@Z 0000000180002ec0 f   CWString.obj
 0001:00001fb0       ?DupChar@_CW@@AEAAXXZ      0000000180002fb0 f   CWString.obj
 0001:00002010       ?DupWide@_CW@@AEAAXXZ      0000000180003010 f   CWString.obj
 0001:00002080       ?GetCharsMbcs@_CW@@QEAAHXZ 0000000180003080 f   CWString.obj
 0001:000020f0       ?GetCharsWide@_CW@@QEAAHXZ 00000001800030f0 f   CWString.obj
 0001:00002160       ?SetVARIANT_BOOL@OposVariant@@QEAAXF@Z 0000000180003160 f   OposVariant.obj
 0001:000021d0       ?SetVARIANT_BOOL_Ptr@OposVariant@@QEAAXPEAFAEAJ@Z 00000001800031d0 f   OposVariant.obj
 0001:00002240       ?GetLONG@OposVariant@@QEAAJXZ 0000000180003240 f   OposVariant.obj
 0001:000022a0       ?ChangeLONG@OposVariant@@QEAAXPEAJAEAJ@Z 00000001800032a0 f   OposVariant.obj
 0001:00002350       ?SetLONG@OposVariant@@QEAAXJ@Z 0000000180003350 f   OposVariant.obj
 0001:000023b0       ?SetLONG_Ptr@OposVariant@@QEAAXPEAJAEAJ@Z 00000001800033b0 f   OposVariant.obj
 0001:00002420       ?ChangeCURRENCY@OposVariant@@QEAAXPEATtagCY@@AEAJ@Z 0000000180003420 f   OposVariant.obj
 0001:000024d0       ?SetCURRENCY@OposVariant@@QEAAXTtagCY@@@Z 00000001800034d0 f   OposVariant.obj
 0001:00002530       ?SetCURRENCY_Ptr@OposVariant@@QEAAXPEATtagCY@@AEAJ@Z 0000000180003530 f   OposVariant.obj
 0001:000025a0       ?ChangeBSTR@OposVariant@@QEAAXPEAPEA_WAEAJ@Z 00000001800035a0 f   OposVariant.obj
 0001:00002650       ?SetBSTR@OposVariant@@QEAAXPEA_WAEAJ@Z 0000000180003650 f   OposVariant.obj
 0001:000026d0       ?SetBSTR_Copy@OposVariant@@QEAAXPEA_WAEAJ@Z 00000001800036d0 f   OposVariant.obj
 0001:00002780       ?SetBSTR_OutPtr@OposVariant@@QEAA_NPEAPEA_WAEAJ@Z 0000000180003780 f   OposVariant.obj
 0001:000027f0       ?SetBSTR_InOutPtr@OposVariant@@QEAA_NPEAPEA_WAEAJ@Z 00000001800037f0 f   OposVariant.obj
 0001:00002870       ?SetVARIANT@OposVariant@@QEAAXAEAUtagVARIANT@@GAEAJ@Z 0000000180003870 f   OposVariant.obj
 0001:00002910       ?SetVARIANT_Ptr@OposVariant@@QEAAXAEAPEAUtagVARIANT@@GAEAJ@Z 0000000180003910 f   OposVariant.obj
 0001:000029c0       ?SetString@OposVariant@@QEAAXPEB_WAEAJ@Z 00000001800039c0 f   OposVariant.obj
 0001:00002a70       ?SetDispatch_Ptr@OposVariant@@QEAAXPEAUIDispatch@@AEAJ@Z 0000000180003a70 f   OposVariant.obj
 0001:00002b00       ??0OposDispParms@@QEAA@PEAVOposVariant@@H@Z 0000000180003b00 f   OposVariant.obj
 0001:00002c10       ??1OposDispParms@@QEAA@XZ  0000000180003c10 f   OposVariant.obj
 0001:00002c60       ??$AtlMultiply@_K@ATL@@YAJPEA_K_K1@Z 0000000180003c60 f i OposVariant.obj
 0001:00002ce0       ??0?$CHeapPtr@_WVCCRTAllocator@ATL@@@ATL@@QEAA@XZ 0000000180003ce0 f i OposVariant.obj
 0001:00002d20       ??0?$CHeapPtrBase@_WVCCRTAllocator@ATL@@@ATL@@IEAA@XZ 0000000180003d20 f i OposVariant.obj
 0001:00002d40       ??0?$CSimpleArray@GV?$CSimpleArrayEqualHelper@G@ATL@@@ATL@@QEAA@XZ 0000000180003d40 f i OposVariant.obj
 0001:00002d80       ??0?$CTraceCategoryEx@$00$0A@@ATL@@QEAA@PEB_W@Z 0000000180003d80 f i OposVariant.obj
 0001:00002dc0       ??0?$CTraceCategoryEx@$01$0A@@ATL@@QEAA@PEB_W@Z 0000000180003dc0 f i OposVariant.obj
 0001:00002e00       ??0?$CTraceCategoryEx@$03$0A@@ATL@@QEAA@PEB_W@Z 0000000180003e00 f i OposVariant.obj
 0001:00002e40       ??0?$CTraceCategoryEx@$07$0A@@ATL@@QEAA@PEB_W@Z 0000000180003e40 f i OposVariant.obj
 0001:00002e80       ??0?$CTraceCategoryEx@$0BA@$0A@@ATL@@QEAA@PEB_W@Z 0000000180003e80 f i OposVariant.obj
 0001:00002ec0       ??0?$CTraceCategoryEx@$0BAA@$0A@@ATL@@QEAA@PEB_W@Z 0000000180003ec0 f i OposVariant.obj
 0001:00002f00       ??0?$CTraceCategoryEx@$0BAAA@$0A@@ATL@@QEAA@PEB_W@Z 0000000180003f00 f i OposVariant.obj
 0001:00002f40       ??0?$CTraceCategoryEx@$0BAAAA@$0A@@ATL@@QEAA@PEB_W@Z 0000000180003f40 f i OposVariant.obj
 0001:00002f80       ??0?$CTraceCategoryEx@$0BAAAAA@$0A@@ATL@@QEAA@PEB_W@Z 0000000180003f80 f i OposVariant.obj
 0001:00002fc0       ??0?$CTraceCategoryEx@$0CA@$0A@@ATL@@QEAA@PEB_W@Z 0000000180003fc0 f i OposVariant.obj
 0001:00003000       ??0?$CTraceCategoryEx@$0CAA@$0A@@ATL@@QEAA@PEB_W@Z 0000000180004000 f i OposVariant.obj
 0001:00003040       ??0?$CTraceCategoryEx@$0CAAA@$0A@@ATL@@QEAA@PEB_W@Z 0000000180004040 f i OposVariant.obj
 0001:00003080       ??0?$CTraceCategoryEx@$0CAAAA@$0A@@ATL@@QEAA@PEB_W@Z 0000000180004080 f i OposVariant.obj
 0001:000030c0       ??0?$CTraceCategoryEx@$0CAAAAA@$0A@@ATL@@QEAA@PEB_W@Z 00000001800040c0 f i OposVariant.obj
 0001:00003100       ??0?$CTraceCategoryEx@$0EA@$0A@@ATL@@QEAA@PEB_W@Z 0000000180004100 f i OposVariant.obj
 0001:00003140       ??0?$CTraceCategoryEx@$0EAA@$0A@@ATL@@QEAA@PEB_W@Z 0000000180004140 f i OposVariant.obj
 0001:00003180       ??0?$CTraceCategoryEx@$0EAAA@$0A@@ATL@@QEAA@PEB_W@Z 0000000180004180 f i OposVariant.obj
 0001:000031c0       ??0?$CTraceCategoryEx@$0EAAAA@$0A@@ATL@@QEAA@PEB_W@Z 00000001800041c0 f i OposVariant.obj
 0001:00003200       ??0?$CTraceCategoryEx@$0EAAAAA@$0A@@ATL@@QEAA@PEB_W@Z 0000000180004200 f i OposVariant.obj
 0001:00003240       ??0?$CTraceCategoryEx@$0IA@$0A@@ATL@@QEAA@PEB_W@Z 0000000180004240 f i OposVariant.obj
 0001:00003280       ??0?$CTraceCategoryEx@$0IAA@$0A@@ATL@@QEAA@PEB_W@Z 0000000180004280 f i OposVariant.obj
 0001:000032c0       ??0?$CTraceCategoryEx@$0IAAA@$0A@@ATL@@QEAA@PEB_W@Z 00000001800042c0 f i OposVariant.obj
 0001:00003300       ??0?$CTraceCategoryEx@$0IAAAA@$0A@@ATL@@QEAA@PEB_W@Z 0000000180004300 f i OposVariant.obj
 0001:00003340       ??0CAtlComModule@ATL@@QEAA@XZ 0000000180004340 f i OposVariant.obj
 0001:00003460       ??0CAtlWinModule@ATL@@QEAA@XZ 0000000180004460 f i OposVariant.obj
 0001:00003510       ??0CComCriticalSection@ATL@@QEAA@XZ 0000000180004510 f i OposVariant.obj
 0001:00003550       ??0CPreserveLastError@ATL@@QEAA@XZ 0000000180004550 f i OposVariant.obj
 0001:00003590       ??0CTraceFileAndLineInfo@ATL@@QEAA@PEBDH@Z 0000000180004590 f i OposVariant.obj
 0001:000035c0       ??0_ATL_COM_MODULE70@ATL@@QEAA@XZ 00000001800045c0 f i OposVariant.obj
 0001:00003600       ??0_ATL_WIN_MODULE70@ATL@@QEAA@XZ 0000000180004600 f i OposVariant.obj
 0001:00003650       ??1?$CHeapPtr@_WVCCRTAllocator@ATL@@@ATL@@QEAA@XZ 0000000180004650 f i OposVariant.obj
 0001:00003680       ??1?$CHeapPtrBase@_WVCCRTAllocator@ATL@@@ATL@@QEAA@XZ 0000000180004680 f i OposVariant.obj
 0001:000036b0       ??1?$CSimpleArray@GV?$CSimpleArrayEqualHelper@G@ATL@@@ATL@@QEAA@XZ 00000001800046b0 f i OposVariant.obj
 0001:000036e0       ??1CAtlComModule@ATL@@QEAA@XZ 00000001800046e0 f i OposVariant.obj
 0001:00003720       ??1CAtlWinModule@ATL@@QEAA@XZ 0000000180004720 f i OposVariant.obj
 0001:00003760       ??1CComBSTR@ATL@@QEAA@XZ   0000000180004760 f i OposVariant.obj
 0001:000037a0       ??1CComCriticalSection@ATL@@QEAA@XZ 00000001800047a0 f i OposVariant.obj
 0001:000037b0       ??1CPreserveLastError@ATL@@QEAA@XZ 00000001800047b0 f i OposVariant.obj
 0001:000037f0       ??1_ATL_COM_MODULE70@ATL@@QEAA@XZ 00000001800047f0 f i OposVariant.obj
 0001:00003830       ??1_ATL_WIN_MODULE70@ATL@@QEAA@XZ 0000000180004830 f i OposVariant.obj
 0001:00003880       ??1stringdispid@CComTypeInfoHolder@ATL@@QEAA@XZ 0000000180004880 f i OposVariant.obj
 0001:000038c0       ??A?$CSimpleArray@GV?$CSimpleArrayEqualHelper@G@ATL@@@ATL@@QEAAAEAGH@Z 00000001800048c0 f i OposVariant.obj
 0001:00003970       ??B?$CHeapPtrBase@_WVCCRTAllocator@ATL@@@ATL@@QEBAPEA_WXZ 0000000180004970 f i OposVariant.obj
 0001:00003980       ??B?$CTraceCategoryEx@$01$0A@@ATL@@QEAAIXZ 0000000180004980 f i OposVariant.obj
 0001:00003990       ??B?$CTraceCategoryEx@$0CA@$0A@@ATL@@QEAAIXZ 0000000180004990 f i OposVariant.obj
 0001:000039a0       ??RCTraceFileAndLineInfo@ATL@@QEBAXHIPEB_WZZ 00000001800049a0 f i OposVariant.obj
 0001:00003a50       ??_Estringdispid@CComTypeInfoHolder@ATL@@QEAAPEAXI@Z 0000000180004a50 f i OposVariant.obj
 0001:00003b00       ??_H@YAXPEAX_K1P6APEAX0@Z@Z 0000000180004b00 f i OposVariant.obj
 0001:00003b90       ??_I@YAXPEAX_K1P6AX0@Z@Z   0000000180004b90 f i OposVariant.obj
 0001:00003c40       ?Allocate@?$CHeapPtr@_WVCCRTAllocator@ATL@@@ATL@@QEAA_N_K@Z 0000000180004c40 f i OposVariant.obj
 0001:00003cc0       ?Allocate@CCRTAllocator@ATL@@SAPEAX_K@Z 0000000180004cc0 f i OposVariant.obj
 0001:00003cf0       ?AllocateBytes@?$CHeapPtrBase@_WVCCRTAllocator@ATL@@@ATL@@QEAA_N_K@Z 0000000180004cf0 f i OposVariant.obj
 0001:00003d90       ?AtlWinModuleInit@ATL@@YAJPEAU_ATL_WIN_MODULE70@1@@Z 0000000180004d90 f i OposVariant.obj
 0001:00003e90       ?AtlWinModuleTerm@ATL@@YAJPEAU_ATL_WIN_MODULE70@1@PEAUHINSTANCE__@@@Z 0000000180004e90 f i OposVariant.obj
 0001:00003f80       ?Clear@OposVariant@@QEAAJXZ 0000000180004f80 f i OposVariant.obj
 0001:00003fc0       ?Free@?$CHeapPtrBase@_WVCCRTAllocator@ATL@@@ATL@@QEAAXXZ 0000000180004fc0 f i OposVariant.obj
 0001:00004000       ?Free@CCRTAllocator@ATL@@SAXPEAX@Z 0000000180005000 f i OposVariant.obj
 0001:00004030       ?GetCategoryName@CTrace@ATL@@CAPEA_WI@Z 0000000180005030 f i OposVariant.obj
 0001:000040b0       ?GetModuleInstance@CAtlBaseModule@ATL@@QEAAPEAUHINSTANCE__@@XZ 00000001800050b0 f i OposVariant.obj
 0001:000040d0       ?GetSize@?$CSimpleArray@GV?$CSimpleArrayEqualHelper@G@ATL@@@ATL@@QEBAHXZ 00000001800050d0 f i OposVariant.obj
 0001:000040e0       ?Init@CComCriticalSection@ATL@@QEAAJXZ 00000001800050e0 f i OposVariant.obj
 0001:00004140       ?RegisterCategory@CTrace@ATL@@SAXPEB_WI@Z 0000000180005140 f i OposVariant.obj
 0001:00004220       ?RemoveAll@?$CSimpleArray@GV?$CSimpleArrayEqualHelper@G@ATL@@@ATL@@QEAAXXZ 0000000180005220 f i OposVariant.obj
 0001:000042b0       ?Term@CAtlComModule@ATL@@QEAAXXZ 00000001800052b0 f i OposVariant.obj
 0001:00004390       ?Term@CAtlWinModule@ATL@@QEAAXXZ 0000000180005390 f i OposVariant.obj
 0001:000043d0       ?Term@CComCriticalSection@ATL@@QEAAJXZ 00000001800053d0 f i OposVariant.obj
 0001:00004410       ?TraceV@CTrace@ATL@@CAXPEBDHIIPEB_W@Z 0000000180005410 f i OposVariant.obj
 0001:000046c0       ?TraceV@CTrace@ATL@@SAXPEBDHIIPEB_WPEAD@Z 00000001800056c0 f i OposVariant.obj
 0001:00004870       ?_AtlInitializeCriticalSectionEx@ATL@@YAHPEAU_RTL_CRITICAL_SECTION@@KK@Z 0000000180005870 f i OposVariant.obj
 0001:000048c0       ?_AtlRaiseException@ATL@@YAXKK@Z 00000001800058c0 f i OposVariant.obj
 0001:00004900       HRESULT_FROM_WIN32         0000000180005900 f i OposVariant.obj
 0001:00004950       _vswprintf_s_l             0000000180005950 f i OposVariant.obj
 0001:000049e0       swprintf_s                 00000001800059e0 f i OposVariant.obj
 0001:00004a70       ?ObjectMain@CComObjectRootBase@ATL@@SAX_N@Z 0000000180005a70 f i SpeechSynthesis.obj
 0001:00004a80       ?GetCategoryMap@CComObjectRootBase@ATL@@SAPEBU_ATL_CATMAP_ENTRY@2@XZ 0000000180005a80 f i SpeechSynthesis.obj
 0001:00004a90       ?GetObjectDescription@?$CComCoClass@VCOPOSSpeechSynthesis@@$1?CLSID_OPOSSpeechSynthesis@@3U_GUID@@B@ATL@@SAPEB_WXZ 0000000180005a90 f i SpeechSynthesis.obj
 0001:00004aa0       ?UpdateRegistry@COPOSSpeechSynthesis@@SAJH@Z 0000000180005aa0 f i SpeechSynthesis.obj
 0001:00004ae0       ?CreateInstance@?$CComCreator@V?$CComObjectCached@VCComClassFactory@ATL@@@ATL@@@ATL@@SAJPEAXAEBU_GUID@@PEAPEAX@Z 0000000180005ae0 f i SpeechSynthesis.obj
 0001:00004cd0       ?CreateInstance@?$CComCreator2@V?$CComCreator@V?$CComObject@VCOPOSSpeechSynthesis@@@ATL@@@ATL@@V?$CComCreator@V?$CComAggObject@VCOPOSSpeechSynthesis@@@ATL@@@2@@ATL@@SAJPEAXAEBU_GUID@@PEAPEAX@Z 0000000180005cd0 f i SpeechSynthesis.obj
 0001:00004ee0       DllGetClassObject          0000000180005ee0 f   SpeechSynthesis.obj
 0001:00004f30       DllCanUnloadNow            0000000180005f30 f   SpeechSynthesis.obj
 0001:00004f80       DllRegisterServer          0000000180005f80 f   SpeechSynthesis.obj
 0001:00004fc0       DllUnregisterServer        0000000180005fc0 f   SpeechSynthesis.obj
 0001:000051c0       DllMain                    00000001800061c0 f   SpeechSynthesis.obj
 0001:00005240       ??$?2G@Wrapper@?$CSimpleArray@GV?$CSimpleArrayEqualHelper@G@ATL@@@ATL@@SAPEAX_KPEAG@Z 0000000180006240 f i SpeechSynthesis.obj
 0001:00005260       ??$?2PEA_W@?$Wrapper@PEA_W@?$CSimpleMap@PEA_WPEA_WVCExpansionVectorEqualHelper@ATL@@@ATL@@SAPEAX_KPEAPEA_W@Z 0000000180006260 f i SpeechSynthesis.obj
 0001:00005280       ??$?4UITypeInfo2@@@?$CComPtr@UITypeInfo@@@ATL@@QEAAPEAUITypeInfo@@AEBV?$CComPtr@UITypeInfo2@@@1@@Z 0000000180006280 f i SpeechSynthesis.obj
 0001:000052f0       ??$AtlAdd@_K@ATL@@YAJPEA_K_K1@Z 00000001800062f0 f i SpeechSynthesis.obj
 0001:00005360       ??$AtlAddThrow@_K@ATL@@YA_K_K0@Z 0000000180006360 f i SpeechSynthesis.obj
 0001:000053d0       ??$AtlModuleRegisterWndClassInfoT@VAtlModuleRegisterWndClassInfoParamW@ATL@@@ATL@@YAGPEAU_ATL_BASE_MODULE70@0@PEAU_ATL_WIN_MODULE70@0@PEAU_ATL_WNDCLASSINFOW@0@PEAP6A_JPEAUHWND__@@I_K_J@ZVAtlModuleRegisterWndClassInfoParamW@0@@Z 00000001800063d0 f i SpeechSynthesis.obj
 0001:000059a0       ??$AtlMultiply@H@ATL@@YAJPEAHHH@Z 00000001800069a0 f i SpeechSynthesis.obj
 0001:00005a10       ??$AtlMultiply@K@ATL@@YAJPEAKKK@Z 0000000180006a10 f i SpeechSynthesis.obj
 0001:00005a80       ??$AtlMultiplyThrow@_K@ATL@@YA_K_K0@Z 0000000180006a80 f i SpeechSynthesis.obj
 0001:00005af0       ??$QueryInterface@UIPersistStream@@@IUnknown@@QEAAJPEAPEAUIPersistStream@@@Z 0000000180006af0 f i SpeechSynthesis.obj
 0001:00005b40       ??$QueryInterface@UITypeInfo2@@@IUnknown@@QEAAJPEAPEAUITypeInfo2@@@Z 0000000180006b40 f i SpeechSynthesis.obj
 0001:00005b90       ??0?$CAtlModuleT@VCComModule@ATL@@@ATL@@QEAA@XZ 0000000180006b90 f i SpeechSynthesis.obj
 0001:00005bd0       ??0?$CAtlSafeAllocBufferManager@VCCRTAllocator@ATL@@@_ATL_SAFE_ALLOCA_IMPL@ATL@@QEAA@XZ 0000000180006bd0 f i SpeechSynthesis.obj
 0001:00005bf0       ??0?$CAutoVectorPtr@_W@ATL@@QEAA@XZ 0000000180006bf0 f i SpeechSynthesis.obj
 0001:00005c10       ??0?$CComAggObject@VCOPOSSpeechSynthesis@@@ATL@@QEAA@PEAX@Z 0000000180006c10 f i SpeechSynthesis.obj
 0001:00005ca0       ??0?$CComContainedObject@VCOPOSSpeechSynthesis@@@ATL@@QEAA@PEAX@Z 0000000180006ca0 f i SpeechSynthesis.obj
 0001:00005e40       ??0?$CComCritSecLock@VCComCriticalSection@ATL@@@ATL@@QEAA@AEAVCComCriticalSection@1@_N@Z 0000000180006e40 f i SpeechSynthesis.obj
 0001:00005eb0       ??0?$CComEnum@UIEnumConnectionPoints@@$1?_GUID_b196b285_bab4_101a_b69c_00aa00341d07@@3U__s_GUID@@BPEAUIConnectionPoint@@V?$_CopyInterface@UIConnectionPoint@@@ATL@@VCComSingleThreadModel@6@@ATL@@QEAA@XZ 0000000180006eb0 f i SpeechSynthesis.obj
 0001:00005f00       ??0?$CComEnum@UIEnumConnections@@$1?_GUID_b196b287_bab4_101a_b69c_00aa00341d07@@3U__s_GUID@@BUtagCONNECTDATA@@V?$_Copy@UtagCONNECTDATA@@@ATL@@VCComSingleThreadModel@6@@ATL@@QEAA@XZ 0000000180006f00 f i SpeechSynthesis.obj
 0001:00005f50       ??0?$CComEnumImpl@UIEnumConnectionPoints@@$1?_GUID_b196b285_bab4_101a_b69c_00aa00341d07@@3U__s_GUID@@BPEAUIConnectionPoint@@V?$_CopyInterface@UIConnectionPoint@@@ATL@@@ATL@@QEAA@XZ 0000000180006f50 f i SpeechSynthesis.obj
 0001:00005fd0       ??0?$CComEnumImpl@UIEnumConnections@@$1?_GUID_b196b287_bab4_101a_b69c_00aa00341d07@@3U__s_GUID@@BUtagCONNECTDATA@@V?$_Copy@UtagCONNECTDATA@@@ATL@@@ATL@@QEAA@XZ 0000000180006fd0 f i SpeechSynthesis.obj
 0001:00006050       ??0?$CComObject@V?$CComEnum@UIEnumConnectionPoints@@$1?_GUID_b196b285_bab4_101a_b69c_00aa00341d07@@3U__s_GUID@@BPEAUIConnectionPoint@@V?$_CopyInterface@UIConnectionPoint@@@ATL@@VCComSingleThreadModel@6@@ATL@@@ATL@@QEAA@PEAX@Z 0000000180007050 f i SpeechSynthesis.obj
 0001:000060b0       ??0?$CComObject@V?$CComEnum@UIEnumConnections@@$1?_GUID_b196b287_bab4_101a_b69c_00aa00341d07@@3U__s_GUID@@BUtagCONNECTDATA@@V?$_Copy@UtagCONNECTDATA@@@ATL@@VCComSingleThreadModel@6@@ATL@@@ATL@@QEAA@PEAX@Z 00000001800070b0 f i SpeechSynthesis.obj
 0001:00006110       ??0?$CComObject@VCOPOSSpeechSynthesis@@@ATL@@QEAA@PEAX@Z 0000000180007110 f i SpeechSynthesis.obj
 0001:000062b0       ??0?$CComObjectCached@VCComClassFactory@ATL@@@ATL@@QEAA@PEAX@Z 00000001800072b0 f i SpeechSynthesis.obj
 0001:00006300       ??0?$CComObjectRootEx@VCComMultiThreadModel@ATL@@@ATL@@QEAA@XZ 0000000180007300 f i SpeechSynthesis.obj
 0001:00006350       ??0?$CComObjectRootEx@VCComSingleThreadModel@ATL@@@ATL@@QEAA@XZ 0000000180007350 f i SpeechSynthesis.obj
 0001:00006390       ??0?$CComPtr@UIAdviseSink@@@ATL@@QEAA@PEAUIAdviseSink@@@Z 0000000180007390 f i SpeechSynthesis.obj
 0001:000063d0       ??0?$CComPtr@UICatRegister@@@ATL@@QEAA@XZ 00000001800073d0 f i SpeechSynthesis.obj
 0001:00006410       ??0?$CComPtr@UIConnectionPoint@@@ATL@@QEAA@XZ 0000000180007410 f i SpeechSynthesis.obj
 0001:00006450       ??0?$CComPtr@UIConnectionPointContainer@@@ATL@@QEAA@XZ 0000000180007450 f i SpeechSynthesis.obj
 0001:00006490       ??0?$CComPtr@UIDataObject@@@ATL@@QEAA@XZ 0000000180007490 f i SpeechSynthesis.obj
 0001:000064d0       ??0?$CComPtr@UIDispatch@@@ATL@@QEAA@XZ 00000001800074d0 f i SpeechSynthesis.obj
 0001:00006510       ??0?$CComPtr@UIOleClientSite@@@ATL@@QEAA@PEAUIOleClientSite@@@Z 0000000180007510 f i SpeechSynthesis.obj
 0001:00006550       ??0?$CComPtr@UIOleControlSite@@@ATL@@QEAA@XZ 0000000180007550 f i SpeechSynthesis.obj
 0001:00006590       ??0?$CComPtr@UIOleInPlaceActiveObject@@@ATL@@QEAA@XZ 0000000180007590 f i SpeechSynthesis.obj
 0001:000065d0       ??0?$CComPtr@UIOleInPlaceFrame@@@ATL@@QEAA@XZ 00000001800075d0 f i SpeechSynthesis.obj
 0001:00006610       ??0?$CComPtr@UIOleInPlaceObject@@@ATL@@QEAA@XZ 0000000180007610 f i SpeechSynthesis.obj
 0001:00006650       ??0?$CComPtr@UIOleInPlaceUIWindow@@@ATL@@QEAA@XZ 0000000180007650 f i SpeechSynthesis.obj
 0001:00006690       ??0?$CComPtr@UIOleObject@@@ATL@@QEAA@XZ 0000000180007690 f i SpeechSynthesis.obj
 0001:000066d0       ??0?$CComPtr@UIPersistStream@@@ATL@@QEAA@XZ 00000001800076d0 f i SpeechSynthesis.obj
 0001:00006710       ??0?$CComPtr@UIPersistStreamInit@@@ATL@@QEAA@XZ 0000000180007710 f i SpeechSynthesis.obj
 0001:00006750       ??0?$CComPtr@UIPointerInactive@@@ATL@@QEAA@XZ 0000000180007750 f i SpeechSynthesis.obj
 0001:00006790       ??0?$CComPtr@UIProvideClassInfo2@@@ATL@@QEAA@XZ 0000000180007790 f i SpeechSynthesis.obj
 0001:000067d0       ??0?$CComPtr@UISpecifyPropertyPages@@@ATL@@QEAA@XZ 00000001800077d0 f i SpeechSynthesis.obj
 0001:00006810       ??0?$CComPtr@UIStream@@@ATL@@QEAA@XZ 0000000180007810 f i SpeechSynthesis.obj
 0001:00006850       ??0?$CComPtr@UITypeInfo2@@@ATL@@QEAA@XZ 0000000180007850 f i SpeechSynthesis.obj
 0001:00006890       ??0?$CComPtr@UITypeInfo@@@ATL@@QEAA@AEBV01@@Z 0000000180007890 f i SpeechSynthesis.obj
 0001:000068d0       ??0?$CComPtr@UITypeInfo@@@ATL@@QEAA@XZ 00000001800078d0 f i SpeechSynthesis.obj
 0001:00006910       ??0?$CComPtr@UITypeLib@@@ATL@@QEAA@XZ 0000000180007910 f i SpeechSynthesis.obj
 0001:00006950       ??0?$CComPtr@UIUnknown@@@ATL@@QEAA@AEBV01@@Z 0000000180007950 f i SpeechSynthesis.obj
 0001:00006990       ??0?$CComPtr@UIUnknown@@@ATL@@QEAA@PEAUIUnknown@@@Z 0000000180007990 f i SpeechSynthesis.obj
 0001:000069d0       ??0?$CComPtr@UIUnknown@@@ATL@@QEAA@XZ 00000001800079d0 f i SpeechSynthesis.obj
 0001:00006a10       ??0?$CComPtr@UIViewObjectEx@@@ATL@@QEAA@XZ 0000000180007a10 f i SpeechSynthesis.obj
 0001:00006a50       ??0?$CComPtrBase@UIAdviseSink@@@ATL@@IEAA@PEAUIAdviseSink@@@Z 0000000180007a50 f i SpeechSynthesis.obj
 0001:00006ab0       ??0?$CComPtrBase@UICatRegister@@@ATL@@IEAA@XZ 0000000180007ab0 f i SpeechSynthesis.obj
 0001:00006ad0       ??0?$CComPtrBase@UIConnectionPoint@@@ATL@@IEAA@XZ 0000000180007ad0 f i SpeechSynthesis.obj
 0001:00006af0       ??0?$CComPtrBase@UIConnectionPointContainer@@@ATL@@IEAA@XZ 0000000180007af0 f i SpeechSynthesis.obj
 0001:00006b10       ??0?$CComPtrBase@UIDataObject@@@ATL@@IEAA@XZ 0000000180007b10 f i SpeechSynthesis.obj
 0001:00006b30       ??0?$CComPtrBase@UIDispatch@@@ATL@@IEAA@XZ 0000000180007b30 f i SpeechSynthesis.obj
 0001:00006b50       ??0?$CComPtrBase@UIOleClientSite@@@ATL@@IEAA@PEAUIOleClientSite@@@Z 0000000180007b50 f i SpeechSynthesis.obj
 0001:00006bb0       ??0?$CComPtrBase@UIOleControlSite@@@ATL@@IEAA@XZ 0000000180007bb0 f i SpeechSynthesis.obj
 0001:00006bd0       ??0?$CComPtrBase@UIOleInPlaceActiveObject@@@ATL@@IEAA@XZ 0000000180007bd0 f i SpeechSynthesis.obj
 0001:00006bf0       ??0?$CComPtrBase@UIOleInPlaceFrame@@@ATL@@IEAA@XZ 0000000180007bf0 f i SpeechSynthesis.obj
 0001:00006c10       ??0?$CComPtrBase@UIOleInPlaceObject@@@ATL@@IEAA@XZ 0000000180007c10 f i SpeechSynthesis.obj
 0001:00006c30       ??0?$CComPtrBase@UIOleInPlaceUIWindow@@@ATL@@IEAA@XZ 0000000180007c30 f i SpeechSynthesis.obj
 0001:00006c50       ??0?$CComPtrBase@UIOleObject@@@ATL@@IEAA@XZ 0000000180007c50 f i SpeechSynthesis.obj
 0001:00006c70       ??0?$CComPtrBase@UIPersistStream@@@ATL@@IEAA@XZ 0000000180007c70 f i SpeechSynthesis.obj
 0001:00006c90       ??0?$CComPtrBase@UIPersistStreamInit@@@ATL@@IEAA@XZ 0000000180007c90 f i SpeechSynthesis.obj
 0001:00006cb0       ??0?$CComPtrBase@UIPointerInactive@@@ATL@@IEAA@XZ 0000000180007cb0 f i SpeechSynthesis.obj
 0001:00006cd0       ??0?$CComPtrBase@UIProvideClassInfo2@@@ATL@@IEAA@XZ 0000000180007cd0 f i SpeechSynthesis.obj
 0001:00006cf0       ??0?$CComPtrBase@UISpecifyPropertyPages@@@ATL@@IEAA@XZ 0000000180007cf0 f i SpeechSynthesis.obj
 0001:00006d10       ??0?$CComPtrBase@UIStream@@@ATL@@IEAA@XZ 0000000180007d10 f i SpeechSynthesis.obj
 0001:00006d30       ??0?$CComPtrBase@UITypeInfo2@@@ATL@@IEAA@XZ 0000000180007d30 f i SpeechSynthesis.obj
 0001:00006d50       ??0?$CComPtrBase@UITypeInfo@@@ATL@@IEAA@PEAUITypeInfo@@@Z 0000000180007d50 f i SpeechSynthesis.obj
 0001:00006db0       ??0?$CComPtrBase@UITypeInfo@@@ATL@@IEAA@XZ 0000000180007db0 f i SpeechSynthesis.obj
 0001:00006dd0       ??0?$CComPtrBase@UITypeLib@@@ATL@@IEAA@XZ 0000000180007dd0 f i SpeechSynthesis.obj
 0001:00006df0       ??0?$CComPtrBase@UIUnknown@@@ATL@@IEAA@PEAUIUnknown@@@Z 0000000180007df0 f i SpeechSynthesis.obj
 0001:00006e50       ??0?$CComPtrBase@UIUnknown@@@ATL@@IEAA@XZ 0000000180007e50 f i SpeechSynthesis.obj
 0001:00006e70       ??0?$CComPtrBase@UIViewObjectEx@@@ATL@@IEAA@XZ 0000000180007e70 f i SpeechSynthesis.obj
 0001:00006e90       ??0?$CComQIPtr@UIOleControlSite@@$1?_GUID_b196b289_bab4_101a_b69c_00aa00341d07@@3U__s_GUID@@B@ATL@@QEAA@PEAUIUnknown@@@Z 0000000180007e90 f i SpeechSynthesis.obj
 0001:00006f00       ??0?$CComQIPtr@UIOleObject@@$1?_GUID_00000112_0000_0000_c000_000000000046@@3U__s_GUID@@B@ATL@@QEAA@XZ 0000000180007f00 f i SpeechSynthesis.obj
 0001:00006f40       ??0?$CComQIPtr@UISpecifyPropertyPages@@$1?_GUID_b196b28b_bab4_101a_b69c_00aa00341d07@@3U__s_GUID@@B@ATL@@QEAA@XZ 0000000180007f40 f i SpeechSynthesis.obj
 0001:00006f80       ??0?$CSimpleMap@PEA_WPEA_WVCExpansionVectorEqualHelper@ATL@@@ATL@@QEAA@XZ 0000000180007f80 f i SpeechSynthesis.obj
 0001:00006fc0       ??0?$CTempBuffer@E$0BAA@VCCRTAllocator@ATL@@@ATL@@QEAA@XZ 0000000180007fc0 f i SpeechSynthesis.obj
 0001:00006fe0       ??0?$CTempBuffer@_W$0BAA@VCCRTAllocator@ATL@@@ATL@@QEAA@XZ 0000000180007fe0 f i SpeechSynthesis.obj
 0001:00007000       ??0?$CTempBuffer@_W$0EAA@VCCRTAllocator@ATL@@@ATL@@QEAA@XZ 0000000180008000 f i SpeechSynthesis.obj
 0001:00007020       ??0?$Wrapper@PEA_W@?$CSimpleMap@PEA_WPEA_WVCExpansionVectorEqualHelper@ATL@@@ATL@@QEAA@AEBQEA_W@Z 0000000180008020 f i SpeechSynthesis.obj
 0001:00007050       ??0CAtlModule@ATL@@QEAA@XZ 0000000180008050 f i SpeechSynthesis.obj
 0001:000071c0       ??0CComAutoDeleteCriticalSection@ATL@@QEAA@XZ 00000001800081c0 f i SpeechSynthesis.obj
 0001:00007200       ??0CComBSTR@ATL@@QEAA@XZ   0000000180008200 f i SpeechSynthesis.obj
 0001:00007220       ??0CComClassFactory@ATL@@QEAA@XZ 0000000180008220 f i SpeechSynthesis.obj
 0001:00007280       ??0CComModule@ATL@@QEAA@XZ 0000000180008280 f i SpeechSynthesis.obj
 0001:00007320       ??0CComObjectRootBase@ATL@@QEAA@XZ 0000000180008320 f i SpeechSynthesis.obj
 0001:00007340       ??0CComSafeDeleteCriticalSection@ATL@@QEAA@XZ 0000000180008340 f i SpeechSynthesis.obj
 0001:00007380       ??0CComVariant@ATL@@QEAA@XZ 0000000180008380 f i SpeechSynthesis.obj
 0001:000073d0       ??0CExpansionVector@ATL@@QEAA@XZ 00000001800083d0 f i SpeechSynthesis.obj
 0001:00007410       ??0CParseBuffer@CRegParser@ATL@@QEAA@H@Z 0000000180008410 f i SpeechSynthesis.obj
 0001:000074a0       ??0CRegKey@ATL@@QEAA@PEAUHKEY__@@@Z 00000001800084a0 f i SpeechSynthesis.obj
 0001:000074e0       ??0CRegKey@ATL@@QEAA@PEAVCAtlTransactionManager@1@@Z 00000001800084e0 f i SpeechSynthesis.obj
 0001:00007520       ??0CRegObject@ATL@@QEAA@XZ 0000000180008520 f i SpeechSynthesis.obj
 0001:00007580       ??0CRegParser@ATL@@QEAA@PEAVCRegObject@1@@Z 0000000180008580 f i SpeechSynthesis.obj
 0001:000075b0       ??0IClassFactory@@QEAA@XZ  00000001800085b0 f i SpeechSynthesis.obj
 0001:000075f0       ??0IEnumConnectionPoints@@QEAA@XZ 00000001800085f0 f i SpeechSynthesis.obj
 0001:00007630       ??0IEnumConnections@@QEAA@XZ 0000000180008630 f i SpeechSynthesis.obj
 0001:00007670       ??0IRegistrarBase@@QEAA@XZ 0000000180008670 f i SpeechSynthesis.obj
 0001:000076b0       ??0IUnknown@@QEAA@XZ       00000001800086b0 f i SpeechSynthesis.obj
 0001:000076c0       ??0ModuleLockHelper@ATL@@QEAA@XZ 00000001800086c0 f i SpeechSynthesis.obj
 0001:00007700       ??0OposVariant@@QEAA@XZ    0000000180008700 f i SpeechSynthesis.obj
 0001:00007720       ??0Wrapper@?$CSimpleArray@GV?$CSimpleArrayEqualHelper@G@ATL@@@ATL@@QEAA@AEBG@Z 0000000180008720 f i SpeechSynthesis.obj
 0001:00007750       ??0_ATL_MODULE70@ATL@@QEAA@XZ 0000000180008750 f i SpeechSynthesis.obj
 0001:00007790       ??0_ATL_MSG@ATL@@QEAA@PEAUHWND__@@I_K_JH@Z 0000000180008790 f i SpeechSynthesis.obj
 0001:00007820       ??0_U_MENUorID@ATL@@QEAA@I@Z 0000000180008820 f i SpeechSynthesis.obj
 0001:00007840       ??0_U_RECT@ATL@@QEAA@AEAUtagRECT@@@Z 0000000180008840 f i SpeechSynthesis.obj
 0001:00007860       ??0stringdispid@CComTypeInfoHolder@ATL@@QEAA@XZ 0000000180008860 f i SpeechSynthesis.obj
 0001:000078b0       ??1?$CAtlModuleT@VCComModule@ATL@@@ATL@@UEAA@XZ 00000001800088b0 f i SpeechSynthesis.obj
 0001:000078e0       ??1?$CAtlSafeAllocBufferManager@VCCRTAllocator@ATL@@@_ATL_SAFE_ALLOCA_IMPL@ATL@@QEAA@XZ 00000001800088e0 f i SpeechSynthesis.obj
 0001:00007940       ??1?$CAutoVectorPtr@_W@ATL@@QEAA@XZ 0000000180008940 f i SpeechSynthesis.obj
 0001:00007970       ??1?$CComAggObject@VCOPOSSpeechSynthesis@@@ATL@@UEAA@XZ 0000000180008970 f i SpeechSynthesis.obj
 0001:000079f0       ??1?$CComContainedObject@VCOPOSSpeechSynthesis@@@ATL@@UEAA@XZ 00000001800089f0 f i SpeechSynthesis.obj
 0001:00007a20       ??1?$CComCritSecLock@VCComCriticalSection@ATL@@@ATL@@QEAA@XZ 0000000180008a20 f i SpeechSynthesis.obj
 0001:00007a60       ??1?$CComEnum@UIEnumConnectionPoints@@$1?_GUID_b196b285_bab4_101a_b69c_00aa00341d07@@3U__s_GUID@@BPEAUIConnectionPoint@@V?$_CopyInterface@UIConnectionPoint@@@ATL@@VCComSingleThreadModel@6@@ATL@@UEAA@XZ 0000000180008a60 f i SpeechSynthesis.obj
 0001:00007aa0       ??1?$CComEnum@UIEnumConnections@@$1?_GUID_b196b287_bab4_101a_b69c_00aa00341d07@@3U__s_GUID@@BUtagCONNECTDATA@@V?$_Copy@UtagCONNECTDATA@@@ATL@@VCComSingleThreadModel@6@@ATL@@UEAA@XZ 0000000180008aa0 f i SpeechSynthesis.obj
 0001:00007ae0       ??1?$CComEnumImpl@UIEnumConnectionPoints@@$1?_GUID_b196b285_bab4_101a_b69c_00aa00341d07@@3U__s_GUID@@BPEAUIConnectionPoint@@V?$_CopyInterface@UIConnectionPoint@@@ATL@@@ATL@@UEAA@XZ 0000000180008ae0 f i SpeechSynthesis.obj
 0001:00007b80       ??1?$CComEnumImpl@UIEnumConnections@@$1?_GUID_b196b287_bab4_101a_b69c_00aa00341d07@@3U__s_GUID@@BUtagCONNECTDATA@@V?$_Copy@UtagCONNECTDATA@@@ATL@@@ATL@@UEAA@XZ 0000000180008b80 f i SpeechSynthesis.obj
 0001:00007c20       ??1?$CComObject@V?$CComEnum@UIEnumConnectionPoints@@$1?_GUID_b196b285_bab4_101a_b69c_00aa00341d07@@3U__s_GUID@@BPEAUIConnectionPoint@@V?$_CopyInterface@UIConnectionPoint@@@ATL@@VCComSingleThreadModel@6@@ATL@@@ATL@@UEAA@XZ 0000000180008c20 f i SpeechSynthesis.obj
 0001:00007c90       ??1?$CComObject@V?$CComEnum@UIEnumConnections@@$1?_GUID_b196b287_bab4_101a_b69c_00aa00341d07@@3U__s_GUID@@BUtagCONNECTDATA@@V?$_Copy@UtagCONNECTDATA@@@ATL@@VCComSingleThreadModel@6@@ATL@@@ATL@@UEAA@XZ 0000000180008c90 f i SpeechSynthesis.obj
 0001:00007d00       ??1?$CComObject@VCOPOSSpeechSynthesis@@@ATL@@UEAA@XZ 0000000180008d00 f i SpeechSynthesis.obj
 0001:00007eb0       ??1?$CComObjectCached@VCComClassFactory@ATL@@@ATL@@UEAA@XZ 0000000180008eb0 f i SpeechSynthesis.obj
 0001:00007f10       ??1?$CComObjectRootEx@VCComMultiThreadModel@ATL@@@ATL@@QEAA@XZ 0000000180008f10 f i SpeechSynthesis.obj
 0001:00007f50       ??1?$CComObjectRootEx@VCComSingleThreadModel@ATL@@@ATL@@QEAA@XZ 0000000180008f50 f i SpeechSynthesis.obj
 0001:00007f80       ??1?$CComPtr@UIAdviseSink@@@ATL@@QEAA@XZ 0000000180008f80 f i SpeechSynthesis.obj
 0001:00007fb0       ??1?$CComPtr@UICatRegister@@@ATL@@QEAA@XZ 0000000180008fb0 f i SpeechSynthesis.obj
 0001:00007fe0       ??1?$CComPtr@UIConnectionPoint@@@ATL@@QEAA@XZ 0000000180008fe0 f i SpeechSynthesis.obj
 0001:00008010       ??1?$CComPtr@UIConnectionPointContainer@@@ATL@@QEAA@XZ 0000000180009010 f i SpeechSynthesis.obj
 0001:00008040       ??1?$CComPtr@UIDataObject@@@ATL@@QEAA@XZ 0000000180009040 f i SpeechSynthesis.obj
 0001:00008070       ??1?$CComPtr@UIDispatch@@@ATL@@QEAA@XZ 0000000180009070 f i SpeechSynthesis.obj
 0001:000080a0       ??1?$CComPtr@UIOleClientSite@@@ATL@@QEAA@XZ 00000001800090a0 f i SpeechSynthesis.obj
 0001:000080d0       ??1?$CComPtr@UIOleControlSite@@@ATL@@QEAA@XZ 00000001800090d0 f i SpeechSynthesis.obj
 0001:00008100       ??1?$CComPtr@UIOleInPlaceActiveObject@@@ATL@@QEAA@XZ 0000000180009100 f i SpeechSynthesis.obj
 0001:00008130       ??1?$CComPtr@UIOleInPlaceFrame@@@ATL@@QEAA@XZ 0000000180009130 f i SpeechSynthesis.obj
 0001:00008160       ??1?$CComPtr@UIOleInPlaceObject@@@ATL@@QEAA@XZ 0000000180009160 f i SpeechSynthesis.obj
 0001:00008190       ??1?$CComPtr@UIOleInPlaceUIWindow@@@ATL@@QEAA@XZ 0000000180009190 f i SpeechSynthesis.obj
 0001:000081c0       ??1?$CComPtr@UIOleObject@@@ATL@@QEAA@XZ 00000001800091c0 f i SpeechSynthesis.obj
 0001:000081f0       ??1?$CComPtr@UIPersistStream@@@ATL@@QEAA@XZ 00000001800091f0 f i SpeechSynthesis.obj
 0001:00008220       ??1?$CComPtr@UIPersistStreamInit@@@ATL@@QEAA@XZ 0000000180009220 f i SpeechSynthesis.obj
 0001:00008250       ??1?$CComPtr@UIPointerInactive@@@ATL@@QEAA@XZ 0000000180009250 f i SpeechSynthesis.obj
 0001:00008280       ??1?$CComPtr@UIProvideClassInfo2@@@ATL@@QEAA@XZ 0000000180009280 f i SpeechSynthesis.obj
 0001:000082b0       ??1?$CComPtr@UISpecifyPropertyPages@@@ATL@@QEAA@XZ 00000001800092b0 f i SpeechSynthesis.obj
 0001:000082e0       ??1?$CComPtr@UIStream@@@ATL@@QEAA@XZ 00000001800092e0 f i SpeechSynthesis.obj
 0001:00008310       ??1?$CComPtr@UITypeInfo2@@@ATL@@QEAA@XZ 0000000180009310 f i SpeechSynthesis.obj
 0001:00008340       ??1?$CComPtr@UITypeInfo@@@ATL@@QEAA@XZ 0000000180009340 f i SpeechSynthesis.obj
 0001:00008370       ??1?$CComPtr@UITypeLib@@@ATL@@QEAA@XZ 0000000180009370 f i SpeechSynthesis.obj
 0001:000083a0       ??1?$CComPtr@UIUnknown@@@ATL@@QEAA@XZ 00000001800093a0 f i SpeechSynthesis.obj
 0001:000083d0       ??1?$CComPtr@UIViewObjectEx@@@ATL@@QEAA@XZ 00000001800093d0 f i SpeechSynthesis.obj
 0001:00008400       ??1?$CComPtrBase@UIAdviseSink@@@ATL@@QEAA@XZ 0000000180009400 f i SpeechSynthesis.obj
 0001:00008450       ??1?$CComPtrBase@UICatRegister@@@ATL@@QEAA@XZ 0000000180009450 f i SpeechSynthesis.obj
 0001:000084a0       ??1?$CComPtrBase@UIConnectionPoint@@@ATL@@QEAA@XZ 00000001800094a0 f i SpeechSynthesis.obj
 0001:000084f0       ??1?$CComPtrBase@UIConnectionPointContainer@@@ATL@@QEAA@XZ 00000001800094f0 f i SpeechSynthesis.obj
 0001:00008540       ??1?$CComPtrBase@UIDataObject@@@ATL@@QEAA@XZ 0000000180009540 f i SpeechSynthesis.obj
 0001:00008590       ??1?$CComPtrBase@UIDispatch@@@ATL@@QEAA@XZ 0000000180009590 f i SpeechSynthesis.obj
 0001:000085e0       ??1?$CComPtrBase@UIOleClientSite@@@ATL@@QEAA@XZ 00000001800095e0 f i SpeechSynthesis.obj
 0001:00008630       ??1?$CComPtrBase@UIOleControlSite@@@ATL@@QEAA@XZ 0000000180009630 f i SpeechSynthesis.obj
 0001:00008680       ??1?$CComPtrBase@UIOleInPlaceActiveObject@@@ATL@@QEAA@XZ 0000000180009680 f i SpeechSynthesis.obj
 0001:000086d0       ??1?$CComPtrBase@UIOleInPlaceFrame@@@ATL@@QEAA@XZ 00000001800096d0 f i SpeechSynthesis.obj
 0001:00008720       ??1?$CComPtrBase@UIOleInPlaceObject@@@ATL@@QEAA@XZ 0000000180009720 f i SpeechSynthesis.obj
 0001:00008770       ??1?$CComPtrBase@UIOleInPlaceUIWindow@@@ATL@@QEAA@XZ 0000000180009770 f i SpeechSynthesis.obj
 0001:000087c0       ??1?$CComPtrBase@UIOleObject@@@ATL@@QEAA@XZ 00000001800097c0 f i SpeechSynthesis.obj
 0001:00008810       ??1?$CComPtrBase@UIPersistStream@@@ATL@@QEAA@XZ 0000000180009810 f i SpeechSynthesis.obj
 0001:00008860       ??1?$CComPtrBase@UIPersistStreamInit@@@ATL@@QEAA@XZ 0000000180009860 f i SpeechSynthesis.obj
 0001:000088b0       ??1?$CComPtrBase@UIPointerInactive@@@ATL@@QEAA@XZ 00000001800098b0 f i SpeechSynthesis.obj
 0001:00008900       ??1?$CComPtrBase@UIProvideClassInfo2@@@ATL@@QEAA@XZ 0000000180009900 f i SpeechSynthesis.obj
 0001:00008950       ??1?$CComPtrBase@UISpecifyPropertyPages@@@ATL@@QEAA@XZ 0000000180009950 f i SpeechSynthesis.obj
 0001:000089a0       ??1?$CComPtrBase@UIStream@@@ATL@@QEAA@XZ 00000001800099a0 f i SpeechSynthesis.obj
 0001:000089f0       ??1?$CComPtrBase@UITypeInfo2@@@ATL@@QEAA@XZ 00000001800099f0 f i SpeechSynthesis.obj
 0001:00008a40       ??1?$CComPtrBase@UITypeInfo@@@ATL@@QEAA@XZ 0000000180009a40 f i SpeechSynthesis.obj
 0001:00008a90       ??1?$CComPtrBase@UITypeLib@@@ATL@@QEAA@XZ 0000000180009a90 f i SpeechSynthesis.obj
 0001:00008ae0       ??1?$CComPtrBase@UIUnknown@@@ATL@@QEAA@XZ 0000000180009ae0 f i SpeechSynthesis.obj
 0001:00008b30       ??1?$CComPtrBase@UIViewObjectEx@@@ATL@@QEAA@XZ 0000000180009b30 f i SpeechSynthesis.obj
 0001:00008b80       ??1?$CComQIPtr@UIOleControlSite@@$1?_GUID_b196b289_bab4_101a_b69c_00aa00341d07@@3U__s_GUID@@B@ATL@@QEAA@XZ 0000000180009b80 f i SpeechSynthesis.obj
 0001:00008bb0       ??1?$CComQIPtr@UIOleObject@@$1?_GUID_00000112_0000_0000_c000_000000000046@@3U__s_GUID@@B@ATL@@QEAA@XZ 0000000180009bb0 f i SpeechSynthesis.obj
 0001:00008be0       ??1?$CComQIPtr@UISpecifyPropertyPages@@$1?_GUID_b196b28b_bab4_101a_b69c_00aa00341d07@@3U__s_GUID@@B@ATL@@QEAA@XZ 0000000180009be0 f i SpeechSynthesis.obj
 0001:00008c10       ??1?$CSimpleMap@PEA_WPEA_WVCExpansionVectorEqualHelper@ATL@@@ATL@@QEAA@XZ 0000000180009c10 f i SpeechSynthesis.obj
 0001:00008c40       ??1?$CTempBuffer@E$0BAA@VCCRTAllocator@ATL@@@ATL@@QEAA@XZ 0000000180009c40 f i SpeechSynthesis.obj
 0001:00008c90       ??1?$CTempBuffer@_W$0BAA@VCCRTAllocator@ATL@@@ATL@@QEAA@XZ 0000000180009c90 f i SpeechSynthesis.obj
 0001:00008ce0       ??1?$CTempBuffer@_W$0EAA@VCCRTAllocator@ATL@@@ATL@@QEAA@XZ 0000000180009ce0 f i SpeechSynthesis.obj
 0001:00008d30       ??1CAtlModule@ATL@@UEAA@XZ 0000000180009d30 f i SpeechSynthesis.obj
 0001:00008d70       ??1CComAutoDeleteCriticalSection@ATL@@QEAA@XZ 0000000180009d70 f i SpeechSynthesis.obj
 0001:00008da0       ??1CComClassFactory@ATL@@UEAA@XZ 0000000180009da0 f i SpeechSynthesis.obj
 0001:00008df0       ??1CComModule@ATL@@UEAA@XZ 0000000180009df0 f i SpeechSynthesis.obj
 0001:00008e30       ??1CComObjectRootBase@ATL@@QEAA@XZ 0000000180009e30 f i SpeechSynthesis.obj
 0001:00008e40       ??1CComSafeDeleteCriticalSection@ATL@@QEAA@XZ 0000000180009e40 f i SpeechSynthesis.obj
 0001:00008e90       ??1CComVariant@ATL@@QEAA@XZ 0000000180009e90 f i SpeechSynthesis.obj
 0001:00008f10       ??1CExpansionVector@ATL@@QEAA@XZ 0000000180009f10 f i SpeechSynthesis.obj
 0001:00008f50       ??1CParseBuffer@CRegParser@ATL@@QEAA@XZ 0000000180009f50 f i SpeechSynthesis.obj
 0001:00008f90       ??1CRegKey@ATL@@QEAA@XZ    0000000180009f90 f i SpeechSynthesis.obj
 0001:00008fc0       ??1CRegObject@ATL@@UEAA@XZ 0000000180009fc0 f i SpeechSynthesis.obj
 0001:00009010       ??1ModuleLockHelper@ATL@@QEAA@XZ 000000018000a010 f i SpeechSynthesis.obj
 0001:00009050       ??1OposVariant@@QEAA@XZ    000000018000a050 f i SpeechSynthesis.obj
 0001:00009090       ??1_ATL_MODULE70@ATL@@QEAA@XZ 000000018000a090 f i SpeechSynthesis.obj
 0001:000090d0       ??4?$CComPtr@UIAdviseSink@@@ATL@@QEAAPEAUIAdviseSink@@PEAU2@@Z 000000018000a0d0 f i SpeechSynthesis.obj
 0001:00009140       ??4?$CComPtr@UIOleClientSite@@@ATL@@QEAAPEAUIOleClientSite@@PEAU2@@Z 000000018000a140 f i SpeechSynthesis.obj
 0001:000091b0       ??4?$CComPtr@UIUnknown@@@ATL@@QEAAPEAUIUnknown@@PEAU2@@Z 000000018000a1b0 f i SpeechSynthesis.obj
 0001:00009220       ??4?$CComQIPtr@UIOleObject@@$1?_GUID_00000112_0000_0000_c000_000000000046@@3U__s_GUID@@B@ATL@@QEAAPEAUIOleObject@@PEAUIUnknown@@@Z 000000018000a220 f i SpeechSynthesis.obj
 0001:00009280       ??4?$CComQIPtr@UISpecifyPropertyPages@@$1?_GUID_b196b28b_bab4_101a_b69c_00aa00341d07@@3U__s_GUID@@B@ATL@@QEAAPEAUISpecifyPropertyPages@@PEAUIUnknown@@@Z 000000018000a280 f i SpeechSynthesis.obj
 0001:000092e0       ??7?$CComPtrBase@UIOleClientSite@@@ATL@@QEBA_NXZ 000000018000a2e0 f i SpeechSynthesis.obj
 0001:00009330       ??7?$CComPtrBase@UIOleInPlaceSiteWindowless@@@ATL@@QEBA_NXZ 000000018000a330 f i SpeechSynthesis.obj
 0001:00009380       ??7CComBSTR@ATL@@QEBA_NXZ  000000018000a380 f i SpeechSynthesis.obj
 0001:000093d0       ??8?$CComPtrBase@UIConnectionPointContainer@@@ATL@@QEBA_NPEAUIConnectionPointContainer@@@Z 000000018000a3d0 f i SpeechSynthesis.obj
 0001:00009420       ??8?$CComPtrBase@UIDataAdviseHolder@@@ATL@@QEBA_NPEAUIDataAdviseHolder@@@Z 000000018000a420 f i SpeechSynthesis.obj
 0001:00009470       ??8?$CComPtrBase@UIOleAdviseHolder@@@ATL@@QEBA_NPEAUIOleAdviseHolder@@@Z 000000018000a470 f i SpeechSynthesis.obj
 0001:000094c0       ??8?$CComPtrBase@UIOleClientSite@@@ATL@@QEBA_NPEAUIOleClientSite@@@Z 000000018000a4c0 f i SpeechSynthesis.obj
 0001:00009510       ??8?$CComPtrBase@UIOleControlSite@@@ATL@@QEBA_NPEAUIOleControlSite@@@Z 000000018000a510 f i SpeechSynthesis.obj
 0001:00009560       ??8?$CComPtrBase@UIOleInPlaceObject@@@ATL@@QEBA_NPEAUIOleInPlaceObject@@@Z 000000018000a560 f i SpeechSynthesis.obj
 0001:000095b0       ??8?$CComPtrBase@UIOleInPlaceSiteWindowless@@@ATL@@QEBA_NPEAUIOleInPlaceSiteWindowless@@@Z 000000018000a5b0 f i SpeechSynthesis.obj
 0001:00009600       ??8?$CComPtrBase@UIOleObject@@@ATL@@QEBA_NPEAUIOleObject@@@Z 000000018000a600 f i SpeechSynthesis.obj
 0001:00009650       ??8?$CComPtrBase@UIPersistStream@@@ATL@@QEBA_NPEAUIPersistStream@@@Z 000000018000a650 f i SpeechSynthesis.obj
 0001:000096a0       ??8?$CComPtrBase@UIPersistStreamInit@@@ATL@@QEBA_NPEAUIPersistStreamInit@@@Z 000000018000a6a0 f i SpeechSynthesis.obj
 0001:000096f0       ??8?$CComPtrBase@UIPointerInactive@@@ATL@@QEBA_NPEAUIPointerInactive@@@Z 000000018000a6f0 f i SpeechSynthesis.obj
 0001:00009740       ??8?$CComPtrBase@UIUnknown@@@ATL@@QEBA_NPEAUIUnknown@@@Z 000000018000a740 f i SpeechSynthesis.obj
 0001:00009790       ??8?$CComPtrBase@UIViewObjectEx@@@ATL@@QEBA_NPEAUIViewObjectEx@@@Z 000000018000a790 f i SpeechSynthesis.obj
 0001:000097e0       ??8CComBSTR@ATL@@QEBA_NH@Z 000000018000a7e0 f i SpeechSynthesis.obj
 0001:00009860       ??9?$CComPtrBase@UIConnectionPointContainer@@@ATL@@QEBA_NPEAUIConnectionPointContainer@@@Z 000000018000a860 f i SpeechSynthesis.obj
 0001:000098c0       ??9?$CComPtrBase@UIDataAdviseHolder@@@ATL@@QEBA_NPEAUIDataAdviseHolder@@@Z 000000018000a8c0 f i SpeechSynthesis.obj
 0001:00009920       ??9?$CComPtrBase@UIOleAdviseHolder@@@ATL@@QEBA_NPEAUIOleAdviseHolder@@@Z 000000018000a920 f i SpeechSynthesis.obj
 0001:00009980       ??9?$CComPtrBase@UIOleClientSite@@@ATL@@QEBA_NPEAUIOleClientSite@@@Z 000000018000a980 f i SpeechSynthesis.obj
 0001:000099e0       ??9?$CComPtrBase@UIOleControlSite@@@ATL@@QEBA_NPEAUIOleControlSite@@@Z 000000018000a9e0 f i SpeechSynthesis.obj
 0001:00009a40       ??9?$CComPtrBase@UIOleInPlaceObject@@@ATL@@QEBA_NPEAUIOleInPlaceObject@@@Z 000000018000aa40 f i SpeechSynthesis.obj
 0001:00009aa0       ??9?$CComPtrBase@UIOleInPlaceSiteWindowless@@@ATL@@QEBA_NPEAUIOleInPlaceSiteWindowless@@@Z 000000018000aaa0 f i SpeechSynthesis.obj
 0001:00009b00       ??9?$CComPtrBase@UIOleObject@@@ATL@@QEBA_NPEAUIOleObject@@@Z 000000018000ab00 f i SpeechSynthesis.obj
 0001:00009b60       ??9?$CComPtrBase@UIPersistStream@@@ATL@@QEBA_NPEAUIPersistStream@@@Z 000000018000ab60 f i SpeechSynthesis.obj
 0001:00009bc0       ??9?$CComPtrBase@UIPersistStreamInit@@@ATL@@QEBA_NPEAUIPersistStreamInit@@@Z 000000018000abc0 f i SpeechSynthesis.obj
 0001:00009c20       ??9?$CComPtrBase@UIPointerInactive@@@ATL@@QEBA_NPEAUIPointerInactive@@@Z 000000018000ac20 f i SpeechSynthesis.obj
 0001:00009c80       ??9?$CComPtrBase@UIUnknown@@@ATL@@QEBA_NPEAUIUnknown@@@Z 000000018000ac80 f i SpeechSynthesis.obj
 0001:00009ce0       ??9?$CComPtrBase@UIViewObjectEx@@@ATL@@QEBA_NPEAUIViewObjectEx@@@Z 000000018000ace0 f i SpeechSynthesis.obj
 0001:00009d40       ??9CComBSTR@ATL@@QEBA_NH@Z 000000018000ad40 f i SpeechSynthesis.obj
 0001:00009da0       ??B?$CComPtrBase@UIAdviseSink@@@ATL@@QEBAPEAUIAdviseSink@@XZ 000000018000ada0 f i SpeechSynthesis.obj
 0001:00009db0       ??B?$CComPtrBase@UIDataAdviseHolder@@@ATL@@QEBAPEAUIDataAdviseHolder@@XZ 000000018000adb0 f i SpeechSynthesis.obj
 0001:00009dc0       ??B?$CComPtrBase@UIDataObject@@@ATL@@QEBAPEAUIDataObject@@XZ 000000018000adc0 f i SpeechSynthesis.obj
 0001:00009dd0       ??B?$CComPtrBase@UIOleAdviseHolder@@@ATL@@QEBAPEAUIOleAdviseHolder@@XZ 000000018000add0 f i SpeechSynthesis.obj
 0001:00009de0       ??B?$CComPtrBase@UIOleClientSite@@@ATL@@QEBAPEAUIOleClientSite@@XZ 000000018000ade0 f i SpeechSynthesis.obj
 0001:00009df0       ??B?$CComPtrBase@UIOleControlSite@@@ATL@@QEBAPEAUIOleControlSite@@XZ 000000018000adf0 f i SpeechSynthesis.obj
 0001:00009e00       ??B?$CComPtrBase@UIOleInPlaceActiveObject@@@ATL@@QEBAPEAUIOleInPlaceActiveObject@@XZ 000000018000ae00 f i SpeechSynthesis.obj
 0001:00009e10       ??B?$CComPtrBase@UIOleInPlaceFrame@@@ATL@@QEBAPEAUIOleInPlaceFrame@@XZ 000000018000ae10 f i SpeechSynthesis.obj
 0001:00009e20       ??B?$CComPtrBase@UIOleInPlaceSiteWindowless@@@ATL@@QEBAPEAUIOleInPlaceSiteWindowless@@XZ 000000018000ae20 f i SpeechSynthesis.obj
 0001:00009e30       ??B?$CComPtrBase@UIOleInPlaceUIWindow@@@ATL@@QEBAPEAUIOleInPlaceUIWindow@@XZ 000000018000ae30 f i SpeechSynthesis.obj
 0001:00009e40       ??B?$CComPtrBase@UIOleObject@@@ATL@@QEBAPEAUIOleObject@@XZ 000000018000ae40 f i SpeechSynthesis.obj
 0001:00009e50       ??B?$CComPtrBase@UIPersistStream@@@ATL@@QEBAPEAUIPersistStream@@XZ 000000018000ae50 f i SpeechSynthesis.obj
 0001:00009e60       ??B?$CComPtrBase@UIProvideClassInfo2@@@ATL@@QEBAPEAUIProvideClassInfo2@@XZ 000000018000ae60 f i SpeechSynthesis.obj
 0001:00009e70       ??B?$CComPtrBase@UISpecifyPropertyPages@@@ATL@@QEBAPEAUISpecifyPropertyPages@@XZ 000000018000ae70 f i SpeechSynthesis.obj
 0001:00009e80       ??B?$CComPtrBase@UIStream@@@ATL@@QEBAPEAUIStream@@XZ 000000018000ae80 f i SpeechSynthesis.obj
 0001:00009e90       ??B?$CComPtrBase@UITypeInfo2@@@ATL@@QEBAPEAUITypeInfo2@@XZ 000000018000ae90 f i SpeechSynthesis.obj
 0001:00009ea0       ??B?$CComPtrBase@UITypeInfo@@@ATL@@QEBAPEAUITypeInfo@@XZ 000000018000aea0 f i SpeechSynthesis.obj
 0001:00009eb0       ??B?$CComPtrBase@UITypeLib@@@ATL@@QEBAPEAUITypeLib@@XZ 000000018000aeb0 f i SpeechSynthesis.obj
 0001:00009ec0       ??B?$CComPtrBase@UIUnknown@@@ATL@@QEBAPEAUIUnknown@@XZ 000000018000aec0 f i SpeechSynthesis.obj
 0001:00009ed0       ??B?$CTempBuffer@E$0BAA@VCCRTAllocator@ATL@@@ATL@@QEBAPEAEXZ 000000018000aed0 f i SpeechSynthesis.obj
 0001:00009ee0       ??B?$CTempBuffer@_W$0BAA@VCCRTAllocator@ATL@@@ATL@@QEBAPEA_WXZ 000000018000aee0 f i SpeechSynthesis.obj
 0001:00009ef0       ??B?$CTempBuffer@_W$0EAA@VCCRTAllocator@ATL@@@ATL@@QEBAPEA_WXZ 000000018000aef0 f i SpeechSynthesis.obj
 0001:00009f00       ??B?$CTraceCategoryEx@$00$0A@@ATL@@QEAAIXZ 000000018000af00 f i SpeechSynthesis.obj
 0001:00009f10       ??B?$CTraceCategoryEx@$07$0A@@ATL@@QEAAIXZ 000000018000af10 f i SpeechSynthesis.obj
 0001:00009f20       ??B?$CTraceCategoryEx@$0CAAA@$0A@@ATL@@QEAAIXZ 000000018000af20 f i SpeechSynthesis.obj
 0001:00009f30       ??B?$CTraceCategoryEx@$0EA@$0A@@ATL@@QEAAIXZ 000000018000af30 f i SpeechSynthesis.obj
 0001:00009f40       ??B?$CTraceCategoryEx@$0IAA@$0A@@ATL@@QEAAIXZ 000000018000af40 f i SpeechSynthesis.obj
 0001:00009f50       ??BCComBSTR@ATL@@QEBAPEA_WXZ 000000018000af50 f i SpeechSynthesis.obj
 0001:00009f60       ??BCRegKey@ATL@@QEBAPEAUHKEY__@@XZ 000000018000af60 f i SpeechSynthesis.obj
 0001:00009f70       ??C?$CComPtrBase@UIAdviseSink@@@ATL@@QEBAPEAV?$_NoAddRefReleaseOnCComPtr@UIAdviseSink@@@1@XZ 000000018000af70 f i SpeechSynthesis.obj
 0001:00009ff0       ??C?$CComPtrBase@UICatRegister@@@ATL@@QEBAPEAV?$_NoAddRefReleaseOnCComPtr@UICatRegister@@@1@XZ 000000018000aff0 f i SpeechSynthesis.obj
 0001:0000a070       ??C?$CComPtrBase@UIConnectionPoint@@@ATL@@QEBAPEAV?$_NoAddRefReleaseOnCComPtr@UIConnectionPoint@@@1@XZ 000000018000b070 f i SpeechSynthesis.obj
 0001:0000a0f0       ??C?$CComPtrBase@UIConnectionPointContainer@@@ATL@@QEBAPEAV?$_NoAddRefReleaseOnCComPtr@UIConnectionPointContainer@@@1@XZ 000000018000b0f0 f i SpeechSynthesis.obj
 0001:0000a170       ??C?$CComPtrBase@UIDataAdviseHolder@@@ATL@@QEBAPEAV?$_NoAddRefReleaseOnCComPtr@UIDataAdviseHolder@@@1@XZ 000000018000b170 f i SpeechSynthesis.obj
 0001:0000a1f0       ??C?$CComPtrBase@UIOleAdviseHolder@@@ATL@@QEBAPEAV?$_NoAddRefReleaseOnCComPtr@UIOleAdviseHolder@@@1@XZ 000000018000b1f0 f i SpeechSynthesis.obj
 0001:0000a270       ??C?$CComPtrBase@UIOleClientSite@@@ATL@@QEBAPEAV?$_NoAddRefReleaseOnCComPtr@UIOleClientSite@@@1@XZ 000000018000b270 f i SpeechSynthesis.obj
 0001:0000a2f0       ??C?$CComPtrBase@UIOleControlSite@@@ATL@@QEBAPEAV?$_NoAddRefReleaseOnCComPtr@UIOleControlSite@@@1@XZ 000000018000b2f0 f i SpeechSynthesis.obj
 0001:0000a370       ??C?$CComPtrBase@UIOleInPlaceFrame@@@ATL@@QEBAPEAV?$_NoAddRefReleaseOnCComPtr@UIOleInPlaceFrame@@@1@XZ 000000018000b370 f i SpeechSynthesis.obj
 0001:0000a3f0       ??C?$CComPtrBase@UIOleInPlaceObject@@@ATL@@QEBAPEAV?$_NoAddRefReleaseOnCComPtr@UIOleInPlaceObject@@@1@XZ 000000018000b3f0 f i SpeechSynthesis.obj
 0001:0000a470       ??C?$CComPtrBase@UIOleInPlaceSiteWindowless@@@ATL@@QEBAPEAV?$_NoAddRefReleaseOnCComPtr@UIOleInPlaceSiteWindowless@@@1@XZ 000000018000b470 f i SpeechSynthesis.obj
 0001:0000a4f0       ??C?$CComPtrBase@UIOleInPlaceUIWindow@@@ATL@@QEBAPEAV?$_NoAddRefReleaseOnCComPtr@UIOleInPlaceUIWindow@@@1@XZ 000000018000b4f0 f i SpeechSynthesis.obj
 0001:0000a570       ??C?$CComPtrBase@UIOleObject@@@ATL@@QEBAPEAV?$_NoAddRefReleaseOnCComPtr@UIOleObject@@@1@XZ 000000018000b570 f i SpeechSynthesis.obj
 0001:0000a5f0       ??C?$CComPtrBase@UIPersistStream@@@ATL@@QEBAPEAV?$_NoAddRefReleaseOnCComPtr@UIPersistStream@@@1@XZ 000000018000b5f0 f i SpeechSynthesis.obj
 0001:0000a670       ??C?$CComPtrBase@UIPersistStreamInit@@@ATL@@QEBAPEAV?$_NoAddRefReleaseOnCComPtr@UIPersistStreamInit@@@1@XZ 000000018000b670 f i SpeechSynthesis.obj
 0001:0000a6f0       ??C?$CComPtrBase@UIPointerInactive@@@ATL@@QEBAPEAV?$_NoAddRefReleaseOnCComPtr@UIPointerInactive@@@1@XZ 000000018000b6f0 f i SpeechSynthesis.obj
 0001:0000a770       ??C?$CComPtrBase@UIProvideClassInfo2@@@ATL@@QEBAPEAV?$_NoAddRefReleaseOnCComPtr@UIProvideClassInfo2@@@1@XZ 000000018000b770 f i SpeechSynthesis.obj
 0001:0000a7f0       ??C?$CComPtrBase@UISpecifyPropertyPages@@@ATL@@QEBAPEAV?$_NoAddRefReleaseOnCComPtr@UISpecifyPropertyPages@@@1@XZ 000000018000b7f0 f i SpeechSynthesis.obj
 0001:0000a870       ??C?$CComPtrBase@UITypeInfo@@@ATL@@QEBAPEAV?$_NoAddRefReleaseOnCComPtr@UITypeInfo@@@1@XZ 000000018000b870 f i SpeechSynthesis.obj
 0001:0000a8f0       ??C?$CComPtrBase@UITypeLib@@@ATL@@QEBAPEAV?$_NoAddRefReleaseOnCComPtr@UITypeLib@@@1@XZ 000000018000b8f0 f i SpeechSynthesis.obj
 0001:0000a970       ??C?$CComPtrBase@UIUnknown@@@ATL@@QEBAPEAV?$_NoAddRefReleaseOnCComPtr@UIUnknown@@@1@XZ 000000018000b970 f i SpeechSynthesis.obj
 0001:0000a9f0       ??C?$CComPtrBase@UIViewObjectEx@@@ATL@@QEBAPEAV?$_NoAddRefReleaseOnCComPtr@UIViewObjectEx@@@1@XZ 000000018000b9f0 f i SpeechSynthesis.obj
 0001:0000aa70       ??I?$CComPtrBase@UICatRegister@@@ATL@@QEAAPEAPEAUICatRegister@@XZ 000000018000ba70 f i SpeechSynthesis.obj
 0001:0000aae0       ??I?$CComPtrBase@UIConnectionPoint@@@ATL@@QEAAPEAPEAUIConnectionPoint@@XZ 000000018000bae0 f i SpeechSynthesis.obj
 0001:0000ab50       ??I?$CComPtrBase@UIConnectionPointContainer@@@ATL@@QEAAPEAPEAUIConnectionPointContainer@@XZ 000000018000bb50 f i SpeechSynthesis.obj
 0001:0000abc0       ??I?$CComPtrBase@UIDataAdviseHolder@@@ATL@@QEAAPEAPEAUIDataAdviseHolder@@XZ 000000018000bbc0 f i SpeechSynthesis.obj
 0001:0000ac30       ??I?$CComPtrBase@UIDataObject@@@ATL@@QEAAPEAPEAUIDataObject@@XZ 000000018000bc30 f i SpeechSynthesis.obj
 0001:0000aca0       ??I?$CComPtrBase@UIDispatch@@@ATL@@QEAAPEAPEAUIDispatch@@XZ 000000018000bca0 f i SpeechSynthesis.obj
 0001:0000ad10       ??I?$CComPtrBase@UIOleAdviseHolder@@@ATL@@QEAAPEAPEAUIOleAdviseHolder@@XZ 000000018000bd10 f i SpeechSynthesis.obj
 0001:0000ad80       ??I?$CComPtrBase@UIOleControlSite@@@ATL@@QEAAPEAPEAUIOleControlSite@@XZ 000000018000bd80 f i SpeechSynthesis.obj
 0001:0000adf0       ??I?$CComPtrBase@UIOleInPlaceActiveObject@@@ATL@@QEAAPEAPEAUIOleInPlaceActiveObject@@XZ 000000018000bdf0 f i SpeechSynthesis.obj
 0001:0000ae60       ??I?$CComPtrBase@UIOleInPlaceFrame@@@ATL@@QEAAPEAPEAUIOleInPlaceFrame@@XZ 000000018000be60 f i SpeechSynthesis.obj
 0001:0000aed0       ??I?$CComPtrBase@UIOleInPlaceObject@@@ATL@@QEAAPEAPEAUIOleInPlaceObject@@XZ 000000018000bed0 f i SpeechSynthesis.obj
 0001:0000af40       ??I?$CComPtrBase@UIOleInPlaceSiteWindowless@@@ATL@@QEAAPEAPEAUIOleInPlaceSiteWindowless@@XZ 000000018000bf40 f i SpeechSynthesis.obj
 0001:0000afb0       ??I?$CComPtrBase@UIOleInPlaceUIWindow@@@ATL@@QEAAPEAPEAUIOleInPlaceUIWindow@@XZ 000000018000bfb0 f i SpeechSynthesis.obj
 0001:0000b020       ??I?$CComPtrBase@UIOleObject@@@ATL@@QEAAPEAPEAUIOleObject@@XZ 000000018000c020 f i SpeechSynthesis.obj
 0001:0000b090       ??I?$CComPtrBase@UIPersistStream@@@ATL@@QEAAPEAPEAUIPersistStream@@XZ 000000018000c090 f i SpeechSynthesis.obj
 0001:0000b100       ??I?$CComPtrBase@UIPointerInactive@@@ATL@@QEAAPEAPEAUIPointerInactive@@XZ 000000018000c100 f i SpeechSynthesis.obj
 0001:0000b170       ??I?$CComPtrBase@UIProvideClassInfo2@@@ATL@@QEAAPEAPEAUIProvideClassInfo2@@XZ 000000018000c170 f i SpeechSynthesis.obj
 0001:0000b1e0       ??I?$CComPtrBase@UIStream@@@ATL@@QEAAPEAPEAUIStream@@XZ 000000018000c1e0 f i SpeechSynthesis.obj
 0001:0000b250       ??I?$CComPtrBase@UITypeInfo2@@@ATL@@QEAAPEAPEAUITypeInfo2@@XZ 000000018000c250 f i SpeechSynthesis.obj
 0001:0000b2c0       ??I?$CComPtrBase@UITypeInfo@@@ATL@@QEAAPEAPEAUITypeInfo@@XZ 000000018000c2c0 f i SpeechSynthesis.obj
 0001:0000b330       ??I?$CComPtrBase@UITypeLib@@@ATL@@QEAAPEAPEAUITypeLib@@XZ 000000018000c330 f i SpeechSynthesis.obj
 0001:0000b3a0       ??I?$CComPtrBase@UIUnknown@@@ATL@@QEAAPEAPEAUIUnknown@@XZ 000000018000c3a0 f i SpeechSynthesis.obj
 0001:0000b410       ??I?$CComPtrBase@UIViewObjectEx@@@ATL@@QEAAPEAPEAUIViewObjectEx@@XZ 000000018000c410 f i SpeechSynthesis.obj
 0001:0000b480       ??ICComBSTR@ATL@@QEAAPEAPEA_WXZ 000000018000c480 f i SpeechSynthesis.obj
 0001:0000b490       ??_E?$CComContainedObject@VCOPOSSpeechSynthesis@@@ATL@@W7EAAPEAXI@Z 000000018000c490 f i SpeechSynthesis.obj
 0001:0000b49c       ??_E?$CComContainedObject@VCOPOSSpeechSynthesis@@@ATL@@WHA@EAAPEAXI@Z 000000018000c49c f i SpeechSynthesis.obj
 0001:0000b4a8       ??_E?$CComObject@VCOPOSSpeechSynthesis@@@ATL@@W7EAAPEAXI@Z 000000018000c4a8 f i SpeechSynthesis.obj
 0001:0000b4b4       ??_E?$CComObject@VCOPOSSpeechSynthesis@@@ATL@@WHA@EAAPEAXI@Z 000000018000c4b4 f i SpeechSynthesis.obj
 0001:0000b4c0       ??_G?$CComAggObject@VCOPOSSpeechSynthesis@@@ATL@@UEAAPEAXI@Z 000000018000c4c0 f i SpeechSynthesis.obj
 0001:0000b4c0       ??_E?$CComAggObject@VCOPOSSpeechSynthesis@@@ATL@@UEAAPEAXI@Z 000000018000c4c0 f i SpeechSynthesis.obj
 0001:0000b520       ??_E?$CComContainedObject@VCOPOSSpeechSynthesis@@@ATL@@UEAAPEAXI@Z 000000018000c520 f i SpeechSynthesis.obj
 0001:0000b520       ??_G?$CComContainedObject@VCOPOSSpeechSynthesis@@@ATL@@UEAAPEAXI@Z 000000018000c520 f i SpeechSynthesis.obj
 0001:0000b580       ??_E?$CComObject@V?$CComEnum@UIEnumConnectionPoints@@$1?_GUID_b196b285_bab4_101a_b69c_00aa00341d07@@3U__s_GUID@@BPEAUIConnectionPoint@@V?$_CopyInterface@UIConnectionPoint@@@ATL@@VCComSingleThreadModel@6@@ATL@@@ATL@@UEAAPEAXI@Z 000000018000c580 f i SpeechSynthesis.obj
 0001:0000b580       ??_G?$CComObject@V?$CComEnum@UIEnumConnectionPoints@@$1?_GUID_b196b285_bab4_101a_b69c_00aa00341d07@@3U__s_GUID@@BPEAUIConnectionPoint@@V?$_CopyInterface@UIConnectionPoint@@@ATL@@VCComSingleThreadModel@6@@ATL@@@ATL@@UEAAPEAXI@Z 000000018000c580 f i SpeechSynthesis.obj
 0001:0000b5e0       ??_E?$CComObject@V?$CComEnum@UIEnumConnections@@$1?_GUID_b196b287_bab4_101a_b69c_00aa00341d07@@3U__s_GUID@@BUtagCONNECTDATA@@V?$_Copy@UtagCONNECTDATA@@@ATL@@VCComSingleThreadModel@6@@ATL@@@ATL@@UEAAPEAXI@Z 000000018000c5e0 f i SpeechSynthesis.obj
 0001:0000b5e0       ??_G?$CComObject@V?$CComEnum@UIEnumConnections@@$1?_GUID_b196b287_bab4_101a_b69c_00aa00341d07@@3U__s_GUID@@BUtagCONNECTDATA@@V?$_Copy@UtagCONNECTDATA@@@ATL@@VCComSingleThreadModel@6@@ATL@@@ATL@@UEAAPEAXI@Z 000000018000c5e0 f i SpeechSynthesis.obj
 0001:0000b640       ??_G?$CComObject@VCOPOSSpeechSynthesis@@@ATL@@UEAAPEAXI@Z 000000018000c640 f i SpeechSynthesis.obj
 0001:0000b640       ??_E?$CComObject@VCOPOSSpeechSynthesis@@@ATL@@UEAAPEAXI@Z 000000018000c640 f i SpeechSynthesis.obj
 0001:0000b6a0       ??_E?$CComObjectCached@VCComClassFactory@ATL@@@ATL@@UEAAPEAXI@Z 000000018000c6a0 f i SpeechSynthesis.obj
 0001:0000b6a0       ??_G?$CComObjectCached@VCComClassFactory@ATL@@@ATL@@UEAAPEAXI@Z 000000018000c6a0 f i SpeechSynthesis.obj
 0001:0000b700       ??_ECComClassFactory@ATL@@UEAAPEAXI@Z 000000018000c700 f i SpeechSynthesis.obj
 0001:0000b700       ??_GCComClassFactory@ATL@@UEAAPEAXI@Z 000000018000c700 f i SpeechSynthesis.obj
 0001:0000b760       ??_GCComModule@ATL@@UEAAPEAXI@Z 000000018000c760 f i SpeechSynthesis.obj
 0001:0000b760       ??_ECComModule@ATL@@UEAAPEAXI@Z 000000018000c760 f i SpeechSynthesis.obj
 0001:0000b7c0       ??_GCRegObject@ATL@@UEAAPEAXI@Z 000000018000c7c0 f i SpeechSynthesis.obj
 0001:0000b7c0       ??_ECRegObject@ATL@@UEAAPEAXI@Z 000000018000c7c0 f i SpeechSynthesis.obj
 0001:0000b820       ?Add@?$CSimpleArray@GV?$CSimpleArrayEqualHelper@G@ATL@@@ATL@@QEAAHAEBG@Z 000000018000c820 f i SpeechSynthesis.obj
 0001:0000b9c0       ?Add@?$CSimpleMap@PEA_WPEA_WVCExpansionVectorEqualHelper@ATL@@@ATL@@QEAAHAEBQEA_W0@Z 000000018000c9c0 f i SpeechSynthesis.obj
 0001:0000bab0       ?Add@CComDynamicUnkArray@ATL@@QEAAKPEAUIUnknown@@@Z 000000018000cab0 f i SpeechSynthesis.obj
 0001:0000bc90       ?Add@CExpansionVector@ATL@@QEAAHPEB_W0@Z 000000018000cc90 f i SpeechSynthesis.obj
 0001:0000bfc0       ?AddChar@CParseBuffer@CRegParser@ATL@@QEAAHPEB_W@Z 000000018000cfc0 f i SpeechSynthesis.obj
 0001:0000c010       ?AddCommonRGSReplacements@?$CAtlModuleT@VCComModule@ATL@@@ATL@@UEAAJPEAUIRegistrarBase@@@Z 000000018000d010 f i SpeechSynthesis.obj
 0001:0000c070       ?AddCreateWndData@CAtlWinModule@ATL@@QEAAXPEAU_AtlCreateWndData@2@PEAX@Z 000000018000d070 f i SpeechSynthesis.obj
 0001:0000c0c0       ?AddRef@?$CComAggObject@VCOPOSSpeechSynthesis@@@ATL@@UEAAKXZ 000000018000d0c0 f i SpeechSynthesis.obj
 0001:0000c100       ?AddRef@?$CComContainedObject@VCOPOSSpeechSynthesis@@@ATL@@UEAAKXZ 000000018000d100 f i SpeechSynthesis.obj
 0001:0000c138       ?AddRef@?$CComContainedObject@VCOPOSSpeechSynthesis@@@ATL@@WBAA@EAAKXZ 000000018000d138 f i SpeechSynthesis.obj
 0001:0000c144       ?AddRef@?$CComContainedObject@VCOPOSSpeechSynthesis@@@ATL@@WBAI@EAAKXZ 000000018000d144 f i SpeechSynthesis.obj
 0001:0000c150       ?AddRef@?$CComContainedObject@VCOPOSSpeechSynthesis@@@ATL@@WBBA@EAAKXZ 000000018000d150 f i SpeechSynthesis.obj
 0001:0000c15c       ?AddRef@?$CComContainedObject@VCOPOSSpeechSynthesis@@@ATL@@WBBI@EAAKXZ 000000018000d15c f i SpeechSynthesis.obj
 0001:0000c168       ?AddRef@?$CComContainedObject@VCOPOSSpeechSynthesis@@@ATL@@WBCI@EAAKXZ 000000018000d168 f i SpeechSynthesis.obj
 0001:0000c174       ?AddRef@?$CComContainedObject@VCOPOSSpeechSynthesis@@@ATL@@WBEA@EAAKXZ 000000018000d174 f i SpeechSynthesis.obj
 0001:0000c180       ?AddRef@?$CComContainedObject@VCOPOSSpeechSynthesis@@@ATL@@WLI@EAAKXZ 000000018000d180 f i SpeechSynthesis.obj
 0001:0000c18c       ?AddRef@?$CComContainedObject@VCOPOSSpeechSynthesis@@@ATL@@WMA@EAAKXZ 000000018000d18c f i SpeechSynthesis.obj
 0001:0000c198       ?AddRef@?$CComContainedObject@VCOPOSSpeechSynthesis@@@ATL@@WMI@EAAKXZ 000000018000d198 f i SpeechSynthesis.obj
 0001:0000c1a4       ?AddRef@?$CComContainedObject@VCOPOSSpeechSynthesis@@@ATL@@WNA@EAAKXZ 000000018000d1a4 f i SpeechSynthesis.obj
 0001:0000c1b0       ?AddRef@?$CComContainedObject@VCOPOSSpeechSynthesis@@@ATL@@WNI@EAAKXZ 000000018000d1b0 f i SpeechSynthesis.obj
 0001:0000c1bc       ?AddRef@?$CComContainedObject@VCOPOSSpeechSynthesis@@@ATL@@WOA@EAAKXZ 000000018000d1bc f i SpeechSynthesis.obj
 0001:0000c1c8       ?AddRef@?$CComContainedObject@VCOPOSSpeechSynthesis@@@ATL@@WOI@EAAKXZ 000000018000d1c8 f i SpeechSynthesis.obj
 0001:0000c1d4       ?AddRef@?$CComContainedObject@VCOPOSSpeechSynthesis@@@ATL@@WPA@EAAKXZ 000000018000d1d4 f i SpeechSynthesis.obj
 0001:0000c1e0       ?AddRef@?$CComContainedObject@VCOPOSSpeechSynthesis@@@ATL@@WPI@EAAKXZ 000000018000d1e0 f i SpeechSynthesis.obj
 0001:0000c1f0       ?AddRef@?$CComObject@V?$CComEnum@UIEnumConnectionPoints@@$1?_GUID_b196b285_bab4_101a_b69c_00aa00341d07@@3U__s_GUID@@BPEAUIConnectionPoint@@V?$_CopyInterface@UIConnectionPoint@@@ATL@@VCComSingleThreadModel@6@@ATL@@@ATL@@UEAAKXZ 000000018000d1f0 f i SpeechSynthesis.obj
 0001:0000c230       ?AddRef@?$CComObject@V?$CComEnum@UIEnumConnections@@$1?_GUID_b196b287_bab4_101a_b69c_00aa00341d07@@3U__s_GUID@@BUtagCONNECTDATA@@V?$_Copy@UtagCONNECTDATA@@@ATL@@VCComSingleThreadModel@6@@ATL@@@ATL@@UEAAKXZ 000000018000d230 f i SpeechSynthesis.obj
 0001:0000c270       ?AddRef@?$CComObject@VCOPOSSpeechSynthesis@@@ATL@@UEAAKXZ 000000018000d270 f i SpeechSynthesis.obj
 0001:0000c2a8       ?AddRef@?$CComObject@VCOPOSSpeechSynthesis@@@ATL@@WBAA@EAAKXZ 000000018000d2a8 f i SpeechSynthesis.obj
 0001:0000c2b4       ?AddRef@?$CComObject@VCOPOSSpeechSynthesis@@@ATL@@WBAI@EAAKXZ 000000018000d2b4 f i SpeechSynthesis.obj
 0001:0000c2c0       ?AddRef@?$CComObject@VCOPOSSpeechSynthesis@@@ATL@@WBBA@EAAKXZ 000000018000d2c0 f i SpeechSynthesis.obj
 0001:0000c2cc       ?AddRef@?$CComObject@VCOPOSSpeechSynthesis@@@ATL@@WBBI@EAAKXZ 000000018000d2cc f i SpeechSynthesis.obj
 0001:0000c2d8       ?AddRef@?$CComObject@VCOPOSSpeechSynthesis@@@ATL@@WBCI@EAAKXZ 000000018000d2d8 f i SpeechSynthesis.obj
 0001:0000c2e4       ?AddRef@?$CComObject@VCOPOSSpeechSynthesis@@@ATL@@WBEA@EAAKXZ 000000018000d2e4 f i SpeechSynthesis.obj
 0001:0000c2f0       ?AddRef@?$CComObject@VCOPOSSpeechSynthesis@@@ATL@@WLI@EAAKXZ 000000018000d2f0 f i SpeechSynthesis.obj
 0001:0000c2fc       ?AddRef@?$CComObject@VCOPOSSpeechSynthesis@@@ATL@@WMA@EAAKXZ 000000018000d2fc f i SpeechSynthesis.obj
 0001:0000c308       ?AddRef@?$CComObject@VCOPOSSpeechSynthesis@@@ATL@@WMI@EAAKXZ 000000018000d308 f i SpeechSynthesis.obj
 0001:0000c314       ?AddRef@?$CComObject@VCOPOSSpeechSynthesis@@@ATL@@WNA@EAAKXZ 000000018000d314 f i SpeechSynthesis.obj
 0001:0000c320       ?AddRef@?$CComObject@VCOPOSSpeechSynthesis@@@ATL@@WNI@EAAKXZ 000000018000d320 f i SpeechSynthesis.obj
 0001:0000c32c       ?AddRef@?$CComObject@VCOPOSSpeechSynthesis@@@ATL@@WOA@EAAKXZ 000000018000d32c f i SpeechSynthesis.obj
 0001:0000c338       ?AddRef@?$CComObject@VCOPOSSpeechSynthesis@@@ATL@@WOI@EAAKXZ 000000018000d338 f i SpeechSynthesis.obj
 0001:0000c344       ?AddRef@?$CComObject@VCOPOSSpeechSynthesis@@@ATL@@WPA@EAAKXZ 000000018000d344 f i SpeechSynthesis.obj
 0001:0000c350       ?AddRef@?$CComObject@VCOPOSSpeechSynthesis@@@ATL@@WPI@EAAKXZ 000000018000d350 f i SpeechSynthesis.obj
 0001:0000c360       ?AddRef@?$CComObjectCached@VCComClassFactory@ATL@@@ATL@@UEAAKXZ 000000018000d360 f i SpeechSynthesis.obj
 0001:0000c3c0       ?AddRef@CRegObject@ATL@@UEAAKXZ 000000018000d3c0 f i SpeechSynthesis.obj
 0001:0000c430       ?AddReplacement@CRegObject@ATL@@UEAAJPEB_W0@Z 000000018000d430 f i SpeechSynthesis.obj
 0001:0000c560       ?AddString@CParseBuffer@CRegParser@ATL@@QEAAHPEB_W@Z 000000018000d560 f i SpeechSynthesis.obj
 0001:0000c650       ?AddTermFunc@CAtlModule@ATL@@QEAAJP6AX_K@Z0@Z 000000018000d650 f i SpeechSynthesis.obj
 0001:0000c6c0       ?AddValue@CRegParser@ATL@@IEAAJAEAVCRegKey@2@PEB_WPEA_W@Z 000000018000d6c0 f i SpeechSynthesis.obj
 0001:0000cf90       ?Advise@?$CProxy_IOPOSEvents@VCOPOSSpeechSynthesis@@@@UEAAJPEAUIUnknown@@PEAK@Z 000000018000df90 f i SpeechSynthesis.obj
 0001:0000d000       ?Advise@?$IConnectionPointImpl@VCOPOSSpeechSynthesis@@$1?DIID__IOPOSSpeechSynthesisEvents@@3U_GUID@@BVCComDynamicUnkArray@ATL@@@ATL@@UEAAJPEAUIUnknown@@PEAK@Z 000000018000e000 f i SpeechSynthesis.obj
 0001:0000d200       ?Advise@?$IConnectionPointImpl@VCOPOSSpeechSynthesis@@$1?IID_IPropertyNotifySink@@3U_GUID@@BVCComDynamicUnkArray@ATL@@@ATL@@UEAAJPEAUIUnknown@@PEAK@Z 000000018000e200 f i SpeechSynthesis.obj
 0001:0000d400       ?Advise@?$IOleObjectImpl@VCOPOSSpeechSynthesis@@@ATL@@UEAAJPEAUIAdviseSink@@PEAK@Z 000000018000e400 f i SpeechSynthesis.obj
 0001:0000d4c0       ?Allocate@?$CAtlSafeAllocBufferManager@VCCRTAllocator@ATL@@@_ATL_SAFE_ALLOCA_IMPL@ATL@@QEAAPEAX_K@Z 000000018000e4c0 f i SpeechSynthesis.obj
 0001:0000d540       ?Allocate@?$CTempBuffer@E$0BAA@VCCRTAllocator@ATL@@@ATL@@QEAAPEAE_K@Z 000000018000e540 f i SpeechSynthesis.obj
 0001:0000d590       ?Allocate@?$CTempBuffer@_W$0BAA@VCCRTAllocator@ATL@@@ATL@@QEAAPEA_W_K@Z 000000018000e590 f i SpeechSynthesis.obj
 0001:0000d5e0       ?Allocate@?$CTempBuffer@_W$0EAA@VCCRTAllocator@ATL@@@ATL@@QEAAPEA_W_K@Z 000000018000e5e0 f i SpeechSynthesis.obj
 0001:0000d630       ?AllocateBytes@?$CTempBuffer@E$0BAA@VCCRTAllocator@ATL@@@ATL@@QEAAPEAE_K@Z 000000018000e630 f i SpeechSynthesis.obj
 0001:0000d6e0       ?AllocateBytes@?$CTempBuffer@_W$0BAA@VCCRTAllocator@ATL@@@ATL@@QEAAPEA_W_K@Z 000000018000e6e0 f i SpeechSynthesis.obj
 0001:0000d790       ?AllocateBytes@?$CTempBuffer@_W$0EAA@VCCRTAllocator@ATL@@@ATL@@QEAAPEA_W_K@Z 000000018000e790 f i SpeechSynthesis.obj
 0001:0000d840       ?AllocateHeap@?$CTempBuffer@E$0BAA@VCCRTAllocator@ATL@@@ATL@@AEAAX_K@Z 000000018000e840 f i SpeechSynthesis.obj
 0001:0000d8a0       ?AllocateHeap@?$CTempBuffer@_W$0BAA@VCCRTAllocator@ATL@@@ATL@@AEAAX_K@Z 000000018000e8a0 f i SpeechSynthesis.obj
 0001:0000d900       ?AllocateHeap@?$CTempBuffer@_W$0EAA@VCCRTAllocator@ATL@@@ATL@@AEAAX_K@Z 000000018000e900 f i SpeechSynthesis.obj
 0001:0000d960       ?Append@CParseBuffer@CRegParser@ATL@@QEAAHPEB_WH@Z 000000018000e960 f i SpeechSynthesis.obj
 0001:0000db90       ?AtlCallTermFunc@ATL@@YAXPEAU_ATL_MODULE70@1@@Z 000000018000eb90 f i SpeechSynthesis.obj
 0001:0000dc40       ?AtlCoTaskMemCAlloc@ATL@@YAPEAXKK@Z 000000018000ec40 f i SpeechSynthesis.obj
 0001:0000dcc0       ?AtlCoTaskMemRecalloc@ATL@@YAPEAXPEAXKK@Z 000000018000ecc0 f i SpeechSynthesis.obj
 0001:0000dd40       ?AtlComModuleGetClassObject@ATL@@YAJPEAU_ATL_COM_MODULE70@1@AEBU_GUID@@1PEAPEAX@Z 000000018000ed40 f i SpeechSynthesis.obj
 0001:0000e070       ?AtlComModuleRegisterServer@ATL@@YAJPEAU_ATL_COM_MODULE70@1@HPEBU_GUID@@@Z 000000018000f070 f i SpeechSynthesis.obj
 0001:0000e270       ?AtlComModuleUnregisterServer@ATL@@YAJPEAU_ATL_COM_MODULE70@1@HPEBU_GUID@@@Z 000000018000f270 f i SpeechSynthesis.obj
 0001:0000e3d0       ?AtlComQIPtrAssign2@ATL@@YAXPEAPEAUIUnknown@@PEAU2@AEBU_GUID@@@Z 000000018000f3d0 f i SpeechSynthesis.obj
 0001:0000e460       ?AtlCreateTargetDC@ATL@@YAPEAUHDC__@@PEAU2@PEAUtagDVTARGETDEVICE@@@Z 000000018000f460 f i SpeechSynthesis.obj
 0001:0000e690       ?AtlCrtErrorCheck@ATL@@YAHH@Z 000000018000f690 f i SpeechSynthesis.obj
 0001:0000e710       ?AtlGetPerUserRegistration@ATL@@YAJPEA_N@Z 000000018000f710 f i SpeechSynthesis.obj
 0001:0000e740       ?AtlHiMetricToPixel@ATL@@YAXPEBUtagSIZE@@PEAU2@@Z 000000018000f740 f i SpeechSynthesis.obj
 0001:0000e940       ?AtlHresultFromLastError@ATL@@YAJXZ 000000018000f940 f i SpeechSynthesis.obj
 0001:0000e970       ?AtlHresultFromWin32@ATL@@YAJK@Z 000000018000f970 f i SpeechSynthesis.obj
 0001:0000e9a0       ?AtlIPersistStreamInit_Load@ATL@@YAJPEAUIStream@@PEBUATL_PROPMAP_ENTRY@1@PEAXPEAUIUnknown@@@Z 000000018000f9a0 f i SpeechSynthesis.obj
 0001:0000f010       ?AtlIPersistStreamInit_Save@ATL@@YAJPEAUIStream@@HPEBUATL_PROPMAP_ENTRY@1@PEAXPEAUIUnknown@@@Z 0000000180010010 f i SpeechSynthesis.obj
 0001:0000f5a0       ?AtlInternalOleLoadFromStream@ATL@@YAJPEAUIStream@@AEBU_GUID@@PEAPEAXTClassesAllowedInStream@1@K@Z 00000001800105a0 f i SpeechSynthesis.obj
 0001:0000f8e0       ?AtlInternalQueryInterface@ATL@@YAJPEAXPEBU_ATL_INTMAP_ENTRY@1@AEBU_GUID@@PEAPEAX@Z 00000001800108e0 f i SpeechSynthesis.obj
 0001:0000fba0       ?AtlLoadTypeLib@ATL@@YAJPEAUHINSTANCE__@@PEB_WPEAPEA_WPEAPEAUITypeLib@@@Z 0000000180010ba0 f i SpeechSynthesis.obj
 0001:00010070       ?AtlModuleAddTermFunc@ATL@@YAJPEAU_ATL_MODULE70@1@P6AX_K@Z1@Z 0000000180011070 f i SpeechSynthesis.obj
 0001:00010240       ?AtlRegisterClassCategoriesHelper@ATL@@YAJAEBU_GUID@@PEBU_ATL_CATMAP_ENTRY@1@H@Z 0000000180011240 f i SpeechSynthesis.obj
 0001:00010a10       ?AtlRegisterTypeLib@ATL@@YAJPEAUHINSTANCE__@@PEB_W@Z 0000000180011a10 f i SpeechSynthesis.obj
 0001:00010d70       ?AtlThrowImpl@ATL@@YAXJ@Z  0000000180011d70 f i SpeechSynthesis.obj
 0001:00010e50       ?AtlUnRegisterTypeLib@ATL@@YAJPEAUHINSTANCE__@@PEB_W@Z 0000000180011e50 f i SpeechSynthesis.obj
 0001:00011080       ?AtlWinModuleAddCreateWndData@ATL@@YAXPEAU_ATL_WIN_MODULE70@1@PEAU_AtlCreateWndData@1@PEAX@Z 0000000180012080 f i SpeechSynthesis.obj
 0001:00011270       ?AtlWinModuleExtractCreateWndData@ATL@@YAPEAXPEAU_ATL_WIN_MODULE70@1@@Z 0000000180012270 f i SpeechSynthesis.obj
 0001:00011470       ?AtlWinModuleRegisterClassExW@ATL@@YAGPEAU_ATL_WIN_MODULE70@1@PEBUtagWNDCLASSEXW@@@Z 0000000180012470 f i SpeechSynthesis.obj
 0001:00011540       ?AtlWinModuleRegisterWndClassInfoW@ATL@@YAGPEAU_ATL_WIN_MODULE70@1@PEAU_ATL_BASE_MODULE70@1@PEAU_ATL_WNDCLASSINFOW@1@PEAP6A_JPEAUHWND__@@I_K_J@Z@Z 0000000180012540 f i SpeechSynthesis.obj
 0001:000115b0       ?Attach@?$CAutoVectorPtr@_W@ATL@@QEAAXPEA_W@Z 00000001800125b0 f i SpeechSynthesis.obj
 0001:00011640       ?Attach@CComBSTR@ATL@@QEAAXPEA_W@Z 0000000180012640 f i SpeechSynthesis.obj
 0001:000116a0       ?Attach@CRegKey@ATL@@QEAAXPEAUHKEY__@@@Z 00000001800126a0 f i SpeechSynthesis.obj
 0001:00011740       ?CanForceRemoveKey@CRegParser@ATL@@IEAAHPEB_W@Z 0000000180012740 f i SpeechSynthesis.obj
 0001:000117b0       ?ChToByte@CRegParser@ATL@@KAE_W@Z 00000001800127b0 f i SpeechSynthesis.obj
 0001:00011910       ?ChangeType@CComVariant@ATL@@QEAAJGPEBUtagVARIANT@@@Z 0000000180012910 f i SpeechSynthesis.obj
 0001:00011980       ?Cleanup@CComTypeInfoHolder@ATL@@SAX_K@Z 0000000180012980 f i SpeechSynthesis.obj
 0001:00011a70       ?Clear@CComVariant@ATL@@QEAAJXZ 0000000180012a70 f i SpeechSynthesis.obj
 0001:00011aa0       ?ClearReplacements@CExpansionVector@ATL@@QEAAJXZ 0000000180012aa0 f i SpeechSynthesis.obj
 0001:00011b40       ?ClearReplacements@CRegObject@ATL@@UEAAJXZ 0000000180012b40 f i SpeechSynthesis.obj
 0001:00011ba0       ?Clone@?$CComEnumImpl@UIEnumConnectionPoints@@$1?_GUID_b196b285_bab4_101a_b69c_00aa00341d07@@3U__s_GUID@@BPEAUIConnectionPoint@@V?$_CopyInterface@UIConnectionPoint@@@ATL@@@ATL@@UEAAJPEAPEAUIEnumConnectionPoints@@@Z 0000000180012ba0 f i SpeechSynthesis.obj
 0001:00011d90       ?Clone@?$CComEnumImpl@UIEnumConnections@@$1?_GUID_b196b287_bab4_101a_b69c_00aa00341d07@@3U__s_GUID@@BUtagCONNECTDATA@@V?$_Copy@UtagCONNECTDATA@@@ATL@@@ATL@@UEAAJPEAPEAUIEnumConnections@@@Z 0000000180012d90 f i SpeechSynthesis.obj
 0001:00011f80       ?Close@?$IOleObjectImpl@VCOPOSSpeechSynthesis@@@ATL@@UEAAJK@Z 0000000180012f80 f i SpeechSynthesis.obj
 0001:00012030       ?Close@CRegKey@ATL@@QEAAJXZ 0000000180013030 f i SpeechSynthesis.obj
 0001:000120a0       ?ContextSensitiveHelp@?$IOleInPlaceActiveObjectImpl@VCOPOSSpeechSynthesis@@@ATL@@UEAAJH@Z 00000001800130a0 f i SpeechSynthesis.obj
 0001:00012120       ?ContextSensitiveHelp@?$IOleInPlaceObjectWindowlessImpl@VCOPOSSpeechSynthesis@@@ATL@@UEAAJH@Z 0000000180013120 f i SpeechSynthesis.obj
 0001:000121a0       ?ControlQueryInterface@?$CComControl@VCOPOSSpeechSynthesis@@V?$CWindowImpl@VCOPOSSpeechSynthesis@@VCWindow@ATL@@V?$CWinTraits@$0FGAAAAAA@$0A@@3@@ATL@@@ATL@@UEAAJAEBU_GUID@@PEAPEAX@Z 00000001800131a0 f i SpeechSynthesis.obj
 0001:00012230       ?CreateControlWindow@?$CComControl@VCOPOSSpeechSynthesis@@V?$CWindowImpl@VCOPOSSpeechSynthesis@@VCWindow@ATL@@V?$CWinTraits@$0FGAAAAAA@$0A@@3@@ATL@@@ATL@@UEAAPEAUHWND__@@PEAU3@AEAUtagRECT@@@Z 0000000180013230 f i SpeechSynthesis.obj
 0001:00012320       ?CreateInstance@?$CComCreator@V?$CComAggObject@VCOPOSSpeechSynthesis@@@ATL@@@ATL@@SAJPEAXAEBU_GUID@@PEAPEAX@Z 0000000180013320 f i SpeechSynthesis.obj
 0001:00012500       ?CreateInstance@?$CComCreator@V?$CComObject@VCOPOSSpeechSynthesis@@@ATL@@@ATL@@SAJPEAXAEBU_GUID@@PEAPEAX@Z 0000000180013500 f i SpeechSynthesis.obj
 0001:00012700       ?CreateInstance@?$CComObject@V?$CComEnum@UIEnumConnectionPoints@@$1?_GUID_b196b285_bab4_101a_b69c_00aa00341d07@@3U__s_GUID@@BPEAUIConnectionPoint@@V?$_CopyInterface@UIConnectionPoint@@@ATL@@VCComSingleThreadModel@6@@ATL@@@ATL@@SAJPEAPEAV12@@Z 0000000180013700 f i SpeechSynthesis.obj
 0001:000128c0       ?CreateInstance@?$CComObject@V?$CComEnum@UIEnumConnections@@$1?_GUID_b196b287_bab4_101a_b69c_00aa00341d07@@3U__s_GUID@@BUtagCONNECTDATA@@V?$_Copy@UtagCONNECTDATA@@@ATL@@VCComSingleThreadModel@6@@ATL@@@ATL@@SAJPEAPEAV12@@Z 00000001800138c0 f i SpeechSynthesis.obj
 0001:00012a80       ?CreateInstance@CComClassFactory@ATL@@UEAAJPEAUIUnknown@@AEBU_GUID@@PEAPEAX@Z 0000000180013a80 f i SpeechSynthesis.obj
 0001:00012ba0       ?DAdvise@?$IDataObjectImpl@VCOPOSSpeechSynthesis@@@ATL@@UEAAJPEAUtagFORMATETC@@KPEAUIAdviseSink@@PEAK@Z 0000000180013ba0 f i SpeechSynthesis.obj
 0001:00012d00       ?DEVMODEOLE2T_EX@@YAPEAU_devicemodeW@@PEAU1@@Z 0000000180013d00 f i SpeechSynthesis.obj
 0001:00012d10       ?DUnadvise@?$IDataObjectImpl@VCOPOSSpeechSynthesis@@@ATL@@UEAAJK@Z 0000000180013d10 f i SpeechSynthesis.obj
 0001:00012e10       ?Decrement@CComMultiThreadModel@ATL@@SAKPEAJ@Z 0000000180013e10 f i SpeechSynthesis.obj
 0001:00012e30       ?Decrement@CComSingleThreadModel@ATL@@SAKPEAJ@Z 0000000180013e30 f i SpeechSynthesis.obj
 0001:00012e50       ?DefWindowProcW@?$CWindowImplBaseT@VCWindow@ATL@@V?$CWinTraits@$0FGAAAAAA@$0A@@2@@ATL@@QEAA_JI_K_J@Z 0000000180013e50 f i SpeechSynthesis.obj
 0001:00012eb0       ?DefaultReflectionHandler@?$CWindowImplRoot@VCWindow@ATL@@@ATL@@SAHPEAUHWND__@@I_K_JAEA_J@Z 0000000180013eb0 f i SpeechSynthesis.obj
 0001:00012fa0       ?DeleteSubKey@CRegKey@ATL@@QEAAJPEB_W@Z 0000000180013fa0 f i SpeechSynthesis.obj
 0001:000130d0       ?DeleteValue@CRegKey@ATL@@QEAAJPEB_W@Z 00000001800140d0 f i SpeechSynthesis.obj
 0001:00013160       ?Detach@?$CAutoVectorPtr@_W@ATL@@QEAAPEA_WXZ 0000000180014160 f i SpeechSynthesis.obj
 0001:000131a0       ?Detach@?$CComPtrBase@UIPersistStream@@@ATL@@QEAAPEAUIPersistStream@@XZ 00000001800141a0 f i SpeechSynthesis.obj
 0001:000131e0       ?Detach@?$CComPtrBase@UITypeInfo@@@ATL@@QEAAPEAUITypeInfo@@XZ 00000001800141e0 f i SpeechSynthesis.obj
 0001:00013220       ?Detach@?$CComPtrBase@UIUnknown@@@ATL@@QEAAPEAUIUnknown@@XZ 0000000180014220 f i SpeechSynthesis.obj
 0001:00013260       ?Detach@CComBSTR@ATL@@QEAAPEA_WXZ 0000000180014260 f i SpeechSynthesis.obj
 0001:000132a0       ?Detach@CParseBuffer@CRegParser@ATL@@QEAAPEA_WXZ 00000001800142a0 f i SpeechSynthesis.obj
 0001:00013300       ?Detach@CRegKey@ATL@@QEAAPEAUHKEY__@@XZ 0000000180014300 f i SpeechSynthesis.obj
 0001:00013360       ?DoEvent@COPOSSpeechSynthesis@@IEAAXI_K_J@Z 0000000180014360 f i SpeechSynthesis.obj
 0001:000134a0       ?DoVerb@?$IOleObjectImpl@VCOPOSSpeechSynthesis@@@ATL@@UEAAJJPEAUtagMSG@@PEAUIOleClientSite@@JPEAUHWND__@@PEBUtagRECT@@@Z 00000001800144a0 f i SpeechSynthesis.obj
 0001:000137b0       ?DoVerbDiscardUndo@?$IOleObjectImpl@VCOPOSSpeechSynthesis@@@ATL@@QEAAJPEBUtagRECT@@PEAUHWND__@@@Z 00000001800147b0 f i SpeechSynthesis.obj
 0001:00013850       ?DoVerbHide@?$IOleObjectImpl@VCOPOSSpeechSynthesis@@@ATL@@QEAAJPEBUtagRECT@@PEAUHWND__@@@Z 0000000180014850 f i SpeechSynthesis.obj
 0001:00013930       ?DoVerbInPlaceActivate@?$IOleObjectImpl@VCOPOSSpeechSynthesis@@@ATL@@QEAAJPEBUtagRECT@@PEAUHWND__@@@Z 0000000180014930 f i SpeechSynthesis.obj
 0001:00013a10       ?DoVerbOpen@?$IOleObjectImpl@VCOPOSSpeechSynthesis@@@ATL@@QEAAJPEBUtagRECT@@PEAUHWND__@@@Z 0000000180014a10 f i SpeechSynthesis.obj
 0001:00013ab0       ?DoVerbPrimary@?$IOleObjectImpl@VCOPOSSpeechSynthesis@@@ATL@@QEAAJPEBUtagRECT@@PEAUHWND__@@@Z 0000000180014ab0 f i SpeechSynthesis.obj
 0001:00013bf0       ?DoVerbProperties@CComControlBase@ATL@@QEAAJPEBUtagRECT@@PEAUHWND__@@@Z 0000000180014bf0 f i SpeechSynthesis.obj
 0001:00013fa0       ?DoVerbShow@?$IOleObjectImpl@VCOPOSSpeechSynthesis@@@ATL@@QEAAJPEBUtagRECT@@PEAUHWND__@@@Z 0000000180014fa0 f i SpeechSynthesis.obj
 0001:00014060       ?DoVerbUIActivate@?$IOleObjectImpl@VCOPOSSpeechSynthesis@@@ATL@@QEAAJPEBUtagRECT@@PEAUHWND__@@@Z 0000000180015060 f i SpeechSynthesis.obj
 0001:00014140       ?DoesVerbActivate@CComControlBase@ATL@@QEAAHJ@Z 0000000180015140 f i SpeechSynthesis.obj
 0001:000141a0       ?DoesVerbUIActivate@CComControlBase@ATL@@QEAAHJ@Z 00000001800151a0 f i SpeechSynthesis.obj
 0001:00014220       ?Draw@?$IViewObjectExImpl@VCOPOSSpeechSynthesis@@@ATL@@UEAAJKJPEAXPEAUtagDVTARGETDEVICE@@PEAUHDC__@@2PEBU_RECTL@@3P6AH_K@Z4@Z 0000000180015220 f i SpeechSynthesis.obj
 0001:00014340       ?Empty@CComBSTR@ATL@@QEAAXXZ 0000000180015340 f i SpeechSynthesis.obj
 0001:00014380       ?EnableModeless@?$IOleInPlaceActiveObjectImpl@VCOPOSSpeechSynthesis@@@ATL@@UEAAJH@Z 0000000180015380 f i SpeechSynthesis.obj
 0001:000143f0       ?EndOfVar@CRegParser@ATL@@IEAAHXZ 00000001800153f0 f i SpeechSynthesis.obj
 0001:00014450       ?EnsureTI@CComTypeInfoHolder@ATL@@QEAAJK@Z 0000000180015450 f i SpeechSynthesis.obj
 0001:000144b0       ?EnumAdvise@?$IOleObjectImpl@VCOPOSSpeechSynthesis@@@ATL@@UEAAJPEAPEAUIEnumSTATDATA@@@Z 00000001800154b0 f i SpeechSynthesis.obj
 0001:00014610       ?EnumConnectionPoints@?$IConnectionPointContainerImpl@VCOPOSSpeechSynthesis@@@ATL@@UEAAJPEAPEAUIEnumConnectionPoints@@@Z 0000000180015610 f i SpeechSynthesis.obj
 0001:00014b00       ?EnumConnections@?$IConnectionPointImpl@VCOPOSSpeechSynthesis@@$1?DIID__IOPOSSpeechSynthesisEvents@@3U_GUID@@BVCComDynamicUnkArray@ATL@@@ATL@@UEAAJPEAPEAUIEnumConnections@@@Z 0000000180015b00 f i SpeechSynthesis.obj
 0001:00014e50       ?EnumConnections@?$IConnectionPointImpl@VCOPOSSpeechSynthesis@@$1?IID_IPropertyNotifySink@@3U_GUID@@BVCComDynamicUnkArray@ATL@@@ATL@@UEAAJPEAPEAUIEnumConnections@@@Z 0000000180015e50 f i SpeechSynthesis.obj
 0001:000151a0       ?EnumDAdvise@?$IDataObjectImpl@VCOPOSSpeechSynthesis@@@ATL@@UEAAJPEAPEAUIEnumSTATDATA@@@Z 00000001800161a0 f i SpeechSynthesis.obj
 0001:000152f0       ?EnumFormatEtc@?$IDataObjectImpl@VCOPOSSpeechSynthesis@@@ATL@@UEAAJKPEAPEAUIEnumFORMATETC@@@Z 00000001800162f0 f i SpeechSynthesis.obj
 0001:00015380       ?EnumVerbs@?$IOleObjectImpl@VCOPOSSpeechSynthesis@@@ATL@@UEAAJPEAPEAUIEnumOLEVERB@@@Z 0000000180016380 f i SpeechSynthesis.obj
 0001:00015450       ?EscapeSingleQuote@CAtlModule@ATL@@SAXPEA_W_KPEB_W@Z 0000000180016450 f i SpeechSynthesis.obj
 0001:00015550       ?ExtractCreateWndData@CAtlWinModule@ATL@@QEAAPEAXXZ 0000000180016550 f i SpeechSynthesis.obj
 0001:00015580       ?FAccessAllowed@?$IObjectSafetyImpl@VCOPOSSpeechSynthesis@@$02@ATL@@MEAAHXZ 0000000180016580 f i SpeechSynthesis.obj
 0001:00015590       ?FinalConstruct@?$CComAggObject@VCOPOSSpeechSynthesis@@@ATL@@QEAAJXZ 0000000180016590 f i SpeechSynthesis.obj
 0001:000155e0       ?FinalConstruct@CComObjectRootBase@ATL@@QEAAJXZ 00000001800165e0 f i SpeechSynthesis.obj
 0001:000155f0       ?FinalConstruct@CRegObject@ATL@@QEAAJXZ 00000001800165f0 f i SpeechSynthesis.obj
 0001:00015630       ?FinalRelease@?$CComAggObject@VCOPOSSpeechSynthesis@@@ATL@@QEAAXXZ 0000000180016630 f i SpeechSynthesis.obj
 0001:00015680       ?FinalRelease@CComObjectRootBase@ATL@@QEAAXXZ 0000000180016680 f i SpeechSynthesis.obj
 0001:00015690       ?FindConnectionPoint@?$IConnectionPointContainerImpl@VCOPOSSpeechSynthesis@@@ATL@@UEAAJAEBU_GUID@@PEAPEAUIConnectionPoint@@@Z 0000000180016690 f i SpeechSynthesis.obj
 0001:00015800       ?FindKey@?$CSimpleMap@PEA_WPEA_WVCExpansionVectorEqualHelper@ATL@@@ATL@@QEBAHAEBQEA_W@Z 0000000180016800 f i SpeechSynthesis.obj
 0001:00015880       ?FireTheEvent@?$CProxy_IOPOSEvents@VCOPOSSpeechSynthesis@@@@IEAAXPEAUIUnknown@@PEAVOposVariant@@IAEAJPEB_WJ@Z 0000000180016880 f i SpeechSynthesis.obj
 0001:00015a60       ?FireViewChange@CComControlBase@ATL@@QEAAJXZ 0000000180016a60 f i SpeechSynthesis.obj
 0001:00015b40       ?Fire_DirectIOEvent@?$CProxy_IOPOSEvents@VCOPOSSpeechSynthesis@@@@QEAAXJPEAJPEAPEA_W@Z 0000000180016b40 f i SpeechSynthesis.obj
 0001:00015dd0       ?Fire_ErrorEvent@?$CProxy_IOPOSEvents@VCOPOSSpeechSynthesis@@@@QEAAXJJJPEAJ@Z 0000000180016dd0 f i SpeechSynthesis.obj
 0001:00016080       ?Fire_OutputCompleteEvent@?$CProxy_IOPOSEvents@VCOPOSSpeechSynthesis@@@@QEAAXJ@Z 0000000180017080 f i SpeechSynthesis.obj
 0001:00016270       ?Fire_StatusUpdateEvent@?$CProxy_IOPOSEvents@VCOPOSSpeechSynthesis@@@@QEAAXJ@Z 0000000180017270 f i SpeechSynthesis.obj
 0001:00016460       ?FormatWindowClassName@AtlModuleRegisterWndClassInfoParamW@ATL@@SAXPEA_WKPEAX@Z 0000000180017460 f i SpeechSynthesis.obj
 0001:000164b0       ?Free@?$CAutoVectorPtr@_W@ATL@@QEAAXXZ 00000001800174b0 f i SpeechSynthesis.obj
 0001:00016500       ?FreeHeap@?$CTempBuffer@E$0BAA@VCCRTAllocator@ATL@@@ATL@@AEAAXXZ 0000000180017500 f i SpeechSynthesis.obj
 0001:00016540       ?FreeHeap@?$CTempBuffer@_W$0BAA@VCCRTAllocator@ATL@@@ATL@@AEAAXXZ 0000000180017540 f i SpeechSynthesis.obj
 0001:00016580       ?FreeHeap@?$CTempBuffer@_W$0EAA@VCCRTAllocator@ATL@@@ATL@@AEAAXXZ 0000000180017580 f i SpeechSynthesis.obj
 0001:000165c0       ?Freeze@?$IViewObjectExImpl@VCOPOSSpeechSynthesis@@@ATL@@UEAAJKJPEAXPEAK@Z 00000001800175c0 f i SpeechSynthesis.obj
 0001:00016650       ?GenerateError@CRegParser@ATL@@IEAAJI@Z 0000000180017650 f i SpeechSynthesis.obj
 0001:00016670       ?GetAdvise@?$IViewObjectExImpl@VCOPOSSpeechSynthesis@@@ATL@@UEAAJPEAK0PEAPEAUIAdviseSink@@@Z 0000000180017670 f i SpeechSynthesis.obj
 0001:000167c0       ?GetAmbientLocaleID@CComControlBase@ATL@@QEAAJAEAK@Z 00000001800177c0 f i SpeechSynthesis.obj
 0001:000168a0       ?GetAmbientProperty@CComControlBase@ATL@@QEAAJJAEAUtagVARIANT@@@Z 00000001800178a0 f i SpeechSynthesis.obj
 0001:00016910       ?GetAmbientUserMode@CComControlBase@ATL@@QEAAJAEAH@Z 0000000180017910 f i SpeechSynthesis.obj
 0001:00016a30       ?GetAppId@?$CAtlModuleT@VCComModule@ATL@@@ATL@@SAPEB_WXZ 0000000180017a30 f i SpeechSynthesis.obj
 0001:00016a40       ?GetAt@CComDynamicUnkArray@ATL@@QEAAPEAUIUnknown@@H@Z 0000000180017a40 f i SpeechSynthesis.obj
 0001:00016af0       ?GetCanonicalFormatEtc@?$IDataObjectImpl@VCOPOSSpeechSynthesis@@@ATL@@UEAAJPEAUtagFORMATETC@@0@Z 0000000180017af0 f i SpeechSynthesis.obj
 0001:00016b80       ?GetClassID@?$IPersistStorageImpl@VCOPOSSpeechSynthesis@@@ATL@@UEAAJPEAU_GUID@@@Z 0000000180017b80 f i SpeechSynthesis.obj
 0001:00016c20       ?GetClassID@?$IPersistStreamInitImpl@VCOPOSSpeechSynthesis@@@ATL@@UEAAJPEAU_GUID@@@Z 0000000180017c20 f i SpeechSynthesis.obj
 0001:00016cc0       ?GetClassInfoExW@AtlModuleRegisterWndClassInfoParamW@ATL@@SAHPEAUHINSTANCE__@@PEB_WPEAUtagWNDCLASSEXW@@@Z 0000000180017cc0 f i SpeechSynthesis.obj
 0001:00016d10       ?GetClassInfoW@?$IProvideClassInfo2Impl@$1?CLSID_OPOSSpeechSynthesis@@3U_GUID@@B$1?DIID__IOPOSSpeechSynthesisEvents@@3U2@B$1?LIBID_OposSpeechSynthesis_CCO@@3U2@B$00$0A@VCComTypeInfoHolder@ATL@@@ATL@@UEAAJPEAPEAUITypeInfo@@@Z 0000000180017d10 f i SpeechSynthesis.obj
 0001:00016d50       ?GetClassObject@CComModule@ATL@@QEAAJAEBU_GUID@@0PEAPEAX@Z 0000000180017d50 f i SpeechSynthesis.obj
 0001:00016fc0       ?GetClientSite@?$IOleObjectImpl@VCOPOSSpeechSynthesis@@@ATL@@UEAAJPEAPEAUIOleClientSite@@@Z 0000000180017fc0 f i SpeechSynthesis.obj
 0001:00017070       ?GetClipboardData@?$IOleObjectImpl@VCOPOSSpeechSynthesis@@@ATL@@UEAAJKPEAPEAUIDataObject@@@Z 0000000180018070 f i SpeechSynthesis.obj
 0001:00017100       ?GetCodeAddress@CDynamicStdCallThunk2@ATL@@QEAAPEAXXZ 0000000180018100 f i SpeechSynthesis.obj
 0001:00017140       ?GetColorSet@?$IViewObjectExImpl@VCOPOSSpeechSynthesis@@@ATL@@UEAAJKJPEAXPEAUtagDVTARGETDEVICE@@PEAUHDC__@@PEAPEAUtagLOGPALETTE@@@Z 0000000180018140 f i SpeechSynthesis.obj
 0001:000171d0       ?GetConnMap@COPOSSpeechSynthesis@@SAPEBU_ATL_CONNMAP_ENTRY@ATL@@PEAH@Z 00000001800181d0 f i SpeechSynthesis.obj
 0001:00017330       ?GetConnectionInterface@?$IConnectionPointImpl@VCOPOSSpeechSynthesis@@$1?DIID__IOPOSSpeechSynthesisEvents@@3U_GUID@@BVCComDynamicUnkArray@ATL@@@ATL@@UEAAJPEAU_GUID@@@Z 0000000180018330 f i SpeechSynthesis.obj
 0001:00017370       ?GetConnectionInterface@?$IConnectionPointImpl@VCOPOSSpeechSynthesis@@$1?IID_IPropertyNotifySink@@3U_GUID@@BVCComDynamicUnkArray@ATL@@@ATL@@UEAAJPEAU_GUID@@@Z 0000000180018370 f i SpeechSynthesis.obj
 0001:000173b0       ?GetConnectionPointContainer@?$IConnectionPointImpl@VCOPOSSpeechSynthesis@@$1?DIID__IOPOSSpeechSynthesisEvents@@3U_GUID@@BVCComDynamicUnkArray@ATL@@@ATL@@UEAAJPEAPEAUIConnectionPointContainer@@@Z 00000001800183b0 f i SpeechSynthesis.obj
 0001:00017430       ?GetConnectionPointContainer@?$IConnectionPointImpl@VCOPOSSpeechSynthesis@@$1?IID_IPropertyNotifySink@@3U_GUID@@BVCComDynamicUnkArray@ATL@@@ATL@@UEAAJPEAPEAUIConnectionPointContainer@@@Z 0000000180018430 f i SpeechSynthesis.obj
 0001:000174b0       ?GetContentExtent@?$IQuickActivateImpl@VCOPOSSpeechSynthesis@@@ATL@@UEAAJPEAUtagSIZE@@@Z 00000001800184b0 f i SpeechSynthesis.obj
 0001:00017570       ?GetControlInfo@?$IOleControlImpl@VCOPOSSpeechSynthesis@@@ATL@@UEAAJPEAUtagCONTROLINFO@@@Z 0000000180018570 f i SpeechSynthesis.obj
 0001:00017600       ?GetCookie@CComDynamicUnkArray@ATL@@QEAAKPEAPEAUIUnknown@@@Z 0000000180018600 f i SpeechSynthesis.obj
 0001:000176f0       ?GetData@?$IDataObjectImpl@VCOPOSSpeechSynthesis@@@ATL@@UEAAJPEAUtagFORMATETC@@PEAUtagSTGMEDIUM@@@Z 00000001800186f0 f i SpeechSynthesis.obj
 0001:000177b0       ?GetData@CAtlSafeAllocBufferNode@?$CAtlSafeAllocBufferManager@VCCRTAllocator@ATL@@@_ATL_SAFE_ALLOCA_IMPL@ATL@@QEAAPEAXXZ 00000001800187b0 f i SpeechSynthesis.obj
 0001:000177d0       ?GetDataHere@?$IDataObjectImpl@VCOPOSSpeechSynthesis@@@ATL@@UEAAJPEAUtagFORMATETC@@PEAUtagSTGMEDIUM@@@Z 00000001800187d0 f i SpeechSynthesis.obj
 0001:00017860       ?GetDropTarget@?$IOleInPlaceObjectWindowlessImpl@VCOPOSSpeechSynthesis@@@ATL@@UEAAJPEAPEAUIDropTarget@@@Z 0000000180018860 f i SpeechSynthesis.obj
 0001:000178f0       ?GetExtent@?$IOleObjectImpl@VCOPOSSpeechSynthesis@@@ATL@@UEAAJKPEAUtagSIZE@@@Z 00000001800188f0 f i SpeechSynthesis.obj
 0001:000179c0       ?GetExtent@?$IViewObjectExImpl@VCOPOSSpeechSynthesis@@@ATL@@UEAAJKJPEAUtagDVTARGETDEVICE@@PEAUtagSIZE@@@Z 00000001800189c0 f i SpeechSynthesis.obj
 0001:00017ad0       ?GetGITPtr@CAtlModule@ATL@@UEAAJPEAPEAUIGlobalInterfaceTable@@@Z 0000000180018ad0 f i SpeechSynthesis.obj
 0001:00017c10       ?GetGUID@?$IProvideClassInfo2Impl@$1?CLSID_OPOSSpeechSynthesis@@3U_GUID@@B$1?DIID__IOPOSSpeechSynthesisEvents@@3U2@B$1?LIBID_OposSpeechSynthesis_CCO@@3U2@B$00$0A@VCComTypeInfoHolder@ATL@@@ATL@@UEAAJKPEAU_GUID@@@Z 0000000180018c10 f i SpeechSynthesis.obj
 0001:00017c90       ?GetIDsOfNames@?$IDispatchImpl@UIOPOSSpeechSynthesis@@$1?IID_IOPOSSpeechSynthesis@@3U_GUID@@B$1?LIBID_OposSpeechSynthesis_CCO@@3U3@B$00$0A@VCComTypeInfoHolder@ATL@@@ATL@@UEAAJAEBU_GUID@@PEAPEA_WIKPEAJ@Z 0000000180018c90 f i SpeechSynthesis.obj
 0001:00017cf0       ?GetIDsOfNames@CComTypeInfoHolder@ATL@@QEAAJAEBU_GUID@@PEAPEA_WIKPEAJ@Z 0000000180018cf0 f i SpeechSynthesis.obj
 0001:00017f10       ?GetInterfaceSafetyOptions@?$IObjectSafetyImpl@VCOPOSSpeechSynthesis@@$02@ATL@@UEAAJAEBU_GUID@@PEAK1@Z 0000000180018f10 f i SpeechSynthesis.obj
 0001:000180b0       ?GetKeyAt@?$CSimpleMap@PEA_WPEA_WVCExpansionVectorEqualHelper@ATL@@@ATL@@QEBAAEAPEA_WH@Z 00000001800190b0 f i SpeechSynthesis.obj
 0001:00018160       ?GetLockCount@CAtlModule@ATL@@UEAAJXZ 0000000180019160 f i SpeechSynthesis.obj
 0001:00018170       ?GetMiscStatus@?$IOleObjectImpl@VCOPOSSpeechSynthesis@@@ATL@@UEAAJKPEAK@Z 0000000180019170 f i SpeechSynthesis.obj
 0001:00018200       ?GetMoniker@?$IOleObjectImpl@VCOPOSSpeechSynthesis@@@ATL@@UEAAJKKPEAPEAUIMoniker@@@Z 0000000180019200 f i SpeechSynthesis.obj
 0001:00018290       ?GetNaturalExtent@?$IViewObjectExImpl@VCOPOSSpeechSynthesis@@@ATL@@UEAAJKJPEAUtagDVTARGETDEVICE@@PEAUHDC__@@PEAUtagExtentInfo@@PEAUtagSIZE@@@Z 0000000180019290 f i SpeechSynthesis.obj
 0001:00018420       ?GetObjectCLSID@?$CComCoClass@VCOPOSSpeechSynthesis@@$1?CLSID_OPOSSpeechSynthesis@@3U_GUID@@B@ATL@@SAAEBU_GUID@@XZ 0000000180019420 f i SpeechSynthesis.obj
 0001:00018430       ?GetPages@?$ISpecifyPropertyPagesImpl@VCOPOSSpeechSynthesis@@@ATL@@UEAAJPEAUtagCAUUID@@@Z 0000000180019430 f i SpeechSynthesis.obj
 0001:000184c0       ?GetPagesHelper@?$ISpecifyPropertyPagesImpl@VCOPOSSpeechSynthesis@@@ATL@@IEAAJPEAUtagCAUUID@@PEBUATL_PROPMAP_ENTRY@2@@Z 00000001800194c0 f i SpeechSynthesis.obj
 0001:00018730       ?GetProperty@?$CComPtr@UIDispatch@@@ATL@@QEAAJJPEAUtagVARIANT@@@Z 0000000180019730 f i SpeechSynthesis.obj
 0001:00018780       ?GetProperty@?$CComPtr@UIDispatch@@@ATL@@SAJPEAUIDispatch@@JPEAUtagVARIANT@@@Z 0000000180019780 f i SpeechSynthesis.obj
 0001:00018950       ?GetPropertyMap@COPOSSpeechSynthesis@@SAPEBUATL_PROPMAP_ENTRY@ATL@@XZ 0000000180019950 f i SpeechSynthesis.obj
 0001:00018960       ?GetRect@?$IViewObjectExImpl@VCOPOSSpeechSynthesis@@@ATL@@UEAAJKPEAU_RECTL@@@Z 0000000180019960 f i SpeechSynthesis.obj
 0001:000189f0       ?GetSize@?$CSimpleMap@PEA_WPEA_WVCExpansionVectorEqualHelper@ATL@@@ATL@@QEBAHXZ 00000001800199f0 f i SpeechSynthesis.obj
 0001:00018a00       ?GetSize@CComDynamicUnkArray@ATL@@QEBAHXZ 0000000180019a00 f i SpeechSynthesis.obj
 0001:00018a10       ?GetSizeMax@?$IPersistStreamInitImpl@VCOPOSSpeechSynthesis@@@ATL@@UEAAJPEAT_ULARGE_INTEGER@@@Z 0000000180019a10 f i SpeechSynthesis.obj
 0001:000191a0       ?GetSizeMax@CComVariant@ATL@@QEBAJPEAT_ULARGE_INTEGER@@@Z 000000018001a1a0 f i SpeechSynthesis.obj
 0001:000195d0       ?GetStreamSize@CComBSTR@ATL@@SAKPEA_W@Z 000000018001a5d0 f i SpeechSynthesis.obj
 0001:00019630       ?GetTI@CComTypeInfoHolder@ATL@@QEAAJK@Z 000000018001a630 f i SpeechSynthesis.obj
 0001:00019f00       ?GetTI@CComTypeInfoHolder@ATL@@QEAAJKPEAPEAUITypeInfo@@@Z 000000018001af00 f i SpeechSynthesis.obj
 0001:00019ff0       ?GetTypeInfo@?$IDispatchImpl@UIOPOSSpeechSynthesis@@$1?IID_IOPOSSpeechSynthesis@@3U_GUID@@B$1?LIBID_OposSpeechSynthesis_CCO@@3U3@B$00$0A@VCComTypeInfoHolder@ATL@@@ATL@@UEAAJIKPEAPEAUITypeInfo@@@Z 000000018001aff0 f i SpeechSynthesis.obj
 0001:0001a040       ?GetTypeInfo@CComTypeInfoHolder@ATL@@QEAAJIKPEAPEAUITypeInfo@@@Z 000000018001b040 f i SpeechSynthesis.obj
 0001:0001a0a0       ?GetTypeInfoCount@?$IDispatchImpl@UIOPOSSpeechSynthesis@@$1?IID_IOPOSSpeechSynthesis@@3U_GUID@@B$1?LIBID_OposSpeechSynthesis_CCO@@3U3@B$00$0A@VCComTypeInfoHolder@ATL@@@ATL@@UEAAJPEAI@Z 000000018001b0a0 f i SpeechSynthesis.obj
 0001:0001a0d0       ?GetUnknown@CComDynamicUnkArray@ATL@@QEAAPEAUIUnknown@@K@Z 000000018001b0d0 f i SpeechSynthesis.obj
 0001:0001a180       ?GetUnknown@COPOSSpeechSynthesis@@QEAAPEAUIUnknown@@XZ 000000018001b180 f i SpeechSynthesis.obj
 0001:0001a1b0       ?GetUserClassID@?$IOleObjectImpl@VCOPOSSpeechSynthesis@@@ATL@@UEAAJPEAU_GUID@@@Z 000000018001b1b0 f i SpeechSynthesis.obj
 0001:0001a290       ?GetUserType@?$IOleObjectImpl@VCOPOSSpeechSynthesis@@@ATL@@UEAAJKPEAPEA_W@Z 000000018001b290 f i SpeechSynthesis.obj
 0001:0001a320       ?GetValueAt@?$CSimpleMap@PEA_WPEA_WVCExpansionVectorEqualHelper@ATL@@@ATL@@QEBAAEAPEA_WH@Z 000000018001b320 f i SpeechSynthesis.obj
 0001:0001a3d0       ?GetViewStatus@?$IViewObjectExImpl@VCOPOSSpeechSynthesis@@@ATL@@UEAAJPEAK@Z 000000018001b3d0 f i SpeechSynthesis.obj
 0001:0001a4d0       ?GetWNDPROC@CWndProcThunk@ATL@@QEAAP6A_JPEAUHWND__@@I_K_J@ZXZ 000000018001b4d0 f i SpeechSynthesis.obj
 0001:0001a510       ?GetWindow@?$IOleInPlaceActiveObjectImpl@VCOPOSSpeechSynthesis@@@ATL@@UEAAJPEAPEAUHWND__@@@Z 000000018001b510 f i SpeechSynthesis.obj
 0001:0001a610       ?GetWindow@?$IOleInPlaceObjectWindowlessImpl@VCOPOSSpeechSynthesis@@@ATL@@UEAAJPEAPEAUHWND__@@@Z 000000018001b610 f i SpeechSynthesis.obj
 0001:0001a710       ?GetWindowProc@?$CWindowImplBaseT@VCWindow@ATL@@V?$CWinTraits@$0FGAAAAAA@$0A@@2@@ATL@@UEAAP6A_JPEAUHWND__@@I_K_J@ZXZ 000000018001b710 f i SpeechSynthesis.obj
 0001:0001a720       ?GetWndCaption@?$CWindowImpl@VCOPOSSpeechSynthesis@@VCWindow@ATL@@V?$CWinTraits@$0FGAAAAAA@$0A@@3@@ATL@@SAPEB_WXZ 000000018001b720 f i SpeechSynthesis.obj
 0001:0001a730       ?GetWndClassInfo@?$CWindowImpl@VCOPOSSpeechSynthesis@@VCWindow@ATL@@V?$CWinTraits@$0FGAAAAAA@$0A@@3@@ATL@@SAAEAU_ATL_WNDCLASSINFOW@2@XZ 000000018001b730 f i SpeechSynthesis.obj
 0001:0001a740       ?GetWndClassName@CWindow@ATL@@SAPEB_WXZ 000000018001b740 f i SpeechSynthesis.obj
 0001:0001a750       ?GetWndExStyle@?$CWinTraits@$0FGAAAAAA@$0A@@ATL@@SAKK@Z 000000018001b750 f i SpeechSynthesis.obj
 0001:0001a790       ?GetWndExStyle@?$CWindowImplBaseT@VCWindow@ATL@@V?$CWinTraits@$0FGAAAAAA@$0A@@2@@ATL@@SAKK@Z 000000018001b790 f i SpeechSynthesis.obj
 0001:0001a7c0       ?GetWndStyle@?$CWinTraits@$0FGAAAAAA@$0A@@ATL@@SAKK@Z 000000018001b7c0 f i SpeechSynthesis.obj
 0001:0001a800       ?GetWndStyle@?$CWindowImplBaseT@VCWindow@ATL@@V?$CWinTraits@$0FGAAAAAA@$0A@@2@@ATL@@SAKK@Z 000000018001b800 f i SpeechSynthesis.obj
 0001:0001a830       ?GetZoomInfo@CComControlBase@ATL@@QEAAXAEAUATL_DRAWINFO@@@Z 000000018001b830 f i SpeechSynthesis.obj
 0001:0001a9e0       ?HKeyFromString@CRegParser@ATL@@KAPEAUHKEY__@@PEA_W@Z 000000018001b9e0 f i SpeechSynthesis.obj
 0001:0001aa70       ?HandsOffStorage@?$IPersistStorageImpl@VCOPOSSpeechSynthesis@@@ATL@@UEAAJXZ 000000018001ba70 f i SpeechSynthesis.obj
 0001:0001aae0       ?HasSubKeys@CRegParser@ATL@@IEAAHPEAUHKEY__@@@Z 000000018001bae0 f i SpeechSynthesis.obj
 0001:0001ac50       ?IDataObject_GetData@CComControlBase@ATL@@QEAAJPEAUtagFORMATETC@@PEAUtagSTGMEDIUM@@@Z 000000018001bc50 f i SpeechSynthesis.obj
 0001:0001b100       ?IOleInPlaceObject_InPlaceDeactivate@CComControlBase@ATL@@QEAAJXZ 000000018001c100 f i SpeechSynthesis.obj
 0001:0001b370       ?IOleInPlaceObject_SetObjectRects@CComControlBase@ATL@@QEAAJPEBUtagRECT@@0@Z 000000018001c370 f i SpeechSynthesis.obj
 0001:0001b550       ?IOleInPlaceObject_UIDeactivate@CComControlBase@ATL@@QEAAJXZ 000000018001c550 f i SpeechSynthesis.obj
 0001:0001b7c0       ?IOleObject_Advise@CComControlBase@ATL@@QEAAJPEAUIAdviseSink@@PEAK@Z 000000018001c7c0 f i SpeechSynthesis.obj
 0001:0001b870       ?IOleObject_Close@CComControlBase@ATL@@QEAAJK@Z 000000018001c870 f i SpeechSynthesis.obj
 0001:0001bbe0       ?IOleObject_GetClientSite@CComControlBase@ATL@@QEAAJPEAPEAUIOleClientSite@@@Z 000000018001cbe0 f i SpeechSynthesis.obj
 0001:0001bcb0       ?IOleObject_SetClientSite@CComControlBase@ATL@@QEAAJPEAUIOleClientSite@@@Z 000000018001ccb0 f i SpeechSynthesis.obj
 0001:0001bdc0       ?IOleObject_SetExtent@CComControlBase@ATL@@QEAAJKPEAUtagSIZE@@@Z 000000018001cdc0 f i SpeechSynthesis.obj
 0001:0001bf30       ?IPSI_GetIPersistStreamInit@?$IPersistStorageImpl@VCOPOSSpeechSynthesis@@@ATL@@AEAAPEAUIPersistStreamInit@@XZ 000000018001cf30 f i SpeechSynthesis.obj
 0001:0001bff0       ?IPersistStreamInit_Load@?$IPersistStreamInitImpl@VCOPOSSpeechSynthesis@@@ATL@@QEAAJPEAUIStream@@PEBUATL_PROPMAP_ENTRY@2@@Z 000000018001cff0 f i SpeechSynthesis.obj
 0001:0001c090       ?IPersistStreamInit_Save@?$IPersistStreamInitImpl@VCOPOSSpeechSynthesis@@@ATL@@QEAAJPEAUIStream@@HPEBUATL_PROPMAP_ENTRY@2@@Z 000000018001d090 f i SpeechSynthesis.obj
 0001:0001c150       ?IQuickActivate_QuickActivate@CComControlBase@ATL@@QEAAJPEAUtagQACONTAINER@@PEAUtagQACONTROL@@@Z 000000018001d150 f i SpeechSynthesis.obj
 0001:0001c990       ?IViewObject_Draw@CComControlBase@ATL@@QEAAJKJPEAXPEAUtagDVTARGETDEVICE@@PEAUHDC__@@2PEBU_RECTL@@3@Z 000000018001d990 f i SpeechSynthesis.obj
 0001:0001cde0       ?InPlaceActivate@CComControlBase@ATL@@QEAAJJPEBUtagRECT@@@Z 000000018001dde0 f i SpeechSynthesis.obj
 0001:0001d980       ?InPlaceDeactivate@?$IOleInPlaceObjectWindowlessImpl@VCOPOSSpeechSynthesis@@@ATL@@UEAAJXZ 000000018001e980 f i SpeechSynthesis.obj
 0001:0001da30       ?Increment@CComMultiThreadModel@ATL@@SAKPEAJ@Z 000000018001ea30 f i SpeechSynthesis.obj
 0001:0001da50       ?Increment@CComSingleThreadModel@ATL@@SAKPEAJ@Z 000000018001ea50 f i SpeechSynthesis.obj
 0001:0001da70       ?Init@?$CComEnumImpl@UIEnumConnectionPoints@@$1?_GUID_b196b285_bab4_101a_b69c_00aa00341d07@@3U__s_GUID@@BPEAUIConnectionPoint@@V?$_CopyInterface@UIConnectionPoint@@@ATL@@@ATL@@QEAAJPEAPEAUIConnectionPoint@@0PEAUIUnknown@@W4CComEnumFlags@2@@Z 000000018001ea70 f i SpeechSynthesis.obj
 0001:0001dd60       ?Init@?$CComEnumImpl@UIEnumConnections@@$1?_GUID_b196b287_bab4_101a_b69c_00aa00341d07@@3U__s_GUID@@BUtagCONNECTDATA@@V?$_Copy@UtagCONNECTDATA@@@ATL@@@ATL@@QEAAJPEAUtagCONNECTDATA@@0PEAUIUnknown@@W4CComEnumFlags@2@@Z 000000018001ed60 f i SpeechSynthesis.obj
 0001:0001e050       ?Init@CComFakeCriticalSection@ATL@@QEAAJXZ 000000018001f050 f i SpeechSynthesis.obj
 0001:0001e060       ?Init@CComModule@ATL@@QEAAJPEAU_ATL_OBJMAP_ENTRY30@2@PEAUHINSTANCE__@@PEBU_GUID@@@Z 000000018001f060 f i SpeechSynthesis.obj
 0001:0001e150       ?Init@CComSafeDeleteCriticalSection@ATL@@QEAAJXZ 000000018001f150 f i SpeechSynthesis.obj
 0001:0001e1e0       ?Init@CDynamicStdCallThunk2@ATL@@QEAAH_KPEAX@Z 000000018001f1e0 f i SpeechSynthesis.obj
 0001:0001e260       ?Init@CWndProcThunk@ATL@@QEAAHP6A_JPEAUHWND__@@I_K_J@ZPEAX@Z 000000018001f260 f i SpeechSynthesis.obj
 0001:0001e2b0       ?InitFromData@?$IOleObjectImpl@VCOPOSSpeechSynthesis@@@ATL@@UEAAJPEAUIDataObject@@HK@Z 000000018001f2b0 f i SpeechSynthesis.obj
 0001:0001e340       ?InitLibId@?$CAtlModuleT@VCComModule@ATL@@@ATL@@SAXXZ 000000018001f340 f i SpeechSynthesis.obj
 0001:0001e350       ?InitNew@?$IPersistStorageImpl@VCOPOSSpeechSynthesis@@@ATL@@UEAAJPEAUIStorage@@@Z 000000018001f350 f i SpeechSynthesis.obj
 0001:0001e440       ?InitNew@?$IPersistStreamInitImpl@VCOPOSSpeechSynthesis@@@ATL@@UEAAJXZ 000000018001f440 f i SpeechSynthesis.obj
 0001:0001e4f0       ?InlineIsEqualUnknown@ATL@@YAHAEBU_GUID@@@Z 000000018001f4f0 f i SpeechSynthesis.obj
 0001:0001e580       ?InternalAddRef@?$CComObjectRootEx@VCComMultiThreadModel@ATL@@@ATL@@QEAAKXZ 000000018001f580 f i SpeechSynthesis.obj
 0001:0001e600       ?InternalAddRef@?$CComObjectRootEx@VCComSingleThreadModel@ATL@@@ATL@@QEAAKXZ 000000018001f600 f i SpeechSynthesis.obj
 0001:0001e680       ?InternalFinalConstructAddRef@CComObjectRootBase@ATL@@QEAAXXZ 000000018001f680 f i SpeechSynthesis.obj
 0001:0001e690       ?InternalFinalConstructAddRef@COPOSSpeechSynthesis@@QEAAXXZ 000000018001f690 f i SpeechSynthesis.obj
 0001:0001e6d0       ?InternalFinalConstructRelease@CComObjectRootBase@ATL@@QEAAXXZ 000000018001f6d0 f i SpeechSynthesis.obj
 0001:0001e740       ?InternalFinalConstructRelease@COPOSSpeechSynthesis@@QEAAXXZ 000000018001f740 f i SpeechSynthesis.obj
 0001:0001e780       ?InternalGetSite@CComControlBase@ATL@@QEAAJAEBU_GUID@@PEAPEAX@Z 000000018001f780 f i SpeechSynthesis.obj
 0001:0001e860       ?InternalQueryInterface@CComObjectRootBase@ATL@@SAJPEAXPEBU_ATL_INTMAP_ENTRY@2@AEBU_GUID@@PEAPEAX@Z 000000018001f860 f i SpeechSynthesis.obj
 0001:0001e980       ?InternalRelease@?$CComObjectRootEx@VCComMultiThreadModel@ATL@@@ATL@@QEAAKXZ 000000018001f980 f i SpeechSynthesis.obj
 0001:0001ea00       ?InternalRelease@?$CComObjectRootEx@VCComSingleThreadModel@ATL@@@ATL@@QEAAKXZ 000000018001fa00 f i SpeechSynthesis.obj
 0001:0001ea80       ?InternalSetAtIndex@?$CSimpleArray@GV?$CSimpleArrayEqualHelper@G@ATL@@@ATL@@QEAAXHAEBG@Z 000000018001fa80 f i SpeechSynthesis.obj
 0001:0001eb00       ?InternalSetAtIndex@?$CSimpleMap@PEA_WPEA_WVCExpansionVectorEqualHelper@ATL@@@ATL@@QEAAXHAEBQEA_W0@Z 000000018001fb00 f i SpeechSynthesis.obj
 0001:0001ebd0       ?Invoke@?$IDispatchImpl@UIOPOSSpeechSynthesis@@$1?IID_IOPOSSpeechSynthesis@@3U_GUID@@B$1?LIBID_OposSpeechSynthesis_CCO@@3U3@B$00$0A@VCComTypeInfoHolder@ATL@@@ATL@@UEAAJJAEBU_GUID@@KGPEAUtagDISPPARAMS@@PEAUtagVARIANT@@PEAUtagEXCEPINFO@@PEAI@Z 000000018001fbd0 f i SpeechSynthesis.obj
 0001:0001ec70       ?Invoke@CComTypeInfoHolder@ATL@@QEAAJPEAUIDispatch@@JAEBU_GUID@@KGPEAUtagDISPPARAMS@@PEAUtagVARIANT@@PEAUtagEXCEPINFO@@PEAI@Z 000000018001fc70 f i SpeechSynthesis.obj
 0001:0001ed30       ?IsDirty@?$IPersistStorageImpl@VCOPOSSpeechSynthesis@@@ATL@@UEAAJXZ 000000018001fd30 f i SpeechSynthesis.obj
 0001:0001ee20       ?IsDirty@?$IPersistStreamInitImpl@VCOPOSSpeechSynthesis@@@ATL@@UEAAJXZ 000000018001fe20 f i SpeechSynthesis.obj
 0001:0001eee0       ?IsEqualKey@CExpansionVectorEqualHelper@ATL@@SA_NQEA_W0@Z 000000018001fee0 f i SpeechSynthesis.obj
 0001:0001ef30       ?IsEqualObject@?$CComPtrBase@UIOleClientSite@@@ATL@@QEAA_NPEAUIUnknown@@@Z 000000018001ff30 f i SpeechSynthesis.obj
 0001:0001f080       ?IsEqualObject@?$CComPtrBase@UITypeInfo@@@ATL@@QEAA_NPEAUIUnknown@@@Z 0000000180020080 f i SpeechSynthesis.obj
 0001:0001f1d0       ?IsSpace@CRegParser@ATL@@IEAAH_W@Z 00000001800201d0 f i SpeechSynthesis.obj
 0001:0001f230       ?IsUpToDate@?$IOleObjectImpl@VCOPOSSpeechSynthesis@@@ATL@@UEAAJXZ 0000000180020230 f i SpeechSynthesis.obj
 0001:0001f2a0       ?Length@CComBSTR@ATL@@QEBAIXZ 00000001800202a0 f i SpeechSynthesis.obj
 0001:0001f2e0       ?Load@?$IPersistStorageImpl@VCOPOSSpeechSynthesis@@@ATL@@UEAAJPEAUIStorage@@@Z 00000001800202e0 f i SpeechSynthesis.obj
 0001:0001f490       ?Load@?$IPersistStreamInitImpl@VCOPOSSpeechSynthesis@@@ATL@@UEAAJPEAUIStream@@@Z 0000000180020490 f i SpeechSynthesis.obj
 0001:0001f550       ?LoadCursorW@AtlModuleRegisterWndClassInfoParamW@ATL@@SAPEAUHICON__@@PEAUHINSTANCE__@@PEB_W@Z 0000000180020550 f i SpeechSynthesis.obj
 0001:0001f590       ?LoadNameCache@CComTypeInfoHolder@ATL@@QEAAJPEAUITypeInfo@@@Z 0000000180020590 f i SpeechSynthesis.obj
 0001:0001f8d0       ?Lock@?$CComCritSecLock@VCComCriticalSection@ATL@@@ATL@@QEAAJXZ 00000001800208d0 f i SpeechSynthesis.obj
 0001:0001f9c0       ?Lock@?$CComObjectRootEx@VCComSingleThreadModel@ATL@@@ATL@@QEAAXXZ 00000001800209c0 f i SpeechSynthesis.obj
 0001:0001f9d0       ?Lock@CAtlModule@ATL@@UEAAJXZ 00000001800209d0 f i SpeechSynthesis.obj
 0001:0001fa10       ?Lock@CComCriticalSection@ATL@@QEAAJXZ 0000000180020a10 f i SpeechSynthesis.obj
 0001:0001fa50       ?Lock@CComFakeCriticalSection@ATL@@QEAAJXZ 0000000180020a50 f i SpeechSynthesis.obj
 0001:0001fa60       ?LockServer@CComClassFactory@ATL@@UEAAJH@Z 0000000180020a60 f i SpeechSynthesis.obj
 0001:0001fac0       ?Lookup@?$CSimpleMap@PEA_WPEA_WVCExpansionVectorEqualHelper@ATL@@@ATL@@QEBAPEA_WAEBQEA_W@Z 0000000180020ac0 f i SpeechSynthesis.obj
 0001:0001fb20       ?Next@?$CComEnumImpl@UIEnumConnectionPoints@@$1?_GUID_b196b285_bab4_101a_b69c_00aa00341d07@@3U__s_GUID@@BPEAUIConnectionPoint@@V?$_CopyInterface@UIConnectionPoint@@@ATL@@@ATL@@UEAAJKPEAPEAUIConnectionPoint@@PEAK@Z 0000000180020b20 f i SpeechSynthesis.obj
 0001:0001fce0       ?Next@?$CComEnumImpl@UIEnumConnections@@$1?_GUID_b196b287_bab4_101a_b69c_00aa00341d07@@3U__s_GUID@@BUtagCONNECTDATA@@V?$_Copy@UtagCONNECTDATA@@@ATL@@@ATL@@UEAAJKPEAUtagCONNECTDATA@@PEAK@Z 0000000180020ce0 f i SpeechSynthesis.obj
 0001:0001fea0       ?NextToken@CRegParser@ATL@@IEAAJPEA_W@Z 0000000180020ea0 f i SpeechSynthesis.obj
 0001:00020230       ?OLE2CT_EX@@YAPEB_WPEB_WI@Z 0000000180021230 f i SpeechSynthesis.obj
 0001:00020250       ?OLE2CT_EX_DEF@@YAPEB_WPEB_W@Z 0000000180021250 f i SpeechSynthesis.obj
 0001:00020260       ?OLE2T_EX@@YAPEA_WPEA_WI@Z 0000000180021260 f i SpeechSynthesis.obj
 0001:00020280       ?OnAmbientPropertyChange@?$IOleControlImpl@VCOPOSSpeechSynthesis@@@ATL@@UEAAJJ@Z 0000000180021280 f i SpeechSynthesis.obj
 0001:00020340       ?OnDocWindowActivate@?$IOleInPlaceActiveObjectImpl@VCOPOSSpeechSynthesis@@@ATL@@UEAAJH@Z 0000000180021340 f i SpeechSynthesis.obj
 0001:00020400       ?OnDrawAdvanced@CComControlBase@ATL@@UEAAJAEAUATL_DRAWINFO@@@Z 0000000180021400 f i SpeechSynthesis.obj
 0001:00020650       ?OnFinalMessage@?$CWindowImplBaseT@VCWindow@ATL@@V?$CWinTraits@$0FGAAAAAA@$0A@@2@@ATL@@UEAAXPEAUHWND__@@@Z 0000000180021650 f i SpeechSynthesis.obj
 0001:00020660       ?OnFrameWindowActivate@?$IOleInPlaceActiveObjectImpl@VCOPOSSpeechSynthesis@@@ATL@@UEAAJH@Z 0000000180021660 f i SpeechSynthesis.obj
 0001:000206d0       ?OnKillFocus@CComControlBase@ATL@@QEAA_JI_K_JAEAH@Z 00000001800216d0 f i SpeechSynthesis.obj
 0001:000207c0       ?OnMnemonic@?$IOleControlImpl@VCOPOSSpeechSynthesis@@@ATL@@UEAAJPEAUtagMSG@@@Z 00000001800217c0 f i SpeechSynthesis.obj
 0001:00020850       ?OnMouseActivate@CComControlBase@ATL@@QEAA_JI_K_JAEAH@Z 0000000180021850 f i SpeechSynthesis.obj
 0001:000209f0       ?OnPaint@CComControlBase@ATL@@QEAA_JI_K_JAEAH@Z 00000001800219f0 f i SpeechSynthesis.obj
 0001:00020b80       ?OnPostVerbDiscardUndo@?$IOleObjectImpl@VCOPOSSpeechSynthesis@@@ATL@@QEAAJXZ 0000000180021b80 f i SpeechSynthesis.obj
 0001:00020b90       ?OnPostVerbHide@?$IOleObjectImpl@VCOPOSSpeechSynthesis@@@ATL@@QEAAJXZ 0000000180021b90 f i SpeechSynthesis.obj
 0001:00020ba0       ?OnPostVerbInPlaceActivate@?$IOleObjectImpl@VCOPOSSpeechSynthesis@@@ATL@@QEAAJXZ 0000000180021ba0 f i SpeechSynthesis.obj
 0001:00020bb0       ?OnPostVerbOpen@?$IOleObjectImpl@VCOPOSSpeechSynthesis@@@ATL@@QEAAJXZ 0000000180021bb0 f i SpeechSynthesis.obj
 0001:00020bc0       ?OnPostVerbShow@?$IOleObjectImpl@VCOPOSSpeechSynthesis@@@ATL@@QEAAJXZ 0000000180021bc0 f i SpeechSynthesis.obj
 0001:00020bd0       ?OnPostVerbUIActivate@?$IOleObjectImpl@VCOPOSSpeechSynthesis@@@ATL@@QEAAJXZ 0000000180021bd0 f i SpeechSynthesis.obj
 0001:00020be0       ?OnPreVerbDiscardUndo@?$IOleObjectImpl@VCOPOSSpeechSynthesis@@@ATL@@QEAAJXZ 0000000180021be0 f i SpeechSynthesis.obj
 0001:00020bf0       ?OnPreVerbHide@?$IOleObjectImpl@VCOPOSSpeechSynthesis@@@ATL@@QEAAJXZ 0000000180021bf0 f i SpeechSynthesis.obj
 0001:00020c00       ?OnPreVerbInPlaceActivate@?$IOleObjectImpl@VCOPOSSpeechSynthesis@@@ATL@@QEAAJXZ 0000000180021c00 f i SpeechSynthesis.obj
 0001:00020c10       ?OnPreVerbOpen@?$IOleObjectImpl@VCOPOSSpeechSynthesis@@@ATL@@QEAAJXZ 0000000180021c10 f i SpeechSynthesis.obj
 0001:00020c20       ?OnPreVerbShow@?$IOleObjectImpl@VCOPOSSpeechSynthesis@@@ATL@@QEAAJXZ 0000000180021c20 f i SpeechSynthesis.obj
 0001:00020c30       ?OnPreVerbUIActivate@?$IOleObjectImpl@VCOPOSSpeechSynthesis@@@ATL@@QEAAJXZ 0000000180021c30 f i SpeechSynthesis.obj
 0001:00020c40       ?OnSetFocus@CComControlBase@ATL@@QEAA_JI_K_JAEAH@Z 0000000180021c40 f i SpeechSynthesis.obj
 0001:00020e40       ?OnWindowMessage@?$IOleInPlaceObjectWindowlessImpl@VCOPOSSpeechSynthesis@@@ATL@@UEAAJI_K_JPEA_J@Z 0000000180021e40 f i SpeechSynthesis.obj
 0001:00021060       ?Open@CRegKey@ATL@@QEAAJPEAUHKEY__@@PEB_WK@Z 0000000180022060 f i SpeechSynthesis.obj
 0001:000211e0       ?OuterAddRef@CComObjectRootBase@ATL@@QEAAKXZ 00000001800221e0 f i SpeechSynthesis.obj
 0001:00021220       ?OuterQueryInterface@CComObjectRootBase@ATL@@QEAAJAEBU_GUID@@PEAPEAX@Z 0000000180022220 f i SpeechSynthesis.obj
 0001:00021270       ?OuterRelease@CComObjectRootBase@ATL@@QEAAKXZ 0000000180022270 f i SpeechSynthesis.obj
 0001:000212b0       ?PreProcessBuffer@CRegParser@ATL@@QEAAJPEA_WPEAPEA_W@Z 00000001800222b0 f i SpeechSynthesis.obj
 0001:00021990       ?PreTranslateAccelerator@CComControlBase@ATL@@QEAAHPEAUtagMSG@@AEAJ@Z 0000000180022990 f i SpeechSynthesis.obj
 0001:000219b0       ?ProcessWindowMessage@?$CComControl@VCOPOSSpeechSynthesis@@V?$CWindowImpl@VCOPOSSpeechSynthesis@@VCWindow@ATL@@V?$CWinTraits@$0FGAAAAAA@$0A@@3@@ATL@@@ATL@@UEAAHPEAUHWND__@@I_K_JAEA_JK@Z 00000001800229b0 f i SpeechSynthesis.obj
 0001:00021c30       ?ProcessWindowMessage@COPOSSpeechSynthesis@@UEAAHPEAUHWND__@@I_K_JAEA_JK@Z 0000000180022c30 f i SpeechSynthesis.obj
 0001:00021db0       ?PutProperty@?$CComPtr@UIDispatch@@@ATL@@QEAAJJPEAUtagVARIANT@@@Z 0000000180022db0 f i SpeechSynthesis.obj
 0001:00021e00       ?PutProperty@?$CComPtr@UIDispatch@@@ATL@@SAJPEAUIDispatch@@JPEAUtagVARIANT@@@Z 0000000180022e00 f i SpeechSynthesis.obj
 0001:000220a0       ?QueryGetData@?$IDataObjectImpl@VCOPOSSpeechSynthesis@@@ATL@@UEAAJPEAUtagFORMATETC@@@Z 00000001800230a0 f i SpeechSynthesis.obj
 0001:00022130       ?QueryHitPoint@?$IViewObjectExImpl@VCOPOSSpeechSynthesis@@@ATL@@UEAAJKPEBUtagRECT@@UtagPOINT@@JPEAK@Z 0000000180023130 f i SpeechSynthesis.obj
 0001:000222a0       ?QueryHitRect@?$IViewObjectExImpl@VCOPOSSpeechSynthesis@@@ATL@@UEAAJKPEBUtagRECT@@0JPEAK@Z 00000001800232a0 f i SpeechSynthesis.obj
 0001:00022470       ?QueryInterface@?$CComAggObject@VCOPOSSpeechSynthesis@@@ATL@@UEAAJAEBU_GUID@@PEAPEAX@Z 0000000180023470 f i SpeechSynthesis.obj
 0001:00022560       ?QueryInterface@?$CComContainedObject@VCOPOSSpeechSynthesis@@@ATL@@UEAAJAEBU_GUID@@PEAPEAX@Z 0000000180023560 f i SpeechSynthesis.obj
 0001:000225ac       ?QueryInterface@?$CComContainedObject@VCOPOSSpeechSynthesis@@@ATL@@WBAA@EAAJAEBU_GUID@@PEAPEAX@Z 00000001800235ac f i SpeechSynthesis.obj
 0001:000225b8       ?QueryInterface@?$CComContainedObject@VCOPOSSpeechSynthesis@@@ATL@@WBAI@EAAJAEBU_GUID@@PEAPEAX@Z 00000001800235b8 f i SpeechSynthesis.obj
 0001:000225c4       ?QueryInterface@?$CComContainedObject@VCOPOSSpeechSynthesis@@@ATL@@WBBA@EAAJAEBU_GUID@@PEAPEAX@Z 00000001800235c4 f i SpeechSynthesis.obj
 0001:000225d0       ?QueryInterface@?$CComContainedObject@VCOPOSSpeechSynthesis@@@ATL@@WBBI@EAAJAEBU_GUID@@PEAPEAX@Z 00000001800235d0 f i SpeechSynthesis.obj
 0001:000225dc       ?QueryInterface@?$CComContainedObject@VCOPOSSpeechSynthesis@@@ATL@@WLI@EAAJAEBU_GUID@@PEAPEAX@Z 00000001800235dc f i SpeechSynthesis.obj
 0001:000225e8       ?QueryInterface@?$CComContainedObject@VCOPOSSpeechSynthesis@@@ATL@@WMA@EAAJAEBU_GUID@@PEAPEAX@Z 00000001800235e8 f i SpeechSynthesis.obj
 0001:000225f4       ?QueryInterface@?$CComContainedObject@VCOPOSSpeechSynthesis@@@ATL@@WMI@EAAJAEBU_GUID@@PEAPEAX@Z 00000001800235f4 f i SpeechSynthesis.obj
 0001:00022600       ?QueryInterface@?$CComContainedObject@VCOPOSSpeechSynthesis@@@ATL@@WNA@EAAJAEBU_GUID@@PEAPEAX@Z 0000000180023600 f i SpeechSynthesis.obj
 0001:0002260c       ?QueryInterface@?$CComContainedObject@VCOPOSSpeechSynthesis@@@ATL@@WNI@EAAJAEBU_GUID@@PEAPEAX@Z 000000018002360c f i SpeechSynthesis.obj
 0001:00022618       ?QueryInterface@?$CComContainedObject@VCOPOSSpeechSynthesis@@@ATL@@WOA@EAAJAEBU_GUID@@PEAPEAX@Z 0000000180023618 f i SpeechSynthesis.obj
 0001:00022624       ?QueryInterface@?$CComContainedObject@VCOPOSSpeechSynthesis@@@ATL@@WOI@EAAJAEBU_GUID@@PEAPEAX@Z 0000000180023624 f i SpeechSynthesis.obj
 0001:00022630       ?QueryInterface@?$CComContainedObject@VCOPOSSpeechSynthesis@@@ATL@@WPA@EAAJAEBU_GUID@@PEAPEAX@Z 0000000180023630 f i SpeechSynthesis.obj
 0001:0002263c       ?QueryInterface@?$CComContainedObject@VCOPOSSpeechSynthesis@@@ATL@@WPI@EAAJAEBU_GUID@@PEAPEAX@Z 000000018002363c f i SpeechSynthesis.obj
 0001:00022650       ?QueryInterface@?$CComObject@V?$CComEnum@UIEnumConnectionPoints@@$1?_GUID_b196b285_bab4_101a_b69c_00aa00341d07@@3U__s_GUID@@BPEAUIConnectionPoint@@V?$_CopyInterface@UIConnectionPoint@@@ATL@@VCComSingleThreadModel@6@@ATL@@@ATL@@UEAAJAEBU_GUID@@PEAPEAX@Z 0000000180023650 f i SpeechSynthesis.obj
 0001:000226a0       ?QueryInterface@?$CComObject@V?$CComEnum@UIEnumConnections@@$1?_GUID_b196b287_bab4_101a_b69c_00aa00341d07@@3U__s_GUID@@BUtagCONNECTDATA@@V?$_Copy@UtagCONNECTDATA@@@ATL@@VCComSingleThreadModel@6@@ATL@@@ATL@@UEAAJAEBU_GUID@@PEAPEAX@Z 00000001800236a0 f i SpeechSynthesis.obj
 0001:000226f0       ?QueryInterface@?$CComObject@VCOPOSSpeechSynthesis@@@ATL@@UEAAJAEBU_GUID@@PEAPEAX@Z 00000001800236f0 f i SpeechSynthesis.obj
 0001:00022734       ?QueryInterface@?$CComObject@VCOPOSSpeechSynthesis@@@ATL@@WBAA@EAAJAEBU_GUID@@PEAPEAX@Z 0000000180023734 f i SpeechSynthesis.obj
 0001:00022740       ?QueryInterface@?$CComObject@VCOPOSSpeechSynthesis@@@ATL@@WBAI@EAAJAEBU_GUID@@PEAPEAX@Z 0000000180023740 f i SpeechSynthesis.obj
 0001:0002274c       ?QueryInterface@?$CComObject@VCOPOSSpeechSynthesis@@@ATL@@WBBA@EAAJAEBU_GUID@@PEAPEAX@Z 000000018002374c f i SpeechSynthesis.obj
 0001:00022758       ?QueryInterface@?$CComObject@VCOPOSSpeechSynthesis@@@ATL@@WBBI@EAAJAEBU_GUID@@PEAPEAX@Z 0000000180023758 f i SpeechSynthesis.obj
 0001:00022764       ?QueryInterface@?$CComObject@VCOPOSSpeechSynthesis@@@ATL@@WLI@EAAJAEBU_GUID@@PEAPEAX@Z 0000000180023764 f i SpeechSynthesis.obj
 0001:00022770       ?QueryInterface@?$CComObject@VCOPOSSpeechSynthesis@@@ATL@@WMA@EAAJAEBU_GUID@@PEAPEAX@Z 0000000180023770 f i SpeechSynthesis.obj
 0001:0002277c       ?QueryInterface@?$CComObject@VCOPOSSpeechSynthesis@@@ATL@@WMI@EAAJAEBU_GUID@@PEAPEAX@Z 000000018002377c f i SpeechSynthesis.obj
 0001:00022788       ?QueryInterface@?$CComObject@VCOPOSSpeechSynthesis@@@ATL@@WNA@EAAJAEBU_GUID@@PEAPEAX@Z 0000000180023788 f i SpeechSynthesis.obj
 0001:00022794       ?QueryInterface@?$CComObject@VCOPOSSpeechSynthesis@@@ATL@@WNI@EAAJAEBU_GUID@@PEAPEAX@Z 0000000180023794 f i SpeechSynthesis.obj
 0001:000227a0       ?QueryInterface@?$CComObject@VCOPOSSpeechSynthesis@@@ATL@@WOA@EAAJAEBU_GUID@@PEAPEAX@Z 00000001800237a0 f i SpeechSynthesis.obj
 0001:000227ac       ?QueryInterface@?$CComObject@VCOPOSSpeechSynthesis@@@ATL@@WOI@EAAJAEBU_GUID@@PEAPEAX@Z 00000001800237ac f i SpeechSynthesis.obj
 0001:000227b8       ?QueryInterface@?$CComObject@VCOPOSSpeechSynthesis@@@ATL@@WPA@EAAJAEBU_GUID@@PEAPEAX@Z 00000001800237b8 f i SpeechSynthesis.obj
 0001:000227c4       ?QueryInterface@?$CComObject@VCOPOSSpeechSynthesis@@@ATL@@WPI@EAAJAEBU_GUID@@PEAPEAX@Z 00000001800237c4 f i SpeechSynthesis.obj
 0001:000227d0       ?QueryInterface@?$CComObjectCached@VCComClassFactory@ATL@@@ATL@@UEAAJAEBU_GUID@@PEAPEAX@Z 00000001800237d0 f i SpeechSynthesis.obj
 0001:00022820       ?QueryInterface@CRegObject@ATL@@UEAAJAEBU_GUID@@PEAPEAX@Z 0000000180023820 f i SpeechSynthesis.obj
 0001:000228a0       ?QuickActivate@?$IQuickActivateImpl@VCOPOSSpeechSynthesis@@@ATL@@UEAAJPEAUtagQACONTAINER@@PEAUtagQACONTROL@@@Z 00000001800238a0 f i SpeechSynthesis.obj
 0001:00022960       ?ReactivateAndUndo@?$IOleInPlaceObjectWindowlessImpl@VCOPOSSpeechSynthesis@@@ATL@@UEAAJXZ 0000000180023960 f i SpeechSynthesis.obj
 0001:000229e0       ?ReadFromStream@CComBSTR@ATL@@QEAAJPEAUIStream@@@Z 00000001800239e0 f i SpeechSynthesis.obj
 0001:00022ec0       ?ReadFromStream@CComVariant@ATL@@QEAAJPEAUIStream@@GTClassesAllowedInStream@2@K@Z 0000000180023ec0 f i SpeechSynthesis.obj
 0001:000232f0       ?RecurseDeleteKey@CRegKey@ATL@@QEAAJPEB_W@Z 00000001800242f0 f i SpeechSynthesis.obj
 0001:00023510       ?RegCreateKeyExW@CAtlTransactionManager@ATL@@QEAAJPEAUHKEY__@@PEB_WKPEA_WKKQEAU_SECURITY_ATTRIBUTES@@PEAPEAU3@PEAK@Z 0000000180024510 f i SpeechSynthesis.obj
 0001:000236e0       ?RegDeleteKeyW@CAtlTransactionManager@ATL@@QEAAJPEAUHKEY__@@PEB_W@Z 00000001800246e0 f i SpeechSynthesis.obj
 0001:000237f0       ?RegOpenKeyExW@CAtlTransactionManager@ATL@@QEAAJPEAUHKEY__@@PEB_WKKPEAPEAU3@@Z 00000001800247f0 f i SpeechSynthesis.obj
 0001:00023940       ?Register@_ATL_WNDCLASSINFOW@ATL@@QEAAGPEAP6A_JPEAUHWND__@@I_K_J@Z@Z 0000000180024940 f i SpeechSynthesis.obj
 0001:00023990       ?RegisterBuffer@CRegParser@ATL@@QEAAJPEA_WH@Z 0000000180024990 f i SpeechSynthesis.obj
 0001:00023d80       ?RegisterClassExW@AtlModuleRegisterWndClassInfoParamW@ATL@@SAGPEAU_ATL_WIN_MODULE70@2@PEBUtagWNDCLASSEXW@@@Z 0000000180024d80 f i SpeechSynthesis.obj
 0001:00023dc0       ?RegisterFromResource@CRegObject@ATL@@IEAAJPEB_W00H@Z 0000000180024dc0 f i SpeechSynthesis.obj
 0001:00024220       ?RegisterServer@?$CAtlModuleT@VCComModule@ATL@@@ATL@@QEAAJHPEBU_GUID@@@Z 0000000180025220 f i SpeechSynthesis.obj
 0001:000242a0       ?RegisterServer@CAtlComModule@ATL@@QEAAJHPEBU_GUID@@@Z 00000001800252a0 f i SpeechSynthesis.obj
 0001:000242e0       ?RegisterServer@CComModule@ATL@@QEAAJHPEBU_GUID@@@Z 00000001800252e0 f i SpeechSynthesis.obj
 0001:000243e0       ?RegisterSubkeys@CRegParser@ATL@@IEAAJPEA_WPEAUHKEY__@@HH@Z 00000001800253e0 f i SpeechSynthesis.obj
 0001:000251c0       ?Release@?$CComAggObject@VCOPOSSpeechSynthesis@@@ATL@@UEAAKXZ 00000001800261c0 f i SpeechSynthesis.obj
 0001:00025270       ?Release@?$CComContainedObject@VCOPOSSpeechSynthesis@@@ATL@@UEAAKXZ 0000000180026270 f i SpeechSynthesis.obj
 0001:000252a8       ?Release@?$CComContainedObject@VCOPOSSpeechSynthesis@@@ATL@@WBAA@EAAKXZ 00000001800262a8 f i SpeechSynthesis.obj
 0001:000252b4       ?Release@?$CComContainedObject@VCOPOSSpeechSynthesis@@@ATL@@WBAI@EAAKXZ 00000001800262b4 f i SpeechSynthesis.obj
 0001:000252c0       ?Release@?$CComContainedObject@VCOPOSSpeechSynthesis@@@ATL@@WBBA@EAAKXZ 00000001800262c0 f i SpeechSynthesis.obj
 0001:000252cc       ?Release@?$CComContainedObject@VCOPOSSpeechSynthesis@@@ATL@@WBBI@EAAKXZ 00000001800262cc f i SpeechSynthesis.obj
 0001:000252d8       ?Release@?$CComContainedObject@VCOPOSSpeechSynthesis@@@ATL@@WBCI@EAAKXZ 00000001800262d8 f i SpeechSynthesis.obj
 0001:000252e4       ?Release@?$CComContainedObject@VCOPOSSpeechSynthesis@@@ATL@@WBEA@EAAKXZ 00000001800262e4 f i SpeechSynthesis.obj
 0001:000252f0       ?Release@?$CComContainedObject@VCOPOSSpeechSynthesis@@@ATL@@WLI@EAAKXZ 00000001800262f0 f i SpeechSynthesis.obj
 0001:000252fc       ?Release@?$CComContainedObject@VCOPOSSpeechSynthesis@@@ATL@@WMA@EAAKXZ 00000001800262fc f i SpeechSynthesis.obj
 0001:00025308       ?Release@?$CComContainedObject@VCOPOSSpeechSynthesis@@@ATL@@WMI@EAAKXZ 0000000180026308 f i SpeechSynthesis.obj
 0001:00025314       ?Release@?$CComContainedObject@VCOPOSSpeechSynthesis@@@ATL@@WNA@EAAKXZ 0000000180026314 f i SpeechSynthesis.obj
 0001:00025320       ?Release@?$CComContainedObject@VCOPOSSpeechSynthesis@@@ATL@@WNI@EAAKXZ 0000000180026320 f i SpeechSynthesis.obj
 0001:0002532c       ?Release@?$CComContainedObject@VCOPOSSpeechSynthesis@@@ATL@@WOA@EAAKXZ 000000018002632c f i SpeechSynthesis.obj
 0001:00025338       ?Release@?$CComContainedObject@VCOPOSSpeechSynthesis@@@ATL@@WOI@EAAKXZ 0000000180026338 f i SpeechSynthesis.obj
 0001:00025344       ?Release@?$CComContainedObject@VCOPOSSpeechSynthesis@@@ATL@@WPA@EAAKXZ 0000000180026344 f i SpeechSynthesis.obj
 0001:00025350       ?Release@?$CComContainedObject@VCOPOSSpeechSynthesis@@@ATL@@WPI@EAAKXZ 0000000180026350 f i SpeechSynthesis.obj
 0001:00025360       ?Release@?$CComObject@V?$CComEnum@UIEnumConnectionPoints@@$1?_GUID_b196b285_bab4_101a_b69c_00aa00341d07@@3U__s_GUID@@BPEAUIConnectionPoint@@V?$_CopyInterface@UIConnectionPoint@@@ATL@@VCComSingleThreadModel@6@@ATL@@@ATL@@UEAAKXZ 0000000180026360 f i SpeechSynthesis.obj
 0001:00025410       ?Release@?$CComObject@V?$CComEnum@UIEnumConnections@@$1?_GUID_b196b287_bab4_101a_b69c_00aa00341d07@@3U__s_GUID@@BUtagCONNECTDATA@@V?$_Copy@UtagCONNECTDATA@@@ATL@@VCComSingleThreadModel@6@@ATL@@@ATL@@UEAAKXZ 0000000180026410 f i SpeechSynthesis.obj
 0001:000254c0       ?Release@?$CComObject@VCOPOSSpeechSynthesis@@@ATL@@UEAAKXZ 00000001800264c0 f i SpeechSynthesis.obj
 0001:00025578       ?Release@?$CComObject@VCOPOSSpeechSynthesis@@@ATL@@WBAA@EAAKXZ 0000000180026578 f i SpeechSynthesis.obj
 0001:00025584       ?Release@?$CComObject@VCOPOSSpeechSynthesis@@@ATL@@WBAI@EAAKXZ 0000000180026584 f i SpeechSynthesis.obj
 0001:00025590       ?Release@?$CComObject@VCOPOSSpeechSynthesis@@@ATL@@WBBA@EAAKXZ 0000000180026590 f i SpeechSynthesis.obj
 0001:0002559c       ?Release@?$CComObject@VCOPOSSpeechSynthesis@@@ATL@@WBBI@EAAKXZ 000000018002659c f i SpeechSynthesis.obj
 0001:000255a8       ?Release@?$CComObject@VCOPOSSpeechSynthesis@@@ATL@@WBCI@EAAKXZ 00000001800265a8 f i SpeechSynthesis.obj
 0001:000255b4       ?Release@?$CComObject@VCOPOSSpeechSynthesis@@@ATL@@WBEA@EAAKXZ 00000001800265b4 f i SpeechSynthesis.obj
 0001:000255c0       ?Release@?$CComObject@VCOPOSSpeechSynthesis@@@ATL@@WLI@EAAKXZ 00000001800265c0 f i SpeechSynthesis.obj
 0001:000255cc       ?Release@?$CComObject@VCOPOSSpeechSynthesis@@@ATL@@WMA@EAAKXZ 00000001800265cc f i SpeechSynthesis.obj
 0001:000255d8       ?Release@?$CComObject@VCOPOSSpeechSynthesis@@@ATL@@WMI@EAAKXZ 00000001800265d8 f i SpeechSynthesis.obj
 0001:000255e4       ?Release@?$CComObject@VCOPOSSpeechSynthesis@@@ATL@@WNA@EAAKXZ 00000001800265e4 f i SpeechSynthesis.obj
 0001:000255f0       ?Release@?$CComObject@VCOPOSSpeechSynthesis@@@ATL@@WNI@EAAKXZ 00000001800265f0 f i SpeechSynthesis.obj
 0001:000255fc       ?Release@?$CComObject@VCOPOSSpeechSynthesis@@@ATL@@WOA@EAAKXZ 00000001800265fc f i SpeechSynthesis.obj
 0001:00025608       ?Release@?$CComObject@VCOPOSSpeechSynthesis@@@ATL@@WOI@EAAKXZ 0000000180026608 f i SpeechSynthesis.obj
 0001:00025614       ?Release@?$CComObject@VCOPOSSpeechSynthesis@@@ATL@@WPA@EAAKXZ 0000000180026614 f i SpeechSynthesis.obj
 0001:00025620       ?Release@?$CComObject@VCOPOSSpeechSynthesis@@@ATL@@WPI@EAAKXZ 0000000180026620 f i SpeechSynthesis.obj
 0001:00025630       ?Release@?$CComObjectCached@VCComClassFactory@ATL@@@ATL@@UEAAKXZ 0000000180026630 f i SpeechSynthesis.obj
 0001:000256d0       ?Release@?$CComPtrBase@UIAdviseSink@@@ATL@@QEAAXXZ 00000001800266d0 f i SpeechSynthesis.obj
 0001:00025730       ?Release@?$CComPtrBase@UIDispatch@@@ATL@@QEAAXXZ 0000000180026730 f i SpeechSynthesis.obj
 0001:00025790       ?Release@?$CComPtrBase@UIOleInPlaceSiteWindowless@@@ATL@@QEAAXXZ 0000000180026790 f i SpeechSynthesis.obj
 0001:000257f0       ?Release@CRegObject@ATL@@UEAAKXZ 00000001800267f0 f i SpeechSynthesis.obj
 0001:00025860       ?Remove@CComDynamicUnkArray@ATL@@QEAAHK@Z 0000000180026860 f i SpeechSynthesis.obj
 0001:00025940       ?RemoveAll@?$CSimpleMap@PEA_WPEA_WVCExpansionVectorEqualHelper@ATL@@@ATL@@QEAAXXZ 0000000180026940 f i SpeechSynthesis.obj
 0001:000259e0       ?Reset@?$CComEnumImpl@UIEnumConnectionPoints@@$1?_GUID_b196b285_bab4_101a_b69c_00aa00341d07@@3U__s_GUID@@BPEAUIConnectionPoint@@V?$_CopyInterface@UIConnectionPoint@@@ATL@@@ATL@@UEAAJXZ 00000001800269e0 f i SpeechSynthesis.obj
 0001:00025a00       ?Reset@?$CComEnumImpl@UIEnumConnections@@$1?_GUID_b196b287_bab4_101a_b69c_00aa00341d07@@3U__s_GUID@@BUtagCONNECTDATA@@V?$_Copy@UtagCONNECTDATA@@@ATL@@@ATL@@UEAAJXZ 0000000180026a00 f i SpeechSynthesis.obj
 0001:00025a20       ?ResizeBorder@?$IOleInPlaceActiveObjectImpl@VCOPOSSpeechSynthesis@@@ATL@@UEAAJPEBUtagRECT@@PEAUIOleInPlaceUIWindow@@H@Z 0000000180026a20 f i SpeechSynthesis.obj
 0001:00025aa0       ?ResourceRegister@CRegObject@ATL@@QEAAJPEB_WI0@Z 0000000180026aa0 f i SpeechSynthesis.obj
 0001:00025b80       ?ResourceRegisterSz@CRegObject@ATL@@QEAAJPEB_W00@Z 0000000180026b80 f i SpeechSynthesis.obj
 0001:00025ca0       ?ResourceUnregister@CRegObject@ATL@@QEAAJPEB_WI0@Z 0000000180026ca0 f i SpeechSynthesis.obj
 0001:00025d80       ?ResourceUnregisterSz@CRegObject@ATL@@QEAAJPEB_W00@Z 0000000180026d80 f i SpeechSynthesis.obj
 0001:00025ea0       ?SODataDummy@COPOSSpeechSynthesis@@MEAAJJ@Z 0000000180026ea0 f i SpeechSynthesis.obj
 0001:00025ec0       ?SODirectIO@COPOSSpeechSynthesis@@MEAAJJPEAJPEAPEA_W@Z 0000000180026ec0 f i SpeechSynthesis.obj
 0001:00026100       ?SOError@COPOSSpeechSynthesis@@MEAAJJJJPEAJ@Z 0000000180027100 f i SpeechSynthesis.obj
 0001:00026210       ?SOOutputComplete@COPOSSpeechSynthesis@@MEAAJJ@Z 0000000180027210 f i SpeechSynthesis.obj
 0001:000262b0       ?SOStatusUpdate@COPOSSpeechSynthesis@@MEAAJJ@Z 00000001800272b0 f i SpeechSynthesis.obj
 0001:00026350       ?Save@?$IPersistStorageImpl@VCOPOSSpeechSynthesis@@@ATL@@UEAAJPEAUIStorage@@H@Z 0000000180027350 f i SpeechSynthesis.obj
 0001:00026510       ?Save@?$IPersistStreamInitImpl@VCOPOSSpeechSynthesis@@@ATL@@UEAAJPEAUIStream@@H@Z 0000000180027510 f i SpeechSynthesis.obj
 0001:000265d0       ?SaveCompleted@?$IPersistStorageImpl@VCOPOSSpeechSynthesis@@@ATL@@UEAAJPEAUIStorage@@@Z 00000001800275d0 f i SpeechSynthesis.obj
 0001:00026640       ?SendOnDataChange@CComControlBase@ATL@@QEAAJK@Z 0000000180027640 f i SpeechSynthesis.obj
 0001:00026730       ?SendOnSave@CComControlBase@ATL@@QEAAJXZ 0000000180027730 f i SpeechSynthesis.obj
 0001:000267a0       ?SendOnViewChange@CComControlBase@ATL@@QEAAJKJ@Z 00000001800277a0 f i SpeechSynthesis.obj
 0001:00026820       ?SetAdvise@?$IViewObjectExImpl@VCOPOSSpeechSynthesis@@@ATL@@UEAAJKKPEAUIAdviseSink@@@Z 0000000180027820 f i SpeechSynthesis.obj
 0001:000268e0       ?SetClientSite@?$IOleObjectImpl@VCOPOSSpeechSynthesis@@@ATL@@UEAAJPEAUIOleClientSite@@@Z 00000001800278e0 f i SpeechSynthesis.obj
 0001:00026990       ?SetColorScheme@?$IOleObjectImpl@VCOPOSSpeechSynthesis@@@ATL@@UEAAJPEAUtagLOGPALETTE@@@Z 0000000180027990 f i SpeechSynthesis.obj
 0001:00026a20       ?SetContentExtent@?$IQuickActivateImpl@VCOPOSSpeechSynthesis@@@ATL@@UEAAJPEAUtagSIZE@@@Z 0000000180027a20 f i SpeechSynthesis.obj
 0001:00026ae0       ?SetControlFocus@CComControlBase@ATL@@QEAAHH@Z 0000000180027ae0 f i SpeechSynthesis.obj
 0001:00026c70       ?SetDWORDValue@CRegKey@ATL@@QEAAJPEB_WK@Z 0000000180027c70 f i SpeechSynthesis.obj
 0001:00026d20       ?SetData@?$IDataObjectImpl@VCOPOSSpeechSynthesis@@@ATL@@UEAAJPEAUtagFORMATETC@@PEAUtagSTGMEDIUM@@H@Z 0000000180027d20 f i SpeechSynthesis.obj
 0001:00026db0       ?SetExtent@?$IOleObjectImpl@VCOPOSSpeechSynthesis@@@ATL@@UEAAJKPEAUtagSIZE@@@Z 0000000180027db0 f i SpeechSynthesis.obj
 0001:00026e70       ?SetHostNames@?$IOleObjectImpl@VCOPOSSpeechSynthesis@@@ATL@@UEAAJPEB_W0@Z 0000000180027e70 f i SpeechSynthesis.obj
 0001:00026ef0       ?SetInterfaceSafetyOptions@?$IObjectSafetyImpl@VCOPOSSpeechSynthesis@@$02@ATL@@UEAAJAEBU_GUID@@KK@Z 0000000180027ef0 f i SpeechSynthesis.obj
 0001:00027090       ?SetMoniker@?$IOleObjectImpl@VCOPOSSpeechSynthesis@@@ATL@@UEAAJKPEAUIMoniker@@@Z 0000000180028090 f i SpeechSynthesis.obj
 0001:00027120       ?SetMultiStringValue@CRegKey@ATL@@QEAAJPEB_W0@Z 0000000180028120 f i SpeechSynthesis.obj
 0001:00027290       ?SetObjectRects@?$IOleInPlaceObjectWindowlessImpl@VCOPOSSpeechSynthesis@@@ATL@@UEAAJPEBUtagRECT@@0@Z 0000000180028290 f i SpeechSynthesis.obj
 0001:00027350       ?SetStringValue@CRegKey@ATL@@QEAAJPEB_W0K@Z 0000000180028350 f i SpeechSynthesis.obj
 0001:000274d0       ?SetVoid@CComClassFactory@ATL@@QEAAXPEAX@Z 00000001800284d0 f i SpeechSynthesis.obj
 0001:000274f0       ?SetVoid@CComObjectRootBase@ATL@@QEAAXPEAX@Z 00000001800284f0 f i SpeechSynthesis.obj
 0001:00027500       ?ShowWindow@CWindow@ATL@@QEAAHH@Z 0000000180028500 f i SpeechSynthesis.obj
 0001:00027590       ?Skip@?$CComEnumImpl@UIEnumConnectionPoints@@$1?_GUID_b196b285_bab4_101a_b69c_00aa00341d07@@3U__s_GUID@@BPEAUIConnectionPoint@@V?$_CopyInterface@UIConnectionPoint@@@ATL@@@ATL@@UEAAJK@Z 0000000180028590 f i SpeechSynthesis.obj
 0001:00027630       ?Skip@?$CComEnumImpl@UIEnumConnections@@$1?_GUID_b196b287_bab4_101a_b69c_00aa00341d07@@3U__s_GUID@@BUtagCONNECTDATA@@V?$_Copy@UtagCONNECTDATA@@@ATL@@@ATL@@UEAAJK@Z 0000000180028630 f i SpeechSynthesis.obj
 0001:000276d0       ?SkipAssignment@CRegParser@ATL@@IEAAJPEA_W@Z 00000001800286d0 f i SpeechSynthesis.obj
 0001:000277d0       ?SkipWhiteSpace@CRegParser@ATL@@IEAAXXZ 00000001800287d0 f i SpeechSynthesis.obj
 0001:00027830       ?StartWindowProc@?$CWindowImplBaseT@VCWindow@ATL@@V?$CWinTraits@$0FGAAAAAA@$0A@@2@@ATL@@SA_JPEAUHWND__@@I_K_J@Z 0000000180028830 f i SpeechSynthesis.obj
 0001:000279a0       ?StrChrW@CRegParser@ATL@@KAPEA_WPEA_W_W@Z 00000001800289a0 f i SpeechSynthesis.obj
 0001:00027a20       ?StrFromMap@CRegObject@ATL@@QEAAPEB_WPEA_W@Z 0000000180028a20 f i SpeechSynthesis.obj
 0001:00027ae0       ?Swap@?$CComPtrBase@UIAdviseSink@@@ATL@@IEAAXAEAV12@@Z 0000000180028ae0 f i SpeechSynthesis.obj
 0001:00027b40       ?Swap@?$CComPtrBase@UIOleClientSite@@@ATL@@IEAAXAEAV12@@Z 0000000180028b40 f i SpeechSynthesis.obj
 0001:00027ba0       ?Swap@?$CComPtrBase@UIUnknown@@@ATL@@IEAAXAEAV12@@Z 0000000180028ba0 f i SpeechSynthesis.obj
 0001:00027c00       ?T2COLE_EX@@YAPEB_WPEB_WI@Z 0000000180028c00 f i SpeechSynthesis.obj
 0001:00027c20       ?T2OLE_EX@@YAPEA_WPEA_WI@Z 0000000180028c20 f i SpeechSynthesis.obj
 0001:00027c40       ?Term@CAtlModule@ATL@@QEAAXXZ 0000000180028c40 f i SpeechSynthesis.obj
 0001:00027d00       ?Term@CComModule@ATL@@QEAAXXZ 0000000180028d00 f i SpeechSynthesis.obj
 0001:00027df0       ?TranslateAcceleratorW@?$IOleInPlaceActiveObjectImpl@VCOPOSSpeechSynthesis@@@ATL@@UEAAJPEAUtagMSG@@@Z 0000000180028df0 f i SpeechSynthesis.obj
 0001:00028060       ?UIDeactivate@?$IOleInPlaceObjectWindowlessImpl@VCOPOSSpeechSynthesis@@@ATL@@UEAAJXZ 0000000180029060 f i SpeechSynthesis.obj
 0001:00028110       ?Unadvise@?$CProxy_IOPOSEvents@VCOPOSSpeechSynthesis@@@@UEAAJK@Z 0000000180029110 f i SpeechSynthesis.obj
 0001:00028160       ?Unadvise@?$IConnectionPointImpl@VCOPOSSpeechSynthesis@@$1?DIID__IOPOSSpeechSynthesisEvents@@3U_GUID@@BVCComDynamicUnkArray@ATL@@@ATL@@UEAAJK@Z 0000000180029160 f i SpeechSynthesis.obj
 0001:00028250       ?Unadvise@?$IConnectionPointImpl@VCOPOSSpeechSynthesis@@$1?IID_IPropertyNotifySink@@3U_GUID@@BVCComDynamicUnkArray@ATL@@@ATL@@UEAAJK@Z 0000000180029250 f i SpeechSynthesis.obj
 0001:00028340       ?Unadvise@?$IOleObjectImpl@VCOPOSSpeechSynthesis@@@ATL@@UEAAJK@Z 0000000180029340 f i SpeechSynthesis.obj
 0001:00028430       ?Unfreeze@?$IViewObjectExImpl@VCOPOSSpeechSynthesis@@@ATL@@UEAAJK@Z 0000000180029430 f i SpeechSynthesis.obj
 0001:000284b0       ?Unlock@?$CComCritSecLock@VCComCriticalSection@ATL@@@ATL@@QEAAXXZ 00000001800294b0 f i SpeechSynthesis.obj
 0001:00028540       ?Unlock@?$CComObjectRootEx@VCComSingleThreadModel@ATL@@@ATL@@QEAAXXZ 0000000180029540 f i SpeechSynthesis.obj
 0001:00028550       ?Unlock@CAtlModule@ATL@@UEAAJXZ 0000000180029550 f i SpeechSynthesis.obj
 0001:00028590       ?Unlock@CComCriticalSection@ATL@@QEAAJXZ 0000000180029590 f i SpeechSynthesis.obj
 0001:000285d0       ?Unlock@CComFakeCriticalSection@ATL@@QEAAJXZ 00000001800295d0 f i SpeechSynthesis.obj
 0001:000285e0       ?UnregisterServer@?$CAtlModuleT@VCComModule@ATL@@@ATL@@QEAAJHPEBU_GUID@@@Z 00000001800295e0 f i SpeechSynthesis.obj
 0001:00028650       ?UnregisterServer@CAtlComModule@ATL@@QEAAJHPEBU_GUID@@@Z 0000000180029650 f i SpeechSynthesis.obj
 0001:00028690       ?UnregisterServer@CComModule@ATL@@QEAAJHPEBU_GUID@@@Z 0000000180029690 f i SpeechSynthesis.obj
 0001:00028780       ?Update@?$IOleObjectImpl@VCOPOSSpeechSynthesis@@@ATL@@UEAAJXZ 0000000180029780 f i SpeechSynthesis.obj
 0001:000287f0       ?UpdateRegistryFromResource@CAtlModule@ATL@@QEAAJIHPEAU_ATL_REGMAP_ENTRY@2@@Z 00000001800297f0 f i SpeechSynthesis.obj
 0001:00028d20       ?UpdateRegistryFromResource@CAtlModule@ATL@@QEAAJPEB_WHPEAU_ATL_REGMAP_ENTRY@2@@Z 0000000180029d20 f i SpeechSynthesis.obj
 0001:00029270       ?UpdateRegistryFromResource@CComModule@ATL@@UEAAJIHPEAU_ATL_REGMAP_ENTRY@2@@Z 000000018002a270 f i SpeechSynthesis.obj
 0001:000292c0       ?UpdateRegistryFromResource@CComModule@ATL@@UEAAJPEB_WHPEAU_ATL_REGMAP_ENTRY@2@@Z 000000018002a2c0 f i SpeechSynthesis.obj
 0001:00029310       ?UpdateRegistryFromResourceD@CComModule@ATL@@UEAAJIHPEAU_ATL_REGMAP_ENTRY@2@@Z 000000018002a310 f i SpeechSynthesis.obj
 0001:00029330       ?UpdateRegistryFromResourceD@CComModule@ATL@@UEAAJPEB_WHPEAU_ATL_REGMAP_ENTRY@2@@Z 000000018002a330 f i SpeechSynthesis.obj
 0001:00029350       ?VTFromRegType@CRegParser@ATL@@KAHPEB_WAEAG@Z 000000018002a350 f i SpeechSynthesis.obj
 0001:00029430       ?WindowProc@?$CWindowImplBaseT@VCWindow@ATL@@V?$CWinTraits@$0FGAAAAAA@$0A@@2@@ATL@@SA_JPEAUHWND__@@I_K_J@Z 000000018002a430 f i SpeechSynthesis.obj
 0001:00029710       ?WriteToStream@CComBSTR@ATL@@QEAAJPEAUIStream@@@Z 000000018002a710 f i SpeechSynthesis.obj
 0001:00029880       ?WriteToStream@CComVariant@ATL@@QEAAJPEAUIStream@@@Z 000000018002a880 f i SpeechSynthesis.obj
 0001:00029c90       ?WriteToStream@CComVariant@ATL@@QEAAJPEAUIStream@@G@Z 000000018002ac90 f i SpeechSynthesis.obj
 0001:00029d70       ?_AtlFinalConstruct@CComObjectRootBase@ATL@@QEAAJXZ 000000018002ad70 f i SpeechSynthesis.obj
 0001:00029d80       ?_AtlGetConversionACP@ATL@@YAIXZ 000000018002ad80 f i SpeechSynthesis.obj
 0001:00029d90       ?_AtlInitialConstruct@?$CComAggObject@VCOPOSSpeechSynthesis@@@ATL@@QEAAJXZ 000000018002ad90 f i SpeechSynthesis.obj
 0001:00029df0       ?_AtlInitialConstruct@?$CComObjectRootEx@VCComMultiThreadModel@ATL@@@ATL@@QEAAJXZ 000000018002adf0 f i SpeechSynthesis.obj
 0001:00029e30       ?_AtlInitialConstruct@?$CComObjectRootEx@VCComSingleThreadModel@ATL@@@ATL@@QEAAJXZ 000000018002ae30 f i SpeechSynthesis.obj
 0001:00029e40       ?_AtlVerifyStackAvailable@_ATL_SAFE_ALLOCA_IMPL@ATL@@YA_N_K@Z 000000018002ae40 f i SpeechSynthesis.obj
 0001:00029fa0       ?_GetEntries@?$CComEnum@UIEnumConnectionPoints@@$1?_GUID_b196b285_bab4_101a_b69c_00aa00341d07@@3U__s_GUID@@BPEAUIConnectionPoint@@V?$_CopyInterface@UIConnectionPoint@@@ATL@@VCComSingleThreadModel@6@@ATL@@SAPEBU_ATL_INTMAP_ENTRY@2@XZ 000000018002afa0 f i SpeechSynthesis.obj
 0001:00029fc0       ?_GetEntries@?$CComEnum@UIEnumConnections@@$1?_GUID_b196b287_bab4_101a_b69c_00aa00341d07@@3U__s_GUID@@BUtagCONNECTDATA@@V?$_Copy@UtagCONNECTDATA@@@ATL@@VCComSingleThreadModel@6@@ATL@@SAPEBU_ATL_INTMAP_ENTRY@2@XZ 000000018002afc0 f i SpeechSynthesis.obj
 0001:00029fe0       ?_GetEntries@CComClassFactory@ATL@@SAPEBU_ATL_INTMAP_ENTRY@2@XZ 000000018002afe0 f i SpeechSynthesis.obj
 0001:0002a000       ?_GetEntries@COPOSSpeechSynthesis@@SAPEBU_ATL_INTMAP_ENTRY@ATL@@XZ 000000018002b000 f i SpeechSynthesis.obj
 0001:0002a020       ?_GetRawUnknown@COPOSSpeechSynthesis@@QEAAPEAUIUnknown@@XZ 000000018002b020 f i SpeechSynthesis.obj
 0001:0002a0b0       ?_GetViewStatus@COPOSSpeechSynthesis@@QEAAKXZ 000000018002b0b0 f i SpeechSynthesis.obj
 0001:0002a0c0       ?_InternalQueryInterface@?$CComEnum@UIEnumConnectionPoints@@$1?_GUID_b196b285_bab4_101a_b69c_00aa00341d07@@3U__s_GUID@@BPEAUIConnectionPoint@@V?$_CopyInterface@UIConnectionPoint@@@ATL@@VCComSingleThreadModel@6@@ATL@@QEAAJAEBU_GUID@@PEAPEAX@Z 000000018002b0c0 f i SpeechSynthesis.obj
 0001:0002a110       ?_InternalQueryInterface@?$CComEnum@UIEnumConnections@@$1?_GUID_b196b287_bab4_101a_b69c_00aa00341d07@@3U__s_GUID@@BUtagCONNECTDATA@@V?$_Copy@UtagCONNECTDATA@@@ATL@@VCComSingleThreadModel@6@@ATL@@QEAAJAEBU_GUID@@PEAPEAX@Z 000000018002b110 f i SpeechSynthesis.obj
 0001:0002a160       ?_InternalQueryInterface@CComClassFactory@ATL@@QEAAJAEBU_GUID@@PEAPEAX@Z 000000018002b160 f i SpeechSynthesis.obj
 0001:0002a1b0       ?_InternalQueryInterface@COPOSSpeechSynthesis@@QEAAJAEBU_GUID@@PEAPEAX@Z 000000018002b1b0 f i SpeechSynthesis.obj
 0001:0002a200       ?_LocCPQueryInterface@?$IConnectionPointImpl@VCOPOSSpeechSynthesis@@$1?DIID__IOPOSSpeechSynthesisEvents@@3U_GUID@@BVCComDynamicUnkArray@ATL@@@ATL@@UEAAJAEBU_GUID@@PEAPEAX@Z 000000018002b200 f i SpeechSynthesis.obj
 0001:0002a2e0       ?_LocCPQueryInterface@?$IConnectionPointImpl@VCOPOSSpeechSynthesis@@$1?IID_IPropertyNotifySink@@3U_GUID@@BVCComDynamicUnkArray@ATL@@@ATL@@UEAAJAEBU_GUID@@PEAPEAX@Z 000000018002b2e0 f i SpeechSynthesis.obj
 0001:0002a3c0       ?atlCreate@?$CWindowImpl@VCOPOSSpeechSynthesis@@VCWindow@ATL@@V?$CWinTraits@$0FGAAAAAA@$0A@@3@@ATL@@QEAAPEAUHWND__@@PEAU3@V_U_RECT@2@PEB_WKKV_U_MENUorID@2@PEAX@Z 000000018002b3c0 f i SpeechSynthesis.obj
 0001:0002a4f0       ?atlCreate@?$CWindowImplBaseT@VCWindow@ATL@@V?$CWinTraits@$0FGAAAAAA@$0A@@2@@ATL@@QEAAPEAUHWND__@@PEAU3@V_U_RECT@2@PEB_WKKV_U_MENUorID@2@GPEAX@Z 000000018002b4f0 f i SpeechSynthesis.obj
 0001:0002a750       ?atlCreate@CRegKey@ATL@@QEAAJPEAUHKEY__@@PEB_WPEA_WKKPEAU_SECURITY_ATTRIBUTES@@PEAK@Z 000000018002b750 f i SpeechSynthesis.obj
 0001:0002a940       ?begin@CComDynamicUnkArray@ATL@@QEAAPEAPEAUIUnknown@@XZ 000000018002b940 f i SpeechSynthesis.obj
 0001:0002a950       ?copy@?$_Copy@UtagCONNECTDATA@@@ATL@@SAJPEAUtagCONNECTDATA@@PEBU3@@Z 000000018002b950 f i SpeechSynthesis.obj
 0001:0002aa40       ?copy@?$_CopyInterface@UIConnectionPoint@@@ATL@@SAJPEAPEAUIConnectionPoint@@PEBQEAU3@@Z 000000018002ba40 f i SpeechSynthesis.obj
 0001:0002ab30       ?destroy@?$_Copy@UtagCONNECTDATA@@@ATL@@SAXPEAUtagCONNECTDATA@@@Z 000000018002bb30 f i SpeechSynthesis.obj
 0001:0002ab80       ?destroy@?$_CopyInterface@UIConnectionPoint@@@ATL@@SAXPEAPEAUIConnectionPoint@@@Z 000000018002bb80 f i SpeechSynthesis.obj
 0001:0002abd0       ?end@CComDynamicUnkArray@ATL@@QEAAPEAPEAUIUnknown@@XZ 000000018002bbd0 f i SpeechSynthesis.obj
 0001:0002abf0       ?init@?$_Copy@UtagCONNECTDATA@@@ATL@@SAXPEAUtagCONNECTDATA@@@Z 000000018002bbf0 f i SpeechSynthesis.obj
 0001:0002ac00       ?init@?$_CopyInterface@UIConnectionPoint@@@ATL@@SAXPEAPEAUIConnectionPoint@@@Z 000000018002bc00 f i SpeechSynthesis.obj
 0001:0002ac10       ?memcpy_s@Checked@ATL@@YAXPEAX_KPEBX1@Z 000000018002bc10 f i SpeechSynthesis.obj
 0001:0002ac70       ?ocscpy_s@@YA_NPEA_W_KPEB_W@Z 000000018002bc70 f i SpeechSynthesis.obj
 0001:0002acf0       ?ocslen@@YAHPEB_W@Z        000000018002bcf0 f i SpeechSynthesis.obj
 0001:0002ad30       ?tcsncpy_s@Checked@ATL@@YAHPEA_W_KPEB_W1@Z 000000018002bd30 f i SpeechSynthesis.obj
 0001:0002ad90       ?wcscat_s@Checked@ATL@@YAXPEA_W_KPEB_W@Z 000000018002bd90 f i SpeechSynthesis.obj
 0001:0002ade0       ?wcscpy_s@Checked@ATL@@YAXPEA_W_KPEB_W@Z 000000018002bde0 f i SpeechSynthesis.obj
 0001:0002ae30       ?wcsncpy_s@Checked@ATL@@YAHPEA_W_KPEB_W1@Z 000000018002be30 f i SpeechSynthesis.obj
 0001:0002ae90       ?wcsstr@@YAPEA_WPEA_WPEB_W@Z 000000018002be90 f i SpeechSynthesis.obj
 0001:0002aed0       InlineIsEqualGUID          000000018002bed0 f i SpeechSynthesis.obj
 0001:0002afa0       IsEqualGUID                000000018002bfa0 f i SpeechSynthesis.obj
 0001:0002b000       ??0COPOSSpeechSynthesis@@QEAA@XZ 000000018002c000 f   SpeechSynthesisImpl.obj
 0001:0002b180       ?FinalConstruct@COPOSSpeechSynthesis@@QEAAJXZ 000000018002c180 f   SpeechSynthesisImpl.obj
 0001:0002b270       ??1COPOSSpeechSynthesis@@UEAA@XZ 000000018002c270 f   SpeechSynthesisImpl.obj
 0001:0002b350       ?WriteTrace@COPOSSpeechSynthesis@@QEAAXPEB_WZZ 000000018002c350 f   SpeechSynthesisImpl.obj
 0001:0002b410       ?WriteTraceString@COPOSSpeechSynthesis@@QEAAXPEB_WPEA_W@Z 000000018002c410 f   SpeechSynthesisImpl.obj
 0001:0002b850       ?WriteTraceString@COPOSSpeechSynthesis@@QEAAXPEAXHHHPEB_WZZ 000000018002c850 f   SpeechSynthesisImpl.obj
 0001:0002bae0       ?WriteTraceError@COPOSSpeechSynthesis@@QEAAXPEB_WK@Z 000000018002cae0 f   SpeechSynthesisImpl.obj
 0001:0002bbe0       ?WriteTraceMethods@COPOSSpeechSynthesis@@QEAAXPEAJH@Z 000000018002cbe0 f   SpeechSynthesisImpl.obj
 0001:0002bc70       ?GetOposProp@COPOSSpeechSynthesis@@IEAAJPEBDJPEAJJ@Z 000000018002cc70 f   SpeechSynthesisImpl.obj
 0001:0002bf90       ?SetOposProp@COPOSSpeechSynthesis@@IEAAJPEBDJJJ@Z 000000018002cf90 f   SpeechSynthesisImpl.obj
 0001:0002c2f0       ?GetOposProp@COPOSSpeechSynthesis@@IEAAJPEBDJPEAFJ@Z 000000018002d2f0 f   SpeechSynthesisImpl.obj
 0001:0002c390       ?SetOposProp@COPOSSpeechSynthesis@@IEAAJPEBDJFJ@Z 000000018002d390 f   SpeechSynthesisImpl.obj
 0001:0002c410       ?GetOposProp@COPOSSpeechSynthesis@@IEAAJPEBDJPEAPEA_WJ@Z 000000018002d410 f   SpeechSynthesisImpl.obj
 0001:0002c730       ?SetOposProp@COPOSSpeechSynthesis@@IEAAJPEBDJPEA_WJ@Z 000000018002d730 f   SpeechSynthesisImpl.obj
 0001:0002cb10       ?DoInvoke@COPOSSpeechSynthesis@@IEAAJPEBDJPEAVOposVariant@@IHPEAJ_N@Z 000000018002db10 f   SpeechSynthesisImpl.obj
 0001:0002d660       ?SetCOFreezeEvents@COPOSSpeechSynthesis@@IEAAXF@Z 000000018002e660 f   SpeechSynthesisImpl.obj
 0001:0002d7f0       ?FreezeEvents@COPOSSpeechSynthesis@@MEAAJH@Z 000000018002e7f0 f   SpeechSynthesisImpl.obj
 0001:0002d920       ?OnDraw@COPOSSpeechSynthesis@@MEAAJAEAUATL_DRAWINFO@@@Z 000000018002e920 f   SpeechSynthesisImpl.obj
 0001:0002daf0       ?SOProcessID@COPOSSpeechSynthesis@@UEAAJPEAJ@Z 000000018002eaf0 f   SpeechSynthesisImpl.obj
 0001:0002db50       ?get_OpenResult@COPOSSpeechSynthesis@@UEAAJPEAJ@Z 000000018002eb50 f   SpeechSynthesisImpl.obj
 0001:0002dbb0       ?get_BinaryConversion@COPOSSpeechSynthesis@@UEAAJPEAJ@Z 000000018002ebb0 f   SpeechSynthesisImpl.obj
 0001:0002dc10       ?put_BinaryConversion@COPOSSpeechSynthesis@@UEAAJJ@Z 000000018002ec10 f   SpeechSynthesisImpl.obj
 0001:0002dc80       ?get_CapPowerReporting@COPOSSpeechSynthesis@@UEAAJPEAJ@Z 000000018002ec80 f   SpeechSynthesisImpl.obj
 0001:0002dce0       ?get_CheckHealthText@COPOSSpeechSynthesis@@UEAAJPEAPEA_W@Z 000000018002ece0 f   SpeechSynthesisImpl.obj
 0001:0002dd40       ?get_Claimed@COPOSSpeechSynthesis@@UEAAJPEAF@Z 000000018002ed40 f   SpeechSynthesisImpl.obj
 0001:0002dda0       ?get_DeviceEnabled@COPOSSpeechSynthesis@@UEAAJPEAF@Z 000000018002eda0 f   SpeechSynthesisImpl.obj
 0001:0002de00       ?put_DeviceEnabled@COPOSSpeechSynthesis@@UEAAJF@Z 000000018002ee00 f   SpeechSynthesisImpl.obj
 0001:0002de60       ?get_FreezeEvents@COPOSSpeechSynthesis@@UEAAJPEAF@Z 000000018002ee60 f   SpeechSynthesisImpl.obj
 0001:0002dec0       ?put_FreezeEvents@COPOSSpeechSynthesis@@UEAAJF@Z 000000018002eec0 f   SpeechSynthesisImpl.obj
 0001:0002dfa0       ?get_OutputID@COPOSSpeechSynthesis@@UEAAJPEAJ@Z 000000018002efa0 f   SpeechSynthesisImpl.obj
 0001:0002e000       ?get_PowerNotify@COPOSSpeechSynthesis@@UEAAJPEAJ@Z 000000018002f000 f   SpeechSynthesisImpl.obj
 0001:0002e060       ?put_PowerNotify@COPOSSpeechSynthesis@@UEAAJJ@Z 000000018002f060 f   SpeechSynthesisImpl.obj
 0001:0002e0c0       ?get_PowerState@COPOSSpeechSynthesis@@UEAAJPEAJ@Z 000000018002f0c0 f   SpeechSynthesisImpl.obj
 0001:0002e120       ?get_ResultCode@COPOSSpeechSynthesis@@UEAAJPEAJ@Z 000000018002f120 f   SpeechSynthesisImpl.obj
 0001:0002e1f0       ?get_ResultCodeExtended@COPOSSpeechSynthesis@@UEAAJPEAJ@Z 000000018002f1f0 f   SpeechSynthesisImpl.obj
 0001:0002e250       ?get_State@COPOSSpeechSynthesis@@UEAAJPEAJ@Z 000000018002f250 f   SpeechSynthesisImpl.obj
 0001:0002e2e0       ?get_ControlObjectDescription@COPOSSpeechSynthesis@@UEAAJPEAPEA_W@Z 000000018002f2e0 f   SpeechSynthesisImpl.obj
 0001:0002e360       ?get_ControlObjectVersion@COPOSSpeechSynthesis@@UEAAJPEAJ@Z 000000018002f360 f   SpeechSynthesisImpl.obj
 0001:0002e3c0       ?get_ServiceObjectDescription@COPOSSpeechSynthesis@@UEAAJPEAPEA_W@Z 000000018002f3c0 f   SpeechSynthesisImpl.obj
 0001:0002e420       ?get_ServiceObjectVersion@COPOSSpeechSynthesis@@UEAAJPEAJ@Z 000000018002f420 f   SpeechSynthesisImpl.obj
 0001:0002e480       ?get_DeviceDescription@COPOSSpeechSynthesis@@UEAAJPEAPEA_W@Z 000000018002f480 f   SpeechSynthesisImpl.obj
 0001:0002e4e0       ?get_DeviceName@COPOSSpeechSynthesis@@UEAAJPEAPEA_W@Z 000000018002f4e0 f   SpeechSynthesisImpl.obj
 0001:0002e540       ?get_CapStatisticsReporting@COPOSSpeechSynthesis@@UEAAJPEAF@Z 000000018002f540 f   SpeechSynthesisImpl.obj
 0001:0002e5a0       ?get_CapUpdateStatistics@COPOSSpeechSynthesis@@UEAAJPEAF@Z 000000018002f5a0 f   SpeechSynthesisImpl.obj
 0001:0002e600       ?get_CapCompareFirmwareVersion@COPOSSpeechSynthesis@@UEAAJPEAF@Z 000000018002f600 f   SpeechSynthesisImpl.obj
 0001:0002e660       ?get_CapUpdateFirmware@COPOSSpeechSynthesis@@UEAAJPEAF@Z 000000018002f660 f   SpeechSynthesisImpl.obj
 0001:0002e6c0       ?CheckHealth@COPOSSpeechSynthesis@@UEAAJJPEAJ@Z 000000018002f6c0 f   SpeechSynthesisImpl.obj
 0001:0002e780       ?ClaimDevice@COPOSSpeechSynthesis@@UEAAJJPEAJ@Z 000000018002f780 f   SpeechSynthesisImpl.obj
 0001:0002e8a0       ?ClearOutput@COPOSSpeechSynthesis@@UEAAJPEAJ@Z 000000018002f8a0 f   SpeechSynthesisImpl.obj
 0001:0002e910       ?Close@COPOSSpeechSynthesis@@UEAAJPEAJ@Z 000000018002f910 f   SpeechSynthesisImpl.obj
 0001:0002ea20       ?DirectIO@COPOSSpeechSynthesis@@UEAAJJPEAJPEAPEA_W0@Z 000000018002fa20 f   SpeechSynthesisImpl.obj
 0001:0002eba0       ?Open@COPOSSpeechSynthesis@@UEAAJPEA_WPEAJ@Z 000000018002fba0 f   SpeechSynthesisImpl.obj
 0001:00030080       ?ReleaseDevice@COPOSSpeechSynthesis@@UEAAJPEAJ@Z 0000000180031080 f   SpeechSynthesisImpl.obj
 0001:00030130       ?ResetStatistics@COPOSSpeechSynthesis@@UEAAJPEA_WPEAJ@Z 0000000180031130 f   SpeechSynthesisImpl.obj
 0001:00030210       ?RetrieveStatistics@COPOSSpeechSynthesis@@UEAAJPEAPEA_WPEAJ@Z 0000000180031210 f   SpeechSynthesisImpl.obj
 0001:000302f0       ?UpdateStatistics@COPOSSpeechSynthesis@@UEAAJPEA_WPEAJ@Z 00000001800312f0 f   SpeechSynthesisImpl.obj
 0001:000303d0       ?CompareFirmwareVersion@COPOSSpeechSynthesis@@UEAAJPEA_WPEAJ1@Z 00000001800313d0 f   SpeechSynthesisImpl.obj
 0001:00030510       ?UpdateFirmware@COPOSSpeechSynthesis@@UEAAJPEA_WPEAJ@Z 0000000180031510 f   SpeechSynthesisImpl.obj
 0001:000305f0       ?get_CapLanguage@COPOSSpeechSynthesis@@UEAAJPEAF@Z 00000001800315f0 f   SpeechSynthesisImpl.obj
 0001:00030650       ?get_CapPitch@COPOSSpeechSynthesis@@UEAAJPEAF@Z 0000000180031650 f   SpeechSynthesisImpl.obj
 0001:000306b0       ?get_CapSpeed@COPOSSpeechSynthesis@@UEAAJPEAF@Z 00000001800316b0 f   SpeechSynthesisImpl.obj
 0001:00030710       ?get_CapVoice@COPOSSpeechSynthesis@@UEAAJPEAF@Z 0000000180031710 f   SpeechSynthesisImpl.obj
 0001:00030770       ?get_CapVolume@COPOSSpeechSynthesis@@UEAAJPEAF@Z 0000000180031770 f   SpeechSynthesisImpl.obj
 0001:000307d0       ?get_Language@COPOSSpeechSynthesis@@UEAAJPEAPEA_W@Z 00000001800317d0 f   SpeechSynthesisImpl.obj
 0001:00030830       ?put_Language@COPOSSpeechSynthesis@@UEAAJPEA_W@Z 0000000180031830 f   SpeechSynthesisImpl.obj
 0001:00030890       ?get_LanguageList@COPOSSpeechSynthesis@@UEAAJPEAPEA_W@Z 0000000180031890 f   SpeechSynthesisImpl.obj
 0001:000308f0       ?get_OutputIDList@COPOSSpeechSynthesis@@UEAAJPEAPEA_W@Z 00000001800318f0 f   SpeechSynthesisImpl.obj
 0001:00030950       ?get_Pitch@COPOSSpeechSynthesis@@UEAAJPEAJ@Z 0000000180031950 f   SpeechSynthesisImpl.obj
 0001:000309b0       ?put_Pitch@COPOSSpeechSynthesis@@UEAAJJ@Z 00000001800319b0 f   SpeechSynthesisImpl.obj
 0001:00030a10       ?get_Speed@COPOSSpeechSynthesis@@UEAAJPEAJ@Z 0000000180031a10 f   SpeechSynthesisImpl.obj
 0001:00030a70       ?put_Speed@COPOSSpeechSynthesis@@UEAAJJ@Z 0000000180031a70 f   SpeechSynthesisImpl.obj
 0001:00030ad0       ?get_Voice@COPOSSpeechSynthesis@@UEAAJPEAPEA_W@Z 0000000180031ad0 f   SpeechSynthesisImpl.obj
 0001:00030b30       ?put_Voice@COPOSSpeechSynthesis@@UEAAJPEA_W@Z 0000000180031b30 f   SpeechSynthesisImpl.obj
 0001:00030b90       ?get_VoiceList@COPOSSpeechSynthesis@@UEAAJPEAPEA_W@Z 0000000180031b90 f   SpeechSynthesisImpl.obj
 0001:00030bf0       ?get_Volume@COPOSSpeechSynthesis@@UEAAJPEAJ@Z 0000000180031bf0 f   SpeechSynthesisImpl.obj
 0001:00030c50       ?put_Volume@COPOSSpeechSynthesis@@UEAAJJ@Z 0000000180031c50 f   SpeechSynthesisImpl.obj
 0001:00030cb0       ?Speak@COPOSSpeechSynthesis@@UEAAJPEA_WPEAJ@Z 0000000180031cb0 f   SpeechSynthesisImpl.obj
 0001:00030d90       ?SpeakImmediate@COPOSSpeechSynthesis@@UEAAJPEA_WPEAJ@Z 0000000180031d90 f   SpeechSynthesisImpl.obj
 0001:00030e70       ?StopCurrentSpeaking@COPOSSpeechSynthesis@@UEAAJPEAJ@Z 0000000180031e70 f   SpeechSynthesisImpl.obj
 0001:00030ee0       ?StopSpeaking@COPOSSpeechSynthesis@@UEAAJJPEAJ@Z 0000000180031ee0 f   SpeechSynthesisImpl.obj
 0001:00030fa0       ??0?$CComControl@VCOPOSSpeechSynthesis@@V?$CWindowImpl@VCOPOSSpeechSynthesis@@VCWindow@ATL@@V?$CWinTraits@$0FGAAAAAA@$0A@@3@@ATL@@@ATL@@QEAA@XZ 0000000180031fa0 f i SpeechSynthesisImpl.obj
 0001:00030ff0       ??0?$CComPtr@UIAdviseSink@@@ATL@@QEAA@XZ 0000000180031ff0 f i SpeechSynthesisImpl.obj
 0001:00031030       ??0?$CComPtr@UIDataAdviseHolder@@@ATL@@QEAA@XZ 0000000180032030 f i SpeechSynthesisImpl.obj
 0001:00031070       ??0?$CComPtr@UIOleAdviseHolder@@@ATL@@QEAA@XZ 0000000180032070 f i SpeechSynthesisImpl.obj
 0001:000310b0       ??0?$CComPtr@UIOleClientSite@@@ATL@@QEAA@XZ 00000001800320b0 f i SpeechSynthesisImpl.obj
 0001:000310f0       ??0?$CComPtr@UIOleInPlaceSiteWindowless@@@ATL@@QEAA@XZ 00000001800320f0 f i SpeechSynthesisImpl.obj
 0001:00031130       ??0?$CComPtrBase@UIAdviseSink@@@ATL@@IEAA@XZ 0000000180032130 f i SpeechSynthesisImpl.obj
 0001:00031150       ??0?$CComPtrBase@UIDataAdviseHolder@@@ATL@@IEAA@XZ 0000000180032150 f i SpeechSynthesisImpl.obj
 0001:00031170       ??0?$CComPtrBase@UIOleAdviseHolder@@@ATL@@IEAA@XZ 0000000180032170 f i SpeechSynthesisImpl.obj
 0001:00031190       ??0?$CComPtrBase@UIOleClientSite@@@ATL@@IEAA@XZ 0000000180032190 f i SpeechSynthesisImpl.obj
 0001:000311b0       ??0?$CComPtrBase@UIOleInPlaceSiteWindowless@@@ATL@@IEAA@XZ 00000001800321b0 f i SpeechSynthesisImpl.obj
 0001:000311d0       ??0?$CComQIPtr@UIDispatch@@$1?_GUID_00020400_0000_0000_c000_000000000046@@3U__s_GUID@@B@ATL@@QEAA@XZ 00000001800321d0 f i SpeechSynthesisImpl.obj
 0001:00031210       ??0?$CProxy_IOPOSEvents@VCOPOSSpeechSynthesis@@@@QEAA@PEAVCOPOSSpeechSynthesis@@@Z 0000000180032210 f i SpeechSynthesisImpl.obj
 0001:000312b0       ??0?$CWindowImpl@VCOPOSSpeechSynthesis@@VCWindow@ATL@@V?$CWinTraits@$0FGAAAAAA@$0A@@3@@ATL@@QEAA@XZ 00000001800322b0 f i SpeechSynthesisImpl.obj
 0001:000312f0       ??0?$CWindowImplBaseT@VCWindow@ATL@@V?$CWinTraits@$0FGAAAAAA@$0A@@2@@ATL@@QEAA@XZ 00000001800322f0 f i SpeechSynthesisImpl.obj
 0001:00031340       ??0?$CWindowImplRoot@VCWindow@ATL@@@ATL@@QEAA@XZ 0000000180032340 f i SpeechSynthesisImpl.obj
 0001:000313b0       ??0?$IConnectionPointContainerImpl@VCOPOSSpeechSynthesis@@@ATL@@QEAA@XZ 00000001800323b0 f i SpeechSynthesisImpl.obj
 0001:000313f0       ??0?$IConnectionPointImpl@VCOPOSSpeechSynthesis@@$1?DIID__IOPOSSpeechSynthesisEvents@@3U_GUID@@BVCComDynamicUnkArray@ATL@@@ATL@@QEAA@XZ 00000001800323f0 f i SpeechSynthesisImpl.obj
 0001:00031440       ??0?$IConnectionPointImpl@VCOPOSSpeechSynthesis@@$1?IID_IPropertyNotifySink@@3U_GUID@@BVCComDynamicUnkArray@ATL@@@ATL@@QEAA@XZ 0000000180032440 f i SpeechSynthesisImpl.obj
 0001:00031490       ??0?$IDataObjectImpl@VCOPOSSpeechSynthesis@@@ATL@@QEAA@XZ 0000000180032490 f i SpeechSynthesisImpl.obj
 0001:000314d0       ??0?$IDispatchImpl@UIOPOSSpeechSynthesis@@$1?IID_IOPOSSpeechSynthesis@@3U_GUID@@B$1?LIBID_OposSpeechSynthesis_CCO@@3U3@B$00$0A@VCComTypeInfoHolder@ATL@@@ATL@@QEAA@XZ 00000001800324d0 f i SpeechSynthesisImpl.obj
 0001:00031510       ??0?$IObjectSafetyImpl@VCOPOSSpeechSynthesis@@$02@ATL@@QEAA@XZ 0000000180032510 f i SpeechSynthesisImpl.obj
 0001:00031550       ??0?$IOleControlImpl@VCOPOSSpeechSynthesis@@@ATL@@QEAA@XZ 0000000180032550 f i SpeechSynthesisImpl.obj
 0001:00031590       ??0?$IOleInPlaceActiveObjectImpl@VCOPOSSpeechSynthesis@@@ATL@@QEAA@XZ 0000000180032590 f i SpeechSynthesisImpl.obj
 0001:000315d0       ??0?$IOleInPlaceObjectWindowlessImpl@VCOPOSSpeechSynthesis@@@ATL@@QEAA@XZ 00000001800325d0 f i SpeechSynthesisImpl.obj
 0001:00031610       ??0?$IOleObjectImpl@VCOPOSSpeechSynthesis@@@ATL@@QEAA@XZ 0000000180032610 f i SpeechSynthesisImpl.obj
 0001:00031650       ??0?$IPersistStorageImpl@VCOPOSSpeechSynthesis@@@ATL@@QEAA@XZ 0000000180032650 f i SpeechSynthesisImpl.obj
 0001:00031690       ??0?$IPersistStreamInitImpl@VCOPOSSpeechSynthesis@@@ATL@@QEAA@XZ 0000000180032690 f i SpeechSynthesisImpl.obj
 0001:000316d0       ??0?$IPropertyNotifySinkCP@VCOPOSSpeechSynthesis@@VCComDynamicUnkArray@ATL@@@ATL@@QEAA@XZ 00000001800326d0 f i SpeechSynthesisImpl.obj
 0001:00031710       ??0?$IProvideClassInfo2Impl@$1?CLSID_OPOSSpeechSynthesis@@3U_GUID@@B$1?DIID__IOPOSSpeechSynthesisEvents@@3U2@B$1?LIBID_OposSpeechSynthesis_CCO@@3U2@B$00$0A@VCComTypeInfoHolder@ATL@@@ATL@@QEAA@XZ 0000000180032710 f i SpeechSynthesisImpl.obj
 0001:00031750       ??0?$IQuickActivateImpl@VCOPOSSpeechSynthesis@@@ATL@@QEAA@XZ 0000000180032750 f i SpeechSynthesisImpl.obj
 0001:00031790       ??0?$ISpecifyPropertyPagesImpl@VCOPOSSpeechSynthesis@@@ATL@@QEAA@XZ 0000000180032790 f i SpeechSynthesisImpl.obj
 0001:000317d0       ??0?$IViewObjectExImpl@VCOPOSSpeechSynthesis@@@ATL@@QEAA@XZ 00000001800327d0 f i SpeechSynthesisImpl.obj
 0001:00031810       ??0?$_ICPLocator@$1?DIID__IOPOSSpeechSynthesisEvents@@3U_GUID@@B@ATL@@QEAA@XZ 0000000180032810 f i SpeechSynthesisImpl.obj
 0001:00031820       ??0?$_ICPLocator@$1?IID_IPropertyNotifySink@@3U_GUID@@B@ATL@@QEAA@XZ 0000000180032820 f i SpeechSynthesisImpl.obj
 0001:00031830       ??0CComControlBase@ATL@@QEAA@AEAPEAUHWND__@@@Z 0000000180032830 f i SpeechSynthesisImpl.obj
 0001:00031a50       ??0CComDynamicUnkArray@ATL@@QEAA@XZ 0000000180032a50 f i SpeechSynthesisImpl.obj
 0001:00031a80       ??0CDynamicStdCallThunk2@ATL@@QEAA@XZ 0000000180032a80 f i SpeechSynthesisImpl.obj
 0001:00031aa0       ??0CMessageMap@ATL@@QEAA@XZ 0000000180032aa0 f i SpeechSynthesisImpl.obj
 0001:00031ab0       ??0CWindow@ATL@@QEAA@PEAUHWND__@@@Z 0000000180032ab0 f i SpeechSynthesisImpl.obj
 0001:00031ad0       ??0CWndProcThunk@ATL@@QEAA@XZ 0000000180032ad0 f i SpeechSynthesisImpl.obj
 0001:00031b10       ??0IConnectionPointContainer@@QEAA@XZ 0000000180032b10 f i SpeechSynthesisImpl.obj
 0001:00031b50       ??0IDataObject@@QEAA@XZ    0000000180032b50 f i SpeechSynthesisImpl.obj
 0001:00031b90       ??0IDispatch@@QEAA@XZ      0000000180032b90 f i SpeechSynthesisImpl.obj
 0001:00031bd0       ??0IOPOSSpeechSynthesis@@QEAA@XZ 0000000180032bd0 f i SpeechSynthesisImpl.obj
 0001:00031c10       ??0IOPOSSpeechSynthesis_1_16@@QEAA@XZ 0000000180032c10 f i SpeechSynthesisImpl.obj
 0001:00031c50       ??0IObjectSafety@@QEAA@XZ  0000000180032c50 f i SpeechSynthesisImpl.obj
 0001:00031c90       ??0IOleControl@@QEAA@XZ    0000000180032c90 f i SpeechSynthesisImpl.obj
 0001:00031cd0       ??0IOleInPlaceActiveObject@@QEAA@XZ 0000000180032cd0 f i SpeechSynthesisImpl.obj
 0001:00031d10       ??0IOleInPlaceObject@@QEAA@XZ 0000000180032d10 f i SpeechSynthesisImpl.obj
 0001:00031d50       ??0IOleInPlaceObjectWindowless@@QEAA@XZ 0000000180032d50 f i SpeechSynthesisImpl.obj
 0001:00031d90       ??0IOleObject@@QEAA@XZ     0000000180032d90 f i SpeechSynthesisImpl.obj
 0001:00031dd0       ??0IOleWindow@@QEAA@XZ     0000000180032dd0 f i SpeechSynthesisImpl.obj
 0001:00031e10       ??0IPersist@@QEAA@XZ       0000000180032e10 f i SpeechSynthesisImpl.obj
 0001:00031e50       ??0IPersistStorage@@QEAA@XZ 0000000180032e50 f i SpeechSynthesisImpl.obj
 0001:00031e90       ??0IPersistStreamInit@@QEAA@XZ 0000000180032e90 f i SpeechSynthesisImpl.obj
 0001:00031ed0       ??0IProvideClassInfo2@@QEAA@XZ 0000000180032ed0 f i SpeechSynthesisImpl.obj
 0001:00031f10       ??0IProvideClassInfo@@QEAA@XZ 0000000180032f10 f i SpeechSynthesisImpl.obj
 0001:00031f50       ??0IQuickActivate@@QEAA@XZ 0000000180032f50 f i SpeechSynthesisImpl.obj
 0001:00031f90       ??0ISpecifyPropertyPages@@QEAA@XZ 0000000180032f90 f i SpeechSynthesisImpl.obj
 0001:00031fd0       ??0IViewObject2@@QEAA@XZ   0000000180032fd0 f i SpeechSynthesisImpl.obj
 0001:00032010       ??0IViewObject@@QEAA@XZ    0000000180033010 f i SpeechSynthesisImpl.obj
 0001:00032050       ??0IViewObjectEx@@QEAA@XZ  0000000180033050 f i SpeechSynthesisImpl.obj
 0001:00032090       ??0OposVariantResult@@QEAA@XZ 0000000180033090 f i SpeechSynthesisImpl.obj
 0001:000320d0       ??0_CW@@QEAA@PEBD@Z        00000001800330d0 f i SpeechSynthesisImpl.obj
 0001:00032120       ??0_CW@@QEAA@PEB_W@Z       0000000180033120 f i SpeechSynthesisImpl.obj
 0001:00032170       ??0_CWNCC@@QEAA@PEBD@Z     0000000180033170 f i SpeechSynthesisImpl.obj
 0001:000321b0       ??1?$CComControl@VCOPOSSpeechSynthesis@@V?$CWindowImpl@VCOPOSSpeechSynthesis@@VCWindow@ATL@@V?$CWinTraits@$0FGAAAAAA@$0A@@3@@ATL@@@ATL@@UEAA@XZ 00000001800331b0 f i SpeechSynthesisImpl.obj
 0001:000321f0       ??1?$CComPtr@UIDataAdviseHolder@@@ATL@@QEAA@XZ 00000001800331f0 f i SpeechSynthesisImpl.obj
 0001:00032220       ??1?$CComPtr@UIOleAdviseHolder@@@ATL@@QEAA@XZ 0000000180033220 f i SpeechSynthesisImpl.obj
 0001:00032250       ??1?$CComPtr@UIOleInPlaceSiteWindowless@@@ATL@@QEAA@XZ 0000000180033250 f i SpeechSynthesisImpl.obj
 0001:00032280       ??1?$CComPtrBase@UIDataAdviseHolder@@@ATL@@QEAA@XZ 0000000180033280 f i SpeechSynthesisImpl.obj
 0001:000322d0       ??1?$CComPtrBase@UIOleAdviseHolder@@@ATL@@QEAA@XZ 00000001800332d0 f i SpeechSynthesisImpl.obj
 0001:00032320       ??1?$CComPtrBase@UIOleInPlaceSiteWindowless@@@ATL@@QEAA@XZ 0000000180033320 f i SpeechSynthesisImpl.obj
 0001:00032370       ??1?$CComQIPtr@UIDispatch@@$1?_GUID_00020400_0000_0000_c000_000000000046@@3U__s_GUID@@B@ATL@@QEAA@XZ 0000000180033370 f i SpeechSynthesisImpl.obj
 0001:000323a0       ??1?$CProxy_IOPOSEvents@VCOPOSSpeechSynthesis@@@@QEAA@XZ 00000001800333a0 f i SpeechSynthesisImpl.obj
 0001:000323d0       ??1?$CWindowImpl@VCOPOSSpeechSynthesis@@VCWindow@ATL@@V?$CWinTraits@$0FGAAAAAA@$0A@@3@@ATL@@UEAA@XZ 00000001800333d0 f i SpeechSynthesisImpl.obj
 0001:00032400       ??1?$CWindowImplBaseT@VCWindow@ATL@@V?$CWinTraits@$0FGAAAAAA@$0A@@2@@ATL@@UEAA@XZ 0000000180033400 f i SpeechSynthesisImpl.obj
 0001:00032430       ??1?$CWindowImplRoot@VCWindow@ATL@@@ATL@@UEAA@XZ 0000000180033430 f i SpeechSynthesisImpl.obj
 0001:000324f0       ??1?$IConnectionPointImpl@VCOPOSSpeechSynthesis@@$1?DIID__IOPOSSpeechSynthesisEvents@@3U_GUID@@BVCComDynamicUnkArray@ATL@@@ATL@@QEAA@XZ 00000001800334f0 f i SpeechSynthesisImpl.obj
 0001:00032590       ??1?$IConnectionPointImpl@VCOPOSSpeechSynthesis@@$1?IID_IPropertyNotifySink@@3U_GUID@@BVCComDynamicUnkArray@ATL@@@ATL@@QEAA@XZ 0000000180033590 f i SpeechSynthesisImpl.obj
 0001:00032630       ??1?$IPropertyNotifySinkCP@VCOPOSSpeechSynthesis@@VCComDynamicUnkArray@ATL@@@ATL@@QEAA@XZ 0000000180033630 f i SpeechSynthesisImpl.obj
 0001:00032660       ??1CComControlBase@ATL@@UEAA@XZ 0000000180033660 f i SpeechSynthesisImpl.obj
 0001:00032750       ??1CComDynamicUnkArray@ATL@@QEAA@XZ 0000000180033750 f i SpeechSynthesisImpl.obj
 0001:00032790       ??1CDynamicStdCallThunk2@ATL@@QEAA@XZ 0000000180033790 f i SpeechSynthesisImpl.obj
 0001:000327d0       ??1CWndProcThunk@ATL@@QEAA@XZ 00000001800337d0 f i SpeechSynthesisImpl.obj
 0001:00032810       ??1OposVariantResult@@QEAA@XZ 0000000180033810 f i SpeechSynthesisImpl.obj
 0001:00032850       ??1_CW@@QEAA@XZ            0000000180033850 f i SpeechSynthesisImpl.obj
 0001:000328d0       ??1_CWNCC@@QEAA@XZ         00000001800338d0 f i SpeechSynthesisImpl.obj
 0001:00032900       ??B_CW@@QEAAPEB_WXZ        0000000180033900 f i SpeechSynthesisImpl.obj
 0001:00032950       ??B_CWNCC@@QEAAPEA_WXZ     0000000180033950 f i SpeechSynthesisImpl.obj
 0001:00032980       ??_EOposVariant@@QEAAPEAXI@Z 0000000180033980 f i SpeechSynthesisImpl.obj
 0001:00032a30       ?EventClaim@COPOSSpeechSynthesis@@IEAAXXZ 0000000180033a30 f i SpeechSynthesisImpl.obj
 0001:00032a80       ?EventClose@COPOSSpeechSynthesis@@IEAAXXZ 0000000180033a80 f i SpeechSynthesisImpl.obj
 0001:00032b20       ?EventInit@COPOSSpeechSynthesis@@IEAAJXZ 0000000180033b20 f i SpeechSynthesisImpl.obj
 0001:00032dd0       ?EventOpen@COPOSSpeechSynthesis@@IEAAXXZ 0000000180033dd0 f i SpeechSynthesisImpl.obj
 0001:00032e10       ?EventPreCloseRelease@COPOSSpeechSynthesis@@IEAAXXZ 0000000180033e10 f i SpeechSynthesisImpl.obj
 0001:00032e90       ?EventUninit@COPOSSpeechSynthesis@@IEAAXXZ 0000000180033e90 f i SpeechSynthesisImpl.obj
 0001:00032fc0       ?EventWindowProc@COPOSSpeechSynthesis@@IEAA_JI_K_J@Z 0000000180033fc0 f i SpeechSynthesisImpl.obj
 0001:00033190       ?FireEventCleanup@COPOSSpeechSynthesis@@IEAAXXZ 0000000180034190 f i SpeechSynthesisImpl.obj
 0001:000331e0       ?FireEventSetup@COPOSSpeechSynthesis@@IEAA_NXZ 00000001800341e0 f i SpeechSynthesisImpl.obj
 0001:00033260       ?GetModuleInstance@CComModule@ATL@@QEAAPEAUHINSTANCE__@@XZ 0000000180034260 f i SpeechSynthesisImpl.obj
 0001:00033270       ?SetRC@COPOSSpeechSynthesis@@IEAAJJ@Z 0000000180034270 f i SpeechSynthesisImpl.obj
 0001:00033290       ?s_EventWindowProc@COPOSSpeechSynthesis@@KA_JPEAUHWND__@@I_K_J@Z 0000000180034290 f i SpeechSynthesisImpl.obj
 0001:00033340       _snwprintf                 0000000180034340 f i SpeechSynthesisImpl.obj
 0001:000333d0       _vfwprintf_l               00000001800343d0 f i SpeechSynthesisImpl.obj
 0001:00033430       _vsnwprintf                0000000180034430 f i SpeechSynthesisImpl.obj
 0001:00033490       _vsnwprintf_l              0000000180034490 f i SpeechSynthesisImpl.obj
 0001:00033520       vfwprintf                  0000000180034520 f i SpeechSynthesisImpl.obj
 0001:00033565       DebugBreak                 0000000180034565 f   kernel32:KERNEL32.dll
 0001:0003356b       Sleep                      000000018003456b f   kernel32:KERNEL32.dll
 0001:00033571       GetCurrentProcess          0000000180034571 f   kernel32:KERNEL32.dll
 0001:00033577       TerminateProcess           0000000180034577 f   kernel32:KERNEL32.dll
 0001:0003357d       MultiByteToWideChar        000000018003457d f   kernel32:KERNEL32.dll
 0001:00033583       WideCharToMultiByte        0000000180034583 f   kernel32:KERNEL32.dll
 0001:00033589       DecodePointer              0000000180034589 f   kernel32:KERNEL32.dll
 0001:0003358f       RaiseException             000000018003458f f   kernel32:KERNEL32.dll
 0001:00033595       GetLastError               0000000180034595 f   kernel32:KERNEL32.dll
 0001:0003359b       SetLastError               000000018003459b f   kernel32:KERNEL32.dll
 0001:000335a1       InitializeCriticalSectionEx 00000001800345a1 f   kernel32:KERNEL32.dll
 0001:000335a7       DeleteCriticalSection      00000001800345a7 f   kernel32:KERNEL32.dll
 0001:000335ad       EncodePointer              00000001800345ad f   kernel32:KERNEL32.dll
 0001:000335b3       EnterCriticalSection       00000001800345b3 f   kernel32:KERNEL32.dll
 0001:000335b9       LeaveCriticalSection       00000001800345b9 f   kernel32:KERNEL32.dll
 0001:000335bf       ResetEvent                 00000001800345bf f   kernel32:KERNEL32.dll
 0001:000335c5       ReleaseMutex               00000001800345c5 f   kernel32:KERNEL32.dll
 0001:000335cb       WaitForSingleObject        00000001800345cb f   kernel32:KERNEL32.dll
 0001:000335d1       GetCurrentThreadId         00000001800345d1 f   kernel32:KERNEL32.dll
 0001:000335d7       DisableThreadLibraryCalls  00000001800345d7 f   kernel32:KERNEL32.dll
 0001:000335dd       FreeLibrary                00000001800345dd f   kernel32:KERNEL32.dll
 0001:000335e3       GetModuleFileNameW         00000001800345e3 f   kernel32:KERNEL32.dll
 0001:000335e9       GetModuleHandleW           00000001800345e9 f   kernel32:KERNEL32.dll
 0001:000335ef       GetProcAddress             00000001800345ef f   kernel32:KERNEL32.dll
 0001:000335f5       LoadLibraryExW             00000001800345f5 f   kernel32:KERNEL32.dll
 0001:000335fb       LoadResource               00000001800345fb f   kernel32:KERNEL32.dll
 0001:00033601       SizeofResource             0000000180034601 f   kernel32:KERNEL32.dll
 0001:00033607       FindResourceW              0000000180034607 f   kernel32:KERNEL32.dll
 0001:0003360d       GlobalAlloc                000000018003460d f   kernel32:KERNEL32.dll
 0001:00033613       GlobalUnlock               0000000180034613 f   kernel32:KERNEL32.dll
 0001:00033619       GlobalLock                 0000000180034619 f   kernel32:KERNEL32.dll
 0001:0003361f       MulDiv                     000000018003461f f   kernel32:KERNEL32.dll
 0001:00033625       lstrcmpiW                  0000000180034625 f   kernel32:KERNEL32.dll
 0001:0003362b       DeleteFileW                000000018003462b f   kernel32:KERNEL32.dll
 0001:00033631       CloseHandle                0000000180034631 f   kernel32:KERNEL32.dll
 0001:00033637       SetEvent                   0000000180034637 f   kernel32:KERNEL32.dll
 0001:0003363d       CreateMutexW               000000018003463d f   kernel32:KERNEL32.dll
 0001:00033643       CreateEventW               0000000180034643 f   kernel32:KERNEL32.dll
 0001:00033649       GetCurrentProcessId        0000000180034649 f   kernel32:KERNEL32.dll
 0001:0003364f       LocalFree                  000000018003464f f   kernel32:KERNEL32.dll
 0001:00033655       FormatMessageW             0000000180034655 f   kernel32:KERNEL32.dll
 0001:0003365b       GetActiveWindow            000000018003465b f   user32:USER32.dll
 0001:00033661       MessageBoxW                0000000180034661 f   user32:USER32.dll
 0001:00033667       UnregisterClassW           0000000180034667 f   user32:USER32.dll
 0001:0003366d       PostMessageW               000000018003466d f   user32:USER32.dll
 0001:00033673       DefWindowProcW             0000000180034673 f   user32:USER32.dll
 0001:00033679       CallWindowProcW            0000000180034679 f   user32:USER32.dll
 0001:0003367f       RegisterClassExW           000000018003467f f   user32:USER32.dll
 0001:00033685       GetClassInfoExW            0000000180034685 f   user32:USER32.dll
 0001:0003368b       CreateWindowExW            000000018003468b f   user32:USER32.dll
 0001:00033691       IsWindow                   0000000180034691 f   user32:USER32.dll
 0001:00033697       IsChild                    0000000180034697 f   user32:USER32.dll
 0001:0003369d       DestroyWindow              000000018003469d f   user32:USER32.dll
 0001:000336a3       ShowWindow                 00000001800346a3 f   user32:USER32.dll
 0001:000336a9       SetWindowPos               00000001800346a9 f   user32:USER32.dll
 0001:000336af       CharNextW                  00000001800346af f   user32:USER32.dll
 0001:000336b5       SetFocus                   00000001800346b5 f   user32:USER32.dll
 0001:000336bb       GetFocus                   00000001800346bb f   user32:USER32.dll
 0001:000336c1       GetKeyState                00000001800346c1 f   user32:USER32.dll
 0001:000336c7       GetDC                      00000001800346c7 f   user32:USER32.dll
 0001:000336cd       ReleaseDC                  00000001800346cd f   user32:USER32.dll
 0001:000336d3       BeginPaint                 00000001800346d3 f   user32:USER32.dll
 0001:000336d9       EndPaint                   00000001800346d9 f   user32:USER32.dll
 0001:000336df       SetWindowRgn               00000001800346df f   user32:USER32.dll
 0001:000336e5       InvalidateRect             00000001800346e5 f   user32:USER32.dll
 0001:000336eb       GetClientRect              00000001800346eb f   user32:USER32.dll
 0001:000336f1       IntersectRect              00000001800346f1 f   user32:USER32.dll
 0001:000336f7       UnionRect                  00000001800346f7 f   user32:USER32.dll
 0001:000336fd       OffsetRect                 00000001800346fd f   user32:USER32.dll
 0001:00033703       EqualRect                  0000000180034703 f   user32:USER32.dll
 0001:00033709       PtInRect                   0000000180034709 f   user32:USER32.dll
 0001:0003370f       GetWindowLongPtrW          000000018003470f f   user32:USER32.dll
 0001:00033715       SetWindowLongPtrW          0000000180034715 f   user32:USER32.dll
 0001:0003371b       GetParent                  000000018003471b f   user32:USER32.dll
 0001:00033721       LoadCursorW                0000000180034721 f   user32:USER32.dll
 0001:00033727       PeekMessageW               0000000180034727 f   user32:USER32.dll
 0001:0003372d       RegisterClassW             000000018003472d f   user32:USER32.dll
 0001:00033733       LoadBitmapW                0000000180034733 f   user32:USER32.dll
 0001:00033739       CloseMetaFile              0000000180034739 f   gdi32:GDI32.dll
 0001:0003373f       CreateDCW                  000000018003473f f   gdi32:GDI32.dll
 0001:00033745       CreateMetaFileW            0000000180034745 f   gdi32:GDI32.dll
 0001:0003374b       CreateRectRgnIndirect      000000018003474b f   gdi32:GDI32.dll
 0001:00033751       DeleteDC                   0000000180034751 f   gdi32:GDI32.dll
 0001:00033757       DeleteMetaFile             0000000180034757 f   gdi32:GDI32.dll
 0001:0003375d       GetDeviceCaps              000000018003475d f   gdi32:GDI32.dll
 0001:00033763       RestoreDC                  0000000180034763 f   gdi32:GDI32.dll
 0001:00033769       SaveDC                     0000000180034769 f   gdi32:GDI32.dll
 0001:0003376f       SetMapMode                 000000018003476f f   gdi32:GDI32.dll
 0001:00033775       LPtoDP                     0000000180034775 f   gdi32:GDI32.dll
 0001:0003377b       SetViewportOrgEx           000000018003477b f   gdi32:GDI32.dll
 0001:00033781       SetWindowExtEx             0000000180034781 f   gdi32:GDI32.dll
 0001:00033787       SetWindowOrgEx             0000000180034787 f   gdi32:GDI32.dll
 0001:0003378d       BitBlt                     000000018003478d f   gdi32:GDI32.dll
 0001:00033793       CreateCompatibleDC         0000000180034793 f   gdi32:GDI32.dll
 0001:00033799       DeleteObject               0000000180034799 f   gdi32:GDI32.dll
 0001:0003379f       SelectObject               000000018003479f f   gdi32:GDI32.dll
 0001:000337a5       GetObjectW                 00000001800347a5 f   gdi32:GDI32.dll
 0001:000337ab       RegCloseKey                00000001800347ab f   advapi32:ADVAPI32.dll
 0001:000337b1       RegCreateKeyExW            00000001800347b1 f   advapi32:ADVAPI32.dll
 0001:000337b7       RegDeleteKeyW              00000001800347b7 f   advapi32:ADVAPI32.dll
 0001:000337bd       RegDeleteValueW            00000001800347bd f   advapi32:ADVAPI32.dll
 0001:000337c3       RegEnumKeyExW              00000001800347c3 f   advapi32:ADVAPI32.dll
 0001:000337c9       RegOpenKeyExW              00000001800347c9 f   advapi32:ADVAPI32.dll
 0001:000337cf       RegQueryInfoKeyW           00000001800347cf f   advapi32:ADVAPI32.dll
 0001:000337d5       RegSetValueExW             00000001800347d5 f   advapi32:ADVAPI32.dll
 0001:000337db       RegQueryValueExW           00000001800347db f   advapi32:ADVAPI32.dll
 0001:000337e1       CoCreateInstance           00000001800347e1 f   ole32:ole32.dll
 0001:000337e7       StringFromGUID2            00000001800347e7 f   ole32:ole32.dll
 0001:000337ed       CoTaskMemAlloc             00000001800347ed f   ole32:ole32.dll
 0001:000337f3       CoTaskMemRealloc           00000001800347f3 f   ole32:ole32.dll
 0001:000337f9       CoTaskMemFree              00000001800347f9 f   ole32:ole32.dll
 0001:000337ff       ReadClassStm               00000001800347ff f   ole32:ole32.dll
 0001:00033805       WriteClassStm              0000000180034805 f   ole32:ole32.dll
 0001:0003380b       CreateDataAdviseHolder     000000018003480b f   ole32:ole32.dll
 0001:00033811       OleSaveToStream            0000000180034811 f   ole32:ole32.dll
 0001:00033817       CreateOleAdviseHolder      0000000180034817 f   ole32:ole32.dll
 0001:0003381d       OleRegGetUserType          000000018003481d f   ole32:ole32.dll
 0001:00033823       OleRegGetMiscStatus        0000000180034823 f   ole32:ole32.dll
 0001:00033829       OleRegEnumVerbs            0000000180034829 f   ole32:ole32.dll
 0001:0003382f       CLSIDFromProgID            000000018003482f f   ole32:ole32.dll
 0001:00033835       SysAllocString             0000000180034835 f   oleaut32:OLEAUT32.dll
 0001:0003383b       SysAllocStringLen          000000018003483b f   oleaut32:OLEAUT32.dll
 0001:00033841       SysFreeString              0000000180034841 f   oleaut32:OLEAUT32.dll
 0001:00033847       SysStringLen               0000000180034847 f   oleaut32:OLEAUT32.dll
 0001:0003384d       VariantClear               000000018003484d f   oleaut32:OLEAUT32.dll
 0001:00033853       VariantCopyInd             0000000180034853 f   oleaut32:OLEAUT32.dll
 0001:00033859       VariantChangeType          0000000180034859 f   oleaut32:OLEAUT32.dll
 0001:0003385f       SysStringByteLen           000000018003485f f   oleaut32:OLEAUT32.dll
 0001:00033865       SysAllocStringByteLen      0000000180034865 f   oleaut32:OLEAUT32.dll
 0001:0003386b       VariantInit                000000018003486b f   oleaut32:OLEAUT32.dll
 0001:00033871       VarUI4FromStr              0000000180034871 f   oleaut32:OLEAUT32.dll
 0001:00033877       LoadTypeLib                0000000180034877 f   oleaut32:OLEAUT32.dll
 0001:0003387d       LoadRegTypeLib             000000018003487d f   oleaut32:OLEAUT32.dll
 0001:00033883       RegisterTypeLib            0000000180034883 f   oleaut32:OLEAUT32.dll
 0001:00033889       UnRegisterTypeLib          0000000180034889 f   oleaut32:OLEAUT32.dll
 0001:0003388f       OleCreatePropertyFrame     000000018003488f f   oleaut32:OLEAUT32.dll
 0001:000338a0       _RTC_AllocaHelper          00000001800348a0 f   LIBCMTD:stack.obj
 0001:000338e0       _RTC_CheckStackVars        00000001800348e0 f   LIBCMTD:stack.obj
 0001:00033970       _RTC_CheckStackVars2       0000000180034970 f   LIBCMTD:stack.obj
 0001:00033a80       _CRT_RTC_INIT              0000000180034a80 f   LIBCMTD:init.obj
 0001:00033a90       _CRT_RTC_INITW             0000000180034a90 f   LIBCMTD:init.obj
 0001:00033aa0       _RTC_InitBase              0000000180034aa0 f   LIBCMTD:init.obj
 0001:00033ae0       _RTC_Shutdown              0000000180034ae0 f   LIBCMTD:init.obj
 0001:00033b10       __GSHandlerCheck           0000000180034b10 f   LIBCMTD:gshandler.obj
 0001:00033b50       __GSHandlerCheckCommon     0000000180034b50 f   LIBCMTD:gshandler.obj
 0001:00033c60       __security_check_cookie    0000000180034c60 f   LIBCMTD:amdsecgs.obj
 0001:00033c90       ??_U@YAPEAX_K@Z            0000000180034c90 f   LIBCMTD:new_array.obj
 0001:00033cb0       ??3@YAXPEAX_K@Z            0000000180034cb0 f   LIBCMTD:delete_scalar_size.obj
 0001:00033cd0       ??_V@YAXPEAX@Z             0000000180034cd0 f   LIBCMTD:delete_array.obj
 0001:00033cf0       ??_V@YAXPEAX_K@Z           0000000180034cf0 f   LIBCMTD:delete_array_size.obj
 0001:00033d10       ?configure_argv@__scrt_narrow_argv_policy@@SAHXZ 0000000180034d10 f i LIBCMTD:utility.obj
 0001:00033e00       ?initialize_environment@__scrt_narrow_environment_policy@@SAHXZ 0000000180034e00 f i LIBCMTD:utility.obj
 0001:00033ea0       NtCurrentTeb               0000000180034ea0 f i LIBCMTD:utility.obj
 0001:00033eb0       __scrt_acquire_startup_lock 0000000180034eb0 f   LIBCMTD:utility.obj
 0001:00033f20       __scrt_dllmain_after_initialize_c 0000000180034f20 f   LIBCMTD:utility.obj
 0001:00033f50       __scrt_dllmain_before_initialize_c 0000000180034f50 f   LIBCMTD:utility.obj
 0001:00033f70       __scrt_dllmain_crt_thread_attach 0000000180034f70 f   LIBCMTD:utility.obj
 0001:00033fa0       __scrt_dllmain_crt_thread_detach 0000000180034fa0 f   LIBCMTD:utility.obj
 0001:00033fc0       __scrt_dllmain_exception_filter 0000000180034fc0 f   LIBCMTD:utility.obj
 0001:00034030       __scrt_dllmain_uninitialize_c 0000000180035030 f   LIBCMTD:utility.obj
 0001:00034060       __scrt_dllmain_uninitialize_critical 0000000180035060 f   LIBCMTD:utility.obj
 0001:00034080       __scrt_initialize_crt      0000000180035080 f   LIBCMTD:utility.obj
 0001:000340d0       __scrt_initialize_onexit_tables 00000001800350d0 f   LIBCMTD:utility.obj
 0001:000341e0       __scrt_is_nonwritable_in_current_image 00000001800351e0 f   LIBCMTD:utility.obj
 0001:00034270       __scrt_release_startup_lock 0000000180035270 f   LIBCMTD:utility.obj
 0001:000342a0       __scrt_uninitialize_crt    00000001800352a0 f   LIBCMTD:utility.obj
 0001:000342e0       _onexit                    00000001800352e0 f   LIBCMTD:utility.obj
 0001:00034360       at_quick_exit              0000000180035360 f   LIBCMTD:utility.obj
 0001:000343b0       atexit                     00000001800353b0 f   LIBCMTD:utility.obj
 0001:000343f0       ??3@YAXPEAX@Z              00000001800353f0 f   LIBCMTD:delete_scalar.obj
 0001:00034410       __raise_securityfailure    0000000180035410 f   LIBCMTD:gs_report.obj
 0001:00034450       __report_gsfailure         0000000180035450 f   LIBCMTD:gs_report.obj
 0001:00034530       __report_rangecheckfailure 0000000180035530 f   LIBCMTD:gs_report.obj
 0001:00034550       __report_securityfailure   0000000180035550 f   LIBCMTD:gs_report.obj
 0001:000345f0       __report_securityfailureEx 00000001800355f0 f   LIBCMTD:gs_report.obj
 0001:000349b0       _Init_thread_abort         00000001800359b0 f   LIBCMTD:thread_safe_statics.obj
 0001:000349e0       _Init_thread_footer        00000001800359e0 f   LIBCMTD:thread_safe_statics.obj
 0001:00034a40       _Init_thread_header        0000000180035a40 f   LIBCMTD:thread_safe_statics.obj
 0001:00034ad0       _Init_thread_lock          0000000180035ad0 f   LIBCMTD:thread_safe_statics.obj
 0001:00034af0       _Init_thread_notify        0000000180035af0 f   LIBCMTD:thread_safe_statics.obj
 0001:00034b50       _Init_thread_unlock        0000000180035b50 f   LIBCMTD:thread_safe_statics.obj
 0001:00034b70       _Init_thread_wait          0000000180035b70 f   LIBCMTD:thread_safe_statics.obj
 0001:00034c20       ??2@YAPEAX_KAEBUnothrow_t@std@@@Z 0000000180035c20 f   LIBCMTD:new_scalar_nothrow.obj
 0001:00034c60       ??_U@YAPEAX_KAEBUnothrow_t@std@@@Z 0000000180035c60 f   LIBCMTD:new_array_nothrow.obj
 0001:00034c90       __GSHandlerCheck_SEH       0000000180035c90 f   LIBCMTD:gshandlerseh.obj
 0001:00034d60       _alloca_probe              0000000180035d60 f   LIBCMTD:chkstk.obj
 0001:00034d60       __chkstk                   0000000180035d60 f   LIBCMTD:chkstk.obj
 0001:000351d0       _CRT_INIT                  00000001800361d0 f   LIBCMTD:dll_dllmain.obj
 0001:00035200       _DllMainCRTStartup         0000000180036200 f   LIBCMTD:dll_dllmain.obj
 0001:000352d0       ?_RTC_AllocaFailure@@YAXPEAXPEAU_RTC_ALLOCA_NODE@@H@Z 00000001800362d0 f   LIBCMTD:error.obj
 0001:00035430       ?_RTC_Failure@@YAXPEAXH@Z  0000000180036430 f   LIBCMTD:error.obj
 0001:00035480       ?_RTC_StackFailure@@YAXPEAXPEBD@Z 0000000180036480 f   LIBCMTD:error.obj
 0001:000358b0       _RTC_UninitUse             00000001800368b0 f   LIBCMTD:error.obj
 0001:00035980       _vsprintf_s_l              0000000180036980 f i LIBCMTD:error.obj
 0001:000359f0       sprintf_s                  00000001800369f0 f i LIBCMTD:error.obj
 0001:00035a20       ?_RTC_GetErrorFunc@@YAP6AHHPEBDH00ZZPEBX@Z 0000000180036a20 f   LIBCMTD:userapi.obj
 0001:00035a30       ?_RTC_GetErrorFuncW@@YAP6AHHPEB_WH00ZZPEBX@Z 0000000180036a30 f   LIBCMTD:userapi.obj
 0001:00035a40       _RTC_GetErrDesc            0000000180036a40 f   LIBCMTD:userapi.obj
 0001:00035a60       _RTC_NumErrors             0000000180036a60 f   LIBCMTD:userapi.obj
 0001:00035a70       _RTC_SetErrorFunc          0000000180036a70 f   LIBCMTD:userapi.obj
 0001:00035a90       _RTC_SetErrorFuncW         0000000180036a90 f   LIBCMTD:userapi.obj
 0001:00035ab0       _RTC_SetErrorType          0000000180036ab0 f   LIBCMTD:userapi.obj
 0001:00035ad0       ??2@YAPEAX_K@Z             0000000180036ad0 f   LIBCMTD:new_scalar.obj
 0001:00035b20       __isa_available_init       0000000180036b20 f   LIBCMTD:cpu_disp.obj
 0001:00035ec0       _get_startup_argv_mode     0000000180036ec0 f   LIBCMTD:argv_mode.obj
 0001:00035ed0       __scrt_is_ucrt_dll_in_use  0000000180036ed0 f   LIBCMTD:ucrt_detection.obj
 0001:00035f00       __crt_debugger_hook        0000000180036f00 f   LIBCMTD:utility_desktop.obj
 0001:00035f10       __scrt_fastfail            0000000180036f10 f   LIBCMTD:utility_desktop.obj
 0001:000360b0       __scrt_get_show_window_mode 00000001800370b0 f   LIBCMTD:utility_desktop.obj
 0001:00036110       __scrt_initialize_mta      0000000180037110 f   LIBCMTD:utility_desktop.obj
 0001:00036120       __scrt_initialize_winrt    0000000180037120 f   LIBCMTD:utility_desktop.obj
 0001:00036130       __scrt_is_managed_app      0000000180037130 f   LIBCMTD:utility_desktop.obj
 0001:000361e0       __scrt_set_unhandled_exception_filter 00000001800371e0 f   LIBCMTD:utility_desktop.obj
 0001:00036200       __scrt_stub_for_initialize_mta 0000000180037200 f   LIBCMTD:utility_desktop.obj
 0001:00036200       __scrt_exe_initialize_mta  0000000180037200 f   LIBCMTD:utility_desktop.obj
 0001:00036210       __scrt_unhandled_exception_filter 0000000180037210 f   LIBCMTD:utility_desktop.obj
 0001:000362b0       _guard_check_icall_nop     00000001800372b0 f i LIBCMTD:guard_support.obj
 0001:000362c0       ReadNoFence64              00000001800372c0 f i LIBCMTD:guard_support.obj
 0001:000362e0       ReadPointerNoFence         00000001800372e0 f i LIBCMTD:guard_support.obj
 0001:00036300       __castguard_check_failure_debugbreak 0000000180037300 f i LIBCMTD:guard_support.obj
 0001:00036320       __castguard_check_failure_fastfail 0000000180037320 f i LIBCMTD:guard_support.obj
 0001:00036350       __castguard_check_failure_nop 0000000180037350 f i LIBCMTD:guard_support.obj
 0001:00036360       __castguard_check_failure_os_handled 0000000180037360 f i LIBCMTD:guard_support.obj
 0001:00036420       __castguard_slow_path_check_debugbreak 0000000180037420 f i LIBCMTD:guard_support.obj
 0001:00036460       __castguard_slow_path_check_fastfail 0000000180037460 f i LIBCMTD:guard_support.obj
 0001:000364b0       __castguard_slow_path_check_nop 00000001800374b0 f i LIBCMTD:guard_support.obj
 0001:000364c0       __castguard_slow_path_check_os_handled 00000001800374c0 f i LIBCMTD:guard_support.obj
 0001:000365a0       _guard_icall_checks_enforced 00000001800375a0 f i LIBCMTD:guard_support.obj
 0001:000365e0       _guard_rf_checks_enforced  00000001800375e0 f i LIBCMTD:guard_support.obj
 0001:000366b0       __security_init_cookie     00000001800376b0 f   LIBCMTD:gs_support.obj
 0001:00036730       ?__scrt_initialize_type_info@@YAXXZ 0000000180037730 f   LIBCMTD:tncleanup.obj
 0001:00036750       ?__scrt_uninitialize_type_info@@YAXXZ 0000000180037750 f   LIBCMTD:tncleanup.obj
 0001:00036770       __local_stdio_scanf_options 0000000180037770 f i LIBCMTD:default_local_stdio_options.obj
 0001:00036780       __scrt_initialize_default_local_stdio_options 0000000180037780 f   LIBCMTD:default_local_stdio_options.obj
 0001:000367d0       __scrt_get_dyn_tls_init_callback 00000001800377d0 f   LIBCMTD:dyn_tls_init.obj
 0001:000367e0       _RTC_Initialize            00000001800377e0 f   LIBCMTD:initsect.obj
 0001:00036830       _RTC_Terminate             0000000180037830 f   LIBCMTD:initsect.obj
 0001:00036d90       ?_RTC_GetSrcLine@@YAHPEAEPEA_WKPEAH1K@Z 0000000180037d90 f   LIBCMTD:pdblkup.obj
 0001:00037160       ??0bad_alloc@std@@AEAA@QEBD@Z 0000000180038160 f i LIBCMTD:throw_bad_alloc.obj
 0001:000371a0       ??0bad_alloc@std@@QEAA@AEBV01@@Z 00000001800381a0 f i LIBCMTD:throw_bad_alloc.obj
 0001:000371e0       ??0bad_alloc@std@@QEAA@XZ  00000001800381e0 f i LIBCMTD:throw_bad_alloc.obj
 0001:00037220       ??0bad_array_new_length@std@@QEAA@AEBV01@@Z 0000000180038220 f i LIBCMTD:throw_bad_alloc.obj
 0001:00037260       ??0bad_array_new_length@std@@QEAA@XZ 0000000180038260 f i LIBCMTD:throw_bad_alloc.obj
 0001:000372a0       ??0exception@std@@QEAA@AEBV01@@Z 00000001800382a0 f i LIBCMTD:throw_bad_alloc.obj
 0001:00037300       ??0exception@std@@QEAA@QEBDH@Z 0000000180038300 f i LIBCMTD:throw_bad_alloc.obj
 0001:00037350       ??1bad_alloc@std@@UEAA@XZ  0000000180038350 f i LIBCMTD:throw_bad_alloc.obj
 0001:00037370       ??1bad_array_new_length@std@@UEAA@XZ 0000000180038370 f i LIBCMTD:throw_bad_alloc.obj
 0001:00037390       ??1exception@std@@UEAA@XZ  0000000180038390 f i LIBCMTD:throw_bad_alloc.obj
 0001:000373c0       ??_Ebad_alloc@std@@UEAAPEAXI@Z 00000001800383c0 f i LIBCMTD:throw_bad_alloc.obj
 0001:000373c0       ??_Gbad_alloc@std@@UEAAPEAXI@Z 00000001800383c0 f i LIBCMTD:throw_bad_alloc.obj
 0001:00037400       ??_Gbad_array_new_length@std@@UEAAPEAXI@Z 0000000180038400 f i LIBCMTD:throw_bad_alloc.obj
 0001:00037400       ??_Ebad_array_new_length@std@@UEAAPEAXI@Z 0000000180038400 f i LIBCMTD:throw_bad_alloc.obj
 0001:00037440       ??_Eexception@std@@UEAAPEAXI@Z 0000000180038440 f i LIBCMTD:throw_bad_alloc.obj
 0001:00037440       ??_Gexception@std@@UEAAPEAXI@Z 0000000180038440 f i LIBCMTD:throw_bad_alloc.obj
 0001:00037480       ?__scrt_throw_std_bad_alloc@@YAXXZ 0000000180038480 f   LIBCMTD:throw_bad_alloc.obj
 0001:000374b0       ?__scrt_throw_std_bad_array_new_length@@YAXXZ 00000001800384b0 f   LIBCMTD:throw_bad_alloc.obj
 0001:000374e0       ?what@exception@std@@UEBAPEBDXZ 00000001800384e0 f i LIBCMTD:throw_bad_alloc.obj
 0001:00037520       ??1type_info@@UEAA@XZ      0000000180038520 f   LIBCMTD:std_type_info_static.obj
 0001:00037540       ??_Etype_info@@UEAAPEAXI@Z 0000000180038540 f i LIBCMTD:std_type_info_static.obj
 0001:00037540       ??_Gtype_info@@UEAAPEAXI@Z 0000000180038540 f i LIBCMTD:std_type_info_static.obj
 0001:0003757c       ??$?2PEAUHINSTANCE__@@@Wrapper@?$CSimpleArray@PEAUHINSTANCE__@@V?$CSimpleArrayEqualHelper@PEAUHINSTANCE__@@@ATL@@@ATL@@SAPEAX_KPEAPEAUHINSTANCE__@@@Z 000000018003857c f i atls:atlbase.obj
 0001:00037580       ??0?$CSimpleArray@PEAUHINSTANCE__@@V?$CSimpleArrayEqualHelper@PEAUHINSTANCE__@@@ATL@@@ATL@@QEAA@XZ 0000000180038580 f i atls:atlbase.obj
 0001:00037590       ??0CAtlBaseModule@ATL@@QEAA@XZ 0000000180038590 f   atls:atlbase.obj
 0001:00037638       ??0Wrapper@?$CSimpleArray@PEAUHINSTANCE__@@V?$CSimpleArrayEqualHelper@PEAUHINSTANCE__@@@ATL@@@ATL@@QEAA@AEBQEAUHINSTANCE__@@@Z 0000000180038638 f i atls:atlbase.obj
 0001:00037644       ??0_ATL_BASE_MODULE70@ATL@@QEAA@XZ 0000000180038644 f i atls:atlbase.obj
 0001:00037670       ??1?$CSimpleArray@PEAUHINSTANCE__@@V?$CSimpleArrayEqualHelper@PEAUHINSTANCE__@@@ATL@@@ATL@@QEAA@XZ 0000000180038670 f i atls:atlbase.obj
 0001:00037698       ??1CAtlBaseModule@ATL@@QEAA@XZ 0000000180038698 f   atls:atlbase.obj
 0001:000376cc       ??1_ATL_BASE_MODULE70@ATL@@QEAA@XZ 00000001800386cc f i atls:atlbase.obj
 0001:000376f8       ??A?$CSimpleArray@PEAUHINSTANCE__@@V?$CSimpleArrayEqualHelper@PEAUHINSTANCE__@@@ATL@@@ATL@@QEAAAEAPEAUHINSTANCE__@@H@Z 00000001800386f8 f i atls:atlbase.obj
 0001:00037724       ?Add@?$CSimpleArray@PEAUHINSTANCE__@@V?$CSimpleArrayEqualHelper@PEAUHINSTANCE__@@@ATL@@@ATL@@QEAAHAEBQEAUHINSTANCE__@@@Z 0000000180038724 f i atls:atlbase.obj
 0001:000377d8       ?AddResourceInstance@CAtlBaseModule@ATL@@QEAA_NPEAUHINSTANCE__@@@Z 00000001800387d8 f   atls:atlbase.obj
 0001:00037820       ?GetHInstanceAt@CAtlBaseModule@ATL@@QEAAPEAUHINSTANCE__@@H@Z 0000000180038820 f   atls:atlbase.obj
 0001:00037898       ?GetSize@?$CSimpleArray@PEAUHINSTANCE__@@V?$CSimpleArrayEqualHelper@PEAUHINSTANCE__@@@ATL@@@ATL@@QEBAHXZ 0000000180038898 f i atls:atlbase.obj
 0001:0003789c       ?InternalSetAtIndex@?$CSimpleArray@PEAUHINSTANCE__@@V?$CSimpleArrayEqualHelper@PEAUHINSTANCE__@@@ATL@@@ATL@@QEAAXHAEBQEAUHINSTANCE__@@@Z 000000018003889c f i atls:atlbase.obj
 0001:000378b4       ?RemoveAll@?$CSimpleArray@PEAUHINSTANCE__@@V?$CSimpleArrayEqualHelper@PEAUHINSTANCE__@@@ATL@@@ATL@@QEAAXXZ 00000001800388b4 f i atls:atlbase.obj
 0001:000378dc       ?RemoveAt@?$CSimpleArray@PEAUHINSTANCE__@@V?$CSimpleArrayEqualHelper@PEAUHINSTANCE__@@@ATL@@@ATL@@QEAAHH@Z 00000001800388dc f i atls:atlbase.obj
 0001:00037980       ?RemoveResourceInstance@CAtlBaseModule@ATL@@QEAA_NPEAUHINSTANCE__@@@Z 0000000180038980 f   atls:atlbase.obj
 0001:00037a00       ?memmove_s@Checked@ATL@@YAXPEAX_KPEBX1@Z 0000000180038a00 f i atls:atlbase.obj
 0001:00037ea8       ?GetCodeAddress@_stdcallthunk@ATL@@QEAAPEAXXZ 0000000180038ea8 f i atls:atlthunk.obj
 0001:00037ed4       ?Init@_stdcallthunk@ATL@@QEAAH_KPEAX@Z 0000000180038ed4 f i atls:atlthunk.obj
 0001:00037f24       ?__AllocStdCallThunk@@YAPEAXXZ 0000000180038f24 f   atls:atlthunk.obj
 0001:00037f2c       ?__AllocStdCallThunk@ATL@@YAPEAXXZ 0000000180038f2c f   atls:atlthunk.obj
 0001:00037f34       ?__AllocStdCallThunk_cmn@@YAPEAXXZ 0000000180038f34 f   atls:atlthunk.obj
 0001:0003800c       ?__FreeStdCallThunk@@YAXPEAX@Z 000000018003900c f   atls:atlthunk.obj
 0001:0003802c       ?__FreeStdCallThunk@ATL@@YAXPEAX@Z 000000018003902c f   atls:atlthunk.obj
 0001:0003804c       ?__FreeStdCallThunk_cmn@@YAXPEAX@Z 000000018003904c f   atls:atlthunk.obj
 0001:000380ec       AtlThunk_AllocateData      00000001800390ec f   atls:atlthunk.obj
 0001:00038168       AtlThunk_DataToCode        0000000180039168 f   atls:atlthunk.obj
 0001:000381bc       AtlThunk_FreeData          00000001800391bc f   atls:atlthunk.obj
 0001:0003821c       AtlThunk_InitData          000000018003921c f   atls:atlthunk.obj
 0001:000382e0       memset_repmovs             00000001800392e0 f   libvcruntimed:memset.obj
 0001:00038300       memset                     0000000180039300 f   libvcruntimed:memset.obj
 0001:00038490       ??$__crt_interlocked_exchange_pointer@$$A6AXXZP6AXXZ@@YAP6AXXZPEDS6AXXZQ6AXXZ@Z 0000000180039490 f i libvcruntimed:purevirt.obj
 0001:000384b0       ??$__crt_interlocked_read_pointer@$$A6AXXZ@@YAP6AXXZPEDS6AXXZ@Z 00000001800394b0 f i libvcruntimed:purevirt.obj
 0001:000384d0       ?__crt_interlocked_read_64@@YA_JPED_J@Z 00000001800394d0 f i libvcruntimed:purevirt.obj
 0001:000384f0       _get_purecall_handler      00000001800394f0 f   libvcruntimed:purevirt.obj
 0001:00038510       _purecall                  0000000180039510 f   libvcruntimed:purevirt.obj
 0001:00038550       _set_purecall_handler      0000000180039550 f   libvcruntimed:purevirt.obj
 0001:00038580       memcmp                     0000000180039580 f   libvcruntimed:memcmp.obj
 0001:00038660       memcpy_repmovs             0000000180039660 f   libvcruntimed:memcpy.obj
 0001:00038680       memmove                    0000000180039680 f   libvcruntimed:memcpy.obj
 0001:00038680       memcpy                     0000000180039680 f   libvcruntimed:memcpy.obj
 0001:00038a60       wcsstr                     0000000180039a60 f   libvcruntimed:wcsstr.obj
 0001:000390c0       __vcrt_initialize          000000018003a0c0 f   libvcruntimed:initialization.obj
 0001:00039100       __vcrt_thread_attach       000000018003a100 f   libvcruntimed:initialization.obj
 0001:00039120       __vcrt_thread_detach       000000018003a120 f   libvcruntimed:initialization.obj
 0001:00039140       __vcrt_uninitialize        000000018003a140 f   libvcruntimed:initialization.obj
 0001:00039160       __vcrt_uninitialize_critical 000000018003a160 f   libvcruntimed:initialization.obj
 0001:00039180       __C_specific_handler       000000018003a180 f   libvcruntimed:riscchandler.obj
 0001:000395f0       ??$?0AEAViterator@TryBlockMap4@FH4@@AEAV012@$0A@@?$pair@Viterator@TryBlockMap4@FH4@@V123@@std@@QEAA@AEAViterator@TryBlockMap4@FH4@@0@Z 000000018003a5f0 f i libvcruntimed:risctrnsctrl.obj
 0001:00039650       ??$?0AEAViterator@TryBlockMap@__FrameHandler3@@AEAV012@$0A@@?$pair@Viterator@TryBlockMap@__FrameHandler3@@V123@@std@@QEAA@AEAViterator@TryBlockMap@__FrameHandler3@@0@Z 000000018003a650 f i libvcruntimed:risctrnsctrl.obj
 0001:00039820       ??$_CallSETranslator@V__FrameHandler3@@@@YAHPEAUEHExceptionRecord@@PEA_KPEAU_CONTEXT@@PEAU_xDISPATCHER_CONTEXT@@PEBU_s_FuncInfo@@K1H@Z 000000018003a820 f i libvcruntimed:risctrnsctrl.obj
 0001:000398b0       ??$_CallSETranslator@V__FrameHandler4@@@@YAHPEAUEHExceptionRecord@@PEA_KPEAU_CONTEXT@@PEAU_xDISPATCHER_CONTEXT@@PEAUFuncInfo4@FH4@@K1H@Z 000000018003a8b0 f i libvcruntimed:risctrnsctrl.obj
 0001:00039940       ??$forward@AEAViterator@TryBlockMap4@FH4@@@std@@YAAEAViterator@TryBlockMap4@FH4@@AEAV123@@Z 000000018003a940 f i libvcruntimed:risctrnsctrl.obj
 0001:00039950       ??$forward@AEAViterator@TryBlockMap@__FrameHandler3@@@std@@YAAEAViterator@TryBlockMap@__FrameHandler3@@AEAV123@@Z 000000018003a950 f i libvcruntimed:risctrnsctrl.obj
 0001:00039960       ??0FuncInfo4@FH4@@QEAA@XZ  000000018003a960 f i libvcruntimed:risctrnsctrl.obj
 0001:000399d0       ??0FuncInfoHeader@FH4@@QEAA@XZ 000000018003a9d0 f i libvcruntimed:risctrnsctrl.obj
 0001:000399f0       ??0iterator@TryBlockMap4@FH4@@QEAA@AEAV12@I@Z 000000018003a9f0 f i libvcruntimed:risctrnsctrl.obj
 0001:00039a20       ??0iterator@TryBlockMap@__FrameHandler3@@QEAA@AEAV12@I@Z 000000018003aa20 f i libvcruntimed:risctrnsctrl.obj
 0001:00039a50       ??4iterator@TryBlockMap4@FH4@@QEAAAEAV012@AEBV012@@Z 000000018003aa50 f i libvcruntimed:risctrnsctrl.obj
 0001:00039a70       ??9iterator@TryBlockMap4@FH4@@QEBA_NAEBV012@@Z 000000018003aa70 f i libvcruntimed:risctrnsctrl.obj
 0001:00039ab0       ??Diterator@TryBlockMap4@FH4@@QEAA?AUTryBlockMapEntry4@2@XZ 000000018003aab0 f i libvcruntimed:risctrnsctrl.obj
 0001:00039ae0       ??Eiterator@TryBlockMap4@FH4@@QEAAAEAV012@XZ 000000018003aae0 f i libvcruntimed:risctrnsctrl.obj
 0001:00039b20       ?CatchTryBlock@__FrameHandler3@@SAPEBU_s_TryBlockMapEntry@@PEBU_s_FuncInfo@@H@Z 000000018003ab20 f   libvcruntimed:risctrnsctrl.obj
 0001:00039bb0       ?DecompFuncInfo@FH4@@YA_JPEAEAEAUFuncInfo4@1@_KH@Z 000000018003abb0 f i libvcruntimed:risctrnsctrl.obj
 0001:00039bf0       ?DecompFuncInfo@FH4@@YA_JPEAEAEAUFuncInfo4@1@_KH_N@Z 000000018003abf0 f i libvcruntimed:risctrnsctrl.obj
 0001:00039dc0       ?DecompTryBlock@TryBlockMap4@FH4@@AEAAXXZ 000000018003adc0 f i libvcruntimed:risctrnsctrl.obj
 0001:00039e40       ?ExecutionInCatch@__FrameHandler3@@SA_NPEAU_xDISPATCHER_CONTEXT@@PEBU_s_FuncInfo@@@Z 000000018003ae40 f   libvcruntimed:risctrnsctrl.obj
 0001:00039e90       ?ExecutionInCatch@__FrameHandler4@@SA_NPEAU_xDISPATCHER_CONTEXT@@PEAUFuncInfo4@FH4@@@Z 000000018003ae90 f   libvcruntimed:risctrnsctrl.obj
 0001:00039eb0       ?FrameUnwindToEmptyState@__FrameHandler3@@SAXPEA_KPEAU_xDISPATCHER_CONTEXT@@PEBU_s_FuncInfo@@@Z 000000018003aeb0 f   libvcruntimed:risctrnsctrl.obj
 0001:00039f50       ?FrameUnwindToEmptyState@__FrameHandler4@@SAXPEA_KPEAU_xDISPATCHER_CONTEXT@@PEAUFuncInfo4@FH4@@@Z 000000018003af50 f   libvcruntimed:risctrnsctrl.obj
 0001:00039fa0       ?GetEstablisherFrame@__FrameHandler3@@SAPEA_KPEA_KPEAU_xDISPATCHER_CONTEXT@@PEBU_s_FuncInfo@@0@Z 000000018003afa0 f   libvcruntimed:risctrnsctrl.obj
 0001:0003a110       ?GetEstablisherFrame@__FrameHandler4@@SAPEA_KPEA_KPEAU_xDISPATCHER_CONTEXT@@PEAUFuncInfo4@FH4@@0@Z 000000018003b110 f   libvcruntimed:risctrnsctrl.obj
 0001:0003a180       ?GetRangeOfTrysToCheck@__FrameHandler3@@SA?AU?$pair@Viterator@TryBlockMap@__FrameHandler3@@V123@@std@@AEAVTryBlockMap@1@HPEAU_xDISPATCHER_CONTEXT@@PEBU_s_FuncInfo@@H@Z 000000018003b180 f   libvcruntimed:risctrnsctrl.obj
 0001:0003a3c0       ?GetRangeOfTrysToCheck@__FrameHandler4@@SA?AU?$pair@Viterator@TryBlockMap4@FH4@@V123@@std@@AEAVTryBlockMap4@FH4@@HPEAU_xDISPATCHER_CONTEXT@@PEAUFuncInfo4@5@H@Z 000000018003b3c0 f   libvcruntimed:risctrnsctrl.obj
 0001:0003a570       ?ReadInt@FH4@@YAHPEAPEAE@Z 000000018003b570 f i libvcruntimed:risctrnsctrl.obj
 0001:0003a5b0       ?ReadUnsigned@FH4@@YAIPEAPEAE@Z 000000018003b5b0 f i libvcruntimed:risctrnsctrl.obj
 0001:0003a640       ?UnwindNestedFrames@__FrameHandler3@@SAXPEA_KPEAUEHExceptionRecord@@PEAU_CONTEXT@@0PEAXPEBU_s_FuncInfo@@HHPEBU_s_HandlerType@@PEAU_xDISPATCHER_CONTEXT@@E@Z 000000018003b640 f   libvcruntimed:risctrnsctrl.obj
 0001:0003a7b0       ?UnwindNestedFrames@__FrameHandler4@@SAXPEA_KPEAUEHExceptionRecord@@PEAU_CONTEXT@@0PEAXPEAUFuncInfo4@FH4@@HHPEAUHandlerType4@5@PEAU_xDISPATCHER_CONTEXT@@E@Z 000000018003b7b0 f   libvcruntimed:risctrnsctrl.obj
 0001:0003a980       ?begin@TryBlockMap4@FH4@@QEAA?AViterator@12@XZ 000000018003b980 f i libvcruntimed:risctrnsctrl.obj
 0001:0003a9b0       ?end@TryBlockMap4@FH4@@QEAA?AViterator@12@XZ 000000018003b9b0 f i libvcruntimed:risctrnsctrl.obj
 0001:0003a9e0       ?imageRelToByteBuffer@FH4@@YAPEAE_KH@Z 000000018003b9e0 f i libvcruntimed:risctrnsctrl.obj
 0001:0003aa00       ?incrementToSentinel@iterator@TryBlockMap4@FH4@@QEAAXXZ 000000018003ba00 f i libvcruntimed:risctrnsctrl.obj
 0001:0003aa20       ?setBuffer@TryBlockMap4@FH4@@QEAAXViterator@12@@Z 000000018003ba20 f i libvcruntimed:risctrnsctrl.obj
 0001:0003aa90       _CreateFrameInfo           000000018003ba90 f   libvcruntimed:risctrnsctrl.obj
 0001:0003ab00       _FindAndUnlinkFrame        000000018003bb00 f   libvcruntimed:risctrnsctrl.obj
 0001:0003ab80       _GetImageBase              000000018003bb80 f   libvcruntimed:risctrnsctrl.obj
 0001:0003aba0       _GetThrowImageBase         000000018003bba0 f   libvcruntimed:risctrnsctrl.obj
 0001:0003abc0       _SetImageBase              000000018003bbc0 f   libvcruntimed:risctrnsctrl.obj
 0001:0003abe0       _SetThrowImageBase         000000018003bbe0 f   libvcruntimed:risctrnsctrl.obj
 0001:0003ac00       __CxxFrameHandler          000000018003bc00 f   libvcruntimed:risctrnsctrl.obj
 0001:0003ac40       __CxxFrameHandler2         000000018003bc40 f   libvcruntimed:risctrnsctrl.obj
 0001:0003ac80       __CxxFrameHandler3         000000018003bc80 f   libvcruntimed:risctrnsctrl.obj
 0001:0003ad60       __CxxFrameHandler4         000000018003bd60 f   libvcruntimed:risctrnsctrl.obj
 0001:0003ae70       __C_specific_handler_noexcept 000000018003be70 f   libvcruntimed:chandler_noexcept.obj
 0001:0003af00       __DestructExceptionObject  000000018003bf00 f   libvcruntimed:ehhelpers.obj
 0001:0003b000       ?_CallMemberFunction0@@YAXQEAX0@Z 000000018003c000 f i libvcruntimed:ehhelpers.obj
 0001:0003b0d0       ?raw_name@type_info@@QEBAPEBDXZ 000000018003c0d0 f i libvcruntimed:ehhelpers.obj
 0001:0003b0e0       _IsExceptionObjectToBeDestroyed 000000018003c0e0 f   libvcruntimed:ehhelpers.obj
 0001:0003b130       _SetWinRTOutOfMemoryExceptionCallback 000000018003c130 f   libvcruntimed:ehhelpers.obj
 0001:0003b150       __AdjustPointer            000000018003c150 f   libvcruntimed:ehhelpers.obj
 0001:0003b1d0       __FrameUnwindFilter        000000018003c1d0 f   libvcruntimed:ehhelpers.obj
 0001:0003b280       __GetPlatformExceptionInfo 000000018003c280 f   libvcruntimed:ehhelpers.obj
 0001:0003b330       __current_exception        000000018003c330 f   libvcruntimed:ehhelpers.obj
 0001:0003b350       __current_exception_context 000000018003c350 f   libvcruntimed:ehhelpers.obj
 0001:0003b370       __processing_throw         000000018003c370 f   libvcruntimed:ehhelpers.obj
 0001:0003b390       __std_terminate            000000018003c390 f   libvcruntimed:ehhelpers.obj
 0001:0003b3a0       _is_exception_typeof       000000018003c3a0 f   libvcruntimed:ehhelpers.obj
 0001:0003b530       ??$?RD@__crt_internal_free_policy@@QEBAXQEBD@Z 000000018003c530 f i libvcruntimed:std_type_info.obj
 0001:0003b560       ??$?RX@__crt_internal_free_policy@@QEBAXQEBX@Z 000000018003c560 f i libvcruntimed:std_type_info.obj
 0001:0003b590       ??$__crt_interlocked_compare_exchange_pointer@$$CBDPEAD$$T@@YAPEBDPEDSEBDQEAD$$T@Z 000000018003c590 f i libvcruntimed:std_type_info.obj
 0001:0003b5d0       ??$__crt_interlocked_read_pointer@$$CBD@@YAPEBDPEDSEBD@Z 000000018003c5d0 f i libvcruntimed:std_type_info.obj
 0001:0003b5f0       ??0?$__crt_unique_heap_ptr@DU__crt_internal_free_policy@@@@QEAA@QEAD@Z 000000018003c5f0 f i libvcruntimed:std_type_info.obj
 0001:0003b610       ??0?$__crt_unique_heap_ptr@XU__crt_internal_free_policy@@@@QEAA@QEAX@Z 000000018003c610 f i libvcruntimed:std_type_info.obj
 0001:0003b630       ??1?$__crt_unique_heap_ptr@DU__crt_internal_free_policy@@@@QEAA@XZ 000000018003c630 f i libvcruntimed:std_type_info.obj
 0001:0003b650       ??1?$__crt_unique_heap_ptr@XU__crt_internal_free_policy@@@@QEAA@XZ 000000018003c650 f i libvcruntimed:std_type_info.obj
 0001:0003b670       ??B?$__crt_unique_heap_ptr@DU__crt_internal_free_policy@@@@QEBA_NXZ 000000018003c670 f i libvcruntimed:std_type_info.obj
 0001:0003b690       ??B?$__crt_unique_heap_ptr@XU__crt_internal_free_policy@@@@QEBA_NXZ 000000018003c690 f i libvcruntimed:std_type_info.obj
 0001:0003b730       ?detach@?$__crt_unique_heap_ptr@XU__crt_internal_free_policy@@@@QEAAPEAXXZ 000000018003c730 f i libvcruntimed:std_type_info.obj
 0001:0003b760       ?get@?$__crt_unique_heap_ptr@DU__crt_internal_free_policy@@@@QEBAPEADXZ 000000018003c760 f i libvcruntimed:std_type_info.obj
 0001:0003b770       ?get@?$__crt_unique_heap_ptr@XU__crt_internal_free_policy@@@@QEBAPEAXXZ 000000018003c770 f i libvcruntimed:std_type_info.obj
 0001:0003b780       ?is_valid@?$__crt_unique_heap_ptr@DU__crt_internal_free_policy@@@@QEBA_NXZ 000000018003c780 f i libvcruntimed:std_type_info.obj
 0001:0003b7b0       ?is_valid@?$__crt_unique_heap_ptr@XU__crt_internal_free_policy@@@@QEBA_NXZ 000000018003c7b0 f i libvcruntimed:std_type_info.obj
 0001:0003b7e0       ?release@?$__crt_unique_heap_ptr@DU__crt_internal_free_policy@@@@QEAAXXZ 000000018003c7e0 f i libvcruntimed:std_type_info.obj
 0001:0003b810       ?release@?$__crt_unique_heap_ptr@XU__crt_internal_free_policy@@@@QEAAXXZ 000000018003c810 f i libvcruntimed:std_type_info.obj
 0001:0003b840       __std_type_info_compare    000000018003c840 f   libvcruntimed:std_type_info.obj
 0001:0003b880       __std_type_info_destroy_list 000000018003c880 f   libvcruntimed:std_type_info.obj
 0001:0003b8e0       __std_type_info_hash       000000018003c8e0 f   libvcruntimed:std_type_info.obj
 0001:0003b990       __std_type_info_name       000000018003c990 f   libvcruntimed:std_type_info.obj
 0001:0003bc40       __vcrt_GetModuleFileNameW  000000018003cc40 f   libvcruntimed:winapi_thunks.obj
 0001:0003bc70       __vcrt_GetModuleHandleW    000000018003cc70 f   libvcruntimed:winapi_thunks.obj
 0001:0003bc90       __vcrt_LoadLibraryExW      000000018003cc90 f   libvcruntimed:winapi_thunks.obj
 0001:0003bcc0       ??$?RD@__crt_public_free_policy@@QEBAXQEBD@Z 000000018003ccc0 f i libvcruntimed:std_exception.obj
 0001:0003bce0       ??0?$__crt_unique_heap_ptr@DU__crt_public_free_policy@@@@QEAA@QEAD@Z 000000018003cce0 f i libvcruntimed:std_exception.obj
 0001:0003bd00       ??1?$__crt_unique_heap_ptr@DU__crt_public_free_policy@@@@QEAA@XZ 000000018003cd00 f i libvcruntimed:std_exception.obj
 0001:0003bd20       ??B?$__crt_unique_heap_ptr@DU__crt_public_free_policy@@@@QEBA_NXZ 000000018003cd20 f i libvcruntimed:std_exception.obj
 0001:0003bd40       ?detach@?$__crt_unique_heap_ptr@DU__crt_public_free_policy@@@@QEAAPEADXZ 000000018003cd40 f i libvcruntimed:std_exception.obj
 0001:0003bd70       ?get@?$__crt_unique_heap_ptr@DU__crt_public_free_policy@@@@QEBAPEADXZ 000000018003cd70 f i libvcruntimed:std_exception.obj
 0001:0003bd80       ?is_valid@?$__crt_unique_heap_ptr@DU__crt_public_free_policy@@@@QEBA_NXZ 000000018003cd80 f i libvcruntimed:std_exception.obj
 0001:0003bdb0       ?release@?$__crt_unique_heap_ptr@DU__crt_public_free_policy@@@@QEAAXXZ 000000018003cdb0 f i libvcruntimed:std_exception.obj
 0001:0003bde0       __std_exception_copy       000000018003cde0 f   libvcruntimed:std_exception.obj
 0001:0003bf20       __std_exception_destroy    000000018003cf20 f   libvcruntimed:std_exception.obj
 0001:0003bf60       _CxxThrowException         000000018003cf60 f   libvcruntimed:throw.obj
 0001:0003c090       ??$?RU__vcrt_ptd@@@__crt_internal_free_policy@@QEBAXQEBU__vcrt_ptd@@@Z 000000018003d090 f i libvcruntimed:per_thread_data.obj
 0001:0003c0c0       ??0?$__crt_unique_heap_ptr@U__vcrt_ptd@@U__crt_internal_free_policy@@@@QEAA@QEAU__vcrt_ptd@@@Z 000000018003d0c0 f i libvcruntimed:per_thread_data.obj
 0001:0003c100       ??1?$__crt_unique_heap_ptr@U__vcrt_ptd@@U__crt_internal_free_policy@@@@QEAA@XZ 000000018003d100 f i libvcruntimed:per_thread_data.obj
 0001:0003c140       ??B?$__crt_unique_heap_ptr@U__vcrt_ptd@@U__crt_internal_free_policy@@@@QEBA_NXZ 000000018003d140 f i libvcruntimed:per_thread_data.obj
 0001:0003c160       ?detach@?$__crt_unique_heap_ptr@U__vcrt_ptd@@U__crt_internal_free_policy@@@@QEAAPEAU__vcrt_ptd@@XZ 000000018003d160 f i libvcruntimed:per_thread_data.obj
 0001:0003c190       ?get@?$__crt_unique_heap_ptr@U__vcrt_ptd@@U__crt_internal_free_policy@@@@QEBAPEAU__vcrt_ptd@@XZ 000000018003d190 f i libvcruntimed:per_thread_data.obj
 0001:0003c1a0       ?is_valid@?$__crt_unique_heap_ptr@U__vcrt_ptd@@U__crt_internal_free_policy@@@@QEBA_NXZ 000000018003d1a0 f i libvcruntimed:per_thread_data.obj
 0001:0003c1d0       ?release@?$__crt_unique_heap_ptr@U__vcrt_ptd@@U__crt_internal_free_policy@@@@QEAAXXZ 000000018003d1d0 f i libvcruntimed:per_thread_data.obj
 0001:0003c240       __vcrt_freefls             000000018003d240 f   libvcruntimed:per_thread_data.obj
 0001:0003c280       __vcrt_freeptd             000000018003d280 f   libvcruntimed:per_thread_data.obj
 0001:0003c2e0       __vcrt_getptd              000000018003d2e0 f   libvcruntimed:per_thread_data.obj
 0001:0003c310       __vcrt_getptd_noexit       000000018003d310 f   libvcruntimed:per_thread_data.obj
 0001:0003c4b0       __vcrt_getptd_noinit       000000018003d4b0 f   libvcruntimed:per_thread_data.obj
 0001:0003c510       __vcrt_initialize_ptd      000000018003d510 f   libvcruntimed:per_thread_data.obj
 0001:0003c560       __vcrt_uninitialize_ptd    000000018003d560 f   libvcruntimed:per_thread_data.obj
 0001:0003c590       __vcrt_initialize_locks    000000018003d590 f   libvcruntimed:locks.obj
 0001:0003c600       __vcrt_lock                000000018003d600 f   libvcruntimed:locks.obj
 0001:0003c630       __vcrt_uninitialize_locks  000000018003d630 f   libvcruntimed:locks.obj
 0001:0003c690       __vcrt_unlock              000000018003d690 f   libvcruntimed:locks.obj
 0001:0003c6d0       _NLG_Notify                000000018003d6d0 f   libvcruntimed:notify.obj
 0001:0003c6f0       __NLG_Dispatch2            000000018003d6f0 f   libvcruntimed:notify.obj
 0001:0003c700       __NLG_Return2              000000018003d700 f   libvcruntimed:notify.obj
 0001:0003c720       __except_validate_context_record 000000018003d720 f   libvcruntimed:jbcxrval.obj
 0001:0003c780       __except_validate_jump_buffer 000000018003d780 f   libvcruntimed:jbcxrval.obj
 0001:0003c7a0       __except_validate_jump_buffer_common 000000018003d7a0 f i libvcruntimed:jbcxrval.obj
 0001:0003c820       ?GetCurrentState@__FrameHandler3@@SAHPEA_KPEAU_xDISPATCHER_CONTEXT@@PEBU_s_FuncInfo@@@Z 000000018003d820 f   libvcruntimed:ehstate.obj
 0001:0003c880       ?GetUnwindTryBlock@__FrameHandler3@@SAHPEA_KPEAU_xDISPATCHER_CONTEXT@@PEBU_s_FuncInfo@@@Z 000000018003d880 f   libvcruntimed:ehstate.obj
 0001:0003c8d0       ?SetState@__FrameHandler3@@SAXPEA_KPEBU_s_FuncInfo@@H@Z 000000018003d8d0 f   libvcruntimed:ehstate.obj
 0001:0003c900       ?SetUnwindTryBlock@__FrameHandler3@@SAXPEA_KPEAU_xDISPATCHER_CONTEXT@@PEBU_s_FuncInfo@@H@Z 000000018003d900 f   libvcruntimed:ehstate.obj
 0001:0003c970       ?StateFromControlPc@__FrameHandler3@@SAHPEBU_s_FuncInfo@@PEAU_xDISPATCHER_CONTEXT@@@Z 000000018003d970 f   libvcruntimed:ehstate.obj
 0001:0003c9b0       ?StateFromControlPc@__FrameHandler4@@SAHPEAUFuncInfo4@FH4@@PEAU_xDISPATCHER_CONTEXT@@@Z 000000018003d9b0 f   libvcruntimed:ehstate.obj
 0001:0003c9f0       ?StateFromIp@__FrameHandler3@@SAHPEBU_s_FuncInfo@@PEAU_xDISPATCHER_CONTEXT@@_K@Z 000000018003d9f0 f   libvcruntimed:ehstate.obj
 0001:0003cae0       ?StateFromIp@__FrameHandler4@@SAHPEAUFuncInfo4@FH4@@PEAU_xDISPATCHER_CONTEXT@@_K@Z 000000018003dae0 f   libvcruntimed:ehstate.obj
 0001:0003cbd0       ?__FuncRelToRealOffset@@YA_KPEAU_xDISPATCHER_CONTEXT@@I@Z 000000018003dbd0 f i libvcruntimed:ehstate.obj
 0001:0003cc00       ?__RVAtoRealOffset@@YA_KPEAU_xDISPATCHER_CONTEXT@@H@Z 000000018003dc00 f i libvcruntimed:ehstate.obj
 0001:0003ee80       ??$TypeMatchHelper@V__FrameHandler3@@@@YAHPEBU_s_HandlerType@@PEBU_s_CatchableType@@PEBU_s_ThrowInfo@@@Z 000000018003fe80 f i libvcruntimed:frame.obj
 0001:0003f080       ??$TypeMatchHelper@V__FrameHandler4@@@@YAHPEAUHandlerType4@FH4@@PEBU_s_CatchableType@@PEBU_s_ThrowInfo@@@Z 0000000180040080 f i libvcruntimed:frame.obj
 0001:0003f290       ??$__InternalCxxFrameHandler@V__FrameHandler3@@@@YA?AW4_EXCEPTION_DISPOSITION@@PEAUEHExceptionRecord@@PEA_KPEAU_CONTEXT@@PEAU_xDISPATCHER_CONTEXT@@PEBU_s_FuncInfo@@H1E@Z 0000000180040290 f i libvcruntimed:frame.obj
 0001:0003f700       ??$__InternalCxxFrameHandler@V__FrameHandler4@@@@YA?AW4_EXCEPTION_DISPOSITION@@PEAUEHExceptionRecord@@PEA_KPEAU_CONTEXT@@PEAU_xDISPATCHER_CONTEXT@@PEAUFuncInfo4@FH4@@H1E@Z 0000000180040700 f i libvcruntimed:frame.obj
 0001:0003fb90       ??0HandlerMap4@FH4@@QEAA@PEBUTryBlockMapEntry4@1@_KH@Z 0000000180040b90 f i libvcruntimed:frame.obj
 0001:0003fc50       ??0HandlerMap@__FrameHandler3@@QEAA@PEBU_s_TryBlockMapEntry@@_KI@Z 0000000180040c50 f i libvcruntimed:frame.obj
 0001:0003fca0       ??0HandlerType4@FH4@@QEAA@XZ 0000000180040ca0 f i libvcruntimed:frame.obj
 0001:0003fcc0       ??0TryBlockMap4@FH4@@QEAA@PEBUFuncInfo4@1@_K@Z 0000000180040cc0 f i libvcruntimed:frame.obj
 0001:0003fd50       ??0TryBlockMap@__FrameHandler3@@QEAA@PEBU_s_FuncInfo@@_K@Z 0000000180040d50 f i libvcruntimed:frame.obj
 0001:0003fd80       ??0UWMap4@FH4@@QEAA@PEBUFuncInfo4@1@_K@Z 0000000180040d80 f i libvcruntimed:frame.obj
 0001:0003fdf0       ??0bad_exception@std@@QEAA@AEBV01@@Z 0000000180040df0 f i libvcruntimed:frame.obj
 0001:0003fe30       ??0bad_exception@std@@QEAA@XZ 0000000180040e30 f i libvcruntimed:frame.obj
 0001:0003fe70       ??0iterator@HandlerMap4@FH4@@QEAA@AEAV12@I@Z 0000000180040e70 f i libvcruntimed:frame.obj
 0001:0003fea0       ??0iterator@HandlerMap@__FrameHandler3@@QEAA@AEAV12@I@Z 0000000180040ea0 f i libvcruntimed:frame.obj
 0001:0003fed0       ??0iterator@UWMap4@FH4@@QEAA@AEAV12@PEAE@Z 0000000180040ed0 f i libvcruntimed:frame.obj
 0001:0003ff00       ??1bad_exception@std@@UEAA@XZ 0000000180040f00 f i libvcruntimed:frame.obj
 0001:0003ff20       ??4iterator@UWMap4@FH4@@QEAAAEAV012@AEBV012@@Z 0000000180040f20 f i libvcruntimed:frame.obj
 0001:0003ff70       ??8iterator@HandlerMap4@FH4@@QEBA_NAEBV012@@Z 0000000180040f70 f i libvcruntimed:frame.obj
 0001:0003ffb0       ??8iterator@HandlerMap@__FrameHandler3@@QEBA_NAEBV012@@Z 0000000180040fb0 f i libvcruntimed:frame.obj
 0001:0003fff0       ??8type_info@@QEBA_NAEBV0@@Z 0000000180040ff0 f i libvcruntimed:frame.obj
 0001:00040040       ??9iterator@HandlerMap4@FH4@@QEBA_NAEBV012@@Z 0000000180041040 f i libvcruntimed:frame.obj
 0001:00040080       ??9iterator@HandlerMap@__FrameHandler3@@QEBA_NAEBV012@@Z 0000000180041080 f i libvcruntimed:frame.obj
 0001:000400c0       ??Diterator@HandlerMap4@FH4@@QEAA?AUHandlerType4@2@XZ 00000001800410c0 f i libvcruntimed:frame.obj
 0001:000400f0       ??Diterator@HandlerMap@__FrameHandler3@@QEAA?BU_s_HandlerType@@XZ 00000001800410f0 f i libvcruntimed:frame.obj
 0001:00040130       ??Diterator@TryBlockMap@__FrameHandler3@@QEAA?BU_s_TryBlockMapEntry@@XZ 0000000180041130 f i libvcruntimed:frame.obj
 0001:00040180       ??Diterator@UWMap4@FH4@@QEAA?AUUnwindMapEntry4@2@XZ 0000000180041180 f i libvcruntimed:frame.obj
 0001:00040200       ??Eiterator@HandlerMap4@FH4@@QEAAAEAV012@XZ 0000000180041200 f i libvcruntimed:frame.obj
 0001:00040240       ??Eiterator@HandlerMap@__FrameHandler3@@QEAAAEAV012@XZ 0000000180041240 f i libvcruntimed:frame.obj
 0001:00040260       ??Eiterator@TryBlockMap@__FrameHandler3@@QEAAAEAV012@XZ 0000000180041260 f i libvcruntimed:frame.obj
 0001:00040280       ??Eiterator@UWMap4@FH4@@QEAAAEAV012@XZ 0000000180041280 f i libvcruntimed:frame.obj
 0001:000402c0       ??Giterator@UWMap4@FH4@@QEBA_JAEBV012@@Z 00000001800412c0 f i libvcruntimed:frame.obj
 0001:000402e0       ??Miterator@TryBlockMap4@FH4@@QEBA_NAEBV012@@Z 00000001800412e0 f i libvcruntimed:frame.obj
 0001:00040320       ??Miterator@TryBlockMap@__FrameHandler3@@QEBA_NAEBV012@@Z 0000000180041320 f i libvcruntimed:frame.obj
 0001:00040360       ??Oiterator@UWMap4@FH4@@QEBA_NAEBV012@@Z 0000000180041360 f i libvcruntimed:frame.obj
 0001:000403a0       ??Piterator@UWMap4@FH4@@QEBA_NAEBV012@@Z 00000001800413a0 f i libvcruntimed:frame.obj
 0001:000403e0       ??_Gbad_exception@std@@UEAAPEAXI@Z 00000001800413e0 f i libvcruntimed:frame.obj
 0001:000403e0       ??_Ebad_exception@std@@UEAAPEAXI@Z 00000001800413e0 f i libvcruntimed:frame.obj
 0001:00040420       ?BuildCatchObject@__FrameHandler3@@SAXPEAUEHExceptionRecord@@PEAXPEBU_s_HandlerType@@PEBU_s_CatchableType@@@Z 0000000180041420 f   libvcruntimed:frame.obj
 0001:00040460       ?BuildCatchObject@__FrameHandler4@@SAXPEAUEHExceptionRecord@@PEAXPEAUHandlerType4@FH4@@PEBU_s_CatchableType@@@Z 0000000180041460 f   libvcruntimed:frame.obj
 0001:000404a0       ?BuildCatchObjectHelper@__FrameHandler3@@SAHPEAUEHExceptionRecord@@PEAXPEBU_s_HandlerType@@PEBU_s_CatchableType@@@Z 00000001800414a0 f   libvcruntimed:frame.obj
 0001:000404e0       ?BuildCatchObjectHelper@__FrameHandler4@@SAHPEAUEHExceptionRecord@@PEAXPEAUHandlerType4@FH4@@PEBU_s_CatchableType@@@Z 00000001800414e0 f   libvcruntimed:frame.obj
 0001:00040520       ?CxxCallCatchBlock@__FrameHandler3@@SAPEAXPEAU_EXCEPTION_RECORD@@@Z 0000000180041520 f   libvcruntimed:frame.obj
 0001:00040780       ?CxxCallCatchBlock@__FrameHandler4@@SAPEAXPEAU_EXCEPTION_RECORD@@@Z 0000000180041780 f   libvcruntimed:frame.obj
 0001:00040ab0       ?DecompHandler@HandlerMap4@FH4@@AEAAXXZ 0000000180041ab0 f i libvcruntimed:frame.obj
 0001:00040e80       ?FrameUnwindToState@__FrameHandler3@@SAXPEA_KPEAU_xDISPATCHER_CONTEXT@@PEBU_s_FuncInfo@@H@Z 0000000180041e80 f   libvcruntimed:frame.obj
 0001:000410d0       ?FrameUnwindToState@__FrameHandler4@@SAXPEA_KPEAU_xDISPATCHER_CONTEXT@@PEAUFuncInfo4@FH4@@H@Z 00000001800420d0 f   libvcruntimed:frame.obj
 0001:000413e0       ?GetHandlerSearchState@__FrameHandler3@@SAHPEA_KPEAU_xDISPATCHER_CONTEXT@@PEBU_s_FuncInfo@@@Z 00000001800423e0 f i libvcruntimed:frame.obj
 0001:00041490       ?GetHandlerSearchState@__FrameHandler4@@SAHPEA_KPEAU_xDISPATCHER_CONTEXT@@PEAUFuncInfo4@FH4@@@Z 0000000180042490 f i libvcruntimed:frame.obj
 0001:00041510       ?GetMaxState@__FrameHandler3@@SAHPEAU_xDISPATCHER_CONTEXT@@PEBU_s_FuncInfo@@@Z 0000000180042510 f i libvcruntimed:frame.obj
 0001:00041530       ?GetMaxState@__FrameHandler4@@SAHPEAU_xDISPATCHER_CONTEXT@@PEAUFuncInfo4@FH4@@@Z 0000000180042530 f i libvcruntimed:frame.obj
 0001:00041760       ?ReadEntry@UWMap4@FH4@@AEAAXPEAPEAE@Z 0000000180042760 f i libvcruntimed:frame.obj
 0001:00041810       ?TypeMatch@__FrameHandler3@@SAHPEBU_s_HandlerType@@PEBU_s_CatchableType@@PEBU_s_ThrowInfo@@@Z 0000000180042810 f   libvcruntimed:frame.obj
 0001:00041840       ?TypeMatch@__FrameHandler4@@SAHPEAUHandlerType4@FH4@@PEBU_s_CatchableType@@PEBU_s_ThrowInfo@@@Z 0000000180042840 f   libvcruntimed:frame.obj
 0001:00041870       ?WalkBack@UWMap4@FH4@@AEAAXPEAPEAE@Z 0000000180042870 f i libvcruntimed:frame.obj
 0001:000418c0       ?WalkBack@iterator@UWMap4@FH4@@QEAAXXZ 00000001800428c0 f i libvcruntimed:frame.obj
 0001:00041900       ?WalkForward@UWMap4@FH4@@AEAAXPEAPEAE@Z 0000000180042900 f i libvcruntimed:frame.obj
 0001:00041930       ?_CallMemberFunction1@@YAXQEAX00@Z 0000000180042930 f i libvcruntimed:frame.obj
 0001:00041970       ?_CallMemberFunction2@@YAXQEAX00H@Z 0000000180042970 f i libvcruntimed:frame.obj
 0001:00041a00       ?begin@HandlerMap4@FH4@@QEAA?AViterator@12@XZ 0000000180042a00 f i libvcruntimed:frame.obj
 0001:00041a30       ?begin@HandlerMap@__FrameHandler3@@QEAA?AViterator@12@XZ 0000000180042a30 f i libvcruntimed:frame.obj
 0001:00041a60       ?begin@UWMap4@FH4@@QEAA?AViterator@12@XZ 0000000180042a60 f i libvcruntimed:frame.obj
 0001:00041a90       ?end@HandlerMap4@FH4@@QEAA?AViterator@12@XZ 0000000180042a90 f i libvcruntimed:frame.obj
 0001:00041ac0       ?end@HandlerMap@__FrameHandler3@@QEAA?AViterator@12@XZ 0000000180042ac0 f i libvcruntimed:frame.obj
 0001:00041af0       ?getESTypes@__FrameHandler3@@SAPEBU_s_ESTypeList@@PEBU_s_FuncInfo@@@Z 0000000180042af0 f i libvcruntimed:frame.obj
 0001:00041b30       ?getESTypes@__FrameHandler4@@SAPEBU_s_ESTypeList@@PEAUFuncInfo4@FH4@@@Z 0000000180042b30 f i libvcruntimed:frame.obj
 0001:00041b40       ?getLastEntry@HandlerMap4@FH4@@QEAAPEAUHandlerType4@2@XZ 0000000180042b40 f i libvcruntimed:frame.obj
 0001:00041b80       ?getLastEntry@HandlerMap@__FrameHandler3@@QEAAPEBU_s_HandlerType@@XZ 0000000180042b80 f i libvcruntimed:frame.obj
 0001:00041ba0       ?getMagicNum@__FrameHandler3@@SAIPEBU_s_FuncInfo@@@Z 0000000180042ba0 f i libvcruntimed:frame.obj
 0001:00041bc0       ?getMagicNum@__FrameHandler4@@SAIPEAUFuncInfo4@FH4@@@Z 0000000180042bc0 f i libvcruntimed:frame.obj
 0001:00041bd0       ?getNumTryBlocks@TryBlockMap4@FH4@@QEAAIXZ 0000000180042bd0 f i libvcruntimed:frame.obj
 0001:00041be0       ?getNumTryBlocks@TryBlockMap@__FrameHandler3@@QEAAIXZ 0000000180042be0 f i libvcruntimed:frame.obj
 0001:00041c00       ?getStartStop@UWMap4@FH4@@QEAAXHHAEAViterator@12@0@Z 0000000180042c00 f i libvcruntimed:frame.obj
 0001:00041d20       ?getStateFromIterators@UWMap4@FH4@@SAHAEBViterator@12@H0H0@Z 0000000180042d20 f i libvcruntimed:frame.obj
 0001:00041e60       ?isEHs@__FrameHandler3@@SA_NPEBU_s_FuncInfo@@@Z 0000000180042e60 f i libvcruntimed:frame.obj
 0001:00041ea0       ?isEHs@__FrameHandler4@@SA_NPEAUFuncInfo4@FH4@@@Z 0000000180042ea0 f i libvcruntimed:frame.obj
 0001:00041ec0       ?isNoExcept@__FrameHandler3@@SA_NPEBU_s_FuncInfo@@@Z 0000000180042ec0 f i libvcruntimed:frame.obj
 0001:00041f00       ?isNoExcept@__FrameHandler4@@SA_NPEAUFuncInfo4@FH4@@@Z 0000000180042f00 f i libvcruntimed:frame.obj
 0001:00041f20       ?reset@HandlerType4@FH4@@QEAAXXZ 0000000180042f20 f i libvcruntimed:frame.obj
 0001:00041f80       ?resetBuffer@HandlerMap4@FH4@@QEAAXXZ 0000000180042f80 f i libvcruntimed:frame.obj
 0001:00041fa0       ?setBuffer@HandlerMap4@FH4@@QEAAXI@Z 0000000180042fa0 f i libvcruntimed:frame.obj
 0001:00042000       __BuildCatchObject         0000000180043000 f   libvcruntimed:frame.obj
 0001:00042040       __BuildCatchObjectHelper   0000000180043040 f   libvcruntimed:frame.obj
 0001:00042080       __TypeMatch                0000000180043080 f   libvcruntimed:frame.obj
 0001:000420b0       __vcrt_EncodePointer       00000001800430b0 f i libvcruntimed:frame.obj
 0001:000420d0       ??$?0$00@DName@@QEAA@PEBDU?$StringLifeSelector@$00@@@Z 00000001800430d0 f i libvcruntimed:undname.obj
 0001:00042140       ??$?0$00@pcharNode@@QEAA@PEBDHU?$StringLifeSelector@$00@@@Z 0000000180043140 f i libvcruntimed:undname.obj
 0001:000421a0       ??$?0$01@DName@@QEAA@PEBDU?$StringLifeSelector@$01@@@Z 00000001800431a0 f i libvcruntimed:undname.obj
 0001:00042210       ??$?0$01@pcharNode@@QEAA@PEBDHU?$StringLifeSelector@$01@@@Z 0000000180043210 f i libvcruntimed:undname.obj
 0001:000422c0       ??$?0$0A@@DName@@QEAA@PEBDU?$StringLifeSelector@$0A@@@@Z 00000001800432c0 f i libvcruntimed:undname.obj
 0001:00042330       ??$?0$0A@@pcharNode@@QEAA@PEBDHU?$StringLifeSelector@$0A@@@@Z 0000000180043330 f i libvcruntimed:undname.obj
 0001:000423e0       ??$?0_K$0A@@?$optional@_K@std@@QEAA@$$QEA_K@Z 00000001800433e0 f i libvcruntimed:undname.obj
 0001:00042430       ??$?0_K@?$_Optional_construct_base@_K@std@@QEAA@Uin_place_t@1@$$QEA_K@Z 0000000180043430 f i libvcruntimed:undname.obj
 0001:00042460       ??$?0_K@?$_Optional_destruct_base@_K$00@std@@QEAA@Uin_place_t@1@$$QEA_K@Z 0000000180043460 f i libvcruntimed:undname.obj
 0001:000424a0       ??$append@VDNameNode@@@DName@@AEAAXPEBVDNameNode@@@Z 00000001800434a0 f i libvcruntimed:undname.obj
 0001:00042550       ??$append@VDNameStatusNode@@@DName@@AEAAXPEBVDNameStatusNode@@@Z 0000000180043550 f i libvcruntimed:undname.obj
 0001:00042600       ??$append@VcharNode@@@DName@@AEAAXPEBVcharNode@@@Z 0000000180043600 f i libvcruntimed:undname.obj
 0001:000426b0       ??$append@VpDNameNode@@@DName@@AEAAXPEBVpDNameNode@@@Z 00000001800436b0 f i libvcruntimed:undname.obj
 0001:00042760       ??$append@VpcharNode@@@DName@@AEAAXPEBVpcharNode@@@Z 0000000180043760 f i libvcruntimed:undname.obj
 0001:00042810       ??$doPchar@$00@DName@@AEAAXPEBDH@Z 0000000180043810 f i libvcruntimed:undname.obj
 0001:00042970       ??$doPchar@$01@DName@@AEAAXPEBDH@Z 0000000180043970 f i libvcruntimed:undname.obj
 0001:00042ad0       ??$doPchar@$0A@@DName@@AEAAXPEBDH@Z 0000000180043ad0 f i libvcruntimed:undname.obj
 0001:00042c30       ??$forward@_K@std@@YA$$QEA_KAEA_K@Z 0000000180043c30 f i libvcruntimed:undname.obj
 0001:00042c40       ??$size@D$04@std@@YA_KAEAY04$$CBD@Z 0000000180043c40 f i libvcruntimed:undname.obj
 0001:00042c50       ??$size@D$0EB@@std@@YA_KAEAY0EB@$$CBD@Z 0000000180043c50 f i libvcruntimed:undname.obj
 0001:00042c60       ??0?$_Optional_construct_base@_K@std@@QEAA@XZ 0000000180043c60 f i libvcruntimed:undname.obj
 0001:00042c80       ??0?$_Optional_destruct_base@_K$00@std@@QEAA@XZ 0000000180043c80 f i libvcruntimed:undname.obj
 0001:00042cb0       ??0?$optional@_K@std@@QEAA@XZ 0000000180043cb0 f i libvcruntimed:undname.obj
 0001:00042cd0       ??0Block@_HeapManager@@QEAA@XZ 0000000180043cd0 f i libvcruntimed:undname.obj
 0001:00042cf0       ??0DName@@QEAA@AEAPEBDD@Z  0000000180043cf0 f   libvcruntimed:undname.obj
 0001:00042ec0       ??0DName@@QEAA@AEBUStringLiteral@@@Z 0000000180043ec0 f   libvcruntimed:undname.obj
 0001:00042f20       ??0DName@@QEAA@AEBV0@@Z    0000000180043f20 f i libvcruntimed:undname.obj
 0001:00042f50       ??0DName@@QEAA@D@Z         0000000180043f50 f   libvcruntimed:undname.obj
 0001:00042f90       ??0DName@@QEAA@PEAV0@@Z    0000000180043f90 f   libvcruntimed:undname.obj
 0001:00043070       ??0DName@@QEAA@W4DNameStatus@@@Z 0000000180044070 f   libvcruntimed:undname.obj
 0001:00043120       ??0DName@@QEAA@XZ          0000000180044120 f i libvcruntimed:undname.obj
 0001:00043150       ??0DName@@QEAA@_J@Z        0000000180044150 f   libvcruntimed:undname.obj
 0001:00043260       ??0DName@@QEAA@_K@Z        0000000180044260 f   libvcruntimed:undname.obj
 0001:00043330       ??0DNameNode@@IEAA@XZ      0000000180044330 f i libvcruntimed:undname.obj
 0001:00043350       ??0Replicator@@QEAA@XZ     0000000180044350 f i libvcruntimed:undname.obj
 0001:00043390       ??0UnDecorator@@QEAA@PEBDP6APEADJ@ZK@Z 0000000180044390 f i libvcruntimed:undname.obj
 0001:00043440       ??0_Nontrivial_dummy_type@std@@QEAA@XZ 0000000180044440 f i libvcruntimed:undname.obj
 0001:00043450       ??0charNode@@QEAA@D@Z      0000000180044450 f i libvcruntimed:undname.obj
 0001:00043490       ??0pDNameNode@@QEAA@PEAVDName@@@Z 0000000180044490 f   libvcruntimed:undname.obj
 0001:00043510       ??0pairNode@@QEAA@PEBVDNameNode@@0@Z 0000000180044510 f i libvcruntimed:undname.obj
 0001:00043590       ??2@YAPEAX_KAEAV_HeapManager@@H@Z 0000000180044590 f   libvcruntimed:undname.obj
 0001:000435f0       ??4DName@@QEAAAEAV0@AEBUStringLiteral@@@Z 00000001800445f0 f   libvcruntimed:undname.obj
 0001:00043640       ??4DName@@QEAAAEAV0@AEBV0@@Z 0000000180044640 f   libvcruntimed:undname.obj
 0001:00043670       ??4DName@@QEAAAEAV0@D@Z    0000000180044670 f i libvcruntimed:undname.obj
 0001:000436b0       ??4DName@@QEAAAEAV0@PEAV0@@Z 00000001800446b0 f   libvcruntimed:undname.obj
 0001:00043780       ??4DName@@QEAAAEAV0@W4DNameStatus@@@Z 0000000180044780 f   libvcruntimed:undname.obj
 0001:00043810       ??AReplicator@@QEBA?AVDName@@H@Z 0000000180044810 f   libvcruntimed:undname.obj
 0001:000438a0       ??B?$optional@_K@std@@QEBA_NXZ 00000001800448a0 f i libvcruntimed:undname.obj
 0001:000438b0       ??D?$optional@_K@std@@QEGAAAEA_KXZ 00000001800448b0 f i libvcruntimed:undname.obj
 0001:000438c0       ??H@YA?AVDName@@AEBUStringLiteral@@AEBV0@@Z 00000001800448c0 f i libvcruntimed:undname.obj
 0001:00043910       ??H@YA?AVDName@@DAEBV0@@Z  0000000180044910 f i libvcruntimed:undname.obj
 0001:00043960       ??H@YA?AVDName@@W4DNameStatus@@AEBV0@@Z 0000000180044960 f i libvcruntimed:undname.obj
 0001:000439b0       ??HDName@@QEBA?AV0@AEBUStringLiteral@@@Z 00000001800449b0 f   libvcruntimed:undname.obj
 0001:00043a00       ??HDName@@QEBA?AV0@AEBV0@@Z 0000000180044a00 f   libvcruntimed:undname.obj
 0001:00043a50       ??HDName@@QEBA?AV0@D@Z     0000000180044a50 f   libvcruntimed:undname.obj
 0001:00043aa0       ??HDName@@QEBA?AV0@PEAV0@@Z 0000000180044aa0 f   libvcruntimed:undname.obj
 0001:00043af0       ??HDName@@QEBA?AV0@W4DNameStatus@@@Z 0000000180044af0 f   libvcruntimed:undname.obj
 0001:00043b40       ??HStringLiteral@@QEBA?AU0@H@Z 0000000180044b40 f i libvcruntimed:undname.obj
 0001:00043b80       ??YDName@@QEAAAEAV0@AEBUStringLiteral@@@Z 0000000180044b80 f   libvcruntimed:undname.obj
 0001:00043c50       ??YDName@@QEAAAEAV0@AEBV0@@Z 0000000180044c50 f   libvcruntimed:undname.obj
 0001:00043d10       ??YDName@@QEAAAEAV0@D@Z    0000000180044d10 f   libvcruntimed:undname.obj
 0001:00043db0       ??YDName@@QEAAAEAV0@PEAV0@@Z 0000000180044db0 f   libvcruntimed:undname.obj
 0001:00043e90       ??YDName@@QEAAAEAV0@W4DNameStatus@@@Z 0000000180044e90 f   libvcruntimed:undname.obj
 0001:00043f00       ??YReplicator@@QEAAAEAV0@AEBVDName@@@Z 0000000180044f00 f   libvcruntimed:undname.obj
 0001:00043fc0       ??_5DName@@QEAAAEAV0@AEBV0@@Z 0000000180044fc0 f   libvcruntimed:undname.obj
 0001:00044030       ??__K_l@@YA?AUStringLiteral@@PEBD_K@Z 0000000180045030 f i libvcruntimed:undname.obj
 0001:00044080       ?Constructor@_HeapManager@@QEAAXP6APEAX_K@ZP6AXPEAX@Z@Z 0000000180045080 f i libvcruntimed:undname.obj
 0001:000440e0       ?Destructor@_HeapManager@@QEAAXXZ 00000001800450e0 f i libvcruntimed:undname.obj
 0001:00044180       ?UScore@UnDecorator@@SA?AUStringLiteral@@W4Tokens@@@Z 0000000180045180 f   libvcruntimed:undname.obj
 0001:00044210       ?composeDeclaration@UnDecorator@@CA?AVDName@@AEBV2@@Z 0000000180045210 f i libvcruntimed:undname.obj
 0001:00046710       ?dbGetString@DName@@QEBAPEADXZ 0000000180047710 f   libvcruntimed:undname.obj
 0001:00046740       ?doAccessSpecifiers@UnDecorator@@SAHXZ 0000000180047740 f i libvcruntimed:undname.obj
 0001:00046770       ?doAllocationLanguage@UnDecorator@@SAHXZ 0000000180047770 f i libvcruntimed:undname.obj
 0001:000467a0       ?doAllocationModel@UnDecorator@@SAHXZ 00000001800477a0 f i libvcruntimed:undname.obj
 0001:000467d0       ?doEcsu@UnDecorator@@SAHXZ 00000001800477d0 f i libvcruntimed:undname.obj
 0001:00046800       ?doEllipsis@UnDecorator@@SAHXZ 0000000180047800 f i libvcruntimed:undname.obj
 0001:00046830       ?doFunctionReturns@UnDecorator@@SAHXZ 0000000180047830 f i libvcruntimed:undname.obj
 0001:00046860       ?doMSKeywords@UnDecorator@@SAHXZ 0000000180047860 f i libvcruntimed:undname.obj
 0001:00046890       ?doMemberTypes@UnDecorator@@SAHXZ 0000000180047890 f i libvcruntimed:undname.obj
 0001:000468c0       ?doNameOnly@UnDecorator@@SAHXZ 00000001800478c0 f i libvcruntimed:undname.obj
 0001:000468d0       ?doNoIdentCharCheck@UnDecorator@@SAHXZ 00000001800478d0 f i libvcruntimed:undname.obj
 0001:000468e0       ?doPchar@DName@@AEAAXD@Z   00000001800478e0 f   libvcruntimed:undname.obj
 0001:00046970       ?doPtr64@UnDecorator@@SAHXZ 0000000180047970 f i libvcruntimed:undname.obj
 0001:000469a0       ?doRestrictionSpec@UnDecorator@@SAHXZ 00000001800479a0 f i libvcruntimed:undname.obj
 0001:000469d0       ?doThisTypes@UnDecorator@@SAHXZ 00000001800479d0 f i libvcruntimed:undname.obj
 0001:00046a00       ?doThrowTypes@UnDecorator@@SAHXZ 0000000180047a00 f i libvcruntimed:undname.obj
 0001:00046a30       ?doTypeOnly@UnDecorator@@SAHXZ 0000000180047a30 f i libvcruntimed:undname.obj
 0001:00046a40       ?doUnderScore@UnDecorator@@SAHXZ 0000000180047a40 f i libvcruntimed:undname.obj
 0001:00046a70       ?getArgumentList@UnDecorator@@CA?AVDName@@XZ 0000000180047a70 f   libvcruntimed:undname.obj
 0001:00046c10       ?getArgumentTypes@UnDecorator@@CA?AVDName@@XZ 0000000180047c10 f   libvcruntimed:undname.obj
 0001:00046f70       ?getArrayObject@UnDecorator@@CA?AVDName@@XZ 0000000180047f70 f   libvcruntimed:undname.obj
 0001:00047090       ?getArrayType@UnDecorator@@CA?AVDName@@AEBV2@@Z 0000000180048090 f i libvcruntimed:undname.obj
 0001:00047450       ?getBasedType@UnDecorator@@CA?AVDName@@XZ 0000000180048450 f   libvcruntimed:undname.obj
 0001:000475c0       ?getBasicDataType@UnDecorator@@CA?AVDName@@AEBV2@@Z 00000001800485c0 f   libvcruntimed:undname.obj
 0001:00048290       ?getCHPEName@UnDecorator@@QEAAPEADPEADH@Z 0000000180049290 f i libvcruntimed:undname.obj
 0001:00048460       ?getCallIndex@UnDecorator@@CA?AVDName@@XZ 0000000180049460 f i libvcruntimed:undname.obj
 0001:00048480       ?getCallingConvention@UnDecorator@@CA?AVDName@@XZ 0000000180049480 f   libvcruntimed:undname.obj
 0001:00048820       ?getDataIndirectType@UnDecorator@@CA?AVDName@@AEBV2@W4IndirectionKind@@0H@Z 0000000180049820 f   libvcruntimed:undname.obj
 0001:000494c0       ?getDataIndirectType@UnDecorator@@CA?AVDName@@XZ 000000018004a4c0 f i libvcruntimed:undname.obj
 0001:00049510       ?getDataType@UnDecorator@@CA?AVDName@@PEAV2@@Z 000000018004a510 f   libvcruntimed:undname.obj
 0001:000496f0       ?getDecoratedName@UnDecorator@@CA?AVDName@@XZ 000000018004a6f0 f   libvcruntimed:undname.obj
 0001:00049be0       ?getDimension@UnDecorator@@CA?AVDName@@_N@Z 000000018004abe0 f   libvcruntimed:undname.obj
 0001:00049ef0       ?getDispatchTarget@UnDecorator@@CA?AVDName@@XZ 000000018004aef0 f   libvcruntimed:undname.obj
 0001:00049fc0       ?getDisplacement@UnDecorator@@CA?AVDName@@XZ 000000018004afc0 f i libvcruntimed:undname.obj
 0001:00049fe0       ?getECSUDataType@UnDecorator@@CA?AVDName@@XZ 000000018004afe0 f   libvcruntimed:undname.obj
 0001:0004a370       ?getECSUName@UnDecorator@@CA?AVDName@@XZ 000000018004b370 f i libvcruntimed:undname.obj
 0001:0004a390       ?getEnumType@UnDecorator@@CA?AVDName@@XZ 000000018004b390 f i libvcruntimed:undname.obj
 0001:0004a620       ?getExtendedDataIndirectType@UnDecorator@@CA?AVDName@@AEAW4IndirectionKind@@AEA_NH@Z 000000018004b620 f   libvcruntimed:undname.obj
 0001:0004a940       ?getExternalDataType@UnDecorator@@CA?AVDName@@AEBV2@@Z 000000018004b940 f i libvcruntimed:undname.obj
 0001:0004aa20       ?getFloatingPoint@UnDecorator@@CA?AVDName@@H@Z 000000018004ba20 f   libvcruntimed:undname.obj
 0001:0004ac90       ?getFunctionIndirectType@UnDecorator@@CA?AVDName@@AEBV2@@Z 000000018004bc90 f   libvcruntimed:undname.obj
 0001:0004b2c0       ?getGuardNumber@UnDecorator@@CA?AVDName@@XZ 000000018004c2c0 f i libvcruntimed:undname.obj
 0001:0004b2e0       ?getLastChar@DName@@QEBADXZ 000000018004c2e0 f i libvcruntimed:undname.obj
 0001:0004b330       ?getLastChar@DNameStatusNode@@UEBADXZ 000000018004c330 f i libvcruntimed:undname.obj
 0001:0004b370       ?getLastChar@charNode@@UEBADXZ 000000018004c370 f i libvcruntimed:undname.obj
 0001:0004b380       ?getLastChar@pDNameNode@@UEBADXZ 000000018004c380 f i libvcruntimed:undname.obj
 0001:0004b3c0       ?getLastChar@pairNode@@UEBADXZ 000000018004c3c0 f i libvcruntimed:undname.obj
 0001:0004b440       ?getLastChar@pcharNode@@UEBADXZ 000000018004c440 f i libvcruntimed:undname.obj
 0001:0004b480       ?getLexicalFrame@UnDecorator@@CA?AVDName@@XZ 000000018004c480 f i libvcruntimed:undname.obj
 0001:0004b4d0       ?getMemoryWithBuffer@_HeapManager@@QEAAPEAX_K@Z 000000018004c4d0 f   libvcruntimed:undname.obj
 0001:0004b620       ?getMemoryWithoutBuffer@_HeapManager@@QEAAPEAX_K@Z 000000018004c620 f   libvcruntimed:undname.obj
 0001:0004b670       ?getNoexcept@UnDecorator@@CA?AVDName@@XZ 000000018004c670 f   libvcruntimed:undname.obj
 0001:0004b720       ?getNumberOfDimensions@UnDecorator@@CAHXZ 000000018004c720 f   libvcruntimed:undname.obj
 0001:0004b840       ?getOperatorName@UnDecorator@@CA?AVDName@@_NPEA_N@Z 000000018004c840 f i libvcruntimed:undname.obj
 0001:0004c750       ?getPointerType@UnDecorator@@CA?AVDName@@AEBV2@0@Z 000000018004d750 f i libvcruntimed:undname.obj
 0001:0004c790       ?getPointerTypeArray@UnDecorator@@CA?AVDName@@AEBV2@0@Z 000000018004d790 f i libvcruntimed:undname.obj
 0001:0004c7d0       ?getPrimaryDataType@UnDecorator@@CA?AVDName@@AEBV2@@Z 000000018004d7d0 f   libvcruntimed:undname.obj
 0001:0004ce00       ?getPtrRefDataType@UnDecorator@@CA?AVDName@@AEBV2@H@Z 000000018004de00 f   libvcruntimed:undname.obj
 0001:0004d1f0       ?getPtrRefType@UnDecorator@@CA?AVDName@@AEBV2@0W4IndirectionKind@@@Z 000000018004e1f0 f   libvcruntimed:undname.obj
 0001:0004d430       ?getReferenceType@UnDecorator@@CA?AVDName@@AEBV2@0W4IndirectionKind@@@Z 000000018004e430 f i libvcruntimed:undname.obj
 0001:0004d470       ?getRestrictionSpec@UnDecorator@@CA?AVDName@@XZ 000000018004e470 f   libvcruntimed:undname.obj
 0001:0004d700       ?getReturnType@UnDecorator@@CA?AVDName@@PEAV2@@Z 000000018004e700 f   libvcruntimed:undname.obj
 0001:0004d760       ?getScope@UnDecorator@@CA?AVDName@@XZ 000000018004e760 f   libvcruntimed:undname.obj
 0001:0004deb0       ?getScopedName@UnDecorator@@CA?AVDName@@XZ 000000018004eeb0 f   libvcruntimed:undname.obj
 0001:0004e0b0       ?getSignedDimension@UnDecorator@@CA?AVDName@@XZ 000000018004f0b0 f   libvcruntimed:undname.obj
 0001:0004e140       ?getStorageConvention@UnDecorator@@CA?AVDName@@XZ 000000018004f140 f i libvcruntimed:undname.obj
 0001:0004e160       ?getString@DName@@QEBAPEADPEAD0@Z 000000018004f160 f i libvcruntimed:undname.obj
 0001:0004e1e0       ?getString@DName@@QEBAPEADPEADH@Z 000000018004f1e0 f i libvcruntimed:undname.obj
 0001:0004e2a0       ?getString@DNameStatusNode@@UEBAPEADPEAD0@Z 000000018004f2a0 f i libvcruntimed:undname.obj
 0001:0004e2f0       ?getString@charNode@@UEBAPEADPEAD0@Z 000000018004f2f0 f i libvcruntimed:undname.obj
 0001:0004e330       ?getString@pDNameNode@@UEBAPEADPEAD0@Z 000000018004f330 f i libvcruntimed:undname.obj
 0001:0004e390       ?getString@pairNode@@UEBAPEADPEAD0@Z 000000018004f390 f i libvcruntimed:undname.obj
 0001:0004e460       ?getString@pcharNode@@UEBAPEADPEAD0@Z 000000018004f460 f i libvcruntimed:undname.obj
 0001:0004e4a0       ?getStringEncoding@UnDecorator@@CA?AVDName@@W4PrefixKind@@H@Z 000000018004f4a0 f   libvcruntimed:undname.obj
 0001:0004e600       ?getStringHelper@@YAPEADPEADPEBD1H@Z 000000018004f600 f i libvcruntimed:undname.obj
 0001:0004e670       ?getStringObject@UnDecorator@@CA?AVDName@@XZ 000000018004f670 f   libvcruntimed:undname.obj
 0001:0004e750       ?getSymbolName@UnDecorator@@CA?AVDName@@XZ 000000018004f750 f i libvcruntimed:undname.obj
 0001:0004e7f0       ?getTemplateArgumentList@UnDecorator@@CA?AVDName@@XZ 000000018004f7f0 f   libvcruntimed:undname.obj
 0001:0004eb30       ?getTemplateName@UnDecorator@@CA?AVDName@@_N@Z 000000018004fb30 f   libvcruntimed:undname.obj
 0001:0004ed70       ?getTemplateNonTypeArgument@UnDecorator@@CA?AVDName@@XZ 000000018004fd70 f   libvcruntimed:undname.obj
 0001:0004f490       ?getTemplateTypeArgument@UnDecorator@@CA?AVDName@@XZ 0000000180050490 f   libvcruntimed:undname.obj
 0001:0004f700       ?getThisType@UnDecorator@@CA?AVDName@@XZ 0000000180050700 f i libvcruntimed:undname.obj
 0001:0004f750       ?getThrowTypes@UnDecorator@@CA?AVDName@@XZ 0000000180050750 f   libvcruntimed:undname.obj
 0001:0004f7a0       ?getTypeEncoding@UnDecorator@@CAHXZ 00000001800507a0 f i libvcruntimed:undname.obj
 0001:000503d0       ?getUndecoratedName@UnDecorator@@QEAAPEADPEADH@Z 00000001800513d0 f i libvcruntimed:undname.obj
 0001:000505c0       ?getVCallThunkType@UnDecorator@@CA?AVDName@@XZ 00000001800515c0 f i libvcruntimed:undname.obj
 0001:00050670       ?getValue@UnDecorator@@CA?AV?$optional@_K@std@@XZ 0000000180051670 f   libvcruntimed:undname.obj
 0001:00050740       ?getValueObject@UnDecorator@@CA?AVDName@@XZ 0000000180051740 f   libvcruntimed:undname.obj
 0001:00050930       ?getVbTableType@UnDecorator@@CA?AVDName@@AEBV2@@Z 0000000180051930 f i libvcruntimed:undname.obj
 0001:00050960       ?getVdispMapType@UnDecorator@@CA?AVDName@@AEBV2@@Z 0000000180051960 f i libvcruntimed:undname.obj
 0001:00050a20       ?getVfTableType@UnDecorator@@CA?AVDName@@AEBV2@@Z 0000000180051a20 f i libvcruntimed:undname.obj
 0001:00050cc0       ?getZName@UnDecorator@@CA?AVDName@@_N0@Z 0000000180051cc0 f   libvcruntimed:undname.obj
 0001:00051150       ?haveTemplateParameters@UnDecorator@@SAHXZ 0000000180052150 f i libvcruntimed:undname.obj
 0001:00051160       ?isArray@DName@@QEBAHXZ    0000000180052160 f i libvcruntimed:undname.obj
 0001:00051180       ?isComArray@DName@@QEBAHXZ 0000000180052180 f i libvcruntimed:undname.obj
 0001:000511a0       ?isEmpty@DName@@QEBAHXZ    00000001800521a0 f i libvcruntimed:undname.obj
 0001:000511d0       ?isFull@Replicator@@QEBAHXZ 00000001800521d0 f i libvcruntimed:undname.obj
 0001:00051200       ?isNoTE@DName@@QEBAHXZ     0000000180052200 f i libvcruntimed:undname.obj
 0001:00051220       ?isPinPtr@DName@@QEBAHXZ   0000000180052220 f i libvcruntimed:undname.obj
 0001:00051240       ?isPtrRef@DName@@QEBAHXZ   0000000180052240 f i libvcruntimed:undname.obj
 0001:00051260       ?isUDC@DName@@QEBAHXZ      0000000180052260 f i libvcruntimed:undname.obj
 0001:000512b0       ?isUDTThunk@DName@@QEBAHXZ 00000001800522b0 f i libvcruntimed:undname.obj
 0001:00051300       ?isVCallThunk@DName@@QEBAHXZ 0000000180052300 f i libvcruntimed:undname.obj
 0001:00051320       ?isValid@DName@@QEBAHXZ    0000000180052320 f i libvcruntimed:undname.obj
 0001:00051360       ?length@DName@@QEBAHXZ     0000000180052360 f i libvcruntimed:undname.obj
 0001:000513b0       ?length@DNameStatusNode@@UEBAHXZ 00000001800523b0 f i libvcruntimed:undname.obj
 0001:000513c0       ?length@charNode@@UEBAHXZ  00000001800523c0 f i libvcruntimed:undname.obj
 0001:000513d0       ?length@pDNameNode@@UEBAHXZ 00000001800523d0 f i libvcruntimed:undname.obj
 0001:00051410       ?length@pairNode@@UEBAHXZ  0000000180052410 f i libvcruntimed:undname.obj
 0001:000514a0       ?length@pcharNode@@UEBAHXZ 00000001800524a0 f i libvcruntimed:undname.obj
 0001:000514b0       ?make@DNameStatusNode@@SAPEBV1@W4DNameStatus@@@Z 00000001800524b0 f i libvcruntimed:undname.obj
 0001:00051500       ?parseDecoratedName@UnDecorator@@CA?AVDName@@XZ 0000000180052500 f   libvcruntimed:undname.obj
 0001:000516f0       ?raw_length@DNameStatusNode@@UEBAHXZ 00000001800526f0 f i libvcruntimed:undname.obj
 0001:00051710       ?raw_length@charNode@@UEBAHXZ 0000000180052710 f i libvcruntimed:undname.obj
 0001:00051730       ?raw_length@pDNameNode@@UEBAHXZ 0000000180052730 f i libvcruntimed:undname.obj
 0001:00051740       ?raw_length@pairNode@@UEBAHXZ 0000000180052740 f i libvcruntimed:undname.obj
 0001:00051750       ?raw_length@pcharNode@@UEBAHXZ 0000000180052750 f i libvcruntimed:undname.obj
 0001:00051770       ?setIsArray@DName@@QEAAXXZ 0000000180052770 f i libvcruntimed:undname.obj
 0001:00051790       ?setIsComArray@DName@@QEAAXXZ 0000000180052790 f i libvcruntimed:undname.obj
 0001:000517b0       ?setIsNoTE@DName@@QEAAXXZ  00000001800527b0 f i libvcruntimed:undname.obj
 0001:000517d0       ?setIsPinPtr@DName@@QEAAXXZ 00000001800527d0 f i libvcruntimed:undname.obj
 0001:000517f0       ?setIsUDC@DName@@QEAAXXZ   00000001800527f0 f i libvcruntimed:undname.obj
 0001:00051820       ?setIsVCallThunk@DName@@QEAAXXZ 0000000180052820 f i libvcruntimed:undname.obj
 0001:00051840       ?setPtrRef@DName@@QEAAAEAV1@XZ 0000000180052840 f i libvcruntimed:undname.obj
 0001:00051860       ?status@DName@@QEBA?AW4DNameStatus@@XZ 0000000180052860 f i libvcruntimed:undname.obj
 0001:00051990       __unDName                  0000000180052990 f   libvcruntimed:undname.obj
 0001:000519f0       __unDNameEx                00000001800529f0 f   libvcruntimed:undname.obj
 0001:00051ab0       unDNameGenerateCHPE        0000000180052ab0 f   libvcruntimed:undname.obj
 0001:00051b60       ??$__crt_interlocked_exchange_pointer@UHINSTANCE__@@PEAU1@@@YAPEAUHINSTANCE__@@PEDSEAU0@QEAU0@@Z 0000000180052b60 f i libvcruntimed:winapi_downlevel.obj
 0001:00051b80       ??$__crt_interlocked_exchange_pointer@UHINSTANCE__@@PEAX@@YAPEAUHINSTANCE__@@PEDSEAU0@QEAX@Z 0000000180052b80 f i libvcruntimed:winapi_downlevel.obj
 0001:00051ba0       ??$__crt_interlocked_exchange_pointer@XPEAX@@YAPEAXPEDSEAXQEAX@Z 0000000180052ba0 f i libvcruntimed:winapi_downlevel.obj
 0001:00051bc0       ??$__crt_interlocked_read_pointer@UHINSTANCE__@@@@YAPEAUHINSTANCE__@@PEDSEAU0@@Z 0000000180052bc0 f i libvcruntimed:winapi_downlevel.obj
 0001:00051be0       ??$__crt_interlocked_read_pointer@X@@YAPEAXPEDSEAX@Z 0000000180052be0 f i libvcruntimed:winapi_downlevel.obj
 0001:000520f0       __vcrt_FlsAlloc            00000001800530f0 f   libvcruntimed:winapi_downlevel.obj
 0001:00052140       __vcrt_FlsFree             0000000180053140 f   libvcruntimed:winapi_downlevel.obj
 0001:00052190       __vcrt_FlsGetValue         0000000180053190 f   libvcruntimed:winapi_downlevel.obj
 0001:000521e0       __vcrt_FlsSetValue         00000001800531e0 f   libvcruntimed:winapi_downlevel.obj
 0001:00052240       __vcrt_InitializeCriticalSectionEx 0000000180053240 f   libvcruntimed:winapi_downlevel.obj
 0001:000522c0       _CallSettingFrame          00000001800532c0 f   libvcruntimed:handlers.obj
 0001:00052310       _CallSettingFrame_LookupContinuationIndex 0000000180053310 f   libvcruntimed:handlers.obj
 0001:00052340       _CallSettingFrame_NotifyContinuationAddr 0000000180053340 f   libvcruntimed:handlers.obj
 0001:00052370       _CallSettingFrameEncoded   0000000180053370 f   libvcruntimed:handlers.obj
 0001:000523c0       ??$?0AEBV?$stream_output_adapter@D@__crt_stdio_output@@AEB_KAEBQEBDAEBQEAU__crt_locale_pointers@@AEBQEAD@?$format_validation_base@DV?$stream_output_adapter@D@__crt_stdio_output@@@__crt_stdio_output@@IEAA@AEBV?$stream_output_adapter@D@1@AEB_KAEBQEBDAEBQEAU__crt_locale_pointers@@AEBQEAD@Z 00000001800533c0 f i libucrtd:output.obj
 0001:00052410       ??$?0AEBV?$stream_output_adapter@D@__crt_stdio_output@@AEB_KAEBQEBDAEBQEAU__crt_locale_pointers@@AEBQEAD@?$positional_parameter_base@DV?$stream_output_adapter@D@__crt_stdio_output@@@__crt_stdio_output@@IEAA@AEBV?$stream_output_adapter@D@1@AEB_KAEBQEBDAEBQEAU__crt_locale_pointers@@AEBQEAD@Z 0000000180053410 f i libucrtd:output.obj
 0001:000524b0       ??$?0AEBV?$stream_output_adapter@D@__crt_stdio_output@@AEB_KAEBQEBDAEBQEAU__crt_locale_pointers@@AEBQEAD@?$standard_base@DV?$stream_output_adapter@D@__crt_stdio_output@@@__crt_stdio_output@@IEAA@AEBV?$stream_output_adapter@D@1@AEB_KAEBQEBDAEBQEAU__crt_locale_pointers@@AEBQEAD@Z 00000001800534b0 f i libucrtd:output.obj
 0001:00052520       ??$?0AEBV?$stream_output_adapter@_W@__crt_stdio_output@@AEB_KAEBQEB_WAEBQEAU__crt_locale_pointers@@AEBQEAD@?$format_validation_base@_WV?$stream_output_adapter@_W@__crt_stdio_output@@@__crt_stdio_output@@IEAA@AEBV?$stream_output_adapter@_W@1@AEB_KAEBQEB_WAEBQEAU__crt_locale_pointers@@AEBQEAD@Z 0000000180053520 f i libucrtd:output.obj
 0001:00052570       ??$?0AEBV?$stream_output_adapter@_W@__crt_stdio_output@@AEB_KAEBQEB_WAEBQEAU__crt_locale_pointers@@AEBQEAD@?$positional_parameter_base@_WV?$stream_output_adapter@_W@__crt_stdio_output@@@__crt_stdio_output@@IEAA@AEBV?$stream_output_adapter@_W@1@AEB_KAEBQEB_WAEBQEAU__crt_locale_pointers@@AEBQEAD@Z 0000000180053570 f i libucrtd:output.obj
 0001:00052610       ??$?0AEBV?$stream_output_adapter@_W@__crt_stdio_output@@AEB_KAEBQEB_WAEBQEAU__crt_locale_pointers@@AEBQEAD@?$standard_base@_WV?$stream_output_adapter@_W@__crt_stdio_output@@@__crt_stdio_output@@IEAA@AEBV?$stream_output_adapter@_W@1@AEB_KAEBQEB_WAEBQEAU__crt_locale_pointers@@AEBQEAD@Z 0000000180053610 f i libucrtd:output.obj
 0001:00052680       ??$?0AEBV?$string_output_adapter@D@__crt_stdio_output@@AEB_KAEBQEBDAEBQEAU__crt_locale_pointers@@AEBQEAD@?$format_validation_base@DV?$string_output_adapter@D@__crt_stdio_output@@@__crt_stdio_output@@IEAA@AEBV?$string_output_adapter@D@1@AEB_KAEBQEBDAEBQEAU__crt_locale_pointers@@AEBQEAD@Z 0000000180053680 f i libucrtd:output.obj
 0001:000526d0       ??$?0AEBV?$string_output_adapter@D@__crt_stdio_output@@AEB_KAEBQEBDAEBQEAU__crt_locale_pointers@@AEBQEAD@?$positional_parameter_base@DV?$string_output_adapter@D@__crt_stdio_output@@@__crt_stdio_output@@IEAA@AEBV?$string_output_adapter@D@1@AEB_KAEBQEBDAEBQEAU__crt_locale_pointers@@AEBQEAD@Z 00000001800536d0 f i libucrtd:output.obj
 0001:00052770       ??$?0AEBV?$string_output_adapter@D@__crt_stdio_output@@AEB_KAEBQEBDAEBQEAU__crt_locale_pointers@@AEBQEAD@?$standard_base@DV?$string_output_adapter@D@__crt_stdio_output@@@__crt_stdio_output@@IEAA@AEBV?$string_output_adapter@D@1@AEB_KAEBQEBDAEBQEAU__crt_locale_pointers@@AEBQEAD@Z 0000000180053770 f i libucrtd:output.obj
 0001:000527e0       ??$?0AEBV?$string_output_adapter@_W@__crt_stdio_output@@AEB_KAEBQEB_WAEBQEAU__crt_locale_pointers@@AEBQEAD@?$format_validation_base@_WV?$string_output_adapter@_W@__crt_stdio_output@@@__crt_stdio_output@@IEAA@AEBV?$string_output_adapter@_W@1@AEB_KAEBQEB_WAEBQEAU__crt_locale_pointers@@AEBQEAD@Z 00000001800537e0 f i libucrtd:output.obj
 0001:00052830       ??$?0AEBV?$string_output_adapter@_W@__crt_stdio_output@@AEB_KAEBQEB_WAEBQEAU__crt_locale_pointers@@AEBQEAD@?$positional_parameter_base@_WV?$string_output_adapter@_W@__crt_stdio_output@@@__crt_stdio_output@@IEAA@AEBV?$string_output_adapter@_W@1@AEB_KAEBQEB_WAEBQEAU__crt_locale_pointers@@AEBQEAD@Z 0000000180053830 f i libucrtd:output.obj
 0001:000528d0       ??$?0AEBV?$string_output_adapter@_W@__crt_stdio_output@@AEB_KAEBQEB_WAEBQEAU__crt_locale_pointers@@AEBQEAD@?$standard_base@_WV?$string_output_adapter@_W@__crt_stdio_output@@@__crt_stdio_output@@IEAA@AEBV?$string_output_adapter@_W@1@AEB_KAEBQEB_WAEBQEAU__crt_locale_pointers@@AEBQEAD@Z 00000001800538d0 f i libucrtd:output.obj
 0001:00052d00       ??$__crt_interlocked_read@J@@YAJPEDJ@Z 0000000180053d00 f i libucrtd:output.obj
 0001:000567e0       ??$count@D@formatting_buffer@__crt_stdio_output@@QEBA_KXZ 00000001800577e0 f i libucrtd:output.obj
 0001:00056830       ??$count@_W@formatting_buffer@__crt_stdio_output@@QEBA_KXZ 0000000180057830 f i libucrtd:output.obj
 0001:00056880       ??$data@D@formatting_buffer@__crt_stdio_output@@QEAAPEADXZ 0000000180057880 f i libucrtd:output.obj
 0001:000568d0       ??$data@_W@formatting_buffer@__crt_stdio_output@@QEAAPEA_WXZ 00000001800578d0 f i libucrtd:output.obj
 0001:00056920       ??$ensure_buffer_is_big_enough@D@formatting_buffer@__crt_stdio_output@@QEAA_N_K@Z 0000000180057920 f i libucrtd:output.obj
 0001:00056a50       ??$ensure_buffer_is_big_enough@_W@formatting_buffer@__crt_stdio_output@@QEAA_N_K@Z 0000000180057a50 f i libucrtd:output.obj
 0001:00056b80       ??$extract_argument_from_va_list@C_J@?$positional_parameter_base@DV?$stream_output_adapter@D@__crt_stdio_output@@@__crt_stdio_output@@IEAA_NAEA_J@Z 0000000180057b80 f i libucrtd:output.obj
 0001:00056d00       ??$extract_argument_from_va_list@C_J@?$positional_parameter_base@DV?$string_output_adapter@D@__crt_stdio_output@@@__crt_stdio_output@@IEAA_NAEA_J@Z 0000000180057d00 f i libucrtd:output.obj
 0001:00056e80       ??$extract_argument_from_va_list@C_J@?$positional_parameter_base@_WV?$stream_output_adapter@_W@__crt_stdio_output@@@__crt_stdio_output@@IEAA_NAEA_J@Z 0000000180057e80 f i libucrtd:output.obj
 0001:00057000       ??$extract_argument_from_va_list@C_J@?$positional_parameter_base@_WV?$string_output_adapter@_W@__crt_stdio_output@@@__crt_stdio_output@@IEAA_NAEA_J@Z 0000000180058000 f i libucrtd:output.obj
 0001:00057180       ??$extract_argument_from_va_list@C_J@?$standard_base@DV?$stream_output_adapter@D@__crt_stdio_output@@@__crt_stdio_output@@IEAA_NAEA_J@Z 0000000180058180 f i libucrtd:output.obj
 0001:000571c0       ??$extract_argument_from_va_list@C_J@?$standard_base@DV?$string_output_adapter@D@__crt_stdio_output@@@__crt_stdio_output@@IEAA_NAEA_J@Z 00000001800581c0 f i libucrtd:output.obj
 0001:00057200       ??$extract_argument_from_va_list@C_J@?$standard_base@_WV?$stream_output_adapter@_W@__crt_stdio_output@@@__crt_stdio_output@@IEAA_NAEA_J@Z 0000000180058200 f i libucrtd:output.obj
 0001:00057240       ??$extract_argument_from_va_list@C_J@?$standard_base@_WV?$string_output_adapter@_W@__crt_stdio_output@@@__crt_stdio_output@@IEAA_NAEA_J@Z 0000000180058240 f i libucrtd:output.obj
 0001:00057280       ??$extract_argument_from_va_list@E_J@?$positional_parameter_base@DV?$stream_output_adapter@D@__crt_stdio_output@@@__crt_stdio_output@@IEAA_NAEA_J@Z 0000000180058280 f i libucrtd:output.obj
 0001:00057400       ??$extract_argument_from_va_list@E_J@?$positional_parameter_base@DV?$string_output_adapter@D@__crt_stdio_output@@@__crt_stdio_output@@IEAA_NAEA_J@Z 0000000180058400 f i libucrtd:output.obj
 0001:00057580       ??$extract_argument_from_va_list@E_J@?$positional_parameter_base@_WV?$stream_output_adapter@_W@__crt_stdio_output@@@__crt_stdio_output@@IEAA_NAEA_J@Z 0000000180058580 f i libucrtd:output.obj
 0001:00057700       ??$extract_argument_from_va_list@E_J@?$positional_parameter_base@_WV?$string_output_adapter@_W@__crt_stdio_output@@@__crt_stdio_output@@IEAA_NAEA_J@Z 0000000180058700 f i libucrtd:output.obj
 0001:00057880       ??$extract_argument_from_va_list@E_J@?$standard_base@DV?$stream_output_adapter@D@__crt_stdio_output@@@__crt_stdio_output@@IEAA_NAEA_J@Z 0000000180058880 f i libucrtd:output.obj
 0001:000578c0       ??$extract_argument_from_va_list@E_J@?$standard_base@DV?$string_output_adapter@D@__crt_stdio_output@@@__crt_stdio_output@@IEAA_NAEA_J@Z 00000001800588c0 f i libucrtd:output.obj
 0001:00057900       ??$extract_argument_from_va_list@E_J@?$standard_base@_WV?$stream_output_adapter@_W@__crt_stdio_output@@@__crt_stdio_output@@IEAA_NAEA_J@Z 0000000180058900 f i libucrtd:output.obj
 0001:00057940       ??$extract_argument_from_va_list@E_J@?$standard_base@_WV?$string_output_adapter@_W@__crt_stdio_output@@@__crt_stdio_output@@IEAA_NAEA_J@Z 0000000180058940 f i libucrtd:output.obj
 0001:00057980       ??$extract_argument_from_va_list@F_J@?$positional_parameter_base@DV?$stream_output_adapter@D@__crt_stdio_output@@@__crt_stdio_output@@IEAA_NAEA_J@Z 0000000180058980 f i libucrtd:output.obj
 0001:00057b00       ??$extract_argument_from_va_list@F_J@?$positional_parameter_base@DV?$string_output_adapter@D@__crt_stdio_output@@@__crt_stdio_output@@IEAA_NAEA_J@Z 0000000180058b00 f i libucrtd:output.obj
 0001:00057c80       ??$extract_argument_from_va_list@F_J@?$positional_parameter_base@_WV?$stream_output_adapter@_W@__crt_stdio_output@@@__crt_stdio_output@@IEAA_NAEA_J@Z 0000000180058c80 f i libucrtd:output.obj
 0001:00057e00       ??$extract_argument_from_va_list@F_J@?$positional_parameter_base@_WV?$string_output_adapter@_W@__crt_stdio_output@@@__crt_stdio_output@@IEAA_NAEA_J@Z 0000000180058e00 f i libucrtd:output.obj
 0001:00057f80       ??$extract_argument_from_va_list@F_J@?$standard_base@DV?$stream_output_adapter@D@__crt_stdio_output@@@__crt_stdio_output@@IEAA_NAEA_J@Z 0000000180058f80 f i libucrtd:output.obj
 0001:00057fc0       ??$extract_argument_from_va_list@F_J@?$standard_base@DV?$string_output_adapter@D@__crt_stdio_output@@@__crt_stdio_output@@IEAA_NAEA_J@Z 0000000180058fc0 f i libucrtd:output.obj
 0001:00058000       ??$extract_argument_from_va_list@F_J@?$standard_base@_WV?$stream_output_adapter@_W@__crt_stdio_output@@@__crt_stdio_output@@IEAA_NAEA_J@Z 0000000180059000 f i libucrtd:output.obj
 0001:00058040       ??$extract_argument_from_va_list@F_J@?$standard_base@_WV?$string_output_adapter@_W@__crt_stdio_output@@@__crt_stdio_output@@IEAA_NAEA_J@Z 0000000180059040 f i libucrtd:output.obj
 0001:00058080       ??$extract_argument_from_va_list@GD@?$positional_parameter_base@DV?$stream_output_adapter@D@__crt_stdio_output@@@__crt_stdio_output@@IEAA_NAEAD@Z 0000000180059080 f i libucrtd:output.obj
 0001:00058200       ??$extract_argument_from_va_list@GD@?$positional_parameter_base@DV?$string_output_adapter@D@__crt_stdio_output@@@__crt_stdio_output@@IEAA_NAEAD@Z 0000000180059200 f i libucrtd:output.obj
 0001:00058380       ??$extract_argument_from_va_list@GD@?$standard_base@DV?$stream_output_adapter@D@__crt_stdio_output@@@__crt_stdio_output@@IEAA_NAEAD@Z 0000000180059380 f i libucrtd:output.obj
 0001:000583b0       ??$extract_argument_from_va_list@GD@?$standard_base@DV?$string_output_adapter@D@__crt_stdio_output@@@__crt_stdio_output@@IEAA_NAEAD@Z 00000001800593b0 f i libucrtd:output.obj
 0001:000583e0       ??$extract_argument_from_va_list@G_J@?$positional_parameter_base@DV?$stream_output_adapter@D@__crt_stdio_output@@@__crt_stdio_output@@IEAA_NAEA_J@Z 00000001800593e0 f i libucrtd:output.obj
 0001:00058560       ??$extract_argument_from_va_list@G_J@?$positional_parameter_base@DV?$string_output_adapter@D@__crt_stdio_output@@@__crt_stdio_output@@IEAA_NAEA_J@Z 0000000180059560 f i libucrtd:output.obj
 0001:000586e0       ??$extract_argument_from_va_list@G_J@?$positional_parameter_base@_WV?$stream_output_adapter@_W@__crt_stdio_output@@@__crt_stdio_output@@IEAA_NAEA_J@Z 00000001800596e0 f i libucrtd:output.obj
 0001:00058860       ??$extract_argument_from_va_list@G_J@?$positional_parameter_base@_WV?$string_output_adapter@_W@__crt_stdio_output@@@__crt_stdio_output@@IEAA_NAEA_J@Z 0000000180059860 f i libucrtd:output.obj
 0001:000589e0       ??$extract_argument_from_va_list@G_J@?$standard_base@DV?$stream_output_adapter@D@__crt_stdio_output@@@__crt_stdio_output@@IEAA_NAEA_J@Z 00000001800599e0 f i libucrtd:output.obj
 0001:00058a20       ??$extract_argument_from_va_list@G_J@?$standard_base@DV?$string_output_adapter@D@__crt_stdio_output@@@__crt_stdio_output@@IEAA_NAEA_J@Z 0000000180059a20 f i libucrtd:output.obj
 0001:00058a60       ??$extract_argument_from_va_list@G_J@?$standard_base@_WV?$stream_output_adapter@_W@__crt_stdio_output@@@__crt_stdio_output@@IEAA_NAEA_J@Z 0000000180059a60 f i libucrtd:output.obj
 0001:00058aa0       ??$extract_argument_from_va_list@G_J@?$standard_base@_WV?$string_output_adapter@_W@__crt_stdio_output@@@__crt_stdio_output@@IEAA_NAEA_J@Z 0000000180059aa0 f i libucrtd:output.obj
 0001:00058ae0       ??$extract_argument_from_va_list@H_J@?$positional_parameter_base@DV?$stream_output_adapter@D@__crt_stdio_output@@@__crt_stdio_output@@IEAA_NAEA_J@Z 0000000180059ae0 f i libucrtd:output.obj
 0001:00058c60       ??$extract_argument_from_va_list@H_J@?$positional_parameter_base@DV?$string_output_adapter@D@__crt_stdio_output@@@__crt_stdio_output@@IEAA_NAEA_J@Z 0000000180059c60 f i libucrtd:output.obj
 0001:00058de0       ??$extract_argument_from_va_list@H_J@?$positional_parameter_base@_WV?$stream_output_adapter@_W@__crt_stdio_output@@@__crt_stdio_output@@IEAA_NAEA_J@Z 0000000180059de0 f i libucrtd:output.obj
 0001:00058f60       ??$extract_argument_from_va_list@H_J@?$positional_parameter_base@_WV?$string_output_adapter@_W@__crt_stdio_output@@@__crt_stdio_output@@IEAA_NAEA_J@Z 0000000180059f60 f i libucrtd:output.obj
 0001:000590e0       ??$extract_argument_from_va_list@H_J@?$standard_base@DV?$stream_output_adapter@D@__crt_stdio_output@@@__crt_stdio_output@@IEAA_NAEA_J@Z 000000018005a0e0 f i libucrtd:output.obj
 0001:00059110       ??$extract_argument_from_va_list@H_J@?$standard_base@DV?$string_output_adapter@D@__crt_stdio_output@@@__crt_stdio_output@@IEAA_NAEA_J@Z 000000018005a110 f i libucrtd:output.obj
 0001:00059140       ??$extract_argument_from_va_list@H_J@?$standard_base@_WV?$stream_output_adapter@_W@__crt_stdio_output@@@__crt_stdio_output@@IEAA_NAEA_J@Z 000000018005a140 f i libucrtd:output.obj
 0001:00059170       ??$extract_argument_from_va_list@H_J@?$standard_base@_WV?$string_output_adapter@_W@__crt_stdio_output@@@__crt_stdio_output@@IEAA_NAEA_J@Z 000000018005a170 f i libucrtd:output.obj
 0001:000591a0       ??$extract_argument_from_va_list@I_J@?$positional_parameter_base@DV?$stream_output_adapter@D@__crt_stdio_output@@@__crt_stdio_output@@IEAA_NAEA_J@Z 000000018005a1a0 f i libucrtd:output.obj
 0001:00059320       ??$extract_argument_from_va_list@I_J@?$positional_parameter_base@DV?$string_output_adapter@D@__crt_stdio_output@@@__crt_stdio_output@@IEAA_NAEA_J@Z 000000018005a320 f i libucrtd:output.obj
 0001:000594a0       ??$extract_argument_from_va_list@I_J@?$positional_parameter_base@_WV?$stream_output_adapter@_W@__crt_stdio_output@@@__crt_stdio_output@@IEAA_NAEA_J@Z 000000018005a4a0 f i libucrtd:output.obj
 0001:00059620       ??$extract_argument_from_va_list@I_J@?$positional_parameter_base@_WV?$string_output_adapter@_W@__crt_stdio_output@@@__crt_stdio_output@@IEAA_NAEA_J@Z 000000018005a620 f i libucrtd:output.obj
 0001:000597a0       ??$extract_argument_from_va_list@I_J@?$standard_base@DV?$stream_output_adapter@D@__crt_stdio_output@@@__crt_stdio_output@@IEAA_NAEA_J@Z 000000018005a7a0 f i libucrtd:output.obj
 0001:000597d0       ??$extract_argument_from_va_list@I_J@?$standard_base@DV?$string_output_adapter@D@__crt_stdio_output@@@__crt_stdio_output@@IEAA_NAEA_J@Z 000000018005a7d0 f i libucrtd:output.obj
 0001:00059800       ??$extract_argument_from_va_list@I_J@?$standard_base@_WV?$stream_output_adapter@_W@__crt_stdio_output@@@__crt_stdio_output@@IEAA_NAEA_J@Z 000000018005a800 f i libucrtd:output.obj
 0001:00059830       ??$extract_argument_from_va_list@I_J@?$standard_base@_WV?$string_output_adapter@_W@__crt_stdio_output@@@__crt_stdio_output@@IEAA_NAEA_J@Z 000000018005a830 f i libucrtd:output.obj
 0001:00059860       ??$extract_argument_from_va_list@PEADPEAD@?$positional_parameter_base@DV?$stream_output_adapter@D@__crt_stdio_output@@@__crt_stdio_output@@IEAA_NAEAPEAD@Z 000000018005a860 f i libucrtd:output.obj
 0001:000599e0       ??$extract_argument_from_va_list@PEADPEAD@?$positional_parameter_base@DV?$string_output_adapter@D@__crt_stdio_output@@@__crt_stdio_output@@IEAA_NAEAPEAD@Z 000000018005a9e0 f i libucrtd:output.obj
 0001:00059b60       ??$extract_argument_from_va_list@PEADPEAD@?$positional_parameter_base@_WV?$stream_output_adapter@_W@__crt_stdio_output@@@__crt_stdio_output@@IEAA_NAEAPEAD@Z 000000018005ab60 f i libucrtd:output.obj
 0001:00059ce0       ??$extract_argument_from_va_list@PEADPEAD@?$positional_parameter_base@_WV?$string_output_adapter@_W@__crt_stdio_output@@@__crt_stdio_output@@IEAA_NAEAPEAD@Z 000000018005ace0 f i libucrtd:output.obj
 0001:00059e60       ??$extract_argument_from_va_list@PEADPEAD@?$standard_base@DV?$stream_output_adapter@D@__crt_stdio_output@@@__crt_stdio_output@@IEAA_NAEAPEAD@Z 000000018005ae60 f i libucrtd:output.obj
 0001:00059e90       ??$extract_argument_from_va_list@PEADPEAD@?$standard_base@DV?$string_output_adapter@D@__crt_stdio_output@@@__crt_stdio_output@@IEAA_NAEAPEAD@Z 000000018005ae90 f i libucrtd:output.obj
 0001:00059ec0       ??$extract_argument_from_va_list@PEADPEAD@?$standard_base@_WV?$stream_output_adapter@_W@__crt_stdio_output@@@__crt_stdio_output@@IEAA_NAEAPEAD@Z 000000018005aec0 f i libucrtd:output.obj
 0001:00059ef0       ??$extract_argument_from_va_list@PEADPEAD@?$standard_base@_WV?$string_output_adapter@_W@__crt_stdio_output@@@__crt_stdio_output@@IEAA_NAEAPEAD@Z 000000018005aef0 f i libucrtd:output.obj
 0001:00059f20       ??$extract_argument_from_va_list@PEAUansi_string@?1??type_case_Z@?$output_processor@DV?$stream_output_adapter@D@__crt_stdio_output@@V?$format_validation_base@DV?$stream_output_adapter@D@__crt_stdio_output@@@2@@__crt_stdio_output@@AEAA_NXZ@PEAU1?1??234@AEAA_NXZ@@?$standard_base@DV?$stream_output_adapter@D@__crt_stdio_output@@@__crt_stdio_output@@IEAA_NAEAPEAUansi_string@?1??type_case_Z@?$output_processor@DV?$stream_output_adapter@D@__crt_stdio_output@@V?$format_validation_base@DV?$stream_output_adapter@D@__crt_stdio_output@@@2@@1@AEAA_NXZ@@Z 000000018005af20 f i libucrtd:output.obj
 0001:00059f50       ??$extract_argument_from_va_list@PEAUansi_string@?1??type_case_Z@?$output_processor@DV?$stream_output_adapter@D@__crt_stdio_output@@V?$positional_parameter_base@DV?$stream_output_adapter@D@__crt_stdio_output@@@2@@__crt_stdio_output@@AEAA_NXZ@PEAU1?1??234@AEAA_NXZ@@?$positional_parameter_base@DV?$stream_output_adapter@D@__crt_stdio_output@@@__crt_stdio_output@@IEAA_NAEAPEAUansi_string@?1??type_case_Z@?$output_processor@DV?$stream_output_adapter@D@__crt_stdio_output@@V?$positional_parameter_base@DV?$stream_output_adapter@D@__crt_stdio_output@@@2@@1@AEAA_NXZ@@Z 000000018005af50 f i libucrtd:output.obj
 0001:0005a0d0       ??$extract_argument_from_va_list@PEAUansi_string@?1??type_case_Z@?$output_processor@DV?$stream_output_adapter@D@__crt_stdio_output@@V?$positional_parameter_base@DV?$stream_output_adapter@D@__crt_stdio_output@@@2@@__crt_stdio_output@@AEAA_NXZ@PEAU1?1??234@AEAA_NXZ@@?$standard_base@DV?$stream_output_adapter@D@__crt_stdio_output@@@__crt_stdio_output@@IEAA_NAEAPEAUansi_string@?1??type_case_Z@?$output_processor@DV?$stream_output_adapter@D@__crt_stdio_output@@V?$positional_parameter_base@DV?$stream_output_adapter@D@__crt_stdio_output@@@2@@1@AEAA_NXZ@@Z 000000018005b0d0 f i libucrtd:output.obj
 0001:0005a100       ??$extract_argument_from_va_list@PEAUansi_string@?1??type_case_Z@?$output_processor@DV?$stream_output_adapter@D@__crt_stdio_output@@V?$standard_base@DV?$stream_output_adapter@D@__crt_stdio_output@@@2@@__crt_stdio_output@@AEAA_NXZ@PEAU1?1??234@AEAA_NXZ@@?$standard_base@DV?$stream_output_adapter@D@__crt_stdio_output@@@__crt_stdio_output@@IEAA_NAEAPEAUansi_string@?1??type_case_Z@?$output_processor@DV?$stream_output_adapter@D@__crt_stdio_output@@V?$standard_base@DV?$stream_output_adapter@D@__crt_stdio_output@@@2@@1@AEAA_NXZ@@Z 000000018005b100 f i libucrtd:output.obj
 0001:0005a130       ??$extract_argument_from_va_list@PEAUansi_string@?1??type_case_Z@?$output_processor@DV?$string_output_adapter@D@__crt_stdio_output@@V?$format_validation_base@DV?$string_output_adapter@D@__crt_stdio_output@@@2@@__crt_stdio_output@@AEAA_NXZ@PEAU1?1??234@AEAA_NXZ@@?$standard_base@DV?$string_output_adapter@D@__crt_stdio_output@@@__crt_stdio_output@@IEAA_NAEAPEAUansi_string@?1??type_case_Z@?$output_processor@DV?$string_output_adapter@D@__crt_stdio_output@@V?$format_validation_base@DV?$string_output_adapter@D@__crt_stdio_output@@@2@@1@AEAA_NXZ@@Z 000000018005b130 f i libucrtd:output.obj
 0001:0005a160       ??$extract_argument_from_va_list@PEAUansi_string@?1??type_case_Z@?$output_processor@DV?$string_output_adapter@D@__crt_stdio_output@@V?$positional_parameter_base@DV?$string_output_adapter@D@__crt_stdio_output@@@2@@__crt_stdio_output@@AEAA_NXZ@PEAU1?1??234@AEAA_NXZ@@?$positional_parameter_base@DV?$string_output_adapter@D@__crt_stdio_output@@@__crt_stdio_output@@IEAA_NAEAPEAUansi_string@?1??type_case_Z@?$output_processor@DV?$string_output_adapter@D@__crt_stdio_output@@V?$positional_parameter_base@DV?$string_output_adapter@D@__crt_stdio_output@@@2@@1@AEAA_NXZ@@Z 000000018005b160 f i libucrtd:output.obj
 0001:0005a2e0       ??$extract_argument_from_va_list@PEAUansi_string@?1??type_case_Z@?$output_processor@DV?$string_output_adapter@D@__crt_stdio_output@@V?$positional_parameter_base@DV?$string_output_adapter@D@__crt_stdio_output@@@2@@__crt_stdio_output@@AEAA_NXZ@PEAU1?1??234@AEAA_NXZ@@?$standard_base@DV?$string_output_adapter@D@__crt_stdio_output@@@__crt_stdio_output@@IEAA_NAEAPEAUansi_string@?1??type_case_Z@?$output_processor@DV?$string_output_adapter@D@__crt_stdio_output@@V?$positional_parameter_base@DV?$string_output_adapter@D@__crt_stdio_output@@@2@@1@AEAA_NXZ@@Z 000000018005b2e0 f i libucrtd:output.obj
 0001:0005a310       ??$extract_argument_from_va_list@PEAUansi_string@?1??type_case_Z@?$output_processor@DV?$string_output_adapter@D@__crt_stdio_output@@V?$standard_base@DV?$string_output_adapter@D@__crt_stdio_output@@@2@@__crt_stdio_output@@AEAA_NXZ@PEAU1?1??234@AEAA_NXZ@@?$standard_base@DV?$string_output_adapter@D@__crt_stdio_output@@@__crt_stdio_output@@IEAA_NAEAPEAUansi_string@?1??type_case_Z@?$output_processor@DV?$string_output_adapter@D@__crt_stdio_output@@V?$standard_base@DV?$string_output_adapter@D@__crt_stdio_output@@@2@@1@AEAA_NXZ@@Z 000000018005b310 f i libucrtd:output.obj
 0001:0005a340       ??$extract_argument_from_va_list@PEAUansi_string@?1??type_case_Z@?$output_processor@_WV?$stream_output_adapter@_W@__crt_stdio_output@@V?$format_validation_base@_WV?$stream_output_adapter@_W@__crt_stdio_output@@@2@@__crt_stdio_output@@AEAA_NXZ@PEAU1?1??234@AEAA_NXZ@@?$standard_base@_WV?$stream_output_adapter@_W@__crt_stdio_output@@@__crt_stdio_output@@IEAA_NAEAPEAUansi_string@?1??type_case_Z@?$output_processor@_WV?$stream_output_adapter@_W@__crt_stdio_output@@V?$format_validation_base@_WV?$stream_output_adapter@_W@__crt_stdio_output@@@2@@1@AEAA_NXZ@@Z 000000018005b340 f i libucrtd:output.obj
 0001:0005a370       ??$extract_argument_from_va_list@PEAUansi_string@?1??type_case_Z@?$output_processor@_WV?$stream_output_adapter@_W@__crt_stdio_output@@V?$positional_parameter_base@_WV?$stream_output_adapter@_W@__crt_stdio_output@@@2@@__crt_stdio_output@@AEAA_NXZ@PEAU1?1??234@AEAA_NXZ@@?$positional_parameter_base@_WV?$stream_output_adapter@_W@__crt_stdio_output@@@__crt_stdio_output@@IEAA_NAEAPEAUansi_string@?1??type_case_Z@?$output_processor@_WV?$stream_output_adapter@_W@__crt_stdio_output@@V?$positional_parameter_base@_WV?$stream_output_adapter@_W@__crt_stdio_output@@@2@@1@AEAA_NXZ@@Z 000000018005b370 f i libucrtd:output.obj
 0001:0005a4f0       ??$extract_argument_from_va_list@PEAUansi_string@?1??type_case_Z@?$output_processor@_WV?$stream_output_adapter@_W@__crt_stdio_output@@V?$positional_parameter_base@_WV?$stream_output_adapter@_W@__crt_stdio_output@@@2@@__crt_stdio_output@@AEAA_NXZ@PEAU1?1??234@AEAA_NXZ@@?$standard_base@_WV?$stream_output_adapter@_W@__crt_stdio_output@@@__crt_stdio_output@@IEAA_NAEAPEAUansi_string@?1??type_case_Z@?$output_processor@_WV?$stream_output_adapter@_W@__crt_stdio_output@@V?$positional_parameter_base@_WV?$stream_output_adapter@_W@__crt_stdio_output@@@2@@1@AEAA_NXZ@@Z 000000018005b4f0 f i libucrtd:output.obj
 0001:0005a520       ??$extract_argument_from_va_list@PEAUansi_string@?1??type_case_Z@?$output_processor@_WV?$stream_output_adapter@_W@__crt_stdio_output@@V?$standard_base@_WV?$stream_output_adapter@_W@__crt_stdio_output@@@2@@__crt_stdio_output@@AEAA_NXZ@PEAU1?1??234@AEAA_NXZ@@?$standard_base@_WV?$stream_output_adapter@_W@__crt_stdio_output@@@__crt_stdio_output@@IEAA_NAEAPEAUansi_string@?1??type_case_Z@?$output_processor@_WV?$stream_output_adapter@_W@__crt_stdio_output@@V?$standard_base@_WV?$stream_output_adapter@_W@__crt_stdio_output@@@2@@1@AEAA_NXZ@@Z 000000018005b520 f i libucrtd:output.obj
 0001:0005a550       ??$extract_argument_from_va_list@PEAUansi_string@?1??type_case_Z@?$output_processor@_WV?$string_output_adapter@_W@__crt_stdio_output@@V?$format_validation_base@_WV?$string_output_adapter@_W@__crt_stdio_output@@@2@@__crt_stdio_output@@AEAA_NXZ@PEAU1?1??234@AEAA_NXZ@@?$standard_base@_WV?$string_output_adapter@_W@__crt_stdio_output@@@__crt_stdio_output@@IEAA_NAEAPEAUansi_string@?1??type_case_Z@?$output_processor@_WV?$string_output_adapter@_W@__crt_stdio_output@@V?$format_validation_base@_WV?$string_output_adapter@_W@__crt_stdio_output@@@2@@1@AEAA_NXZ@@Z 000000018005b550 f i libucrtd:output.obj
 0001:0005a580       ??$extract_argument_from_va_list@PEAUansi_string@?1??type_case_Z@?$output_processor@_WV?$string_output_adapter@_W@__crt_stdio_output@@V?$positional_parameter_base@_WV?$string_output_adapter@_W@__crt_stdio_output@@@2@@__crt_stdio_output@@AEAA_NXZ@PEAU1?1??234@AEAA_NXZ@@?$positional_parameter_base@_WV?$string_output_adapter@_W@__crt_stdio_output@@@__crt_stdio_output@@IEAA_NAEAPEAUansi_string@?1??type_case_Z@?$output_processor@_WV?$string_output_adapter@_W@__crt_stdio_output@@V?$positional_parameter_base@_WV?$string_output_adapter@_W@__crt_stdio_output@@@2@@1@AEAA_NXZ@@Z 000000018005b580 f i libucrtd:output.obj
 0001:0005a700       ??$extract_argument_from_va_list@PEAUansi_string@?1??type_case_Z@?$output_processor@_WV?$string_output_adapter@_W@__crt_stdio_output@@V?$positional_parameter_base@_WV?$string_output_adapter@_W@__crt_stdio_output@@@2@@__crt_stdio_output@@AEAA_NXZ@PEAU1?1??234@AEAA_NXZ@@?$standard_base@_WV?$string_output_adapter@_W@__crt_stdio_output@@@__crt_stdio_output@@IEAA_NAEAPEAUansi_string@?1??type_case_Z@?$output_processor@_WV?$string_output_adapter@_W@__crt_stdio_output@@V?$positional_parameter_base@_WV?$string_output_adapter@_W@__crt_stdio_output@@@2@@1@AEAA_NXZ@@Z 000000018005b700 f i libucrtd:output.obj
 0001:0005a730       ??$extract_argument_from_va_list@PEAUansi_string@?1??type_case_Z@?$output_processor@_WV?$string_output_adapter@_W@__crt_stdio_output@@V?$standard_base@_WV?$string_output_adapter@_W@__crt_stdio_output@@@2@@__crt_stdio_output@@AEAA_NXZ@PEAU1?1??234@AEAA_NXZ@@?$standard_base@_WV?$string_output_adapter@_W@__crt_stdio_output@@@__crt_stdio_output@@IEAA_NAEAPEAUansi_string@?1??type_case_Z@?$output_processor@_WV?$string_output_adapter@_W@__crt_stdio_output@@V?$standard_base@_WV?$string_output_adapter@_W@__crt_stdio_output@@@2@@1@AEAA_NXZ@@Z 000000018005b730 f i libucrtd:output.obj
 0001:0005a760       ??$extract_argument_from_va_list@PEAXPEAX@?$positional_parameter_base@DV?$stream_output_adapter@D@__crt_stdio_output@@@__crt_stdio_output@@IEAA_NAEAPEAX@Z 000000018005b760 f i libucrtd:output.obj
 0001:0005a8e0       ??$extract_argument_from_va_list@PEAXPEAX@?$positional_parameter_base@DV?$string_output_adapter@D@__crt_stdio_output@@@__crt_stdio_output@@IEAA_NAEAPEAX@Z 000000018005b8e0 f i libucrtd:output.obj
 0001:0005aa60       ??$extract_argument_from_va_list@PEAXPEAX@?$positional_parameter_base@_WV?$stream_output_adapter@_W@__crt_stdio_output@@@__crt_stdio_output@@IEAA_NAEAPEAX@Z 000000018005ba60 f i libucrtd:output.obj
 0001:0005abe0       ??$extract_argument_from_va_list@PEAXPEAX@?$positional_parameter_base@_WV?$string_output_adapter@_W@__crt_stdio_output@@@__crt_stdio_output@@IEAA_NAEAPEAX@Z 000000018005bbe0 f i libucrtd:output.obj
 0001:0005ad60       ??$extract_argument_from_va_list@PEAXPEAX@?$standard_base@DV?$stream_output_adapter@D@__crt_stdio_output@@@__crt_stdio_output@@IEAA_NAEAPEAX@Z 000000018005bd60 f i libucrtd:output.obj
 0001:0005ad90       ??$extract_argument_from_va_list@PEAXPEAX@?$standard_base@DV?$string_output_adapter@D@__crt_stdio_output@@@__crt_stdio_output@@IEAA_NAEAPEAX@Z 000000018005bd90 f i libucrtd:output.obj
 0001:0005adc0       ??$extract_argument_from_va_list@PEAXPEAX@?$standard_base@_WV?$stream_output_adapter@_W@__crt_stdio_output@@@__crt_stdio_output@@IEAA_NAEAPEAX@Z 000000018005bdc0 f i libucrtd:output.obj
 0001:0005adf0       ??$extract_argument_from_va_list@PEAXPEAX@?$standard_base@_WV?$string_output_adapter@_W@__crt_stdio_output@@@__crt_stdio_output@@IEAA_NAEAPEAX@Z 000000018005bdf0 f i libucrtd:output.obj
 0001:0005ae20       ??$extract_argument_from_va_list@U_CRT_DOUBLE@@U1@@?$positional_parameter_base@DV?$stream_output_adapter@D@__crt_stdio_output@@@__crt_stdio_output@@IEAA_NAEAU_CRT_DOUBLE@@@Z 000000018005be20 f i libucrtd:output.obj
 0001:0005afc0       ??$extract_argument_from_va_list@U_CRT_DOUBLE@@U1@@?$positional_parameter_base@DV?$string_output_adapter@D@__crt_stdio_output@@@__crt_stdio_output@@IEAA_NAEAU_CRT_DOUBLE@@@Z 000000018005bfc0 f i libucrtd:output.obj
 0001:0005b160       ??$extract_argument_from_va_list@U_CRT_DOUBLE@@U1@@?$positional_parameter_base@_WV?$stream_output_adapter@_W@__crt_stdio_output@@@__crt_stdio_output@@IEAA_NAEAU_CRT_DOUBLE@@@Z 000000018005c160 f i libucrtd:output.obj
 0001:0005b300       ??$extract_argument_from_va_list@U_CRT_DOUBLE@@U1@@?$positional_parameter_base@_WV?$string_output_adapter@_W@__crt_stdio_output@@@__crt_stdio_output@@IEAA_NAEAU_CRT_DOUBLE@@@Z 000000018005c300 f i libucrtd:output.obj
 0001:0005b4a0       ??$extract_argument_from_va_list@U_CRT_DOUBLE@@U1@@?$standard_base@DV?$stream_output_adapter@D@__crt_stdio_output@@@__crt_stdio_output@@IEAA_NAEAU_CRT_DOUBLE@@@Z 000000018005c4a0 f i libucrtd:output.obj
 0001:0005b4f0       ??$extract_argument_from_va_list@U_CRT_DOUBLE@@U1@@?$standard_base@DV?$string_output_adapter@D@__crt_stdio_output@@@__crt_stdio_output@@IEAA_NAEAU_CRT_DOUBLE@@@Z 000000018005c4f0 f i libucrtd:output.obj
 0001:0005b540       ??$extract_argument_from_va_list@U_CRT_DOUBLE@@U1@@?$standard_base@_WV?$stream_output_adapter@_W@__crt_stdio_output@@@__crt_stdio_output@@IEAA_NAEAU_CRT_DOUBLE@@@Z 000000018005c540 f i libucrtd:output.obj
 0001:0005b590       ??$extract_argument_from_va_list@U_CRT_DOUBLE@@U1@@?$standard_base@_WV?$string_output_adapter@_W@__crt_stdio_output@@@__crt_stdio_output@@IEAA_NAEAU_CRT_DOUBLE@@@Z 000000018005c590 f i libucrtd:output.obj
 0001:0005b5e0       ??$extract_argument_from_va_list@_J_J@?$positional_parameter_base@DV?$stream_output_adapter@D@__crt_stdio_output@@@__crt_stdio_output@@IEAA_NAEA_J@Z 000000018005c5e0 f i libucrtd:output.obj
 0001:0005b760       ??$extract_argument_from_va_list@_J_J@?$positional_parameter_base@DV?$string_output_adapter@D@__crt_stdio_output@@@__crt_stdio_output@@IEAA_NAEA_J@Z 000000018005c760 f i libucrtd:output.obj
 0001:0005b8e0       ??$extract_argument_from_va_list@_J_J@?$positional_parameter_base@_WV?$stream_output_adapter@_W@__crt_stdio_output@@@__crt_stdio_output@@IEAA_NAEA_J@Z 000000018005c8e0 f i libucrtd:output.obj
 0001:0005ba60       ??$extract_argument_from_va_list@_J_J@?$positional_parameter_base@_WV?$string_output_adapter@_W@__crt_stdio_output@@@__crt_stdio_output@@IEAA_NAEA_J@Z 000000018005ca60 f i libucrtd:output.obj
 0001:0005bbe0       ??$extract_argument_from_va_list@_J_J@?$standard_base@DV?$stream_output_adapter@D@__crt_stdio_output@@@__crt_stdio_output@@IEAA_NAEA_J@Z 000000018005cbe0 f i libucrtd:output.obj
 0001:0005bc10       ??$extract_argument_from_va_list@_J_J@?$standard_base@DV?$string_output_adapter@D@__crt_stdio_output@@@__crt_stdio_output@@IEAA_NAEA_J@Z 000000018005cc10 f i libucrtd:output.obj
 0001:0005bc40       ??$extract_argument_from_va_list@_J_J@?$standard_base@_WV?$stream_output_adapter@_W@__crt_stdio_output@@@__crt_stdio_output@@IEAA_NAEA_J@Z 000000018005cc40 f i libucrtd:output.obj
 0001:0005bc70       ??$extract_argument_from_va_list@_J_J@?$standard_base@_WV?$string_output_adapter@_W@__crt_stdio_output@@@__crt_stdio_output@@IEAA_NAEA_J@Z 000000018005cc70 f i libucrtd:output.obj
 0001:0005bca0       ??$extract_argument_from_va_list@_K_J@?$positional_parameter_base@DV?$stream_output_adapter@D@__crt_stdio_output@@@__crt_stdio_output@@IEAA_NAEA_J@Z 000000018005cca0 f i libucrtd:output.obj
 0001:0005be20       ??$extract_argument_from_va_list@_K_J@?$positional_parameter_base@DV?$string_output_adapter@D@__crt_stdio_output@@@__crt_stdio_output@@IEAA_NAEA_J@Z 000000018005ce20 f i libucrtd:output.obj
 0001:0005bfa0       ??$extract_argument_from_va_list@_K_J@?$positional_parameter_base@_WV?$stream_output_adapter@_W@__crt_stdio_output@@@__crt_stdio_output@@IEAA_NAEA_J@Z 000000018005cfa0 f i libucrtd:output.obj
 0001:0005c120       ??$extract_argument_from_va_list@_K_J@?$positional_parameter_base@_WV?$string_output_adapter@_W@__crt_stdio_output@@@__crt_stdio_output@@IEAA_NAEA_J@Z 000000018005d120 f i libucrtd:output.obj
 0001:0005c2a0       ??$extract_argument_from_va_list@_K_J@?$standard_base@DV?$stream_output_adapter@D@__crt_stdio_output@@@__crt_stdio_output@@IEAA_NAEA_J@Z 000000018005d2a0 f i libucrtd:output.obj
 0001:0005c2d0       ??$extract_argument_from_va_list@_K_J@?$standard_base@DV?$string_output_adapter@D@__crt_stdio_output@@@__crt_stdio_output@@IEAA_NAEA_J@Z 000000018005d2d0 f i libucrtd:output.obj
 0001:0005c300       ??$extract_argument_from_va_list@_K_J@?$standard_base@_WV?$stream_output_adapter@_W@__crt_stdio_output@@@__crt_stdio_output@@IEAA_NAEA_J@Z 000000018005d300 f i libucrtd:output.obj
 0001:0005c330       ??$extract_argument_from_va_list@_K_J@?$standard_base@_WV?$string_output_adapter@_W@__crt_stdio_output@@@__crt_stdio_output@@IEAA_NAEA_J@Z 000000018005d330 f i libucrtd:output.obj
 0001:0005c360       ??$extract_argument_from_va_list@_W_W@?$positional_parameter_base@DV?$stream_output_adapter@D@__crt_stdio_output@@@__crt_stdio_output@@IEAA_NAEA_W@Z 000000018005d360 f i libucrtd:output.obj
 0001:0005c4e0       ??$extract_argument_from_va_list@_W_W@?$positional_parameter_base@DV?$string_output_adapter@D@__crt_stdio_output@@@__crt_stdio_output@@IEAA_NAEA_W@Z 000000018005d4e0 f i libucrtd:output.obj
 0001:0005c660       ??$extract_argument_from_va_list@_W_W@?$positional_parameter_base@_WV?$stream_output_adapter@_W@__crt_stdio_output@@@__crt_stdio_output@@IEAA_NAEA_W@Z 000000018005d660 f i libucrtd:output.obj
 0001:0005c7e0       ??$extract_argument_from_va_list@_W_W@?$positional_parameter_base@_WV?$string_output_adapter@_W@__crt_stdio_output@@@__crt_stdio_output@@IEAA_NAEA_W@Z 000000018005d7e0 f i libucrtd:output.obj
 0001:0005c960       ??$extract_argument_from_va_list@_W_W@?$standard_base@DV?$stream_output_adapter@D@__crt_stdio_output@@@__crt_stdio_output@@IEAA_NAEA_W@Z 000000018005d960 f i libucrtd:output.obj
 0001:0005c990       ??$extract_argument_from_va_list@_W_W@?$standard_base@DV?$string_output_adapter@D@__crt_stdio_output@@@__crt_stdio_output@@IEAA_NAEA_W@Z 000000018005d990 f i libucrtd:output.obj
 0001:0005c9c0       ??$extract_argument_from_va_list@_W_W@?$standard_base@_WV?$stream_output_adapter@_W@__crt_stdio_output@@@__crt_stdio_output@@IEAA_NAEA_W@Z 000000018005d9c0 f i libucrtd:output.obj
 0001:0005c9f0       ??$extract_argument_from_va_list@_W_W@?$standard_base@_WV?$string_output_adapter@_W@__crt_stdio_output@@@__crt_stdio_output@@IEAA_NAEA_W@Z 000000018005d9f0 f i libucrtd:output.obj
 0001:0005ca20       ??$get_parameter_type@D@?$positional_parameter_base@DV?$stream_output_adapter@D@__crt_stdio_output@@@__crt_stdio_output@@CA?AW4parameter_type@01@PEAD@Z 000000018005da20 f i libucrtd:output.obj
 0001:0005ca30       ??$get_parameter_type@D@?$positional_parameter_base@DV?$string_output_adapter@D@__crt_stdio_output@@@__crt_stdio_output@@CA?AW4parameter_type@01@PEAD@Z 000000018005da30 f i libucrtd:output.obj
 0001:0005ca40       ??$get_parameter_type@D@?$positional_parameter_base@_WV?$stream_output_adapter@_W@__crt_stdio_output@@@__crt_stdio_output@@CA?AW4parameter_type@01@PEAD@Z 000000018005da40 f i libucrtd:output.obj
 0001:0005ca50       ??$get_parameter_type@D@?$positional_parameter_base@_WV?$string_output_adapter@_W@__crt_stdio_output@@@__crt_stdio_output@@CA?AW4parameter_type@01@PEAD@Z 000000018005da50 f i libucrtd:output.obj
 0001:0005ca60       ??$get_parameter_type@Uansi_string@?1??type_case_Z@?$output_processor@DV?$stream_output_adapter@D@__crt_stdio_output@@V?$positional_parameter_base@DV?$stream_output_adapter@D@__crt_stdio_output@@@2@@__crt_stdio_output@@AEAA_NXZ@@?$positional_parameter_base@DV?$stream_output_adapter@D@__crt_stdio_output@@@__crt_stdio_output@@CA?AW4parameter_type@01@PEAUansi_string@?1??type_case_Z@?$output_processor@DV?$stream_output_adapter@D@__crt_stdio_output@@V?$positional_parameter_base@DV?$stream_output_adapter@D@__crt_stdio_output@@@2@@1@AEAA_NXZ@@Z 000000018005da60 f i libucrtd:output.obj
 0001:0005ca70       ??$get_parameter_type@Uansi_string@?1??type_case_Z@?$output_processor@DV?$string_output_adapter@D@__crt_stdio_output@@V?$positional_parameter_base@DV?$string_output_adapter@D@__crt_stdio_output@@@2@@__crt_stdio_output@@AEAA_NXZ@@?$positional_parameter_base@DV?$string_output_adapter@D@__crt_stdio_output@@@__crt_stdio_output@@CA?AW4parameter_type@01@PEAUansi_string@?1??type_case_Z@?$output_processor@DV?$string_output_adapter@D@__crt_stdio_output@@V?$positional_parameter_base@DV?$string_output_adapter@D@__crt_stdio_output@@@2@@1@AEAA_NXZ@@Z 000000018005da70 f i libucrtd:output.obj
 0001:0005ca80       ??$get_parameter_type@Uansi_string@?1??type_case_Z@?$output_processor@_WV?$stream_output_adapter@_W@__crt_stdio_output@@V?$positional_parameter_base@_WV?$stream_output_adapter@_W@__crt_stdio_output@@@2@@__crt_stdio_output@@AEAA_NXZ@@?$positional_parameter_base@_WV?$stream_output_adapter@_W@__crt_stdio_output@@@__crt_stdio_output@@CA?AW4parameter_type@01@PEAUansi_string@?1??type_case_Z@?$output_processor@_WV?$stream_output_adapter@_W@__crt_stdio_output@@V?$positional_parameter_base@_WV?$stream_output_adapter@_W@__crt_stdio_output@@@2@@1@AEAA_NXZ@@Z 000000018005da80 f i libucrtd:output.obj
 0001:0005ca90       ??$get_parameter_type@Uansi_string@?1??type_case_Z@?$output_processor@_WV?$string_output_adapter@_W@__crt_stdio_output@@V?$positional_parameter_base@_WV?$string_output_adapter@_W@__crt_stdio_output@@@2@@__crt_stdio_output@@AEAA_NXZ@@?$positional_parameter_base@_WV?$string_output_adapter@_W@__crt_stdio_output@@@__crt_stdio_output@@CA?AW4parameter_type@01@PEAUansi_string@?1??type_case_Z@?$output_processor@_WV?$string_output_adapter@_W@__crt_stdio_output@@V?$positional_parameter_base@_WV?$string_output_adapter@_W@__crt_stdio_output@@@2@@1@AEAA_NXZ@@Z 000000018005da90 f i libucrtd:output.obj
 0001:0005caa0       ??$get_parameter_type@X@?$positional_parameter_base@DV?$stream_output_adapter@D@__crt_stdio_output@@@__crt_stdio_output@@CA?AW4parameter_type@01@PEAX@Z 000000018005daa0 f i libucrtd:output.obj
 0001:0005cab0       ??$get_parameter_type@X@?$positional_parameter_base@DV?$string_output_adapter@D@__crt_stdio_output@@@__crt_stdio_output@@CA?AW4parameter_type@01@PEAX@Z 000000018005dab0 f i libucrtd:output.obj
 0001:0005cac0       ??$get_parameter_type@X@?$positional_parameter_base@_WV?$stream_output_adapter@_W@__crt_stdio_output@@@__crt_stdio_output@@CA?AW4parameter_type@01@PEAX@Z 000000018005dac0 f i libucrtd:output.obj
 0001:0005cad0       ??$get_parameter_type@X@?$positional_parameter_base@_WV?$string_output_adapter@_W@__crt_stdio_output@@@__crt_stdio_output@@CA?AW4parameter_type@01@PEAX@Z 000000018005dad0 f i libucrtd:output.obj
 0001:0005cae0       ??$is_character_specifier@D@?$positional_parameter_base@DV?$stream_output_adapter@D@__crt_stdio_output@@@__crt_stdio_output@@CA_ND@Z 000000018005dae0 f i libucrtd:output.obj
 0001:0005cb20       ??$is_character_specifier@D@?$positional_parameter_base@DV?$string_output_adapter@D@__crt_stdio_output@@@__crt_stdio_output@@CA_ND@Z 000000018005db20 f i libucrtd:output.obj
 0001:0005cb60       ??$is_character_specifier@_W@?$positional_parameter_base@_WV?$stream_output_adapter@_W@__crt_stdio_output@@@__crt_stdio_output@@CA_N_W@Z 000000018005db60 f i libucrtd:output.obj
 0001:0005cba0       ??$is_character_specifier@_W@?$positional_parameter_base@_WV?$string_output_adapter@_W@__crt_stdio_output@@@__crt_stdio_output@@CA_N_W@Z 000000018005dba0 f i libucrtd:output.obj
 0001:0005cbe0       ??$is_integral_specifier@D@?$positional_parameter_base@DV?$stream_output_adapter@D@__crt_stdio_output@@@__crt_stdio_output@@CA_ND@Z 000000018005dbe0 f i libucrtd:output.obj
 0001:0005cc50       ??$is_integral_specifier@D@?$positional_parameter_base@DV?$string_output_adapter@D@__crt_stdio_output@@@__crt_stdio_output@@CA_ND@Z 000000018005dc50 f i libucrtd:output.obj
 0001:0005ccc0       ??$is_integral_specifier@_W@?$positional_parameter_base@_WV?$stream_output_adapter@_W@__crt_stdio_output@@@__crt_stdio_output@@CA_N_W@Z 000000018005dcc0 f i libucrtd:output.obj
 0001:0005cd30       ??$is_integral_specifier@_W@?$positional_parameter_base@_WV?$string_output_adapter@_W@__crt_stdio_output@@@__crt_stdio_output@@CA_N_W@Z 000000018005dd30 f i libucrtd:output.obj
 0001:0005cda0       ??$is_pointer_specifier@D@?$positional_parameter_base@DV?$stream_output_adapter@D@__crt_stdio_output@@@__crt_stdio_output@@CA_ND@Z 000000018005dda0 f i libucrtd:output.obj
 0001:0005cdd0       ??$is_pointer_specifier@D@?$positional_parameter_base@DV?$string_output_adapter@D@__crt_stdio_output@@@__crt_stdio_output@@CA_ND@Z 000000018005ddd0 f i libucrtd:output.obj
 0001:0005ce00       ??$is_pointer_specifier@_W@?$positional_parameter_base@_WV?$stream_output_adapter@_W@__crt_stdio_output@@@__crt_stdio_output@@CA_N_W@Z 000000018005de00 f i libucrtd:output.obj
 0001:0005ce30       ??$is_pointer_specifier@_W@?$positional_parameter_base@_WV?$string_output_adapter@_W@__crt_stdio_output@@@__crt_stdio_output@@CA_N_W@Z 000000018005de30 f i libucrtd:output.obj
 0001:0005ce60       ??$is_string_specifier@D@?$positional_parameter_base@DV?$stream_output_adapter@D@__crt_stdio_output@@@__crt_stdio_output@@CA_ND@Z 000000018005de60 f i libucrtd:output.obj
 0001:0005cea0       ??$is_string_specifier@D@?$positional_parameter_base@DV?$string_output_adapter@D@__crt_stdio_output@@@__crt_stdio_output@@CA_ND@Z 000000018005dea0 f i libucrtd:output.obj
 0001:0005cee0       ??$is_string_specifier@_W@?$positional_parameter_base@_WV?$stream_output_adapter@_W@__crt_stdio_output@@@__crt_stdio_output@@CA_N_W@Z 000000018005dee0 f i libucrtd:output.obj
 0001:0005cf20       ??$is_string_specifier@_W@?$positional_parameter_base@_WV?$string_output_adapter@_W@__crt_stdio_output@@@__crt_stdio_output@@CA_N_W@Z 000000018005df20 f i libucrtd:output.obj
 0001:0005cf60       ??$is_wide_character_specifier@D@__crt_stdio_output@@YA_N_KDW4length_modifier@0@@Z 000000018005df60 f i libucrtd:output.obj
 0001:0005d000       ??$is_wide_character_specifier@_W@__crt_stdio_output@@YA_N_K_WW4length_modifier@0@@Z 000000018005e000 f i libucrtd:output.obj
 0001:0005d0d0       ??$peek_va_arg@C@__crt_stdio_output@@YACPEAD@Z 000000018005e0d0 f i libucrtd:output.obj
 0001:0005d130       ??$peek_va_arg@E@__crt_stdio_output@@YAEPEAD@Z 000000018005e130 f i libucrtd:output.obj
 0001:0005d190       ??$peek_va_arg@F@__crt_stdio_output@@YAFPEAD@Z 000000018005e190 f i libucrtd:output.obj
 0001:0005d1f0       ??$peek_va_arg@G@__crt_stdio_output@@YAGPEAD@Z 000000018005e1f0 f i libucrtd:output.obj
 0001:0005d250       ??$peek_va_arg@H@__crt_stdio_output@@YAHPEAD@Z 000000018005e250 f i libucrtd:output.obj
 0001:0005d2a0       ??$peek_va_arg@I@__crt_stdio_output@@YAIPEAD@Z 000000018005e2a0 f i libucrtd:output.obj
 0001:0005d2f0       ??$peek_va_arg@PEAD@__crt_stdio_output@@YAPEADPEAD@Z 000000018005e2f0 f i libucrtd:output.obj
 0001:0005d350       ??$peek_va_arg@PEAUansi_string@?1??type_case_Z@?$output_processor@DV?$stream_output_adapter@D@__crt_stdio_output@@V?$positional_parameter_base@DV?$stream_output_adapter@D@__crt_stdio_output@@@2@@__crt_stdio_output@@AEAA_NXZ@@__crt_stdio_output@@YAPEAUansi_string@?1??type_case_Z@?$output_processor@DV?$stream_output_adapter@D@__crt_stdio_output@@V?$positional_parameter_base@DV?$stream_output_adapter@D@__crt_stdio_output@@@2@@0@AEAA_NXZ@PEAD@Z 000000018005e350 f i libucrtd:output.obj
 0001:0005d3b0       ??$peek_va_arg@PEAUansi_string@?1??type_case_Z@?$output_processor@DV?$string_output_adapter@D@__crt_stdio_output@@V?$positional_parameter_base@DV?$string_output_adapter@D@__crt_stdio_output@@@2@@__crt_stdio_output@@AEAA_NXZ@@__crt_stdio_output@@YAPEAUansi_string@?1??type_case_Z@?$output_processor@DV?$string_output_adapter@D@__crt_stdio_output@@V?$positional_parameter_base@DV?$string_output_adapter@D@__crt_stdio_output@@@2@@0@AEAA_NXZ@PEAD@Z 000000018005e3b0 f i libucrtd:output.obj
 0001:0005d410       ??$peek_va_arg@PEAUansi_string@?1??type_case_Z@?$output_processor@_WV?$stream_output_adapter@_W@__crt_stdio_output@@V?$positional_parameter_base@_WV?$stream_output_adapter@_W@__crt_stdio_output@@@2@@__crt_stdio_output@@AEAA_NXZ@@__crt_stdio_output@@YAPEAUansi_string@?1??type_case_Z@?$output_processor@_WV?$stream_output_adapter@_W@__crt_stdio_output@@V?$positional_parameter_base@_WV?$stream_output_adapter@_W@__crt_stdio_output@@@2@@0@AEAA_NXZ@PEAD@Z 000000018005e410 f i libucrtd:output.obj
 0001:0005d470       ??$peek_va_arg@PEAUansi_string@?1??type_case_Z@?$output_processor@_WV?$string_output_adapter@_W@__crt_stdio_output@@V?$positional_parameter_base@_WV?$string_output_adapter@_W@__crt_stdio_output@@@2@@__crt_stdio_output@@AEAA_NXZ@@__crt_stdio_output@@YAPEAUansi_string@?1??type_case_Z@?$output_processor@_WV?$string_output_adapter@_W@__crt_stdio_output@@V?$positional_parameter_base@_WV?$string_output_adapter@_W@__crt_stdio_output@@@2@@0@AEAA_NXZ@PEAD@Z 000000018005e470 f i libucrtd:output.obj
 0001:0005d4d0       ??$peek_va_arg@PEAX@__crt_stdio_output@@YAPEAXPEAD@Z 000000018005e4d0 f i libucrtd:output.obj
 0001:0005d530       ??$peek_va_arg@U_CRT_DOUBLE@@@__crt_stdio_output@@YA?AU_CRT_DOUBLE@@PEAD@Z 000000018005e530 f i libucrtd:output.obj
 0001:0005d590       ??$peek_va_arg@_J@__crt_stdio_output@@YA_JPEAD@Z 000000018005e590 f i libucrtd:output.obj
 0001:0005d5f0       ??$peek_va_arg@_K@__crt_stdio_output@@YA_KPEAD@Z 000000018005e5f0 f i libucrtd:output.obj
 0001:0005d650       ??$peek_va_arg@_W@__crt_stdio_output@@YA_WPEAD@Z 000000018005e650 f i libucrtd:output.obj
 0001:0005d6b0       ??$puttc_nolock@AEBDPEAU_iobuf@@@?$__crt_char_traits@D@@SAHAEBD$$QEAPEAU_iobuf@@@Z 000000018005e6b0 f i libucrtd:output.obj
 0001:0005d6e0       ??$puttc_nolock@AEB_WPEAU_iobuf@@@?$__crt_char_traits@_W@@SAGAEB_W$$QEAPEAU_iobuf@@@Z 000000018005e6e0 f i libucrtd:output.obj
 0001:0005d710       ??$read_va_arg@C@__crt_stdio_output@@YACAEAPEAD@Z 000000018005e710 f i libucrtd:output.obj
 0001:0005d780       ??$read_va_arg@E@__crt_stdio_output@@YAEAEAPEAD@Z 000000018005e780 f i libucrtd:output.obj
 0001:0005d7f0       ??$read_va_arg@F@__crt_stdio_output@@YAFAEAPEAD@Z 000000018005e7f0 f i libucrtd:output.obj
 0001:0005d860       ??$read_va_arg@G@__crt_stdio_output@@YAGAEAPEAD@Z 000000018005e860 f i libucrtd:output.obj
 0001:0005d8d0       ??$read_va_arg@H@__crt_stdio_output@@YAHAEAPEAD@Z 000000018005e8d0 f i libucrtd:output.obj
 0001:0005d930       ??$read_va_arg@I@__crt_stdio_output@@YAIAEAPEAD@Z 000000018005e930 f i libucrtd:output.obj
 0001:0005d990       ??$read_va_arg@PEAD@__crt_stdio_output@@YAPEADAEAPEAD@Z 000000018005e990 f i libucrtd:output.obj
 0001:0005da00       ??$read_va_arg@PEAUansi_string@?1??type_case_Z@?$output_processor@DV?$stream_output_adapter@D@__crt_stdio_output@@V?$format_validation_base@DV?$stream_output_adapter@D@__crt_stdio_output@@@2@@__crt_stdio_output@@AEAA_NXZ@@__crt_stdio_output@@YAPEAUansi_string@?1??type_case_Z@?$output_processor@DV?$stream_output_adapter@D@__crt_stdio_output@@V?$format_validation_base@DV?$stream_output_adapter@D@__crt_stdio_output@@@2@@0@AEAA_NXZ@AEAPEAD@Z 000000018005ea00 f i libucrtd:output.obj
 0001:0005da70       ??$read_va_arg@PEAUansi_string@?1??type_case_Z@?$output_processor@DV?$stream_output_adapter@D@__crt_stdio_output@@V?$positional_parameter_base@DV?$stream_output_adapter@D@__crt_stdio_output@@@2@@__crt_stdio_output@@AEAA_NXZ@@__crt_stdio_output@@YAPEAUansi_string@?1??type_case_Z@?$output_processor@DV?$stream_output_adapter@D@__crt_stdio_output@@V?$positional_parameter_base@DV?$stream_output_adapter@D@__crt_stdio_output@@@2@@0@AEAA_NXZ@AEAPEAD@Z 000000018005ea70 f i libucrtd:output.obj
 0001:0005dae0       ??$read_va_arg@PEAUansi_string@?1??type_case_Z@?$output_processor@DV?$stream_output_adapter@D@__crt_stdio_output@@V?$standard_base@DV?$stream_output_adapter@D@__crt_stdio_output@@@2@@__crt_stdio_output@@AEAA_NXZ@@__crt_stdio_output@@YAPEAUansi_string@?1??type_case_Z@?$output_processor@DV?$stream_output_adapter@D@__crt_stdio_output@@V?$standard_base@DV?$stream_output_adapter@D@__crt_stdio_output@@@2@@0@AEAA_NXZ@AEAPEAD@Z 000000018005eae0 f i libucrtd:output.obj
 0001:0005db50       ??$read_va_arg@PEAUansi_string@?1??type_case_Z@?$output_processor@DV?$string_output_adapter@D@__crt_stdio_output@@V?$format_validation_base@DV?$string_output_adapter@D@__crt_stdio_output@@@2@@__crt_stdio_output@@AEAA_NXZ@@__crt_stdio_output@@YAPEAUansi_string@?1??type_case_Z@?$output_processor@DV?$string_output_adapter@D@__crt_stdio_output@@V?$format_validation_base@DV?$string_output_adapter@D@__crt_stdio_output@@@2@@0@AEAA_NXZ@AEAPEAD@Z 000000018005eb50 f i libucrtd:output.obj
 0001:0005dbc0       ??$read_va_arg@PEAUansi_string@?1??type_case_Z@?$output_processor@DV?$string_output_adapter@D@__crt_stdio_output@@V?$positional_parameter_base@DV?$string_output_adapter@D@__crt_stdio_output@@@2@@__crt_stdio_output@@AEAA_NXZ@@__crt_stdio_output@@YAPEAUansi_string@?1??type_case_Z@?$output_processor@DV?$string_output_adapter@D@__crt_stdio_output@@V?$positional_parameter_base@DV?$string_output_adapter@D@__crt_stdio_output@@@2@@0@AEAA_NXZ@AEAPEAD@Z 000000018005ebc0 f i libucrtd:output.obj
 0001:0005dc30       ??$read_va_arg@PEAUansi_string@?1??type_case_Z@?$output_processor@DV?$string_output_adapter@D@__crt_stdio_output@@V?$standard_base@DV?$string_output_adapter@D@__crt_stdio_output@@@2@@__crt_stdio_output@@AEAA_NXZ@@__crt_stdio_output@@YAPEAUansi_string@?1??type_case_Z@?$output_processor@DV?$string_output_adapter@D@__crt_stdio_output@@V?$standard_base@DV?$string_output_adapter@D@__crt_stdio_output@@@2@@0@AEAA_NXZ@AEAPEAD@Z 000000018005ec30 f i libucrtd:output.obj
 0001:0005dca0       ??$read_va_arg@PEAUansi_string@?1??type_case_Z@?$output_processor@_WV?$stream_output_adapter@_W@__crt_stdio_output@@V?$format_validation_base@_WV?$stream_output_adapter@_W@__crt_stdio_output@@@2@@__crt_stdio_output@@AEAA_NXZ@@__crt_stdio_output@@YAPEAUansi_string@?1??type_case_Z@?$output_processor@_WV?$stream_output_adapter@_W@__crt_stdio_output@@V?$format_validation_base@_WV?$stream_output_adapter@_W@__crt_stdio_output@@@2@@0@AEAA_NXZ@AEAPEAD@Z 000000018005eca0 f i libucrtd:output.obj
 0001:0005dd10       ??$read_va_arg@PEAUansi_string@?1??type_case_Z@?$output_processor@_WV?$stream_output_adapter@_W@__crt_stdio_output@@V?$positional_parameter_base@_WV?$stream_output_adapter@_W@__crt_stdio_output@@@2@@__crt_stdio_output@@AEAA_NXZ@@__crt_stdio_output@@YAPEAUansi_string@?1??type_case_Z@?$output_processor@_WV?$stream_output_adapter@_W@__crt_stdio_output@@V?$positional_parameter_base@_WV?$stream_output_adapter@_W@__crt_stdio_output@@@2@@0@AEAA_NXZ@AEAPEAD@Z 000000018005ed10 f i libucrtd:output.obj
 0001:0005dd80       ??$read_va_arg@PEAUansi_string@?1??type_case_Z@?$output_processor@_WV?$stream_output_adapter@_W@__crt_stdio_output@@V?$standard_base@_WV?$stream_output_adapter@_W@__crt_stdio_output@@@2@@__crt_stdio_output@@AEAA_NXZ@@__crt_stdio_output@@YAPEAUansi_string@?1??type_case_Z@?$output_processor@_WV?$stream_output_adapter@_W@__crt_stdio_output@@V?$standard_base@_WV?$stream_output_adapter@_W@__crt_stdio_output@@@2@@0@AEAA_NXZ@AEAPEAD@Z 000000018005ed80 f i libucrtd:output.obj
 0001:0005ddf0       ??$read_va_arg@PEAUansi_string@?1??type_case_Z@?$output_processor@_WV?$string_output_adapter@_W@__crt_stdio_output@@V?$format_validation_base@_WV?$string_output_adapter@_W@__crt_stdio_output@@@2@@__crt_stdio_output@@AEAA_NXZ@@__crt_stdio_output@@YAPEAUansi_string@?1??type_case_Z@?$output_processor@_WV?$string_output_adapter@_W@__crt_stdio_output@@V?$format_validation_base@_WV?$string_output_adapter@_W@__crt_stdio_output@@@2@@0@AEAA_NXZ@AEAPEAD@Z 000000018005edf0 f i libucrtd:output.obj
 0001:0005de60       ??$read_va_arg@PEAUansi_string@?1??type_case_Z@?$output_processor@_WV?$string_output_adapter@_W@__crt_stdio_output@@V?$positional_parameter_base@_WV?$string_output_adapter@_W@__crt_stdio_output@@@2@@__crt_stdio_output@@AEAA_NXZ@@__crt_stdio_output@@YAPEAUansi_string@?1??type_case_Z@?$output_processor@_WV?$string_output_adapter@_W@__crt_stdio_output@@V?$positional_parameter_base@_WV?$string_output_adapter@_W@__crt_stdio_output@@@2@@0@AEAA_NXZ@AEAPEAD@Z 000000018005ee60 f i libucrtd:output.obj
 0001:0005ded0       ??$read_va_arg@PEAUansi_string@?1??type_case_Z@?$output_processor@_WV?$string_output_adapter@_W@__crt_stdio_output@@V?$standard_base@_WV?$string_output_adapter@_W@__crt_stdio_output@@@2@@__crt_stdio_output@@AEAA_NXZ@@__crt_stdio_output@@YAPEAUansi_string@?1??type_case_Z@?$output_processor@_WV?$string_output_adapter@_W@__crt_stdio_output@@V?$standard_base@_WV?$string_output_adapter@_W@__crt_stdio_output@@@2@@0@AEAA_NXZ@AEAPEAD@Z 000000018005eed0 f i libucrtd:output.obj
 0001:0005df40       ??$read_va_arg@PEAX@__crt_stdio_output@@YAPEAXAEAPEAD@Z 000000018005ef40 f i libucrtd:output.obj
 0001:0005dfb0       ??$read_va_arg@U_CRT_DOUBLE@@@__crt_stdio_output@@YA?AU_CRT_DOUBLE@@AEAPEAD@Z 000000018005efb0 f i libucrtd:output.obj
 0001:0005e020       ??$read_va_arg@_J@__crt_stdio_output@@YA_JAEAPEAD@Z 000000018005f020 f i libucrtd:output.obj
 0001:0005e090       ??$read_va_arg@_K@__crt_stdio_output@@YA_KAEAPEAD@Z 000000018005f090 f i libucrtd:output.obj
 0001:0005e100       ??$read_va_arg@_W@__crt_stdio_output@@YA_WAEAPEAD@Z 000000018005f100 f i libucrtd:output.obj
 0001:0005e170       ??$scratch_count@D@formatting_buffer@__crt_stdio_output@@QEBA_KXZ 000000018005f170 f i libucrtd:output.obj
 0001:0005e190       ??$scratch_data@D@formatting_buffer@__crt_stdio_output@@QEAAPEADXZ 000000018005f190 f i libucrtd:output.obj
 0001:0005e200       ??$tcstol@AEAPEBDPEAPEADH@?$__crt_char_traits@D@@SAJAEAPEBD$$QEAPEAPEAD$$QEAH@Z 000000018005f200 f i libucrtd:output.obj
 0001:0005e240       ??$tcstol@AEAPEB_WPEAPEA_WH@?$__crt_char_traits@_W@@SAJAEAPEB_W$$QEAPEAPEA_W$$QEAH@Z 000000018005f240 f i libucrtd:output.obj
 0001:0005e280       ??$tcstol@PEBDPEAPEADH@?$__crt_char_traits@D@@SAJ$$QEAPEBD$$QEAPEAPEAD$$QEAH@Z 000000018005f280 f i libucrtd:output.obj
 0001:0005e2c0       ??$tcstol@PEB_WPEAPEA_WH@?$__crt_char_traits@_W@@SAJ$$QEAPEB_W$$QEAPEAPEA_W$$QEAH@Z 000000018005f2c0 f i libucrtd:output.obj
 0001:0005e300       ??$type_case_integer_parse_into_buffer@I@?$output_processor@DV?$stream_output_adapter@D@__crt_stdio_output@@V?$format_validation_base@DV?$stream_output_adapter@D@__crt_stdio_output@@@2@@__crt_stdio_output@@AEAAXII_N@Z 000000018005f300 f i libucrtd:output.obj
 0001:0005e430       ??$type_case_integer_parse_into_buffer@I@?$output_processor@DV?$stream_output_adapter@D@__crt_stdio_output@@V?$positional_parameter_base@DV?$stream_output_adapter@D@__crt_stdio_output@@@2@@__crt_stdio_output@@AEAAXII_N@Z 000000018005f430 f i libucrtd:output.obj
 0001:0005e560       ??$type_case_integer_parse_into_buffer@I@?$output_processor@DV?$stream_output_adapter@D@__crt_stdio_output@@V?$standard_base@DV?$stream_output_adapter@D@__crt_stdio_output@@@2@@__crt_stdio_output@@AEAAXII_N@Z 000000018005f560 f i libucrtd:output.obj
 0001:0005e690       ??$type_case_integer_parse_into_buffer@I@?$output_processor@DV?$string_output_adapter@D@__crt_stdio_output@@V?$format_validation_base@DV?$string_output_adapter@D@__crt_stdio_output@@@2@@__crt_stdio_output@@AEAAXII_N@Z 000000018005f690 f i libucrtd:output.obj
 0001:0005e7c0       ??$type_case_integer_parse_into_buffer@I@?$output_processor@DV?$string_output_adapter@D@__crt_stdio_output@@V?$positional_parameter_base@DV?$string_output_adapter@D@__crt_stdio_output@@@2@@__crt_stdio_output@@AEAAXII_N@Z 000000018005f7c0 f i libucrtd:output.obj
 0001:0005e8f0       ??$type_case_integer_parse_into_buffer@I@?$output_processor@DV?$string_output_adapter@D@__crt_stdio_output@@V?$standard_base@DV?$string_output_adapter@D@__crt_stdio_output@@@2@@__crt_stdio_output@@AEAAXII_N@Z 000000018005f8f0 f i libucrtd:output.obj
 0001:0005ea20       ??$type_case_integer_parse_into_buffer@I@?$output_processor@_WV?$stream_output_adapter@_W@__crt_stdio_output@@V?$format_validation_base@_WV?$stream_output_adapter@_W@__crt_stdio_output@@@2@@__crt_stdio_output@@AEAAXII_N@Z 000000018005fa20 f i libucrtd:output.obj
 0001:0005eb60       ??$type_case_integer_parse_into_buffer@I@?$output_processor@_WV?$stream_output_adapter@_W@__crt_stdio_output@@V?$positional_parameter_base@_WV?$stream_output_adapter@_W@__crt_stdio_output@@@2@@__crt_stdio_output@@AEAAXII_N@Z 000000018005fb60 f i libucrtd:output.obj
 0001:0005eca0       ??$type_case_integer_parse_into_buffer@I@?$output_processor@_WV?$stream_output_adapter@_W@__crt_stdio_output@@V?$standard_base@_WV?$stream_output_adapter@_W@__crt_stdio_output@@@2@@__crt_stdio_output@@AEAAXII_N@Z 000000018005fca0 f i libucrtd:output.obj
 0001:0005ede0       ??$type_case_integer_parse_into_buffer@I@?$output_processor@_WV?$string_output_adapter@_W@__crt_stdio_output@@V?$format_validation_base@_WV?$string_output_adapter@_W@__crt_stdio_output@@@2@@__crt_stdio_output@@AEAAXII_N@Z 000000018005fde0 f i libucrtd:output.obj
 0001:0005ef20       ??$type_case_integer_parse_into_buffer@I@?$output_processor@_WV?$string_output_adapter@_W@__crt_stdio_output@@V?$positional_parameter_base@_WV?$string_output_adapter@_W@__crt_stdio_output@@@2@@__crt_stdio_output@@AEAAXII_N@Z 000000018005ff20 f i libucrtd:output.obj
 0001:0005f060       ??$type_case_integer_parse_into_buffer@I@?$output_processor@_WV?$string_output_adapter@_W@__crt_stdio_output@@V?$standard_base@_WV?$string_output_adapter@_W@__crt_stdio_output@@@2@@__crt_stdio_output@@AEAAXII_N@Z 0000000180060060 f i libucrtd:output.obj
 0001:0005f1a0       ??$type_case_integer_parse_into_buffer@_K@?$output_processor@DV?$stream_output_adapter@D@__crt_stdio_output@@V?$format_validation_base@DV?$stream_output_adapter@D@__crt_stdio_output@@@2@@__crt_stdio_output@@AEAAX_KI_N@Z 00000001800601a0 f i libucrtd:output.obj
 0001:0005f2f0       ??$type_case_integer_parse_into_buffer@_K@?$output_processor@DV?$stream_output_adapter@D@__crt_stdio_output@@V?$positional_parameter_base@DV?$stream_output_adapter@D@__crt_stdio_output@@@2@@__crt_stdio_output@@AEAAX_KI_N@Z 00000001800602f0 f i libucrtd:output.obj
 0001:0005f440       ??$type_case_integer_parse_into_buffer@_K@?$output_processor@DV?$stream_output_adapter@D@__crt_stdio_output@@V?$standard_base@DV?$stream_output_adapter@D@__crt_stdio_output@@@2@@__crt_stdio_output@@AEAAX_KI_N@Z 0000000180060440 f i libucrtd:output.obj
 0001:0005f590       ??$type_case_integer_parse_into_buffer@_K@?$output_processor@DV?$string_output_adapter@D@__crt_stdio_output@@V?$format_validation_base@DV?$string_output_adapter@D@__crt_stdio_output@@@2@@__crt_stdio_output@@AEAAX_KI_N@Z 0000000180060590 f i libucrtd:output.obj
 0001:0005f6e0       ??$type_case_integer_parse_into_buffer@_K@?$output_processor@DV?$string_output_adapter@D@__crt_stdio_output@@V?$positional_parameter_base@DV?$string_output_adapter@D@__crt_stdio_output@@@2@@__crt_stdio_output@@AEAAX_KI_N@Z 00000001800606e0 f i libucrtd:output.obj
 0001:0005f830       ??$type_case_integer_parse_into_buffer@_K@?$output_processor@DV?$string_output_adapter@D@__crt_stdio_output@@V?$standard_base@DV?$string_output_adapter@D@__crt_stdio_output@@@2@@__crt_stdio_output@@AEAAX_KI_N@Z 0000000180060830 f i libucrtd:output.obj
 0001:0005f980       ??$type_case_integer_parse_into_buffer@_K@?$output_processor@_WV?$stream_output_adapter@_W@__crt_stdio_output@@V?$format_validation_base@_WV?$stream_output_adapter@_W@__crt_stdio_output@@@2@@__crt_stdio_output@@AEAAX_KI_N@Z 0000000180060980 f i libucrtd:output.obj
 0001:0005fae0       ??$type_case_integer_parse_into_buffer@_K@?$output_processor@_WV?$stream_output_adapter@_W@__crt_stdio_output@@V?$positional_parameter_base@_WV?$stream_output_adapter@_W@__crt_stdio_output@@@2@@__crt_stdio_output@@AEAAX_KI_N@Z 0000000180060ae0 f i libucrtd:output.obj
 0001:0005fc40       ??$type_case_integer_parse_into_buffer@_K@?$output_processor@_WV?$stream_output_adapter@_W@__crt_stdio_output@@V?$standard_base@_WV?$stream_output_adapter@_W@__crt_stdio_output@@@2@@__crt_stdio_output@@AEAAX_KI_N@Z 0000000180060c40 f i libucrtd:output.obj
 0001:0005fda0       ??$type_case_integer_parse_into_buffer@_K@?$output_processor@_WV?$string_output_adapter@_W@__crt_stdio_output@@V?$format_validation_base@_WV?$string_output_adapter@_W@__crt_stdio_output@@@2@@__crt_stdio_output@@AEAAX_KI_N@Z 0000000180060da0 f i libucrtd:output.obj
 0001:0005ff00       ??$type_case_integer_parse_into_buffer@_K@?$output_processor@_WV?$string_output_adapter@_W@__crt_stdio_output@@V?$positional_parameter_base@_WV?$string_output_adapter@_W@__crt_stdio_output@@@2@@__crt_stdio_output@@AEAAX_KI_N@Z 0000000180060f00 f i libucrtd:output.obj
 0001:00060060       ??$type_case_integer_parse_into_buffer@_K@?$output_processor@_WV?$string_output_adapter@_W@__crt_stdio_output@@V?$standard_base@_WV?$string_output_adapter@_W@__crt_stdio_output@@@2@@__crt_stdio_output@@AEAAX_KI_N@Z 0000000180061060 f i libucrtd:output.obj
 0001:000601c0       ??$write_multiple_characters@V?$stream_output_adapter@D@__crt_stdio_output@@D@__crt_stdio_output@@YAXAEBV?$stream_output_adapter@D@0@DHQEAH@Z 00000001800611c0 f i libucrtd:output.obj
 0001:00060220       ??$write_multiple_characters@V?$stream_output_adapter@_W@__crt_stdio_output@@D@__crt_stdio_output@@YAXAEBV?$stream_output_adapter@_W@0@DHQEAH@Z 0000000180061220 f i libucrtd:output.obj
 0001:00060280       ??$write_multiple_characters@V?$string_output_adapter@D@__crt_stdio_output@@D@__crt_stdio_output@@YAXAEBV?$string_output_adapter@D@0@DHQEAH@Z 0000000180061280 f i libucrtd:output.obj
 0001:000602e0       ??$write_multiple_characters@V?$string_output_adapter@_W@__crt_stdio_output@@D@__crt_stdio_output@@YAXAEBV?$string_output_adapter@_W@0@DHQEAH@Z 00000001800612e0 f i libucrtd:output.obj
 0001:00060700       ??0?$common_data@D@__crt_stdio_output@@IEAA@XZ 0000000180061700 f i libucrtd:output.obj
 0001:000607d0       ??0?$common_data@_W@__crt_stdio_output@@IEAA@XZ 00000001800617d0 f i libucrtd:output.obj
 0001:000608a0       ??0?$output_adapter_data@DV?$stream_output_adapter@D@__crt_stdio_output@@@__crt_stdio_output@@IEAA@AEBV?$stream_output_adapter@D@1@_KQEBDQEAU__crt_locale_pointers@@QEAD@Z 00000001800618a0 f i libucrtd:output.obj
 0001:00060920       ??0?$output_adapter_data@DV?$string_output_adapter@D@__crt_stdio_output@@@__crt_stdio_output@@IEAA@AEBV?$string_output_adapter@D@1@_KQEBDQEAU__crt_locale_pointers@@QEAD@Z 0000000180061920 f i libucrtd:output.obj
 0001:000609a0       ??0?$output_adapter_data@_WV?$stream_output_adapter@_W@__crt_stdio_output@@@__crt_stdio_output@@IEAA@AEBV?$stream_output_adapter@_W@1@_KQEB_WQEAU__crt_locale_pointers@@QEAD@Z 00000001800619a0 f i libucrtd:output.obj
 0001:00060a20       ??0?$output_adapter_data@_WV?$string_output_adapter@_W@__crt_stdio_output@@@__crt_stdio_output@@IEAA@AEBV?$string_output_adapter@_W@1@_KQEB_WQEAU__crt_locale_pointers@@QEAD@Z 0000000180061a20 f i libucrtd:output.obj
 0001:00060aa0       ??0?$output_processor@DV?$stream_output_adapter@D@__crt_stdio_output@@V?$format_validation_base@DV?$stream_output_adapter@D@__crt_stdio_output@@@2@@__crt_stdio_output@@QEAA@AEBV?$stream_output_adapter@D@1@_KQEBDQEAU__crt_locale_pointers@@QEAD@Z 0000000180061aa0 f i libucrtd:output.obj
 0001:00060af0       ??0?$output_processor@DV?$stream_output_adapter@D@__crt_stdio_output@@V?$positional_parameter_base@DV?$stream_output_adapter@D@__crt_stdio_output@@@2@@__crt_stdio_output@@QEAA@AEBV?$stream_output_adapter@D@1@_KQEBDQEAU__crt_locale_pointers@@QEAD@Z 0000000180061af0 f i libucrtd:output.obj
 0001:00060b40       ??0?$output_processor@DV?$stream_output_adapter@D@__crt_stdio_output@@V?$standard_base@DV?$stream_output_adapter@D@__crt_stdio_output@@@2@@__crt_stdio_output@@QEAA@AEBV?$stream_output_adapter@D@1@_KQEBDQEAU__crt_locale_pointers@@QEAD@Z 0000000180061b40 f i libucrtd:output.obj
 0001:00060b90       ??0?$output_processor@DV?$string_output_adapter@D@__crt_stdio_output@@V?$format_validation_base@DV?$string_output_adapter@D@__crt_stdio_output@@@2@@__crt_stdio_output@@QEAA@AEBV?$string_output_adapter@D@1@_KQEBDQEAU__crt_locale_pointers@@QEAD@Z 0000000180061b90 f i libucrtd:output.obj
 0001:00060be0       ??0?$output_processor@DV?$string_output_adapter@D@__crt_stdio_output@@V?$positional_parameter_base@DV?$string_output_adapter@D@__crt_stdio_output@@@2@@__crt_stdio_output@@QEAA@AEBV?$string_output_adapter@D@1@_KQEBDQEAU__crt_locale_pointers@@QEAD@Z 0000000180061be0 f i libucrtd:output.obj
 0001:00060c30       ??0?$output_processor@DV?$string_output_adapter@D@__crt_stdio_output@@V?$standard_base@DV?$string_output_adapter@D@__crt_stdio_output@@@2@@__crt_stdio_output@@QEAA@AEBV?$string_output_adapter@D@1@_KQEBDQEAU__crt_locale_pointers@@QEAD@Z 0000000180061c30 f i libucrtd:output.obj
 0001:00060c80       ??0?$output_processor@_WV?$stream_output_adapter@_W@__crt_stdio_output@@V?$format_validation_base@_WV?$stream_output_adapter@_W@__crt_stdio_output@@@2@@__crt_stdio_output@@QEAA@AEBV?$stream_output_adapter@_W@1@_KQEB_WQEAU__crt_locale_pointers@@QEAD@Z 0000000180061c80 f i libucrtd:output.obj
 0001:00060cd0       ??0?$output_processor@_WV?$stream_output_adapter@_W@__crt_stdio_output@@V?$positional_parameter_base@_WV?$stream_output_adapter@_W@__crt_stdio_output@@@2@@__crt_stdio_output@@QEAA@AEBV?$stream_output_adapter@_W@1@_KQEB_WQEAU__crt_locale_pointers@@QEAD@Z 0000000180061cd0 f i libucrtd:output.obj
 0001:00060d20       ??0?$output_processor@_WV?$stream_output_adapter@_W@__crt_stdio_output@@V?$standard_base@_WV?$stream_output_adapter@_W@__crt_stdio_output@@@2@@__crt_stdio_output@@QEAA@AEBV?$stream_output_adapter@_W@1@_KQEB_WQEAU__crt_locale_pointers@@QEAD@Z 0000000180061d20 f i libucrtd:output.obj
 0001:00060d70       ??0?$output_processor@_WV?$string_output_adapter@_W@__crt_stdio_output@@V?$format_validation_base@_WV?$string_output_adapter@_W@__crt_stdio_output@@@2@@__crt_stdio_output@@QEAA@AEBV?$string_output_adapter@_W@1@_KQEB_WQEAU__crt_locale_pointers@@QEAD@Z 0000000180061d70 f i libucrtd:output.obj
 0001:00060dc0       ??0?$output_processor@_WV?$string_output_adapter@_W@__crt_stdio_output@@V?$positional_parameter_base@_WV?$string_output_adapter@_W@__crt_stdio_output@@@2@@__crt_stdio_output@@QEAA@AEBV?$string_output_adapter@_W@1@_KQEB_WQEAU__crt_locale_pointers@@QEAD@Z 0000000180061dc0 f i libucrtd:output.obj
 0001:00060e10       ??0?$output_processor@_WV?$string_output_adapter@_W@__crt_stdio_output@@V?$standard_base@_WV?$string_output_adapter@_W@__crt_stdio_output@@@2@@__crt_stdio_output@@QEAA@AEBV?$string_output_adapter@_W@1@_KQEB_WQEAU__crt_locale_pointers@@QEAD@Z 0000000180061e10 f i libucrtd:output.obj
 0001:00060e60       ??0?$stream_output_adapter@D@__crt_stdio_output@@QEAA@QEAU_iobuf@@@Z 0000000180061e60 f i libucrtd:output.obj
 0001:00060e90       ??0?$stream_output_adapter@_W@__crt_stdio_output@@QEAA@QEAU_iobuf@@@Z 0000000180061e90 f i libucrtd:output.obj
 0001:00060ec0       ??0?$string_output_adapter@D@__crt_stdio_output@@QEAA@QEAU?$string_output_adapter_context@D@1@@Z 0000000180061ec0 f i libucrtd:output.obj
 0001:00060ee0       ??0?$string_output_adapter@_W@__crt_stdio_output@@QEAA@QEAU?$string_output_adapter_context@_W@1@@Z 0000000180061ee0 f i libucrtd:output.obj
 0001:00060f00       ??0_LocaleUpdate@@QEAA@QEAU__crt_locale_pointers@@@Z 0000000180061f00 f i libucrtd:output.obj
 0001:00061020       ??0__acrt_stdio_temporary_buffering_guard@@QEAA@QEAU_iobuf@@@Z 0000000180062020 f i libucrtd:output.obj
 0001:00061060       ??0__crt_deferred_errno_cache@@QEAA@XZ 0000000180062060 f i libucrtd:output.obj
 0001:00061080       ??0__crt_errno_guard@@QEAA@QEAH@Z 0000000180062080 f i libucrtd:output.obj
 0001:000610c0       ??0__crt_stdio_stream@@QEAA@QEAU_iobuf@@@Z 00000001800620c0 f i libucrtd:output.obj
 0001:000610e0       ??0formatting_buffer@__crt_stdio_output@@QEAA@XZ 00000001800620e0 f i libucrtd:output.obj
 0001:00061120       ??1?$common_data@D@__crt_stdio_output@@QEAA@XZ 0000000180062120 f i libucrtd:output.obj
 0001:00061140       ??1?$common_data@_W@__crt_stdio_output@@QEAA@XZ 0000000180062140 f i libucrtd:output.obj
 0001:00061160       ??1?$format_validation_base@DV?$stream_output_adapter@D@__crt_stdio_output@@@__crt_stdio_output@@QEAA@XZ 0000000180062160 f i libucrtd:output.obj
 0001:00061180       ??1?$format_validation_base@DV?$string_output_adapter@D@__crt_stdio_output@@@__crt_stdio_output@@QEAA@XZ 0000000180062180 f i libucrtd:output.obj
 0001:000611a0       ??1?$format_validation_base@_WV?$stream_output_adapter@_W@__crt_stdio_output@@@__crt_stdio_output@@QEAA@XZ 00000001800621a0 f i libucrtd:output.obj
 0001:000611c0       ??1?$format_validation_base@_WV?$string_output_adapter@_W@__crt_stdio_output@@@__crt_stdio_output@@QEAA@XZ 00000001800621c0 f i libucrtd:output.obj
 0001:000611e0       ??1?$output_adapter_data@DV?$stream_output_adapter@D@__crt_stdio_output@@@__crt_stdio_output@@QEAA@XZ 00000001800621e0 f i libucrtd:output.obj
 0001:00061200       ??1?$output_adapter_data@DV?$string_output_adapter@D@__crt_stdio_output@@@__crt_stdio_output@@QEAA@XZ 0000000180062200 f i libucrtd:output.obj
 0001:00061220       ??1?$output_adapter_data@_WV?$stream_output_adapter@_W@__crt_stdio_output@@@__crt_stdio_output@@QEAA@XZ 0000000180062220 f i libucrtd:output.obj
 0001:00061240       ??1?$output_adapter_data@_WV?$string_output_adapter@_W@__crt_stdio_output@@@__crt_stdio_output@@QEAA@XZ 0000000180062240 f i libucrtd:output.obj
 0001:00061260       ??1?$output_processor@DV?$stream_output_adapter@D@__crt_stdio_output@@V?$format_validation_base@DV?$stream_output_adapter@D@__crt_stdio_output@@@2@@__crt_stdio_output@@QEAA@XZ 0000000180062260 f i libucrtd:output.obj
 0001:00061280       ??1?$output_processor@DV?$stream_output_adapter@D@__crt_stdio_output@@V?$positional_parameter_base@DV?$stream_output_adapter@D@__crt_stdio_output@@@2@@__crt_stdio_output@@QEAA@XZ 0000000180062280 f i libucrtd:output.obj
 0001:000612a0       ??1?$output_processor@DV?$stream_output_adapter@D@__crt_stdio_output@@V?$standard_base@DV?$stream_output_adapter@D@__crt_stdio_output@@@2@@__crt_stdio_output@@QEAA@XZ 00000001800622a0 f i libucrtd:output.obj
 0001:000612c0       ??1?$output_processor@DV?$string_output_adapter@D@__crt_stdio_output@@V?$format_validation_base@DV?$string_output_adapter@D@__crt_stdio_output@@@2@@__crt_stdio_output@@QEAA@XZ 00000001800622c0 f i libucrtd:output.obj
 0001:000612e0       ??1?$output_processor@DV?$string_output_adapter@D@__crt_stdio_output@@V?$positional_parameter_base@DV?$string_output_adapter@D@__crt_stdio_output@@@2@@__crt_stdio_output@@QEAA@XZ 00000001800622e0 f i libucrtd:output.obj
 0001:00061300       ??1?$output_processor@DV?$string_output_adapter@D@__crt_stdio_output@@V?$standard_base@DV?$string_output_adapter@D@__crt_stdio_output@@@2@@__crt_stdio_output@@QEAA@XZ 0000000180062300 f i libucrtd:output.obj
 0001:00061320       ??1?$output_processor@_WV?$stream_output_adapter@_W@__crt_stdio_output@@V?$format_validation_base@_WV?$stream_output_adapter@_W@__crt_stdio_output@@@2@@__crt_stdio_output@@QEAA@XZ 0000000180062320 f i libucrtd:output.obj
 0001:00061340       ??1?$output_processor@_WV?$stream_output_adapter@_W@__crt_stdio_output@@V?$positional_parameter_base@_WV?$stream_output_adapter@_W@__crt_stdio_output@@@2@@__crt_stdio_output@@QEAA@XZ 0000000180062340 f i libucrtd:output.obj
 0001:00061360       ??1?$output_processor@_WV?$stream_output_adapter@_W@__crt_stdio_output@@V?$standard_base@_WV?$stream_output_adapter@_W@__crt_stdio_output@@@2@@__crt_stdio_output@@QEAA@XZ 0000000180062360 f i libucrtd:output.obj
 0001:00061380       ??1?$output_processor@_WV?$string_output_adapter@_W@__crt_stdio_output@@V?$format_validation_base@_WV?$string_output_adapter@_W@__crt_stdio_output@@@2@@__crt_stdio_output@@QEAA@XZ 0000000180062380 f i libucrtd:output.obj
 0001:000613a0       ??1?$output_processor@_WV?$string_output_adapter@_W@__crt_stdio_output@@V?$positional_parameter_base@_WV?$string_output_adapter@_W@__crt_stdio_output@@@2@@__crt_stdio_output@@QEAA@XZ 00000001800623a0 f i libucrtd:output.obj
 0001:000613c0       ??1?$output_processor@_WV?$string_output_adapter@_W@__crt_stdio_output@@V?$standard_base@_WV?$string_output_adapter@_W@__crt_stdio_output@@@2@@__crt_stdio_output@@QEAA@XZ 00000001800623c0 f i libucrtd:output.obj
 0001:000613e0       ??1?$positional_parameter_base@DV?$stream_output_adapter@D@__crt_stdio_output@@@__crt_stdio_output@@QEAA@XZ 00000001800623e0 f i libucrtd:output.obj
 0001:00061400       ??1?$positional_parameter_base@DV?$string_output_adapter@D@__crt_stdio_output@@@__crt_stdio_output@@QEAA@XZ 0000000180062400 f i libucrtd:output.obj
 0001:00061420       ??1?$positional_parameter_base@_WV?$stream_output_adapter@_W@__crt_stdio_output@@@__crt_stdio_output@@QEAA@XZ 0000000180062420 f i libucrtd:output.obj
 0001:00061440       ??1?$positional_parameter_base@_WV?$string_output_adapter@_W@__crt_stdio_output@@@__crt_stdio_output@@QEAA@XZ 0000000180062440 f i libucrtd:output.obj
 0001:00061460       ??1?$standard_base@DV?$stream_output_adapter@D@__crt_stdio_output@@@__crt_stdio_output@@QEAA@XZ 0000000180062460 f i libucrtd:output.obj
 0001:00061480       ??1?$standard_base@DV?$string_output_adapter@D@__crt_stdio_output@@@__crt_stdio_output@@QEAA@XZ 0000000180062480 f i libucrtd:output.obj
 0001:000614a0       ??1?$standard_base@_WV?$stream_output_adapter@_W@__crt_stdio_output@@@__crt_stdio_output@@QEAA@XZ 00000001800624a0 f i libucrtd:output.obj
 0001:000614c0       ??1?$standard_base@_WV?$string_output_adapter@_W@__crt_stdio_output@@@__crt_stdio_output@@QEAA@XZ 00000001800624c0 f i libucrtd:output.obj
 0001:000614e0       ??1_LocaleUpdate@@QEAA@XZ  00000001800624e0 f i libucrtd:output.obj
 0001:00061510       ??1__acrt_stdio_temporary_buffering_guard@@QEAA@XZ 0000000180062510 f i libucrtd:output.obj
 0001:00061540       ??1__crt_errno_guard@@QEAA@XZ 0000000180062540 f i libucrtd:output.obj
 0001:00061570       ??1formatting_buffer@__crt_stdio_output@@QEAA@XZ 0000000180062570 f i libucrtd:output.obj
 0001:000615a0       ??4?$__crt_unique_heap_ptr@DU__crt_internal_free_policy@@@@QEAAAEAV0@$$QEAV0@@Z 00000001800625a0 f i libucrtd:output.obj
 0001:000615e0       ??A?$spectre_mitigated_lookup_table@Ustate_transition_pair@__crt_stdio_output@@$0IA@@__crt_stdio_output@@QEBAAEBUstate_transition_pair@1@_K@Z 00000001800625e0 f i libucrtd:output.obj
 0001:00061600       ??C__crt_stdio_stream@@QEBAPEAU__crt_stdio_stream_data@@XZ 0000000180062600 f i libucrtd:output.obj
 0001:00061eb0       ?GetLocaleT@_LocaleUpdate@@QEAAPEAU__crt_locale_pointers@@XZ 0000000180062eb0 f i libucrtd:output.obj
 0001:00061ec0       ?__crt_interlocked_read_32@@YAHPEDH@Z 0000000180062ec0 f i libucrtd:output.obj
 0001:00061ee0       ?adjust_hexit@?$output_processor@DV?$stream_output_adapter@D@__crt_stdio_output@@V?$format_validation_base@DV?$stream_output_adapter@D@__crt_stdio_output@@@2@@__crt_stdio_output@@CADH_N@Z 0000000180062ee0 f i libucrtd:output.obj
 0001:00061f30       ?adjust_hexit@?$output_processor@DV?$stream_output_adapter@D@__crt_stdio_output@@V?$positional_parameter_base@DV?$stream_output_adapter@D@__crt_stdio_output@@@2@@__crt_stdio_output@@CADH_N@Z 0000000180062f30 f i libucrtd:output.obj
 0001:00061f80       ?adjust_hexit@?$output_processor@DV?$stream_output_adapter@D@__crt_stdio_output@@V?$standard_base@DV?$stream_output_adapter@D@__crt_stdio_output@@@2@@__crt_stdio_output@@CADH_N@Z 0000000180062f80 f i libucrtd:output.obj
 0001:00061fd0       ?adjust_hexit@?$output_processor@DV?$string_output_adapter@D@__crt_stdio_output@@V?$format_validation_base@DV?$string_output_adapter@D@__crt_stdio_output@@@2@@__crt_stdio_output@@CADH_N@Z 0000000180062fd0 f i libucrtd:output.obj
 0001:00062020       ?adjust_hexit@?$output_processor@DV?$string_output_adapter@D@__crt_stdio_output@@V?$positional_parameter_base@DV?$string_output_adapter@D@__crt_stdio_output@@@2@@__crt_stdio_output@@CADH_N@Z 0000000180063020 f i libucrtd:output.obj
 0001:00062070       ?adjust_hexit@?$output_processor@DV?$string_output_adapter@D@__crt_stdio_output@@V?$standard_base@DV?$string_output_adapter@D@__crt_stdio_output@@@2@@__crt_stdio_output@@CADH_N@Z 0000000180063070 f i libucrtd:output.obj
 0001:000620c0       ?adjust_hexit@?$output_processor@_WV?$stream_output_adapter@_W@__crt_stdio_output@@V?$format_validation_base@_WV?$stream_output_adapter@_W@__crt_stdio_output@@@2@@__crt_stdio_output@@CADH_N@Z 00000001800630c0 f i libucrtd:output.obj
 0001:00062110       ?adjust_hexit@?$output_processor@_WV?$stream_output_adapter@_W@__crt_stdio_output@@V?$positional_parameter_base@_WV?$stream_output_adapter@_W@__crt_stdio_output@@@2@@__crt_stdio_output@@CADH_N@Z 0000000180063110 f i libucrtd:output.obj
 0001:00062160       ?adjust_hexit@?$output_processor@_WV?$stream_output_adapter@_W@__crt_stdio_output@@V?$standard_base@_WV?$stream_output_adapter@_W@__crt_stdio_output@@@2@@__crt_stdio_output@@CADH_N@Z 0000000180063160 f i libucrtd:output.obj
 0001:000621b0       ?adjust_hexit@?$output_processor@_WV?$string_output_adapter@_W@__crt_stdio_output@@V?$format_validation_base@_WV?$string_output_adapter@_W@__crt_stdio_output@@@2@@__crt_stdio_output@@CADH_N@Z 00000001800631b0 f i libucrtd:output.obj
 0001:00062200       ?adjust_hexit@?$output_processor@_WV?$string_output_adapter@_W@__crt_stdio_output@@V?$positional_parameter_base@_WV?$string_output_adapter@_W@__crt_stdio_output@@@2@@__crt_stdio_output@@CADH_N@Z 0000000180063200 f i libucrtd:output.obj
 0001:00062250       ?adjust_hexit@?$output_processor@_WV?$string_output_adapter@_W@__crt_stdio_output@@V?$standard_base@_WV?$string_output_adapter@_W@__crt_stdio_output@@@2@@__crt_stdio_output@@CADH_N@Z 0000000180063250 f i libucrtd:output.obj
 0001:000622a0       ?advance_to_next_pass@?$positional_parameter_base@DV?$stream_output_adapter@D@__crt_stdio_output@@@__crt_stdio_output@@IEAA_NXZ 00000001800632a0 f i libucrtd:output.obj
 0001:00062350       ?advance_to_next_pass@?$positional_parameter_base@DV?$string_output_adapter@D@__crt_stdio_output@@@__crt_stdio_output@@IEAA_NXZ 0000000180063350 f i libucrtd:output.obj
 0001:00062400       ?advance_to_next_pass@?$positional_parameter_base@_WV?$stream_output_adapter@_W@__crt_stdio_output@@@__crt_stdio_output@@IEAA_NXZ 0000000180063400 f i libucrtd:output.obj
 0001:000624b0       ?advance_to_next_pass@?$positional_parameter_base@_WV?$string_output_adapter@_W@__crt_stdio_output@@@__crt_stdio_output@@IEAA_NXZ 00000001800634b0 f i libucrtd:output.obj
 0001:00062560       ?advance_to_next_pass@?$standard_base@DV?$stream_output_adapter@D@__crt_stdio_output@@@__crt_stdio_output@@IEAA_NXZ 0000000180063560 f i libucrtd:output.obj
 0001:000625b0       ?advance_to_next_pass@?$standard_base@DV?$string_output_adapter@D@__crt_stdio_output@@@__crt_stdio_output@@IEAA_NXZ 00000001800635b0 f i libucrtd:output.obj
 0001:00062600       ?advance_to_next_pass@?$standard_base@_WV?$stream_output_adapter@_W@__crt_stdio_output@@@__crt_stdio_output@@IEAA_NXZ 0000000180063600 f i libucrtd:output.obj
 0001:00062650       ?advance_to_next_pass@?$standard_base@_WV?$string_output_adapter@_W@__crt_stdio_output@@@__crt_stdio_output@@IEAA_NXZ 0000000180063650 f i libucrtd:output.obj
 0001:000626a0       ?crop_zeroes@__crt_stdio_output@@YAXPEADQEAU__crt_locale_pointers@@@Z 00000001800636a0 f i libucrtd:output.obj
 0001:000627e0       ?find_next_state@?$output_processor@DV?$stream_output_adapter@D@__crt_stdio_output@@V?$format_validation_base@DV?$stream_output_adapter@D@__crt_stdio_output@@@2@@__crt_stdio_output@@AEBA?AW4state@2@DW432@@Z 00000001800637e0 f i libucrtd:output.obj
 0001:00062870       ?find_next_state@?$output_processor@DV?$stream_output_adapter@D@__crt_stdio_output@@V?$positional_parameter_base@DV?$stream_output_adapter@D@__crt_stdio_output@@@2@@__crt_stdio_output@@AEBA?AW4state@2@DW432@@Z 0000000180063870 f i libucrtd:output.obj
 0001:00062900       ?find_next_state@?$output_processor@DV?$stream_output_adapter@D@__crt_stdio_output@@V?$standard_base@DV?$stream_output_adapter@D@__crt_stdio_output@@@2@@__crt_stdio_output@@AEBA?AW4state@2@DW432@@Z 0000000180063900 f i libucrtd:output.obj
 0001:00062990       ?find_next_state@?$output_processor@DV?$string_output_adapter@D@__crt_stdio_output@@V?$format_validation_base@DV?$string_output_adapter@D@__crt_stdio_output@@@2@@__crt_stdio_output@@AEBA?AW4state@2@DW432@@Z 0000000180063990 f i libucrtd:output.obj
 0001:00062a20       ?find_next_state@?$output_processor@DV?$string_output_adapter@D@__crt_stdio_output@@V?$positional_parameter_base@DV?$string_output_adapter@D@__crt_stdio_output@@@2@@__crt_stdio_output@@AEBA?AW4state@2@DW432@@Z 0000000180063a20 f i libucrtd:output.obj
 0001:00062ab0       ?find_next_state@?$output_processor@DV?$string_output_adapter@D@__crt_stdio_output@@V?$standard_base@DV?$string_output_adapter@D@__crt_stdio_output@@@2@@__crt_stdio_output@@AEBA?AW4state@2@DW432@@Z 0000000180063ab0 f i libucrtd:output.obj
 0001:00062b40       ?find_next_state@?$output_processor@_WV?$stream_output_adapter@_W@__crt_stdio_output@@V?$format_validation_base@_WV?$stream_output_adapter@_W@__crt_stdio_output@@@2@@__crt_stdio_output@@AEBA?AW4state@2@_WW432@@Z 0000000180063b40 f i libucrtd:output.obj
 0001:00062bd0       ?find_next_state@?$output_processor@_WV?$stream_output_adapter@_W@__crt_stdio_output@@V?$positional_parameter_base@_WV?$stream_output_adapter@_W@__crt_stdio_output@@@2@@__crt_stdio_output@@AEBA?AW4state@2@_WW432@@Z 0000000180063bd0 f i libucrtd:output.obj
 0001:00062c60       ?find_next_state@?$output_processor@_WV?$stream_output_adapter@_W@__crt_stdio_output@@V?$standard_base@_WV?$stream_output_adapter@_W@__crt_stdio_output@@@2@@__crt_stdio_output@@AEBA?AW4state@2@_WW432@@Z 0000000180063c60 f i libucrtd:output.obj
 0001:00062cf0       ?find_next_state@?$output_processor@_WV?$string_output_adapter@_W@__crt_stdio_output@@V?$format_validation_base@_WV?$string_output_adapter@_W@__crt_stdio_output@@@2@@__crt_stdio_output@@AEBA?AW4state@2@_WW432@@Z 0000000180063cf0 f i libucrtd:output.obj
 0001:00062d80       ?find_next_state@?$output_processor@_WV?$string_output_adapter@_W@__crt_stdio_output@@V?$positional_parameter_base@_WV?$string_output_adapter@_W@__crt_stdio_output@@@2@@__crt_stdio_output@@AEBA?AW4state@2@_WW432@@Z 0000000180063d80 f i libucrtd:output.obj
 0001:00062e10       ?find_next_state@?$output_processor@_WV?$string_output_adapter@_W@__crt_stdio_output@@V?$standard_base@_WV?$string_output_adapter@_W@__crt_stdio_output@@@2@@__crt_stdio_output@@AEBA?AW4state@2@_WW432@@Z 0000000180063e10 f i libucrtd:output.obj
 0001:00062ea0       ?force_decimal_point@__crt_stdio_output@@YAXPEADQEAU__crt_locale_pointers@@@Z 0000000180063ea0 f i libucrtd:output.obj
 0001:00062fa0       ?get@__crt_deferred_errno_cache@@QEAAAEAHXZ 0000000180063fa0 f i libucrtd:output.obj
 0001:00062fd0       ?get_flags@__crt_stdio_stream@@QEBAJXZ 0000000180063fd0 f i libucrtd:output.obj
 0001:00063000       ?get_parameter_type@?$positional_parameter_base@DV?$stream_output_adapter@D@__crt_stdio_output@@@__crt_stdio_output@@CA?AW4parameter_type@12@F@Z 0000000180064000 f i libucrtd:output.obj
 0001:00063010       ?get_parameter_type@?$positional_parameter_base@DV?$stream_output_adapter@D@__crt_stdio_output@@@__crt_stdio_output@@CA?AW4parameter_type@12@G@Z 0000000180064010 f i libucrtd:output.obj
 0001:00063020       ?get_parameter_type@?$positional_parameter_base@DV?$stream_output_adapter@D@__crt_stdio_output@@@__crt_stdio_output@@CA?AW4parameter_type@12@H@Z 0000000180064020 f i libucrtd:output.obj
 0001:00063030       ?get_parameter_type@?$positional_parameter_base@DV?$stream_output_adapter@D@__crt_stdio_output@@@__crt_stdio_output@@CA?AW4parameter_type@12@I@Z 0000000180064030 f i libucrtd:output.obj
 0001:00063040       ?get_parameter_type@?$positional_parameter_base@DV?$stream_output_adapter@D@__crt_stdio_output@@@__crt_stdio_output@@CA?AW4parameter_type@12@U_CRT_DOUBLE@@@Z 0000000180064040 f i libucrtd:output.obj
 0001:00063050       ?get_parameter_type@?$positional_parameter_base@DV?$stream_output_adapter@D@__crt_stdio_output@@@__crt_stdio_output@@CA?AW4parameter_type@12@_J@Z 0000000180064050 f i libucrtd:output.obj
 0001:00063060       ?get_parameter_type@?$positional_parameter_base@DV?$stream_output_adapter@D@__crt_stdio_output@@@__crt_stdio_output@@CA?AW4parameter_type@12@_K@Z 0000000180064060 f i libucrtd:output.obj
 0001:00063070       ?get_parameter_type@?$positional_parameter_base@DV?$stream_output_adapter@D@__crt_stdio_output@@@__crt_stdio_output@@CA?AW4parameter_type@12@_W@Z 0000000180064070 f i libucrtd:output.obj
 0001:00063080       ?get_parameter_type@?$positional_parameter_base@DV?$string_output_adapter@D@__crt_stdio_output@@@__crt_stdio_output@@CA?AW4parameter_type@12@F@Z 0000000180064080 f i libucrtd:output.obj
 0001:00063090       ?get_parameter_type@?$positional_parameter_base@DV?$string_output_adapter@D@__crt_stdio_output@@@__crt_stdio_output@@CA?AW4parameter_type@12@G@Z 0000000180064090 f i libucrtd:output.obj
 0001:000630a0       ?get_parameter_type@?$positional_parameter_base@DV?$string_output_adapter@D@__crt_stdio_output@@@__crt_stdio_output@@CA?AW4parameter_type@12@H@Z 00000001800640a0 f i libucrtd:output.obj
 0001:000630b0       ?get_parameter_type@?$positional_parameter_base@DV?$string_output_adapter@D@__crt_stdio_output@@@__crt_stdio_output@@CA?AW4parameter_type@12@I@Z 00000001800640b0 f i libucrtd:output.obj
 0001:000630c0       ?get_parameter_type@?$positional_parameter_base@DV?$string_output_adapter@D@__crt_stdio_output@@@__crt_stdio_output@@CA?AW4parameter_type@12@U_CRT_DOUBLE@@@Z 00000001800640c0 f i libucrtd:output.obj
 0001:000630d0       ?get_parameter_type@?$positional_parameter_base@DV?$string_output_adapter@D@__crt_stdio_output@@@__crt_stdio_output@@CA?AW4parameter_type@12@_J@Z 00000001800640d0 f i libucrtd:output.obj
 0001:000630e0       ?get_parameter_type@?$positional_parameter_base@DV?$string_output_adapter@D@__crt_stdio_output@@@__crt_stdio_output@@CA?AW4parameter_type@12@_K@Z 00000001800640e0 f i libucrtd:output.obj
 0001:000630f0       ?get_parameter_type@?$positional_parameter_base@DV?$string_output_adapter@D@__crt_stdio_output@@@__crt_stdio_output@@CA?AW4parameter_type@12@_W@Z 00000001800640f0 f i libucrtd:output.obj
 0001:00063100       ?get_parameter_type@?$positional_parameter_base@_WV?$stream_output_adapter@_W@__crt_stdio_output@@@__crt_stdio_output@@CA?AW4parameter_type@12@F@Z 0000000180064100 f i libucrtd:output.obj
 0001:00063110       ?get_parameter_type@?$positional_parameter_base@_WV?$stream_output_adapter@_W@__crt_stdio_output@@@__crt_stdio_output@@CA?AW4parameter_type@12@G@Z 0000000180064110 f i libucrtd:output.obj
 0001:00063120       ?get_parameter_type@?$positional_parameter_base@_WV?$stream_output_adapter@_W@__crt_stdio_output@@@__crt_stdio_output@@CA?AW4parameter_type@12@H@Z 0000000180064120 f i libucrtd:output.obj
 0001:00063130       ?get_parameter_type@?$positional_parameter_base@_WV?$stream_output_adapter@_W@__crt_stdio_output@@@__crt_stdio_output@@CA?AW4parameter_type@12@I@Z 0000000180064130 f i libucrtd:output.obj
 0001:00063140       ?get_parameter_type@?$positional_parameter_base@_WV?$stream_output_adapter@_W@__crt_stdio_output@@@__crt_stdio_output@@CA?AW4parameter_type@12@U_CRT_DOUBLE@@@Z 0000000180064140 f i libucrtd:output.obj
 0001:00063150       ?get_parameter_type@?$positional_parameter_base@_WV?$stream_output_adapter@_W@__crt_stdio_output@@@__crt_stdio_output@@CA?AW4parameter_type@12@_J@Z 0000000180064150 f i libucrtd:output.obj
 0001:00063160       ?get_parameter_type@?$positional_parameter_base@_WV?$stream_output_adapter@_W@__crt_stdio_output@@@__crt_stdio_output@@CA?AW4parameter_type@12@_K@Z 0000000180064160 f i libucrtd:output.obj
 0001:00063170       ?get_parameter_type@?$positional_parameter_base@_WV?$stream_output_adapter@_W@__crt_stdio_output@@@__crt_stdio_output@@CA?AW4parameter_type@12@_W@Z 0000000180064170 f i libucrtd:output.obj
 0001:00063180       ?get_parameter_type@?$positional_parameter_base@_WV?$string_output_adapter@_W@__crt_stdio_output@@@__crt_stdio_output@@CA?AW4parameter_type@12@F@Z 0000000180064180 f i libucrtd:output.obj
 0001:00063190       ?get_parameter_type@?$positional_parameter_base@_WV?$string_output_adapter@_W@__crt_stdio_output@@@__crt_stdio_output@@CA?AW4parameter_type@12@G@Z 0000000180064190 f i libucrtd:output.obj
 0001:000631a0       ?get_parameter_type@?$positional_parameter_base@_WV?$string_output_adapter@_W@__crt_stdio_output@@@__crt_stdio_output@@CA?AW4parameter_type@12@H@Z 00000001800641a0 f i libucrtd:output.obj
 0001:000631b0       ?get_parameter_type@?$positional_parameter_base@_WV?$string_output_adapter@_W@__crt_stdio_output@@@__crt_stdio_output@@CA?AW4parameter_type@12@I@Z 00000001800641b0 f i libucrtd:output.obj
 0001:000631c0       ?get_parameter_type@?$positional_parameter_base@_WV?$string_output_adapter@_W@__crt_stdio_output@@@__crt_stdio_output@@CA?AW4parameter_type@12@U_CRT_DOUBLE@@@Z 00000001800641c0 f i libucrtd:output.obj
 0001:000631d0       ?get_parameter_type@?$positional_parameter_base@_WV?$string_output_adapter@_W@__crt_stdio_output@@@__crt_stdio_output@@CA?AW4parameter_type@12@_J@Z 00000001800641d0 f i libucrtd:output.obj
 0001:000631e0       ?get_parameter_type@?$positional_parameter_base@_WV?$string_output_adapter@_W@__crt_stdio_output@@@__crt_stdio_output@@CA?AW4parameter_type@12@_K@Z 00000001800641e0 f i libucrtd:output.obj
 0001:000631f0       ?get_parameter_type@?$positional_parameter_base@_WV?$string_output_adapter@_W@__crt_stdio_output@@@__crt_stdio_output@@CA?AW4parameter_type@12@_W@Z 00000001800641f0 f i libucrtd:output.obj
 0001:00063200       ?has_flag@?$output_processor@DV?$stream_output_adapter@D@__crt_stdio_output@@V?$format_validation_base@DV?$stream_output_adapter@D@__crt_stdio_output@@@2@@__crt_stdio_output@@AEBA_NI@Z 0000000180064200 f i libucrtd:output.obj
 0001:00063240       ?has_flag@?$output_processor@DV?$stream_output_adapter@D@__crt_stdio_output@@V?$positional_parameter_base@DV?$stream_output_adapter@D@__crt_stdio_output@@@2@@__crt_stdio_output@@AEBA_NI@Z 0000000180064240 f i libucrtd:output.obj
 0001:00063280       ?has_flag@?$output_processor@DV?$stream_output_adapter@D@__crt_stdio_output@@V?$standard_base@DV?$stream_output_adapter@D@__crt_stdio_output@@@2@@__crt_stdio_output@@AEBA_NI@Z 0000000180064280 f i libucrtd:output.obj
 0001:000632c0       ?has_flag@?$output_processor@DV?$string_output_adapter@D@__crt_stdio_output@@V?$format_validation_base@DV?$string_output_adapter@D@__crt_stdio_output@@@2@@__crt_stdio_output@@AEBA_NI@Z 00000001800642c0 f i libucrtd:output.obj
 0001:00063300       ?has_flag@?$output_processor@DV?$string_output_adapter@D@__crt_stdio_output@@V?$positional_parameter_base@DV?$string_output_adapter@D@__crt_stdio_output@@@2@@__crt_stdio_output@@AEBA_NI@Z 0000000180064300 f i libucrtd:output.obj
 0001:00063340       ?has_flag@?$output_processor@DV?$string_output_adapter@D@__crt_stdio_output@@V?$standard_base@DV?$string_output_adapter@D@__crt_stdio_output@@@2@@__crt_stdio_output@@AEBA_NI@Z 0000000180064340 f i libucrtd:output.obj
 0001:00063380       ?has_flag@?$output_processor@_WV?$stream_output_adapter@_W@__crt_stdio_output@@V?$format_validation_base@_WV?$stream_output_adapter@_W@__crt_stdio_output@@@2@@__crt_stdio_output@@AEBA_NI@Z 0000000180064380 f i libucrtd:output.obj
 0001:000633c0       ?has_flag@?$output_processor@_WV?$stream_output_adapter@_W@__crt_stdio_output@@V?$positional_parameter_base@_WV?$stream_output_adapter@_W@__crt_stdio_output@@@2@@__crt_stdio_output@@AEBA_NI@Z 00000001800643c0 f i libucrtd:output.obj
 0001:00063400       ?has_flag@?$output_processor@_WV?$stream_output_adapter@_W@__crt_stdio_output@@V?$standard_base@_WV?$stream_output_adapter@_W@__crt_stdio_output@@@2@@__crt_stdio_output@@AEBA_NI@Z 0000000180064400 f i libucrtd:output.obj
 0001:00063440       ?has_flag@?$output_processor@_WV?$string_output_adapter@_W@__crt_stdio_output@@V?$format_validation_base@_WV?$string_output_adapter@_W@__crt_stdio_output@@@2@@__crt_stdio_output@@AEBA_NI@Z 0000000180064440 f i libucrtd:output.obj
 0001:00063480       ?has_flag@?$output_processor@_WV?$string_output_adapter@_W@__crt_stdio_output@@V?$positional_parameter_base@_WV?$string_output_adapter@_W@__crt_stdio_output@@@2@@__crt_stdio_output@@AEBA_NI@Z 0000000180064480 f i libucrtd:output.obj
 0001:000634c0       ?has_flag@?$output_processor@_WV?$string_output_adapter@_W@__crt_stdio_output@@V?$standard_base@_WV?$string_output_adapter@_W@__crt_stdio_output@@@2@@__crt_stdio_output@@AEBA_NI@Z 00000001800644c0 f i libucrtd:output.obj
 0001:00063500       ?is_positional_parameter_reappearance_consistent@?$positional_parameter_base@DV?$stream_output_adapter@D@__crt_stdio_output@@@__crt_stdio_output@@AEAA_NAEBUparameter_data@12@W4parameter_type@12@DW4length_modifier@2@@Z 0000000180064500 f i libucrtd:output.obj
 0001:00063760       ?is_positional_parameter_reappearance_consistent@?$positional_parameter_base@DV?$string_output_adapter@D@__crt_stdio_output@@@__crt_stdio_output@@AEAA_NAEBUparameter_data@12@W4parameter_type@12@DW4length_modifier@2@@Z 0000000180064760 f i libucrtd:output.obj
 0001:000639c0       ?is_positional_parameter_reappearance_consistent@?$positional_parameter_base@_WV?$stream_output_adapter@_W@__crt_stdio_output@@@__crt_stdio_output@@AEAA_NAEBUparameter_data@12@W4parameter_type@12@_WW4length_modifier@2@@Z 00000001800649c0 f i libucrtd:output.obj
 0001:00063c20       ?is_positional_parameter_reappearance_consistent@?$positional_parameter_base@_WV?$string_output_adapter@_W@__crt_stdio_output@@@__crt_stdio_output@@AEAA_NAEBUparameter_data@12@W4parameter_type@12@_WW4length_modifier@2@@Z 0000000180064c20 f i libucrtd:output.obj
 0001:00063e80       ?is_string_backed@__crt_stdio_stream@@QEBA_NXZ 0000000180064e80 f i libucrtd:output.obj
 0001:00063ec0       ?narrow_null_string@?$output_processor@DV?$stream_output_adapter@D@__crt_stdio_output@@V?$format_validation_base@DV?$stream_output_adapter@D@__crt_stdio_output@@@2@@__crt_stdio_output@@CAPEADXZ 0000000180064ec0 f i libucrtd:output.obj
 0001:00063ed0       ?narrow_null_string@?$output_processor@DV?$stream_output_adapter@D@__crt_stdio_output@@V?$positional_parameter_base@DV?$stream_output_adapter@D@__crt_stdio_output@@@2@@__crt_stdio_output@@CAPEADXZ 0000000180064ed0 f i libucrtd:output.obj
 0001:00063ee0       ?narrow_null_string@?$output_processor@DV?$stream_output_adapter@D@__crt_stdio_output@@V?$standard_base@DV?$stream_output_adapter@D@__crt_stdio_output@@@2@@__crt_stdio_output@@CAPEADXZ 0000000180064ee0 f i libucrtd:output.obj
 0001:00063ef0       ?narrow_null_string@?$output_processor@DV?$string_output_adapter@D@__crt_stdio_output@@V?$format_validation_base@DV?$string_output_adapter@D@__crt_stdio_output@@@2@@__crt_stdio_output@@CAPEADXZ 0000000180064ef0 f i libucrtd:output.obj
 0001:00063f00       ?narrow_null_string@?$output_processor@DV?$string_output_adapter@D@__crt_stdio_output@@V?$positional_parameter_base@DV?$string_output_adapter@D@__crt_stdio_output@@@2@@__crt_stdio_output@@CAPEADXZ 0000000180064f00 f i libucrtd:output.obj
 0001:00063f10       ?narrow_null_string@?$output_processor@DV?$string_output_adapter@D@__crt_stdio_output@@V?$standard_base@DV?$string_output_adapter@D@__crt_stdio_output@@@2@@__crt_stdio_output@@CAPEADXZ 0000000180064f10 f i libucrtd:output.obj
 0001:00063f20       ?narrow_null_string@?$output_processor@_WV?$stream_output_adapter@_W@__crt_stdio_output@@V?$format_validation_base@_WV?$stream_output_adapter@_W@__crt_stdio_output@@@2@@__crt_stdio_output@@CAPEADXZ 0000000180064f20 f i libucrtd:output.obj
 0001:00063f30       ?narrow_null_string@?$output_processor@_WV?$stream_output_adapter@_W@__crt_stdio_output@@V?$positional_parameter_base@_WV?$stream_output_adapter@_W@__crt_stdio_output@@@2@@__crt_stdio_output@@CAPEADXZ 0000000180064f30 f i libucrtd:output.obj
 0001:00063f40       ?narrow_null_string@?$output_processor@_WV?$stream_output_adapter@_W@__crt_stdio_output@@V?$standard_base@_WV?$stream_output_adapter@_W@__crt_stdio_output@@@2@@__crt_stdio_output@@CAPEADXZ 0000000180064f40 f i libucrtd:output.obj
 0001:00063f50       ?narrow_null_string@?$output_processor@_WV?$string_output_adapter@_W@__crt_stdio_output@@V?$format_validation_base@_WV?$string_output_adapter@_W@__crt_stdio_output@@@2@@__crt_stdio_output@@CAPEADXZ 0000000180064f50 f i libucrtd:output.obj
 0001:00063f60       ?narrow_null_string@?$output_processor@_WV?$string_output_adapter@_W@__crt_stdio_output@@V?$positional_parameter_base@_WV?$string_output_adapter@_W@__crt_stdio_output@@@2@@__crt_stdio_output@@CAPEADXZ 0000000180064f60 f i libucrtd:output.obj
 0001:00063f70       ?narrow_null_string@?$output_processor@_WV?$string_output_adapter@_W@__crt_stdio_output@@V?$standard_base@_WV?$string_output_adapter@_W@__crt_stdio_output@@@2@@__crt_stdio_output@@CAPEADXZ 0000000180064f70 f i libucrtd:output.obj
 0001:00063f80       ?parse_int_from_format_string@?$output_processor@DV?$stream_output_adapter@D@__crt_stdio_output@@V?$format_validation_base@DV?$stream_output_adapter@D@__crt_stdio_output@@@2@@__crt_stdio_output@@AEAA_NQEAH@Z 0000000180064f80 f i libucrtd:output.obj
 0001:00064070       ?parse_int_from_format_string@?$output_processor@DV?$stream_output_adapter@D@__crt_stdio_output@@V?$positional_parameter_base@DV?$stream_output_adapter@D@__crt_stdio_output@@@2@@__crt_stdio_output@@AEAA_NQEAH@Z 0000000180065070 f i libucrtd:output.obj
 0001:00064160       ?parse_int_from_format_string@?$output_processor@DV?$stream_output_adapter@D@__crt_stdio_output@@V?$standard_base@DV?$stream_output_adapter@D@__crt_stdio_output@@@2@@__crt_stdio_output@@AEAA_NQEAH@Z 0000000180065160 f i libucrtd:output.obj
 0001:00064250       ?parse_int_from_format_string@?$output_processor@DV?$string_output_adapter@D@__crt_stdio_output@@V?$format_validation_base@DV?$string_output_adapter@D@__crt_stdio_output@@@2@@__crt_stdio_output@@AEAA_NQEAH@Z 0000000180065250 f i libucrtd:output.obj
 0001:00064340       ?parse_int_from_format_string@?$output_processor@DV?$string_output_adapter@D@__crt_stdio_output@@V?$positional_parameter_base@DV?$string_output_adapter@D@__crt_stdio_output@@@2@@__crt_stdio_output@@AEAA_NQEAH@Z 0000000180065340 f i libucrtd:output.obj
 0001:00064430       ?parse_int_from_format_string@?$output_processor@DV?$string_output_adapter@D@__crt_stdio_output@@V?$standard_base@DV?$string_output_adapter@D@__crt_stdio_output@@@2@@__crt_stdio_output@@AEAA_NQEAH@Z 0000000180065430 f i libucrtd:output.obj
 0001:00064520       ?parse_int_from_format_string@?$output_processor@_WV?$stream_output_adapter@_W@__crt_stdio_output@@V?$format_validation_base@_WV?$stream_output_adapter@_W@__crt_stdio_output@@@2@@__crt_stdio_output@@AEAA_NQEAH@Z 0000000180065520 f i libucrtd:output.obj
 0001:00064610       ?parse_int_from_format_string@?$output_processor@_WV?$stream_output_adapter@_W@__crt_stdio_output@@V?$positional_parameter_base@_WV?$stream_output_adapter@_W@__crt_stdio_output@@@2@@__crt_stdio_output@@AEAA_NQEAH@Z 0000000180065610 f i libucrtd:output.obj
 0001:00064700       ?parse_int_from_format_string@?$output_processor@_WV?$stream_output_adapter@_W@__crt_stdio_output@@V?$standard_base@_WV?$stream_output_adapter@_W@__crt_stdio_output@@@2@@__crt_stdio_output@@AEAA_NQEAH@Z 0000000180065700 f i libucrtd:output.obj
 0001:000647f0       ?parse_int_from_format_string@?$output_processor@_WV?$string_output_adapter@_W@__crt_stdio_output@@V?$format_validation_base@_WV?$string_output_adapter@_W@__crt_stdio_output@@@2@@__crt_stdio_output@@AEAA_NQEAH@Z 00000001800657f0 f i libucrtd:output.obj
 0001:000648e0       ?parse_int_from_format_string@?$output_processor@_WV?$string_output_adapter@_W@__crt_stdio_output@@V?$positional_parameter_base@_WV?$string_output_adapter@_W@__crt_stdio_output@@@2@@__crt_stdio_output@@AEAA_NQEAH@Z 00000001800658e0 f i libucrtd:output.obj
 0001:000649d0       ?parse_int_from_format_string@?$output_processor@_WV?$string_output_adapter@_W@__crt_stdio_output@@V?$standard_base@_WV?$string_output_adapter@_W@__crt_stdio_output@@@2@@__crt_stdio_output@@AEAA_NQEAH@Z 00000001800659d0 f i libucrtd:output.obj
 0001:00064ac0       ?process@?$output_processor@DV?$stream_output_adapter@D@__crt_stdio_output@@V?$format_validation_base@DV?$stream_output_adapter@D@__crt_stdio_output@@@2@@__crt_stdio_output@@QEAAHXZ 0000000180065ac0 f i libucrtd:output.obj
 0001:00064e20       ?process@?$output_processor@DV?$stream_output_adapter@D@__crt_stdio_output@@V?$positional_parameter_base@DV?$stream_output_adapter@D@__crt_stdio_output@@@2@@__crt_stdio_output@@QEAAHXZ 0000000180065e20 f i libucrtd:output.obj
 0001:00065180       ?process@?$output_processor@DV?$stream_output_adapter@D@__crt_stdio_output@@V?$standard_base@DV?$stream_output_adapter@D@__crt_stdio_output@@@2@@__crt_stdio_output@@QEAAHXZ 0000000180066180 f i libucrtd:output.obj
 0001:000654e0       ?process@?$output_processor@DV?$string_output_adapter@D@__crt_stdio_output@@V?$format_validation_base@DV?$string_output_adapter@D@__crt_stdio_output@@@2@@__crt_stdio_output@@QEAAHXZ 00000001800664e0 f i libucrtd:output.obj
 0001:00065840       ?process@?$output_processor@DV?$string_output_adapter@D@__crt_stdio_output@@V?$positional_parameter_base@DV?$string_output_adapter@D@__crt_stdio_output@@@2@@__crt_stdio_output@@QEAAHXZ 0000000180066840 f i libucrtd:output.obj
 0001:00065ba0       ?process@?$output_processor@DV?$string_output_adapter@D@__crt_stdio_output@@V?$standard_base@DV?$string_output_adapter@D@__crt_stdio_output@@@2@@__crt_stdio_output@@QEAAHXZ 0000000180066ba0 f i libucrtd:output.obj
 0001:00065f00       ?process@?$output_processor@_WV?$stream_output_adapter@_W@__crt_stdio_output@@V?$format_validation_base@_WV?$stream_output_adapter@_W@__crt_stdio_output@@@2@@__crt_stdio_output@@QEAAHXZ 0000000180066f00 f i libucrtd:output.obj
 0001:00066260       ?process@?$output_processor@_WV?$stream_output_adapter@_W@__crt_stdio_output@@V?$positional_parameter_base@_WV?$stream_output_adapter@_W@__crt_stdio_output@@@2@@__crt_stdio_output@@QEAAHXZ 0000000180067260 f i libucrtd:output.obj
 0001:000665c0       ?process@?$output_processor@_WV?$stream_output_adapter@_W@__crt_stdio_output@@V?$standard_base@_WV?$stream_output_adapter@_W@__crt_stdio_output@@@2@@__crt_stdio_output@@QEAAHXZ 00000001800675c0 f i libucrtd:output.obj
 0001:00066920       ?process@?$output_processor@_WV?$string_output_adapter@_W@__crt_stdio_output@@V?$format_validation_base@_WV?$string_output_adapter@_W@__crt_stdio_output@@@2@@__crt_stdio_output@@QEAAHXZ 0000000180067920 f i libucrtd:output.obj
 0001:00066c80       ?process@?$output_processor@_WV?$string_output_adapter@_W@__crt_stdio_output@@V?$positional_parameter_base@_WV?$string_output_adapter@_W@__crt_stdio_output@@@2@@__crt_stdio_output@@QEAAHXZ 0000000180067c80 f i libucrtd:output.obj
 0001:00066fe0       ?process@?$output_processor@_WV?$string_output_adapter@_W@__crt_stdio_output@@V?$standard_base@_WV?$string_output_adapter@_W@__crt_stdio_output@@@2@@__crt_stdio_output@@QEAAHXZ 0000000180067fe0 f i libucrtd:output.obj
 0001:00067340       ?public_stream@__crt_stdio_stream@@QEBAPEAU_iobuf@@XZ 0000000180068340 f i libucrtd:output.obj
 0001:00067350       ?set_flag@?$output_processor@DV?$stream_output_adapter@D@__crt_stdio_output@@V?$format_validation_base@DV?$stream_output_adapter@D@__crt_stdio_output@@@2@@__crt_stdio_output@@AEAAXI@Z 0000000180068350 f i libucrtd:output.obj
 0001:00067370       ?set_flag@?$output_processor@DV?$stream_output_adapter@D@__crt_stdio_output@@V?$positional_parameter_base@DV?$stream_output_adapter@D@__crt_stdio_output@@@2@@__crt_stdio_output@@AEAAXI@Z 0000000180068370 f i libucrtd:output.obj
 0001:00067390       ?set_flag@?$output_processor@DV?$stream_output_adapter@D@__crt_stdio_output@@V?$standard_base@DV?$stream_output_adapter@D@__crt_stdio_output@@@2@@__crt_stdio_output@@AEAAXI@Z 0000000180068390 f i libucrtd:output.obj
 0001:000673b0       ?set_flag@?$output_processor@DV?$string_output_adapter@D@__crt_stdio_output@@V?$format_validation_base@DV?$string_output_adapter@D@__crt_stdio_output@@@2@@__crt_stdio_output@@AEAAXI@Z 00000001800683b0 f i libucrtd:output.obj
 0001:000673d0       ?set_flag@?$output_processor@DV?$string_output_adapter@D@__crt_stdio_output@@V?$positional_parameter_base@DV?$string_output_adapter@D@__crt_stdio_output@@@2@@__crt_stdio_output@@AEAAXI@Z 00000001800683d0 f i libucrtd:output.obj
 0001:000673f0       ?set_flag@?$output_processor@DV?$string_output_adapter@D@__crt_stdio_output@@V?$standard_base@DV?$string_output_adapter@D@__crt_stdio_output@@@2@@__crt_stdio_output@@AEAAXI@Z 00000001800683f0 f i libucrtd:output.obj
 0001:00067410       ?set_flag@?$output_processor@_WV?$stream_output_adapter@_W@__crt_stdio_output@@V?$format_validation_base@_WV?$stream_output_adapter@_W@__crt_stdio_output@@@2@@__crt_stdio_output@@AEAAXI@Z 0000000180068410 f i libucrtd:output.obj
 0001:00067430       ?set_flag@?$output_processor@_WV?$stream_output_adapter@_W@__crt_stdio_output@@V?$positional_parameter_base@_WV?$stream_output_adapter@_W@__crt_stdio_output@@@2@@__crt_stdio_output@@AEAAXI@Z 0000000180068430 f i libucrtd:output.obj
 0001:00067450       ?set_flag@?$output_processor@_WV?$stream_output_adapter@_W@__crt_stdio_output@@V?$standard_base@_WV?$stream_output_adapter@_W@__crt_stdio_output@@@2@@__crt_stdio_output@@AEAAXI@Z 0000000180068450 f i libucrtd:output.obj
 0001:00067470       ?set_flag@?$output_processor@_WV?$string_output_adapter@_W@__crt_stdio_output@@V?$format_validation_base@_WV?$string_output_adapter@_W@__crt_stdio_output@@@2@@__crt_stdio_output@@AEAAXI@Z 0000000180068470 f i libucrtd:output.obj
 0001:00067490       ?set_flag@?$output_processor@_WV?$string_output_adapter@_W@__crt_stdio_output@@V?$positional_parameter_base@_WV?$string_output_adapter@_W@__crt_stdio_output@@@2@@__crt_stdio_output@@AEAAXI@Z 0000000180068490 f i libucrtd:output.obj
 0001:000674b0       ?set_flag@?$output_processor@_WV?$string_output_adapter@_W@__crt_stdio_output@@V?$standard_base@_WV?$string_output_adapter@_W@__crt_stdio_output@@@2@@__crt_stdio_output@@AEAAXI@Z 00000001800684b0 f i libucrtd:output.obj
 0001:000674d0       ?should_format@?$positional_parameter_base@DV?$stream_output_adapter@D@__crt_stdio_output@@@__crt_stdio_output@@IEAA_NXZ 00000001800684d0 f i libucrtd:output.obj
 0001:00067510       ?should_format@?$positional_parameter_base@DV?$string_output_adapter@D@__crt_stdio_output@@@__crt_stdio_output@@IEAA_NXZ 0000000180068510 f i libucrtd:output.obj
 0001:00067550       ?should_format@?$positional_parameter_base@_WV?$stream_output_adapter@_W@__crt_stdio_output@@@__crt_stdio_output@@IEAA_NXZ 0000000180068550 f i libucrtd:output.obj
 0001:00067590       ?should_format@?$positional_parameter_base@_WV?$string_output_adapter@_W@__crt_stdio_output@@@__crt_stdio_output@@IEAA_NXZ 0000000180068590 f i libucrtd:output.obj
 0001:000675d0       ?should_format@?$standard_base@DV?$stream_output_adapter@D@__crt_stdio_output@@@__crt_stdio_output@@IEAA_NXZ 00000001800685d0 f i libucrtd:output.obj
 0001:000675e0       ?should_format@?$standard_base@DV?$string_output_adapter@D@__crt_stdio_output@@@__crt_stdio_output@@IEAA_NXZ 00000001800685e0 f i libucrtd:output.obj
 0001:000675f0       ?should_format@?$standard_base@_WV?$stream_output_adapter@_W@__crt_stdio_output@@@__crt_stdio_output@@IEAA_NXZ 00000001800685f0 f i libucrtd:output.obj
 0001:00067600       ?should_format@?$standard_base@_WV?$string_output_adapter@_W@__crt_stdio_output@@@__crt_stdio_output@@IEAA_NXZ 0000000180068600 f i libucrtd:output.obj
 0001:00067610       ?should_skip_normal_state_processing@?$positional_parameter_base@DV?$stream_output_adapter@D@__crt_stdio_output@@@__crt_stdio_output@@IEAA_NXZ 0000000180068610 f i libucrtd:output.obj
 0001:00067660       ?should_skip_normal_state_processing@?$positional_parameter_base@DV?$string_output_adapter@D@__crt_stdio_output@@@__crt_stdio_output@@IEAA_NXZ 0000000180068660 f i libucrtd:output.obj
 0001:000676b0       ?should_skip_normal_state_processing@?$positional_parameter_base@_WV?$stream_output_adapter@_W@__crt_stdio_output@@@__crt_stdio_output@@IEAA_NXZ 00000001800686b0 f i libucrtd:output.obj
 0001:00067700       ?should_skip_normal_state_processing@?$positional_parameter_base@_WV?$string_output_adapter@_W@__crt_stdio_output@@@__crt_stdio_output@@IEAA_NXZ 0000000180068700 f i libucrtd:output.obj
 0001:00067750       ?should_skip_normal_state_processing@?$standard_base@DV?$stream_output_adapter@D@__crt_stdio_output@@@__crt_stdio_output@@IEAA_NXZ 0000000180068750 f i libucrtd:output.obj
 0001:00067760       ?should_skip_normal_state_processing@?$standard_base@DV?$string_output_adapter@D@__crt_stdio_output@@@__crt_stdio_output@@IEAA_NXZ 0000000180068760 f i libucrtd:output.obj
 0001:00067770       ?should_skip_normal_state_processing@?$standard_base@_WV?$stream_output_adapter@_W@__crt_stdio_output@@@__crt_stdio_output@@IEAA_NXZ 0000000180068770 f i libucrtd:output.obj
 0001:00067780       ?should_skip_normal_state_processing@?$standard_base@_WV?$string_output_adapter@_W@__crt_stdio_output@@@__crt_stdio_output@@IEAA_NXZ 0000000180068780 f i libucrtd:output.obj
 0001:00067790       ?should_skip_type_state_output@?$positional_parameter_base@DV?$stream_output_adapter@D@__crt_stdio_output@@@__crt_stdio_output@@IEBA_NXZ 0000000180068790 f i libucrtd:output.obj
 0001:000677d0       ?should_skip_type_state_output@?$positional_parameter_base@DV?$string_output_adapter@D@__crt_stdio_output@@@__crt_stdio_output@@IEBA_NXZ 00000001800687d0 f i libucrtd:output.obj
 0001:00067810       ?should_skip_type_state_output@?$positional_parameter_base@_WV?$stream_output_adapter@_W@__crt_stdio_output@@@__crt_stdio_output@@IEBA_NXZ 0000000180068810 f i libucrtd:output.obj
 0001:00067850       ?should_skip_type_state_output@?$positional_parameter_base@_WV?$string_output_adapter@_W@__crt_stdio_output@@@__crt_stdio_output@@IEBA_NXZ 0000000180068850 f i libucrtd:output.obj
 0001:00067890       ?should_skip_type_state_output@?$standard_base@DV?$stream_output_adapter@D@__crt_stdio_output@@@__crt_stdio_output@@IEBA_NXZ 0000000180068890 f i libucrtd:output.obj
 0001:000678a0       ?should_skip_type_state_output@?$standard_base@DV?$string_output_adapter@D@__crt_stdio_output@@@__crt_stdio_output@@IEBA_NXZ 00000001800688a0 f i libucrtd:output.obj
 0001:000678b0       ?should_skip_type_state_output@?$standard_base@_WV?$stream_output_adapter@_W@__crt_stdio_output@@@__crt_stdio_output@@IEBA_NXZ 00000001800688b0 f i libucrtd:output.obj
 0001:000678c0       ?should_skip_type_state_output@?$standard_base@_WV?$string_output_adapter@_W@__crt_stdio_output@@@__crt_stdio_output@@IEBA_NXZ 00000001800688c0 f i libucrtd:output.obj
 0001:000678d0       ?state_case_dot@?$output_processor@DV?$stream_output_adapter@D@__crt_stdio_output@@V?$format_validation_base@DV?$stream_output_adapter@D@__crt_stdio_output@@@2@@__crt_stdio_output@@AEAA_NXZ 00000001800688d0 f i libucrtd:output.obj
 0001:000678f0       ?state_case_dot@?$output_processor@DV?$stream_output_adapter@D@__crt_stdio_output@@V?$positional_parameter_base@DV?$stream_output_adapter@D@__crt_stdio_output@@@2@@__crt_stdio_output@@AEAA_NXZ 00000001800688f0 f i libucrtd:output.obj
 0001:00067910       ?state_case_dot@?$output_processor@DV?$stream_output_adapter@D@__crt_stdio_output@@V?$standard_base@DV?$stream_output_adapter@D@__crt_stdio_output@@@2@@__crt_stdio_output@@AEAA_NXZ 0000000180068910 f i libucrtd:output.obj
 0001:00067930       ?state_case_dot@?$output_processor@DV?$string_output_adapter@D@__crt_stdio_output@@V?$format_validation_base@DV?$string_output_adapter@D@__crt_stdio_output@@@2@@__crt_stdio_output@@AEAA_NXZ 0000000180068930 f i libucrtd:output.obj
 0001:00067950       ?state_case_dot@?$output_processor@DV?$string_output_adapter@D@__crt_stdio_output@@V?$positional_parameter_base@DV?$string_output_adapter@D@__crt_stdio_output@@@2@@__crt_stdio_output@@AEAA_NXZ 0000000180068950 f i libucrtd:output.obj
 0001:00067970       ?state_case_dot@?$output_processor@DV?$string_output_adapter@D@__crt_stdio_output@@V?$standard_base@DV?$string_output_adapter@D@__crt_stdio_output@@@2@@__crt_stdio_output@@AEAA_NXZ 0000000180068970 f i libucrtd:output.obj
 0001:00067990       ?state_case_dot@?$output_processor@_WV?$stream_output_adapter@_W@__crt_stdio_output@@V?$format_validation_base@_WV?$stream_output_adapter@_W@__crt_stdio_output@@@2@@__crt_stdio_output@@AEAA_NXZ 0000000180068990 f i libucrtd:output.obj
 0001:000679b0       ?state_case_dot@?$output_processor@_WV?$stream_output_adapter@_W@__crt_stdio_output@@V?$positional_parameter_base@_WV?$stream_output_adapter@_W@__crt_stdio_output@@@2@@__crt_stdio_output@@AEAA_NXZ 00000001800689b0 f i libucrtd:output.obj
 0001:000679d0       ?state_case_dot@?$output_processor@_WV?$stream_output_adapter@_W@__crt_stdio_output@@V?$standard_base@_WV?$stream_output_adapter@_W@__crt_stdio_output@@@2@@__crt_stdio_output@@AEAA_NXZ 00000001800689d0 f i libucrtd:output.obj
 0001:000679f0       ?state_case_dot@?$output_processor@_WV?$string_output_adapter@_W@__crt_stdio_output@@V?$format_validation_base@_WV?$string_output_adapter@_W@__crt_stdio_output@@@2@@__crt_stdio_output@@AEAA_NXZ 00000001800689f0 f i libucrtd:output.obj
 0001:00067a10       ?state_case_dot@?$output_processor@_WV?$string_output_adapter@_W@__crt_stdio_output@@V?$positional_parameter_base@_WV?$string_output_adapter@_W@__crt_stdio_output@@@2@@__crt_stdio_output@@AEAA_NXZ 0000000180068a10 f i libucrtd:output.obj
 0001:00067a30       ?state_case_dot@?$output_processor@_WV?$string_output_adapter@_W@__crt_stdio_output@@V?$standard_base@_WV?$string_output_adapter@_W@__crt_stdio_output@@@2@@__crt_stdio_output@@AEAA_NXZ 0000000180068a30 f i libucrtd:output.obj
 0001:00067a50       ?state_case_flag@?$output_processor@DV?$stream_output_adapter@D@__crt_stdio_output@@V?$format_validation_base@DV?$stream_output_adapter@D@__crt_stdio_output@@@2@@__crt_stdio_output@@AEAA_NXZ 0000000180068a50 f i libucrtd:output.obj
 0001:00067af0       ?state_case_flag@?$output_processor@DV?$stream_output_adapter@D@__crt_stdio_output@@V?$positional_parameter_base@DV?$stream_output_adapter@D@__crt_stdio_output@@@2@@__crt_stdio_output@@AEAA_NXZ 0000000180068af0 f i libucrtd:output.obj
 0001:00067b90       ?state_case_flag@?$output_processor@DV?$stream_output_adapter@D@__crt_stdio_output@@V?$standard_base@DV?$stream_output_adapter@D@__crt_stdio_output@@@2@@__crt_stdio_output@@AEAA_NXZ 0000000180068b90 f i libucrtd:output.obj
 0001:00067c30       ?state_case_flag@?$output_processor@DV?$string_output_adapter@D@__crt_stdio_output@@V?$format_validation_base@DV?$string_output_adapter@D@__crt_stdio_output@@@2@@__crt_stdio_output@@AEAA_NXZ 0000000180068c30 f i libucrtd:output.obj
 0001:00067cd0       ?state_case_flag@?$output_processor@DV?$string_output_adapter@D@__crt_stdio_output@@V?$positional_parameter_base@DV?$string_output_adapter@D@__crt_stdio_output@@@2@@__crt_stdio_output@@AEAA_NXZ 0000000180068cd0 f i libucrtd:output.obj
 0001:00067d70       ?state_case_flag@?$output_processor@DV?$string_output_adapter@D@__crt_stdio_output@@V?$standard_base@DV?$string_output_adapter@D@__crt_stdio_output@@@2@@__crt_stdio_output@@AEAA_NXZ 0000000180068d70 f i libucrtd:output.obj
 0001:00067e10       ?state_case_flag@?$output_processor@_WV?$stream_output_adapter@_W@__crt_stdio_output@@V?$format_validation_base@_WV?$stream_output_adapter@_W@__crt_stdio_output@@@2@@__crt_stdio_output@@AEAA_NXZ 0000000180068e10 f i libucrtd:output.obj
 0001:00067eb0       ?state_case_flag@?$output_processor@_WV?$stream_output_adapter@_W@__crt_stdio_output@@V?$positional_parameter_base@_WV?$stream_output_adapter@_W@__crt_stdio_output@@@2@@__crt_stdio_output@@AEAA_NXZ 0000000180068eb0 f i libucrtd:output.obj
 0001:00067f50       ?state_case_flag@?$output_processor@_WV?$stream_output_adapter@_W@__crt_stdio_output@@V?$standard_base@_WV?$stream_output_adapter@_W@__crt_stdio_output@@@2@@__crt_stdio_output@@AEAA_NXZ 0000000180068f50 f i libucrtd:output.obj
 0001:00067ff0       ?state_case_flag@?$output_processor@_WV?$string_output_adapter@_W@__crt_stdio_output@@V?$format_validation_base@_WV?$string_output_adapter@_W@__crt_stdio_output@@@2@@__crt_stdio_output@@AEAA_NXZ 0000000180068ff0 f i libucrtd:output.obj
 0001:00068090       ?state_case_flag@?$output_processor@_WV?$string_output_adapter@_W@__crt_stdio_output@@V?$positional_parameter_base@_WV?$string_output_adapter@_W@__crt_stdio_output@@@2@@__crt_stdio_output@@AEAA_NXZ 0000000180069090 f i libucrtd:output.obj
 0001:00068130       ?state_case_flag@?$output_processor@_WV?$string_output_adapter@_W@__crt_stdio_output@@V?$standard_base@_WV?$string_output_adapter@_W@__crt_stdio_output@@@2@@__crt_stdio_output@@AEAA_NXZ 0000000180069130 f i libucrtd:output.obj
 0001:000681d0       ?state_case_normal@?$output_processor@DV?$stream_output_adapter@D@__crt_stdio_output@@V?$format_validation_base@DV?$stream_output_adapter@D@__crt_stdio_output@@@2@@__crt_stdio_output@@AEAA_NXZ 00000001800691d0 f i libucrtd:output.obj
 0001:000682b0       ?state_case_normal@?$output_processor@DV?$stream_output_adapter@D@__crt_stdio_output@@V?$positional_parameter_base@DV?$stream_output_adapter@D@__crt_stdio_output@@@2@@__crt_stdio_output@@AEAA_NXZ 00000001800692b0 f i libucrtd:output.obj
 0001:00068390       ?state_case_normal@?$output_processor@DV?$stream_output_adapter@D@__crt_stdio_output@@V?$standard_base@DV?$stream_output_adapter@D@__crt_stdio_output@@@2@@__crt_stdio_output@@AEAA_NXZ 0000000180069390 f i libucrtd:output.obj
 0001:00068470       ?state_case_normal@?$output_processor@DV?$string_output_adapter@D@__crt_stdio_output@@V?$format_validation_base@DV?$string_output_adapter@D@__crt_stdio_output@@@2@@__crt_stdio_output@@AEAA_NXZ 0000000180069470 f i libucrtd:output.obj
 0001:00068550       ?state_case_normal@?$output_processor@DV?$string_output_adapter@D@__crt_stdio_output@@V?$positional_parameter_base@DV?$string_output_adapter@D@__crt_stdio_output@@@2@@__crt_stdio_output@@AEAA_NXZ 0000000180069550 f i libucrtd:output.obj
 0001:00068630       ?state_case_normal@?$output_processor@DV?$string_output_adapter@D@__crt_stdio_output@@V?$standard_base@DV?$string_output_adapter@D@__crt_stdio_output@@@2@@__crt_stdio_output@@AEAA_NXZ 0000000180069630 f i libucrtd:output.obj
 0001:00068710       ?state_case_normal@?$output_processor@_WV?$stream_output_adapter@_W@__crt_stdio_output@@V?$format_validation_base@_WV?$stream_output_adapter@_W@__crt_stdio_output@@@2@@__crt_stdio_output@@AEAA_NXZ 0000000180069710 f i libucrtd:output.obj
 0001:000687f0       ?state_case_normal@?$output_processor@_WV?$stream_output_adapter@_W@__crt_stdio_output@@V?$positional_parameter_base@_WV?$stream_output_adapter@_W@__crt_stdio_output@@@2@@__crt_stdio_output@@AEAA_NXZ 00000001800697f0 f i libucrtd:output.obj
 0001:000688d0       ?state_case_normal@?$output_processor@_WV?$stream_output_adapter@_W@__crt_stdio_output@@V?$standard_base@_WV?$stream_output_adapter@_W@__crt_stdio_output@@@2@@__crt_stdio_output@@AEAA_NXZ 00000001800698d0 f i libucrtd:output.obj
 0001:000689b0       ?state_case_normal@?$output_processor@_WV?$string_output_adapter@_W@__crt_stdio_output@@V?$format_validation_base@_WV?$string_output_adapter@_W@__crt_stdio_output@@@2@@__crt_stdio_output@@AEAA_NXZ 00000001800699b0 f i libucrtd:output.obj
 0001:00068a90       ?state_case_normal@?$output_processor@_WV?$string_output_adapter@_W@__crt_stdio_output@@V?$positional_parameter_base@_WV?$string_output_adapter@_W@__crt_stdio_output@@@2@@__crt_stdio_output@@AEAA_NXZ 0000000180069a90 f i libucrtd:output.obj
 0001:00068b70       ?state_case_normal@?$output_processor@_WV?$string_output_adapter@_W@__crt_stdio_output@@V?$standard_base@_WV?$string_output_adapter@_W@__crt_stdio_output@@@2@@__crt_stdio_output@@AEAA_NXZ 0000000180069b70 f i libucrtd:output.obj
 0001:00068c50       ?state_case_normal_common@?$output_processor@DV?$stream_output_adapter@D@__crt_stdio_output@@V?$format_validation_base@DV?$stream_output_adapter@D@__crt_stdio_output@@@2@@__crt_stdio_output@@AEAA_NXZ 0000000180069c50 f i libucrtd:output.obj
 0001:00068ca0       ?state_case_normal_common@?$output_processor@DV?$stream_output_adapter@D@__crt_stdio_output@@V?$positional_parameter_base@DV?$stream_output_adapter@D@__crt_stdio_output@@@2@@__crt_stdio_output@@AEAA_NXZ 0000000180069ca0 f i libucrtd:output.obj
 0001:00068cf0       ?state_case_normal_common@?$output_processor@DV?$stream_output_adapter@D@__crt_stdio_output@@V?$standard_base@DV?$stream_output_adapter@D@__crt_stdio_output@@@2@@__crt_stdio_output@@AEAA_NXZ 0000000180069cf0 f i libucrtd:output.obj
 0001:00068d40       ?state_case_normal_common@?$output_processor@DV?$string_output_adapter@D@__crt_stdio_output@@V?$format_validation_base@DV?$string_output_adapter@D@__crt_stdio_output@@@2@@__crt_stdio_output@@AEAA_NXZ 0000000180069d40 f i libucrtd:output.obj
 0001:00068d90       ?state_case_normal_common@?$output_processor@DV?$string_output_adapter@D@__crt_stdio_output@@V?$positional_parameter_base@DV?$string_output_adapter@D@__crt_stdio_output@@@2@@__crt_stdio_output@@AEAA_NXZ 0000000180069d90 f i libucrtd:output.obj
 0001:00068de0       ?state_case_normal_common@?$output_processor@DV?$string_output_adapter@D@__crt_stdio_output@@V?$standard_base@DV?$string_output_adapter@D@__crt_stdio_output@@@2@@__crt_stdio_output@@AEAA_NXZ 0000000180069de0 f i libucrtd:output.obj
 0001:00068e30       ?state_case_normal_common@?$output_processor@_WV?$stream_output_adapter@_W@__crt_stdio_output@@V?$format_validation_base@_WV?$stream_output_adapter@_W@__crt_stdio_output@@@2@@__crt_stdio_output@@AEAA_NXZ 0000000180069e30 f i libucrtd:output.obj
 0001:00068e80       ?state_case_normal_common@?$output_processor@_WV?$stream_output_adapter@_W@__crt_stdio_output@@V?$positional_parameter_base@_WV?$stream_output_adapter@_W@__crt_stdio_output@@@2@@__crt_stdio_output@@AEAA_NXZ 0000000180069e80 f i libucrtd:output.obj
 0001:00068ed0       ?state_case_normal_common@?$output_processor@_WV?$stream_output_adapter@_W@__crt_stdio_output@@V?$standard_base@_WV?$stream_output_adapter@_W@__crt_stdio_output@@@2@@__crt_stdio_output@@AEAA_NXZ 0000000180069ed0 f i libucrtd:output.obj
 0001:00068f20       ?state_case_normal_common@?$output_processor@_WV?$string_output_adapter@_W@__crt_stdio_output@@V?$format_validation_base@_WV?$string_output_adapter@_W@__crt_stdio_output@@@2@@__crt_stdio_output@@AEAA_NXZ 0000000180069f20 f i libucrtd:output.obj
 0001:00068f70       ?state_case_normal_common@?$output_processor@_WV?$string_output_adapter@_W@__crt_stdio_output@@V?$positional_parameter_base@_WV?$string_output_adapter@_W@__crt_stdio_output@@@2@@__crt_stdio_output@@AEAA_NXZ 0000000180069f70 f i libucrtd:output.obj
 0001:00068fc0       ?state_case_normal_common@?$output_processor@_WV?$string_output_adapter@_W@__crt_stdio_output@@V?$standard_base@_WV?$string_output_adapter@_W@__crt_stdio_output@@@2@@__crt_stdio_output@@AEAA_NXZ 0000000180069fc0 f i libucrtd:output.obj
 0001:00069010       ?state_case_normal_tchar@?$output_processor@DV?$stream_output_adapter@D@__crt_stdio_output@@V?$format_validation_base@DV?$stream_output_adapter@D@__crt_stdio_output@@@2@@__crt_stdio_output@@AEAA_ND@Z 000000018006a010 f i libucrtd:output.obj
 0001:00069150       ?state_case_normal_tchar@?$output_processor@DV?$stream_output_adapter@D@__crt_stdio_output@@V?$positional_parameter_base@DV?$stream_output_adapter@D@__crt_stdio_output@@@2@@__crt_stdio_output@@AEAA_ND@Z 000000018006a150 f i libucrtd:output.obj
 0001:00069290       ?state_case_normal_tchar@?$output_processor@DV?$stream_output_adapter@D@__crt_stdio_output@@V?$standard_base@DV?$stream_output_adapter@D@__crt_stdio_output@@@2@@__crt_stdio_output@@AEAA_ND@Z 000000018006a290 f i libucrtd:output.obj
 0001:000693d0       ?state_case_normal_tchar@?$output_processor@DV?$string_output_adapter@D@__crt_stdio_output@@V?$format_validation_base@DV?$string_output_adapter@D@__crt_stdio_output@@@2@@__crt_stdio_output@@AEAA_ND@Z 000000018006a3d0 f i libucrtd:output.obj
 0001:00069510       ?state_case_normal_tchar@?$output_processor@DV?$string_output_adapter@D@__crt_stdio_output@@V?$positional_parameter_base@DV?$string_output_adapter@D@__crt_stdio_output@@@2@@__crt_stdio_output@@AEAA_ND@Z 000000018006a510 f i libucrtd:output.obj
 0001:00069650       ?state_case_normal_tchar@?$output_processor@DV?$string_output_adapter@D@__crt_stdio_output@@V?$standard_base@DV?$string_output_adapter@D@__crt_stdio_output@@@2@@__crt_stdio_output@@AEAA_ND@Z 000000018006a650 f i libucrtd:output.obj
 0001:00069790       ?state_case_normal_tchar@?$output_processor@_WV?$stream_output_adapter@_W@__crt_stdio_output@@V?$format_validation_base@_WV?$stream_output_adapter@_W@__crt_stdio_output@@@2@@__crt_stdio_output@@AEAA_N_W@Z 000000018006a790 f i libucrtd:output.obj
 0001:000697b0       ?state_case_normal_tchar@?$output_processor@_WV?$stream_output_adapter@_W@__crt_stdio_output@@V?$positional_parameter_base@_WV?$stream_output_adapter@_W@__crt_stdio_output@@@2@@__crt_stdio_output@@AEAA_N_W@Z 000000018006a7b0 f i libucrtd:output.obj
 0001:000697d0       ?state_case_normal_tchar@?$output_processor@_WV?$stream_output_adapter@_W@__crt_stdio_output@@V?$standard_base@_WV?$stream_output_adapter@_W@__crt_stdio_output@@@2@@__crt_stdio_output@@AEAA_N_W@Z 000000018006a7d0 f i libucrtd:output.obj
 0001:000697f0       ?state_case_normal_tchar@?$output_processor@_WV?$string_output_adapter@_W@__crt_stdio_output@@V?$format_validation_base@_WV?$string_output_adapter@_W@__crt_stdio_output@@@2@@__crt_stdio_output@@AEAA_N_W@Z 000000018006a7f0 f i libucrtd:output.obj
 0001:00069810       ?state_case_normal_tchar@?$output_processor@_WV?$string_output_adapter@_W@__crt_stdio_output@@V?$positional_parameter_base@_WV?$string_output_adapter@_W@__crt_stdio_output@@@2@@__crt_stdio_output@@AEAA_N_W@Z 000000018006a810 f i libucrtd:output.obj
 0001:00069830       ?state_case_normal_tchar@?$output_processor@_WV?$string_output_adapter@_W@__crt_stdio_output@@V?$standard_base@_WV?$string_output_adapter@_W@__crt_stdio_output@@@2@@__crt_stdio_output@@AEAA_N_W@Z 000000018006a830 f i libucrtd:output.obj
 0001:00069850       ?state_case_percent@?$output_processor@DV?$stream_output_adapter@D@__crt_stdio_output@@V?$format_validation_base@DV?$stream_output_adapter@D@__crt_stdio_output@@@2@@__crt_stdio_output@@AEAA_NXZ 000000018006a850 f i libucrtd:output.obj
 0001:000698a0       ?state_case_percent@?$output_processor@DV?$stream_output_adapter@D@__crt_stdio_output@@V?$positional_parameter_base@DV?$stream_output_adapter@D@__crt_stdio_output@@@2@@__crt_stdio_output@@AEAA_NXZ 000000018006a8a0 f i libucrtd:output.obj
 0001:000698f0       ?state_case_percent@?$output_processor@DV?$stream_output_adapter@D@__crt_stdio_output@@V?$standard_base@DV?$stream_output_adapter@D@__crt_stdio_output@@@2@@__crt_stdio_output@@AEAA_NXZ 000000018006a8f0 f i libucrtd:output.obj
 0001:00069940       ?state_case_percent@?$output_processor@DV?$string_output_adapter@D@__crt_stdio_output@@V?$format_validation_base@DV?$string_output_adapter@D@__crt_stdio_output@@@2@@__crt_stdio_output@@AEAA_NXZ 000000018006a940 f i libucrtd:output.obj
 0001:00069990       ?state_case_percent@?$output_processor@DV?$string_output_adapter@D@__crt_stdio_output@@V?$positional_parameter_base@DV?$string_output_adapter@D@__crt_stdio_output@@@2@@__crt_stdio_output@@AEAA_NXZ 000000018006a990 f i libucrtd:output.obj
 0001:000699e0       ?state_case_percent@?$output_processor@DV?$string_output_adapter@D@__crt_stdio_output@@V?$standard_base@DV?$string_output_adapter@D@__crt_stdio_output@@@2@@__crt_stdio_output@@AEAA_NXZ 000000018006a9e0 f i libucrtd:output.obj
 0001:00069a30       ?state_case_percent@?$output_processor@_WV?$stream_output_adapter@_W@__crt_stdio_output@@V?$format_validation_base@_WV?$stream_output_adapter@_W@__crt_stdio_output@@@2@@__crt_stdio_output@@AEAA_NXZ 000000018006aa30 f i libucrtd:output.obj
 0001:00069a80       ?state_case_percent@?$output_processor@_WV?$stream_output_adapter@_W@__crt_stdio_output@@V?$positional_parameter_base@_WV?$stream_output_adapter@_W@__crt_stdio_output@@@2@@__crt_stdio_output@@AEAA_NXZ 000000018006aa80 f i libucrtd:output.obj
 0001:00069ad0       ?state_case_percent@?$output_processor@_WV?$stream_output_adapter@_W@__crt_stdio_output@@V?$standard_base@_WV?$stream_output_adapter@_W@__crt_stdio_output@@@2@@__crt_stdio_output@@AEAA_NXZ 000000018006aad0 f i libucrtd:output.obj
 0001:00069b20       ?state_case_percent@?$output_processor@_WV?$string_output_adapter@_W@__crt_stdio_output@@V?$format_validation_base@_WV?$string_output_adapter@_W@__crt_stdio_output@@@2@@__crt_stdio_output@@AEAA_NXZ 000000018006ab20 f i libucrtd:output.obj
 0001:00069b70       ?state_case_percent@?$output_processor@_WV?$string_output_adapter@_W@__crt_stdio_output@@V?$positional_parameter_base@_WV?$string_output_adapter@_W@__crt_stdio_output@@@2@@__crt_stdio_output@@AEAA_NXZ 000000018006ab70 f i libucrtd:output.obj
 0001:00069bc0       ?state_case_percent@?$output_processor@_WV?$string_output_adapter@_W@__crt_stdio_output@@V?$standard_base@_WV?$string_output_adapter@_W@__crt_stdio_output@@@2@@__crt_stdio_output@@AEAA_NXZ 000000018006abc0 f i libucrtd:output.obj
 0001:00069c10       ?state_case_precision@?$output_processor@DV?$stream_output_adapter@D@__crt_stdio_output@@V?$format_validation_base@DV?$stream_output_adapter@D@__crt_stdio_output@@@2@@__crt_stdio_output@@AEAA_NXZ 000000018006ac10 f i libucrtd:output.obj
 0001:00069c90       ?state_case_precision@?$output_processor@DV?$stream_output_adapter@D@__crt_stdio_output@@V?$positional_parameter_base@DV?$stream_output_adapter@D@__crt_stdio_output@@@2@@__crt_stdio_output@@AEAA_NXZ 000000018006ac90 f i libucrtd:output.obj
 0001:00069d10       ?state_case_precision@?$output_processor@DV?$stream_output_adapter@D@__crt_stdio_output@@V?$standard_base@DV?$stream_output_adapter@D@__crt_stdio_output@@@2@@__crt_stdio_output@@AEAA_NXZ 000000018006ad10 f i libucrtd:output.obj
 0001:00069d90       ?state_case_precision@?$output_processor@DV?$string_output_adapter@D@__crt_stdio_output@@V?$format_validation_base@DV?$string_output_adapter@D@__crt_stdio_output@@@2@@__crt_stdio_output@@AEAA_NXZ 000000018006ad90 f i libucrtd:output.obj
 0001:00069e10       ?state_case_precision@?$output_processor@DV?$string_output_adapter@D@__crt_stdio_output@@V?$positional_parameter_base@DV?$string_output_adapter@D@__crt_stdio_output@@@2@@__crt_stdio_output@@AEAA_NXZ 000000018006ae10 f i libucrtd:output.obj
 0001:00069e90       ?state_case_precision@?$output_processor@DV?$string_output_adapter@D@__crt_stdio_output@@V?$standard_base@DV?$string_output_adapter@D@__crt_stdio_output@@@2@@__crt_stdio_output@@AEAA_NXZ 000000018006ae90 f i libucrtd:output.obj
 0001:00069f10       ?state_case_precision@?$output_processor@_WV?$stream_output_adapter@_W@__crt_stdio_output@@V?$format_validation_base@_WV?$stream_output_adapter@_W@__crt_stdio_output@@@2@@__crt_stdio_output@@AEAA_NXZ 000000018006af10 f i libucrtd:output.obj
 0001:00069f90       ?state_case_precision@?$output_processor@_WV?$stream_output_adapter@_W@__crt_stdio_output@@V?$positional_parameter_base@_WV?$stream_output_adapter@_W@__crt_stdio_output@@@2@@__crt_stdio_output@@AEAA_NXZ 000000018006af90 f i libucrtd:output.obj
 0001:0006a010       ?state_case_precision@?$output_processor@_WV?$stream_output_adapter@_W@__crt_stdio_output@@V?$standard_base@_WV?$stream_output_adapter@_W@__crt_stdio_output@@@2@@__crt_stdio_output@@AEAA_NXZ 000000018006b010 f i libucrtd:output.obj
 0001:0006a090       ?state_case_precision@?$output_processor@_WV?$string_output_adapter@_W@__crt_stdio_output@@V?$format_validation_base@_WV?$string_output_adapter@_W@__crt_stdio_output@@@2@@__crt_stdio_output@@AEAA_NXZ 000000018006b090 f i libucrtd:output.obj
 0001:0006a110       ?state_case_precision@?$output_processor@_WV?$string_output_adapter@_W@__crt_stdio_output@@V?$positional_parameter_base@_WV?$string_output_adapter@_W@__crt_stdio_output@@@2@@__crt_stdio_output@@AEAA_NXZ 000000018006b110 f i libucrtd:output.obj
 0001:0006a190       ?state_case_precision@?$output_processor@_WV?$string_output_adapter@_W@__crt_stdio_output@@V?$standard_base@_WV?$string_output_adapter@_W@__crt_stdio_output@@@2@@__crt_stdio_output@@AEAA_NXZ 000000018006b190 f i libucrtd:output.obj
 0001:0006a210       ?state_case_size@?$output_processor@DV?$stream_output_adapter@D@__crt_stdio_output@@V?$format_validation_base@DV?$stream_output_adapter@D@__crt_stdio_output@@@2@@__crt_stdio_output@@AEAA_NXZ 000000018006b210 f i libucrtd:output.obj
 0001:0006a690       ?state_case_size@?$output_processor@DV?$stream_output_adapter@D@__crt_stdio_output@@V?$positional_parameter_base@DV?$stream_output_adapter@D@__crt_stdio_output@@@2@@__crt_stdio_output@@AEAA_NXZ 000000018006b690 f i libucrtd:output.obj
 0001:0006ab10       ?state_case_size@?$output_processor@DV?$stream_output_adapter@D@__crt_stdio_output@@V?$standard_base@DV?$stream_output_adapter@D@__crt_stdio_output@@@2@@__crt_stdio_output@@AEAA_NXZ 000000018006bb10 f i libucrtd:output.obj
 0001:0006af90       ?state_case_size@?$output_processor@DV?$string_output_adapter@D@__crt_stdio_output@@V?$format_validation_base@DV?$string_output_adapter@D@__crt_stdio_output@@@2@@__crt_stdio_output@@AEAA_NXZ 000000018006bf90 f i libucrtd:output.obj
 0001:0006b410       ?state_case_size@?$output_processor@DV?$string_output_adapter@D@__crt_stdio_output@@V?$positional_parameter_base@DV?$string_output_adapter@D@__crt_stdio_output@@@2@@__crt_stdio_output@@AEAA_NXZ 000000018006c410 f i libucrtd:output.obj
 0001:0006b890       ?state_case_size@?$output_processor@DV?$string_output_adapter@D@__crt_stdio_output@@V?$standard_base@DV?$string_output_adapter@D@__crt_stdio_output@@@2@@__crt_stdio_output@@AEAA_NXZ 000000018006c890 f i libucrtd:output.obj
 0001:0006bd10       ?state_case_size@?$output_processor@_WV?$stream_output_adapter@_W@__crt_stdio_output@@V?$format_validation_base@_WV?$stream_output_adapter@_W@__crt_stdio_output@@@2@@__crt_stdio_output@@AEAA_NXZ 000000018006cd10 f i libucrtd:output.obj
 0001:0006c190       ?state_case_size@?$output_processor@_WV?$stream_output_adapter@_W@__crt_stdio_output@@V?$positional_parameter_base@_WV?$stream_output_adapter@_W@__crt_stdio_output@@@2@@__crt_stdio_output@@AEAA_NXZ 000000018006d190 f i libucrtd:output.obj
 0001:0006c610       ?state_case_size@?$output_processor@_WV?$stream_output_adapter@_W@__crt_stdio_output@@V?$standard_base@_WV?$stream_output_adapter@_W@__crt_stdio_output@@@2@@__crt_stdio_output@@AEAA_NXZ 000000018006d610 f i libucrtd:output.obj
 0001:0006ca90       ?state_case_size@?$output_processor@_WV?$string_output_adapter@_W@__crt_stdio_output@@V?$format_validation_base@_WV?$string_output_adapter@_W@__crt_stdio_output@@@2@@__crt_stdio_output@@AEAA_NXZ 000000018006da90 f i libucrtd:output.obj
 0001:0006cf10       ?state_case_size@?$output_processor@_WV?$string_output_adapter@_W@__crt_stdio_output@@V?$positional_parameter_base@_WV?$string_output_adapter@_W@__crt_stdio_output@@@2@@__crt_stdio_output@@AEAA_NXZ 000000018006df10 f i libucrtd:output.obj
 0001:0006d390       ?state_case_size@?$output_processor@_WV?$string_output_adapter@_W@__crt_stdio_output@@V?$standard_base@_WV?$string_output_adapter@_W@__crt_stdio_output@@@2@@__crt_stdio_output@@AEAA_NXZ 000000018006e390 f i libucrtd:output.obj
 0001:0006d810       ?state_case_type@?$output_processor@DV?$stream_output_adapter@D@__crt_stdio_output@@V?$format_validation_base@DV?$stream_output_adapter@D@__crt_stdio_output@@@2@@__crt_stdio_output@@AEAA_NXZ 000000018006e810 f i libucrtd:output.obj
 0001:0006dcb0       ?state_case_type@?$output_processor@DV?$stream_output_adapter@D@__crt_stdio_output@@V?$positional_parameter_base@DV?$stream_output_adapter@D@__crt_stdio_output@@@2@@__crt_stdio_output@@AEAA_NXZ 000000018006ecb0 f i libucrtd:output.obj
 0001:0006e150       ?state_case_type@?$output_processor@DV?$stream_output_adapter@D@__crt_stdio_output@@V?$standard_base@DV?$stream_output_adapter@D@__crt_stdio_output@@@2@@__crt_stdio_output@@AEAA_NXZ 000000018006f150 f i libucrtd:output.obj
 0001:0006e5f0       ?state_case_type@?$output_processor@DV?$string_output_adapter@D@__crt_stdio_output@@V?$format_validation_base@DV?$string_output_adapter@D@__crt_stdio_output@@@2@@__crt_stdio_output@@AEAA_NXZ 000000018006f5f0 f i libucrtd:output.obj
 0001:0006ea90       ?state_case_type@?$output_processor@DV?$string_output_adapter@D@__crt_stdio_output@@V?$positional_parameter_base@DV?$string_output_adapter@D@__crt_stdio_output@@@2@@__crt_stdio_output@@AEAA_NXZ 000000018006fa90 f i libucrtd:output.obj
 0001:0006ef30       ?state_case_type@?$output_processor@DV?$string_output_adapter@D@__crt_stdio_output@@V?$standard_base@DV?$string_output_adapter@D@__crt_stdio_output@@@2@@__crt_stdio_output@@AEAA_NXZ 000000018006ff30 f i libucrtd:output.obj
 0001:0006f3d0       ?state_case_type@?$output_processor@_WV?$stream_output_adapter@_W@__crt_stdio_output@@V?$format_validation_base@_WV?$stream_output_adapter@_W@__crt_stdio_output@@@2@@__crt_stdio_output@@AEAA_NXZ 00000001800703d0 f i libucrtd:output.obj
 0001:0006f930       ?state_case_type@?$output_processor@_WV?$stream_output_adapter@_W@__crt_stdio_output@@V?$positional_parameter_base@_WV?$stream_output_adapter@_W@__crt_stdio_output@@@2@@__crt_stdio_output@@AEAA_NXZ 0000000180070930 f i libucrtd:output.obj
 0001:0006fe90       ?state_case_type@?$output_processor@_WV?$stream_output_adapter@_W@__crt_stdio_output@@V?$standard_base@_WV?$stream_output_adapter@_W@__crt_stdio_output@@@2@@__crt_stdio_output@@AEAA_NXZ 0000000180070e90 f i libucrtd:output.obj
 0001:000703f0       ?state_case_type@?$output_processor@_WV?$string_output_adapter@_W@__crt_stdio_output@@V?$format_validation_base@_WV?$string_output_adapter@_W@__crt_stdio_output@@@2@@__crt_stdio_output@@AEAA_NXZ 00000001800713f0 f i libucrtd:output.obj
 0001:00070950       ?state_case_type@?$output_processor@_WV?$string_output_adapter@_W@__crt_stdio_output@@V?$positional_parameter_base@_WV?$string_output_adapter@_W@__crt_stdio_output@@@2@@__crt_stdio_output@@AEAA_NXZ 0000000180071950 f i libucrtd:output.obj
 0001:00070eb0       ?state_case_type@?$output_processor@_WV?$string_output_adapter@_W@__crt_stdio_output@@V?$standard_base@_WV?$string_output_adapter@_W@__crt_stdio_output@@@2@@__crt_stdio_output@@AEAA_NXZ 0000000180071eb0 f i libucrtd:output.obj
 0001:00071410       ?state_case_width@?$output_processor@DV?$stream_output_adapter@D@__crt_stdio_output@@V?$format_validation_base@DV?$stream_output_adapter@D@__crt_stdio_output@@@2@@__crt_stdio_output@@AEAA_NXZ 0000000180072410 f i libucrtd:output.obj
 0001:000714a0       ?state_case_width@?$output_processor@DV?$stream_output_adapter@D@__crt_stdio_output@@V?$positional_parameter_base@DV?$stream_output_adapter@D@__crt_stdio_output@@@2@@__crt_stdio_output@@AEAA_NXZ 00000001800724a0 f i libucrtd:output.obj
 0001:00071530       ?state_case_width@?$output_processor@DV?$stream_output_adapter@D@__crt_stdio_output@@V?$standard_base@DV?$stream_output_adapter@D@__crt_stdio_output@@@2@@__crt_stdio_output@@AEAA_NXZ 0000000180072530 f i libucrtd:output.obj
 0001:000715c0       ?state_case_width@?$output_processor@DV?$string_output_adapter@D@__crt_stdio_output@@V?$format_validation_base@DV?$string_output_adapter@D@__crt_stdio_output@@@2@@__crt_stdio_output@@AEAA_NXZ 00000001800725c0 f i libucrtd:output.obj
 0001:00071650       ?state_case_width@?$output_processor@DV?$string_output_adapter@D@__crt_stdio_output@@V?$positional_parameter_base@DV?$string_output_adapter@D@__crt_stdio_output@@@2@@__crt_stdio_output@@AEAA_NXZ 0000000180072650 f i libucrtd:output.obj
 0001:000716e0       ?state_case_width@?$output_processor@DV?$string_output_adapter@D@__crt_stdio_output@@V?$standard_base@DV?$string_output_adapter@D@__crt_stdio_output@@@2@@__crt_stdio_output@@AEAA_NXZ 00000001800726e0 f i libucrtd:output.obj
 0001:00071770       ?state_case_width@?$output_processor@_WV?$stream_output_adapter@_W@__crt_stdio_output@@V?$format_validation_base@_WV?$stream_output_adapter@_W@__crt_stdio_output@@@2@@__crt_stdio_output@@AEAA_NXZ 0000000180072770 f i libucrtd:output.obj
 0001:00071800       ?state_case_width@?$output_processor@_WV?$stream_output_adapter@_W@__crt_stdio_output@@V?$positional_parameter_base@_WV?$stream_output_adapter@_W@__crt_stdio_output@@@2@@__crt_stdio_output@@AEAA_NXZ 0000000180072800 f i libucrtd:output.obj
 0001:00071890       ?state_case_width@?$output_processor@_WV?$stream_output_adapter@_W@__crt_stdio_output@@V?$standard_base@_WV?$stream_output_adapter@_W@__crt_stdio_output@@@2@@__crt_stdio_output@@AEAA_NXZ 0000000180072890 f i libucrtd:output.obj
 0001:00071920       ?state_case_width@?$output_processor@_WV?$string_output_adapter@_W@__crt_stdio_output@@V?$format_validation_base@_WV?$string_output_adapter@_W@__crt_stdio_output@@@2@@__crt_stdio_output@@AEAA_NXZ 0000000180072920 f i libucrtd:output.obj
 0001:000719b0       ?state_case_width@?$output_processor@_WV?$string_output_adapter@_W@__crt_stdio_output@@V?$positional_parameter_base@_WV?$string_output_adapter@_W@__crt_stdio_output@@@2@@__crt_stdio_output@@AEAA_NXZ 00000001800729b0 f i libucrtd:output.obj
 0001:00071a40       ?state_case_width@?$output_processor@_WV?$string_output_adapter@_W@__crt_stdio_output@@V?$standard_base@_WV?$string_output_adapter@_W@__crt_stdio_output@@@2@@__crt_stdio_output@@AEAA_NXZ 0000000180072a40 f i libucrtd:output.obj
 0001:00071ad0       ?state_count@?$format_validation_base@DV?$stream_output_adapter@D@__crt_stdio_output@@@__crt_stdio_output@@KAIXZ 0000000180072ad0 f i libucrtd:output.obj
 0001:00071ae0       ?state_count@?$format_validation_base@DV?$string_output_adapter@D@__crt_stdio_output@@@__crt_stdio_output@@KAIXZ 0000000180072ae0 f i libucrtd:output.obj
 0001:00071af0       ?state_count@?$format_validation_base@_WV?$stream_output_adapter@_W@__crt_stdio_output@@@__crt_stdio_output@@KAIXZ 0000000180072af0 f i libucrtd:output.obj
 0001:00071b00       ?state_count@?$format_validation_base@_WV?$string_output_adapter@_W@__crt_stdio_output@@@__crt_stdio_output@@KAIXZ 0000000180072b00 f i libucrtd:output.obj
 0001:00071b10       ?state_count@?$standard_base@DV?$stream_output_adapter@D@__crt_stdio_output@@@__crt_stdio_output@@KAIXZ 0000000180072b10 f i libucrtd:output.obj
 0001:00071b20       ?state_count@?$standard_base@DV?$string_output_adapter@D@__crt_stdio_output@@@__crt_stdio_output@@KAIXZ 0000000180072b20 f i libucrtd:output.obj
 0001:00071b30       ?state_count@?$standard_base@_WV?$stream_output_adapter@_W@__crt_stdio_output@@@__crt_stdio_output@@KAIXZ 0000000180072b30 f i libucrtd:output.obj
 0001:00071b40       ?state_count@?$standard_base@_WV?$string_output_adapter@_W@__crt_stdio_output@@@__crt_stdio_output@@KAIXZ 0000000180072b40 f i libucrtd:output.obj
 0001:00071b50       ?state_transition_table@?$format_validation_base@DV?$stream_output_adapter@D@__crt_stdio_output@@@__crt_stdio_output@@KAAEBV?$spectre_mitigated_lookup_table@Ustate_transition_pair@__crt_stdio_output@@$0IA@@2@XZ 0000000180072b50 f i libucrtd:output.obj
 0001:00071b60       ?state_transition_table@?$format_validation_base@DV?$string_output_adapter@D@__crt_stdio_output@@@__crt_stdio_output@@KAAEBV?$spectre_mitigated_lookup_table@Ustate_transition_pair@__crt_stdio_output@@$0IA@@2@XZ 0000000180072b60 f i libucrtd:output.obj
 0001:00071b70       ?state_transition_table@?$format_validation_base@_WV?$stream_output_adapter@_W@__crt_stdio_output@@@__crt_stdio_output@@KAAEBV?$spectre_mitigated_lookup_table@Ustate_transition_pair@__crt_stdio_output@@$0IA@@2@XZ 0000000180072b70 f i libucrtd:output.obj
 0001:00071b80       ?state_transition_table@?$format_validation_base@_WV?$string_output_adapter@_W@__crt_stdio_output@@@__crt_stdio_output@@KAAEBV?$spectre_mitigated_lookup_table@Ustate_transition_pair@__crt_stdio_output@@$0IA@@2@XZ 0000000180072b80 f i libucrtd:output.obj
 0001:00071b90       ?state_transition_table@?$standard_base@DV?$stream_output_adapter@D@__crt_stdio_output@@@__crt_stdio_output@@KAAEBV?$spectre_mitigated_lookup_table@Ustate_transition_pair@__crt_stdio_output@@$0IA@@2@XZ 0000000180072b90 f i libucrtd:output.obj
 0001:00071ba0       ?state_transition_table@?$standard_base@DV?$string_output_adapter@D@__crt_stdio_output@@@__crt_stdio_output@@KAAEBV?$spectre_mitigated_lookup_table@Ustate_transition_pair@__crt_stdio_output@@$0IA@@2@XZ 0000000180072ba0 f i libucrtd:output.obj
 0001:00071bb0       ?state_transition_table@?$standard_base@_WV?$stream_output_adapter@_W@__crt_stdio_output@@@__crt_stdio_output@@KAAEBV?$spectre_mitigated_lookup_table@Ustate_transition_pair@__crt_stdio_output@@$0IA@@2@XZ 0000000180072bb0 f i libucrtd:output.obj
 0001:00071bc0       ?state_transition_table@?$standard_base@_WV?$string_output_adapter@_W@__crt_stdio_output@@@__crt_stdio_output@@KAAEBV?$spectre_mitigated_lookup_table@Ustate_transition_pair@__crt_stdio_output@@$0IA@@2@XZ 0000000180072bc0 f i libucrtd:output.obj
 0001:00071bd0       ?tchar_string@?$common_data@D@__crt_stdio_output@@IEAAAEAPEADD@Z 0000000180072bd0 f i libucrtd:output.obj
 0001:00071bf0       ?tchar_string@?$common_data@D@__crt_stdio_output@@IEAAAEAPEADXZ 0000000180072bf0 f i libucrtd:output.obj
 0001:00071c10       ?tchar_string@?$common_data@_W@__crt_stdio_output@@IEAAAEAPEA_WXZ 0000000180072c10 f i libucrtd:output.obj
 0001:00071c30       ?tchar_string@?$common_data@_W@__crt_stdio_output@@IEAAAEAPEA_W_W@Z 0000000180072c30 f i libucrtd:output.obj
 0001:00071c50       ?to_integer_size@__crt_stdio_output@@YA_KW4length_modifier@1@@Z 0000000180072c50 f i libucrtd:output.obj
 0001:00071d00       ?type_case_X@?$output_processor@DV?$stream_output_adapter@D@__crt_stdio_output@@V?$format_validation_base@DV?$stream_output_adapter@D@__crt_stdio_output@@@2@@__crt_stdio_output@@AEAA_NXZ 0000000180072d00 f i libucrtd:output.obj
 0001:00071d20       ?type_case_X@?$output_processor@DV?$stream_output_adapter@D@__crt_stdio_output@@V?$positional_parameter_base@DV?$stream_output_adapter@D@__crt_stdio_output@@@2@@__crt_stdio_output@@AEAA_NXZ 0000000180072d20 f i libucrtd:output.obj
 0001:00071d40       ?type_case_X@?$output_processor@DV?$stream_output_adapter@D@__crt_stdio_output@@V?$standard_base@DV?$stream_output_adapter@D@__crt_stdio_output@@@2@@__crt_stdio_output@@AEAA_NXZ 0000000180072d40 f i libucrtd:output.obj
 0001:00071d60       ?type_case_X@?$output_processor@DV?$string_output_adapter@D@__crt_stdio_output@@V?$format_validation_base@DV?$string_output_adapter@D@__crt_stdio_output@@@2@@__crt_stdio_output@@AEAA_NXZ 0000000180072d60 f i libucrtd:output.obj
 0001:00071d80       ?type_case_X@?$output_processor@DV?$string_output_adapter@D@__crt_stdio_output@@V?$positional_parameter_base@DV?$string_output_adapter@D@__crt_stdio_output@@@2@@__crt_stdio_output@@AEAA_NXZ 0000000180072d80 f i libucrtd:output.obj
 0001:00071da0       ?type_case_X@?$output_processor@DV?$string_output_adapter@D@__crt_stdio_output@@V?$standard_base@DV?$string_output_adapter@D@__crt_stdio_output@@@2@@__crt_stdio_output@@AEAA_NXZ 0000000180072da0 f i libucrtd:output.obj
 0001:00071dc0       ?type_case_X@?$output_processor@_WV?$stream_output_adapter@_W@__crt_stdio_output@@V?$format_validation_base@_WV?$stream_output_adapter@_W@__crt_stdio_output@@@2@@__crt_stdio_output@@AEAA_NXZ 0000000180072dc0 f i libucrtd:output.obj
 0001:00071de0       ?type_case_X@?$output_processor@_WV?$stream_output_adapter@_W@__crt_stdio_output@@V?$positional_parameter_base@_WV?$stream_output_adapter@_W@__crt_stdio_output@@@2@@__crt_stdio_output@@AEAA_NXZ 0000000180072de0 f i libucrtd:output.obj
 0001:00071e00       ?type_case_X@?$output_processor@_WV?$stream_output_adapter@_W@__crt_stdio_output@@V?$standard_base@_WV?$stream_output_adapter@_W@__crt_stdio_output@@@2@@__crt_stdio_output@@AEAA_NXZ 0000000180072e00 f i libucrtd:output.obj
 0001:00071e20       ?type_case_X@?$output_processor@_WV?$string_output_adapter@_W@__crt_stdio_output@@V?$format_validation_base@_WV?$string_output_adapter@_W@__crt_stdio_output@@@2@@__crt_stdio_output@@AEAA_NXZ 0000000180072e20 f i libucrtd:output.obj
 0001:00071e40       ?type_case_X@?$output_processor@_WV?$string_output_adapter@_W@__crt_stdio_output@@V?$positional_parameter_base@_WV?$string_output_adapter@_W@__crt_stdio_output@@@2@@__crt_stdio_output@@AEAA_NXZ 0000000180072e40 f i libucrtd:output.obj
 0001:00071e60       ?type_case_X@?$output_processor@_WV?$string_output_adapter@_W@__crt_stdio_output@@V?$standard_base@_WV?$string_output_adapter@_W@__crt_stdio_output@@@2@@__crt_stdio_output@@AEAA_NXZ 0000000180072e60 f i libucrtd:output.obj
 0001:00071e80       ?type_case_Z@?$output_processor@DV?$stream_output_adapter@D@__crt_stdio_output@@V?$format_validation_base@DV?$stream_output_adapter@D@__crt_stdio_output@@@2@@__crt_stdio_output@@AEAA_NXZ 0000000180072e80 f i libucrtd:output.obj
 0001:00071fa0       ?type_case_Z@?$output_processor@DV?$stream_output_adapter@D@__crt_stdio_output@@V?$positional_parameter_base@DV?$stream_output_adapter@D@__crt_stdio_output@@@2@@__crt_stdio_output@@AEAA_NXZ 0000000180072fa0 f i libucrtd:output.obj
 0001:000720c0       ?type_case_Z@?$output_processor@DV?$stream_output_adapter@D@__crt_stdio_output@@V?$standard_base@DV?$stream_output_adapter@D@__crt_stdio_output@@@2@@__crt_stdio_output@@AEAA_NXZ 00000001800730c0 f i libucrtd:output.obj
 0001:000721e0       ?type_case_Z@?$output_processor@DV?$string_output_adapter@D@__crt_stdio_output@@V?$format_validation_base@DV?$string_output_adapter@D@__crt_stdio_output@@@2@@__crt_stdio_output@@AEAA_NXZ 00000001800731e0 f i libucrtd:output.obj
 0001:00072300       ?type_case_Z@?$output_processor@DV?$string_output_adapter@D@__crt_stdio_output@@V?$positional_parameter_base@DV?$string_output_adapter@D@__crt_stdio_output@@@2@@__crt_stdio_output@@AEAA_NXZ 0000000180073300 f i libucrtd:output.obj
 0001:00072420       ?type_case_Z@?$output_processor@DV?$string_output_adapter@D@__crt_stdio_output@@V?$standard_base@DV?$string_output_adapter@D@__crt_stdio_output@@@2@@__crt_stdio_output@@AEAA_NXZ 0000000180073420 f i libucrtd:output.obj
 0001:00072540       ?type_case_Z@?$output_processor@_WV?$stream_output_adapter@_W@__crt_stdio_output@@V?$format_validation_base@_WV?$stream_output_adapter@_W@__crt_stdio_output@@@2@@__crt_stdio_output@@AEAA_NXZ 0000000180073540 f i libucrtd:output.obj
 0001:00072660       ?type_case_Z@?$output_processor@_WV?$stream_output_adapter@_W@__crt_stdio_output@@V?$positional_parameter_base@_WV?$stream_output_adapter@_W@__crt_stdio_output@@@2@@__crt_stdio_output@@AEAA_NXZ 0000000180073660 f i libucrtd:output.obj
 0001:00072780       ?type_case_Z@?$output_processor@_WV?$stream_output_adapter@_W@__crt_stdio_output@@V?$standard_base@_WV?$stream_output_adapter@_W@__crt_stdio_output@@@2@@__crt_stdio_output@@AEAA_NXZ 0000000180073780 f i libucrtd:output.obj
 0001:000728a0       ?type_case_Z@?$output_processor@_WV?$string_output_adapter@_W@__crt_stdio_output@@V?$format_validation_base@_WV?$string_output_adapter@_W@__crt_stdio_output@@@2@@__crt_stdio_output@@AEAA_NXZ 00000001800738a0 f i libucrtd:output.obj
 0001:000729c0       ?type_case_Z@?$output_processor@_WV?$string_output_adapter@_W@__crt_stdio_output@@V?$positional_parameter_base@_WV?$string_output_adapter@_W@__crt_stdio_output@@@2@@__crt_stdio_output@@AEAA_NXZ 00000001800739c0 f i libucrtd:output.obj
 0001:00072ae0       ?type_case_Z@?$output_processor@_WV?$string_output_adapter@_W@__crt_stdio_output@@V?$standard_base@_WV?$string_output_adapter@_W@__crt_stdio_output@@@2@@__crt_stdio_output@@AEAA_NXZ 0000000180073ae0 f i libucrtd:output.obj
 0001:00072c00       ?type_case_a@?$output_processor@DV?$stream_output_adapter@D@__crt_stdio_output@@V?$format_validation_base@DV?$stream_output_adapter@D@__crt_stdio_output@@@2@@__crt_stdio_output@@AEAA_NXZ 0000000180073c00 f i libucrtd:output.obj
 0001:00072fd0       ?type_case_a@?$output_processor@DV?$stream_output_adapter@D@__crt_stdio_output@@V?$positional_parameter_base@DV?$stream_output_adapter@D@__crt_stdio_output@@@2@@__crt_stdio_output@@AEAA_NXZ 0000000180073fd0 f i libucrtd:output.obj
 0001:000733a0       ?type_case_a@?$output_processor@DV?$stream_output_adapter@D@__crt_stdio_output@@V?$standard_base@DV?$stream_output_adapter@D@__crt_stdio_output@@@2@@__crt_stdio_output@@AEAA_NXZ 00000001800743a0 f i libucrtd:output.obj
 0001:00073770       ?type_case_a@?$output_processor@DV?$string_output_adapter@D@__crt_stdio_output@@V?$format_validation_base@DV?$string_output_adapter@D@__crt_stdio_output@@@2@@__crt_stdio_output@@AEAA_NXZ 0000000180074770 f i libucrtd:output.obj
 0001:00073b40       ?type_case_a@?$output_processor@DV?$string_output_adapter@D@__crt_stdio_output@@V?$positional_parameter_base@DV?$string_output_adapter@D@__crt_stdio_output@@@2@@__crt_stdio_output@@AEAA_NXZ 0000000180074b40 f i libucrtd:output.obj
 0001:00073f10       ?type_case_a@?$output_processor@DV?$string_output_adapter@D@__crt_stdio_output@@V?$standard_base@DV?$string_output_adapter@D@__crt_stdio_output@@@2@@__crt_stdio_output@@AEAA_NXZ 0000000180074f10 f i libucrtd:output.obj
 0001:000742e0       ?type_case_a@?$output_processor@_WV?$stream_output_adapter@_W@__crt_stdio_output@@V?$format_validation_base@_WV?$stream_output_adapter@_W@__crt_stdio_output@@@2@@__crt_stdio_output@@AEAA_NXZ 00000001800752e0 f i libucrtd:output.obj
 0001:000746b0       ?type_case_a@?$output_processor@_WV?$stream_output_adapter@_W@__crt_stdio_output@@V?$positional_parameter_base@_WV?$stream_output_adapter@_W@__crt_stdio_output@@@2@@__crt_stdio_output@@AEAA_NXZ 00000001800756b0 f i libucrtd:output.obj
 0001:00074a80       ?type_case_a@?$output_processor@_WV?$stream_output_adapter@_W@__crt_stdio_output@@V?$standard_base@_WV?$stream_output_adapter@_W@__crt_stdio_output@@@2@@__crt_stdio_output@@AEAA_NXZ 0000000180075a80 f i libucrtd:output.obj
 0001:00074e50       ?type_case_a@?$output_processor@_WV?$string_output_adapter@_W@__crt_stdio_output@@V?$format_validation_base@_WV?$string_output_adapter@_W@__crt_stdio_output@@@2@@__crt_stdio_output@@AEAA_NXZ 0000000180075e50 f i libucrtd:output.obj
 0001:00075220       ?type_case_a@?$output_processor@_WV?$string_output_adapter@_W@__crt_stdio_output@@V?$positional_parameter_base@_WV?$string_output_adapter@_W@__crt_stdio_output@@@2@@__crt_stdio_output@@AEAA_NXZ 0000000180076220 f i libucrtd:output.obj
 0001:000755f0       ?type_case_a@?$output_processor@_WV?$string_output_adapter@_W@__crt_stdio_output@@V?$standard_base@_WV?$string_output_adapter@_W@__crt_stdio_output@@@2@@__crt_stdio_output@@AEAA_NXZ 00000001800765f0 f i libucrtd:output.obj
 0001:000759c0       ?type_case_c@?$output_processor@DV?$stream_output_adapter@D@__crt_stdio_output@@V?$format_validation_base@DV?$stream_output_adapter@D@__crt_stdio_output@@@2@@__crt_stdio_output@@AEAA_NXZ 00000001800769c0 f i libucrtd:output.obj
 0001:000759e0       ?type_case_c@?$output_processor@DV?$stream_output_adapter@D@__crt_stdio_output@@V?$positional_parameter_base@DV?$stream_output_adapter@D@__crt_stdio_output@@@2@@__crt_stdio_output@@AEAA_NXZ 00000001800769e0 f i libucrtd:output.obj
 0001:00075a00       ?type_case_c@?$output_processor@DV?$stream_output_adapter@D@__crt_stdio_output@@V?$standard_base@DV?$stream_output_adapter@D@__crt_stdio_output@@@2@@__crt_stdio_output@@AEAA_NXZ 0000000180076a00 f i libucrtd:output.obj
 0001:00075a20       ?type_case_c@?$output_processor@DV?$string_output_adapter@D@__crt_stdio_output@@V?$format_validation_base@DV?$string_output_adapter@D@__crt_stdio_output@@@2@@__crt_stdio_output@@AEAA_NXZ 0000000180076a20 f i libucrtd:output.obj
 0001:00075a40       ?type_case_c@?$output_processor@DV?$string_output_adapter@D@__crt_stdio_output@@V?$positional_parameter_base@DV?$string_output_adapter@D@__crt_stdio_output@@@2@@__crt_stdio_output@@AEAA_NXZ 0000000180076a40 f i libucrtd:output.obj
 0001:00075a60       ?type_case_c@?$output_processor@DV?$string_output_adapter@D@__crt_stdio_output@@V?$standard_base@DV?$string_output_adapter@D@__crt_stdio_output@@@2@@__crt_stdio_output@@AEAA_NXZ 0000000180076a60 f i libucrtd:output.obj
 0001:00075a80       ?type_case_c@?$output_processor@_WV?$stream_output_adapter@_W@__crt_stdio_output@@V?$format_validation_base@_WV?$stream_output_adapter@_W@__crt_stdio_output@@@2@@__crt_stdio_output@@AEAA_NXZ 0000000180076a80 f i libucrtd:output.obj
 0001:00075aa0       ?type_case_c@?$output_processor@_WV?$stream_output_adapter@_W@__crt_stdio_output@@V?$positional_parameter_base@_WV?$stream_output_adapter@_W@__crt_stdio_output@@@2@@__crt_stdio_output@@AEAA_NXZ 0000000180076aa0 f i libucrtd:output.obj
 0001:00075ac0       ?type_case_c@?$output_processor@_WV?$stream_output_adapter@_W@__crt_stdio_output@@V?$standard_base@_WV?$stream_output_adapter@_W@__crt_stdio_output@@@2@@__crt_stdio_output@@AEAA_NXZ 0000000180076ac0 f i libucrtd:output.obj
 0001:00075ae0       ?type_case_c@?$output_processor@_WV?$string_output_adapter@_W@__crt_stdio_output@@V?$format_validation_base@_WV?$string_output_adapter@_W@__crt_stdio_output@@@2@@__crt_stdio_output@@AEAA_NXZ 0000000180076ae0 f i libucrtd:output.obj
 0001:00075b00       ?type_case_c@?$output_processor@_WV?$string_output_adapter@_W@__crt_stdio_output@@V?$positional_parameter_base@_WV?$string_output_adapter@_W@__crt_stdio_output@@@2@@__crt_stdio_output@@AEAA_NXZ 0000000180076b00 f i libucrtd:output.obj
 0001:00075b20       ?type_case_c@?$output_processor@_WV?$string_output_adapter@_W@__crt_stdio_output@@V?$standard_base@_WV?$string_output_adapter@_W@__crt_stdio_output@@@2@@__crt_stdio_output@@AEAA_NXZ 0000000180076b20 f i libucrtd:output.obj
 0001:00075b40       ?type_case_c_tchar@?$output_processor@DV?$stream_output_adapter@D@__crt_stdio_output@@V?$format_validation_base@DV?$stream_output_adapter@D@__crt_stdio_output@@@2@@__crt_stdio_output@@AEAA_ND@Z 0000000180076b40 f i libucrtd:output.obj
 0001:00075ca0       ?type_case_c_tchar@?$output_processor@DV?$stream_output_adapter@D@__crt_stdio_output@@V?$positional_parameter_base@DV?$stream_output_adapter@D@__crt_stdio_output@@@2@@__crt_stdio_output@@AEAA_ND@Z 0000000180076ca0 f i libucrtd:output.obj
 0001:00075e00       ?type_case_c_tchar@?$output_processor@DV?$stream_output_adapter@D@__crt_stdio_output@@V?$standard_base@DV?$stream_output_adapter@D@__crt_stdio_output@@@2@@__crt_stdio_output@@AEAA_ND@Z 0000000180076e00 f i libucrtd:output.obj
 0001:00075f60       ?type_case_c_tchar@?$output_processor@DV?$string_output_adapter@D@__crt_stdio_output@@V?$format_validation_base@DV?$string_output_adapter@D@__crt_stdio_output@@@2@@__crt_stdio_output@@AEAA_ND@Z 0000000180076f60 f i libucrtd:output.obj
 0001:000760c0       ?type_case_c_tchar@?$output_processor@DV?$string_output_adapter@D@__crt_stdio_output@@V?$positional_parameter_base@DV?$string_output_adapter@D@__crt_stdio_output@@@2@@__crt_stdio_output@@AEAA_ND@Z 00000001800770c0 f i libucrtd:output.obj
 0001:00076220       ?type_case_c_tchar@?$output_processor@DV?$string_output_adapter@D@__crt_stdio_output@@V?$standard_base@DV?$string_output_adapter@D@__crt_stdio_output@@@2@@__crt_stdio_output@@AEAA_ND@Z 0000000180077220 f i libucrtd:output.obj
 0001:00076380       ?type_case_c_tchar@?$output_processor@_WV?$stream_output_adapter@_W@__crt_stdio_output@@V?$format_validation_base@_WV?$stream_output_adapter@_W@__crt_stdio_output@@@2@@__crt_stdio_output@@AEAA_N_W@Z 0000000180077380 f i libucrtd:output.obj
 0001:000764b0       ?type_case_c_tchar@?$output_processor@_WV?$stream_output_adapter@_W@__crt_stdio_output@@V?$positional_parameter_base@_WV?$stream_output_adapter@_W@__crt_stdio_output@@@2@@__crt_stdio_output@@AEAA_N_W@Z 00000001800774b0 f i libucrtd:output.obj
 0001:000765e0       ?type_case_c_tchar@?$output_processor@_WV?$stream_output_adapter@_W@__crt_stdio_output@@V?$standard_base@_WV?$stream_output_adapter@_W@__crt_stdio_output@@@2@@__crt_stdio_output@@AEAA_N_W@Z 00000001800775e0 f i libucrtd:output.obj
 0001:00076710       ?type_case_c_tchar@?$output_processor@_WV?$string_output_adapter@_W@__crt_stdio_output@@V?$format_validation_base@_WV?$string_output_adapter@_W@__crt_stdio_output@@@2@@__crt_stdio_output@@AEAA_N_W@Z 0000000180077710 f i libucrtd:output.obj
 0001:00076840       ?type_case_c_tchar@?$output_processor@_WV?$string_output_adapter@_W@__crt_stdio_output@@V?$positional_parameter_base@_WV?$string_output_adapter@_W@__crt_stdio_output@@@2@@__crt_stdio_output@@AEAA_N_W@Z 0000000180077840 f i libucrtd:output.obj
 0001:00076970       ?type_case_c_tchar@?$output_processor@_WV?$string_output_adapter@_W@__crt_stdio_output@@V?$standard_base@_WV?$string_output_adapter@_W@__crt_stdio_output@@@2@@__crt_stdio_output@@AEAA_N_W@Z 0000000180077970 f i libucrtd:output.obj
 0001:00076aa0       ?type_case_d@?$output_processor@DV?$stream_output_adapter@D@__crt_stdio_output@@V?$format_validation_base@DV?$stream_output_adapter@D@__crt_stdio_output@@@2@@__crt_stdio_output@@AEAA_NXZ 0000000180077aa0 f i libucrtd:output.obj
 0001:00076ad0       ?type_case_d@?$output_processor@DV?$stream_output_adapter@D@__crt_stdio_output@@V?$positional_parameter_base@DV?$stream_output_adapter@D@__crt_stdio_output@@@2@@__crt_stdio_output@@AEAA_NXZ 0000000180077ad0 f i libucrtd:output.obj
 0001:00076b00       ?type_case_d@?$output_processor@DV?$stream_output_adapter@D@__crt_stdio_output@@V?$standard_base@DV?$stream_output_adapter@D@__crt_stdio_output@@@2@@__crt_stdio_output@@AEAA_NXZ 0000000180077b00 f i libucrtd:output.obj
 0001:00076b30       ?type_case_d@?$output_processor@DV?$string_output_adapter@D@__crt_stdio_output@@V?$format_validation_base@DV?$string_output_adapter@D@__crt_stdio_output@@@2@@__crt_stdio_output@@AEAA_NXZ 0000000180077b30 f i libucrtd:output.obj
 0001:00076b60       ?type_case_d@?$output_processor@DV?$string_output_adapter@D@__crt_stdio_output@@V?$positional_parameter_base@DV?$string_output_adapter@D@__crt_stdio_output@@@2@@__crt_stdio_output@@AEAA_NXZ 0000000180077b60 f i libucrtd:output.obj
 0001:00076b90       ?type_case_d@?$output_processor@DV?$string_output_adapter@D@__crt_stdio_output@@V?$standard_base@DV?$string_output_adapter@D@__crt_stdio_output@@@2@@__crt_stdio_output@@AEAA_NXZ 0000000180077b90 f i libucrtd:output.obj
 0001:00076bc0       ?type_case_d@?$output_processor@_WV?$stream_output_adapter@_W@__crt_stdio_output@@V?$format_validation_base@_WV?$stream_output_adapter@_W@__crt_stdio_output@@@2@@__crt_stdio_output@@AEAA_NXZ 0000000180077bc0 f i libucrtd:output.obj
 0001:00076bf0       ?type_case_d@?$output_processor@_WV?$stream_output_adapter@_W@__crt_stdio_output@@V?$positional_parameter_base@_WV?$stream_output_adapter@_W@__crt_stdio_output@@@2@@__crt_stdio_output@@AEAA_NXZ 0000000180077bf0 f i libucrtd:output.obj
 0001:00076c20       ?type_case_d@?$output_processor@_WV?$stream_output_adapter@_W@__crt_stdio_output@@V?$standard_base@_WV?$stream_output_adapter@_W@__crt_stdio_output@@@2@@__crt_stdio_output@@AEAA_NXZ 0000000180077c20 f i libucrtd:output.obj
 0001:00076c50       ?type_case_d@?$output_processor@_WV?$string_output_adapter@_W@__crt_stdio_output@@V?$format_validation_base@_WV?$string_output_adapter@_W@__crt_stdio_output@@@2@@__crt_stdio_output@@AEAA_NXZ 0000000180077c50 f i libucrtd:output.obj
 0001:00076c80       ?type_case_d@?$output_processor@_WV?$string_output_adapter@_W@__crt_stdio_output@@V?$positional_parameter_base@_WV?$string_output_adapter@_W@__crt_stdio_output@@@2@@__crt_stdio_output@@AEAA_NXZ 0000000180077c80 f i libucrtd:output.obj
 0001:00076cb0       ?type_case_d@?$output_processor@_WV?$string_output_adapter@_W@__crt_stdio_output@@V?$standard_base@_WV?$string_output_adapter@_W@__crt_stdio_output@@@2@@__crt_stdio_output@@AEAA_NXZ 0000000180077cb0 f i libucrtd:output.obj
 0001:00076ce0       ?type_case_integer@?$output_processor@DV?$stream_output_adapter@D@__crt_stdio_output@@V?$format_validation_base@DV?$stream_output_adapter@D@__crt_stdio_output@@@2@@__crt_stdio_output@@AEAA_NI_N@Z 0000000180077ce0 f i libucrtd:output.obj
 0001:00077130       ?type_case_integer@?$output_processor@DV?$stream_output_adapter@D@__crt_stdio_output@@V?$positional_parameter_base@DV?$stream_output_adapter@D@__crt_stdio_output@@@2@@__crt_stdio_output@@AEAA_NI_N@Z 0000000180078130 f i libucrtd:output.obj
 0001:00077580       ?type_case_integer@?$output_processor@DV?$stream_output_adapter@D@__crt_stdio_output@@V?$standard_base@DV?$stream_output_adapter@D@__crt_stdio_output@@@2@@__crt_stdio_output@@AEAA_NI_N@Z 0000000180078580 f i libucrtd:output.obj
 0001:000779d0       ?type_case_integer@?$output_processor@DV?$string_output_adapter@D@__crt_stdio_output@@V?$format_validation_base@DV?$string_output_adapter@D@__crt_stdio_output@@@2@@__crt_stdio_output@@AEAA_NI_N@Z 00000001800789d0 f i libucrtd:output.obj
 0001:00077e20       ?type_case_integer@?$output_processor@DV?$string_output_adapter@D@__crt_stdio_output@@V?$positional_parameter_base@DV?$string_output_adapter@D@__crt_stdio_output@@@2@@__crt_stdio_output@@AEAA_NI_N@Z 0000000180078e20 f i libucrtd:output.obj
 0001:00078270       ?type_case_integer@?$output_processor@DV?$string_output_adapter@D@__crt_stdio_output@@V?$standard_base@DV?$string_output_adapter@D@__crt_stdio_output@@@2@@__crt_stdio_output@@AEAA_NI_N@Z 0000000180079270 f i libucrtd:output.obj
 0001:000786c0       ?type_case_integer@?$output_processor@_WV?$stream_output_adapter@_W@__crt_stdio_output@@V?$format_validation_base@_WV?$stream_output_adapter@_W@__crt_stdio_output@@@2@@__crt_stdio_output@@AEAA_NI_N@Z 00000001800796c0 f i libucrtd:output.obj
 0001:00078b10       ?type_case_integer@?$output_processor@_WV?$stream_output_adapter@_W@__crt_stdio_output@@V?$positional_parameter_base@_WV?$stream_output_adapter@_W@__crt_stdio_output@@@2@@__crt_stdio_output@@AEAA_NI_N@Z 0000000180079b10 f i libucrtd:output.obj
 0001:00078f60       ?type_case_integer@?$output_processor@_WV?$stream_output_adapter@_W@__crt_stdio_output@@V?$standard_base@_WV?$stream_output_adapter@_W@__crt_stdio_output@@@2@@__crt_stdio_output@@AEAA_NI_N@Z 0000000180079f60 f i libucrtd:output.obj
 0001:000793b0       ?type_case_integer@?$output_processor@_WV?$string_output_adapter@_W@__crt_stdio_output@@V?$format_validation_base@_WV?$string_output_adapter@_W@__crt_stdio_output@@@2@@__crt_stdio_output@@AEAA_NI_N@Z 000000018007a3b0 f i libucrtd:output.obj
 0001:00079800       ?type_case_integer@?$output_processor@_WV?$string_output_adapter@_W@__crt_stdio_output@@V?$positional_parameter_base@_WV?$string_output_adapter@_W@__crt_stdio_output@@@2@@__crt_stdio_output@@AEAA_NI_N@Z 000000018007a800 f i libucrtd:output.obj
 0001:00079c50       ?type_case_integer@?$output_processor@_WV?$string_output_adapter@_W@__crt_stdio_output@@V?$standard_base@_WV?$string_output_adapter@_W@__crt_stdio_output@@@2@@__crt_stdio_output@@AEAA_NI_N@Z 000000018007ac50 f i libucrtd:output.obj
 0001:0007a0a0       ?type_case_n@?$output_processor@DV?$stream_output_adapter@D@__crt_stdio_output@@V?$format_validation_base@DV?$stream_output_adapter@D@__crt_stdio_output@@@2@@__crt_stdio_output@@AEAA_NXZ 000000018007b0a0 f i libucrtd:output.obj
 0001:0007a2e0       ?type_case_n@?$output_processor@DV?$stream_output_adapter@D@__crt_stdio_output@@V?$positional_parameter_base@DV?$stream_output_adapter@D@__crt_stdio_output@@@2@@__crt_stdio_output@@AEAA_NXZ 000000018007b2e0 f i libucrtd:output.obj
 0001:0007a520       ?type_case_n@?$output_processor@DV?$stream_output_adapter@D@__crt_stdio_output@@V?$standard_base@DV?$stream_output_adapter@D@__crt_stdio_output@@@2@@__crt_stdio_output@@AEAA_NXZ 000000018007b520 f i libucrtd:output.obj
 0001:0007a760       ?type_case_n@?$output_processor@DV?$string_output_adapter@D@__crt_stdio_output@@V?$format_validation_base@DV?$string_output_adapter@D@__crt_stdio_output@@@2@@__crt_stdio_output@@AEAA_NXZ 000000018007b760 f i libucrtd:output.obj
 0001:0007a9a0       ?type_case_n@?$output_processor@DV?$string_output_adapter@D@__crt_stdio_output@@V?$positional_parameter_base@DV?$string_output_adapter@D@__crt_stdio_output@@@2@@__crt_stdio_output@@AEAA_NXZ 000000018007b9a0 f i libucrtd:output.obj
 0001:0007abe0       ?type_case_n@?$output_processor@DV?$string_output_adapter@D@__crt_stdio_output@@V?$standard_base@DV?$string_output_adapter@D@__crt_stdio_output@@@2@@__crt_stdio_output@@AEAA_NXZ 000000018007bbe0 f i libucrtd:output.obj
 0001:0007ae20       ?type_case_n@?$output_processor@_WV?$stream_output_adapter@_W@__crt_stdio_output@@V?$format_validation_base@_WV?$stream_output_adapter@_W@__crt_stdio_output@@@2@@__crt_stdio_output@@AEAA_NXZ 000000018007be20 f i libucrtd:output.obj
 0001:0007b060       ?type_case_n@?$output_processor@_WV?$stream_output_adapter@_W@__crt_stdio_output@@V?$positional_parameter_base@_WV?$stream_output_adapter@_W@__crt_stdio_output@@@2@@__crt_stdio_output@@AEAA_NXZ 000000018007c060 f i libucrtd:output.obj
 0001:0007b2a0       ?type_case_n@?$output_processor@_WV?$stream_output_adapter@_W@__crt_stdio_output@@V?$standard_base@_WV?$stream_output_adapter@_W@__crt_stdio_output@@@2@@__crt_stdio_output@@AEAA_NXZ 000000018007c2a0 f i libucrtd:output.obj
 0001:0007b4e0       ?type_case_n@?$output_processor@_WV?$string_output_adapter@_W@__crt_stdio_output@@V?$format_validation_base@_WV?$string_output_adapter@_W@__crt_stdio_output@@@2@@__crt_stdio_output@@AEAA_NXZ 000000018007c4e0 f i libucrtd:output.obj
 0001:0007b720       ?type_case_n@?$output_processor@_WV?$string_output_adapter@_W@__crt_stdio_output@@V?$positional_parameter_base@_WV?$string_output_adapter@_W@__crt_stdio_output@@@2@@__crt_stdio_output@@AEAA_NXZ 000000018007c720 f i libucrtd:output.obj
 0001:0007b960       ?type_case_n@?$output_processor@_WV?$string_output_adapter@_W@__crt_stdio_output@@V?$standard_base@_WV?$string_output_adapter@_W@__crt_stdio_output@@@2@@__crt_stdio_output@@AEAA_NXZ 000000018007c960 f i libucrtd:output.obj
 0001:0007bba0       ?type_case_o@?$output_processor@DV?$stream_output_adapter@D@__crt_stdio_output@@V?$format_validation_base@DV?$stream_output_adapter@D@__crt_stdio_output@@@2@@__crt_stdio_output@@AEAA_NXZ 000000018007cba0 f i libucrtd:output.obj
 0001:0007bbf0       ?type_case_o@?$output_processor@DV?$stream_output_adapter@D@__crt_stdio_output@@V?$positional_parameter_base@DV?$stream_output_adapter@D@__crt_stdio_output@@@2@@__crt_stdio_output@@AEAA_NXZ 000000018007cbf0 f i libucrtd:output.obj
 0001:0007bc40       ?type_case_o@?$output_processor@DV?$stream_output_adapter@D@__crt_stdio_output@@V?$standard_base@DV?$stream_output_adapter@D@__crt_stdio_output@@@2@@__crt_stdio_output@@AEAA_NXZ 000000018007cc40 f i libucrtd:output.obj
 0001:0007bc90       ?type_case_o@?$output_processor@DV?$string_output_adapter@D@__crt_stdio_output@@V?$format_validation_base@DV?$string_output_adapter@D@__crt_stdio_output@@@2@@__crt_stdio_output@@AEAA_NXZ 000000018007cc90 f i libucrtd:output.obj
 0001:0007bce0       ?type_case_o@?$output_processor@DV?$string_output_adapter@D@__crt_stdio_output@@V?$positional_parameter_base@DV?$string_output_adapter@D@__crt_stdio_output@@@2@@__crt_stdio_output@@AEAA_NXZ 000000018007cce0 f i libucrtd:output.obj
 0001:0007bd30       ?type_case_o@?$output_processor@DV?$string_output_adapter@D@__crt_stdio_output@@V?$standard_base@DV?$string_output_adapter@D@__crt_stdio_output@@@2@@__crt_stdio_output@@AEAA_NXZ 000000018007cd30 f i libucrtd:output.obj
 0001:0007bd80       ?type_case_o@?$output_processor@_WV?$stream_output_adapter@_W@__crt_stdio_output@@V?$format_validation_base@_WV?$stream_output_adapter@_W@__crt_stdio_output@@@2@@__crt_stdio_output@@AEAA_NXZ 000000018007cd80 f i libucrtd:output.obj
 0001:0007bdd0       ?type_case_o@?$output_processor@_WV?$stream_output_adapter@_W@__crt_stdio_output@@V?$positional_parameter_base@_WV?$stream_output_adapter@_W@__crt_stdio_output@@@2@@__crt_stdio_output@@AEAA_NXZ 000000018007cdd0 f i libucrtd:output.obj
 0001:0007be20       ?type_case_o@?$output_processor@_WV?$stream_output_adapter@_W@__crt_stdio_output@@V?$standard_base@_WV?$stream_output_adapter@_W@__crt_stdio_output@@@2@@__crt_stdio_output@@AEAA_NXZ 000000018007ce20 f i libucrtd:output.obj
 0001:0007be70       ?type_case_o@?$output_processor@_WV?$string_output_adapter@_W@__crt_stdio_output@@V?$format_validation_base@_WV?$string_output_adapter@_W@__crt_stdio_output@@@2@@__crt_stdio_output@@AEAA_NXZ 000000018007ce70 f i libucrtd:output.obj
 0001:0007bec0       ?type_case_o@?$output_processor@_WV?$string_output_adapter@_W@__crt_stdio_output@@V?$positional_parameter_base@_WV?$string_output_adapter@_W@__crt_stdio_output@@@2@@__crt_stdio_output@@AEAA_NXZ 000000018007cec0 f i libucrtd:output.obj
 0001:0007bf10       ?type_case_o@?$output_processor@_WV?$string_output_adapter@_W@__crt_stdio_output@@V?$standard_base@_WV?$string_output_adapter@_W@__crt_stdio_output@@@2@@__crt_stdio_output@@AEAA_NXZ 000000018007cf10 f i libucrtd:output.obj
 0001:0007bf60       ?type_case_p@?$output_processor@DV?$stream_output_adapter@D@__crt_stdio_output@@V?$format_validation_base@DV?$stream_output_adapter@D@__crt_stdio_output@@@2@@__crt_stdio_output@@AEAA_NXZ 000000018007cf60 f i libucrtd:output.obj
 0001:0007bfa0       ?type_case_p@?$output_processor@DV?$stream_output_adapter@D@__crt_stdio_output@@V?$positional_parameter_base@DV?$stream_output_adapter@D@__crt_stdio_output@@@2@@__crt_stdio_output@@AEAA_NXZ 000000018007cfa0 f i libucrtd:output.obj
 0001:0007bfe0       ?type_case_p@?$output_processor@DV?$stream_output_adapter@D@__crt_stdio_output@@V?$standard_base@DV?$stream_output_adapter@D@__crt_stdio_output@@@2@@__crt_stdio_output@@AEAA_NXZ 000000018007cfe0 f i libucrtd:output.obj
 0001:0007c020       ?type_case_p@?$output_processor@DV?$string_output_adapter@D@__crt_stdio_output@@V?$format_validation_base@DV?$string_output_adapter@D@__crt_stdio_output@@@2@@__crt_stdio_output@@AEAA_NXZ 000000018007d020 f i libucrtd:output.obj
 0001:0007c060       ?type_case_p@?$output_processor@DV?$string_output_adapter@D@__crt_stdio_output@@V?$positional_parameter_base@DV?$string_output_adapter@D@__crt_stdio_output@@@2@@__crt_stdio_output@@AEAA_NXZ 000000018007d060 f i libucrtd:output.obj
 0001:0007c0a0       ?type_case_p@?$output_processor@DV?$string_output_adapter@D@__crt_stdio_output@@V?$standard_base@DV?$string_output_adapter@D@__crt_stdio_output@@@2@@__crt_stdio_output@@AEAA_NXZ 000000018007d0a0 f i libucrtd:output.obj
 0001:0007c0e0       ?type_case_p@?$output_processor@_WV?$stream_output_adapter@_W@__crt_stdio_output@@V?$format_validation_base@_WV?$stream_output_adapter@_W@__crt_stdio_output@@@2@@__crt_stdio_output@@AEAA_NXZ 000000018007d0e0 f i libucrtd:output.obj
 0001:0007c120       ?type_case_p@?$output_processor@_WV?$stream_output_adapter@_W@__crt_stdio_output@@V?$positional_parameter_base@_WV?$stream_output_adapter@_W@__crt_stdio_output@@@2@@__crt_stdio_output@@AEAA_NXZ 000000018007d120 f i libucrtd:output.obj
 0001:0007c160       ?type_case_p@?$output_processor@_WV?$stream_output_adapter@_W@__crt_stdio_output@@V?$standard_base@_WV?$stream_output_adapter@_W@__crt_stdio_output@@@2@@__crt_stdio_output@@AEAA_NXZ 000000018007d160 f i libucrtd:output.obj
 0001:0007c1a0       ?type_case_p@?$output_processor@_WV?$string_output_adapter@_W@__crt_stdio_output@@V?$format_validation_base@_WV?$string_output_adapter@_W@__crt_stdio_output@@@2@@__crt_stdio_output@@AEAA_NXZ 000000018007d1a0 f i libucrtd:output.obj
 0001:0007c1e0       ?type_case_p@?$output_processor@_WV?$string_output_adapter@_W@__crt_stdio_output@@V?$positional_parameter_base@_WV?$string_output_adapter@_W@__crt_stdio_output@@@2@@__crt_stdio_output@@AEAA_NXZ 000000018007d1e0 f i libucrtd:output.obj
 0001:0007c220       ?type_case_p@?$output_processor@_WV?$string_output_adapter@_W@__crt_stdio_output@@V?$standard_base@_WV?$string_output_adapter@_W@__crt_stdio_output@@@2@@__crt_stdio_output@@AEAA_NXZ 000000018007d220 f i libucrtd:output.obj
 0001:0007c260       ?type_case_s@?$output_processor@DV?$stream_output_adapter@D@__crt_stdio_output@@V?$format_validation_base@DV?$stream_output_adapter@D@__crt_stdio_output@@@2@@__crt_stdio_output@@AEAA_NXZ 000000018007d260 f i libucrtd:output.obj
 0001:0007c380       ?type_case_s@?$output_processor@DV?$stream_output_adapter@D@__crt_stdio_output@@V?$positional_parameter_base@DV?$stream_output_adapter@D@__crt_stdio_output@@@2@@__crt_stdio_output@@AEAA_NXZ 000000018007d380 f i libucrtd:output.obj
 0001:0007c4a0       ?type_case_s@?$output_processor@DV?$stream_output_adapter@D@__crt_stdio_output@@V?$standard_base@DV?$stream_output_adapter@D@__crt_stdio_output@@@2@@__crt_stdio_output@@AEAA_NXZ 000000018007d4a0 f i libucrtd:output.obj
 0001:0007c5c0       ?type_case_s@?$output_processor@DV?$string_output_adapter@D@__crt_stdio_output@@V?$format_validation_base@DV?$string_output_adapter@D@__crt_stdio_output@@@2@@__crt_stdio_output@@AEAA_NXZ 000000018007d5c0 f i libucrtd:output.obj
 0001:0007c6e0       ?type_case_s@?$output_processor@DV?$string_output_adapter@D@__crt_stdio_output@@V?$positional_parameter_base@DV?$string_output_adapter@D@__crt_stdio_output@@@2@@__crt_stdio_output@@AEAA_NXZ 000000018007d6e0 f i libucrtd:output.obj
 0001:0007c800       ?type_case_s@?$output_processor@DV?$string_output_adapter@D@__crt_stdio_output@@V?$standard_base@DV?$string_output_adapter@D@__crt_stdio_output@@@2@@__crt_stdio_output@@AEAA_NXZ 000000018007d800 f i libucrtd:output.obj
 0001:0007c920       ?type_case_s@?$output_processor@_WV?$stream_output_adapter@_W@__crt_stdio_output@@V?$format_validation_base@_WV?$stream_output_adapter@_W@__crt_stdio_output@@@2@@__crt_stdio_output@@AEAA_NXZ 000000018007d920 f i libucrtd:output.obj
 0001:0007ca40       ?type_case_s@?$output_processor@_WV?$stream_output_adapter@_W@__crt_stdio_output@@V?$positional_parameter_base@_WV?$stream_output_adapter@_W@__crt_stdio_output@@@2@@__crt_stdio_output@@AEAA_NXZ 000000018007da40 f i libucrtd:output.obj
 0001:0007cb60       ?type_case_s@?$output_processor@_WV?$stream_output_adapter@_W@__crt_stdio_output@@V?$standard_base@_WV?$stream_output_adapter@_W@__crt_stdio_output@@@2@@__crt_stdio_output@@AEAA_NXZ 000000018007db60 f i libucrtd:output.obj
 0001:0007cc80       ?type_case_s@?$output_processor@_WV?$string_output_adapter@_W@__crt_stdio_output@@V?$format_validation_base@_WV?$string_output_adapter@_W@__crt_stdio_output@@@2@@__crt_stdio_output@@AEAA_NXZ 000000018007dc80 f i libucrtd:output.obj
 0001:0007cda0       ?type_case_s@?$output_processor@_WV?$string_output_adapter@_W@__crt_stdio_output@@V?$positional_parameter_base@_WV?$string_output_adapter@_W@__crt_stdio_output@@@2@@__crt_stdio_output@@AEAA_NXZ 000000018007dda0 f i libucrtd:output.obj
 0001:0007cec0       ?type_case_s@?$output_processor@_WV?$string_output_adapter@_W@__crt_stdio_output@@V?$standard_base@_WV?$string_output_adapter@_W@__crt_stdio_output@@@2@@__crt_stdio_output@@AEAA_NXZ 000000018007dec0 f i libucrtd:output.obj
 0001:0007cfe0       ?type_case_s_compute_narrow_string_length@?$output_processor@DV?$stream_output_adapter@D@__crt_stdio_output@@V?$format_validation_base@DV?$stream_output_adapter@D@__crt_stdio_output@@@2@@__crt_stdio_output@@AEBAHHD@Z 000000018007dfe0 f i libucrtd:output.obj
 0001:0007d010       ?type_case_s_compute_narrow_string_length@?$output_processor@DV?$stream_output_adapter@D@__crt_stdio_output@@V?$positional_parameter_base@DV?$stream_output_adapter@D@__crt_stdio_output@@@2@@__crt_stdio_output@@AEBAHHD@Z 000000018007e010 f i libucrtd:output.obj
 0001:0007d040       ?type_case_s_compute_narrow_string_length@?$output_processor@DV?$stream_output_adapter@D@__crt_stdio_output@@V?$standard_base@DV?$stream_output_adapter@D@__crt_stdio_output@@@2@@__crt_stdio_output@@AEBAHHD@Z 000000018007e040 f i libucrtd:output.obj
 0001:0007d070       ?type_case_s_compute_narrow_string_length@?$output_processor@DV?$string_output_adapter@D@__crt_stdio_output@@V?$format_validation_base@DV?$string_output_adapter@D@__crt_stdio_output@@@2@@__crt_stdio_output@@AEBAHHD@Z 000000018007e070 f i libucrtd:output.obj
 0001:0007d0a0       ?type_case_s_compute_narrow_string_length@?$output_processor@DV?$string_output_adapter@D@__crt_stdio_output@@V?$positional_parameter_base@DV?$string_output_adapter@D@__crt_stdio_output@@@2@@__crt_stdio_output@@AEBAHHD@Z 000000018007e0a0 f i libucrtd:output.obj
 0001:0007d0d0       ?type_case_s_compute_narrow_string_length@?$output_processor@DV?$string_output_adapter@D@__crt_stdio_output@@V?$standard_base@DV?$string_output_adapter@D@__crt_stdio_output@@@2@@__crt_stdio_output@@AEBAHHD@Z 000000018007e0d0 f i libucrtd:output.obj
 0001:0007d100       ?type_case_s_compute_narrow_string_length@?$output_processor@_WV?$stream_output_adapter@_W@__crt_stdio_output@@V?$format_validation_base@_WV?$stream_output_adapter@_W@__crt_stdio_output@@@2@@__crt_stdio_output@@AEBAHH_W@Z 000000018007e100 f i libucrtd:output.obj
 0001:0007d190       ?type_case_s_compute_narrow_string_length@?$output_processor@_WV?$stream_output_adapter@_W@__crt_stdio_output@@V?$positional_parameter_base@_WV?$stream_output_adapter@_W@__crt_stdio_output@@@2@@__crt_stdio_output@@AEBAHH_W@Z 000000018007e190 f i libucrtd:output.obj
 0001:0007d220       ?type_case_s_compute_narrow_string_length@?$output_processor@_WV?$stream_output_adapter@_W@__crt_stdio_output@@V?$standard_base@_WV?$stream_output_adapter@_W@__crt_stdio_output@@@2@@__crt_stdio_output@@AEBAHH_W@Z 000000018007e220 f i libucrtd:output.obj
 0001:0007d2b0       ?type_case_s_compute_narrow_string_length@?$output_processor@_WV?$string_output_adapter@_W@__crt_stdio_output@@V?$format_validation_base@_WV?$string_output_adapter@_W@__crt_stdio_output@@@2@@__crt_stdio_output@@AEBAHH_W@Z 000000018007e2b0 f i libucrtd:output.obj
 0001:0007d340       ?type_case_s_compute_narrow_string_length@?$output_processor@_WV?$string_output_adapter@_W@__crt_stdio_output@@V?$positional_parameter_base@_WV?$string_output_adapter@_W@__crt_stdio_output@@@2@@__crt_stdio_output@@AEBAHH_W@Z 000000018007e340 f i libucrtd:output.obj
 0001:0007d3d0       ?type_case_s_compute_narrow_string_length@?$output_processor@_WV?$string_output_adapter@_W@__crt_stdio_output@@V?$standard_base@_WV?$string_output_adapter@_W@__crt_stdio_output@@@2@@__crt_stdio_output@@AEBAHH_W@Z 000000018007e3d0 f i libucrtd:output.obj
 0001:0007d460       ?type_case_u@?$output_processor@DV?$stream_output_adapter@D@__crt_stdio_output@@V?$format_validation_base@DV?$stream_output_adapter@D@__crt_stdio_output@@@2@@__crt_stdio_output@@AEAA_NXZ 000000018007e460 f i libucrtd:output.obj
 0001:0007d480       ?type_case_u@?$output_processor@DV?$stream_output_adapter@D@__crt_stdio_output@@V?$positional_parameter_base@DV?$stream_output_adapter@D@__crt_stdio_output@@@2@@__crt_stdio_output@@AEAA_NXZ 000000018007e480 f i libucrtd:output.obj
 0001:0007d4a0       ?type_case_u@?$output_processor@DV?$stream_output_adapter@D@__crt_stdio_output@@V?$standard_base@DV?$stream_output_adapter@D@__crt_stdio_output@@@2@@__crt_stdio_output@@AEAA_NXZ 000000018007e4a0 f i libucrtd:output.obj
 0001:0007d4c0       ?type_case_u@?$output_processor@DV?$string_output_adapter@D@__crt_stdio_output@@V?$format_validation_base@DV?$string_output_adapter@D@__crt_stdio_output@@@2@@__crt_stdio_output@@AEAA_NXZ 000000018007e4c0 f i libucrtd:output.obj
 0001:0007d4e0       ?type_case_u@?$output_processor@DV?$string_output_adapter@D@__crt_stdio_output@@V?$positional_parameter_base@DV?$string_output_adapter@D@__crt_stdio_output@@@2@@__crt_stdio_output@@AEAA_NXZ 000000018007e4e0 f i libucrtd:output.obj
 0001:0007d500       ?type_case_u@?$output_processor@DV?$string_output_adapter@D@__crt_stdio_output@@V?$standard_base@DV?$string_output_adapter@D@__crt_stdio_output@@@2@@__crt_stdio_output@@AEAA_NXZ 000000018007e500 f i libucrtd:output.obj
 0001:0007d520       ?type_case_u@?$output_processor@_WV?$stream_output_adapter@_W@__crt_stdio_output@@V?$format_validation_base@_WV?$stream_output_adapter@_W@__crt_stdio_output@@@2@@__crt_stdio_output@@AEAA_NXZ 000000018007e520 f i libucrtd:output.obj
 0001:0007d540       ?type_case_u@?$output_processor@_WV?$stream_output_adapter@_W@__crt_stdio_output@@V?$positional_parameter_base@_WV?$stream_output_adapter@_W@__crt_stdio_output@@@2@@__crt_stdio_output@@AEAA_NXZ 000000018007e540 f i libucrtd:output.obj
 0001:0007d560       ?type_case_u@?$output_processor@_WV?$stream_output_adapter@_W@__crt_stdio_output@@V?$standard_base@_WV?$stream_output_adapter@_W@__crt_stdio_output@@@2@@__crt_stdio_output@@AEAA_NXZ 000000018007e560 f i libucrtd:output.obj
 0001:0007d580       ?type_case_u@?$output_processor@_WV?$string_output_adapter@_W@__crt_stdio_output@@V?$format_validation_base@_WV?$string_output_adapter@_W@__crt_stdio_output@@@2@@__crt_stdio_output@@AEAA_NXZ 000000018007e580 f i libucrtd:output.obj
 0001:0007d5a0       ?type_case_u@?$output_processor@_WV?$string_output_adapter@_W@__crt_stdio_output@@V?$positional_parameter_base@_WV?$string_output_adapter@_W@__crt_stdio_output@@@2@@__crt_stdio_output@@AEAA_NXZ 000000018007e5a0 f i libucrtd:output.obj
 0001:0007d5c0       ?type_case_u@?$output_processor@_WV?$string_output_adapter@_W@__crt_stdio_output@@V?$standard_base@_WV?$string_output_adapter@_W@__crt_stdio_output@@@2@@__crt_stdio_output@@AEAA_NXZ 000000018007e5c0 f i libucrtd:output.obj
 0001:0007d5e0       ?type_case_x@?$output_processor@DV?$stream_output_adapter@D@__crt_stdio_output@@V?$format_validation_base@DV?$stream_output_adapter@D@__crt_stdio_output@@@2@@__crt_stdio_output@@AEAA_NXZ 000000018007e5e0 f i libucrtd:output.obj
 0001:0007d600       ?type_case_x@?$output_processor@DV?$stream_output_adapter@D@__crt_stdio_output@@V?$positional_parameter_base@DV?$stream_output_adapter@D@__crt_stdio_output@@@2@@__crt_stdio_output@@AEAA_NXZ 000000018007e600 f i libucrtd:output.obj
 0001:0007d620       ?type_case_x@?$output_processor@DV?$stream_output_adapter@D@__crt_stdio_output@@V?$standard_base@DV?$stream_output_adapter@D@__crt_stdio_output@@@2@@__crt_stdio_output@@AEAA_NXZ 000000018007e620 f i libucrtd:output.obj
 0001:0007d640       ?type_case_x@?$output_processor@DV?$string_output_adapter@D@__crt_stdio_output@@V?$format_validation_base@DV?$string_output_adapter@D@__crt_stdio_output@@@2@@__crt_stdio_output@@AEAA_NXZ 000000018007e640 f i libucrtd:output.obj
 0001:0007d660       ?type_case_x@?$output_processor@DV?$string_output_adapter@D@__crt_stdio_output@@V?$positional_parameter_base@DV?$string_output_adapter@D@__crt_stdio_output@@@2@@__crt_stdio_output@@AEAA_NXZ 000000018007e660 f i libucrtd:output.obj
 0001:0007d680       ?type_case_x@?$output_processor@DV?$string_output_adapter@D@__crt_stdio_output@@V?$standard_base@DV?$string_output_adapter@D@__crt_stdio_output@@@2@@__crt_stdio_output@@AEAA_NXZ 000000018007e680 f i libucrtd:output.obj
 0001:0007d6a0       ?type_case_x@?$output_processor@_WV?$stream_output_adapter@_W@__crt_stdio_output@@V?$format_validation_base@_WV?$stream_output_adapter@_W@__crt_stdio_output@@@2@@__crt_stdio_output@@AEAA_NXZ 000000018007e6a0 f i libucrtd:output.obj
 0001:0007d6c0       ?type_case_x@?$output_processor@_WV?$stream_output_adapter@_W@__crt_stdio_output@@V?$positional_parameter_base@_WV?$stream_output_adapter@_W@__crt_stdio_output@@@2@@__crt_stdio_output@@AEAA_NXZ 000000018007e6c0 f i libucrtd:output.obj
 0001:0007d6e0       ?type_case_x@?$output_processor@_WV?$stream_output_adapter@_W@__crt_stdio_output@@V?$standard_base@_WV?$stream_output_adapter@_W@__crt_stdio_output@@@2@@__crt_stdio_output@@AEAA_NXZ 000000018007e6e0 f i libucrtd:output.obj
 0001:0007d700       ?type_case_x@?$output_processor@_WV?$string_output_adapter@_W@__crt_stdio_output@@V?$format_validation_base@_WV?$string_output_adapter@_W@__crt_stdio_output@@@2@@__crt_stdio_output@@AEAA_NXZ 000000018007e700 f i libucrtd:output.obj
 0001:0007d720       ?type_case_x@?$output_processor@_WV?$string_output_adapter@_W@__crt_stdio_output@@V?$positional_parameter_base@_WV?$string_output_adapter@_W@__crt_stdio_output@@@2@@__crt_stdio_output@@AEAA_NXZ 000000018007e720 f i libucrtd:output.obj
 0001:0007d740       ?type_case_x@?$output_processor@_WV?$string_output_adapter@_W@__crt_stdio_output@@V?$standard_base@_WV?$string_output_adapter@_W@__crt_stdio_output@@@2@@__crt_stdio_output@@AEAA_NXZ 000000018007e740 f i libucrtd:output.obj
 0001:0007d760       ?unset_flag@?$output_processor@DV?$stream_output_adapter@D@__crt_stdio_output@@V?$format_validation_base@DV?$stream_output_adapter@D@__crt_stdio_output@@@2@@__crt_stdio_output@@AEAAXI@Z 000000018007e760 f i libucrtd:output.obj
 0001:0007d790       ?unset_flag@?$output_processor@DV?$stream_output_adapter@D@__crt_stdio_output@@V?$positional_parameter_base@DV?$stream_output_adapter@D@__crt_stdio_output@@@2@@__crt_stdio_output@@AEAAXI@Z 000000018007e790 f i libucrtd:output.obj
 0001:0007d7c0       ?unset_flag@?$output_processor@DV?$stream_output_adapter@D@__crt_stdio_output@@V?$standard_base@DV?$stream_output_adapter@D@__crt_stdio_output@@@2@@__crt_stdio_output@@AEAAXI@Z 000000018007e7c0 f i libucrtd:output.obj
 0001:0007d7f0       ?unset_flag@?$output_processor@DV?$string_output_adapter@D@__crt_stdio_output@@V?$format_validation_base@DV?$string_output_adapter@D@__crt_stdio_output@@@2@@__crt_stdio_output@@AEAAXI@Z 000000018007e7f0 f i libucrtd:output.obj
 0001:0007d820       ?unset_flag@?$output_processor@DV?$string_output_adapter@D@__crt_stdio_output@@V?$positional_parameter_base@DV?$string_output_adapter@D@__crt_stdio_output@@@2@@__crt_stdio_output@@AEAAXI@Z 000000018007e820 f i libucrtd:output.obj
 0001:0007d850       ?unset_flag@?$output_processor@DV?$string_output_adapter@D@__crt_stdio_output@@V?$standard_base@DV?$string_output_adapter@D@__crt_stdio_output@@@2@@__crt_stdio_output@@AEAAXI@Z 000000018007e850 f i libucrtd:output.obj
 0001:0007d880       ?unset_flag@?$output_processor@_WV?$stream_output_adapter@_W@__crt_stdio_output@@V?$format_validation_base@_WV?$stream_output_adapter@_W@__crt_stdio_output@@@2@@__crt_stdio_output@@AEAAXI@Z 000000018007e880 f i libucrtd:output.obj
 0001:0007d8b0       ?unset_flag@?$output_processor@_WV?$stream_output_adapter@_W@__crt_stdio_output@@V?$positional_parameter_base@_WV?$stream_output_adapter@_W@__crt_stdio_output@@@2@@__crt_stdio_output@@AEAAXI@Z 000000018007e8b0 f i libucrtd:output.obj
 0001:0007d8e0       ?unset_flag@?$output_processor@_WV?$stream_output_adapter@_W@__crt_stdio_output@@V?$standard_base@_WV?$stream_output_adapter@_W@__crt_stdio_output@@@2@@__crt_stdio_output@@AEAAXI@Z 000000018007e8e0 f i libucrtd:output.obj
 0001:0007d910       ?unset_flag@?$output_processor@_WV?$string_output_adapter@_W@__crt_stdio_output@@V?$format_validation_base@_WV?$string_output_adapter@_W@__crt_stdio_output@@@2@@__crt_stdio_output@@AEAAXI@Z 000000018007e910 f i libucrtd:output.obj
 0001:0007d940       ?unset_flag@?$output_processor@_WV?$string_output_adapter@_W@__crt_stdio_output@@V?$positional_parameter_base@_WV?$string_output_adapter@_W@__crt_stdio_output@@@2@@__crt_stdio_output@@AEAAXI@Z 000000018007e940 f i libucrtd:output.obj
 0001:0007d970       ?unset_flag@?$output_processor@_WV?$string_output_adapter@_W@__crt_stdio_output@@V?$standard_base@_WV?$string_output_adapter@_W@__crt_stdio_output@@@2@@__crt_stdio_output@@AEAAXI@Z 000000018007e970 f i libucrtd:output.obj
 0001:0007d9a0       ?update_field_width@?$positional_parameter_base@DV?$stream_output_adapter@D@__crt_stdio_output@@@__crt_stdio_output@@IEAA_NXZ 000000018007e9a0 f i libucrtd:output.obj
 0001:0007db90       ?update_field_width@?$positional_parameter_base@DV?$string_output_adapter@D@__crt_stdio_output@@@__crt_stdio_output@@IEAA_NXZ 000000018007eb90 f i libucrtd:output.obj
 0001:0007dd80       ?update_field_width@?$positional_parameter_base@_WV?$stream_output_adapter@_W@__crt_stdio_output@@@__crt_stdio_output@@IEAA_NXZ 000000018007ed80 f i libucrtd:output.obj
 0001:0007df70       ?update_field_width@?$positional_parameter_base@_WV?$string_output_adapter@_W@__crt_stdio_output@@@__crt_stdio_output@@IEAA_NXZ 000000018007ef70 f i libucrtd:output.obj
 0001:0007e160       ?update_field_width@?$standard_base@DV?$stream_output_adapter@D@__crt_stdio_output@@@__crt_stdio_output@@IEAA_NXZ 000000018007f160 f i libucrtd:output.obj
 0001:0007e190       ?update_field_width@?$standard_base@DV?$string_output_adapter@D@__crt_stdio_output@@@__crt_stdio_output@@IEAA_NXZ 000000018007f190 f i libucrtd:output.obj
 0001:0007e1c0       ?update_field_width@?$standard_base@_WV?$stream_output_adapter@_W@__crt_stdio_output@@@__crt_stdio_output@@IEAA_NXZ 000000018007f1c0 f i libucrtd:output.obj
 0001:0007e1f0       ?update_field_width@?$standard_base@_WV?$string_output_adapter@_W@__crt_stdio_output@@@__crt_stdio_output@@IEAA_NXZ 000000018007f1f0 f i libucrtd:output.obj
 0001:0007e220       ?update_precision@?$positional_parameter_base@DV?$stream_output_adapter@D@__crt_stdio_output@@@__crt_stdio_output@@IEAA_NXZ 000000018007f220 f i libucrtd:output.obj
 0001:0007e410       ?update_precision@?$positional_parameter_base@DV?$string_output_adapter@D@__crt_stdio_output@@@__crt_stdio_output@@IEAA_NXZ 000000018007f410 f i libucrtd:output.obj
 0001:0007e600       ?update_precision@?$positional_parameter_base@_WV?$stream_output_adapter@_W@__crt_stdio_output@@@__crt_stdio_output@@IEAA_NXZ 000000018007f600 f i libucrtd:output.obj
 0001:0007e7f0       ?update_precision@?$positional_parameter_base@_WV?$string_output_adapter@_W@__crt_stdio_output@@@__crt_stdio_output@@IEAA_NXZ 000000018007f7f0 f i libucrtd:output.obj
 0001:0007e9e0       ?update_precision@?$standard_base@DV?$stream_output_adapter@D@__crt_stdio_output@@@__crt_stdio_output@@IEAA_NXZ 000000018007f9e0 f i libucrtd:output.obj
 0001:0007ea10       ?update_precision@?$standard_base@DV?$string_output_adapter@D@__crt_stdio_output@@@__crt_stdio_output@@IEAA_NXZ 000000018007fa10 f i libucrtd:output.obj
 0001:0007ea40       ?update_precision@?$standard_base@_WV?$stream_output_adapter@_W@__crt_stdio_output@@@__crt_stdio_output@@IEAA_NXZ 000000018007fa40 f i libucrtd:output.obj
 0001:0007ea70       ?update_precision@?$standard_base@_WV?$string_output_adapter@_W@__crt_stdio_output@@@__crt_stdio_output@@IEAA_NXZ 000000018007fa70 f i libucrtd:output.obj
 0001:0007eaa0       ?valid@__crt_stdio_stream@@QEBA_NXZ 000000018007faa0 f i libucrtd:output.obj
 0001:0007ead0       ?validate@?$stream_output_adapter@D@__crt_stdio_output@@QEBA_NXZ 000000018007fad0 f i libucrtd:output.obj
 0001:0007ebb0       ?validate@?$stream_output_adapter@_W@__crt_stdio_output@@QEBA_NXZ 000000018007fbb0 f i libucrtd:output.obj
 0001:0007ec90       ?validate@?$string_output_adapter@D@__crt_stdio_output@@QEBA_NXZ 000000018007fc90 f i libucrtd:output.obj
 0001:0007ed50       ?validate@?$string_output_adapter@_W@__crt_stdio_output@@QEBA_NXZ 000000018007fd50 f i libucrtd:output.obj
 0001:0007ee10       ?validate_and_store_parameter_data@?$positional_parameter_base@DV?$stream_output_adapter@D@__crt_stdio_output@@@__crt_stdio_output@@AEAA_NAEAUparameter_data@12@W4parameter_type@12@DW4length_modifier@2@@Z 000000018007fe10 f i libucrtd:output.obj
 0001:0007ef30       ?validate_and_store_parameter_data@?$positional_parameter_base@DV?$string_output_adapter@D@__crt_stdio_output@@@__crt_stdio_output@@AEAA_NAEAUparameter_data@12@W4parameter_type@12@DW4length_modifier@2@@Z 000000018007ff30 f i libucrtd:output.obj
 0001:0007f050       ?validate_and_store_parameter_data@?$positional_parameter_base@_WV?$stream_output_adapter@_W@__crt_stdio_output@@@__crt_stdio_output@@AEAA_NAEAUparameter_data@12@W4parameter_type@12@_WW4length_modifier@2@@Z 0000000180080050 f i libucrtd:output.obj
 0001:0007f170       ?validate_and_store_parameter_data@?$positional_parameter_base@_WV?$string_output_adapter@_W@__crt_stdio_output@@@__crt_stdio_output@@AEAA_NAEAUparameter_data@12@W4parameter_type@12@_WW4length_modifier@2@@Z 0000000180080170 f i libucrtd:output.obj
 0001:0007f290       ?validate_and_update_state_at_beginning_of_format_character@?$positional_parameter_base@DV?$stream_output_adapter@D@__crt_stdio_output@@@__crt_stdio_output@@IEAA_NXZ 0000000180080290 f i libucrtd:output.obj
 0001:0007f570       ?validate_and_update_state_at_beginning_of_format_character@?$positional_parameter_base@DV?$string_output_adapter@D@__crt_stdio_output@@@__crt_stdio_output@@IEAA_NXZ 0000000180080570 f i libucrtd:output.obj
 0001:0007f850       ?validate_and_update_state_at_beginning_of_format_character@?$positional_parameter_base@_WV?$stream_output_adapter@_W@__crt_stdio_output@@@__crt_stdio_output@@IEAA_NXZ 0000000180080850 f i libucrtd:output.obj
 0001:0007fb30       ?validate_and_update_state_at_beginning_of_format_character@?$positional_parameter_base@_WV?$string_output_adapter@_W@__crt_stdio_output@@@__crt_stdio_output@@IEAA_NXZ 0000000180080b30 f i libucrtd:output.obj
 0001:0007fe10       ?validate_and_update_state_at_beginning_of_format_character@?$standard_base@DV?$stream_output_adapter@D@__crt_stdio_output@@@__crt_stdio_output@@IEAA_NXZ 0000000180080e10 f i libucrtd:output.obj
 0001:0007fe20       ?validate_and_update_state_at_beginning_of_format_character@?$standard_base@DV?$string_output_adapter@D@__crt_stdio_output@@@__crt_stdio_output@@IEAA_NXZ 0000000180080e20 f i libucrtd:output.obj
 0001:0007fe30       ?validate_and_update_state_at_beginning_of_format_character@?$standard_base@_WV?$stream_output_adapter@_W@__crt_stdio_output@@@__crt_stdio_output@@IEAA_NXZ 0000000180080e30 f i libucrtd:output.obj
 0001:0007fe40       ?validate_and_update_state_at_beginning_of_format_character@?$standard_base@_WV?$string_output_adapter@_W@__crt_stdio_output@@@__crt_stdio_output@@IEAA_NXZ 0000000180080e40 f i libucrtd:output.obj
 0001:0007fe50       ?validate_and_update_state_at_end_of_format_string@?$format_validation_base@DV?$stream_output_adapter@D@__crt_stdio_output@@@__crt_stdio_output@@IEBA_NXZ 0000000180080e50 f i libucrtd:output.obj
 0001:0007ff10       ?validate_and_update_state_at_end_of_format_string@?$format_validation_base@DV?$string_output_adapter@D@__crt_stdio_output@@@__crt_stdio_output@@IEBA_NXZ 0000000180080f10 f i libucrtd:output.obj
 0001:0007ffd0       ?validate_and_update_state_at_end_of_format_string@?$format_validation_base@_WV?$stream_output_adapter@_W@__crt_stdio_output@@@__crt_stdio_output@@IEBA_NXZ 0000000180080fd0 f i libucrtd:output.obj
 0001:00080090       ?validate_and_update_state_at_end_of_format_string@?$format_validation_base@_WV?$string_output_adapter@_W@__crt_stdio_output@@@__crt_stdio_output@@IEBA_NXZ 0000000180081090 f i libucrtd:output.obj
 0001:00080150       ?validate_and_update_state_at_end_of_format_string@?$positional_parameter_base@DV?$stream_output_adapter@D@__crt_stdio_output@@@__crt_stdio_output@@IEAA_NXZ 0000000180081150 f i libucrtd:output.obj
 0001:00080340       ?validate_and_update_state_at_end_of_format_string@?$positional_parameter_base@DV?$string_output_adapter@D@__crt_stdio_output@@@__crt_stdio_output@@IEAA_NXZ 0000000180081340 f i libucrtd:output.obj
 0001:00080530       ?validate_and_update_state_at_end_of_format_string@?$positional_parameter_base@_WV?$stream_output_adapter@_W@__crt_stdio_output@@@__crt_stdio_output@@IEAA_NXZ 0000000180081530 f i libucrtd:output.obj
 0001:00080720       ?validate_and_update_state_at_end_of_format_string@?$positional_parameter_base@_WV?$string_output_adapter@_W@__crt_stdio_output@@@__crt_stdio_output@@IEAA_NXZ 0000000180081720 f i libucrtd:output.obj
 0001:00080910       ?validate_and_update_state_at_end_of_format_string@?$standard_base@DV?$stream_output_adapter@D@__crt_stdio_output@@@__crt_stdio_output@@IEBA_NXZ 0000000180081910 f i libucrtd:output.obj
 0001:00080920       ?validate_and_update_state_at_end_of_format_string@?$standard_base@DV?$string_output_adapter@D@__crt_stdio_output@@@__crt_stdio_output@@IEBA_NXZ 0000000180081920 f i libucrtd:output.obj
 0001:00080930       ?validate_and_update_state_at_end_of_format_string@?$standard_base@_WV?$stream_output_adapter@_W@__crt_stdio_output@@@__crt_stdio_output@@IEBA_NXZ 0000000180081930 f i libucrtd:output.obj
 0001:00080940       ?validate_and_update_state_at_end_of_format_string@?$standard_base@_WV?$string_output_adapter@_W@__crt_stdio_output@@@__crt_stdio_output@@IEBA_NXZ 0000000180081940 f i libucrtd:output.obj
 0001:00080950       ?validate_state_for_type_case_a@?$positional_parameter_base@DV?$stream_output_adapter@D@__crt_stdio_output@@@__crt_stdio_output@@IEAA_NXZ 0000000180081950 f i libucrtd:output.obj
 0001:00080a90       ?validate_state_for_type_case_a@?$positional_parameter_base@DV?$string_output_adapter@D@__crt_stdio_output@@@__crt_stdio_output@@IEAA_NXZ 0000000180081a90 f i libucrtd:output.obj
 0001:00080bd0       ?validate_state_for_type_case_a@?$positional_parameter_base@_WV?$stream_output_adapter@_W@__crt_stdio_output@@@__crt_stdio_output@@IEAA_NXZ 0000000180081bd0 f i libucrtd:output.obj
 0001:00080d10       ?validate_state_for_type_case_a@?$positional_parameter_base@_WV?$string_output_adapter@_W@__crt_stdio_output@@@__crt_stdio_output@@IEAA_NXZ 0000000180081d10 f i libucrtd:output.obj
 0001:00080e50       ?validate_state_for_type_case_a@?$standard_base@DV?$stream_output_adapter@D@__crt_stdio_output@@@__crt_stdio_output@@IEBA_NXZ 0000000180081e50 f i libucrtd:output.obj
 0001:00080e60       ?validate_state_for_type_case_a@?$standard_base@DV?$string_output_adapter@D@__crt_stdio_output@@@__crt_stdio_output@@IEBA_NXZ 0000000180081e60 f i libucrtd:output.obj
 0001:00080e70       ?validate_state_for_type_case_a@?$standard_base@_WV?$stream_output_adapter@_W@__crt_stdio_output@@@__crt_stdio_output@@IEBA_NXZ 0000000180081e70 f i libucrtd:output.obj
 0001:00080e80       ?validate_state_for_type_case_a@?$standard_base@_WV?$string_output_adapter@_W@__crt_stdio_output@@@__crt_stdio_output@@IEBA_NXZ 0000000180081e80 f i libucrtd:output.obj
 0001:00080e90       ?validate_stream_is_ansi_if_required@?$__acrt_stdio_char_traits@D@@SA_NQEAU_iobuf@@@Z 0000000180081e90 f i libucrtd:output.obj
 0001:00081020       ?validate_stream_is_ansi_if_required@?$__acrt_stdio_char_traits@_W@@SA_NQEAU_iobuf@@@Z 0000000180082020 f i libucrtd:output.obj
 0001:00081030       ?wide_null_string@?$output_processor@DV?$stream_output_adapter@D@__crt_stdio_output@@V?$format_validation_base@DV?$stream_output_adapter@D@__crt_stdio_output@@@2@@__crt_stdio_output@@CAPEA_WXZ 0000000180082030 f i libucrtd:output.obj
 0001:00081040       ?wide_null_string@?$output_processor@DV?$stream_output_adapter@D@__crt_stdio_output@@V?$positional_parameter_base@DV?$stream_output_adapter@D@__crt_stdio_output@@@2@@__crt_stdio_output@@CAPEA_WXZ 0000000180082040 f i libucrtd:output.obj
 0001:00081050       ?wide_null_string@?$output_processor@DV?$stream_output_adapter@D@__crt_stdio_output@@V?$standard_base@DV?$stream_output_adapter@D@__crt_stdio_output@@@2@@__crt_stdio_output@@CAPEA_WXZ 0000000180082050 f i libucrtd:output.obj
 0001:00081060       ?wide_null_string@?$output_processor@DV?$string_output_adapter@D@__crt_stdio_output@@V?$format_validation_base@DV?$string_output_adapter@D@__crt_stdio_output@@@2@@__crt_stdio_output@@CAPEA_WXZ 0000000180082060 f i libucrtd:output.obj
 0001:00081070       ?wide_null_string@?$output_processor@DV?$string_output_adapter@D@__crt_stdio_output@@V?$positional_parameter_base@DV?$string_output_adapter@D@__crt_stdio_output@@@2@@__crt_stdio_output@@CAPEA_WXZ 0000000180082070 f i libucrtd:output.obj
 0001:00081080       ?wide_null_string@?$output_processor@DV?$string_output_adapter@D@__crt_stdio_output@@V?$standard_base@DV?$string_output_adapter@D@__crt_stdio_output@@@2@@__crt_stdio_output@@CAPEA_WXZ 0000000180082080 f i libucrtd:output.obj
 0001:00081090       ?wide_null_string@?$output_processor@_WV?$stream_output_adapter@_W@__crt_stdio_output@@V?$format_validation_base@_WV?$stream_output_adapter@_W@__crt_stdio_output@@@2@@__crt_stdio_output@@CAPEA_WXZ 0000000180082090 f i libucrtd:output.obj
 0001:000810a0       ?wide_null_string@?$output_processor@_WV?$stream_output_adapter@_W@__crt_stdio_output@@V?$positional_parameter_base@_WV?$stream_output_adapter@_W@__crt_stdio_output@@@2@@__crt_stdio_output@@CAPEA_WXZ 00000001800820a0 f i libucrtd:output.obj
 0001:000810b0       ?wide_null_string@?$output_processor@_WV?$stream_output_adapter@_W@__crt_stdio_output@@V?$standard_base@_WV?$stream_output_adapter@_W@__crt_stdio_output@@@2@@__crt_stdio_output@@CAPEA_WXZ 00000001800820b0 f i libucrtd:output.obj
 0001:000810c0       ?wide_null_string@?$output_processor@_WV?$string_output_adapter@_W@__crt_stdio_output@@V?$format_validation_base@_WV?$string_output_adapter@_W@__crt_stdio_output@@@2@@__crt_stdio_output@@CAPEA_WXZ 00000001800820c0 f i libucrtd:output.obj
 0001:000810d0       ?wide_null_string@?$output_processor@_WV?$string_output_adapter@_W@__crt_stdio_output@@V?$positional_parameter_base@_WV?$string_output_adapter@_W@__crt_stdio_output@@@2@@__crt_stdio_output@@CAPEA_WXZ 00000001800820d0 f i libucrtd:output.obj
 0001:000810e0       ?wide_null_string@?$output_processor@_WV?$string_output_adapter@_W@__crt_stdio_output@@V?$standard_base@_WV?$string_output_adapter@_W@__crt_stdio_output@@@2@@__crt_stdio_output@@CAPEA_WXZ 00000001800820e0 f i libucrtd:output.obj
 0001:000810f0       ?write_character@?$output_adapter_common@DV?$stream_output_adapter@D@__crt_stdio_output@@@__crt_stdio_output@@QEBAXDQEAH@Z 00000001800820f0 f i libucrtd:output.obj
 0001:00081140       ?write_character@?$output_adapter_common@_WV?$stream_output_adapter@_W@__crt_stdio_output@@@__crt_stdio_output@@QEBAX_WQEAH@Z 0000000180082140 f i libucrtd:output.obj
 0001:00081190       ?write_character@?$string_output_adapter@D@__crt_stdio_output@@QEBA_NDQEAH@Z 0000000180082190 f i libucrtd:output.obj
 0001:00081250       ?write_character@?$string_output_adapter@_W@__crt_stdio_output@@QEBA_N_WQEAH@Z 0000000180082250 f i libucrtd:output.obj
 0001:00081310       ?write_character_without_count_update@?$stream_output_adapter@D@__crt_stdio_output@@QEBA_ND@Z 0000000180082310 f i libucrtd:output.obj
 0001:00081390       ?write_character_without_count_update@?$stream_output_adapter@_W@__crt_stdio_output@@QEBA_N_W@Z 0000000180082390 f i libucrtd:output.obj
 0001:00081420       ?write_stored_string_tchar@?$output_processor@DV?$stream_output_adapter@D@__crt_stdio_output@@V?$format_validation_base@DV?$stream_output_adapter@D@__crt_stdio_output@@@2@@__crt_stdio_output@@AEAA_ND@Z 0000000180082420 f i libucrtd:output.obj
 0001:000815e0       ?write_stored_string_tchar@?$output_processor@DV?$stream_output_adapter@D@__crt_stdio_output@@V?$positional_parameter_base@DV?$stream_output_adapter@D@__crt_stdio_output@@@2@@__crt_stdio_output@@AEAA_ND@Z 00000001800825e0 f i libucrtd:output.obj
 0001:000817a0       ?write_stored_string_tchar@?$output_processor@DV?$stream_output_adapter@D@__crt_stdio_output@@V?$standard_base@DV?$stream_output_adapter@D@__crt_stdio_output@@@2@@__crt_stdio_output@@AEAA_ND@Z 00000001800827a0 f i libucrtd:output.obj
 0001:00081960       ?write_stored_string_tchar@?$output_processor@DV?$string_output_adapter@D@__crt_stdio_output@@V?$format_validation_base@DV?$string_output_adapter@D@__crt_stdio_output@@@2@@__crt_stdio_output@@AEAA_ND@Z 0000000180082960 f i libucrtd:output.obj
 0001:00081b20       ?write_stored_string_tchar@?$output_processor@DV?$string_output_adapter@D@__crt_stdio_output@@V?$positional_parameter_base@DV?$string_output_adapter@D@__crt_stdio_output@@@2@@__crt_stdio_output@@AEAA_ND@Z 0000000180082b20 f i libucrtd:output.obj
 0001:00081ce0       ?write_stored_string_tchar@?$output_processor@DV?$string_output_adapter@D@__crt_stdio_output@@V?$standard_base@DV?$string_output_adapter@D@__crt_stdio_output@@@2@@__crt_stdio_output@@AEAA_ND@Z 0000000180082ce0 f i libucrtd:output.obj
 0001:00081ea0       ?write_stored_string_tchar@?$output_processor@_WV?$stream_output_adapter@_W@__crt_stdio_output@@V?$format_validation_base@_WV?$stream_output_adapter@_W@__crt_stdio_output@@@2@@__crt_stdio_output@@AEAA_N_W@Z 0000000180082ea0 f i libucrtd:output.obj
 0001:00081ff0       ?write_stored_string_tchar@?$output_processor@_WV?$stream_output_adapter@_W@__crt_stdio_output@@V?$positional_parameter_base@_WV?$stream_output_adapter@_W@__crt_stdio_output@@@2@@__crt_stdio_output@@AEAA_N_W@Z 0000000180082ff0 f i libucrtd:output.obj
 0001:00082140       ?write_stored_string_tchar@?$output_processor@_WV?$stream_output_adapter@_W@__crt_stdio_output@@V?$standard_base@_WV?$stream_output_adapter@_W@__crt_stdio_output@@@2@@__crt_stdio_output@@AEAA_N_W@Z 0000000180083140 f i libucrtd:output.obj
 0001:00082290       ?write_stored_string_tchar@?$output_processor@_WV?$string_output_adapter@_W@__crt_stdio_output@@V?$format_validation_base@_WV?$string_output_adapter@_W@__crt_stdio_output@@@2@@__crt_stdio_output@@AEAA_N_W@Z 0000000180083290 f i libucrtd:output.obj
 0001:000823e0       ?write_stored_string_tchar@?$output_processor@_WV?$string_output_adapter@_W@__crt_stdio_output@@V?$positional_parameter_base@_WV?$string_output_adapter@_W@__crt_stdio_output@@@2@@__crt_stdio_output@@AEAA_N_W@Z 00000001800833e0 f i libucrtd:output.obj
 0001:00082530       ?write_stored_string_tchar@?$output_processor@_WV?$string_output_adapter@_W@__crt_stdio_output@@V?$standard_base@_WV?$string_output_adapter@_W@__crt_stdio_output@@@2@@__crt_stdio_output@@AEAA_N_W@Z 0000000180083530 f i libucrtd:output.obj
 0001:00082680       ?write_string@?$stream_output_adapter@D@__crt_stdio_output@@QEBAXQEBDHQEAHAEAV__crt_deferred_errno_cache@@@Z 0000000180083680 f i libucrtd:output.obj
 0001:00082700       ?write_string@?$stream_output_adapter@_W@__crt_stdio_output@@QEBAXQEB_WHQEAHAEAV__crt_deferred_errno_cache@@@Z 0000000180083700 f i libucrtd:output.obj
 0001:00082780       ?write_string@?$string_output_adapter@D@__crt_stdio_output@@QEBAXQEBDHQEAHAEAV__crt_deferred_errno_cache@@@Z 0000000180083780 f i libucrtd:output.obj
 0001:000828f0       ?write_string@?$string_output_adapter@_W@__crt_stdio_output@@QEBAXQEB_WHQEAHAEAV__crt_deferred_errno_cache@@@Z 00000001800838f0 f i libucrtd:output.obj
 0001:00082a60       ?write_string_impl@?$output_adapter_common@DV?$stream_output_adapter@D@__crt_stdio_output@@@__crt_stdio_output@@IEBAXQEBDHQEAHAEAV__crt_deferred_errno_cache@@@Z 0000000180083a60 f i libucrtd:output.obj
 0001:00082b40       ?write_string_impl@?$output_adapter_common@_WV?$stream_output_adapter@_W@__crt_stdio_output@@@__crt_stdio_output@@IEBAXQEB_WHQEAHAEAV__crt_deferred_errno_cache@@@Z 0000000180083b40 f i libucrtd:output.obj
 0001:00082c20       __acrt_disable_global_locale_sync 0000000180083c20 f i libucrtd:output.obj
 0001:00082c50       __acrt_enable_global_locale_sync 0000000180083c50 f i libucrtd:output.obj
 0001:00082c80       __acrt_isleadbyte_l_noupdate 0000000180083c80 f i libucrtd:output.obj
 0001:00082cb0       __acrt_locale_changed      0000000180083cb0 f i libucrtd:output.obj
 0001:00082ce0       __acrt_locale_get_ctype_array_value 0000000180083ce0 f i libucrtd:output.obj
 0001:00082d20       __stdio_common_vfprintf    0000000180083d20 f   libucrtd:output.obj
 0001:00082d60       __stdio_common_vfprintf_p  0000000180083d60 f   libucrtd:output.obj
 0001:00082da0       __stdio_common_vfprintf_s  0000000180083da0 f   libucrtd:output.obj
 0001:00082de0       __stdio_common_vfwprintf   0000000180083de0 f   libucrtd:output.obj
 0001:00082e20       __stdio_common_vfwprintf_p 0000000180083e20 f   libucrtd:output.obj
 0001:00082e60       __stdio_common_vfwprintf_s 0000000180083e60 f   libucrtd:output.obj
 0001:00082ea0       __stdio_common_vsnprintf_s 0000000180083ea0 f   libucrtd:output.obj
 0001:00082f00       __stdio_common_vsnwprintf_s 0000000180083f00 f   libucrtd:output.obj
 0001:00082f60       __stdio_common_vsprintf    0000000180083f60 f   libucrtd:output.obj
 0001:00082fb0       __stdio_common_vsprintf_p  0000000180083fb0 f   libucrtd:output.obj
 0001:00083000       __stdio_common_vsprintf_s  0000000180084000 f   libucrtd:output.obj
 0001:00083050       __stdio_common_vswprintf   0000000180084050 f   libucrtd:output.obj
 0001:000830a0       __stdio_common_vswprintf_p 00000001800840a0 f   libucrtd:output.obj
 0001:000830f0       __stdio_common_vswprintf_s 00000001800840f0 f   libucrtd:output.obj
 0001:00083140       _ctype_fast_check_internal 0000000180084140 f i libucrtd:output.obj
 0001:00083170       _isdigit_fast_internal     0000000180084170 f i libucrtd:output.obj
 0001:000831a0       _tolower_fast_internal     00000001800841a0 f i libucrtd:output.obj
 0001:000831d0       free                       00000001800841d0 f   libucrtd:free.obj
 0001:00083200       malloc                     0000000180084200 f   libucrtd:malloc.obj
 0001:00083230       ??$?RU?$__crt_report_hook_node@D@@@__crt_internal_free_policy@@QEBAXQEBU?$__crt_report_hook_node@D@@@Z 0000000180084230 f i libucrtd:dbgrpt.obj
 0001:00083260       ??$?RU?$__crt_report_hook_node@_W@@@__crt_internal_free_policy@@QEBAXQEBU?$__crt_report_hook_node@_W@@@Z 0000000180084260 f i libucrtd:dbgrpt.obj
 0001:000844a0       ??$get_module_file_name@AEAPEAUHINSTANCE__@@AEAY0BAF@DK@?$__crt_char_traits@D@@SAKAEAPEAUHINSTANCE__@@AEAY0BAF@D$$QEAK@Z 00000001800854a0 f i libucrtd:dbgrpt.obj
 0001:000844e0       ??$get_module_file_name@AEAPEAUHINSTANCE__@@AEAY0BAF@_WK@?$__crt_char_traits@_W@@SAKAEAPEAUHINSTANCE__@@AEAY0BAF@_W$$QEAK@Z 00000001800854e0 f i libucrtd:dbgrpt.obj
 0001:00084520       ??$tcscpy_s@AEAY0BAF@D_KPEBD@?$__crt_char_traits@D@@SAHAEAY0BAF@D$$QEA_K$$QEAPEBD@Z 0000000180085520 f i libucrtd:dbgrpt.obj
 0001:00084560       ??$tcscpy_s@AEAY0BAF@_W_KPEB_W@?$__crt_char_traits@_W@@SAHAEAY0BAF@_W$$QEA_K$$QEAPEB_W@Z 0000000180085560 f i libucrtd:dbgrpt.obj
 0001:000845a0       ??$tcslen@AEAY0BAF@D@?$__crt_char_traits@D@@SA_KAEAY0BAF@D@Z 00000001800855a0 f i libucrtd:dbgrpt.obj
 0001:000845c0       ??$tcslen@AEAY0BAF@_W@?$__crt_char_traits@_W@@SA_KAEAY0BAF@_W@Z 00000001800855c0 f i libucrtd:dbgrpt.obj
 0001:000845e0       ??$tcslen@AEBQEBD@?$__crt_char_traits@D@@SA_KAEBQEBD@Z 00000001800855e0 f i libucrtd:dbgrpt.obj
 0001:00084600       ??$tcslen@AEBQEB_W@?$__crt_char_traits@_W@@SA_KAEBQEB_W@Z 0000000180085600 f i libucrtd:dbgrpt.obj
 0001:00084700       ??0?$__crt_unique_heap_ptr@U?$__crt_report_hook_node@D@@U__crt_internal_free_policy@@@@QEAA@QEAU?$__crt_report_hook_node@D@@@Z 0000000180085700 f i libucrtd:dbgrpt.obj
 0001:00084720       ??0?$__crt_unique_heap_ptr@U?$__crt_report_hook_node@_W@@U__crt_internal_free_policy@@@@QEAA@QEAU?$__crt_report_hook_node@_W@@@Z 0000000180085720 f i libucrtd:dbgrpt.obj
 0001:00084740       ??1?$__crt_unique_heap_ptr@U?$__crt_report_hook_node@D@@U__crt_internal_free_policy@@@@QEAA@XZ 0000000180085740 f i libucrtd:dbgrpt.obj
 0001:00084760       ??1?$__crt_unique_heap_ptr@U?$__crt_report_hook_node@_W@@U__crt_internal_free_policy@@@@QEAA@XZ 0000000180085760 f i libucrtd:dbgrpt.obj
 0001:00084780       ??B?$__crt_unique_heap_ptr@U?$__crt_report_hook_node@D@@U__crt_internal_free_policy@@@@QEBA_NXZ 0000000180085780 f i libucrtd:dbgrpt.obj
 0001:000847a0       ??B?$__crt_unique_heap_ptr@U?$__crt_report_hook_node@_W@@U__crt_internal_free_policy@@@@QEBA_NXZ 00000001800857a0 f i libucrtd:dbgrpt.obj
 0001:00084e80       ?detach@?$__crt_unique_heap_ptr@U?$__crt_report_hook_node@D@@U__crt_internal_free_policy@@@@QEAAPEAU?$__crt_report_hook_node@D@@XZ 0000000180085e80 f i libucrtd:dbgrpt.obj
 0001:00084eb0       ?detach@?$__crt_unique_heap_ptr@U?$__crt_report_hook_node@_W@@U__crt_internal_free_policy@@@@QEAAPEAU?$__crt_report_hook_node@_W@@XZ 0000000180085eb0 f i libucrtd:dbgrpt.obj
 0001:00084ee0       ?get@?$__crt_unique_heap_ptr@U?$__crt_report_hook_node@D@@U__crt_internal_free_policy@@@@QEBAPEAU?$__crt_report_hook_node@D@@XZ 0000000180085ee0 f i libucrtd:dbgrpt.obj
 0001:00084ef0       ?get@?$__crt_unique_heap_ptr@U?$__crt_report_hook_node@_W@@U__crt_internal_free_policy@@@@QEBAPEAU?$__crt_report_hook_node@_W@@XZ 0000000180085ef0 f i libucrtd:dbgrpt.obj
 0001:00084f60       ?is_valid@?$__crt_unique_heap_ptr@U?$__crt_report_hook_node@D@@U__crt_internal_free_policy@@@@QEBA_NXZ 0000000180085f60 f i libucrtd:dbgrpt.obj
 0001:00084f90       ?is_valid@?$__crt_unique_heap_ptr@U?$__crt_report_hook_node@_W@@U__crt_internal_free_policy@@@@QEBA_NXZ 0000000180085f90 f i libucrtd:dbgrpt.obj
 0001:00084fc0       ?release@?$__crt_unique_heap_ptr@U?$__crt_report_hook_node@D@@U__crt_internal_free_policy@@@@QEAAXXZ 0000000180085fc0 f i libucrtd:dbgrpt.obj
 0001:00084ff0       ?release@?$__crt_unique_heap_ptr@U?$__crt_report_hook_node@_W@@U__crt_internal_free_policy@@@@QEAAXXZ 0000000180085ff0 f i libucrtd:dbgrpt.obj
 0001:00085020       _CrtDbgReport              0000000180086020 f   libucrtd:dbgrpt.obj
 0001:000850a0       _CrtDbgReportW             00000001800860a0 f   libucrtd:dbgrpt.obj
 0001:00085120       _CrtSetReportHook2         0000000180086120 f   libucrtd:dbgrpt.obj
 0001:00085140       _CrtSetReportHookW2        0000000180086140 f   libucrtd:dbgrpt.obj
 0001:00085160       __acrt_MessageWindowA      0000000180086160 f   libucrtd:dbgrpt.obj
 0001:000851b0       __acrt_MessageWindowW      00000001800861b0 f   libucrtd:dbgrpt.obj
 0001:00085200       _invoke_watson_if_error    0000000180086200 f i libucrtd:dbgrpt.obj
 0001:00085250       _invoke_watson_if_oneof    0000000180086250 f i libucrtd:dbgrpt.obj
 0001:000852b0       _snwprintf_s               00000001800862b0 f i libucrtd:dbgrpt.obj
 0001:00085320       _vsnwprintf_s_l            0000000180086320 f i libucrtd:dbgrpt.obj
 0001:00085880       wcscpy_s                   0000000180086880 f   libucrtd:wcscpy_s.obj
 0001:00086c10       ??1?$__crt_simd_cleanup_guard@$00@@QEAA@XZ 0000000180087c10 f i libucrtd:strnlen.obj
 0001:00086c20       ??1?$__crt_simd_cleanup_guard@$0A@@@QEAA@XZ 0000000180087c20 f i libucrtd:strnlen.obj
 0001:00086c30       ?compare_equals@?$__crt_simd_traits@$00E@@SA?AT__m256i@@T2@0@Z 0000000180087c30 f i libucrtd:strnlen.obj
 0001:00086c70       ?compare_equals@?$__crt_simd_traits@$00G@@SA?AT__m256i@@T2@0@Z 0000000180087c70 f i libucrtd:strnlen.obj
 0001:00086cb0       ?compare_equals@?$__crt_simd_traits@$0A@E@@SA?AT__m128i@@T2@0@Z 0000000180087cb0 f i libucrtd:strnlen.obj
 0001:00086ce0       ?compare_equals@?$__crt_simd_traits@$0A@G@@SA?AT__m128i@@T2@0@Z 0000000180087ce0 f i libucrtd:strnlen.obj
 0001:00086d10       ?compute_byte_mask@?$__crt_simd_pack_traits@$00@@SAHT__m256i@@@Z 0000000180087d10 f i libucrtd:strnlen.obj
 0001:00086d30       ?compute_byte_mask@?$__crt_simd_pack_traits@$0A@@@SAHT__m128i@@@Z 0000000180087d30 f i libucrtd:strnlen.obj
 0001:00086d50       ?get_zero_pack@?$__crt_simd_pack_traits@$00@@SA?AT__m256i@@XZ 0000000180087d50 f i libucrtd:strnlen.obj
 0001:00086d80       ?get_zero_pack@?$__crt_simd_pack_traits@$0A@@@SA?AT__m128i@@XZ 0000000180087d80 f i libucrtd:strnlen.obj
 0001:00086da0       strnlen                    0000000180087da0 f   libucrtd:strnlen.obj
 0001:00086dd0       wcslen                     0000000180087dd0 f   libucrtd:strnlen.obj
 0001:00086df0       wcsnlen                    0000000180087df0 f   libucrtd:strnlen.obj
 0001:00086e20       ??$__crt_fast_decode_pointer@P6AXPEB_W00I_K@Z@@YAP6AXPEB_W00I_K@ZQ6AX000I1@Z@Z 0000000180087e20 f i libucrtd:invalid_parameter.obj
 0001:00086e60       ??$__crt_fast_encode_pointer@P6AXPEB_W00I_K@Z@@YAP6AXPEB_W00I_K@ZQ6AX000I1@Z@Z 0000000180087e60 f i libucrtd:invalid_parameter.obj
 0001:00086ea0       ??$initialize_from_array@$$BY00Q6AXPEB_W00I_K@Z@?$dual_state_global@P6AXPEB_W00I_K@Z@__crt_state_management@@QEAAXAEAY00Q6AXPEB_W00I_K@Z@Z 0000000180087ea0 f i libucrtd:invalid_parameter.obj
 0001:00086f00       ?__crt_rotate_pointer_value@@YA_K_KH@Z 0000000180087f00 f i libucrtd:invalid_parameter.obj
 0001:00086fc0       ?dangerous_get_state_array@?$dual_state_global@P6AXPEB_W00I_K@Z@__crt_state_management@@QEAAPEAP6AXPEB_W00I_K@ZXZ 0000000180087fc0 f i libucrtd:invalid_parameter.obj
 0001:00086fd0       ?get_current_state_index@__crt_state_management@@YA_KXZ 0000000180087fd0 f i libucrtd:invalid_parameter.obj
 0001:00086fe0       ?value@?$dual_state_global@P6AXPEB_W00I_K@Z@__crt_state_management@@QEAAAEAP6AXPEB_W00I_K@ZXZ 0000000180087fe0 f i libucrtd:invalid_parameter.obj
 0001:00087000       __acrt_call_reportfault    0000000180088000 f   libucrtd:invalid_parameter.obj
 0001:00087130       __acrt_initialize_invalid_parameter_handler 0000000180088130 f   libucrtd:invalid_parameter.obj
 0001:00087160       _get_invalid_parameter_handler 0000000180088160 f   libucrtd:invalid_parameter.obj
 0001:00087180       _get_thread_local_invalid_parameter_handler 0000000180088180 f   libucrtd:invalid_parameter.obj
 0001:000871b0       _invalid_parameter         00000001800881b0 f   libucrtd:invalid_parameter.obj
 0001:000872b0       _invalid_parameter_noinfo  00000001800882b0 f   libucrtd:invalid_parameter.obj
 0001:000872e0       _invalid_parameter_noinfo_noreturn 00000001800882e0 f   libucrtd:invalid_parameter.obj
 0001:00087320       _invoke_watson             0000000180088320 f   libucrtd:invalid_parameter.obj
 0001:00087380       _set_invalid_parameter_handler 0000000180088380 f   libucrtd:invalid_parameter.obj
 0001:000873d0       _set_thread_local_invalid_parameter_handler 00000001800883d0 f   libucrtd:invalid_parameter.obj
 0001:00087410       __acrt_errno_from_os_error 0000000180088410 f   libucrtd:errno.obj
 0001:000874a0       __acrt_errno_map_os_error  00000001800884a0 f   libucrtd:errno.obj
 0001:000874d0       __doserrno                 00000001800884d0 f   libucrtd:errno.obj
 0001:00087500       _errno                     0000000180088500 f   libucrtd:errno.obj
 0001:00087530       _get_doserrno              0000000180088530 f   libucrtd:errno.obj
 0001:000875f0       _get_errno                 00000001800885f0 f   libucrtd:errno.obj
 0001:000876b0       _set_doserrno              00000001800886b0 f   libucrtd:errno.obj
 0001:000876f0       _set_errno                 00000001800886f0 f   libucrtd:errno.obj
 0001:00087730       calloc                     0000000180088730 f   libucrtd:calloc.obj
 0001:00087770       _recalloc                  0000000180088770 f   libucrtd:recalloc.obj
 0001:000877c0       _recalloc_base             00000001800887c0 f   libucrtd:recalloc.obj
 0001:0008789c       _resetstkoflw              000000018008889c f   libucrtd:resetstk.obj
 0001:00088050       wcscat_s                   0000000180089050 f   libucrtd:wcscat_s.obj
 0001:00088720       wcsncpy_s                  0000000180089720 f   libucrtd:wcsncpy_s.obj
 0001:000888a0       __isascii                  00000001800898a0 f   libucrtd:_ctype.obj
 0001:000888d0       __iscsym                   00000001800898d0 f   libucrtd:_ctype.obj
 0001:00088910       __iscsymf                  0000000180089910 f   libucrtd:_ctype.obj
 0001:00088950       __toascii                  0000000180089950 f   libucrtd:_ctype.obj
 0001:00088960       _isalnum_l                 0000000180089960 f   libucrtd:_ctype.obj
 0001:00088990       _isalpha_l                 0000000180089990 f   libucrtd:_ctype.obj
 0001:000889c0       _isblank_l                 00000001800899c0 f   libucrtd:_ctype.obj
 0001:000889f0       _iscntrl_l                 00000001800899f0 f   libucrtd:_ctype.obj
 0001:00088a20       _iscsym_l                  0000000180089a20 f   libucrtd:_ctype.obj
 0001:00088a70       _iscsymf_l                 0000000180089a70 f   libucrtd:_ctype.obj
 0001:00088ac0       _isdigit_l                 0000000180089ac0 f   libucrtd:_ctype.obj
 0001:00088af0       _isgraph_l                 0000000180089af0 f   libucrtd:_ctype.obj
 0001:00088b20       _islower_l                 0000000180089b20 f   libucrtd:_ctype.obj
 0001:00088b50       _isprint_l                 0000000180089b50 f   libucrtd:_ctype.obj
 0001:00088b80       _ispunct_l                 0000000180089b80 f   libucrtd:_ctype.obj
 0001:00088bb0       _isspace_l                 0000000180089bb0 f   libucrtd:_ctype.obj
 0001:00088be0       _isupper_l                 0000000180089be0 f   libucrtd:_ctype.obj
 0001:00088c10       _isxdigit_l                0000000180089c10 f   libucrtd:_ctype.obj
 0001:00088c40       isalnum                    0000000180089c40 f   libucrtd:_ctype.obj
 0001:00088c60       isalpha                    0000000180089c60 f   libucrtd:_ctype.obj
 0001:00088c80       isblank                    0000000180089c80 f   libucrtd:_ctype.obj
 0001:00088cb0       iscntrl                    0000000180089cb0 f   libucrtd:_ctype.obj
 0001:00088cd0       isdigit                    0000000180089cd0 f   libucrtd:_ctype.obj
 0001:00088cf0       isgraph                    0000000180089cf0 f   libucrtd:_ctype.obj
 0001:00088d10       islower                    0000000180089d10 f   libucrtd:_ctype.obj
 0001:00088d30       isprint                    0000000180089d30 f   libucrtd:_ctype.obj
 0001:00088d50       ispunct                    0000000180089d50 f   libucrtd:_ctype.obj
 0001:00088d70       isspace                    0000000180089d70 f   libucrtd:_ctype.obj
 0001:00088d90       isupper                    0000000180089d90 f   libucrtd:_ctype.obj
 0001:00088db0       isxdigit                   0000000180089db0 f   libucrtd:_ctype.obj
 0001:00088dd0       wcscat                     0000000180089dd0 f   libucrtd:wcscat.obj
 0001:00088e50       wcscpy                     0000000180089e50 f   libucrtd:wcscpy.obj
 0001:00089600       ??$open_file@AEBQEBDAEBQEBDAEBHPEAU_iobuf@@@?$__crt_char_traits@D@@SAPEAU_iobuf@@AEBQEBD0AEBH$$QEAPEAU1@@Z 000000018008a600 f i libucrtd:fopen.obj
 0001:00089650       ??$open_file@AEBQEB_WAEBQEB_WAEBHPEAU_iobuf@@@?$__crt_char_traits@_W@@SAPEAU_iobuf@@AEBQEB_W0AEBH$$QEAPEAU1@@Z 000000018008a650 f i libucrtd:fopen.obj
 0001:000896a0       ?unlock@__crt_stdio_stream@@QEBAXXZ 000000018008a6a0 f i libucrtd:fopen.obj
 0001:000896c0       _fsopen                    000000018008a6c0 f   libucrtd:fopen.obj
 0001:000896f0       _wfopen                    000000018008a6f0 f   libucrtd:fopen.obj
 0001:00089720       _wfopen_s                  000000018008a720 f   libucrtd:fopen.obj
 0001:00089750       _wfsopen                   000000018008a750 f   libucrtd:fopen.obj
 0001:00089780       fopen                      000000018008a780 f   libucrtd:fopen.obj
 0001:000897b0       fopen_s                    000000018008a7b0 f   libucrtd:fopen.obj
 0001:000897e0       ?is_in_use@__crt_stdio_stream@@QEBA_NXZ 000000018008a7e0 f i libucrtd:fclose.obj
 0001:00089820       _fclose_nolock             000000018008a820 f   libucrtd:fclose.obj
 0001:000899b0       fclose                     000000018008a9b0 f   libucrtd:fclose.obj
 0001:00089af0       _fputc_nolock              000000018008aaf0 f   libucrtd:fputc.obj
 0001:00089ba0       _fputchar                  000000018008aba0 f   libucrtd:fputc.obj
 0001:00089bd0       _putc_nolock               000000018008abd0 f   libucrtd:fputc.obj
 0001:00089bf0       fputc                      000000018008abf0 f   libucrtd:fputc.obj
 0001:00089e90       putc                       000000018008ae90 f   libucrtd:fputc.obj
 0001:00089eb0       putchar                    000000018008aeb0 f   libucrtd:fputc.obj
 0001:00089f40       _seh_filter_dll            000000018008af40 f   libucrtd:exception_filter.obj
 0001:00089f70       _seh_filter_exe            000000018008af70 f   libucrtd:exception_filter.obj
 0001:0008a210       ??$?B$$A6AXPEAXK0@Z@__crt_fast_encoded_nullptr_t@@QEBAP6AXPEAXK0@ZXZ 000000018008b210 f i libucrtd:exit.obj
 0001:0008a2c0       ??$__crt_fast_decode_pointer@P6AXPEAXK0@Z@@YAP6AXPEAXK0@ZQ6AX0K0@Z@Z 000000018008b2c0 f i libucrtd:exit.obj
 0001:0008a300       ??$__crt_fast_encode_pointer@P6AXPEAXK0@Z@@YAP6AXPEAXK0@ZQ6AX0K0@Z@Z 000000018008b300 f i libucrtd:exit.obj
 0001:0008a340       ??$__crt_get_proc_address@P6AXI@Z@@YAP6AXI@ZQEAUHINSTANCE__@@QEBD@Z 000000018008b340 f i libucrtd:exit.obj
 0001:0008a400       ??0?$__crt_unique_handle_t@U__crt_hmodule_traits@@@@QEAA@QEAUHINSTANCE__@@@Z 000000018008b400 f i libucrtd:exit.obj
 0001:0008a420       ??1?$__crt_unique_handle_t@U__crt_hmodule_traits@@@@QEAA@XZ 000000018008b420 f i libucrtd:exit.obj
 0001:0008a580       ?__acrt_select_exit_lock@@YA?AW4__acrt_lock_id@@XZ 000000018008b580 f i libucrtd:exit.obj
 0001:0008a590       ?__crt_fast_encode_pointer@@YA?AU__crt_fast_encoded_nullptr_t@@$$T@Z 000000018008b590 f i libucrtd:exit.obj
 0001:0008a5d0       ?close@?$__crt_unique_handle_t@U__crt_hmodule_traits@@@@QEAAXXZ 000000018008b5d0 f i libucrtd:exit.obj
 0001:0008a610       ?close@__crt_hmodule_traits@@SA_NPEAUHINSTANCE__@@@Z 000000018008b610 f i libucrtd:exit.obj
 0001:0008a720       ?get@?$__crt_unique_handle_t@U__crt_hmodule_traits@@@@QEBAPEAUHINSTANCE__@@XZ 000000018008b720 f i libucrtd:exit.obj
 0001:0008a730       ?get_address_of@?$__crt_unique_handle_t@U__crt_hmodule_traits@@@@QEAAPEAPEAUHINSTANCE__@@XZ 000000018008b730 f i libucrtd:exit.obj
 0001:0008a740       ?get_invalid_value@__crt_hmodule_traits@@SAPEAUHINSTANCE__@@XZ 000000018008b740 f i libucrtd:exit.obj
 0001:0008a900       _Exit                      000000018008b900 f   libucrtd:exit.obj
 0001:0008a920       __acrt_initialize_thread_local_exit_callback 000000018008b920 f   libucrtd:exit.obj
 0001:0008a940       _c_exit                    000000018008b940 f   libucrtd:exit.obj
 0001:0008a960       _cexit                     000000018008b960 f   libucrtd:exit.obj
 0001:0008a980       _exit                      000000018008b980 f   libucrtd:exit.obj
 0001:0008a9a0       _is_c_termination_complete 000000018008b9a0 f   libucrtd:exit.obj
 0001:0008a9c0       _register_thread_local_exe_atexit_callback 000000018008b9c0 f   libucrtd:exit.obj
 0001:0008aa10       exit                       000000018008ba10 f   libucrtd:exit.obj
 0001:0008aa30       quick_exit                 000000018008ba30 f   libucrtd:exit.obj
 0001:0008aa50       ??$?RE@__crt_internal_free_policy@@QEBAXQEBE@Z 000000018008ba50 f i libucrtd:argv_parsing.obj
 0001:0008aa80       ??$?RPEAD@__crt_internal_free_policy@@QEBAXQEBQEAD@Z 000000018008ba80 f i libucrtd:argv_parsing.obj
 0001:0008aab0       ??$?RPEA_W@__crt_internal_free_policy@@QEBAXQEBQEA_W@Z 000000018008bab0 f i libucrtd:argv_parsing.obj
 0001:0008b200       ??$get_module_file_name@$$TAEAY0BAF@DH@?$__crt_char_traits@D@@SAK$$QEA$$TAEAY0BAF@D$$QEAH@Z 000000018008c200 f i libucrtd:argv_parsing.obj
 0001:0008b240       ??$get_module_file_name@$$TAEAY0BAF@_WH@?$__crt_char_traits@_W@@SAK$$QEA$$TAEAY0BAF@_W$$QEAH@Z 000000018008c240 f i libucrtd:argv_parsing.obj
 0001:0008bbf0       ??$set_program_name@PEAD@?$__crt_char_traits@D@@SAX$$QEAPEAD@Z 000000018008cbf0 f i libucrtd:argv_parsing.obj
 0001:0008bc10       ??$set_program_name@PEA_W@?$__crt_char_traits@_W@@SAX$$QEAPEA_W@Z 000000018008cc10 f i libucrtd:argv_parsing.obj
 0001:0008bc70       ??0?$__crt_unique_heap_ptr@EU__crt_internal_free_policy@@@@QEAA@QEAE@Z 000000018008cc70 f i libucrtd:argv_parsing.obj
 0001:0008bc90       ??0?$__crt_unique_heap_ptr@PEADU__crt_internal_free_policy@@@@QEAA@QEAPEAD@Z 000000018008cc90 f i libucrtd:argv_parsing.obj
 0001:0008bcb0       ??0?$__crt_unique_heap_ptr@PEA_WU__crt_internal_free_policy@@@@QEAA@QEAPEA_W@Z 000000018008ccb0 f i libucrtd:argv_parsing.obj
 0001:0008bcd0       ??1?$__crt_unique_heap_ptr@EU__crt_internal_free_policy@@@@QEAA@XZ 000000018008ccd0 f i libucrtd:argv_parsing.obj
 0001:0008bcf0       ??1?$__crt_unique_heap_ptr@PEADU__crt_internal_free_policy@@@@QEAA@XZ 000000018008ccf0 f i libucrtd:argv_parsing.obj
 0001:0008bd10       ??1?$__crt_unique_heap_ptr@PEA_WU__crt_internal_free_policy@@@@QEAA@XZ 000000018008cd10 f i libucrtd:argv_parsing.obj
 0001:0008bd30       ??B?$__crt_unique_heap_ptr@EU__crt_internal_free_policy@@@@QEBA_NXZ 000000018008cd30 f i libucrtd:argv_parsing.obj
 0001:0008be10       ?detach@?$__crt_unique_heap_ptr@EU__crt_internal_free_policy@@@@QEAAPEAEXZ 000000018008ce10 f i libucrtd:argv_parsing.obj
 0001:0008be40       ?detach@?$__crt_unique_heap_ptr@PEADU__crt_internal_free_policy@@@@QEAAPEAPEADXZ 000000018008ce40 f i libucrtd:argv_parsing.obj
 0001:0008be70       ?detach@?$__crt_unique_heap_ptr@PEA_WU__crt_internal_free_policy@@@@QEAAPEAPEA_WXZ 000000018008ce70 f i libucrtd:argv_parsing.obj
 0001:0008bf30       ?get@?$__crt_unique_heap_ptr@EU__crt_internal_free_policy@@@@QEBAPEAEXZ 000000018008cf30 f i libucrtd:argv_parsing.obj
 0001:0008bf40       ?get@?$__crt_unique_heap_ptr@PEADU__crt_internal_free_policy@@@@QEBAPEAPEADXZ 000000018008cf40 f i libucrtd:argv_parsing.obj
 0001:0008bf50       ?get@?$__crt_unique_heap_ptr@PEA_WU__crt_internal_free_policy@@@@QEBAPEAPEA_WXZ 000000018008cf50 f i libucrtd:argv_parsing.obj
 0001:0008bf60       ?get_address_of@?$__crt_unique_heap_ptr@PEADU__crt_internal_free_policy@@@@QEAAPEAPEAPEADXZ 000000018008cf60 f i libucrtd:argv_parsing.obj
 0001:0008bf70       ?get_address_of@?$__crt_unique_heap_ptr@PEA_WU__crt_internal_free_policy@@@@QEAAPEAPEAPEA_WXZ 000000018008cf70 f i libucrtd:argv_parsing.obj
 0001:0008bfc0       ?is_valid@?$__crt_unique_heap_ptr@EU__crt_internal_free_policy@@@@QEBA_NXZ 000000018008cfc0 f i libucrtd:argv_parsing.obj
 0001:0008bff0       ?release@?$__crt_unique_heap_ptr@EU__crt_internal_free_policy@@@@QEAAXXZ 000000018008cff0 f i libucrtd:argv_parsing.obj
 0001:0008c020       ?release@?$__crt_unique_heap_ptr@PEADU__crt_internal_free_policy@@@@QEAAXXZ 000000018008d020 f i libucrtd:argv_parsing.obj
 0001:0008c050       ?release@?$__crt_unique_heap_ptr@PEA_WU__crt_internal_free_policy@@@@QEAAXXZ 000000018008d050 f i libucrtd:argv_parsing.obj
 0001:0008c0d0       __acrt_allocate_buffer_for_argv 000000018008d0d0 f   libucrtd:argv_parsing.obj
 0001:0008c1f0       _configure_narrow_argv     000000018008d1f0 f   libucrtd:argv_parsing.obj
 0001:0008c210       _configure_wide_argv       000000018008d210 f   libucrtd:argv_parsing.obj
 0001:0008c230       _set_pgmptr                000000018008d230 f i libucrtd:argv_parsing.obj
 0001:0008c250       _set_wpgmptr               000000018008d250 f i libucrtd:argv_parsing.obj
 0001:0008c264       ??$?R_W@__crt_internal_free_policy@@QEBAXQEB_W@Z 000000018008d264 f i libucrtd:environment_initialization.obj
 0001:0008c83c       ??$get_environment_from_os@$$V@?$__crt_char_traits@D@@SAPEADXZ 000000018008d83c f i libucrtd:environment_initialization.obj
 0001:0008c844       ??$get_environment_from_os@$$V@?$__crt_char_traits@_W@@SAPEA_WXZ 000000018008d844 f i libucrtd:environment_initialization.obj
 0001:0008ca14       ??$set_variable_in_environment_nolock@PEADH@?$__crt_char_traits@D@@SAH$$QEAPEAD$$QEAH@Z 000000018008da14 f i libucrtd:environment_initialization.obj
 0001:0008ca20       ??$set_variable_in_environment_nolock@PEA_WH@?$__crt_char_traits@_W@@SAH$$QEAPEA_W$$QEAH@Z 000000018008da20 f i libucrtd:environment_initialization.obj
 0001:0008ca2c       ??$tcscpy_s@PEADAEB_KAEAPEAD@?$__crt_char_traits@D@@SAH$$QEAPEADAEB_KAEAPEAD@Z 000000018008da2c f i libucrtd:environment_initialization.obj
 0001:0008ca3c       ??$tcscpy_s@PEA_WAEB_KAEAPEA_W@?$__crt_char_traits@_W@@SAH$$QEAPEA_WAEB_KAEAPEA_W@Z 000000018008da3c f i libucrtd:environment_initialization.obj
 0001:0008ca4c       ??$tcslen@AEAPEAD@?$__crt_char_traits@D@@SA_KAEAPEAD@Z 000000018008da4c f i libucrtd:environment_initialization.obj
 0001:0008ca60       ??$tcslen@AEAPEA_W@?$__crt_char_traits@_W@@SA_KAEAPEA_W@Z 000000018008da60 f i libucrtd:environment_initialization.obj
 0001:0008ca74       ??$uninitialize@A6AXAEAPEAPEAD@Z@?$dual_state_global@PEAPEAD@__crt_state_management@@QEAAXA6AXAEAPEAPEAD@Z@Z 000000018008da74 f i libucrtd:environment_initialization.obj
 0001:0008cab8       ??$uninitialize@A6AXAEAPEAPEA_W@Z@?$dual_state_global@PEAPEA_W@__crt_state_management@@QEAAXA6AXAEAPEAPEA_W@Z@Z 000000018008dab8 f i libucrtd:environment_initialization.obj
 0001:0008cb34       ??0?$__crt_unique_heap_ptr@_WU__crt_internal_free_policy@@@@QEAA@QEA_W@Z 000000018008db34 f i libucrtd:environment_initialization.obj
 0001:0008cb3c       ??1?$__crt_unique_heap_ptr@_WU__crt_internal_free_policy@@@@QEAA@XZ 000000018008db3c f i libucrtd:environment_initialization.obj
 0001:0008cb5c       ??B?$__crt_unique_heap_ptr@PEADU__crt_internal_free_policy@@@@QEBA_NXZ 000000018008db5c f i libucrtd:environment_initialization.obj
 0001:0008cb64       ??B?$__crt_unique_heap_ptr@PEA_WU__crt_internal_free_policy@@@@QEBA_NXZ 000000018008db64 f i libucrtd:environment_initialization.obj
 0001:0008cb6c       ??B?$__crt_unique_heap_ptr@_WU__crt_internal_free_policy@@@@QEBA_NXZ 000000018008db6c f i libucrtd:environment_initialization.obj
 0001:0008cb74       ?__crt_compute_required_transform_buffer_count@@YA_KIQEBD@Z 000000018008db74 f i libucrtd:environment_initialization.obj
 0001:0008cb98       ?__crt_compute_required_transform_buffer_count@@YA_KIQEB_W@Z 000000018008db98 f i libucrtd:environment_initialization.obj
 0001:0008cbc8       ?__crt_transform_string@@YA_KIQEBDQEA_W_K@Z 000000018008dbc8 f i libucrtd:environment_initialization.obj
 0001:0008cbec       ?__crt_transform_string@@YA_KIQEB_WQEAD_K@Z 000000018008dbec f i libucrtd:environment_initialization.obj
 0001:0008cc1c       ?detach@?$__crt_unique_heap_ptr@DU__crt_internal_free_policy@@@@QEAAPEADXZ 000000018008dc1c f i libucrtd:environment_initialization.obj
 0001:0008cc24       ?detach@?$__crt_unique_heap_ptr@_WU__crt_internal_free_policy@@@@QEAAPEA_WXZ 000000018008dc24 f i libucrtd:environment_initialization.obj
 0001:0008cc2c       ?get@?$__crt_unique_heap_ptr@_WU__crt_internal_free_policy@@@@QEBAPEA_WXZ 000000018008dc2c f i libucrtd:environment_initialization.obj
 0001:0008cc60       ?initialize@?$dual_state_global@PEAPEAD@__crt_state_management@@QEAAXQEAPEAD@Z 000000018008dc60 f i libucrtd:environment_initialization.obj
 0001:0008cc88       ?initialize@?$dual_state_global@PEAPEA_W@__crt_state_management@@QEAAXQEAPEA_W@Z 000000018008dc88 f i libucrtd:environment_initialization.obj
 0001:0008ccb0       ?is_valid@?$__crt_unique_heap_ptr@PEADU__crt_internal_free_policy@@@@QEBA_NXZ 000000018008dcb0 f i libucrtd:environment_initialization.obj
 0001:0008ccb8       ?is_valid@?$__crt_unique_heap_ptr@PEA_WU__crt_internal_free_policy@@@@QEBA_NXZ 000000018008dcb8 f i libucrtd:environment_initialization.obj
 0001:0008ccc0       ?is_valid@?$__crt_unique_heap_ptr@_WU__crt_internal_free_policy@@@@QEBA_NXZ 000000018008dcc0 f i libucrtd:environment_initialization.obj
 0001:0008ccd4       ?release@?$__crt_unique_heap_ptr@_WU__crt_internal_free_policy@@@@QEAAXXZ 000000018008dcd4 f i libucrtd:environment_initialization.obj
 0001:0008ccf4       ?value@?$dual_state_global@PEAPEAD@__crt_state_management@@QEAAAEAPEAPEADXZ 000000018008dcf4 f i libucrtd:environment_initialization.obj
 0001:0008ccf8       ?value@?$dual_state_global@PEAPEA_W@__crt_state_management@@QEAAAEAPEAPEA_WXZ 000000018008dcf8 f i libucrtd:environment_initialization.obj
 0001:0008ccfc       __dcrt_get_or_create_narrow_environment_nolock 000000018008dcfc f   libucrtd:environment_initialization.obj
 0001:0008cd38       __dcrt_get_or_create_wide_environment_nolock 000000018008dd38 f   libucrtd:environment_initialization.obj
 0001:0008cd74       __dcrt_uninitialize_environments_nolock 000000018008dd74 f   libucrtd:environment_initialization.obj
 0001:0008cdac       __p__environ               000000018008ddac f   libucrtd:environment_initialization.obj
 0001:0008cdb4       __p__wenviron              000000018008ddb4 f   libucrtd:environment_initialization.obj
 0001:0008cdbc       _get_initial_narrow_environment 000000018008ddbc f   libucrtd:environment_initialization.obj
 0001:0008ce0c       _get_initial_wide_environment 000000018008de0c f   libucrtd:environment_initialization.obj
 0001:0008ce5c       _initialize_narrow_environment 000000018008de5c f   libucrtd:environment_initialization.obj
 0001:0008ce64       _initialize_wide_environment 000000018008de64 f   libucrtd:environment_initialization.obj
 0001:0008ce70       ??$?B$$A6AXXZ@__crt_fast_encoded_nullptr_t@@QEBAP6AXXZXZ 000000018008de70 f i libucrtd:onexit.obj
 0001:0008ce90       ??$?BP6AXXZ@__crt_fast_encoded_nullptr_t@@QEBAPEAP6AXXZXZ 000000018008de90 f i libucrtd:onexit.obj
 0001:0008ceb0       ??$?RP6AXXZ@__crt_internal_free_policy@@QEBAXQEBQ6AXXZ@Z 000000018008deb0 f i libucrtd:onexit.obj
 0001:0008d020       ??$__crt_fast_decode_pointer@P6AXXZ@@YAP6AXXZQ6AXXZ@Z 000000018008e020 f i libucrtd:onexit.obj
 0001:0008d060       ??$__crt_fast_decode_pointer@PEAP6AXXZ@@YAPEAP6AXXZQEAP6AXXZ@Z 000000018008e060 f i libucrtd:onexit.obj
 0001:0008d0a0       ??$__crt_fast_encode_pointer@P6AHXZ@@YAP6AHXZQ6AHXZ@Z 000000018008e0a0 f i libucrtd:onexit.obj
 0001:0008d0e0       ??$__crt_fast_encode_pointer@P6AXXZ@@YAP6AXXZQ6AXXZ@Z 000000018008e0e0 f i libucrtd:onexit.obj
 0001:0008d120       ??$__crt_fast_encode_pointer@PEAP6AXXZ@@YAPEAP6AXXZQEAP6AXXZ@Z 000000018008e120 f i libucrtd:onexit.obj
 0001:0008d230       ??0?$__crt_unique_heap_ptr@P6AXXZU__crt_internal_free_policy@@@@QEAA@QEAP6AXXZ@Z 000000018008e230 f i libucrtd:onexit.obj
 0001:0008d250       ??1?$__crt_unique_heap_ptr@P6AXXZU__crt_internal_free_policy@@@@QEAA@XZ 000000018008e250 f i libucrtd:onexit.obj
 0001:0008d270       ??1scoped_global_state_reset@__crt_state_management@@QEAA@XZ 000000018008e270 f i libucrtd:onexit.obj
 0001:0008d840       ?detach@?$__crt_unique_heap_ptr@P6AXXZU__crt_internal_free_policy@@@@QEAAPEAP6AXXZXZ 000000018008e840 f i libucrtd:onexit.obj
 0001:0008d870       ?release@?$__crt_unique_heap_ptr@P6AXXZU__crt_internal_free_policy@@@@QEAAXXZ 000000018008e870 f i libucrtd:onexit.obj
 0001:0008d8a0       _crt_at_quick_exit         000000018008e8a0 f   libucrtd:onexit.obj
 0001:0008d8c0       _crt_atexit                000000018008e8c0 f   libucrtd:onexit.obj
 0001:0008d8e0       _execute_onexit_table      000000018008e8e0 f   libucrtd:onexit.obj
 0001:0008d920       _initialize_onexit_table   000000018008e920 f   libucrtd:onexit.obj
 0001:0008d9a0       _register_onexit_function  000000018008e9a0 f   libucrtd:onexit.obj
 0001:0008dc10       ??$?BX@__crt_fast_encoded_nullptr_t@@QEBAPEAXXZ 000000018008ec10 f i libucrtd:initialization.obj
 0001:0008dc30       ??$__crt_fast_encode_pointer@PEAX@@YAPEAXQEAX@Z 000000018008ec30 f i libucrtd:initialization.obj
 0001:0008dd20       ?initialize@?$dual_state_global@PEAU__crt_locale_data@@@__crt_state_management@@QEAAXQEAU__crt_locale_data@@@Z 000000018008ed20 f i libucrtd:initialization.obj
 0001:0008dd70       __acrt_initialize          000000018008ed70 f   libucrtd:initialization.obj
 0001:0008dda0       __acrt_thread_attach       000000018008eda0 f   libucrtd:initialization.obj
 0001:0008ddc0       __acrt_thread_detach       000000018008edc0 f   libucrtd:initialization.obj
 0001:0008ddd0       __acrt_uninitialize        000000018008edd0 f   libucrtd:initialization.obj
 0001:0008de00       __acrt_uninitialize_critical 000000018008ee00 f   libucrtd:initialization.obj
 0001:0008fdf0       _CrtCheckMemory            0000000180090df0 f   libucrtd:debug_heap.obj
 0001:0008ff80       _CrtDoForAllClientObjects  0000000180090f80 f   libucrtd:debug_heap.obj
 0001:000900b0       _CrtDumpMemoryLeaks        00000001800910b0 f   libucrtd:debug_heap.obj
 0001:00090170       _CrtGetAllocHook           0000000180091170 f   libucrtd:debug_heap.obj
 0001:00090180       _CrtGetDumpClient          0000000180091180 f   libucrtd:debug_heap.obj
 0001:00090190       _CrtIsMemoryBlock          0000000180091190 f   libucrtd:debug_heap.obj
 0001:000902d0       _CrtIsValidHeapPointer     00000001800912d0 f   libucrtd:debug_heap.obj
 0001:00090310       _CrtIsValidPointer         0000000180091310 f   libucrtd:debug_heap.obj
 0001:00090350       _CrtMemCheckpoint          0000000180091350 f   libucrtd:debug_heap.obj
 0001:000905d0       _CrtMemDifference          00000001800915d0 f   libucrtd:debug_heap.obj
 0001:00090930       _CrtMemDumpAllObjectsSince 0000000180091930 f   libucrtd:debug_heap.obj
 0001:00090990       _CrtMemDumpStatistics      0000000180091990 f   libucrtd:debug_heap.obj
 0001:00090b30       _CrtReportBlockType        0000000180091b30 f   libucrtd:debug_heap.obj
 0001:00090b60       _CrtSetAllocHook           0000000180091b60 f   libucrtd:debug_heap.obj
 0001:00090b90       _CrtSetBreakAlloc          0000000180091b90 f   libucrtd:debug_heap.obj
 0001:00090bc0       _CrtSetDbgBlockType        0000000180091bc0 f   libucrtd:debug_heap.obj
 0001:00090c60       _CrtSetDbgFlag             0000000180091c60 f   libucrtd:debug_heap.obj
 0001:00090dc0       _CrtSetDumpClient          0000000180091dc0 f   libucrtd:debug_heap.obj
 0001:00090df0       __acrt_get_locale_data_prefix 0000000180091df0 f i libucrtd:debug_heap.obj
 0001:00090e10       __p__crtBreakAlloc         0000000180091e10 f   libucrtd:debug_heap.obj
 0001:00090e20       __p__crtDbgFlag            0000000180091e20 f   libucrtd:debug_heap.obj
 0001:00090e30       _aligned_free_dbg          0000000180091e30 f   libucrtd:debug_heap.obj
 0001:00090f20       _aligned_malloc_dbg        0000000180091f20 f   libucrtd:debug_heap.obj
 0001:00090f60       _aligned_msize_dbg         0000000180091f60 f   libucrtd:debug_heap.obj
 0001:00091130       _aligned_offset_malloc_dbg 0000000180092130 f   libucrtd:debug_heap.obj
 0001:00091420       _aligned_offset_realloc_dbg 0000000180092420 f   libucrtd:debug_heap.obj
 0001:000918d0       _aligned_offset_recalloc_dbg 00000001800928d0 f   libucrtd:debug_heap.obj
 0001:000919f0       _aligned_realloc_dbg       00000001800929f0 f   libucrtd:debug_heap.obj
 0001:00091a40       _aligned_recalloc_dbg      0000000180092a40 f   libucrtd:debug_heap.obj
 0001:00091aa0       _calloc_dbg                0000000180092aa0 f   libucrtd:debug_heap.obj
 0001:00091b40       _chvalidchk_l              0000000180092b40 f i libucrtd:debug_heap.obj
 0001:00091b70       _expand_dbg                0000000180092b70 f   libucrtd:debug_heap.obj
 0001:00091ca0       _free_dbg                  0000000180092ca0 f   libucrtd:debug_heap.obj
 0001:00091d10       _ischartype_l              0000000180092d10 f i libucrtd:debug_heap.obj
 0001:00091da0       _malloc_dbg                0000000180092da0 f   libucrtd:debug_heap.obj
 0001:00091de0       _msize_dbg                 0000000180092de0 f   libucrtd:debug_heap.obj
 0001:00091f80       _realloc_dbg               0000000180092f80 f   libucrtd:debug_heap.obj
 0001:00091ff0       _recalloc_dbg              0000000180092ff0 f   libucrtd:debug_heap.obj
 0001:000920f0       _initterm                  00000001800930f0 f   libucrtd:initterm.obj
 0001:00092150       _initterm_e                0000000180093150 f   libucrtd:initterm.obj
 0001:000926a0       strcpy_s                   00000001800936a0 f   libucrtd:strcpy_s.obj
 0001:00092d40       strcat_s                   0000000180093d40 f   libucrtd:strcat_s.obj
 0001:00092d70       ??$?B$$A6AH_K@Z@__crt_fast_encoded_nullptr_t@@QEBAP6AH_K@ZXZ 0000000180093d70 f i libucrtd:new_handler.obj
 0001:00092d90       ??$__crt_fast_decode_pointer@P6AH_K@Z@@YAP6AH_K@ZQ6AH0@Z@Z 0000000180093d90 f i libucrtd:new_handler.obj
 0001:00092dd0       ??$__crt_fast_encode_pointer@P6AH_K@Z@@YAP6AH_K@ZQ6AH0@Z@Z 0000000180093dd0 f i libucrtd:new_handler.obj
 0001:00092e10       ?_set_new_handler@@YAP6AH_K@ZH@Z 0000000180093e10 f   libucrtd:new_handler.obj
 0001:00092e80       ?initialize@?$dual_state_global@P6AH_K@Z@__crt_state_management@@QEAAXQ6AH_K@Z@Z 0000000180093e80 f i libucrtd:new_handler.obj
 0001:00092ed0       ?value@?$dual_state_global@P6AH_K@Z@__crt_state_management@@QEAAAEAP6AH_K@ZXZ 0000000180093ed0 f i libucrtd:new_handler.obj
 0001:00092ef0       __acrt_initialize_new_handler 0000000180093ef0 f   libucrtd:new_handler.obj
 0001:00092f10       _callnewh                  0000000180093f10 f   libucrtd:new_handler.obj
 0001:00092f60       _query_new_handler         0000000180093f60 f   libucrtd:new_handler.obj
 0001:00092fa0       _set_new_handler           0000000180093fa0 f   libucrtd:new_handler.obj
 0001:00093050       _get_terminate             0000000180094050 f   libucrtd:terminate.obj
 0001:00093070       set_terminate              0000000180094070 f   libucrtd:terminate.obj
 0001:000930b0       terminate                  00000001800940b0 f   libucrtd:terminate.obj
 0001:00093eb0       _makepath                  0000000180094eb0 f   libucrtd:makepath.obj
 0001:00093f00       _makepath_s                0000000180094f00 f   libucrtd:makepath.obj
 0001:00093f50       _wmakepath                 0000000180094f50 f   libucrtd:makepath.obj
 0001:00093fa0       _wmakepath_s               0000000180094fa0 f   libucrtd:makepath.obj
 0001:000965d0       ??$tcsncpy_s@AEAPEAD_KAEAPEBDAEB_K@?$__crt_char_traits@D@@SAHAEAPEAD$$QEA_KAEAPEBDAEB_K@Z 00000001800975d0 f i libucrtd:splitpath.obj
 0001:00096620       ??$tcsncpy_s@AEAPEAD_KAEAPEBDH@?$__crt_char_traits@D@@SAHAEAPEAD$$QEA_KAEAPEBD$$QEAH@Z 0000000180097620 f i libucrtd:splitpath.obj
 0001:00096670       ??$tcsncpy_s@AEAPEA_W_KAEAPEB_WAEB_K@?$__crt_char_traits@_W@@SAHAEAPEA_W$$QEA_KAEAPEB_WAEB_K@Z 0000000180097670 f i libucrtd:splitpath.obj
 0001:000966c0       ??$tcsncpy_s@AEAPEA_W_KAEAPEB_WH@?$__crt_char_traits@_W@@SAHAEAPEA_W$$QEA_KAEAPEB_W$$QEAH@Z 00000001800976c0 f i libucrtd:splitpath.obj
 0001:00096970       _splitpath                 0000000180097970 f   libucrtd:splitpath.obj
 0001:000969b0       _splitpath_s               00000001800979b0 f   libucrtd:splitpath.obj
 0001:00096a50       _wsplitpath                0000000180097a50 f   libucrtd:splitpath.obj
 0001:00096a90       _wsplitpath_s              0000000180097a90 f   libucrtd:splitpath.obj
 0001:00096b30       _set_abort_behavior        0000000180097b30 f   libucrtd:abort.obj
 0001:00096b70       abort                      0000000180097b70 f   libucrtd:abort.obj
 0001:00096c00       strcmp                     0000000180097c00 f   libucrtd:strcmp.obj
 0001:00096c80       strlen                     0000000180097c80 f   libucrtd:strlen.obj
 0001:00096d30       ??$is_overflow_condition@K@__crt_strtox@@YA_NIK@Z 0000000180097d30 f i libucrtd:atox.obj
 0001:00096da0       ??$is_overflow_condition@_K@__crt_strtox@@YA_NI_K@Z 0000000180097da0 f i libucrtd:atox.obj
 0001:00096e10       ??$make_c_string_character_source@D$$T@__crt_strtox@@YA?AV?$c_string_character_source@D@0@QEBD$$T@Z 0000000180097e10 f i libucrtd:atox.obj
 0001:00096e50       ??$make_c_string_character_source@_W$$T@__crt_strtox@@YA?AV?$c_string_character_source@_W@0@QEB_W$$T@Z 0000000180097e50 f i libucrtd:atox.obj
 0001:00096e90       ??$parse_integer@KV?$c_string_character_source@D@__crt_strtox@@@__crt_strtox@@YAKQEAU__crt_locale_pointers@@V?$c_string_character_source@D@0@H_N@Z 0000000180097e90 f i libucrtd:atox.obj
 0001:00097320       ??$parse_integer@KV?$c_string_character_source@_W@__crt_strtox@@@__crt_strtox@@YAKQEAU__crt_locale_pointers@@V?$c_string_character_source@_W@0@H_N@Z 0000000180098320 f i libucrtd:atox.obj
 0001:000977d0       ??$parse_integer@_KV?$c_string_character_source@D@__crt_strtox@@@__crt_strtox@@YA_KQEAU__crt_locale_pointers@@V?$c_string_character_source@D@0@H_N@Z 00000001800987d0 f i libucrtd:atox.obj
 0001:00097cf0       ??$parse_integer@_KV?$c_string_character_source@_W@__crt_strtox@@@__crt_strtox@@YA_KQEAU__crt_locale_pointers@@V?$c_string_character_source@_W@0@H_N@Z 0000000180098cf0 f i libucrtd:atox.obj
 0001:00098210       ??$parse_integer_from_string@JD$$T@__crt_strtox@@YAJQEBD$$THQEAU__crt_locale_pointers@@@Z 0000000180099210 f i libucrtd:atox.obj
 0001:00098260       ??$parse_integer_from_string@J_W$$T@__crt_strtox@@YAJQEB_W$$THQEAU__crt_locale_pointers@@@Z 0000000180099260 f i libucrtd:atox.obj
 0001:000982b0       ??$parse_integer_from_string@_JD$$T@__crt_strtox@@YA_JQEBD$$THQEAU__crt_locale_pointers@@@Z 00000001800992b0 f i libucrtd:atox.obj
 0001:00098300       ??$parse_integer_from_string@_J_W$$T@__crt_strtox@@YA_JQEB_W$$THQEAU__crt_locale_pointers@@@Z 0000000180099300 f i libucrtd:atox.obj
 0001:00098350       ??0?$c_string_character_source@D@__crt_strtox@@QEAA@QEBDQEAPEBD@Z 0000000180099350 f i libucrtd:atox.obj
 0001:000983a0       ??0?$c_string_character_source@_W@__crt_strtox@@QEAA@QEB_WQEAPEB_W@Z 00000001800993a0 f i libucrtd:atox.obj
 0001:000983f0       ??1?$c_string_character_source@D@__crt_strtox@@QEAA@XZ 00000001800993f0 f i libucrtd:atox.obj
 0001:00098420       ??1?$c_string_character_source@_W@__crt_strtox@@QEAA@XZ 0000000180099420 f i libucrtd:atox.obj
 0001:00098450       ?get@?$c_string_character_source@D@__crt_strtox@@QEAADXZ 0000000180099450 f i libucrtd:atox.obj
 0001:00098490       ?get@?$c_string_character_source@_W@__crt_strtox@@QEAA_WXZ 0000000180099490 f i libucrtd:atox.obj
 0001:000984d0       ?is_space@__crt_strtox@@YA_NDQEAU__crt_locale_pointers@@@Z 00000001800994d0 f i libucrtd:atox.obj
 0001:00098520       ?is_space@__crt_strtox@@YA_N_WPEAU__crt_locale_pointers@@@Z 0000000180099520 f i libucrtd:atox.obj
 0001:00098560       ?maximum_signed_value@__crt_strtox@@YAJK@Z 0000000180099560 f i libucrtd:atox.obj
 0001:00098570       ?maximum_signed_value@__crt_strtox@@YA_J_K@Z 0000000180099570 f i libucrtd:atox.obj
 0001:00098580       ?minimum_signed_value@__crt_strtox@@YAJK@Z 0000000180099580 f i libucrtd:atox.obj
 0001:00098590       ?minimum_signed_value@__crt_strtox@@YA_J_K@Z 0000000180099590 f i libucrtd:atox.obj
 0001:000985a0       ?parse_digit@__crt_strtox@@YAID@Z 00000001800995a0 f i libucrtd:atox.obj
 0001:00098610       ?parse_digit@__crt_strtox@@YAI_W@Z 0000000180099610 f i libucrtd:atox.obj
 0001:00098660       ?restore_state@?$c_string_character_source@D@__crt_strtox@@QEAA_NQEBD@Z 0000000180099660 f i libucrtd:atox.obj
 0001:00098680       ?restore_state@?$c_string_character_source@_W@__crt_strtox@@QEAA_NQEB_W@Z 0000000180099680 f i libucrtd:atox.obj
 0001:000986a0       ?save_state@?$c_string_character_source@D@__crt_strtox@@QEBAPEBDXZ 00000001800996a0 f i libucrtd:atox.obj
 0001:000986b0       ?save_state@?$c_string_character_source@_W@__crt_strtox@@QEBAPEB_WXZ 00000001800996b0 f i libucrtd:atox.obj
 0001:000986c0       ?unget@?$c_string_character_source@D@__crt_strtox@@QEAAXD@Z 00000001800996c0 f i libucrtd:atox.obj
 0001:000987a0       ?unget@?$c_string_character_source@_W@__crt_strtox@@QEAAX_W@Z 00000001800997a0 f i libucrtd:atox.obj
 0001:00098880       ?validate@?$c_string_character_source@D@__crt_strtox@@QEBA_NXZ 0000000180099880 f i libucrtd:atox.obj
 0001:00098940       ?validate@?$c_string_character_source@_W@__crt_strtox@@QEBA_NXZ 0000000180099940 f i libucrtd:atox.obj
 0001:00098a00       ?wide_character_to_digit@__crt_strtox@@YAH_W@Z 0000000180099a00 f i libucrtd:atox.obj
 0001:00098d70       __ascii_iswalpha           0000000180099d70 f i libucrtd:atox.obj
 0001:00098db0       __ascii_toupper            0000000180099db0 f i libucrtd:atox.obj
 0001:00098dd0       __ascii_towupper           0000000180099dd0 f i libucrtd:atox.obj
 0001:00098df0       _atoi64                    0000000180099df0 f   libucrtd:atox.obj
 0001:00098e20       _atoi64_l                  0000000180099e20 f   libucrtd:atox.obj
 0001:00098e50       _atoi_l                    0000000180099e50 f   libucrtd:atox.obj
