 OPOSPOSPrinter

 Timestamp is 5d429f72 (Thu Aug  1 17:14:42 2019)

 Preferred load address is 0000000180000000

 Start         Length     Name                   Class
 0001:00000000 00001400H .text$di                CODE
 0001:00001400 000d6850H .text$mn                CODE
 0001:000d7c50 00000020H .text$mn$00             CODE
 0001:000d7c70 00001360H .text$x                 CODE
 0001:000d8fd0 000001b4H .text$yd                CODE
 0002:00000000 000006d8H .idata$5                DATA
 0002:000006d8 00000010H .00cfg                  DATA
 0002:000006e8 00000008H .CRT$XCA                DATA
 0002:000006f0 00000008H .CRT$XCL                DATA
 0002:000006f8 000000d8H .CRT$XCU                DATA
 0002:000007d0 00000008H .CRT$XCZ                DATA
 0002:000007d8 00000008H .CRT$XIA                DATA
 0002:000007e0 00000020H .CRT$XIC                DATA
 0002:00000800 00000008H .CRT$XIZ                DATA
 0002:00000808 00000008H .CRT$XLA                DATA
 0002:00000810 00000008H .CRT$XLZ                DATA
 0002:00000818 00000008H .CRT$XPA                DATA
 0002:00000820 00000010H .CRT$XPX                DATA
 0002:00000830 00000008H .CRT$XPXA               DATA
 0002:00000838 00000008H .CRT$XPZ                DATA
 0002:00000840 00000008H .CRT$XTA                DATA
 0002:00000848 00000008H .CRT$XTZ                DATA
 0002:00000850 00000000H .gfids$y                DATA
 0002:00000850 0003ccb8H .rdata                  DATA
 0002:0003d508 00000028H .rdata$T                DATA
 0002:0003d530 0000056cH .rdata$r                DATA
 0002:0003da9c 00000434H .rdata$zzzdbg           DATA
 0002:0003ded0 00000008H .rtc$IAA                DATA
 0002:0003ded8 00000030H .rtc$IMZ                DATA
 0002:0003df08 00000008H .rtc$IZZ                DATA
 0002:0003df10 00000008H .rtc$TAA                DATA
 0002:0003df18 00000030H .rtc$TMZ                DATA
 0002:0003df48 00000008H .rtc$TZZ                DATA
 0002:0003df50 00000004H .tls                    DATA
 0002:0003df54 00000004H .tls$                   DATA
 0002:0003df58 00000008H .tls$ZZZ                DATA
 0002:0003df60 00009bd8H .xdata                  DATA
 0002:00047b38 00000150H .xdata$x                DATA
 0002:00047c88 00000008H ATL$__a                 DATA
 0002:00047c90 00000010H ATL$__z                 DATA
 0002:00047ca0 000000acH .edata                  DATA
 0002:00047d4c 00000078H .idata$2                DATA
 0002:00047dc4 00000014H .idata$3                DATA
 0002:00047dd8 000006d8H .idata$4                DATA
 0002:000484b0 00000db8H .idata$6                DATA
 0003:00000000 00000f58H .data                   DATA
 0003:00000f58 00000198H .data$r                 DATA
 0003:000010f0 00003e9cH .bss                    DATA
 0004:00000000 0000c6d8H .pdata                  DATA
 0005:00000000 00000094H _RDATA                  DATA
 0006:00000000 00000220H .rsrc$01                DATA
 0006:00000220 00009150H .rsrc$02                DATA

  Address         Publics by Value              Rva+Base               Lib:Object

 0000:00000000       __guard_iat_table          0000000000000000     <absolute>
 0000:00000000       ___safe_se_handler_table   0000000000000000     <absolute>
 0000:00000000       __guard_iat_count          0000000000000000     <absolute>
 0000:00000000       __guard_fids_table         0000000000000000     <absolute>
 0000:00000000       __guard_fids_count         0000000000000000     <absolute>
 0000:00000000       __guard_longjmp_table      0000000000000000     <absolute>
 0000:00000000       __AbsoluteZero             0000000000000000     <absolute>
 0000:00000000       __dynamic_value_reloc_table 0000000000000000     <absolute>
 0000:00000000       ___safe_se_handler_count   0000000000000000     <absolute>
 0000:00000000       __volatile_metadata        0000000000000000     <absolute>
 0000:00000000       __enclave_config           0000000000000000     <absolute>
 0000:00000000       __hybrid_code_map          0000000000000000     <absolute>
 0000:00000000       __hybrid_auxiliary_iat     0000000000000000     <absolute>
 0000:00000000       __hybrid_code_map_count    0000000000000000     <absolute>
 0000:00000000       __guard_longjmp_count      0000000000000000     <absolute>
 0000:00000100       __guard_flags              0000000000000100     <absolute>
 0000:00000000       __ImageBase                0000000180000000     <linker-defined>
 0001:00001400       ?_assert@@YAXPEB_W0I@Z     0000000180002400 f   Assert.obj
 0001:00001500       __local_stdio_printf_options 0000000180002500 f i Assert.obj
 0001:00001510       __vswprintf_l              0000000180002510 f i Assert.obj
 0001:00001570       _swprintf                  0000000180002570 f i Assert.obj
 0001:000015f0       _vswprintf_c_l             00000001800025f0 f i Assert.obj
 0001:00001680       _vswprintf_l               0000000180002680 f i Assert.obj
 0001:000016e0       ?cw_memcpy@@YAHPEADPEB_WH@Z 00000001800026e0 f   CWString.obj
 0001:00001770       ?cw_memcpy@@YAHPEA_WPEBDH@Z 0000000180002770 f   CWString.obj
 0001:000017f0       ?cw_memcpy@@YAHPEADPEBDH@Z 00000001800027f0 f   CWString.obj
 0001:00001890       ?cw_memcpy@@YAHPEA_WPEB_WH@Z 0000000180002890 f   CWString.obj
 0001:00001900       ?cw_memset@@YAXPEADDH@Z    0000000180002900 f   CWString.obj
 0001:00001970       ?cw_memset@@YAXPEA_W_WH@Z  0000000180002970 f   CWString.obj
 0001:00001a10       ?cw_strlen@@YAHPEBD@Z      0000000180002a10 f   CWString.obj
 0001:00001a80       ?cw_strlen@@YAHPEB_W@Z     0000000180002a80 f   CWString.obj
 0001:00001af0       ?cw_strcpy@@YAHPEADPEB_W@Z 0000000180002af0 f   CWString.obj
 0001:00001b40       ?cw_strcpy@@YAHPEA_WPEBD@Z 0000000180002b40 f   CWString.obj
 0001:00001b90       ?cw_strcpy@@YAHPEADPEBD@Z  0000000180002b90 f   CWString.obj
 0001:00001be0       ?cw_strcpy@@YAHPEA_WPEB_W@Z 0000000180002be0 f   CWString.obj
 0001:00001c30       ?cw_strcat@@YAHPEADPEB_W@Z 0000000180002c30 f   CWString.obj
 0001:00001c90       ?cw_strcat@@YAHPEA_WPEBD@Z 0000000180002c90 f   CWString.obj
 0001:00001cf0       ?cw_strcat@@YAHPEADPEBD@Z  0000000180002cf0 f   CWString.obj
 0001:00001d50       ?cw_strcat@@YAHPEA_WPEB_W@Z 0000000180002d50 f   CWString.obj
 0001:00001db0       ?cw_dup@@YAXPEBDAEAHAEAPEA_W1@Z 0000000180002db0 f   CWString.obj
 0001:00001ec0       ?cw_dup@@YAXPEB_WAEAHAEAPEAD1@Z 0000000180002ec0 f   CWString.obj
 0001:00001fb0       ?DupChar@_CW@@AEAAXXZ      0000000180002fb0 f   CWString.obj
 0001:00002010       ?DupWide@_CW@@AEAAXXZ      0000000180003010 f   CWString.obj
 0001:00002080       ?GetCharsMbcs@_CW@@QEAAHXZ 0000000180003080 f   CWString.obj
 0001:000020f0       ?GetCharsWide@_CW@@QEAAHXZ 00000001800030f0 f   CWString.obj
 0001:00002160       ?SetVARIANT_BOOL@OposVariant@@QEAAXF@Z 0000000180003160 f   OposVariant.obj
 0001:000021d0       ?SetVARIANT_BOOL_Ptr@OposVariant@@QEAAXPEAFAEAJ@Z 00000001800031d0 f   OposVariant.obj
 0001:00002240       ?GetLONG@OposVariant@@QEAAJXZ 0000000180003240 f   OposVariant.obj
 0001:000022a0       ?ChangeLONG@OposVariant@@QEAAXPEAJAEAJ@Z 00000001800032a0 f   OposVariant.obj
 0001:00002350       ?SetLONG@OposVariant@@QEAAXJ@Z 0000000180003350 f   OposVariant.obj
 0001:000023b0       ?SetLONG_Ptr@OposVariant@@QEAAXPEAJAEAJ@Z 00000001800033b0 f   OposVariant.obj
 0001:00002420       ?ChangeCURRENCY@OposVariant@@QEAAXPEATtagCY@@AEAJ@Z 0000000180003420 f   OposVariant.obj
 0001:000024d0       ?SetCURRENCY@OposVariant@@QEAAXTtagCY@@@Z 00000001800034d0 f   OposVariant.obj
 0001:00002530       ?SetCURRENCY_Ptr@OposVariant@@QEAAXPEATtagCY@@AEAJ@Z 0000000180003530 f   OposVariant.obj
 0001:000025a0       ?ChangeBSTR@OposVariant@@QEAAXPEAPEA_WAEAJ@Z 00000001800035a0 f   OposVariant.obj
 0001:00002650       ?SetBSTR@OposVariant@@QEAAXPEA_WAEAJ@Z 0000000180003650 f   OposVariant.obj
 0001:000026d0       ?SetBSTR_Copy@OposVariant@@QEAAXPEA_WAEAJ@Z 00000001800036d0 f   OposVariant.obj
 0001:00002780       ?SetBSTR_OutPtr@OposVariant@@QEAA_NPEAPEA_WAEAJ@Z 0000000180003780 f   OposVariant.obj
 0001:000027f0       ?SetBSTR_InOutPtr@OposVariant@@QEAA_NPEAPEA_WAEAJ@Z 00000001800037f0 f   OposVariant.obj
 0001:00002870       ?SetVARIANT@OposVariant@@QEAAXAEAUtagVARIANT@@GAEAJ@Z 0000000180003870 f   OposVariant.obj
 0001:00002910       ?SetVARIANT_Ptr@OposVariant@@QEAAXAEAPEAUtagVARIANT@@GAEAJ@Z 0000000180003910 f   OposVariant.obj
 0001:000029c0       ?SetString@OposVariant@@QEAAXPEB_WAEAJ@Z 00000001800039c0 f   OposVariant.obj
 0001:00002a70       ?SetDispatch_Ptr@OposVariant@@QEAAXPEAUIDispatch@@AEAJ@Z 0000000180003a70 f   OposVariant.obj
 0001:00002b00       ??0OposDispParms@@QEAA@PEAVOposVariant@@H@Z 0000000180003b00 f   OposVariant.obj
 0001:00002c10       ??1OposDispParms@@QEAA@XZ  0000000180003c10 f   OposVariant.obj
 0001:00002c60       ??$AtlMultiply@_K@ATL@@YAJPEA_K_K1@Z 0000000180003c60 f i OposVariant.obj
 0001:00002ce0       ??0?$CHeapPtr@_WVCCRTAllocator@ATL@@@ATL@@QEAA@XZ 0000000180003ce0 f i OposVariant.obj
 0001:00002d20       ??0?$CHeapPtrBase@_WVCCRTAllocator@ATL@@@ATL@@IEAA@XZ 0000000180003d20 f i OposVariant.obj
 0001:00002d40       ??0?$CSimpleArray@GV?$CSimpleArrayEqualHelper@G@ATL@@@ATL@@QEAA@XZ 0000000180003d40 f i OposVariant.obj
 0001:00002d80       ??0?$CTraceCategoryEx@$00$0A@@ATL@@QEAA@PEB_W@Z 0000000180003d80 f i OposVariant.obj
 0001:00002dc0       ??0?$CTraceCategoryEx@$01$0A@@ATL@@QEAA@PEB_W@Z 0000000180003dc0 f i OposVariant.obj
 0001:00002e00       ??0?$CTraceCategoryEx@$03$0A@@ATL@@QEAA@PEB_W@Z 0000000180003e00 f i OposVariant.obj
 0001:00002e40       ??0?$CTraceCategoryEx@$07$0A@@ATL@@QEAA@PEB_W@Z 0000000180003e40 f i OposVariant.obj
 0001:00002e80       ??0?$CTraceCategoryEx@$0BA@$0A@@ATL@@QEAA@PEB_W@Z 0000000180003e80 f i OposVariant.obj
 0001:00002ec0       ??0?$CTraceCategoryEx@$0BAA@$0A@@ATL@@QEAA@PEB_W@Z 0000000180003ec0 f i OposVariant.obj
 0001:00002f00       ??0?$CTraceCategoryEx@$0BAAA@$0A@@ATL@@QEAA@PEB_W@Z 0000000180003f00 f i OposVariant.obj
 0001:00002f40       ??0?$CTraceCategoryEx@$0BAAAA@$0A@@ATL@@QEAA@PEB_W@Z 0000000180003f40 f i OposVariant.obj
 0001:00002f80       ??0?$CTraceCategoryEx@$0BAAAAA@$0A@@ATL@@QEAA@PEB_W@Z 0000000180003f80 f i OposVariant.obj
 0001:00002fc0       ??0?$CTraceCategoryEx@$0CA@$0A@@ATL@@QEAA@PEB_W@Z 0000000180003fc0 f i OposVariant.obj
 0001:00003000       ??0?$CTraceCategoryEx@$0CAA@$0A@@ATL@@QEAA@PEB_W@Z 0000000180004000 f i OposVariant.obj
 0001:00003040       ??0?$CTraceCategoryEx@$0CAAA@$0A@@ATL@@QEAA@PEB_W@Z 0000000180004040 f i OposVariant.obj
 0001:00003080       ??0?$CTraceCategoryEx@$0CAAAA@$0A@@ATL@@QEAA@PEB_W@Z 0000000180004080 f i OposVariant.obj
 0001:000030c0       ??0?$CTraceCategoryEx@$0CAAAAA@$0A@@ATL@@QEAA@PEB_W@Z 00000001800040c0 f i OposVariant.obj
 0001:00003100       ??0?$CTraceCategoryEx@$0EA@$0A@@ATL@@QEAA@PEB_W@Z 0000000180004100 f i OposVariant.obj
 0001:00003140       ??0?$CTraceCategoryEx@$0EAA@$0A@@ATL@@QEAA@PEB_W@Z 0000000180004140 f i OposVariant.obj
 0001:00003180       ??0?$CTraceCategoryEx@$0EAAA@$0A@@ATL@@QEAA@PEB_W@Z 0000000180004180 f i OposVariant.obj
 0001:000031c0       ??0?$CTraceCategoryEx@$0EAAAA@$0A@@ATL@@QEAA@PEB_W@Z 00000001800041c0 f i OposVariant.obj
 0001:00003200       ??0?$CTraceCategoryEx@$0EAAAAA@$0A@@ATL@@QEAA@PEB_W@Z 0000000180004200 f i OposVariant.obj
 0001:00003240       ??0?$CTraceCategoryEx@$0IA@$0A@@ATL@@QEAA@PEB_W@Z 0000000180004240 f i OposVariant.obj
 0001:00003280       ??0?$CTraceCategoryEx@$0IAA@$0A@@ATL@@QEAA@PEB_W@Z 0000000180004280 f i OposVariant.obj
 0001:000032c0       ??0?$CTraceCategoryEx@$0IAAA@$0A@@ATL@@QEAA@PEB_W@Z 00000001800042c0 f i OposVariant.obj
 0001:00003300       ??0?$CTraceCategoryEx@$0IAAAA@$0A@@ATL@@QEAA@PEB_W@Z 0000000180004300 f i OposVariant.obj
 0001:00003340       ??0CAtlComModule@ATL@@QEAA@XZ 0000000180004340 f i OposVariant.obj
 0001:00003460       ??0CAtlWinModule@ATL@@QEAA@XZ 0000000180004460 f i OposVariant.obj
 0001:00003510       ??0CComCriticalSection@ATL@@QEAA@XZ 0000000180004510 f i OposVariant.obj
 0001:00003550       ??0CPreserveLastError@ATL@@QEAA@XZ 0000000180004550 f i OposVariant.obj
 0001:00003590       ??0CTraceFileAndLineInfo@ATL@@QEAA@PEBDH@Z 0000000180004590 f i OposVariant.obj
 0001:000035c0       ??0_ATL_COM_MODULE70@ATL@@QEAA@XZ 00000001800045c0 f i OposVariant.obj
 0001:00003600       ??0_ATL_WIN_MODULE70@ATL@@QEAA@XZ 0000000180004600 f i OposVariant.obj
 0001:00003650       ??1?$CHeapPtr@_WVCCRTAllocator@ATL@@@ATL@@QEAA@XZ 0000000180004650 f i OposVariant.obj
 0001:00003680       ??1?$CHeapPtrBase@_WVCCRTAllocator@ATL@@@ATL@@QEAA@XZ 0000000180004680 f i OposVariant.obj
 0001:000036b0       ??1?$CSimpleArray@GV?$CSimpleArrayEqualHelper@G@ATL@@@ATL@@QEAA@XZ 00000001800046b0 f i OposVariant.obj
 0001:000036e0       ??1CAtlComModule@ATL@@QEAA@XZ 00000001800046e0 f i OposVariant.obj
 0001:00003720       ??1CAtlWinModule@ATL@@QEAA@XZ 0000000180004720 f i OposVariant.obj
 0001:00003760       ??1CComBSTR@ATL@@QEAA@XZ   0000000180004760 f i OposVariant.obj
 0001:000037a0       ??1CComCriticalSection@ATL@@QEAA@XZ 00000001800047a0 f i OposVariant.obj
 0001:000037b0       ??1CPreserveLastError@ATL@@QEAA@XZ 00000001800047b0 f i OposVariant.obj
 0001:000037f0       ??1_ATL_COM_MODULE70@ATL@@QEAA@XZ 00000001800047f0 f i OposVariant.obj
 0001:00003830       ??1_ATL_WIN_MODULE70@ATL@@QEAA@XZ 0000000180004830 f i OposVariant.obj
 0001:00003880       ??1stringdispid@CComTypeInfoHolder@ATL@@QEAA@XZ 0000000180004880 f i OposVariant.obj
 0001:000038c0       ??A?$CSimpleArray@GV?$CSimpleArrayEqualHelper@G@ATL@@@ATL@@QEAAAEAGH@Z 00000001800048c0 f i OposVariant.obj
 0001:00003970       ??B?$CHeapPtrBase@_WVCCRTAllocator@ATL@@@ATL@@QEBAPEA_WXZ 0000000180004970 f i OposVariant.obj
 0001:00003980       ??B?$CTraceCategoryEx@$01$0A@@ATL@@QEAAIXZ 0000000180004980 f i OposVariant.obj
 0001:00003990       ??B?$CTraceCategoryEx@$0CA@$0A@@ATL@@QEAAIXZ 0000000180004990 f i OposVariant.obj
 0001:000039a0       ??RCTraceFileAndLineInfo@ATL@@QEBAXHIPEB_WZZ 00000001800049a0 f i OposVariant.obj
 0001:00003a50       ??_Estringdispid@CComTypeInfoHolder@ATL@@QEAAPEAXI@Z 0000000180004a50 f i OposVariant.obj
 0001:00003b00       ??_H@YAXPEAX_K1P6APEAX0@Z@Z 0000000180004b00 f i OposVariant.obj
 0001:00003b90       ??_I@YAXPEAX_K1P6AX0@Z@Z   0000000180004b90 f i OposVariant.obj
 0001:00003c40       ?Allocate@?$CHeapPtr@_WVCCRTAllocator@ATL@@@ATL@@QEAA_N_K@Z 0000000180004c40 f i OposVariant.obj
 0001:00003cc0       ?Allocate@CCRTAllocator@ATL@@SAPEAX_K@Z 0000000180004cc0 f i OposVariant.obj
 0001:00003cf0       ?AllocateBytes@?$CHeapPtrBase@_WVCCRTAllocator@ATL@@@ATL@@QEAA_N_K@Z 0000000180004cf0 f i OposVariant.obj
 0001:00003d90       ?AtlWinModuleInit@ATL@@YAJPEAU_ATL_WIN_MODULE70@1@@Z 0000000180004d90 f i OposVariant.obj
 0001:00003e90       ?AtlWinModuleTerm@ATL@@YAJPEAU_ATL_WIN_MODULE70@1@PEAUHINSTANCE__@@@Z 0000000180004e90 f i OposVariant.obj
 0001:00003f80       ?Clear@OposVariant@@QEAAJXZ 0000000180004f80 f i OposVariant.obj
 0001:00003fc0       ?Free@?$CHeapPtrBase@_WVCCRTAllocator@ATL@@@ATL@@QEAAXXZ 0000000180004fc0 f i OposVariant.obj
 0001:00004000       ?Free@CCRTAllocator@ATL@@SAXPEAX@Z 0000000180005000 f i OposVariant.obj
 0001:00004030       ?GetCategoryName@CTrace@ATL@@CAPEA_WI@Z 0000000180005030 f i OposVariant.obj
 0001:000040b0       ?GetModuleInstance@CAtlBaseModule@ATL@@QEAAPEAUHINSTANCE__@@XZ 00000001800050b0 f i OposVariant.obj
 0001:000040d0       ?GetSize@?$CSimpleArray@GV?$CSimpleArrayEqualHelper@G@ATL@@@ATL@@QEBAHXZ 00000001800050d0 f i OposVariant.obj
 0001:000040e0       ?Init@CComCriticalSection@ATL@@QEAAJXZ 00000001800050e0 f i OposVariant.obj
 0001:00004140       ?RegisterCategory@CTrace@ATL@@SAXPEB_WI@Z 0000000180005140 f i OposVariant.obj
 0001:00004220       ?RemoveAll@?$CSimpleArray@GV?$CSimpleArrayEqualHelper@G@ATL@@@ATL@@QEAAXXZ 0000000180005220 f i OposVariant.obj
 0001:000042b0       ?Term@CAtlComModule@ATL@@QEAAXXZ 00000001800052b0 f i OposVariant.obj
 0001:00004390       ?Term@CAtlWinModule@ATL@@QEAAXXZ 0000000180005390 f i OposVariant.obj
 0001:000043d0       ?Term@CComCriticalSection@ATL@@QEAAJXZ 00000001800053d0 f i OposVariant.obj
 0001:00004410       ?TraceV@CTrace@ATL@@CAXPEBDHIIPEB_W@Z 0000000180005410 f i OposVariant.obj
 0001:000046c0       ?TraceV@CTrace@ATL@@SAXPEBDHIIPEB_WPEAD@Z 00000001800056c0 f i OposVariant.obj
 0001:00004870       ?_AtlInitializeCriticalSectionEx@ATL@@YAHPEAU_RTL_CRITICAL_SECTION@@KK@Z 0000000180005870 f i OposVariant.obj
 0001:000048c0       ?_AtlRaiseException@ATL@@YAXKK@Z 00000001800058c0 f i OposVariant.obj
 0001:00004900       HRESULT_FROM_WIN32         0000000180005900 f i OposVariant.obj
 0001:00004950       _vswprintf_s_l             0000000180005950 f i OposVariant.obj
 0001:000049e0       swprintf_s                 00000001800059e0 f i OposVariant.obj
 0001:00004a70       ?GetObjectDescription@?$CComCoClass@VCOPOSPOSPrinter@@$1?CLSID_OPOSPOSPrinter@@3U_GUID@@B@ATL@@SAPEB_WXZ 0000000180005a70 f i POSPrinter.obj
 0001:00004a80       ?UpdateRegistry@COPOSPOSPrinter@@SAJH@Z 0000000180005a80 f i POSPrinter.obj
 0001:00004ac0       ?CreateInstance@?$CComCreator@V?$CComObjectCached@VCComClassFactory@ATL@@@ATL@@@ATL@@SAJPEAXAEBU_GUID@@PEAPEAX@Z 0000000180005ac0 f i POSPrinter.obj
 0001:00004cb0       ?CreateInstance@?$CComCreator2@V?$CComCreator@V?$CComObject@VCOPOSPOSPrinter@@@ATL@@@ATL@@V?$CComCreator@V?$CComAggObject@VCOPOSPOSPrinter@@@ATL@@@2@@ATL@@SAJPEAXAEBU_GUID@@PEAPEAX@Z 0000000180005cb0 f i POSPrinter.obj
 0001:00004d60       ?ObjectMain@CComObjectRootBase@ATL@@SAX_N@Z 0000000180005d60 f i POSPrinter.obj
 0001:00004d70       ?GetCategoryMap@CComObjectRootBase@ATL@@SAPEBU_ATL_CATMAP_ENTRY@2@XZ 0000000180005d70 f i POSPrinter.obj
 0001:00004ee0       DllGetClassObject          0000000180005ee0 f   POSPrinter.obj
 0001:00004f30       DllCanUnloadNow            0000000180005f30 f   POSPrinter.obj
 0001:00004f80       DllRegisterServer          0000000180005f80 f   POSPrinter.obj
 0001:00004fc0       DllUnregisterServer        0000000180005fc0 f   POSPrinter.obj
 0001:000051c0       DllMain                    00000001800061c0 f   POSPrinter.obj
 0001:00005240       ??$?2G@Wrapper@?$CSimpleArray@GV?$CSimpleArrayEqualHelper@G@ATL@@@ATL@@SAPEAX_KPEAG@Z 0000000180006240 f i POSPrinter.obj
 0001:00005260       ??$?2PEA_W@?$Wrapper@PEA_W@?$CSimpleMap@PEA_WPEA_WVCExpansionVectorEqualHelper@ATL@@@ATL@@SAPEAX_KPEAPEA_W@Z 0000000180006260 f i POSPrinter.obj
 0001:00005280       ??$?4UITypeInfo2@@@?$CComPtr@UITypeInfo@@@ATL@@QEAAPEAUITypeInfo@@AEBV?$CComPtr@UITypeInfo2@@@1@@Z 0000000180006280 f i POSPrinter.obj
 0001:000052f0       ??$AtlAdd@_K@ATL@@YAJPEA_K_K1@Z 00000001800062f0 f i POSPrinter.obj
 0001:00005360       ??$AtlAddThrow@_K@ATL@@YA_K_K0@Z 0000000180006360 f i POSPrinter.obj
 0001:000053d0       ??$AtlModuleRegisterWndClassInfoT@VAtlModuleRegisterWndClassInfoParamW@ATL@@@ATL@@YAGPEAU_ATL_BASE_MODULE70@0@PEAU_ATL_WIN_MODULE70@0@PEAU_ATL_WNDCLASSINFOW@0@PEAP6A_JPEAUHWND__@@I_K_J@ZVAtlModuleRegisterWndClassInfoParamW@0@@Z 00000001800063d0 f i POSPrinter.obj
 0001:000059a0       ??$AtlMultiply@H@ATL@@YAJPEAHHH@Z 00000001800069a0 f i POSPrinter.obj
 0001:00005a10       ??$AtlMultiply@K@ATL@@YAJPEAKKK@Z 0000000180006a10 f i POSPrinter.obj
 0001:00005a80       ??$AtlMultiplyThrow@_K@ATL@@YA_K_K0@Z 0000000180006a80 f i POSPrinter.obj
 0001:00005af0       ??$QueryInterface@UIPersistStream@@@IUnknown@@QEAAJPEAPEAUIPersistStream@@@Z 0000000180006af0 f i POSPrinter.obj
 0001:00005b40       ??$QueryInterface@UITypeInfo2@@@IUnknown@@QEAAJPEAPEAUITypeInfo2@@@Z 0000000180006b40 f i POSPrinter.obj
 0001:00005b90       ??0?$CAtlModuleT@VCComModule@ATL@@@ATL@@QEAA@XZ 0000000180006b90 f i POSPrinter.obj
 0001:00005bd0       ??0?$CAtlSafeAllocBufferManager@VCCRTAllocator@ATL@@@_ATL_SAFE_ALLOCA_IMPL@ATL@@QEAA@XZ 0000000180006bd0 f i POSPrinter.obj
 0001:00005bf0       ??0?$CAutoVectorPtr@_W@ATL@@QEAA@XZ 0000000180006bf0 f i POSPrinter.obj
 0001:00005c10       ??0?$CComAggObject@VCOPOSPOSPrinter@@@ATL@@QEAA@PEAX@Z 0000000180006c10 f i POSPrinter.obj
 0001:00005ca0       ??0?$CComContainedObject@VCOPOSPOSPrinter@@@ATL@@QEAA@PEAX@Z 0000000180006ca0 f i POSPrinter.obj
 0001:00005e40       ??0?$CComCritSecLock@VCComCriticalSection@ATL@@@ATL@@QEAA@AEAVCComCriticalSection@1@_N@Z 0000000180006e40 f i POSPrinter.obj
 0001:00005eb0       ??0?$CComEnum@UIEnumConnectionPoints@@$1?_GUID_b196b285_bab4_101a_b69c_00aa00341d07@@3U__s_GUID@@BPEAUIConnectionPoint@@V?$_CopyInterface@UIConnectionPoint@@@ATL@@VCComSingleThreadModel@6@@ATL@@QEAA@XZ 0000000180006eb0 f i POSPrinter.obj
 0001:00005f00       ??0?$CComEnum@UIEnumConnections@@$1?_GUID_b196b287_bab4_101a_b69c_00aa00341d07@@3U__s_GUID@@BUtagCONNECTDATA@@V?$_Copy@UtagCONNECTDATA@@@ATL@@VCComSingleThreadModel@6@@ATL@@QEAA@XZ 0000000180006f00 f i POSPrinter.obj
 0001:00005f50       ??0?$CComEnumImpl@UIEnumConnectionPoints@@$1?_GUID_b196b285_bab4_101a_b69c_00aa00341d07@@3U__s_GUID@@BPEAUIConnectionPoint@@V?$_CopyInterface@UIConnectionPoint@@@ATL@@@ATL@@QEAA@XZ 0000000180006f50 f i POSPrinter.obj
 0001:00005fd0       ??0?$CComEnumImpl@UIEnumConnections@@$1?_GUID_b196b287_bab4_101a_b69c_00aa00341d07@@3U__s_GUID@@BUtagCONNECTDATA@@V?$_Copy@UtagCONNECTDATA@@@ATL@@@ATL@@QEAA@XZ 0000000180006fd0 f i POSPrinter.obj
 0001:00006050       ??0?$CComObject@V?$CComEnum@UIEnumConnectionPoints@@$1?_GUID_b196b285_bab4_101a_b69c_00aa00341d07@@3U__s_GUID@@BPEAUIConnectionPoint@@V?$_CopyInterface@UIConnectionPoint@@@ATL@@VCComSingleThreadModel@6@@ATL@@@ATL@@QEAA@PEAX@Z 0000000180007050 f i POSPrinter.obj
 0001:000060b0       ??0?$CComObject@V?$CComEnum@UIEnumConnections@@$1?_GUID_b196b287_bab4_101a_b69c_00aa00341d07@@3U__s_GUID@@BUtagCONNECTDATA@@V?$_Copy@UtagCONNECTDATA@@@ATL@@VCComSingleThreadModel@6@@ATL@@@ATL@@QEAA@PEAX@Z 00000001800070b0 f i POSPrinter.obj
 0001:00006110       ??0?$CComObject@VCOPOSPOSPrinter@@@ATL@@QEAA@PEAX@Z 0000000180007110 f i POSPrinter.obj
 0001:000062b0       ??0?$CComObjectCached@VCComClassFactory@ATL@@@ATL@@QEAA@PEAX@Z 00000001800072b0 f i POSPrinter.obj
 0001:00006300       ??0?$CComObjectRootEx@VCComMultiThreadModel@ATL@@@ATL@@QEAA@XZ 0000000180007300 f i POSPrinter.obj
 0001:00006350       ??0?$CComObjectRootEx@VCComSingleThreadModel@ATL@@@ATL@@QEAA@XZ 0000000180007350 f i POSPrinter.obj
 0001:00006390       ??0?$CComPtr@UIAdviseSink@@@ATL@@QEAA@PEAUIAdviseSink@@@Z 0000000180007390 f i POSPrinter.obj
 0001:000063d0       ??0?$CComPtr@UICatRegister@@@ATL@@QEAA@XZ 00000001800073d0 f i POSPrinter.obj
 0001:00006410       ??0?$CComPtr@UIConnectionPoint@@@ATL@@QEAA@XZ 0000000180007410 f i POSPrinter.obj
 0001:00006450       ??0?$CComPtr@UIConnectionPointContainer@@@ATL@@QEAA@XZ 0000000180007450 f i POSPrinter.obj
 0001:00006490       ??0?$CComPtr@UIDataObject@@@ATL@@QEAA@XZ 0000000180007490 f i POSPrinter.obj
 0001:000064d0       ??0?$CComPtr@UIDispatch@@@ATL@@QEAA@XZ 00000001800074d0 f i POSPrinter.obj
 0001:00006510       ??0?$CComPtr@UIOleClientSite@@@ATL@@QEAA@PEAUIOleClientSite@@@Z 0000000180007510 f i POSPrinter.obj
 0001:00006550       ??0?$CComPtr@UIOleControlSite@@@ATL@@QEAA@XZ 0000000180007550 f i POSPrinter.obj
 0001:00006590       ??0?$CComPtr@UIOleInPlaceActiveObject@@@ATL@@QEAA@XZ 0000000180007590 f i POSPrinter.obj
 0001:000065d0       ??0?$CComPtr@UIOleInPlaceFrame@@@ATL@@QEAA@XZ 00000001800075d0 f i POSPrinter.obj
 0001:00006610       ??0?$CComPtr@UIOleInPlaceObject@@@ATL@@QEAA@XZ 0000000180007610 f i POSPrinter.obj
 0001:00006650       ??0?$CComPtr@UIOleInPlaceUIWindow@@@ATL@@QEAA@XZ 0000000180007650 f i POSPrinter.obj
 0001:00006690       ??0?$CComPtr@UIOleObject@@@ATL@@QEAA@XZ 0000000180007690 f i POSPrinter.obj
 0001:000066d0       ??0?$CComPtr@UIPersistStream@@@ATL@@QEAA@XZ 00000001800076d0 f i POSPrinter.obj
 0001:00006710       ??0?$CComPtr@UIPersistStreamInit@@@ATL@@QEAA@XZ 0000000180007710 f i POSPrinter.obj
 0001:00006750       ??0?$CComPtr@UIPointerInactive@@@ATL@@QEAA@XZ 0000000180007750 f i POSPrinter.obj
 0001:00006790       ??0?$CComPtr@UIProvideClassInfo2@@@ATL@@QEAA@XZ 0000000180007790 f i POSPrinter.obj
 0001:000067d0       ??0?$CComPtr@UISpecifyPropertyPages@@@ATL@@QEAA@XZ 00000001800077d0 f i POSPrinter.obj
 0001:00006810       ??0?$CComPtr@UIStream@@@ATL@@QEAA@XZ 0000000180007810 f i POSPrinter.obj
 0001:00006850       ??0?$CComPtr@UITypeInfo2@@@ATL@@QEAA@XZ 0000000180007850 f i POSPrinter.obj
 0001:00006890       ??0?$CComPtr@UITypeInfo@@@ATL@@QEAA@AEBV01@@Z 0000000180007890 f i POSPrinter.obj
 0001:000068d0       ??0?$CComPtr@UITypeInfo@@@ATL@@QEAA@XZ 00000001800078d0 f i POSPrinter.obj
 0001:00006910       ??0?$CComPtr@UITypeLib@@@ATL@@QEAA@XZ 0000000180007910 f i POSPrinter.obj
 0001:00006950       ??0?$CComPtr@UIUnknown@@@ATL@@QEAA@AEBV01@@Z 0000000180007950 f i POSPrinter.obj
 0001:00006990       ??0?$CComPtr@UIUnknown@@@ATL@@QEAA@PEAUIUnknown@@@Z 0000000180007990 f i POSPrinter.obj
 0001:000069d0       ??0?$CComPtr@UIUnknown@@@ATL@@QEAA@XZ 00000001800079d0 f i POSPrinter.obj
 0001:00006a10       ??0?$CComPtr@UIViewObjectEx@@@ATL@@QEAA@XZ 0000000180007a10 f i POSPrinter.obj
 0001:00006a50       ??0?$CComPtrBase@UIAdviseSink@@@ATL@@IEAA@PEAUIAdviseSink@@@Z 0000000180007a50 f i POSPrinter.obj
 0001:00006ab0       ??0?$CComPtrBase@UICatRegister@@@ATL@@IEAA@XZ 0000000180007ab0 f i POSPrinter.obj
 0001:00006ad0       ??0?$CComPtrBase@UIConnectionPoint@@@ATL@@IEAA@XZ 0000000180007ad0 f i POSPrinter.obj
 0001:00006af0       ??0?$CComPtrBase@UIConnectionPointContainer@@@ATL@@IEAA@XZ 0000000180007af0 f i POSPrinter.obj
 0001:00006b10       ??0?$CComPtrBase@UIDataObject@@@ATL@@IEAA@XZ 0000000180007b10 f i POSPrinter.obj
 0001:00006b30       ??0?$CComPtrBase@UIDispatch@@@ATL@@IEAA@XZ 0000000180007b30 f i POSPrinter.obj
 0001:00006b50       ??0?$CComPtrBase@UIOleClientSite@@@ATL@@IEAA@PEAUIOleClientSite@@@Z 0000000180007b50 f i POSPrinter.obj
 0001:00006bb0       ??0?$CComPtrBase@UIOleControlSite@@@ATL@@IEAA@XZ 0000000180007bb0 f i POSPrinter.obj
 0001:00006bd0       ??0?$CComPtrBase@UIOleInPlaceActiveObject@@@ATL@@IEAA@XZ 0000000180007bd0 f i POSPrinter.obj
 0001:00006bf0       ??0?$CComPtrBase@UIOleInPlaceFrame@@@ATL@@IEAA@XZ 0000000180007bf0 f i POSPrinter.obj
 0001:00006c10       ??0?$CComPtrBase@UIOleInPlaceObject@@@ATL@@IEAA@XZ 0000000180007c10 f i POSPrinter.obj
 0001:00006c30       ??0?$CComPtrBase@UIOleInPlaceUIWindow@@@ATL@@IEAA@XZ 0000000180007c30 f i POSPrinter.obj
 0001:00006c50       ??0?$CComPtrBase@UIOleObject@@@ATL@@IEAA@XZ 0000000180007c50 f i POSPrinter.obj
 0001:00006c70       ??0?$CComPtrBase@UIPersistStream@@@ATL@@IEAA@XZ 0000000180007c70 f i POSPrinter.obj
 0001:00006c90       ??0?$CComPtrBase@UIPersistStreamInit@@@ATL@@IEAA@XZ 0000000180007c90 f i POSPrinter.obj
 0001:00006cb0       ??0?$CComPtrBase@UIPointerInactive@@@ATL@@IEAA@XZ 0000000180007cb0 f i POSPrinter.obj
 0001:00006cd0       ??0?$CComPtrBase@UIProvideClassInfo2@@@ATL@@IEAA@XZ 0000000180007cd0 f i POSPrinter.obj
 0001:00006cf0       ??0?$CComPtrBase@UISpecifyPropertyPages@@@ATL@@IEAA@XZ 0000000180007cf0 f i POSPrinter.obj
 0001:00006d10       ??0?$CComPtrBase@UIStream@@@ATL@@IEAA@XZ 0000000180007d10 f i POSPrinter.obj
 0001:00006d30       ??0?$CComPtrBase@UITypeInfo2@@@ATL@@IEAA@XZ 0000000180007d30 f i POSPrinter.obj
 0001:00006d50       ??0?$CComPtrBase@UITypeInfo@@@ATL@@IEAA@PEAUITypeInfo@@@Z 0000000180007d50 f i POSPrinter.obj
 0001:00006db0       ??0?$CComPtrBase@UITypeInfo@@@ATL@@IEAA@XZ 0000000180007db0 f i POSPrinter.obj
 0001:00006dd0       ??0?$CComPtrBase@UITypeLib@@@ATL@@IEAA@XZ 0000000180007dd0 f i POSPrinter.obj
 0001:00006df0       ??0?$CComPtrBase@UIUnknown@@@ATL@@IEAA@PEAUIUnknown@@@Z 0000000180007df0 f i POSPrinter.obj
 0001:00006e50       ??0?$CComPtrBase@UIUnknown@@@ATL@@IEAA@XZ 0000000180007e50 f i POSPrinter.obj
 0001:00006e70       ??0?$CComPtrBase@UIViewObjectEx@@@ATL@@IEAA@XZ 0000000180007e70 f i POSPrinter.obj
 0001:00006e90       ??0?$CComQIPtr@UIOleControlSite@@$1?_GUID_b196b289_bab4_101a_b69c_00aa00341d07@@3U__s_GUID@@B@ATL@@QEAA@PEAUIUnknown@@@Z 0000000180007e90 f i POSPrinter.obj
 0001:00006f00       ??0?$CComQIPtr@UIOleObject@@$1?_GUID_00000112_0000_0000_c000_000000000046@@3U__s_GUID@@B@ATL@@QEAA@XZ 0000000180007f00 f i POSPrinter.obj
 0001:00006f40       ??0?$CComQIPtr@UISpecifyPropertyPages@@$1?_GUID_b196b28b_bab4_101a_b69c_00aa00341d07@@3U__s_GUID@@B@ATL@@QEAA@XZ 0000000180007f40 f i POSPrinter.obj
 0001:00006f80       ??0?$CSimpleMap@PEA_WPEA_WVCExpansionVectorEqualHelper@ATL@@@ATL@@QEAA@XZ 0000000180007f80 f i POSPrinter.obj
 0001:00006fc0       ??0?$CTempBuffer@E$0BAA@VCCRTAllocator@ATL@@@ATL@@QEAA@XZ 0000000180007fc0 f i POSPrinter.obj
 0001:00006fe0       ??0?$CTempBuffer@_W$0BAA@VCCRTAllocator@ATL@@@ATL@@QEAA@XZ 0000000180007fe0 f i POSPrinter.obj
 0001:00007000       ??0?$CTempBuffer@_W$0EAA@VCCRTAllocator@ATL@@@ATL@@QEAA@XZ 0000000180008000 f i POSPrinter.obj
 0001:00007020       ??0?$Wrapper@PEA_W@?$CSimpleMap@PEA_WPEA_WVCExpansionVectorEqualHelper@ATL@@@ATL@@QEAA@AEBQEA_W@Z 0000000180008020 f i POSPrinter.obj
 0001:00007050       ??0CAtlModule@ATL@@QEAA@XZ 0000000180008050 f i POSPrinter.obj
 0001:000071c0       ??0CComAutoDeleteCriticalSection@ATL@@QEAA@XZ 00000001800081c0 f i POSPrinter.obj
 0001:00007200       ??0CComBSTR@ATL@@QEAA@XZ   0000000180008200 f i POSPrinter.obj
 0001:00007220       ??0CComClassFactory@ATL@@QEAA@XZ 0000000180008220 f i POSPrinter.obj
 0001:00007280       ??0CComModule@ATL@@QEAA@XZ 0000000180008280 f i POSPrinter.obj
 0001:00007320       ??0CComObjectRootBase@ATL@@QEAA@XZ 0000000180008320 f i POSPrinter.obj
 0001:00007340       ??0CComSafeDeleteCriticalSection@ATL@@QEAA@XZ 0000000180008340 f i POSPrinter.obj
 0001:00007380       ??0CComVariant@ATL@@QEAA@XZ 0000000180008380 f i POSPrinter.obj
 0001:000073d0       ??0CExpansionVector@ATL@@QEAA@XZ 00000001800083d0 f i POSPrinter.obj
 0001:00007410       ??0CParseBuffer@CRegParser@ATL@@QEAA@H@Z 0000000180008410 f i POSPrinter.obj
 0001:000074a0       ??0CRegKey@ATL@@QEAA@PEAUHKEY__@@@Z 00000001800084a0 f i POSPrinter.obj
 0001:000074e0       ??0CRegKey@ATL@@QEAA@PEAVCAtlTransactionManager@1@@Z 00000001800084e0 f i POSPrinter.obj
 0001:00007520       ??0CRegObject@ATL@@QEAA@XZ 0000000180008520 f i POSPrinter.obj
 0001:00007580       ??0CRegParser@ATL@@QEAA@PEAVCRegObject@1@@Z 0000000180008580 f i POSPrinter.obj
 0001:000075b0       ??0IClassFactory@@QEAA@XZ  00000001800085b0 f i POSPrinter.obj
 0001:000075f0       ??0IEnumConnectionPoints@@QEAA@XZ 00000001800085f0 f i POSPrinter.obj
 0001:00007630       ??0IEnumConnections@@QEAA@XZ 0000000180008630 f i POSPrinter.obj
 0001:00007670       ??0IRegistrarBase@@QEAA@XZ 0000000180008670 f i POSPrinter.obj
 0001:000076b0       ??0IUnknown@@QEAA@XZ       00000001800086b0 f i POSPrinter.obj
 0001:000076c0       ??0ModuleLockHelper@ATL@@QEAA@XZ 00000001800086c0 f i POSPrinter.obj
 0001:00007700       ??0OposVariant@@QEAA@XZ    0000000180008700 f i POSPrinter.obj
 0001:00007720       ??0Wrapper@?$CSimpleArray@GV?$CSimpleArrayEqualHelper@G@ATL@@@ATL@@QEAA@AEBG@Z 0000000180008720 f i POSPrinter.obj
 0001:00007750       ??0_ATL_MODULE70@ATL@@QEAA@XZ 0000000180008750 f i POSPrinter.obj
 0001:00007790       ??0_ATL_MSG@ATL@@QEAA@PEAUHWND__@@I_K_JH@Z 0000000180008790 f i POSPrinter.obj
 0001:00007820       ??0_U_MENUorID@ATL@@QEAA@I@Z 0000000180008820 f i POSPrinter.obj
 0001:00007840       ??0_U_RECT@ATL@@QEAA@AEAUtagRECT@@@Z 0000000180008840 f i POSPrinter.obj
 0001:00007860       ??0stringdispid@CComTypeInfoHolder@ATL@@QEAA@XZ 0000000180008860 f i POSPrinter.obj
 0001:000078b0       ??1?$CAtlModuleT@VCComModule@ATL@@@ATL@@UEAA@XZ 00000001800088b0 f i POSPrinter.obj
 0001:000078e0       ??1?$CAtlSafeAllocBufferManager@VCCRTAllocator@ATL@@@_ATL_SAFE_ALLOCA_IMPL@ATL@@QEAA@XZ 00000001800088e0 f i POSPrinter.obj
 0001:00007940       ??1?$CAutoVectorPtr@_W@ATL@@QEAA@XZ 0000000180008940 f i POSPrinter.obj
 0001:00007970       ??1?$CComAggObject@VCOPOSPOSPrinter@@@ATL@@UEAA@XZ 0000000180008970 f i POSPrinter.obj
 0001:000079f0       ??1?$CComContainedObject@VCOPOSPOSPrinter@@@ATL@@UEAA@XZ 00000001800089f0 f i POSPrinter.obj
 0001:00007a20       ??1?$CComCritSecLock@VCComCriticalSection@ATL@@@ATL@@QEAA@XZ 0000000180008a20 f i POSPrinter.obj
 0001:00007a60       ??1?$CComEnum@UIEnumConnectionPoints@@$1?_GUID_b196b285_bab4_101a_b69c_00aa00341d07@@3U__s_GUID@@BPEAUIConnectionPoint@@V?$_CopyInterface@UIConnectionPoint@@@ATL@@VCComSingleThreadModel@6@@ATL@@UEAA@XZ 0000000180008a60 f i POSPrinter.obj
 0001:00007aa0       ??1?$CComEnum@UIEnumConnections@@$1?_GUID_b196b287_bab4_101a_b69c_00aa00341d07@@3U__s_GUID@@BUtagCONNECTDATA@@V?$_Copy@UtagCONNECTDATA@@@ATL@@VCComSingleThreadModel@6@@ATL@@UEAA@XZ 0000000180008aa0 f i POSPrinter.obj
 0001:00007ae0       ??1?$CComEnumImpl@UIEnumConnectionPoints@@$1?_GUID_b196b285_bab4_101a_b69c_00aa00341d07@@3U__s_GUID@@BPEAUIConnectionPoint@@V?$_CopyInterface@UIConnectionPoint@@@ATL@@@ATL@@UEAA@XZ 0000000180008ae0 f i POSPrinter.obj
 0001:00007b80       ??1?$CComEnumImpl@UIEnumConnections@@$1?_GUID_b196b287_bab4_101a_b69c_00aa00341d07@@3U__s_GUID@@BUtagCONNECTDATA@@V?$_Copy@UtagCONNECTDATA@@@ATL@@@ATL@@UEAA@XZ 0000000180008b80 f i POSPrinter.obj
 0001:00007c20       ??1?$CComObject@V?$CComEnum@UIEnumConnectionPoints@@$1?_GUID_b196b285_bab4_101a_b69c_00aa00341d07@@3U__s_GUID@@BPEAUIConnectionPoint@@V?$_CopyInterface@UIConnectionPoint@@@ATL@@VCComSingleThreadModel@6@@ATL@@@ATL@@UEAA@XZ 0000000180008c20 f i POSPrinter.obj
 0001:00007c90       ??1?$CComObject@V?$CComEnum@UIEnumConnections@@$1?_GUID_b196b287_bab4_101a_b69c_00aa00341d07@@3U__s_GUID@@BUtagCONNECTDATA@@V?$_Copy@UtagCONNECTDATA@@@ATL@@VCComSingleThreadModel@6@@ATL@@@ATL@@UEAA@XZ 0000000180008c90 f i POSPrinter.obj
 0001:00007d00       ??1?$CComObject@VCOPOSPOSPrinter@@@ATL@@UEAA@XZ 0000000180008d00 f i POSPrinter.obj
 0001:00007eb0       ??1?$CComObjectCached@VCComClassFactory@ATL@@@ATL@@UEAA@XZ 0000000180008eb0 f i POSPrinter.obj
 0001:00007f10       ??1?$CComObjectRootEx@VCComMultiThreadModel@ATL@@@ATL@@QEAA@XZ 0000000180008f10 f i POSPrinter.obj
 0001:00007f50       ??1?$CComObjectRootEx@VCComSingleThreadModel@ATL@@@ATL@@QEAA@XZ 0000000180008f50 f i POSPrinter.obj
 0001:00007f80       ??1?$CComPtr@UIAdviseSink@@@ATL@@QEAA@XZ 0000000180008f80 f i POSPrinter.obj
 0001:00007fb0       ??1?$CComPtr@UICatRegister@@@ATL@@QEAA@XZ 0000000180008fb0 f i POSPrinter.obj
 0001:00007fe0       ??1?$CComPtr@UIConnectionPoint@@@ATL@@QEAA@XZ 0000000180008fe0 f i POSPrinter.obj
 0001:00008010       ??1?$CComPtr@UIConnectionPointContainer@@@ATL@@QEAA@XZ 0000000180009010 f i POSPrinter.obj
 0001:00008040       ??1?$CComPtr@UIDataObject@@@ATL@@QEAA@XZ 0000000180009040 f i POSPrinter.obj
 0001:00008070       ??1?$CComPtr@UIDispatch@@@ATL@@QEAA@XZ 0000000180009070 f i POSPrinter.obj
 0001:000080a0       ??1?$CComPtr@UIOleClientSite@@@ATL@@QEAA@XZ 00000001800090a0 f i POSPrinter.obj
 0001:000080d0       ??1?$CComPtr@UIOleControlSite@@@ATL@@QEAA@XZ 00000001800090d0 f i POSPrinter.obj
 0001:00008100       ??1?$CComPtr@UIOleInPlaceActiveObject@@@ATL@@QEAA@XZ 0000000180009100 f i POSPrinter.obj
 0001:00008130       ??1?$CComPtr@UIOleInPlaceFrame@@@ATL@@QEAA@XZ 0000000180009130 f i POSPrinter.obj
 0001:00008160       ??1?$CComPtr@UIOleInPlaceObject@@@ATL@@QEAA@XZ 0000000180009160 f i POSPrinter.obj
 0001:00008190       ??1?$CComPtr@UIOleInPlaceUIWindow@@@ATL@@QEAA@XZ 0000000180009190 f i POSPrinter.obj
 0001:000081c0       ??1?$CComPtr@UIOleObject@@@ATL@@QEAA@XZ 00000001800091c0 f i POSPrinter.obj
 0001:000081f0       ??1?$CComPtr@UIPersistStream@@@ATL@@QEAA@XZ 00000001800091f0 f i POSPrinter.obj
 0001:00008220       ??1?$CComPtr@UIPersistStreamInit@@@ATL@@QEAA@XZ 0000000180009220 f i POSPrinter.obj
 0001:00008250       ??1?$CComPtr@UIPointerInactive@@@ATL@@QEAA@XZ 0000000180009250 f i POSPrinter.obj
 0001:00008280       ??1?$CComPtr@UIProvideClassInfo2@@@ATL@@QEAA@XZ 0000000180009280 f i POSPrinter.obj
 0001:000082b0       ??1?$CComPtr@UISpecifyPropertyPages@@@ATL@@QEAA@XZ 00000001800092b0 f i POSPrinter.obj
 0001:000082e0       ??1?$CComPtr@UIStream@@@ATL@@QEAA@XZ 00000001800092e0 f i POSPrinter.obj
 0001:00008310       ??1?$CComPtr@UITypeInfo2@@@ATL@@QEAA@XZ 0000000180009310 f i POSPrinter.obj
 0001:00008340       ??1?$CComPtr@UITypeInfo@@@ATL@@QEAA@XZ 0000000180009340 f i POSPrinter.obj
 0001:00008370       ??1?$CComPtr@UITypeLib@@@ATL@@QEAA@XZ 0000000180009370 f i POSPrinter.obj
 0001:000083a0       ??1?$CComPtr@UIUnknown@@@ATL@@QEAA@XZ 00000001800093a0 f i POSPrinter.obj
 0001:000083d0       ??1?$CComPtr@UIViewObjectEx@@@ATL@@QEAA@XZ 00000001800093d0 f i POSPrinter.obj
 0001:00008400       ??1?$CComPtrBase@UIAdviseSink@@@ATL@@QEAA@XZ 0000000180009400 f i POSPrinter.obj
 0001:00008450       ??1?$CComPtrBase@UICatRegister@@@ATL@@QEAA@XZ 0000000180009450 f i POSPrinter.obj
 0001:000084a0       ??1?$CComPtrBase@UIConnectionPoint@@@ATL@@QEAA@XZ 00000001800094a0 f i POSPrinter.obj
 0001:000084f0       ??1?$CComPtrBase@UIConnectionPointContainer@@@ATL@@QEAA@XZ 00000001800094f0 f i POSPrinter.obj
 0001:00008540       ??1?$CComPtrBase@UIDataObject@@@ATL@@QEAA@XZ 0000000180009540 f i POSPrinter.obj
 0001:00008590       ??1?$CComPtrBase@UIDispatch@@@ATL@@QEAA@XZ 0000000180009590 f i POSPrinter.obj
 0001:000085e0       ??1?$CComPtrBase@UIOleClientSite@@@ATL@@QEAA@XZ 00000001800095e0 f i POSPrinter.obj
 0001:00008630       ??1?$CComPtrBase@UIOleControlSite@@@ATL@@QEAA@XZ 0000000180009630 f i POSPrinter.obj
 0001:00008680       ??1?$CComPtrBase@UIOleInPlaceActiveObject@@@ATL@@QEAA@XZ 0000000180009680 f i POSPrinter.obj
 0001:000086d0       ??1?$CComPtrBase@UIOleInPlaceFrame@@@ATL@@QEAA@XZ 00000001800096d0 f i POSPrinter.obj
 0001:00008720       ??1?$CComPtrBase@UIOleInPlaceObject@@@ATL@@QEAA@XZ 0000000180009720 f i POSPrinter.obj
 0001:00008770       ??1?$CComPtrBase@UIOleInPlaceUIWindow@@@ATL@@QEAA@XZ 0000000180009770 f i POSPrinter.obj
 0001:000087c0       ??1?$CComPtrBase@UIOleObject@@@ATL@@QEAA@XZ 00000001800097c0 f i POSPrinter.obj
 0001:00008810       ??1?$CComPtrBase@UIPersistStream@@@ATL@@QEAA@XZ 0000000180009810 f i POSPrinter.obj
 0001:00008860       ??1?$CComPtrBase@UIPersistStreamInit@@@ATL@@QEAA@XZ 0000000180009860 f i POSPrinter.obj
 0001:000088b0       ??1?$CComPtrBase@UIPointerInactive@@@ATL@@QEAA@XZ 00000001800098b0 f i POSPrinter.obj
 0001:00008900       ??1?$CComPtrBase@UIProvideClassInfo2@@@ATL@@QEAA@XZ 0000000180009900 f i POSPrinter.obj
 0001:00008950       ??1?$CComPtrBase@UISpecifyPropertyPages@@@ATL@@QEAA@XZ 0000000180009950 f i POSPrinter.obj
 0001:000089a0       ??1?$CComPtrBase@UIStream@@@ATL@@QEAA@XZ 00000001800099a0 f i POSPrinter.obj
 0001:000089f0       ??1?$CComPtrBase@UITypeInfo2@@@ATL@@QEAA@XZ 00000001800099f0 f i POSPrinter.obj
 0001:00008a40       ??1?$CComPtrBase@UITypeInfo@@@ATL@@QEAA@XZ 0000000180009a40 f i POSPrinter.obj
 0001:00008a90       ??1?$CComPtrBase@UITypeLib@@@ATL@@QEAA@XZ 0000000180009a90 f i POSPrinter.obj
 0001:00008ae0       ??1?$CComPtrBase@UIUnknown@@@ATL@@QEAA@XZ 0000000180009ae0 f i POSPrinter.obj
 0001:00008b30       ??1?$CComPtrBase@UIViewObjectEx@@@ATL@@QEAA@XZ 0000000180009b30 f i POSPrinter.obj
 0001:00008b80       ??1?$CComQIPtr@UIOleControlSite@@$1?_GUID_b196b289_bab4_101a_b69c_00aa00341d07@@3U__s_GUID@@B@ATL@@QEAA@XZ 0000000180009b80 f i POSPrinter.obj
 0001:00008bb0       ??1?$CComQIPtr@UIOleObject@@$1?_GUID_00000112_0000_0000_c000_000000000046@@3U__s_GUID@@B@ATL@@QEAA@XZ 0000000180009bb0 f i POSPrinter.obj
 0001:00008be0       ??1?$CComQIPtr@UISpecifyPropertyPages@@$1?_GUID_b196b28b_bab4_101a_b69c_00aa00341d07@@3U__s_GUID@@B@ATL@@QEAA@XZ 0000000180009be0 f i POSPrinter.obj
 0001:00008c10       ??1?$CSimpleMap@PEA_WPEA_WVCExpansionVectorEqualHelper@ATL@@@ATL@@QEAA@XZ 0000000180009c10 f i POSPrinter.obj
 0001:00008c40       ??1?$CTempBuffer@E$0BAA@VCCRTAllocator@ATL@@@ATL@@QEAA@XZ 0000000180009c40 f i POSPrinter.obj
 0001:00008c90       ??1?$CTempBuffer@_W$0BAA@VCCRTAllocator@ATL@@@ATL@@QEAA@XZ 0000000180009c90 f i POSPrinter.obj
 0001:00008ce0       ??1?$CTempBuffer@_W$0EAA@VCCRTAllocator@ATL@@@ATL@@QEAA@XZ 0000000180009ce0 f i POSPrinter.obj
 0001:00008d30       ??1CAtlModule@ATL@@UEAA@XZ 0000000180009d30 f i POSPrinter.obj
 0001:00008d70       ??1CComAutoDeleteCriticalSection@ATL@@QEAA@XZ 0000000180009d70 f i POSPrinter.obj
 0001:00008da0       ??1CComClassFactory@ATL@@UEAA@XZ 0000000180009da0 f i POSPrinter.obj
 0001:00008df0       ??1CComModule@ATL@@UEAA@XZ 0000000180009df0 f i POSPrinter.obj
 0001:00008e30       ??1CComObjectRootBase@ATL@@QEAA@XZ 0000000180009e30 f i POSPrinter.obj
 0001:00008e40       ??1CComSafeDeleteCriticalSection@ATL@@QEAA@XZ 0000000180009e40 f i POSPrinter.obj
 0001:00008e90       ??1CComVariant@ATL@@QEAA@XZ 0000000180009e90 f i POSPrinter.obj
 0001:00008f10       ??1CExpansionVector@ATL@@QEAA@XZ 0000000180009f10 f i POSPrinter.obj
 0001:00008f50       ??1CParseBuffer@CRegParser@ATL@@QEAA@XZ 0000000180009f50 f i POSPrinter.obj
 0001:00008f90       ??1CRegKey@ATL@@QEAA@XZ    0000000180009f90 f i POSPrinter.obj
 0001:00008fc0       ??1CRegObject@ATL@@UEAA@XZ 0000000180009fc0 f i POSPrinter.obj
 0001:00009010       ??1ModuleLockHelper@ATL@@QEAA@XZ 000000018000a010 f i POSPrinter.obj
 0001:00009050       ??1OposVariant@@QEAA@XZ    000000018000a050 f i POSPrinter.obj
 0001:00009090       ??1_ATL_MODULE70@ATL@@QEAA@XZ 000000018000a090 f i POSPrinter.obj
 0001:000090d0       ??4?$CComPtr@UIAdviseSink@@@ATL@@QEAAPEAUIAdviseSink@@PEAU2@@Z 000000018000a0d0 f i POSPrinter.obj
 0001:00009140       ??4?$CComPtr@UIOleClientSite@@@ATL@@QEAAPEAUIOleClientSite@@PEAU2@@Z 000000018000a140 f i POSPrinter.obj
 0001:000091b0       ??4?$CComPtr@UIUnknown@@@ATL@@QEAAPEAUIUnknown@@PEAU2@@Z 000000018000a1b0 f i POSPrinter.obj
 0001:00009220       ??4?$CComQIPtr@UIOleObject@@$1?_GUID_00000112_0000_0000_c000_000000000046@@3U__s_GUID@@B@ATL@@QEAAPEAUIOleObject@@PEAUIUnknown@@@Z 000000018000a220 f i POSPrinter.obj
 0001:00009280       ??4?$CComQIPtr@UISpecifyPropertyPages@@$1?_GUID_b196b28b_bab4_101a_b69c_00aa00341d07@@3U__s_GUID@@B@ATL@@QEAAPEAUISpecifyPropertyPages@@PEAUIUnknown@@@Z 000000018000a280 f i POSPrinter.obj
 0001:000092e0       ??7?$CComPtrBase@UIOleClientSite@@@ATL@@QEBA_NXZ 000000018000a2e0 f i POSPrinter.obj
 0001:00009330       ??7?$CComPtrBase@UIOleInPlaceSiteWindowless@@@ATL@@QEBA_NXZ 000000018000a330 f i POSPrinter.obj
 0001:00009380       ??7CComBSTR@ATL@@QEBA_NXZ  000000018000a380 f i POSPrinter.obj
 0001:000093d0       ??8?$CComPtrBase@UIAdviseSink@@@ATL@@QEBA_NPEAUIAdviseSink@@@Z 000000018000a3d0 f i POSPrinter.obj
 0001:00009420       ??8?$CComPtrBase@UIConnectionPointContainer@@@ATL@@QEBA_NPEAUIConnectionPointContainer@@@Z 000000018000a420 f i POSPrinter.obj
 0001:00009470       ??8?$CComPtrBase@UIDataAdviseHolder@@@ATL@@QEBA_NPEAUIDataAdviseHolder@@@Z 000000018000a470 f i POSPrinter.obj
 0001:000094c0       ??8?$CComPtrBase@UIOleAdviseHolder@@@ATL@@QEBA_NPEAUIOleAdviseHolder@@@Z 000000018000a4c0 f i POSPrinter.obj
 0001:00009510       ??8?$CComPtrBase@UIOleClientSite@@@ATL@@QEBA_NPEAUIOleClientSite@@@Z 000000018000a510 f i POSPrinter.obj
 0001:00009560       ??8?$CComPtrBase@UIOleControlSite@@@ATL@@QEBA_NPEAUIOleControlSite@@@Z 000000018000a560 f i POSPrinter.obj
 0001:000095b0       ??8?$CComPtrBase@UIOleInPlaceObject@@@ATL@@QEBA_NPEAUIOleInPlaceObject@@@Z 000000018000a5b0 f i POSPrinter.obj
 0001:00009600       ??8?$CComPtrBase@UIOleInPlaceSiteWindowless@@@ATL@@QEBA_NPEAUIOleInPlaceSiteWindowless@@@Z 000000018000a600 f i POSPrinter.obj
 0001:00009650       ??8?$CComPtrBase@UIOleObject@@@ATL@@QEBA_NPEAUIOleObject@@@Z 000000018000a650 f i POSPrinter.obj
 0001:000096a0       ??8?$CComPtrBase@UIPersistStream@@@ATL@@QEBA_NPEAUIPersistStream@@@Z 000000018000a6a0 f i POSPrinter.obj
 0001:000096f0       ??8?$CComPtrBase@UIPersistStreamInit@@@ATL@@QEBA_NPEAUIPersistStreamInit@@@Z 000000018000a6f0 f i POSPrinter.obj
 0001:00009740       ??8?$CComPtrBase@UIPointerInactive@@@ATL@@QEBA_NPEAUIPointerInactive@@@Z 000000018000a740 f i POSPrinter.obj
 0001:00009790       ??8?$CComPtrBase@UIUnknown@@@ATL@@QEBA_NPEAUIUnknown@@@Z 000000018000a790 f i POSPrinter.obj
 0001:000097e0       ??8?$CComPtrBase@UIViewObjectEx@@@ATL@@QEBA_NPEAUIViewObjectEx@@@Z 000000018000a7e0 f i POSPrinter.obj
 0001:00009830       ??8CComBSTR@ATL@@QEBA_NH@Z 000000018000a830 f i POSPrinter.obj
 0001:000098b0       ??9?$CComPtrBase@UIAdviseSink@@@ATL@@QEBA_NPEAUIAdviseSink@@@Z 000000018000a8b0 f i POSPrinter.obj
 0001:00009910       ??9?$CComPtrBase@UIConnectionPointContainer@@@ATL@@QEBA_NPEAUIConnectionPointContainer@@@Z 000000018000a910 f i POSPrinter.obj
 0001:00009970       ??9?$CComPtrBase@UIDataAdviseHolder@@@ATL@@QEBA_NPEAUIDataAdviseHolder@@@Z 000000018000a970 f i POSPrinter.obj
 0001:000099d0       ??9?$CComPtrBase@UIOleAdviseHolder@@@ATL@@QEBA_NPEAUIOleAdviseHolder@@@Z 000000018000a9d0 f i POSPrinter.obj
 0001:00009a30       ??9?$CComPtrBase@UIOleClientSite@@@ATL@@QEBA_NPEAUIOleClientSite@@@Z 000000018000aa30 f i POSPrinter.obj
 0001:00009a90       ??9?$CComPtrBase@UIOleControlSite@@@ATL@@QEBA_NPEAUIOleControlSite@@@Z 000000018000aa90 f i POSPrinter.obj
 0001:00009af0       ??9?$CComPtrBase@UIOleInPlaceObject@@@ATL@@QEBA_NPEAUIOleInPlaceObject@@@Z 000000018000aaf0 f i POSPrinter.obj
 0001:00009b50       ??9?$CComPtrBase@UIOleInPlaceSiteWindowless@@@ATL@@QEBA_NPEAUIOleInPlaceSiteWindowless@@@Z 000000018000ab50 f i POSPrinter.obj
 0001:00009bb0       ??9?$CComPtrBase@UIOleObject@@@ATL@@QEBA_NPEAUIOleObject@@@Z 000000018000abb0 f i POSPrinter.obj
 0001:00009c10       ??9?$CComPtrBase@UIPersistStream@@@ATL@@QEBA_NPEAUIPersistStream@@@Z 000000018000ac10 f i POSPrinter.obj
 0001:00009c70       ??9?$CComPtrBase@UIPersistStreamInit@@@ATL@@QEBA_NPEAUIPersistStreamInit@@@Z 000000018000ac70 f i POSPrinter.obj
 0001:00009cd0       ??9?$CComPtrBase@UIPointerInactive@@@ATL@@QEBA_NPEAUIPointerInactive@@@Z 000000018000acd0 f i POSPrinter.obj
 0001:00009d30       ??9?$CComPtrBase@UIUnknown@@@ATL@@QEBA_NPEAUIUnknown@@@Z 000000018000ad30 f i POSPrinter.obj
 0001:00009d90       ??9?$CComPtrBase@UIViewObjectEx@@@ATL@@QEBA_NPEAUIViewObjectEx@@@Z 000000018000ad90 f i POSPrinter.obj
 0001:00009df0       ??9CComBSTR@ATL@@QEBA_NH@Z 000000018000adf0 f i POSPrinter.obj
 0001:00009e50       ??B?$CComPtrBase@UIAdviseSink@@@ATL@@QEBAPEAUIAdviseSink@@XZ 000000018000ae50 f i POSPrinter.obj
 0001:00009e60       ??B?$CComPtrBase@UIDataAdviseHolder@@@ATL@@QEBAPEAUIDataAdviseHolder@@XZ 000000018000ae60 f i POSPrinter.obj
 0001:00009e70       ??B?$CComPtrBase@UIDataObject@@@ATL@@QEBAPEAUIDataObject@@XZ 000000018000ae70 f i POSPrinter.obj
 0001:00009e80       ??B?$CComPtrBase@UIOleAdviseHolder@@@ATL@@QEBAPEAUIOleAdviseHolder@@XZ 000000018000ae80 f i POSPrinter.obj
 0001:00009e90       ??B?$CComPtrBase@UIOleClientSite@@@ATL@@QEBAPEAUIOleClientSite@@XZ 000000018000ae90 f i POSPrinter.obj
 0001:00009ea0       ??B?$CComPtrBase@UIOleControlSite@@@ATL@@QEBAPEAUIOleControlSite@@XZ 000000018000aea0 f i POSPrinter.obj
 0001:00009eb0       ??B?$CComPtrBase@UIOleInPlaceActiveObject@@@ATL@@QEBAPEAUIOleInPlaceActiveObject@@XZ 000000018000aeb0 f i POSPrinter.obj
 0001:00009ec0       ??B?$CComPtrBase@UIOleInPlaceFrame@@@ATL@@QEBAPEAUIOleInPlaceFrame@@XZ 000000018000aec0 f i POSPrinter.obj
 0001:00009ed0       ??B?$CComPtrBase@UIOleInPlaceSiteWindowless@@@ATL@@QEBAPEAUIOleInPlaceSiteWindowless@@XZ 000000018000aed0 f i POSPrinter.obj
 0001:00009ee0       ??B?$CComPtrBase@UIOleInPlaceUIWindow@@@ATL@@QEBAPEAUIOleInPlaceUIWindow@@XZ 000000018000aee0 f i POSPrinter.obj
 0001:00009ef0       ??B?$CComPtrBase@UIOleObject@@@ATL@@QEBAPEAUIOleObject@@XZ 000000018000aef0 f i POSPrinter.obj
 0001:00009f00       ??B?$CComPtrBase@UIPersistStream@@@ATL@@QEBAPEAUIPersistStream@@XZ 000000018000af00 f i POSPrinter.obj
 0001:00009f10       ??B?$CComPtrBase@UIProvideClassInfo2@@@ATL@@QEBAPEAUIProvideClassInfo2@@XZ 000000018000af10 f i POSPrinter.obj
 0001:00009f20       ??B?$CComPtrBase@UISpecifyPropertyPages@@@ATL@@QEBAPEAUISpecifyPropertyPages@@XZ 000000018000af20 f i POSPrinter.obj
 0001:00009f30       ??B?$CComPtrBase@UIStream@@@ATL@@QEBAPEAUIStream@@XZ 000000018000af30 f i POSPrinter.obj
 0001:00009f40       ??B?$CComPtrBase@UITypeInfo2@@@ATL@@QEBAPEAUITypeInfo2@@XZ 000000018000af40 f i POSPrinter.obj
 0001:00009f50       ??B?$CComPtrBase@UITypeInfo@@@ATL@@QEBAPEAUITypeInfo@@XZ 000000018000af50 f i POSPrinter.obj
 0001:00009f60       ??B?$CComPtrBase@UITypeLib@@@ATL@@QEBAPEAUITypeLib@@XZ 000000018000af60 f i POSPrinter.obj
 0001:00009f70       ??B?$CComPtrBase@UIUnknown@@@ATL@@QEBAPEAUIUnknown@@XZ 000000018000af70 f i POSPrinter.obj
 0001:00009f80       ??B?$CTempBuffer@E$0BAA@VCCRTAllocator@ATL@@@ATL@@QEBAPEAEXZ 000000018000af80 f i POSPrinter.obj
 0001:00009f90       ??B?$CTempBuffer@_W$0BAA@VCCRTAllocator@ATL@@@ATL@@QEBAPEA_WXZ 000000018000af90 f i POSPrinter.obj
 0001:00009fa0       ??B?$CTempBuffer@_W$0EAA@VCCRTAllocator@ATL@@@ATL@@QEBAPEA_WXZ 000000018000afa0 f i POSPrinter.obj
 0001:00009fb0       ??B?$CTraceCategoryEx@$00$0A@@ATL@@QEAAIXZ 000000018000afb0 f i POSPrinter.obj
 0001:00009fc0       ??B?$CTraceCategoryEx@$07$0A@@ATL@@QEAAIXZ 000000018000afc0 f i POSPrinter.obj
 0001:00009fd0       ??B?$CTraceCategoryEx@$0CAAA@$0A@@ATL@@QEAAIXZ 000000018000afd0 f i POSPrinter.obj
 0001:00009fe0       ??B?$CTraceCategoryEx@$0EA@$0A@@ATL@@QEAAIXZ 000000018000afe0 f i POSPrinter.obj
 0001:00009ff0       ??B?$CTraceCategoryEx@$0IAA@$0A@@ATL@@QEAAIXZ 000000018000aff0 f i POSPrinter.obj
 0001:0000a000       ??BCComBSTR@ATL@@QEBAPEA_WXZ 000000018000b000 f i POSPrinter.obj
 0001:0000a010       ??BCRegKey@ATL@@QEBAPEAUHKEY__@@XZ 000000018000b010 f i POSPrinter.obj
 0001:0000a020       ??C?$CComPtrBase@UIAdviseSink@@@ATL@@QEBAPEAV?$_NoAddRefReleaseOnCComPtr@UIAdviseSink@@@1@XZ 000000018000b020 f i POSPrinter.obj
 0001:0000a0a0       ??C?$CComPtrBase@UICatRegister@@@ATL@@QEBAPEAV?$_NoAddRefReleaseOnCComPtr@UICatRegister@@@1@XZ 000000018000b0a0 f i POSPrinter.obj
 0001:0000a120       ??C?$CComPtrBase@UIConnectionPoint@@@ATL@@QEBAPEAV?$_NoAddRefReleaseOnCComPtr@UIConnectionPoint@@@1@XZ 000000018000b120 f i POSPrinter.obj
 0001:0000a1a0       ??C?$CComPtrBase@UIConnectionPointContainer@@@ATL@@QEBAPEAV?$_NoAddRefReleaseOnCComPtr@UIConnectionPointContainer@@@1@XZ 000000018000b1a0 f i POSPrinter.obj
 0001:0000a220       ??C?$CComPtrBase@UIDataAdviseHolder@@@ATL@@QEBAPEAV?$_NoAddRefReleaseOnCComPtr@UIDataAdviseHolder@@@1@XZ 000000018000b220 f i POSPrinter.obj
 0001:0000a2a0       ??C?$CComPtrBase@UIOleAdviseHolder@@@ATL@@QEBAPEAV?$_NoAddRefReleaseOnCComPtr@UIOleAdviseHolder@@@1@XZ 000000018000b2a0 f i POSPrinter.obj
 0001:0000a320       ??C?$CComPtrBase@UIOleClientSite@@@ATL@@QEBAPEAV?$_NoAddRefReleaseOnCComPtr@UIOleClientSite@@@1@XZ 000000018000b320 f i POSPrinter.obj
 0001:0000a3a0       ??C?$CComPtrBase@UIOleControlSite@@@ATL@@QEBAPEAV?$_NoAddRefReleaseOnCComPtr@UIOleControlSite@@@1@XZ 000000018000b3a0 f i POSPrinter.obj
 0001:0000a420       ??C?$CComPtrBase@UIOleInPlaceFrame@@@ATL@@QEBAPEAV?$_NoAddRefReleaseOnCComPtr@UIOleInPlaceFrame@@@1@XZ 000000018000b420 f i POSPrinter.obj
 0001:0000a4a0       ??C?$CComPtrBase@UIOleInPlaceObject@@@ATL@@QEBAPEAV?$_NoAddRefReleaseOnCComPtr@UIOleInPlaceObject@@@1@XZ 000000018000b4a0 f i POSPrinter.obj
 0001:0000a520       ??C?$CComPtrBase@UIOleInPlaceSiteWindowless@@@ATL@@QEBAPEAV?$_NoAddRefReleaseOnCComPtr@UIOleInPlaceSiteWindowless@@@1@XZ 000000018000b520 f i POSPrinter.obj
 0001:0000a5a0       ??C?$CComPtrBase@UIOleInPlaceUIWindow@@@ATL@@QEBAPEAV?$_NoAddRefReleaseOnCComPtr@UIOleInPlaceUIWindow@@@1@XZ 000000018000b5a0 f i POSPrinter.obj
 0001:0000a620       ??C?$CComPtrBase@UIOleObject@@@ATL@@QEBAPEAV?$_NoAddRefReleaseOnCComPtr@UIOleObject@@@1@XZ 000000018000b620 f i POSPrinter.obj
 0001:0000a6a0       ??C?$CComPtrBase@UIPersistStream@@@ATL@@QEBAPEAV?$_NoAddRefReleaseOnCComPtr@UIPersistStream@@@1@XZ 000000018000b6a0 f i POSPrinter.obj
 0001:0000a720       ??C?$CComPtrBase@UIPersistStreamInit@@@ATL@@QEBAPEAV?$_NoAddRefReleaseOnCComPtr@UIPersistStreamInit@@@1@XZ 000000018000b720 f i POSPrinter.obj
 0001:0000a7a0       ??C?$CComPtrBase@UIPointerInactive@@@ATL@@QEBAPEAV?$_NoAddRefReleaseOnCComPtr@UIPointerInactive@@@1@XZ 000000018000b7a0 f i POSPrinter.obj
 0001:0000a820       ??C?$CComPtrBase@UIProvideClassInfo2@@@ATL@@QEBAPEAV?$_NoAddRefReleaseOnCComPtr@UIProvideClassInfo2@@@1@XZ 000000018000b820 f i POSPrinter.obj
 0001:0000a8a0       ??C?$CComPtrBase@UISpecifyPropertyPages@@@ATL@@QEBAPEAV?$_NoAddRefReleaseOnCComPtr@UISpecifyPropertyPages@@@1@XZ 000000018000b8a0 f i POSPrinter.obj
 0001:0000a920       ??C?$CComPtrBase@UITypeInfo@@@ATL@@QEBAPEAV?$_NoAddRefReleaseOnCComPtr@UITypeInfo@@@1@XZ 000000018000b920 f i POSPrinter.obj
 0001:0000a9a0       ??C?$CComPtrBase@UITypeLib@@@ATL@@QEBAPEAV?$_NoAddRefReleaseOnCComPtr@UITypeLib@@@1@XZ 000000018000b9a0 f i POSPrinter.obj
 0001:0000aa20       ??C?$CComPtrBase@UIUnknown@@@ATL@@QEBAPEAV?$_NoAddRefReleaseOnCComPtr@UIUnknown@@@1@XZ 000000018000ba20 f i POSPrinter.obj
 0001:0000aaa0       ??C?$CComPtrBase@UIViewObjectEx@@@ATL@@QEBAPEAV?$_NoAddRefReleaseOnCComPtr@UIViewObjectEx@@@1@XZ 000000018000baa0 f i POSPrinter.obj
 0001:0000ab20       ??I?$CComPtrBase@UICatRegister@@@ATL@@QEAAPEAPEAUICatRegister@@XZ 000000018000bb20 f i POSPrinter.obj
 0001:0000ab90       ??I?$CComPtrBase@UIConnectionPoint@@@ATL@@QEAAPEAPEAUIConnectionPoint@@XZ 000000018000bb90 f i POSPrinter.obj
 0001:0000ac00       ??I?$CComPtrBase@UIConnectionPointContainer@@@ATL@@QEAAPEAPEAUIConnectionPointContainer@@XZ 000000018000bc00 f i POSPrinter.obj
 0001:0000ac70       ??I?$CComPtrBase@UIDataAdviseHolder@@@ATL@@QEAAPEAPEAUIDataAdviseHolder@@XZ 000000018000bc70 f i POSPrinter.obj
 0001:0000ace0       ??I?$CComPtrBase@UIDataObject@@@ATL@@QEAAPEAPEAUIDataObject@@XZ 000000018000bce0 f i POSPrinter.obj
 0001:0000ad50       ??I?$CComPtrBase@UIDispatch@@@ATL@@QEAAPEAPEAUIDispatch@@XZ 000000018000bd50 f i POSPrinter.obj
 0001:0000adc0       ??I?$CComPtrBase@UIOleAdviseHolder@@@ATL@@QEAAPEAPEAUIOleAdviseHolder@@XZ 000000018000bdc0 f i POSPrinter.obj
 0001:0000ae30       ??I?$CComPtrBase@UIOleControlSite@@@ATL@@QEAAPEAPEAUIOleControlSite@@XZ 000000018000be30 f i POSPrinter.obj
 0001:0000aea0       ??I?$CComPtrBase@UIOleInPlaceActiveObject@@@ATL@@QEAAPEAPEAUIOleInPlaceActiveObject@@XZ 000000018000bea0 f i POSPrinter.obj
 0001:0000af10       ??I?$CComPtrBase@UIOleInPlaceFrame@@@ATL@@QEAAPEAPEAUIOleInPlaceFrame@@XZ 000000018000bf10 f i POSPrinter.obj
 0001:0000af80       ??I?$CComPtrBase@UIOleInPlaceObject@@@ATL@@QEAAPEAPEAUIOleInPlaceObject@@XZ 000000018000bf80 f i POSPrinter.obj
 0001:0000aff0       ??I?$CComPtrBase@UIOleInPlaceSiteWindowless@@@ATL@@QEAAPEAPEAUIOleInPlaceSiteWindowless@@XZ 000000018000bff0 f i POSPrinter.obj
 0001:0000b060       ??I?$CComPtrBase@UIOleInPlaceUIWindow@@@ATL@@QEAAPEAPEAUIOleInPlaceUIWindow@@XZ 000000018000c060 f i POSPrinter.obj
 0001:0000b0d0       ??I?$CComPtrBase@UIOleObject@@@ATL@@QEAAPEAPEAUIOleObject@@XZ 000000018000c0d0 f i POSPrinter.obj
 0001:0000b140       ??I?$CComPtrBase@UIPersistStream@@@ATL@@QEAAPEAPEAUIPersistStream@@XZ 000000018000c140 f i POSPrinter.obj
 0001:0000b1b0       ??I?$CComPtrBase@UIPointerInactive@@@ATL@@QEAAPEAPEAUIPointerInactive@@XZ 000000018000c1b0 f i POSPrinter.obj
 0001:0000b220       ??I?$CComPtrBase@UIProvideClassInfo2@@@ATL@@QEAAPEAPEAUIProvideClassInfo2@@XZ 000000018000c220 f i POSPrinter.obj
 0001:0000b290       ??I?$CComPtrBase@UIStream@@@ATL@@QEAAPEAPEAUIStream@@XZ 000000018000c290 f i POSPrinter.obj
 0001:0000b300       ??I?$CComPtrBase@UITypeInfo2@@@ATL@@QEAAPEAPEAUITypeInfo2@@XZ 000000018000c300 f i POSPrinter.obj
 0001:0000b370       ??I?$CComPtrBase@UITypeInfo@@@ATL@@QEAAPEAPEAUITypeInfo@@XZ 000000018000c370 f i POSPrinter.obj
 0001:0000b3e0       ??I?$CComPtrBase@UITypeLib@@@ATL@@QEAAPEAPEAUITypeLib@@XZ 000000018000c3e0 f i POSPrinter.obj
 0001:0000b450       ??I?$CComPtrBase@UIUnknown@@@ATL@@QEAAPEAPEAUIUnknown@@XZ 000000018000c450 f i POSPrinter.obj
 0001:0000b4c0       ??I?$CComPtrBase@UIViewObjectEx@@@ATL@@QEAAPEAPEAUIViewObjectEx@@XZ 000000018000c4c0 f i POSPrinter.obj
 0001:0000b530       ??ICComBSTR@ATL@@QEAAPEAPEA_WXZ 000000018000c530 f i POSPrinter.obj
 0001:0000b540       ??_E?$CComContainedObject@VCOPOSPOSPrinter@@@ATL@@W7EAAPEAXI@Z 000000018000c540 f i POSPrinter.obj
 0001:0000b54c       ??_E?$CComContainedObject@VCOPOSPOSPrinter@@@ATL@@WHA@EAAPEAXI@Z 000000018000c54c f i POSPrinter.obj
 0001:0000b558       ??_E?$CComObject@VCOPOSPOSPrinter@@@ATL@@W7EAAPEAXI@Z 000000018000c558 f i POSPrinter.obj
 0001:0000b564       ??_E?$CComObject@VCOPOSPOSPrinter@@@ATL@@WHA@EAAPEAXI@Z 000000018000c564 f i POSPrinter.obj
 0001:0000b570       ??_G?$CComAggObject@VCOPOSPOSPrinter@@@ATL@@UEAAPEAXI@Z 000000018000c570 f i POSPrinter.obj
 0001:0000b570       ??_E?$CComAggObject@VCOPOSPOSPrinter@@@ATL@@UEAAPEAXI@Z 000000018000c570 f i POSPrinter.obj
 0001:0000b5d0       ??_E?$CComContainedObject@VCOPOSPOSPrinter@@@ATL@@UEAAPEAXI@Z 000000018000c5d0 f i POSPrinter.obj
 0001:0000b5d0       ??_G?$CComContainedObject@VCOPOSPOSPrinter@@@ATL@@UEAAPEAXI@Z 000000018000c5d0 f i POSPrinter.obj
 0001:0000b630       ??_G?$CComObject@V?$CComEnum@UIEnumConnectionPoints@@$1?_GUID_b196b285_bab4_101a_b69c_00aa00341d07@@3U__s_GUID@@BPEAUIConnectionPoint@@V?$_CopyInterface@UIConnectionPoint@@@ATL@@VCComSingleThreadModel@6@@ATL@@@ATL@@UEAAPEAXI@Z 000000018000c630 f i POSPrinter.obj
 0001:0000b630       ??_E?$CComObject@V?$CComEnum@UIEnumConnectionPoints@@$1?_GUID_b196b285_bab4_101a_b69c_00aa00341d07@@3U__s_GUID@@BPEAUIConnectionPoint@@V?$_CopyInterface@UIConnectionPoint@@@ATL@@VCComSingleThreadModel@6@@ATL@@@ATL@@UEAAPEAXI@Z 000000018000c630 f i POSPrinter.obj
 0001:0000b690       ??_G?$CComObject@V?$CComEnum@UIEnumConnections@@$1?_GUID_b196b287_bab4_101a_b69c_00aa00341d07@@3U__s_GUID@@BUtagCONNECTDATA@@V?$_Copy@UtagCONNECTDATA@@@ATL@@VCComSingleThreadModel@6@@ATL@@@ATL@@UEAAPEAXI@Z 000000018000c690 f i POSPrinter.obj
 0001:0000b690       ??_E?$CComObject@V?$CComEnum@UIEnumConnections@@$1?_GUID_b196b287_bab4_101a_b69c_00aa00341d07@@3U__s_GUID@@BUtagCONNECTDATA@@V?$_Copy@UtagCONNECTDATA@@@ATL@@VCComSingleThreadModel@6@@ATL@@@ATL@@UEAAPEAXI@Z 000000018000c690 f i POSPrinter.obj
 0001:0000b6f0       ??_E?$CComObject@VCOPOSPOSPrinter@@@ATL@@UEAAPEAXI@Z 000000018000c6f0 f i POSPrinter.obj
 0001:0000b6f0       ??_G?$CComObject@VCOPOSPOSPrinter@@@ATL@@UEAAPEAXI@Z 000000018000c6f0 f i POSPrinter.obj
 0001:0000b750       ??_E?$CComObjectCached@VCComClassFactory@ATL@@@ATL@@UEAAPEAXI@Z 000000018000c750 f i POSPrinter.obj
 0001:0000b750       ??_G?$CComObjectCached@VCComClassFactory@ATL@@@ATL@@UEAAPEAXI@Z 000000018000c750 f i POSPrinter.obj
 0001:0000b7b0       ??_ECComClassFactory@ATL@@UEAAPEAXI@Z 000000018000c7b0 f i POSPrinter.obj
 0001:0000b7b0       ??_GCComClassFactory@ATL@@UEAAPEAXI@Z 000000018000c7b0 f i POSPrinter.obj
 0001:0000b810       ??_GCComModule@ATL@@UEAAPEAXI@Z 000000018000c810 f i POSPrinter.obj
 0001:0000b810       ??_ECComModule@ATL@@UEAAPEAXI@Z 000000018000c810 f i POSPrinter.obj
 0001:0000b870       ??_GCRegObject@ATL@@UEAAPEAXI@Z 000000018000c870 f i POSPrinter.obj
 0001:0000b870       ??_ECRegObject@ATL@@UEAAPEAXI@Z 000000018000c870 f i POSPrinter.obj
 0001:0000b8d0       ?Add@?$CSimpleArray@GV?$CSimpleArrayEqualHelper@G@ATL@@@ATL@@QEAAHAEBG@Z 000000018000c8d0 f i POSPrinter.obj
 0001:0000ba70       ?Add@?$CSimpleMap@PEA_WPEA_WVCExpansionVectorEqualHelper@ATL@@@ATL@@QEAAHAEBQEA_W0@Z 000000018000ca70 f i POSPrinter.obj
 0001:0000bb60       ?Add@CComDynamicUnkArray@ATL@@QEAAKPEAUIUnknown@@@Z 000000018000cb60 f i POSPrinter.obj
 0001:0000bd40       ?Add@CExpansionVector@ATL@@QEAAHPEB_W0@Z 000000018000cd40 f i POSPrinter.obj
 0001:0000c070       ?AddChar@CParseBuffer@CRegParser@ATL@@QEAAHPEB_W@Z 000000018000d070 f i POSPrinter.obj
 0001:0000c0c0       ?AddCommonRGSReplacements@?$CAtlModuleT@VCComModule@ATL@@@ATL@@UEAAJPEAUIRegistrarBase@@@Z 000000018000d0c0 f i POSPrinter.obj
 0001:0000c120       ?AddCreateWndData@CAtlWinModule@ATL@@QEAAXPEAU_AtlCreateWndData@2@PEAX@Z 000000018000d120 f i POSPrinter.obj
 0001:0000c170       ?AddRef@?$CComAggObject@VCOPOSPOSPrinter@@@ATL@@UEAAKXZ 000000018000d170 f i POSPrinter.obj
 0001:0000c1b0       ?AddRef@?$CComContainedObject@VCOPOSPOSPrinter@@@ATL@@UEAAKXZ 000000018000d1b0 f i POSPrinter.obj
 0001:0000c1e8       ?AddRef@?$CComContainedObject@VCOPOSPOSPrinter@@@ATL@@WBAA@EAAKXZ 000000018000d1e8 f i POSPrinter.obj
 0001:0000c1f4       ?AddRef@?$CComContainedObject@VCOPOSPOSPrinter@@@ATL@@WBAI@EAAKXZ 000000018000d1f4 f i POSPrinter.obj
 0001:0000c200       ?AddRef@?$CComContainedObject@VCOPOSPOSPrinter@@@ATL@@WBBA@EAAKXZ 000000018000d200 f i POSPrinter.obj
 0001:0000c20c       ?AddRef@?$CComContainedObject@VCOPOSPOSPrinter@@@ATL@@WBBI@EAAKXZ 000000018000d20c f i POSPrinter.obj
 0001:0000c218       ?AddRef@?$CComContainedObject@VCOPOSPOSPrinter@@@ATL@@WBCI@EAAKXZ 000000018000d218 f i POSPrinter.obj
 0001:0000c224       ?AddRef@?$CComContainedObject@VCOPOSPOSPrinter@@@ATL@@WBEA@EAAKXZ 000000018000d224 f i POSPrinter.obj
 0001:0000c230       ?AddRef@?$CComContainedObject@VCOPOSPOSPrinter@@@ATL@@WLI@EAAKXZ 000000018000d230 f i POSPrinter.obj
 0001:0000c23c       ?AddRef@?$CComContainedObject@VCOPOSPOSPrinter@@@ATL@@WMA@EAAKXZ 000000018000d23c f i POSPrinter.obj
 0001:0000c248       ?AddRef@?$CComContainedObject@VCOPOSPOSPrinter@@@ATL@@WMI@EAAKXZ 000000018000d248 f i POSPrinter.obj
 0001:0000c254       ?AddRef@?$CComContainedObject@VCOPOSPOSPrinter@@@ATL@@WNA@EAAKXZ 000000018000d254 f i POSPrinter.obj
 0001:0000c260       ?AddRef@?$CComContainedObject@VCOPOSPOSPrinter@@@ATL@@WNI@EAAKXZ 000000018000d260 f i POSPrinter.obj
 0001:0000c26c       ?AddRef@?$CComContainedObject@VCOPOSPOSPrinter@@@ATL@@WOA@EAAKXZ 000000018000d26c f i POSPrinter.obj
 0001:0000c278       ?AddRef@?$CComContainedObject@VCOPOSPOSPrinter@@@ATL@@WOI@EAAKXZ 000000018000d278 f i POSPrinter.obj
 0001:0000c284       ?AddRef@?$CComContainedObject@VCOPOSPOSPrinter@@@ATL@@WPA@EAAKXZ 000000018000d284 f i POSPrinter.obj
 0001:0000c290       ?AddRef@?$CComContainedObject@VCOPOSPOSPrinter@@@ATL@@WPI@EAAKXZ 000000018000d290 f i POSPrinter.obj
 0001:0000c2a0       ?AddRef@?$CComObject@V?$CComEnum@UIEnumConnectionPoints@@$1?_GUID_b196b285_bab4_101a_b69c_00aa00341d07@@3U__s_GUID@@BPEAUIConnectionPoint@@V?$_CopyInterface@UIConnectionPoint@@@ATL@@VCComSingleThreadModel@6@@ATL@@@ATL@@UEAAKXZ 000000018000d2a0 f i POSPrinter.obj
 0001:0000c2e0       ?AddRef@?$CComObject@V?$CComEnum@UIEnumConnections@@$1?_GUID_b196b287_bab4_101a_b69c_00aa00341d07@@3U__s_GUID@@BUtagCONNECTDATA@@V?$_Copy@UtagCONNECTDATA@@@ATL@@VCComSingleThreadModel@6@@ATL@@@ATL@@UEAAKXZ 000000018000d2e0 f i POSPrinter.obj
 0001:0000c320       ?AddRef@?$CComObject@VCOPOSPOSPrinter@@@ATL@@UEAAKXZ 000000018000d320 f i POSPrinter.obj
 0001:0000c358       ?AddRef@?$CComObject@VCOPOSPOSPrinter@@@ATL@@WBAA@EAAKXZ 000000018000d358 f i POSPrinter.obj
 0001:0000c364       ?AddRef@?$CComObject@VCOPOSPOSPrinter@@@ATL@@WBAI@EAAKXZ 000000018000d364 f i POSPrinter.obj
 0001:0000c370       ?AddRef@?$CComObject@VCOPOSPOSPrinter@@@ATL@@WBBA@EAAKXZ 000000018000d370 f i POSPrinter.obj
 0001:0000c37c       ?AddRef@?$CComObject@VCOPOSPOSPrinter@@@ATL@@WBBI@EAAKXZ 000000018000d37c f i POSPrinter.obj
 0001:0000c388       ?AddRef@?$CComObject@VCOPOSPOSPrinter@@@ATL@@WBCI@EAAKXZ 000000018000d388 f i POSPrinter.obj
 0001:0000c394       ?AddRef@?$CComObject@VCOPOSPOSPrinter@@@ATL@@WBEA@EAAKXZ 000000018000d394 f i POSPrinter.obj
 0001:0000c3a0       ?AddRef@?$CComObject@VCOPOSPOSPrinter@@@ATL@@WLI@EAAKXZ 000000018000d3a0 f i POSPrinter.obj
 0001:0000c3ac       ?AddRef@?$CComObject@VCOPOSPOSPrinter@@@ATL@@WMA@EAAKXZ 000000018000d3ac f i POSPrinter.obj
 0001:0000c3b8       ?AddRef@?$CComObject@VCOPOSPOSPrinter@@@ATL@@WMI@EAAKXZ 000000018000d3b8 f i POSPrinter.obj
 0001:0000c3c4       ?AddRef@?$CComObject@VCOPOSPOSPrinter@@@ATL@@WNA@EAAKXZ 000000018000d3c4 f i POSPrinter.obj
 0001:0000c3d0       ?AddRef@?$CComObject@VCOPOSPOSPrinter@@@ATL@@WNI@EAAKXZ 000000018000d3d0 f i POSPrinter.obj
 0001:0000c3dc       ?AddRef@?$CComObject@VCOPOSPOSPrinter@@@ATL@@WOA@EAAKXZ 000000018000d3dc f i POSPrinter.obj
 0001:0000c3e8       ?AddRef@?$CComObject@VCOPOSPOSPrinter@@@ATL@@WOI@EAAKXZ 000000018000d3e8 f i POSPrinter.obj
 0001:0000c3f4       ?AddRef@?$CComObject@VCOPOSPOSPrinter@@@ATL@@WPA@EAAKXZ 000000018000d3f4 f i POSPrinter.obj
 0001:0000c400       ?AddRef@?$CComObject@VCOPOSPOSPrinter@@@ATL@@WPI@EAAKXZ 000000018000d400 f i POSPrinter.obj
 0001:0000c410       ?AddRef@?$CComObjectCached@VCComClassFactory@ATL@@@ATL@@UEAAKXZ 000000018000d410 f i POSPrinter.obj
 0001:0000c470       ?AddRef@CRegObject@ATL@@UEAAKXZ 000000018000d470 f i POSPrinter.obj
 0001:0000c4e0       ?AddReplacement@CRegObject@ATL@@UEAAJPEB_W0@Z 000000018000d4e0 f i POSPrinter.obj
 0001:0000c610       ?AddString@CParseBuffer@CRegParser@ATL@@QEAAHPEB_W@Z 000000018000d610 f i POSPrinter.obj
 0001:0000c700       ?AddTermFunc@CAtlModule@ATL@@QEAAJP6AX_K@Z0@Z 000000018000d700 f i POSPrinter.obj
 0001:0000c770       ?AddValue@CRegParser@ATL@@IEAAJAEAVCRegKey@2@PEB_WPEA_W@Z 000000018000d770 f i POSPrinter.obj
 0001:0000d040       ?Advise@?$CProxy_IOPOSEvents@VCOPOSPOSPrinter@@@@UEAAJPEAUIUnknown@@PEAK@Z 000000018000e040 f i POSPrinter.obj
 0001:0000d0b0       ?Advise@?$IConnectionPointImpl@VCOPOSPOSPrinter@@$1?DIID__IOPOSPOSPrinterEvents@@3U_GUID@@BVCComDynamicUnkArray@ATL@@@ATL@@UEAAJPEAUIUnknown@@PEAK@Z 000000018000e0b0 f i POSPrinter.obj
 0001:0000d2b0       ?Advise@?$IConnectionPointImpl@VCOPOSPOSPrinter@@$1?IID_IPropertyNotifySink@@3U_GUID@@BVCComDynamicUnkArray@ATL@@@ATL@@UEAAJPEAUIUnknown@@PEAK@Z 000000018000e2b0 f i POSPrinter.obj
 0001:0000d4b0       ?Advise@?$IOleObjectImpl@VCOPOSPOSPrinter@@@ATL@@UEAAJPEAUIAdviseSink@@PEAK@Z 000000018000e4b0 f i POSPrinter.obj
 0001:0000d570       ?Allocate@?$CAtlSafeAllocBufferManager@VCCRTAllocator@ATL@@@_ATL_SAFE_ALLOCA_IMPL@ATL@@QEAAPEAX_K@Z 000000018000e570 f i POSPrinter.obj
 0001:0000d5f0       ?Allocate@?$CTempBuffer@E$0BAA@VCCRTAllocator@ATL@@@ATL@@QEAAPEAE_K@Z 000000018000e5f0 f i POSPrinter.obj
 0001:0000d640       ?Allocate@?$CTempBuffer@_W$0BAA@VCCRTAllocator@ATL@@@ATL@@QEAAPEA_W_K@Z 000000018000e640 f i POSPrinter.obj
 0001:0000d690       ?Allocate@?$CTempBuffer@_W$0EAA@VCCRTAllocator@ATL@@@ATL@@QEAAPEA_W_K@Z 000000018000e690 f i POSPrinter.obj
 0001:0000d6e0       ?AllocateBytes@?$CTempBuffer@E$0BAA@VCCRTAllocator@ATL@@@ATL@@QEAAPEAE_K@Z 000000018000e6e0 f i POSPrinter.obj
 0001:0000d790       ?AllocateBytes@?$CTempBuffer@_W$0BAA@VCCRTAllocator@ATL@@@ATL@@QEAAPEA_W_K@Z 000000018000e790 f i POSPrinter.obj
 0001:0000d840       ?AllocateBytes@?$CTempBuffer@_W$0EAA@VCCRTAllocator@ATL@@@ATL@@QEAAPEA_W_K@Z 000000018000e840 f i POSPrinter.obj
 0001:0000d8f0       ?AllocateHeap@?$CTempBuffer@E$0BAA@VCCRTAllocator@ATL@@@ATL@@AEAAX_K@Z 000000018000e8f0 f i POSPrinter.obj
 0001:0000d950       ?AllocateHeap@?$CTempBuffer@_W$0BAA@VCCRTAllocator@ATL@@@ATL@@AEAAX_K@Z 000000018000e950 f i POSPrinter.obj
 0001:0000d9b0       ?AllocateHeap@?$CTempBuffer@_W$0EAA@VCCRTAllocator@ATL@@@ATL@@AEAAX_K@Z 000000018000e9b0 f i POSPrinter.obj
 0001:0000da10       ?Append@CParseBuffer@CRegParser@ATL@@QEAAHPEB_WH@Z 000000018000ea10 f i POSPrinter.obj
 0001:0000dc40       ?AtlCallTermFunc@ATL@@YAXPEAU_ATL_MODULE70@1@@Z 000000018000ec40 f i POSPrinter.obj
 0001:0000dcf0       ?AtlCoTaskMemCAlloc@ATL@@YAPEAXKK@Z 000000018000ecf0 f i POSPrinter.obj
 0001:0000dd70       ?AtlCoTaskMemRecalloc@ATL@@YAPEAXPEAXKK@Z 000000018000ed70 f i POSPrinter.obj
 0001:0000ddf0       ?AtlComModuleGetClassObject@ATL@@YAJPEAU_ATL_COM_MODULE70@1@AEBU_GUID@@1PEAPEAX@Z 000000018000edf0 f i POSPrinter.obj
 0001:0000e120       ?AtlComModuleRegisterServer@ATL@@YAJPEAU_ATL_COM_MODULE70@1@HPEBU_GUID@@@Z 000000018000f120 f i POSPrinter.obj
 0001:0000e320       ?AtlComModuleUnregisterServer@ATL@@YAJPEAU_ATL_COM_MODULE70@1@HPEBU_GUID@@@Z 000000018000f320 f i POSPrinter.obj
 0001:0000e480       ?AtlComQIPtrAssign2@ATL@@YAXPEAPEAUIUnknown@@PEAU2@AEBU_GUID@@@Z 000000018000f480 f i POSPrinter.obj
 0001:0000e510       ?AtlCreateTargetDC@ATL@@YAPEAUHDC__@@PEAU2@PEAUtagDVTARGETDEVICE@@@Z 000000018000f510 f i POSPrinter.obj
 0001:0000e740       ?AtlCrtErrorCheck@ATL@@YAHH@Z 000000018000f740 f i POSPrinter.obj
 0001:0000e7c0       ?AtlGetPerUserRegistration@ATL@@YAJPEA_N@Z 000000018000f7c0 f i POSPrinter.obj
 0001:0000e7f0       ?AtlHiMetricToPixel@ATL@@YAXPEBUtagSIZE@@PEAU2@@Z 000000018000f7f0 f i POSPrinter.obj
 0001:0000e9f0       ?AtlHresultFromLastError@ATL@@YAJXZ 000000018000f9f0 f i POSPrinter.obj
 0001:0000ea20       ?AtlHresultFromWin32@ATL@@YAJK@Z 000000018000fa20 f i POSPrinter.obj
 0001:0000ea50       ?AtlIPersistStreamInit_Load@ATL@@YAJPEAUIStream@@PEBUATL_PROPMAP_ENTRY@1@PEAXPEAUIUnknown@@@Z 000000018000fa50 f i POSPrinter.obj
 0001:0000f0c0       ?AtlIPersistStreamInit_Save@ATL@@YAJPEAUIStream@@HPEBUATL_PROPMAP_ENTRY@1@PEAXPEAUIUnknown@@@Z 00000001800100c0 f i POSPrinter.obj
 0001:0000f650       ?AtlInternalOleLoadFromStream@ATL@@YAJPEAUIStream@@AEBU_GUID@@PEAPEAXTClassesAllowedInStream@1@K@Z 0000000180010650 f i POSPrinter.obj
 0001:0000f990       ?AtlInternalQueryInterface@ATL@@YAJPEAXPEBU_ATL_INTMAP_ENTRY@1@AEBU_GUID@@PEAPEAX@Z 0000000180010990 f i POSPrinter.obj
 0001:0000fc50       ?AtlLoadTypeLib@ATL@@YAJPEAUHINSTANCE__@@PEB_WPEAPEA_WPEAPEAUITypeLib@@@Z 0000000180010c50 f i POSPrinter.obj
 0001:00010120       ?AtlModuleAddTermFunc@ATL@@YAJPEAU_ATL_MODULE70@1@P6AX_K@Z1@Z 0000000180011120 f i POSPrinter.obj
 0001:000102f0       ?AtlRegisterClassCategoriesHelper@ATL@@YAJAEBU_GUID@@PEBU_ATL_CATMAP_ENTRY@1@H@Z 00000001800112f0 f i POSPrinter.obj
 0001:00010ac0       ?AtlRegisterTypeLib@ATL@@YAJPEAUHINSTANCE__@@PEB_W@Z 0000000180011ac0 f i POSPrinter.obj
 0001:00010e20       ?AtlThrowImpl@ATL@@YAXJ@Z  0000000180011e20 f i POSPrinter.obj
 0001:00010f00       ?AtlUnRegisterTypeLib@ATL@@YAJPEAUHINSTANCE__@@PEB_W@Z 0000000180011f00 f i POSPrinter.obj
 0001:00011130       ?AtlWinModuleAddCreateWndData@ATL@@YAXPEAU_ATL_WIN_MODULE70@1@PEAU_AtlCreateWndData@1@PEAX@Z 0000000180012130 f i POSPrinter.obj
 0001:00011320       ?AtlWinModuleExtractCreateWndData@ATL@@YAPEAXPEAU_ATL_WIN_MODULE70@1@@Z 0000000180012320 f i POSPrinter.obj
 0001:00011520       ?AtlWinModuleRegisterClassExW@ATL@@YAGPEAU_ATL_WIN_MODULE70@1@PEBUtagWNDCLASSEXW@@@Z 0000000180012520 f i POSPrinter.obj
 0001:000115f0       ?AtlWinModuleRegisterWndClassInfoW@ATL@@YAGPEAU_ATL_WIN_MODULE70@1@PEAU_ATL_BASE_MODULE70@1@PEAU_ATL_WNDCLASSINFOW@1@PEAP6A_JPEAUHWND__@@I_K_J@Z@Z 00000001800125f0 f i POSPrinter.obj
 0001:00011660       ?Attach@?$CAutoVectorPtr@_W@ATL@@QEAAXPEA_W@Z 0000000180012660 f i POSPrinter.obj
 0001:000116f0       ?Attach@CComBSTR@ATL@@QEAAXPEA_W@Z 00000001800126f0 f i POSPrinter.obj
 0001:00011750       ?Attach@CRegKey@ATL@@QEAAXPEAUHKEY__@@@Z 0000000180012750 f i POSPrinter.obj
 0001:000117f0       ?CanForceRemoveKey@CRegParser@ATL@@IEAAHPEB_W@Z 00000001800127f0 f i POSPrinter.obj
 0001:00011860       ?ChToByte@CRegParser@ATL@@KAE_W@Z 0000000180012860 f i POSPrinter.obj
 0001:000119c0       ?ChangeType@CComVariant@ATL@@QEAAJGPEBUtagVARIANT@@@Z 00000001800129c0 f i POSPrinter.obj
 0001:00011a30       ?Cleanup@CComTypeInfoHolder@ATL@@SAX_K@Z 0000000180012a30 f i POSPrinter.obj
 0001:00011b20       ?Clear@CComVariant@ATL@@QEAAJXZ 0000000180012b20 f i POSPrinter.obj
 0001:00011b50       ?ClearReplacements@CExpansionVector@ATL@@QEAAJXZ 0000000180012b50 f i POSPrinter.obj
 0001:00011bf0       ?ClearReplacements@CRegObject@ATL@@UEAAJXZ 0000000180012bf0 f i POSPrinter.obj
 0001:00011c50       ?Clone@?$CComEnumImpl@UIEnumConnectionPoints@@$1?_GUID_b196b285_bab4_101a_b69c_00aa00341d07@@3U__s_GUID@@BPEAUIConnectionPoint@@V?$_CopyInterface@UIConnectionPoint@@@ATL@@@ATL@@UEAAJPEAPEAUIEnumConnectionPoints@@@Z 0000000180012c50 f i POSPrinter.obj
 0001:00011e40       ?Clone@?$CComEnumImpl@UIEnumConnections@@$1?_GUID_b196b287_bab4_101a_b69c_00aa00341d07@@3U__s_GUID@@BUtagCONNECTDATA@@V?$_Copy@UtagCONNECTDATA@@@ATL@@@ATL@@UEAAJPEAPEAUIEnumConnections@@@Z 0000000180012e40 f i POSPrinter.obj
 0001:00012030       ?Close@?$IOleObjectImpl@VCOPOSPOSPrinter@@@ATL@@UEAAJK@Z 0000000180013030 f i POSPrinter.obj
 0001:000120e0       ?Close@CRegKey@ATL@@QEAAJXZ 00000001800130e0 f i POSPrinter.obj
 0001:00012150       ?ContextSensitiveHelp@?$IOleInPlaceActiveObjectImpl@VCOPOSPOSPrinter@@@ATL@@UEAAJH@Z 0000000180013150 f i POSPrinter.obj
 0001:000121d0       ?ContextSensitiveHelp@?$IOleInPlaceObjectWindowlessImpl@VCOPOSPOSPrinter@@@ATL@@UEAAJH@Z 00000001800131d0 f i POSPrinter.obj
 0001:00012250       ?ControlQueryInterface@?$CComControl@VCOPOSPOSPrinter@@V?$CWindowImpl@VCOPOSPOSPrinter@@VCWindow@ATL@@V?$CWinTraits@$0FGAAAAAA@$0A@@3@@ATL@@@ATL@@UEAAJAEBU_GUID@@PEAPEAX@Z 0000000180013250 f i POSPrinter.obj
 0001:000122e0       ?CreateControlWindow@?$CComControl@VCOPOSPOSPrinter@@V?$CWindowImpl@VCOPOSPOSPrinter@@VCWindow@ATL@@V?$CWinTraits@$0FGAAAAAA@$0A@@3@@ATL@@@ATL@@UEAAPEAUHWND__@@PEAU3@AEAUtagRECT@@@Z 00000001800132e0 f i POSPrinter.obj
 0001:000123d0       ?CreateInstance@?$CComCreator@V?$CComAggObject@VCOPOSPOSPrinter@@@ATL@@@ATL@@SAJPEAXAEBU_GUID@@PEAPEAX@Z 00000001800133d0 f i POSPrinter.obj
 0001:000125b0       ?CreateInstance@?$CComCreator@V?$CComObject@VCOPOSPOSPrinter@@@ATL@@@ATL@@SAJPEAXAEBU_GUID@@PEAPEAX@Z 00000001800135b0 f i POSPrinter.obj
 0001:000127b0       ?CreateInstance@?$CComObject@V?$CComEnum@UIEnumConnectionPoints@@$1?_GUID_b196b285_bab4_101a_b69c_00aa00341d07@@3U__s_GUID@@BPEAUIConnectionPoint@@V?$_CopyInterface@UIConnectionPoint@@@ATL@@VCComSingleThreadModel@6@@ATL@@@ATL@@SAJPEAPEAV12@@Z 00000001800137b0 f i POSPrinter.obj
 0001:00012970       ?CreateInstance@?$CComObject@V?$CComEnum@UIEnumConnections@@$1?_GUID_b196b287_bab4_101a_b69c_00aa00341d07@@3U__s_GUID@@BUtagCONNECTDATA@@V?$_Copy@UtagCONNECTDATA@@@ATL@@VCComSingleThreadModel@6@@ATL@@@ATL@@SAJPEAPEAV12@@Z 0000000180013970 f i POSPrinter.obj
 0001:00012b30       ?CreateInstance@CComClassFactory@ATL@@UEAAJPEAUIUnknown@@AEBU_GUID@@PEAPEAX@Z 0000000180013b30 f i POSPrinter.obj
 0001:00012c50       ?DAdvise@?$IDataObjectImpl@VCOPOSPOSPrinter@@@ATL@@UEAAJPEAUtagFORMATETC@@KPEAUIAdviseSink@@PEAK@Z 0000000180013c50 f i POSPrinter.obj
 0001:00012db0       ?DEVMODEOLE2T_EX@@YAPEAU_devicemodeW@@PEAU1@@Z 0000000180013db0 f i POSPrinter.obj
 0001:00012dc0       ?DUnadvise@?$IDataObjectImpl@VCOPOSPOSPrinter@@@ATL@@UEAAJK@Z 0000000180013dc0 f i POSPrinter.obj
 0001:00012ec0       ?Decrement@CComMultiThreadModel@ATL@@SAKPEAJ@Z 0000000180013ec0 f i POSPrinter.obj
 0001:00012ee0       ?Decrement@CComSingleThreadModel@ATL@@SAKPEAJ@Z 0000000180013ee0 f i POSPrinter.obj
 0001:00012f00       ?DefWindowProcW@?$CWindowImplBaseT@VCWindow@ATL@@V?$CWinTraits@$0FGAAAAAA@$0A@@2@@ATL@@QEAA_JI_K_J@Z 0000000180013f00 f i POSPrinter.obj
 0001:00012f60       ?DefaultReflectionHandler@?$CWindowImplRoot@VCWindow@ATL@@@ATL@@SAHPEAUHWND__@@I_K_JAEA_J@Z 0000000180013f60 f i POSPrinter.obj
 0001:00013050       ?DeleteSubKey@CRegKey@ATL@@QEAAJPEB_W@Z 0000000180014050 f i POSPrinter.obj
 0001:00013180       ?DeleteValue@CRegKey@ATL@@QEAAJPEB_W@Z 0000000180014180 f i POSPrinter.obj
 0001:00013210       ?Detach@?$CAutoVectorPtr@_W@ATL@@QEAAPEA_WXZ 0000000180014210 f i POSPrinter.obj
 0001:00013250       ?Detach@?$CComPtrBase@UIPersistStream@@@ATL@@QEAAPEAUIPersistStream@@XZ 0000000180014250 f i POSPrinter.obj
 0001:00013290       ?Detach@?$CComPtrBase@UITypeInfo@@@ATL@@QEAAPEAUITypeInfo@@XZ 0000000180014290 f i POSPrinter.obj
 0001:000132d0       ?Detach@?$CComPtrBase@UIUnknown@@@ATL@@QEAAPEAUIUnknown@@XZ 00000001800142d0 f i POSPrinter.obj
 0001:00013310       ?Detach@CComBSTR@ATL@@QEAAPEA_WXZ 0000000180014310 f i POSPrinter.obj
 0001:00013350       ?Detach@CParseBuffer@CRegParser@ATL@@QEAAPEA_WXZ 0000000180014350 f i POSPrinter.obj
 0001:000133b0       ?Detach@CRegKey@ATL@@QEAAPEAUHKEY__@@XZ 00000001800143b0 f i POSPrinter.obj
 0001:00013410       ?DoEvent@COPOSPOSPrinter@@IEAAXI_K_J@Z 0000000180014410 f i POSPrinter.obj
 0001:00013550       ?DoVerb@?$IOleObjectImpl@VCOPOSPOSPrinter@@@ATL@@UEAAJJPEAUtagMSG@@PEAUIOleClientSite@@JPEAUHWND__@@PEBUtagRECT@@@Z 0000000180014550 f i POSPrinter.obj
 0001:00013860       ?DoVerbDiscardUndo@?$IOleObjectImpl@VCOPOSPOSPrinter@@@ATL@@QEAAJPEBUtagRECT@@PEAUHWND__@@@Z 0000000180014860 f i POSPrinter.obj
 0001:00013900       ?DoVerbHide@?$IOleObjectImpl@VCOPOSPOSPrinter@@@ATL@@QEAAJPEBUtagRECT@@PEAUHWND__@@@Z 0000000180014900 f i POSPrinter.obj
 0001:000139e0       ?DoVerbInPlaceActivate@?$IOleObjectImpl@VCOPOSPOSPrinter@@@ATL@@QEAAJPEBUtagRECT@@PEAUHWND__@@@Z 00000001800149e0 f i POSPrinter.obj
 0001:00013ac0       ?DoVerbOpen@?$IOleObjectImpl@VCOPOSPOSPrinter@@@ATL@@QEAAJPEBUtagRECT@@PEAUHWND__@@@Z 0000000180014ac0 f i POSPrinter.obj
 0001:00013b60       ?DoVerbPrimary@?$IOleObjectImpl@VCOPOSPOSPrinter@@@ATL@@QEAAJPEBUtagRECT@@PEAUHWND__@@@Z 0000000180014b60 f i POSPrinter.obj
 0001:00013ca0       ?DoVerbProperties@CComControlBase@ATL@@QEAAJPEBUtagRECT@@PEAUHWND__@@@Z 0000000180014ca0 f i POSPrinter.obj
 0001:00014050       ?DoVerbShow@?$IOleObjectImpl@VCOPOSPOSPrinter@@@ATL@@QEAAJPEBUtagRECT@@PEAUHWND__@@@Z 0000000180015050 f i POSPrinter.obj
 0001:00014110       ?DoVerbUIActivate@?$IOleObjectImpl@VCOPOSPOSPrinter@@@ATL@@QEAAJPEBUtagRECT@@PEAUHWND__@@@Z 0000000180015110 f i POSPrinter.obj
 0001:000141f0       ?DoesVerbActivate@CComControlBase@ATL@@QEAAHJ@Z 00000001800151f0 f i POSPrinter.obj
 0001:00014250       ?DoesVerbUIActivate@CComControlBase@ATL@@QEAAHJ@Z 0000000180015250 f i POSPrinter.obj
 0001:000142d0       ?Draw@?$IViewObjectExImpl@VCOPOSPOSPrinter@@@ATL@@UEAAJKJPEAXPEAUtagDVTARGETDEVICE@@PEAUHDC__@@2PEBU_RECTL@@3P6AH_K@Z4@Z 00000001800152d0 f i POSPrinter.obj
 0001:000143f0       ?Empty@CComBSTR@ATL@@QEAAXXZ 00000001800153f0 f i POSPrinter.obj
 0001:00014430       ?EnableModeless@?$IOleInPlaceActiveObjectImpl@VCOPOSPOSPrinter@@@ATL@@UEAAJH@Z 0000000180015430 f i POSPrinter.obj
 0001:000144a0       ?EndOfVar@CRegParser@ATL@@IEAAHXZ 00000001800154a0 f i POSPrinter.obj
 0001:00014500       ?EnsureTI@CComTypeInfoHolder@ATL@@QEAAJK@Z 0000000180015500 f i POSPrinter.obj
 0001:00014560       ?EnumAdvise@?$IOleObjectImpl@VCOPOSPOSPrinter@@@ATL@@UEAAJPEAPEAUIEnumSTATDATA@@@Z 0000000180015560 f i POSPrinter.obj
 0001:000146c0       ?EnumConnectionPoints@?$IConnectionPointContainerImpl@VCOPOSPOSPrinter@@@ATL@@UEAAJPEAPEAUIEnumConnectionPoints@@@Z 00000001800156c0 f i POSPrinter.obj
 0001:00014bb0       ?EnumConnections@?$IConnectionPointImpl@VCOPOSPOSPrinter@@$1?DIID__IOPOSPOSPrinterEvents@@3U_GUID@@BVCComDynamicUnkArray@ATL@@@ATL@@UEAAJPEAPEAUIEnumConnections@@@Z 0000000180015bb0 f i POSPrinter.obj
 0001:00014f00       ?EnumConnections@?$IConnectionPointImpl@VCOPOSPOSPrinter@@$1?IID_IPropertyNotifySink@@3U_GUID@@BVCComDynamicUnkArray@ATL@@@ATL@@UEAAJPEAPEAUIEnumConnections@@@Z 0000000180015f00 f i POSPrinter.obj
 0001:00015250       ?EnumDAdvise@?$IDataObjectImpl@VCOPOSPOSPrinter@@@ATL@@UEAAJPEAPEAUIEnumSTATDATA@@@Z 0000000180016250 f i POSPrinter.obj
 0001:000153a0       ?EnumFormatEtc@?$IDataObjectImpl@VCOPOSPOSPrinter@@@ATL@@UEAAJKPEAPEAUIEnumFORMATETC@@@Z 00000001800163a0 f i POSPrinter.obj
 0001:00015430       ?EnumVerbs@?$IOleObjectImpl@VCOPOSPOSPrinter@@@ATL@@UEAAJPEAPEAUIEnumOLEVERB@@@Z 0000000180016430 f i POSPrinter.obj
 0001:00015500       ?EscapeSingleQuote@CAtlModule@ATL@@SAXPEA_W_KPEB_W@Z 0000000180016500 f i POSPrinter.obj
 0001:00015600       ?ExtractCreateWndData@CAtlWinModule@ATL@@QEAAPEAXXZ 0000000180016600 f i POSPrinter.obj
 0001:00015630       ?FAccessAllowed@?$IObjectSafetyImpl@VCOPOSPOSPrinter@@$02@ATL@@MEAAHXZ 0000000180016630 f i POSPrinter.obj
 0001:00015640       ?FinalConstruct@?$CComAggObject@VCOPOSPOSPrinter@@@ATL@@QEAAJXZ 0000000180016640 f i POSPrinter.obj
 0001:00015690       ?FinalConstruct@CComObjectRootBase@ATL@@QEAAJXZ 0000000180016690 f i POSPrinter.obj
 0001:000156a0       ?FinalConstruct@CRegObject@ATL@@QEAAJXZ 00000001800166a0 f i POSPrinter.obj
 0001:000156e0       ?FinalRelease@?$CComAggObject@VCOPOSPOSPrinter@@@ATL@@QEAAXXZ 00000001800166e0 f i POSPrinter.obj
 0001:00015730       ?FinalRelease@CComObjectRootBase@ATL@@QEAAXXZ 0000000180016730 f i POSPrinter.obj
 0001:00015740       ?FindConnectionPoint@?$IConnectionPointContainerImpl@VCOPOSPOSPrinter@@@ATL@@UEAAJAEBU_GUID@@PEAPEAUIConnectionPoint@@@Z 0000000180016740 f i POSPrinter.obj
 0001:000158b0       ?FindKey@?$CSimpleMap@PEA_WPEA_WVCExpansionVectorEqualHelper@ATL@@@ATL@@QEBAHAEBQEA_W@Z 00000001800168b0 f i POSPrinter.obj
 0001:00015930       ?FireTheEvent@?$CProxy_IOPOSEvents@VCOPOSPOSPrinter@@@@IEAAXPEAUIUnknown@@PEAVOposVariant@@IAEAJPEB_WJ@Z 0000000180016930 f i POSPrinter.obj
 0001:00015b10       ?FireViewChange@CComControlBase@ATL@@QEAAJXZ 0000000180016b10 f i POSPrinter.obj
 0001:00015bf0       ?Fire_DirectIOEvent@?$CProxy_IOPOSEvents@VCOPOSPOSPrinter@@@@QEAAXJPEAJPEAPEA_W@Z 0000000180016bf0 f i POSPrinter.obj
 0001:00015e80       ?Fire_ErrorEvent@?$CProxy_IOPOSEvents@VCOPOSPOSPrinter@@@@QEAAXJJJPEAJ@Z 0000000180016e80 f i POSPrinter.obj
 0001:00016130       ?Fire_OutputCompleteEvent@?$CProxy_IOPOSEvents@VCOPOSPOSPrinter@@@@QEAAXJ@Z 0000000180017130 f i POSPrinter.obj
 0001:00016320       ?Fire_StatusUpdateEvent@?$CProxy_IOPOSEvents@VCOPOSPOSPrinter@@@@QEAAXJ@Z 0000000180017320 f i POSPrinter.obj
 0001:00016510       ?FormatWindowClassName@AtlModuleRegisterWndClassInfoParamW@ATL@@SAXPEA_WKPEAX@Z 0000000180017510 f i POSPrinter.obj
 0001:00016560       ?Free@?$CAutoVectorPtr@_W@ATL@@QEAAXXZ 0000000180017560 f i POSPrinter.obj
 0001:000165b0       ?FreeHeap@?$CTempBuffer@E$0BAA@VCCRTAllocator@ATL@@@ATL@@AEAAXXZ 00000001800175b0 f i POSPrinter.obj
 0001:000165f0       ?FreeHeap@?$CTempBuffer@_W$0BAA@VCCRTAllocator@ATL@@@ATL@@AEAAXXZ 00000001800175f0 f i POSPrinter.obj
 0001:00016630       ?FreeHeap@?$CTempBuffer@_W$0EAA@VCCRTAllocator@ATL@@@ATL@@AEAAXXZ 0000000180017630 f i POSPrinter.obj
 0001:00016670       ?Freeze@?$IViewObjectExImpl@VCOPOSPOSPrinter@@@ATL@@UEAAJKJPEAXPEAK@Z 0000000180017670 f i POSPrinter.obj
 0001:00016700       ?GenerateError@CRegParser@ATL@@IEAAJI@Z 0000000180017700 f i POSPrinter.obj
 0001:00016720       ?GetAdvise@?$IViewObjectExImpl@VCOPOSPOSPrinter@@@ATL@@UEAAJPEAK0PEAPEAUIAdviseSink@@@Z 0000000180017720 f i POSPrinter.obj
 0001:00016870       ?GetAmbientLocaleID@CComControlBase@ATL@@QEAAJAEAK@Z 0000000180017870 f i POSPrinter.obj
 0001:00016950       ?GetAmbientProperty@CComControlBase@ATL@@QEAAJJAEAUtagVARIANT@@@Z 0000000180017950 f i POSPrinter.obj
 0001:000169c0       ?GetAmbientUserMode@CComControlBase@ATL@@QEAAJAEAH@Z 00000001800179c0 f i POSPrinter.obj
 0001:00016ae0       ?GetAppId@?$CAtlModuleT@VCComModule@ATL@@@ATL@@SAPEB_WXZ 0000000180017ae0 f i POSPrinter.obj
 0001:00016af0       ?GetAt@CComDynamicUnkArray@ATL@@QEAAPEAUIUnknown@@H@Z 0000000180017af0 f i POSPrinter.obj
 0001:00016ba0       ?GetCanonicalFormatEtc@?$IDataObjectImpl@VCOPOSPOSPrinter@@@ATL@@UEAAJPEAUtagFORMATETC@@0@Z 0000000180017ba0 f i POSPrinter.obj
 0001:00016c30       ?GetClassID@?$IPersistStorageImpl@VCOPOSPOSPrinter@@@ATL@@UEAAJPEAU_GUID@@@Z 0000000180017c30 f i POSPrinter.obj
 0001:00016cd0       ?GetClassID@?$IPersistStreamInitImpl@VCOPOSPOSPrinter@@@ATL@@UEAAJPEAU_GUID@@@Z 0000000180017cd0 f i POSPrinter.obj
 0001:00016d70       ?GetClassInfoExW@AtlModuleRegisterWndClassInfoParamW@ATL@@SAHPEAUHINSTANCE__@@PEB_WPEAUtagWNDCLASSEXW@@@Z 0000000180017d70 f i POSPrinter.obj
 0001:00016dc0       ?GetClassInfoW@?$IProvideClassInfo2Impl@$1?CLSID_OPOSPOSPrinter@@3U_GUID@@B$1?DIID__IOPOSPOSPrinterEvents@@3U2@B$1?LIBID_OposPOSPrinter_CCO@@3U2@B$00$0A@VCComTypeInfoHolder@ATL@@@ATL@@UEAAJPEAPEAUITypeInfo@@@Z 0000000180017dc0 f i POSPrinter.obj
 0001:00016e00       ?GetClassObject@CComModule@ATL@@QEAAJAEBU_GUID@@0PEAPEAX@Z 0000000180017e00 f i POSPrinter.obj
 0001:00017070       ?GetClientSite@?$IOleObjectImpl@VCOPOSPOSPrinter@@@ATL@@UEAAJPEAPEAUIOleClientSite@@@Z 0000000180018070 f i POSPrinter.obj
 0001:00017120       ?GetClipboardData@?$IOleObjectImpl@VCOPOSPOSPrinter@@@ATL@@UEAAJKPEAPEAUIDataObject@@@Z 0000000180018120 f i POSPrinter.obj
 0001:000171b0       ?GetCodeAddress@CDynamicStdCallThunk2@ATL@@QEAAPEAXXZ 00000001800181b0 f i POSPrinter.obj
 0001:000171f0       ?GetColorSet@?$IViewObjectExImpl@VCOPOSPOSPrinter@@@ATL@@UEAAJKJPEAXPEAUtagDVTARGETDEVICE@@PEAUHDC__@@PEAPEAUtagLOGPALETTE@@@Z 00000001800181f0 f i POSPrinter.obj
 0001:00017280       ?GetConnMap@COPOSPOSPrinter@@SAPEBU_ATL_CONNMAP_ENTRY@ATL@@PEAH@Z 0000000180018280 f i POSPrinter.obj
 0001:000173e0       ?GetConnectionInterface@?$IConnectionPointImpl@VCOPOSPOSPrinter@@$1?DIID__IOPOSPOSPrinterEvents@@3U_GUID@@BVCComDynamicUnkArray@ATL@@@ATL@@UEAAJPEAU_GUID@@@Z 00000001800183e0 f i POSPrinter.obj
 0001:00017420       ?GetConnectionInterface@?$IConnectionPointImpl@VCOPOSPOSPrinter@@$1?IID_IPropertyNotifySink@@3U_GUID@@BVCComDynamicUnkArray@ATL@@@ATL@@UEAAJPEAU_GUID@@@Z 0000000180018420 f i POSPrinter.obj
 0001:00017460       ?GetConnectionPointContainer@?$IConnectionPointImpl@VCOPOSPOSPrinter@@$1?DIID__IOPOSPOSPrinterEvents@@3U_GUID@@BVCComDynamicUnkArray@ATL@@@ATL@@UEAAJPEAPEAUIConnectionPointContainer@@@Z 0000000180018460 f i POSPrinter.obj
 0001:000174e0       ?GetConnectionPointContainer@?$IConnectionPointImpl@VCOPOSPOSPrinter@@$1?IID_IPropertyNotifySink@@3U_GUID@@BVCComDynamicUnkArray@ATL@@@ATL@@UEAAJPEAPEAUIConnectionPointContainer@@@Z 00000001800184e0 f i POSPrinter.obj
 0001:00017560       ?GetContentExtent@?$IQuickActivateImpl@VCOPOSPOSPrinter@@@ATL@@UEAAJPEAUtagSIZE@@@Z 0000000180018560 f i POSPrinter.obj
 0001:00017620       ?GetControlInfo@?$IOleControlImpl@VCOPOSPOSPrinter@@@ATL@@UEAAJPEAUtagCONTROLINFO@@@Z 0000000180018620 f i POSPrinter.obj
 0001:000176b0       ?GetCookie@CComDynamicUnkArray@ATL@@QEAAKPEAPEAUIUnknown@@@Z 00000001800186b0 f i POSPrinter.obj
 0001:000177a0       ?GetData@?$IDataObjectImpl@VCOPOSPOSPrinter@@@ATL@@UEAAJPEAUtagFORMATETC@@PEAUtagSTGMEDIUM@@@Z 00000001800187a0 f i POSPrinter.obj
 0001:00017860       ?GetData@CAtlSafeAllocBufferNode@?$CAtlSafeAllocBufferManager@VCCRTAllocator@ATL@@@_ATL_SAFE_ALLOCA_IMPL@ATL@@QEAAPEAXXZ 0000000180018860 f i POSPrinter.obj
 0001:00017880       ?GetDataHere@?$IDataObjectImpl@VCOPOSPOSPrinter@@@ATL@@UEAAJPEAUtagFORMATETC@@PEAUtagSTGMEDIUM@@@Z 0000000180018880 f i POSPrinter.obj
 0001:00017910       ?GetDropTarget@?$IOleInPlaceObjectWindowlessImpl@VCOPOSPOSPrinter@@@ATL@@UEAAJPEAPEAUIDropTarget@@@Z 0000000180018910 f i POSPrinter.obj
 0001:000179a0       ?GetExtent@?$IOleObjectImpl@VCOPOSPOSPrinter@@@ATL@@UEAAJKPEAUtagSIZE@@@Z 00000001800189a0 f i POSPrinter.obj
 0001:00017a70       ?GetExtent@?$IViewObjectExImpl@VCOPOSPOSPrinter@@@ATL@@UEAAJKJPEAUtagDVTARGETDEVICE@@PEAUtagSIZE@@@Z 0000000180018a70 f i POSPrinter.obj
 0001:00017b80       ?GetGITPtr@CAtlModule@ATL@@UEAAJPEAPEAUIGlobalInterfaceTable@@@Z 0000000180018b80 f i POSPrinter.obj
 0001:00017cc0       ?GetGUID@?$IProvideClassInfo2Impl@$1?CLSID_OPOSPOSPrinter@@3U_GUID@@B$1?DIID__IOPOSPOSPrinterEvents@@3U2@B$1?LIBID_OposPOSPrinter_CCO@@3U2@B$00$0A@VCComTypeInfoHolder@ATL@@@ATL@@UEAAJKPEAU_GUID@@@Z 0000000180018cc0 f i POSPrinter.obj
 0001:00017d40       ?GetIDsOfNames@?$IDispatchImpl@UIOPOSPOSPrinter@@$1?IID_IOPOSPOSPrinter@@3U_GUID@@B$1?LIBID_OposPOSPrinter_CCO@@3U3@B$00$0A@VCComTypeInfoHolder@ATL@@@ATL@@UEAAJAEBU_GUID@@PEAPEA_WIKPEAJ@Z 0000000180018d40 f i POSPrinter.obj
 0001:00017da0       ?GetIDsOfNames@CComTypeInfoHolder@ATL@@QEAAJAEBU_GUID@@PEAPEA_WIKPEAJ@Z 0000000180018da0 f i POSPrinter.obj
 0001:00017fc0       ?GetInterfaceSafetyOptions@?$IObjectSafetyImpl@VCOPOSPOSPrinter@@$02@ATL@@UEAAJAEBU_GUID@@PEAK1@Z 0000000180018fc0 f i POSPrinter.obj
 0001:00018160       ?GetKeyAt@?$CSimpleMap@PEA_WPEA_WVCExpansionVectorEqualHelper@ATL@@@ATL@@QEBAAEAPEA_WH@Z 0000000180019160 f i POSPrinter.obj
 0001:00018210       ?GetLockCount@CAtlModule@ATL@@UEAAJXZ 0000000180019210 f i POSPrinter.obj
 0001:00018220       ?GetMiscStatus@?$IOleObjectImpl@VCOPOSPOSPrinter@@@ATL@@UEAAJKPEAK@Z 0000000180019220 f i POSPrinter.obj
 0001:000182b0       ?GetMoniker@?$IOleObjectImpl@VCOPOSPOSPrinter@@@ATL@@UEAAJKKPEAPEAUIMoniker@@@Z 00000001800192b0 f i POSPrinter.obj
 0001:00018340       ?GetNaturalExtent@?$IViewObjectExImpl@VCOPOSPOSPrinter@@@ATL@@UEAAJKJPEAUtagDVTARGETDEVICE@@PEAUHDC__@@PEAUtagExtentInfo@@PEAUtagSIZE@@@Z 0000000180019340 f i POSPrinter.obj
 0001:000184d0       ?GetObjectCLSID@?$CComCoClass@VCOPOSPOSPrinter@@$1?CLSID_OPOSPOSPrinter@@3U_GUID@@B@ATL@@SAAEBU_GUID@@XZ 00000001800194d0 f i POSPrinter.obj
 0001:000184e0       ?GetPages@?$ISpecifyPropertyPagesImpl@VCOPOSPOSPrinter@@@ATL@@UEAAJPEAUtagCAUUID@@@Z 00000001800194e0 f i POSPrinter.obj
 0001:00018570       ?GetPagesHelper@?$ISpecifyPropertyPagesImpl@VCOPOSPOSPrinter@@@ATL@@IEAAJPEAUtagCAUUID@@PEBUATL_PROPMAP_ENTRY@2@@Z 0000000180019570 f i POSPrinter.obj
 0001:000187e0       ?GetProperty@?$CComPtr@UIDispatch@@@ATL@@QEAAJJPEAUtagVARIANT@@@Z 00000001800197e0 f i POSPrinter.obj
 0001:00018830       ?GetProperty@?$CComPtr@UIDispatch@@@ATL@@SAJPEAUIDispatch@@JPEAUtagVARIANT@@@Z 0000000180019830 f i POSPrinter.obj
 0001:00018a00       ?GetPropertyMap@COPOSPOSPrinter@@SAPEBUATL_PROPMAP_ENTRY@ATL@@XZ 0000000180019a00 f i POSPrinter.obj
 0001:00018a10       ?GetRect@?$IViewObjectExImpl@VCOPOSPOSPrinter@@@ATL@@UEAAJKPEAU_RECTL@@@Z 0000000180019a10 f i POSPrinter.obj
 0001:00018aa0       ?GetSize@?$CSimpleMap@PEA_WPEA_WVCExpansionVectorEqualHelper@ATL@@@ATL@@QEBAHXZ 0000000180019aa0 f i POSPrinter.obj
 0001:00018ab0       ?GetSize@CComDynamicUnkArray@ATL@@QEBAHXZ 0000000180019ab0 f i POSPrinter.obj
 0001:00018ac0       ?GetSizeMax@?$IPersistStreamInitImpl@VCOPOSPOSPrinter@@@ATL@@UEAAJPEAT_ULARGE_INTEGER@@@Z 0000000180019ac0 f i POSPrinter.obj
 0001:00019250       ?GetSizeMax@CComVariant@ATL@@QEBAJPEAT_ULARGE_INTEGER@@@Z 000000018001a250 f i POSPrinter.obj
 0001:00019680       ?GetStreamSize@CComBSTR@ATL@@SAKPEA_W@Z 000000018001a680 f i POSPrinter.obj
 0001:000196e0       ?GetTI@CComTypeInfoHolder@ATL@@QEAAJK@Z 000000018001a6e0 f i POSPrinter.obj
 0001:00019fb0       ?GetTI@CComTypeInfoHolder@ATL@@QEAAJKPEAPEAUITypeInfo@@@Z 000000018001afb0 f i POSPrinter.obj
 0001:0001a0a0       ?GetTypeInfo@?$IDispatchImpl@UIOPOSPOSPrinter@@$1?IID_IOPOSPOSPrinter@@3U_GUID@@B$1?LIBID_OposPOSPrinter_CCO@@3U3@B$00$0A@VCComTypeInfoHolder@ATL@@@ATL@@UEAAJIKPEAPEAUITypeInfo@@@Z 000000018001b0a0 f i POSPrinter.obj
 0001:0001a0f0       ?GetTypeInfo@CComTypeInfoHolder@ATL@@QEAAJIKPEAPEAUITypeInfo@@@Z 000000018001b0f0 f i POSPrinter.obj
 0001:0001a150       ?GetTypeInfoCount@?$IDispatchImpl@UIOPOSPOSPrinter@@$1?IID_IOPOSPOSPrinter@@3U_GUID@@B$1?LIBID_OposPOSPrinter_CCO@@3U3@B$00$0A@VCComTypeInfoHolder@ATL@@@ATL@@UEAAJPEAI@Z 000000018001b150 f i POSPrinter.obj
 0001:0001a180       ?GetUnknown@CComDynamicUnkArray@ATL@@QEAAPEAUIUnknown@@K@Z 000000018001b180 f i POSPrinter.obj
 0001:0001a230       ?GetUnknown@COPOSPOSPrinter@@QEAAPEAUIUnknown@@XZ 000000018001b230 f i POSPrinter.obj
 0001:0001a260       ?GetUserClassID@?$IOleObjectImpl@VCOPOSPOSPrinter@@@ATL@@UEAAJPEAU_GUID@@@Z 000000018001b260 f i POSPrinter.obj
 0001:0001a340       ?GetUserType@?$IOleObjectImpl@VCOPOSPOSPrinter@@@ATL@@UEAAJKPEAPEA_W@Z 000000018001b340 f i POSPrinter.obj
 0001:0001a3d0       ?GetValueAt@?$CSimpleMap@PEA_WPEA_WVCExpansionVectorEqualHelper@ATL@@@ATL@@QEBAAEAPEA_WH@Z 000000018001b3d0 f i POSPrinter.obj
 0001:0001a480       ?GetViewStatus@?$IViewObjectExImpl@VCOPOSPOSPrinter@@@ATL@@UEAAJPEAK@Z 000000018001b480 f i POSPrinter.obj
 0001:0001a580       ?GetWNDPROC@CWndProcThunk@ATL@@QEAAP6A_JPEAUHWND__@@I_K_J@ZXZ 000000018001b580 f i POSPrinter.obj
 0001:0001a5c0       ?GetWindow@?$IOleInPlaceActiveObjectImpl@VCOPOSPOSPrinter@@@ATL@@UEAAJPEAPEAUHWND__@@@Z 000000018001b5c0 f i POSPrinter.obj
 0001:0001a6c0       ?GetWindow@?$IOleInPlaceObjectWindowlessImpl@VCOPOSPOSPrinter@@@ATL@@UEAAJPEAPEAUHWND__@@@Z 000000018001b6c0 f i POSPrinter.obj
 0001:0001a7c0       ?GetWindowProc@?$CWindowImplBaseT@VCWindow@ATL@@V?$CWinTraits@$0FGAAAAAA@$0A@@2@@ATL@@UEAAP6A_JPEAUHWND__@@I_K_J@ZXZ 000000018001b7c0 f i POSPrinter.obj
 0001:0001a7d0       ?GetWndCaption@?$CWindowImpl@VCOPOSPOSPrinter@@VCWindow@ATL@@V?$CWinTraits@$0FGAAAAAA@$0A@@3@@ATL@@SAPEB_WXZ 000000018001b7d0 f i POSPrinter.obj
 0001:0001a7e0       ?GetWndClassInfo@?$CWindowImpl@VCOPOSPOSPrinter@@VCWindow@ATL@@V?$CWinTraits@$0FGAAAAAA@$0A@@3@@ATL@@SAAEAU_ATL_WNDCLASSINFOW@2@XZ 000000018001b7e0 f i POSPrinter.obj
 0001:0001a7f0       ?GetWndClassName@CWindow@ATL@@SAPEB_WXZ 000000018001b7f0 f i POSPrinter.obj
 0001:0001a800       ?GetWndExStyle@?$CWinTraits@$0FGAAAAAA@$0A@@ATL@@SAKK@Z 000000018001b800 f i POSPrinter.obj
 0001:0001a840       ?GetWndExStyle@?$CWindowImplBaseT@VCWindow@ATL@@V?$CWinTraits@$0FGAAAAAA@$0A@@2@@ATL@@SAKK@Z 000000018001b840 f i POSPrinter.obj
 0001:0001a870       ?GetWndStyle@?$CWinTraits@$0FGAAAAAA@$0A@@ATL@@SAKK@Z 000000018001b870 f i POSPrinter.obj
 0001:0001a8b0       ?GetWndStyle@?$CWindowImplBaseT@VCWindow@ATL@@V?$CWinTraits@$0FGAAAAAA@$0A@@2@@ATL@@SAKK@Z 000000018001b8b0 f i POSPrinter.obj
 0001:0001a8e0       ?GetZoomInfo@CComControlBase@ATL@@QEAAXAEAUATL_DRAWINFO@@@Z 000000018001b8e0 f i POSPrinter.obj
 0001:0001aa90       ?HKeyFromString@CRegParser@ATL@@KAPEAUHKEY__@@PEA_W@Z 000000018001ba90 f i POSPrinter.obj
 0001:0001ab20       ?HandsOffStorage@?$IPersistStorageImpl@VCOPOSPOSPrinter@@@ATL@@UEAAJXZ 000000018001bb20 f i POSPrinter.obj
 0001:0001ab90       ?HasSubKeys@CRegParser@ATL@@IEAAHPEAUHKEY__@@@Z 000000018001bb90 f i POSPrinter.obj
 0001:0001ad00       ?IDataObject_GetData@CComControlBase@ATL@@QEAAJPEAUtagFORMATETC@@PEAUtagSTGMEDIUM@@@Z 000000018001bd00 f i POSPrinter.obj
 0001:0001b1b0       ?IOleInPlaceObject_InPlaceDeactivate@CComControlBase@ATL@@QEAAJXZ 000000018001c1b0 f i POSPrinter.obj
 0001:0001b420       ?IOleInPlaceObject_SetObjectRects@CComControlBase@ATL@@QEAAJPEBUtagRECT@@0@Z 000000018001c420 f i POSPrinter.obj
 0001:0001b600       ?IOleInPlaceObject_UIDeactivate@CComControlBase@ATL@@QEAAJXZ 000000018001c600 f i POSPrinter.obj
 0001:0001b870       ?IOleObject_Advise@CComControlBase@ATL@@QEAAJPEAUIAdviseSink@@PEAK@Z 000000018001c870 f i POSPrinter.obj
 0001:0001b920       ?IOleObject_Close@CComControlBase@ATL@@QEAAJK@Z 000000018001c920 f i POSPrinter.obj
 0001:0001bc90       ?IOleObject_GetClientSite@CComControlBase@ATL@@QEAAJPEAPEAUIOleClientSite@@@Z 000000018001cc90 f i POSPrinter.obj
 0001:0001bd60       ?IOleObject_SetClientSite@CComControlBase@ATL@@QEAAJPEAUIOleClientSite@@@Z 000000018001cd60 f i POSPrinter.obj
 0001:0001be70       ?IOleObject_SetExtent@CComControlBase@ATL@@QEAAJKPEAUtagSIZE@@@Z 000000018001ce70 f i POSPrinter.obj
 0001:0001bfe0       ?IPSI_GetIPersistStreamInit@?$IPersistStorageImpl@VCOPOSPOSPrinter@@@ATL@@AEAAPEAUIPersistStreamInit@@XZ 000000018001cfe0 f i POSPrinter.obj
 0001:0001c0a0       ?IPersistStreamInit_Load@?$IPersistStreamInitImpl@VCOPOSPOSPrinter@@@ATL@@QEAAJPEAUIStream@@PEBUATL_PROPMAP_ENTRY@2@@Z 000000018001d0a0 f i POSPrinter.obj
 0001:0001c140       ?IPersistStreamInit_Save@?$IPersistStreamInitImpl@VCOPOSPOSPrinter@@@ATL@@QEAAJPEAUIStream@@HPEBUATL_PROPMAP_ENTRY@2@@Z 000000018001d140 f i POSPrinter.obj
 0001:0001c200       ?IQuickActivate_QuickActivate@CComControlBase@ATL@@QEAAJPEAUtagQACONTAINER@@PEAUtagQACONTROL@@@Z 000000018001d200 f i POSPrinter.obj
 0001:0001ca40       ?IViewObject_Draw@CComControlBase@ATL@@QEAAJKJPEAXPEAUtagDVTARGETDEVICE@@PEAUHDC__@@2PEBU_RECTL@@3@Z 000000018001da40 f i POSPrinter.obj
 0001:0001ce90       ?InPlaceActivate@CComControlBase@ATL@@QEAAJJPEBUtagRECT@@@Z 000000018001de90 f i POSPrinter.obj
 0001:0001da30       ?InPlaceDeactivate@?$IOleInPlaceObjectWindowlessImpl@VCOPOSPOSPrinter@@@ATL@@UEAAJXZ 000000018001ea30 f i POSPrinter.obj
 0001:0001dae0       ?Increment@CComMultiThreadModel@ATL@@SAKPEAJ@Z 000000018001eae0 f i POSPrinter.obj
 0001:0001db00       ?Increment@CComSingleThreadModel@ATL@@SAKPEAJ@Z 000000018001eb00 f i POSPrinter.obj
 0001:0001db20       ?Init@?$CComEnumImpl@UIEnumConnectionPoints@@$1?_GUID_b196b285_bab4_101a_b69c_00aa00341d07@@3U__s_GUID@@BPEAUIConnectionPoint@@V?$_CopyInterface@UIConnectionPoint@@@ATL@@@ATL@@QEAAJPEAPEAUIConnectionPoint@@0PEAUIUnknown@@W4CComEnumFlags@2@@Z 000000018001eb20 f i POSPrinter.obj
 0001:0001de10       ?Init@?$CComEnumImpl@UIEnumConnections@@$1?_GUID_b196b287_bab4_101a_b69c_00aa00341d07@@3U__s_GUID@@BUtagCONNECTDATA@@V?$_Copy@UtagCONNECTDATA@@@ATL@@@ATL@@QEAAJPEAUtagCONNECTDATA@@0PEAUIUnknown@@W4CComEnumFlags@2@@Z 000000018001ee10 f i POSPrinter.obj
 0001:0001e100       ?Init@CComFakeCriticalSection@ATL@@QEAAJXZ 000000018001f100 f i POSPrinter.obj
 0001:0001e110       ?Init@CComModule@ATL@@QEAAJPEAU_ATL_OBJMAP_ENTRY30@2@PEAUHINSTANCE__@@PEBU_GUID@@@Z 000000018001f110 f i POSPrinter.obj
 0001:0001e200       ?Init@CComSafeDeleteCriticalSection@ATL@@QEAAJXZ 000000018001f200 f i POSPrinter.obj
 0001:0001e290       ?Init@CDynamicStdCallThunk2@ATL@@QEAAH_KPEAX@Z 000000018001f290 f i POSPrinter.obj
 0001:0001e310       ?Init@CWndProcThunk@ATL@@QEAAHP6A_JPEAUHWND__@@I_K_J@ZPEAX@Z 000000018001f310 f i POSPrinter.obj
 0001:0001e360       ?InitFromData@?$IOleObjectImpl@VCOPOSPOSPrinter@@@ATL@@UEAAJPEAUIDataObject@@HK@Z 000000018001f360 f i POSPrinter.obj
 0001:0001e3f0       ?InitLibId@?$CAtlModuleT@VCComModule@ATL@@@ATL@@SAXXZ 000000018001f3f0 f i POSPrinter.obj
 0001:0001e400       ?InitNew@?$IPersistStorageImpl@VCOPOSPOSPrinter@@@ATL@@UEAAJPEAUIStorage@@@Z 000000018001f400 f i POSPrinter.obj
 0001:0001e4f0       ?InitNew@?$IPersistStreamInitImpl@VCOPOSPOSPrinter@@@ATL@@UEAAJXZ 000000018001f4f0 f i POSPrinter.obj
 0001:0001e5a0       ?InlineIsEqualUnknown@ATL@@YAHAEBU_GUID@@@Z 000000018001f5a0 f i POSPrinter.obj
 0001:0001e630       ?InternalAddRef@?$CComObjectRootEx@VCComMultiThreadModel@ATL@@@ATL@@QEAAKXZ 000000018001f630 f i POSPrinter.obj
 0001:0001e6b0       ?InternalAddRef@?$CComObjectRootEx@VCComSingleThreadModel@ATL@@@ATL@@QEAAKXZ 000000018001f6b0 f i POSPrinter.obj
 0001:0001e730       ?InternalFinalConstructAddRef@CComObjectRootBase@ATL@@QEAAXXZ 000000018001f730 f i POSPrinter.obj
 0001:0001e740       ?InternalFinalConstructAddRef@COPOSPOSPrinter@@QEAAXXZ 000000018001f740 f i POSPrinter.obj
 0001:0001e780       ?InternalFinalConstructRelease@CComObjectRootBase@ATL@@QEAAXXZ 000000018001f780 f i POSPrinter.obj
 0001:0001e7f0       ?InternalFinalConstructRelease@COPOSPOSPrinter@@QEAAXXZ 000000018001f7f0 f i POSPrinter.obj
 0001:0001e830       ?InternalGetSite@CComControlBase@ATL@@QEAAJAEBU_GUID@@PEAPEAX@Z 000000018001f830 f i POSPrinter.obj
 0001:0001e910       ?InternalQueryInterface@CComObjectRootBase@ATL@@SAJPEAXPEBU_ATL_INTMAP_ENTRY@2@AEBU_GUID@@PEAPEAX@Z 000000018001f910 f i POSPrinter.obj
 0001:0001ea30       ?InternalRelease@?$CComObjectRootEx@VCComMultiThreadModel@ATL@@@ATL@@QEAAKXZ 000000018001fa30 f i POSPrinter.obj
 0001:0001eab0       ?InternalRelease@?$CComObjectRootEx@VCComSingleThreadModel@ATL@@@ATL@@QEAAKXZ 000000018001fab0 f i POSPrinter.obj
 0001:0001eb30       ?InternalSetAtIndex@?$CSimpleArray@GV?$CSimpleArrayEqualHelper@G@ATL@@@ATL@@QEAAXHAEBG@Z 000000018001fb30 f i POSPrinter.obj
 0001:0001ebb0       ?InternalSetAtIndex@?$CSimpleMap@PEA_WPEA_WVCExpansionVectorEqualHelper@ATL@@@ATL@@QEAAXHAEBQEA_W0@Z 000000018001fbb0 f i POSPrinter.obj
 0001:0001ec80       ?Invoke@?$IDispatchImpl@UIOPOSPOSPrinter@@$1?IID_IOPOSPOSPrinter@@3U_GUID@@B$1?LIBID_OposPOSPrinter_CCO@@3U3@B$00$0A@VCComTypeInfoHolder@ATL@@@ATL@@UEAAJJAEBU_GUID@@KGPEAUtagDISPPARAMS@@PEAUtagVARIANT@@PEAUtagEXCEPINFO@@PEAI@Z 000000018001fc80 f i POSPrinter.obj
 0001:0001ed20       ?Invoke@CComTypeInfoHolder@ATL@@QEAAJPEAUIDispatch@@JAEBU_GUID@@KGPEAUtagDISPPARAMS@@PEAUtagVARIANT@@PEAUtagEXCEPINFO@@PEAI@Z 000000018001fd20 f i POSPrinter.obj
 0001:0001ede0       ?IsDirty@?$IPersistStorageImpl@VCOPOSPOSPrinter@@@ATL@@UEAAJXZ 000000018001fde0 f i POSPrinter.obj
 0001:0001eed0       ?IsDirty@?$IPersistStreamInitImpl@VCOPOSPOSPrinter@@@ATL@@UEAAJXZ 000000018001fed0 f i POSPrinter.obj
 0001:0001ef90       ?IsEqualKey@CExpansionVectorEqualHelper@ATL@@SA_NQEA_W0@Z 000000018001ff90 f i POSPrinter.obj
 0001:0001efe0       ?IsEqualObject@?$CComPtrBase@UIOleClientSite@@@ATL@@QEAA_NPEAUIUnknown@@@Z 000000018001ffe0 f i POSPrinter.obj
 0001:0001f130       ?IsEqualObject@?$CComPtrBase@UITypeInfo@@@ATL@@QEAA_NPEAUIUnknown@@@Z 0000000180020130 f i POSPrinter.obj
 0001:0001f280       ?IsSpace@CRegParser@ATL@@IEAAH_W@Z 0000000180020280 f i POSPrinter.obj
 0001:0001f2e0       ?IsUpToDate@?$IOleObjectImpl@VCOPOSPOSPrinter@@@ATL@@UEAAJXZ 00000001800202e0 f i POSPrinter.obj
 0001:0001f350       ?Length@CComBSTR@ATL@@QEBAIXZ 0000000180020350 f i POSPrinter.obj
 0001:0001f390       ?Load@?$IPersistStorageImpl@VCOPOSPOSPrinter@@@ATL@@UEAAJPEAUIStorage@@@Z 0000000180020390 f i POSPrinter.obj
 0001:0001f540       ?Load@?$IPersistStreamInitImpl@VCOPOSPOSPrinter@@@ATL@@UEAAJPEAUIStream@@@Z 0000000180020540 f i POSPrinter.obj
 0001:0001f600       ?LoadCursorW@AtlModuleRegisterWndClassInfoParamW@ATL@@SAPEAUHICON__@@PEAUHINSTANCE__@@PEB_W@Z 0000000180020600 f i POSPrinter.obj
 0001:0001f640       ?LoadNameCache@CComTypeInfoHolder@ATL@@QEAAJPEAUITypeInfo@@@Z 0000000180020640 f i POSPrinter.obj
 0001:0001f980       ?Lock@?$CComCritSecLock@VCComCriticalSection@ATL@@@ATL@@QEAAJXZ 0000000180020980 f i POSPrinter.obj
 0001:0001fa70       ?Lock@?$CComObjectRootEx@VCComSingleThreadModel@ATL@@@ATL@@QEAAXXZ 0000000180020a70 f i POSPrinter.obj
 0001:0001fa80       ?Lock@CAtlModule@ATL@@UEAAJXZ 0000000180020a80 f i POSPrinter.obj
 0001:0001fac0       ?Lock@CComCriticalSection@ATL@@QEAAJXZ 0000000180020ac0 f i POSPrinter.obj
 0001:0001fb00       ?Lock@CComFakeCriticalSection@ATL@@QEAAJXZ 0000000180020b00 f i POSPrinter.obj
 0001:0001fb10       ?LockServer@CComClassFactory@ATL@@UEAAJH@Z 0000000180020b10 f i POSPrinter.obj
 0001:0001fb70       ?Lookup@?$CSimpleMap@PEA_WPEA_WVCExpansionVectorEqualHelper@ATL@@@ATL@@QEBAPEA_WAEBQEA_W@Z 0000000180020b70 f i POSPrinter.obj
 0001:0001fbd0       ?Next@?$CComEnumImpl@UIEnumConnectionPoints@@$1?_GUID_b196b285_bab4_101a_b69c_00aa00341d07@@3U__s_GUID@@BPEAUIConnectionPoint@@V?$_CopyInterface@UIConnectionPoint@@@ATL@@@ATL@@UEAAJKPEAPEAUIConnectionPoint@@PEAK@Z 0000000180020bd0 f i POSPrinter.obj
 0001:0001fd90       ?Next@?$CComEnumImpl@UIEnumConnections@@$1?_GUID_b196b287_bab4_101a_b69c_00aa00341d07@@3U__s_GUID@@BUtagCONNECTDATA@@V?$_Copy@UtagCONNECTDATA@@@ATL@@@ATL@@UEAAJKPEAUtagCONNECTDATA@@PEAK@Z 0000000180020d90 f i POSPrinter.obj
 0001:0001ff50       ?NextToken@CRegParser@ATL@@IEAAJPEA_W@Z 0000000180020f50 f i POSPrinter.obj
 0001:000202e0       ?OLE2CT_EX@@YAPEB_WPEB_WI@Z 00000001800212e0 f i POSPrinter.obj
 0001:00020300       ?OLE2CT_EX_DEF@@YAPEB_WPEB_W@Z 0000000180021300 f i POSPrinter.obj
 0001:00020310       ?OLE2T_EX@@YAPEA_WPEA_WI@Z 0000000180021310 f i POSPrinter.obj
 0001:00020330       ?OnAmbientPropertyChange@?$IOleControlImpl@VCOPOSPOSPrinter@@@ATL@@UEAAJJ@Z 0000000180021330 f i POSPrinter.obj
 0001:000203f0       ?OnDocWindowActivate@?$IOleInPlaceActiveObjectImpl@VCOPOSPOSPrinter@@@ATL@@UEAAJH@Z 00000001800213f0 f i POSPrinter.obj
 0001:000204b0       ?OnDrawAdvanced@CComControlBase@ATL@@UEAAJAEAUATL_DRAWINFO@@@Z 00000001800214b0 f i POSPrinter.obj
 0001:00020700       ?OnFinalMessage@?$CWindowImplBaseT@VCWindow@ATL@@V?$CWinTraits@$0FGAAAAAA@$0A@@2@@ATL@@UEAAXPEAUHWND__@@@Z 0000000180021700 f i POSPrinter.obj
 0001:00020710       ?OnFrameWindowActivate@?$IOleInPlaceActiveObjectImpl@VCOPOSPOSPrinter@@@ATL@@UEAAJH@Z 0000000180021710 f i POSPrinter.obj
 0001:00020780       ?OnKillFocus@CComControlBase@ATL@@QEAA_JI_K_JAEAH@Z 0000000180021780 f i POSPrinter.obj
 0001:00020870       ?OnMnemonic@?$IOleControlImpl@VCOPOSPOSPrinter@@@ATL@@UEAAJPEAUtagMSG@@@Z 0000000180021870 f i POSPrinter.obj
 0001:00020900       ?OnMouseActivate@CComControlBase@ATL@@QEAA_JI_K_JAEAH@Z 0000000180021900 f i POSPrinter.obj
 0001:00020aa0       ?OnPaint@CComControlBase@ATL@@QEAA_JI_K_JAEAH@Z 0000000180021aa0 f i POSPrinter.obj
 0001:00020c30       ?OnPostVerbDiscardUndo@?$IOleObjectImpl@VCOPOSPOSPrinter@@@ATL@@QEAAJXZ 0000000180021c30 f i POSPrinter.obj
 0001:00020c40       ?OnPostVerbHide@?$IOleObjectImpl@VCOPOSPOSPrinter@@@ATL@@QEAAJXZ 0000000180021c40 f i POSPrinter.obj
 0001:00020c50       ?OnPostVerbInPlaceActivate@?$IOleObjectImpl@VCOPOSPOSPrinter@@@ATL@@QEAAJXZ 0000000180021c50 f i POSPrinter.obj
 0001:00020c60       ?OnPostVerbOpen@?$IOleObjectImpl@VCOPOSPOSPrinter@@@ATL@@QEAAJXZ 0000000180021c60 f i POSPrinter.obj
 0001:00020c70       ?OnPostVerbShow@?$IOleObjectImpl@VCOPOSPOSPrinter@@@ATL@@QEAAJXZ 0000000180021c70 f i POSPrinter.obj
 0001:00020c80       ?OnPostVerbUIActivate@?$IOleObjectImpl@VCOPOSPOSPrinter@@@ATL@@QEAAJXZ 0000000180021c80 f i POSPrinter.obj
 0001:00020c90       ?OnPreVerbDiscardUndo@?$IOleObjectImpl@VCOPOSPOSPrinter@@@ATL@@QEAAJXZ 0000000180021c90 f i POSPrinter.obj
 0001:00020ca0       ?OnPreVerbHide@?$IOleObjectImpl@VCOPOSPOSPrinter@@@ATL@@QEAAJXZ 0000000180021ca0 f i POSPrinter.obj
 0001:00020cb0       ?OnPreVerbInPlaceActivate@?$IOleObjectImpl@VCOPOSPOSPrinter@@@ATL@@QEAAJXZ 0000000180021cb0 f i POSPrinter.obj
 0001:00020cc0       ?OnPreVerbOpen@?$IOleObjectImpl@VCOPOSPOSPrinter@@@ATL@@QEAAJXZ 0000000180021cc0 f i POSPrinter.obj
 0001:00020cd0       ?OnPreVerbShow@?$IOleObjectImpl@VCOPOSPOSPrinter@@@ATL@@QEAAJXZ 0000000180021cd0 f i POSPrinter.obj
 0001:00020ce0       ?OnPreVerbUIActivate@?$IOleObjectImpl@VCOPOSPOSPrinter@@@ATL@@QEAAJXZ 0000000180021ce0 f i POSPrinter.obj
 0001:00020cf0       ?OnSetFocus@CComControlBase@ATL@@QEAA_JI_K_JAEAH@Z 0000000180021cf0 f i POSPrinter.obj
 0001:00020ef0       ?OnWindowMessage@?$IOleInPlaceObjectWindowlessImpl@VCOPOSPOSPrinter@@@ATL@@UEAAJI_K_JPEA_J@Z 0000000180021ef0 f i POSPrinter.obj
 0001:00021110       ?Open@CRegKey@ATL@@QEAAJPEAUHKEY__@@PEB_WK@Z 0000000180022110 f i POSPrinter.obj
 0001:00021290       ?OuterAddRef@CComObjectRootBase@ATL@@QEAAKXZ 0000000180022290 f i POSPrinter.obj
 0001:000212d0       ?OuterQueryInterface@CComObjectRootBase@ATL@@QEAAJAEBU_GUID@@PEAPEAX@Z 00000001800222d0 f i POSPrinter.obj
 0001:00021320       ?OuterRelease@CComObjectRootBase@ATL@@QEAAKXZ 0000000180022320 f i POSPrinter.obj
 0001:00021360       ?PreProcessBuffer@CRegParser@ATL@@QEAAJPEA_WPEAPEA_W@Z 0000000180022360 f i POSPrinter.obj
 0001:00021a40       ?PreTranslateAccelerator@CComControlBase@ATL@@QEAAHPEAUtagMSG@@AEAJ@Z 0000000180022a40 f i POSPrinter.obj
 0001:00021a60       ?ProcessWindowMessage@?$CComControl@VCOPOSPOSPrinter@@V?$CWindowImpl@VCOPOSPOSPrinter@@VCWindow@ATL@@V?$CWinTraits@$0FGAAAAAA@$0A@@3@@ATL@@@ATL@@UEAAHPEAUHWND__@@I_K_JAEA_JK@Z 0000000180022a60 f i POSPrinter.obj
 0001:00021ce0       ?ProcessWindowMessage@COPOSPOSPrinter@@UEAAHPEAUHWND__@@I_K_JAEA_JK@Z 0000000180022ce0 f i POSPrinter.obj
 0001:00021e60       ?PutProperty@?$CComPtr@UIDispatch@@@ATL@@QEAAJJPEAUtagVARIANT@@@Z 0000000180022e60 f i POSPrinter.obj
 0001:00021eb0       ?PutProperty@?$CComPtr@UIDispatch@@@ATL@@SAJPEAUIDispatch@@JPEAUtagVARIANT@@@Z 0000000180022eb0 f i POSPrinter.obj
 0001:00022150       ?QueryGetData@?$IDataObjectImpl@VCOPOSPOSPrinter@@@ATL@@UEAAJPEAUtagFORMATETC@@@Z 0000000180023150 f i POSPrinter.obj
 0001:000221e0       ?QueryHitPoint@?$IViewObjectExImpl@VCOPOSPOSPrinter@@@ATL@@UEAAJKPEBUtagRECT@@UtagPOINT@@JPEAK@Z 00000001800231e0 f i POSPrinter.obj
 0001:00022350       ?QueryHitRect@?$IViewObjectExImpl@VCOPOSPOSPrinter@@@ATL@@UEAAJKPEBUtagRECT@@0JPEAK@Z 0000000180023350 f i POSPrinter.obj
 0001:00022520       ?QueryInterface@?$CComAggObject@VCOPOSPOSPrinter@@@ATL@@UEAAJAEBU_GUID@@PEAPEAX@Z 0000000180023520 f i POSPrinter.obj
 0001:00022610       ?QueryInterface@?$CComContainedObject@VCOPOSPOSPrinter@@@ATL@@UEAAJAEBU_GUID@@PEAPEAX@Z 0000000180023610 f i POSPrinter.obj
 0001:0002265c       ?QueryInterface@?$CComContainedObject@VCOPOSPOSPrinter@@@ATL@@WBAA@EAAJAEBU_GUID@@PEAPEAX@Z 000000018002365c f i POSPrinter.obj
 0001:00022668       ?QueryInterface@?$CComContainedObject@VCOPOSPOSPrinter@@@ATL@@WBAI@EAAJAEBU_GUID@@PEAPEAX@Z 0000000180023668 f i POSPrinter.obj
 0001:00022674       ?QueryInterface@?$CComContainedObject@VCOPOSPOSPrinter@@@ATL@@WBBA@EAAJAEBU_GUID@@PEAPEAX@Z 0000000180023674 f i POSPrinter.obj
 0001:00022680       ?QueryInterface@?$CComContainedObject@VCOPOSPOSPrinter@@@ATL@@WBBI@EAAJAEBU_GUID@@PEAPEAX@Z 0000000180023680 f i POSPrinter.obj
 0001:0002268c       ?QueryInterface@?$CComContainedObject@VCOPOSPOSPrinter@@@ATL@@WLI@EAAJAEBU_GUID@@PEAPEAX@Z 000000018002368c f i POSPrinter.obj
 0001:00022698       ?QueryInterface@?$CComContainedObject@VCOPOSPOSPrinter@@@ATL@@WMA@EAAJAEBU_GUID@@PEAPEAX@Z 0000000180023698 f i POSPrinter.obj
 0001:000226a4       ?QueryInterface@?$CComContainedObject@VCOPOSPOSPrinter@@@ATL@@WMI@EAAJAEBU_GUID@@PEAPEAX@Z 00000001800236a4 f i POSPrinter.obj
 0001:000226b0       ?QueryInterface@?$CComContainedObject@VCOPOSPOSPrinter@@@ATL@@WNA@EAAJAEBU_GUID@@PEAPEAX@Z 00000001800236b0 f i POSPrinter.obj
 0001:000226bc       ?QueryInterface@?$CComContainedObject@VCOPOSPOSPrinter@@@ATL@@WNI@EAAJAEBU_GUID@@PEAPEAX@Z 00000001800236bc f i POSPrinter.obj
 0001:000226c8       ?QueryInterface@?$CComContainedObject@VCOPOSPOSPrinter@@@ATL@@WOA@EAAJAEBU_GUID@@PEAPEAX@Z 00000001800236c8 f i POSPrinter.obj
 0001:000226d4       ?QueryInterface@?$CComContainedObject@VCOPOSPOSPrinter@@@ATL@@WOI@EAAJAEBU_GUID@@PEAPEAX@Z 00000001800236d4 f i POSPrinter.obj
 0001:000226e0       ?QueryInterface@?$CComContainedObject@VCOPOSPOSPrinter@@@ATL@@WPA@EAAJAEBU_GUID@@PEAPEAX@Z 00000001800236e0 f i POSPrinter.obj
 0001:000226ec       ?QueryInterface@?$CComContainedObject@VCOPOSPOSPrinter@@@ATL@@WPI@EAAJAEBU_GUID@@PEAPEAX@Z 00000001800236ec f i POSPrinter.obj
 0001:00022700       ?QueryInterface@?$CComObject@V?$CComEnum@UIEnumConnectionPoints@@$1?_GUID_b196b285_bab4_101a_b69c_00aa00341d07@@3U__s_GUID@@BPEAUIConnectionPoint@@V?$_CopyInterface@UIConnectionPoint@@@ATL@@VCComSingleThreadModel@6@@ATL@@@ATL@@UEAAJAEBU_GUID@@PEAPEAX@Z 0000000180023700 f i POSPrinter.obj
 0001:00022750       ?QueryInterface@?$CComObject@V?$CComEnum@UIEnumConnections@@$1?_GUID_b196b287_bab4_101a_b69c_00aa00341d07@@3U__s_GUID@@BUtagCONNECTDATA@@V?$_Copy@UtagCONNECTDATA@@@ATL@@VCComSingleThreadModel@6@@ATL@@@ATL@@UEAAJAEBU_GUID@@PEAPEAX@Z 0000000180023750 f i POSPrinter.obj
 0001:000227a0       ?QueryInterface@?$CComObject@VCOPOSPOSPrinter@@@ATL@@UEAAJAEBU_GUID@@PEAPEAX@Z 00000001800237a0 f i POSPrinter.obj
 0001:000227e4       ?QueryInterface@?$CComObject@VCOPOSPOSPrinter@@@ATL@@WBAA@EAAJAEBU_GUID@@PEAPEAX@Z 00000001800237e4 f i POSPrinter.obj
 0001:000227f0       ?QueryInterface@?$CComObject@VCOPOSPOSPrinter@@@ATL@@WBAI@EAAJAEBU_GUID@@PEAPEAX@Z 00000001800237f0 f i POSPrinter.obj
 0001:000227fc       ?QueryInterface@?$CComObject@VCOPOSPOSPrinter@@@ATL@@WBBA@EAAJAEBU_GUID@@PEAPEAX@Z 00000001800237fc f i POSPrinter.obj
 0001:00022808       ?QueryInterface@?$CComObject@VCOPOSPOSPrinter@@@ATL@@WBBI@EAAJAEBU_GUID@@PEAPEAX@Z 0000000180023808 f i POSPrinter.obj
 0001:00022814       ?QueryInterface@?$CComObject@VCOPOSPOSPrinter@@@ATL@@WLI@EAAJAEBU_GUID@@PEAPEAX@Z 0000000180023814 f i POSPrinter.obj
 0001:00022820       ?QueryInterface@?$CComObject@VCOPOSPOSPrinter@@@ATL@@WMA@EAAJAEBU_GUID@@PEAPEAX@Z 0000000180023820 f i POSPrinter.obj
 0001:0002282c       ?QueryInterface@?$CComObject@VCOPOSPOSPrinter@@@ATL@@WMI@EAAJAEBU_GUID@@PEAPEAX@Z 000000018002382c f i POSPrinter.obj
 0001:00022838       ?QueryInterface@?$CComObject@VCOPOSPOSPrinter@@@ATL@@WNA@EAAJAEBU_GUID@@PEAPEAX@Z 0000000180023838 f i POSPrinter.obj
 0001:00022844       ?QueryInterface@?$CComObject@VCOPOSPOSPrinter@@@ATL@@WNI@EAAJAEBU_GUID@@PEAPEAX@Z 0000000180023844 f i POSPrinter.obj
 0001:00022850       ?QueryInterface@?$CComObject@VCOPOSPOSPrinter@@@ATL@@WOA@EAAJAEBU_GUID@@PEAPEAX@Z 0000000180023850 f i POSPrinter.obj
 0001:0002285c       ?QueryInterface@?$CComObject@VCOPOSPOSPrinter@@@ATL@@WOI@EAAJAEBU_GUID@@PEAPEAX@Z 000000018002385c f i POSPrinter.obj
 0001:00022868       ?QueryInterface@?$CComObject@VCOPOSPOSPrinter@@@ATL@@WPA@EAAJAEBU_GUID@@PEAPEAX@Z 0000000180023868 f i POSPrinter.obj
 0001:00022874       ?QueryInterface@?$CComObject@VCOPOSPOSPrinter@@@ATL@@WPI@EAAJAEBU_GUID@@PEAPEAX@Z 0000000180023874 f i POSPrinter.obj
 0001:00022880       ?QueryInterface@?$CComObjectCached@VCComClassFactory@ATL@@@ATL@@UEAAJAEBU_GUID@@PEAPEAX@Z 0000000180023880 f i POSPrinter.obj
 0001:000228d0       ?QueryInterface@CRegObject@ATL@@UEAAJAEBU_GUID@@PEAPEAX@Z 00000001800238d0 f i POSPrinter.obj
 0001:00022950       ?QuickActivate@?$IQuickActivateImpl@VCOPOSPOSPrinter@@@ATL@@UEAAJPEAUtagQACONTAINER@@PEAUtagQACONTROL@@@Z 0000000180023950 f i POSPrinter.obj
 0001:00022a10       ?ReactivateAndUndo@?$IOleInPlaceObjectWindowlessImpl@VCOPOSPOSPrinter@@@ATL@@UEAAJXZ 0000000180023a10 f i POSPrinter.obj
 0001:00022a90       ?ReadFromStream@CComBSTR@ATL@@QEAAJPEAUIStream@@@Z 0000000180023a90 f i POSPrinter.obj
 0001:00022f70       ?ReadFromStream@CComVariant@ATL@@QEAAJPEAUIStream@@GTClassesAllowedInStream@2@K@Z 0000000180023f70 f i POSPrinter.obj
 0001:000233a0       ?RecurseDeleteKey@CRegKey@ATL@@QEAAJPEB_W@Z 00000001800243a0 f i POSPrinter.obj
 0001:000235c0       ?RegCreateKeyExW@CAtlTransactionManager@ATL@@QEAAJPEAUHKEY__@@PEB_WKPEA_WKKQEAU_SECURITY_ATTRIBUTES@@PEAPEAU3@PEAK@Z 00000001800245c0 f i POSPrinter.obj
 0001:00023790       ?RegDeleteKeyW@CAtlTransactionManager@ATL@@QEAAJPEAUHKEY__@@PEB_W@Z 0000000180024790 f i POSPrinter.obj
 0001:000238a0       ?RegOpenKeyExW@CAtlTransactionManager@ATL@@QEAAJPEAUHKEY__@@PEB_WKKPEAPEAU3@@Z 00000001800248a0 f i POSPrinter.obj
 0001:000239f0       ?Register@_ATL_WNDCLASSINFOW@ATL@@QEAAGPEAP6A_JPEAUHWND__@@I_K_J@Z@Z 00000001800249f0 f i POSPrinter.obj
 0001:00023a40       ?RegisterBuffer@CRegParser@ATL@@QEAAJPEA_WH@Z 0000000180024a40 f i POSPrinter.obj
 0001:00023e30       ?RegisterClassExW@AtlModuleRegisterWndClassInfoParamW@ATL@@SAGPEAU_ATL_WIN_MODULE70@2@PEBUtagWNDCLASSEXW@@@Z 0000000180024e30 f i POSPrinter.obj
 0001:00023e70       ?RegisterFromResource@CRegObject@ATL@@IEAAJPEB_W00H@Z 0000000180024e70 f i POSPrinter.obj
 0001:000242d0       ?RegisterServer@?$CAtlModuleT@VCComModule@ATL@@@ATL@@QEAAJHPEBU_GUID@@@Z 00000001800252d0 f i POSPrinter.obj
 0001:00024350       ?RegisterServer@CAtlComModule@ATL@@QEAAJHPEBU_GUID@@@Z 0000000180025350 f i POSPrinter.obj
 0001:00024390       ?RegisterServer@CComModule@ATL@@QEAAJHPEBU_GUID@@@Z 0000000180025390 f i POSPrinter.obj
 0001:00024490       ?RegisterSubkeys@CRegParser@ATL@@IEAAJPEA_WPEAUHKEY__@@HH@Z 0000000180025490 f i POSPrinter.obj
 0001:00025270       ?Release@?$CComAggObject@VCOPOSPOSPrinter@@@ATL@@UEAAKXZ 0000000180026270 f i POSPrinter.obj
 0001:00025320       ?Release@?$CComContainedObject@VCOPOSPOSPrinter@@@ATL@@UEAAKXZ 0000000180026320 f i POSPrinter.obj
 0001:00025358       ?Release@?$CComContainedObject@VCOPOSPOSPrinter@@@ATL@@WBAA@EAAKXZ 0000000180026358 f i POSPrinter.obj
 0001:00025364       ?Release@?$CComContainedObject@VCOPOSPOSPrinter@@@ATL@@WBAI@EAAKXZ 0000000180026364 f i POSPrinter.obj
 0001:00025370       ?Release@?$CComContainedObject@VCOPOSPOSPrinter@@@ATL@@WBBA@EAAKXZ 0000000180026370 f i POSPrinter.obj
 0001:0002537c       ?Release@?$CComContainedObject@VCOPOSPOSPrinter@@@ATL@@WBBI@EAAKXZ 000000018002637c f i POSPrinter.obj
 0001:00025388       ?Release@?$CComContainedObject@VCOPOSPOSPrinter@@@ATL@@WBCI@EAAKXZ 0000000180026388 f i POSPrinter.obj
 0001:00025394       ?Release@?$CComContainedObject@VCOPOSPOSPrinter@@@ATL@@WBEA@EAAKXZ 0000000180026394 f i POSPrinter.obj
 0001:000253a0       ?Release@?$CComContainedObject@VCOPOSPOSPrinter@@@ATL@@WLI@EAAKXZ 00000001800263a0 f i POSPrinter.obj
 0001:000253ac       ?Release@?$CComContainedObject@VCOPOSPOSPrinter@@@ATL@@WMA@EAAKXZ 00000001800263ac f i POSPrinter.obj
 0001:000253b8       ?Release@?$CComContainedObject@VCOPOSPOSPrinter@@@ATL@@WMI@EAAKXZ 00000001800263b8 f i POSPrinter.obj
 0001:000253c4       ?Release@?$CComContainedObject@VCOPOSPOSPrinter@@@ATL@@WNA@EAAKXZ 00000001800263c4 f i POSPrinter.obj
 0001:000253d0       ?Release@?$CComContainedObject@VCOPOSPOSPrinter@@@ATL@@WNI@EAAKXZ 00000001800263d0 f i POSPrinter.obj
 0001:000253dc       ?Release@?$CComContainedObject@VCOPOSPOSPrinter@@@ATL@@WOA@EAAKXZ 00000001800263dc f i POSPrinter.obj
 0001:000253e8       ?Release@?$CComContainedObject@VCOPOSPOSPrinter@@@ATL@@WOI@EAAKXZ 00000001800263e8 f i POSPrinter.obj
 0001:000253f4       ?Release@?$CComContainedObject@VCOPOSPOSPrinter@@@ATL@@WPA@EAAKXZ 00000001800263f4 f i POSPrinter.obj
 0001:00025400       ?Release@?$CComContainedObject@VCOPOSPOSPrinter@@@ATL@@WPI@EAAKXZ 0000000180026400 f i POSPrinter.obj
 0001:00025410       ?Release@?$CComObject@V?$CComEnum@UIEnumConnectionPoints@@$1?_GUID_b196b285_bab4_101a_b69c_00aa00341d07@@3U__s_GUID@@BPEAUIConnectionPoint@@V?$_CopyInterface@UIConnectionPoint@@@ATL@@VCComSingleThreadModel@6@@ATL@@@ATL@@UEAAKXZ 0000000180026410 f i POSPrinter.obj
 0001:000254c0       ?Release@?$CComObject@V?$CComEnum@UIEnumConnections@@$1?_GUID_b196b287_bab4_101a_b69c_00aa00341d07@@3U__s_GUID@@BUtagCONNECTDATA@@V?$_Copy@UtagCONNECTDATA@@@ATL@@VCComSingleThreadModel@6@@ATL@@@ATL@@UEAAKXZ 00000001800264c0 f i POSPrinter.obj
 0001:00025570       ?Release@?$CComObject@VCOPOSPOSPrinter@@@ATL@@UEAAKXZ 0000000180026570 f i POSPrinter.obj
 0001:00025628       ?Release@?$CComObject@VCOPOSPOSPrinter@@@ATL@@WBAA@EAAKXZ 0000000180026628 f i POSPrinter.obj
 0001:00025634       ?Release@?$CComObject@VCOPOSPOSPrinter@@@ATL@@WBAI@EAAKXZ 0000000180026634 f i POSPrinter.obj
 0001:00025640       ?Release@?$CComObject@VCOPOSPOSPrinter@@@ATL@@WBBA@EAAKXZ 0000000180026640 f i POSPrinter.obj
 0001:0002564c       ?Release@?$CComObject@VCOPOSPOSPrinter@@@ATL@@WBBI@EAAKXZ 000000018002664c f i POSPrinter.obj
 0001:00025658       ?Release@?$CComObject@VCOPOSPOSPrinter@@@ATL@@WBCI@EAAKXZ 0000000180026658 f i POSPrinter.obj
 0001:00025664       ?Release@?$CComObject@VCOPOSPOSPrinter@@@ATL@@WBEA@EAAKXZ 0000000180026664 f i POSPrinter.obj
 0001:00025670       ?Release@?$CComObject@VCOPOSPOSPrinter@@@ATL@@WLI@EAAKXZ 0000000180026670 f i POSPrinter.obj
 0001:0002567c       ?Release@?$CComObject@VCOPOSPOSPrinter@@@ATL@@WMA@EAAKXZ 000000018002667c f i POSPrinter.obj
 0001:00025688       ?Release@?$CComObject@VCOPOSPOSPrinter@@@ATL@@WMI@EAAKXZ 0000000180026688 f i POSPrinter.obj
 0001:00025694       ?Release@?$CComObject@VCOPOSPOSPrinter@@@ATL@@WNA@EAAKXZ 0000000180026694 f i POSPrinter.obj
 0001:000256a0       ?Release@?$CComObject@VCOPOSPOSPrinter@@@ATL@@WNI@EAAKXZ 00000001800266a0 f i POSPrinter.obj
 0001:000256ac       ?Release@?$CComObject@VCOPOSPOSPrinter@@@ATL@@WOA@EAAKXZ 00000001800266ac f i POSPrinter.obj
 0001:000256b8       ?Release@?$CComObject@VCOPOSPOSPrinter@@@ATL@@WOI@EAAKXZ 00000001800266b8 f i POSPrinter.obj
 0001:000256c4       ?Release@?$CComObject@VCOPOSPOSPrinter@@@ATL@@WPA@EAAKXZ 00000001800266c4 f i POSPrinter.obj
 0001:000256d0       ?Release@?$CComObject@VCOPOSPOSPrinter@@@ATL@@WPI@EAAKXZ 00000001800266d0 f i POSPrinter.obj
 0001:000256e0       ?Release@?$CComObjectCached@VCComClassFactory@ATL@@@ATL@@UEAAKXZ 00000001800266e0 f i POSPrinter.obj
 0001:00025780       ?Release@?$CComPtrBase@UIAdviseSink@@@ATL@@QEAAXXZ 0000000180026780 f i POSPrinter.obj
 0001:000257e0       ?Release@?$CComPtrBase@UIDispatch@@@ATL@@QEAAXXZ 00000001800267e0 f i POSPrinter.obj
 0001:00025840       ?Release@?$CComPtrBase@UIOleInPlaceSiteWindowless@@@ATL@@QEAAXXZ 0000000180026840 f i POSPrinter.obj
 0001:000258a0       ?Release@CRegObject@ATL@@UEAAKXZ 00000001800268a0 f i POSPrinter.obj
 0001:00025910       ?Remove@CComDynamicUnkArray@ATL@@QEAAHK@Z 0000000180026910 f i POSPrinter.obj
 0001:000259f0       ?RemoveAll@?$CSimpleMap@PEA_WPEA_WVCExpansionVectorEqualHelper@ATL@@@ATL@@QEAAXXZ 00000001800269f0 f i POSPrinter.obj
 0001:00025a90       ?Reset@?$CComEnumImpl@UIEnumConnectionPoints@@$1?_GUID_b196b285_bab4_101a_b69c_00aa00341d07@@3U__s_GUID@@BPEAUIConnectionPoint@@V?$_CopyInterface@UIConnectionPoint@@@ATL@@@ATL@@UEAAJXZ 0000000180026a90 f i POSPrinter.obj
 0001:00025ab0       ?Reset@?$CComEnumImpl@UIEnumConnections@@$1?_GUID_b196b287_bab4_101a_b69c_00aa00341d07@@3U__s_GUID@@BUtagCONNECTDATA@@V?$_Copy@UtagCONNECTDATA@@@ATL@@@ATL@@UEAAJXZ 0000000180026ab0 f i POSPrinter.obj
 0001:00025ad0       ?ResizeBorder@?$IOleInPlaceActiveObjectImpl@VCOPOSPOSPrinter@@@ATL@@UEAAJPEBUtagRECT@@PEAUIOleInPlaceUIWindow@@H@Z 0000000180026ad0 f i POSPrinter.obj
 0001:00025b50       ?ResourceRegister@CRegObject@ATL@@QEAAJPEB_WI0@Z 0000000180026b50 f i POSPrinter.obj
 0001:00025c30       ?ResourceRegisterSz@CRegObject@ATL@@QEAAJPEB_W00@Z 0000000180026c30 f i POSPrinter.obj
 0001:00025d50       ?ResourceUnregister@CRegObject@ATL@@QEAAJPEB_WI0@Z 0000000180026d50 f i POSPrinter.obj
 0001:00025e30       ?ResourceUnregisterSz@CRegObject@ATL@@QEAAJPEB_W00@Z 0000000180026e30 f i POSPrinter.obj
 0001:00025f50       ?SODataDummy@COPOSPOSPrinter@@MEAAJJ@Z 0000000180026f50 f i POSPrinter.obj
 0001:00025f70       ?SODirectIO@COPOSPOSPrinter@@MEAAJJPEAJPEAPEA_W@Z 0000000180026f70 f i POSPrinter.obj
 0001:000261b0       ?SOError@COPOSPOSPrinter@@MEAAJJJJPEAJ@Z 00000001800271b0 f i POSPrinter.obj
 0001:000262c0       ?SOOutputComplete@COPOSPOSPrinter@@MEAAJJ@Z 00000001800272c0 f i POSPrinter.obj
 0001:00026360       ?SOStatusUpdate@COPOSPOSPrinter@@MEAAJJ@Z 0000000180027360 f i POSPrinter.obj
 0001:00026400       ?Save@?$IPersistStorageImpl@VCOPOSPOSPrinter@@@ATL@@UEAAJPEAUIStorage@@H@Z 0000000180027400 f i POSPrinter.obj
 0001:000265c0       ?Save@?$IPersistStreamInitImpl@VCOPOSPOSPrinter@@@ATL@@UEAAJPEAUIStream@@H@Z 00000001800275c0 f i POSPrinter.obj
 0001:00026680       ?SaveCompleted@?$IPersistStorageImpl@VCOPOSPOSPrinter@@@ATL@@UEAAJPEAUIStorage@@@Z 0000000180027680 f i POSPrinter.obj
 0001:000266f0       ?SendOnDataChange@CComControlBase@ATL@@QEAAJK@Z 00000001800276f0 f i POSPrinter.obj
 0001:000267e0       ?SendOnSave@CComControlBase@ATL@@QEAAJXZ 00000001800277e0 f i POSPrinter.obj
 0001:00026850       ?SendOnViewChange@CComControlBase@ATL@@QEAAJKJ@Z 0000000180027850 f i POSPrinter.obj
 0001:000268d0       ?SetAdvise@?$IViewObjectExImpl@VCOPOSPOSPrinter@@@ATL@@UEAAJKKPEAUIAdviseSink@@@Z 00000001800278d0 f i POSPrinter.obj
 0001:00026990       ?SetClientSite@?$IOleObjectImpl@VCOPOSPOSPrinter@@@ATL@@UEAAJPEAUIOleClientSite@@@Z 0000000180027990 f i POSPrinter.obj
 0001:00026a40       ?SetColorScheme@?$IOleObjectImpl@VCOPOSPOSPrinter@@@ATL@@UEAAJPEAUtagLOGPALETTE@@@Z 0000000180027a40 f i POSPrinter.obj
 0001:00026ad0       ?SetContentExtent@?$IQuickActivateImpl@VCOPOSPOSPrinter@@@ATL@@UEAAJPEAUtagSIZE@@@Z 0000000180027ad0 f i POSPrinter.obj
 0001:00026b90       ?SetControlFocus@CComControlBase@ATL@@QEAAHH@Z 0000000180027b90 f i POSPrinter.obj
 0001:00026d20       ?SetDWORDValue@CRegKey@ATL@@QEAAJPEB_WK@Z 0000000180027d20 f i POSPrinter.obj
 0001:00026dd0       ?SetData@?$IDataObjectImpl@VCOPOSPOSPrinter@@@ATL@@UEAAJPEAUtagFORMATETC@@PEAUtagSTGMEDIUM@@H@Z 0000000180027dd0 f i POSPrinter.obj
 0001:00026e60       ?SetExtent@?$IOleObjectImpl@VCOPOSPOSPrinter@@@ATL@@UEAAJKPEAUtagSIZE@@@Z 0000000180027e60 f i POSPrinter.obj
 0001:00026f20       ?SetHostNames@?$IOleObjectImpl@VCOPOSPOSPrinter@@@ATL@@UEAAJPEB_W0@Z 0000000180027f20 f i POSPrinter.obj
 0001:00026fa0       ?SetInterfaceSafetyOptions@?$IObjectSafetyImpl@VCOPOSPOSPrinter@@$02@ATL@@UEAAJAEBU_GUID@@KK@Z 0000000180027fa0 f i POSPrinter.obj
 0001:00027140       ?SetMoniker@?$IOleObjectImpl@VCOPOSPOSPrinter@@@ATL@@UEAAJKPEAUIMoniker@@@Z 0000000180028140 f i POSPrinter.obj
 0001:000271d0       ?SetMultiStringValue@CRegKey@ATL@@QEAAJPEB_W0@Z 00000001800281d0 f i POSPrinter.obj
 0001:00027340       ?SetObjectRects@?$IOleInPlaceObjectWindowlessImpl@VCOPOSPOSPrinter@@@ATL@@UEAAJPEBUtagRECT@@0@Z 0000000180028340 f i POSPrinter.obj
 0001:00027400       ?SetStringValue@CRegKey@ATL@@QEAAJPEB_W0K@Z 0000000180028400 f i POSPrinter.obj
 0001:00027580       ?SetVoid@CComClassFactory@ATL@@QEAAXPEAX@Z 0000000180028580 f i POSPrinter.obj
 0001:000275a0       ?SetVoid@CComObjectRootBase@ATL@@QEAAXPEAX@Z 00000001800285a0 f i POSPrinter.obj
 0001:000275b0       ?ShowWindow@CWindow@ATL@@QEAAHH@Z 00000001800285b0 f i POSPrinter.obj
 0001:00027640       ?Skip@?$CComEnumImpl@UIEnumConnectionPoints@@$1?_GUID_b196b285_bab4_101a_b69c_00aa00341d07@@3U__s_GUID@@BPEAUIConnectionPoint@@V?$_CopyInterface@UIConnectionPoint@@@ATL@@@ATL@@UEAAJK@Z 0000000180028640 f i POSPrinter.obj
 0001:000276e0       ?Skip@?$CComEnumImpl@UIEnumConnections@@$1?_GUID_b196b287_bab4_101a_b69c_00aa00341d07@@3U__s_GUID@@BUtagCONNECTDATA@@V?$_Copy@UtagCONNECTDATA@@@ATL@@@ATL@@UEAAJK@Z 00000001800286e0 f i POSPrinter.obj
 0001:00027780       ?SkipAssignment@CRegParser@ATL@@IEAAJPEA_W@Z 0000000180028780 f i POSPrinter.obj
 0001:00027880       ?SkipWhiteSpace@CRegParser@ATL@@IEAAXXZ 0000000180028880 f i POSPrinter.obj
 0001:000278e0       ?StartWindowProc@?$CWindowImplBaseT@VCWindow@ATL@@V?$CWinTraits@$0FGAAAAAA@$0A@@2@@ATL@@SA_JPEAUHWND__@@I_K_J@Z 00000001800288e0 f i POSPrinter.obj
 0001:00027a50       ?StrChrW@CRegParser@ATL@@KAPEA_WPEA_W_W@Z 0000000180028a50 f i POSPrinter.obj
 0001:00027ad0       ?StrFromMap@CRegObject@ATL@@QEAAPEB_WPEA_W@Z 0000000180028ad0 f i POSPrinter.obj
 0001:00027b90       ?Swap@?$CComPtrBase@UIAdviseSink@@@ATL@@IEAAXAEAV12@@Z 0000000180028b90 f i POSPrinter.obj
 0001:00027bf0       ?Swap@?$CComPtrBase@UIOleClientSite@@@ATL@@IEAAXAEAV12@@Z 0000000180028bf0 f i POSPrinter.obj
 0001:00027c50       ?Swap@?$CComPtrBase@UIUnknown@@@ATL@@IEAAXAEAV12@@Z 0000000180028c50 f i POSPrinter.obj
 0001:00027cb0       ?T2COLE_EX@@YAPEB_WPEB_WI@Z 0000000180028cb0 f i POSPrinter.obj
 0001:00027cd0       ?T2OLE_EX@@YAPEA_WPEA_WI@Z 0000000180028cd0 f i POSPrinter.obj
 0001:00027cf0       ?Term@CAtlModule@ATL@@QEAAXXZ 0000000180028cf0 f i POSPrinter.obj
 0001:00027db0       ?Term@CComModule@ATL@@QEAAXXZ 0000000180028db0 f i POSPrinter.obj
 0001:00027ea0       ?TranslateAcceleratorW@?$IOleInPlaceActiveObjectImpl@VCOPOSPOSPrinter@@@ATL@@UEAAJPEAUtagMSG@@@Z 0000000180028ea0 f i POSPrinter.obj
 0001:00028110       ?UIDeactivate@?$IOleInPlaceObjectWindowlessImpl@VCOPOSPOSPrinter@@@ATL@@UEAAJXZ 0000000180029110 f i POSPrinter.obj
 0001:000281c0       ?Unadvise@?$CProxy_IOPOSEvents@VCOPOSPOSPrinter@@@@UEAAJK@Z 00000001800291c0 f i POSPrinter.obj
 0001:00028210       ?Unadvise@?$IConnectionPointImpl@VCOPOSPOSPrinter@@$1?DIID__IOPOSPOSPrinterEvents@@3U_GUID@@BVCComDynamicUnkArray@ATL@@@ATL@@UEAAJK@Z 0000000180029210 f i POSPrinter.obj
 0001:00028300       ?Unadvise@?$IConnectionPointImpl@VCOPOSPOSPrinter@@$1?IID_IPropertyNotifySink@@3U_GUID@@BVCComDynamicUnkArray@ATL@@@ATL@@UEAAJK@Z 0000000180029300 f i POSPrinter.obj
 0001:000283f0       ?Unadvise@?$IOleObjectImpl@VCOPOSPOSPrinter@@@ATL@@UEAAJK@Z 00000001800293f0 f i POSPrinter.obj
 0001:000284e0       ?Unfreeze@?$IViewObjectExImpl@VCOPOSPOSPrinter@@@ATL@@UEAAJK@Z 00000001800294e0 f i POSPrinter.obj
 0001:00028560       ?Unlock@?$CComCritSecLock@VCComCriticalSection@ATL@@@ATL@@QEAAXXZ 0000000180029560 f i POSPrinter.obj
 0001:000285f0       ?Unlock@?$CComObjectRootEx@VCComSingleThreadModel@ATL@@@ATL@@QEAAXXZ 00000001800295f0 f i POSPrinter.obj
 0001:00028600       ?Unlock@CAtlModule@ATL@@UEAAJXZ 0000000180029600 f i POSPrinter.obj
 0001:00028640       ?Unlock@CComCriticalSection@ATL@@QEAAJXZ 0000000180029640 f i POSPrinter.obj
 0001:00028680       ?Unlock@CComFakeCriticalSection@ATL@@QEAAJXZ 0000000180029680 f i POSPrinter.obj
 0001:00028690       ?UnregisterServer@?$CAtlModuleT@VCComModule@ATL@@@ATL@@QEAAJHPEBU_GUID@@@Z 0000000180029690 f i POSPrinter.obj
 0001:00028700       ?UnregisterServer@CAtlComModule@ATL@@QEAAJHPEBU_GUID@@@Z 0000000180029700 f i POSPrinter.obj
 0001:00028740       ?UnregisterServer@CComModule@ATL@@QEAAJHPEBU_GUID@@@Z 0000000180029740 f i POSPrinter.obj
 0001:00028830       ?Update@?$IOleObjectImpl@VCOPOSPOSPrinter@@@ATL@@UEAAJXZ 0000000180029830 f i POSPrinter.obj
 0001:000288a0       ?UpdateRegistryFromResource@CAtlModule@ATL@@QEAAJIHPEAU_ATL_REGMAP_ENTRY@2@@Z 00000001800298a0 f i POSPrinter.obj
 0001:00028dd0       ?UpdateRegistryFromResource@CAtlModule@ATL@@QEAAJPEB_WHPEAU_ATL_REGMAP_ENTRY@2@@Z 0000000180029dd0 f i POSPrinter.obj
 0001:00029320       ?UpdateRegistryFromResource@CComModule@ATL@@UEAAJIHPEAU_ATL_REGMAP_ENTRY@2@@Z 000000018002a320 f i POSPrinter.obj
 0001:00029370       ?UpdateRegistryFromResource@CComModule@ATL@@UEAAJPEB_WHPEAU_ATL_REGMAP_ENTRY@2@@Z 000000018002a370 f i POSPrinter.obj
 0001:000293c0       ?UpdateRegistryFromResourceD@CComModule@ATL@@UEAAJIHPEAU_ATL_REGMAP_ENTRY@2@@Z 000000018002a3c0 f i POSPrinter.obj
 0001:000293e0       ?UpdateRegistryFromResourceD@CComModule@ATL@@UEAAJPEB_WHPEAU_ATL_REGMAP_ENTRY@2@@Z 000000018002a3e0 f i POSPrinter.obj
 0001:00029400       ?VTFromRegType@CRegParser@ATL@@KAHPEB_WAEAG@Z 000000018002a400 f i POSPrinter.obj
 0001:000294e0       ?WindowProc@?$CWindowImplBaseT@VCWindow@ATL@@V?$CWinTraits@$0FGAAAAAA@$0A@@2@@ATL@@SA_JPEAUHWND__@@I_K_J@Z 000000018002a4e0 f i POSPrinter.obj
 0001:000297c0       ?WriteToStream@CComBSTR@ATL@@QEAAJPEAUIStream@@@Z 000000018002a7c0 f i POSPrinter.obj
 0001:00029930       ?WriteToStream@CComVariant@ATL@@QEAAJPEAUIStream@@@Z 000000018002a930 f i POSPrinter.obj
 0001:00029d40       ?WriteToStream@CComVariant@ATL@@QEAAJPEAUIStream@@G@Z 000000018002ad40 f i POSPrinter.obj
 0001:00029e20       ?_AtlFinalConstruct@CComObjectRootBase@ATL@@QEAAJXZ 000000018002ae20 f i POSPrinter.obj
 0001:00029e30       ?_AtlGetConversionACP@ATL@@YAIXZ 000000018002ae30 f i POSPrinter.obj
 0001:00029e40       ?_AtlInitialConstruct@?$CComAggObject@VCOPOSPOSPrinter@@@ATL@@QEAAJXZ 000000018002ae40 f i POSPrinter.obj
 0001:00029ea0       ?_AtlInitialConstruct@?$CComObjectRootEx@VCComMultiThreadModel@ATL@@@ATL@@QEAAJXZ 000000018002aea0 f i POSPrinter.obj
 0001:00029ee0       ?_AtlInitialConstruct@?$CComObjectRootEx@VCComSingleThreadModel@ATL@@@ATL@@QEAAJXZ 000000018002aee0 f i POSPrinter.obj
 0001:00029ef0       ?_AtlVerifyStackAvailable@_ATL_SAFE_ALLOCA_IMPL@ATL@@YA_N_K@Z 000000018002aef0 f i POSPrinter.obj
 0001:0002a050       ?_GetEntries@?$CComEnum@UIEnumConnectionPoints@@$1?_GUID_b196b285_bab4_101a_b69c_00aa00341d07@@3U__s_GUID@@BPEAUIConnectionPoint@@V?$_CopyInterface@UIConnectionPoint@@@ATL@@VCComSingleThreadModel@6@@ATL@@SAPEBU_ATL_INTMAP_ENTRY@2@XZ 000000018002b050 f i POSPrinter.obj
 0001:0002a070       ?_GetEntries@?$CComEnum@UIEnumConnections@@$1?_GUID_b196b287_bab4_101a_b69c_00aa00341d07@@3U__s_GUID@@BUtagCONNECTDATA@@V?$_Copy@UtagCONNECTDATA@@@ATL@@VCComSingleThreadModel@6@@ATL@@SAPEBU_ATL_INTMAP_ENTRY@2@XZ 000000018002b070 f i POSPrinter.obj
 0001:0002a090       ?_GetEntries@CComClassFactory@ATL@@SAPEBU_ATL_INTMAP_ENTRY@2@XZ 000000018002b090 f i POSPrinter.obj
 0001:0002a0b0       ?_GetEntries@COPOSPOSPrinter@@SAPEBU_ATL_INTMAP_ENTRY@ATL@@XZ 000000018002b0b0 f i POSPrinter.obj
 0001:0002a0d0       ?_GetRawUnknown@COPOSPOSPrinter@@QEAAPEAUIUnknown@@XZ 000000018002b0d0 f i POSPrinter.obj
 0001:0002a160       ?_GetViewStatus@COPOSPOSPrinter@@QEAAKXZ 000000018002b160 f i POSPrinter.obj
 0001:0002a170       ?_InternalQueryInterface@?$CComEnum@UIEnumConnectionPoints@@$1?_GUID_b196b285_bab4_101a_b69c_00aa00341d07@@3U__s_GUID@@BPEAUIConnectionPoint@@V?$_CopyInterface@UIConnectionPoint@@@ATL@@VCComSingleThreadModel@6@@ATL@@QEAAJAEBU_GUID@@PEAPEAX@Z 000000018002b170 f i POSPrinter.obj
 0001:0002a1c0       ?_InternalQueryInterface@?$CComEnum@UIEnumConnections@@$1?_GUID_b196b287_bab4_101a_b69c_00aa00341d07@@3U__s_GUID@@BUtagCONNECTDATA@@V?$_Copy@UtagCONNECTDATA@@@ATL@@VCComSingleThreadModel@6@@ATL@@QEAAJAEBU_GUID@@PEAPEAX@Z 000000018002b1c0 f i POSPrinter.obj
 0001:0002a210       ?_InternalQueryInterface@CComClassFactory@ATL@@QEAAJAEBU_GUID@@PEAPEAX@Z 000000018002b210 f i POSPrinter.obj
 0001:0002a260       ?_InternalQueryInterface@COPOSPOSPrinter@@QEAAJAEBU_GUID@@PEAPEAX@Z 000000018002b260 f i POSPrinter.obj
 0001:0002a2b0       ?_LocCPQueryInterface@?$IConnectionPointImpl@VCOPOSPOSPrinter@@$1?DIID__IOPOSPOSPrinterEvents@@3U_GUID@@BVCComDynamicUnkArray@ATL@@@ATL@@UEAAJAEBU_GUID@@PEAPEAX@Z 000000018002b2b0 f i POSPrinter.obj
 0001:0002a390       ?_LocCPQueryInterface@?$IConnectionPointImpl@VCOPOSPOSPrinter@@$1?IID_IPropertyNotifySink@@3U_GUID@@BVCComDynamicUnkArray@ATL@@@ATL@@UEAAJAEBU_GUID@@PEAPEAX@Z 000000018002b390 f i POSPrinter.obj
 0001:0002a470       ?atlCreate@?$CWindowImpl@VCOPOSPOSPrinter@@VCWindow@ATL@@V?$CWinTraits@$0FGAAAAAA@$0A@@3@@ATL@@QEAAPEAUHWND__@@PEAU3@V_U_RECT@2@PEB_WKKV_U_MENUorID@2@PEAX@Z 000000018002b470 f i POSPrinter.obj
 0001:0002a5a0       ?atlCreate@?$CWindowImplBaseT@VCWindow@ATL@@V?$CWinTraits@$0FGAAAAAA@$0A@@2@@ATL@@QEAAPEAUHWND__@@PEAU3@V_U_RECT@2@PEB_WKKV_U_MENUorID@2@GPEAX@Z 000000018002b5a0 f i POSPrinter.obj
 0001:0002a800       ?atlCreate@CRegKey@ATL@@QEAAJPEAUHKEY__@@PEB_WPEA_WKKPEAU_SECURITY_ATTRIBUTES@@PEAK@Z 000000018002b800 f i POSPrinter.obj
 0001:0002a9f0       ?begin@CComDynamicUnkArray@ATL@@QEAAPEAPEAUIUnknown@@XZ 000000018002b9f0 f i POSPrinter.obj
 0001:0002aa00       ?copy@?$_Copy@UtagCONNECTDATA@@@ATL@@SAJPEAUtagCONNECTDATA@@PEBU3@@Z 000000018002ba00 f i POSPrinter.obj
 0001:0002aaf0       ?copy@?$_CopyInterface@UIConnectionPoint@@@ATL@@SAJPEAPEAUIConnectionPoint@@PEBQEAU3@@Z 000000018002baf0 f i POSPrinter.obj
 0001:0002abe0       ?destroy@?$_Copy@UtagCONNECTDATA@@@ATL@@SAXPEAUtagCONNECTDATA@@@Z 000000018002bbe0 f i POSPrinter.obj
 0001:0002ac30       ?destroy@?$_CopyInterface@UIConnectionPoint@@@ATL@@SAXPEAPEAUIConnectionPoint@@@Z 000000018002bc30 f i POSPrinter.obj
 0001:0002ac80       ?end@CComDynamicUnkArray@ATL@@QEAAPEAPEAUIUnknown@@XZ 000000018002bc80 f i POSPrinter.obj
 0001:0002aca0       ?init@?$_Copy@UtagCONNECTDATA@@@ATL@@SAXPEAUtagCONNECTDATA@@@Z 000000018002bca0 f i POSPrinter.obj
 0001:0002acb0       ?init@?$_CopyInterface@UIConnectionPoint@@@ATL@@SAXPEAPEAUIConnectionPoint@@@Z 000000018002bcb0 f i POSPrinter.obj
 0001:0002acc0       ?memcpy_s@Checked@ATL@@YAXPEAX_KPEBX1@Z 000000018002bcc0 f i POSPrinter.obj
 0001:0002ad20       ?ocscpy_s@@YA_NPEA_W_KPEB_W@Z 000000018002bd20 f i POSPrinter.obj
 0001:0002ada0       ?ocslen@@YAHPEB_W@Z        000000018002bda0 f i POSPrinter.obj
 0001:0002ade0       ?tcsncpy_s@Checked@ATL@@YAHPEA_W_KPEB_W1@Z 000000018002bde0 f i POSPrinter.obj
 0001:0002ae40       ?wcscat_s@Checked@ATL@@YAXPEA_W_KPEB_W@Z 000000018002be40 f i POSPrinter.obj
 0001:0002ae90       ?wcscpy_s@Checked@ATL@@YAXPEA_W_KPEB_W@Z 000000018002be90 f i POSPrinter.obj
 0001:0002aee0       ?wcsncpy_s@Checked@ATL@@YAHPEA_W_KPEB_W1@Z 000000018002bee0 f i POSPrinter.obj
 0001:0002af40       ?wcsstr@@YAPEA_WPEA_WPEB_W@Z 000000018002bf40 f i POSPrinter.obj
 0001:0002af80       InlineIsEqualGUID          000000018002bf80 f i POSPrinter.obj
 0001:0002b050       IsEqualGUID                000000018002c050 f i POSPrinter.obj
 0001:0002b0b0       ??0COPOSPOSPrinter@@QEAA@XZ 000000018002c0b0 f   POSPrinterImpl.obj
 0001:0002b230       ?FinalConstruct@COPOSPOSPrinter@@QEAAJXZ 000000018002c230 f   POSPrinterImpl.obj
 0001:0002b320       ??1COPOSPOSPrinter@@UEAA@XZ 000000018002c320 f   POSPrinterImpl.obj
 0001:0002b400       ?WriteTrace@COPOSPOSPrinter@@QEAAXPEB_WZZ 000000018002c400 f   POSPrinterImpl.obj
 0001:0002b4c0       ?WriteTraceString@COPOSPOSPrinter@@QEAAXPEB_WPEA_W@Z 000000018002c4c0 f   POSPrinterImpl.obj
 0001:0002b900       ?WriteTraceString@COPOSPOSPrinter@@QEAAXPEAXHHHPEB_WZZ 000000018002c900 f   POSPrinterImpl.obj
 0001:0002bb90       ?WriteTraceError@COPOSPOSPrinter@@QEAAXPEB_WK@Z 000000018002cb90 f   POSPrinterImpl.obj
 0001:0002bc90       ?WriteTraceMethods@COPOSPOSPrinter@@QEAAXPEAJH@Z 000000018002cc90 f   POSPrinterImpl.obj
 0001:0002bd20       ?GetOposProp@COPOSPOSPrinter@@IEAAJPEBDJPEAJJ@Z 000000018002cd20 f   POSPrinterImpl.obj
 0001:0002c040       ?SetOposProp@COPOSPOSPrinter@@IEAAJPEBDJJJ@Z 000000018002d040 f   POSPrinterImpl.obj
 0001:0002c3a0       ?GetOposProp@COPOSPOSPrinter@@IEAAJPEBDJPEAFJ@Z 000000018002d3a0 f   POSPrinterImpl.obj
 0001:0002c440       ?SetOposProp@COPOSPOSPrinter@@IEAAJPEBDJFJ@Z 000000018002d440 f   POSPrinterImpl.obj
 0001:0002c4c0       ?GetOposProp@COPOSPOSPrinter@@IEAAJPEBDJPEAPEA_WJ@Z 000000018002d4c0 f   POSPrinterImpl.obj
 0001:0002c7e0       ?SetOposProp@COPOSPOSPrinter@@IEAAJPEBDJPEA_WJ@Z 000000018002d7e0 f   POSPrinterImpl.obj
 0001:0002cbc0       ?DoInvoke@COPOSPOSPrinter@@IEAAJPEBDJPEAVOposVariant@@IHPEAJ_N@Z 000000018002dbc0 f   POSPrinterImpl.obj
 0001:0002d710       ?SetCOFreezeEvents@COPOSPOSPrinter@@IEAAXF@Z 000000018002e710 f   POSPrinterImpl.obj
 0001:0002d8a0       ?FreezeEvents@COPOSPOSPrinter@@MEAAJH@Z 000000018002e8a0 f   POSPrinterImpl.obj
 0001:0002d9d0       ?OnDraw@COPOSPOSPrinter@@MEAAJAEAUATL_DRAWINFO@@@Z 000000018002e9d0 f   POSPrinterImpl.obj
 0001:0002dba0       ?SOProcessID@COPOSPOSPrinter@@UEAAJPEAJ@Z 000000018002eba0 f   POSPrinterImpl.obj
 0001:0002dc00       ?get_OpenResult@COPOSPOSPrinter@@UEAAJPEAJ@Z 000000018002ec00 f   POSPrinterImpl.obj
 0001:0002dc60       ?get_CheckHealthText@COPOSPOSPrinter@@UEAAJPEAPEA_W@Z 000000018002ec60 f   POSPrinterImpl.obj
 0001:0002dcc0       ?get_Claimed@COPOSPOSPrinter@@UEAAJPEAF@Z 000000018002ecc0 f   POSPrinterImpl.obj
 0001:0002dd20       ?get_DeviceEnabled@COPOSPOSPrinter@@UEAAJPEAF@Z 000000018002ed20 f   POSPrinterImpl.obj
 0001:0002dd80       ?put_DeviceEnabled@COPOSPOSPrinter@@UEAAJF@Z 000000018002ed80 f   POSPrinterImpl.obj
 0001:0002dde0       ?get_FreezeEvents@COPOSPOSPrinter@@UEAAJPEAF@Z 000000018002ede0 f   POSPrinterImpl.obj
 0001:0002de40       ?put_FreezeEvents@COPOSPOSPrinter@@UEAAJF@Z 000000018002ee40 f   POSPrinterImpl.obj
 0001:0002df20       ?get_OutputID@COPOSPOSPrinter@@UEAAJPEAJ@Z 000000018002ef20 f   POSPrinterImpl.obj
 0001:0002df80       ?get_ResultCode@COPOSPOSPrinter@@UEAAJPEAJ@Z 000000018002ef80 f   POSPrinterImpl.obj
 0001:0002e050       ?get_ResultCodeExtended@COPOSPOSPrinter@@UEAAJPEAJ@Z 000000018002f050 f   POSPrinterImpl.obj
 0001:0002e0b0       ?get_State@COPOSPOSPrinter@@UEAAJPEAJ@Z 000000018002f0b0 f   POSPrinterImpl.obj
 0001:0002e140       ?get_ControlObjectDescription@COPOSPOSPrinter@@UEAAJPEAPEA_W@Z 000000018002f140 f   POSPrinterImpl.obj
 0001:0002e1c0       ?get_ControlObjectVersion@COPOSPOSPrinter@@UEAAJPEAJ@Z 000000018002f1c0 f   POSPrinterImpl.obj
 0001:0002e220       ?get_ServiceObjectDescription@COPOSPOSPrinter@@UEAAJPEAPEA_W@Z 000000018002f220 f   POSPrinterImpl.obj
 0001:0002e280       ?get_ServiceObjectVersion@COPOSPOSPrinter@@UEAAJPEAJ@Z 000000018002f280 f   POSPrinterImpl.obj
 0001:0002e2e0       ?get_DeviceDescription@COPOSPOSPrinter@@UEAAJPEAPEA_W@Z 000000018002f2e0 f   POSPrinterImpl.obj
 0001:0002e340       ?get_DeviceName@COPOSPOSPrinter@@UEAAJPEAPEA_W@Z 000000018002f340 f   POSPrinterImpl.obj
 0001:0002e3a0       ?CheckHealth@COPOSPOSPrinter@@UEAAJJPEAJ@Z 000000018002f3a0 f   POSPrinterImpl.obj
 0001:0002e460       ?ClaimDevice@COPOSPOSPrinter@@UEAAJJPEAJ@Z 000000018002f460 f   POSPrinterImpl.obj
 0001:0002e580       ?ClearOutput@COPOSPOSPrinter@@UEAAJPEAJ@Z 000000018002f580 f   POSPrinterImpl.obj
 0001:0002e5f0       ?Close@COPOSPOSPrinter@@UEAAJPEAJ@Z 000000018002f5f0 f   POSPrinterImpl.obj
 0001:0002e700       ?DirectIO@COPOSPOSPrinter@@UEAAJJPEAJPEAPEA_W0@Z 000000018002f700 f   POSPrinterImpl.obj
 0001:0002e880       ?Open@COPOSPOSPrinter@@UEAAJPEA_WPEAJ@Z 000000018002f880 f   POSPrinterImpl.obj
 0001:0002fd50       ?ReleaseDevice@COPOSPOSPrinter@@UEAAJPEAJ@Z 0000000180030d50 f   POSPrinterImpl.obj
 0001:0002fe00       ?get_AsyncMode@COPOSPOSPrinter@@UEAAJPEAF@Z 0000000180030e00 f   POSPrinterImpl.obj
 0001:0002fe60       ?put_AsyncMode@COPOSPOSPrinter@@UEAAJF@Z 0000000180030e60 f   POSPrinterImpl.obj
 0001:0002fec0       ?get_CapConcurrentJrnRec@COPOSPOSPrinter@@UEAAJPEAF@Z 0000000180030ec0 f   POSPrinterImpl.obj
 0001:0002ff20       ?get_CapConcurrentJrnSlp@COPOSPOSPrinter@@UEAAJPEAF@Z 0000000180030f20 f   POSPrinterImpl.obj
 0001:0002ff80       ?get_CapConcurrentRecSlp@COPOSPOSPrinter@@UEAAJPEAF@Z 0000000180030f80 f   POSPrinterImpl.obj
 0001:0002ffe0       ?get_CapCoverSensor@COPOSPOSPrinter@@UEAAJPEAF@Z 0000000180030fe0 f   POSPrinterImpl.obj
 0001:00030040       ?get_CapJrn2Color@COPOSPOSPrinter@@UEAAJPEAF@Z 0000000180031040 f   POSPrinterImpl.obj
 0001:000300a0       ?get_CapJrnBold@COPOSPOSPrinter@@UEAAJPEAF@Z 00000001800310a0 f   POSPrinterImpl.obj
 0001:00030100       ?get_CapJrnDhigh@COPOSPOSPrinter@@UEAAJPEAF@Z 0000000180031100 f   POSPrinterImpl.obj
 0001:00030160       ?get_CapJrnDwide@COPOSPOSPrinter@@UEAAJPEAF@Z 0000000180031160 f   POSPrinterImpl.obj
 0001:000301c0       ?get_CapJrnDwideDhigh@COPOSPOSPrinter@@UEAAJPEAF@Z 00000001800311c0 f   POSPrinterImpl.obj
 0001:00030220       ?get_CapJrnEmptySensor@COPOSPOSPrinter@@UEAAJPEAF@Z 0000000180031220 f   POSPrinterImpl.obj
 0001:00030280       ?get_CapJrnItalic@COPOSPOSPrinter@@UEAAJPEAF@Z 0000000180031280 f   POSPrinterImpl.obj
 0001:000302e0       ?get_CapJrnNearEndSensor@COPOSPOSPrinter@@UEAAJPEAF@Z 00000001800312e0 f   POSPrinterImpl.obj
 0001:00030340       ?get_CapJrnPresent@COPOSPOSPrinter@@UEAAJPEAF@Z 0000000180031340 f   POSPrinterImpl.obj
 0001:000303a0       ?get_CapJrnUnderline@COPOSPOSPrinter@@UEAAJPEAF@Z 00000001800313a0 f   POSPrinterImpl.obj
 0001:00030400       ?get_CapRec2Color@COPOSPOSPrinter@@UEAAJPEAF@Z 0000000180031400 f   POSPrinterImpl.obj
 0001:00030460       ?get_CapRecBarCode@COPOSPOSPrinter@@UEAAJPEAF@Z 0000000180031460 f   POSPrinterImpl.obj
 0001:000304c0       ?get_CapRecBitmap@COPOSPOSPrinter@@UEAAJPEAF@Z 00000001800314c0 f   POSPrinterImpl.obj
 0001:00030520       ?get_CapRecBold@COPOSPOSPrinter@@UEAAJPEAF@Z 0000000180031520 f   POSPrinterImpl.obj
 0001:00030580       ?get_CapRecDhigh@COPOSPOSPrinter@@UEAAJPEAF@Z 0000000180031580 f   POSPrinterImpl.obj
 0001:000305e0       ?get_CapRecDwide@COPOSPOSPrinter@@UEAAJPEAF@Z 00000001800315e0 f   POSPrinterImpl.obj
 0001:00030640       ?get_CapRecDwideDhigh@COPOSPOSPrinter@@UEAAJPEAF@Z 0000000180031640 f   POSPrinterImpl.obj
 0001:000306a0       ?get_CapRecEmptySensor@COPOSPOSPrinter@@UEAAJPEAF@Z 00000001800316a0 f   POSPrinterImpl.obj
 0001:00030700       ?get_CapRecItalic@COPOSPOSPrinter@@UEAAJPEAF@Z 0000000180031700 f   POSPrinterImpl.obj
 0001:00030760       ?get_CapRecLeft90@COPOSPOSPrinter@@UEAAJPEAF@Z 0000000180031760 f   POSPrinterImpl.obj
 0001:000307c0       ?get_CapRecNearEndSensor@COPOSPOSPrinter@@UEAAJPEAF@Z 00000001800317c0 f   POSPrinterImpl.obj
 0001:00030820       ?get_CapRecPapercut@COPOSPOSPrinter@@UEAAJPEAF@Z 0000000180031820 f   POSPrinterImpl.obj
 0001:00030880       ?get_CapRecPresent@COPOSPOSPrinter@@UEAAJPEAF@Z 0000000180031880 f   POSPrinterImpl.obj
 0001:000308e0       ?get_CapRecRight90@COPOSPOSPrinter@@UEAAJPEAF@Z 00000001800318e0 f   POSPrinterImpl.obj
 0001:00030940       ?get_CapRecRotate180@COPOSPOSPrinter@@UEAAJPEAF@Z 0000000180031940 f   POSPrinterImpl.obj
 0001:000309a0       ?get_CapRecStamp@COPOSPOSPrinter@@UEAAJPEAF@Z 00000001800319a0 f   POSPrinterImpl.obj
 0001:00030a00       ?get_CapRecUnderline@COPOSPOSPrinter@@UEAAJPEAF@Z 0000000180031a00 f   POSPrinterImpl.obj
 0001:00030a60       ?get_CapSlp2Color@COPOSPOSPrinter@@UEAAJPEAF@Z 0000000180031a60 f   POSPrinterImpl.obj
 0001:00030ac0       ?get_CapSlpBarCode@COPOSPOSPrinter@@UEAAJPEAF@Z 0000000180031ac0 f   POSPrinterImpl.obj
 0001:00030b20       ?get_CapSlpBitmap@COPOSPOSPrinter@@UEAAJPEAF@Z 0000000180031b20 f   POSPrinterImpl.obj
 0001:00030b80       ?get_CapSlpBold@COPOSPOSPrinter@@UEAAJPEAF@Z 0000000180031b80 f   POSPrinterImpl.obj
 0001:00030be0       ?get_CapSlpDhigh@COPOSPOSPrinter@@UEAAJPEAF@Z 0000000180031be0 f   POSPrinterImpl.obj
 0001:00030c40       ?get_CapSlpDwide@COPOSPOSPrinter@@UEAAJPEAF@Z 0000000180031c40 f   POSPrinterImpl.obj
 0001:00030ca0       ?get_CapSlpDwideDhigh@COPOSPOSPrinter@@UEAAJPEAF@Z 0000000180031ca0 f   POSPrinterImpl.obj
 0001:00030d00       ?get_CapSlpEmptySensor@COPOSPOSPrinter@@UEAAJPEAF@Z 0000000180031d00 f   POSPrinterImpl.obj
 0001:00030d60       ?get_CapSlpFullslip@COPOSPOSPrinter@@UEAAJPEAF@Z 0000000180031d60 f   POSPrinterImpl.obj
 0001:00030dc0       ?get_CapSlpItalic@COPOSPOSPrinter@@UEAAJPEAF@Z 0000000180031dc0 f   POSPrinterImpl.obj
 0001:00030e20       ?get_CapSlpLeft90@COPOSPOSPrinter@@UEAAJPEAF@Z 0000000180031e20 f   POSPrinterImpl.obj
 0001:00030e80       ?get_CapSlpNearEndSensor@COPOSPOSPrinter@@UEAAJPEAF@Z 0000000180031e80 f   POSPrinterImpl.obj
 0001:00030ee0       ?get_CapSlpPresent@COPOSPOSPrinter@@UEAAJPEAF@Z 0000000180031ee0 f   POSPrinterImpl.obj
 0001:00030f40       ?get_CapSlpRight90@COPOSPOSPrinter@@UEAAJPEAF@Z 0000000180031f40 f   POSPrinterImpl.obj
 0001:00030fa0       ?get_CapSlpRotate180@COPOSPOSPrinter@@UEAAJPEAF@Z 0000000180031fa0 f   POSPrinterImpl.obj
 0001:00031000       ?get_CapSlpUnderline@COPOSPOSPrinter@@UEAAJPEAF@Z 0000000180032000 f   POSPrinterImpl.obj
 0001:00031060       ?get_CharacterSet@COPOSPOSPrinter@@UEAAJPEAJ@Z 0000000180032060 f   POSPrinterImpl.obj
 0001:000310c0       ?put_CharacterSet@COPOSPOSPrinter@@UEAAJJ@Z 00000001800320c0 f   POSPrinterImpl.obj
 0001:00031120       ?get_CharacterSetList@COPOSPOSPrinter@@UEAAJPEAPEA_W@Z 0000000180032120 f   POSPrinterImpl.obj
 0001:00031180       ?get_CoverOpen@COPOSPOSPrinter@@UEAAJPEAF@Z 0000000180032180 f   POSPrinterImpl.obj
 0001:000311e0       ?get_ErrorStation@COPOSPOSPrinter@@UEAAJPEAJ@Z 00000001800321e0 f   POSPrinterImpl.obj
 0001:00031240       ?get_FlagWhenIdle@COPOSPOSPrinter@@UEAAJPEAF@Z 0000000180032240 f   POSPrinterImpl.obj
 0001:000312a0       ?put_FlagWhenIdle@COPOSPOSPrinter@@UEAAJF@Z 00000001800322a0 f   POSPrinterImpl.obj
 0001:00031300       ?get_JrnEmpty@COPOSPOSPrinter@@UEAAJPEAF@Z 0000000180032300 f   POSPrinterImpl.obj
 0001:00031360       ?get_JrnLetterQuality@COPOSPOSPrinter@@UEAAJPEAF@Z 0000000180032360 f   POSPrinterImpl.obj
 0001:000313c0       ?put_JrnLetterQuality@COPOSPOSPrinter@@UEAAJF@Z 00000001800323c0 f   POSPrinterImpl.obj
 0001:00031420       ?get_JrnLineChars@COPOSPOSPrinter@@UEAAJPEAJ@Z 0000000180032420 f   POSPrinterImpl.obj
 0001:00031480       ?put_JrnLineChars@COPOSPOSPrinter@@UEAAJJ@Z 0000000180032480 f   POSPrinterImpl.obj
 0001:000314e0       ?get_JrnLineCharsList@COPOSPOSPrinter@@UEAAJPEAPEA_W@Z 00000001800324e0 f   POSPrinterImpl.obj
 0001:00031540       ?get_JrnLineHeight@COPOSPOSPrinter@@UEAAJPEAJ@Z 0000000180032540 f   POSPrinterImpl.obj
 0001:000315a0       ?put_JrnLineHeight@COPOSPOSPrinter@@UEAAJJ@Z 00000001800325a0 f   POSPrinterImpl.obj
 0001:00031600       ?get_JrnLineSpacing@COPOSPOSPrinter@@UEAAJPEAJ@Z 0000000180032600 f   POSPrinterImpl.obj
 0001:00031660       ?put_JrnLineSpacing@COPOSPOSPrinter@@UEAAJJ@Z 0000000180032660 f   POSPrinterImpl.obj
 0001:000316c0       ?get_JrnLineWidth@COPOSPOSPrinter@@UEAAJPEAJ@Z 00000001800326c0 f   POSPrinterImpl.obj
 0001:00031720       ?get_JrnNearEnd@COPOSPOSPrinter@@UEAAJPEAF@Z 0000000180032720 f   POSPrinterImpl.obj
 0001:00031780       ?get_MapMode@COPOSPOSPrinter@@UEAAJPEAJ@Z 0000000180032780 f   POSPrinterImpl.obj
 0001:000317e0       ?put_MapMode@COPOSPOSPrinter@@UEAAJJ@Z 00000001800327e0 f   POSPrinterImpl.obj
 0001:00031840       ?get_RecEmpty@COPOSPOSPrinter@@UEAAJPEAF@Z 0000000180032840 f   POSPrinterImpl.obj
 0001:000318a0       ?get_RecLetterQuality@COPOSPOSPrinter@@UEAAJPEAF@Z 00000001800328a0 f   POSPrinterImpl.obj
 0001:00031900       ?put_RecLetterQuality@COPOSPOSPrinter@@UEAAJF@Z 0000000180032900 f   POSPrinterImpl.obj
 0001:00031960       ?get_RecLineChars@COPOSPOSPrinter@@UEAAJPEAJ@Z 0000000180032960 f   POSPrinterImpl.obj
 0001:000319c0       ?put_RecLineChars@COPOSPOSPrinter@@UEAAJJ@Z 00000001800329c0 f   POSPrinterImpl.obj
 0001:00031a20       ?get_RecLineCharsList@COPOSPOSPrinter@@UEAAJPEAPEA_W@Z 0000000180032a20 f   POSPrinterImpl.obj
 0001:00031a80       ?get_RecLineHeight@COPOSPOSPrinter@@UEAAJPEAJ@Z 0000000180032a80 f   POSPrinterImpl.obj
 0001:00031ae0       ?put_RecLineHeight@COPOSPOSPrinter@@UEAAJJ@Z 0000000180032ae0 f   POSPrinterImpl.obj
 0001:00031b40       ?get_RecLineSpacing@COPOSPOSPrinter@@UEAAJPEAJ@Z 0000000180032b40 f   POSPrinterImpl.obj
 0001:00031ba0       ?put_RecLineSpacing@COPOSPOSPrinter@@UEAAJJ@Z 0000000180032ba0 f   POSPrinterImpl.obj
 0001:00031c00       ?get_RecLinesToPaperCut@COPOSPOSPrinter@@UEAAJPEAJ@Z 0000000180032c00 f   POSPrinterImpl.obj
 0001:00031c60       ?get_RecLineWidth@COPOSPOSPrinter@@UEAAJPEAJ@Z 0000000180032c60 f   POSPrinterImpl.obj
 0001:00031cc0       ?get_RecNearEnd@COPOSPOSPrinter@@UEAAJPEAF@Z 0000000180032cc0 f   POSPrinterImpl.obj
 0001:00031d20       ?get_RecSidewaysMaxChars@COPOSPOSPrinter@@UEAAJPEAJ@Z 0000000180032d20 f   POSPrinterImpl.obj
 0001:00031d80       ?get_RecSidewaysMaxLines@COPOSPOSPrinter@@UEAAJPEAJ@Z 0000000180032d80 f   POSPrinterImpl.obj
 0001:00031de0       ?get_SlpEmpty@COPOSPOSPrinter@@UEAAJPEAF@Z 0000000180032de0 f   POSPrinterImpl.obj
 0001:00031e40       ?get_SlpLetterQuality@COPOSPOSPrinter@@UEAAJPEAF@Z 0000000180032e40 f   POSPrinterImpl.obj
 0001:00031ea0       ?put_SlpLetterQuality@COPOSPOSPrinter@@UEAAJF@Z 0000000180032ea0 f   POSPrinterImpl.obj
 0001:00031f00       ?get_SlpLineChars@COPOSPOSPrinter@@UEAAJPEAJ@Z 0000000180032f00 f   POSPrinterImpl.obj
 0001:00031f60       ?put_SlpLineChars@COPOSPOSPrinter@@UEAAJJ@Z 0000000180032f60 f   POSPrinterImpl.obj
 0001:00031fc0       ?get_SlpLineCharsList@COPOSPOSPrinter@@UEAAJPEAPEA_W@Z 0000000180032fc0 f   POSPrinterImpl.obj
 0001:00032020       ?get_SlpLineHeight@COPOSPOSPrinter@@UEAAJPEAJ@Z 0000000180033020 f   POSPrinterImpl.obj
 0001:00032080       ?put_SlpLineHeight@COPOSPOSPrinter@@UEAAJJ@Z 0000000180033080 f   POSPrinterImpl.obj
 0001:000320e0       ?get_SlpLinesNearEndToEnd@COPOSPOSPrinter@@UEAAJPEAJ@Z 00000001800330e0 f   POSPrinterImpl.obj
 0001:00032140       ?get_SlpLineSpacing@COPOSPOSPrinter@@UEAAJPEAJ@Z 0000000180033140 f   POSPrinterImpl.obj
 0001:000321a0       ?put_SlpLineSpacing@COPOSPOSPrinter@@UEAAJJ@Z 00000001800331a0 f   POSPrinterImpl.obj
 0001:00032200       ?get_SlpLineWidth@COPOSPOSPrinter@@UEAAJPEAJ@Z 0000000180033200 f   POSPrinterImpl.obj
 0001:00032260       ?get_SlpMaxLines@COPOSPOSPrinter@@UEAAJPEAJ@Z 0000000180033260 f   POSPrinterImpl.obj
 0001:000322c0       ?get_SlpNearEnd@COPOSPOSPrinter@@UEAAJPEAF@Z 00000001800332c0 f   POSPrinterImpl.obj
 0001:00032320       ?get_SlpSidewaysMaxChars@COPOSPOSPrinter@@UEAAJPEAJ@Z 0000000180033320 f   POSPrinterImpl.obj
 0001:00032380       ?get_SlpSidewaysMaxLines@COPOSPOSPrinter@@UEAAJPEAJ@Z 0000000180033380 f   POSPrinterImpl.obj
 0001:000323e0       ?BeginInsertion@COPOSPOSPrinter@@UEAAJJPEAJ@Z 00000001800333e0 f   POSPrinterImpl.obj
 0001:000324a0       ?BeginRemoval@COPOSPOSPrinter@@UEAAJJPEAJ@Z 00000001800334a0 f   POSPrinterImpl.obj
 0001:00032560       ?CutPaper@COPOSPOSPrinter@@UEAAJJPEAJ@Z 0000000180033560 f   POSPrinterImpl.obj
 0001:00032620       ?EndInsertion@COPOSPOSPrinter@@UEAAJPEAJ@Z 0000000180033620 f   POSPrinterImpl.obj
 0001:00032690       ?EndRemoval@COPOSPOSPrinter@@UEAAJPEAJ@Z 0000000180033690 f   POSPrinterImpl.obj
 0001:00032700       ?PrintBarCode@COPOSPOSPrinter@@UEAAJJPEA_WJJJJJPEAJ@Z 0000000180033700 f   POSPrinterImpl.obj
 0001:000328e0       ?PrintBitmap@COPOSPOSPrinter@@UEAAJJPEA_WJJPEAJ@Z 00000001800338e0 f   POSPrinterImpl.obj
 0001:00032a70       ?PrintImmediate@COPOSPOSPrinter@@UEAAJJPEA_WPEAJ@Z 0000000180033a70 f   POSPrinterImpl.obj
 0001:00032ba0       ?PrintNormal@COPOSPOSPrinter@@UEAAJJPEA_WPEAJ@Z 0000000180033ba0 f   POSPrinterImpl.obj
 0001:00032cd0       ?PrintTwoNormal@COPOSPOSPrinter@@UEAAJJPEA_W0PEAJ@Z 0000000180033cd0 f   POSPrinterImpl.obj
 0001:00032e50       ?RotatePrint@COPOSPOSPrinter@@UEAAJJJPEAJ@Z 0000000180033e50 f   POSPrinterImpl.obj
 0001:00032f70       ?SetBitmap@COPOSPOSPrinter@@UEAAJJJPEA_WJJPEAJ@Z 0000000180033f70 f   POSPrinterImpl.obj
 0001:00033120       ?SetLogo@COPOSPOSPrinter@@UEAAJJPEA_WPEAJ@Z 0000000180034120 f   POSPrinterImpl.obj
 0001:00033250       ?get_CapCharacterSet@COPOSPOSPrinter@@UEAAJPEAJ@Z 0000000180034250 f   POSPrinterImpl.obj
 0001:000332b0       ?get_CapTransaction@COPOSPOSPrinter@@UEAAJPEAF@Z 00000001800342b0 f   POSPrinterImpl.obj
 0001:00033310       ?get_ErrorLevel@COPOSPOSPrinter@@UEAAJPEAJ@Z 0000000180034310 f   POSPrinterImpl.obj
 0001:00033370       ?get_ErrorString@COPOSPOSPrinter@@UEAAJPEAPEA_W@Z 0000000180034370 f   POSPrinterImpl.obj
 0001:000333d0       ?get_FontTypefaceList@COPOSPOSPrinter@@UEAAJPEAPEA_W@Z 00000001800343d0 f   POSPrinterImpl.obj
 0001:00033430       ?get_RecBarCodeRotationList@COPOSPOSPrinter@@UEAAJPEAPEA_W@Z 0000000180034430 f   POSPrinterImpl.obj
 0001:00033490       ?get_RotateSpecial@COPOSPOSPrinter@@UEAAJPEAJ@Z 0000000180034490 f   POSPrinterImpl.obj
 0001:000334f0       ?put_RotateSpecial@COPOSPOSPrinter@@UEAAJJ@Z 00000001800344f0 f   POSPrinterImpl.obj
 0001:00033550       ?get_SlpBarCodeRotationList@COPOSPOSPrinter@@UEAAJPEAPEA_W@Z 0000000180034550 f   POSPrinterImpl.obj
 0001:000335b0       ?TransactionPrint@COPOSPOSPrinter@@UEAAJJJPEAJ@Z 00000001800345b0 f   POSPrinterImpl.obj
 0001:000336d0       ?ValidateData@COPOSPOSPrinter@@UEAAJJPEA_WPEAJ@Z 00000001800346d0 f   POSPrinterImpl.obj
 0001:00033800       ?get_BinaryConversion@COPOSPOSPrinter@@UEAAJPEAJ@Z 0000000180034800 f   POSPrinterImpl.obj
 0001:00033860       ?put_BinaryConversion@COPOSPOSPrinter@@UEAAJJ@Z 0000000180034860 f   POSPrinterImpl.obj
 0001:000338d0       ?get_CapPowerReporting@COPOSPOSPrinter@@UEAAJPEAJ@Z 00000001800348d0 f   POSPrinterImpl.obj
 0001:00033930       ?get_PowerNotify@COPOSPOSPrinter@@UEAAJPEAJ@Z 0000000180034930 f   POSPrinterImpl.obj
 0001:00033990       ?put_PowerNotify@COPOSPOSPrinter@@UEAAJJ@Z 0000000180034990 f   POSPrinterImpl.obj
 0001:000339f0       ?get_PowerState@COPOSPOSPrinter@@UEAAJPEAJ@Z 00000001800349f0 f   POSPrinterImpl.obj
 0001:00033a50       ?get_CapJrnCartridgeSensor@COPOSPOSPrinter@@UEAAJPEAJ@Z 0000000180034a50 f   POSPrinterImpl.obj
 0001:00033ab0       ?get_CapJrnColor@COPOSPOSPrinter@@UEAAJPEAJ@Z 0000000180034ab0 f   POSPrinterImpl.obj
 0001:00033b10       ?get_CapRecCartridgeSensor@COPOSPOSPrinter@@UEAAJPEAJ@Z 0000000180034b10 f   POSPrinterImpl.obj
 0001:00033b70       ?get_CapRecColor@COPOSPOSPrinter@@UEAAJPEAJ@Z 0000000180034b70 f   POSPrinterImpl.obj
 0001:00033bd0       ?get_CapRecMarkFeed@COPOSPOSPrinter@@UEAAJPEAJ@Z 0000000180034bd0 f   POSPrinterImpl.obj
 0001:00033c30       ?get_CapSlpBothSidesPrint@COPOSPOSPrinter@@UEAAJPEAF@Z 0000000180034c30 f   POSPrinterImpl.obj
 0001:00033c90       ?get_CapSlpCartridgeSensor@COPOSPOSPrinter@@UEAAJPEAJ@Z 0000000180034c90 f   POSPrinterImpl.obj
 0001:00033cf0       ?get_CapSlpColor@COPOSPOSPrinter@@UEAAJPEAJ@Z 0000000180034cf0 f   POSPrinterImpl.obj
 0001:00033d50       ?get_CartridgeNotify@COPOSPOSPrinter@@UEAAJPEAJ@Z 0000000180034d50 f   POSPrinterImpl.obj
 0001:00033db0       ?put_CartridgeNotify@COPOSPOSPrinter@@UEAAJJ@Z 0000000180034db0 f   POSPrinterImpl.obj
 0001:00033e10       ?get_JrnCartridgeState@COPOSPOSPrinter@@UEAAJPEAJ@Z 0000000180034e10 f   POSPrinterImpl.obj
 0001:00033e70       ?get_JrnCurrentCartridge@COPOSPOSPrinter@@UEAAJPEAJ@Z 0000000180034e70 f   POSPrinterImpl.obj
 0001:00033ed0       ?put_JrnCurrentCartridge@COPOSPOSPrinter@@UEAAJJ@Z 0000000180034ed0 f   POSPrinterImpl.obj
 0001:00033f30       ?get_RecCartridgeState@COPOSPOSPrinter@@UEAAJPEAJ@Z 0000000180034f30 f   POSPrinterImpl.obj
 0001:00033f90       ?get_RecCurrentCartridge@COPOSPOSPrinter@@UEAAJPEAJ@Z 0000000180034f90 f   POSPrinterImpl.obj
 0001:00033ff0       ?put_RecCurrentCartridge@COPOSPOSPrinter@@UEAAJJ@Z 0000000180034ff0 f   POSPrinterImpl.obj
 0001:00034050       ?get_SlpCartridgeState@COPOSPOSPrinter@@UEAAJPEAJ@Z 0000000180035050 f   POSPrinterImpl.obj
 0001:000340b0       ?get_SlpCurrentCartridge@COPOSPOSPrinter@@UEAAJPEAJ@Z 00000001800350b0 f   POSPrinterImpl.obj
 0001:00034110       ?put_SlpCurrentCartridge@COPOSPOSPrinter@@UEAAJJ@Z 0000000180035110 f   POSPrinterImpl.obj
 0001:00034170       ?get_SlpPrintSide@COPOSPOSPrinter@@UEAAJPEAJ@Z 0000000180035170 f   POSPrinterImpl.obj
 0001:000341d0       ?ChangePrintSide@COPOSPOSPrinter@@UEAAJJPEAJ@Z 00000001800351d0 f   POSPrinterImpl.obj
 0001:00034290       ?MarkFeed@COPOSPOSPrinter@@UEAAJJPEAJ@Z 0000000180035290 f   POSPrinterImpl.obj
 0001:00034350       ?get_CapMapCharacterSet@COPOSPOSPrinter@@UEAAJPEAF@Z 0000000180035350 f   POSPrinterImpl.obj
 0001:000343b0       ?get_MapCharacterSet@COPOSPOSPrinter@@UEAAJPEAF@Z 00000001800353b0 f   POSPrinterImpl.obj
 0001:00034410       ?put_MapCharacterSet@COPOSPOSPrinter@@UEAAJF@Z 0000000180035410 f   POSPrinterImpl.obj
 0001:00034470       ?get_RecBitmapRotationList@COPOSPOSPrinter@@UEAAJPEAPEA_W@Z 0000000180035470 f   POSPrinterImpl.obj
 0001:000344d0       ?get_SlpBitmapRotationList@COPOSPOSPrinter@@UEAAJPEAPEA_W@Z 00000001800354d0 f   POSPrinterImpl.obj
 0001:00034530       ?get_CapStatisticsReporting@COPOSPOSPrinter@@UEAAJPEAF@Z 0000000180035530 f   POSPrinterImpl.obj
 0001:00034590       ?get_CapUpdateStatistics@COPOSPOSPrinter@@UEAAJPEAF@Z 0000000180035590 f   POSPrinterImpl.obj
 0001:000345f0       ?ResetStatistics@COPOSPOSPrinter@@UEAAJPEA_WPEAJ@Z 00000001800355f0 f   POSPrinterImpl.obj
 0001:000346d0       ?RetrieveStatistics@COPOSPOSPrinter@@UEAAJPEAPEA_WPEAJ@Z 00000001800356d0 f   POSPrinterImpl.obj
 0001:000347b0       ?UpdateStatistics@COPOSPOSPrinter@@UEAAJPEA_WPEAJ@Z 00000001800357b0 f   POSPrinterImpl.obj
 0001:00034890       ?get_CapCompareFirmwareVersion@COPOSPOSPrinter@@UEAAJPEAF@Z 0000000180035890 f   POSPrinterImpl.obj
 0001:000348f0       ?get_CapUpdateFirmware@COPOSPOSPrinter@@UEAAJPEAF@Z 00000001800358f0 f   POSPrinterImpl.obj
 0001:00034950       ?CompareFirmwareVersion@COPOSPOSPrinter@@UEAAJPEA_WPEAJ1@Z 0000000180035950 f   POSPrinterImpl.obj
 0001:00034a90       ?UpdateFirmware@COPOSPOSPrinter@@UEAAJPEA_WPEAJ@Z 0000000180035a90 f   POSPrinterImpl.obj
 0001:00034b70       ?get_CapConcurrentPageMode@COPOSPOSPrinter@@UEAAJPEAF@Z 0000000180035b70 f   POSPrinterImpl.obj
 0001:00034bd0       ?get_CapRecPageMode@COPOSPOSPrinter@@UEAAJPEAF@Z 0000000180035bd0 f   POSPrinterImpl.obj
 0001:00034c30       ?get_CapSlpPageMode@COPOSPOSPrinter@@UEAAJPEAF@Z 0000000180035c30 f   POSPrinterImpl.obj
 0001:00034c90       ?get_PageModeArea@COPOSPOSPrinter@@UEAAJPEAPEA_W@Z 0000000180035c90 f   POSPrinterImpl.obj
 0001:00034cf0       ?get_PageModeDescriptor@COPOSPOSPrinter@@UEAAJPEAJ@Z 0000000180035cf0 f   POSPrinterImpl.obj
 0001:00034d50       ?get_PageModeHorizontalPosition@COPOSPOSPrinter@@UEAAJPEAJ@Z 0000000180035d50 f   POSPrinterImpl.obj
 0001:00034db0       ?put_PageModeHorizontalPosition@COPOSPOSPrinter@@UEAAJJ@Z 0000000180035db0 f   POSPrinterImpl.obj
 0001:00034e10       ?get_PageModePrintArea@COPOSPOSPrinter@@UEAAJPEAPEA_W@Z 0000000180035e10 f   POSPrinterImpl.obj
 0001:00034e70       ?put_PageModePrintArea@COPOSPOSPrinter@@UEAAJPEA_W@Z 0000000180035e70 f   POSPrinterImpl.obj
 0001:00034ed0       ?get_PageModePrintDirection@COPOSPOSPrinter@@UEAAJPEAJ@Z 0000000180035ed0 f   POSPrinterImpl.obj
 0001:00034f30       ?put_PageModePrintDirection@COPOSPOSPrinter@@UEAAJJ@Z 0000000180035f30 f   POSPrinterImpl.obj
 0001:00034f90       ?get_PageModeStation@COPOSPOSPrinter@@UEAAJPEAJ@Z 0000000180035f90 f   POSPrinterImpl.obj
 0001:00034ff0       ?put_PageModeStation@COPOSPOSPrinter@@UEAAJJ@Z 0000000180035ff0 f   POSPrinterImpl.obj
 0001:00035050       ?get_PageModeVerticalPosition@COPOSPOSPrinter@@UEAAJPEAJ@Z 0000000180036050 f   POSPrinterImpl.obj
 0001:000350b0       ?put_PageModeVerticalPosition@COPOSPOSPrinter@@UEAAJJ@Z 00000001800360b0 f   POSPrinterImpl.obj
 0001:00035110       ?ClearPrintArea@COPOSPOSPrinter@@UEAAJPEAJ@Z 0000000180036110 f   POSPrinterImpl.obj
 0001:00035180       ?PageModePrint@COPOSPOSPrinter@@UEAAJJPEAJ@Z 0000000180036180 f   POSPrinterImpl.obj
 0001:00035240       ?PrintMemoryBitmap@COPOSPOSPrinter@@UEAAJJPEA_WJJJPEAJ@Z 0000000180036240 f   POSPrinterImpl.obj
 0001:000353f0       ?get_CapRecRuledLine@COPOSPOSPrinter@@UEAAJPEAJ@Z 00000001800363f0 f   POSPrinterImpl.obj
 0001:00035450       ?get_CapSlpRuledLine@COPOSPOSPrinter@@UEAAJPEAJ@Z 0000000180036450 f   POSPrinterImpl.obj
 0001:000354b0       ?DrawRuledLine@COPOSPOSPrinter@@UEAAJJPEA_WJJJJPEAJ@Z 00000001800364b0 f   POSPrinterImpl.obj
 0001:00035670       ??0?$CComControl@VCOPOSPOSPrinter@@V?$CWindowImpl@VCOPOSPOSPrinter@@VCWindow@ATL@@V?$CWinTraits@$0FGAAAAAA@$0A@@3@@ATL@@@ATL@@QEAA@XZ 0000000180036670 f i POSPrinterImpl.obj
 0001:000356c0       ??0?$CComPtr@UIAdviseSink@@@ATL@@QEAA@XZ 00000001800366c0 f i POSPrinterImpl.obj
 0001:00035700       ??0?$CComPtr@UIDataAdviseHolder@@@ATL@@QEAA@XZ 0000000180036700 f i POSPrinterImpl.obj
 0001:00035740       ??0?$CComPtr@UIOleAdviseHolder@@@ATL@@QEAA@XZ 0000000180036740 f i POSPrinterImpl.obj
 0001:00035780       ??0?$CComPtr@UIOleClientSite@@@ATL@@QEAA@XZ 0000000180036780 f i POSPrinterImpl.obj
 0001:000357c0       ??0?$CComPtr@UIOleInPlaceSiteWindowless@@@ATL@@QEAA@XZ 00000001800367c0 f i POSPrinterImpl.obj
 0001:00035800       ??0?$CComPtrBase@UIAdviseSink@@@ATL@@IEAA@XZ 0000000180036800 f i POSPrinterImpl.obj
 0001:00035820       ??0?$CComPtrBase@UIDataAdviseHolder@@@ATL@@IEAA@XZ 0000000180036820 f i POSPrinterImpl.obj
 0001:00035840       ??0?$CComPtrBase@UIOleAdviseHolder@@@ATL@@IEAA@XZ 0000000180036840 f i POSPrinterImpl.obj
 0001:00035860       ??0?$CComPtrBase@UIOleClientSite@@@ATL@@IEAA@XZ 0000000180036860 f i POSPrinterImpl.obj
 0001:00035880       ??0?$CComPtrBase@UIOleInPlaceSiteWindowless@@@ATL@@IEAA@XZ 0000000180036880 f i POSPrinterImpl.obj
 0001:000358a0       ??0?$CComQIPtr@UIDispatch@@$1?_GUID_00020400_0000_0000_c000_000000000046@@3U__s_GUID@@B@ATL@@QEAA@XZ 00000001800368a0 f i POSPrinterImpl.obj
 0001:000358e0       ??0?$CProxy_IOPOSEvents@VCOPOSPOSPrinter@@@@QEAA@PEAVCOPOSPOSPrinter@@@Z 00000001800368e0 f i POSPrinterImpl.obj
 0001:00035970       ??0?$CWindowImpl@VCOPOSPOSPrinter@@VCWindow@ATL@@V?$CWinTraits@$0FGAAAAAA@$0A@@3@@ATL@@QEAA@XZ 0000000180036970 f i POSPrinterImpl.obj
 0001:000359b0       ??0?$CWindowImplBaseT@VCWindow@ATL@@V?$CWinTraits@$0FGAAAAAA@$0A@@2@@ATL@@QEAA@XZ 00000001800369b0 f i POSPrinterImpl.obj
 0001:00035a00       ??0?$CWindowImplRoot@VCWindow@ATL@@@ATL@@QEAA@XZ 0000000180036a00 f i POSPrinterImpl.obj
 0001:00035a70       ??0?$IConnectionPointContainerImpl@VCOPOSPOSPrinter@@@ATL@@QEAA@XZ 0000000180036a70 f i POSPrinterImpl.obj
 0001:00035ab0       ??0?$IConnectionPointImpl@VCOPOSPOSPrinter@@$1?DIID__IOPOSPOSPrinterEvents@@3U_GUID@@BVCComDynamicUnkArray@ATL@@@ATL@@QEAA@XZ 0000000180036ab0 f i POSPrinterImpl.obj
 0001:00035b00       ??0?$IConnectionPointImpl@VCOPOSPOSPrinter@@$1?IID_IPropertyNotifySink@@3U_GUID@@BVCComDynamicUnkArray@ATL@@@ATL@@QEAA@XZ 0000000180036b00 f i POSPrinterImpl.obj
 0001:00035b50       ??0?$IDataObjectImpl@VCOPOSPOSPrinter@@@ATL@@QEAA@XZ 0000000180036b50 f i POSPrinterImpl.obj
 0001:00035b90       ??0?$IDispatchImpl@UIOPOSPOSPrinter@@$1?IID_IOPOSPOSPrinter@@3U_GUID@@B$1?LIBID_OposPOSPrinter_CCO@@3U3@B$00$0A@VCComTypeInfoHolder@ATL@@@ATL@@QEAA@XZ 0000000180036b90 f i POSPrinterImpl.obj
 0001:00035bd0       ??0?$IObjectSafetyImpl@VCOPOSPOSPrinter@@$02@ATL@@QEAA@XZ 0000000180036bd0 f i POSPrinterImpl.obj
 0001:00035c10       ??0?$IOleControlImpl@VCOPOSPOSPrinter@@@ATL@@QEAA@XZ 0000000180036c10 f i POSPrinterImpl.obj
 0001:00035c50       ??0?$IOleInPlaceActiveObjectImpl@VCOPOSPOSPrinter@@@ATL@@QEAA@XZ 0000000180036c50 f i POSPrinterImpl.obj
 0001:00035c90       ??0?$IOleInPlaceObjectWindowlessImpl@VCOPOSPOSPrinter@@@ATL@@QEAA@XZ 0000000180036c90 f i POSPrinterImpl.obj
 0001:00035cd0       ??0?$IOleObjectImpl@VCOPOSPOSPrinter@@@ATL@@QEAA@XZ 0000000180036cd0 f i POSPrinterImpl.obj
 0001:00035d10       ??0?$IPersistStorageImpl@VCOPOSPOSPrinter@@@ATL@@QEAA@XZ 0000000180036d10 f i POSPrinterImpl.obj
 0001:00035d50       ??0?$IPersistStreamInitImpl@VCOPOSPOSPrinter@@@ATL@@QEAA@XZ 0000000180036d50 f i POSPrinterImpl.obj
 0001:00035d90       ??0?$IPropertyNotifySinkCP@VCOPOSPOSPrinter@@VCComDynamicUnkArray@ATL@@@ATL@@QEAA@XZ 0000000180036d90 f i POSPrinterImpl.obj
 0001:00035dd0       ??0?$IProvideClassInfo2Impl@$1?CLSID_OPOSPOSPrinter@@3U_GUID@@B$1?DIID__IOPOSPOSPrinterEvents@@3U2@B$1?LIBID_OposPOSPrinter_CCO@@3U2@B$00$0A@VCComTypeInfoHolder@ATL@@@ATL@@QEAA@XZ 0000000180036dd0 f i POSPrinterImpl.obj
 0001:00035e10       ??0?$IQuickActivateImpl@VCOPOSPOSPrinter@@@ATL@@QEAA@XZ 0000000180036e10 f i POSPrinterImpl.obj
 0001:00035e50       ??0?$ISpecifyPropertyPagesImpl@VCOPOSPOSPrinter@@@ATL@@QEAA@XZ 0000000180036e50 f i POSPrinterImpl.obj
 0001:00035e90       ??0?$IViewObjectExImpl@VCOPOSPOSPrinter@@@ATL@@QEAA@XZ 0000000180036e90 f i POSPrinterImpl.obj
 0001:00035ed0       ??0?$_ICPLocator@$1?DIID__IOPOSPOSPrinterEvents@@3U_GUID@@B@ATL@@QEAA@XZ 0000000180036ed0 f i POSPrinterImpl.obj
 0001:00035ee0       ??0?$_ICPLocator@$1?IID_IPropertyNotifySink@@3U_GUID@@B@ATL@@QEAA@XZ 0000000180036ee0 f i POSPrinterImpl.obj
 0001:00035ef0       ??0CComControlBase@ATL@@QEAA@AEAPEAUHWND__@@@Z 0000000180036ef0 f i POSPrinterImpl.obj
 0001:00036110       ??0CComDynamicUnkArray@ATL@@QEAA@XZ 0000000180037110 f i POSPrinterImpl.obj
 0001:00036140       ??0CDynamicStdCallThunk2@ATL@@QEAA@XZ 0000000180037140 f i POSPrinterImpl.obj
 0001:00036160       ??0CMessageMap@ATL@@QEAA@XZ 0000000180037160 f i POSPrinterImpl.obj
 0001:00036170       ??0CWindow@ATL@@QEAA@PEAUHWND__@@@Z 0000000180037170 f i POSPrinterImpl.obj
 0001:00036190       ??0CWndProcThunk@ATL@@QEAA@XZ 0000000180037190 f i POSPrinterImpl.obj
 0001:000361d0       ??0IConnectionPointContainer@@QEAA@XZ 00000001800371d0 f i POSPrinterImpl.obj
 0001:00036210       ??0IDataObject@@QEAA@XZ    0000000180037210 f i POSPrinterImpl.obj
 0001:00036250       ??0IDispatch@@QEAA@XZ      0000000180037250 f i POSPrinterImpl.obj
 0001:00036290       ??0IOPOSPOSPrinter@@QEAA@XZ 0000000180037290 f i POSPrinterImpl.obj
 0001:000362d0       ??0IOPOSPOSPrinter_1_10@@QEAA@XZ 00000001800372d0 f i POSPrinterImpl.obj
 0001:00036310       ??0IOPOSPOSPrinter_1_13@@QEAA@XZ 0000000180037310 f i POSPrinterImpl.obj
 0001:00036350       ??0IOPOSPOSPrinter_1_5@@QEAA@XZ 0000000180037350 f i POSPrinterImpl.obj
 0001:00036390       ??0IOPOSPOSPrinter_1_7@@QEAA@XZ 0000000180037390 f i POSPrinterImpl.obj
 0001:000363d0       ??0IOPOSPOSPrinter_1_8@@QEAA@XZ 00000001800373d0 f i POSPrinterImpl.obj
 0001:00036410       ??0IOPOSPOSPrinter_1_9@@QEAA@XZ 0000000180037410 f i POSPrinterImpl.obj
 0001:00036450       ??0IObjectSafety@@QEAA@XZ  0000000180037450 f i POSPrinterImpl.obj
 0001:00036490       ??0IOleControl@@QEAA@XZ    0000000180037490 f i POSPrinterImpl.obj
 0001:000364d0       ??0IOleInPlaceActiveObject@@QEAA@XZ 00000001800374d0 f i POSPrinterImpl.obj
 0001:00036510       ??0IOleInPlaceObject@@QEAA@XZ 0000000180037510 f i POSPrinterImpl.obj
 0001:00036550       ??0IOleInPlaceObjectWindowless@@QEAA@XZ 0000000180037550 f i POSPrinterImpl.obj
 0001:00036590       ??0IOleObject@@QEAA@XZ     0000000180037590 f i POSPrinterImpl.obj
 0001:000365d0       ??0IOleWindow@@QEAA@XZ     00000001800375d0 f i POSPrinterImpl.obj
 0001:00036610       ??0IPersist@@QEAA@XZ       0000000180037610 f i POSPrinterImpl.obj
 0001:00036650       ??0IPersistStorage@@QEAA@XZ 0000000180037650 f i POSPrinterImpl.obj
 0001:00036690       ??0IPersistStreamInit@@QEAA@XZ 0000000180037690 f i POSPrinterImpl.obj
 0001:000366d0       ??0IProvideClassInfo2@@QEAA@XZ 00000001800376d0 f i POSPrinterImpl.obj
 0001:00036710       ??0IProvideClassInfo@@QEAA@XZ 0000000180037710 f i POSPrinterImpl.obj
 0001:00036750       ??0IQuickActivate@@QEAA@XZ 0000000180037750 f i POSPrinterImpl.obj
 0001:00036790       ??0ISpecifyPropertyPages@@QEAA@XZ 0000000180037790 f i POSPrinterImpl.obj
 0001:000367d0       ??0IViewObject2@@QEAA@XZ   00000001800377d0 f i POSPrinterImpl.obj
 0001:00036810       ??0IViewObject@@QEAA@XZ    0000000180037810 f i POSPrinterImpl.obj
 0001:00036850       ??0IViewObjectEx@@QEAA@XZ  0000000180037850 f i POSPrinterImpl.obj
 0001:00036890       ??0OposVariantResult@@QEAA@XZ 0000000180037890 f i POSPrinterImpl.obj
 0001:000368d0       ??0_CW@@QEAA@PEBD@Z        00000001800378d0 f i POSPrinterImpl.obj
 0001:00036920       ??0_CW@@QEAA@PEB_W@Z       0000000180037920 f i POSPrinterImpl.obj
 0001:00036970       ??0_CWNCC@@QEAA@PEBD@Z     0000000180037970 f i POSPrinterImpl.obj
 0001:000369b0       ??1?$CComControl@VCOPOSPOSPrinter@@V?$CWindowImpl@VCOPOSPOSPrinter@@VCWindow@ATL@@V?$CWinTraits@$0FGAAAAAA@$0A@@3@@ATL@@@ATL@@UEAA@XZ 00000001800379b0 f i POSPrinterImpl.obj
 0001:000369f0       ??1?$CComPtr@UIDataAdviseHolder@@@ATL@@QEAA@XZ 00000001800379f0 f i POSPrinterImpl.obj
 0001:00036a20       ??1?$CComPtr@UIOleAdviseHolder@@@ATL@@QEAA@XZ 0000000180037a20 f i POSPrinterImpl.obj
 0001:00036a50       ??1?$CComPtr@UIOleInPlaceSiteWindowless@@@ATL@@QEAA@XZ 0000000180037a50 f i POSPrinterImpl.obj
 0001:00036a80       ??1?$CComPtrBase@UIDataAdviseHolder@@@ATL@@QEAA@XZ 0000000180037a80 f i POSPrinterImpl.obj
 0001:00036ad0       ??1?$CComPtrBase@UIOleAdviseHolder@@@ATL@@QEAA@XZ 0000000180037ad0 f i POSPrinterImpl.obj
 0001:00036b20       ??1?$CComPtrBase@UIOleInPlaceSiteWindowless@@@ATL@@QEAA@XZ 0000000180037b20 f i POSPrinterImpl.obj
 0001:00036b70       ??1?$CComQIPtr@UIDispatch@@$1?_GUID_00020400_0000_0000_c000_000000000046@@3U__s_GUID@@B@ATL@@QEAA@XZ 0000000180037b70 f i POSPrinterImpl.obj
 0001:00036ba0       ??1?$CProxy_IOPOSEvents@VCOPOSPOSPrinter@@@@QEAA@XZ 0000000180037ba0 f i POSPrinterImpl.obj
 0001:00036bd0       ??1?$CWindowImpl@VCOPOSPOSPrinter@@VCWindow@ATL@@V?$CWinTraits@$0FGAAAAAA@$0A@@3@@ATL@@UEAA@XZ 0000000180037bd0 f i POSPrinterImpl.obj
 0001:00036c00       ??1?$CWindowImplBaseT@VCWindow@ATL@@V?$CWinTraits@$0FGAAAAAA@$0A@@2@@ATL@@UEAA@XZ 0000000180037c00 f i POSPrinterImpl.obj
 0001:00036c30       ??1?$CWindowImplRoot@VCWindow@ATL@@@ATL@@UEAA@XZ 0000000180037c30 f i POSPrinterImpl.obj
 0001:00036cf0       ??1?$IConnectionPointImpl@VCOPOSPOSPrinter@@$1?DIID__IOPOSPOSPrinterEvents@@3U_GUID@@BVCComDynamicUnkArray@ATL@@@ATL@@QEAA@XZ 0000000180037cf0 f i POSPrinterImpl.obj
 0001:00036d90       ??1?$IConnectionPointImpl@VCOPOSPOSPrinter@@$1?IID_IPropertyNotifySink@@3U_GUID@@BVCComDynamicUnkArray@ATL@@@ATL@@QEAA@XZ 0000000180037d90 f i POSPrinterImpl.obj
 0001:00036e30       ??1?$IPropertyNotifySinkCP@VCOPOSPOSPrinter@@VCComDynamicUnkArray@ATL@@@ATL@@QEAA@XZ 0000000180037e30 f i POSPrinterImpl.obj
 0001:00036e60       ??1CComControlBase@ATL@@UEAA@XZ 0000000180037e60 f i POSPrinterImpl.obj
 0001:00036f50       ??1CComDynamicUnkArray@ATL@@QEAA@XZ 0000000180037f50 f i POSPrinterImpl.obj
 0001:00036f90       ??1CDynamicStdCallThunk2@ATL@@QEAA@XZ 0000000180037f90 f i POSPrinterImpl.obj
 0001:00036fd0       ??1CWndProcThunk@ATL@@QEAA@XZ 0000000180037fd0 f i POSPrinterImpl.obj
 0001:00037010       ??1OposVariantResult@@QEAA@XZ 0000000180038010 f i POSPrinterImpl.obj
 0001:00037050       ??1_CW@@QEAA@XZ            0000000180038050 f i POSPrinterImpl.obj
 0001:000370d0       ??1_CWNCC@@QEAA@XZ         00000001800380d0 f i POSPrinterImpl.obj
 0001:00037100       ??B_CW@@QEAAPEB_WXZ        0000000180038100 f i POSPrinterImpl.obj
 0001:00037150       ??B_CWNCC@@QEAAPEA_WXZ     0000000180038150 f i POSPrinterImpl.obj
 0001:00037180       ??_EOposVariant@@QEAAPEAXI@Z 0000000180038180 f i POSPrinterImpl.obj
 0001:00037230       ?EventClaim@COPOSPOSPrinter@@IEAAXXZ 0000000180038230 f i POSPrinterImpl.obj
 0001:00037280       ?EventClose@COPOSPOSPrinter@@IEAAXXZ 0000000180038280 f i POSPrinterImpl.obj
 0001:00037320       ?EventInit@COPOSPOSPrinter@@IEAAJXZ 0000000180038320 f i POSPrinterImpl.obj
 0001:000375d0       ?EventOpen@COPOSPOSPrinter@@IEAAXXZ 00000001800385d0 f i POSPrinterImpl.obj
 0001:00037610       ?EventPreCloseRelease@COPOSPOSPrinter@@IEAAXXZ 0000000180038610 f i POSPrinterImpl.obj
 0001:00037690       ?EventUninit@COPOSPOSPrinter@@IEAAXXZ 0000000180038690 f i POSPrinterImpl.obj
 0001:000377c0       ?EventWindowProc@COPOSPOSPrinter@@IEAA_JI_K_J@Z 00000001800387c0 f i POSPrinterImpl.obj
 0001:00037990       ?FireEventCleanup@COPOSPOSPrinter@@IEAAXXZ 0000000180038990 f i POSPrinterImpl.obj
 0001:000379e0       ?FireEventSetup@COPOSPOSPrinter@@IEAA_NXZ 00000001800389e0 f i POSPrinterImpl.obj
 0001:00037a60       ?GetModuleInstance@CComModule@ATL@@QEAAPEAUHINSTANCE__@@XZ 0000000180038a60 f i POSPrinterImpl.obj
 0001:00037a70       ?SetRC@COPOSPOSPrinter@@IEAAJJ@Z 0000000180038a70 f i POSPrinterImpl.obj
 0001:00037a90       ?s_EventWindowProc@COPOSPOSPrinter@@KA_JPEAUHWND__@@I_K_J@Z 0000000180038a90 f i POSPrinterImpl.obj
 0001:00037b40       _snwprintf                 0000000180038b40 f i POSPrinterImpl.obj
 0001:00037bd0       _vfwprintf_l               0000000180038bd0 f i POSPrinterImpl.obj
 0001:00037c30       _vsnwprintf                0000000180038c30 f i POSPrinterImpl.obj
 0001:00037c90       _vsnwprintf_l              0000000180038c90 f i POSPrinterImpl.obj
 0001:00037d20       vfwprintf                  0000000180038d20 f i POSPrinterImpl.obj
 0001:00037d65       DebugBreak                 0000000180038d65 f   kernel32:KERNEL32.dll
 0001:00037d6b       Sleep                      0000000180038d6b f   kernel32:KERNEL32.dll
 0001:00037d71       GetCurrentProcess          0000000180038d71 f   kernel32:KERNEL32.dll
 0001:00037d77       TerminateProcess           0000000180038d77 f   kernel32:KERNEL32.dll
 0001:00037d7d       MultiByteToWideChar        0000000180038d7d f   kernel32:KERNEL32.dll
 0001:00037d83       WideCharToMultiByte        0000000180038d83 f   kernel32:KERNEL32.dll
 0001:00037d89       DecodePointer              0000000180038d89 f   kernel32:KERNEL32.dll
 0001:00037d8f       RaiseException             0000000180038d8f f   kernel32:KERNEL32.dll
 0001:00037d95       GetLastError               0000000180038d95 f   kernel32:KERNEL32.dll
 0001:00037d9b       SetLastError               0000000180038d9b f   kernel32:KERNEL32.dll
 0001:00037da1       InitializeCriticalSectionEx 0000000180038da1 f   kernel32:KERNEL32.dll
 0001:00037da7       DeleteCriticalSection      0000000180038da7 f   kernel32:KERNEL32.dll
 0001:00037dad       EncodePointer              0000000180038dad f   kernel32:KERNEL32.dll
 0001:00037db3       EnterCriticalSection       0000000180038db3 f   kernel32:KERNEL32.dll
 0001:00037db9       LeaveCriticalSection       0000000180038db9 f   kernel32:KERNEL32.dll
 0001:00037dbf       ResetEvent                 0000000180038dbf f   kernel32:KERNEL32.dll
 0001:00037dc5       ReleaseMutex               0000000180038dc5 f   kernel32:KERNEL32.dll
 0001:00037dcb       WaitForSingleObject        0000000180038dcb f   kernel32:KERNEL32.dll
 0001:00037dd1       GetCurrentThreadId         0000000180038dd1 f   kernel32:KERNEL32.dll
 0001:00037dd7       DisableThreadLibraryCalls  0000000180038dd7 f   kernel32:KERNEL32.dll
 0001:00037ddd       FreeLibrary                0000000180038ddd f   kernel32:KERNEL32.dll
 0001:00037de3       GetModuleFileNameW         0000000180038de3 f   kernel32:KERNEL32.dll
 0001:00037de9       GetModuleHandleW           0000000180038de9 f   kernel32:KERNEL32.dll
 0001:00037def       GetProcAddress             0000000180038def f   kernel32:KERNEL32.dll
 0001:00037df5       LoadLibraryExW             0000000180038df5 f   kernel32:KERNEL32.dll
 0001:00037dfb       LoadResource               0000000180038dfb f   kernel32:KERNEL32.dll
 0001:00037e01       SizeofResource             0000000180038e01 f   kernel32:KERNEL32.dll
 0001:00037e07       FindResourceW              0000000180038e07 f   kernel32:KERNEL32.dll
 0001:00037e0d       GlobalAlloc                0000000180038e0d f   kernel32:KERNEL32.dll
 0001:00037e13       GlobalUnlock               0000000180038e13 f   kernel32:KERNEL32.dll
 0001:00037e19       GlobalLock                 0000000180038e19 f   kernel32:KERNEL32.dll
 0001:00037e1f       MulDiv                     0000000180038e1f f   kernel32:KERNEL32.dll
 0001:00037e25       lstrcmpiW                  0000000180038e25 f   kernel32:KERNEL32.dll
 0001:00037e2b       DeleteFileW                0000000180038e2b f   kernel32:KERNEL32.dll
 0001:00037e31       CloseHandle                0000000180038e31 f   kernel32:KERNEL32.dll
 0001:00037e37       SetEvent                   0000000180038e37 f   kernel32:KERNEL32.dll
 0001:00037e3d       CreateMutexW               0000000180038e3d f   kernel32:KERNEL32.dll
 0001:00037e43       CreateEventW               0000000180038e43 f   kernel32:KERNEL32.dll
 0001:00037e49       GetCurrentProcessId        0000000180038e49 f   kernel32:KERNEL32.dll
 0001:00037e4f       LocalFree                  0000000180038e4f f   kernel32:KERNEL32.dll
 0001:00037e55       FormatMessageW             0000000180038e55 f   kernel32:KERNEL32.dll
 0001:00037e5b       GetActiveWindow            0000000180038e5b f   user32:USER32.dll
 0001:00037e61       MessageBoxW                0000000180038e61 f   user32:USER32.dll
 0001:00037e67       UnregisterClassW           0000000180038e67 f   user32:USER32.dll
 0001:00037e6d       PostMessageW               0000000180038e6d f   user32:USER32.dll
 0001:00037e73       DefWindowProcW             0000000180038e73 f   user32:USER32.dll
 0001:00037e79       CallWindowProcW            0000000180038e79 f   user32:USER32.dll
 0001:00037e7f       RegisterClassExW           0000000180038e7f f   user32:USER32.dll
 0001:00037e85       GetClassInfoExW            0000000180038e85 f   user32:USER32.dll
 0001:00037e8b       CreateWindowExW            0000000180038e8b f   user32:USER32.dll
 0001:00037e91       IsWindow                   0000000180038e91 f   user32:USER32.dll
 0001:00037e97       IsChild                    0000000180038e97 f   user32:USER32.dll
 0001:00037e9d       DestroyWindow              0000000180038e9d f   user32:USER32.dll
 0001:00037ea3       ShowWindow                 0000000180038ea3 f   user32:USER32.dll
 0001:00037ea9       SetWindowPos               0000000180038ea9 f   user32:USER32.dll
 0001:00037eaf       CharNextW                  0000000180038eaf f   user32:USER32.dll
 0001:00037eb5       SetFocus                   0000000180038eb5 f   user32:USER32.dll
 0001:00037ebb       GetFocus                   0000000180038ebb f   user32:USER32.dll
 0001:00037ec1       GetKeyState                0000000180038ec1 f   user32:USER32.dll
 0001:00037ec7       GetDC                      0000000180038ec7 f   user32:USER32.dll
 0001:00037ecd       ReleaseDC                  0000000180038ecd f   user32:USER32.dll
 0001:00037ed3       BeginPaint                 0000000180038ed3 f   user32:USER32.dll
 0001:00037ed9       EndPaint                   0000000180038ed9 f   user32:USER32.dll
 0001:00037edf       SetWindowRgn               0000000180038edf f   user32:USER32.dll
 0001:00037ee5       InvalidateRect             0000000180038ee5 f   user32:USER32.dll
 0001:00037eeb       GetClientRect              0000000180038eeb f   user32:USER32.dll
 0001:00037ef1       IntersectRect              0000000180038ef1 f   user32:USER32.dll
 0001:00037ef7       UnionRect                  0000000180038ef7 f   user32:USER32.dll
 0001:00037efd       OffsetRect                 0000000180038efd f   user32:USER32.dll
 0001:00037f03       EqualRect                  0000000180038f03 f   user32:USER32.dll
 0001:00037f09       PtInRect                   0000000180038f09 f   user32:USER32.dll
 0001:00037f0f       GetWindowLongPtrW          0000000180038f0f f   user32:USER32.dll
 0001:00037f15       SetWindowLongPtrW          0000000180038f15 f   user32:USER32.dll
 0001:00037f1b       GetParent                  0000000180038f1b f   user32:USER32.dll
 0001:00037f21       LoadCursorW                0000000180038f21 f   user32:USER32.dll
 0001:00037f27       PeekMessageW               0000000180038f27 f   user32:USER32.dll
 0001:00037f2d       RegisterClassW             0000000180038f2d f   user32:USER32.dll
 0001:00037f33       LoadBitmapW                0000000180038f33 f   user32:USER32.dll
 0001:00037f39       CloseMetaFile              0000000180038f39 f   gdi32:GDI32.dll
 0001:00037f3f       CreateDCW                  0000000180038f3f f   gdi32:GDI32.dll
 0001:00037f45       CreateMetaFileW            0000000180038f45 f   gdi32:GDI32.dll
 0001:00037f4b       CreateRectRgnIndirect      0000000180038f4b f   gdi32:GDI32.dll
 0001:00037f51       DeleteDC                   0000000180038f51 f   gdi32:GDI32.dll
 0001:00037f57       DeleteMetaFile             0000000180038f57 f   gdi32:GDI32.dll
 0001:00037f5d       GetDeviceCaps              0000000180038f5d f   gdi32:GDI32.dll
 0001:00037f63       RestoreDC                  0000000180038f63 f   gdi32:GDI32.dll
 0001:00037f69       SaveDC                     0000000180038f69 f   gdi32:GDI32.dll
 0001:00037f6f       SetMapMode                 0000000180038f6f f   gdi32:GDI32.dll
 0001:00037f75       LPtoDP                     0000000180038f75 f   gdi32:GDI32.dll
 0001:00037f7b       SetViewportOrgEx           0000000180038f7b f   gdi32:GDI32.dll
 0001:00037f81       SetWindowExtEx             0000000180038f81 f   gdi32:GDI32.dll
 0001:00037f87       SetWindowOrgEx             0000000180038f87 f   gdi32:GDI32.dll
 0001:00037f8d       BitBlt                     0000000180038f8d f   gdi32:GDI32.dll
 0001:00037f93       CreateCompatibleDC         0000000180038f93 f   gdi32:GDI32.dll
 0001:00037f99       DeleteObject               0000000180038f99 f   gdi32:GDI32.dll
 0001:00037f9f       SelectObject               0000000180038f9f f   gdi32:GDI32.dll
 0001:00037fa5       GetObjectW                 0000000180038fa5 f   gdi32:GDI32.dll
 0001:00037fab       RegCloseKey                0000000180038fab f   advapi32:ADVAPI32.dll
 0001:00037fb1       RegCreateKeyExW            0000000180038fb1 f   advapi32:ADVAPI32.dll
 0001:00037fb7       RegDeleteKeyW              0000000180038fb7 f   advapi32:ADVAPI32.dll
 0001:00037fbd       RegDeleteValueW            0000000180038fbd f   advapi32:ADVAPI32.dll
 0001:00037fc3       RegEnumKeyExW              0000000180038fc3 f   advapi32:ADVAPI32.dll
 0001:00037fc9       RegOpenKeyExW              0000000180038fc9 f   advapi32:ADVAPI32.dll
 0001:00037fcf       RegQueryInfoKeyW           0000000180038fcf f   advapi32:ADVAPI32.dll
 0001:00037fd5       RegSetValueExW             0000000180038fd5 f   advapi32:ADVAPI32.dll
 0001:00037fdb       RegQueryValueExW           0000000180038fdb f   advapi32:ADVAPI32.dll
 0001:00037fe1       CoCreateInstance           0000000180038fe1 f   ole32:ole32.dll
 0001:00037fe7       StringFromGUID2            0000000180038fe7 f   ole32:ole32.dll
 0001:00037fed       CoTaskMemAlloc             0000000180038fed f   ole32:ole32.dll
 0001:00037ff3       CoTaskMemRealloc           0000000180038ff3 f   ole32:ole32.dll
 0001:00037ff9       CoTaskMemFree              0000000180038ff9 f   ole32:ole32.dll
 0001:00037fff       ReadClassStm               0000000180038fff f   ole32:ole32.dll
 0001:00038005       WriteClassStm              0000000180039005 f   ole32:ole32.dll
 0001:0003800b       CreateDataAdviseHolder     000000018003900b f   ole32:ole32.dll
 0001:00038011       OleSaveToStream            0000000180039011 f   ole32:ole32.dll
 0001:00038017       CreateOleAdviseHolder      0000000180039017 f   ole32:ole32.dll
 0001:0003801d       OleRegGetUserType          000000018003901d f   ole32:ole32.dll
 0001:00038023       OleRegGetMiscStatus        0000000180039023 f   ole32:ole32.dll
 0001:00038029       OleRegEnumVerbs            0000000180039029 f   ole32:ole32.dll
 0001:0003802f       CLSIDFromProgID            000000018003902f f   ole32:ole32.dll
 0001:00038035       SysAllocString             0000000180039035 f   oleaut32:OLEAUT32.dll
 0001:0003803b       SysAllocStringLen          000000018003903b f   oleaut32:OLEAUT32.dll
 0001:00038041       SysFreeString              0000000180039041 f   oleaut32:OLEAUT32.dll
 0001:00038047       SysStringLen               0000000180039047 f   oleaut32:OLEAUT32.dll
 0001:0003804d       VariantClear               000000018003904d f   oleaut32:OLEAUT32.dll
 0001:00038053       VariantCopyInd             0000000180039053 f   oleaut32:OLEAUT32.dll
 0001:00038059       VariantChangeType          0000000180039059 f   oleaut32:OLEAUT32.dll
 0001:0003805f       SysStringByteLen           000000018003905f f   oleaut32:OLEAUT32.dll
 0001:00038065       SysAllocStringByteLen      0000000180039065 f   oleaut32:OLEAUT32.dll
 0001:0003806b       VariantInit                000000018003906b f   oleaut32:OLEAUT32.dll
 0001:00038071       VarUI4FromStr              0000000180039071 f   oleaut32:OLEAUT32.dll
 0001:00038077       LoadTypeLib                0000000180039077 f   oleaut32:OLEAUT32.dll
 0001:0003807d       LoadRegTypeLib             000000018003907d f   oleaut32:OLEAUT32.dll
 0001:00038083       RegisterTypeLib            0000000180039083 f   oleaut32:OLEAUT32.dll
 0001:00038089       UnRegisterTypeLib          0000000180039089 f   oleaut32:OLEAUT32.dll
 0001:0003808f       OleCreatePropertyFrame     000000018003908f f   oleaut32:OLEAUT32.dll
 0001:000380a0       _RTC_AllocaHelper          00000001800390a0 f   LIBCMTD:stack.obj
 0001:000380e0       _RTC_CheckStackVars        00000001800390e0 f   LIBCMTD:stack.obj
 0001:00038170       _RTC_CheckStackVars2       0000000180039170 f   LIBCMTD:stack.obj
 0001:00038280       _CRT_RTC_INIT              0000000180039280 f   LIBCMTD:init.obj
 0001:00038290       _CRT_RTC_INITW             0000000180039290 f   LIBCMTD:init.obj
 0001:000382a0       _RTC_InitBase              00000001800392a0 f   LIBCMTD:init.obj
 0001:000382e0       _RTC_Shutdown              00000001800392e0 f   LIBCMTD:init.obj
 0001:00038310       __GSHandlerCheck           0000000180039310 f   LIBCMTD:gshandler.obj
 0001:00038350       __GSHandlerCheckCommon     0000000180039350 f   LIBCMTD:gshandler.obj
 0001:00038460       __security_check_cookie    0000000180039460 f   LIBCMTD:amdsecgs.obj
 0001:00038490       ??_U@YAPEAX_K@Z            0000000180039490 f   LIBCMTD:new_array.obj
 0001:000384b0       ??3@YAXPEAX_K@Z            00000001800394b0 f   LIBCMTD:delete_scalar_size.obj
 0001:000384d0       ??_V@YAXPEAX@Z             00000001800394d0 f   LIBCMTD:delete_array.obj
 0001:000384f0       ??_V@YAXPEAX_K@Z           00000001800394f0 f   LIBCMTD:delete_array_size.obj
 0001:00038510       ?configure_argv@__scrt_narrow_argv_policy@@SAHXZ 0000000180039510 f i LIBCMTD:utility.obj
 0001:00038600       ?initialize_environment@__scrt_narrow_environment_policy@@SAHXZ 0000000180039600 f i LIBCMTD:utility.obj
 0001:000386a0       NtCurrentTeb               00000001800396a0 f i LIBCMTD:utility.obj
 0001:000386b0       __scrt_acquire_startup_lock 00000001800396b0 f   LIBCMTD:utility.obj
 0001:00038720       __scrt_dllmain_after_initialize_c 0000000180039720 f   LIBCMTD:utility.obj
 0001:00038750       __scrt_dllmain_before_initialize_c 0000000180039750 f   LIBCMTD:utility.obj
 0001:00038770       __scrt_dllmain_crt_thread_attach 0000000180039770 f   LIBCMTD:utility.obj
 0001:000387a0       __scrt_dllmain_crt_thread_detach 00000001800397a0 f   LIBCMTD:utility.obj
 0001:000387c0       __scrt_dllmain_exception_filter 00000001800397c0 f   LIBCMTD:utility.obj
 0001:00038830       __scrt_dllmain_uninitialize_c 0000000180039830 f   LIBCMTD:utility.obj
 0001:00038860       __scrt_dllmain_uninitialize_critical 0000000180039860 f   LIBCMTD:utility.obj
 0001:00038880       __scrt_initialize_crt      0000000180039880 f   LIBCMTD:utility.obj
 0001:000388d0       __scrt_initialize_onexit_tables 00000001800398d0 f   LIBCMTD:utility.obj
 0001:000389e0       __scrt_is_nonwritable_in_current_image 00000001800399e0 f   LIBCMTD:utility.obj
 0001:00038a70       __scrt_release_startup_lock 0000000180039a70 f   LIBCMTD:utility.obj
 0001:00038aa0       __scrt_uninitialize_crt    0000000180039aa0 f   LIBCMTD:utility.obj
 0001:00038ae0       _onexit                    0000000180039ae0 f   LIBCMTD:utility.obj
 0001:00038b60       at_quick_exit              0000000180039b60 f   LIBCMTD:utility.obj
 0001:00038bb0       atexit                     0000000180039bb0 f   LIBCMTD:utility.obj
 0001:00038bf0       ??3@YAXPEAX@Z              0000000180039bf0 f   LIBCMTD:delete_scalar.obj
 0001:00038c10       __raise_securityfailure    0000000180039c10 f   LIBCMTD:gs_report.obj
 0001:00038c50       __report_gsfailure         0000000180039c50 f   LIBCMTD:gs_report.obj
 0001:00038d30       __report_rangecheckfailure 0000000180039d30 f   LIBCMTD:gs_report.obj
 0001:00038d50       __report_securityfailure   0000000180039d50 f   LIBCMTD:gs_report.obj
 0001:00038df0       __report_securityfailureEx 0000000180039df0 f   LIBCMTD:gs_report.obj
 0001:000391b0       _Init_thread_abort         000000018003a1b0 f   LIBCMTD:thread_safe_statics.obj
 0001:000391e0       _Init_thread_footer        000000018003a1e0 f   LIBCMTD:thread_safe_statics.obj
 0001:00039240       _Init_thread_header        000000018003a240 f   LIBCMTD:thread_safe_statics.obj
 0001:000392d0       _Init_thread_lock          000000018003a2d0 f   LIBCMTD:thread_safe_statics.obj
 0001:000392f0       _Init_thread_notify        000000018003a2f0 f   LIBCMTD:thread_safe_statics.obj
 0001:00039350       _Init_thread_unlock        000000018003a350 f   LIBCMTD:thread_safe_statics.obj
 0001:00039370       _Init_thread_wait          000000018003a370 f   LIBCMTD:thread_safe_statics.obj
 0001:00039420       ??2@YAPEAX_KAEBUnothrow_t@std@@@Z 000000018003a420 f   LIBCMTD:new_scalar_nothrow.obj
 0001:00039460       ??_U@YAPEAX_KAEBUnothrow_t@std@@@Z 000000018003a460 f   LIBCMTD:new_array_nothrow.obj
 0001:00039490       __GSHandlerCheck_SEH       000000018003a490 f   LIBCMTD:gshandlerseh.obj
 0001:00039560       _alloca_probe              000000018003a560 f   LIBCMTD:chkstk.obj
 0001:00039560       __chkstk                   000000018003a560 f   LIBCMTD:chkstk.obj
 0001:000399c0       _CRT_INIT                  000000018003a9c0 f   LIBCMTD:dll_dllmain.obj
 0001:000399f0       _DllMainCRTStartup         000000018003a9f0 f   LIBCMTD:dll_dllmain.obj
 0001:00039ac0       ?_RTC_AllocaFailure@@YAXPEAXPEAU_RTC_ALLOCA_NODE@@H@Z 000000018003aac0 f   LIBCMTD:error.obj
 0001:00039c20       ?_RTC_Failure@@YAXPEAXH@Z  000000018003ac20 f   LIBCMTD:error.obj
 0001:00039c70       ?_RTC_StackFailure@@YAXPEAXPEBD@Z 000000018003ac70 f   LIBCMTD:error.obj
 0001:0003a0a0       _RTC_UninitUse             000000018003b0a0 f   LIBCMTD:error.obj
 0001:0003a170       _vsprintf_s_l              000000018003b170 f i LIBCMTD:error.obj
 0001:0003a1e0       sprintf_s                  000000018003b1e0 f i LIBCMTD:error.obj
 0001:0003a210       ?_RTC_GetErrorFunc@@YAP6AHHPEBDH00ZZPEBX@Z 000000018003b210 f   LIBCMTD:userapi.obj
 0001:0003a220       ?_RTC_GetErrorFuncW@@YAP6AHHPEB_WH00ZZPEBX@Z 000000018003b220 f   LIBCMTD:userapi.obj
 0001:0003a230       _RTC_GetErrDesc            000000018003b230 f   LIBCMTD:userapi.obj
 0001:0003a250       _RTC_NumErrors             000000018003b250 f   LIBCMTD:userapi.obj
 0001:0003a260       _RTC_SetErrorFunc          000000018003b260 f   LIBCMTD:userapi.obj
 0001:0003a280       _RTC_SetErrorFuncW         000000018003b280 f   LIBCMTD:userapi.obj
 0001:0003a2a0       _RTC_SetErrorType          000000018003b2a0 f   LIBCMTD:userapi.obj
 0001:0003a2c0       ??2@YAPEAX_K@Z             000000018003b2c0 f   LIBCMTD:new_scalar.obj
 0001:0003a310       __isa_available_init       000000018003b310 f   LIBCMTD:cpu_disp.obj
 0001:0003a660       _get_startup_argv_mode     000000018003b660 f   LIBCMTD:argv_mode.obj
 0001:0003a670       __scrt_is_ucrt_dll_in_use  000000018003b670 f   LIBCMTD:ucrt_detection.obj
 0001:0003a6a0       __crt_debugger_hook        000000018003b6a0 f   LIBCMTD:utility_desktop.obj
 0001:0003a6b0       __scrt_fastfail            000000018003b6b0 f   LIBCMTD:utility_desktop.obj
 0001:0003a850       __scrt_get_show_window_mode 000000018003b850 f   LIBCMTD:utility_desktop.obj
 0001:0003a8b0       __scrt_initialize_mta      000000018003b8b0 f   LIBCMTD:utility_desktop.obj
 0001:0003a8c0       __scrt_initialize_winrt    000000018003b8c0 f   LIBCMTD:utility_desktop.obj
 0001:0003a8d0       __scrt_is_managed_app      000000018003b8d0 f   LIBCMTD:utility_desktop.obj
 0001:0003a980       __scrt_set_unhandled_exception_filter 000000018003b980 f   LIBCMTD:utility_desktop.obj
 0001:0003a9a0       __scrt_exe_initialize_mta  000000018003b9a0 f   LIBCMTD:utility_desktop.obj
 0001:0003a9a0       __scrt_stub_for_initialize_mta 000000018003b9a0 f   LIBCMTD:utility_desktop.obj
 0001:0003a9b0       __scrt_unhandled_exception_filter 000000018003b9b0 f   LIBCMTD:utility_desktop.obj
 0001:0003aa30       _guard_check_icall_nop     000000018003ba30 f i LIBCMTD:guard_support.obj
 0001:0003aa40       ReadNoFence64              000000018003ba40 f i LIBCMTD:guard_support.obj
 0001:0003aa60       ReadPointerNoFence         000000018003ba60 f i LIBCMTD:guard_support.obj
 0001:0003aa80       _guard_icall_checks_enforced 000000018003ba80 f i LIBCMTD:guard_support.obj
 0001:0003aac0       _guard_rf_checks_enforced  000000018003bac0 f i LIBCMTD:guard_support.obj
 0001:0003ab90       __security_init_cookie     000000018003bb90 f   LIBCMTD:gs_support.obj
 0001:0003ac10       ?__scrt_initialize_type_info@@YAXXZ 000000018003bc10 f   LIBCMTD:tncleanup.obj
 0001:0003ac30       ?__scrt_uninitialize_type_info@@YAXXZ 000000018003bc30 f   LIBCMTD:tncleanup.obj
 0001:0003ac50       __local_stdio_scanf_options 000000018003bc50 f i LIBCMTD:default_local_stdio_options.obj
 0001:0003ac60       __scrt_initialize_default_local_stdio_options 000000018003bc60 f   LIBCMTD:default_local_stdio_options.obj
 0001:0003acb0       __scrt_get_dyn_tls_init_callback 000000018003bcb0 f   LIBCMTD:dyn_tls_init.obj
 0001:0003acc0       _RTC_Initialize            000000018003bcc0 f   LIBCMTD:initsect.obj
 0001:0003ad10       _RTC_Terminate             000000018003bd10 f   LIBCMTD:initsect.obj
 0001:0003b270       ?_RTC_GetSrcLine@@YAHPEAEPEA_WKPEAH1K@Z 000000018003c270 f   LIBCMTD:pdblkup.obj
 0001:0003b640       ??0bad_alloc@std@@AEAA@QEBD@Z 000000018003c640 f i LIBCMTD:throw_bad_alloc.obj
 0001:0003b680       ??0bad_alloc@std@@QEAA@AEBV01@@Z 000000018003c680 f i LIBCMTD:throw_bad_alloc.obj
 0001:0003b6c0       ??0bad_alloc@std@@QEAA@XZ  000000018003c6c0 f i LIBCMTD:throw_bad_alloc.obj
 0001:0003b700       ??0bad_array_new_length@std@@QEAA@AEBV01@@Z 000000018003c700 f i LIBCMTD:throw_bad_alloc.obj
 0001:0003b740       ??0bad_array_new_length@std@@QEAA@XZ 000000018003c740 f i LIBCMTD:throw_bad_alloc.obj
 0001:0003b780       ??0exception@std@@QEAA@AEBV01@@Z 000000018003c780 f i LIBCMTD:throw_bad_alloc.obj
 0001:0003b7e0       ??0exception@std@@QEAA@QEBDH@Z 000000018003c7e0 f i LIBCMTD:throw_bad_alloc.obj
 0001:0003b830       ??1bad_alloc@std@@UEAA@XZ  000000018003c830 f i LIBCMTD:throw_bad_alloc.obj
 0001:0003b850       ??1bad_array_new_length@std@@UEAA@XZ 000000018003c850 f i LIBCMTD:throw_bad_alloc.obj
 0001:0003b870       ??1exception@std@@UEAA@XZ  000000018003c870 f i LIBCMTD:throw_bad_alloc.obj
 0001:0003b8a0       ??_Gbad_alloc@std@@UEAAPEAXI@Z 000000018003c8a0 f i LIBCMTD:throw_bad_alloc.obj
 0001:0003b8a0       ??_Ebad_alloc@std@@UEAAPEAXI@Z 000000018003c8a0 f i LIBCMTD:throw_bad_alloc.obj
 0001:0003b8e0       ??_Ebad_array_new_length@std@@UEAAPEAXI@Z 000000018003c8e0 f i LIBCMTD:throw_bad_alloc.obj
 0001:0003b8e0       ??_Gbad_array_new_length@std@@UEAAPEAXI@Z 000000018003c8e0 f i LIBCMTD:throw_bad_alloc.obj
 0001:0003b920       ??_Gexception@std@@UEAAPEAXI@Z 000000018003c920 f i LIBCMTD:throw_bad_alloc.obj
 0001:0003b920       ??_Eexception@std@@UEAAPEAXI@Z 000000018003c920 f i LIBCMTD:throw_bad_alloc.obj
 0001:0003b960       ?__scrt_throw_std_bad_alloc@@YAXXZ 000000018003c960 f   LIBCMTD:throw_bad_alloc.obj
 0001:0003b990       ?__scrt_throw_std_bad_array_new_length@@YAXXZ 000000018003c990 f   LIBCMTD:throw_bad_alloc.obj
 0001:0003b9c0       ?what@exception@std@@UEBAPEBDXZ 000000018003c9c0 f i LIBCMTD:throw_bad_alloc.obj
 0001:0003ba00       ??1type_info@@UEAA@XZ      000000018003ca00 f   LIBCMTD:std_type_info_static.obj
 0001:0003ba20       ??_Etype_info@@UEAAPEAXI@Z 000000018003ca20 f i LIBCMTD:std_type_info_static.obj
 0001:0003ba20       ??_Gtype_info@@UEAAPEAXI@Z 000000018003ca20 f i LIBCMTD:std_type_info_static.obj
 0001:0003ba5c       ??$?2PEAUHINSTANCE__@@@Wrapper@?$CSimpleArray@PEAUHINSTANCE__@@V?$CSimpleArrayEqualHelper@PEAUHINSTANCE__@@@ATL@@@ATL@@SAPEAX_KPEAPEAUHINSTANCE__@@@Z 000000018003ca5c f i atls:atlbase.obj
 0001:0003ba60       ??0?$CSimpleArray@PEAUHINSTANCE__@@V?$CSimpleArrayEqualHelper@PEAUHINSTANCE__@@@ATL@@@ATL@@QEAA@XZ 000000018003ca60 f i atls:atlbase.obj
 0001:0003ba70       ??0CAtlBaseModule@ATL@@QEAA@XZ 000000018003ca70 f   atls:atlbase.obj
 0001:0003bb18       ??0Wrapper@?$CSimpleArray@PEAUHINSTANCE__@@V?$CSimpleArrayEqualHelper@PEAUHINSTANCE__@@@ATL@@@ATL@@QEAA@AEBQEAUHINSTANCE__@@@Z 000000018003cb18 f i atls:atlbase.obj
 0001:0003bb24       ??0_ATL_BASE_MODULE70@ATL@@QEAA@XZ 000000018003cb24 f i atls:atlbase.obj
 0001:0003bb50       ??1?$CSimpleArray@PEAUHINSTANCE__@@V?$CSimpleArrayEqualHelper@PEAUHINSTANCE__@@@ATL@@@ATL@@QEAA@XZ 000000018003cb50 f i atls:atlbase.obj
 0001:0003bb78       ??1CAtlBaseModule@ATL@@QEAA@XZ 000000018003cb78 f   atls:atlbase.obj
 0001:0003bbac       ??1_ATL_BASE_MODULE70@ATL@@QEAA@XZ 000000018003cbac f i atls:atlbase.obj
 0001:0003bbd8       ??A?$CSimpleArray@PEAUHINSTANCE__@@V?$CSimpleArrayEqualHelper@PEAUHINSTANCE__@@@ATL@@@ATL@@QEAAAEAPEAUHINSTANCE__@@H@Z 000000018003cbd8 f i atls:atlbase.obj
 0001:0003bc04       ?Add@?$CSimpleArray@PEAUHINSTANCE__@@V?$CSimpleArrayEqualHelper@PEAUHINSTANCE__@@@ATL@@@ATL@@QEAAHAEBQEAUHINSTANCE__@@@Z 000000018003cc04 f i atls:atlbase.obj
 0001:0003bcb8       ?AddResourceInstance@CAtlBaseModule@ATL@@QEAA_NPEAUHINSTANCE__@@@Z 000000018003ccb8 f   atls:atlbase.obj
 0001:0003bd00       ?GetHInstanceAt@CAtlBaseModule@ATL@@QEAAPEAUHINSTANCE__@@H@Z 000000018003cd00 f   atls:atlbase.obj
 0001:0003bd78       ?GetSize@?$CSimpleArray@PEAUHINSTANCE__@@V?$CSimpleArrayEqualHelper@PEAUHINSTANCE__@@@ATL@@@ATL@@QEBAHXZ 000000018003cd78 f i atls:atlbase.obj
 0001:0003bd7c       ?InternalSetAtIndex@?$CSimpleArray@PEAUHINSTANCE__@@V?$CSimpleArrayEqualHelper@PEAUHINSTANCE__@@@ATL@@@ATL@@QEAAXHAEBQEAUHINSTANCE__@@@Z 000000018003cd7c f i atls:atlbase.obj
 0001:0003bd94       ?RemoveAll@?$CSimpleArray@PEAUHINSTANCE__@@V?$CSimpleArrayEqualHelper@PEAUHINSTANCE__@@@ATL@@@ATL@@QEAAXXZ 000000018003cd94 f i atls:atlbase.obj
 0001:0003bdbc       ?RemoveAt@?$CSimpleArray@PEAUHINSTANCE__@@V?$CSimpleArrayEqualHelper@PEAUHINSTANCE__@@@ATL@@@ATL@@QEAAHH@Z 000000018003cdbc f i atls:atlbase.obj
 0001:0003be60       ?RemoveResourceInstance@CAtlBaseModule@ATL@@QEAA_NPEAUHINSTANCE__@@@Z 000000018003ce60 f   atls:atlbase.obj
 0001:0003bee0       ?memmove_s@Checked@ATL@@YAXPEAX_KPEBX1@Z 000000018003cee0 f i atls:atlbase.obj
 0001:0003c388       ?GetCodeAddress@_stdcallthunk@ATL@@QEAAPEAXXZ 000000018003d388 f i atls:atlthunk.obj
 0001:0003c3b4       ?Init@_stdcallthunk@ATL@@QEAAH_KPEAX@Z 000000018003d3b4 f i atls:atlthunk.obj
 0001:0003c404       ?__AllocStdCallThunk@@YAPEAXXZ 000000018003d404 f   atls:atlthunk.obj
 0001:0003c40c       ?__AllocStdCallThunk@ATL@@YAPEAXXZ 000000018003d40c f   atls:atlthunk.obj
 0001:0003c414       ?__AllocStdCallThunk_cmn@@YAPEAXXZ 000000018003d414 f   atls:atlthunk.obj
 0001:0003c4ec       ?__FreeStdCallThunk@@YAXPEAX@Z 000000018003d4ec f   atls:atlthunk.obj
 0001:0003c50c       ?__FreeStdCallThunk@ATL@@YAXPEAX@Z 000000018003d50c f   atls:atlthunk.obj
 0001:0003c52c       ?__FreeStdCallThunk_cmn@@YAXPEAX@Z 000000018003d52c f   atls:atlthunk.obj
 0001:0003c5cc       AtlThunk_AllocateData      000000018003d5cc f   atls:atlthunk.obj
 0001:0003c648       AtlThunk_DataToCode        000000018003d648 f   atls:atlthunk.obj
 0001:0003c69c       AtlThunk_FreeData          000000018003d69c f   atls:atlthunk.obj
 0001:0003c6fc       AtlThunk_InitData          000000018003d6fc f   atls:atlthunk.obj
 0001:0003c7c0       memset_repmovs             000000018003d7c0 f   libvcruntimed:memset.obj
 0001:0003c7e0       memset                     000000018003d7e0 f   libvcruntimed:memset.obj
 0001:0003c970       ??$__crt_interlocked_exchange_pointer@$$A6AXXZP6AXXZ@@YAP6AXXZPEDS6AXXZQ6AXXZ@Z 000000018003d970 f i libvcruntimed:purevirt.obj
 0001:0003c990       ??$__crt_interlocked_read_pointer@$$A6AXXZ@@YAP6AXXZPEDS6AXXZ@Z 000000018003d990 f i libvcruntimed:purevirt.obj
 0001:0003c9b0       ?__crt_interlocked_read_64@@YA_JPED_J@Z 000000018003d9b0 f i libvcruntimed:purevirt.obj
 0001:0003c9d0       _get_purecall_handler      000000018003d9d0 f   libvcruntimed:purevirt.obj
 0001:0003c9f0       _purecall                  000000018003d9f0 f   libvcruntimed:purevirt.obj
 0001:0003ca30       _set_purecall_handler      000000018003da30 f   libvcruntimed:purevirt.obj
 0001:0003ca60       memcmp                     000000018003da60 f   libvcruntimed:memcmp.obj
 0001:0003cb40       memcpy_repmovs             000000018003db40 f   libvcruntimed:memcpy.obj
 0001:0003cb60       memcpy                     000000018003db60 f   libvcruntimed:memcpy.obj
 0001:0003cb60       memmove                    000000018003db60 f   libvcruntimed:memcpy.obj
 0001:0003cf40       wcsstr                     000000018003df40 f   libvcruntimed:wcsstr.obj
 0001:0003d5a0       __vcrt_initialize          000000018003e5a0 f   libvcruntimed:initialization.obj
 0001:0003d5e0       __vcrt_thread_attach       000000018003e5e0 f   libvcruntimed:initialization.obj
 0001:0003d600       __vcrt_thread_detach       000000018003e600 f   libvcruntimed:initialization.obj
 0001:0003d620       __vcrt_uninitialize        000000018003e620 f   libvcruntimed:initialization.obj
 0001:0003d640       __vcrt_uninitialize_critical 000000018003e640 f   libvcruntimed:initialization.obj
 0001:0003d660       __C_specific_handler       000000018003e660 f   libvcruntimed:riscchandler.obj
 0001:0003dad0       ??$?0AEAViterator@TryBlockMap4@FH4@@AEAV012@$0A@@?$pair@Viterator@TryBlockMap4@FH4@@V123@@std@@QEAA@AEAViterator@TryBlockMap4@FH4@@0@Z 000000018003ead0 f i libvcruntimed:risctrnsctrl.obj
 0001:0003db30       ??$?0AEAViterator@TryBlockMap@__FrameHandler3@@AEAV012@$0A@@?$pair@Viterator@TryBlockMap@__FrameHandler3@@V123@@std@@QEAA@AEAViterator@TryBlockMap@__FrameHandler3@@0@Z 000000018003eb30 f i libvcruntimed:risctrnsctrl.obj
 0001:0003dcf0       ??$_CallSETranslator@V__FrameHandler3@@@@YAHPEAUEHExceptionRecord@@PEA_KPEAU_CONTEXT@@PEAU_xDISPATCHER_CONTEXT@@PEBU_s_FuncInfo@@K1@Z 000000018003ecf0 f i libvcruntimed:risctrnsctrl.obj
 0001:0003dd80       ??$_CallSETranslator@V__FrameHandler4@@@@YAHPEAUEHExceptionRecord@@PEA_KPEAU_CONTEXT@@PEAU_xDISPATCHER_CONTEXT@@PEAUFuncInfo4@FH4@@K1@Z 000000018003ed80 f i libvcruntimed:risctrnsctrl.obj
 0001:0003de10       ??$forward@AEAViterator@TryBlockMap4@FH4@@@std@@YAAEAViterator@TryBlockMap4@FH4@@AEAV123@@Z 000000018003ee10 f i libvcruntimed:risctrnsctrl.obj
 0001:0003de20       ??$forward@AEAViterator@TryBlockMap@__FrameHandler3@@@std@@YAAEAViterator@TryBlockMap@__FrameHandler3@@AEAV123@@Z 000000018003ee20 f i libvcruntimed:risctrnsctrl.obj
 0001:0003de30       ??0FuncInfo4@FH4@@QEAA@XZ  000000018003ee30 f i libvcruntimed:risctrnsctrl.obj
 0001:0003dea0       ??0FuncInfoHeader@FH4@@QEAA@XZ 000000018003eea0 f i libvcruntimed:risctrnsctrl.obj
 0001:0003dec0       ??0iterator@TryBlockMap4@FH4@@QEAA@AEAV12@I@Z 000000018003eec0 f i libvcruntimed:risctrnsctrl.obj
 0001:0003def0       ??0iterator@TryBlockMap@__FrameHandler3@@QEAA@AEAV12@I@Z 000000018003eef0 f i libvcruntimed:risctrnsctrl.obj
 0001:0003df20       ??4iterator@TryBlockMap4@FH4@@QEAAAEAV012@AEBV012@@Z 000000018003ef20 f i libvcruntimed:risctrnsctrl.obj
 0001:0003df40       ??9iterator@TryBlockMap4@FH4@@QEBA_NAEBV012@@Z 000000018003ef40 f i libvcruntimed:risctrnsctrl.obj
 0001:0003df80       ??Diterator@TryBlockMap4@FH4@@QEAA?AUTryBlockMapEntry4@2@XZ 000000018003ef80 f i libvcruntimed:risctrnsctrl.obj
 0001:0003dfb0       ??Eiterator@TryBlockMap4@FH4@@QEAAAEAV012@XZ 000000018003efb0 f i libvcruntimed:risctrnsctrl.obj
 0001:0003dff0       ?CatchTryBlock@__FrameHandler3@@SAPEBU_s_TryBlockMapEntry@@PEBU_s_FuncInfo@@H@Z 000000018003eff0 f   libvcruntimed:risctrnsctrl.obj
 0001:0003e080       ?DecompFuncInfo@FH4@@YA_JPEAEAEAUFuncInfo4@1@_KH@Z 000000018003f080 f i libvcruntimed:risctrnsctrl.obj
 0001:0003e0c0       ?DecompFuncInfo@FH4@@YA_JPEAEAEAUFuncInfo4@1@_KH_N@Z 000000018003f0c0 f i libvcruntimed:risctrnsctrl.obj
 0001:0003e290       ?DecompTryBlock@TryBlockMap4@FH4@@AEAAXXZ 000000018003f290 f i libvcruntimed:risctrnsctrl.obj
 0001:0003e310       ?ExecutionInCatch@__FrameHandler3@@SA_NPEAU_xDISPATCHER_CONTEXT@@PEBU_s_FuncInfo@@@Z 000000018003f310 f   libvcruntimed:risctrnsctrl.obj
 0001:0003e360       ?ExecutionInCatch@__FrameHandler4@@SA_NPEAU_xDISPATCHER_CONTEXT@@PEAUFuncInfo4@FH4@@@Z 000000018003f360 f   libvcruntimed:risctrnsctrl.obj
 0001:0003e380       ?FrameUnwindToEmptyState@__FrameHandler3@@SAXPEA_KPEAU_xDISPATCHER_CONTEXT@@PEBU_s_FuncInfo@@@Z 000000018003f380 f   libvcruntimed:risctrnsctrl.obj
 0001:0003e420       ?FrameUnwindToEmptyState@__FrameHandler4@@SAXPEA_KPEAU_xDISPATCHER_CONTEXT@@PEAUFuncInfo4@FH4@@@Z 000000018003f420 f   libvcruntimed:risctrnsctrl.obj
 0001:0003e470       ?GetEstablisherFrame@__FrameHandler3@@SAPEA_KPEA_KPEAU_xDISPATCHER_CONTEXT@@PEBU_s_FuncInfo@@0@Z 000000018003f470 f   libvcruntimed:risctrnsctrl.obj
 0001:0003e5e0       ?GetEstablisherFrame@__FrameHandler4@@SAPEA_KPEA_KPEAU_xDISPATCHER_CONTEXT@@PEAUFuncInfo4@FH4@@0@Z 000000018003f5e0 f   libvcruntimed:risctrnsctrl.obj
 0001:0003e650       ?GetRangeOfTrysToCheck@__FrameHandler3@@SA?AU?$pair@Viterator@TryBlockMap@__FrameHandler3@@V123@@std@@AEAVTryBlockMap@1@HPEAU_xDISPATCHER_CONTEXT@@PEBU_s_FuncInfo@@H@Z 000000018003f650 f   libvcruntimed:risctrnsctrl.obj
 0001:0003e890       ?GetRangeOfTrysToCheck@__FrameHandler4@@SA?AU?$pair@Viterator@TryBlockMap4@FH4@@V123@@std@@AEAVTryBlockMap4@FH4@@HPEAU_xDISPATCHER_CONTEXT@@PEAUFuncInfo4@5@H@Z 000000018003f890 f   libvcruntimed:risctrnsctrl.obj
 0001:0003ea40       ?ReadInt@FH4@@YAHPEAPEAE@Z 000000018003fa40 f i libvcruntimed:risctrnsctrl.obj
 0001:0003ea80       ?ReadUnsigned@FH4@@YAIPEAPEAE@Z 000000018003fa80 f i libvcruntimed:risctrnsctrl.obj
 0001:0003eb10       ?UnwindNestedFrames@__FrameHandler3@@SAXPEA_KPEAUEHExceptionRecord@@PEAU_CONTEXT@@0PEAXPEBU_s_FuncInfo@@HHPEBU_s_HandlerType@@PEAU_xDISPATCHER_CONTEXT@@E@Z 000000018003fb10 f   libvcruntimed:risctrnsctrl.obj
 0001:0003ec80       ?UnwindNestedFrames@__FrameHandler4@@SAXPEA_KPEAUEHExceptionRecord@@PEAU_CONTEXT@@0PEAXPEAUFuncInfo4@FH4@@HHPEAUHandlerType4@5@PEAU_xDISPATCHER_CONTEXT@@E@Z 000000018003fc80 f   libvcruntimed:risctrnsctrl.obj
 0001:0003ee50       ?begin@TryBlockMap4@FH4@@QEAA?AViterator@12@XZ 000000018003fe50 f i libvcruntimed:risctrnsctrl.obj
 0001:0003ee80       ?end@TryBlockMap4@FH4@@QEAA?AViterator@12@XZ 000000018003fe80 f i libvcruntimed:risctrnsctrl.obj
 0001:0003eeb0       ?imageRelToByteBuffer@FH4@@YAPEAE_KH@Z 000000018003feb0 f i libvcruntimed:risctrnsctrl.obj
 0001:0003eed0       ?incrementToSentinel@iterator@TryBlockMap4@FH4@@QEAAXXZ 000000018003fed0 f i libvcruntimed:risctrnsctrl.obj
 0001:0003eef0       ?setBuffer@TryBlockMap4@FH4@@QEAAXViterator@12@@Z 000000018003fef0 f i libvcruntimed:risctrnsctrl.obj
 0001:0003ef60       _CreateFrameInfo           000000018003ff60 f   libvcruntimed:risctrnsctrl.obj
 0001:0003efd0       _FindAndUnlinkFrame        000000018003ffd0 f   libvcruntimed:risctrnsctrl.obj
 0001:0003f060       _GetImageBase              0000000180040060 f   libvcruntimed:risctrnsctrl.obj
 0001:0003f080       _GetThrowImageBase         0000000180040080 f   libvcruntimed:risctrnsctrl.obj
 0001:0003f0a0       _SetImageBase              00000001800400a0 f   libvcruntimed:risctrnsctrl.obj
 0001:0003f0c0       _SetThrowImageBase         00000001800400c0 f   libvcruntimed:risctrnsctrl.obj
 0001:0003f0e0       __CxxFrameHandler          00000001800400e0 f   libvcruntimed:risctrnsctrl.obj
 0001:0003f120       __CxxFrameHandler2         0000000180040120 f   libvcruntimed:risctrnsctrl.obj
 0001:0003f160       __CxxFrameHandler3         0000000180040160 f   libvcruntimed:risctrnsctrl.obj
 0001:0003f240       __CxxFrameHandler4         0000000180040240 f   libvcruntimed:risctrnsctrl.obj
 0001:0003f350       __C_specific_handler_noexcept 0000000180040350 f   libvcruntimed:chandler_noexcept.obj
 0001:0003f3c0       ?<lambda_invoker_cdecl>@_Closure_wrapper_b75ec0ea_1@@CAPEAX_K@Z 00000001800403c0 f i libvcruntimed:std_type_info.obj
 0001:0003f3e0       ?<lambda_invoker_cdecl>@_Closure_wrapper_b75ec0ea_2@@CAXQEAX@Z 00000001800403e0 f i libvcruntimed:std_type_info.obj
 0001:0003f400       ??$?RD@__crt_internal_free_policy@@QEBAXQEBD@Z 0000000180040400 f i libvcruntimed:std_type_info.obj
 0001:0003f430       ??$?RX@__crt_internal_free_policy@@QEBAXQEBX@Z 0000000180040430 f i libvcruntimed:std_type_info.obj
 0001:0003f460       ??$__crt_interlocked_compare_exchange_pointer@$$CBDPEAD$$T@@YAPEBDPEDSEBDQEAD$$T@Z 0000000180040460 f i libvcruntimed:std_type_info.obj
 0001:0003f4a0       ??$__crt_interlocked_read_pointer@$$CBD@@YAPEBDPEDSEBD@Z 00000001800404a0 f i libvcruntimed:std_type_info.obj
 0001:0003f4c0       ??0?$__crt_unique_heap_ptr@DU__crt_internal_free_policy@@@@QEAA@QEAD@Z 00000001800404c0 f i libvcruntimed:std_type_info.obj
 0001:0003f4e0       ??0?$__crt_unique_heap_ptr@XU__crt_internal_free_policy@@@@QEAA@QEAX@Z 00000001800404e0 f i libvcruntimed:std_type_info.obj
 0001:0003f500       ??1?$__crt_unique_heap_ptr@DU__crt_internal_free_policy@@@@QEAA@XZ 0000000180040500 f i libvcruntimed:std_type_info.obj
 0001:0003f520       ??1?$__crt_unique_heap_ptr@XU__crt_internal_free_policy@@@@QEAA@XZ 0000000180040520 f i libvcruntimed:std_type_info.obj
 0001:0003f540       ??B?$__crt_unique_heap_ptr@DU__crt_internal_free_policy@@@@QEBA_NXZ 0000000180040540 f i libvcruntimed:std_type_info.obj
 0001:0003f560       ??B?$__crt_unique_heap_ptr@XU__crt_internal_free_policy@@@@QEBA_NXZ 0000000180040560 f i libvcruntimed:std_type_info.obj
 0001:0003f580       ??B_Closure_wrapper_b75ec0ea_1@@QEBAP6APEAX_K@ZXZ 0000000180040580 f i libvcruntimed:std_type_info.obj
 0001:0003f590       ??B_Closure_wrapper_b75ec0ea_2@@QEBAP6AXQEAX@ZXZ 0000000180040590 f i libvcruntimed:std_type_info.obj
 0001:0003f600       ?detach@?$__crt_unique_heap_ptr@XU__crt_internal_free_policy@@@@QEAAPEAXXZ 0000000180040600 f i libvcruntimed:std_type_info.obj
 0001:0003f630       ?get@?$__crt_unique_heap_ptr@DU__crt_internal_free_policy@@@@QEBAPEADXZ 0000000180040630 f i libvcruntimed:std_type_info.obj
 0001:0003f640       ?get@?$__crt_unique_heap_ptr@XU__crt_internal_free_policy@@@@QEBAPEAXXZ 0000000180040640 f i libvcruntimed:std_type_info.obj
 0001:0003f650       ?is_valid@?$__crt_unique_heap_ptr@DU__crt_internal_free_policy@@@@QEBA_NXZ 0000000180040650 f i libvcruntimed:std_type_info.obj
 0001:0003f680       ?is_valid@?$__crt_unique_heap_ptr@XU__crt_internal_free_policy@@@@QEBA_NXZ 0000000180040680 f i libvcruntimed:std_type_info.obj
 0001:0003f6b0       ?release@?$__crt_unique_heap_ptr@DU__crt_internal_free_policy@@@@QEAAXXZ 00000001800406b0 f i libvcruntimed:std_type_info.obj
 0001:0003f6e0       ?release@?$__crt_unique_heap_ptr@XU__crt_internal_free_policy@@@@QEAAXXZ 00000001800406e0 f i libvcruntimed:std_type_info.obj
 0001:0003f710       __std_type_info_compare    0000000180040710 f   libvcruntimed:std_type_info.obj
 0001:0003f750       __std_type_info_destroy_list 0000000180040750 f   libvcruntimed:std_type_info.obj
 0001:0003f7b0       __std_type_info_hash       00000001800407b0 f   libvcruntimed:std_type_info.obj
 0001:0003f860       __std_type_info_name       0000000180040860 f   libvcruntimed:std_type_info.obj
 0001:0003fb10       __vcrt_GetModuleFileNameW  0000000180040b10 f   libvcruntimed:winapi_thunks.obj
 0001:0003fb40       __vcrt_GetModuleHandleW    0000000180040b40 f   libvcruntimed:winapi_thunks.obj
 0001:0003fb60       __vcrt_LoadLibraryExW      0000000180040b60 f   libvcruntimed:winapi_thunks.obj
 0001:0003fb90       ??$?RD@__crt_public_free_policy@@QEBAXQEBD@Z 0000000180040b90 f i libvcruntimed:std_exception.obj
 0001:0003fbb0       ??0?$__crt_unique_heap_ptr@DU__crt_public_free_policy@@@@QEAA@QEAD@Z 0000000180040bb0 f i libvcruntimed:std_exception.obj
 0001:0003fbd0       ??1?$__crt_unique_heap_ptr@DU__crt_public_free_policy@@@@QEAA@XZ 0000000180040bd0 f i libvcruntimed:std_exception.obj
 0001:0003fbf0       ??B?$__crt_unique_heap_ptr@DU__crt_public_free_policy@@@@QEBA_NXZ 0000000180040bf0 f i libvcruntimed:std_exception.obj
 0001:0003fc10       ?detach@?$__crt_unique_heap_ptr@DU__crt_public_free_policy@@@@QEAAPEADXZ 0000000180040c10 f i libvcruntimed:std_exception.obj
 0001:0003fc40       ?get@?$__crt_unique_heap_ptr@DU__crt_public_free_policy@@@@QEBAPEADXZ 0000000180040c40 f i libvcruntimed:std_exception.obj
 0001:0003fc50       ?is_valid@?$__crt_unique_heap_ptr@DU__crt_public_free_policy@@@@QEBA_NXZ 0000000180040c50 f i libvcruntimed:std_exception.obj
 0001:0003fc80       ?release@?$__crt_unique_heap_ptr@DU__crt_public_free_policy@@@@QEAAXXZ 0000000180040c80 f i libvcruntimed:std_exception.obj
 0001:0003fcb0       __std_exception_copy       0000000180040cb0 f   libvcruntimed:std_exception.obj
 0001:0003fdf0       __std_exception_destroy    0000000180040df0 f   libvcruntimed:std_exception.obj
 0001:0003fe30       _CxxThrowException         0000000180040e30 f   libvcruntimed:throw.obj
 0001:0003ff80       ??$?RU__vcrt_ptd@@@__crt_internal_free_policy@@QEBAXQEBU__vcrt_ptd@@@Z 0000000180040f80 f i libvcruntimed:per_thread_data.obj
 0001:0003ffb0       ??0?$__crt_unique_heap_ptr@U__vcrt_ptd@@U__crt_internal_free_policy@@@@QEAA@QEAU__vcrt_ptd@@@Z 0000000180040fb0 f i libvcruntimed:per_thread_data.obj
 0001:0003fff0       ??1?$__crt_unique_heap_ptr@U__vcrt_ptd@@U__crt_internal_free_policy@@@@QEAA@XZ 0000000180040ff0 f i libvcruntimed:per_thread_data.obj
 0001:00040030       ??B?$__crt_unique_heap_ptr@U__vcrt_ptd@@U__crt_internal_free_policy@@@@QEBA_NXZ 0000000180041030 f i libvcruntimed:per_thread_data.obj
 0001:00040050       ?detach@?$__crt_unique_heap_ptr@U__vcrt_ptd@@U__crt_internal_free_policy@@@@QEAAPEAU__vcrt_ptd@@XZ 0000000180041050 f i libvcruntimed:per_thread_data.obj
 0001:00040080       ?get@?$__crt_unique_heap_ptr@U__vcrt_ptd@@U__crt_internal_free_policy@@@@QEBAPEAU__vcrt_ptd@@XZ 0000000180041080 f i libvcruntimed:per_thread_data.obj
 0001:00040090       ?is_valid@?$__crt_unique_heap_ptr@U__vcrt_ptd@@U__crt_internal_free_policy@@@@QEBA_NXZ 0000000180041090 f i libvcruntimed:per_thread_data.obj
 0001:000400c0       ?release@?$__crt_unique_heap_ptr@U__vcrt_ptd@@U__crt_internal_free_policy@@@@QEAAXXZ 00000001800410c0 f i libvcruntimed:per_thread_data.obj
 0001:00040130       __vcrt_freefls             0000000180041130 f   libvcruntimed:per_thread_data.obj
 0001:00040170       __vcrt_freeptd             0000000180041170 f   libvcruntimed:per_thread_data.obj
 0001:000401d0       __vcrt_getptd              00000001800411d0 f   libvcruntimed:per_thread_data.obj
 0001:00040200       __vcrt_getptd_noexit       0000000180041200 f   libvcruntimed:per_thread_data.obj
 0001:000403a0       __vcrt_getptd_noinit       00000001800413a0 f   libvcruntimed:per_thread_data.obj
 0001:00040400       __vcrt_initialize_ptd      0000000180041400 f   libvcruntimed:per_thread_data.obj
 0001:00040450       __vcrt_uninitialize_ptd    0000000180041450 f   libvcruntimed:per_thread_data.obj
 0001:00040480       __vcrt_initialize_locks    0000000180041480 f   libvcruntimed:locks.obj
 0001:000404f0       __vcrt_lock                00000001800414f0 f   libvcruntimed:locks.obj
 0001:00040520       __vcrt_uninitialize_locks  0000000180041520 f   libvcruntimed:locks.obj
 0001:00040580       __vcrt_unlock              0000000180041580 f   libvcruntimed:locks.obj
 0001:000405c0       _NLG_Notify                00000001800415c0 f   libvcruntimed:notify.obj
 0001:000405e0       __NLG_Dispatch2            00000001800415e0 f   libvcruntimed:notify.obj
 0001:000405f0       __NLG_Return2              00000001800415f0 f   libvcruntimed:notify.obj
 0001:00040610       __except_validate_context_record 0000000180041610 f   libvcruntimed:jbcxrval.obj
 0001:00040670       __except_validate_jump_buffer 0000000180041670 f   libvcruntimed:jbcxrval.obj
 0001:00040690       __except_validate_jump_buffer_common 0000000180041690 f i libvcruntimed:jbcxrval.obj
 0001:00040710       __DestructExceptionObject  0000000180041710 f   libvcruntimed:ehhelpers.obj
 0001:00040810       ?_CallMemberFunction0@@YAXQEAX0@Z 0000000180041810 f i libvcruntimed:ehhelpers.obj
 0001:00040840       ?raw_name@type_info@@QEBAPEBDXZ 0000000180041840 f i libvcruntimed:ehhelpers.obj
 0001:00040850       _IsExceptionObjectToBeDestroyed 0000000180041850 f   libvcruntimed:ehhelpers.obj
 0001:000408a0       _SetWinRTOutOfMemoryExceptionCallback 00000001800418a0 f   libvcruntimed:ehhelpers.obj
 0001:000408c0       __AdjustPointer            00000001800418c0 f   libvcruntimed:ehhelpers.obj
 0001:00040940       __FrameUnwindFilter        0000000180041940 f   libvcruntimed:ehhelpers.obj
 0001:000409d0       __GetPlatformExceptionInfo 00000001800419d0 f   libvcruntimed:ehhelpers.obj
 0001:00040a80       __current_exception        0000000180041a80 f   libvcruntimed:ehhelpers.obj
 0001:00040aa0       __current_exception_context 0000000180041aa0 f   libvcruntimed:ehhelpers.obj
 0001:00040ac0       __processing_throw         0000000180041ac0 f   libvcruntimed:ehhelpers.obj
 0001:00040ae0       __std_terminate            0000000180041ae0 f   libvcruntimed:ehhelpers.obj
 0001:00040af0       _is_exception_typeof       0000000180041af0 f   libvcruntimed:ehhelpers.obj
 0001:00040c40       ?GetCurrentState@__FrameHandler3@@SAHPEA_KPEAU_xDISPATCHER_CONTEXT@@PEBU_s_FuncInfo@@@Z 0000000180041c40 f   libvcruntimed:ehstate.obj
 0001:00040ca0       ?GetUnwindTryBlock@__FrameHandler3@@SAHPEA_KPEAU_xDISPATCHER_CONTEXT@@PEBU_s_FuncInfo@@@Z 0000000180041ca0 f   libvcruntimed:ehstate.obj
 0001:00040cf0       ?SetState@__FrameHandler3@@SAXPEA_KPEBU_s_FuncInfo@@H@Z 0000000180041cf0 f   libvcruntimed:ehstate.obj
 0001:00040d20       ?SetUnwindTryBlock@__FrameHandler3@@SAXPEA_KPEAU_xDISPATCHER_CONTEXT@@PEBU_s_FuncInfo@@H@Z 0000000180041d20 f   libvcruntimed:ehstate.obj
 0001:00040d90       ?StateFromControlPc@__FrameHandler3@@SAHPEBU_s_FuncInfo@@PEAU_xDISPATCHER_CONTEXT@@@Z 0000000180041d90 f   libvcruntimed:ehstate.obj
 0001:00040dd0       ?StateFromControlPc@__FrameHandler4@@SAHPEAUFuncInfo4@FH4@@PEAU_xDISPATCHER_CONTEXT@@@Z 0000000180041dd0 f   libvcruntimed:ehstate.obj
 0001:00040e10       ?StateFromIp@__FrameHandler3@@SAHPEBU_s_FuncInfo@@PEAU_xDISPATCHER_CONTEXT@@_K@Z 0000000180041e10 f   libvcruntimed:ehstate.obj
 0001:00040f00       ?StateFromIp@__FrameHandler4@@SAHPEAUFuncInfo4@FH4@@PEAU_xDISPATCHER_CONTEXT@@_K@Z 0000000180041f00 f   libvcruntimed:ehstate.obj
 0001:00040ff0       ?__FuncRelToRealOffset@@YA_KPEAU_xDISPATCHER_CONTEXT@@I@Z 0000000180041ff0 f i libvcruntimed:ehstate.obj
 0001:00041020       ?__RVAtoRealOffset@@YA_KPEAU_xDISPATCHER_CONTEXT@@H@Z 0000000180042020 f i libvcruntimed:ehstate.obj
 0001:000433b0       ??$TypeMatchHelper@V__FrameHandler3@@@@YAHPEBU_s_HandlerType@@PEBU_s_CatchableType@@PEBU_s_ThrowInfo@@@Z 00000001800443b0 f i libvcruntimed:frame.obj
 0001:000435b0       ??$TypeMatchHelper@V__FrameHandler4@@@@YAHPEAUHandlerType4@FH4@@PEBU_s_CatchableType@@PEBU_s_ThrowInfo@@@Z 00000001800445b0 f i libvcruntimed:frame.obj
 0001:000437c0       ??$__InternalCxxFrameHandler@V__FrameHandler3@@@@YA?AW4_EXCEPTION_DISPOSITION@@PEAUEHExceptionRecord@@PEA_KPEAU_CONTEXT@@PEAU_xDISPATCHER_CONTEXT@@PEBU_s_FuncInfo@@H1E@Z 00000001800447c0 f i libvcruntimed:frame.obj
 0001:00043c60       ??$__InternalCxxFrameHandler@V__FrameHandler4@@@@YA?AW4_EXCEPTION_DISPOSITION@@PEAUEHExceptionRecord@@PEA_KPEAU_CONTEXT@@PEAU_xDISPATCHER_CONTEXT@@PEAUFuncInfo4@FH4@@H1E@Z 0000000180044c60 f i libvcruntimed:frame.obj
 0001:00044120       ??0HandlerMap4@FH4@@QEAA@PEBUTryBlockMapEntry4@1@_KH@Z 0000000180045120 f i libvcruntimed:frame.obj
 0001:000441e0       ??0HandlerMap@__FrameHandler3@@QEAA@PEBU_s_TryBlockMapEntry@@_KI@Z 00000001800451e0 f i libvcruntimed:frame.obj
 0001:00044230       ??0HandlerType4@FH4@@QEAA@XZ 0000000180045230 f i libvcruntimed:frame.obj
 0001:00044250       ??0TryBlockMap4@FH4@@QEAA@PEBUFuncInfo4@1@_K@Z 0000000180045250 f i libvcruntimed:frame.obj
 0001:000442e0       ??0TryBlockMap@__FrameHandler3@@QEAA@PEBU_s_FuncInfo@@_K@Z 00000001800452e0 f i libvcruntimed:frame.obj
 0001:00044310       ??0UWMap4@FH4@@QEAA@PEBUFuncInfo4@1@_K@Z 0000000180045310 f i libvcruntimed:frame.obj
 0001:00044380       ??0bad_exception@std@@QEAA@AEBV01@@Z 0000000180045380 f i libvcruntimed:frame.obj
 0001:000443c0       ??0bad_exception@std@@QEAA@XZ 00000001800453c0 f i libvcruntimed:frame.obj
 0001:00044400       ??0iterator@HandlerMap4@FH4@@QEAA@AEAV12@I@Z 0000000180045400 f i libvcruntimed:frame.obj
 0001:00044430       ??0iterator@HandlerMap@__FrameHandler3@@QEAA@AEAV12@I@Z 0000000180045430 f i libvcruntimed:frame.obj
 0001:00044460       ??0iterator@UWMap4@FH4@@QEAA@AEAV12@PEAE@Z 0000000180045460 f i libvcruntimed:frame.obj
 0001:00044490       ??1bad_exception@std@@UEAA@XZ 0000000180045490 f i libvcruntimed:frame.obj
 0001:000444b0       ??4iterator@UWMap4@FH4@@QEAAAEAV012@AEBV012@@Z 00000001800454b0 f i libvcruntimed:frame.obj
 0001:00044500       ??8iterator@HandlerMap4@FH4@@QEBA_NAEBV012@@Z 0000000180045500 f i libvcruntimed:frame.obj
 0001:00044540       ??8iterator@HandlerMap@__FrameHandler3@@QEBA_NAEBV012@@Z 0000000180045540 f i libvcruntimed:frame.obj
 0001:00044580       ??8type_info@@QEBA_NAEBV0@@Z 0000000180045580 f i libvcruntimed:frame.obj
 0001:000445d0       ??9iterator@HandlerMap4@FH4@@QEBA_NAEBV012@@Z 00000001800455d0 f i libvcruntimed:frame.obj
 0001:00044610       ??9iterator@HandlerMap@__FrameHandler3@@QEBA_NAEBV012@@Z 0000000180045610 f i libvcruntimed:frame.obj
 0001:00044650       ??Diterator@HandlerMap4@FH4@@QEAA?AUHandlerType4@2@XZ 0000000180045650 f i libvcruntimed:frame.obj
 0001:00044680       ??Diterator@HandlerMap@__FrameHandler3@@QEAA?BU_s_HandlerType@@XZ 0000000180045680 f i libvcruntimed:frame.obj
 0001:000446c0       ??Diterator@TryBlockMap@__FrameHandler3@@QEAA?BU_s_TryBlockMapEntry@@XZ 00000001800456c0 f i libvcruntimed:frame.obj
 0001:00044710       ??Diterator@UWMap4@FH4@@QEAA?AUUnwindMapEntry4@2@XZ 0000000180045710 f i libvcruntimed:frame.obj
 0001:00044790       ??Eiterator@HandlerMap4@FH4@@QEAAAEAV012@XZ 0000000180045790 f i libvcruntimed:frame.obj
 0001:000447d0       ??Eiterator@HandlerMap@__FrameHandler3@@QEAAAEAV012@XZ 00000001800457d0 f i libvcruntimed:frame.obj
 0001:000447f0       ??Eiterator@TryBlockMap@__FrameHandler3@@QEAAAEAV012@XZ 00000001800457f0 f i libvcruntimed:frame.obj
 0001:00044810       ??Eiterator@UWMap4@FH4@@QEAAAEAV012@XZ 0000000180045810 f i libvcruntimed:frame.obj
 0001:00044850       ??Giterator@UWMap4@FH4@@QEBA_JAEBV012@@Z 0000000180045850 f i libvcruntimed:frame.obj
 0001:00044870       ??Miterator@TryBlockMap4@FH4@@QEBA_NAEBV012@@Z 0000000180045870 f i libvcruntimed:frame.obj
 0001:000448b0       ??Miterator@TryBlockMap@__FrameHandler3@@QEBA_NAEBV012@@Z 00000001800458b0 f i libvcruntimed:frame.obj
 0001:000448f0       ??Oiterator@UWMap4@FH4@@QEBA_NAEBV012@@Z 00000001800458f0 f i libvcruntimed:frame.obj
 0001:00044930       ??Piterator@UWMap4@FH4@@QEBA_NAEBV012@@Z 0000000180045930 f i libvcruntimed:frame.obj
 0001:00044970       ??_Ebad_exception@std@@UEAAPEAXI@Z 0000000180045970 f i libvcruntimed:frame.obj
 0001:00044970       ??_Gbad_exception@std@@UEAAPEAXI@Z 0000000180045970 f i libvcruntimed:frame.obj
 0001:000449b0       ?BuildCatchObject@__FrameHandler3@@SAXPEAUEHExceptionRecord@@PEAXPEBU_s_HandlerType@@PEBU_s_CatchableType@@@Z 00000001800459b0 f   libvcruntimed:frame.obj
 0001:000449f0       ?BuildCatchObject@__FrameHandler4@@SAXPEAUEHExceptionRecord@@PEAXPEAUHandlerType4@FH4@@PEBU_s_CatchableType@@@Z 00000001800459f0 f   libvcruntimed:frame.obj
 0001:00044a30       ?BuildCatchObjectHelper@__FrameHandler3@@SAHPEAUEHExceptionRecord@@PEAXPEBU_s_HandlerType@@PEBU_s_CatchableType@@@Z 0000000180045a30 f   libvcruntimed:frame.obj
 0001:00044a70       ?BuildCatchObjectHelper@__FrameHandler4@@SAHPEAUEHExceptionRecord@@PEAXPEAUHandlerType4@FH4@@PEBU_s_CatchableType@@@Z 0000000180045a70 f   libvcruntimed:frame.obj
 0001:00044ab0       ?CxxCallCatchBlock@__FrameHandler3@@SAPEAXPEAU_EXCEPTION_RECORD@@@Z 0000000180045ab0 f   libvcruntimed:frame.obj
 0001:00044d10       ?CxxCallCatchBlock@__FrameHandler4@@SAPEAXPEAU_EXCEPTION_RECORD@@@Z 0000000180045d10 f   libvcruntimed:frame.obj
 0001:00045040       ?DecompHandler@HandlerMap4@FH4@@AEAAXXZ 0000000180046040 f i libvcruntimed:frame.obj
 0001:00045410       ?FrameUnwindToState@__FrameHandler3@@SAXPEA_KPEAU_xDISPATCHER_CONTEXT@@PEBU_s_FuncInfo@@H@Z 0000000180046410 f   libvcruntimed:frame.obj
 0001:00045660       ?FrameUnwindToState@__FrameHandler4@@SAXPEA_KPEAU_xDISPATCHER_CONTEXT@@PEAUFuncInfo4@FH4@@H@Z 0000000180046660 f   libvcruntimed:frame.obj
 0001:000459b0       ?GetHandlerSearchState@__FrameHandler3@@SAHPEA_KPEAU_xDISPATCHER_CONTEXT@@PEBU_s_FuncInfo@@@Z 00000001800469b0 f i libvcruntimed:frame.obj
 0001:00045a60       ?GetHandlerSearchState@__FrameHandler4@@SAHPEA_KPEAU_xDISPATCHER_CONTEXT@@PEAUFuncInfo4@FH4@@@Z 0000000180046a60 f i libvcruntimed:frame.obj
 0001:00045ae0       ?GetMaxState@__FrameHandler3@@SAHPEAU_xDISPATCHER_CONTEXT@@PEBU_s_FuncInfo@@@Z 0000000180046ae0 f i libvcruntimed:frame.obj
 0001:00045b00       ?GetMaxState@__FrameHandler4@@SAHPEAU_xDISPATCHER_CONTEXT@@PEAUFuncInfo4@FH4@@@Z 0000000180046b00 f i libvcruntimed:frame.obj
 0001:00045d40       ?ReadEntry@UWMap4@FH4@@AEAAXPEAPEAE@Z 0000000180046d40 f i libvcruntimed:frame.obj
 0001:00045df0       ?TypeMatch@__FrameHandler3@@SAHPEBU_s_HandlerType@@PEBU_s_CatchableType@@PEBU_s_ThrowInfo@@@Z 0000000180046df0 f   libvcruntimed:frame.obj
 0001:00045e20       ?TypeMatch@__FrameHandler4@@SAHPEAUHandlerType4@FH4@@PEBU_s_CatchableType@@PEBU_s_ThrowInfo@@@Z 0000000180046e20 f   libvcruntimed:frame.obj
 0001:00045e50       ?WalkBack@UWMap4@FH4@@AEAAXPEAPEAE@Z 0000000180046e50 f i libvcruntimed:frame.obj
 0001:00045ea0       ?WalkBack@iterator@UWMap4@FH4@@QEAAXXZ 0000000180046ea0 f i libvcruntimed:frame.obj
 0001:00045ee0       ?WalkForward@UWMap4@FH4@@AEAAXPEAPEAE@Z 0000000180046ee0 f i libvcruntimed:frame.obj
 0001:00045f10       ?_CallMemberFunction1@@YAXQEAX00@Z 0000000180046f10 f i libvcruntimed:frame.obj
 0001:00045f50       ?_CallMemberFunction2@@YAXQEAX00H@Z 0000000180046f50 f i libvcruntimed:frame.obj
 0001:00045fa0       ?_ValidateExecute@@YA_NP6A_JXZ@Z 0000000180046fa0 f i libvcruntimed:frame.obj
 0001:00045fc0       ?_ValidateRead@@YA_NPEBXI@Z 0000000180046fc0 f i libvcruntimed:frame.obj
 0001:00045fe0       ?_ValidateWrite@@YA_NPEAXI@Z 0000000180046fe0 f i libvcruntimed:frame.obj
 0001:00046040       ?begin@HandlerMap4@FH4@@QEAA?AViterator@12@XZ 0000000180047040 f i libvcruntimed:frame.obj
 0001:00046070       ?begin@HandlerMap@__FrameHandler3@@QEAA?AViterator@12@XZ 0000000180047070 f i libvcruntimed:frame.obj
 0001:000460a0       ?begin@UWMap4@FH4@@QEAA?AViterator@12@XZ 00000001800470a0 f i libvcruntimed:frame.obj
 0001:000460d0       ?end@HandlerMap4@FH4@@QEAA?AViterator@12@XZ 00000001800470d0 f i libvcruntimed:frame.obj
 0001:00046100       ?end@HandlerMap@__FrameHandler3@@QEAA?AViterator@12@XZ 0000000180047100 f i libvcruntimed:frame.obj
 0001:00046130       ?getESTypes@__FrameHandler3@@SAPEBU_s_ESTypeList@@PEBU_s_FuncInfo@@@Z 0000000180047130 f i libvcruntimed:frame.obj
 0001:00046170       ?getESTypes@__FrameHandler4@@SAPEBU_s_ESTypeList@@PEAUFuncInfo4@FH4@@@Z 0000000180047170 f i libvcruntimed:frame.obj
 0001:00046180       ?getLastEntry@HandlerMap4@FH4@@QEAAPEAUHandlerType4@2@XZ 0000000180047180 f i libvcruntimed:frame.obj
 0001:000461c0       ?getLastEntry@HandlerMap@__FrameHandler3@@QEAAPEBU_s_HandlerType@@XZ 00000001800471c0 f i libvcruntimed:frame.obj
 0001:000461e0       ?getMagicNum@__FrameHandler3@@SAIPEBU_s_FuncInfo@@@Z 00000001800471e0 f i libvcruntimed:frame.obj
 0001:00046200       ?getMagicNum@__FrameHandler4@@SAIPEAUFuncInfo4@FH4@@@Z 0000000180047200 f i libvcruntimed:frame.obj
 0001:00046210       ?getNumTryBlocks@TryBlockMap4@FH4@@QEAAIXZ 0000000180047210 f i libvcruntimed:frame.obj
 0001:00046220       ?getNumTryBlocks@TryBlockMap@__FrameHandler3@@QEAAIXZ 0000000180047220 f i libvcruntimed:frame.obj
 0001:00046240       ?getStartStop@UWMap4@FH4@@QEAAXHHAEAViterator@12@0@Z 0000000180047240 f i libvcruntimed:frame.obj
 0001:00046360       ?getStateFromIterators@UWMap4@FH4@@SAHAEBViterator@12@H0H0@Z 0000000180047360 f i libvcruntimed:frame.obj
 0001:000464a0       ?isEHs@__FrameHandler3@@SA_NPEBU_s_FuncInfo@@@Z 00000001800474a0 f i libvcruntimed:frame.obj
 0001:000464e0       ?isEHs@__FrameHandler4@@SA_NPEAUFuncInfo4@FH4@@@Z 00000001800474e0 f i libvcruntimed:frame.obj
 0001:00046500       ?isNoExcept@__FrameHandler3@@SA_NPEBU_s_FuncInfo@@@Z 0000000180047500 f i libvcruntimed:frame.obj
 0001:00046540       ?isNoExcept@__FrameHandler4@@SA_NPEAUFuncInfo4@FH4@@@Z 0000000180047540 f i libvcruntimed:frame.obj
 0001:00046560       ?reset@HandlerType4@FH4@@QEAAXXZ 0000000180047560 f i libvcruntimed:frame.obj
 0001:000465c0       ?resetBuffer@HandlerMap4@FH4@@QEAAXXZ 00000001800475c0 f i libvcruntimed:frame.obj
 0001:000465e0       ?setBuffer@HandlerMap4@FH4@@QEAAXI@Z 00000001800475e0 f i libvcruntimed:frame.obj
 0001:00046640       __BuildCatchObject         0000000180047640 f   libvcruntimed:frame.obj
 0001:00046680       __BuildCatchObjectHelper   0000000180047680 f   libvcruntimed:frame.obj
 0001:000466c0       __TypeMatch                00000001800476c0 f   libvcruntimed:frame.obj
 0001:000466f0       __vcrt_EncodePointer       00000001800476f0 f i libvcruntimed:frame.obj
 0001:00046710       ??0Block@_HeapManager@@QEAA@XZ 0000000180047710 f i libvcruntimed:undname.obj
 0001:00046730       ??0DName@@QEAA@AEAPEBDD@Z  0000000180047730 f   libvcruntimed:undname.obj
 0001:000469e0       ??0DName@@QEAA@AEBV0@@Z    00000001800479e0 f i libvcruntimed:undname.obj
 0001:00046a10       ??0DName@@QEAA@D@Z         0000000180047a10 f   libvcruntimed:undname.obj
 0001:00046a60       ??0DName@@QEAA@PEAV0@@Z    0000000180047a60 f   libvcruntimed:undname.obj
 0001:00046b40       ??0DName@@QEAA@PEBD@Z      0000000180047b40 f   libvcruntimed:undname.obj
 0001:00046bb0       ??0DName@@QEAA@W4DNameStatus@@@Z 0000000180047bb0 f   libvcruntimed:undname.obj
 0001:00046c60       ??0DName@@QEAA@XZ          0000000180047c60 f i libvcruntimed:undname.obj
 0001:00046c90       ??0DName@@QEAA@_J@Z        0000000180047c90 f   libvcruntimed:undname.obj
 0001:00046da0       ??0DName@@QEAA@_K@Z        0000000180047da0 f   libvcruntimed:undname.obj
 0001:00046e70       ??0DNameNode@@IEAA@XZ      0000000180047e70 f i libvcruntimed:undname.obj
 0001:00046e90       ??0Replicator@@QEAA@XZ     0000000180047e90 f i libvcruntimed:undname.obj
 0001:00046ed0       ??0UnDecorator@@QEAA@PEBDP6APEADJ@ZK@Z 0000000180047ed0 f i libvcruntimed:undname.obj
 0001:00046f80       ??0charNode@@QEAA@D@Z      0000000180047f80 f i libvcruntimed:undname.obj
 0001:00046fc0       ??0pDNameNode@@QEAA@PEAVDName@@@Z 0000000180047fc0 f   libvcruntimed:undname.obj
 0001:00047040       ??0pairNode@@QEAA@PEBVDNameNode@@0@Z 0000000180048040 f i libvcruntimed:undname.obj
 0001:000470a0       ??0pcharNode@@QEAA@PEBDH@Z 00000001800480a0 f   libvcruntimed:undname.obj
 0001:00047190       ??2@YAPEAX_KAEAV_HeapManager@@H@Z 0000000180048190 f i libvcruntimed:undname.obj
 0001:000471c0       ??4DName@@QEAAAEAV0@AEBV0@@Z 00000001800481c0 f   libvcruntimed:undname.obj
 0001:000471f0       ??4DName@@QEAAAEAV0@D@Z    00000001800481f0 f i libvcruntimed:undname.obj
 0001:00047240       ??4DName@@QEAAAEAV0@PEAV0@@Z 0000000180048240 f   libvcruntimed:undname.obj
 0001:00047310       ??4DName@@QEAAAEAV0@PEBD@Z 0000000180048310 f   libvcruntimed:undname.obj
 0001:00047360       ??4DName@@QEAAAEAV0@W4DNameStatus@@@Z 0000000180048360 f   libvcruntimed:undname.obj
 0001:000473f0       ??AReplicator@@QEBA?AVDName@@H@Z 00000001800483f0 f   libvcruntimed:undname.obj
 0001:00047480       ??H@YA?AVDName@@DAEBV0@@Z  0000000180048480 f i libvcruntimed:undname.obj
 0001:000474d0       ??H@YA?AVDName@@PEBDAEBV0@@Z 00000001800484d0 f i libvcruntimed:undname.obj
 0001:00047520       ??H@YA?AVDName@@W4DNameStatus@@AEBV0@@Z 0000000180048520 f i libvcruntimed:undname.obj
 0001:00047570       ??HDName@@QEBA?AV0@AEBV0@@Z 0000000180048570 f   libvcruntimed:undname.obj
 0001:000475c0       ??HDName@@QEBA?AV0@D@Z     00000001800485c0 f   libvcruntimed:undname.obj
 0001:00047610       ??HDName@@QEBA?AV0@PEAV0@@Z 0000000180048610 f   libvcruntimed:undname.obj
 0001:00047660       ??HDName@@QEBA?AV0@PEBD@Z  0000000180048660 f   libvcruntimed:undname.obj
 0001:000476b0       ??HDName@@QEBA?AV0@W4DNameStatus@@@Z 00000001800486b0 f   libvcruntimed:undname.obj
 0001:00047700       ??YDName@@QEAAAEAV0@AEBV0@@Z 0000000180048700 f   libvcruntimed:undname.obj
 0001:00047780       ??YDName@@QEAAAEAV0@D@Z    0000000180048780 f   libvcruntimed:undname.obj
 0001:00047820       ??YDName@@QEAAAEAV0@PEAV0@@Z 0000000180048820 f   libvcruntimed:undname.obj
 0001:00047900       ??YDName@@QEAAAEAV0@PEBD@Z 0000000180048900 f   libvcruntimed:undname.obj
 0001:000479d0       ??YDName@@QEAAAEAV0@W4DNameStatus@@@Z 00000001800489d0 f   libvcruntimed:undname.obj
 0001:00047a40       ??YReplicator@@QEAAAEAV0@AEBVDName@@@Z 0000000180048a40 f   libvcruntimed:undname.obj
 0001:00047b00       ??_5DName@@QEAAAEAV0@AEBV0@@Z 0000000180048b00 f   libvcruntimed:undname.obj
 0001:00047b70       ?Constructor@_HeapManager@@QEAAXP6APEAX_K@ZP6AXPEAX@Z@Z 0000000180048b70 f i libvcruntimed:undname.obj
 0001:00047bd0       ?Destructor@_HeapManager@@QEAAXXZ 0000000180048bd0 f i libvcruntimed:undname.obj
 0001:00047c50       ?UScore@UnDecorator@@SAPEBDW4Tokens@@@Z 0000000180048c50 f   libvcruntimed:undname.obj
 0001:00047c90       ?append@DName@@AEAAXPEBVDNameNode@@@Z 0000000180048c90 f   libvcruntimed:undname.obj
 0001:00047d40       ?composeDeclaration@UnDecorator@@CA?AVDName@@AEBV2@@Z 0000000180048d40 f i libvcruntimed:undname.obj
 0001:00049f10       ?dbGetString@DName@@QEBAPEADXZ 000000018004af10 f   libvcruntimed:undname.obj
 0001:00049f40       ?doAccessSpecifiers@UnDecorator@@SAHXZ 000000018004af40 f i libvcruntimed:undname.obj
 0001:00049f70       ?doAllocationLanguage@UnDecorator@@SAHXZ 000000018004af70 f i libvcruntimed:undname.obj
 0001:00049fa0       ?doAllocationModel@UnDecorator@@SAHXZ 000000018004afa0 f i libvcruntimed:undname.obj
 0001:00049fd0       ?doEcsu@UnDecorator@@SAHXZ 000000018004afd0 f i libvcruntimed:undname.obj
 0001:0004a000       ?doEllipsis@UnDecorator@@SAHXZ 000000018004b000 f i libvcruntimed:undname.obj
 0001:0004a030       ?doFunctionReturns@UnDecorator@@SAHXZ 000000018004b030 f i libvcruntimed:undname.obj
 0001:0004a060       ?doMSKeywords@UnDecorator@@SAHXZ 000000018004b060 f i libvcruntimed:undname.obj
 0001:0004a090       ?doMemberTypes@UnDecorator@@SAHXZ 000000018004b090 f i libvcruntimed:undname.obj
 0001:0004a0c0       ?doNameOnly@UnDecorator@@SAHXZ 000000018004b0c0 f i libvcruntimed:undname.obj
 0001:0004a0d0       ?doNoIdentCharCheck@UnDecorator@@SAHXZ 000000018004b0d0 f i libvcruntimed:undname.obj
 0001:0004a0e0       ?doPchar@DName@@AEAAXPEBDH@Z 000000018004b0e0 f   libvcruntimed:undname.obj
 0001:0004a270       ?doPtr64@UnDecorator@@SAHXZ 000000018004b270 f i libvcruntimed:undname.obj
 0001:0004a2a0       ?doRestrictionSpec@UnDecorator@@SAHXZ 000000018004b2a0 f i libvcruntimed:undname.obj
 0001:0004a2d0       ?doThisTypes@UnDecorator@@SAHXZ 000000018004b2d0 f i libvcruntimed:undname.obj
 0001:0004a300       ?doThrowTypes@UnDecorator@@SAHXZ 000000018004b300 f i libvcruntimed:undname.obj
 0001:0004a330       ?doTypeOnly@UnDecorator@@SAHXZ 000000018004b330 f i libvcruntimed:undname.obj
 0001:0004a340       ?doUnderScore@UnDecorator@@SAHXZ 000000018004b340 f i libvcruntimed:undname.obj
 0001:0004a370       ?getArgumentList@UnDecorator@@CA?AVDName@@XZ 000000018004b370 f   libvcruntimed:undname.obj
 0001:0004a510       ?getArgumentTypes@UnDecorator@@CA?AVDName@@XZ 000000018004b510 f   libvcruntimed:undname.obj
 0001:0004a6c0       ?getArrayType@UnDecorator@@CA?AVDName@@AEBV2@@Z 000000018004b6c0 f i libvcruntimed:undname.obj
 0001:0004aa20       ?getBasedType@UnDecorator@@CA?AVDName@@XZ 000000018004ba20 f   libvcruntimed:undname.obj
 0001:0004ab10       ?getBasicDataType@UnDecorator@@CA?AVDName@@AEBV2@@Z 000000018004bb10 f   libvcruntimed:undname.obj
 0001:0004b280       ?getCHPEName@UnDecorator@@QEAAPEADPEADH@Z 000000018004c280 f i libvcruntimed:undname.obj
 0001:0004b450       ?getCallIndex@UnDecorator@@CA?AVDName@@XZ 000000018004c450 f i libvcruntimed:undname.obj
 0001:0004b470       ?getCallingConvention@UnDecorator@@CA?AVDName@@XZ 000000018004c470 f   libvcruntimed:undname.obj
 0001:0004b6b0       ?getDataIndirectType@UnDecorator@@CA?AVDName@@AEBV2@PEBD0H@Z 000000018004c6b0 f   libvcruntimed:undname.obj
 0001:0004c180       ?getDataIndirectType@UnDecorator@@CA?AVDName@@XZ 000000018004d180 f i libvcruntimed:undname.obj
 0001:0004c1f0       ?getDataType@UnDecorator@@CA?AVDName@@PEAV2@@Z 000000018004d1f0 f   libvcruntimed:undname.obj
 0001:0004c380       ?getDecoratedName@UnDecorator@@CA?AVDName@@XZ 000000018004d380 f   libvcruntimed:undname.obj
 0001:0004c820       ?getDimension@UnDecorator@@CA?AVDName@@_N@Z 000000018004d820 f   libvcruntimed:undname.obj
 0001:0004cb80       ?getDispatchTarget@UnDecorator@@CA?AVDName@@XZ 000000018004db80 f   libvcruntimed:undname.obj
 0001:0004cc50       ?getDisplacement@UnDecorator@@CA?AVDName@@XZ 000000018004dc50 f i libvcruntimed:undname.obj
 0001:0004cc70       ?getECSUDataType@UnDecorator@@CA?AVDName@@XZ 000000018004dc70 f   libvcruntimed:undname.obj
 0001:0004ceb0       ?getECSUName@UnDecorator@@CA?AVDName@@XZ 000000018004deb0 f i libvcruntimed:undname.obj
 0001:0004ced0       ?getEnumType@UnDecorator@@CA?AVDName@@XZ 000000018004ded0 f i libvcruntimed:undname.obj
 0001:0004d050       ?getExtendedDataIndirectType@UnDecorator@@CA?AVDName@@AEAPEBDAEA_NH@Z 000000018004e050 f   libvcruntimed:undname.obj
 0001:0004d370       ?getExternalDataType@UnDecorator@@CA?AVDName@@AEBV2@@Z 000000018004e370 f i libvcruntimed:undname.obj
 0001:0004d450       ?getFunctionIndirectType@UnDecorator@@CA?AVDName@@AEBV2@@Z 000000018004e450 f   libvcruntimed:undname.obj
 0001:0004da50       ?getGuardNumber@UnDecorator@@CA?AVDName@@XZ 000000018004ea50 f i libvcruntimed:undname.obj
 0001:0004da70       ?getLastChar@DName@@QEBADXZ 000000018004ea70 f i libvcruntimed:undname.obj
 0001:0004dac0       ?getLastChar@DNameStatusNode@@UEBADXZ 000000018004eac0 f i libvcruntimed:undname.obj
 0001:0004db00       ?getLastChar@charNode@@UEBADXZ 000000018004eb00 f i libvcruntimed:undname.obj
 0001:0004db10       ?getLastChar@pDNameNode@@UEBADXZ 000000018004eb10 f i libvcruntimed:undname.obj
 0001:0004db50       ?getLastChar@pairNode@@UEBADXZ 000000018004eb50 f i libvcruntimed:undname.obj
 0001:0004dbd0       ?getLastChar@pcharNode@@UEBADXZ 000000018004ebd0 f i libvcruntimed:undname.obj
 0001:0004dc10       ?getLexicalFrame@UnDecorator@@CA?AVDName@@XZ 000000018004ec10 f i libvcruntimed:undname.obj
 0001:0004dc60       ?getMemory@_HeapManager@@QEAAPEAX_KH@Z 000000018004ec60 f   libvcruntimed:undname.obj
 0001:0004dde0       ?getNoexcept@UnDecorator@@CA?AVDName@@XZ 000000018004ede0 f   libvcruntimed:undname.obj
 0001:0004de70       ?getNumberOfDimensions@UnDecorator@@CAHXZ 000000018004ee70 f   libvcruntimed:undname.obj
 0001:0004df90       ?getOperatorName@UnDecorator@@CA?AVDName@@_NPEA_N@Z 000000018004ef90 f i libvcruntimed:undname.obj
 0001:0004ed70       ?getPointerType@UnDecorator@@CA?AVDName@@AEBV2@0@Z 000000018004fd70 f i libvcruntimed:undname.obj
 0001:0004edc0       ?getPointerTypeArray@UnDecorator@@CA?AVDName@@AEBV2@0@Z 000000018004fdc0 f i libvcruntimed:undname.obj
 0001:0004ee10       ?getPrimaryDataType@UnDecorator@@CA?AVDName@@AEBV2@@Z 000000018004fe10 f   libvcruntimed:undname.obj
 0001:0004f300       ?getPtrRefDataType@UnDecorator@@CA?AVDName@@AEBV2@H@Z 0000000180050300 f   libvcruntimed:undname.obj
 0001:0004f590       ?getPtrRefType@UnDecorator@@CA?AVDName@@AEBV2@0PEBD@Z 0000000180050590 f   libvcruntimed:undname.obj
 0001:0004f7a0       ?getReferenceType@UnDecorator@@CA?AVDName@@AEBV2@0PEBD@Z 00000001800507a0 f i libvcruntimed:undname.obj
 0001:0004f7e0       ?getRestrictionSpec@UnDecorator@@CA?AVDName@@XZ 00000001800507e0 f   libvcruntimed:undname.obj
 0001:0004f9b0       ?getReturnType@UnDecorator@@CA?AVDName@@PEAV2@@Z 00000001800509b0 f   libvcruntimed:undname.obj
 0001:0004fa10       ?getScope@UnDecorator@@CA?AVDName@@XZ 0000000180050a10 f   libvcruntimed:undname.obj
 0001:00050090       ?getScopedName@UnDecorator@@CA?AVDName@@XZ 0000000180051090 f   libvcruntimed:undname.obj
 0001:00050220       ?getSignedDimension@UnDecorator@@CA?AVDName@@XZ 0000000180051220 f   libvcruntimed:undname.obj
 0001:000502b0       ?getStorageConvention@UnDecorator@@CA?AVDName@@XZ 00000001800512b0 f i libvcruntimed:undname.obj
 0001:000502d0       ?getString@DName@@QEBAPEADPEAD0@Z 00000001800512d0 f i libvcruntimed:undname.obj
 0001:00050350       ?getString@DName@@QEBAPEADPEADH@Z 0000000180051350 f i libvcruntimed:undname.obj
 0001:00050410       ?getString@DNameStatusNode@@UEBAPEADPEAD0@Z 0000000180051410 f i libvcruntimed:undname.obj
 0001:00050460       ?getString@charNode@@UEBAPEADPEAD0@Z 0000000180051460 f i libvcruntimed:undname.obj
 0001:000504a0       ?getString@pDNameNode@@UEBAPEADPEAD0@Z 00000001800514a0 f i libvcruntimed:undname.obj
 0001:00050500       ?getString@pairNode@@UEBAPEADPEAD0@Z 0000000180051500 f i libvcruntimed:undname.obj
 0001:000505d0       ?getString@pcharNode@@UEBAPEADPEAD0@Z 00000001800515d0 f i libvcruntimed:undname.obj
 0001:00050610       ?getStringEncoding@UnDecorator@@CA?AVDName@@PEBDH@Z 0000000180051610 f   libvcruntimed:undname.obj
 0001:00050750       ?getStringHelper@@YAPEADPEADPEBD1H@Z 0000000180051750 f i libvcruntimed:undname.obj
 0001:000507c0       ?getSymbolName@UnDecorator@@CA?AVDName@@XZ 00000001800517c0 f i libvcruntimed:undname.obj
 0001:00050860       ?getTemplateArgumentList@UnDecorator@@CA?AVDName@@XZ 0000000180051860 f   libvcruntimed:undname.obj
 0001:00050b40       ?getTemplateName@UnDecorator@@CA?AVDName@@_N@Z 0000000180051b40 f   libvcruntimed:undname.obj
 0001:00050d80       ?getTemplateNonTypeArgument@UnDecorator@@CA?AVDName@@XZ 0000000180051d80 f   libvcruntimed:undname.obj
 0001:000514b0       ?getTemplateTypeArgument@UnDecorator@@CA?AVDName@@XZ 00000001800524b0 f   libvcruntimed:undname.obj
 0001:00051680       ?getThisType@UnDecorator@@CA?AVDName@@XZ 0000000180052680 f i libvcruntimed:undname.obj
 0001:000516f0       ?getThrowTypes@UnDecorator@@CA?AVDName@@XZ 00000001800526f0 f   libvcruntimed:undname.obj
 0001:00051740       ?getTypeEncoding@UnDecorator@@CAHXZ 0000000180052740 f i libvcruntimed:undname.obj
 0001:00052340       ?getUndecoratedName@UnDecorator@@QEAAPEADPEADH@Z 0000000180053340 f i libvcruntimed:undname.obj
 0001:00052500       ?getVCallThunkType@UnDecorator@@CA?AVDName@@XZ 0000000180053500 f i libvcruntimed:undname.obj
 0001:00052580       ?getVbTableType@UnDecorator@@CA?AVDName@@AEBV2@@Z 0000000180053580 f i libvcruntimed:undname.obj
 0001:000525b0       ?getVdispMapType@UnDecorator@@CA?AVDName@@AEBV2@@Z 00000001800535b0 f i libvcruntimed:undname.obj
 0001:00052640       ?getVfTableType@UnDecorator@@CA?AVDName@@AEBV2@@Z 0000000180053640 f i libvcruntimed:undname.obj
 0001:00052880       ?getZName@UnDecorator@@CA?AVDName@@_N0@Z 0000000180053880 f   libvcruntimed:undname.obj
 0001:00052c40       ?haveTemplateParameters@UnDecorator@@SAHXZ 0000000180053c40 f i libvcruntimed:undname.obj
 0001:00052c50       ?isArray@DName@@QEBAHXZ    0000000180053c50 f i libvcruntimed:undname.obj
 0001:00052c70       ?isComArray@DName@@QEBAHXZ 0000000180053c70 f i libvcruntimed:undname.obj
 0001:00052c90       ?isEmpty@DName@@QEBAHXZ    0000000180053c90 f i libvcruntimed:undname.obj
 0001:00052cc0       ?isFull@Replicator@@QEBAHXZ 0000000180053cc0 f i libvcruntimed:undname.obj
 0001:00052cf0       ?isNoTE@DName@@QEBAHXZ     0000000180053cf0 f i libvcruntimed:undname.obj
 0001:00052d10       ?isPinPtr@DName@@QEBAHXZ   0000000180053d10 f i libvcruntimed:undname.obj
 0001:00052d30       ?isPtrRef@DName@@QEBAHXZ   0000000180053d30 f i libvcruntimed:undname.obj
 0001:00052d50       ?isUDC@DName@@QEBAHXZ      0000000180053d50 f i libvcruntimed:undname.obj
 0001:00052da0       ?isUDTThunk@DName@@QEBAHXZ 0000000180053da0 f i libvcruntimed:undname.obj
 0001:00052df0       ?isVCallThunk@DName@@QEBAHXZ 0000000180053df0 f i libvcruntimed:undname.obj
 0001:00052e10       ?isValid@DName@@QEBAHXZ    0000000180053e10 f i libvcruntimed:undname.obj
 0001:00052e50       ?length@DName@@QEBAHXZ     0000000180053e50 f i libvcruntimed:undname.obj
 0001:00052ea0       ?length@DNameStatusNode@@UEBAHXZ 0000000180053ea0 f i libvcruntimed:undname.obj
 0001:00052eb0       ?length@charNode@@UEBAHXZ  0000000180053eb0 f i libvcruntimed:undname.obj
 0001:00052ec0       ?length@pDNameNode@@UEBAHXZ 0000000180053ec0 f i libvcruntimed:undname.obj
 0001:00052f00       ?length@pairNode@@UEBAHXZ  0000000180053f00 f i libvcruntimed:undname.obj
 0001:00052f90       ?length@pcharNode@@UEBAHXZ 0000000180053f90 f i libvcruntimed:undname.obj
 0001:00052fa0       ?make@DNameStatusNode@@SAPEBV1@W4DNameStatus@@@Z 0000000180053fa0 f i libvcruntimed:undname.obj
 0001:00052ff0       ?parseDecoratedName@UnDecorator@@CA?AVDName@@XZ 0000000180053ff0 f   libvcruntimed:undname.obj
 0001:000531b0       ?setIsArray@DName@@QEAAXXZ 00000001800541b0 f i libvcruntimed:undname.obj
 0001:000531d0       ?setIsComArray@DName@@QEAAXXZ 00000001800541d0 f i libvcruntimed:undname.obj
 0001:000531f0       ?setIsNoTE@DName@@QEAAXXZ  00000001800541f0 f i libvcruntimed:undname.obj
 0001:00053210       ?setIsPinPtr@DName@@QEAAXXZ 0000000180054210 f i libvcruntimed:undname.obj
 0001:00053230       ?setIsUDC@DName@@QEAAXXZ   0000000180054230 f i libvcruntimed:undname.obj
 0001:00053260       ?setIsVCallThunk@DName@@QEAAXXZ 0000000180054260 f i libvcruntimed:undname.obj
 0001:00053280       ?setPtrRef@DName@@QEAAAEAV1@XZ 0000000180054280 f i libvcruntimed:undname.obj
 0001:000532a0       ?status@DName@@QEBA?AW4DNameStatus@@XZ 00000001800542a0 f i libvcruntimed:undname.obj
 0001:000533d0       __unDName                  00000001800543d0 f   libvcruntimed:undname.obj
 0001:00053430       __unDNameEx                0000000180054430 f   libvcruntimed:undname.obj
 0001:000534f0       unDNameGenerateCHPE        00000001800544f0 f   libvcruntimed:undname.obj
 0001:000535a0       ??$__crt_interlocked_exchange_pointer@UHINSTANCE__@@PEAU1@@@YAPEAUHINSTANCE__@@PEDSEAU0@QEAU0@@Z 00000001800545a0 f i libvcruntimed:winapi_downlevel.obj
 0001:000535c0       ??$__crt_interlocked_exchange_pointer@UHINSTANCE__@@PEAX@@YAPEAUHINSTANCE__@@PEDSEAU0@QEAX@Z 00000001800545c0 f i libvcruntimed:winapi_downlevel.obj
 0001:000535e0       ??$__crt_interlocked_exchange_pointer@XPEAX@@YAPEAXPEDSEAXQEAX@Z 00000001800545e0 f i libvcruntimed:winapi_downlevel.obj
 0001:00053600       ??$__crt_interlocked_read_pointer@UHINSTANCE__@@@@YAPEAUHINSTANCE__@@PEDSEAU0@@Z 0000000180054600 f i libvcruntimed:winapi_downlevel.obj
 0001:00053620       ??$__crt_interlocked_read_pointer@X@@YAPEAXPEDSEAX@Z 0000000180054620 f i libvcruntimed:winapi_downlevel.obj
 0001:00053b30       __vcrt_FlsAlloc            0000000180054b30 f   libvcruntimed:winapi_downlevel.obj
 0001:00053b80       __vcrt_FlsFree             0000000180054b80 f   libvcruntimed:winapi_downlevel.obj
 0001:00053bd0       __vcrt_FlsGetValue         0000000180054bd0 f   libvcruntimed:winapi_downlevel.obj
 0001:00053c20       __vcrt_FlsSetValue         0000000180054c20 f   libvcruntimed:winapi_downlevel.obj
 0001:00053c80       __vcrt_InitializeCriticalSectionEx 0000000180054c80 f   libvcruntimed:winapi_downlevel.obj
 0001:00053d00       _CallSettingFrame          0000000180054d00 f   libvcruntimed:handlers.obj
 0001:00053d50       _CallSettingFrame_LookupContinuationIndex 0000000180054d50 f   libvcruntimed:handlers.obj
 0001:00053d80       _CallSettingFrame_NotifyContinuationAddr 0000000180054d80 f   libvcruntimed:handlers.obj
 0001:00053db0       _CallSettingFrameEncoded   0000000180054db0 f   libvcruntimed:handlers.obj
 0001:00053e00       ??$?0AEBV?$stream_output_adapter@D@__crt_stdio_output@@AEB_KAEBQEBDAEBQEAU__crt_locale_pointers@@AEBQEAD@?$format_validation_base@DV?$stream_output_adapter@D@__crt_stdio_output@@@__crt_stdio_output@@IEAA@AEBV?$stream_output_adapter@D@1@AEB_KAEBQEBDAEBQEAU__crt_locale_pointers@@AEBQEAD@Z 0000000180054e00 f i libucrtd:output.obj
 0001:00053e50       ??$?0AEBV?$stream_output_adapter@D@__crt_stdio_output@@AEB_KAEBQEBDAEBQEAU__crt_locale_pointers@@AEBQEAD@?$positional_parameter_base@DV?$stream_output_adapter@D@__crt_stdio_output@@@__crt_stdio_output@@IEAA@AEBV?$stream_output_adapter@D@1@AEB_KAEBQEBDAEBQEAU__crt_locale_pointers@@AEBQEAD@Z 0000000180054e50 f i libucrtd:output.obj
 0001:00053ef0       ??$?0AEBV?$stream_output_adapter@D@__crt_stdio_output@@AEB_KAEBQEBDAEBQEAU__crt_locale_pointers@@AEBQEAD@?$standard_base@DV?$stream_output_adapter@D@__crt_stdio_output@@@__crt_stdio_output@@IEAA@AEBV?$stream_output_adapter@D@1@AEB_KAEBQEBDAEBQEAU__crt_locale_pointers@@AEBQEAD@Z 0000000180054ef0 f i libucrtd:output.obj
 0001:00053f60       ??$?0AEBV?$stream_output_adapter@_W@__crt_stdio_output@@AEB_KAEBQEB_WAEBQEAU__crt_locale_pointers@@AEBQEAD@?$format_validation_base@_WV?$stream_output_adapter@_W@__crt_stdio_output@@@__crt_stdio_output@@IEAA@AEBV?$stream_output_adapter@_W@1@AEB_KAEBQEB_WAEBQEAU__crt_locale_pointers@@AEBQEAD@Z 0000000180054f60 f i libucrtd:output.obj
 0001:00053fb0       ??$?0AEBV?$stream_output_adapter@_W@__crt_stdio_output@@AEB_KAEBQEB_WAEBQEAU__crt_locale_pointers@@AEBQEAD@?$positional_parameter_base@_WV?$stream_output_adapter@_W@__crt_stdio_output@@@__crt_stdio_output@@IEAA@AEBV?$stream_output_adapter@_W@1@AEB_KAEBQEB_WAEBQEAU__crt_locale_pointers@@AEBQEAD@Z 0000000180054fb0 f i libucrtd:output.obj
 0001:00054050       ??$?0AEBV?$stream_output_adapter@_W@__crt_stdio_output@@AEB_KAEBQEB_WAEBQEAU__crt_locale_pointers@@AEBQEAD@?$standard_base@_WV?$stream_output_adapter@_W@__crt_stdio_output@@@__crt_stdio_output@@IEAA@AEBV?$stream_output_adapter@_W@1@AEB_KAEBQEB_WAEBQEAU__crt_locale_pointers@@AEBQEAD@Z 0000000180055050 f i libucrtd:output.obj
 0001:000540c0       ??$?0AEBV?$string_output_adapter@D@__crt_stdio_output@@AEB_KAEBQEBDAEBQEAU__crt_locale_pointers@@AEBQEAD@?$format_validation_base@DV?$string_output_adapter@D@__crt_stdio_output@@@__crt_stdio_output@@IEAA@AEBV?$string_output_adapter@D@1@AEB_KAEBQEBDAEBQEAU__crt_locale_pointers@@AEBQEAD@Z 00000001800550c0 f i libucrtd:output.obj
 0001:00054110       ??$?0AEBV?$string_output_adapter@D@__crt_stdio_output@@AEB_KAEBQEBDAEBQEAU__crt_locale_pointers@@AEBQEAD@?$positional_parameter_base@DV?$string_output_adapter@D@__crt_stdio_output@@@__crt_stdio_output@@IEAA@AEBV?$string_output_adapter@D@1@AEB_KAEBQEBDAEBQEAU__crt_locale_pointers@@AEBQEAD@Z 0000000180055110 f i libucrtd:output.obj
 0001:000541b0       ??$?0AEBV?$string_output_adapter@D@__crt_stdio_output@@AEB_KAEBQEBDAEBQEAU__crt_locale_pointers@@AEBQEAD@?$standard_base@DV?$string_output_adapter@D@__crt_stdio_output@@@__crt_stdio_output@@IEAA@AEBV?$string_output_adapter@D@1@AEB_KAEBQEBDAEBQEAU__crt_locale_pointers@@AEBQEAD@Z 00000001800551b0 f i libucrtd:output.obj
 0001:00054220       ??$?0AEBV?$string_output_adapter@_W@__crt_stdio_output@@AEB_KAEBQEB_WAEBQEAU__crt_locale_pointers@@AEBQEAD@?$format_validation_base@_WV?$string_output_adapter@_W@__crt_stdio_output@@@__crt_stdio_output@@IEAA@AEBV?$string_output_adapter@_W@1@AEB_KAEBQEB_WAEBQEAU__crt_locale_pointers@@AEBQEAD@Z 0000000180055220 f i libucrtd:output.obj
 0001:00054270       ??$?0AEBV?$string_output_adapter@_W@__crt_stdio_output@@AEB_KAEBQEB_WAEBQEAU__crt_locale_pointers@@AEBQEAD@?$positional_parameter_base@_WV?$string_output_adapter@_W@__crt_stdio_output@@@__crt_stdio_output@@IEAA@AEBV?$string_output_adapter@_W@1@AEB_KAEBQEB_WAEBQEAU__crt_locale_pointers@@AEBQEAD@Z 0000000180055270 f i libucrtd:output.obj
 0001:00054310       ??$?0AEBV?$string_output_adapter@_W@__crt_stdio_output@@AEB_KAEBQEB_WAEBQEAU__crt_locale_pointers@@AEBQEAD@?$standard_base@_WV?$string_output_adapter@_W@__crt_stdio_output@@@__crt_stdio_output@@IEAA@AEBV?$string_output_adapter@_W@1@AEB_KAEBQEB_WAEBQEAU__crt_locale_pointers@@AEBQEAD@Z 0000000180055310 f i libucrtd:output.obj
 0001:00054740       ??$__crt_interlocked_read@J@@YAJPEDJ@Z 0000000180055740 f i libucrtd:output.obj
 0001:00058220       ??$count@D@formatting_buffer@__crt_stdio_output@@QEBA_KXZ 0000000180059220 f i libucrtd:output.obj
 0001:00058270       ??$count@_W@formatting_buffer@__crt_stdio_output@@QEBA_KXZ 0000000180059270 f i libucrtd:output.obj
 0001:000582c0       ??$data@D@formatting_buffer@__crt_stdio_output@@QEAAPEADXZ 00000001800592c0 f i libucrtd:output.obj
 0001:00058310       ??$data@_W@formatting_buffer@__crt_stdio_output@@QEAAPEA_WXZ 0000000180059310 f i libucrtd:output.obj
 0001:00058360       ??$ensure_buffer_is_big_enough@D@formatting_buffer@__crt_stdio_output@@QEAA_N_K@Z 0000000180059360 f i libucrtd:output.obj
 0001:00058490       ??$ensure_buffer_is_big_enough@_W@formatting_buffer@__crt_stdio_output@@QEAA_N_K@Z 0000000180059490 f i libucrtd:output.obj
 0001:000585c0       ??$extract_argument_from_va_list@C_J@?$positional_parameter_base@DV?$stream_output_adapter@D@__crt_stdio_output@@@__crt_stdio_output@@IEAA_NAEA_J@Z 00000001800595c0 f i libucrtd:output.obj
 0001:00058740       ??$extract_argument_from_va_list@C_J@?$positional_parameter_base@DV?$string_output_adapter@D@__crt_stdio_output@@@__crt_stdio_output@@IEAA_NAEA_J@Z 0000000180059740 f i libucrtd:output.obj
 0001:000588c0       ??$extract_argument_from_va_list@C_J@?$positional_parameter_base@_WV?$stream_output_adapter@_W@__crt_stdio_output@@@__crt_stdio_output@@IEAA_NAEA_J@Z 00000001800598c0 f i libucrtd:output.obj
 0001:00058a40       ??$extract_argument_from_va_list@C_J@?$positional_parameter_base@_WV?$string_output_adapter@_W@__crt_stdio_output@@@__crt_stdio_output@@IEAA_NAEA_J@Z 0000000180059a40 f i libucrtd:output.obj
 0001:00058bc0       ??$extract_argument_from_va_list@C_J@?$standard_base@DV?$stream_output_adapter@D@__crt_stdio_output@@@__crt_stdio_output@@IEAA_NAEA_J@Z 0000000180059bc0 f i libucrtd:output.obj
 0001:00058c00       ??$extract_argument_from_va_list@C_J@?$standard_base@DV?$string_output_adapter@D@__crt_stdio_output@@@__crt_stdio_output@@IEAA_NAEA_J@Z 0000000180059c00 f i libucrtd:output.obj
 0001:00058c40       ??$extract_argument_from_va_list@C_J@?$standard_base@_WV?$stream_output_adapter@_W@__crt_stdio_output@@@__crt_stdio_output@@IEAA_NAEA_J@Z 0000000180059c40 f i libucrtd:output.obj
 0001:00058c80       ??$extract_argument_from_va_list@C_J@?$standard_base@_WV?$string_output_adapter@_W@__crt_stdio_output@@@__crt_stdio_output@@IEAA_NAEA_J@Z 0000000180059c80 f i libucrtd:output.obj
 0001:00058cc0       ??$extract_argument_from_va_list@E_J@?$positional_parameter_base@DV?$stream_output_adapter@D@__crt_stdio_output@@@__crt_stdio_output@@IEAA_NAEA_J@Z 0000000180059cc0 f i libucrtd:output.obj
 0001:00058e40       ??$extract_argument_from_va_list@E_J@?$positional_parameter_base@DV?$string_output_adapter@D@__crt_stdio_output@@@__crt_stdio_output@@IEAA_NAEA_J@Z 0000000180059e40 f i libucrtd:output.obj
 0001:00058fc0       ??$extract_argument_from_va_list@E_J@?$positional_parameter_base@_WV?$stream_output_adapter@_W@__crt_stdio_output@@@__crt_stdio_output@@IEAA_NAEA_J@Z 0000000180059fc0 f i libucrtd:output.obj
 0001:00059140       ??$extract_argument_from_va_list@E_J@?$positional_parameter_base@_WV?$string_output_adapter@_W@__crt_stdio_output@@@__crt_stdio_output@@IEAA_NAEA_J@Z 000000018005a140 f i libucrtd:output.obj
 0001:000592c0       ??$extract_argument_from_va_list@E_J@?$standard_base@DV?$stream_output_adapter@D@__crt_stdio_output@@@__crt_stdio_output@@IEAA_NAEA_J@Z 000000018005a2c0 f i libucrtd:output.obj
 0001:00059300       ??$extract_argument_from_va_list@E_J@?$standard_base@DV?$string_output_adapter@D@__crt_stdio_output@@@__crt_stdio_output@@IEAA_NAEA_J@Z 000000018005a300 f i libucrtd:output.obj
 0001:00059340       ??$extract_argument_from_va_list@E_J@?$standard_base@_WV?$stream_output_adapter@_W@__crt_stdio_output@@@__crt_stdio_output@@IEAA_NAEA_J@Z 000000018005a340 f i libucrtd:output.obj
 0001:00059380       ??$extract_argument_from_va_list@E_J@?$standard_base@_WV?$string_output_adapter@_W@__crt_stdio_output@@@__crt_stdio_output@@IEAA_NAEA_J@Z 000000018005a380 f i libucrtd:output.obj
 0001:000593c0       ??$extract_argument_from_va_list@F_J@?$positional_parameter_base@DV?$stream_output_adapter@D@__crt_stdio_output@@@__crt_stdio_output@@IEAA_NAEA_J@Z 000000018005a3c0 f i libucrtd:output.obj
 0001:00059540       ??$extract_argument_from_va_list@F_J@?$positional_parameter_base@DV?$string_output_adapter@D@__crt_stdio_output@@@__crt_stdio_output@@IEAA_NAEA_J@Z 000000018005a540 f i libucrtd:output.obj
 0001:000596c0       ??$extract_argument_from_va_list@F_J@?$positional_parameter_base@_WV?$stream_output_adapter@_W@__crt_stdio_output@@@__crt_stdio_output@@IEAA_NAEA_J@Z 000000018005a6c0 f i libucrtd:output.obj
 0001:00059840       ??$extract_argument_from_va_list@F_J@?$positional_parameter_base@_WV?$string_output_adapter@_W@__crt_stdio_output@@@__crt_stdio_output@@IEAA_NAEA_J@Z 000000018005a840 f i libucrtd:output.obj
 0001:000599c0       ??$extract_argument_from_va_list@F_J@?$standard_base@DV?$stream_output_adapter@D@__crt_stdio_output@@@__crt_stdio_output@@IEAA_NAEA_J@Z 000000018005a9c0 f i libucrtd:output.obj
 0001:00059a00       ??$extract_argument_from_va_list@F_J@?$standard_base@DV?$string_output_adapter@D@__crt_stdio_output@@@__crt_stdio_output@@IEAA_NAEA_J@Z 000000018005aa00 f i libucrtd:output.obj
 0001:00059a40       ??$extract_argument_from_va_list@F_J@?$standard_base@_WV?$stream_output_adapter@_W@__crt_stdio_output@@@__crt_stdio_output@@IEAA_NAEA_J@Z 000000018005aa40 f i libucrtd:output.obj
 0001:00059a80       ??$extract_argument_from_va_list@F_J@?$standard_base@_WV?$string_output_adapter@_W@__crt_stdio_output@@@__crt_stdio_output@@IEAA_NAEA_J@Z 000000018005aa80 f i libucrtd:output.obj
 0001:00059ac0       ??$extract_argument_from_va_list@GD@?$positional_parameter_base@DV?$stream_output_adapter@D@__crt_stdio_output@@@__crt_stdio_output@@IEAA_NAEAD@Z 000000018005aac0 f i libucrtd:output.obj
 0001:00059c40       ??$extract_argument_from_va_list@GD@?$positional_parameter_base@DV?$string_output_adapter@D@__crt_stdio_output@@@__crt_stdio_output@@IEAA_NAEAD@Z 000000018005ac40 f i libucrtd:output.obj
 0001:00059dc0       ??$extract_argument_from_va_list@GD@?$standard_base@DV?$stream_output_adapter@D@__crt_stdio_output@@@__crt_stdio_output@@IEAA_NAEAD@Z 000000018005adc0 f i libucrtd:output.obj
 0001:00059df0       ??$extract_argument_from_va_list@GD@?$standard_base@DV?$string_output_adapter@D@__crt_stdio_output@@@__crt_stdio_output@@IEAA_NAEAD@Z 000000018005adf0 f i libucrtd:output.obj
 0001:00059e20       ??$extract_argument_from_va_list@G_J@?$positional_parameter_base@DV?$stream_output_adapter@D@__crt_stdio_output@@@__crt_stdio_output@@IEAA_NAEA_J@Z 000000018005ae20 f i libucrtd:output.obj
 0001:00059fa0       ??$extract_argument_from_va_list@G_J@?$positional_parameter_base@DV?$string_output_adapter@D@__crt_stdio_output@@@__crt_stdio_output@@IEAA_NAEA_J@Z 000000018005afa0 f i libucrtd:output.obj
 0001:0005a120       ??$extract_argument_from_va_list@G_J@?$positional_parameter_base@_WV?$stream_output_adapter@_W@__crt_stdio_output@@@__crt_stdio_output@@IEAA_NAEA_J@Z 000000018005b120 f i libucrtd:output.obj
 0001:0005a2a0       ??$extract_argument_from_va_list@G_J@?$positional_parameter_base@_WV?$string_output_adapter@_W@__crt_stdio_output@@@__crt_stdio_output@@IEAA_NAEA_J@Z 000000018005b2a0 f i libucrtd:output.obj
 0001:0005a420       ??$extract_argument_from_va_list@G_J@?$standard_base@DV?$stream_output_adapter@D@__crt_stdio_output@@@__crt_stdio_output@@IEAA_NAEA_J@Z 000000018005b420 f i libucrtd:output.obj
 0001:0005a460       ??$extract_argument_from_va_list@G_J@?$standard_base@DV?$string_output_adapter@D@__crt_stdio_output@@@__crt_stdio_output@@IEAA_NAEA_J@Z 000000018005b460 f i libucrtd:output.obj
 0001:0005a4a0       ??$extract_argument_from_va_list@G_J@?$standard_base@_WV?$stream_output_adapter@_W@__crt_stdio_output@@@__crt_stdio_output@@IEAA_NAEA_J@Z 000000018005b4a0 f i libucrtd:output.obj
 0001:0005a4e0       ??$extract_argument_from_va_list@G_J@?$standard_base@_WV?$string_output_adapter@_W@__crt_stdio_output@@@__crt_stdio_output@@IEAA_NAEA_J@Z 000000018005b4e0 f i libucrtd:output.obj
 0001:0005a520       ??$extract_argument_from_va_list@H_J@?$positional_parameter_base@DV?$stream_output_adapter@D@__crt_stdio_output@@@__crt_stdio_output@@IEAA_NAEA_J@Z 000000018005b520 f i libucrtd:output.obj
 0001:0005a6a0       ??$extract_argument_from_va_list@H_J@?$positional_parameter_base@DV?$string_output_adapter@D@__crt_stdio_output@@@__crt_stdio_output@@IEAA_NAEA_J@Z 000000018005b6a0 f i libucrtd:output.obj
 0001:0005a820       ??$extract_argument_from_va_list@H_J@?$positional_parameter_base@_WV?$stream_output_adapter@_W@__crt_stdio_output@@@__crt_stdio_output@@IEAA_NAEA_J@Z 000000018005b820 f i libucrtd:output.obj
 0001:0005a9a0       ??$extract_argument_from_va_list@H_J@?$positional_parameter_base@_WV?$string_output_adapter@_W@__crt_stdio_output@@@__crt_stdio_output@@IEAA_NAEA_J@Z 000000018005b9a0 f i libucrtd:output.obj
 0001:0005ab20       ??$extract_argument_from_va_list@H_J@?$standard_base@DV?$stream_output_adapter@D@__crt_stdio_output@@@__crt_stdio_output@@IEAA_NAEA_J@Z 000000018005bb20 f i libucrtd:output.obj
 0001:0005ab50       ??$extract_argument_from_va_list@H_J@?$standard_base@DV?$string_output_adapter@D@__crt_stdio_output@@@__crt_stdio_output@@IEAA_NAEA_J@Z 000000018005bb50 f i libucrtd:output.obj
 0001:0005ab80       ??$extract_argument_from_va_list@H_J@?$standard_base@_WV?$stream_output_adapter@_W@__crt_stdio_output@@@__crt_stdio_output@@IEAA_NAEA_J@Z 000000018005bb80 f i libucrtd:output.obj
 0001:0005abb0       ??$extract_argument_from_va_list@H_J@?$standard_base@_WV?$string_output_adapter@_W@__crt_stdio_output@@@__crt_stdio_output@@IEAA_NAEA_J@Z 000000018005bbb0 f i libucrtd:output.obj
 0001:0005abe0       ??$extract_argument_from_va_list@I_J@?$positional_parameter_base@DV?$stream_output_adapter@D@__crt_stdio_output@@@__crt_stdio_output@@IEAA_NAEA_J@Z 000000018005bbe0 f i libucrtd:output.obj
 0001:0005ad60       ??$extract_argument_from_va_list@I_J@?$positional_parameter_base@DV?$string_output_adapter@D@__crt_stdio_output@@@__crt_stdio_output@@IEAA_NAEA_J@Z 000000018005bd60 f i libucrtd:output.obj
 0001:0005aee0       ??$extract_argument_from_va_list@I_J@?$positional_parameter_base@_WV?$stream_output_adapter@_W@__crt_stdio_output@@@__crt_stdio_output@@IEAA_NAEA_J@Z 000000018005bee0 f i libucrtd:output.obj
 0001:0005b060       ??$extract_argument_from_va_list@I_J@?$positional_parameter_base@_WV?$string_output_adapter@_W@__crt_stdio_output@@@__crt_stdio_output@@IEAA_NAEA_J@Z 000000018005c060 f i libucrtd:output.obj
 0001:0005b1e0       ??$extract_argument_from_va_list@I_J@?$standard_base@DV?$stream_output_adapter@D@__crt_stdio_output@@@__crt_stdio_output@@IEAA_NAEA_J@Z 000000018005c1e0 f i libucrtd:output.obj
 0001:0005b210       ??$extract_argument_from_va_list@I_J@?$standard_base@DV?$string_output_adapter@D@__crt_stdio_output@@@__crt_stdio_output@@IEAA_NAEA_J@Z 000000018005c210 f i libucrtd:output.obj
 0001:0005b240       ??$extract_argument_from_va_list@I_J@?$standard_base@_WV?$stream_output_adapter@_W@__crt_stdio_output@@@__crt_stdio_output@@IEAA_NAEA_J@Z 000000018005c240 f i libucrtd:output.obj
 0001:0005b270       ??$extract_argument_from_va_list@I_J@?$standard_base@_WV?$string_output_adapter@_W@__crt_stdio_output@@@__crt_stdio_output@@IEAA_NAEA_J@Z 000000018005c270 f i libucrtd:output.obj
 0001:0005b2a0       ??$extract_argument_from_va_list@PEADPEAD@?$positional_parameter_base@DV?$stream_output_adapter@D@__crt_stdio_output@@@__crt_stdio_output@@IEAA_NAEAPEAD@Z 000000018005c2a0 f i libucrtd:output.obj
 0001:0005b420       ??$extract_argument_from_va_list@PEADPEAD@?$positional_parameter_base@DV?$string_output_adapter@D@__crt_stdio_output@@@__crt_stdio_output@@IEAA_NAEAPEAD@Z 000000018005c420 f i libucrtd:output.obj
 0001:0005b5a0       ??$extract_argument_from_va_list@PEADPEAD@?$positional_parameter_base@_WV?$stream_output_adapter@_W@__crt_stdio_output@@@__crt_stdio_output@@IEAA_NAEAPEAD@Z 000000018005c5a0 f i libucrtd:output.obj
 0001:0005b720       ??$extract_argument_from_va_list@PEADPEAD@?$positional_parameter_base@_WV?$string_output_adapter@_W@__crt_stdio_output@@@__crt_stdio_output@@IEAA_NAEAPEAD@Z 000000018005c720 f i libucrtd:output.obj
 0001:0005b8a0       ??$extract_argument_from_va_list@PEADPEAD@?$standard_base@DV?$stream_output_adapter@D@__crt_stdio_output@@@__crt_stdio_output@@IEAA_NAEAPEAD@Z 000000018005c8a0 f i libucrtd:output.obj
 0001:0005b8d0       ??$extract_argument_from_va_list@PEADPEAD@?$standard_base@DV?$string_output_adapter@D@__crt_stdio_output@@@__crt_stdio_output@@IEAA_NAEAPEAD@Z 000000018005c8d0 f i libucrtd:output.obj
 0001:0005b900       ??$extract_argument_from_va_list@PEADPEAD@?$standard_base@_WV?$stream_output_adapter@_W@__crt_stdio_output@@@__crt_stdio_output@@IEAA_NAEAPEAD@Z 000000018005c900 f i libucrtd:output.obj
 0001:0005b930       ??$extract_argument_from_va_list@PEADPEAD@?$standard_base@_WV?$string_output_adapter@_W@__crt_stdio_output@@@__crt_stdio_output@@IEAA_NAEAPEAD@Z 000000018005c930 f i libucrtd:output.obj
 0001:0005c1a0       ??$extract_argument_from_va_list@PEAXPEAX@?$positional_parameter_base@DV?$stream_output_adapter@D@__crt_stdio_output@@@__crt_stdio_output@@IEAA_NAEAPEAX@Z 000000018005d1a0 f i libucrtd:output.obj
 0001:0005c320       ??$extract_argument_from_va_list@PEAXPEAX@?$positional_parameter_base@DV?$string_output_adapter@D@__crt_stdio_output@@@__crt_stdio_output@@IEAA_NAEAPEAX@Z 000000018005d320 f i libucrtd:output.obj
 0001:0005c4a0       ??$extract_argument_from_va_list@PEAXPEAX@?$positional_parameter_base@_WV?$stream_output_adapter@_W@__crt_stdio_output@@@__crt_stdio_output@@IEAA_NAEAPEAX@Z 000000018005d4a0 f i libucrtd:output.obj
 0001:0005c620       ??$extract_argument_from_va_list@PEAXPEAX@?$positional_parameter_base@_WV?$string_output_adapter@_W@__crt_stdio_output@@@__crt_stdio_output@@IEAA_NAEAPEAX@Z 000000018005d620 f i libucrtd:output.obj
 0001:0005c7a0       ??$extract_argument_from_va_list@PEAXPEAX@?$standard_base@DV?$stream_output_adapter@D@__crt_stdio_output@@@__crt_stdio_output@@IEAA_NAEAPEAX@Z 000000018005d7a0 f i libucrtd:output.obj
 0001:0005c7d0       ??$extract_argument_from_va_list@PEAXPEAX@?$standard_base@DV?$string_output_adapter@D@__crt_stdio_output@@@__crt_stdio_output@@IEAA_NAEAPEAX@Z 000000018005d7d0 f i libucrtd:output.obj
 0001:0005c800       ??$extract_argument_from_va_list@PEAXPEAX@?$standard_base@_WV?$stream_output_adapter@_W@__crt_stdio_output@@@__crt_stdio_output@@IEAA_NAEAPEAX@Z 000000018005d800 f i libucrtd:output.obj
 0001:0005c830       ??$extract_argument_from_va_list@PEAXPEAX@?$standard_base@_WV?$string_output_adapter@_W@__crt_stdio_output@@@__crt_stdio_output@@IEAA_NAEAPEAX@Z 000000018005d830 f i libucrtd:output.obj
 0001:0005c860       ??$extract_argument_from_va_list@U_CRT_DOUBLE@@U1@@?$positional_parameter_base@DV?$stream_output_adapter@D@__crt_stdio_output@@@__crt_stdio_output@@IEAA_NAEAU_CRT_DOUBLE@@@Z 000000018005d860 f i libucrtd:output.obj
 0001:0005ca00       ??$extract_argument_from_va_list@U_CRT_DOUBLE@@U1@@?$positional_parameter_base@DV?$string_output_adapter@D@__crt_stdio_output@@@__crt_stdio_output@@IEAA_NAEAU_CRT_DOUBLE@@@Z 000000018005da00 f i libucrtd:output.obj
 0001:0005cba0       ??$extract_argument_from_va_list@U_CRT_DOUBLE@@U1@@?$positional_parameter_base@_WV?$stream_output_adapter@_W@__crt_stdio_output@@@__crt_stdio_output@@IEAA_NAEAU_CRT_DOUBLE@@@Z 000000018005dba0 f i libucrtd:output.obj
 0001:0005cd40       ??$extract_argument_from_va_list@U_CRT_DOUBLE@@U1@@?$positional_parameter_base@_WV?$string_output_adapter@_W@__crt_stdio_output@@@__crt_stdio_output@@IEAA_NAEAU_CRT_DOUBLE@@@Z 000000018005dd40 f i libucrtd:output.obj
 0001:0005cee0       ??$extract_argument_from_va_list@U_CRT_DOUBLE@@U1@@?$standard_base@DV?$stream_output_adapter@D@__crt_stdio_output@@@__crt_stdio_output@@IEAA_NAEAU_CRT_DOUBLE@@@Z 000000018005dee0 f i libucrtd:output.obj
 0001:0005cf30       ??$extract_argument_from_va_list@U_CRT_DOUBLE@@U1@@?$standard_base@DV?$string_output_adapter@D@__crt_stdio_output@@@__crt_stdio_output@@IEAA_NAEAU_CRT_DOUBLE@@@Z 000000018005df30 f i libucrtd:output.obj
 0001:0005cf80       ??$extract_argument_from_va_list@U_CRT_DOUBLE@@U1@@?$standard_base@_WV?$stream_output_adapter@_W@__crt_stdio_output@@@__crt_stdio_output@@IEAA_NAEAU_CRT_DOUBLE@@@Z 000000018005df80 f i libucrtd:output.obj
 0001:0005cfd0       ??$extract_argument_from_va_list@U_CRT_DOUBLE@@U1@@?$standard_base@_WV?$string_output_adapter@_W@__crt_stdio_output@@@__crt_stdio_output@@IEAA_NAEAU_CRT_DOUBLE@@@Z 000000018005dfd0 f i libucrtd:output.obj
 0001:0005d020       ??$extract_argument_from_va_list@_J_J@?$positional_parameter_base@DV?$stream_output_adapter@D@__crt_stdio_output@@@__crt_stdio_output@@IEAA_NAEA_J@Z 000000018005e020 f i libucrtd:output.obj
 0001:0005d1a0       ??$extract_argument_from_va_list@_J_J@?$positional_parameter_base@DV?$string_output_adapter@D@__crt_stdio_output@@@__crt_stdio_output@@IEAA_NAEA_J@Z 000000018005e1a0 f i libucrtd:output.obj
 0001:0005d320       ??$extract_argument_from_va_list@_J_J@?$positional_parameter_base@_WV?$stream_output_adapter@_W@__crt_stdio_output@@@__crt_stdio_output@@IEAA_NAEA_J@Z 000000018005e320 f i libucrtd:output.obj
 0001:0005d4a0       ??$extract_argument_from_va_list@_J_J@?$positional_parameter_base@_WV?$string_output_adapter@_W@__crt_stdio_output@@@__crt_stdio_output@@IEAA_NAEA_J@Z 000000018005e4a0 f i libucrtd:output.obj
 0001:0005d620       ??$extract_argument_from_va_list@_J_J@?$standard_base@DV?$stream_output_adapter@D@__crt_stdio_output@@@__crt_stdio_output@@IEAA_NAEA_J@Z 000000018005e620 f i libucrtd:output.obj
 0001:0005d650       ??$extract_argument_from_va_list@_J_J@?$standard_base@DV?$string_output_adapter@D@__crt_stdio_output@@@__crt_stdio_output@@IEAA_NAEA_J@Z 000000018005e650 f i libucrtd:output.obj
 0001:0005d680       ??$extract_argument_from_va_list@_J_J@?$standard_base@_WV?$stream_output_adapter@_W@__crt_stdio_output@@@__crt_stdio_output@@IEAA_NAEA_J@Z 000000018005e680 f i libucrtd:output.obj
 0001:0005d6b0       ??$extract_argument_from_va_list@_J_J@?$standard_base@_WV?$string_output_adapter@_W@__crt_stdio_output@@@__crt_stdio_output@@IEAA_NAEA_J@Z 000000018005e6b0 f i libucrtd:output.obj
 0001:0005d6e0       ??$extract_argument_from_va_list@_K_J@?$positional_parameter_base@DV?$stream_output_adapter@D@__crt_stdio_output@@@__crt_stdio_output@@IEAA_NAEA_J@Z 000000018005e6e0 f i libucrtd:output.obj
 0001:0005d860       ??$extract_argument_from_va_list@_K_J@?$positional_parameter_base@DV?$string_output_adapter@D@__crt_stdio_output@@@__crt_stdio_output@@IEAA_NAEA_J@Z 000000018005e860 f i libucrtd:output.obj
 0001:0005d9e0       ??$extract_argument_from_va_list@_K_J@?$positional_parameter_base@_WV?$stream_output_adapter@_W@__crt_stdio_output@@@__crt_stdio_output@@IEAA_NAEA_J@Z 000000018005e9e0 f i libucrtd:output.obj
 0001:0005db60       ??$extract_argument_from_va_list@_K_J@?$positional_parameter_base@_WV?$string_output_adapter@_W@__crt_stdio_output@@@__crt_stdio_output@@IEAA_NAEA_J@Z 000000018005eb60 f i libucrtd:output.obj
 0001:0005dce0       ??$extract_argument_from_va_list@_K_J@?$standard_base@DV?$stream_output_adapter@D@__crt_stdio_output@@@__crt_stdio_output@@IEAA_NAEA_J@Z 000000018005ece0 f i libucrtd:output.obj
 0001:0005dd10       ??$extract_argument_from_va_list@_K_J@?$standard_base@DV?$string_output_adapter@D@__crt_stdio_output@@@__crt_stdio_output@@IEAA_NAEA_J@Z 000000018005ed10 f i libucrtd:output.obj
 0001:0005dd40       ??$extract_argument_from_va_list@_K_J@?$standard_base@_WV?$stream_output_adapter@_W@__crt_stdio_output@@@__crt_stdio_output@@IEAA_NAEA_J@Z 000000018005ed40 f i libucrtd:output.obj
 0001:0005dd70       ??$extract_argument_from_va_list@_K_J@?$standard_base@_WV?$string_output_adapter@_W@__crt_stdio_output@@@__crt_stdio_output@@IEAA_NAEA_J@Z 000000018005ed70 f i libucrtd:output.obj
 0001:0005dda0       ??$extract_argument_from_va_list@_W_W@?$positional_parameter_base@DV?$stream_output_adapter@D@__crt_stdio_output@@@__crt_stdio_output@@IEAA_NAEA_W@Z 000000018005eda0 f i libucrtd:output.obj
 0001:0005df20       ??$extract_argument_from_va_list@_W_W@?$positional_parameter_base@DV?$string_output_adapter@D@__crt_stdio_output@@@__crt_stdio_output@@IEAA_NAEA_W@Z 000000018005ef20 f i libucrtd:output.obj
 0001:0005e0a0       ??$extract_argument_from_va_list@_W_W@?$positional_parameter_base@_WV?$stream_output_adapter@_W@__crt_stdio_output@@@__crt_stdio_output@@IEAA_NAEA_W@Z 000000018005f0a0 f i libucrtd:output.obj
 0001:0005e220       ??$extract_argument_from_va_list@_W_W@?$positional_parameter_base@_WV?$string_output_adapter@_W@__crt_stdio_output@@@__crt_stdio_output@@IEAA_NAEA_W@Z 000000018005f220 f i libucrtd:output.obj
 0001:0005e3a0       ??$extract_argument_from_va_list@_W_W@?$standard_base@DV?$stream_output_adapter@D@__crt_stdio_output@@@__crt_stdio_output@@IEAA_NAEA_W@Z 000000018005f3a0 f i libucrtd:output.obj
 0001:0005e3d0       ??$extract_argument_from_va_list@_W_W@?$standard_base@DV?$string_output_adapter@D@__crt_stdio_output@@@__crt_stdio_output@@IEAA_NAEA_W@Z 000000018005f3d0 f i libucrtd:output.obj
 0001:0005e400       ??$extract_argument_from_va_list@_W_W@?$standard_base@_WV?$stream_output_adapter@_W@__crt_stdio_output@@@__crt_stdio_output@@IEAA_NAEA_W@Z 000000018005f400 f i libucrtd:output.obj
 0001:0005e430       ??$extract_argument_from_va_list@_W_W@?$standard_base@_WV?$string_output_adapter@_W@__crt_stdio_output@@@__crt_stdio_output@@IEAA_NAEA_W@Z 000000018005f430 f i libucrtd:output.obj
 0001:0005e460       ??$get_parameter_type@D@?$positional_parameter_base@DV?$stream_output_adapter@D@__crt_stdio_output@@@__crt_stdio_output@@CA?AW4parameter_type@01@PEAD@Z 000000018005f460 f i libucrtd:output.obj
 0001:0005e470       ??$get_parameter_type@D@?$positional_parameter_base@DV?$string_output_adapter@D@__crt_stdio_output@@@__crt_stdio_output@@CA?AW4parameter_type@01@PEAD@Z 000000018005f470 f i libucrtd:output.obj
 0001:0005e480       ??$get_parameter_type@D@?$positional_parameter_base@_WV?$stream_output_adapter@_W@__crt_stdio_output@@@__crt_stdio_output@@CA?AW4parameter_type@01@PEAD@Z 000000018005f480 f i libucrtd:output.obj
 0001:0005e490       ??$get_parameter_type@D@?$positional_parameter_base@_WV?$string_output_adapter@_W@__crt_stdio_output@@@__crt_stdio_output@@CA?AW4parameter_type@01@PEAD@Z 000000018005f490 f i libucrtd:output.obj
 0001:0005e4e0       ??$get_parameter_type@X@?$positional_parameter_base@DV?$stream_output_adapter@D@__crt_stdio_output@@@__crt_stdio_output@@CA?AW4parameter_type@01@PEAX@Z 000000018005f4e0 f i libucrtd:output.obj
 0001:0005e4f0       ??$get_parameter_type@X@?$positional_parameter_base@DV?$string_output_adapter@D@__crt_stdio_output@@@__crt_stdio_output@@CA?AW4parameter_type@01@PEAX@Z 000000018005f4f0 f i libucrtd:output.obj
 0001:0005e500       ??$get_parameter_type@X@?$positional_parameter_base@_WV?$stream_output_adapter@_W@__crt_stdio_output@@@__crt_stdio_output@@CA?AW4parameter_type@01@PEAX@Z 000000018005f500 f i libucrtd:output.obj
 0001:0005e510       ??$get_parameter_type@X@?$positional_parameter_base@_WV?$string_output_adapter@_W@__crt_stdio_output@@@__crt_stdio_output@@CA?AW4parameter_type@01@PEAX@Z 000000018005f510 f i libucrtd:output.obj
 0001:0005e520       ??$is_character_specifier@D@?$positional_parameter_base@DV?$stream_output_adapter@D@__crt_stdio_output@@@__crt_stdio_output@@CA_ND@Z 000000018005f520 f i libucrtd:output.obj
 0001:0005e560       ??$is_character_specifier@D@?$positional_parameter_base@DV?$string_output_adapter@D@__crt_stdio_output@@@__crt_stdio_output@@CA_ND@Z 000000018005f560 f i libucrtd:output.obj
 0001:0005e5a0       ??$is_character_specifier@_W@?$positional_parameter_base@_WV?$stream_output_adapter@_W@__crt_stdio_output@@@__crt_stdio_output@@CA_N_W@Z 000000018005f5a0 f i libucrtd:output.obj
 0001:0005e5e0       ??$is_character_specifier@_W@?$positional_parameter_base@_WV?$string_output_adapter@_W@__crt_stdio_output@@@__crt_stdio_output@@CA_N_W@Z 000000018005f5e0 f i libucrtd:output.obj
 0001:0005e620       ??$is_integral_specifier@D@?$positional_parameter_base@DV?$stream_output_adapter@D@__crt_stdio_output@@@__crt_stdio_output@@CA_ND@Z 000000018005f620 f i libucrtd:output.obj
 0001:0005e690       ??$is_integral_specifier@D@?$positional_parameter_base@DV?$string_output_adapter@D@__crt_stdio_output@@@__crt_stdio_output@@CA_ND@Z 000000018005f690 f i libucrtd:output.obj
 0001:0005e700       ??$is_integral_specifier@_W@?$positional_parameter_base@_WV?$stream_output_adapter@_W@__crt_stdio_output@@@__crt_stdio_output@@CA_N_W@Z 000000018005f700 f i libucrtd:output.obj
 0001:0005e770       ??$is_integral_specifier@_W@?$positional_parameter_base@_WV?$string_output_adapter@_W@__crt_stdio_output@@@__crt_stdio_output@@CA_N_W@Z 000000018005f770 f i libucrtd:output.obj
 0001:0005e7e0       ??$is_pointer_specifier@D@?$positional_parameter_base@DV?$stream_output_adapter@D@__crt_stdio_output@@@__crt_stdio_output@@CA_ND@Z 000000018005f7e0 f i libucrtd:output.obj
 0001:0005e810       ??$is_pointer_specifier@D@?$positional_parameter_base@DV?$string_output_adapter@D@__crt_stdio_output@@@__crt_stdio_output@@CA_ND@Z 000000018005f810 f i libucrtd:output.obj
 0001:0005e840       ??$is_pointer_specifier@_W@?$positional_parameter_base@_WV?$stream_output_adapter@_W@__crt_stdio_output@@@__crt_stdio_output@@CA_N_W@Z 000000018005f840 f i libucrtd:output.obj
 0001:0005e870       ??$is_pointer_specifier@_W@?$positional_parameter_base@_WV?$string_output_adapter@_W@__crt_stdio_output@@@__crt_stdio_output@@CA_N_W@Z 000000018005f870 f i libucrtd:output.obj
 0001:0005e8a0       ??$is_string_specifier@D@?$positional_parameter_base@DV?$stream_output_adapter@D@__crt_stdio_output@@@__crt_stdio_output@@CA_ND@Z 000000018005f8a0 f i libucrtd:output.obj
 0001:0005e8e0       ??$is_string_specifier@D@?$positional_parameter_base@DV?$string_output_adapter@D@__crt_stdio_output@@@__crt_stdio_output@@CA_ND@Z 000000018005f8e0 f i libucrtd:output.obj
 0001:0005e920       ??$is_string_specifier@_W@?$positional_parameter_base@_WV?$stream_output_adapter@_W@__crt_stdio_output@@@__crt_stdio_output@@CA_N_W@Z 000000018005f920 f i libucrtd:output.obj
 0001:0005e960       ??$is_string_specifier@_W@?$positional_parameter_base@_WV?$string_output_adapter@_W@__crt_stdio_output@@@__crt_stdio_output@@CA_N_W@Z 000000018005f960 f i libucrtd:output.obj
 0001:0005e9a0       ??$is_wide_character_specifier@D@__crt_stdio_output@@YA_N_KDW4length_modifier@0@@Z 000000018005f9a0 f i libucrtd:output.obj
 0001:0005ea40       ??$is_wide_character_specifier@_W@__crt_stdio_output@@YA_N_K_WW4length_modifier@0@@Z 000000018005fa40 f i libucrtd:output.obj
 0001:0005eb10       ??$peek_va_arg@C@__crt_stdio_output@@YACPEAD@Z 000000018005fb10 f i libucrtd:output.obj
 0001:0005eb70       ??$peek_va_arg@E@__crt_stdio_output@@YAEPEAD@Z 000000018005fb70 f i libucrtd:output.obj
 0001:0005ebd0       ??$peek_va_arg@F@__crt_stdio_output@@YAFPEAD@Z 000000018005fbd0 f i libucrtd:output.obj
 0001:0005ec30       ??$peek_va_arg@G@__crt_stdio_output@@YAGPEAD@Z 000000018005fc30 f i libucrtd:output.obj
 0001:0005ec90       ??$peek_va_arg@H@__crt_stdio_output@@YAHPEAD@Z 000000018005fc90 f i libucrtd:output.obj
 0001:0005ece0       ??$peek_va_arg@I@__crt_stdio_output@@YAIPEAD@Z 000000018005fce0 f i libucrtd:output.obj
 0001:0005ed30       ??$peek_va_arg@PEAD@__crt_stdio_output@@YAPEADPEAD@Z 000000018005fd30 f i libucrtd:output.obj
 0001:0005ef10       ??$peek_va_arg@PEAX@__crt_stdio_output@@YAPEAXPEAD@Z 000000018005ff10 f i libucrtd:output.obj
 0001:0005ef70       ??$peek_va_arg@U_CRT_DOUBLE@@@__crt_stdio_output@@YA?AU_CRT_DOUBLE@@PEAD@Z 000000018005ff70 f i libucrtd:output.obj
 0001:0005efd0       ??$peek_va_arg@_J@__crt_stdio_output@@YA_JPEAD@Z 000000018005ffd0 f i libucrtd:output.obj
 0001:0005f030       ??$peek_va_arg@_K@__crt_stdio_output@@YA_KPEAD@Z 0000000180060030 f i libucrtd:output.obj
 0001:0005f090       ??$peek_va_arg@_W@__crt_stdio_output@@YA_WPEAD@Z 0000000180060090 f i libucrtd:output.obj
 0001:0005f0f0       ??$puttc_nolock@AEBDPEAU_iobuf@@@?$__crt_char_traits@D@@SAHAEBD$$QEAPEAU_iobuf@@@Z 00000001800600f0 f i libucrtd:output.obj
 0001:0005f120       ??$puttc_nolock@AEB_WPEAU_iobuf@@@?$__crt_char_traits@_W@@SAGAEB_W$$QEAPEAU_iobuf@@@Z 0000000180060120 f i libucrtd:output.obj
 0001:0005f150       ??$read_va_arg@C@__crt_stdio_output@@YACAEAPEAD@Z 0000000180060150 f i libucrtd:output.obj
 0001:0005f1c0       ??$read_va_arg@E@__crt_stdio_output@@YAEAEAPEAD@Z 00000001800601c0 f i libucrtd:output.obj
 0001:0005f230       ??$read_va_arg@F@__crt_stdio_output@@YAFAEAPEAD@Z 0000000180060230 f i libucrtd:output.obj
 0001:0005f2a0       ??$read_va_arg@G@__crt_stdio_output@@YAGAEAPEAD@Z 00000001800602a0 f i libucrtd:output.obj
 0001:0005f310       ??$read_va_arg@H@__crt_stdio_output@@YAHAEAPEAD@Z 0000000180060310 f i libucrtd:output.obj
 0001:0005f370       ??$read_va_arg@I@__crt_stdio_output@@YAIAEAPEAD@Z 0000000180060370 f i libucrtd:output.obj
 0001:0005f3d0       ??$read_va_arg@PEAD@__crt_stdio_output@@YAPEADAEAPEAD@Z 00000001800603d0 f i libucrtd:output.obj
 0001:0005f980       ??$read_va_arg@PEAX@__crt_stdio_output@@YAPEAXAEAPEAD@Z 0000000180060980 f i libucrtd:output.obj
 0001:0005f9f0       ??$read_va_arg@U_CRT_DOUBLE@@@__crt_stdio_output@@YA?AU_CRT_DOUBLE@@AEAPEAD@Z 00000001800609f0 f i libucrtd:output.obj
 0001:0005fa60       ??$read_va_arg@_J@__crt_stdio_output@@YA_JAEAPEAD@Z 0000000180060a60 f i libucrtd:output.obj
 0001:0005fad0       ??$read_va_arg@_K@__crt_stdio_output@@YA_KAEAPEAD@Z 0000000180060ad0 f i libucrtd:output.obj
 0001:0005fb40       ??$read_va_arg@_W@__crt_stdio_output@@YA_WAEAPEAD@Z 0000000180060b40 f i libucrtd:output.obj
 0001:0005fbb0       ??$scratch_count@D@formatting_buffer@__crt_stdio_output@@QEBA_KXZ 0000000180060bb0 f i libucrtd:output.obj
 0001:0005fbd0       ??$scratch_data@D@formatting_buffer@__crt_stdio_output@@QEAAPEADXZ 0000000180060bd0 f i libucrtd:output.obj
 0001:0005fc40       ??$tcstol@AEAPEBDPEAPEADH@?$__crt_char_traits@D@@SAJAEAPEBD$$QEAPEAPEAD$$QEAH@Z 0000000180060c40 f i libucrtd:output.obj
 0001:0005fc80       ??$tcstol@AEAPEB_WPEAPEA_WH@?$__crt_char_traits@_W@@SAJAEAPEB_W$$QEAPEAPEA_W$$QEAH@Z 0000000180060c80 f i libucrtd:output.obj
 0001:0005fcc0       ??$tcstol@PEBDPEAPEADH@?$__crt_char_traits@D@@SAJ$$QEAPEBD$$QEAPEAPEAD$$QEAH@Z 0000000180060cc0 f i libucrtd:output.obj
 0001:0005fd00       ??$tcstol@PEB_WPEAPEA_WH@?$__crt_char_traits@_W@@SAJ$$QEAPEB_W$$QEAPEAPEA_W$$QEAH@Z 0000000180060d00 f i libucrtd:output.obj
 0001:0005fd40       ??$type_case_integer_parse_into_buffer@I@?$output_processor@DV?$stream_output_adapter@D@__crt_stdio_output@@V?$format_validation_base@DV?$stream_output_adapter@D@__crt_stdio_output@@@2@@__crt_stdio_output@@AEAAXII_N@Z 0000000180060d40 f i libucrtd:output.obj
 0001:0005fe70       ??$type_case_integer_parse_into_buffer@I@?$output_processor@DV?$stream_output_adapter@D@__crt_stdio_output@@V?$positional_parameter_base@DV?$stream_output_adapter@D@__crt_stdio_output@@@2@@__crt_stdio_output@@AEAAXII_N@Z 0000000180060e70 f i libucrtd:output.obj
 0001:0005ffa0       ??$type_case_integer_parse_into_buffer@I@?$output_processor@DV?$stream_output_adapter@D@__crt_stdio_output@@V?$standard_base@DV?$stream_output_adapter@D@__crt_stdio_output@@@2@@__crt_stdio_output@@AEAAXII_N@Z 0000000180060fa0 f i libucrtd:output.obj
 0001:000600d0       ??$type_case_integer_parse_into_buffer@I@?$output_processor@DV?$string_output_adapter@D@__crt_stdio_output@@V?$format_validation_base@DV?$string_output_adapter@D@__crt_stdio_output@@@2@@__crt_stdio_output@@AEAAXII_N@Z 00000001800610d0 f i libucrtd:output.obj
 0001:00060200       ??$type_case_integer_parse_into_buffer@I@?$output_processor@DV?$string_output_adapter@D@__crt_stdio_output@@V?$positional_parameter_base@DV?$string_output_adapter@D@__crt_stdio_output@@@2@@__crt_stdio_output@@AEAAXII_N@Z 0000000180061200 f i libucrtd:output.obj
 0001:00060330       ??$type_case_integer_parse_into_buffer@I@?$output_processor@DV?$string_output_adapter@D@__crt_stdio_output@@V?$standard_base@DV?$string_output_adapter@D@__crt_stdio_output@@@2@@__crt_stdio_output@@AEAAXII_N@Z 0000000180061330 f i libucrtd:output.obj
 0001:00060460       ??$type_case_integer_parse_into_buffer@I@?$output_processor@_WV?$stream_output_adapter@_W@__crt_stdio_output@@V?$format_validation_base@_WV?$stream_output_adapter@_W@__crt_stdio_output@@@2@@__crt_stdio_output@@AEAAXII_N@Z 0000000180061460 f i libucrtd:output.obj
 0001:000605a0       ??$type_case_integer_parse_into_buffer@I@?$output_processor@_WV?$stream_output_adapter@_W@__crt_stdio_output@@V?$positional_parameter_base@_WV?$stream_output_adapter@_W@__crt_stdio_output@@@2@@__crt_stdio_output@@AEAAXII_N@Z 00000001800615a0 f i libucrtd:output.obj
 0001:000606e0       ??$type_case_integer_parse_into_buffer@I@?$output_processor@_WV?$stream_output_adapter@_W@__crt_stdio_output@@V?$standard_base@_WV?$stream_output_adapter@_W@__crt_stdio_output@@@2@@__crt_stdio_output@@AEAAXII_N@Z 00000001800616e0 f i libucrtd:output.obj
 0001:00060820       ??$type_case_integer_parse_into_buffer@I@?$output_processor@_WV?$string_output_adapter@_W@__crt_stdio_output@@V?$format_validation_base@_WV?$string_output_adapter@_W@__crt_stdio_output@@@2@@__crt_stdio_output@@AEAAXII_N@Z 0000000180061820 f i libucrtd:output.obj
 0001:00060960       ??$type_case_integer_parse_into_buffer@I@?$output_processor@_WV?$string_output_adapter@_W@__crt_stdio_output@@V?$positional_parameter_base@_WV?$string_output_adapter@_W@__crt_stdio_output@@@2@@__crt_stdio_output@@AEAAXII_N@Z 0000000180061960 f i libucrtd:output.obj
 0001:00060aa0       ??$type_case_integer_parse_into_buffer@I@?$output_processor@_WV?$string_output_adapter@_W@__crt_stdio_output@@V?$standard_base@_WV?$string_output_adapter@_W@__crt_stdio_output@@@2@@__crt_stdio_output@@AEAAXII_N@Z 0000000180061aa0 f i libucrtd:output.obj
 0001:00060be0       ??$type_case_integer_parse_into_buffer@_K@?$output_processor@DV?$stream_output_adapter@D@__crt_stdio_output@@V?$format_validation_base@DV?$stream_output_adapter@D@__crt_stdio_output@@@2@@__crt_stdio_output@@AEAAX_KI_N@Z 0000000180061be0 f i libucrtd:output.obj
 0001:00060d30       ??$type_case_integer_parse_into_buffer@_K@?$output_processor@DV?$stream_output_adapter@D@__crt_stdio_output@@V?$positional_parameter_base@DV?$stream_output_adapter@D@__crt_stdio_output@@@2@@__crt_stdio_output@@AEAAX_KI_N@Z 0000000180061d30 f i libucrtd:output.obj
 0001:00060e80       ??$type_case_integer_parse_into_buffer@_K@?$output_processor@DV?$stream_output_adapter@D@__crt_stdio_output@@V?$standard_base@DV?$stream_output_adapter@D@__crt_stdio_output@@@2@@__crt_stdio_output@@AEAAX_KI_N@Z 0000000180061e80 f i libucrtd:output.obj
 0001:00060fd0       ??$type_case_integer_parse_into_buffer@_K@?$output_processor@DV?$string_output_adapter@D@__crt_stdio_output@@V?$format_validation_base@DV?$string_output_adapter@D@__crt_stdio_output@@@2@@__crt_stdio_output@@AEAAX_KI_N@Z 0000000180061fd0 f i libucrtd:output.obj
 0001:00061120       ??$type_case_integer_parse_into_buffer@_K@?$output_processor@DV?$string_output_adapter@D@__crt_stdio_output@@V?$positional_parameter_base@DV?$string_output_adapter@D@__crt_stdio_output@@@2@@__crt_stdio_output@@AEAAX_KI_N@Z 0000000180062120 f i libucrtd:output.obj
 0001:00061270       ??$type_case_integer_parse_into_buffer@_K@?$output_processor@DV?$string_output_adapter@D@__crt_stdio_output@@V?$standard_base@DV?$string_output_adapter@D@__crt_stdio_output@@@2@@__crt_stdio_output@@AEAAX_KI_N@Z 0000000180062270 f i libucrtd:output.obj
 0001:000613c0       ??$type_case_integer_parse_into_buffer@_K@?$output_processor@_WV?$stream_output_adapter@_W@__crt_stdio_output@@V?$format_validation_base@_WV?$stream_output_adapter@_W@__crt_stdio_output@@@2@@__crt_stdio_output@@AEAAX_KI_N@Z 00000001800623c0 f i libucrtd:output.obj
 0001:00061520       ??$type_case_integer_parse_into_buffer@_K@?$output_processor@_WV?$stream_output_adapter@_W@__crt_stdio_output@@V?$positional_parameter_base@_WV?$stream_output_adapter@_W@__crt_stdio_output@@@2@@__crt_stdio_output@@AEAAX_KI_N@Z 0000000180062520 f i libucrtd:output.obj
 0001:00061680       ??$type_case_integer_parse_into_buffer@_K@?$output_processor@_WV?$stream_output_adapter@_W@__crt_stdio_output@@V?$standard_base@_WV?$stream_output_adapter@_W@__crt_stdio_output@@@2@@__crt_stdio_output@@AEAAX_KI_N@Z 0000000180062680 f i libucrtd:output.obj
 0001:000617e0       ??$type_case_integer_parse_into_buffer@_K@?$output_processor@_WV?$string_output_adapter@_W@__crt_stdio_output@@V?$format_validation_base@_WV?$string_output_adapter@_W@__crt_stdio_output@@@2@@__crt_stdio_output@@AEAAX_KI_N@Z 00000001800627e0 f i libucrtd:output.obj
 0001:00061940       ??$type_case_integer_parse_into_buffer@_K@?$output_processor@_WV?$string_output_adapter@_W@__crt_stdio_output@@V?$positional_parameter_base@_WV?$string_output_adapter@_W@__crt_stdio_output@@@2@@__crt_stdio_output@@AEAAX_KI_N@Z 0000000180062940 f i libucrtd:output.obj
 0001:00061aa0       ??$type_case_integer_parse_into_buffer@_K@?$output_processor@_WV?$string_output_adapter@_W@__crt_stdio_output@@V?$standard_base@_WV?$string_output_adapter@_W@__crt_stdio_output@@@2@@__crt_stdio_output@@AEAAX_KI_N@Z 0000000180062aa0 f i libucrtd:output.obj
 0001:00061c00       ??$write_multiple_characters@V?$stream_output_adapter@D@__crt_stdio_output@@D@__crt_stdio_output@@YAXAEBV?$stream_output_adapter@D@0@DHQEAH@Z 0000000180062c00 f i libucrtd:output.obj
 0001:00061c60       ??$write_multiple_characters@V?$stream_output_adapter@_W@__crt_stdio_output@@D@__crt_stdio_output@@YAXAEBV?$stream_output_adapter@_W@0@DHQEAH@Z 0000000180062c60 f i libucrtd:output.obj
 0001:00061cc0       ??$write_multiple_characters@V?$string_output_adapter@D@__crt_stdio_output@@D@__crt_stdio_output@@YAXAEBV?$string_output_adapter@D@0@DHQEAH@Z 0000000180062cc0 f i libucrtd:output.obj
 0001:00061d20       ??$write_multiple_characters@V?$string_output_adapter@_W@__crt_stdio_output@@D@__crt_stdio_output@@YAXAEBV?$string_output_adapter@_W@0@DHQEAH@Z 0000000180062d20 f i libucrtd:output.obj
 0001:00062140       ??0?$common_data@D@__crt_stdio_output@@IEAA@XZ 0000000180063140 f i libucrtd:output.obj
 0001:00062210       ??0?$common_data@_W@__crt_stdio_output@@IEAA@XZ 0000000180063210 f i libucrtd:output.obj
 0001:000622e0       ??0?$output_adapter_data@DV?$stream_output_adapter@D@__crt_stdio_output@@@__crt_stdio_output@@IEAA@AEBV?$stream_output_adapter@D@1@_KQEBDQEAU__crt_locale_pointers@@QEAD@Z 00000001800632e0 f i libucrtd:output.obj
 0001:00062360       ??0?$output_adapter_data@DV?$string_output_adapter@D@__crt_stdio_output@@@__crt_stdio_output@@IEAA@AEBV?$string_output_adapter@D@1@_KQEBDQEAU__crt_locale_pointers@@QEAD@Z 0000000180063360 f i libucrtd:output.obj
 0001:000623e0       ??0?$output_adapter_data@_WV?$stream_output_adapter@_W@__crt_stdio_output@@@__crt_stdio_output@@IEAA@AEBV?$stream_output_adapter@_W@1@_KQEB_WQEAU__crt_locale_pointers@@QEAD@Z 00000001800633e0 f i libucrtd:output.obj
 0001:00062460       ??0?$output_adapter_data@_WV?$string_output_adapter@_W@__crt_stdio_output@@@__crt_stdio_output@@IEAA@AEBV?$string_output_adapter@_W@1@_KQEB_WQEAU__crt_locale_pointers@@QEAD@Z 0000000180063460 f i libucrtd:output.obj
 0001:000624e0       ??0?$output_processor@DV?$stream_output_adapter@D@__crt_stdio_output@@V?$format_validation_base@DV?$stream_output_adapter@D@__crt_stdio_output@@@2@@__crt_stdio_output@@QEAA@AEBV?$stream_output_adapter@D@1@_KQEBDQEAU__crt_locale_pointers@@QEAD@Z 00000001800634e0 f i libucrtd:output.obj
 0001:00062530       ??0?$output_processor@DV?$stream_output_adapter@D@__crt_stdio_output@@V?$positional_parameter_base@DV?$stream_output_adapter@D@__crt_stdio_output@@@2@@__crt_stdio_output@@QEAA@AEBV?$stream_output_adapter@D@1@_KQEBDQEAU__crt_locale_pointers@@QEAD@Z 0000000180063530 f i libucrtd:output.obj
 0001:00062580       ??0?$output_processor@DV?$stream_output_adapter@D@__crt_stdio_output@@V?$standard_base@DV?$stream_output_adapter@D@__crt_stdio_output@@@2@@__crt_stdio_output@@QEAA@AEBV?$stream_output_adapter@D@1@_KQEBDQEAU__crt_locale_pointers@@QEAD@Z 0000000180063580 f i libucrtd:output.obj
 0001:000625d0       ??0?$output_processor@DV?$string_output_adapter@D@__crt_stdio_output@@V?$format_validation_base@DV?$string_output_adapter@D@__crt_stdio_output@@@2@@__crt_stdio_output@@QEAA@AEBV?$string_output_adapter@D@1@_KQEBDQEAU__crt_locale_pointers@@QEAD@Z 00000001800635d0 f i libucrtd:output.obj
 0001:00062620       ??0?$output_processor@DV?$string_output_adapter@D@__crt_stdio_output@@V?$positional_parameter_base@DV?$string_output_adapter@D@__crt_stdio_output@@@2@@__crt_stdio_output@@QEAA@AEBV?$string_output_adapter@D@1@_KQEBDQEAU__crt_locale_pointers@@QEAD@Z 0000000180063620 f i libucrtd:output.obj
 0001:00062670       ??0?$output_processor@DV?$string_output_adapter@D@__crt_stdio_output@@V?$standard_base@DV?$string_output_adapter@D@__crt_stdio_output@@@2@@__crt_stdio_output@@QEAA@AEBV?$string_output_adapter@D@1@_KQEBDQEAU__crt_locale_pointers@@QEAD@Z 0000000180063670 f i libucrtd:output.obj
 0001:000626c0       ??0?$output_processor@_WV?$stream_output_adapter@_W@__crt_stdio_output@@V?$format_validation_base@_WV?$stream_output_adapter@_W@__crt_stdio_output@@@2@@__crt_stdio_output@@QEAA@AEBV?$stream_output_adapter@_W@1@_KQEB_WQEAU__crt_locale_pointers@@QEAD@Z 00000001800636c0 f i libucrtd:output.obj
 0001:00062710       ??0?$output_processor@_WV?$stream_output_adapter@_W@__crt_stdio_output@@V?$positional_parameter_base@_WV?$stream_output_adapter@_W@__crt_stdio_output@@@2@@__crt_stdio_output@@QEAA@AEBV?$stream_output_adapter@_W@1@_KQEB_WQEAU__crt_locale_pointers@@QEAD@Z 0000000180063710 f i libucrtd:output.obj
 0001:00062760       ??0?$output_processor@_WV?$stream_output_adapter@_W@__crt_stdio_output@@V?$standard_base@_WV?$stream_output_adapter@_W@__crt_stdio_output@@@2@@__crt_stdio_output@@QEAA@AEBV?$stream_output_adapter@_W@1@_KQEB_WQEAU__crt_locale_pointers@@QEAD@Z 0000000180063760 f i libucrtd:output.obj
 0001:000627b0       ??0?$output_processor@_WV?$string_output_adapter@_W@__crt_stdio_output@@V?$format_validation_base@_WV?$string_output_adapter@_W@__crt_stdio_output@@@2@@__crt_stdio_output@@QEAA@AEBV?$string_output_adapter@_W@1@_KQEB_WQEAU__crt_locale_pointers@@QEAD@Z 00000001800637b0 f i libucrtd:output.obj
 0001:00062800       ??0?$output_processor@_WV?$string_output_adapter@_W@__crt_stdio_output@@V?$positional_parameter_base@_WV?$string_output_adapter@_W@__crt_stdio_output@@@2@@__crt_stdio_output@@QEAA@AEBV?$string_output_adapter@_W@1@_KQEB_WQEAU__crt_locale_pointers@@QEAD@Z 0000000180063800 f i libucrtd:output.obj
 0001:00062850       ??0?$output_processor@_WV?$string_output_adapter@_W@__crt_stdio_output@@V?$standard_base@_WV?$string_output_adapter@_W@__crt_stdio_output@@@2@@__crt_stdio_output@@QEAA@AEBV?$string_output_adapter@_W@1@_KQEB_WQEAU__crt_locale_pointers@@QEAD@Z 0000000180063850 f i libucrtd:output.obj
 0001:000628a0       ??0?$stream_output_adapter@D@__crt_stdio_output@@QEAA@QEAU_iobuf@@@Z 00000001800638a0 f i libucrtd:output.obj
 0001:000628d0       ??0?$stream_output_adapter@_W@__crt_stdio_output@@QEAA@QEAU_iobuf@@@Z 00000001800638d0 f i libucrtd:output.obj
 0001:00062900       ??0?$string_output_adapter@D@__crt_stdio_output@@QEAA@QEAU?$string_output_adapter_context@D@1@@Z 0000000180063900 f i libucrtd:output.obj
 0001:00062920       ??0?$string_output_adapter@_W@__crt_stdio_output@@QEAA@QEAU?$string_output_adapter_context@_W@1@@Z 0000000180063920 f i libucrtd:output.obj
 0001:00062940       ??0_LocaleUpdate@@QEAA@QEAU__crt_locale_pointers@@@Z 0000000180063940 f i libucrtd:output.obj
 0001:00062a60       ??0__acrt_stdio_temporary_buffering_guard@@QEAA@QEAU_iobuf@@@Z 0000000180063a60 f i libucrtd:output.obj
 0001:00062aa0       ??0__crt_deferred_errno_cache@@QEAA@XZ 0000000180063aa0 f i libucrtd:output.obj
 0001:00062ac0       ??0__crt_errno_guard@@QEAA@QEAH@Z 0000000180063ac0 f i libucrtd:output.obj
 0001:00062b00       ??0__crt_stdio_stream@@QEAA@QEAU_iobuf@@@Z 0000000180063b00 f i libucrtd:output.obj
 0001:00062b20       ??0formatting_buffer@__crt_stdio_output@@QEAA@XZ 0000000180063b20 f i libucrtd:output.obj
 0001:00062b60       ??1?$common_data@D@__crt_stdio_output@@QEAA@XZ 0000000180063b60 f i libucrtd:output.obj
 0001:00062b80       ??1?$common_data@_W@__crt_stdio_output@@QEAA@XZ 0000000180063b80 f i libucrtd:output.obj
 0001:00062ba0       ??1?$format_validation_base@DV?$stream_output_adapter@D@__crt_stdio_output@@@__crt_stdio_output@@QEAA@XZ 0000000180063ba0 f i libucrtd:output.obj
 0001:00062bc0       ??1?$format_validation_base@DV?$string_output_adapter@D@__crt_stdio_output@@@__crt_stdio_output@@QEAA@XZ 0000000180063bc0 f i libucrtd:output.obj
 0001:00062be0       ??1?$format_validation_base@_WV?$stream_output_adapter@_W@__crt_stdio_output@@@__crt_stdio_output@@QEAA@XZ 0000000180063be0 f i libucrtd:output.obj
 0001:00062c00       ??1?$format_validation_base@_WV?$string_output_adapter@_W@__crt_stdio_output@@@__crt_stdio_output@@QEAA@XZ 0000000180063c00 f i libucrtd:output.obj
 0001:00062c20       ??1?$output_adapter_data@DV?$stream_output_adapter@D@__crt_stdio_output@@@__crt_stdio_output@@QEAA@XZ 0000000180063c20 f i libucrtd:output.obj
 0001:00062c40       ??1?$output_adapter_data@DV?$string_output_adapter@D@__crt_stdio_output@@@__crt_stdio_output@@QEAA@XZ 0000000180063c40 f i libucrtd:output.obj
 0001:00062c60       ??1?$output_adapter_data@_WV?$stream_output_adapter@_W@__crt_stdio_output@@@__crt_stdio_output@@QEAA@XZ 0000000180063c60 f i libucrtd:output.obj
 0001:00062c80       ??1?$output_adapter_data@_WV?$string_output_adapter@_W@__crt_stdio_output@@@__crt_stdio_output@@QEAA@XZ 0000000180063c80 f i libucrtd:output.obj
 0001:00062ca0       ??1?$output_processor@DV?$stream_output_adapter@D@__crt_stdio_output@@V?$format_validation_base@DV?$stream_output_adapter@D@__crt_stdio_output@@@2@@__crt_stdio_output@@QEAA@XZ 0000000180063ca0 f i libucrtd:output.obj
 0001:00062cc0       ??1?$output_processor@DV?$stream_output_adapter@D@__crt_stdio_output@@V?$positional_parameter_base@DV?$stream_output_adapter@D@__crt_stdio_output@@@2@@__crt_stdio_output@@QEAA@XZ 0000000180063cc0 f i libucrtd:output.obj
 0001:00062ce0       ??1?$output_processor@DV?$stream_output_adapter@D@__crt_stdio_output@@V?$standard_base@DV?$stream_output_adapter@D@__crt_stdio_output@@@2@@__crt_stdio_output@@QEAA@XZ 0000000180063ce0 f i libucrtd:output.obj
 0001:00062d00       ??1?$output_processor@DV?$string_output_adapter@D@__crt_stdio_output@@V?$format_validation_base@DV?$string_output_adapter@D@__crt_stdio_output@@@2@@__crt_stdio_output@@QEAA@XZ 0000000180063d00 f i libucrtd:output.obj
 0001:00062d20       ??1?$output_processor@DV?$string_output_adapter@D@__crt_stdio_output@@V?$positional_parameter_base@DV?$string_output_adapter@D@__crt_stdio_output@@@2@@__crt_stdio_output@@QEAA@XZ 0000000180063d20 f i libucrtd:output.obj
 0001:00062d40       ??1?$output_processor@DV?$string_output_adapter@D@__crt_stdio_output@@V?$standard_base@DV?$string_output_adapter@D@__crt_stdio_output@@@2@@__crt_stdio_output@@QEAA@XZ 0000000180063d40 f i libucrtd:output.obj
 0001:00062d60       ??1?$output_processor@_WV?$stream_output_adapter@_W@__crt_stdio_output@@V?$format_validation_base@_WV?$stream_output_adapter@_W@__crt_stdio_output@@@2@@__crt_stdio_output@@QEAA@XZ 0000000180063d60 f i libucrtd:output.obj
 0001:00062d80       ??1?$output_processor@_WV?$stream_output_adapter@_W@__crt_stdio_output@@V?$positional_parameter_base@_WV?$stream_output_adapter@_W@__crt_stdio_output@@@2@@__crt_stdio_output@@QEAA@XZ 0000000180063d80 f i libucrtd:output.obj
 0001:00062da0       ??1?$output_processor@_WV?$stream_output_adapter@_W@__crt_stdio_output@@V?$standard_base@_WV?$stream_output_adapter@_W@__crt_stdio_output@@@2@@__crt_stdio_output@@QEAA@XZ 0000000180063da0 f i libucrtd:output.obj
 0001:00062dc0       ??1?$output_processor@_WV?$string_output_adapter@_W@__crt_stdio_output@@V?$format_validation_base@_WV?$string_output_adapter@_W@__crt_stdio_output@@@2@@__crt_stdio_output@@QEAA@XZ 0000000180063dc0 f i libucrtd:output.obj
 0001:00062de0       ??1?$output_processor@_WV?$string_output_adapter@_W@__crt_stdio_output@@V?$positional_parameter_base@_WV?$string_output_adapter@_W@__crt_stdio_output@@@2@@__crt_stdio_output@@QEAA@XZ 0000000180063de0 f i libucrtd:output.obj
 0001:00062e00       ??1?$output_processor@_WV?$string_output_adapter@_W@__crt_stdio_output@@V?$standard_base@_WV?$string_output_adapter@_W@__crt_stdio_output@@@2@@__crt_stdio_output@@QEAA@XZ 0000000180063e00 f i libucrtd:output.obj
 0001:00062e20       ??1?$positional_parameter_base@DV?$stream_output_adapter@D@__crt_stdio_output@@@__crt_stdio_output@@QEAA@XZ 0000000180063e20 f i libucrtd:output.obj
 0001:00062e40       ??1?$positional_parameter_base@DV?$string_output_adapter@D@__crt_stdio_output@@@__crt_stdio_output@@QEAA@XZ 0000000180063e40 f i libucrtd:output.obj
 0001:00062e60       ??1?$positional_parameter_base@_WV?$stream_output_adapter@_W@__crt_stdio_output@@@__crt_stdio_output@@QEAA@XZ 0000000180063e60 f i libucrtd:output.obj
 0001:00062e80       ??1?$positional_parameter_base@_WV?$string_output_adapter@_W@__crt_stdio_output@@@__crt_stdio_output@@QEAA@XZ 0000000180063e80 f i libucrtd:output.obj
 0001:00062ea0       ??1?$standard_base@DV?$stream_output_adapter@D@__crt_stdio_output@@@__crt_stdio_output@@QEAA@XZ 0000000180063ea0 f i libucrtd:output.obj
 0001:00062ec0       ??1?$standard_base@DV?$string_output_adapter@D@__crt_stdio_output@@@__crt_stdio_output@@QEAA@XZ 0000000180063ec0 f i libucrtd:output.obj
 0001:00062ee0       ??1?$standard_base@_WV?$stream_output_adapter@_W@__crt_stdio_output@@@__crt_stdio_output@@QEAA@XZ 0000000180063ee0 f i libucrtd:output.obj
 0001:00062f00       ??1?$standard_base@_WV?$string_output_adapter@_W@__crt_stdio_output@@@__crt_stdio_output@@QEAA@XZ 0000000180063f00 f i libucrtd:output.obj
 0001:00062f20       ??1_LocaleUpdate@@QEAA@XZ  0000000180063f20 f i libucrtd:output.obj
 0001:00062f60       ??1__acrt_stdio_temporary_buffering_guard@@QEAA@XZ 0000000180063f60 f i libucrtd:output.obj
 0001:00062f90       ??1__crt_errno_guard@@QEAA@XZ 0000000180063f90 f i libucrtd:output.obj
 0001:00062fc0       ??1formatting_buffer@__crt_stdio_output@@QEAA@XZ 0000000180063fc0 f i libucrtd:output.obj
 0001:00062ff0       ??4?$__crt_unique_heap_ptr@DU__crt_internal_free_policy@@@@QEAAAEAV0@$$QEAV0@@Z 0000000180063ff0 f i libucrtd:output.obj
 0001:00063030       ??C__crt_stdio_stream@@QEBAPEAU__crt_stdio_stream_data@@XZ 0000000180064030 f i libucrtd:output.obj
 0001:000638e0       ?GetLocaleT@_LocaleUpdate@@QEAAPEAU__crt_locale_pointers@@XZ 00000001800648e0 f i libucrtd:output.obj
 0001:000638f0       ?__crt_interlocked_read_32@@YAHPEDH@Z 00000001800648f0 f i libucrtd:output.obj
 0001:00063910       ?adjust_hexit@?$output_processor@DV?$stream_output_adapter@D@__crt_stdio_output@@V?$format_validation_base@DV?$stream_output_adapter@D@__crt_stdio_output@@@2@@__crt_stdio_output@@CADH_N@Z 0000000180064910 f i libucrtd:output.obj
 0001:00063960       ?adjust_hexit@?$output_processor@DV?$stream_output_adapter@D@__crt_stdio_output@@V?$positional_parameter_base@DV?$stream_output_adapter@D@__crt_stdio_output@@@2@@__crt_stdio_output@@CADH_N@Z 0000000180064960 f i libucrtd:output.obj
 0001:000639b0       ?adjust_hexit@?$output_processor@DV?$stream_output_adapter@D@__crt_stdio_output@@V?$standard_base@DV?$stream_output_adapter@D@__crt_stdio_output@@@2@@__crt_stdio_output@@CADH_N@Z 00000001800649b0 f i libucrtd:output.obj
 0001:00063a00       ?adjust_hexit@?$output_processor@DV?$string_output_adapter@D@__crt_stdio_output@@V?$format_validation_base@DV?$string_output_adapter@D@__crt_stdio_output@@@2@@__crt_stdio_output@@CADH_N@Z 0000000180064a00 f i libucrtd:output.obj
 0001:00063a50       ?adjust_hexit@?$output_processor@DV?$string_output_adapter@D@__crt_stdio_output@@V?$positional_parameter_base@DV?$string_output_adapter@D@__crt_stdio_output@@@2@@__crt_stdio_output@@CADH_N@Z 0000000180064a50 f i libucrtd:output.obj
 0001:00063aa0       ?adjust_hexit@?$output_processor@DV?$string_output_adapter@D@__crt_stdio_output@@V?$standard_base@DV?$string_output_adapter@D@__crt_stdio_output@@@2@@__crt_stdio_output@@CADH_N@Z 0000000180064aa0 f i libucrtd:output.obj
 0001:00063af0       ?adjust_hexit@?$output_processor@_WV?$stream_output_adapter@_W@__crt_stdio_output@@V?$format_validation_base@_WV?$stream_output_adapter@_W@__crt_stdio_output@@@2@@__crt_stdio_output@@CADH_N@Z 0000000180064af0 f i libucrtd:output.obj
 0001:00063b40       ?adjust_hexit@?$output_processor@_WV?$stream_output_adapter@_W@__crt_stdio_output@@V?$positional_parameter_base@_WV?$stream_output_adapter@_W@__crt_stdio_output@@@2@@__crt_stdio_output@@CADH_N@Z 0000000180064b40 f i libucrtd:output.obj
 0001:00063b90       ?adjust_hexit@?$output_processor@_WV?$stream_output_adapter@_W@__crt_stdio_output@@V?$standard_base@_WV?$stream_output_adapter@_W@__crt_stdio_output@@@2@@__crt_stdio_output@@CADH_N@Z 0000000180064b90 f i libucrtd:output.obj
 0001:00063be0       ?adjust_hexit@?$output_processor@_WV?$string_output_adapter@_W@__crt_stdio_output@@V?$format_validation_base@_WV?$string_output_adapter@_W@__crt_stdio_output@@@2@@__crt_stdio_output@@CADH_N@Z 0000000180064be0 f i libucrtd:output.obj
 0001:00063c30       ?adjust_hexit@?$output_processor@_WV?$string_output_adapter@_W@__crt_stdio_output@@V?$positional_parameter_base@_WV?$string_output_adapter@_W@__crt_stdio_output@@@2@@__crt_stdio_output@@CADH_N@Z 0000000180064c30 f i libucrtd:output.obj
 0001:00063c80       ?adjust_hexit@?$output_processor@_WV?$string_output_adapter@_W@__crt_stdio_output@@V?$standard_base@_WV?$string_output_adapter@_W@__crt_stdio_output@@@2@@__crt_stdio_output@@CADH_N@Z 0000000180064c80 f i libucrtd:output.obj
 0001:00063cd0       ?advance_to_next_pass@?$positional_parameter_base@DV?$stream_output_adapter@D@__crt_stdio_output@@@__crt_stdio_output@@IEAA_NXZ 0000000180064cd0 f i libucrtd:output.obj
 0001:00063d80       ?advance_to_next_pass@?$positional_parameter_base@DV?$string_output_adapter@D@__crt_stdio_output@@@__crt_stdio_output@@IEAA_NXZ 0000000180064d80 f i libucrtd:output.obj
 0001:00063e30       ?advance_to_next_pass@?$positional_parameter_base@_WV?$stream_output_adapter@_W@__crt_stdio_output@@@__crt_stdio_output@@IEAA_NXZ 0000000180064e30 f i libucrtd:output.obj
 0001:00063ee0       ?advance_to_next_pass@?$positional_parameter_base@_WV?$string_output_adapter@_W@__crt_stdio_output@@@__crt_stdio_output@@IEAA_NXZ 0000000180064ee0 f i libucrtd:output.obj
 0001:00063f90       ?advance_to_next_pass@?$standard_base@DV?$stream_output_adapter@D@__crt_stdio_output@@@__crt_stdio_output@@IEAA_NXZ 0000000180064f90 f i libucrtd:output.obj
 0001:00063fe0       ?advance_to_next_pass@?$standard_base@DV?$string_output_adapter@D@__crt_stdio_output@@@__crt_stdio_output@@IEAA_NXZ 0000000180064fe0 f i libucrtd:output.obj
 0001:00064030       ?advance_to_next_pass@?$standard_base@_WV?$stream_output_adapter@_W@__crt_stdio_output@@@__crt_stdio_output@@IEAA_NXZ 0000000180065030 f i libucrtd:output.obj
 0001:00064080       ?advance_to_next_pass@?$standard_base@_WV?$string_output_adapter@_W@__crt_stdio_output@@@__crt_stdio_output@@IEAA_NXZ 0000000180065080 f i libucrtd:output.obj
 0001:000640d0       ?crop_zeroes@__crt_stdio_output@@YAXPEADQEAU__crt_locale_pointers@@@Z 00000001800650d0 f i libucrtd:output.obj
 0001:00064210       ?find_next_state@?$output_processor@DV?$stream_output_adapter@D@__crt_stdio_output@@V?$format_validation_base@DV?$stream_output_adapter@D@__crt_stdio_output@@@2@@__crt_stdio_output@@AEBA?AW4state@2@DW432@@Z 0000000180065210 f i libucrtd:output.obj
 0001:000642b0       ?find_next_state@?$output_processor@DV?$stream_output_adapter@D@__crt_stdio_output@@V?$positional_parameter_base@DV?$stream_output_adapter@D@__crt_stdio_output@@@2@@__crt_stdio_output@@AEBA?AW4state@2@DW432@@Z 00000001800652b0 f i libucrtd:output.obj
 0001:00064350       ?find_next_state@?$output_processor@DV?$stream_output_adapter@D@__crt_stdio_output@@V?$standard_base@DV?$stream_output_adapter@D@__crt_stdio_output@@@2@@__crt_stdio_output@@AEBA?AW4state@2@DW432@@Z 0000000180065350 f i libucrtd:output.obj
 0001:000643f0       ?find_next_state@?$output_processor@DV?$string_output_adapter@D@__crt_stdio_output@@V?$format_validation_base@DV?$string_output_adapter@D@__crt_stdio_output@@@2@@__crt_stdio_output@@AEBA?AW4state@2@DW432@@Z 00000001800653f0 f i libucrtd:output.obj
 0001:00064490       ?find_next_state@?$output_processor@DV?$string_output_adapter@D@__crt_stdio_output@@V?$positional_parameter_base@DV?$string_output_adapter@D@__crt_stdio_output@@@2@@__crt_stdio_output@@AEBA?AW4state@2@DW432@@Z 0000000180065490 f i libucrtd:output.obj
 0001:00064530       ?find_next_state@?$output_processor@DV?$string_output_adapter@D@__crt_stdio_output@@V?$standard_base@DV?$string_output_adapter@D@__crt_stdio_output@@@2@@__crt_stdio_output@@AEBA?AW4state@2@DW432@@Z 0000000180065530 f i libucrtd:output.obj
 0001:000645d0       ?find_next_state@?$output_processor@_WV?$stream_output_adapter@_W@__crt_stdio_output@@V?$format_validation_base@_WV?$stream_output_adapter@_W@__crt_stdio_output@@@2@@__crt_stdio_output@@AEBA?AW4state@2@_WW432@@Z 00000001800655d0 f i libucrtd:output.obj
 0001:00064670       ?find_next_state@?$output_processor@_WV?$stream_output_adapter@_W@__crt_stdio_output@@V?$positional_parameter_base@_WV?$stream_output_adapter@_W@__crt_stdio_output@@@2@@__crt_stdio_output@@AEBA?AW4state@2@_WW432@@Z 0000000180065670 f i libucrtd:output.obj
 0001:00064710       ?find_next_state@?$output_processor@_WV?$stream_output_adapter@_W@__crt_stdio_output@@V?$standard_base@_WV?$stream_output_adapter@_W@__crt_stdio_output@@@2@@__crt_stdio_output@@AEBA?AW4state@2@_WW432@@Z 0000000180065710 f i libucrtd:output.obj
 0001:000647b0       ?find_next_state@?$output_processor@_WV?$string_output_adapter@_W@__crt_stdio_output@@V?$format_validation_base@_WV?$string_output_adapter@_W@__crt_stdio_output@@@2@@__crt_stdio_output@@AEBA?AW4state@2@_WW432@@Z 00000001800657b0 f i libucrtd:output.obj
 0001:00064850       ?find_next_state@?$output_processor@_WV?$string_output_adapter@_W@__crt_stdio_output@@V?$positional_parameter_base@_WV?$string_output_adapter@_W@__crt_stdio_output@@@2@@__crt_stdio_output@@AEBA?AW4state@2@_WW432@@Z 0000000180065850 f i libucrtd:output.obj
 0001:000648f0       ?find_next_state@?$output_processor@_WV?$string_output_adapter@_W@__crt_stdio_output@@V?$standard_base@_WV?$string_output_adapter@_W@__crt_stdio_output@@@2@@__crt_stdio_output@@AEBA?AW4state@2@_WW432@@Z 00000001800658f0 f i libucrtd:output.obj
 0001:00064990       ?force_decimal_point@__crt_stdio_output@@YAXPEADQEAU__crt_locale_pointers@@@Z 0000000180065990 f i libucrtd:output.obj
 0001:00064a90       ?get@__crt_deferred_errno_cache@@QEAAAEAHXZ 0000000180065a90 f i libucrtd:output.obj
 0001:00064ac0       ?get_flags@__crt_stdio_stream@@QEBAJXZ 0000000180065ac0 f i libucrtd:output.obj
 0001:00064af0       ?get_parameter_type@?$positional_parameter_base@DV?$stream_output_adapter@D@__crt_stdio_output@@@__crt_stdio_output@@CA?AW4parameter_type@12@F@Z 0000000180065af0 f i libucrtd:output.obj
 0001:00064b00       ?get_parameter_type@?$positional_parameter_base@DV?$stream_output_adapter@D@__crt_stdio_output@@@__crt_stdio_output@@CA?AW4parameter_type@12@G@Z 0000000180065b00 f i libucrtd:output.obj
 0001:00064b10       ?get_parameter_type@?$positional_parameter_base@DV?$stream_output_adapter@D@__crt_stdio_output@@@__crt_stdio_output@@CA?AW4parameter_type@12@H@Z 0000000180065b10 f i libucrtd:output.obj
 0001:00064b20       ?get_parameter_type@?$positional_parameter_base@DV?$stream_output_adapter@D@__crt_stdio_output@@@__crt_stdio_output@@CA?AW4parameter_type@12@I@Z 0000000180065b20 f i libucrtd:output.obj
 0001:00064b30       ?get_parameter_type@?$positional_parameter_base@DV?$stream_output_adapter@D@__crt_stdio_output@@@__crt_stdio_output@@CA?AW4parameter_type@12@U_CRT_DOUBLE@@@Z 0000000180065b30 f i libucrtd:output.obj
 0001:00064b40       ?get_parameter_type@?$positional_parameter_base@DV?$stream_output_adapter@D@__crt_stdio_output@@@__crt_stdio_output@@CA?AW4parameter_type@12@_J@Z 0000000180065b40 f i libucrtd:output.obj
 0001:00064b50       ?get_parameter_type@?$positional_parameter_base@DV?$stream_output_adapter@D@__crt_stdio_output@@@__crt_stdio_output@@CA?AW4parameter_type@12@_K@Z 0000000180065b50 f i libucrtd:output.obj
 0001:00064b60       ?get_parameter_type@?$positional_parameter_base@DV?$stream_output_adapter@D@__crt_stdio_output@@@__crt_stdio_output@@CA?AW4parameter_type@12@_W@Z 0000000180065b60 f i libucrtd:output.obj
 0001:00064b70       ?get_parameter_type@?$positional_parameter_base@DV?$string_output_adapter@D@__crt_stdio_output@@@__crt_stdio_output@@CA?AW4parameter_type@12@F@Z 0000000180065b70 f i libucrtd:output.obj
 0001:00064b80       ?get_parameter_type@?$positional_parameter_base@DV?$string_output_adapter@D@__crt_stdio_output@@@__crt_stdio_output@@CA?AW4parameter_type@12@G@Z 0000000180065b80 f i libucrtd:output.obj
 0001:00064b90       ?get_parameter_type@?$positional_parameter_base@DV?$string_output_adapter@D@__crt_stdio_output@@@__crt_stdio_output@@CA?AW4parameter_type@12@H@Z 0000000180065b90 f i libucrtd:output.obj
 0001:00064ba0       ?get_parameter_type@?$positional_parameter_base@DV?$string_output_adapter@D@__crt_stdio_output@@@__crt_stdio_output@@CA?AW4parameter_type@12@I@Z 0000000180065ba0 f i libucrtd:output.obj
 0001:00064bb0       ?get_parameter_type@?$positional_parameter_base@DV?$string_output_adapter@D@__crt_stdio_output@@@__crt_stdio_output@@CA?AW4parameter_type@12@U_CRT_DOUBLE@@@Z 0000000180065bb0 f i libucrtd:output.obj
 0001:00064bc0       ?get_parameter_type@?$positional_parameter_base@DV?$string_output_adapter@D@__crt_stdio_output@@@__crt_stdio_output@@CA?AW4parameter_type@12@_J@Z 0000000180065bc0 f i libucrtd:output.obj
 0001:00064bd0       ?get_parameter_type@?$positional_parameter_base@DV?$string_output_adapter@D@__crt_stdio_output@@@__crt_stdio_output@@CA?AW4parameter_type@12@_K@Z 0000000180065bd0 f i libucrtd:output.obj
 0001:00064be0       ?get_parameter_type@?$positional_parameter_base@DV?$string_output_adapter@D@__crt_stdio_output@@@__crt_stdio_output@@CA?AW4parameter_type@12@_W@Z 0000000180065be0 f i libucrtd:output.obj
 0001:00064bf0       ?get_parameter_type@?$positional_parameter_base@_WV?$stream_output_adapter@_W@__crt_stdio_output@@@__crt_stdio_output@@CA?AW4parameter_type@12@F@Z 0000000180065bf0 f i libucrtd:output.obj
 0001:00064c00       ?get_parameter_type@?$positional_parameter_base@_WV?$stream_output_adapter@_W@__crt_stdio_output@@@__crt_stdio_output@@CA?AW4parameter_type@12@G@Z 0000000180065c00 f i libucrtd:output.obj
 0001:00064c10       ?get_parameter_type@?$positional_parameter_base@_WV?$stream_output_adapter@_W@__crt_stdio_output@@@__crt_stdio_output@@CA?AW4parameter_type@12@H@Z 0000000180065c10 f i libucrtd:output.obj
 0001:00064c20       ?get_parameter_type@?$positional_parameter_base@_WV?$stream_output_adapter@_W@__crt_stdio_output@@@__crt_stdio_output@@CA?AW4parameter_type@12@I@Z 0000000180065c20 f i libucrtd:output.obj
 0001:00064c30       ?get_parameter_type@?$positional_parameter_base@_WV?$stream_output_adapter@_W@__crt_stdio_output@@@__crt_stdio_output@@CA?AW4parameter_type@12@U_CRT_DOUBLE@@@Z 0000000180065c30 f i libucrtd:output.obj
 0001:00064c40       ?get_parameter_type@?$positional_parameter_base@_WV?$stream_output_adapter@_W@__crt_stdio_output@@@__crt_stdio_output@@CA?AW4parameter_type@12@_J@Z 0000000180065c40 f i libucrtd:output.obj
 0001:00064c50       ?get_parameter_type@?$positional_parameter_base@_WV?$stream_output_adapter@_W@__crt_stdio_output@@@__crt_stdio_output@@CA?AW4parameter_type@12@_K@Z 0000000180065c50 f i libucrtd:output.obj
 0001:00064c60       ?get_parameter_type@?$positional_parameter_base@_WV?$stream_output_adapter@_W@__crt_stdio_output@@@__crt_stdio_output@@CA?AW4parameter_type@12@_W@Z 0000000180065c60 f i libucrtd:output.obj
 0001:00064c70       ?get_parameter_type@?$positional_parameter_base@_WV?$string_output_adapter@_W@__crt_stdio_output@@@__crt_stdio_output@@CA?AW4parameter_type@12@F@Z 0000000180065c70 f i libucrtd:output.obj
 0001:00064c80       ?get_parameter_type@?$positional_parameter_base@_WV?$string_output_adapter@_W@__crt_stdio_output@@@__crt_stdio_output@@CA?AW4parameter_type@12@G@Z 0000000180065c80 f i libucrtd:output.obj
 0001:00064c90       ?get_parameter_type@?$positional_parameter_base@_WV?$string_output_adapter@_W@__crt_stdio_output@@@__crt_stdio_output@@CA?AW4parameter_type@12@H@Z 0000000180065c90 f i libucrtd:output.obj
 0001:00064ca0       ?get_parameter_type@?$positional_parameter_base@_WV?$string_output_adapter@_W@__crt_stdio_output@@@__crt_stdio_output@@CA?AW4parameter_type@12@I@Z 0000000180065ca0 f i libucrtd:output.obj
 0001:00064cb0       ?get_parameter_type@?$positional_parameter_base@_WV?$string_output_adapter@_W@__crt_stdio_output@@@__crt_stdio_output@@CA?AW4parameter_type@12@U_CRT_DOUBLE@@@Z 0000000180065cb0 f i libucrtd:output.obj
 0001:00064cc0       ?get_parameter_type@?$positional_parameter_base@_WV?$string_output_adapter@_W@__crt_stdio_output@@@__crt_stdio_output@@CA?AW4parameter_type@12@_J@Z 0000000180065cc0 f i libucrtd:output.obj
 0001:00064cd0       ?get_parameter_type@?$positional_parameter_base@_WV?$string_output_adapter@_W@__crt_stdio_output@@@__crt_stdio_output@@CA?AW4parameter_type@12@_K@Z 0000000180065cd0 f i libucrtd:output.obj
 0001:00064ce0       ?get_parameter_type@?$positional_parameter_base@_WV?$string_output_adapter@_W@__crt_stdio_output@@@__crt_stdio_output@@CA?AW4parameter_type@12@_W@Z 0000000180065ce0 f i libucrtd:output.obj
 0001:00064cf0       ?has_flag@?$output_processor@DV?$stream_output_adapter@D@__crt_stdio_output@@V?$format_validation_base@DV?$stream_output_adapter@D@__crt_stdio_output@@@2@@__crt_stdio_output@@AEBA_NI@Z 0000000180065cf0 f i libucrtd:output.obj
 0001:00064d30       ?has_flag@?$output_processor@DV?$stream_output_adapter@D@__crt_stdio_output@@V?$positional_parameter_base@DV?$stream_output_adapter@D@__crt_stdio_output@@@2@@__crt_stdio_output@@AEBA_NI@Z 0000000180065d30 f i libucrtd:output.obj
 0001:00064d70       ?has_flag@?$output_processor@DV?$stream_output_adapter@D@__crt_stdio_output@@V?$standard_base@DV?$stream_output_adapter@D@__crt_stdio_output@@@2@@__crt_stdio_output@@AEBA_NI@Z 0000000180065d70 f i libucrtd:output.obj
 0001:00064db0       ?has_flag@?$output_processor@DV?$string_output_adapter@D@__crt_stdio_output@@V?$format_validation_base@DV?$string_output_adapter@D@__crt_stdio_output@@@2@@__crt_stdio_output@@AEBA_NI@Z 0000000180065db0 f i libucrtd:output.obj
 0001:00064df0       ?has_flag@?$output_processor@DV?$string_output_adapter@D@__crt_stdio_output@@V?$positional_parameter_base@DV?$string_output_adapter@D@__crt_stdio_output@@@2@@__crt_stdio_output@@AEBA_NI@Z 0000000180065df0 f i libucrtd:output.obj
 0001:00064e30       ?has_flag@?$output_processor@DV?$string_output_adapter@D@__crt_stdio_output@@V?$standard_base@DV?$string_output_adapter@D@__crt_stdio_output@@@2@@__crt_stdio_output@@AEBA_NI@Z 0000000180065e30 f i libucrtd:output.obj
 0001:00064e70       ?has_flag@?$output_processor@_WV?$stream_output_adapter@_W@__crt_stdio_output@@V?$format_validation_base@_WV?$stream_output_adapter@_W@__crt_stdio_output@@@2@@__crt_stdio_output@@AEBA_NI@Z 0000000180065e70 f i libucrtd:output.obj
 0001:00064eb0       ?has_flag@?$output_processor@_WV?$stream_output_adapter@_W@__crt_stdio_output@@V?$positional_parameter_base@_WV?$stream_output_adapter@_W@__crt_stdio_output@@@2@@__crt_stdio_output@@AEBA_NI@Z 0000000180065eb0 f i libucrtd:output.obj
 0001:00064ef0       ?has_flag@?$output_processor@_WV?$stream_output_adapter@_W@__crt_stdio_output@@V?$standard_base@_WV?$stream_output_adapter@_W@__crt_stdio_output@@@2@@__crt_stdio_output@@AEBA_NI@Z 0000000180065ef0 f i libucrtd:output.obj
 0001:00064f30       ?has_flag@?$output_processor@_WV?$string_output_adapter@_W@__crt_stdio_output@@V?$format_validation_base@_WV?$string_output_adapter@_W@__crt_stdio_output@@@2@@__crt_stdio_output@@AEBA_NI@Z 0000000180065f30 f i libucrtd:output.obj
 0001:00064f70       ?has_flag@?$output_processor@_WV?$string_output_adapter@_W@__crt_stdio_output@@V?$positional_parameter_base@_WV?$string_output_adapter@_W@__crt_stdio_output@@@2@@__crt_stdio_output@@AEBA_NI@Z 0000000180065f70 f i libucrtd:output.obj
 0001:00064fb0       ?has_flag@?$output_processor@_WV?$string_output_adapter@_W@__crt_stdio_output@@V?$standard_base@_WV?$string_output_adapter@_W@__crt_stdio_output@@@2@@__crt_stdio_output@@AEBA_NI@Z 0000000180065fb0 f i libucrtd:output.obj
 0001:00064ff0       ?is_positional_parameter_reappearance_consistent@?$positional_parameter_base@DV?$stream_output_adapter@D@__crt_stdio_output@@@__crt_stdio_output@@AEAA_NAEBUparameter_data@12@W4parameter_type@12@DW4length_modifier@2@@Z 0000000180065ff0 f i libucrtd:output.obj
 0001:00065250       ?is_positional_parameter_reappearance_consistent@?$positional_parameter_base@DV?$string_output_adapter@D@__crt_stdio_output@@@__crt_stdio_output@@AEAA_NAEBUparameter_data@12@W4parameter_type@12@DW4length_modifier@2@@Z 0000000180066250 f i libucrtd:output.obj
 0001:000654b0       ?is_positional_parameter_reappearance_consistent@?$positional_parameter_base@_WV?$stream_output_adapter@_W@__crt_stdio_output@@@__crt_stdio_output@@AEAA_NAEBUparameter_data@12@W4parameter_type@12@_WW4length_modifier@2@@Z 00000001800664b0 f i libucrtd:output.obj
 0001:00065710       ?is_positional_parameter_reappearance_consistent@?$positional_parameter_base@_WV?$string_output_adapter@_W@__crt_stdio_output@@@__crt_stdio_output@@AEAA_NAEBUparameter_data@12@W4parameter_type@12@_WW4length_modifier@2@@Z 0000000180066710 f i libucrtd:output.obj
 0001:00065970       ?is_string_backed@__crt_stdio_stream@@QEBA_NXZ 0000000180066970 f i libucrtd:output.obj
 0001:000659b0       ?narrow_null_string@?$output_processor@DV?$stream_output_adapter@D@__crt_stdio_output@@V?$format_validation_base@DV?$stream_output_adapter@D@__crt_stdio_output@@@2@@__crt_stdio_output@@CAPEADXZ 00000001800669b0 f i libucrtd:output.obj
 0001:000659c0       ?narrow_null_string@?$output_processor@DV?$stream_output_adapter@D@__crt_stdio_output@@V?$positional_parameter_base@DV?$stream_output_adapter@D@__crt_stdio_output@@@2@@__crt_stdio_output@@CAPEADXZ 00000001800669c0 f i libucrtd:output.obj
 0001:000659d0       ?narrow_null_string@?$output_processor@DV?$stream_output_adapter@D@__crt_stdio_output@@V?$standard_base@DV?$stream_output_adapter@D@__crt_stdio_output@@@2@@__crt_stdio_output@@CAPEADXZ 00000001800669d0 f i libucrtd:output.obj
 0001:000659e0       ?narrow_null_string@?$output_processor@DV?$string_output_adapter@D@__crt_stdio_output@@V?$format_validation_base@DV?$string_output_adapter@D@__crt_stdio_output@@@2@@__crt_stdio_output@@CAPEADXZ 00000001800669e0 f i libucrtd:output.obj
 0001:000659f0       ?narrow_null_string@?$output_processor@DV?$string_output_adapter@D@__crt_stdio_output@@V?$positional_parameter_base@DV?$string_output_adapter@D@__crt_stdio_output@@@2@@__crt_stdio_output@@CAPEADXZ 00000001800669f0 f i libucrtd:output.obj
 0001:00065a00       ?narrow_null_string@?$output_processor@DV?$string_output_adapter@D@__crt_stdio_output@@V?$standard_base@DV?$string_output_adapter@D@__crt_stdio_output@@@2@@__crt_stdio_output@@CAPEADXZ 0000000180066a00 f i libucrtd:output.obj
 0001:00065a10       ?narrow_null_string@?$output_processor@_WV?$stream_output_adapter@_W@__crt_stdio_output@@V?$format_validation_base@_WV?$stream_output_adapter@_W@__crt_stdio_output@@@2@@__crt_stdio_output@@CAPEADXZ 0000000180066a10 f i libucrtd:output.obj
 0001:00065a20       ?narrow_null_string@?$output_processor@_WV?$stream_output_adapter@_W@__crt_stdio_output@@V?$positional_parameter_base@_WV?$stream_output_adapter@_W@__crt_stdio_output@@@2@@__crt_stdio_output@@CAPEADXZ 0000000180066a20 f i libucrtd:output.obj
 0001:00065a30       ?narrow_null_string@?$output_processor@_WV?$stream_output_adapter@_W@__crt_stdio_output@@V?$standard_base@_WV?$stream_output_adapter@_W@__crt_stdio_output@@@2@@__crt_stdio_output@@CAPEADXZ 0000000180066a30 f i libucrtd:output.obj
 0001:00065a40       ?narrow_null_string@?$output_processor@_WV?$string_output_adapter@_W@__crt_stdio_output@@V?$format_validation_base@_WV?$string_output_adapter@_W@__crt_stdio_output@@@2@@__crt_stdio_output@@CAPEADXZ 0000000180066a40 f i libucrtd:output.obj
 0001:00065a50       ?narrow_null_string@?$output_processor@_WV?$string_output_adapter@_W@__crt_stdio_output@@V?$positional_parameter_base@_WV?$string_output_adapter@_W@__crt_stdio_output@@@2@@__crt_stdio_output@@CAPEADXZ 0000000180066a50 f i libucrtd:output.obj
 0001:00065a60       ?narrow_null_string@?$output_processor@_WV?$string_output_adapter@_W@__crt_stdio_output@@V?$standard_base@_WV?$string_output_adapter@_W@__crt_stdio_output@@@2@@__crt_stdio_output@@CAPEADXZ 0000000180066a60 f i libucrtd:output.obj
 0001:00065a70       ?parse_int_from_format_string@?$output_processor@DV?$stream_output_adapter@D@__crt_stdio_output@@V?$format_validation_base@DV?$stream_output_adapter@D@__crt_stdio_output@@@2@@__crt_stdio_output@@AEAA_NQEAH@Z 0000000180066a70 f i libucrtd:output.obj
 0001:00065b60       ?parse_int_from_format_string@?$output_processor@DV?$stream_output_adapter@D@__crt_stdio_output@@V?$positional_parameter_base@DV?$stream_output_adapter@D@__crt_stdio_output@@@2@@__crt_stdio_output@@AEAA_NQEAH@Z 0000000180066b60 f i libucrtd:output.obj
 0001:00065c50       ?parse_int_from_format_string@?$output_processor@DV?$stream_output_adapter@D@__crt_stdio_output@@V?$standard_base@DV?$stream_output_adapter@D@__crt_stdio_output@@@2@@__crt_stdio_output@@AEAA_NQEAH@Z 0000000180066c50 f i libucrtd:output.obj
 0001:00065d40       ?parse_int_from_format_string@?$output_processor@DV?$string_output_adapter@D@__crt_stdio_output@@V?$format_validation_base@DV?$string_output_adapter@D@__crt_stdio_output@@@2@@__crt_stdio_output@@AEAA_NQEAH@Z 0000000180066d40 f i libucrtd:output.obj
 0001:00065e30       ?parse_int_from_format_string@?$output_processor@DV?$string_output_adapter@D@__crt_stdio_output@@V?$positional_parameter_base@DV?$string_output_adapter@D@__crt_stdio_output@@@2@@__crt_stdio_output@@AEAA_NQEAH@Z 0000000180066e30 f i libucrtd:output.obj
 0001:00065f20       ?parse_int_from_format_string@?$output_processor@DV?$string_output_adapter@D@__crt_stdio_output@@V?$standard_base@DV?$string_output_adapter@D@__crt_stdio_output@@@2@@__crt_stdio_output@@AEAA_NQEAH@Z 0000000180066f20 f i libucrtd:output.obj
 0001:00066010       ?parse_int_from_format_string@?$output_processor@_WV?$stream_output_adapter@_W@__crt_stdio_output@@V?$format_validation_base@_WV?$stream_output_adapter@_W@__crt_stdio_output@@@2@@__crt_stdio_output@@AEAA_NQEAH@Z 0000000180067010 f i libucrtd:output.obj
 0001:00066100       ?parse_int_from_format_string@?$output_processor@_WV?$stream_output_adapter@_W@__crt_stdio_output@@V?$positional_parameter_base@_WV?$stream_output_adapter@_W@__crt_stdio_output@@@2@@__crt_stdio_output@@AEAA_NQEAH@Z 0000000180067100 f i libucrtd:output.obj
 0001:000661f0       ?parse_int_from_format_string@?$output_processor@_WV?$stream_output_adapter@_W@__crt_stdio_output@@V?$standard_base@_WV?$stream_output_adapter@_W@__crt_stdio_output@@@2@@__crt_stdio_output@@AEAA_NQEAH@Z 00000001800671f0 f i libucrtd:output.obj
 0001:000662e0       ?parse_int_from_format_string@?$output_processor@_WV?$string_output_adapter@_W@__crt_stdio_output@@V?$format_validation_base@_WV?$string_output_adapter@_W@__crt_stdio_output@@@2@@__crt_stdio_output@@AEAA_NQEAH@Z 00000001800672e0 f i libucrtd:output.obj
 0001:000663d0       ?parse_int_from_format_string@?$output_processor@_WV?$string_output_adapter@_W@__crt_stdio_output@@V?$positional_parameter_base@_WV?$string_output_adapter@_W@__crt_stdio_output@@@2@@__crt_stdio_output@@AEAA_NQEAH@Z 00000001800673d0 f i libucrtd:output.obj
 0001:000664c0       ?parse_int_from_format_string@?$output_processor@_WV?$string_output_adapter@_W@__crt_stdio_output@@V?$standard_base@_WV?$string_output_adapter@_W@__crt_stdio_output@@@2@@__crt_stdio_output@@AEAA_NQEAH@Z 00000001800674c0 f i libucrtd:output.obj
 0001:000665b0       ?process@?$output_processor@DV?$stream_output_adapter@D@__crt_stdio_output@@V?$format_validation_base@DV?$stream_output_adapter@D@__crt_stdio_output@@@2@@__crt_stdio_output@@QEAAHXZ 00000001800675b0 f i libucrtd:output.obj
 0001:00066910       ?process@?$output_processor@DV?$stream_output_adapter@D@__crt_stdio_output@@V?$positional_parameter_base@DV?$stream_output_adapter@D@__crt_stdio_output@@@2@@__crt_stdio_output@@QEAAHXZ 0000000180067910 f i libucrtd:output.obj
 0001:00066c70       ?process@?$output_processor@DV?$stream_output_adapter@D@__crt_stdio_output@@V?$standard_base@DV?$stream_output_adapter@D@__crt_stdio_output@@@2@@__crt_stdio_output@@QEAAHXZ 0000000180067c70 f i libucrtd:output.obj
 0001:00066fd0       ?process@?$output_processor@DV?$string_output_adapter@D@__crt_stdio_output@@V?$format_validation_base@DV?$string_output_adapter@D@__crt_stdio_output@@@2@@__crt_stdio_output@@QEAAHXZ 0000000180067fd0 f i libucrtd:output.obj
 0001:00067330       ?process@?$output_processor@DV?$string_output_adapter@D@__crt_stdio_output@@V?$positional_parameter_base@DV?$string_output_adapter@D@__crt_stdio_output@@@2@@__crt_stdio_output@@QEAAHXZ 0000000180068330 f i libucrtd:output.obj
 0001:00067690       ?process@?$output_processor@DV?$string_output_adapter@D@__crt_stdio_output@@V?$standard_base@DV?$string_output_adapter@D@__crt_stdio_output@@@2@@__crt_stdio_output@@QEAAHXZ 0000000180068690 f i libucrtd:output.obj
 0001:000679f0       ?process@?$output_processor@_WV?$stream_output_adapter@_W@__crt_stdio_output@@V?$format_validation_base@_WV?$stream_output_adapter@_W@__crt_stdio_output@@@2@@__crt_stdio_output@@QEAAHXZ 00000001800689f0 f i libucrtd:output.obj
 0001:00067d50       ?process@?$output_processor@_WV?$stream_output_adapter@_W@__crt_stdio_output@@V?$positional_parameter_base@_WV?$stream_output_adapter@_W@__crt_stdio_output@@@2@@__crt_stdio_output@@QEAAHXZ 0000000180068d50 f i libucrtd:output.obj
 0001:000680b0       ?process@?$output_processor@_WV?$stream_output_adapter@_W@__crt_stdio_output@@V?$standard_base@_WV?$stream_output_adapter@_W@__crt_stdio_output@@@2@@__crt_stdio_output@@QEAAHXZ 00000001800690b0 f i libucrtd:output.obj
 0001:00068410       ?process@?$output_processor@_WV?$string_output_adapter@_W@__crt_stdio_output@@V?$format_validation_base@_WV?$string_output_adapter@_W@__crt_stdio_output@@@2@@__crt_stdio_output@@QEAAHXZ 0000000180069410 f i libucrtd:output.obj
 0001:00068770       ?process@?$output_processor@_WV?$string_output_adapter@_W@__crt_stdio_output@@V?$positional_parameter_base@_WV?$string_output_adapter@_W@__crt_stdio_output@@@2@@__crt_stdio_output@@QEAAHXZ 0000000180069770 f i libucrtd:output.obj
 0001:00068ad0       ?process@?$output_processor@_WV?$string_output_adapter@_W@__crt_stdio_output@@V?$standard_base@_WV?$string_output_adapter@_W@__crt_stdio_output@@@2@@__crt_stdio_output@@QEAAHXZ 0000000180069ad0 f i libucrtd:output.obj
 0001:00068e30       ?public_stream@__crt_stdio_stream@@QEBAPEAU_iobuf@@XZ 0000000180069e30 f i libucrtd:output.obj
 0001:00068e40       ?set_flag@?$output_processor@DV?$stream_output_adapter@D@__crt_stdio_output@@V?$format_validation_base@DV?$stream_output_adapter@D@__crt_stdio_output@@@2@@__crt_stdio_output@@AEAAXI@Z 0000000180069e40 f i libucrtd:output.obj
 0001:00068e60       ?set_flag@?$output_processor@DV?$stream_output_adapter@D@__crt_stdio_output@@V?$positional_parameter_base@DV?$stream_output_adapter@D@__crt_stdio_output@@@2@@__crt_stdio_output@@AEAAXI@Z 0000000180069e60 f i libucrtd:output.obj
 0001:00068e80       ?set_flag@?$output_processor@DV?$stream_output_adapter@D@__crt_stdio_output@@V?$standard_base@DV?$stream_output_adapter@D@__crt_stdio_output@@@2@@__crt_stdio_output@@AEAAXI@Z 0000000180069e80 f i libucrtd:output.obj
 0001:00068ea0       ?set_flag@?$output_processor@DV?$string_output_adapter@D@__crt_stdio_output@@V?$format_validation_base@DV?$string_output_adapter@D@__crt_stdio_output@@@2@@__crt_stdio_output@@AEAAXI@Z 0000000180069ea0 f i libucrtd:output.obj
 0001:00068ec0       ?set_flag@?$output_processor@DV?$string_output_adapter@D@__crt_stdio_output@@V?$positional_parameter_base@DV?$string_output_adapter@D@__crt_stdio_output@@@2@@__crt_stdio_output@@AEAAXI@Z 0000000180069ec0 f i libucrtd:output.obj
 0001:00068ee0       ?set_flag@?$output_processor@DV?$string_output_adapter@D@__crt_stdio_output@@V?$standard_base@DV?$string_output_adapter@D@__crt_stdio_output@@@2@@__crt_stdio_output@@AEAAXI@Z 0000000180069ee0 f i libucrtd:output.obj
 0001:00068f00       ?set_flag@?$output_processor@_WV?$stream_output_adapter@_W@__crt_stdio_output@@V?$format_validation_base@_WV?$stream_output_adapter@_W@__crt_stdio_output@@@2@@__crt_stdio_output@@AEAAXI@Z 0000000180069f00 f i libucrtd:output.obj
 0001:00068f20       ?set_flag@?$output_processor@_WV?$stream_output_adapter@_W@__crt_stdio_output@@V?$positional_parameter_base@_WV?$stream_output_adapter@_W@__crt_stdio_output@@@2@@__crt_stdio_output@@AEAAXI@Z 0000000180069f20 f i libucrtd:output.obj
 0001:00068f40       ?set_flag@?$output_processor@_WV?$stream_output_adapter@_W@__crt_stdio_output@@V?$standard_base@_WV?$stream_output_adapter@_W@__crt_stdio_output@@@2@@__crt_stdio_output@@AEAAXI@Z 0000000180069f40 f i libucrtd:output.obj
 0001:00068f60       ?set_flag@?$output_processor@_WV?$string_output_adapter@_W@__crt_stdio_output@@V?$format_validation_base@_WV?$string_output_adapter@_W@__crt_stdio_output@@@2@@__crt_stdio_output@@AEAAXI@Z 0000000180069f60 f i libucrtd:output.obj
 0001:00068f80       ?set_flag@?$output_processor@_WV?$string_output_adapter@_W@__crt_stdio_output@@V?$positional_parameter_base@_WV?$string_output_adapter@_W@__crt_stdio_output@@@2@@__crt_stdio_output@@AEAAXI@Z 0000000180069f80 f i libucrtd:output.obj
 0001:00068fa0       ?set_flag@?$output_processor@_WV?$string_output_adapter@_W@__crt_stdio_output@@V?$standard_base@_WV?$string_output_adapter@_W@__crt_stdio_output@@@2@@__crt_stdio_output@@AEAAXI@Z 0000000180069fa0 f i libucrtd:output.obj
 0001:00068fc0       ?should_format@?$positional_parameter_base@DV?$stream_output_adapter@D@__crt_stdio_output@@@__crt_stdio_output@@IEAA_NXZ 0000000180069fc0 f i libucrtd:output.obj
 0001:00069000       ?should_format@?$positional_parameter_base@DV?$string_output_adapter@D@__crt_stdio_output@@@__crt_stdio_output@@IEAA_NXZ 000000018006a000 f i libucrtd:output.obj
 0001:00069040       ?should_format@?$positional_parameter_base@_WV?$stream_output_adapter@_W@__crt_stdio_output@@@__crt_stdio_output@@IEAA_NXZ 000000018006a040 f i libucrtd:output.obj
 0001:00069080       ?should_format@?$positional_parameter_base@_WV?$string_output_adapter@_W@__crt_stdio_output@@@__crt_stdio_output@@IEAA_NXZ 000000018006a080 f i libucrtd:output.obj
 0001:000690c0       ?should_format@?$standard_base@DV?$stream_output_adapter@D@__crt_stdio_output@@@__crt_stdio_output@@IEAA_NXZ 000000018006a0c0 f i libucrtd:output.obj
 0001:000690d0       ?should_format@?$standard_base@DV?$string_output_adapter@D@__crt_stdio_output@@@__crt_stdio_output@@IEAA_NXZ 000000018006a0d0 f i libucrtd:output.obj
 0001:000690e0       ?should_format@?$standard_base@_WV?$stream_output_adapter@_W@__crt_stdio_output@@@__crt_stdio_output@@IEAA_NXZ 000000018006a0e0 f i libucrtd:output.obj
 0001:000690f0       ?should_format@?$standard_base@_WV?$string_output_adapter@_W@__crt_stdio_output@@@__crt_stdio_output@@IEAA_NXZ 000000018006a0f0 f i libucrtd:output.obj
 0001:00069100       ?should_skip_normal_state_processing@?$positional_parameter_base@DV?$stream_output_adapter@D@__crt_stdio_output@@@__crt_stdio_output@@IEAA_NXZ 000000018006a100 f i libucrtd:output.obj
 0001:00069150       ?should_skip_normal_state_processing@?$positional_parameter_base@DV?$string_output_adapter@D@__crt_stdio_output@@@__crt_stdio_output@@IEAA_NXZ 000000018006a150 f i libucrtd:output.obj
 0001:000691a0       ?should_skip_normal_state_processing@?$positional_parameter_base@_WV?$stream_output_adapter@_W@__crt_stdio_output@@@__crt_stdio_output@@IEAA_NXZ 000000018006a1a0 f i libucrtd:output.obj
 0001:000691f0       ?should_skip_normal_state_processing@?$positional_parameter_base@_WV?$string_output_adapter@_W@__crt_stdio_output@@@__crt_stdio_output@@IEAA_NXZ 000000018006a1f0 f i libucrtd:output.obj
 0001:00069240       ?should_skip_normal_state_processing@?$standard_base@DV?$stream_output_adapter@D@__crt_stdio_output@@@__crt_stdio_output@@IEAA_NXZ 000000018006a240 f i libucrtd:output.obj
 0001:00069250       ?should_skip_normal_state_processing@?$standard_base@DV?$string_output_adapter@D@__crt_stdio_output@@@__crt_stdio_output@@IEAA_NXZ 000000018006a250 f i libucrtd:output.obj
 0001:00069260       ?should_skip_normal_state_processing@?$standard_base@_WV?$stream_output_adapter@_W@__crt_stdio_output@@@__crt_stdio_output@@IEAA_NXZ 000000018006a260 f i libucrtd:output.obj
 0001:00069270       ?should_skip_normal_state_processing@?$standard_base@_WV?$string_output_adapter@_W@__crt_stdio_output@@@__crt_stdio_output@@IEAA_NXZ 000000018006a270 f i libucrtd:output.obj
 0001:00069280       ?should_skip_type_state_output@?$positional_parameter_base@DV?$stream_output_adapter@D@__crt_stdio_output@@@__crt_stdio_output@@IEBA_NXZ 000000018006a280 f i libucrtd:output.obj
 0001:000692c0       ?should_skip_type_state_output@?$positional_parameter_base@DV?$string_output_adapter@D@__crt_stdio_output@@@__crt_stdio_output@@IEBA_NXZ 000000018006a2c0 f i libucrtd:output.obj
 0001:00069300       ?should_skip_type_state_output@?$positional_parameter_base@_WV?$stream_output_adapter@_W@__crt_stdio_output@@@__crt_stdio_output@@IEBA_NXZ 000000018006a300 f i libucrtd:output.obj
 0001:00069340       ?should_skip_type_state_output@?$positional_parameter_base@_WV?$string_output_adapter@_W@__crt_stdio_output@@@__crt_stdio_output@@IEBA_NXZ 000000018006a340 f i libucrtd:output.obj
 0001:00069380       ?should_skip_type_state_output@?$standard_base@DV?$stream_output_adapter@D@__crt_stdio_output@@@__crt_stdio_output@@IEBA_NXZ 000000018006a380 f i libucrtd:output.obj
 0001:00069390       ?should_skip_type_state_output@?$standard_base@DV?$string_output_adapter@D@__crt_stdio_output@@@__crt_stdio_output@@IEBA_NXZ 000000018006a390 f i libucrtd:output.obj
 0001:000693a0       ?should_skip_type_state_output@?$standard_base@_WV?$stream_output_adapter@_W@__crt_stdio_output@@@__crt_stdio_output@@IEBA_NXZ 000000018006a3a0 f i libucrtd:output.obj
 0001:000693b0       ?should_skip_type_state_output@?$standard_base@_WV?$string_output_adapter@_W@__crt_stdio_output@@@__crt_stdio_output@@IEBA_NXZ 000000018006a3b0 f i libucrtd:output.obj
 0001:000693c0       ?state_case_dot@?$output_processor@DV?$stream_output_adapter@D@__crt_stdio_output@@V?$format_validation_base@DV?$stream_output_adapter@D@__crt_stdio_output@@@2@@__crt_stdio_output@@AEAA_NXZ 000000018006a3c0 f i libucrtd:output.obj
 0001:000693e0       ?state_case_dot@?$output_processor@DV?$stream_output_adapter@D@__crt_stdio_output@@V?$positional_parameter_base@DV?$stream_output_adapter@D@__crt_stdio_output@@@2@@__crt_stdio_output@@AEAA_NXZ 000000018006a3e0 f i libucrtd:output.obj
 0001:00069400       ?state_case_dot@?$output_processor@DV?$stream_output_adapter@D@__crt_stdio_output@@V?$standard_base@DV?$stream_output_adapter@D@__crt_stdio_output@@@2@@__crt_stdio_output@@AEAA_NXZ 000000018006a400 f i libucrtd:output.obj
 0001:00069420       ?state_case_dot@?$output_processor@DV?$string_output_adapter@D@__crt_stdio_output@@V?$format_validation_base@DV?$string_output_adapter@D@__crt_stdio_output@@@2@@__crt_stdio_output@@AEAA_NXZ 000000018006a420 f i libucrtd:output.obj
 0001:00069440       ?state_case_dot@?$output_processor@DV?$string_output_adapter@D@__crt_stdio_output@@V?$positional_parameter_base@DV?$string_output_adapter@D@__crt_stdio_output@@@2@@__crt_stdio_output@@AEAA_NXZ 000000018006a440 f i libucrtd:output.obj
 0001:00069460       ?state_case_dot@?$output_processor@DV?$string_output_adapter@D@__crt_stdio_output@@V?$standard_base@DV?$string_output_adapter@D@__crt_stdio_output@@@2@@__crt_stdio_output@@AEAA_NXZ 000000018006a460 f i libucrtd:output.obj
 0001:00069480       ?state_case_dot@?$output_processor@_WV?$stream_output_adapter@_W@__crt_stdio_output@@V?$format_validation_base@_WV?$stream_output_adapter@_W@__crt_stdio_output@@@2@@__crt_stdio_output@@AEAA_NXZ 000000018006a480 f i libucrtd:output.obj
 0001:000694a0       ?state_case_dot@?$output_processor@_WV?$stream_output_adapter@_W@__crt_stdio_output@@V?$positional_parameter_base@_WV?$stream_output_adapter@_W@__crt_stdio_output@@@2@@__crt_stdio_output@@AEAA_NXZ 000000018006a4a0 f i libucrtd:output.obj
 0001:000694c0       ?state_case_dot@?$output_processor@_WV?$stream_output_adapter@_W@__crt_stdio_output@@V?$standard_base@_WV?$stream_output_adapter@_W@__crt_stdio_output@@@2@@__crt_stdio_output@@AEAA_NXZ 000000018006a4c0 f i libucrtd:output.obj
 0001:000694e0       ?state_case_dot@?$output_processor@_WV?$string_output_adapter@_W@__crt_stdio_output@@V?$format_validation_base@_WV?$string_output_adapter@_W@__crt_stdio_output@@@2@@__crt_stdio_output@@AEAA_NXZ 000000018006a4e0 f i libucrtd:output.obj
 0001:00069500       ?state_case_dot@?$output_processor@_WV?$string_output_adapter@_W@__crt_stdio_output@@V?$positional_parameter_base@_WV?$string_output_adapter@_W@__crt_stdio_output@@@2@@__crt_stdio_output@@AEAA_NXZ 000000018006a500 f i libucrtd:output.obj
 0001:00069520       ?state_case_dot@?$output_processor@_WV?$string_output_adapter@_W@__crt_stdio_output@@V?$standard_base@_WV?$string_output_adapter@_W@__crt_stdio_output@@@2@@__crt_stdio_output@@AEAA_NXZ 000000018006a520 f i libucrtd:output.obj
 0001:00069540       ?state_case_flag@?$output_processor@DV?$stream_output_adapter@D@__crt_stdio_output@@V?$format_validation_base@DV?$stream_output_adapter@D@__crt_stdio_output@@@2@@__crt_stdio_output@@AEAA_NXZ 000000018006a540 f i libucrtd:output.obj
 0001:000695e0       ?state_case_flag@?$output_processor@DV?$stream_output_adapter@D@__crt_stdio_output@@V?$positional_parameter_base@DV?$stream_output_adapter@D@__crt_stdio_output@@@2@@__crt_stdio_output@@AEAA_NXZ 000000018006a5e0 f i libucrtd:output.obj
 0001:00069680       ?state_case_flag@?$output_processor@DV?$stream_output_adapter@D@__crt_stdio_output@@V?$standard_base@DV?$stream_output_adapter@D@__crt_stdio_output@@@2@@__crt_stdio_output@@AEAA_NXZ 000000018006a680 f i libucrtd:output.obj
 0001:00069720       ?state_case_flag@?$output_processor@DV?$string_output_adapter@D@__crt_stdio_output@@V?$format_validation_base@DV?$string_output_adapter@D@__crt_stdio_output@@@2@@__crt_stdio_output@@AEAA_NXZ 000000018006a720 f i libucrtd:output.obj
 0001:000697c0       ?state_case_flag@?$output_processor@DV?$string_output_adapter@D@__crt_stdio_output@@V?$positional_parameter_base@DV?$string_output_adapter@D@__crt_stdio_output@@@2@@__crt_stdio_output@@AEAA_NXZ 000000018006a7c0 f i libucrtd:output.obj
 0001:00069860       ?state_case_flag@?$output_processor@DV?$string_output_adapter@D@__crt_stdio_output@@V?$standard_base@DV?$string_output_adapter@D@__crt_stdio_output@@@2@@__crt_stdio_output@@AEAA_NXZ 000000018006a860 f i libucrtd:output.obj
 0001:00069900       ?state_case_flag@?$output_processor@_WV?$stream_output_adapter@_W@__crt_stdio_output@@V?$format_validation_base@_WV?$stream_output_adapter@_W@__crt_stdio_output@@@2@@__crt_stdio_output@@AEAA_NXZ 000000018006a900 f i libucrtd:output.obj
 0001:000699a0       ?state_case_flag@?$output_processor@_WV?$stream_output_adapter@_W@__crt_stdio_output@@V?$positional_parameter_base@_WV?$stream_output_adapter@_W@__crt_stdio_output@@@2@@__crt_stdio_output@@AEAA_NXZ 000000018006a9a0 f i libucrtd:output.obj
 0001:00069a40       ?state_case_flag@?$output_processor@_WV?$stream_output_adapter@_W@__crt_stdio_output@@V?$standard_base@_WV?$stream_output_adapter@_W@__crt_stdio_output@@@2@@__crt_stdio_output@@AEAA_NXZ 000000018006aa40 f i libucrtd:output.obj
 0001:00069ae0       ?state_case_flag@?$output_processor@_WV?$string_output_adapter@_W@__crt_stdio_output@@V?$format_validation_base@_WV?$string_output_adapter@_W@__crt_stdio_output@@@2@@__crt_stdio_output@@AEAA_NXZ 000000018006aae0 f i libucrtd:output.obj
 0001:00069b80       ?state_case_flag@?$output_processor@_WV?$string_output_adapter@_W@__crt_stdio_output@@V?$positional_parameter_base@_WV?$string_output_adapter@_W@__crt_stdio_output@@@2@@__crt_stdio_output@@AEAA_NXZ 000000018006ab80 f i libucrtd:output.obj
 0001:00069c20       ?state_case_flag@?$output_processor@_WV?$string_output_adapter@_W@__crt_stdio_output@@V?$standard_base@_WV?$string_output_adapter@_W@__crt_stdio_output@@@2@@__crt_stdio_output@@AEAA_NXZ 000000018006ac20 f i libucrtd:output.obj
 0001:00069cc0       ?state_case_normal@?$output_processor@DV?$stream_output_adapter@D@__crt_stdio_output@@V?$format_validation_base@DV?$stream_output_adapter@D@__crt_stdio_output@@@2@@__crt_stdio_output@@AEAA_NXZ 000000018006acc0 f i libucrtd:output.obj
 0001:00069da0       ?state_case_normal@?$output_processor@DV?$stream_output_adapter@D@__crt_stdio_output@@V?$positional_parameter_base@DV?$stream_output_adapter@D@__crt_stdio_output@@@2@@__crt_stdio_output@@AEAA_NXZ 000000018006ada0 f i libucrtd:output.obj
 0001:00069e80       ?state_case_normal@?$output_processor@DV?$stream_output_adapter@D@__crt_stdio_output@@V?$standard_base@DV?$stream_output_adapter@D@__crt_stdio_output@@@2@@__crt_stdio_output@@AEAA_NXZ 000000018006ae80 f i libucrtd:output.obj
 0001:00069f60       ?state_case_normal@?$output_processor@DV?$string_output_adapter@D@__crt_stdio_output@@V?$format_validation_base@DV?$string_output_adapter@D@__crt_stdio_output@@@2@@__crt_stdio_output@@AEAA_NXZ 000000018006af60 f i libucrtd:output.obj
 0001:0006a040       ?state_case_normal@?$output_processor@DV?$string_output_adapter@D@__crt_stdio_output@@V?$positional_parameter_base@DV?$string_output_adapter@D@__crt_stdio_output@@@2@@__crt_stdio_output@@AEAA_NXZ 000000018006b040 f i libucrtd:output.obj
 0001:0006a120       ?state_case_normal@?$output_processor@DV?$string_output_adapter@D@__crt_stdio_output@@V?$standard_base@DV?$string_output_adapter@D@__crt_stdio_output@@@2@@__crt_stdio_output@@AEAA_NXZ 000000018006b120 f i libucrtd:output.obj
 0001:0006a200       ?state_case_normal@?$output_processor@_WV?$stream_output_adapter@_W@__crt_stdio_output@@V?$format_validation_base@_WV?$stream_output_adapter@_W@__crt_stdio_output@@@2@@__crt_stdio_output@@AEAA_NXZ 000000018006b200 f i libucrtd:output.obj
 0001:0006a2e0       ?state_case_normal@?$output_processor@_WV?$stream_output_adapter@_W@__crt_stdio_output@@V?$positional_parameter_base@_WV?$stream_output_adapter@_W@__crt_stdio_output@@@2@@__crt_stdio_output@@AEAA_NXZ 000000018006b2e0 f i libucrtd:output.obj
 0001:0006a3c0       ?state_case_normal@?$output_processor@_WV?$stream_output_adapter@_W@__crt_stdio_output@@V?$standard_base@_WV?$stream_output_adapter@_W@__crt_stdio_output@@@2@@__crt_stdio_output@@AEAA_NXZ 000000018006b3c0 f i libucrtd:output.obj
 0001:0006a4a0       ?state_case_normal@?$output_processor@_WV?$string_output_adapter@_W@__crt_stdio_output@@V?$format_validation_base@_WV?$string_output_adapter@_W@__crt_stdio_output@@@2@@__crt_stdio_output@@AEAA_NXZ 000000018006b4a0 f i libucrtd:output.obj
 0001:0006a580       ?state_case_normal@?$output_processor@_WV?$string_output_adapter@_W@__crt_stdio_output@@V?$positional_parameter_base@_WV?$string_output_adapter@_W@__crt_stdio_output@@@2@@__crt_stdio_output@@AEAA_NXZ 000000018006b580 f i libucrtd:output.obj
 0001:0006a660       ?state_case_normal@?$output_processor@_WV?$string_output_adapter@_W@__crt_stdio_output@@V?$standard_base@_WV?$string_output_adapter@_W@__crt_stdio_output@@@2@@__crt_stdio_output@@AEAA_NXZ 000000018006b660 f i libucrtd:output.obj
 0001:0006a740       ?state_case_normal_common@?$output_processor@DV?$stream_output_adapter@D@__crt_stdio_output@@V?$format_validation_base@DV?$stream_output_adapter@D@__crt_stdio_output@@@2@@__crt_stdio_output@@AEAA_NXZ 000000018006b740 f i libucrtd:output.obj
 0001:0006a790       ?state_case_normal_common@?$output_processor@DV?$stream_output_adapter@D@__crt_stdio_output@@V?$positional_parameter_base@DV?$stream_output_adapter@D@__crt_stdio_output@@@2@@__crt_stdio_output@@AEAA_NXZ 000000018006b790 f i libucrtd:output.obj
 0001:0006a7e0       ?state_case_normal_common@?$output_processor@DV?$stream_output_adapter@D@__crt_stdio_output@@V?$standard_base@DV?$stream_output_adapter@D@__crt_stdio_output@@@2@@__crt_stdio_output@@AEAA_NXZ 000000018006b7e0 f i libucrtd:output.obj
 0001:0006a830       ?state_case_normal_common@?$output_processor@DV?$string_output_adapter@D@__crt_stdio_output@@V?$format_validation_base@DV?$string_output_adapter@D@__crt_stdio_output@@@2@@__crt_stdio_output@@AEAA_NXZ 000000018006b830 f i libucrtd:output.obj
 0001:0006a880       ?state_case_normal_common@?$output_processor@DV?$string_output_adapter@D@__crt_stdio_output@@V?$positional_parameter_base@DV?$string_output_adapter@D@__crt_stdio_output@@@2@@__crt_stdio_output@@AEAA_NXZ 000000018006b880 f i libucrtd:output.obj
 0001:0006a8d0       ?state_case_normal_common@?$output_processor@DV?$string_output_adapter@D@__crt_stdio_output@@V?$standard_base@DV?$string_output_adapter@D@__crt_stdio_output@@@2@@__crt_stdio_output@@AEAA_NXZ 000000018006b8d0 f i libucrtd:output.obj
 0001:0006a920       ?state_case_normal_common@?$output_processor@_WV?$stream_output_adapter@_W@__crt_stdio_output@@V?$format_validation_base@_WV?$stream_output_adapter@_W@__crt_stdio_output@@@2@@__crt_stdio_output@@AEAA_NXZ 000000018006b920 f i libucrtd:output.obj
 0001:0006a970       ?state_case_normal_common@?$output_processor@_WV?$stream_output_adapter@_W@__crt_stdio_output@@V?$positional_parameter_base@_WV?$stream_output_adapter@_W@__crt_stdio_output@@@2@@__crt_stdio_output@@AEAA_NXZ 000000018006b970 f i libucrtd:output.obj
 0001:0006a9c0       ?state_case_normal_common@?$output_processor@_WV?$stream_output_adapter@_W@__crt_stdio_output@@V?$standard_base@_WV?$stream_output_adapter@_W@__crt_stdio_output@@@2@@__crt_stdio_output@@AEAA_NXZ 000000018006b9c0 f i libucrtd:output.obj
 0001:0006aa10       ?state_case_normal_common@?$output_processor@_WV?$string_output_adapter@_W@__crt_stdio_output@@V?$format_validation_base@_WV?$string_output_adapter@_W@__crt_stdio_output@@@2@@__crt_stdio_output@@AEAA_NXZ 000000018006ba10 f i libucrtd:output.obj
 0001:0006aa60       ?state_case_normal_common@?$output_processor@_WV?$string_output_adapter@_W@__crt_stdio_output@@V?$positional_parameter_base@_WV?$string_output_adapter@_W@__crt_stdio_output@@@2@@__crt_stdio_output@@AEAA_NXZ 000000018006ba60 f i libucrtd:output.obj
 0001:0006aab0       ?state_case_normal_common@?$output_processor@_WV?$string_output_adapter@_W@__crt_stdio_output@@V?$standard_base@_WV?$string_output_adapter@_W@__crt_stdio_output@@@2@@__crt_stdio_output@@AEAA_NXZ 000000018006bab0 f i libucrtd:output.obj
 0001:0006ab00       ?state_case_normal_tchar@?$output_processor@DV?$stream_output_adapter@D@__crt_stdio_output@@V?$format_validation_base@DV?$stream_output_adapter@D@__crt_stdio_output@@@2@@__crt_stdio_output@@AEAA_ND@Z 000000018006bb00 f i libucrtd:output.obj
 0001:0006ac40       ?state_case_normal_tchar@?$output_processor@DV?$stream_output_adapter@D@__crt_stdio_output@@V?$positional_parameter_base@DV?$stream_output_adapter@D@__crt_stdio_output@@@2@@__crt_stdio_output@@AEAA_ND@Z 000000018006bc40 f i libucrtd:output.obj
 0001:0006ad80       ?state_case_normal_tchar@?$output_processor@DV?$stream_output_adapter@D@__crt_stdio_output@@V?$standard_base@DV?$stream_output_adapter@D@__crt_stdio_output@@@2@@__crt_stdio_output@@AEAA_ND@Z 000000018006bd80 f i libucrtd:output.obj
 0001:0006aec0       ?state_case_normal_tchar@?$output_processor@DV?$string_output_adapter@D@__crt_stdio_output@@V?$format_validation_base@DV?$string_output_adapter@D@__crt_stdio_output@@@2@@__crt_stdio_output@@AEAA_ND@Z 000000018006bec0 f i libucrtd:output.obj
 0001:0006b000       ?state_case_normal_tchar@?$output_processor@DV?$string_output_adapter@D@__crt_stdio_output@@V?$positional_parameter_base@DV?$string_output_adapter@D@__crt_stdio_output@@@2@@__crt_stdio_output@@AEAA_ND@Z 000000018006c000 f i libucrtd:output.obj
 0001:0006b140       ?state_case_normal_tchar@?$output_processor@DV?$string_output_adapter@D@__crt_stdio_output@@V?$standard_base@DV?$string_output_adapter@D@__crt_stdio_output@@@2@@__crt_stdio_output@@AEAA_ND@Z 000000018006c140 f i libucrtd:output.obj
 0001:0006b280       ?state_case_normal_tchar@?$output_processor@_WV?$stream_output_adapter@_W@__crt_stdio_output@@V?$format_validation_base@_WV?$stream_output_adapter@_W@__crt_stdio_output@@@2@@__crt_stdio_output@@AEAA_N_W@Z 000000018006c280 f i libucrtd:output.obj
 0001:0006b2a0       ?state_case_normal_tchar@?$output_processor@_WV?$stream_output_adapter@_W@__crt_stdio_output@@V?$positional_parameter_base@_WV?$stream_output_adapter@_W@__crt_stdio_output@@@2@@__crt_stdio_output@@AEAA_N_W@Z 000000018006c2a0 f i libucrtd:output.obj
 0001:0006b2c0       ?state_case_normal_tchar@?$output_processor@_WV?$stream_output_adapter@_W@__crt_stdio_output@@V?$standard_base@_WV?$stream_output_adapter@_W@__crt_stdio_output@@@2@@__crt_stdio_output@@AEAA_N_W@Z 000000018006c2c0 f i libucrtd:output.obj
 0001:0006b2e0       ?state_case_normal_tchar@?$output_processor@_WV?$string_output_adapter@_W@__crt_stdio_output@@V?$format_validation_base@_WV?$string_output_adapter@_W@__crt_stdio_output@@@2@@__crt_stdio_output@@AEAA_N_W@Z 000000018006c2e0 f i libucrtd:output.obj
 0001:0006b300       ?state_case_normal_tchar@?$output_processor@_WV?$string_output_adapter@_W@__crt_stdio_output@@V?$positional_parameter_base@_WV?$string_output_adapter@_W@__crt_stdio_output@@@2@@__crt_stdio_output@@AEAA_N_W@Z 000000018006c300 f i libucrtd:output.obj
 0001:0006b320       ?state_case_normal_tchar@?$output_processor@_WV?$string_output_adapter@_W@__crt_stdio_output@@V?$standard_base@_WV?$string_output_adapter@_W@__crt_stdio_output@@@2@@__crt_stdio_output@@AEAA_N_W@Z 000000018006c320 f i libucrtd:output.obj
 0001:0006b340       ?state_case_percent@?$output_processor@DV?$stream_output_adapter@D@__crt_stdio_output@@V?$format_validation_base@DV?$stream_output_adapter@D@__crt_stdio_output@@@2@@__crt_stdio_output@@AEAA_NXZ 000000018006c340 f i libucrtd:output.obj
 0001:0006b390       ?state_case_percent@?$output_processor@DV?$stream_output_adapter@D@__crt_stdio_output@@V?$positional_parameter_base@DV?$stream_output_adapter@D@__crt_stdio_output@@@2@@__crt_stdio_output@@AEAA_NXZ 000000018006c390 f i libucrtd:output.obj
 0001:0006b3e0       ?state_case_percent@?$output_processor@DV?$stream_output_adapter@D@__crt_stdio_output@@V?$standard_base@DV?$stream_output_adapter@D@__crt_stdio_output@@@2@@__crt_stdio_output@@AEAA_NXZ 000000018006c3e0 f i libucrtd:output.obj
 0001:0006b430       ?state_case_percent@?$output_processor@DV?$string_output_adapter@D@__crt_stdio_output@@V?$format_validation_base@DV?$string_output_adapter@D@__crt_stdio_output@@@2@@__crt_stdio_output@@AEAA_NXZ 000000018006c430 f i libucrtd:output.obj
 0001:0006b480       ?state_case_percent@?$output_processor@DV?$string_output_adapter@D@__crt_stdio_output@@V?$positional_parameter_base@DV?$string_output_adapter@D@__crt_stdio_output@@@2@@__crt_stdio_output@@AEAA_NXZ 000000018006c480 f i libucrtd:output.obj
 0001:0006b4d0       ?state_case_percent@?$output_processor@DV?$string_output_adapter@D@__crt_stdio_output@@V?$standard_base@DV?$string_output_adapter@D@__crt_stdio_output@@@2@@__crt_stdio_output@@AEAA_NXZ 000000018006c4d0 f i libucrtd:output.obj
 0001:0006b520       ?state_case_percent@?$output_processor@_WV?$stream_output_adapter@_W@__crt_stdio_output@@V?$format_validation_base@_WV?$stream_output_adapter@_W@__crt_stdio_output@@@2@@__crt_stdio_output@@AEAA_NXZ 000000018006c520 f i libucrtd:output.obj
 0001:0006b570       ?state_case_percent@?$output_processor@_WV?$stream_output_adapter@_W@__crt_stdio_output@@V?$positional_parameter_base@_WV?$stream_output_adapter@_W@__crt_stdio_output@@@2@@__crt_stdio_output@@AEAA_NXZ 000000018006c570 f i libucrtd:output.obj
 0001:0006b5c0       ?state_case_percent@?$output_processor@_WV?$stream_output_adapter@_W@__crt_stdio_output@@V?$standard_base@_WV?$stream_output_adapter@_W@__crt_stdio_output@@@2@@__crt_stdio_output@@AEAA_NXZ 000000018006c5c0 f i libucrtd:output.obj
 0001:0006b610       ?state_case_percent@?$output_processor@_WV?$string_output_adapter@_W@__crt_stdio_output@@V?$format_validation_base@_WV?$string_output_adapter@_W@__crt_stdio_output@@@2@@__crt_stdio_output@@AEAA_NXZ 000000018006c610 f i libucrtd:output.obj
 0001:0006b660       ?state_case_percent@?$output_processor@_WV?$string_output_adapter@_W@__crt_stdio_output@@V?$positional_parameter_base@_WV?$string_output_adapter@_W@__crt_stdio_output@@@2@@__crt_stdio_output@@AEAA_NXZ 000000018006c660 f i libucrtd:output.obj
 0001:0006b6b0       ?state_case_percent@?$output_processor@_WV?$string_output_adapter@_W@__crt_stdio_output@@V?$standard_base@_WV?$string_output_adapter@_W@__crt_stdio_output@@@2@@__crt_stdio_output@@AEAA_NXZ 000000018006c6b0 f i libucrtd:output.obj
 0001:0006b700       ?state_case_precision@?$output_processor@DV?$stream_output_adapter@D@__crt_stdio_output@@V?$format_validation_base@DV?$stream_output_adapter@D@__crt_stdio_output@@@2@@__crt_stdio_output@@AEAA_NXZ 000000018006c700 f i libucrtd:output.obj
 0001:0006b780       ?state_case_precision@?$output_processor@DV?$stream_output_adapter@D@__crt_stdio_output@@V?$positional_parameter_base@DV?$stream_output_adapter@D@__crt_stdio_output@@@2@@__crt_stdio_output@@AEAA_NXZ 000000018006c780 f i libucrtd:output.obj
 0001:0006b800       ?state_case_precision@?$output_processor@DV?$stream_output_adapter@D@__crt_stdio_output@@V?$standard_base@DV?$stream_output_adapter@D@__crt_stdio_output@@@2@@__crt_stdio_output@@AEAA_NXZ 000000018006c800 f i libucrtd:output.obj
 0001:0006b880       ?state_case_precision@?$output_processor@DV?$string_output_adapter@D@__crt_stdio_output@@V?$format_validation_base@DV?$string_output_adapter@D@__crt_stdio_output@@@2@@__crt_stdio_output@@AEAA_NXZ 000000018006c880 f i libucrtd:output.obj
 0001:0006b900       ?state_case_precision@?$output_processor@DV?$string_output_adapter@D@__crt_stdio_output@@V?$positional_parameter_base@DV?$string_output_adapter@D@__crt_stdio_output@@@2@@__crt_stdio_output@@AEAA_NXZ 000000018006c900 f i libucrtd:output.obj
 0001:0006b980       ?state_case_precision@?$output_processor@DV?$string_output_adapter@D@__crt_stdio_output@@V?$standard_base@DV?$string_output_adapter@D@__crt_stdio_output@@@2@@__crt_stdio_output@@AEAA_NXZ 000000018006c980 f i libucrtd:output.obj
 0001:0006ba00       ?state_case_precision@?$output_processor@_WV?$stream_output_adapter@_W@__crt_stdio_output@@V?$format_validation_base@_WV?$stream_output_adapter@_W@__crt_stdio_output@@@2@@__crt_stdio_output@@AEAA_NXZ 000000018006ca00 f i libucrtd:output.obj
 0001:0006ba80       ?state_case_precision@?$output_processor@_WV?$stream_output_adapter@_W@__crt_stdio_output@@V?$positional_parameter_base@_WV?$stream_output_adapter@_W@__crt_stdio_output@@@2@@__crt_stdio_output@@AEAA_NXZ 000000018006ca80 f i libucrtd:output.obj
 0001:0006bb00       ?state_case_precision@?$output_processor@_WV?$stream_output_adapter@_W@__crt_stdio_output@@V?$standard_base@_WV?$stream_output_adapter@_W@__crt_stdio_output@@@2@@__crt_stdio_output@@AEAA_NXZ 000000018006cb00 f i libucrtd:output.obj
 0001:0006bb80       ?state_case_precision@?$output_processor@_WV?$string_output_adapter@_W@__crt_stdio_output@@V?$format_validation_base@_WV?$string_output_adapter@_W@__crt_stdio_output@@@2@@__crt_stdio_output@@AEAA_NXZ 000000018006cb80 f i libucrtd:output.obj
 0001:0006bc00       ?state_case_precision@?$output_processor@_WV?$string_output_adapter@_W@__crt_stdio_output@@V?$positional_parameter_base@_WV?$string_output_adapter@_W@__crt_stdio_output@@@2@@__crt_stdio_output@@AEAA_NXZ 000000018006cc00 f i libucrtd:output.obj
 0001:0006bc80       ?state_case_precision@?$output_processor@_WV?$string_output_adapter@_W@__crt_stdio_output@@V?$standard_base@_WV?$string_output_adapter@_W@__crt_stdio_output@@@2@@__crt_stdio_output@@AEAA_NXZ 000000018006cc80 f i libucrtd:output.obj
 0001:0006bd00       ?state_case_size@?$output_processor@DV?$stream_output_adapter@D@__crt_stdio_output@@V?$format_validation_base@DV?$stream_output_adapter@D@__crt_stdio_output@@@2@@__crt_stdio_output@@AEAA_NXZ 000000018006cd00 f i libucrtd:output.obj
 0001:0006c180       ?state_case_size@?$output_processor@DV?$stream_output_adapter@D@__crt_stdio_output@@V?$positional_parameter_base@DV?$stream_output_adapter@D@__crt_stdio_output@@@2@@__crt_stdio_output@@AEAA_NXZ 000000018006d180 f i libucrtd:output.obj
 0001:0006c600       ?state_case_size@?$output_processor@DV?$stream_output_adapter@D@__crt_stdio_output@@V?$standard_base@DV?$stream_output_adapter@D@__crt_stdio_output@@@2@@__crt_stdio_output@@AEAA_NXZ 000000018006d600 f i libucrtd:output.obj
 0001:0006ca80       ?state_case_size@?$output_processor@DV?$string_output_adapter@D@__crt_stdio_output@@V?$format_validation_base@DV?$string_output_adapter@D@__crt_stdio_output@@@2@@__crt_stdio_output@@AEAA_NXZ 000000018006da80 f i libucrtd:output.obj
 0001:0006cf00       ?state_case_size@?$output_processor@DV?$string_output_adapter@D@__crt_stdio_output@@V?$positional_parameter_base@DV?$string_output_adapter@D@__crt_stdio_output@@@2@@__crt_stdio_output@@AEAA_NXZ 000000018006df00 f i libucrtd:output.obj
 0001:0006d380       ?state_case_size@?$output_processor@DV?$string_output_adapter@D@__crt_stdio_output@@V?$standard_base@DV?$string_output_adapter@D@__crt_stdio_output@@@2@@__crt_stdio_output@@AEAA_NXZ 000000018006e380 f i libucrtd:output.obj
 0001:0006d800       ?state_case_size@?$output_processor@_WV?$stream_output_adapter@_W@__crt_stdio_output@@V?$format_validation_base@_WV?$stream_output_adapter@_W@__crt_stdio_output@@@2@@__crt_stdio_output@@AEAA_NXZ 000000018006e800 f i libucrtd:output.obj
 0001:0006dc80       ?state_case_size@?$output_processor@_WV?$stream_output_adapter@_W@__crt_stdio_output@@V?$positional_parameter_base@_WV?$stream_output_adapter@_W@__crt_stdio_output@@@2@@__crt_stdio_output@@AEAA_NXZ 000000018006ec80 f i libucrtd:output.obj
 0001:0006e100       ?state_case_size@?$output_processor@_WV?$stream_output_adapter@_W@__crt_stdio_output@@V?$standard_base@_WV?$stream_output_adapter@_W@__crt_stdio_output@@@2@@__crt_stdio_output@@AEAA_NXZ 000000018006f100 f i libucrtd:output.obj
 0001:0006e580       ?state_case_size@?$output_processor@_WV?$string_output_adapter@_W@__crt_stdio_output@@V?$format_validation_base@_WV?$string_output_adapter@_W@__crt_stdio_output@@@2@@__crt_stdio_output@@AEAA_NXZ 000000018006f580 f i libucrtd:output.obj
 0001:0006ea00       ?state_case_size@?$output_processor@_WV?$string_output_adapter@_W@__crt_stdio_output@@V?$positional_parameter_base@_WV?$string_output_adapter@_W@__crt_stdio_output@@@2@@__crt_stdio_output@@AEAA_NXZ 000000018006fa00 f i libucrtd:output.obj
 0001:0006ee80       ?state_case_size@?$output_processor@_WV?$string_output_adapter@_W@__crt_stdio_output@@V?$standard_base@_WV?$string_output_adapter@_W@__crt_stdio_output@@@2@@__crt_stdio_output@@AEAA_NXZ 000000018006fe80 f i libucrtd:output.obj
 0001:0006f300       ?state_case_type@?$output_processor@DV?$stream_output_adapter@D@__crt_stdio_output@@V?$format_validation_base@DV?$stream_output_adapter@D@__crt_stdio_output@@@2@@__crt_stdio_output@@AEAA_NXZ 0000000180070300 f i libucrtd:output.obj
 0001:0006f7a0       ?state_case_type@?$output_processor@DV?$stream_output_adapter@D@__crt_stdio_output@@V?$positional_parameter_base@DV?$stream_output_adapter@D@__crt_stdio_output@@@2@@__crt_stdio_output@@AEAA_NXZ 00000001800707a0 f i libucrtd:output.obj
 0001:0006fc40       ?state_case_type@?$output_processor@DV?$stream_output_adapter@D@__crt_stdio_output@@V?$standard_base@DV?$stream_output_adapter@D@__crt_stdio_output@@@2@@__crt_stdio_output@@AEAA_NXZ 0000000180070c40 f i libucrtd:output.obj
 0001:000700e0       ?state_case_type@?$output_processor@DV?$string_output_adapter@D@__crt_stdio_output@@V?$format_validation_base@DV?$string_output_adapter@D@__crt_stdio_output@@@2@@__crt_stdio_output@@AEAA_NXZ 00000001800710e0 f i libucrtd:output.obj
 0001:00070580       ?state_case_type@?$output_processor@DV?$string_output_adapter@D@__crt_stdio_output@@V?$positional_parameter_base@DV?$string_output_adapter@D@__crt_stdio_output@@@2@@__crt_stdio_output@@AEAA_NXZ 0000000180071580 f i libucrtd:output.obj
 0001:00070a20       ?state_case_type@?$output_processor@DV?$string_output_adapter@D@__crt_stdio_output@@V?$standard_base@DV?$string_output_adapter@D@__crt_stdio_output@@@2@@__crt_stdio_output@@AEAA_NXZ 0000000180071a20 f i libucrtd:output.obj
 0001:00070ec0       ?state_case_type@?$output_processor@_WV?$stream_output_adapter@_W@__crt_stdio_output@@V?$format_validation_base@_WV?$stream_output_adapter@_W@__crt_stdio_output@@@2@@__crt_stdio_output@@AEAA_NXZ 0000000180071ec0 f i libucrtd:output.obj
 0001:00071420       ?state_case_type@?$output_processor@_WV?$stream_output_adapter@_W@__crt_stdio_output@@V?$positional_parameter_base@_WV?$stream_output_adapter@_W@__crt_stdio_output@@@2@@__crt_stdio_output@@AEAA_NXZ 0000000180072420 f i libucrtd:output.obj
 0001:00071980       ?state_case_type@?$output_processor@_WV?$stream_output_adapter@_W@__crt_stdio_output@@V?$standard_base@_WV?$stream_output_adapter@_W@__crt_stdio_output@@@2@@__crt_stdio_output@@AEAA_NXZ 0000000180072980 f i libucrtd:output.obj
 0001:00071ee0       ?state_case_type@?$output_processor@_WV?$string_output_adapter@_W@__crt_stdio_output@@V?$format_validation_base@_WV?$string_output_adapter@_W@__crt_stdio_output@@@2@@__crt_stdio_output@@AEAA_NXZ 0000000180072ee0 f i libucrtd:output.obj
 0001:00072440       ?state_case_type@?$output_processor@_WV?$string_output_adapter@_W@__crt_stdio_output@@V?$positional_parameter_base@_WV?$string_output_adapter@_W@__crt_stdio_output@@@2@@__crt_stdio_output@@AEAA_NXZ 0000000180073440 f i libucrtd:output.obj
 0001:000729a0       ?state_case_type@?$output_processor@_WV?$string_output_adapter@_W@__crt_stdio_output@@V?$standard_base@_WV?$string_output_adapter@_W@__crt_stdio_output@@@2@@__crt_stdio_output@@AEAA_NXZ 00000001800739a0 f i libucrtd:output.obj
 0001:00072f00       ?state_case_width@?$output_processor@DV?$stream_output_adapter@D@__crt_stdio_output@@V?$format_validation_base@DV?$stream_output_adapter@D@__crt_stdio_output@@@2@@__crt_stdio_output@@AEAA_NXZ 0000000180073f00 f i libucrtd:output.obj
 0001:00072f90       ?state_case_width@?$output_processor@DV?$stream_output_adapter@D@__crt_stdio_output@@V?$positional_parameter_base@DV?$stream_output_adapter@D@__crt_stdio_output@@@2@@__crt_stdio_output@@AEAA_NXZ 0000000180073f90 f i libucrtd:output.obj
 0001:00073020       ?state_case_width@?$output_processor@DV?$stream_output_adapter@D@__crt_stdio_output@@V?$standard_base@DV?$stream_output_adapter@D@__crt_stdio_output@@@2@@__crt_stdio_output@@AEAA_NXZ 0000000180074020 f i libucrtd:output.obj
 0001:000730b0       ?state_case_width@?$output_processor@DV?$string_output_adapter@D@__crt_stdio_output@@V?$format_validation_base@DV?$string_output_adapter@D@__crt_stdio_output@@@2@@__crt_stdio_output@@AEAA_NXZ 00000001800740b0 f i libucrtd:output.obj
 0001:00073140       ?state_case_width@?$output_processor@DV?$string_output_adapter@D@__crt_stdio_output@@V?$positional_parameter_base@DV?$string_output_adapter@D@__crt_stdio_output@@@2@@__crt_stdio_output@@AEAA_NXZ 0000000180074140 f i libucrtd:output.obj
 0001:000731d0       ?state_case_width@?$output_processor@DV?$string_output_adapter@D@__crt_stdio_output@@V?$standard_base@DV?$string_output_adapter@D@__crt_stdio_output@@@2@@__crt_stdio_output@@AEAA_NXZ 00000001800741d0 f i libucrtd:output.obj
 0001:00073260       ?state_case_width@?$output_processor@_WV?$stream_output_adapter@_W@__crt_stdio_output@@V?$format_validation_base@_WV?$stream_output_adapter@_W@__crt_stdio_output@@@2@@__crt_stdio_output@@AEAA_NXZ 0000000180074260 f i libucrtd:output.obj
 0001:000732f0       ?state_case_width@?$output_processor@_WV?$stream_output_adapter@_W@__crt_stdio_output@@V?$positional_parameter_base@_WV?$stream_output_adapter@_W@__crt_stdio_output@@@2@@__crt_stdio_output@@AEAA_NXZ 00000001800742f0 f i libucrtd:output.obj
 0001:00073380       ?state_case_width@?$output_processor@_WV?$stream_output_adapter@_W@__crt_stdio_output@@V?$standard_base@_WV?$stream_output_adapter@_W@__crt_stdio_output@@@2@@__crt_stdio_output@@AEAA_NXZ 0000000180074380 f i libucrtd:output.obj
 0001:00073410       ?state_case_width@?$output_processor@_WV?$string_output_adapter@_W@__crt_stdio_output@@V?$format_validation_base@_WV?$string_output_adapter@_W@__crt_stdio_output@@@2@@__crt_stdio_output@@AEAA_NXZ 0000000180074410 f i libucrtd:output.obj
 0001:000734a0       ?state_case_width@?$output_processor@_WV?$string_output_adapter@_W@__crt_stdio_output@@V?$positional_parameter_base@_WV?$string_output_adapter@_W@__crt_stdio_output@@@2@@__crt_stdio_output@@AEAA_NXZ 00000001800744a0 f i libucrtd:output.obj
 0001:00073530       ?state_case_width@?$output_processor@_WV?$string_output_adapter@_W@__crt_stdio_output@@V?$standard_base@_WV?$string_output_adapter@_W@__crt_stdio_output@@@2@@__crt_stdio_output@@AEAA_NXZ 0000000180074530 f i libucrtd:output.obj
 0001:000735c0       ?state_count@?$format_validation_base@DV?$stream_output_adapter@D@__crt_stdio_output@@@__crt_stdio_output@@KAIXZ 00000001800745c0 f i libucrtd:output.obj
 0001:000735d0       ?state_count@?$format_validation_base@DV?$string_output_adapter@D@__crt_stdio_output@@@__crt_stdio_output@@KAIXZ 00000001800745d0 f i libucrtd:output.obj
 0001:000735e0       ?state_count@?$format_validation_base@_WV?$stream_output_adapter@_W@__crt_stdio_output@@@__crt_stdio_output@@KAIXZ 00000001800745e0 f i libucrtd:output.obj
 0001:000735f0       ?state_count@?$format_validation_base@_WV?$string_output_adapter@_W@__crt_stdio_output@@@__crt_stdio_output@@KAIXZ 00000001800745f0 f i libucrtd:output.obj
 0001:00073600       ?state_count@?$standard_base@DV?$stream_output_adapter@D@__crt_stdio_output@@@__crt_stdio_output@@KAIXZ 0000000180074600 f i libucrtd:output.obj
 0001:00073610       ?state_count@?$standard_base@DV?$string_output_adapter@D@__crt_stdio_output@@@__crt_stdio_output@@KAIXZ 0000000180074610 f i libucrtd:output.obj
 0001:00073620       ?state_count@?$standard_base@_WV?$stream_output_adapter@_W@__crt_stdio_output@@@__crt_stdio_output@@KAIXZ 0000000180074620 f i libucrtd:output.obj
 0001:00073630       ?state_count@?$standard_base@_WV?$string_output_adapter@_W@__crt_stdio_output@@@__crt_stdio_output@@KAIXZ 0000000180074630 f i libucrtd:output.obj
 0001:00073640       ?state_transition_table@?$format_validation_base@DV?$stream_output_adapter@D@__crt_stdio_output@@@__crt_stdio_output@@KAPEBEXZ 0000000180074640 f i libucrtd:output.obj
 0001:00073650       ?state_transition_table@?$format_validation_base@DV?$string_output_adapter@D@__crt_stdio_output@@@__crt_stdio_output@@KAPEBEXZ 0000000180074650 f i libucrtd:output.obj
 0001:00073660       ?state_transition_table@?$format_validation_base@_WV?$stream_output_adapter@_W@__crt_stdio_output@@@__crt_stdio_output@@KAPEBEXZ 0000000180074660 f i libucrtd:output.obj
 0001:00073670       ?state_transition_table@?$format_validation_base@_WV?$string_output_adapter@_W@__crt_stdio_output@@@__crt_stdio_output@@KAPEBEXZ 0000000180074670 f i libucrtd:output.obj
 0001:00073680       ?state_transition_table@?$standard_base@DV?$stream_output_adapter@D@__crt_stdio_output@@@__crt_stdio_output@@KAPEBEXZ 0000000180074680 f i libucrtd:output.obj
 0001:00073690       ?state_transition_table@?$standard_base@DV?$string_output_adapter@D@__crt_stdio_output@@@__crt_stdio_output@@KAPEBEXZ 0000000180074690 f i libucrtd:output.obj
 0001:000736a0       ?state_transition_table@?$standard_base@_WV?$stream_output_adapter@_W@__crt_stdio_output@@@__crt_stdio_output@@KAPEBEXZ 00000001800746a0 f i libucrtd:output.obj
 0001:000736b0       ?state_transition_table@?$standard_base@_WV?$string_output_adapter@_W@__crt_stdio_output@@@__crt_stdio_output@@KAPEBEXZ 00000001800746b0 f i libucrtd:output.obj
 0001:000736c0       ?tchar_string@?$common_data@D@__crt_stdio_output@@IEAAAEAPEADD@Z 00000001800746c0 f i libucrtd:output.obj
 0001:000736e0       ?tchar_string@?$common_data@D@__crt_stdio_output@@IEAAAEAPEADXZ 00000001800746e0 f i libucrtd:output.obj
 0001:00073700       ?tchar_string@?$common_data@_W@__crt_stdio_output@@IEAAAEAPEA_WXZ 0000000180074700 f i libucrtd:output.obj
 0001:00073720       ?tchar_string@?$common_data@_W@__crt_stdio_output@@IEAAAEAPEA_W_W@Z 0000000180074720 f i libucrtd:output.obj
 0001:00073740       ?to_integer_size@__crt_stdio_output@@YA_KW4length_modifier@1@@Z 0000000180074740 f i libucrtd:output.obj
 0001:000737f0       ?type_case_X@?$output_processor@DV?$stream_output_adapter@D@__crt_stdio_output@@V?$format_validation_base@DV?$stream_output_adapter@D@__crt_stdio_output@@@2@@__crt_stdio_output@@AEAA_NXZ 00000001800747f0 f i libucrtd:output.obj
 0001:00073810       ?type_case_X@?$output_processor@DV?$stream_output_adapter@D@__crt_stdio_output@@V?$positional_parameter_base@DV?$stream_output_adapter@D@__crt_stdio_output@@@2@@__crt_stdio_output@@AEAA_NXZ 0000000180074810 f i libucrtd:output.obj
 0001:00073830       ?type_case_X@?$output_processor@DV?$stream_output_adapter@D@__crt_stdio_output@@V?$standard_base@DV?$stream_output_adapter@D@__crt_stdio_output@@@2@@__crt_stdio_output@@AEAA_NXZ 0000000180074830 f i libucrtd:output.obj
 0001:00073850       ?type_case_X@?$output_processor@DV?$string_output_adapter@D@__crt_stdio_output@@V?$format_validation_base@DV?$string_output_adapter@D@__crt_stdio_output@@@2@@__crt_stdio_output@@AEAA_NXZ 0000000180074850 f i libucrtd:output.obj
 0001:00073870       ?type_case_X@?$output_processor@DV?$string_output_adapter@D@__crt_stdio_output@@V?$positional_parameter_base@DV?$string_output_adapter@D@__crt_stdio_output@@@2@@__crt_stdio_output@@AEAA_NXZ 0000000180074870 f i libucrtd:output.obj
 0001:00073890       ?type_case_X@?$output_processor@DV?$string_output_adapter@D@__crt_stdio_output@@V?$standard_base@DV?$string_output_adapter@D@__crt_stdio_output@@@2@@__crt_stdio_output@@AEAA_NXZ 0000000180074890 f i libucrtd:output.obj
 0001:000738b0       ?type_case_X@?$output_processor@_WV?$stream_output_adapter@_W@__crt_stdio_output@@V?$format_validation_base@_WV?$stream_output_adapter@_W@__crt_stdio_output@@@2@@__crt_stdio_output@@AEAA_NXZ 00000001800748b0 f i libucrtd:output.obj
 0001:000738d0       ?type_case_X@?$output_processor@_WV?$stream_output_adapter@_W@__crt_stdio_output@@V?$positional_parameter_base@_WV?$stream_output_adapter@_W@__crt_stdio_output@@@2@@__crt_stdio_output@@AEAA_NXZ 00000001800748d0 f i libucrtd:output.obj
 0001:000738f0       ?type_case_X@?$output_processor@_WV?$stream_output_adapter@_W@__crt_stdio_output@@V?$standard_base@_WV?$stream_output_adapter@_W@__crt_stdio_output@@@2@@__crt_stdio_output@@AEAA_NXZ 00000001800748f0 f i libucrtd:output.obj
 0001:00073910       ?type_case_X@?$output_processor@_WV?$string_output_adapter@_W@__crt_stdio_output@@V?$format_validation_base@_WV?$string_output_adapter@_W@__crt_stdio_output@@@2@@__crt_stdio_output@@AEAA_NXZ 0000000180074910 f i libucrtd:output.obj
 0001:00073930       ?type_case_X@?$output_processor@_WV?$string_output_adapter@_W@__crt_stdio_output@@V?$positional_parameter_base@_WV?$string_output_adapter@_W@__crt_stdio_output@@@2@@__crt_stdio_output@@AEAA_NXZ 0000000180074930 f i libucrtd:output.obj
 0001:00073950       ?type_case_X@?$output_processor@_WV?$string_output_adapter@_W@__crt_stdio_output@@V?$standard_base@_WV?$string_output_adapter@_W@__crt_stdio_output@@@2@@__crt_stdio_output@@AEAA_NXZ 0000000180074950 f i libucrtd:output.obj
 0001:00073970       ?type_case_Z@?$output_processor@DV?$stream_output_adapter@D@__crt_stdio_output@@V?$format_validation_base@DV?$stream_output_adapter@D@__crt_stdio_output@@@2@@__crt_stdio_output@@AEAA_NXZ 0000000180074970 f i libucrtd:output.obj
 0001:00073a90       ?type_case_Z@?$output_processor@DV?$stream_output_adapter@D@__crt_stdio_output@@V?$positional_parameter_base@DV?$stream_output_adapter@D@__crt_stdio_output@@@2@@__crt_stdio_output@@AEAA_NXZ 0000000180074a90 f i libucrtd:output.obj
 0001:00073bb0       ?type_case_Z@?$output_processor@DV?$stream_output_adapter@D@__crt_stdio_output@@V?$standard_base@DV?$stream_output_adapter@D@__crt_stdio_output@@@2@@__crt_stdio_output@@AEAA_NXZ 0000000180074bb0 f i libucrtd:output.obj
 0001:00073cd0       ?type_case_Z@?$output_processor@DV?$string_output_adapter@D@__crt_stdio_output@@V?$format_validation_base@DV?$string_output_adapter@D@__crt_stdio_output@@@2@@__crt_stdio_output@@AEAA_NXZ 0000000180074cd0 f i libucrtd:output.obj
 0001:00073df0       ?type_case_Z@?$output_processor@DV?$string_output_adapter@D@__crt_stdio_output@@V?$positional_parameter_base@DV?$string_output_adapter@D@__crt_stdio_output@@@2@@__crt_stdio_output@@AEAA_NXZ 0000000180074df0 f i libucrtd:output.obj
 0001:00073f10       ?type_case_Z@?$output_processor@DV?$string_output_adapter@D@__crt_stdio_output@@V?$standard_base@DV?$string_output_adapter@D@__crt_stdio_output@@@2@@__crt_stdio_output@@AEAA_NXZ 0000000180074f10 f i libucrtd:output.obj
 0001:00074030       ?type_case_Z@?$output_processor@_WV?$stream_output_adapter@_W@__crt_stdio_output@@V?$format_validation_base@_WV?$stream_output_adapter@_W@__crt_stdio_output@@@2@@__crt_stdio_output@@AEAA_NXZ 0000000180075030 f i libucrtd:output.obj
 0001:00074150       ?type_case_Z@?$output_processor@_WV?$stream_output_adapter@_W@__crt_stdio_output@@V?$positional_parameter_base@_WV?$stream_output_adapter@_W@__crt_stdio_output@@@2@@__crt_stdio_output@@AEAA_NXZ 0000000180075150 f i libucrtd:output.obj
 0001:00074270       ?type_case_Z@?$output_processor@_WV?$stream_output_adapter@_W@__crt_stdio_output@@V?$standard_base@_WV?$stream_output_adapter@_W@__crt_stdio_output@@@2@@__crt_stdio_output@@AEAA_NXZ 0000000180075270 f i libucrtd:output.obj
 0001:00074390       ?type_case_Z@?$output_processor@_WV?$string_output_adapter@_W@__crt_stdio_output@@V?$format_validation_base@_WV?$string_output_adapter@_W@__crt_stdio_output@@@2@@__crt_stdio_output@@AEAA_NXZ 0000000180075390 f i libucrtd:output.obj
 0001:000744b0       ?type_case_Z@?$output_processor@_WV?$string_output_adapter@_W@__crt_stdio_output@@V?$positional_parameter_base@_WV?$string_output_adapter@_W@__crt_stdio_output@@@2@@__crt_stdio_output@@AEAA_NXZ 00000001800754b0 f i libucrtd:output.obj
 0001:000745d0       ?type_case_Z@?$output_processor@_WV?$string_output_adapter@_W@__crt_stdio_output@@V?$standard_base@_WV?$string_output_adapter@_W@__crt_stdio_output@@@2@@__crt_stdio_output@@AEAA_NXZ 00000001800755d0 f i libucrtd:output.obj
 0001:000746f0       ?type_case_a@?$output_processor@DV?$stream_output_adapter@D@__crt_stdio_output@@V?$format_validation_base@DV?$stream_output_adapter@D@__crt_stdio_output@@@2@@__crt_stdio_output@@AEAA_NXZ 00000001800756f0 f i libucrtd:output.obj
 0001:00074ab0       ?type_case_a@?$output_processor@DV?$stream_output_adapter@D@__crt_stdio_output@@V?$positional_parameter_base@DV?$stream_output_adapter@D@__crt_stdio_output@@@2@@__crt_stdio_output@@AEAA_NXZ 0000000180075ab0 f i libucrtd:output.obj
 0001:00074e70       ?type_case_a@?$output_processor@DV?$stream_output_adapter@D@__crt_stdio_output@@V?$standard_base@DV?$stream_output_adapter@D@__crt_stdio_output@@@2@@__crt_stdio_output@@AEAA_NXZ 0000000180075e70 f i libucrtd:output.obj
 0001:00075230       ?type_case_a@?$output_processor@DV?$string_output_adapter@D@__crt_stdio_output@@V?$format_validation_base@DV?$string_output_adapter@D@__crt_stdio_output@@@2@@__crt_stdio_output@@AEAA_NXZ 0000000180076230 f i libucrtd:output.obj
 0001:000755f0       ?type_case_a@?$output_processor@DV?$string_output_adapter@D@__crt_stdio_output@@V?$positional_parameter_base@DV?$string_output_adapter@D@__crt_stdio_output@@@2@@__crt_stdio_output@@AEAA_NXZ 00000001800765f0 f i libucrtd:output.obj
 0001:000759b0       ?type_case_a@?$output_processor@DV?$string_output_adapter@D@__crt_stdio_output@@V?$standard_base@DV?$string_output_adapter@D@__crt_stdio_output@@@2@@__crt_stdio_output@@AEAA_NXZ 00000001800769b0 f i libucrtd:output.obj
 0001:00075d70       ?type_case_a@?$output_processor@_WV?$stream_output_adapter@_W@__crt_stdio_output@@V?$format_validation_base@_WV?$stream_output_adapter@_W@__crt_stdio_output@@@2@@__crt_stdio_output@@AEAA_NXZ 0000000180076d70 f i libucrtd:output.obj
 0001:00076140       ?type_case_a@?$output_processor@_WV?$stream_output_adapter@_W@__crt_stdio_output@@V?$positional_parameter_base@_WV?$stream_output_adapter@_W@__crt_stdio_output@@@2@@__crt_stdio_output@@AEAA_NXZ 0000000180077140 f i libucrtd:output.obj
 0001:00076510       ?type_case_a@?$output_processor@_WV?$stream_output_adapter@_W@__crt_stdio_output@@V?$standard_base@_WV?$stream_output_adapter@_W@__crt_stdio_output@@@2@@__crt_stdio_output@@AEAA_NXZ 0000000180077510 f i libucrtd:output.obj
 0001:000768e0       ?type_case_a@?$output_processor@_WV?$string_output_adapter@_W@__crt_stdio_output@@V?$format_validation_base@_WV?$string_output_adapter@_W@__crt_stdio_output@@@2@@__crt_stdio_output@@AEAA_NXZ 00000001800778e0 f i libucrtd:output.obj
 0001:00076cb0       ?type_case_a@?$output_processor@_WV?$string_output_adapter@_W@__crt_stdio_output@@V?$positional_parameter_base@_WV?$string_output_adapter@_W@__crt_stdio_output@@@2@@__crt_stdio_output@@AEAA_NXZ 0000000180077cb0 f i libucrtd:output.obj
 0001:00077080       ?type_case_a@?$output_processor@_WV?$string_output_adapter@_W@__crt_stdio_output@@V?$standard_base@_WV?$string_output_adapter@_W@__crt_stdio_output@@@2@@__crt_stdio_output@@AEAA_NXZ 0000000180078080 f i libucrtd:output.obj
 0001:00077450       ?type_case_c@?$output_processor@DV?$stream_output_adapter@D@__crt_stdio_output@@V?$format_validation_base@DV?$stream_output_adapter@D@__crt_stdio_output@@@2@@__crt_stdio_output@@AEAA_NXZ 0000000180078450 f i libucrtd:output.obj
 0001:00077470       ?type_case_c@?$output_processor@DV?$stream_output_adapter@D@__crt_stdio_output@@V?$positional_parameter_base@DV?$stream_output_adapter@D@__crt_stdio_output@@@2@@__crt_stdio_output@@AEAA_NXZ 0000000180078470 f i libucrtd:output.obj
 0001:00077490       ?type_case_c@?$output_processor@DV?$stream_output_adapter@D@__crt_stdio_output@@V?$standard_base@DV?$stream_output_adapter@D@__crt_stdio_output@@@2@@__crt_stdio_output@@AEAA_NXZ 0000000180078490 f i libucrtd:output.obj
 0001:000774b0       ?type_case_c@?$output_processor@DV?$string_output_adapter@D@__crt_stdio_output@@V?$format_validation_base@DV?$string_output_adapter@D@__crt_stdio_output@@@2@@__crt_stdio_output@@AEAA_NXZ 00000001800784b0 f i libucrtd:output.obj
 0001:000774d0       ?type_case_c@?$output_processor@DV?$string_output_adapter@D@__crt_stdio_output@@V?$positional_parameter_base@DV?$string_output_adapter@D@__crt_stdio_output@@@2@@__crt_stdio_output@@AEAA_NXZ 00000001800784d0 f i libucrtd:output.obj
 0001:000774f0       ?type_case_c@?$output_processor@DV?$string_output_adapter@D@__crt_stdio_output@@V?$standard_base@DV?$string_output_adapter@D@__crt_stdio_output@@@2@@__crt_stdio_output@@AEAA_NXZ 00000001800784f0 f i libucrtd:output.obj
 0001:00077510       ?type_case_c@?$output_processor@_WV?$stream_output_adapter@_W@__crt_stdio_output@@V?$format_validation_base@_WV?$stream_output_adapter@_W@__crt_stdio_output@@@2@@__crt_stdio_output@@AEAA_NXZ 0000000180078510 f i libucrtd:output.obj
 0001:00077530       ?type_case_c@?$output_processor@_WV?$stream_output_adapter@_W@__crt_stdio_output@@V?$positional_parameter_base@_WV?$stream_output_adapter@_W@__crt_stdio_output@@@2@@__crt_stdio_output@@AEAA_NXZ 0000000180078530 f i libucrtd:output.obj
 0001:00077550       ?type_case_c@?$output_processor@_WV?$stream_output_adapter@_W@__crt_stdio_output@@V?$standard_base@_WV?$stream_output_adapter@_W@__crt_stdio_output@@@2@@__crt_stdio_output@@AEAA_NXZ 0000000180078550 f i libucrtd:output.obj
 0001:00077570       ?type_case_c@?$output_processor@_WV?$string_output_adapter@_W@__crt_stdio_output@@V?$format_validation_base@_WV?$string_output_adapter@_W@__crt_stdio_output@@@2@@__crt_stdio_output@@AEAA_NXZ 0000000180078570 f i libucrtd:output.obj
 0001:00077590       ?type_case_c@?$output_processor@_WV?$string_output_adapter@_W@__crt_stdio_output@@V?$positional_parameter_base@_WV?$string_output_adapter@_W@__crt_stdio_output@@@2@@__crt_stdio_output@@AEAA_NXZ 0000000180078590 f i libucrtd:output.obj
 0001:000775b0       ?type_case_c@?$output_processor@_WV?$string_output_adapter@_W@__crt_stdio_output@@V?$standard_base@_WV?$string_output_adapter@_W@__crt_stdio_output@@@2@@__crt_stdio_output@@AEAA_NXZ 00000001800785b0 f i libucrtd:output.obj
 0001:000775d0       ?type_case_c_tchar@?$output_processor@DV?$stream_output_adapter@D@__crt_stdio_output@@V?$format_validation_base@DV?$stream_output_adapter@D@__crt_stdio_output@@@2@@__crt_stdio_output@@AEAA_ND@Z 00000001800785d0 f i libucrtd:output.obj
 0001:00077720       ?type_case_c_tchar@?$output_processor@DV?$stream_output_adapter@D@__crt_stdio_output@@V?$positional_parameter_base@DV?$stream_output_adapter@D@__crt_stdio_output@@@2@@__crt_stdio_output@@AEAA_ND@Z 0000000180078720 f i libucrtd:output.obj
 0001:00077870       ?type_case_c_tchar@?$output_processor@DV?$stream_output_adapter@D@__crt_stdio_output@@V?$standard_base@DV?$stream_output_adapter@D@__crt_stdio_output@@@2@@__crt_stdio_output@@AEAA_ND@Z 0000000180078870 f i libucrtd:output.obj
 0001:000779c0       ?type_case_c_tchar@?$output_processor@DV?$string_output_adapter@D@__crt_stdio_output@@V?$format_validation_base@DV?$string_output_adapter@D@__crt_stdio_output@@@2@@__crt_stdio_output@@AEAA_ND@Z 00000001800789c0 f i libucrtd:output.obj
 0001:00077b10       ?type_case_c_tchar@?$output_processor@DV?$string_output_adapter@D@__crt_stdio_output@@V?$positional_parameter_base@DV?$string_output_adapter@D@__crt_stdio_output@@@2@@__crt_stdio_output@@AEAA_ND@Z 0000000180078b10 f i libucrtd:output.obj
 0001:00077c60       ?type_case_c_tchar@?$output_processor@DV?$string_output_adapter@D@__crt_stdio_output@@V?$standard_base@DV?$string_output_adapter@D@__crt_stdio_output@@@2@@__crt_stdio_output@@AEAA_ND@Z 0000000180078c60 f i libucrtd:output.obj
 0001:00077db0       ?type_case_c_tchar@?$output_processor@_WV?$stream_output_adapter@_W@__crt_stdio_output@@V?$format_validation_base@_WV?$stream_output_adapter@_W@__crt_stdio_output@@@2@@__crt_stdio_output@@AEAA_N_W@Z 0000000180078db0 f i libucrtd:output.obj
 0001:00077ee0       ?type_case_c_tchar@?$output_processor@_WV?$stream_output_adapter@_W@__crt_stdio_output@@V?$positional_parameter_base@_WV?$stream_output_adapter@_W@__crt_stdio_output@@@2@@__crt_stdio_output@@AEAA_N_W@Z 0000000180078ee0 f i libucrtd:output.obj
 0001:00078010       ?type_case_c_tchar@?$output_processor@_WV?$stream_output_adapter@_W@__crt_stdio_output@@V?$standard_base@_WV?$stream_output_adapter@_W@__crt_stdio_output@@@2@@__crt_stdio_output@@AEAA_N_W@Z 0000000180079010 f i libucrtd:output.obj
 0001:00078140       ?type_case_c_tchar@?$output_processor@_WV?$string_output_adapter@_W@__crt_stdio_output@@V?$format_validation_base@_WV?$string_output_adapter@_W@__crt_stdio_output@@@2@@__crt_stdio_output@@AEAA_N_W@Z 0000000180079140 f i libucrtd:output.obj
 0001:00078270       ?type_case_c_tchar@?$output_processor@_WV?$string_output_adapter@_W@__crt_stdio_output@@V?$positional_parameter_base@_WV?$string_output_adapter@_W@__crt_stdio_output@@@2@@__crt_stdio_output@@AEAA_N_W@Z 0000000180079270 f i libucrtd:output.obj
 0001:000783a0       ?type_case_c_tchar@?$output_processor@_WV?$string_output_adapter@_W@__crt_stdio_output@@V?$standard_base@_WV?$string_output_adapter@_W@__crt_stdio_output@@@2@@__crt_stdio_output@@AEAA_N_W@Z 00000001800793a0 f i libucrtd:output.obj
 0001:000784d0       ?type_case_d@?$output_processor@DV?$stream_output_adapter@D@__crt_stdio_output@@V?$format_validation_base@DV?$stream_output_adapter@D@__crt_stdio_output@@@2@@__crt_stdio_output@@AEAA_NXZ 00000001800794d0 f i libucrtd:output.obj
 0001:00078500       ?type_case_d@?$output_processor@DV?$stream_output_adapter@D@__crt_stdio_output@@V?$positional_parameter_base@DV?$stream_output_adapter@D@__crt_stdio_output@@@2@@__crt_stdio_output@@AEAA_NXZ 0000000180079500 f i libucrtd:output.obj
 0001:00078530       ?type_case_d@?$output_processor@DV?$stream_output_adapter@D@__crt_stdio_output@@V?$standard_base@DV?$stream_output_adapter@D@__crt_stdio_output@@@2@@__crt_stdio_output@@AEAA_NXZ 0000000180079530 f i libucrtd:output.obj
 0001:00078560       ?type_case_d@?$output_processor@DV?$string_output_adapter@D@__crt_stdio_output@@V?$format_validation_base@DV?$string_output_adapter@D@__crt_stdio_output@@@2@@__crt_stdio_output@@AEAA_NXZ 0000000180079560 f i libucrtd:output.obj
 0001:00078590       ?type_case_d@?$output_processor@DV?$string_output_adapter@D@__crt_stdio_output@@V?$positional_parameter_base@DV?$string_output_adapter@D@__crt_stdio_output@@@2@@__crt_stdio_output@@AEAA_NXZ 0000000180079590 f i libucrtd:output.obj
 0001:000785c0       ?type_case_d@?$output_processor@DV?$string_output_adapter@D@__crt_stdio_output@@V?$standard_base@DV?$string_output_adapter@D@__crt_stdio_output@@@2@@__crt_stdio_output@@AEAA_NXZ 00000001800795c0 f i libucrtd:output.obj
 0001:000785f0       ?type_case_d@?$output_processor@_WV?$stream_output_adapter@_W@__crt_stdio_output@@V?$format_validation_base@_WV?$stream_output_adapter@_W@__crt_stdio_output@@@2@@__crt_stdio_output@@AEAA_NXZ 00000001800795f0 f i libucrtd:output.obj
 0001:00078620       ?type_case_d@?$output_processor@_WV?$stream_output_adapter@_W@__crt_stdio_output@@V?$positional_parameter_base@_WV?$stream_output_adapter@_W@__crt_stdio_output@@@2@@__crt_stdio_output@@AEAA_NXZ 0000000180079620 f i libucrtd:output.obj
 0001:00078650       ?type_case_d@?$output_processor@_WV?$stream_output_adapter@_W@__crt_stdio_output@@V?$standard_base@_WV?$stream_output_adapter@_W@__crt_stdio_output@@@2@@__crt_stdio_output@@AEAA_NXZ 0000000180079650 f i libucrtd:output.obj
 0001:00078680       ?type_case_d@?$output_processor@_WV?$string_output_adapter@_W@__crt_stdio_output@@V?$format_validation_base@_WV?$string_output_adapter@_W@__crt_stdio_output@@@2@@__crt_stdio_output@@AEAA_NXZ 0000000180079680 f i libucrtd:output.obj
 0001:000786b0       ?type_case_d@?$output_processor@_WV?$string_output_adapter@_W@__crt_stdio_output@@V?$positional_parameter_base@_WV?$string_output_adapter@_W@__crt_stdio_output@@@2@@__crt_stdio_output@@AEAA_NXZ 00000001800796b0 f i libucrtd:output.obj
 0001:000786e0       ?type_case_d@?$output_processor@_WV?$string_output_adapter@_W@__crt_stdio_output@@V?$standard_base@_WV?$string_output_adapter@_W@__crt_stdio_output@@@2@@__crt_stdio_output@@AEAA_NXZ 00000001800796e0 f i libucrtd:output.obj
 0001:00078710       ?type_case_integer@?$output_processor@DV?$stream_output_adapter@D@__crt_stdio_output@@V?$format_validation_base@DV?$stream_output_adapter@D@__crt_stdio_output@@@2@@__crt_stdio_output@@AEAA_NI_N@Z 0000000180079710 f i libucrtd:output.obj
 0001:00078b60       ?type_case_integer@?$output_processor@DV?$stream_output_adapter@D@__crt_stdio_output@@V?$positional_parameter_base@DV?$stream_output_adapter@D@__crt_stdio_output@@@2@@__crt_stdio_output@@AEAA_NI_N@Z 0000000180079b60 f i libucrtd:output.obj
 0001:00078fb0       ?type_case_integer@?$output_processor@DV?$stream_output_adapter@D@__crt_stdio_output@@V?$standard_base@DV?$stream_output_adapter@D@__crt_stdio_output@@@2@@__crt_stdio_output@@AEAA_NI_N@Z 0000000180079fb0 f i libucrtd:output.obj
 0001:00079400       ?type_case_integer@?$output_processor@DV?$string_output_adapter@D@__crt_stdio_output@@V?$format_validation_base@DV?$string_output_adapter@D@__crt_stdio_output@@@2@@__crt_stdio_output@@AEAA_NI_N@Z 000000018007a400 f i libucrtd:output.obj
 0001:00079850       ?type_case_integer@?$output_processor@DV?$string_output_adapter@D@__crt_stdio_output@@V?$positional_parameter_base@DV?$string_output_adapter@D@__crt_stdio_output@@@2@@__crt_stdio_output@@AEAA_NI_N@Z 000000018007a850 f i libucrtd:output.obj
 0001:00079ca0       ?type_case_integer@?$output_processor@DV?$string_output_adapter@D@__crt_stdio_output@@V?$standard_base@DV?$string_output_adapter@D@__crt_stdio_output@@@2@@__crt_stdio_output@@AEAA_NI_N@Z 000000018007aca0 f i libucrtd:output.obj
 0001:0007a0f0       ?type_case_integer@?$output_processor@_WV?$stream_output_adapter@_W@__crt_stdio_output@@V?$format_validation_base@_WV?$stream_output_adapter@_W@__crt_stdio_output@@@2@@__crt_stdio_output@@AEAA_NI_N@Z 000000018007b0f0 f i libucrtd:output.obj
 0001:0007a540       ?type_case_integer@?$output_processor@_WV?$stream_output_adapter@_W@__crt_stdio_output@@V?$positional_parameter_base@_WV?$stream_output_adapter@_W@__crt_stdio_output@@@2@@__crt_stdio_output@@AEAA_NI_N@Z 000000018007b540 f i libucrtd:output.obj
 0001:0007a990       ?type_case_integer@?$output_processor@_WV?$stream_output_adapter@_W@__crt_stdio_output@@V?$standard_base@_WV?$stream_output_adapter@_W@__crt_stdio_output@@@2@@__crt_stdio_output@@AEAA_NI_N@Z 000000018007b990 f i libucrtd:output.obj
 0001:0007ade0       ?type_case_integer@?$output_processor@_WV?$string_output_adapter@_W@__crt_stdio_output@@V?$format_validation_base@_WV?$string_output_adapter@_W@__crt_stdio_output@@@2@@__crt_stdio_output@@AEAA_NI_N@Z 000000018007bde0 f i libucrtd:output.obj
 0001:0007b230       ?type_case_integer@?$output_processor@_WV?$string_output_adapter@_W@__crt_stdio_output@@V?$positional_parameter_base@_WV?$string_output_adapter@_W@__crt_stdio_output@@@2@@__crt_stdio_output@@AEAA_NI_N@Z 000000018007c230 f i libucrtd:output.obj
 0001:0007b680       ?type_case_integer@?$output_processor@_WV?$string_output_adapter@_W@__crt_stdio_output@@V?$standard_base@_WV?$string_output_adapter@_W@__crt_stdio_output@@@2@@__crt_stdio_output@@AEAA_NI_N@Z 000000018007c680 f i libucrtd:output.obj
 0001:0007bad0       ?type_case_n@?$output_processor@DV?$stream_output_adapter@D@__crt_stdio_output@@V?$format_validation_base@DV?$stream_output_adapter@D@__crt_stdio_output@@@2@@__crt_stdio_output@@AEAA_NXZ 000000018007cad0 f i libucrtd:output.obj
 0001:0007bd10       ?type_case_n@?$output_processor@DV?$stream_output_adapter@D@__crt_stdio_output@@V?$positional_parameter_base@DV?$stream_output_adapter@D@__crt_stdio_output@@@2@@__crt_stdio_output@@AEAA_NXZ 000000018007cd10 f i libucrtd:output.obj
 0001:0007bf50       ?type_case_n@?$output_processor@DV?$stream_output_adapter@D@__crt_stdio_output@@V?$standard_base@DV?$stream_output_adapter@D@__crt_stdio_output@@@2@@__crt_stdio_output@@AEAA_NXZ 000000018007cf50 f i libucrtd:output.obj
 0001:0007c190       ?type_case_n@?$output_processor@DV?$string_output_adapter@D@__crt_stdio_output@@V?$format_validation_base@DV?$string_output_adapter@D@__crt_stdio_output@@@2@@__crt_stdio_output@@AEAA_NXZ 000000018007d190 f i libucrtd:output.obj
 0001:0007c3d0       ?type_case_n@?$output_processor@DV?$string_output_adapter@D@__crt_stdio_output@@V?$positional_parameter_base@DV?$string_output_adapter@D@__crt_stdio_output@@@2@@__crt_stdio_output@@AEAA_NXZ 000000018007d3d0 f i libucrtd:output.obj
 0001:0007c610       ?type_case_n@?$output_processor@DV?$string_output_adapter@D@__crt_stdio_output@@V?$standard_base@DV?$string_output_adapter@D@__crt_stdio_output@@@2@@__crt_stdio_output@@AEAA_NXZ 000000018007d610 f i libucrtd:output.obj
 0001:0007c850       ?type_case_n@?$output_processor@_WV?$stream_output_adapter@_W@__crt_stdio_output@@V?$format_validation_base@_WV?$stream_output_adapter@_W@__crt_stdio_output@@@2@@__crt_stdio_output@@AEAA_NXZ 000000018007d850 f i libucrtd:output.obj
 0001:0007ca90       ?type_case_n@?$output_processor@_WV?$stream_output_adapter@_W@__crt_stdio_output@@V?$positional_parameter_base@_WV?$stream_output_adapter@_W@__crt_stdio_output@@@2@@__crt_stdio_output@@AEAA_NXZ 000000018007da90 f i libucrtd:output.obj
 0001:0007ccd0       ?type_case_n@?$output_processor@_WV?$stream_output_adapter@_W@__crt_stdio_output@@V?$standard_base@_WV?$stream_output_adapter@_W@__crt_stdio_output@@@2@@__crt_stdio_output@@AEAA_NXZ 000000018007dcd0 f i libucrtd:output.obj
 0001:0007cf10       ?type_case_n@?$output_processor@_WV?$string_output_adapter@_W@__crt_stdio_output@@V?$format_validation_base@_WV?$string_output_adapter@_W@__crt_stdio_output@@@2@@__crt_stdio_output@@AEAA_NXZ 000000018007df10 f i libucrtd:output.obj
 0001:0007d150       ?type_case_n@?$output_processor@_WV?$string_output_adapter@_W@__crt_stdio_output@@V?$positional_parameter_base@_WV?$string_output_adapter@_W@__crt_stdio_output@@@2@@__crt_stdio_output@@AEAA_NXZ 000000018007e150 f i libucrtd:output.obj
 0001:0007d390       ?type_case_n@?$output_processor@_WV?$string_output_adapter@_W@__crt_stdio_output@@V?$standard_base@_WV?$string_output_adapter@_W@__crt_stdio_output@@@2@@__crt_stdio_output@@AEAA_NXZ 000000018007e390 f i libucrtd:output.obj
 0001:0007d5d0       ?type_case_o@?$output_processor@DV?$stream_output_adapter@D@__crt_stdio_output@@V?$format_validation_base@DV?$stream_output_adapter@D@__crt_stdio_output@@@2@@__crt_stdio_output@@AEAA_NXZ 000000018007e5d0 f i libucrtd:output.obj
 0001:0007d620       ?type_case_o@?$output_processor@DV?$stream_output_adapter@D@__crt_stdio_output@@V?$positional_parameter_base@DV?$stream_output_adapter@D@__crt_stdio_output@@@2@@__crt_stdio_output@@AEAA_NXZ 000000018007e620 f i libucrtd:output.obj
 0001:0007d670       ?type_case_o@?$output_processor@DV?$stream_output_adapter@D@__crt_stdio_output@@V?$standard_base@DV?$stream_output_adapter@D@__crt_stdio_output@@@2@@__crt_stdio_output@@AEAA_NXZ 000000018007e670 f i libucrtd:output.obj
 0001:0007d6c0       ?type_case_o@?$output_processor@DV?$string_output_adapter@D@__crt_stdio_output@@V?$format_validation_base@DV?$string_output_adapter@D@__crt_stdio_output@@@2@@__crt_stdio_output@@AEAA_NXZ 000000018007e6c0 f i libucrtd:output.obj
 0001:0007d710       ?type_case_o@?$output_processor@DV?$string_output_adapter@D@__crt_stdio_output@@V?$positional_parameter_base@DV?$string_output_adapter@D@__crt_stdio_output@@@2@@__crt_stdio_output@@AEAA_NXZ 000000018007e710 f i libucrtd:output.obj
 0001:0007d760       ?type_case_o@?$output_processor@DV?$string_output_adapter@D@__crt_stdio_output@@V?$standard_base@DV?$string_output_adapter@D@__crt_stdio_output@@@2@@__crt_stdio_output@@AEAA_NXZ 000000018007e760 f i libucrtd:output.obj
 0001:0007d7b0       ?type_case_o@?$output_processor@_WV?$stream_output_adapter@_W@__crt_stdio_output@@V?$format_validation_base@_WV?$stream_output_adapter@_W@__crt_stdio_output@@@2@@__crt_stdio_output@@AEAA_NXZ 000000018007e7b0 f i libucrtd:output.obj
 0001:0007d800       ?type_case_o@?$output_processor@_WV?$stream_output_adapter@_W@__crt_stdio_output@@V?$positional_parameter_base@_WV?$stream_output_adapter@_W@__crt_stdio_output@@@2@@__crt_stdio_output@@AEAA_NXZ 000000018007e800 f i libucrtd:output.obj
 0001:0007d850       ?type_case_o@?$output_processor@_WV?$stream_output_adapter@_W@__crt_stdio_output@@V?$standard_base@_WV?$stream_output_adapter@_W@__crt_stdio_output@@@2@@__crt_stdio_output@@AEAA_NXZ 000000018007e850 f i libucrtd:output.obj
 0001:0007d8a0       ?type_case_o@?$output_processor@_WV?$string_output_adapter@_W@__crt_stdio_output@@V?$format_validation_base@_WV?$string_output_adapter@_W@__crt_stdio_output@@@2@@__crt_stdio_output@@AEAA_NXZ 000000018007e8a0 f i libucrtd:output.obj
 0001:0007d8f0       ?type_case_o@?$output_processor@_WV?$string_output_adapter@_W@__crt_stdio_output@@V?$positional_parameter_base@_WV?$string_output_adapter@_W@__crt_stdio_output@@@2@@__crt_stdio_output@@AEAA_NXZ 000000018007e8f0 f i libucrtd:output.obj
 0001:0007d940       ?type_case_o@?$output_processor@_WV?$string_output_adapter@_W@__crt_stdio_output@@V?$standard_base@_WV?$string_output_adapter@_W@__crt_stdio_output@@@2@@__crt_stdio_output@@AEAA_NXZ 000000018007e940 f i libucrtd:output.obj
 0001:0007d990       ?type_case_p@?$output_processor@DV?$stream_output_adapter@D@__crt_stdio_output@@V?$format_validation_base@DV?$stream_output_adapter@D@__crt_stdio_output@@@2@@__crt_stdio_output@@AEAA_NXZ 000000018007e990 f i libucrtd:output.obj
 0001:0007d9d0       ?type_case_p@?$output_processor@DV?$stream_output_adapter@D@__crt_stdio_output@@V?$positional_parameter_base@DV?$stream_output_adapter@D@__crt_stdio_output@@@2@@__crt_stdio_output@@AEAA_NXZ 000000018007e9d0 f i libucrtd:output.obj
 0001:0007da10       ?type_case_p@?$output_processor@DV?$stream_output_adapter@D@__crt_stdio_output@@V?$standard_base@DV?$stream_output_adapter@D@__crt_stdio_output@@@2@@__crt_stdio_output@@AEAA_NXZ 000000018007ea10 f i libucrtd:output.obj
 0001:0007da50       ?type_case_p@?$output_processor@DV?$string_output_adapter@D@__crt_stdio_output@@V?$format_validation_base@DV?$string_output_adapter@D@__crt_stdio_output@@@2@@__crt_stdio_output@@AEAA_NXZ 000000018007ea50 f i libucrtd:output.obj
 0001:0007da90       ?type_case_p@?$output_processor@DV?$string_output_adapter@D@__crt_stdio_output@@V?$positional_parameter_base@DV?$string_output_adapter@D@__crt_stdio_output@@@2@@__crt_stdio_output@@AEAA_NXZ 000000018007ea90 f i libucrtd:output.obj
 0001:0007dad0       ?type_case_p@?$output_processor@DV?$string_output_adapter@D@__crt_stdio_output@@V?$standard_base@DV?$string_output_adapter@D@__crt_stdio_output@@@2@@__crt_stdio_output@@AEAA_NXZ 000000018007ead0 f i libucrtd:output.obj
 0001:0007db10       ?type_case_p@?$output_processor@_WV?$stream_output_adapter@_W@__crt_stdio_output@@V?$format_validation_base@_WV?$stream_output_adapter@_W@__crt_stdio_output@@@2@@__crt_stdio_output@@AEAA_NXZ 000000018007eb10 f i libucrtd:output.obj
 0001:0007db50       ?type_case_p@?$output_processor@_WV?$stream_output_adapter@_W@__crt_stdio_output@@V?$positional_parameter_base@_WV?$stream_output_adapter@_W@__crt_stdio_output@@@2@@__crt_stdio_output@@AEAA_NXZ 000000018007eb50 f i libucrtd:output.obj
 0001:0007db90       ?type_case_p@?$output_processor@_WV?$stream_output_adapter@_W@__crt_stdio_output@@V?$standard_base@_WV?$stream_output_adapter@_W@__crt_stdio_output@@@2@@__crt_stdio_output@@AEAA_NXZ 000000018007eb90 f i libucrtd:output.obj
 0001:0007dbd0       ?type_case_p@?$output_processor@_WV?$string_output_adapter@_W@__crt_stdio_output@@V?$format_validation_base@_WV?$string_output_adapter@_W@__crt_stdio_output@@@2@@__crt_stdio_output@@AEAA_NXZ 000000018007ebd0 f i libucrtd:output.obj
 0001:0007dc10       ?type_case_p@?$output_processor@_WV?$string_output_adapter@_W@__crt_stdio_output@@V?$positional_parameter_base@_WV?$string_output_adapter@_W@__crt_stdio_output@@@2@@__crt_stdio_output@@AEAA_NXZ 000000018007ec10 f i libucrtd:output.obj
 0001:0007dc50       ?type_case_p@?$output_processor@_WV?$string_output_adapter@_W@__crt_stdio_output@@V?$standard_base@_WV?$string_output_adapter@_W@__crt_stdio_output@@@2@@__crt_stdio_output@@AEAA_NXZ 000000018007ec50 f i libucrtd:output.obj
 0001:0007dc90       ?type_case_s@?$output_processor@DV?$stream_output_adapter@D@__crt_stdio_output@@V?$format_validation_base@DV?$stream_output_adapter@D@__crt_stdio_output@@@2@@__crt_stdio_output@@AEAA_NXZ 000000018007ec90 f i libucrtd:output.obj
 0001:0007ddb0       ?type_case_s@?$output_processor@DV?$stream_output_adapter@D@__crt_stdio_output@@V?$positional_parameter_base@DV?$stream_output_adapter@D@__crt_stdio_output@@@2@@__crt_stdio_output@@AEAA_NXZ 000000018007edb0 f i libucrtd:output.obj
 0001:0007ded0       ?type_case_s@?$output_processor@DV?$stream_output_adapter@D@__crt_stdio_output@@V?$standard_base@DV?$stream_output_adapter@D@__crt_stdio_output@@@2@@__crt_stdio_output@@AEAA_NXZ 000000018007eed0 f i libucrtd:output.obj
 0001:0007dff0       ?type_case_s@?$output_processor@DV?$string_output_adapter@D@__crt_stdio_output@@V?$format_validation_base@DV?$string_output_adapter@D@__crt_stdio_output@@@2@@__crt_stdio_output@@AEAA_NXZ 000000018007eff0 f i libucrtd:output.obj
 0001:0007e110       ?type_case_s@?$output_processor@DV?$string_output_adapter@D@__crt_stdio_output@@V?$positional_parameter_base@DV?$string_output_adapter@D@__crt_stdio_output@@@2@@__crt_stdio_output@@AEAA_NXZ 000000018007f110 f i libucrtd:output.obj
 0001:0007e230       ?type_case_s@?$output_processor@DV?$string_output_adapter@D@__crt_stdio_output@@V?$standard_base@DV?$string_output_adapter@D@__crt_stdio_output@@@2@@__crt_stdio_output@@AEAA_NXZ 000000018007f230 f i libucrtd:output.obj
 0001:0007e350       ?type_case_s@?$output_processor@_WV?$stream_output_adapter@_W@__crt_stdio_output@@V?$format_validation_base@_WV?$stream_output_adapter@_W@__crt_stdio_output@@@2@@__crt_stdio_output@@AEAA_NXZ 000000018007f350 f i libucrtd:output.obj
 0001:0007e470       ?type_case_s@?$output_processor@_WV?$stream_output_adapter@_W@__crt_stdio_output@@V?$positional_parameter_base@_WV?$stream_output_adapter@_W@__crt_stdio_output@@@2@@__crt_stdio_output@@AEAA_NXZ 000000018007f470 f i libucrtd:output.obj
 0001:0007e590       ?type_case_s@?$output_processor@_WV?$stream_output_adapter@_W@__crt_stdio_output@@V?$standard_base@_WV?$stream_output_adapter@_W@__crt_stdio_output@@@2@@__crt_stdio_output@@AEAA_NXZ 000000018007f590 f i libucrtd:output.obj
 0001:0007e6b0       ?type_case_s@?$output_processor@_WV?$string_output_adapter@_W@__crt_stdio_output@@V?$format_validation_base@_WV?$string_output_adapter@_W@__crt_stdio_output@@@2@@__crt_stdio_output@@AEAA_NXZ 000000018007f6b0 f i libucrtd:output.obj
 0001:0007e7d0       ?type_case_s@?$output_processor@_WV?$string_output_adapter@_W@__crt_stdio_output@@V?$positional_parameter_base@_WV?$string_output_adapter@_W@__crt_stdio_output@@@2@@__crt_stdio_output@@AEAA_NXZ 000000018007f7d0 f i libucrtd:output.obj
 0001:0007e8f0       ?type_case_s@?$output_processor@_WV?$string_output_adapter@_W@__crt_stdio_output@@V?$standard_base@_WV?$string_output_adapter@_W@__crt_stdio_output@@@2@@__crt_stdio_output@@AEAA_NXZ 000000018007f8f0 f i libucrtd:output.obj
 0001:0007ea10       ?type_case_s_compute_narrow_string_length@?$output_processor@DV?$stream_output_adapter@D@__crt_stdio_output@@V?$format_validation_base@DV?$stream_output_adapter@D@__crt_stdio_output@@@2@@__crt_stdio_output@@AEBAHHD@Z 000000018007fa10 f i libucrtd:output.obj
 0001:0007ea40       ?type_case_s_compute_narrow_string_length@?$output_processor@DV?$stream_output_adapter@D@__crt_stdio_output@@V?$positional_parameter_base@DV?$stream_output_adapter@D@__crt_stdio_output@@@2@@__crt_stdio_output@@AEBAHHD@Z 000000018007fa40 f i libucrtd:output.obj
 0001:0007ea70       ?type_case_s_compute_narrow_string_length@?$output_processor@DV?$stream_output_adapter@D@__crt_stdio_output@@V?$standard_base@DV?$stream_output_adapter@D@__crt_stdio_output@@@2@@__crt_stdio_output@@AEBAHHD@Z 000000018007fa70 f i libucrtd:output.obj
 0001:0007eaa0       ?type_case_s_compute_narrow_string_length@?$output_processor@DV?$string_output_adapter@D@__crt_stdio_output@@V?$format_validation_base@DV?$string_output_adapter@D@__crt_stdio_output@@@2@@__crt_stdio_output@@AEBAHHD@Z 000000018007faa0 f i libucrtd:output.obj
 0001:0007ead0       ?type_case_s_compute_narrow_string_length@?$output_processor@DV?$string_output_adapter@D@__crt_stdio_output@@V?$positional_parameter_base@DV?$string_output_adapter@D@__crt_stdio_output@@@2@@__crt_stdio_output@@AEBAHHD@Z 000000018007fad0 f i libucrtd:output.obj
 0001:0007eb00       ?type_case_s_compute_narrow_string_length@?$output_processor@DV?$string_output_adapter@D@__crt_stdio_output@@V?$standard_base@DV?$string_output_adapter@D@__crt_stdio_output@@@2@@__crt_stdio_output@@AEBAHHD@Z 000000018007fb00 f i libucrtd:output.obj
 0001:0007eb30       ?type_case_s_compute_narrow_string_length@?$output_processor@_WV?$stream_output_adapter@_W@__crt_stdio_output@@V?$format_validation_base@_WV?$stream_output_adapter@_W@__crt_stdio_output@@@2@@__crt_stdio_output@@AEBAHH_W@Z 000000018007fb30 f i libucrtd:output.obj
 0001:0007ebc0       ?type_case_s_compute_narrow_string_length@?$output_processor@_WV?$stream_output_adapter@_W@__crt_stdio_output@@V?$positional_parameter_base@_WV?$stream_output_adapter@_W@__crt_stdio_output@@@2@@__crt_stdio_output@@AEBAHH_W@Z 000000018007fbc0 f i libucrtd:output.obj
 0001:0007ec50       ?type_case_s_compute_narrow_string_length@?$output_processor@_WV?$stream_output_adapter@_W@__crt_stdio_output@@V?$standard_base@_WV?$stream_output_adapter@_W@__crt_stdio_output@@@2@@__crt_stdio_output@@AEBAHH_W@Z 000000018007fc50 f i libucrtd:output.obj
 0001:0007ece0       ?type_case_s_compute_narrow_string_length@?$output_processor@_WV?$string_output_adapter@_W@__crt_stdio_output@@V?$format_validation_base@_WV?$string_output_adapter@_W@__crt_stdio_output@@@2@@__crt_stdio_output@@AEBAHH_W@Z 000000018007fce0 f i libucrtd:output.obj
 0001:0007ed70       ?type_case_s_compute_narrow_string_length@?$output_processor@_WV?$string_output_adapter@_W@__crt_stdio_output@@V?$positional_parameter_base@_WV?$string_output_adapter@_W@__crt_stdio_output@@@2@@__crt_stdio_output@@AEBAHH_W@Z 000000018007fd70 f i libucrtd:output.obj
 0001:0007ee00       ?type_case_s_compute_narrow_string_length@?$output_processor@_WV?$string_output_adapter@_W@__crt_stdio_output@@V?$standard_base@_WV?$string_output_adapter@_W@__crt_stdio_output@@@2@@__crt_stdio_output@@AEBAHH_W@Z 000000018007fe00 f i libucrtd:output.obj
 0001:0007ee90       ?type_case_u@?$output_processor@DV?$stream_output_adapter@D@__crt_stdio_output@@V?$format_validation_base@DV?$stream_output_adapter@D@__crt_stdio_output@@@2@@__crt_stdio_output@@AEAA_NXZ 000000018007fe90 f i libucrtd:output.obj
 0001:0007eeb0       ?type_case_u@?$output_processor@DV?$stream_output_adapter@D@__crt_stdio_output@@V?$positional_parameter_base@DV?$stream_output_adapter@D@__crt_stdio_output@@@2@@__crt_stdio_output@@AEAA_NXZ 000000018007feb0 f i libucrtd:output.obj
 0001:0007eed0       ?type_case_u@?$output_processor@DV?$stream_output_adapter@D@__crt_stdio_output@@V?$standard_base@DV?$stream_output_adapter@D@__crt_stdio_output@@@2@@__crt_stdio_output@@AEAA_NXZ 000000018007fed0 f i libucrtd:output.obj
 0001:0007eef0       ?type_case_u@?$output_processor@DV?$string_output_adapter@D@__crt_stdio_output@@V?$format_validation_base@DV?$string_output_adapter@D@__crt_stdio_output@@@2@@__crt_stdio_output@@AEAA_NXZ 000000018007fef0 f i libucrtd:output.obj
 0001:0007ef10       ?type_case_u@?$output_processor@DV?$string_output_adapter@D@__crt_stdio_output@@V?$positional_parameter_base@DV?$string_output_adapter@D@__crt_stdio_output@@@2@@__crt_stdio_output@@AEAA_NXZ 000000018007ff10 f i libucrtd:output.obj
 0001:0007ef30       ?type_case_u@?$output_processor@DV?$string_output_adapter@D@__crt_stdio_output@@V?$standard_base@DV?$string_output_adapter@D@__crt_stdio_output@@@2@@__crt_stdio_output@@AEAA_NXZ 000000018007ff30 f i libucrtd:output.obj
 0001:0007ef50       ?type_case_u@?$output_processor@_WV?$stream_output_adapter@_W@__crt_stdio_output@@V?$format_validation_base@_WV?$stream_output_adapter@_W@__crt_stdio_output@@@2@@__crt_stdio_output@@AEAA_NXZ 000000018007ff50 f i libucrtd:output.obj
 0001:0007ef70       ?type_case_u@?$output_processor@_WV?$stream_output_adapter@_W@__crt_stdio_output@@V?$positional_parameter_base@_WV?$stream_output_adapter@_W@__crt_stdio_output@@@2@@__crt_stdio_output@@AEAA_NXZ 000000018007ff70 f i libucrtd:output.obj
 0001:0007ef90       ?type_case_u@?$output_processor@_WV?$stream_output_adapter@_W@__crt_stdio_output@@V?$standard_base@_WV?$stream_output_adapter@_W@__crt_stdio_output@@@2@@__crt_stdio_output@@AEAA_NXZ 000000018007ff90 f i libucrtd:output.obj
 0001:0007efb0       ?type_case_u@?$output_processor@_WV?$string_output_adapter@_W@__crt_stdio_output@@V?$format_validation_base@_WV?$string_output_adapter@_W@__crt_stdio_output@@@2@@__crt_stdio_output@@AEAA_NXZ 000000018007ffb0 f i libucrtd:output.obj
 0001:0007efd0       ?type_case_u@?$output_processor@_WV?$string_output_adapter@_W@__crt_stdio_output@@V?$positional_parameter_base@_WV?$string_output_adapter@_W@__crt_stdio_output@@@2@@__crt_stdio_output@@AEAA_NXZ 000000018007ffd0 f i libucrtd:output.obj
 0001:0007eff0       ?type_case_u@?$output_processor@_WV?$string_output_adapter@_W@__crt_stdio_output@@V?$standard_base@_WV?$string_output_adapter@_W@__crt_stdio_output@@@2@@__crt_stdio_output@@AEAA_NXZ 000000018007fff0 f i libucrtd:output.obj
 0001:0007f010       ?type_case_x@?$output_processor@DV?$stream_output_adapter@D@__crt_stdio_output@@V?$format_validation_base@DV?$stream_output_adapter@D@__crt_stdio_output@@@2@@__crt_stdio_output@@AEAA_NXZ 0000000180080010 f i libucrtd:output.obj
 0001:0007f030       ?type_case_x@?$output_processor@DV?$stream_output_adapter@D@__crt_stdio_output@@V?$positional_parameter_base@DV?$stream_output_adapter@D@__crt_stdio_output@@@2@@__crt_stdio_output@@AEAA_NXZ 0000000180080030 f i libucrtd:output.obj
 0001:0007f050       ?type_case_x@?$output_processor@DV?$stream_output_adapter@D@__crt_stdio_output@@V?$standard_base@DV?$stream_output_adapter@D@__crt_stdio_output@@@2@@__crt_stdio_output@@AEAA_NXZ 0000000180080050 f i libucrtd:output.obj
 0001:0007f070       ?type_case_x@?$output_processor@DV?$string_output_adapter@D@__crt_stdio_output@@V?$format_validation_base@DV?$string_output_adapter@D@__crt_stdio_output@@@2@@__crt_stdio_output@@AEAA_NXZ 0000000180080070 f i libucrtd:output.obj
 0001:0007f090       ?type_case_x@?$output_processor@DV?$string_output_adapter@D@__crt_stdio_output@@V?$positional_parameter_base@DV?$string_output_adapter@D@__crt_stdio_output@@@2@@__crt_stdio_output@@AEAA_NXZ 0000000180080090 f i libucrtd:output.obj
 0001:0007f0b0       ?type_case_x@?$output_processor@DV?$string_output_adapter@D@__crt_stdio_output@@V?$standard_base@DV?$string_output_adapter@D@__crt_stdio_output@@@2@@__crt_stdio_output@@AEAA_NXZ 00000001800800b0 f i libucrtd:output.obj
 0001:0007f0d0       ?type_case_x@?$output_processor@_WV?$stream_output_adapter@_W@__crt_stdio_output@@V?$format_validation_base@_WV?$stream_output_adapter@_W@__crt_stdio_output@@@2@@__crt_stdio_output@@AEAA_NXZ 00000001800800d0 f i libucrtd:output.obj
 0001:0007f0f0       ?type_case_x@?$output_processor@_WV?$stream_output_adapter@_W@__crt_stdio_output@@V?$positional_parameter_base@_WV?$stream_output_adapter@_W@__crt_stdio_output@@@2@@__crt_stdio_output@@AEAA_NXZ 00000001800800f0 f i libucrtd:output.obj
 0001:0007f110       ?type_case_x@?$output_processor@_WV?$stream_output_adapter@_W@__crt_stdio_output@@V?$standard_base@_WV?$stream_output_adapter@_W@__crt_stdio_output@@@2@@__crt_stdio_output@@AEAA_NXZ 0000000180080110 f i libucrtd:output.obj
 0001:0007f130       ?type_case_x@?$output_processor@_WV?$string_output_adapter@_W@__crt_stdio_output@@V?$format_validation_base@_WV?$string_output_adapter@_W@__crt_stdio_output@@@2@@__crt_stdio_output@@AEAA_NXZ 0000000180080130 f i libucrtd:output.obj
 0001:0007f150       ?type_case_x@?$output_processor@_WV?$string_output_adapter@_W@__crt_stdio_output@@V?$positional_parameter_base@_WV?$string_output_adapter@_W@__crt_stdio_output@@@2@@__crt_stdio_output@@AEAA_NXZ 0000000180080150 f i libucrtd:output.obj
 0001:0007f170       ?type_case_x@?$output_processor@_WV?$string_output_adapter@_W@__crt_stdio_output@@V?$standard_base@_WV?$string_output_adapter@_W@__crt_stdio_output@@@2@@__crt_stdio_output@@AEAA_NXZ 0000000180080170 f i libucrtd:output.obj
 0001:0007f190       ?unset_flag@?$output_processor@DV?$stream_output_adapter@D@__crt_stdio_output@@V?$format_validation_base@DV?$stream_output_adapter@D@__crt_stdio_output@@@2@@__crt_stdio_output@@AEAAXI@Z 0000000180080190 f i libucrtd:output.obj
 0001:0007f1c0       ?unset_flag@?$output_processor@DV?$stream_output_adapter@D@__crt_stdio_output@@V?$positional_parameter_base@DV?$stream_output_adapter@D@__crt_stdio_output@@@2@@__crt_stdio_output@@AEAAXI@Z 00000001800801c0 f i libucrtd:output.obj
 0001:0007f1f0       ?unset_flag@?$output_processor@DV?$stream_output_adapter@D@__crt_stdio_output@@V?$standard_base@DV?$stream_output_adapter@D@__crt_stdio_output@@@2@@__crt_stdio_output@@AEAAXI@Z 00000001800801f0 f i libucrtd:output.obj
 0001:0007f220       ?unset_flag@?$output_processor@DV?$string_output_adapter@D@__crt_stdio_output@@V?$format_validation_base@DV?$string_output_adapter@D@__crt_stdio_output@@@2@@__crt_stdio_output@@AEAAXI@Z 0000000180080220 f i libucrtd:output.obj
 0001:0007f250       ?unset_flag@?$output_processor@DV?$string_output_adapter@D@__crt_stdio_output@@V?$positional_parameter_base@DV?$string_output_adapter@D@__crt_stdio_output@@@2@@__crt_stdio_output@@AEAAXI@Z 0000000180080250 f i libucrtd:output.obj
 0001:0007f280       ?unset_flag@?$output_processor@DV?$string_output_adapter@D@__crt_stdio_output@@V?$standard_base@DV?$string_output_adapter@D@__crt_stdio_output@@@2@@__crt_stdio_output@@AEAAXI@Z 0000000180080280 f i libucrtd:output.obj
 0001:0007f2b0       ?unset_flag@?$output_processor@_WV?$stream_output_adapter@_W@__crt_stdio_output@@V?$format_validation_base@_WV?$stream_output_adapter@_W@__crt_stdio_output@@@2@@__crt_stdio_output@@AEAAXI@Z 00000001800802b0 f i libucrtd:output.obj
 0001:0007f2e0       ?unset_flag@?$output_processor@_WV?$stream_output_adapter@_W@__crt_stdio_output@@V?$positional_parameter_base@_WV?$stream_output_adapter@_W@__crt_stdio_output@@@2@@__crt_stdio_output@@AEAAXI@Z 00000001800802e0 f i libucrtd:output.obj
 0001:0007f310       ?unset_flag@?$output_processor@_WV?$stream_output_adapter@_W@__crt_stdio_output@@V?$standard_base@_WV?$stream_output_adapter@_W@__crt_stdio_output@@@2@@__crt_stdio_output@@AEAAXI@Z 0000000180080310 f i libucrtd:output.obj
 0001:0007f340       ?unset_flag@?$output_processor@_WV?$string_output_adapter@_W@__crt_stdio_output@@V?$format_validation_base@_WV?$string_output_adapter@_W@__crt_stdio_output@@@2@@__crt_stdio_output@@AEAAXI@Z 0000000180080340 f i libucrtd:output.obj
 0001:0007f370       ?unset_flag@?$output_processor@_WV?$string_output_adapter@_W@__crt_stdio_output@@V?$positional_parameter_base@_WV?$string_output_adapter@_W@__crt_stdio_output@@@2@@__crt_stdio_output@@AEAAXI@Z 0000000180080370 f i libucrtd:output.obj
 0001:0007f3a0       ?unset_flag@?$output_processor@_WV?$string_output_adapter@_W@__crt_stdio_output@@V?$standard_base@_WV?$string_output_adapter@_W@__crt_stdio_output@@@2@@__crt_stdio_output@@AEAAXI@Z 00000001800803a0 f i libucrtd:output.obj
 0001:0007f3d0       ?update_field_width@?$positional_parameter_base@DV?$stream_output_adapter@D@__crt_stdio_output@@@__crt_stdio_output@@IEAA_NXZ 00000001800803d0 f i libucrtd:output.obj
 0001:0007f5c0       ?update_field_width@?$positional_parameter_base@DV?$string_output_adapter@D@__crt_stdio_output@@@__crt_stdio_output@@IEAA_NXZ 00000001800805c0 f i libucrtd:output.obj
 0001:0007f7b0       ?update_field_width@?$positional_parameter_base@_WV?$stream_output_adapter@_W@__crt_stdio_output@@@__crt_stdio_output@@IEAA_NXZ 00000001800807b0 f i libucrtd:output.obj
 0001:0007f9a0       ?update_field_width@?$positional_parameter_base@_WV?$string_output_adapter@_W@__crt_stdio_output@@@__crt_stdio_output@@IEAA_NXZ 00000001800809a0 f i libucrtd:output.obj
 0001:0007fb90       ?update_field_width@?$standard_base@DV?$stream_output_adapter@D@__crt_stdio_output@@@__crt_stdio_output@@IEAA_NXZ 0000000180080b90 f i libucrtd:output.obj
 0001:0007fbc0       ?update_field_width@?$standard_base@DV?$string_output_adapter@D@__crt_stdio_output@@@__crt_stdio_output@@IEAA_NXZ 0000000180080bc0 f i libucrtd:output.obj
 0001:0007fbf0       ?update_field_width@?$standard_base@_WV?$stream_output_adapter@_W@__crt_stdio_output@@@__crt_stdio_output@@IEAA_NXZ 0000000180080bf0 f i libucrtd:output.obj
 0001:0007fc20       ?update_field_width@?$standard_base@_WV?$string_output_adapter@_W@__crt_stdio_output@@@__crt_stdio_output@@IEAA_NXZ 0000000180080c20 f i libucrtd:output.obj
 0001:0007fc50       ?update_precision@?$positional_parameter_base@DV?$stream_output_adapter@D@__crt_stdio_output@@@__crt_stdio_output@@IEAA_NXZ 0000000180080c50 f i libucrtd:output.obj
 0001:0007fe40       ?update_precision@?$positional_parameter_base@DV?$string_output_adapter@D@__crt_stdio_output@@@__crt_stdio_output@@IEAA_NXZ 0000000180080e40 f i libucrtd:output.obj
 0001:00080030       ?update_precision@?$positional_parameter_base@_WV?$stream_output_adapter@_W@__crt_stdio_output@@@__crt_stdio_output@@IEAA_NXZ 0000000180081030 f i libucrtd:output.obj
 0001:00080220       ?update_precision@?$positional_parameter_base@_WV?$string_output_adapter@_W@__crt_stdio_output@@@__crt_stdio_output@@IEAA_NXZ 0000000180081220 f i libucrtd:output.obj
 0001:00080410       ?update_precision@?$standard_base@DV?$stream_output_adapter@D@__crt_stdio_output@@@__crt_stdio_output@@IEAA_NXZ 0000000180081410 f i libucrtd:output.obj
 0001:00080440       ?update_precision@?$standard_base@DV?$string_output_adapter@D@__crt_stdio_output@@@__crt_stdio_output@@IEAA_NXZ 0000000180081440 f i libucrtd:output.obj
 0001:00080470       ?update_precision@?$standard_base@_WV?$stream_output_adapter@_W@__crt_stdio_output@@@__crt_stdio_output@@IEAA_NXZ 0000000180081470 f i libucrtd:output.obj
 0001:000804a0       ?update_precision@?$standard_base@_WV?$string_output_adapter@_W@__crt_stdio_output@@@__crt_stdio_output@@IEAA_NXZ 00000001800814a0 f i libucrtd:output.obj
 0001:000804d0       ?valid@__crt_stdio_stream@@QEBA_NXZ 00000001800814d0 f i libucrtd:output.obj
 0001:00080500       ?validate@?$stream_output_adapter@D@__crt_stdio_output@@QEBA_NXZ 0000000180081500 f i libucrtd:output.obj
 0001:000805e0       ?validate@?$stream_output_adapter@_W@__crt_stdio_output@@QEBA_NXZ 00000001800815e0 f i libucrtd:output.obj
 0001:000806c0       ?validate@?$string_output_adapter@D@__crt_stdio_output@@QEBA_NXZ 00000001800816c0 f i libucrtd:output.obj
 0001:00080780       ?validate@?$string_output_adapter@_W@__crt_stdio_output@@QEBA_NXZ 0000000180081780 f i libucrtd:output.obj
 0001:00080840       ?validate_and_store_parameter_data@?$positional_parameter_base@DV?$stream_output_adapter@D@__crt_stdio_output@@@__crt_stdio_output@@AEAA_NAEAUparameter_data@12@W4parameter_type@12@DW4length_modifier@2@@Z 0000000180081840 f i libucrtd:output.obj
 0001:00080960       ?validate_and_store_parameter_data@?$positional_parameter_base@DV?$string_output_adapter@D@__crt_stdio_output@@@__crt_stdio_output@@AEAA_NAEAUparameter_data@12@W4parameter_type@12@DW4length_modifier@2@@Z 0000000180081960 f i libucrtd:output.obj
 0001:00080a80       ?validate_and_store_parameter_data@?$positional_parameter_base@_WV?$stream_output_adapter@_W@__crt_stdio_output@@@__crt_stdio_output@@AEAA_NAEAUparameter_data@12@W4parameter_type@12@_WW4length_modifier@2@@Z 0000000180081a80 f i libucrtd:output.obj
 0001:00080ba0       ?validate_and_store_parameter_data@?$positional_parameter_base@_WV?$string_output_adapter@_W@__crt_stdio_output@@@__crt_stdio_output@@AEAA_NAEAUparameter_data@12@W4parameter_type@12@_WW4length_modifier@2@@Z 0000000180081ba0 f i libucrtd:output.obj
 0001:00080cc0       ?validate_and_update_state_at_beginning_of_format_character@?$positional_parameter_base@DV?$stream_output_adapter@D@__crt_stdio_output@@@__crt_stdio_output@@IEAA_NXZ 0000000180081cc0 f i libucrtd:output.obj
 0001:00080fa0       ?validate_and_update_state_at_beginning_of_format_character@?$positional_parameter_base@DV?$string_output_adapter@D@__crt_stdio_output@@@__crt_stdio_output@@IEAA_NXZ 0000000180081fa0 f i libucrtd:output.obj
 0001:00081280       ?validate_and_update_state_at_beginning_of_format_character@?$positional_parameter_base@_WV?$stream_output_adapter@_W@__crt_stdio_output@@@__crt_stdio_output@@IEAA_NXZ 0000000180082280 f i libucrtd:output.obj
 0001:00081560       ?validate_and_update_state_at_beginning_of_format_character@?$positional_parameter_base@_WV?$string_output_adapter@_W@__crt_stdio_output@@@__crt_stdio_output@@IEAA_NXZ 0000000180082560 f i libucrtd:output.obj
 0001:00081840       ?validate_and_update_state_at_beginning_of_format_character@?$standard_base@DV?$stream_output_adapter@D@__crt_stdio_output@@@__crt_stdio_output@@IEAA_NXZ 0000000180082840 f i libucrtd:output.obj
 0001:00081850       ?validate_and_update_state_at_beginning_of_format_character@?$standard_base@DV?$string_output_adapter@D@__crt_stdio_output@@@__crt_stdio_output@@IEAA_NXZ 0000000180082850 f i libucrtd:output.obj
 0001:00081860       ?validate_and_update_state_at_beginning_of_format_character@?$standard_base@_WV?$stream_output_adapter@_W@__crt_stdio_output@@@__crt_stdio_output@@IEAA_NXZ 0000000180082860 f i libucrtd:output.obj
 0001:00081870       ?validate_and_update_state_at_beginning_of_format_character@?$standard_base@_WV?$string_output_adapter@_W@__crt_stdio_output@@@__crt_stdio_output@@IEAA_NXZ 0000000180082870 f i libucrtd:output.obj
 0001:00081880       ?validate_and_update_state_at_end_of_format_string@?$format_validation_base@DV?$stream_output_adapter@D@__crt_stdio_output@@@__crt_stdio_output@@IEBA_NXZ 0000000180082880 f i libucrtd:output.obj
 0001:00081940       ?validate_and_update_state_at_end_of_format_string@?$format_validation_base@DV?$string_output_adapter@D@__crt_stdio_output@@@__crt_stdio_output@@IEBA_NXZ 0000000180082940 f i libucrtd:output.obj
 0001:00081a00       ?validate_and_update_state_at_end_of_format_string@?$format_validation_base@_WV?$stream_output_adapter@_W@__crt_stdio_output@@@__crt_stdio_output@@IEBA_NXZ 0000000180082a00 f i libucrtd:output.obj
 0001:00081ac0       ?validate_and_update_state_at_end_of_format_string@?$format_validation_base@_WV?$string_output_adapter@_W@__crt_stdio_output@@@__crt_stdio_output@@IEBA_NXZ 0000000180082ac0 f i libucrtd:output.obj
 0001:00081b80       ?validate_and_update_state_at_end_of_format_string@?$positional_parameter_base@DV?$stream_output_adapter@D@__crt_stdio_output@@@__crt_stdio_output@@IEAA_NXZ 0000000180082b80 f i libucrtd:output.obj
 0001:00081d70       ?validate_and_update_state_at_end_of_format_string@?$positional_parameter_base@DV?$string_output_adapter@D@__crt_stdio_output@@@__crt_stdio_output@@IEAA_NXZ 0000000180082d70 f i libucrtd:output.obj
 0001:00081f60       ?validate_and_update_state_at_end_of_format_string@?$positional_parameter_base@_WV?$stream_output_adapter@_W@__crt_stdio_output@@@__crt_stdio_output@@IEAA_NXZ 0000000180082f60 f i libucrtd:output.obj
 0001:00082150       ?validate_and_update_state_at_end_of_format_string@?$positional_parameter_base@_WV?$string_output_adapter@_W@__crt_stdio_output@@@__crt_stdio_output@@IEAA_NXZ 0000000180083150 f i libucrtd:output.obj
 0001:00082340       ?validate_and_update_state_at_end_of_format_string@?$standard_base@DV?$stream_output_adapter@D@__crt_stdio_output@@@__crt_stdio_output@@IEBA_NXZ 0000000180083340 f i libucrtd:output.obj
 0001:00082350       ?validate_and_update_state_at_end_of_format_string@?$standard_base@DV?$string_output_adapter@D@__crt_stdio_output@@@__crt_stdio_output@@IEBA_NXZ 0000000180083350 f i libucrtd:output.obj
 0001:00082360       ?validate_and_update_state_at_end_of_format_string@?$standard_base@_WV?$stream_output_adapter@_W@__crt_stdio_output@@@__crt_stdio_output@@IEBA_NXZ 0000000180083360 f i libucrtd:output.obj
 0001:00082370       ?validate_and_update_state_at_end_of_format_string@?$standard_base@_WV?$string_output_adapter@_W@__crt_stdio_output@@@__crt_stdio_output@@IEBA_NXZ 0000000180083370 f i libucrtd:output.obj
 0001:00082380       ?validate_state_for_type_case_a@?$positional_parameter_base@DV?$stream_output_adapter@D@__crt_stdio_output@@@__crt_stdio_output@@IEAA_NXZ 0000000180083380 f i libucrtd:output.obj
 0001:000824c0       ?validate_state_for_type_case_a@?$positional_parameter_base@DV?$string_output_adapter@D@__crt_stdio_output@@@__crt_stdio_output@@IEAA_NXZ 00000001800834c0 f i libucrtd:output.obj
 0001:00082600       ?validate_state_for_type_case_a@?$positional_parameter_base@_WV?$stream_output_adapter@_W@__crt_stdio_output@@@__crt_stdio_output@@IEAA_NXZ 0000000180083600 f i libucrtd:output.obj
 0001:00082740       ?validate_state_for_type_case_a@?$positional_parameter_base@_WV?$string_output_adapter@_W@__crt_stdio_output@@@__crt_stdio_output@@IEAA_NXZ 0000000180083740 f i libucrtd:output.obj
 0001:00082880       ?validate_state_for_type_case_a@?$standard_base@DV?$stream_output_adapter@D@__crt_stdio_output@@@__crt_stdio_output@@IEBA_NXZ 0000000180083880 f i libucrtd:output.obj
 0001:00082890       ?validate_state_for_type_case_a@?$standard_base@DV?$string_output_adapter@D@__crt_stdio_output@@@__crt_stdio_output@@IEBA_NXZ 0000000180083890 f i libucrtd:output.obj
 0001:000828a0       ?validate_state_for_type_case_a@?$standard_base@_WV?$stream_output_adapter@_W@__crt_stdio_output@@@__crt_stdio_output@@IEBA_NXZ 00000001800838a0 f i libucrtd:output.obj
 0001:000828b0       ?validate_state_for_type_case_a@?$standard_base@_WV?$string_output_adapter@_W@__crt_stdio_output@@@__crt_stdio_output@@IEBA_NXZ 00000001800838b0 f i libucrtd:output.obj
 0001:000828c0       ?validate_stream_is_ansi_if_required@?$__acrt_stdio_char_traits@D@@SA_NQEAU_iobuf@@@Z 00000001800838c0 f i libucrtd:output.obj
 0001:00082a50       ?validate_stream_is_ansi_if_required@?$__acrt_stdio_char_traits@_W@@SA_NQEAU_iobuf@@@Z 0000000180083a50 f i libucrtd:output.obj
 0001:00082a60       ?wide_null_string@?$output_processor@DV?$stream_output_adapter@D@__crt_stdio_output@@V?$format_validation_base@DV?$stream_output_adapter@D@__crt_stdio_output@@@2@@__crt_stdio_output@@CAPEA_WXZ 0000000180083a60 f i libucrtd:output.obj
 0001:00082a70       ?wide_null_string@?$output_processor@DV?$stream_output_adapter@D@__crt_stdio_output@@V?$positional_parameter_base@DV?$stream_output_adapter@D@__crt_stdio_output@@@2@@__crt_stdio_output@@CAPEA_WXZ 0000000180083a70 f i libucrtd:output.obj
 0001:00082a80       ?wide_null_string@?$output_processor@DV?$stream_output_adapter@D@__crt_stdio_output@@V?$standard_base@DV?$stream_output_adapter@D@__crt_stdio_output@@@2@@__crt_stdio_output@@CAPEA_WXZ 0000000180083a80 f i libucrtd:output.obj
 0001:00082a90       ?wide_null_string@?$output_processor@DV?$string_output_adapter@D@__crt_stdio_output@@V?$format_validation_base@DV?$string_output_adapter@D@__crt_stdio_output@@@2@@__crt_stdio_output@@CAPEA_WXZ 0000000180083a90 f i libucrtd:output.obj
 0001:00082aa0       ?wide_null_string@?$output_processor@DV?$string_output_adapter@D@__crt_stdio_output@@V?$positional_parameter_base@DV?$string_output_adapter@D@__crt_stdio_output@@@2@@__crt_stdio_output@@CAPEA_WXZ 0000000180083aa0 f i libucrtd:output.obj
 0001:00082ab0       ?wide_null_string@?$output_processor@DV?$string_output_adapter@D@__crt_stdio_output@@V?$standard_base@DV?$string_output_adapter@D@__crt_stdio_output@@@2@@__crt_stdio_output@@CAPEA_WXZ 0000000180083ab0 f i libucrtd:output.obj
 0001:00082ac0       ?wide_null_string@?$output_processor@_WV?$stream_output_adapter@_W@__crt_stdio_output@@V?$format_validation_base@_WV?$stream_output_adapter@_W@__crt_stdio_output@@@2@@__crt_stdio_output@@CAPEA_WXZ 0000000180083ac0 f i libucrtd:output.obj
 0001:00082ad0       ?wide_null_string@?$output_processor@_WV?$stream_output_adapter@_W@__crt_stdio_output@@V?$positional_parameter_base@_WV?$stream_output_adapter@_W@__crt_stdio_output@@@2@@__crt_stdio_output@@CAPEA_WXZ 0000000180083ad0 f i libucrtd:output.obj
 0001:00082ae0       ?wide_null_string@?$output_processor@_WV?$stream_output_adapter@_W@__crt_stdio_output@@V?$standard_base@_WV?$stream_output_adapter@_W@__crt_stdio_output@@@2@@__crt_stdio_output@@CAPEA_WXZ 0000000180083ae0 f i libucrtd:output.obj
 0001:00082af0       ?wide_null_string@?$output_processor@_WV?$string_output_adapter@_W@__crt_stdio_output@@V?$format_validation_base@_WV?$string_output_adapter@_W@__crt_stdio_output@@@2@@__crt_stdio_output@@CAPEA_WXZ 0000000180083af0 f i libucrtd:output.obj
 0001:00082b00       ?wide_null_string@?$output_processor@_WV?$string_output_adapter@_W@__crt_stdio_output@@V?$positional_parameter_base@_WV?$string_output_adapter@_W@__crt_stdio_output@@@2@@__crt_stdio_output@@CAPEA_WXZ 0000000180083b00 f i libucrtd:output.obj
 0001:00082b10       ?wide_null_string@?$output_processor@_WV?$string_output_adapter@_W@__crt_stdio_output@@V?$standard_base@_WV?$string_output_adapter@_W@__crt_stdio_output@@@2@@__crt_stdio_output@@CAPEA_WXZ 0000000180083b10 f i libucrtd:output.obj
 0001:00082b20       ?write_character@?$output_adapter_common@DV?$stream_output_adapter@D@__crt_stdio_output@@@__crt_stdio_output@@QEBAXDQEAH@Z 0000000180083b20 f i libucrtd:output.obj
 0001:00082b70       ?write_character@?$output_adapter_common@_WV?$stream_output_adapter@_W@__crt_stdio_output@@@__crt_stdio_output@@QEBAX_WQEAH@Z 0000000180083b70 f i libucrtd:output.obj
 0001:00082bc0       ?write_character@?$string_output_adapter@D@__crt_stdio_output@@QEBA_NDQEAH@Z 0000000180083bc0 f i libucrtd:output.obj
 0001:00082c80       ?write_character@?$string_output_adapter@_W@__crt_stdio_output@@QEBA_N_WQEAH@Z 0000000180083c80 f i libucrtd:output.obj
 0001:00082d40       ?write_character_without_count_update@?$stream_output_adapter@D@__crt_stdio_output@@QEBA_ND@Z 0000000180083d40 f i libucrtd:output.obj
 0001:00082dc0       ?write_character_without_count_update@?$stream_output_adapter@_W@__crt_stdio_output@@QEBA_N_W@Z 0000000180083dc0 f i libucrtd:output.obj
 0001:00082e50       ?write_stored_string_tchar@?$output_processor@DV?$stream_output_adapter@D@__crt_stdio_output@@V?$format_validation_base@DV?$stream_output_adapter@D@__crt_stdio_output@@@2@@__crt_stdio_output@@AEAA_ND@Z 0000000180083e50 f i libucrtd:output.obj
 0001:00083000       ?write_stored_string_tchar@?$output_processor@DV?$stream_output_adapter@D@__crt_stdio_output@@V?$positional_parameter_base@DV?$stream_output_adapter@D@__crt_stdio_output@@@2@@__crt_stdio_output@@AEAA_ND@Z 0000000180084000 f i libucrtd:output.obj
 0001:000831b0       ?write_stored_string_tchar@?$output_processor@DV?$stream_output_adapter@D@__crt_stdio_output@@V?$standard_base@DV?$stream_output_adapter@D@__crt_stdio_output@@@2@@__crt_stdio_output@@AEAA_ND@Z 00000001800841b0 f i libucrtd:output.obj
 0001:00083360       ?write_stored_string_tchar@?$output_processor@DV?$string_output_adapter@D@__crt_stdio_output@@V?$format_validation_base@DV?$string_output_adapter@D@__crt_stdio_output@@@2@@__crt_stdio_output@@AEAA_ND@Z 0000000180084360 f i libucrtd:output.obj
 0001:00083510       ?write_stored_string_tchar@?$output_processor@DV?$string_output_adapter@D@__crt_stdio_output@@V?$positional_parameter_base@DV?$string_output_adapter@D@__crt_stdio_output@@@2@@__crt_stdio_output@@AEAA_ND@Z 0000000180084510 f i libucrtd:output.obj
 0001:000836c0       ?write_stored_string_tchar@?$output_processor@DV?$string_output_adapter@D@__crt_stdio_output@@V?$standard_base@DV?$string_output_adapter@D@__crt_stdio_output@@@2@@__crt_stdio_output@@AEAA_ND@Z 00000001800846c0 f i libucrtd:output.obj
 0001:00083870       ?write_stored_string_tchar@?$output_processor@_WV?$stream_output_adapter@_W@__crt_stdio_output@@V?$format_validation_base@_WV?$stream_output_adapter@_W@__crt_stdio_output@@@2@@__crt_stdio_output@@AEAA_N_W@Z 0000000180084870 f i libucrtd:output.obj
 0001:000839c0       ?write_stored_string_tchar@?$output_processor@_WV?$stream_output_adapter@_W@__crt_stdio_output@@V?$positional_parameter_base@_WV?$stream_output_adapter@_W@__crt_stdio_output@@@2@@__crt_stdio_output@@AEAA_N_W@Z 00000001800849c0 f i libucrtd:output.obj
 0001:00083b10       ?write_stored_string_tchar@?$output_processor@_WV?$stream_output_adapter@_W@__crt_stdio_output@@V?$standard_base@_WV?$stream_output_adapter@_W@__crt_stdio_output@@@2@@__crt_stdio_output@@AEAA_N_W@Z 0000000180084b10 f i libucrtd:output.obj
 0001:00083c60       ?write_stored_string_tchar@?$output_processor@_WV?$string_output_adapter@_W@__crt_stdio_output@@V?$format_validation_base@_WV?$string_output_adapter@_W@__crt_stdio_output@@@2@@__crt_stdio_output@@AEAA_N_W@Z 0000000180084c60 f i libucrtd:output.obj
 0001:00083db0       ?write_stored_string_tchar@?$output_processor@_WV?$string_output_adapter@_W@__crt_stdio_output@@V?$positional_parameter_base@_WV?$string_output_adapter@_W@__crt_stdio_output@@@2@@__crt_stdio_output@@AEAA_N_W@Z 0000000180084db0 f i libucrtd:output.obj
 0001:00083f00       ?write_stored_string_tchar@?$output_processor@_WV?$string_output_adapter@_W@__crt_stdio_output@@V?$standard_base@_WV?$string_output_adapter@_W@__crt_stdio_output@@@2@@__crt_stdio_output@@AEAA_N_W@Z 0000000180084f00 f i libucrtd:output.obj
 0001:00084050       ?write_string@?$stream_output_adapter@D@__crt_stdio_output@@QEBAXQEBDHQEAHAEAV__crt_deferred_errno_cache@@@Z 0000000180085050 f i libucrtd:output.obj
 0001:000840d0       ?write_string@?$stream_output_adapter@_W@__crt_stdio_output@@QEBAXQEB_WHQEAHAEAV__crt_deferred_errno_cache@@@Z 00000001800850d0 f i libucrtd:output.obj
 0001:00084150       ?write_string@?$string_output_adapter@D@__crt_stdio_output@@QEBAXQEBDHQEAHAEAV__crt_deferred_errno_cache@@@Z 0000000180085150 f i libucrtd:output.obj
 0001:000842c0       ?write_string@?$string_output_adapter@_W@__crt_stdio_output@@QEBAXQEB_WHQEAHAEAV__crt_deferred_errno_cache@@@Z 00000001800852c0 f i libucrtd:output.obj
 0001:00084430       ?write_string_impl@?$output_adapter_common@DV?$stream_output_adapter@D@__crt_stdio_output@@@__crt_stdio_output@@IEBAXQEBDHQEAHAEAV__crt_deferred_errno_cache@@@Z 0000000180085430 f i libucrtd:output.obj
 0001:00084510       ?write_string_impl@?$output_adapter_common@_WV?$stream_output_adapter@_W@__crt_stdio_output@@@__crt_stdio_output@@IEBAXQEB_WHQEAHAEAV__crt_deferred_errno_cache@@@Z 0000000180085510 f i libucrtd:output.obj
 0001:000845f0       __acrt_isleadbyte_l_noupdate 00000001800855f0 f i libucrtd:output.obj
 0001:00084620       __acrt_locale_changed      0000000180085620 f i libucrtd:output.obj
 0001:00084650       __acrt_locale_get_ctype_array_value 0000000180085650 f i libucrtd:output.obj
 0001:00084690       __stdio_common_vfprintf    0000000180085690 f   libucrtd:output.obj
 0001:000846d0       __stdio_common_vfprintf_p  00000001800856d0 f   libucrtd:output.obj
 0001:00084710       __stdio_common_vfprintf_s  0000000180085710 f   libucrtd:output.obj
 0001:00084750       __stdio_common_vfwprintf   0000000180085750 f   libucrtd:output.obj
 0001:00084790       __stdio_common_vfwprintf_p 0000000180085790 f   libucrtd:output.obj
 0001:000847d0       __stdio_common_vfwprintf_s 00000001800857d0 f   libucrtd:output.obj
 0001:00084810       __stdio_common_vsnprintf_s 0000000180085810 f   libucrtd:output.obj
 0001:00084870       __stdio_common_vsnwprintf_s 0000000180085870 f   libucrtd:output.obj
 0001:000848d0       __stdio_common_vsprintf    00000001800858d0 f   libucrtd:output.obj
 0001:00084920       __stdio_common_vsprintf_p  0000000180085920 f   libucrtd:output.obj
 0001:00084970       __stdio_common_vsprintf_s  0000000180085970 f   libucrtd:output.obj
 0001:000849c0       __stdio_common_vswprintf   00000001800859c0 f   libucrtd:output.obj
 0001:00084a10       __stdio_common_vswprintf_p 0000000180085a10 f   libucrtd:output.obj
 0001:00084a60       __stdio_common_vswprintf_s 0000000180085a60 f   libucrtd:output.obj
 0001:00084ab0       _ctype_fast_check_internal 0000000180085ab0 f i libucrtd:output.obj
 0001:00084ae0       _isdigit_fast_internal     0000000180085ae0 f i libucrtd:output.obj
 0001:00084b10       _tolower_fast_internal     0000000180085b10 f i libucrtd:output.obj
 0001:00084b40       free                       0000000180085b40 f   libucrtd:free.obj
 0001:00084b70       malloc                     0000000180085b70 f   libucrtd:malloc.obj
 0001:00084ba0       ??$?RU?$__crt_report_hook_node@D@@@__crt_internal_free_policy@@QEBAXQEBU?$__crt_report_hook_node@D@@@Z 0000000180085ba0 f i libucrtd:dbgrpt.obj
 0001:00084bd0       ??$?RU?$__crt_report_hook_node@_W@@@__crt_internal_free_policy@@QEBAXQEBU?$__crt_report_hook_node@_W@@@Z 0000000180085bd0 f i libucrtd:dbgrpt.obj
 0001:00085e10       ??$get_module_file_name@AEAPEAUHINSTANCE__@@AEAY0BAF@DK@?$__crt_char_traits@D@@SAKAEAPEAUHINSTANCE__@@AEAY0BAF@D$$QEAK@Z 0000000180086e10 f i libucrtd:dbgrpt.obj
 0001:00085e50       ??$get_module_file_name@AEAPEAUHINSTANCE__@@AEAY0BAF@_WK@?$__crt_char_traits@_W@@SAKAEAPEAUHINSTANCE__@@AEAY0BAF@_W$$QEAK@Z 0000000180086e50 f i libucrtd:dbgrpt.obj
 0001:00085e90       ??$tcscpy_s@AEAY0BAF@D_KPEBD@?$__crt_char_traits@D@@SAHAEAY0BAF@D$$QEA_K$$QEAPEBD@Z 0000000180086e90 f i libucrtd:dbgrpt.obj
 0001:00085ed0       ??$tcscpy_s@AEAY0BAF@_W_KPEB_W@?$__crt_char_traits@_W@@SAHAEAY0BAF@_W$$QEA_K$$QEAPEB_W@Z 0000000180086ed0 f i libucrtd:dbgrpt.obj
 0001:00085f10       ??$tcslen@AEAY0BAF@D@?$__crt_char_traits@D@@SA_KAEAY0BAF@D@Z 0000000180086f10 f i libucrtd:dbgrpt.obj
 0001:00085f30       ??$tcslen@AEAY0BAF@_W@?$__crt_char_traits@_W@@SA_KAEAY0BAF@_W@Z 0000000180086f30 f i libucrtd:dbgrpt.obj
 0001:00085f50       ??$tcslen@AEBQEBD@?$__crt_char_traits@D@@SA_KAEBQEBD@Z 0000000180086f50 f i libucrtd:dbgrpt.obj
 0001:00085f70       ??$tcslen@AEBQEB_W@?$__crt_char_traits@_W@@SA_KAEBQEB_W@Z 0000000180086f70 f i libucrtd:dbgrpt.obj
 0001:00086070       ??0?$__crt_unique_heap_ptr@U?$__crt_report_hook_node@D@@U__crt_internal_free_policy@@@@QEAA@QEAU?$__crt_report_hook_node@D@@@Z 0000000180087070 f i libucrtd:dbgrpt.obj
 0001:00086090       ??0?$__crt_unique_heap_ptr@U?$__crt_report_hook_node@_W@@U__crt_internal_free_policy@@@@QEAA@QEAU?$__crt_report_hook_node@_W@@@Z 0000000180087090 f i libucrtd:dbgrpt.obj
 0001:000860b0       ??1?$__crt_unique_heap_ptr@U?$__crt_report_hook_node@D@@U__crt_internal_free_policy@@@@QEAA@XZ 00000001800870b0 f i libucrtd:dbgrpt.obj
 0001:000860d0       ??1?$__crt_unique_heap_ptr@U?$__crt_report_hook_node@_W@@U__crt_internal_free_policy@@@@QEAA@XZ 00000001800870d0 f i libucrtd:dbgrpt.obj
 0001:000860f0       ??B?$__crt_unique_heap_ptr@U?$__crt_report_hook_node@D@@U__crt_internal_free_policy@@@@QEBA_NXZ 00000001800870f0 f i libucrtd:dbgrpt.obj
 0001:00086110       ??B?$__crt_unique_heap_ptr@U?$__crt_report_hook_node@_W@@U__crt_internal_free_policy@@@@QEBA_NXZ 0000000180087110 f i libucrtd:dbgrpt.obj
 0001:000867f0       ?detach@?$__crt_unique_heap_ptr@U?$__crt_report_hook_node@D@@U__crt_internal_free_policy@@@@QEAAPEAU?$__crt_report_hook_node@D@@XZ 00000001800877f0 f i libucrtd:dbgrpt.obj
 0001:00086820       ?detach@?$__crt_unique_heap_ptr@U?$__crt_report_hook_node@_W@@U__crt_internal_free_policy@@@@QEAAPEAU?$__crt_report_hook_node@_W@@XZ 0000000180087820 f i libucrtd:dbgrpt.obj
 0001:00086850       ?get@?$__crt_unique_heap_ptr@U?$__crt_report_hook_node@D@@U__crt_internal_free_policy@@@@QEBAPEAU?$__crt_report_hook_node@D@@XZ 0000000180087850 f i libucrtd:dbgrpt.obj
 0001:00086860       ?get@?$__crt_unique_heap_ptr@U?$__crt_report_hook_node@_W@@U__crt_internal_free_policy@@@@QEBAPEAU?$__crt_report_hook_node@_W@@XZ 0000000180087860 f i libucrtd:dbgrpt.obj
 0001:000868d0       ?is_valid@?$__crt_unique_heap_ptr@U?$__crt_report_hook_node@D@@U__crt_internal_free_policy@@@@QEBA_NXZ 00000001800878d0 f i libucrtd:dbgrpt.obj
 0001:00086900       ?is_valid@?$__crt_unique_heap_ptr@U?$__crt_report_hook_node@_W@@U__crt_internal_free_policy@@@@QEBA_NXZ 0000000180087900 f i libucrtd:dbgrpt.obj
 0001:00086930       ?release@?$__crt_unique_heap_ptr@U?$__crt_report_hook_node@D@@U__crt_internal_free_policy@@@@QEAAXXZ 0000000180087930 f i libucrtd:dbgrpt.obj
 0001:00086960       ?release@?$__crt_unique_heap_ptr@U?$__crt_report_hook_node@_W@@U__crt_internal_free_policy@@@@QEAAXXZ 0000000180087960 f i libucrtd:dbgrpt.obj
 0001:00086990       _CrtDbgReport              0000000180087990 f   libucrtd:dbgrpt.obj
 0001:00086a10       _CrtDbgReportW             0000000180087a10 f   libucrtd:dbgrpt.obj
 0001:00086a90       _CrtSetReportHook2         0000000180087a90 f   libucrtd:dbgrpt.obj
 0001:00086ab0       _CrtSetReportHookW2        0000000180087ab0 f   libucrtd:dbgrpt.obj
 0001:00086ad0       __acrt_MessageWindowA      0000000180087ad0 f   libucrtd:dbgrpt.obj
 0001:00086b20       __acrt_MessageWindowW      0000000180087b20 f   libucrtd:dbgrpt.obj
 0001:00086b70       _invoke_watson_if_error    0000000180087b70 f i libucrtd:dbgrpt.obj
 0001:00086bc0       _invoke_watson_if_oneof    0000000180087bc0 f i libucrtd:dbgrpt.obj
 0001:00086c20       _snwprintf_s               0000000180087c20 f i libucrtd:dbgrpt.obj
 0001:00086c90       _vsnwprintf_s_l            0000000180087c90 f i libucrtd:dbgrpt.obj
 0001:000871f0       wcscpy_s                   00000001800881f0 f   libucrtd:wcscpy_s.obj
 0001:00088580       ??1?$__crt_simd_cleanup_guard@$00@@QEAA@XZ 0000000180089580 f i libucrtd:strnlen.obj
 0001:00088590       ??1?$__crt_simd_cleanup_guard@$0A@@@QEAA@XZ 0000000180089590 f i libucrtd:strnlen.obj
 0001:000885a0       ?compare_equals@?$__crt_simd_traits@$00E@@SA?AT__m256i@@T2@0@Z 00000001800895a0 f i libucrtd:strnlen.obj
 0001:000885e0       ?compare_equals@?$__crt_simd_traits@$00G@@SA?AT__m256i@@T2@0@Z 00000001800895e0 f i libucrtd:strnlen.obj
 0001:00088620       ?compare_equals@?$__crt_simd_traits@$0A@E@@SA?AT__m128i@@T2@0@Z 0000000180089620 f i libucrtd:strnlen.obj
 0001:00088650       ?compare_equals@?$__crt_simd_traits@$0A@G@@SA?AT__m128i@@T2@0@Z 0000000180089650 f i libucrtd:strnlen.obj
 0001:00088680       ?compute_byte_mask@?$__crt_simd_pack_traits@$00@@SAHT__m256i@@@Z 0000000180089680 f i libucrtd:strnlen.obj
 0001:000886a0       ?compute_byte_mask@?$__crt_simd_pack_traits@$0A@@@SAHT__m128i@@@Z 00000001800896a0 f i libucrtd:strnlen.obj
 0001:000886c0       ?get_zero_pack@?$__crt_simd_pack_traits@$00@@SA?AT__m256i@@XZ 00000001800896c0 f i libucrtd:strnlen.obj
 0001:000886f0       ?get_zero_pack@?$__crt_simd_pack_traits@$0A@@@SA?AT__m128i@@XZ 00000001800896f0 f i libucrtd:strnlen.obj
 0001:00088710       strnlen                    0000000180089710 f   libucrtd:strnlen.obj
 0001:00088740       wcslen                     0000000180089740 f   libucrtd:strnlen.obj
 0001:00088760       wcsnlen                    0000000180089760 f   libucrtd:strnlen.obj
 0001:00088790       ??$__crt_fast_decode_pointer@P6AXPEB_W00I_K@Z@@YAP6AXPEB_W00I_K@ZQ6AX000I1@Z@Z 0000000180089790 f i libucrtd:invalid_parameter.obj
 0001:000887d0       ??$__crt_fast_encode_pointer@P6AXPEB_W00I_K@Z@@YAP6AXPEB_W00I_K@ZQ6AX000I1@Z@Z 00000001800897d0 f i libucrtd:invalid_parameter.obj
 0001:00088810       ??$initialize_from_array@$$BY00Q6AXPEB_W00I_K@Z@?$dual_state_global@P6AXPEB_W00I_K@Z@__crt_state_management@@QEAAXAEAY00Q6AXPEB_W00I_K@Z@Z 0000000180089810 f i libucrtd:invalid_parameter.obj
 0001:00088870       ?__crt_rotate_pointer_value@@YA_K_KH@Z 0000000180089870 f i libucrtd:invalid_parameter.obj
 0001:00088930       ?dangerous_get_state_array@?$dual_state_global@P6AXPEB_W00I_K@Z@__crt_state_management@@QEAAPEAP6AXPEB_W00I_K@ZXZ 0000000180089930 f i libucrtd:invalid_parameter.obj
 0001:00088940       ?get_current_state_index@__crt_state_management@@YA_KXZ 0000000180089940 f i libucrtd:invalid_parameter.obj
 0001:00088950       ?value@?$dual_state_global@P6AXPEB_W00I_K@Z@__crt_state_management@@QEAAAEAP6AXPEB_W00I_K@ZXZ 0000000180089950 f i libucrtd:invalid_parameter.obj
 0001:00088970       __acrt_call_reportfault    0000000180089970 f   libucrtd:invalid_parameter.obj
 0001:00088aa0       __acrt_initialize_invalid_parameter_handler 0000000180089aa0 f   libucrtd:invalid_parameter.obj
 0001:00088ad0       _get_invalid_parameter_handler 0000000180089ad0 f   libucrtd:invalid_parameter.obj
 0001:00088af0       _get_thread_local_invalid_parameter_handler 0000000180089af0 f   libucrtd:invalid_parameter.obj
 0001:00088b20       _invalid_parameter         0000000180089b20 f   libucrtd:invalid_parameter.obj
 0001:00088c20       _invalid_parameter_noinfo  0000000180089c20 f   libucrtd:invalid_parameter.obj
 0001:00088c50       _invalid_parameter_noinfo_noreturn 0000000180089c50 f   libucrtd:invalid_parameter.obj
 0001:00088c90       _invoke_watson             0000000180089c90 f   libucrtd:invalid_parameter.obj
 0001:00088cf0       _set_invalid_parameter_handler 0000000180089cf0 f   libucrtd:invalid_parameter.obj
 0001:00088d40       _set_thread_local_invalid_parameter_handler 0000000180089d40 f   libucrtd:invalid_parameter.obj
 0001:00088d80       __acrt_errno_from_os_error 0000000180089d80 f   libucrtd:errno.obj
 0001:00088e10       __acrt_errno_map_os_error  0000000180089e10 f   libucrtd:errno.obj
 0001:00088e40       __doserrno                 0000000180089e40 f   libucrtd:errno.obj
 0001:00088e70       _errno                     0000000180089e70 f   libucrtd:errno.obj
 0001:00088ea0       _get_doserrno              0000000180089ea0 f   libucrtd:errno.obj
 0001:00088f60       _get_errno                 0000000180089f60 f   libucrtd:errno.obj
 0001:00089020       _set_doserrno              000000018008a020 f   libucrtd:errno.obj
 0001:00089060       _set_errno                 000000018008a060 f   libucrtd:errno.obj
 0001:000890a0       calloc                     000000018008a0a0 f   libucrtd:calloc.obj
 0001:000890e0       _recalloc                  000000018008a0e0 f   libucrtd:recalloc.obj
 0001:00089130       _recalloc_base             000000018008a130 f   libucrtd:recalloc.obj
 0001:0008920c       _resetstkoflw              000000018008a20c f   libucrtd:resetstk.obj
 0001:000899c0       wcscat_s                   000000018008a9c0 f   libucrtd:wcscat_s.obj
 0001:0008a090       wcsncpy_s                  000000018008b090 f   libucrtd:wcsncpy_s.obj
 0001:0008a0f0       __acrt_get_locale_data_prefix 000000018008b0f0 f i libucrtd:_ctype.obj
 0001:0008a110       __isascii                  000000018008b110 f i libucrtd:_ctype.obj
 0001:0008a140       __iscsym                   000000018008b140 f i libucrtd:_ctype.obj
 0001:0008a180       __iscsymf                  000000018008b180 f i libucrtd:_ctype.obj
 0001:0008a1c0       __toascii                  000000018008b1c0 f i libucrtd:_ctype.obj
 0001:0008a1d0       _chvalidchk_l              000000018008b1d0 f i libucrtd:_ctype.obj
 0001:0008a200       _isalnum_l                 000000018008b200 f i libucrtd:_ctype.obj
 0001:0008a250       _isalpha_l                 000000018008b250 f i libucrtd:_ctype.obj
 0001:0008a2a0       _isblank_l                 000000018008b2a0 f i libucrtd:_ctype.obj
 0001:0008a310       _ischartype_l              000000018008b310 f i libucrtd:_ctype.obj
 0001:0008a3a0       _iscntrl_l                 000000018008b3a0 f i libucrtd:_ctype.obj
 0001:0008a3f0       _iscsym_l                  000000018008b3f0 f i libucrtd:_ctype.obj
 0001:0008a440       _iscsymf_l                 000000018008b440 f i libucrtd:_ctype.obj
 0001:0008a490       _isdigit_l                 000000018008b490 f i libucrtd:_ctype.obj
 0001:0008a4e0       _isgraph_l                 000000018008b4e0 f i libucrtd:_ctype.obj
 0001:0008a530       _islower_l                 000000018008b530 f i libucrtd:_ctype.obj
 0001:0008a580       _isprint_l                 000000018008b580 f i libucrtd:_ctype.obj
 0001:0008a5d0       _ispunct_l                 000000018008b5d0 f i libucrtd:_ctype.obj
 0001:0008a620       _isspace_l                 000000018008b620 f i libucrtd:_ctype.obj
 0001:0008a670       _isupper_l                 000000018008b670 f i libucrtd:_ctype.obj
 0001:0008a6c0       _isxdigit_l                000000018008b6c0 f i libucrtd:_ctype.obj
 0001:0008a710       isalnum                    000000018008b710 f i libucrtd:_ctype.obj
 0001:0008a750       isalpha                    000000018008b750 f i libucrtd:_ctype.obj
 0001:0008a790       isblank                    000000018008b790 f i libucrtd:_ctype.obj
 0001:0008a7f0       iscntrl                    000000018008b7f0 f i libucrtd:_ctype.obj
 0001:0008a830       isdigit                    000000018008b830 f i libucrtd:_ctype.obj
 0001:0008a870       isgraph                    000000018008b870 f i libucrtd:_ctype.obj
 0001:0008a8b0       islower                    000000018008b8b0 f i libucrtd:_ctype.obj
 0001:0008a8f0       isprint                    000000018008b8f0 f i libucrtd:_ctype.obj
 0001:0008a930       ispunct                    000000018008b930 f i libucrtd:_ctype.obj
 0001:0008a970       isspace                    000000018008b970 f i libucrtd:_ctype.obj
 0001:0008a9b0       isupper                    000000018008b9b0 f i libucrtd:_ctype.obj
 0001:0008a9f0       isxdigit                   000000018008b9f0 f i libucrtd:_ctype.obj
 0001:0008aa30       wcscat                     000000018008ba30 f   libucrtd:wcscat.obj
 0001:0008aab0       wcscpy                     000000018008bab0 f   libucrtd:wcscpy.obj
 0001:0008b260       ??$open_file@AEBQEBDAEBQEBDAEBHPEAU_iobuf@@@?$__crt_char_traits@D@@SAPEAU_iobuf@@AEBQEBD0AEBH$$QEAPEAU1@@Z 000000018008c260 f i libucrtd:fopen.obj
 0001:0008b2b0       ??$open_file@AEBQEB_WAEBQEB_WAEBHPEAU_iobuf@@@?$__crt_char_traits@_W@@SAPEAU_iobuf@@AEBQEB_W0AEBH$$QEAPEAU1@@Z 000000018008c2b0 f i libucrtd:fopen.obj
 0001:0008b300       ?unlock@__crt_stdio_stream@@QEBAXXZ 000000018008c300 f i libucrtd:fopen.obj
 0001:0008b320       _fsopen                    000000018008c320 f   libucrtd:fopen.obj
 0001:0008b350       _wfopen                    000000018008c350 f   libucrtd:fopen.obj
 0001:0008b380       _wfopen_s                  000000018008c380 f   libucrtd:fopen.obj
 0001:0008b3b0       _wfsopen                   000000018008c3b0 f   libucrtd:fopen.obj
 0001:0008b3e0       fopen                      000000018008c3e0 f   libucrtd:fopen.obj
 0001:0008b410       fopen_s                    000000018008c410 f   libucrtd:fopen.obj
 0001:0008b440       ?is_in_use@__crt_stdio_stream@@QEBA_NXZ 000000018008c440 f i libucrtd:fclose.obj
 0001:0008b480       _fclose_nolock             000000018008c480 f   libucrtd:fclose.obj
 0001:0008b610       fclose                     000000018008c610 f   libucrtd:fclose.obj
 0001:0008b750       _fputc_nolock              000000018008c750 f   libucrtd:fputc.obj
 0001:0008b800       _fputchar                  000000018008c800 f   libucrtd:fputc.obj
 0001:0008b830       _putc_nolock               000000018008c830 f   libucrtd:fputc.obj
 0001:0008b850       fputc                      000000018008c850 f   libucrtd:fputc.obj
 0001:0008baf0       putc                       000000018008caf0 f   libucrtd:fputc.obj
 0001:0008bb10       putchar                    000000018008cb10 f   libucrtd:fputc.obj
 0001:0008bba0       _seh_filter_dll            000000018008cba0 f   libucrtd:exception_filter.obj
 0001:0008bbd0       _seh_filter_exe            000000018008cbd0 f   libucrtd:exception_filter.obj
 0001:0008be70       ??$?B$$A6AXPEAXK0@Z@__crt_fast_encoded_nullptr_t@@QEBAP6AXPEAXK0@ZXZ 000000018008ce70 f i libucrtd:exit.obj
 0001:0008bf20       ??$__crt_fast_decode_pointer@P6AXPEAXK0@Z@@YAP6AXPEAXK0@ZQ6AX0K0@Z@Z 000000018008cf20 f i libucrtd:exit.obj
 0001:0008bf60       ??$__crt_fast_encode_pointer@P6AXPEAXK0@Z@@YAP6AXPEAXK0@ZQ6AX0K0@Z@Z 000000018008cf60 f i libucrtd:exit.obj
 0001:0008bfa0       ??$__crt_get_proc_address@P6AXI@Z@@YAP6AXI@ZQEAUHINSTANCE__@@QEBD@Z 000000018008cfa0 f i libucrtd:exit.obj
 0001:0008c060       ??0?$__crt_unique_handle_t@U__crt_hmodule_traits@@@@QEAA@QEAUHINSTANCE__@@@Z 000000018008d060 f i libucrtd:exit.obj
 0001:0008c080       ??1?$__crt_unique_handle_t@U__crt_hmodule_traits@@@@QEAA@XZ 000000018008d080 f i libucrtd:exit.obj
 0001:0008c1e0       ?__acrt_select_exit_lock@@YA?AW4__acrt_lock_id@@XZ 000000018008d1e0 f i libucrtd:exit.obj
 0001:0008c1f0       ?__crt_fast_encode_pointer@@YA?AU__crt_fast_encoded_nullptr_t@@$$T@Z 000000018008d1f0 f i libucrtd:exit.obj
 0001:0008c230       ?close@?$__crt_unique_handle_t@U__crt_hmodule_traits@@@@QEAAXXZ 000000018008d230 f i libucrtd:exit.obj
 0001:0008c270       ?close@__crt_hmodule_traits@@SA_NPEAUHINSTANCE__@@@Z 000000018008d270 f i libucrtd:exit.obj
 0001:0008c380       ?get@?$__crt_unique_handle_t@U__crt_hmodule_traits@@@@QEBAPEAUHINSTANCE__@@XZ 000000018008d380 f i libucrtd:exit.obj
 0001:0008c390       ?get_address_of@?$__crt_unique_handle_t@U__crt_hmodule_traits@@@@QEAAPEAPEAUHINSTANCE__@@XZ 000000018008d390 f i libucrtd:exit.obj
 0001:0008c3a0       ?get_invalid_value@__crt_hmodule_traits@@SAPEAUHINSTANCE__@@XZ 000000018008d3a0 f i libucrtd:exit.obj
 0001:0008c560       _Exit                      000000018008d560 f   libucrtd:exit.obj
 0001:0008c580       __acrt_initialize_thread_local_exit_callback 000000018008d580 f   libucrtd:exit.obj
 0001:0008c5a0       _c_exit                    000000018008d5a0 f   libucrtd:exit.obj
 0001:0008c5c0       _cexit                     000000018008d5c0 f   libucrtd:exit.obj
 0001:0008c5e0       _exit                      000000018008d5e0 f   libucrtd:exit.obj
 0001:0008c600       _is_c_termination_complete 000000018008d600 f   libucrtd:exit.obj
 0001:0008c620       _register_thread_local_exe_atexit_callback 000000018008d620 f   libucrtd:exit.obj
 0001:0008c670       exit                       000000018008d670 f   libucrtd:exit.obj
 0001:0008c690       quick_exit                 000000018008d690 f   libucrtd:exit.obj
 0001:0008c6b0       ??$?RE@__crt_internal_free_policy@@QEBAXQEBE@Z 000000018008d6b0 f i libucrtd:argv_parsing.obj
 0001:0008c6e0       ??$?RPEAD@__crt_internal_free_policy@@QEBAXQEBQEAD@Z 000000018008d6e0 f i libucrtd:argv_parsing.obj
 0001:0008c710       ??$?RPEA_W@__crt_internal_free_policy@@QEBAXQEBQEA_W@Z 000000018008d710 f i libucrtd:argv_parsing.obj
 0001:0008ce60       ??$get_module_file_name@$$TAEAY0BAF@DH@?$__crt_char_traits@D@@SAK$$QEA$$TAEAY0BAF@D$$QEAH@Z 000000018008de60 f i libucrtd:argv_parsing.obj
 0001:0008cea0       ??$get_module_file_name@$$TAEAY0BAF@_WH@?$__crt_char_traits@_W@@SAK$$QEA$$TAEAY0BAF@_W$$QEAH@Z 000000018008dea0 f i libucrtd:argv_parsing.obj
 0001:0008d850       ??$set_program_name@PEAD@?$__crt_char_traits@D@@SAX$$QEAPEAD@Z 000000018008e850 f i libucrtd:argv_parsing.obj
 0001:0008d870       ??$set_program_name@PEA_W@?$__crt_char_traits@_W@@SAX$$QEAPEA_W@Z 000000018008e870 f i libucrtd:argv_parsing.obj
 0001:0008d8d0       ??0?$__crt_unique_heap_ptr@EU__crt_internal_free_policy@@@@QEAA@QEAE@Z 000000018008e8d0 f i libucrtd:argv_parsing.obj
 0001:0008d8f0       ??0?$__crt_unique_heap_ptr@PEADU__crt_internal_free_policy@@@@QEAA@QEAPEAD@Z 000000018008e8f0 f i libucrtd:argv_parsing.obj
 0001:0008d910       ??0?$__crt_unique_heap_ptr@PEA_WU__crt_internal_free_policy@@@@QEAA@QEAPEA_W@Z 000000018008e910 f i libucrtd:argv_parsing.obj
 0001:0008d930       ??1?$__crt_unique_heap_ptr@EU__crt_internal_free_policy@@@@QEAA@XZ 000000018008e930 f i libucrtd:argv_parsing.obj
 0001:0008d950       ??1?$__crt_unique_heap_ptr@PEADU__crt_internal_free_policy@@@@QEAA@XZ 000000018008e950 f i libucrtd:argv_parsing.obj
 0001:0008d970       ??1?$__crt_unique_heap_ptr@PEA_WU__crt_internal_free_policy@@@@QEAA@XZ 000000018008e970 f i libucrtd:argv_parsing.obj
 0001:0008d990       ??B?$__crt_unique_heap_ptr@EU__crt_internal_free_policy@@@@QEBA_NXZ 000000018008e990 f i libucrtd:argv_parsing.obj
 0001:0008da70       ?detach@?$__crt_unique_heap_ptr@EU__crt_internal_free_policy@@@@QEAAPEAEXZ 000000018008ea70 f i libucrtd:argv_parsing.obj
 0001:0008daa0       ?detach@?$__crt_unique_heap_ptr@PEADU__crt_internal_free_policy@@@@QEAAPEAPEADXZ 000000018008eaa0 f i libucrtd:argv_parsing.obj
 0001:0008dad0       ?detach@?$__crt_unique_heap_ptr@PEA_WU__crt_internal_free_policy@@@@QEAAPEAPEA_WXZ 000000018008ead0 f i libucrtd:argv_parsing.obj
 0001:0008db90       ?get@?$__crt_unique_heap_ptr@EU__crt_internal_free_policy@@@@QEBAPEAEXZ 000000018008eb90 f i libucrtd:argv_parsing.obj
 0001:0008dba0       ?get@?$__crt_unique_heap_ptr@PEADU__crt_internal_free_policy@@@@QEBAPEAPEADXZ 000000018008eba0 f i libucrtd:argv_parsing.obj
 0001:0008dbb0       ?get@?$__crt_unique_heap_ptr@PEA_WU__crt_internal_free_policy@@@@QEBAPEAPEA_WXZ 000000018008ebb0 f i libucrtd:argv_parsing.obj
 0001:0008dbc0       ?get_address_of@?$__crt_unique_heap_ptr@PEADU__crt_internal_free_policy@@@@QEAAPEAPEAPEADXZ 000000018008ebc0 f i libucrtd:argv_parsing.obj
 0001:0008dbd0       ?get_address_of@?$__crt_unique_heap_ptr@PEA_WU__crt_internal_free_policy@@@@QEAAPEAPEAPEA_WXZ 000000018008ebd0 f i libucrtd:argv_parsing.obj
 0001:0008dc20       ?is_valid@?$__crt_unique_heap_ptr@EU__crt_internal_free_policy@@@@QEBA_NXZ 000000018008ec20 f i libucrtd:argv_parsing.obj
 0001:0008dc50       ?release@?$__crt_unique_heap_ptr@EU__crt_internal_free_policy@@@@QEAAXXZ 000000018008ec50 f i libucrtd:argv_parsing.obj
 0001:0008dc80       ?release@?$__crt_unique_heap_ptr@PEADU__crt_internal_free_policy@@@@QEAAXXZ 000000018008ec80 f i libucrtd:argv_parsing.obj
 0001:0008dcb0       ?release@?$__crt_unique_heap_ptr@PEA_WU__crt_internal_free_policy@@@@QEAAXXZ 000000018008ecb0 f i libucrtd:argv_parsing.obj
 0001:0008dd30       __acrt_allocate_buffer_for_argv 000000018008ed30 f   libucrtd:argv_parsing.obj
 0001:0008de50       _configure_narrow_argv     000000018008ee50 f   libucrtd:argv_parsing.obj
 0001:0008de70       _configure_wide_argv       000000018008ee70 f   libucrtd:argv_parsing.obj
 0001:0008de90       _set_pgmptr                000000018008ee90 f i libucrtd:argv_parsing.obj
 0001:0008deb0       _set_wpgmptr               000000018008eeb0 f i libucrtd:argv_parsing.obj
 0001:0008dec4       ??$?R_W@__crt_internal_free_policy@@QEBAXQEB_W@Z 000000018008eec4 f i libucrtd:environment_initialization.obj
 0001:0008e49c       ??$get_environment_from_os@$$V@?$__crt_char_traits@D@@SAPEADXZ 000000018008f49c f i libucrtd:environment_initialization.obj
 0001:0008e4a4       ??$get_environment_from_os@$$V@?$__crt_char_traits@_W@@SAPEA_WXZ 000000018008f4a4 f i libucrtd:environment_initialization.obj
 0001:0008e674       ??$set_variable_in_environment_nolock@PEADH@?$__crt_char_traits@D@@SAH$$QEAPEAD$$QEAH@Z 000000018008f674 f i libucrtd:environment_initialization.obj
 0001:0008e680       ??$set_variable_in_environment_nolock@PEA_WH@?$__crt_char_traits@_W@@SAH$$QEAPEA_W$$QEAH@Z 000000018008f680 f i libucrtd:environment_initialization.obj
 0001:0008e68c       ??$tcscpy_s@PEADAEB_KAEAPEAD@?$__crt_char_traits@D@@SAH$$QEAPEADAEB_KAEAPEAD@Z 000000018008f68c f i libucrtd:environment_initialization.obj
 0001:0008e69c       ??$tcscpy_s@PEA_WAEB_KAEAPEA_W@?$__crt_char_traits@_W@@SAH$$QEAPEA_WAEB_KAEAPEA_W@Z 000000018008f69c f i libucrtd:environment_initialization.obj
 0001:0008e6ac       ??$tcslen@AEAPEAD@?$__crt_char_traits@D@@SA_KAEAPEAD@Z 000000018008f6ac f i libucrtd:environment_initialization.obj
 0001:0008e6c0       ??$tcslen@AEAPEA_W@?$__crt_char_traits@_W@@SA_KAEAPEA_W@Z 000000018008f6c0 f i libucrtd:environment_initialization.obj
 0001:0008e6d4       ??$uninitialize@A6AXAEAPEAPEAD@Z@?$dual_state_global@PEAPEAD@__crt_state_management@@QEAAXA6AXAEAPEAPEAD@Z@Z 000000018008f6d4 f i libucrtd:environment_initialization.obj
 0001:0008e718       ??$uninitialize@A6AXAEAPEAPEA_W@Z@?$dual_state_global@PEAPEA_W@__crt_state_management@@QEAAXA6AXAEAPEAPEA_W@Z@Z 000000018008f718 f i libucrtd:environment_initialization.obj
 0001:0008e794       ??0?$__crt_unique_heap_ptr@_WU__crt_internal_free_policy@@@@QEAA@QEA_W@Z 000000018008f794 f i libucrtd:environment_initialization.obj
 0001:0008e79c       ??1?$__crt_unique_heap_ptr@_WU__crt_internal_free_policy@@@@QEAA@XZ 000000018008f79c f i libucrtd:environment_initialization.obj
 0001:0008e7bc       ??B?$__crt_unique_heap_ptr@PEADU__crt_internal_free_policy@@@@QEBA_NXZ 000000018008f7bc f i libucrtd:environment_initialization.obj
 0001:0008e7c4       ??B?$__crt_unique_heap_ptr@PEA_WU__crt_internal_free_policy@@@@QEBA_NXZ 000000018008f7c4 f i libucrtd:environment_initialization.obj
 0001:0008e7cc       ??B?$__crt_unique_heap_ptr@_WU__crt_internal_free_policy@@@@QEBA_NXZ 000000018008f7cc f i libucrtd:environment_initialization.obj
 0001:0008e7d4       ?__crt_compute_required_transform_buffer_count@@YA_KIQEBD@Z 000000018008f7d4 f i libucrtd:environment_initialization.obj
 0001:0008e7f8       ?__crt_compute_required_transform_buffer_count@@YA_KIQEB_W@Z 000000018008f7f8 f i libucrtd:environment_initialization.obj
 0001:0008e828       ?__crt_transform_string@@YA_KIQEBDQEA_W_K@Z 000000018008f828 f i libucrtd:environment_initialization.obj
 0001:0008e84c       ?__crt_transform_string@@YA_KIQEB_WQEAD_K@Z 000000018008f84c f i libucrtd:environment_initialization.obj
 0001:0008e87c       ?detach@?$__crt_unique_heap_ptr@DU__crt_internal_free_policy@@@@QEAAPEADXZ 000000018008f87c f i libucrtd:environment_initialization.obj
 0001:0008e884       ?detach@?$__crt_unique_heap_ptr@_WU__crt_internal_free_policy@@@@QEAAPEA_WXZ 000000018008f884 f i libucrtd:environment_initialization.obj
 0001:0008e88c       ?get@?$__crt_unique_heap_ptr@_WU__crt_internal_free_policy@@@@QEBAPEA_WXZ 000000018008f88c f i libucrtd:environment_initialization.obj
 0001:0008e8c0       ?initialize@?$dual_state_global@PEAPEAD@__crt_state_management@@QEAAXQEAPEAD@Z 000000018008f8c0 f i libucrtd:environment_initialization.obj
 0001:0008e8e8       ?initialize@?$dual_state_global@PEAPEA_W@__crt_state_management@@QEAAXQEAPEA_W@Z 000000018008f8e8 f i libucrtd:environment_initialization.obj
 0001:0008e910       ?is_valid@?$__crt_unique_heap_ptr@PEADU__crt_internal_free_policy@@@@QEBA_NXZ 000000018008f910 f i libucrtd:environment_initialization.obj
 0001:0008e918       ?is_valid@?$__crt_unique_heap_ptr@PEA_WU__crt_internal_free_policy@@@@QEBA_NXZ 000000018008f918 f i libucrtd:environment_initialization.obj
 0001:0008e920       ?is_valid@?$__crt_unique_heap_ptr@_WU__crt_internal_free_policy@@@@QEBA_NXZ 000000018008f920 f i libucrtd:environment_initialization.obj
 0001:0008e934       ?release@?$__crt_unique_heap_ptr@_WU__crt_internal_free_policy@@@@QEAAXXZ 000000018008f934 f i libucrtd:environment_initialization.obj
 0001:0008e954       ?value@?$dual_state_global@PEAPEAD@__crt_state_management@@QEAAAEAPEAPEADXZ 000000018008f954 f i libucrtd:environment_initialization.obj
 0001:0008e958       ?value@?$dual_state_global@PEAPEA_W@__crt_state_management@@QEAAAEAPEAPEA_WXZ 000000018008f958 f i libucrtd:environment_initialization.obj
 0001:0008e95c       __dcrt_get_or_create_narrow_environment_nolock 000000018008f95c f   libucrtd:environment_initialization.obj
 0001:0008e998       __dcrt_get_or_create_wide_environment_nolock 000000018008f998 f   libucrtd:environment_initialization.obj
 0001:0008e9d4       __dcrt_uninitialize_environments_nolock 000000018008f9d4 f   libucrtd:environment_initialization.obj
 0001:0008ea0c       __p__environ               000000018008fa0c f   libucrtd:environment_initialization.obj
 0001:0008ea14       __p__wenviron              000000018008fa14 f   libucrtd:environment_initialization.obj
 0001:0008ea1c       _get_initial_narrow_environment 000000018008fa1c f   libucrtd:environment_initialization.obj
 0001:0008ea6c       _get_initial_wide_environment 000000018008fa6c f   libucrtd:environment_initialization.obj
 0001:0008eabc       _initialize_narrow_environment 000000018008fabc f   libucrtd:environment_initialization.obj
 0001:0008eac4       _initialize_wide_environment 000000018008fac4 f   libucrtd:environment_initialization.obj
 0001:0008ead0       ??$?B$$A6AXXZ@__crt_fast_encoded_nullptr_t@@QEBAP6AXXZXZ 000000018008fad0 f i libucrtd:onexit.obj
 0001:0008eaf0       ??$?BP6AXXZ@__crt_fast_encoded_nullptr_t@@QEBAPEAP6AXXZXZ 000000018008faf0 f i libucrtd:onexit.obj
 0001:0008eb10       ??$?RP6AXXZ@__crt_internal_free_policy@@QEBAXQEBQ6AXXZ@Z 000000018008fb10 f i libucrtd:onexit.obj
 0001:0008ec80       ??$__crt_fast_decode_pointer@P6AXXZ@@YAP6AXXZQ6AXXZ@Z 000000018008fc80 f i libucrtd:onexit.obj
 0001:0008ecc0       ??$__crt_fast_decode_pointer@PEAP6AXXZ@@YAPEAP6AXXZQEAP6AXXZ@Z 000000018008fcc0 f i libucrtd:onexit.obj
 0001:0008ed00       ??$__crt_fast_encode_pointer@P6AHXZ@@YAP6AHXZQ6AHXZ@Z 000000018008fd00 f i libucrtd:onexit.obj
 0001:0008ed40       ??$__crt_fast_encode_pointer@P6AXXZ@@YAP6AXXZQ6AXXZ@Z 000000018008fd40 f i libucrtd:onexit.obj
 0001:0008ed80       ??$__crt_fast_encode_pointer@PEAP6AXXZ@@YAPEAP6AXXZQEAP6AXXZ@Z 000000018008fd80 f i libucrtd:onexit.obj
 0001:0008ee90       ??0?$__crt_unique_heap_ptr@P6AXXZU__crt_internal_free_policy@@@@QEAA@QEAP6AXXZ@Z 000000018008fe90 f i libucrtd:onexit.obj
 0001:0008eeb0       ??1?$__crt_unique_heap_ptr@P6AXXZU__crt_internal_free_policy@@@@QEAA@XZ 000000018008feb0 f i libucrtd:onexit.obj
 0001:0008eed0       ??1scoped_global_state_reset@__crt_state_management@@QEAA@XZ 000000018008fed0 f i libucrtd:onexit.obj
 0001:0008f4a0       ?detach@?$__crt_unique_heap_ptr@P6AXXZU__crt_internal_free_policy@@@@QEAAPEAP6AXXZXZ 00000001800904a0 f i libucrtd:onexit.obj
 0001:0008f4d0       ?release@?$__crt_unique_heap_ptr@P6AXXZU__crt_internal_free_policy@@@@QEAAXXZ 00000001800904d0 f i libucrtd:onexit.obj
 0001:0008f500       _crt_at_quick_exit         0000000180090500 f   libucrtd:onexit.obj
 0001:0008f520       _crt_atexit                0000000180090520 f   libucrtd:onexit.obj
 0001:0008f540       _execute_onexit_table      0000000180090540 f   libucrtd:onexit.obj
 0001:0008f580       _initialize_onexit_table   0000000180090580 f   libucrtd:onexit.obj
 0001:0008f600       _register_onexit_function  0000000180090600 f   libucrtd:onexit.obj
 0001:0008f870       ??$?BX@__crt_fast_encoded_nullptr_t@@QEBAPEAXXZ 0000000180090870 f i libucrtd:initialization.obj
 0001:0008f890       ??$__crt_fast_encode_pointer@PEAX@@YAPEAXQEAX@Z 0000000180090890 f i libucrtd:initialization.obj
 0001:0008f980       ?initialize@?$dual_state_global@PEAU__crt_locale_data@@@__crt_state_management@@QEAAXQEAU__crt_locale_data@@@Z 0000000180090980 f i libucrtd:initialization.obj
 0001:0008f9d0       __acrt_initialize          00000001800909d0 f   libucrtd:initialization.obj
 0001:0008fa00       __acrt_thread_attach       0000000180090a00 f   libucrtd:initialization.obj
 0001:0008fa20       __acrt_thread_detach       0000000180090a20 f   libucrtd:initialization.obj
 0001:0008fa30       __acrt_uninitialize        0000000180090a30 f   libucrtd:initialization.obj
 0001:0008fa60       __acrt_uninitialize_critical 0000000180090a60 f   libucrtd:initialization.obj
 0001:00091a50       _CrtCheckMemory            0000000180092a50 f   libucrtd:debug_heap.obj
 0001:00091be0       _CrtDoForAllClientObjects  0000000180092be0 f   libucrtd:debug_heap.obj
 0001:00091d10       _CrtDumpMemoryLeaks        0000000180092d10 f   libucrtd:debug_heap.obj
 0001:00091dd0       _CrtGetAllocHook           0000000180092dd0 f   libucrtd:debug_heap.obj
 0001:00091de0       _CrtGetDumpClient          0000000180092de0 f   libucrtd:debug_heap.obj
 0001:00091df0       _CrtIsMemoryBlock          0000000180092df0 f   libucrtd:debug_heap.obj
 0001:00091f30       _CrtIsValidHeapPointer     0000000180092f30 f   libucrtd:debug_heap.obj
 0001:00091f70       _CrtIsValidPointer         0000000180092f70 f   libucrtd:debug_heap.obj
 0001:00091fb0       _CrtMemCheckpoint          0000000180092fb0 f   libucrtd:debug_heap.obj
 0001:00092230       _CrtMemDifference          0000000180093230 f   libucrtd:debug_heap.obj
 0001:00092590       _CrtMemDumpAllObjectsSince 0000000180093590 f   libucrtd:debug_heap.obj
 0001:000925f0       _CrtMemDumpStatistics      00000001800935f0 f   libucrtd:debug_heap.obj
 0001:00092790       _CrtReportBlockType        0000000180093790 f   libucrtd:debug_heap.obj
 0001:000927c0       _CrtSetAllocHook           00000001800937c0 f   libucrtd:debug_heap.obj
 0001:000927f0       _CrtSetBreakAlloc          00000001800937f0 f   libucrtd:debug_heap.obj
 0001:00092820       _CrtSetDbgBlockType        0000000180093820 f   libucrtd:debug_heap.obj
 0001:000928c0       _CrtSetDbgFlag             00000001800938c0 f   libucrtd:debug_heap.obj
 0001:00092a20       _CrtSetDumpClient          0000000180093a20 f   libucrtd:debug_heap.obj
 0001:00092a50       __p__crtBreakAlloc         0000000180093a50 f   libucrtd:debug_heap.obj
 0001:00092a60       __p__crtDbgFlag            0000000180093a60 f   libucrtd:debug_heap.obj
 0001:00092a70       _aligned_free_dbg          0000000180093a70 f   libucrtd:debug_heap.obj
 0001:00092b60       _aligned_malloc_dbg        0000000180093b60 f   libucrtd:debug_heap.obj
 0001:00092ba0       _aligned_msize_dbg         0000000180093ba0 f   libucrtd:debug_heap.obj
 0001:00092d70       _aligned_offset_malloc_dbg 0000000180093d70 f   libucrtd:debug_heap.obj
 0001:00093060       _aligned_offset_realloc_dbg 0000000180094060 f   libucrtd:debug_heap.obj
 0001:00093510       _aligned_offset_recalloc_dbg 0000000180094510 f   libucrtd:debug_heap.obj
 0001:00093630       _aligned_realloc_dbg       0000000180094630 f   libucrtd:debug_heap.obj
 0001:00093680       _aligned_recalloc_dbg      0000000180094680 f   libucrtd:debug_heap.obj
 0001:000936e0       _calloc_dbg                00000001800946e0 f   libucrtd:debug_heap.obj
 0001:00093780       _expand_dbg                0000000180094780 f   libucrtd:debug_heap.obj
 0001:000938b0       _free_dbg                  00000001800948b0 f   libucrtd:debug_heap.obj
 0001:00093920       _malloc_dbg                0000000180094920 f   libucrtd:debug_heap.obj
 0001:00093960       _msize_dbg                 0000000180094960 f   libucrtd:debug_heap.obj
 0001:00093b00       _realloc_dbg               0000000180094b00 f   libucrtd:debug_heap.obj
 0001:00093b70       _recalloc_dbg              0000000180094b70 f   libucrtd:debug_heap.obj
 0001:00093c70       _initterm                  0000000180094c70 f   libucrtd:initterm.obj
 0001:00093cd0       _initterm_e                0000000180094cd0 f   libucrtd:initterm.obj
 0001:00094220       strcpy_s                   0000000180095220 f   libucrtd:strcpy_s.obj
 0001:000948c0       strcat_s                   00000001800958c0 f   libucrtd:strcat_s.obj
 0001:000948f0       ??$?B$$A6AH_K@Z@__crt_fast_encoded_nullptr_t@@QEBAP6AH_K@ZXZ 00000001800958f0 f i libucrtd:new_handler.obj
 0001:00094910       ??$__crt_fast_decode_pointer@P6AH_K@Z@@YAP6AH_K@ZQ6AH0@Z@Z 0000000180095910 f i libucrtd:new_handler.obj
 0001:00094950       ??$__crt_fast_encode_pointer@P6AH_K@Z@@YAP6AH_K@ZQ6AH0@Z@Z 0000000180095950 f i libucrtd:new_handler.obj
 0001:00094990       ?_set_new_handler@@YAP6AH_K@ZH@Z 0000000180095990 f   libucrtd:new_handler.obj
 0001:00094a00       ?initialize@?$dual_state_global@P6AH_K@Z@__crt_state_management@@QEAAXQ6AH_K@Z@Z 0000000180095a00 f i libucrtd:new_handler.obj
 0001:00094a50       ?value@?$dual_state_global@P6AH_K@Z@__crt_state_management@@QEAAAEAP6AH_K@ZXZ 0000000180095a50 f i libucrtd:new_handler.obj
 0001:00094a70       __acrt_initialize_new_handler 0000000180095a70 f   libucrtd:new_handler.obj
 0001:00094a90       _callnewh                  0000000180095a90 f   libucrtd:new_handler.obj
 0001:00094ae0       _query_new_handler         0000000180095ae0 f   libucrtd:new_handler.obj
 0001:00094b20       _set_new_handler           0000000180095b20 f   libucrtd:new_handler.obj
 0001:00094bd0       _get_terminate             0000000180095bd0 f   libucrtd:terminate.obj
 0001:00094bf0       set_terminate              0000000180095bf0 f   libucrtd:terminate.obj
 0001:00094c30       terminate                  0000000180095c30 f   libucrtd:terminate.obj
 0001:00095a30       _makepath                  0000000180096a30 f   libucrtd:makepath.obj
 0001:00095a80       _makepath_s                0000000180096a80 f   libucrtd:makepath.obj
 0001:00095ad0       _wmakepath                 0000000180096ad0 f   libucrtd:makepath.obj
 0001:00095b20       _wmakepath_s               0000000180096b20 f   libucrtd:makepath.obj
 0001:00098150       ??$tcsncpy_s@AEAPEAD_KAEAPEBDAEB_K@?$__crt_char_traits@D@@SAHAEAPEAD$$QEA_KAEAPEBDAEB_K@Z 0000000180099150 f i libucrtd:splitpath.obj
 0001:000981a0       ??$tcsncpy_s@AEAPEAD_KAEAPEBDH@?$__crt_char_traits@D@@SAHAEAPEAD$$QEA_KAEAPEBD$$QEAH@Z 00000001800991a0 f i libucrtd:splitpath.obj
 0001:000981f0       ??$tcsncpy_s@AEAPEA_W_KAEAPEB_WAEB_K@?$__crt_char_traits@_W@@SAHAEAPEA_W$$QEA_KAEAPEB_WAEB_K@Z 00000001800991f0 f i libucrtd:splitpath.obj
 0001:00098240       ??$tcsncpy_s@AEAPEA_W_KAEAPEB_WH@?$__crt_char_traits@_W@@SAHAEAPEA_W$$QEA_KAEAPEB_W$$QEAH@Z 0000000180099240 f i libucrtd:splitpath.obj
 0001:000984f0       _splitpath                 00000001800994f0 f   libucrtd:splitpath.obj
 0001:00098530       _splitpath_s               0000000180099530 f   libucrtd:splitpath.obj
 0001:000985d0       _wsplitpath                00000001800995d0 f   libucrtd:splitpath.obj
 0001:00098610       _wsplitpath_s              0000000180099610 f   libucrtd:splitpath.obj
 0001:000986b0       _set_abort_behavior        00000001800996b0 f   libucrtd:abort.obj
 0001:000986f0       abort                      00000001800996f0 f   libucrtd:abort.obj
 0001:00098780       strcmp                     0000000180099780 f   libucrtd:strcmp.obj
 0001:00098800       strlen                     0000000180099800 f   libucrtd:strlen.obj
 0001:000988b0       ??$is_overflow_condition@K@__crt_strtox@@YA_NIK@Z 00000001800998b0 f i libucrtd:atox.obj
 0001:00098920       ??$is_overflow_condition@_K@__crt_strtox@@YA_NI_K@Z 0000000180099920 f i libucrtd:atox.obj
 0001:00098990       ??$make_c_string_character_source@D$$T@__crt_strtox@@YA?AV?$c_string_character_source@D@0@QEBD$$T@Z 0000000180099990 f i libucrtd:atox.obj
 0001:000989d0       ??$make_c_string_character_source@_W$$T@__crt_strtox@@YA?AV?$c_string_character_source@_W@0@QEB_W$$T@Z 00000001800999d0 f i libucrtd:atox.obj
 0001:00098a10       ??$parse_integer@KV?$c_string_character_source@D@__crt_strtox@@@__crt_strtox@@YAKQEAU__crt_locale_pointers@@V?$c_string_character_source@D@0@H_N@Z 0000000180099a10 f i libucrtd:atox.obj
 0001:00098ea0       ??$parse_integer@KV?$c_string_character_source@_W@__crt_strtox@@@__crt_strtox@@YAKQEAU__crt_locale_pointers@@V?$c_string_character_source@_W@0@H_N@Z 0000000180099ea0 f i libucrtd:atox.obj
 0001:00099350       ??$parse_integer@_KV?$c_string_character_source@D@__crt_strtox@@@__crt_strtox@@YA_KQEAU__crt_locale_pointers@@V?$c_string_character_source@D@0@H_N@Z 000000018009a350 f i libucrtd:atox.obj
 0001:00099870       ??$parse_integer@_KV?$c_string_character_source@_W@__crt_strtox@@@__crt_strtox@@YA_KQEAU__crt_locale_pointers@@V?$c_string_character_source@_W@0@H_N@Z 000000018009a870 f i libucrtd:atox.obj
 0001:00099d90       ??$parse_integer_from_string@JD$$T@__crt_strtox@@YAJQEBD$$THQEAU__crt_locale_pointers@@@Z 000000018009ad90 f i libucrtd:atox.obj
 0001:00099de0       ??$parse_integer_from_string@J_W$$T@__crt_strtox@@YAJQEB_W$$THQEAU__crt_locale_pointers@@@Z 000000018009ade0 f i libucrtd:atox.obj
 0001:00099e30       ??$parse_integer_from_string@_JD$$T@__crt_strtox@@YA_JQEBD$$THQEAU__crt_locale_pointers@@@Z 000000018009ae30 f i libucrtd:atox.obj
 0001:00099e80       ??$parse_integer_from_string@_J_W$$T@__crt_strtox@@YA_JQEB_W$$THQEAU__crt_locale_pointers@@@Z 000000018009ae80 f i libucrtd:atox.obj
 0001:00099ed0       ??0?$c_string_character_source@D@__crt_strtox@@QEAA@QEBDQEAPEBD@Z 000000018009aed0 f i libucrtd:atox.obj
 0001:00099f20       ??0?$c_string_character_source@_W@__crt_strtox@@QEAA@QEB_WQEAPEB_W@Z 000000018009af20 f i libucrtd:atox.obj
 0001:00099f70       ??1?$c_string_character_source@D@__crt_strtox@@QEAA@XZ 000000018009af70 f i libucrtd:atox.obj
 0001:00099fa0       ??1?$c_string_character_source@_W@__crt_strtox@@QEAA@XZ 000000018009afa0 f i libucrtd:atox.obj
 0001:00099fd0       ?get@?$c_string_character_source@D@__crt_strtox@@QEAADXZ 000000018009afd0 f i libucrtd:atox.obj
 0001:0009a010       ?get@?$c_string_character_source@_W@__crt_strtox@@QEAA_WXZ 000000018009b010 f i libucrtd:atox.obj
 0001:0009a050       ?is_space@__crt_strtox@@YA_NDQEAU__crt_locale_pointers@@@Z 000000018009b050 f i libucrtd:atox.obj
 0001:0009a0a0       ?is_space@__crt_strtox@@YA_N_WPEAU__crt_locale_pointers@@@Z 000000018009b0a0 f i libucrtd:atox.obj
 0001:0009a0e0       ?maximum_signed_value@__crt_strtox@@YAJK@Z 000000018009b0e0 f i libucrtd:atox.obj
 0001:0009a0f0       ?maximum_signed_value@__crt_strtox@@YA_J_K@Z 000000018009b0f0 f i libucrtd:atox.obj
 0001:0009a100       ?minimum_signed_value@__crt_strtox@@YAJK@Z 000000018009b100 f i libucrtd:atox.obj
 0001:0009a110       ?minimum_signed_value@__crt_strtox@@YA_J_K@Z 000000018009b110 f i libucrtd:atox.obj
 0001:0009a120       ?parse_digit@__crt_strtox@@YAID@Z 000000018009b120 f i libucrtd:atox.obj
 0001:0009a190       ?parse_digit@__crt_strtox@@YAI_W@Z 000000018009b190 f i libucrtd:atox.obj
 0001:0009a1e0       ?restore_state@?$c_string_character_source@D@__crt_strtox@@QEAA_NQEBD@Z 000000018009b1e0 f i libucrtd:atox.obj
 0001:0009a200       ?restore_state@?$c_string_character_source@_W@__crt_strtox@@QEAA_NQEB_W@Z 000000018009b200 f i libucrtd:atox.obj
 0001:0009a220       ?save_state@?$c_string_character_source@D@__crt_strtox@@QEBAPEBDXZ 000000018009b220 f i libucrtd:atox.obj
 0001:0009a230       ?save_state@?$c_string_character_source@_W@__crt_strtox@@QEBAPEB_WXZ 000000018009b230 f i libucrtd:atox.obj
 0001:0009a240       ?unget@?$c_string_character_source@D@__crt_strtox@@QEAAXD@Z 000000018009b240 f i libucrtd:atox.obj
 0001:0009a320       ?unget@?$c_string_character_source@_W@__crt_strtox@@QEAAX_W@Z 000000018009b320 f i libucrtd:atox.obj
 0001:0009a400       ?validate@?$c_string_character_source@D@__crt_strtox@@QEBA_NXZ 000000018009b400 f i libucrtd:atox.obj
 0001:0009a4c0       ?validate@?$c_string_character_source@_W@__crt_strtox@@QEBA_NXZ 000000018009b4c0 f i libucrtd:atox.obj
 0001:0009a580       ?wide_character_to_digit@__crt_strtox@@YAH_W@Z 000000018009b580 f i libucrtd:atox.obj
 0001:0009a8f0       __ascii_iswalpha           000000018009b8f0 f i libucrtd:atox.obj
 0001:0009a930       __ascii_toupper            000000018009b930 f i libucrtd:atox.obj
 0001:0009a950       __ascii_towupper           000000018009b950 f i libucrtd:atox.obj
 0001:0009a970       _atoi64                    000000018009b970 f   libucrtd:atox.obj
 0001:0009a9a0       _atoi64_l                  000000018009b9a0 f   libucrtd:atox.obj
 0001:0009a9d0       _atoi_l                    000000018009b9d0 f   libucrtd:atox.obj
 0001:0009aa00       _atol_l                    000000018009ba00 f   libucrtd:atox.obj
 0001:0009aa30       _atoll_l                   000000018009ba30 f   libucrtd:atox.obj
 0001:0009aa60       _wtoi                      000000018009ba60 f   libucrtd:atox.obj
 0001:0009aa90       _wtoi64                    000000018009ba90 f   libucrtd:atox.obj
 0001:0009aac0       _wtoi64_l                  000000018009bac0 f   libucrtd:atox.obj
 0001:0009aaf0       _wtoi_l                    000000018009baf0 f   libucrtd:atox.obj
 0001:0009ab20       _wtol                      000000018009bb20 f   libucrtd:atox.obj
 0001:0009ab50       _wtol_l                    000000018009bb50 f   libucrtd:atox.obj
 0001:0009ab80       _wtoll                     000000018009bb80 f   libucrtd:atox.obj
 0001:0009abb0       _wtoll_l                   000000018009bbb0 f   libucrtd:atox.obj
 0001:0009abe0       atoi                       000000018009bbe0 f   libucrtd:atox.obj
 0001:0009ac10       atol                       000000018009bc10 f   libucrtd:atox.obj
 0001:0009ac40       atoll                      000000018009bc40 f   libucrtd:atox.obj
 0001:0009ac80       strncmp                    000000018009bc80 f   libucrtd:strncmp.obj
 0001:0009ad00       wcsncmp                    000000018009bd00 f   libucrtd:wcsncmp.obj
 0001:0009ad90       _CrtGetDebugFillThreshold  000000018009bd90 f   libucrtd:debug_fill_threshold.obj
 0001:0009ada0       _CrtSetDebugFillThreshold  000000018009bda0 f   libucrtd:debug_fill_threshold.obj
 0001:0009add0       ??$make_c_string_character_source@DPEAPEAD@__crt_strtox@@YA?AV?$c_string_character_source@D@0@QEBDQEAPEAD@Z 000000018009bdd0 f i libucrtd:strtox.obj
 0001:0009ae10       ??$make_c_string_character_source@_WPEAPEA_W@__crt_strtox@@YA?AV?$c_string_character_source@_W@0@QEB_WQEAPEA_W@Z 000000018009be10 f i libucrtd:strtox.obj
 0001:0009ae50       ??$parse_integer_from_string@JDPEAPEAD@__crt_strtox@@YAJQEBDQEAPEADHQEAU__crt_locale_pointers@@@Z 000000018009be50 f i libucrtd:strtox.obj
 0001:0009aea0       ??$parse_integer_from_string@J_WPEAPEA_W@__crt_strtox@@YAJQEB_WQEAPEA_WHQEAU__crt_locale_pointers@@@Z 000000018009bea0 f i libucrtd:strtox.obj
 0001:0009aef0       ??$parse_integer_from_string@KDPEAPEAD@__crt_strtox@@YAKQEBDQEAPEADHQEAU__crt_locale_pointers@@@Z 000000018009bef0 f i libucrtd:strtox.obj
 0001:0009af40       ??$parse_integer_from_string@K_WPEAPEA_W@__crt_strtox@@YAKQEB_WQEAPEA_WHQEAU__crt_locale_pointers@@@Z 000000018009bf40 f i libucrtd:strtox.obj
 0001:0009af90       ??$parse_integer_from_string@_JDPEAPEAD@__crt_strtox@@YA_JQEBDQEAPEADHQEAU__crt_locale_pointers@@@Z 000000018009bf90 f i libucrtd:strtox.obj
 0001:0009afe0       ??$parse_integer_from_string@_J_WPEAPEA_W@__crt_strtox@@YA_JQEB_WQEAPEA_WHQEAU__crt_locale_pointers@@@Z 000000018009bfe0 f i libucrtd:strtox.obj
 0001:0009b030       ??$parse_integer_from_string@_KDPEAPEAD@__crt_strtox@@YA_KQEBDQEAPEADHQEAU__crt_locale_pointers@@@Z 000000018009c030 f i libucrtd:strtox.obj
 0001:0009b080       ??$parse_integer_from_string@_K_WPEAPEA_W@__crt_strtox@@YA_KQEB_WQEAPEA_WHQEAU__crt_locale_pointers@@@Z 000000018009c080 f i libucrtd:strtox.obj
 0001:0009b0d0       _strtoi64                  000000018009c0d0 f   libucrtd:strtox.obj
 0001:0009b100       _strtoi64_l                000000018009c100 f   libucrtd:strtox.obj
 0001:0009b140       _strtoimax_l               000000018009c140 f   libucrtd:strtox.obj
 0001:0009b180       _strtol_l                  000000018009c180 f   libucrtd:strtox.obj
 0001:0009b1c0       _strtoll_l                 000000018009c1c0 f   libucrtd:strtox.obj
 0001:0009b200       _strtoui64                 000000018009c200 f   libucrtd:strtox.obj
 0001:0009b230       _strtoui64_l               000000018009c230 f   libucrtd:strtox.obj
 0001:0009b270       _strtoul_l                 000000018009c270 f   libucrtd:strtox.obj
 0001:0009b2b0       _strtoull_l                000000018009c2b0 f   libucrtd:strtox.obj
 0001:0009b2f0       _strtoumax_l               000000018009c2f0 f   libucrtd:strtox.obj
 0001:0009b330       _wcstoi64                  000000018009c330 f   libucrtd:strtox.obj
 0001:0009b360       _wcstoi64_l                000000018009c360 f   libucrtd:strtox.obj
 0001:0009b3a0       _wcstoimax_l               000000018009c3a0 f   libucrtd:strtox.obj
 0001:0009b3e0       _wcstol_l                  000000018009c3e0 f   libucrtd:strtox.obj
 0001:0009b420       _wcstoll_l                 000000018009c420 f   libucrtd:strtox.obj
 0001:0009b460       _wcstoui64                 000000018009c460 f   libucrtd:strtox.obj
 0001:0009b490       _wcstoui64_l               000000018009c490 f   libucrtd:strtox.obj
 0001:0009b4d0       _wcstoul_l                 000000018009c4d0 f   libucrtd:strtox.obj
 0001:0009b510       _wcstoull_l                000000018009c510 f   libucrtd:strtox.obj
 0001:0009b550       _wcstoumax_l               000000018009c550 f   libucrtd:strtox.obj
 0001:0009b590       strtoimax                  000000018009c590 f   libucrtd:strtox.obj
 0001:0009b5c0       strtol                     000000018009c5c0 f   libucrtd:strtox.obj
 0001:0009b5f0       strtoll                    000000018009c5f0 f   libucrtd:strtox.obj
 0001:0009b620       strtoul                    000000018009c620 f   libucrtd:strtox.obj
 0001:0009b650       strtoull                   000000018009c650 f   libucrtd:strtox.obj
 0001:0009b680       strtoumax                  000000018009c680 f   libucrtd:strtox.obj
 0001:0009b6b0       wcstoimax                  000000018009c6b0 f   libucrtd:strtox.obj
 0001:0009b6e0       wcstol                     000000018009c6e0 f   libucrtd:strtox.obj
 0001:0009b710       wcstoll                    000000018009c710 f   libucrtd:strtox.obj
 0001:0009b740       wcstoul                    000000018009c740 f   libucrtd:strtox.obj
 0001:0009b770       wcstoull                   000000018009c770 f   libucrtd:strtox.obj
 0001:0009b7a0       wcstoumax                  000000018009c7a0 f   libucrtd:strtox.obj
 0001:0009b7d0       _mbtowc_l                  000000018009c7d0 f   libucrtd:mbtowc.obj
 0001:0009bc30       mbtowc                     000000018009cc30 f   libucrtd:mbtowc.obj
 0001:0009bc60       _wctomb_l                  000000018009cc60 f   libucrtd:wctomb.obj
 0001:0009bd20       _wctomb_s_l                000000018009cd20 f   libucrtd:wctomb.obj
 0001:0009c2a0       wctomb                     000000018009d2a0 f   libucrtd:wctomb.obj
 0001:0009c300       wctomb_s                   000000018009d300 f   libucrtd:wctomb.obj
 0001:0009c350       ??$?RU__acrt_ptd@@@__crt_internal_free_policy@@QEBAXQEBU__acrt_ptd@@@Z 000000018009d350 f i libucrtd:per_thread_data.obj
 0001:0009c750       ??0?$__crt_unique_heap_ptr@U__acrt_ptd@@U__crt_internal_free_policy@@@@QEAA@QEAU__acrt_ptd@@@Z 000000018009d750 f i libucrtd:per_thread_data.obj
 0001:0009c770       ??0__crt_scoped_get_last_error_reset@@QEAA@XZ 000000018009d770 f i libucrtd:per_thread_data.obj
 0001:0009c790       ??1?$__crt_unique_heap_ptr@U__acrt_ptd@@U__crt_internal_free_policy@@@@QEAA@XZ 000000018009d790 f i libucrtd:per_thread_data.obj
 0001:0009c7b0       ??1__crt_scoped_get_last_error_reset@@QEAA@XZ 000000018009d7b0 f i libucrtd:per_thread_data.obj
 0001:0009c7d0       ??B?$__crt_unique_heap_ptr@U__acrt_ptd@@U__crt_internal_free_policy@@@@QEBA_NXZ 000000018009d7d0 f i libucrtd:per_thread_data.obj
 0001:0009cb20       ?dangerous_get_state_array@?$dual_state_global@PEAU__crt_locale_data@@@__crt_state_management@@QEAAPEAPEAU__crt_locale_data@@XZ 000000018009db20 f i libucrtd:per_thread_data.obj
 0001:0009cce0       ?detach@?$__crt_unique_heap_ptr@U__acrt_ptd@@U__crt_internal_free_policy@@@@QEAAPEAU__acrt_ptd@@XZ 000000018009dce0 f i libucrtd:per_thread_data.obj
 0001:0009cd10       ?get@?$__crt_unique_heap_ptr@U__acrt_ptd@@U__crt_internal_free_policy@@@@QEBAPEAU__acrt_ptd@@XZ 000000018009dd10 f i libucrtd:per_thread_data.obj
 0001:0009cd20       ?get_current_state_index@__crt_state_management@@YA_KAEBV__crt_scoped_get_last_error_reset@@@Z 000000018009dd20 f i libucrtd:per_thread_data.obj
 0001:0009ced0       ?is_valid@?$__crt_unique_heap_ptr@U__acrt_ptd@@U__crt_internal_free_policy@@@@QEBA_NXZ 000000018009ded0 f i libucrtd:per_thread_data.obj
 0001:0009cf00       ?release@?$__crt_unique_heap_ptr@U__acrt_ptd@@U__crt_internal_free_policy@@@@QEAAXXZ 000000018009df00 f i libucrtd:per_thread_data.obj
 0001:0009d030       ?value@?$dual_state_global@PEAU__crt_locale_data@@@__crt_state_management@@QEAAAEAPEAU__crt_locale_data@@XZ 000000018009e030 f i libucrtd:per_thread_data.obj
 0001:0009d050       __acrt_freeptd             000000018009e050 f   libucrtd:per_thread_data.obj
 0001:0009d090       __acrt_getptd              000000018009e090 f   libucrtd:per_thread_data.obj
 0001:0009d0c0       __acrt_getptd_head         000000018009e0c0 f   libucrtd:per_thread_data.obj
 0001:0009d0f0       __acrt_getptd_noexit       000000018009e0f0 f   libucrtd:per_thread_data.obj
 0001:0009d100       __acrt_initialize_ptd      000000018009e100 f   libucrtd:per_thread_data.obj
 0001:0009d140       __acrt_uninitialize_ptd    000000018009e140 f   libucrtd:per_thread_data.obj
 0001:0009d170       __threadhandle             000000018009e170 f   libucrtd:per_thread_data.obj
 0001:0009d180       __threadid                 000000018009e180 f   libucrtd:per_thread_data.obj
 0001:0009d190       ?value@?$dual_state_global@PEAU__crt_multibyte_data@@@__crt_state_management@@QEAAAEAPEAU__crt_multibyte_data@@XZ 000000018009e190 f i libucrtd:locale_update.obj
 0001:0009d1b0       __acrt_update_locale_info  000000018009e1b0 f   libucrtd:locale_update.obj
 0001:0009d200       __acrt_update_multibyte_info 000000018009e200 f   libucrtd:locale_update.obj
 0001:0009d250       ?__acrt_fp_classify@@YA?AW4__acrt_fp_class@@AEBN@Z 000000018009e250 f i libucrtd:cvt.obj
 0001:0009d350       ?__acrt_fp_is_negative@@YA_NAEBN@Z 000000018009e350 f i libucrtd:cvt.obj
 0001:0009ea00       ?strrchr@@YAPEADQEADH@Z    000000018009fa00 f i libucrtd:cvt.obj
 0001:0009ea20       __acrt_fp_format           000000018009fa20 f   libucrtd:cvt.obj
 0001:0009f090       _fputwc_nolock             00000001800a0090 f   libucrtd:fputwc.obj
 0001:0009f300       _fputwchar                 00000001800a0300 f   libucrtd:fputwc.obj
 0001:0009f330       _putwc_nolock              00000001800a0330 f   libucrtd:fputwc.obj
 0001:0009f360       fputwc                     00000001800a0360 f   libucrtd:fputwc.obj
 0001:0009f450       putwc                      00000001800a0450 f   libucrtd:fputwc.obj
 0001:0009f480       putwchar                   00000001800a0480 f   libucrtd:fputwc.obj
 0001:0009f4a0       ?lowio_handle@__crt_stdio_stream@@QEBAHXZ 00000001800a04a0 f i libucrtd:fileno.obj
 0001:0009f4d0       _fileno                    00000001800a04d0 f   libucrtd:fileno.obj
 0001:0009f5b0       ??$?RPEAU__crt_stdio_stream_data@@@__crt_internal_free_policy@@QEBAXQEBQEAU__crt_stdio_stream_data@@@Z 00000001800a05b0 f i libucrtd:_file.obj
 0001:0009f5e0       ??0?$__crt_unique_heap_ptr@PEAU__crt_stdio_stream_data@@U__crt_internal_free_policy@@@@QEAA@QEAPEAU__crt_stdio_stream_data@@@Z 00000001800a05e0 f i libucrtd:_file.obj
 0001:0009f600       ??1?$__crt_unique_heap_ptr@PEAU__crt_stdio_stream_data@@U__crt_internal_free_policy@@@@QEAA@XZ 00000001800a0600 f i libucrtd:_file.obj
 0001:0009f620       ?detach@?$__crt_unique_heap_ptr@PEAU__crt_stdio_stream_data@@U__crt_internal_free_policy@@@@QEAAPEAPEAU__crt_stdio_stream_data@@XZ 00000001800a0620 f i libucrtd:_file.obj
 0001:0009f650       ?release@?$__crt_unique_heap_ptr@PEAU__crt_stdio_stream_data@@U__crt_internal_free_policy@@@@QEAAXXZ 00000001800a0650 f i libucrtd:_file.obj
 0001:0009f680       __acrt_initialize_stdio    00000001800a0680 f   libucrtd:_file.obj
 0001:0009f870       __acrt_iob_func            00000001800a0870 f   libucrtd:_file.obj
 0001:0009f890       __acrt_uninitialize_stdio  00000001800a0890 f   libucrtd:_file.obj
 0001:0009f920       _get_stream_buffer_pointers 00000001800a0920 f   libucrtd:_file.obj
 0001:0009fa50       _lock_file                 00000001800a0a50 f   libucrtd:_file.obj
 0001:0009fa90       _unlock_file               00000001800a0a90 f   libucrtd:_file.obj
 0001:0009fad0       _get_printf_count_output   00000001800a0ad0 f   libucrtd:printf_count_output.obj
 0001:0009fb00       _set_printf_count_output   00000001800a0b00 f   libucrtd:printf_count_output.obj
 0001:0009fb70       ?has_any_buffer@__crt_stdio_stream@@QEBA_NXZ 00000001800a0b70 f i libucrtd:_sftbuf.obj
 0001:0009fb90       ?has_any_of@__crt_stdio_stream@@QEBA_NJ@Z 00000001800a0b90 f i libucrtd:_sftbuf.obj
 0001:0009fbd0       ?has_temporary_buffer@__crt_stdio_stream@@QEBA_NXZ 00000001800a0bd0 f i libucrtd:_sftbuf.obj
 0001:0009fbf0       ?set_flags@__crt_stdio_stream@@QEBA_NJ@Z 00000001800a0bf0 f i libucrtd:_sftbuf.obj
 0001:0009fc60       ?unset_flags@__crt_stdio_stream@@QEBA_NJ@Z 00000001800a0c60 f i libucrtd:_sftbuf.obj
 0001:0009fcc0       __acrt_stdio_begin_temporary_buffering_nolock 00000001800a0cc0 f   libucrtd:_sftbuf.obj
 0001:0009ff00       __acrt_stdio_end_temporary_buffering_nolock 00000001800a0f00 f   libucrtd:_sftbuf.obj
 0001:0009ffb0       ??$?RU__crt_locale_data@@@__crt_internal_free_policy@@QEBAXQEBU__crt_locale_data@@@Z 00000001800a0fb0 f i libucrtd:wsetlocale.obj
 0001:0009ffe0       ??$?RU__crt_locale_pointers@@@__crt_internal_free_policy@@QEBAXQEBU__crt_locale_pointers@@@Z 00000001800a0fe0 f i libucrtd:wsetlocale.obj
 0001:000a0010       ??$?RU__crt_multibyte_data@@@__crt_internal_free_policy@@QEBAXQEBU__crt_multibyte_data@@@Z 00000001800a1010 f i libucrtd:wsetlocale.obj
 0001:000a0570       ??0?$__crt_unique_heap_ptr@U__crt_locale_data@@U__crt_internal_free_policy@@@@QEAA@QEAU__crt_locale_data@@@Z 00000001800a1570 f i libucrtd:wsetlocale.obj
 0001:000a0590       ??0?$__crt_unique_heap_ptr@U__crt_locale_pointers@@U__crt_internal_free_policy@@@@QEAA@QEAU__crt_locale_pointers@@@Z 00000001800a1590 f i libucrtd:wsetlocale.obj
 0001:000a05b0       ??0?$__crt_unique_heap_ptr@U__crt_multibyte_data@@U__crt_internal_free_policy@@@@QEAA@QEAU__crt_multibyte_data@@@Z 00000001800a15b0 f i libucrtd:wsetlocale.obj
 0001:000a05d0       ??0_expandlocale_locale_name_cache@@QEAA@QEA_W_KQEAU__crt_qualified_locale_data@@@Z 00000001800a15d0 f i libucrtd:wsetlocale.obj
 0001:000a0680       ??1?$__crt_unique_heap_ptr@U__crt_locale_data@@U__crt_internal_free_policy@@@@QEAA@XZ 00000001800a1680 f i libucrtd:wsetlocale.obj
 0001:000a06a0       ??1?$__crt_unique_heap_ptr@U__crt_locale_pointers@@U__crt_internal_free_policy@@@@QEAA@XZ 00000001800a16a0 f i libucrtd:wsetlocale.obj
 0001:000a06c0       ??1?$__crt_unique_heap_ptr@U__crt_multibyte_data@@U__crt_internal_free_policy@@@@QEAA@XZ 00000001800a16c0 f i libucrtd:wsetlocale.obj
 0001:000a06e0       ??1_expandlocale_locale_name_cache@@QEAA@XZ 00000001800a16e0 f i libucrtd:wsetlocale.obj
 0001:000a0760       ??B?$__crt_unique_heap_ptr@U__crt_locale_data@@U__crt_internal_free_policy@@@@QEBA_NXZ 00000001800a1760 f i libucrtd:wsetlocale.obj
 0001:000a0780       ??B?$__crt_unique_heap_ptr@U__crt_locale_pointers@@U__crt_internal_free_policy@@@@QEBA_NXZ 00000001800a1780 f i libucrtd:wsetlocale.obj
 0001:000a07a0       ??B?$__crt_unique_heap_ptr@U__crt_multibyte_data@@U__crt_internal_free_policy@@@@QEBA_NXZ 00000001800a17a0 f i libucrtd:wsetlocale.obj
 0001:000a0c50       ?commit_locale_name@_expandlocale_locale_name_cache@@QEAAXQEB_W_K@Z 00000001800a1c50 f i libucrtd:wsetlocale.obj
 0001:000a0cd0       ?commit_locale_name_cache_already_updated@_expandlocale_locale_name_cache@@QEAAXQEB_W_K@Z 00000001800a1cd0 f i libucrtd:wsetlocale.obj
 0001:000a0d40       ?detach@?$__crt_unique_heap_ptr@U__crt_locale_data@@U__crt_internal_free_policy@@@@QEAAPEAU__crt_locale_data@@XZ 00000001800a1d40 f i libucrtd:wsetlocale.obj
 0001:000a0d70       ?detach@?$__crt_unique_heap_ptr@U__crt_locale_pointers@@U__crt_internal_free_policy@@@@QEAAPEAU__crt_locale_pointers@@XZ 00000001800a1d70 f i libucrtd:wsetlocale.obj
 0001:000a0da0       ?detach@?$__crt_unique_heap_ptr@U__crt_multibyte_data@@U__crt_internal_free_policy@@@@QEAAPEAU__crt_multibyte_data@@XZ 00000001800a1da0 f i libucrtd:wsetlocale.obj
 0001:000a0dd0       ?get@?$__crt_unique_heap_ptr@U__crt_locale_data@@U__crt_internal_free_policy@@@@QEBAPEAU__crt_locale_data@@XZ 00000001800a1dd0 f i libucrtd:wsetlocale.obj
 0001:000a0de0       ?get@?$__crt_unique_heap_ptr@U__crt_locale_pointers@@U__crt_internal_free_policy@@@@QEBAPEAU__crt_locale_pointers@@XZ 00000001800a1de0 f i libucrtd:wsetlocale.obj
 0001:000a0df0       ?get@?$__crt_unique_heap_ptr@U__crt_multibyte_data@@U__crt_internal_free_policy@@@@QEBAPEAU__crt_multibyte_data@@XZ 00000001800a1df0 f i libucrtd:wsetlocale.obj
 0001:000a0e00       ?is_valid@?$__crt_unique_heap_ptr@U__crt_locale_data@@U__crt_internal_free_policy@@@@QEBA_NXZ 00000001800a1e00 f i libucrtd:wsetlocale.obj
