 OPOSMICR

 Timestamp is 61a759a7 (Wed Dec  1 20:16:55 2021)

 Preferred load address is 0000000180000000

 Start         Length     Name                   Class
 0001:00000000 00000d90H .text$di                CODE
 0001:00000d90 000e3ff0H .text$mn                CODE
 0001:000e4d80 00000040H .text$mn$00             CODE
 0001:000e4dc0 00001330H .text$x                 CODE
 0001:000e60f0 00000124H .text$yd                CODE
 0002:00000000 000006f8H .idata$5                DATA
 0002:000006f8 00000030H .00cfg                  DATA
 0002:00000728 00000008H .CRT$XCA                DATA
 0002:00000730 00000008H .CRT$XCL                DATA
 0002:00000738 000000d8H .CRT$XCU                DATA
 0002:00000810 00000008H .CRT$XCZ                DATA
 0002:00000818 00000008H .CRT$XIA                DATA
 0002:00000820 00000028H .CRT$XIC                DATA
 0002:00000848 00000008H .CRT$XIZ                DATA
 0002:00000850 00000008H .CRT$XLA                DATA
 0002:00000858 00000008H .CRT$XLZ                DATA
 0002:00000860 00000008H .CRT$XPA                DATA
 0002:00000868 00000010H .CRT$XPX                DATA
 0002:00000878 00000008H .CRT$XPXA               DATA
 0002:00000880 00000008H .CRT$XPZ                DATA
 0002:00000888 00000008H .CRT$XTA                DATA
 0002:00000890 00000010H .CRT$XTZ                DATA
 0002:00000898 00000000H .gehcont$y              DATA
 0002:00000898 00000000H .gfids$y                DATA
 0002:000008a0 0003bee0H .rdata                  DATA
 0002:0003c780 00000080H .rdata$CastGuardVftablesA DATA
 0002:0003c800 00000080H .rdata$CastGuardVftablesC DATA
 0002:0003c880 00000028H .rdata$T                DATA
 0002:0003c8a8 0000056cH .rdata$r                DATA
 0002:0003ce14 00000180H .rdata$voltmd           DATA
 0002:0003cf94 0000049cH .rdata$zzzdbg           DATA
 0002:0003d430 00000008H .rtc$IAA                DATA
 0002:0003d438 00000030H .rtc$IMZ                DATA
 0002:0003d468 00000008H .rtc$IZZ                DATA
 0002:0003d470 00000008H .rtc$TAA                DATA
 0002:0003d478 00000030H .rtc$TMZ                DATA
 0002:0003d4a8 00000008H .rtc$TZZ                DATA
 0002:0003d4b0 00000004H .tls                    DATA
 0002:0003d4b4 00000004H .tls$                   DATA
 0002:0003d4b8 00000008H .tls$ZZZ                DATA
 0002:0003d4c0 00009f18H .xdata                  DATA
 0002:000473d8 00000150H .xdata$x                DATA
 0002:00047528 00000008H ATL$__a                 DATA
 0002:00047530 00000010H ATL$__z                 DATA
 0002:00047540 000000a8H .edata                  DATA
 0002:000475e8 00000078H .idata$2                DATA
 0002:00047660 00000018H .idata$3                DATA
 0002:00047678 000006f8H .idata$4                DATA
 0002:00047d70 00000df0H .idata$6                DATA
 0003:00000000 00000ee8H .data                   DATA
 0003:00000ee8 000000a8H .data$r                 DATA
 0003:00000f90 000000f0H .data$rs                DATA
 0003:00001080 00003e7cH .bss                    DATA
 0004:00000000 0000c7c8H .pdata                  DATA
 0005:00000000 000000fcH _RDATA                  DATA
 0006:00000000 00000220H .rsrc$01                DATA
 0006:00000220 00004048H .rsrc$02                DATA

  Address         Publics by Value              Rva+Base               Lib:Object

 0000:00000000       __guard_eh_cont_count      0000000000000000     <absolute>
 0000:00000000       __hybrid_code_map          0000000000000000     <absolute>
 0000:00000000       __arm64x_redirection_metadata 0000000000000000     <absolute>
 0000:00000000       __guard_longjmp_count      0000000000000000     <absolute>
 0000:00000000       ___safe_se_handler_table   0000000000000000     <absolute>
 0000:00000000       __AbsoluteZero             0000000000000000     <absolute>
 0000:00000000       __arm64x_extra_rfe_table_size 0000000000000000     <absolute>
 0000:00000000       __hybrid_auxiliary_iat     0000000000000000     <absolute>
 0000:00000000       __guard_iat_table          0000000000000000     <absolute>
 0000:00000000       __guard_fids_table         0000000000000000     <absolute>
 0000:00000000       __guard_iat_count          0000000000000000     <absolute>
 0000:00000000       __x64_code_ranges_to_entry_points 0000000000000000     <absolute>
 0000:00000000       __arm64x_native_entrypoint 0000000000000000     <absolute>
 0000:00000000       ___safe_se_handler_count   0000000000000000     <absolute>
 0000:00000000       __enclave_config           0000000000000000     <absolute>
 0000:00000000       __dynamic_value_reloc_table 0000000000000000     <absolute>
 0000:00000000       __guard_check_icall_a64n_fptr 0000000000000000     <absolute>
 0000:00000000       __hybrid_code_map_count    0000000000000000     <absolute>
 0000:00000000       __x64_code_ranges_to_entry_points_count 0000000000000000     <absolute>
 0000:00000000       __arm64x_extra_rfe_table   0000000000000000     <absolute>
 0000:00000000       __guard_fids_count         0000000000000000     <absolute>
 0000:00000000       __guard_longjmp_table      0000000000000000     <absolute>
 0000:00000000       __guard_eh_cont_table      0000000000000000     <absolute>
 0000:00000000       __arm64x_redirection_metadata_count 0000000000000000     <absolute>
 0000:00000000       __hybrid_auxiliary_iat_copy 0000000000000000     <absolute>
 0000:00000100       __guard_flags              0000000000000100     <absolute>
 0000:00000000       __ImageBase                0000000180000000     <linker-defined>
 0001:00000d90       ?_assert@@YAXPEB_W0I@Z     0000000180001d90 f   Assert.obj
 0001:00000e90       __local_stdio_printf_options 0000000180001e90 f i Assert.obj
 0001:00000ea0       __vswprintf_l              0000000180001ea0 f i Assert.obj
 0001:00000ef0       _swprintf                  0000000180001ef0 f i Assert.obj
 0001:00000f70       _vswprintf_c_l             0000000180001f70 f i Assert.obj
 0001:00000fe0       _vswprintf_l               0000000180001fe0 f i Assert.obj
 0001:00001030       ?cw_memcpy@@YAHPEADPEB_WH@Z 0000000180002030 f   CWString.obj
 0001:000010b0       ?cw_memcpy@@YAHPEA_WPEBDH@Z 00000001800020b0 f   CWString.obj
 0001:00001120       ?cw_memcpy@@YAHPEADPEBDH@Z 0000000180002120 f   CWString.obj
 0001:000011b0       ?cw_memcpy@@YAHPEA_WPEB_WH@Z 00000001800021b0 f   CWString.obj
 0001:00001210       ?cw_memset@@YAXPEADDH@Z    0000000180002210 f   CWString.obj
 0001:00001270       ?cw_memset@@YAXPEA_W_WH@Z  0000000180002270 f   CWString.obj
 0001:00001300       ?cw_strlen@@YAHPEBD@Z      0000000180002300 f   CWString.obj
 0001:00001360       ?cw_strlen@@YAHPEB_W@Z     0000000180002360 f   CWString.obj
 0001:000013c0       ?cw_strcpy@@YAHPEADPEB_W@Z 00000001800023c0 f   CWString.obj
 0001:00001400       ?cw_strcpy@@YAHPEA_WPEBD@Z 0000000180002400 f   CWString.obj
 0001:00001440       ?cw_strcpy@@YAHPEADPEBD@Z  0000000180002440 f   CWString.obj
 0001:00001480       ?cw_strcpy@@YAHPEA_WPEB_W@Z 0000000180002480 f   CWString.obj
 0001:000014c0       ?cw_strcat@@YAHPEADPEB_W@Z 00000001800024c0 f   CWString.obj
 0001:00001510       ?cw_strcat@@YAHPEA_WPEBD@Z 0000000180002510 f   CWString.obj
 0001:00001560       ?cw_strcat@@YAHPEADPEBD@Z  0000000180002560 f   CWString.obj
 0001:000015b0       ?cw_strcat@@YAHPEA_WPEB_W@Z 00000001800025b0 f   CWString.obj
 0001:00001600       ?cw_dup@@YAXPEBDAEAHAEAPEA_W1@Z 0000000180002600 f   CWString.obj
 0001:00001700       ?cw_dup@@YAXPEB_WAEAHAEAPEAD1@Z 0000000180002700 f   CWString.obj
 0001:000017e0       ?DupChar@_CW@@AEAAXXZ      00000001800027e0 f   CWString.obj
 0001:00001830       ?DupWide@_CW@@AEAAXXZ      0000000180002830 f   CWString.obj
 0001:00001880       ?GetCharsMbcs@_CW@@QEAAHXZ 0000000180002880 f   CWString.obj
 0001:000018e0       ?GetCharsWide@_CW@@QEAAHXZ 00000001800028e0 f   CWString.obj
 0001:00001940       ?SetVARIANT_BOOL@OposVariant@@QEAAXF@Z 0000000180002940 f   OposVariant.obj
 0001:000019a0       ?SetVARIANT_BOOL_Ptr@OposVariant@@QEAAXPEAFAEAJ@Z 00000001800029a0 f   OposVariant.obj
 0001:00001a00       ?GetLONG@OposVariant@@QEAAJXZ 0000000180002a00 f   OposVariant.obj
 0001:00001a60       ?ChangeLONG@OposVariant@@QEAAXPEAJAEAJ@Z 0000000180002a60 f   OposVariant.obj
 0001:00001b10       ?SetLONG@OposVariant@@QEAAXJ@Z 0000000180002b10 f   OposVariant.obj
 0001:00001b50       ?SetLONG_Ptr@OposVariant@@QEAAXPEAJAEAJ@Z 0000000180002b50 f   OposVariant.obj
 0001:00001bb0       ?ChangeCURRENCY@OposVariant@@QEAAXPEATtagCY@@AEAJ@Z 0000000180002bb0 f   OposVariant.obj
 0001:00001c60       ?SetCURRENCY@OposVariant@@QEAAXTtagCY@@@Z 0000000180002c60 f   OposVariant.obj
 0001:00001ca0       ?SetCURRENCY_Ptr@OposVariant@@QEAAXPEATtagCY@@AEAJ@Z 0000000180002ca0 f   OposVariant.obj
 0001:00001d00       ?ChangeBSTR@OposVariant@@QEAAXPEAPEA_WAEAJ@Z 0000000180002d00 f   OposVariant.obj
 0001:00001db0       ?SetBSTR@OposVariant@@QEAAXPEA_WAEAJ@Z 0000000180002db0 f   OposVariant.obj
 0001:00001e10       ?SetBSTR_Copy@OposVariant@@QEAAXPEA_WAEAJ@Z 0000000180002e10 f   OposVariant.obj
 0001:00001eb0       ?SetBSTR_OutPtr@OposVariant@@QEAA_NPEAPEA_WAEAJ@Z 0000000180002eb0 f   OposVariant.obj
 0001:00001f10       ?SetBSTR_InOutPtr@OposVariant@@QEAA_NPEAPEA_WAEAJ@Z 0000000180002f10 f   OposVariant.obj
 0001:00001f70       ?SetVARIANT@OposVariant@@QEAAXAEAUtagVARIANT@@GAEAJ@Z 0000000180002f70 f   OposVariant.obj
 0001:00002000       ?SetVARIANT_Ptr@OposVariant@@QEAAXAEAPEAUtagVARIANT@@GAEAJ@Z 0000000180003000 f   OposVariant.obj
 0001:000020a0       ?SetString@OposVariant@@QEAAXPEB_WAEAJ@Z 00000001800030a0 f   OposVariant.obj
 0001:00002130       ?SetDispatch_Ptr@OposVariant@@QEAAXPEAUIDispatch@@AEAJ@Z 0000000180003130 f   OposVariant.obj
 0001:000021b0       ??0OposDispParms@@QEAA@PEAVOposVariant@@H@Z 00000001800031b0 f   OposVariant.obj
 0001:000022b0       ??1OposDispParms@@QEAA@XZ  00000001800032b0 f   OposVariant.obj
 0001:000022f0       ??$AtlMultiply@_K@ATL@@YAJPEA_K_K1@Z 00000001800032f0 f i OposVariant.obj
 0001:00002360       ??0?$CHeapPtr@_WVCCRTAllocator@ATL@@@ATL@@QEAA@XZ 0000000180003360 f i OposVariant.obj
 0001:00002380       ??0?$CHeapPtrBase@_WVCCRTAllocator@ATL@@@ATL@@IEAA@XZ 0000000180003380 f i OposVariant.obj
 0001:000023a0       ??0?$CSimpleArray@GV?$CSimpleArrayEqualHelper@G@ATL@@@ATL@@QEAA@XZ 00000001800033a0 f i OposVariant.obj
 0001:000023e0       ??0?$CTraceCategoryEx@$00$0A@@ATL@@QEAA@PEB_W@Z 00000001800033e0 f i OposVariant.obj
 0001:00002410       ??0?$CTraceCategoryEx@$01$0A@@ATL@@QEAA@PEB_W@Z 0000000180003410 f i OposVariant.obj
 0001:00002440       ??0?$CTraceCategoryEx@$03$0A@@ATL@@QEAA@PEB_W@Z 0000000180003440 f i OposVariant.obj
 0001:00002470       ??0?$CTraceCategoryEx@$07$0A@@ATL@@QEAA@PEB_W@Z 0000000180003470 f i OposVariant.obj
 0001:000024a0       ??0?$CTraceCategoryEx@$0BA@$0A@@ATL@@QEAA@PEB_W@Z 00000001800034a0 f i OposVariant.obj
 0001:000024d0       ??0?$CTraceCategoryEx@$0BAA@$0A@@ATL@@QEAA@PEB_W@Z 00000001800034d0 f i OposVariant.obj
 0001:00002500       ??0?$CTraceCategoryEx@$0BAAA@$0A@@ATL@@QEAA@PEB_W@Z 0000000180003500 f i OposVariant.obj
 0001:00002530       ??0?$CTraceCategoryEx@$0BAAAA@$0A@@ATL@@QEAA@PEB_W@Z 0000000180003530 f i OposVariant.obj
 0001:00002560       ??0?$CTraceCategoryEx@$0BAAAAA@$0A@@ATL@@QEAA@PEB_W@Z 0000000180003560 f i OposVariant.obj
 0001:00002590       ??0?$CTraceCategoryEx@$0CA@$0A@@ATL@@QEAA@PEB_W@Z 0000000180003590 f i OposVariant.obj
 0001:000025c0       ??0?$CTraceCategoryEx@$0CAA@$0A@@ATL@@QEAA@PEB_W@Z 00000001800035c0 f i OposVariant.obj
 0001:000025f0       ??0?$CTraceCategoryEx@$0CAAA@$0A@@ATL@@QEAA@PEB_W@Z 00000001800035f0 f i OposVariant.obj
 0001:00002620       ??0?$CTraceCategoryEx@$0CAAAA@$0A@@ATL@@QEAA@PEB_W@Z 0000000180003620 f i OposVariant.obj
 0001:00002650       ??0?$CTraceCategoryEx@$0CAAAAA@$0A@@ATL@@QEAA@PEB_W@Z 0000000180003650 f i OposVariant.obj
 0001:00002680       ??0?$CTraceCategoryEx@$0EA@$0A@@ATL@@QEAA@PEB_W@Z 0000000180003680 f i OposVariant.obj
 0001:000026b0       ??0?$CTraceCategoryEx@$0EAA@$0A@@ATL@@QEAA@PEB_W@Z 00000001800036b0 f i OposVariant.obj
 0001:000026e0       ??0?$CTraceCategoryEx@$0EAAA@$0A@@ATL@@QEAA@PEB_W@Z 00000001800036e0 f i OposVariant.obj
 0001:00002710       ??0?$CTraceCategoryEx@$0EAAAA@$0A@@ATL@@QEAA@PEB_W@Z 0000000180003710 f i OposVariant.obj
 0001:00002740       ??0?$CTraceCategoryEx@$0EAAAAA@$0A@@ATL@@QEAA@PEB_W@Z 0000000180003740 f i OposVariant.obj
 0001:00002770       ??0?$CTraceCategoryEx@$0IA@$0A@@ATL@@QEAA@PEB_W@Z 0000000180003770 f i OposVariant.obj
 0001:000027a0       ??0?$CTraceCategoryEx@$0IAA@$0A@@ATL@@QEAA@PEB_W@Z 00000001800037a0 f i OposVariant.obj
 0001:000027d0       ??0?$CTraceCategoryEx@$0IAAA@$0A@@ATL@@QEAA@PEB_W@Z 00000001800037d0 f i OposVariant.obj
 0001:00002800       ??0?$CTraceCategoryEx@$0IAAAA@$0A@@ATL@@QEAA@PEB_W@Z 0000000180003800 f i OposVariant.obj
 0001:00002830       ??0CAtlComModule@ATL@@QEAA@XZ 0000000180003830 f i OposVariant.obj
 0001:00002940       ??0CAtlWinModule@ATL@@QEAA@XZ 0000000180003940 f i OposVariant.obj
 0001:000029e0       ??0CComCriticalSection@ATL@@QEAA@XZ 00000001800039e0 f i OposVariant.obj
 0001:00002a10       ??0CPreserveLastError@ATL@@QEAA@XZ 0000000180003a10 f i OposVariant.obj
 0001:00002a40       ??0CTraceFileAndLineInfo@ATL@@QEAA@PEBDH@Z 0000000180003a40 f i OposVariant.obj
 0001:00002a70       ??0_ATL_COM_MODULE70@ATL@@QEAA@XZ 0000000180003a70 f i OposVariant.obj
 0001:00002aa0       ??0_ATL_WIN_MODULE70@ATL@@QEAA@XZ 0000000180003aa0 f i OposVariant.obj
 0001:00002ae0       ??1?$CHeapPtr@_WVCCRTAllocator@ATL@@@ATL@@QEAA@XZ 0000000180003ae0 f i OposVariant.obj
 0001:00002b00       ??1?$CHeapPtrBase@_WVCCRTAllocator@ATL@@@ATL@@QEAA@XZ 0000000180003b00 f i OposVariant.obj
 0001:00002b20       ??1?$CSimpleArray@GV?$CSimpleArrayEqualHelper@G@ATL@@@ATL@@QEAA@XZ 0000000180003b20 f i OposVariant.obj
 0001:00002b40       ??1CAtlComModule@ATL@@QEAA@XZ 0000000180003b40 f i OposVariant.obj
 0001:00002b70       ??1CAtlWinModule@ATL@@QEAA@XZ 0000000180003b70 f i OposVariant.obj
 0001:00002ba0       ??1CComBSTR@ATL@@QEAA@XZ   0000000180003ba0 f i OposVariant.obj
 0001:00002bc0       ??1CComCriticalSection@ATL@@QEAA@XZ 0000000180003bc0 f i OposVariant.obj
 0001:00002bd0       ??1CPreserveLastError@ATL@@QEAA@XZ 0000000180003bd0 f i OposVariant.obj
 0001:00002bf0       ??1_ATL_COM_MODULE70@ATL@@QEAA@XZ 0000000180003bf0 f i OposVariant.obj
 0001:00002c20       ??1_ATL_WIN_MODULE70@ATL@@QEAA@XZ 0000000180003c20 f i OposVariant.obj
 0001:00002c60       ??1stringdispid@CComTypeInfoHolder@ATL@@QEAA@XZ 0000000180003c60 f i OposVariant.obj
 0001:00002c80       ??A?$CSimpleArray@GV?$CSimpleArrayEqualHelper@G@ATL@@@ATL@@QEAAAEAGH@Z 0000000180003c80 f i OposVariant.obj
 0001:00002d20       ??B?$CHeapPtrBase@_WVCCRTAllocator@ATL@@@ATL@@QEBAPEA_WXZ 0000000180003d20 f i OposVariant.obj
 0001:00002d30       ??B?$CTraceCategoryEx@$01$0A@@ATL@@QEAAIXZ 0000000180003d30 f i OposVariant.obj
 0001:00002d40       ??B?$CTraceCategoryEx@$0CA@$0A@@ATL@@QEAAIXZ 0000000180003d40 f i OposVariant.obj
 0001:00002d50       ??RCTraceFileAndLineInfo@ATL@@QEBAXHIPEB_WZZ 0000000180003d50 f i OposVariant.obj
 0001:00002e10       ??_Estringdispid@CComTypeInfoHolder@ATL@@QEAAPEAXI@Z 0000000180003e10 f i OposVariant.obj
 0001:00002eb0       ??_H@YAXPEAX_K1P6APEAX0@Z@Z 0000000180003eb0 f i OposVariant.obj
 0001:00002f30       ??_I@YAXPEAX_K1P6AX0@Z@Z   0000000180003f30 f i OposVariant.obj
 0001:00002fd0       ?Allocate@?$CHeapPtr@_WVCCRTAllocator@ATL@@@ATL@@QEAA_N_K@Z 0000000180003fd0 f i OposVariant.obj
 0001:00003050       ?Allocate@CCRTAllocator@ATL@@SAPEAX_K@Z 0000000180004050 f i OposVariant.obj
 0001:00003070       ?AllocateBytes@?$CHeapPtrBase@_WVCCRTAllocator@ATL@@@ATL@@QEAA_N_K@Z 0000000180004070 f i OposVariant.obj
 0001:000030f0       ?AtlWinModuleInit@ATL@@YAJPEAU_ATL_WIN_MODULE70@1@@Z 00000001800040f0 f i OposVariant.obj
 0001:000031e0       ?AtlWinModuleTerm@ATL@@YAJPEAU_ATL_WIN_MODULE70@1@PEAUHINSTANCE__@@@Z 00000001800041e0 f i OposVariant.obj
 0001:000032b0       ?Clear@OposVariant@@QEAAJXZ 00000001800042b0 f i OposVariant.obj
 0001:000032e0       ?Free@?$CHeapPtrBase@_WVCCRTAllocator@ATL@@@ATL@@QEAAXXZ 00000001800042e0 f i OposVariant.obj
 0001:00003310       ?Free@CCRTAllocator@ATL@@SAXPEAX@Z 0000000180004310 f i OposVariant.obj
 0001:00003330       ?GetCategoryName@CTrace@ATL@@CAPEA_WI@Z 0000000180004330 f i OposVariant.obj
 0001:000033a0       ?GetModuleInstance@CAtlBaseModule@ATL@@QEAAPEAUHINSTANCE__@@XZ 00000001800043a0 f i OposVariant.obj
 0001:000033c0       ?GetSize@?$CSimpleArray@GV?$CSimpleArrayEqualHelper@G@ATL@@@ATL@@QEBAHXZ 00000001800043c0 f i OposVariant.obj
 0001:000033d0       ?Init@CComCriticalSection@ATL@@QEAAJXZ 00000001800043d0 f i OposVariant.obj
 0001:00003420       ?RegisterCategory@CTrace@ATL@@SAXPEB_WI@Z 0000000180004420 f i OposVariant.obj
 0001:000034e0       ?RemoveAll@?$CSimpleArray@GV?$CSimpleArrayEqualHelper@G@ATL@@@ATL@@QEAAXXZ 00000001800044e0 f i OposVariant.obj
 0001:00003550       ?Term@CAtlComModule@ATL@@QEAAXXZ 0000000180004550 f i OposVariant.obj
 0001:00003620       ?Term@CAtlWinModule@ATL@@QEAAXXZ 0000000180004620 f i OposVariant.obj
 0001:00003650       ?Term@CComCriticalSection@ATL@@QEAAJXZ 0000000180004650 f i OposVariant.obj
 0001:00003670       ?TraceV@CTrace@ATL@@CAXPEBDHIIPEB_W@Z 0000000180004670 f i OposVariant.obj
 0001:00003920       ?TraceV@CTrace@ATL@@SAXPEBDHIIPEB_WPEAD@Z 0000000180004920 f i OposVariant.obj
 0001:00003ad0       ?_AtlInitializeCriticalSectionEx@ATL@@YAHPEAU_RTL_CRITICAL_SECTION@@KK@Z 0000000180004ad0 f i OposVariant.obj
 0001:00003b00       ?_AtlRaiseException@ATL@@YAXKK@Z 0000000180004b00 f i OposVariant.obj
 0001:00003b30       HRESULT_FROM_WIN32         0000000180004b30 f i OposVariant.obj
 0001:00003b70       _vswprintf_s_l             0000000180004b70 f i OposVariant.obj
 0001:00003be0       swprintf_s                 0000000180004be0 f i OposVariant.obj
 0001:00003c70       ?ObjectMain@CComObjectRootBase@ATL@@SAX_N@Z 0000000180004c70 f i MICR.obj
 0001:00003c80       ?GetCategoryMap@CComObjectRootBase@ATL@@SAPEBU_ATL_CATMAP_ENTRY@2@XZ 0000000180004c80 f i MICR.obj
 0001:00003c90       ?GetObjectDescription@?$CComCoClass@VCOPOSMICR@@$1?CLSID_OPOSMICR@@3U_GUID@@B@ATL@@SAPEB_WXZ 0000000180004c90 f i MICR.obj
 0001:00003ca0       ?UpdateRegistry@COPOSMICR@@SAJH@Z 0000000180004ca0 f i MICR.obj
 0001:00003cd0       ?CreateInstance@?$CComCreator@V?$CComObjectCached@VCComClassFactory@ATL@@@ATL@@@ATL@@SAJPEAXAEBU_GUID@@PEAPEAX@Z 0000000180004cd0 f i MICR.obj
 0001:00003ea0       ?CreateInstance@?$CComCreator2@V?$CComCreator@V?$CComObject@VCOPOSMICR@@@ATL@@@ATL@@V?$CComCreator@V?$CComAggObject@VCOPOSMICR@@@ATL@@@2@@ATL@@SAJPEAXAEBU_GUID@@PEAPEAX@Z 0000000180004ea0 f i MICR.obj
 0001:00004090       DllGetClassObject          0000000180005090 f   MICR.obj
 0001:000040d0       DllCanUnloadNow            00000001800050d0 f   MICR.obj
 0001:00004110       DllRegisterServer          0000000180005110 f   MICR.obj
 0001:00004140       DllUnregisterServer        0000000180005140 f   MICR.obj
 0001:00004300       DllMain                    0000000180005300 f   MICR.obj
 0001:00004370       ??$?2G@Wrapper@?$CSimpleArray@GV?$CSimpleArrayEqualHelper@G@ATL@@@ATL@@SAPEAX_KPEAG@Z 0000000180005370 f i MICR.obj
 0001:00004390       ??$?2PEA_W@?$Wrapper@PEA_W@?$CSimpleMap@PEA_WPEA_WVCExpansionVectorEqualHelper@ATL@@@ATL@@SAPEAX_KPEAPEA_W@Z 0000000180005390 f i MICR.obj
 0001:000043b0       ??$?4UITypeInfo2@@@?$CComPtr@UITypeInfo@@@ATL@@QEAAPEAUITypeInfo@@AEBV?$CComPtr@UITypeInfo2@@@1@@Z 00000001800053b0 f i MICR.obj
 0001:00004410       ??$AtlAdd@_K@ATL@@YAJPEA_K_K1@Z 0000000180005410 f i MICR.obj
 0001:00004470       ??$AtlAddThrow@_K@ATL@@YA_K_K0@Z 0000000180005470 f i MICR.obj
 0001:000044e0       ??$AtlModuleRegisterWndClassInfoT@VAtlModuleRegisterWndClassInfoParamW@ATL@@@ATL@@YAGPEAU_ATL_BASE_MODULE70@0@PEAU_ATL_WIN_MODULE70@0@PEAU_ATL_WNDCLASSINFOW@0@PEAP6A_JPEAUHWND__@@I_K_J@ZVAtlModuleRegisterWndClassInfoParamW@0@@Z 00000001800054e0 f i MICR.obj
 0001:00004ab0       ??$AtlMultiply@H@ATL@@YAJPEAHHH@Z 0000000180005ab0 f i MICR.obj
 0001:00004b10       ??$AtlMultiply@K@ATL@@YAJPEAKKK@Z 0000000180005b10 f i MICR.obj
 0001:00004b60       ??$AtlMultiplyThrow@_K@ATL@@YA_K_K0@Z 0000000180005b60 f i MICR.obj
 0001:00004bd0       ??$QueryInterface@UIPersistStream@@@IUnknown@@QEAAJPEAPEAUIPersistStream@@@Z 0000000180005bd0 f i MICR.obj
 0001:00004c00       ??$QueryInterface@UITypeInfo2@@@IUnknown@@QEAAJPEAPEAUITypeInfo2@@@Z 0000000180005c00 f i MICR.obj
 0001:00004c30       ??0?$CAtlModuleT@VCComModule@ATL@@@ATL@@QEAA@XZ 0000000180005c30 f i MICR.obj
 0001:00004c60       ??0?$CAtlSafeAllocBufferManager@VCCRTAllocator@ATL@@@_ATL_SAFE_ALLOCA_IMPL@ATL@@QEAA@XZ 0000000180005c60 f i MICR.obj
 0001:00004c80       ??0?$CAutoVectorPtr@_W@ATL@@QEAA@XZ 0000000180005c80 f i MICR.obj
 0001:00004ca0       ??0?$CComAggObject@VCOPOSMICR@@@ATL@@QEAA@PEAX@Z 0000000180005ca0 f i MICR.obj
 0001:00004d10       ??0?$CComContainedObject@VCOPOSMICR@@@ATL@@QEAA@PEAX@Z 0000000180005d10 f i MICR.obj
 0001:00004ea0       ??0?$CComCritSecLock@VCComCriticalSection@ATL@@@ATL@@QEAA@AEAVCComCriticalSection@1@_N@Z 0000000180005ea0 f i MICR.obj
 0001:00004f00       ??0?$CComEnum@UIEnumConnectionPoints@@$1?_GUID_b196b285_bab4_101a_b69c_00aa00341d07@@3U__s_GUID@@BPEAUIConnectionPoint@@V?$_CopyInterface@UIConnectionPoint@@@ATL@@VCComSingleThreadModel@6@@ATL@@QEAA@XZ 0000000180005f00 f i MICR.obj
 0001:00004f30       ??0?$CComEnum@UIEnumConnections@@$1?_GUID_b196b287_bab4_101a_b69c_00aa00341d07@@3U__s_GUID@@BUtagCONNECTDATA@@V?$_Copy@UtagCONNECTDATA@@@ATL@@VCComSingleThreadModel@6@@ATL@@QEAA@XZ 0000000180005f30 f i MICR.obj
 0001:00004f60       ??0?$CComEnumImpl@UIEnumConnectionPoints@@$1?_GUID_b196b285_bab4_101a_b69c_00aa00341d07@@3U__s_GUID@@BPEAUIConnectionPoint@@V?$_CopyInterface@UIConnectionPoint@@@ATL@@@ATL@@QEAA@XZ 0000000180005f60 f i MICR.obj
 0001:00004fd0       ??0?$CComEnumImpl@UIEnumConnections@@$1?_GUID_b196b287_bab4_101a_b69c_00aa00341d07@@3U__s_GUID@@BUtagCONNECTDATA@@V?$_Copy@UtagCONNECTDATA@@@ATL@@@ATL@@QEAA@XZ 0000000180005fd0 f i MICR.obj
 0001:00005040       ??0?$CComObject@V?$CComEnum@UIEnumConnectionPoints@@$1?_GUID_b196b285_bab4_101a_b69c_00aa00341d07@@3U__s_GUID@@BPEAUIConnectionPoint@@V?$_CopyInterface@UIConnectionPoint@@@ATL@@VCComSingleThreadModel@6@@ATL@@@ATL@@QEAA@PEAX@Z 0000000180006040 f i MICR.obj
 0001:00005090       ??0?$CComObject@V?$CComEnum@UIEnumConnections@@$1?_GUID_b196b287_bab4_101a_b69c_00aa00341d07@@3U__s_GUID@@BUtagCONNECTDATA@@V?$_Copy@UtagCONNECTDATA@@@ATL@@VCComSingleThreadModel@6@@ATL@@@ATL@@QEAA@PEAX@Z 0000000180006090 f i MICR.obj
 0001:000050e0       ??0?$CComObject@VCOPOSMICR@@@ATL@@QEAA@PEAX@Z 00000001800060e0 f i MICR.obj
 0001:00005270       ??0?$CComObjectCached@VCComClassFactory@ATL@@@ATL@@QEAA@PEAX@Z 0000000180006270 f i MICR.obj
 0001:000052b0       ??0?$CComObjectRootEx@VCComMultiThreadModel@ATL@@@ATL@@QEAA@XZ 00000001800062b0 f i MICR.obj
 0001:000052e0       ??0?$CComObjectRootEx@VCComSingleThreadModel@ATL@@@ATL@@QEAA@XZ 00000001800062e0 f i MICR.obj
 0001:00005300       ??0?$CComPtr@UIAdviseSink@@@ATL@@QEAA@PEAUIAdviseSink@@@Z 0000000180006300 f i MICR.obj
 0001:00005330       ??0?$CComPtr@UICatRegister@@@ATL@@QEAA@XZ 0000000180006330 f i MICR.obj
 0001:00005350       ??0?$CComPtr@UIConnectionPoint@@@ATL@@QEAA@XZ 0000000180006350 f i MICR.obj
 0001:00005370       ??0?$CComPtr@UIConnectionPointContainer@@@ATL@@QEAA@XZ 0000000180006370 f i MICR.obj
 0001:00005390       ??0?$CComPtr@UIDataObject@@@ATL@@QEAA@XZ 0000000180006390 f i MICR.obj
 0001:000053b0       ??0?$CComPtr@UIDispatch@@@ATL@@QEAA@XZ 00000001800063b0 f i MICR.obj
 0001:000053d0       ??0?$CComPtr@UIOleClientSite@@@ATL@@QEAA@PEAUIOleClientSite@@@Z 00000001800063d0 f i MICR.obj
 0001:00005400       ??0?$CComPtr@UIOleControlSite@@@ATL@@QEAA@XZ 0000000180006400 f i MICR.obj
 0001:00005420       ??0?$CComPtr@UIOleInPlaceActiveObject@@@ATL@@QEAA@XZ 0000000180006420 f i MICR.obj
 0001:00005440       ??0?$CComPtr@UIOleInPlaceFrame@@@ATL@@QEAA@XZ 0000000180006440 f i MICR.obj
 0001:00005460       ??0?$CComPtr@UIOleInPlaceObject@@@ATL@@QEAA@XZ 0000000180006460 f i MICR.obj
 0001:00005480       ??0?$CComPtr@UIOleInPlaceUIWindow@@@ATL@@QEAA@XZ 0000000180006480 f i MICR.obj
 0001:000054a0       ??0?$CComPtr@UIOleObject@@@ATL@@QEAA@XZ 00000001800064a0 f i MICR.obj
 0001:000054c0       ??0?$CComPtr@UIPersistStream@@@ATL@@QEAA@XZ 00000001800064c0 f i MICR.obj
 0001:000054e0       ??0?$CComPtr@UIPersistStreamInit@@@ATL@@QEAA@XZ 00000001800064e0 f i MICR.obj
 0001:00005500       ??0?$CComPtr@UIPointerInactive@@@ATL@@QEAA@XZ 0000000180006500 f i MICR.obj
 0001:00005520       ??0?$CComPtr@UIProvideClassInfo2@@@ATL@@QEAA@XZ 0000000180006520 f i MICR.obj
 0001:00005540       ??0?$CComPtr@UISpecifyPropertyPages@@@ATL@@QEAA@XZ 0000000180006540 f i MICR.obj
 0001:00005560       ??0?$CComPtr@UIStream@@@ATL@@QEAA@XZ 0000000180006560 f i MICR.obj
 0001:00005580       ??0?$CComPtr@UITypeInfo2@@@ATL@@QEAA@XZ 0000000180006580 f i MICR.obj
 0001:000055a0       ??0?$CComPtr@UITypeInfo@@@ATL@@QEAA@AEBV01@@Z 00000001800065a0 f i MICR.obj
 0001:000055d0       ??0?$CComPtr@UITypeInfo@@@ATL@@QEAA@XZ 00000001800065d0 f i MICR.obj
 0001:000055f0       ??0?$CComPtr@UITypeLib@@@ATL@@QEAA@XZ 00000001800065f0 f i MICR.obj
 0001:00005610       ??0?$CComPtr@UIUnknown@@@ATL@@QEAA@AEBV01@@Z 0000000180006610 f i MICR.obj
 0001:00005640       ??0?$CComPtr@UIUnknown@@@ATL@@QEAA@PEAUIUnknown@@@Z 0000000180006640 f i MICR.obj
 0001:00005670       ??0?$CComPtr@UIUnknown@@@ATL@@QEAA@XZ 0000000180006670 f i MICR.obj
 0001:00005690       ??0?$CComPtr@UIViewObjectEx@@@ATL@@QEAA@XZ 0000000180006690 f i MICR.obj
 0001:000056b0       ??0?$CComPtrBase@UIAdviseSink@@@ATL@@IEAA@PEAUIAdviseSink@@@Z 00000001800066b0 f i MICR.obj
 0001:00005700       ??0?$CComPtrBase@UICatRegister@@@ATL@@IEAA@XZ 0000000180006700 f i MICR.obj
 0001:00005720       ??0?$CComPtrBase@UIConnectionPoint@@@ATL@@IEAA@XZ 0000000180006720 f i MICR.obj
 0001:00005740       ??0?$CComPtrBase@UIConnectionPointContainer@@@ATL@@IEAA@XZ 0000000180006740 f i MICR.obj
 0001:00005760       ??0?$CComPtrBase@UIDataObject@@@ATL@@IEAA@XZ 0000000180006760 f i MICR.obj
 0001:00005780       ??0?$CComPtrBase@UIDispatch@@@ATL@@IEAA@XZ 0000000180006780 f i MICR.obj
 0001:000057a0       ??0?$CComPtrBase@UIOleClientSite@@@ATL@@IEAA@PEAUIOleClientSite@@@Z 00000001800067a0 f i MICR.obj
 0001:000057f0       ??0?$CComPtrBase@UIOleControlSite@@@ATL@@IEAA@XZ 00000001800067f0 f i MICR.obj
 0001:00005810       ??0?$CComPtrBase@UIOleInPlaceActiveObject@@@ATL@@IEAA@XZ 0000000180006810 f i MICR.obj
 0001:00005830       ??0?$CComPtrBase@UIOleInPlaceFrame@@@ATL@@IEAA@XZ 0000000180006830 f i MICR.obj
 0001:00005850       ??0?$CComPtrBase@UIOleInPlaceObject@@@ATL@@IEAA@XZ 0000000180006850 f i MICR.obj
 0001:00005870       ??0?$CComPtrBase@UIOleInPlaceUIWindow@@@ATL@@IEAA@XZ 0000000180006870 f i MICR.obj
 0001:00005890       ??0?$CComPtrBase@UIOleObject@@@ATL@@IEAA@XZ 0000000180006890 f i MICR.obj
 0001:000058b0       ??0?$CComPtrBase@UIPersistStream@@@ATL@@IEAA@XZ 00000001800068b0 f i MICR.obj
 0001:000058d0       ??0?$CComPtrBase@UIPersistStreamInit@@@ATL@@IEAA@XZ 00000001800068d0 f i MICR.obj
 0001:000058f0       ??0?$CComPtrBase@UIPointerInactive@@@ATL@@IEAA@XZ 00000001800068f0 f i MICR.obj
 0001:00005910       ??0?$CComPtrBase@UIProvideClassInfo2@@@ATL@@IEAA@XZ 0000000180006910 f i MICR.obj
 0001:00005930       ??0?$CComPtrBase@UISpecifyPropertyPages@@@ATL@@IEAA@XZ 0000000180006930 f i MICR.obj
 0001:00005950       ??0?$CComPtrBase@UIStream@@@ATL@@IEAA@XZ 0000000180006950 f i MICR.obj
 0001:00005970       ??0?$CComPtrBase@UITypeInfo2@@@ATL@@IEAA@XZ 0000000180006970 f i MICR.obj
 0001:00005990       ??0?$CComPtrBase@UITypeInfo@@@ATL@@IEAA@PEAUITypeInfo@@@Z 0000000180006990 f i MICR.obj
 0001:000059e0       ??0?$CComPtrBase@UITypeInfo@@@ATL@@IEAA@XZ 00000001800069e0 f i MICR.obj
 0001:00005a00       ??0?$CComPtrBase@UITypeLib@@@ATL@@IEAA@XZ 0000000180006a00 f i MICR.obj
 0001:00005a20       ??0?$CComPtrBase@UIUnknown@@@ATL@@IEAA@PEAUIUnknown@@@Z 0000000180006a20 f i MICR.obj
 0001:00005a70       ??0?$CComPtrBase@UIUnknown@@@ATL@@IEAA@XZ 0000000180006a70 f i MICR.obj
 0001:00005a90       ??0?$CComPtrBase@UIViewObjectEx@@@ATL@@IEAA@XZ 0000000180006a90 f i MICR.obj
 0001:00005ab0       ??0?$CComQIPtr@UIOleControlSite@@$1?_GUID_b196b289_bab4_101a_b69c_00aa00341d07@@3U__s_GUID@@B@ATL@@QEAA@PEAUIUnknown@@@Z 0000000180006ab0 f i MICR.obj
 0001:00005b10       ??0?$CComQIPtr@UIOleObject@@$1?_GUID_00000112_0000_0000_c000_000000000046@@3U__s_GUID@@B@ATL@@QEAA@XZ 0000000180006b10 f i MICR.obj
 0001:00005b30       ??0?$CComQIPtr@UISpecifyPropertyPages@@$1?_GUID_b196b28b_bab4_101a_b69c_00aa00341d07@@3U__s_GUID@@B@ATL@@QEAA@XZ 0000000180006b30 f i MICR.obj
 0001:00005b50       ??0?$CSimpleMap@PEA_WPEA_WVCExpansionVectorEqualHelper@ATL@@@ATL@@QEAA@XZ 0000000180006b50 f i MICR.obj
 0001:00005b90       ??0?$CTempBuffer@E$0BAA@VCCRTAllocator@ATL@@@ATL@@QEAA@XZ 0000000180006b90 f i MICR.obj
 0001:00005bb0       ??0?$CTempBuffer@_W$0BAA@VCCRTAllocator@ATL@@@ATL@@QEAA@XZ 0000000180006bb0 f i MICR.obj
 0001:00005bd0       ??0?$CTempBuffer@_W$0EAA@VCCRTAllocator@ATL@@@ATL@@QEAA@XZ 0000000180006bd0 f i MICR.obj
 0001:00005bf0       ??0?$Wrapper@PEA_W@?$CSimpleMap@PEA_WPEA_WVCExpansionVectorEqualHelper@ATL@@@ATL@@QEAA@AEBQEA_W@Z 0000000180006bf0 f i MICR.obj
 0001:00005c20       ??0CAtlModule@ATL@@QEAA@XZ 0000000180006c20 f i MICR.obj
 0001:00005d80       ??0CComAutoDeleteCriticalSection@ATL@@QEAA@XZ 0000000180006d80 f i MICR.obj
 0001:00005da0       ??0CComBSTR@ATL@@QEAA@XZ   0000000180006da0 f i MICR.obj
 0001:00005dc0       ??0CComClassFactory@ATL@@QEAA@XZ 0000000180006dc0 f i MICR.obj
 0001:00005e00       ??0CComModule@ATL@@QEAA@XZ 0000000180006e00 f i MICR.obj
 0001:00005e80       ??0CComObjectRootBase@ATL@@QEAA@XZ 0000000180006e80 f i MICR.obj
 0001:00005ea0       ??0CComSafeDeleteCriticalSection@ATL@@QEAA@XZ 0000000180006ea0 f i MICR.obj
 0001:00005ed0       ??0CComVariant@ATL@@QEAA@XZ 0000000180006ed0 f i MICR.obj
 0001:00005f10       ??0CExpansionVector@ATL@@QEAA@XZ 0000000180006f10 f i MICR.obj
 0001:00005f30       ??0CParseBuffer@CRegParser@ATL@@QEAA@H@Z 0000000180006f30 f i MICR.obj
 0001:00005fb0       ??0CRegKey@ATL@@QEAA@PEAUHKEY__@@@Z 0000000180006fb0 f i MICR.obj
 0001:00005ff0       ??0CRegKey@ATL@@QEAA@PEAVCAtlTransactionManager@1@@Z 0000000180006ff0 f i MICR.obj
 0001:00006030       ??0CRegObject@ATL@@QEAA@XZ 0000000180007030 f i MICR.obj
 0001:00006070       ??0CRegParser@ATL@@QEAA@PEAVCRegObject@1@@Z 0000000180007070 f i MICR.obj
 0001:000060a0       ??0IClassFactory@@QEAA@XZ  00000001800070a0 f i MICR.obj
 0001:000060c0       ??0IEnumConnectionPoints@@QEAA@XZ 00000001800070c0 f i MICR.obj
 0001:000060e0       ??0IEnumConnections@@QEAA@XZ 00000001800070e0 f i MICR.obj
 0001:00006100       ??0IRegistrarBase@@QEAA@XZ 0000000180007100 f i MICR.obj
 0001:00006120       ??0IUnknown@@QEAA@XZ       0000000180007120 f i MICR.obj
 0001:00006130       ??0ModuleLockHelper@ATL@@QEAA@XZ 0000000180007130 f i MICR.obj
 0001:00006160       ??0OposVariant@@QEAA@XZ    0000000180007160 f i MICR.obj
 0001:00006180       ??0Wrapper@?$CSimpleArray@GV?$CSimpleArrayEqualHelper@G@ATL@@@ATL@@QEAA@AEBG@Z 0000000180007180 f i MICR.obj
 0001:000061b0       ??0_ATL_MODULE70@ATL@@QEAA@XZ 00000001800071b0 f i MICR.obj
 0001:000061e0       ??0_ATL_MSG@ATL@@QEAA@PEAUHWND__@@I_K_JH@Z 00000001800071e0 f i MICR.obj
 0001:00006270       ??0_U_MENUorID@ATL@@QEAA@I@Z 0000000180007270 f i MICR.obj
 0001:00006290       ??0_U_RECT@ATL@@QEAA@AEAUtagRECT@@@Z 0000000180007290 f i MICR.obj
 0001:000062b0       ??0stringdispid@CComTypeInfoHolder@ATL@@QEAA@XZ 00000001800072b0 f i MICR.obj
 0001:000062f0       ??1?$CAtlModuleT@VCComModule@ATL@@@ATL@@UEAA@XZ 00000001800072f0 f i MICR.obj
 0001:00006310       ??1?$CAtlSafeAllocBufferManager@VCCRTAllocator@ATL@@@_ATL_SAFE_ALLOCA_IMPL@ATL@@QEAA@XZ 0000000180007310 f i MICR.obj
 0001:00006360       ??1?$CAutoVectorPtr@_W@ATL@@QEAA@XZ 0000000180007360 f i MICR.obj
 0001:00006380       ??1?$CComAggObject@VCOPOSMICR@@@ATL@@UEAA@XZ 0000000180007380 f i MICR.obj
 0001:000063f0       ??1?$CComContainedObject@VCOPOSMICR@@@ATL@@UEAA@XZ 00000001800073f0 f i MICR.obj
 0001:00006410       ??1?$CComCritSecLock@VCComCriticalSection@ATL@@@ATL@@QEAA@XZ 0000000180007410 f i MICR.obj
 0001:00006440       ??1?$CComEnum@UIEnumConnectionPoints@@$1?_GUID_b196b285_bab4_101a_b69c_00aa00341d07@@3U__s_GUID@@BPEAUIConnectionPoint@@V?$_CopyInterface@UIConnectionPoint@@@ATL@@VCComSingleThreadModel@6@@ATL@@UEAA@XZ 0000000180007440 f i MICR.obj
 0001:00006470       ??1?$CComEnum@UIEnumConnections@@$1?_GUID_b196b287_bab4_101a_b69c_00aa00341d07@@3U__s_GUID@@BUtagCONNECTDATA@@V?$_Copy@UtagCONNECTDATA@@@ATL@@VCComSingleThreadModel@6@@ATL@@UEAA@XZ 0000000180007470 f i MICR.obj
 0001:000064a0       ??1?$CComEnumImpl@UIEnumConnectionPoints@@$1?_GUID_b196b285_bab4_101a_b69c_00aa00341d07@@3U__s_GUID@@BPEAUIConnectionPoint@@V?$_CopyInterface@UIConnectionPoint@@@ATL@@@ATL@@UEAA@XZ 00000001800074a0 f i MICR.obj
 0001:00006530       ??1?$CComEnumImpl@UIEnumConnections@@$1?_GUID_b196b287_bab4_101a_b69c_00aa00341d07@@3U__s_GUID@@BUtagCONNECTDATA@@V?$_Copy@UtagCONNECTDATA@@@ATL@@@ATL@@UEAA@XZ 0000000180007530 f i MICR.obj
 0001:000065c0       ??1?$CComObject@V?$CComEnum@UIEnumConnectionPoints@@$1?_GUID_b196b285_bab4_101a_b69c_00aa00341d07@@3U__s_GUID@@BPEAUIConnectionPoint@@V?$_CopyInterface@UIConnectionPoint@@@ATL@@VCComSingleThreadModel@6@@ATL@@@ATL@@UEAA@XZ 00000001800075c0 f i MICR.obj
 0001:00006620       ??1?$CComObject@V?$CComEnum@UIEnumConnections@@$1?_GUID_b196b287_bab4_101a_b69c_00aa00341d07@@3U__s_GUID@@BUtagCONNECTDATA@@V?$_Copy@UtagCONNECTDATA@@@ATL@@VCComSingleThreadModel@6@@ATL@@@ATL@@UEAA@XZ 0000000180007620 f i MICR.obj
 0001:00006680       ??1?$CComObject@VCOPOSMICR@@@ATL@@UEAA@XZ 0000000180007680 f i MICR.obj
 0001:00006820       ??1?$CComObjectCached@VCComClassFactory@ATL@@@ATL@@UEAA@XZ 0000000180007820 f i MICR.obj
 0001:00006870       ??1?$CComObjectRootEx@VCComMultiThreadModel@ATL@@@ATL@@QEAA@XZ 0000000180007870 f i MICR.obj
 0001:000068a0       ??1?$CComObjectRootEx@VCComSingleThreadModel@ATL@@@ATL@@QEAA@XZ 00000001800078a0 f i MICR.obj
 0001:000068c0       ??1?$CComPtr@UIAdviseSink@@@ATL@@QEAA@XZ 00000001800078c0 f i MICR.obj
 0001:000068e0       ??1?$CComPtr@UICatRegister@@@ATL@@QEAA@XZ 00000001800078e0 f i MICR.obj
 0001:00006900       ??1?$CComPtr@UIConnectionPoint@@@ATL@@QEAA@XZ 0000000180007900 f i MICR.obj
 0001:00006920       ??1?$CComPtr@UIConnectionPointContainer@@@ATL@@QEAA@XZ 0000000180007920 f i MICR.obj
 0001:00006940       ??1?$CComPtr@UIDataObject@@@ATL@@QEAA@XZ 0000000180007940 f i MICR.obj
 0001:00006960       ??1?$CComPtr@UIDispatch@@@ATL@@QEAA@XZ 0000000180007960 f i MICR.obj
 0001:00006980       ??1?$CComPtr@UIOleClientSite@@@ATL@@QEAA@XZ 0000000180007980 f i MICR.obj
 0001:000069a0       ??1?$CComPtr@UIOleControlSite@@@ATL@@QEAA@XZ 00000001800079a0 f i MICR.obj
 0001:000069c0       ??1?$CComPtr@UIOleInPlaceActiveObject@@@ATL@@QEAA@XZ 00000001800079c0 f i MICR.obj
 0001:000069e0       ??1?$CComPtr@UIOleInPlaceFrame@@@ATL@@QEAA@XZ 00000001800079e0 f i MICR.obj
 0001:00006a00       ??1?$CComPtr@UIOleInPlaceObject@@@ATL@@QEAA@XZ 0000000180007a00 f i MICR.obj
 0001:00006a20       ??1?$CComPtr@UIOleInPlaceUIWindow@@@ATL@@QEAA@XZ 0000000180007a20 f i MICR.obj
 0001:00006a40       ??1?$CComPtr@UIOleObject@@@ATL@@QEAA@XZ 0000000180007a40 f i MICR.obj
 0001:00006a60       ??1?$CComPtr@UIPersistStream@@@ATL@@QEAA@XZ 0000000180007a60 f i MICR.obj
 0001:00006a80       ??1?$CComPtr@UIPersistStreamInit@@@ATL@@QEAA@XZ 0000000180007a80 f i MICR.obj
 0001:00006aa0       ??1?$CComPtr@UIPointerInactive@@@ATL@@QEAA@XZ 0000000180007aa0 f i MICR.obj
 0001:00006ac0       ??1?$CComPtr@UIProvideClassInfo2@@@ATL@@QEAA@XZ 0000000180007ac0 f i MICR.obj
 0001:00006ae0       ??1?$CComPtr@UISpecifyPropertyPages@@@ATL@@QEAA@XZ 0000000180007ae0 f i MICR.obj
 0001:00006b00       ??1?$CComPtr@UIStream@@@ATL@@QEAA@XZ 0000000180007b00 f i MICR.obj
 0001:00006b20       ??1?$CComPtr@UITypeInfo2@@@ATL@@QEAA@XZ 0000000180007b20 f i MICR.obj
 0001:00006b40       ??1?$CComPtr@UITypeInfo@@@ATL@@QEAA@XZ 0000000180007b40 f i MICR.obj
 0001:00006b60       ??1?$CComPtr@UITypeLib@@@ATL@@QEAA@XZ 0000000180007b60 f i MICR.obj
 0001:00006b80       ??1?$CComPtr@UIUnknown@@@ATL@@QEAA@XZ 0000000180007b80 f i MICR.obj
 0001:00006ba0       ??1?$CComPtr@UIViewObjectEx@@@ATL@@QEAA@XZ 0000000180007ba0 f i MICR.obj
 0001:00006bc0       ??1?$CComPtrBase@UIAdviseSink@@@ATL@@QEAA@XZ 0000000180007bc0 f i MICR.obj
 0001:00006c00       ??1?$CComPtrBase@UICatRegister@@@ATL@@QEAA@XZ 0000000180007c00 f i MICR.obj
 0001:00006c40       ??1?$CComPtrBase@UIConnectionPoint@@@ATL@@QEAA@XZ 0000000180007c40 f i MICR.obj
 0001:00006c80       ??1?$CComPtrBase@UIConnectionPointContainer@@@ATL@@QEAA@XZ 0000000180007c80 f i MICR.obj
 0001:00006cc0       ??1?$CComPtrBase@UIDataObject@@@ATL@@QEAA@XZ 0000000180007cc0 f i MICR.obj
 0001:00006d00       ??1?$CComPtrBase@UIDispatch@@@ATL@@QEAA@XZ 0000000180007d00 f i MICR.obj
 0001:00006d40       ??1?$CComPtrBase@UIOleClientSite@@@ATL@@QEAA@XZ 0000000180007d40 f i MICR.obj
 0001:00006d80       ??1?$CComPtrBase@UIOleControlSite@@@ATL@@QEAA@XZ 0000000180007d80 f i MICR.obj
 0001:00006dc0       ??1?$CComPtrBase@UIOleInPlaceActiveObject@@@ATL@@QEAA@XZ 0000000180007dc0 f i MICR.obj
 0001:00006e00       ??1?$CComPtrBase@UIOleInPlaceFrame@@@ATL@@QEAA@XZ 0000000180007e00 f i MICR.obj
 0001:00006e40       ??1?$CComPtrBase@UIOleInPlaceObject@@@ATL@@QEAA@XZ 0000000180007e40 f i MICR.obj
 0001:00006e80       ??1?$CComPtrBase@UIOleInPlaceUIWindow@@@ATL@@QEAA@XZ 0000000180007e80 f i MICR.obj
 0001:00006ec0       ??1?$CComPtrBase@UIOleObject@@@ATL@@QEAA@XZ 0000000180007ec0 f i MICR.obj
 0001:00006f00       ??1?$CComPtrBase@UIPersistStream@@@ATL@@QEAA@XZ 0000000180007f00 f i MICR.obj
 0001:00006f40       ??1?$CComPtrBase@UIPersistStreamInit@@@ATL@@QEAA@XZ 0000000180007f40 f i MICR.obj
 0001:00006f80       ??1?$CComPtrBase@UIPointerInactive@@@ATL@@QEAA@XZ 0000000180007f80 f i MICR.obj
 0001:00006fc0       ??1?$CComPtrBase@UIProvideClassInfo2@@@ATL@@QEAA@XZ 0000000180007fc0 f i MICR.obj
 0001:00007000       ??1?$CComPtrBase@UISpecifyPropertyPages@@@ATL@@QEAA@XZ 0000000180008000 f i MICR.obj
 0001:00007040       ??1?$CComPtrBase@UIStream@@@ATL@@QEAA@XZ 0000000180008040 f i MICR.obj
 0001:00007080       ??1?$CComPtrBase@UITypeInfo2@@@ATL@@QEAA@XZ 0000000180008080 f i MICR.obj
 0001:000070c0       ??1?$CComPtrBase@UITypeInfo@@@ATL@@QEAA@XZ 00000001800080c0 f i MICR.obj
 0001:00007100       ??1?$CComPtrBase@UITypeLib@@@ATL@@QEAA@XZ 0000000180008100 f i MICR.obj
 0001:00007140       ??1?$CComPtrBase@UIUnknown@@@ATL@@QEAA@XZ 0000000180008140 f i MICR.obj
 0001:00007180       ??1?$CComPtrBase@UIViewObjectEx@@@ATL@@QEAA@XZ 0000000180008180 f i MICR.obj
 0001:000071c0       ??1?$CComQIPtr@UIOleControlSite@@$1?_GUID_b196b289_bab4_101a_b69c_00aa00341d07@@3U__s_GUID@@B@ATL@@QEAA@XZ 00000001800081c0 f i MICR.obj
 0001:000071e0       ??1?$CComQIPtr@UIOleObject@@$1?_GUID_00000112_0000_0000_c000_000000000046@@3U__s_GUID@@B@ATL@@QEAA@XZ 00000001800081e0 f i MICR.obj
 0001:00007200       ??1?$CComQIPtr@UISpecifyPropertyPages@@$1?_GUID_b196b28b_bab4_101a_b69c_00aa00341d07@@3U__s_GUID@@B@ATL@@QEAA@XZ 0000000180008200 f i MICR.obj
 0001:00007220       ??1?$CSimpleMap@PEA_WPEA_WVCExpansionVectorEqualHelper@ATL@@@ATL@@QEAA@XZ 0000000180008220 f i MICR.obj
 0001:00007240       ??1?$CTempBuffer@E$0BAA@VCCRTAllocator@ATL@@@ATL@@QEAA@XZ 0000000180008240 f i MICR.obj
 0001:00007270       ??1?$CTempBuffer@_W$0BAA@VCCRTAllocator@ATL@@@ATL@@QEAA@XZ 0000000180008270 f i MICR.obj
 0001:000072a0       ??1?$CTempBuffer@_W$0EAA@VCCRTAllocator@ATL@@@ATL@@QEAA@XZ 00000001800082a0 f i MICR.obj
 0001:000072d0       ??1CAtlModule@ATL@@UEAA@XZ 00000001800082d0 f i MICR.obj
 0001:00007300       ??1CComAutoDeleteCriticalSection@ATL@@QEAA@XZ 0000000180008300 f i MICR.obj
 0001:00007320       ??1CComClassFactory@ATL@@UEAA@XZ 0000000180008320 f i MICR.obj
 0001:00007350       ??1CComModule@ATL@@UEAA@XZ 0000000180008350 f i MICR.obj
 0001:00007380       ??1CComObjectRootBase@ATL@@QEAA@XZ 0000000180008380 f i MICR.obj
 0001:00007390       ??1CComSafeDeleteCriticalSection@ATL@@QEAA@XZ 0000000180008390 f i MICR.obj
 0001:000073d0       ??1CComVariant@ATL@@QEAA@XZ 00000001800083d0 f i MICR.obj
 0001:00007430       ??1CExpansionVector@ATL@@QEAA@XZ 0000000180008430 f i MICR.obj
 0001:00007460       ??1CParseBuffer@CRegParser@ATL@@QEAA@XZ 0000000180008460 f i MICR.obj
 0001:00007480       ??1CRegKey@ATL@@QEAA@XZ    0000000180008480 f i MICR.obj
 0001:000074a0       ??1CRegObject@ATL@@UEAA@XZ 00000001800084a0 f i MICR.obj
 0001:000074e0       ??1ModuleLockHelper@ATL@@QEAA@XZ 00000001800084e0 f i MICR.obj
 0001:00007510       ??1OposVariant@@QEAA@XZ    0000000180008510 f i MICR.obj
 0001:00007540       ??1_ATL_MODULE70@ATL@@QEAA@XZ 0000000180008540 f i MICR.obj
 0001:00007570       ??4?$CComPtr@UIAdviseSink@@@ATL@@QEAAPEAUIAdviseSink@@PEAU2@@Z 0000000180008570 f i MICR.obj
 0001:000075d0       ??4?$CComPtr@UIOleClientSite@@@ATL@@QEAAPEAUIOleClientSite@@PEAU2@@Z 00000001800085d0 f i MICR.obj
 0001:00007630       ??4?$CComPtr@UIUnknown@@@ATL@@QEAAPEAUIUnknown@@PEAU2@@Z 0000000180008630 f i MICR.obj
 0001:00007690       ??4?$CComQIPtr@UIOleObject@@$1?_GUID_00000112_0000_0000_c000_000000000046@@3U__s_GUID@@B@ATL@@QEAAPEAUIOleObject@@PEAUIUnknown@@@Z 0000000180008690 f i MICR.obj
 0001:000076e0       ??4?$CComQIPtr@UISpecifyPropertyPages@@$1?_GUID_b196b28b_bab4_101a_b69c_00aa00341d07@@3U__s_GUID@@B@ATL@@QEAAPEAUISpecifyPropertyPages@@PEAUIUnknown@@@Z 00000001800086e0 f i MICR.obj
 0001:00007730       ??7?$CComPtrBase@UIOleClientSite@@@ATL@@QEBA_NXZ 0000000180008730 f i MICR.obj
 0001:00007760       ??7?$CComPtrBase@UIOleInPlaceSiteWindowless@@@ATL@@QEBA_NXZ 0000000180008760 f i MICR.obj
 0001:00007790       ??7CComBSTR@ATL@@QEBA_NXZ  0000000180008790 f i MICR.obj
 0001:000077c0       ??8?$CComPtrBase@UIConnectionPointContainer@@@ATL@@QEBA_NPEAUIConnectionPointContainer@@@Z 00000001800087c0 f i MICR.obj
 0001:00007800       ??8?$CComPtrBase@UIDataAdviseHolder@@@ATL@@QEBA_NPEAUIDataAdviseHolder@@@Z 0000000180008800 f i MICR.obj
 0001:00007840       ??8?$CComPtrBase@UIOleAdviseHolder@@@ATL@@QEBA_NPEAUIOleAdviseHolder@@@Z 0000000180008840 f i MICR.obj
 0001:00007880       ??8?$CComPtrBase@UIOleClientSite@@@ATL@@QEBA_NPEAUIOleClientSite@@@Z 0000000180008880 f i MICR.obj
 0001:000078c0       ??8?$CComPtrBase@UIOleControlSite@@@ATL@@QEBA_NPEAUIOleControlSite@@@Z 00000001800088c0 f i MICR.obj
 0001:00007900       ??8?$CComPtrBase@UIOleInPlaceObject@@@ATL@@QEBA_NPEAUIOleInPlaceObject@@@Z 0000000180008900 f i MICR.obj
 0001:00007940       ??8?$CComPtrBase@UIOleInPlaceSiteWindowless@@@ATL@@QEBA_NPEAUIOleInPlaceSiteWindowless@@@Z 0000000180008940 f i MICR.obj
 0001:00007980       ??8?$CComPtrBase@UIOleObject@@@ATL@@QEBA_NPEAUIOleObject@@@Z 0000000180008980 f i MICR.obj
 0001:000079c0       ??8?$CComPtrBase@UIPersistStream@@@ATL@@QEBA_NPEAUIPersistStream@@@Z 00000001800089c0 f i MICR.obj
 0001:00007a00       ??8?$CComPtrBase@UIPersistStreamInit@@@ATL@@QEBA_NPEAUIPersistStreamInit@@@Z 0000000180008a00 f i MICR.obj
 0001:00007a40       ??8?$CComPtrBase@UIPointerInactive@@@ATL@@QEBA_NPEAUIPointerInactive@@@Z 0000000180008a40 f i MICR.obj
 0001:00007a80       ??8?$CComPtrBase@UIUnknown@@@ATL@@QEBA_NPEAUIUnknown@@@Z 0000000180008a80 f i MICR.obj
 0001:00007ac0       ??8?$CComPtrBase@UIViewObjectEx@@@ATL@@QEBA_NPEAUIViewObjectEx@@@Z 0000000180008ac0 f i MICR.obj
 0001:00007b00       ??8CComBSTR@ATL@@QEBA_NH@Z 0000000180008b00 f i MICR.obj
 0001:00007b60       ??9?$CComPtrBase@UIConnectionPointContainer@@@ATL@@QEBA_NPEAUIConnectionPointContainer@@@Z 0000000180008b60 f i MICR.obj
 0001:00007bb0       ??9?$CComPtrBase@UIDataAdviseHolder@@@ATL@@QEBA_NPEAUIDataAdviseHolder@@@Z 0000000180008bb0 f i MICR.obj
 0001:00007c00       ??9?$CComPtrBase@UIOleAdviseHolder@@@ATL@@QEBA_NPEAUIOleAdviseHolder@@@Z 0000000180008c00 f i MICR.obj
 0001:00007c50       ??9?$CComPtrBase@UIOleClientSite@@@ATL@@QEBA_NPEAUIOleClientSite@@@Z 0000000180008c50 f i MICR.obj
 0001:00007ca0       ??9?$CComPtrBase@UIOleControlSite@@@ATL@@QEBA_NPEAUIOleControlSite@@@Z 0000000180008ca0 f i MICR.obj
 0001:00007cf0       ??9?$CComPtrBase@UIOleInPlaceObject@@@ATL@@QEBA_NPEAUIOleInPlaceObject@@@Z 0000000180008cf0 f i MICR.obj
 0001:00007d40       ??9?$CComPtrBase@UIOleInPlaceSiteWindowless@@@ATL@@QEBA_NPEAUIOleInPlaceSiteWindowless@@@Z 0000000180008d40 f i MICR.obj
 0001:00007d90       ??9?$CComPtrBase@UIOleObject@@@ATL@@QEBA_NPEAUIOleObject@@@Z 0000000180008d90 f i MICR.obj
 0001:00007de0       ??9?$CComPtrBase@UIPersistStream@@@ATL@@QEBA_NPEAUIPersistStream@@@Z 0000000180008de0 f i MICR.obj
 0001:00007e30       ??9?$CComPtrBase@UIPersistStreamInit@@@ATL@@QEBA_NPEAUIPersistStreamInit@@@Z 0000000180008e30 f i MICR.obj
 0001:00007e80       ??9?$CComPtrBase@UIPointerInactive@@@ATL@@QEBA_NPEAUIPointerInactive@@@Z 0000000180008e80 f i MICR.obj
 0001:00007ed0       ??9?$CComPtrBase@UIUnknown@@@ATL@@QEBA_NPEAUIUnknown@@@Z 0000000180008ed0 f i MICR.obj
 0001:00007f20       ??9?$CComPtrBase@UIViewObjectEx@@@ATL@@QEBA_NPEAUIViewObjectEx@@@Z 0000000180008f20 f i MICR.obj
 0001:00007f70       ??9CComBSTR@ATL@@QEBA_NH@Z 0000000180008f70 f i MICR.obj
 0001:00007fb0       ??B?$CComPtrBase@UIAdviseSink@@@ATL@@QEBAPEAUIAdviseSink@@XZ 0000000180008fb0 f i MICR.obj
 0001:00007fc0       ??B?$CComPtrBase@UIDataAdviseHolder@@@ATL@@QEBAPEAUIDataAdviseHolder@@XZ 0000000180008fc0 f i MICR.obj
 0001:00007fd0       ??B?$CComPtrBase@UIDataObject@@@ATL@@QEBAPEAUIDataObject@@XZ 0000000180008fd0 f i MICR.obj
 0001:00007fe0       ??B?$CComPtrBase@UIOleAdviseHolder@@@ATL@@QEBAPEAUIOleAdviseHolder@@XZ 0000000180008fe0 f i MICR.obj
 0001:00007ff0       ??B?$CComPtrBase@UIOleClientSite@@@ATL@@QEBAPEAUIOleClientSite@@XZ 0000000180008ff0 f i MICR.obj
 0001:00008000       ??B?$CComPtrBase@UIOleControlSite@@@ATL@@QEBAPEAUIOleControlSite@@XZ 0000000180009000 f i MICR.obj
 0001:00008010       ??B?$CComPtrBase@UIOleInPlaceActiveObject@@@ATL@@QEBAPEAUIOleInPlaceActiveObject@@XZ 0000000180009010 f i MICR.obj
 0001:00008020       ??B?$CComPtrBase@UIOleInPlaceFrame@@@ATL@@QEBAPEAUIOleInPlaceFrame@@XZ 0000000180009020 f i MICR.obj
 0001:00008030       ??B?$CComPtrBase@UIOleInPlaceSiteWindowless@@@ATL@@QEBAPEAUIOleInPlaceSiteWindowless@@XZ 0000000180009030 f i MICR.obj
 0001:00008040       ??B?$CComPtrBase@UIOleInPlaceUIWindow@@@ATL@@QEBAPEAUIOleInPlaceUIWindow@@XZ 0000000180009040 f i MICR.obj
 0001:00008050       ??B?$CComPtrBase@UIOleObject@@@ATL@@QEBAPEAUIOleObject@@XZ 0000000180009050 f i MICR.obj
 0001:00008060       ??B?$CComPtrBase@UIPersistStream@@@ATL@@QEBAPEAUIPersistStream@@XZ 0000000180009060 f i MICR.obj
 0001:00008070       ??B?$CComPtrBase@UIProvideClassInfo2@@@ATL@@QEBAPEAUIProvideClassInfo2@@XZ 0000000180009070 f i MICR.obj
 0001:00008080       ??B?$CComPtrBase@UISpecifyPropertyPages@@@ATL@@QEBAPEAUISpecifyPropertyPages@@XZ 0000000180009080 f i MICR.obj
 0001:00008090       ??B?$CComPtrBase@UIStream@@@ATL@@QEBAPEAUIStream@@XZ 0000000180009090 f i MICR.obj
 0001:000080a0       ??B?$CComPtrBase@UITypeInfo2@@@ATL@@QEBAPEAUITypeInfo2@@XZ 00000001800090a0 f i MICR.obj
 0001:000080b0       ??B?$CComPtrBase@UITypeInfo@@@ATL@@QEBAPEAUITypeInfo@@XZ 00000001800090b0 f i MICR.obj
 0001:000080c0       ??B?$CComPtrBase@UITypeLib@@@ATL@@QEBAPEAUITypeLib@@XZ 00000001800090c0 f i MICR.obj
 0001:000080d0       ??B?$CComPtrBase@UIUnknown@@@ATL@@QEBAPEAUIUnknown@@XZ 00000001800090d0 f i MICR.obj
 0001:000080e0       ??B?$CTempBuffer@E$0BAA@VCCRTAllocator@ATL@@@ATL@@QEBAPEAEXZ 00000001800090e0 f i MICR.obj
 0001:000080f0       ??B?$CTempBuffer@_W$0BAA@VCCRTAllocator@ATL@@@ATL@@QEBAPEA_WXZ 00000001800090f0 f i MICR.obj
 0001:00008100       ??B?$CTempBuffer@_W$0EAA@VCCRTAllocator@ATL@@@ATL@@QEBAPEA_WXZ 0000000180009100 f i MICR.obj
 0001:00008110       ??B?$CTraceCategoryEx@$00$0A@@ATL@@QEAAIXZ 0000000180009110 f i MICR.obj
 0001:00008120       ??B?$CTraceCategoryEx@$07$0A@@ATL@@QEAAIXZ 0000000180009120 f i MICR.obj
 0001:00008130       ??B?$CTraceCategoryEx@$0CAAA@$0A@@ATL@@QEAAIXZ 0000000180009130 f i MICR.obj
 0001:00008140       ??B?$CTraceCategoryEx@$0EA@$0A@@ATL@@QEAAIXZ 0000000180009140 f i MICR.obj
 0001:00008150       ??B?$CTraceCategoryEx@$0IAA@$0A@@ATL@@QEAAIXZ 0000000180009150 f i MICR.obj
 0001:00008160       ??BCComBSTR@ATL@@QEBAPEA_WXZ 0000000180009160 f i MICR.obj
 0001:00008170       ??BCRegKey@ATL@@QEBAPEAUHKEY__@@XZ 0000000180009170 f i MICR.obj
 0001:00008180       ??C?$CComPtrBase@UIAdviseSink@@@ATL@@QEBAPEAV?$_NoAddRefReleaseOnCComPtr@UIAdviseSink@@@1@XZ 0000000180009180 f i MICR.obj
 0001:000081e0       ??C?$CComPtrBase@UICatRegister@@@ATL@@QEBAPEAV?$_NoAddRefReleaseOnCComPtr@UICatRegister@@@1@XZ 00000001800091e0 f i MICR.obj
 0001:00008240       ??C?$CComPtrBase@UIConnectionPoint@@@ATL@@QEBAPEAV?$_NoAddRefReleaseOnCComPtr@UIConnectionPoint@@@1@XZ 0000000180009240 f i MICR.obj
 0001:000082a0       ??C?$CComPtrBase@UIConnectionPointContainer@@@ATL@@QEBAPEAV?$_NoAddRefReleaseOnCComPtr@UIConnectionPointContainer@@@1@XZ 00000001800092a0 f i MICR.obj
 0001:00008300       ??C?$CComPtrBase@UIDataAdviseHolder@@@ATL@@QEBAPEAV?$_NoAddRefReleaseOnCComPtr@UIDataAdviseHolder@@@1@XZ 0000000180009300 f i MICR.obj
 0001:00008360       ??C?$CComPtrBase@UIOleAdviseHolder@@@ATL@@QEBAPEAV?$_NoAddRefReleaseOnCComPtr@UIOleAdviseHolder@@@1@XZ 0000000180009360 f i MICR.obj
 0001:000083c0       ??C?$CComPtrBase@UIOleClientSite@@@ATL@@QEBAPEAV?$_NoAddRefReleaseOnCComPtr@UIOleClientSite@@@1@XZ 00000001800093c0 f i MICR.obj
 0001:00008420       ??C?$CComPtrBase@UIOleControlSite@@@ATL@@QEBAPEAV?$_NoAddRefReleaseOnCComPtr@UIOleControlSite@@@1@XZ 0000000180009420 f i MICR.obj
 0001:00008480       ??C?$CComPtrBase@UIOleInPlaceFrame@@@ATL@@QEBAPEAV?$_NoAddRefReleaseOnCComPtr@UIOleInPlaceFrame@@@1@XZ 0000000180009480 f i MICR.obj
 0001:000084e0       ??C?$CComPtrBase@UIOleInPlaceObject@@@ATL@@QEBAPEAV?$_NoAddRefReleaseOnCComPtr@UIOleInPlaceObject@@@1@XZ 00000001800094e0 f i MICR.obj
 0001:00008540       ??C?$CComPtrBase@UIOleInPlaceSiteWindowless@@@ATL@@QEBAPEAV?$_NoAddRefReleaseOnCComPtr@UIOleInPlaceSiteWindowless@@@1@XZ 0000000180009540 f i MICR.obj
 0001:000085a0       ??C?$CComPtrBase@UIOleInPlaceUIWindow@@@ATL@@QEBAPEAV?$_NoAddRefReleaseOnCComPtr@UIOleInPlaceUIWindow@@@1@XZ 00000001800095a0 f i MICR.obj
 0001:00008600       ??C?$CComPtrBase@UIOleObject@@@ATL@@QEBAPEAV?$_NoAddRefReleaseOnCComPtr@UIOleObject@@@1@XZ 0000000180009600 f i MICR.obj
 0001:00008660       ??C?$CComPtrBase@UIPersistStream@@@ATL@@QEBAPEAV?$_NoAddRefReleaseOnCComPtr@UIPersistStream@@@1@XZ 0000000180009660 f i MICR.obj
 0001:000086c0       ??C?$CComPtrBase@UIPersistStreamInit@@@ATL@@QEBAPEAV?$_NoAddRefReleaseOnCComPtr@UIPersistStreamInit@@@1@XZ 00000001800096c0 f i MICR.obj
 0001:00008720       ??C?$CComPtrBase@UIPointerInactive@@@ATL@@QEBAPEAV?$_NoAddRefReleaseOnCComPtr@UIPointerInactive@@@1@XZ 0000000180009720 f i MICR.obj
 0001:00008780       ??C?$CComPtrBase@UIProvideClassInfo2@@@ATL@@QEBAPEAV?$_NoAddRefReleaseOnCComPtr@UIProvideClassInfo2@@@1@XZ 0000000180009780 f i MICR.obj
 0001:000087e0       ??C?$CComPtrBase@UISpecifyPropertyPages@@@ATL@@QEBAPEAV?$_NoAddRefReleaseOnCComPtr@UISpecifyPropertyPages@@@1@XZ 00000001800097e0 f i MICR.obj
 0001:00008840       ??C?$CComPtrBase@UITypeInfo@@@ATL@@QEBAPEAV?$_NoAddRefReleaseOnCComPtr@UITypeInfo@@@1@XZ 0000000180009840 f i MICR.obj
 0001:000088a0       ??C?$CComPtrBase@UITypeLib@@@ATL@@QEBAPEAV?$_NoAddRefReleaseOnCComPtr@UITypeLib@@@1@XZ 00000001800098a0 f i MICR.obj
 0001:00008900       ??C?$CComPtrBase@UIUnknown@@@ATL@@QEBAPEAV?$_NoAddRefReleaseOnCComPtr@UIUnknown@@@1@XZ 0000000180009900 f i MICR.obj
 0001:00008960       ??C?$CComPtrBase@UIViewObjectEx@@@ATL@@QEBAPEAV?$_NoAddRefReleaseOnCComPtr@UIViewObjectEx@@@1@XZ 0000000180009960 f i MICR.obj
 0001:000089c0       ??I?$CComPtrBase@UICatRegister@@@ATL@@QEAAPEAPEAUICatRegister@@XZ 00000001800099c0 f i MICR.obj
 0001:00008a20       ??I?$CComPtrBase@UIConnectionPoint@@@ATL@@QEAAPEAPEAUIConnectionPoint@@XZ 0000000180009a20 f i MICR.obj
 0001:00008a80       ??I?$CComPtrBase@UIConnectionPointContainer@@@ATL@@QEAAPEAPEAUIConnectionPointContainer@@XZ 0000000180009a80 f i MICR.obj
 0001:00008ae0       ??I?$CComPtrBase@UIDataAdviseHolder@@@ATL@@QEAAPEAPEAUIDataAdviseHolder@@XZ 0000000180009ae0 f i MICR.obj
 0001:00008b40       ??I?$CComPtrBase@UIDataObject@@@ATL@@QEAAPEAPEAUIDataObject@@XZ 0000000180009b40 f i MICR.obj
 0001:00008ba0       ??I?$CComPtrBase@UIDispatch@@@ATL@@QEAAPEAPEAUIDispatch@@XZ 0000000180009ba0 f i MICR.obj
 0001:00008c00       ??I?$CComPtrBase@UIOleAdviseHolder@@@ATL@@QEAAPEAPEAUIOleAdviseHolder@@XZ 0000000180009c00 f i MICR.obj
 0001:00008c60       ??I?$CComPtrBase@UIOleControlSite@@@ATL@@QEAAPEAPEAUIOleControlSite@@XZ 0000000180009c60 f i MICR.obj
 0001:00008cc0       ??I?$CComPtrBase@UIOleInPlaceActiveObject@@@ATL@@QEAAPEAPEAUIOleInPlaceActiveObject@@XZ 0000000180009cc0 f i MICR.obj
 0001:00008d20       ??I?$CComPtrBase@UIOleInPlaceFrame@@@ATL@@QEAAPEAPEAUIOleInPlaceFrame@@XZ 0000000180009d20 f i MICR.obj
 0001:00008d80       ??I?$CComPtrBase@UIOleInPlaceObject@@@ATL@@QEAAPEAPEAUIOleInPlaceObject@@XZ 0000000180009d80 f i MICR.obj
 0001:00008de0       ??I?$CComPtrBase@UIOleInPlaceSiteWindowless@@@ATL@@QEAAPEAPEAUIOleInPlaceSiteWindowless@@XZ 0000000180009de0 f i MICR.obj
 0001:00008e40       ??I?$CComPtrBase@UIOleInPlaceUIWindow@@@ATL@@QEAAPEAPEAUIOleInPlaceUIWindow@@XZ 0000000180009e40 f i MICR.obj
 0001:00008ea0       ??I?$CComPtrBase@UIOleObject@@@ATL@@QEAAPEAPEAUIOleObject@@XZ 0000000180009ea0 f i MICR.obj
 0001:00008f00       ??I?$CComPtrBase@UIPersistStream@@@ATL@@QEAAPEAPEAUIPersistStream@@XZ 0000000180009f00 f i MICR.obj
 0001:00008f60       ??I?$CComPtrBase@UIPointerInactive@@@ATL@@QEAAPEAPEAUIPointerInactive@@XZ 0000000180009f60 f i MICR.obj
 0001:00008fc0       ??I?$CComPtrBase@UIProvideClassInfo2@@@ATL@@QEAAPEAPEAUIProvideClassInfo2@@XZ 0000000180009fc0 f i MICR.obj
 0001:00009020       ??I?$CComPtrBase@UIStream@@@ATL@@QEAAPEAPEAUIStream@@XZ 000000018000a020 f i MICR.obj
 0001:00009080       ??I?$CComPtrBase@UITypeInfo2@@@ATL@@QEAAPEAPEAUITypeInfo2@@XZ 000000018000a080 f i MICR.obj
 0001:000090e0       ??I?$CComPtrBase@UITypeInfo@@@ATL@@QEAAPEAPEAUITypeInfo@@XZ 000000018000a0e0 f i MICR.obj
 0001:00009140       ??I?$CComPtrBase@UITypeLib@@@ATL@@QEAAPEAPEAUITypeLib@@XZ 000000018000a140 f i MICR.obj
 0001:000091a0       ??I?$CComPtrBase@UIUnknown@@@ATL@@QEAAPEAPEAUIUnknown@@XZ 000000018000a1a0 f i MICR.obj
 0001:00009200       ??I?$CComPtrBase@UIViewObjectEx@@@ATL@@QEAAPEAPEAUIViewObjectEx@@XZ 000000018000a200 f i MICR.obj
 0001:00009260       ??ICComBSTR@ATL@@QEAAPEAPEA_WXZ 000000018000a260 f i MICR.obj
 0001:00009270       ??_E?$CComContainedObject@VCOPOSMICR@@@ATL@@W7EAAPEAXI@Z 000000018000a270 f i MICR.obj
 0001:0000927c       ??_E?$CComContainedObject@VCOPOSMICR@@@ATL@@WHA@EAAPEAXI@Z 000000018000a27c f i MICR.obj
 0001:00009288       ??_E?$CComObject@VCOPOSMICR@@@ATL@@W7EAAPEAXI@Z 000000018000a288 f i MICR.obj
 0001:00009294       ??_E?$CComObject@VCOPOSMICR@@@ATL@@WHA@EAAPEAXI@Z 000000018000a294 f i MICR.obj
 0001:000092a0       ??_E?$CComAggObject@VCOPOSMICR@@@ATL@@UEAAPEAXI@Z 000000018000a2a0 f i MICR.obj
 0001:000092a0       ??_G?$CComAggObject@VCOPOSMICR@@@ATL@@UEAAPEAXI@Z 000000018000a2a0 f i MICR.obj
 0001:000092e0       ??_G?$CComContainedObject@VCOPOSMICR@@@ATL@@UEAAPEAXI@Z 000000018000a2e0 f i MICR.obj
 0001:000092e0       ??_E?$CComContainedObject@VCOPOSMICR@@@ATL@@UEAAPEAXI@Z 000000018000a2e0 f i MICR.obj
 0001:00009320       ??_G?$CComObject@V?$CComEnum@UIEnumConnectionPoints@@$1?_GUID_b196b285_bab4_101a_b69c_00aa00341d07@@3U__s_GUID@@BPEAUIConnectionPoint@@V?$_CopyInterface@UIConnectionPoint@@@ATL@@VCComSingleThreadModel@6@@ATL@@@ATL@@UEAAPEAXI@Z 000000018000a320 f i MICR.obj
 0001:00009320       ??_E?$CComObject@V?$CComEnum@UIEnumConnectionPoints@@$1?_GUID_b196b285_bab4_101a_b69c_00aa00341d07@@3U__s_GUID@@BPEAUIConnectionPoint@@V?$_CopyInterface@UIConnectionPoint@@@ATL@@VCComSingleThreadModel@6@@ATL@@@ATL@@UEAAPEAXI@Z 000000018000a320 f i MICR.obj
 0001:00009360       ??_E?$CComObject@V?$CComEnum@UIEnumConnections@@$1?_GUID_b196b287_bab4_101a_b69c_00aa00341d07@@3U__s_GUID@@BUtagCONNECTDATA@@V?$_Copy@UtagCONNECTDATA@@@ATL@@VCComSingleThreadModel@6@@ATL@@@ATL@@UEAAPEAXI@Z 000000018000a360 f i MICR.obj
 0001:00009360       ??_G?$CComObject@V?$CComEnum@UIEnumConnections@@$1?_GUID_b196b287_bab4_101a_b69c_00aa00341d07@@3U__s_GUID@@BUtagCONNECTDATA@@V?$_Copy@UtagCONNECTDATA@@@ATL@@VCComSingleThreadModel@6@@ATL@@@ATL@@UEAAPEAXI@Z 000000018000a360 f i MICR.obj
 0001:000093a0       ??_G?$CComObject@VCOPOSMICR@@@ATL@@UEAAPEAXI@Z 000000018000a3a0 f i MICR.obj
 0001:000093a0       ??_E?$CComObject@VCOPOSMICR@@@ATL@@UEAAPEAXI@Z 000000018000a3a0 f i MICR.obj
 0001:000093e0       ??_E?$CComObjectCached@VCComClassFactory@ATL@@@ATL@@UEAAPEAXI@Z 000000018000a3e0 f i MICR.obj
 0001:000093e0       ??_G?$CComObjectCached@VCComClassFactory@ATL@@@ATL@@UEAAPEAXI@Z 000000018000a3e0 f i MICR.obj
 0001:00009420       ??_ECComClassFactory@ATL@@UEAAPEAXI@Z 000000018000a420 f i MICR.obj
 0001:00009420       ??_GCComClassFactory@ATL@@UEAAPEAXI@Z 000000018000a420 f i MICR.obj
 0001:00009460       ??_GCComModule@ATL@@UEAAPEAXI@Z 000000018000a460 f i MICR.obj
 0001:00009460       ??_ECComModule@ATL@@UEAAPEAXI@Z 000000018000a460 f i MICR.obj
 0001:000094a0       ??_ECRegObject@ATL@@UEAAPEAXI@Z 000000018000a4a0 f i MICR.obj
 0001:000094a0       ??_GCRegObject@ATL@@UEAAPEAXI@Z 000000018000a4a0 f i MICR.obj
 0001:000094e0       ?Add@?$CSimpleArray@GV?$CSimpleArrayEqualHelper@G@ATL@@@ATL@@QEAAHAEBG@Z 000000018000a4e0 f i MICR.obj
 0001:00009670       ?Add@?$CSimpleMap@PEA_WPEA_WVCExpansionVectorEqualHelper@ATL@@@ATL@@QEAAHAEBQEA_W0@Z 000000018000a670 f i MICR.obj
 0001:00009750       ?Add@CComDynamicUnkArray@ATL@@QEAAKPEAUIUnknown@@@Z 000000018000a750 f i MICR.obj
 0001:00009930       ?Add@CExpansionVector@ATL@@QEAAHPEB_W0@Z 000000018000a930 f i MICR.obj
 0001:00009c70       ?AddChar@CParseBuffer@CRegParser@ATL@@QEAAHPEB_W@Z 000000018000ac70 f i MICR.obj
 0001:00009cb0       ?AddCommonRGSReplacements@?$CAtlModuleT@VCComModule@ATL@@@ATL@@UEAAJPEAUIRegistrarBase@@@Z 000000018000acb0 f i MICR.obj
 0001:00009cf0       ?AddCreateWndData@CAtlWinModule@ATL@@QEAAXPEAU_AtlCreateWndData@2@PEAX@Z 000000018000acf0 f i MICR.obj
 0001:00009d20       ?AddRef@?$CComAggObject@VCOPOSMICR@@@ATL@@UEAAKXZ 000000018000ad20 f i MICR.obj
 0001:00009d50       ?AddRef@?$CComContainedObject@VCOPOSMICR@@@ATL@@UEAAKXZ 000000018000ad50 f i MICR.obj
 0001:00009d74       ?AddRef@?$CComContainedObject@VCOPOSMICR@@@ATL@@WBAA@EAAKXZ 000000018000ad74 f i MICR.obj
 0001:00009d80       ?AddRef@?$CComContainedObject@VCOPOSMICR@@@ATL@@WBAI@EAAKXZ 000000018000ad80 f i MICR.obj
 0001:00009d8c       ?AddRef@?$CComContainedObject@VCOPOSMICR@@@ATL@@WBBA@EAAKXZ 000000018000ad8c f i MICR.obj
 0001:00009d98       ?AddRef@?$CComContainedObject@VCOPOSMICR@@@ATL@@WBBI@EAAKXZ 000000018000ad98 f i MICR.obj
 0001:00009da4       ?AddRef@?$CComContainedObject@VCOPOSMICR@@@ATL@@WBCI@EAAKXZ 000000018000ada4 f i MICR.obj
 0001:00009db0       ?AddRef@?$CComContainedObject@VCOPOSMICR@@@ATL@@WBEA@EAAKXZ 000000018000adb0 f i MICR.obj
 0001:00009dbc       ?AddRef@?$CComContainedObject@VCOPOSMICR@@@ATL@@WLI@EAAKXZ 000000018000adbc f i MICR.obj
 0001:00009dc8       ?AddRef@?$CComContainedObject@VCOPOSMICR@@@ATL@@WMA@EAAKXZ 000000018000adc8 f i MICR.obj
 0001:00009dd4       ?AddRef@?$CComContainedObject@VCOPOSMICR@@@ATL@@WMI@EAAKXZ 000000018000add4 f i MICR.obj
 0001:00009de0       ?AddRef@?$CComContainedObject@VCOPOSMICR@@@ATL@@WNA@EAAKXZ 000000018000ade0 f i MICR.obj
 0001:00009dec       ?AddRef@?$CComContainedObject@VCOPOSMICR@@@ATL@@WNI@EAAKXZ 000000018000adec f i MICR.obj
 0001:00009df8       ?AddRef@?$CComContainedObject@VCOPOSMICR@@@ATL@@WOA@EAAKXZ 000000018000adf8 f i MICR.obj
 0001:00009e04       ?AddRef@?$CComContainedObject@VCOPOSMICR@@@ATL@@WOI@EAAKXZ 000000018000ae04 f i MICR.obj
 0001:00009e10       ?AddRef@?$CComContainedObject@VCOPOSMICR@@@ATL@@WPA@EAAKXZ 000000018000ae10 f i MICR.obj
 0001:00009e1c       ?AddRef@?$CComContainedObject@VCOPOSMICR@@@ATL@@WPI@EAAKXZ 000000018000ae1c f i MICR.obj
 0001:00009e30       ?AddRef@?$CComObject@V?$CComEnum@UIEnumConnectionPoints@@$1?_GUID_b196b285_bab4_101a_b69c_00aa00341d07@@3U__s_GUID@@BPEAUIConnectionPoint@@V?$_CopyInterface@UIConnectionPoint@@@ATL@@VCComSingleThreadModel@6@@ATL@@@ATL@@UEAAKXZ 000000018000ae30 f i MICR.obj
 0001:00009e60       ?AddRef@?$CComObject@V?$CComEnum@UIEnumConnections@@$1?_GUID_b196b287_bab4_101a_b69c_00aa00341d07@@3U__s_GUID@@BUtagCONNECTDATA@@V?$_Copy@UtagCONNECTDATA@@@ATL@@VCComSingleThreadModel@6@@ATL@@@ATL@@UEAAKXZ 000000018000ae60 f i MICR.obj
 0001:00009e90       ?AddRef@?$CComObject@VCOPOSMICR@@@ATL@@UEAAKXZ 000000018000ae90 f i MICR.obj
 0001:00009eb4       ?AddRef@?$CComObject@VCOPOSMICR@@@ATL@@WBAA@EAAKXZ 000000018000aeb4 f i MICR.obj
 0001:00009ec0       ?AddRef@?$CComObject@VCOPOSMICR@@@ATL@@WBAI@EAAKXZ 000000018000aec0 f i MICR.obj
 0001:00009ecc       ?AddRef@?$CComObject@VCOPOSMICR@@@ATL@@WBBA@EAAKXZ 000000018000aecc f i MICR.obj
 0001:00009ed8       ?AddRef@?$CComObject@VCOPOSMICR@@@ATL@@WBBI@EAAKXZ 000000018000aed8 f i MICR.obj
 0001:00009ee4       ?AddRef@?$CComObject@VCOPOSMICR@@@ATL@@WBCI@EAAKXZ 000000018000aee4 f i MICR.obj
 0001:00009ef0       ?AddRef@?$CComObject@VCOPOSMICR@@@ATL@@WBEA@EAAKXZ 000000018000aef0 f i MICR.obj
 0001:00009efc       ?AddRef@?$CComObject@VCOPOSMICR@@@ATL@@WLI@EAAKXZ 000000018000aefc f i MICR.obj
 0001:00009f08       ?AddRef@?$CComObject@VCOPOSMICR@@@ATL@@WMA@EAAKXZ 000000018000af08 f i MICR.obj
 0001:00009f14       ?AddRef@?$CComObject@VCOPOSMICR@@@ATL@@WMI@EAAKXZ 000000018000af14 f i MICR.obj
 0001:00009f20       ?AddRef@?$CComObject@VCOPOSMICR@@@ATL@@WNA@EAAKXZ 000000018000af20 f i MICR.obj
 0001:00009f2c       ?AddRef@?$CComObject@VCOPOSMICR@@@ATL@@WNI@EAAKXZ 000000018000af2c f i MICR.obj
 0001:00009f38       ?AddRef@?$CComObject@VCOPOSMICR@@@ATL@@WOA@EAAKXZ 000000018000af38 f i MICR.obj
 0001:00009f44       ?AddRef@?$CComObject@VCOPOSMICR@@@ATL@@WOI@EAAKXZ 000000018000af44 f i MICR.obj
 0001:00009f50       ?AddRef@?$CComObject@VCOPOSMICR@@@ATL@@WPA@EAAKXZ 000000018000af50 f i MICR.obj
 0001:00009f5c       ?AddRef@?$CComObject@VCOPOSMICR@@@ATL@@WPI@EAAKXZ 000000018000af5c f i MICR.obj
 0001:00009f70       ?AddRef@?$CComObjectCached@VCComClassFactory@ATL@@@ATL@@UEAAKXZ 000000018000af70 f i MICR.obj
 0001:00009fc0       ?AddRef@CRegObject@ATL@@UEAAKXZ 000000018000afc0 f i MICR.obj
 0001:0000a020       ?AddReplacement@CRegObject@ATL@@UEAAJPEB_W0@Z 000000018000b020 f i MICR.obj
 0001:0000a150       ?AddString@CParseBuffer@CRegParser@ATL@@QEAAHPEB_W@Z 000000018000b150 f i MICR.obj
 0001:0000a240       ?AddTermFunc@CAtlModule@ATL@@QEAAJP6AX_K@Z0@Z 000000018000b240 f i MICR.obj
 0001:0000a290       ?AddValue@CRegParser@ATL@@IEAAJAEAVCRegKey@2@PEB_WPEA_W@Z 000000018000b290 f i MICR.obj
 0001:0000ab60       ?Advise@?$CProxy_IOPOSEvents@VCOPOSMICR@@@@UEAAJPEAUIUnknown@@PEAK@Z 000000018000bb60 f i MICR.obj
 0001:0000abc0       ?Advise@?$IConnectionPointImpl@VCOPOSMICR@@$1?DIID__IOPOSMICREvents@@3U_GUID@@BVCComDynamicUnkArray@ATL@@@ATL@@UEAAJPEAUIUnknown@@PEAK@Z 000000018000bbc0 f i MICR.obj
 0001:0000adc0       ?Advise@?$IConnectionPointImpl@VCOPOSMICR@@$1?IID_IPropertyNotifySink@@3U_GUID@@BVCComDynamicUnkArray@ATL@@@ATL@@UEAAJPEAUIUnknown@@PEAK@Z 000000018000bdc0 f i MICR.obj
 0001:0000afc0       ?Advise@?$IOleObjectImpl@VCOPOSMICR@@@ATL@@UEAAJPEAUIAdviseSink@@PEAK@Z 000000018000bfc0 f i MICR.obj
 0001:0000b070       ?Allocate@?$CAtlSafeAllocBufferManager@VCCRTAllocator@ATL@@@_ATL_SAFE_ALLOCA_IMPL@ATL@@QEAAPEAX_K@Z 000000018000c070 f i MICR.obj
 0001:0000b0e0       ?Allocate@?$CTempBuffer@E$0BAA@VCCRTAllocator@ATL@@@ATL@@QEAAPEAE_K@Z 000000018000c0e0 f i MICR.obj
 0001:0000b120       ?Allocate@?$CTempBuffer@_W$0BAA@VCCRTAllocator@ATL@@@ATL@@QEAAPEA_W_K@Z 000000018000c120 f i MICR.obj
 0001:0000b160       ?Allocate@?$CTempBuffer@_W$0EAA@VCCRTAllocator@ATL@@@ATL@@QEAAPEA_W_K@Z 000000018000c160 f i MICR.obj
 0001:0000b1a0       ?AllocateBytes@?$CTempBuffer@E$0BAA@VCCRTAllocator@ATL@@@ATL@@QEAAPEAE_K@Z 000000018000c1a0 f i MICR.obj
 0001:0000b230       ?AllocateBytes@?$CTempBuffer@_W$0BAA@VCCRTAllocator@ATL@@@ATL@@QEAAPEA_W_K@Z 000000018000c230 f i MICR.obj
 0001:0000b2c0       ?AllocateBytes@?$CTempBuffer@_W$0EAA@VCCRTAllocator@ATL@@@ATL@@QEAAPEA_W_K@Z 000000018000c2c0 f i MICR.obj
 0001:0000b350       ?AllocateHeap@?$CTempBuffer@E$0BAA@VCCRTAllocator@ATL@@@ATL@@AEAAX_K@Z 000000018000c350 f i MICR.obj
 0001:0000b3a0       ?AllocateHeap@?$CTempBuffer@_W$0BAA@VCCRTAllocator@ATL@@@ATL@@AEAAX_K@Z 000000018000c3a0 f i MICR.obj
 0001:0000b3f0       ?AllocateHeap@?$CTempBuffer@_W$0EAA@VCCRTAllocator@ATL@@@ATL@@AEAAX_K@Z 000000018000c3f0 f i MICR.obj
 0001:0000b440       ?Append@CParseBuffer@CRegParser@ATL@@QEAAHPEB_WH@Z 000000018000c440 f i MICR.obj
 0001:0000b660       ?AtlCallTermFunc@ATL@@YAXPEAU_ATL_MODULE70@1@@Z 000000018000c660 f i MICR.obj
 0001:0000b700       ?AtlCoTaskMemCAlloc@ATL@@YAPEAXKK@Z 000000018000c700 f i MICR.obj
 0001:0000b780       ?AtlCoTaskMemRecalloc@ATL@@YAPEAXPEAXKK@Z 000000018000c780 f i MICR.obj
 0001:0000b800       ?AtlComModuleGetClassObject@ATL@@YAJPEAU_ATL_COM_MODULE70@1@AEBU_GUID@@1PEAPEAX@Z 000000018000c800 f i MICR.obj
 0001:0000bb30       ?AtlComModuleRegisterServer@ATL@@YAJPEAU_ATL_COM_MODULE70@1@HPEBU_GUID@@@Z 000000018000cb30 f i MICR.obj
 0001:0000bd20       ?AtlComModuleUnregisterServer@ATL@@YAJPEAU_ATL_COM_MODULE70@1@HPEBU_GUID@@@Z 000000018000cd20 f i MICR.obj
 0001:0000be70       ?AtlComQIPtrAssign2@ATL@@YAXPEAPEAUIUnknown@@PEAU2@AEBU_GUID@@@Z 000000018000ce70 f i MICR.obj
 0001:0000bee0       ?AtlCreateTargetDC@ATL@@YAPEAUHDC__@@PEAU2@PEAUtagDVTARGETDEVICE@@@Z 000000018000cee0 f i MICR.obj
 0001:0000c110       ?AtlCrtErrorCheck@ATL@@YAHH@Z 000000018000d110 f i MICR.obj
 0001:0000c180       ?AtlGetPerUserRegistration@ATL@@YAJPEA_N@Z 000000018000d180 f i MICR.obj
 0001:0000c1b0       ?AtlHiMetricToPixel@ATL@@YAXPEBUtagSIZE@@PEAU2@@Z 000000018000d1b0 f i MICR.obj
 0001:0000c390       ?AtlHresultFromLastError@ATL@@YAJXZ 000000018000d390 f i MICR.obj
 0001:0000c3b0       ?AtlHresultFromWin32@ATL@@YAJK@Z 000000018000d3b0 f i MICR.obj
 0001:0000c3d0       ?AtlIPersistStreamInit_Load@ATL@@YAJPEAUIStream@@PEBUATL_PROPMAP_ENTRY@1@PEAXPEAUIUnknown@@@Z 000000018000d3d0 f i MICR.obj
 0001:0000ca50       ?AtlIPersistStreamInit_Save@ATL@@YAJPEAUIStream@@HPEBUATL_PROPMAP_ENTRY@1@PEAXPEAUIUnknown@@@Z 000000018000da50 f i MICR.obj
 0001:0000cfe0       ?AtlInternalOleLoadFromStream@ATL@@YAJPEAUIStream@@AEBU_GUID@@PEAPEAXTClassesAllowedInStream@1@K@Z 000000018000dfe0 f i MICR.obj
 0001:0000d320       ?AtlInternalQueryInterface@ATL@@YAJPEAXPEBU_ATL_INTMAP_ENTRY@1@AEBU_GUID@@PEAPEAX@Z 000000018000e320 f i MICR.obj
 0001:0000d5d0       ?AtlLoadTypeLib@ATL@@YAJPEAUHINSTANCE__@@PEB_WPEAPEA_WPEAPEAUITypeLib@@@Z 000000018000e5d0 f i MICR.obj
 0001:0000daa0       ?AtlModuleAddTermFunc@ATL@@YAJPEAU_ATL_MODULE70@1@P6AX_K@Z1@Z 000000018000eaa0 f i MICR.obj
 0001:0000dc70       ?AtlRegisterClassCategoriesHelper@ATL@@YAJAEBU_GUID@@PEBU_ATL_CATMAP_ENTRY@1@H@Z 000000018000ec70 f i MICR.obj
 0001:0000e440       ?AtlRegisterTypeLib@ATL@@YAJPEAUHINSTANCE__@@PEB_W@Z 000000018000f440 f i MICR.obj
 0001:0000e7a0       ?AtlThrowImpl@ATL@@YAXJ@Z  000000018000f7a0 f i MICR.obj
 0001:0000e870       ?AtlUnRegisterTypeLib@ATL@@YAJPEAUHINSTANCE__@@PEB_W@Z 000000018000f870 f i MICR.obj
 0001:0000eaa0       ?AtlWinModuleAddCreateWndData@ATL@@YAXPEAU_ATL_WIN_MODULE70@1@PEAU_AtlCreateWndData@1@PEAX@Z 000000018000faa0 f i MICR.obj
 0001:0000ec90       ?AtlWinModuleExtractCreateWndData@ATL@@YAPEAXPEAU_ATL_WIN_MODULE70@1@@Z 000000018000fc90 f i MICR.obj
 0001:0000ee90       ?AtlWinModuleRegisterClassExW@ATL@@YAGPEAU_ATL_WIN_MODULE70@1@PEBUtagWNDCLASSEXW@@@Z 000000018000fe90 f i MICR.obj
 0001:0000ef60       ?AtlWinModuleRegisterWndClassInfoW@ATL@@YAGPEAU_ATL_WIN_MODULE70@1@PEAU_ATL_BASE_MODULE70@1@PEAU_ATL_WNDCLASSINFOW@1@PEAP6A_JPEAUHWND__@@I_K_J@Z@Z 000000018000ff60 f i MICR.obj
 0001:0000efd0       ?Attach@?$CAutoVectorPtr@_W@ATL@@QEAAXPEA_W@Z 000000018000ffd0 f i MICR.obj
 0001:0000f040       ?Attach@CComBSTR@ATL@@QEAAXPEA_W@Z 0000000180010040 f i MICR.obj
 0001:0000f080       ?Attach@CRegKey@ATL@@QEAAXPEAUHKEY__@@@Z 0000000180010080 f i MICR.obj
 0001:0000f110       ?CanForceRemoveKey@CRegParser@ATL@@IEAAHPEB_W@Z 0000000180010110 f i MICR.obj
 0001:0000f170       ?ChToByte@CRegParser@ATL@@KAE_W@Z 0000000180010170 f i MICR.obj
 0001:0000f310       ?ChangeType@CComVariant@ATL@@QEAAJGPEBUtagVARIANT@@@Z 0000000180010310 f i MICR.obj
 0001:0000f360       ?Cleanup@CComTypeInfoHolder@ATL@@SAX_K@Z 0000000180010360 f i MICR.obj
 0001:0000f440       ?Clear@CComVariant@ATL@@QEAAJXZ 0000000180010440 f i MICR.obj
 0001:0000f460       ?ClearReplacements@CExpansionVector@ATL@@QEAAJXZ 0000000180010460 f i MICR.obj
 0001:0000f4f0       ?ClearReplacements@CRegObject@ATL@@UEAAJXZ 00000001800104f0 f i MICR.obj
 0001:0000f540       ?Clone@?$CComEnumImpl@UIEnumConnectionPoints@@$1?_GUID_b196b285_bab4_101a_b69c_00aa00341d07@@3U__s_GUID@@BPEAUIConnectionPoint@@V?$_CopyInterface@UIConnectionPoint@@@ATL@@@ATL@@UEAAJPEAPEAUIEnumConnectionPoints@@@Z 0000000180010540 f i MICR.obj
 0001:0000f730       ?Clone@?$CComEnumImpl@UIEnumConnections@@$1?_GUID_b196b287_bab4_101a_b69c_00aa00341d07@@3U__s_GUID@@BUtagCONNECTDATA@@V?$_Copy@UtagCONNECTDATA@@@ATL@@@ATL@@UEAAJPEAPEAUIEnumConnections@@@Z 0000000180010730 f i MICR.obj
 0001:0000f920       ?Close@?$IOleObjectImpl@VCOPOSMICR@@@ATL@@UEAAJK@Z 0000000180010920 f i MICR.obj
 0001:0000f9c0       ?Close@CRegKey@ATL@@QEAAJXZ 00000001800109c0 f i MICR.obj
 0001:0000fa20       ?ContextSensitiveHelp@?$IOleInPlaceActiveObjectImpl@VCOPOSMICR@@@ATL@@UEAAJH@Z 0000000180010a20 f i MICR.obj
 0001:0000fa90       ?ContextSensitiveHelp@?$IOleInPlaceObjectWindowlessImpl@VCOPOSMICR@@@ATL@@UEAAJH@Z 0000000180010a90 f i MICR.obj
 0001:0000fb00       ?ControlQueryInterface@?$CComControl@VCOPOSMICR@@V?$CWindowImpl@VCOPOSMICR@@VCWindow@ATL@@V?$CWinTraits@$0FGAAAAAA@$0A@@3@@ATL@@@ATL@@UEAAJAEBU_GUID@@PEAPEAX@Z 0000000180010b00 f i MICR.obj
 0001:0000fb70       ?CreateControlWindow@?$CComControl@VCOPOSMICR@@V?$CWindowImpl@VCOPOSMICR@@VCWindow@ATL@@V?$CWinTraits@$0FGAAAAAA@$0A@@3@@ATL@@@ATL@@UEAAPEAUHWND__@@PEAU3@AEAUtagRECT@@@Z 0000000180010b70 f i MICR.obj
 0001:0000fc40       ?CreateInstance@?$CComCreator@V?$CComAggObject@VCOPOSMICR@@@ATL@@@ATL@@SAJPEAXAEBU_GUID@@PEAPEAX@Z 0000000180010c40 f i MICR.obj
 0001:0000fe10       ?CreateInstance@?$CComCreator@V?$CComObject@VCOPOSMICR@@@ATL@@@ATL@@SAJPEAXAEBU_GUID@@PEAPEAX@Z 0000000180010e10 f i MICR.obj
 0001:0000fff0       ?CreateInstance@?$CComObject@V?$CComEnum@UIEnumConnectionPoints@@$1?_GUID_b196b285_bab4_101a_b69c_00aa00341d07@@3U__s_GUID@@BPEAUIConnectionPoint@@V?$_CopyInterface@UIConnectionPoint@@@ATL@@VCComSingleThreadModel@6@@ATL@@@ATL@@SAJPEAPEAV12@@Z 0000000180010ff0 f i MICR.obj
 0001:000101a0       ?CreateInstance@?$CComObject@V?$CComEnum@UIEnumConnections@@$1?_GUID_b196b287_bab4_101a_b69c_00aa00341d07@@3U__s_GUID@@BUtagCONNECTDATA@@V?$_Copy@UtagCONNECTDATA@@@ATL@@VCComSingleThreadModel@6@@ATL@@@ATL@@SAJPEAPEAV12@@Z 00000001800111a0 f i MICR.obj
 0001:00010350       ?CreateInstance@CComClassFactory@ATL@@UEAAJPEAUIUnknown@@AEBU_GUID@@PEAPEAX@Z 0000000180011350 f i MICR.obj
 0001:00010460       ?DAdvise@?$IDataObjectImpl@VCOPOSMICR@@@ATL@@UEAAJPEAUtagFORMATETC@@KPEAUIAdviseSink@@PEAK@Z 0000000180011460 f i MICR.obj
 0001:000105a0       ?DEVMODEOLE2T_EX@@YAPEAU_devicemodeW@@PEAU1@@Z 00000001800115a0 f i MICR.obj
 0001:000105b0       ?DUnadvise@?$IDataObjectImpl@VCOPOSMICR@@@ATL@@UEAAJK@Z 00000001800115b0 f i MICR.obj
 0001:000106a0       ?Decrement@CComMultiThreadModel@ATL@@SAKPEAJ@Z 00000001800116a0 f i MICR.obj
 0001:000106c0       ?Decrement@CComSingleThreadModel@ATL@@SAKPEAJ@Z 00000001800116c0 f i MICR.obj
 0001:000106e0       ?DefWindowProcW@?$CWindowImplBaseT@VCWindow@ATL@@V?$CWinTraits@$0FGAAAAAA@$0A@@2@@ATL@@QEAA_JI_K_J@Z 00000001800116e0 f i MICR.obj
 0001:00010730       ?DefaultReflectionHandler@?$CWindowImplRoot@VCWindow@ATL@@@ATL@@SAHPEAUHWND__@@I_K_JAEA_J@Z 0000000180011730 f i MICR.obj
 0001:00010a30       ?DeleteSubKey@CRegKey@ATL@@QEAAJPEB_W@Z 0000000180011a30 f i MICR.obj
 0001:00010b40       ?DeleteValue@CRegKey@ATL@@QEAAJPEB_W@Z 0000000180011b40 f i MICR.obj
 0001:00010bc0       ?Detach@?$CAutoVectorPtr@_W@ATL@@QEAAPEA_WXZ 0000000180011bc0 f i MICR.obj
 0001:00010bf0       ?Detach@?$CComPtrBase@UIPersistStream@@@ATL@@QEAAPEAUIPersistStream@@XZ 0000000180011bf0 f i MICR.obj
 0001:00010c20       ?Detach@?$CComPtrBase@UITypeInfo@@@ATL@@QEAAPEAUITypeInfo@@XZ 0000000180011c20 f i MICR.obj
 0001:00010c50       ?Detach@?$CComPtrBase@UIUnknown@@@ATL@@QEAAPEAUIUnknown@@XZ 0000000180011c50 f i MICR.obj
 0001:00010c80       ?Detach@CComBSTR@ATL@@QEAAPEA_WXZ 0000000180011c80 f i MICR.obj
 0001:00010cb0       ?Detach@CParseBuffer@CRegParser@ATL@@QEAAPEA_WXZ 0000000180011cb0 f i MICR.obj
 0001:00010d00       ?Detach@CRegKey@ATL@@QEAAPEAUHKEY__@@XZ 0000000180011d00 f i MICR.obj
 0001:00010d50       ?DoEvent@COPOSMICR@@IEAAXI_K_J@Z 0000000180011d50 f i MICR.obj
 0001:00010e70       ?DoVerb@?$IOleObjectImpl@VCOPOSMICR@@@ATL@@UEAAJJPEAUtagMSG@@PEAUIOleClientSite@@JPEAUHWND__@@PEBUtagRECT@@@Z 0000000180011e70 f i MICR.obj
 0001:00011170       ?DoVerbDiscardUndo@?$IOleObjectImpl@VCOPOSMICR@@@ATL@@QEAAJPEBUtagRECT@@PEAUHWND__@@@Z 0000000180012170 f i MICR.obj
 0001:000111f0       ?DoVerbHide@?$IOleObjectImpl@VCOPOSMICR@@@ATL@@QEAAJPEBUtagRECT@@PEAUHWND__@@@Z 00000001800121f0 f i MICR.obj
 0001:000112c0       ?DoVerbInPlaceActivate@?$IOleObjectImpl@VCOPOSMICR@@@ATL@@QEAAJPEBUtagRECT@@PEAUHWND__@@@Z 00000001800122c0 f i MICR.obj
 0001:00011380       ?DoVerbOpen@?$IOleObjectImpl@VCOPOSMICR@@@ATL@@QEAAJPEBUtagRECT@@PEAUHWND__@@@Z 0000000180012380 f i MICR.obj
 0001:00011400       ?DoVerbPrimary@?$IOleObjectImpl@VCOPOSMICR@@@ATL@@QEAAJPEBUtagRECT@@PEAUHWND__@@@Z 0000000180012400 f i MICR.obj
 0001:00011540       ?DoVerbProperties@CComControlBase@ATL@@QEAAJPEBUtagRECT@@PEAUHWND__@@@Z 0000000180012540 f i MICR.obj
 0001:000118f0       ?DoVerbShow@?$IOleObjectImpl@VCOPOSMICR@@@ATL@@QEAAJPEBUtagRECT@@PEAUHWND__@@@Z 00000001800128f0 f i MICR.obj
 0001:000119a0       ?DoVerbUIActivate@?$IOleObjectImpl@VCOPOSMICR@@@ATL@@QEAAJPEBUtagRECT@@PEAUHWND__@@@Z 00000001800129a0 f i MICR.obj
 0001:00011a60       ?DoesVerbActivate@CComControlBase@ATL@@QEAAHJ@Z 0000000180012a60 f i MICR.obj
 0001:00011ab0       ?DoesVerbUIActivate@CComControlBase@ATL@@QEAAHJ@Z 0000000180012ab0 f i MICR.obj
 0001:00011b20       ?Draw@?$IViewObjectExImpl@VCOPOSMICR@@@ATL@@UEAAJKJPEAXPEAUtagDVTARGETDEVICE@@PEAUHDC__@@2PEBU_RECTL@@3P6AH_K@Z4@Z 0000000180012b20 f i MICR.obj
 0001:00011c30       ?Empty@CComBSTR@ATL@@QEAAXXZ 0000000180012c30 f i MICR.obj
 0001:00011c60       ?EnableModeless@?$IOleInPlaceActiveObjectImpl@VCOPOSMICR@@@ATL@@UEAAJH@Z 0000000180012c60 f i MICR.obj
 0001:00011cc0       ?EndOfVar@CRegParser@ATL@@IEAAHXZ 0000000180012cc0 f i MICR.obj
 0001:00011d10       ?EnsureTI@CComTypeInfoHolder@ATL@@QEAAJK@Z 0000000180012d10 f i MICR.obj
 0001:00011d60       ?EnumAdvise@?$IOleObjectImpl@VCOPOSMICR@@@ATL@@UEAAJPEAPEAUIEnumSTATDATA@@@Z 0000000180012d60 f i MICR.obj
 0001:00011eb0       ?EnumConnectionPoints@?$IConnectionPointContainerImpl@VCOPOSMICR@@@ATL@@UEAAJPEAPEAUIEnumConnectionPoints@@@Z 0000000180012eb0 f i MICR.obj
 0001:000123a0       ?EnumConnections@?$IConnectionPointImpl@VCOPOSMICR@@$1?DIID__IOPOSMICREvents@@3U_GUID@@BVCComDynamicUnkArray@ATL@@@ATL@@UEAAJPEAPEAUIEnumConnections@@@Z 00000001800133a0 f i MICR.obj
 0001:000126d0       ?EnumConnections@?$IConnectionPointImpl@VCOPOSMICR@@$1?IID_IPropertyNotifySink@@3U_GUID@@BVCComDynamicUnkArray@ATL@@@ATL@@UEAAJPEAPEAUIEnumConnections@@@Z 00000001800136d0 f i MICR.obj
 0001:00012a00       ?EnumDAdvise@?$IDataObjectImpl@VCOPOSMICR@@@ATL@@UEAAJPEAPEAUIEnumSTATDATA@@@Z 0000000180013a00 f i MICR.obj
 0001:00012b30       ?EnumFormatEtc@?$IDataObjectImpl@VCOPOSMICR@@@ATL@@UEAAJKPEAPEAUIEnumFORMATETC@@@Z 0000000180013b30 f i MICR.obj
 0001:00012bb0       ?EnumVerbs@?$IOleObjectImpl@VCOPOSMICR@@@ATL@@UEAAJPEAPEAUIEnumOLEVERB@@@Z 0000000180013bb0 f i MICR.obj
 0001:00012c70       ?EscapeSingleQuote@CAtlModule@ATL@@SAXPEA_W_KPEB_W@Z 0000000180013c70 f i MICR.obj
 0001:00012d50       ?ExtractCreateWndData@CAtlWinModule@ATL@@QEAAPEAXXZ 0000000180013d50 f i MICR.obj
 0001:00012d70       ?FAccessAllowed@?$IObjectSafetyImpl@VCOPOSMICR@@$02@ATL@@MEAAHXZ 0000000180013d70 f i MICR.obj
 0001:00012d80       ?FinalConstruct@?$CComAggObject@VCOPOSMICR@@@ATL@@QEAAJXZ 0000000180013d80 f i MICR.obj
 0001:00012dc0       ?FinalConstruct@CComObjectRootBase@ATL@@QEAAJXZ 0000000180013dc0 f i MICR.obj
 0001:00012dd0       ?FinalConstruct@CRegObject@ATL@@QEAAJXZ 0000000180013dd0 f i MICR.obj
 0001:00012e00       ?FinalRelease@?$CComAggObject@VCOPOSMICR@@@ATL@@QEAAXXZ 0000000180013e00 f i MICR.obj
 0001:00012e40       ?FinalRelease@CComObjectRootBase@ATL@@QEAAXXZ 0000000180013e40 f i MICR.obj
 0001:00012e50       ?FindConnectionPoint@?$IConnectionPointContainerImpl@VCOPOSMICR@@@ATL@@UEAAJAEBU_GUID@@PEAPEAUIConnectionPoint@@@Z 0000000180013e50 f i MICR.obj
 0001:00012fc0       ?FindKey@?$CSimpleMap@PEA_WPEA_WVCExpansionVectorEqualHelper@ATL@@@ATL@@QEBAHAEBQEA_W@Z 0000000180013fc0 f i MICR.obj
 0001:00013030       ?FireTheEvent@?$CProxy_IOPOSEvents@VCOPOSMICR@@@@IEAAXPEAUIUnknown@@PEAVOposVariant@@IAEAJPEB_WJ@Z 0000000180014030 f i MICR.obj
 0001:00013210       ?FireViewChange@CComControlBase@ATL@@QEAAJXZ 0000000180014210 f i MICR.obj
 0001:000132e0       ?Fire_DataEvent@?$CProxy_IOPOSEvents@VCOPOSMICR@@@@QEAAXJ@Z 00000001800142e0 f i MICR.obj
 0001:000134d0       ?Fire_DirectIOEvent@?$CProxy_IOPOSEvents@VCOPOSMICR@@@@QEAAXJPEAJPEAPEA_W@Z 00000001800144d0 f i MICR.obj
 0001:00013770       ?Fire_ErrorEvent@?$CProxy_IOPOSEvents@VCOPOSMICR@@@@QEAAXJJJPEAJ@Z 0000000180014770 f i MICR.obj
 0001:00013a20       ?Fire_StatusUpdateEvent@?$CProxy_IOPOSEvents@VCOPOSMICR@@@@QEAAXJ@Z 0000000180014a20 f i MICR.obj
 0001:00013c10       ?FormatWindowClassName@AtlModuleRegisterWndClassInfoParamW@ATL@@SAXPEA_WKPEAX@Z 0000000180014c10 f i MICR.obj
 0001:00013c50       ?Free@?$CAutoVectorPtr@_W@ATL@@QEAAXXZ 0000000180014c50 f i MICR.obj
 0001:00013c90       ?FreeHeap@?$CTempBuffer@E$0BAA@VCCRTAllocator@ATL@@@ATL@@AEAAXXZ 0000000180014c90 f i MICR.obj
 0001:00013cb0       ?FreeHeap@?$CTempBuffer@_W$0BAA@VCCRTAllocator@ATL@@@ATL@@AEAAXXZ 0000000180014cb0 f i MICR.obj
 0001:00013cd0       ?FreeHeap@?$CTempBuffer@_W$0EAA@VCCRTAllocator@ATL@@@ATL@@AEAAXXZ 0000000180014cd0 f i MICR.obj
 0001:00013cf0       ?Freeze@?$IViewObjectExImpl@VCOPOSMICR@@@ATL@@UEAAJKJPEAXPEAK@Z 0000000180014cf0 f i MICR.obj
 0001:00013d70       ?GenerateError@CRegParser@ATL@@IEAAJI@Z 0000000180014d70 f i MICR.obj
 0001:00013d90       ?GetAdvise@?$IViewObjectExImpl@VCOPOSMICR@@@ATL@@UEAAJPEAK0PEAPEAUIAdviseSink@@@Z 0000000180014d90 f i MICR.obj
 0001:00013ed0       ?GetAmbientLocaleID@CComControlBase@ATL@@QEAAJAEAK@Z 0000000180014ed0 f i MICR.obj
 0001:00013fb0       ?GetAmbientProperty@CComControlBase@ATL@@QEAAJJAEAUtagVARIANT@@@Z 0000000180014fb0 f i MICR.obj
 0001:00014000       ?GetAmbientUserMode@CComControlBase@ATL@@QEAAJAEAH@Z 0000000180015000 f i MICR.obj
 0001:00014120       ?GetAppId@?$CAtlModuleT@VCComModule@ATL@@@ATL@@SAPEB_WXZ 0000000180015120 f i MICR.obj
 0001:00014130       ?GetAt@CComDynamicUnkArray@ATL@@QEAAPEAUIUnknown@@H@Z 0000000180015130 f i MICR.obj
 0001:000141c0       ?GetCanonicalFormatEtc@?$IDataObjectImpl@VCOPOSMICR@@@ATL@@UEAAJPEAUtagFORMATETC@@0@Z 00000001800151c0 f i MICR.obj
 0001:00014240       ?GetClassID@?$IPersistStorageImpl@VCOPOSMICR@@@ATL@@UEAAJPEAU_GUID@@@Z 0000000180015240 f i MICR.obj
 0001:000142c0       ?GetClassID@?$IPersistStreamInitImpl@VCOPOSMICR@@@ATL@@UEAAJPEAU_GUID@@@Z 00000001800152c0 f i MICR.obj
 0001:00014340       ?GetClassInfoExW@AtlModuleRegisterWndClassInfoParamW@ATL@@SAHPEAUHINSTANCE__@@PEB_WPEAUtagWNDCLASSEXW@@@Z 0000000180015340 f i MICR.obj
 0001:00014370       ?GetClassInfoW@?$IProvideClassInfo2Impl@$1?CLSID_OPOSMICR@@3U_GUID@@B$1?DIID__IOPOSMICREvents@@3U2@B$1?LIBID_OposMICR_CCO@@3U2@B$00$0A@VCComTypeInfoHolder@ATL@@@ATL@@UEAAJPEAPEAUITypeInfo@@@Z 0000000180015370 f i MICR.obj
 0001:000143a0       ?GetClassObject@CComModule@ATL@@QEAAJAEBU_GUID@@0PEAPEAX@Z 00000001800153a0 f i MICR.obj
 0001:00014610       ?GetClientSite@?$IOleObjectImpl@VCOPOSMICR@@@ATL@@UEAAJPEAPEAUIOleClientSite@@@Z 0000000180015610 f i MICR.obj
 0001:000146b0       ?GetClipboardData@?$IOleObjectImpl@VCOPOSMICR@@@ATL@@UEAAJKPEAPEAUIDataObject@@@Z 00000001800156b0 f i MICR.obj
 0001:00014730       ?GetCodeAddress@CDynamicStdCallThunk2@ATL@@QEAAPEAXXZ 0000000180015730 f i MICR.obj
 0001:00014750       ?GetColorSet@?$IViewObjectExImpl@VCOPOSMICR@@@ATL@@UEAAJKJPEAXPEAUtagDVTARGETDEVICE@@PEAUHDC__@@PEAPEAUtagLOGPALETTE@@@Z 0000000180015750 f i MICR.obj
 0001:000147d0       ?GetConnMap@COPOSMICR@@SAPEBU_ATL_CONNMAP_ENTRY@ATL@@PEAH@Z 00000001800157d0 f i MICR.obj
 0001:00014920       ?GetConnectionInterface@?$IConnectionPointImpl@VCOPOSMICR@@$1?DIID__IOPOSMICREvents@@3U_GUID@@BVCComDynamicUnkArray@ATL@@@ATL@@UEAAJPEAU_GUID@@@Z 0000000180015920 f i MICR.obj
 0001:00014960       ?GetConnectionInterface@?$IConnectionPointImpl@VCOPOSMICR@@$1?IID_IPropertyNotifySink@@3U_GUID@@BVCComDynamicUnkArray@ATL@@@ATL@@UEAAJPEAU_GUID@@@Z 0000000180015960 f i MICR.obj
 0001:000149a0       ?GetConnectionPointContainer@?$IConnectionPointImpl@VCOPOSMICR@@$1?DIID__IOPOSMICREvents@@3U_GUID@@BVCComDynamicUnkArray@ATL@@@ATL@@UEAAJPEAPEAUIConnectionPointContainer@@@Z 00000001800159a0 f i MICR.obj
 0001:00014a00       ?GetConnectionPointContainer@?$IConnectionPointImpl@VCOPOSMICR@@$1?IID_IPropertyNotifySink@@3U_GUID@@BVCComDynamicUnkArray@ATL@@@ATL@@UEAAJPEAPEAUIConnectionPointContainer@@@Z 0000000180015a00 f i MICR.obj
 0001:00014a60       ?GetContentExtent@?$IQuickActivateImpl@VCOPOSMICR@@@ATL@@UEAAJPEAUtagSIZE@@@Z 0000000180015a60 f i MICR.obj
 0001:00014b10       ?GetControlInfo@?$IOleControlImpl@VCOPOSMICR@@@ATL@@UEAAJPEAUtagCONTROLINFO@@@Z 0000000180015b10 f i MICR.obj
 0001:00014b80       ?GetCookie@CComDynamicUnkArray@ATL@@QEAAKPEAPEAUIUnknown@@@Z 0000000180015b80 f i MICR.obj
 0001:00014c60       ?GetData@?$IDataObjectImpl@VCOPOSMICR@@@ATL@@UEAAJPEAUtagFORMATETC@@PEAUtagSTGMEDIUM@@@Z 0000000180015c60 f i MICR.obj
 0001:00014d10       ?GetData@CAtlSafeAllocBufferNode@?$CAtlSafeAllocBufferManager@VCCRTAllocator@ATL@@@_ATL_SAFE_ALLOCA_IMPL@ATL@@QEAAPEAXXZ 0000000180015d10 f i MICR.obj
 0001:00014d30       ?GetDataHere@?$IDataObjectImpl@VCOPOSMICR@@@ATL@@UEAAJPEAUtagFORMATETC@@PEAUtagSTGMEDIUM@@@Z 0000000180015d30 f i MICR.obj
 0001:00014db0       ?GetDropTarget@?$IOleInPlaceObjectWindowlessImpl@VCOPOSMICR@@@ATL@@UEAAJPEAPEAUIDropTarget@@@Z 0000000180015db0 f i MICR.obj
 0001:00014e20       ?GetExtent@?$IOleObjectImpl@VCOPOSMICR@@@ATL@@UEAAJKPEAUtagSIZE@@@Z 0000000180015e20 f i MICR.obj
 0001:00014ee0       ?GetExtent@?$IViewObjectExImpl@VCOPOSMICR@@@ATL@@UEAAJKJPEAUtagDVTARGETDEVICE@@PEAUtagSIZE@@@Z 0000000180015ee0 f i MICR.obj
 0001:00014fe0       ?GetGITPtr@CAtlModule@ATL@@UEAAJPEAPEAUIGlobalInterfaceTable@@@Z 0000000180015fe0 f i MICR.obj
 0001:00015110       ?GetGUID@?$IProvideClassInfo2Impl@$1?CLSID_OPOSMICR@@3U_GUID@@B$1?DIID__IOPOSMICREvents@@3U2@B$1?LIBID_OposMICR_CCO@@3U2@B$00$0A@VCComTypeInfoHolder@ATL@@@ATL@@UEAAJKPEAU_GUID@@@Z 0000000180016110 f i MICR.obj
 0001:00015190       ?GetIDsOfNames@?$IDispatchImpl@UIOPOSMICR@@$1?IID_IOPOSMICR@@3U_GUID@@B$1?LIBID_OposMICR_CCO@@3U3@B$00$0A@VCComTypeInfoHolder@ATL@@@ATL@@UEAAJAEBU_GUID@@PEAPEA_WIKPEAJ@Z 0000000180016190 f i MICR.obj
 0001:000151e0       ?GetIDsOfNames@CComTypeInfoHolder@ATL@@QEAAJAEBU_GUID@@PEAPEA_WIKPEAJ@Z 00000001800161e0 f i MICR.obj
 0001:000153f0       ?GetInterfaceSafetyOptions@?$IObjectSafetyImpl@VCOPOSMICR@@$02@ATL@@UEAAJAEBU_GUID@@PEAK1@Z 00000001800163f0 f i MICR.obj
 0001:00015590       ?GetKeyAt@?$CSimpleMap@PEA_WPEA_WVCExpansionVectorEqualHelper@ATL@@@ATL@@QEBAAEAPEA_WH@Z 0000000180016590 f i MICR.obj
 0001:00015630       ?GetLockCount@CAtlModule@ATL@@UEAAJXZ 0000000180016630 f i MICR.obj
 0001:00015640       ?GetMiscStatus@?$IOleObjectImpl@VCOPOSMICR@@@ATL@@UEAAJKPEAK@Z 0000000180016640 f i MICR.obj
 0001:000156c0       ?GetMoniker@?$IOleObjectImpl@VCOPOSMICR@@@ATL@@UEAAJKKPEAPEAUIMoniker@@@Z 00000001800166c0 f i MICR.obj
 0001:00015740       ?GetNaturalExtent@?$IViewObjectExImpl@VCOPOSMICR@@@ATL@@UEAAJKJPEAUtagDVTARGETDEVICE@@PEAUHDC__@@PEAUtagExtentInfo@@PEAUtagSIZE@@@Z 0000000180016740 f i MICR.obj
 0001:000158c0       ?GetObjectCLSID@?$CComCoClass@VCOPOSMICR@@$1?CLSID_OPOSMICR@@3U_GUID@@B@ATL@@SAAEBU_GUID@@XZ 00000001800168c0 f i MICR.obj
 0001:000158d0       ?GetPages@?$ISpecifyPropertyPagesImpl@VCOPOSMICR@@@ATL@@UEAAJPEAUtagCAUUID@@@Z 00000001800168d0 f i MICR.obj
 0001:00015950       ?GetPagesHelper@?$ISpecifyPropertyPagesImpl@VCOPOSMICR@@@ATL@@IEAAJPEAUtagCAUUID@@PEBUATL_PROPMAP_ENTRY@2@@Z 0000000180016950 f i MICR.obj
 0001:00015bb0       ?GetProperty@?$CComPtr@UIDispatch@@@ATL@@QEAAJJPEAUtagVARIANT@@@Z 0000000180016bb0 f i MICR.obj
 0001:00015be0       ?GetProperty@?$CComPtr@UIDispatch@@@ATL@@SAJPEAUIDispatch@@JPEAUtagVARIANT@@@Z 0000000180016be0 f i MICR.obj
 0001:00015db0       ?GetPropertyMap@COPOSMICR@@SAPEBUATL_PROPMAP_ENTRY@ATL@@XZ 0000000180016db0 f i MICR.obj
 0001:00015dc0       ?GetRect@?$IViewObjectExImpl@VCOPOSMICR@@@ATL@@UEAAJKPEAU_RECTL@@@Z 0000000180016dc0 f i MICR.obj
 0001:00015e40       ?GetSize@?$CSimpleMap@PEA_WPEA_WVCExpansionVectorEqualHelper@ATL@@@ATL@@QEBAHXZ 0000000180016e40 f i MICR.obj
 0001:00015e50       ?GetSize@CComDynamicUnkArray@ATL@@QEBAHXZ 0000000180016e50 f i MICR.obj
 0001:00015e60       ?GetSizeMax@?$IPersistStreamInitImpl@VCOPOSMICR@@@ATL@@UEAAJPEAT_ULARGE_INTEGER@@@Z 0000000180016e60 f i MICR.obj
 0001:00016600       ?GetSizeMax@CComVariant@ATL@@QEBAJPEAT_ULARGE_INTEGER@@@Z 0000000180017600 f i MICR.obj
 0001:00016a50       ?GetStreamSize@CComBSTR@ATL@@SAKPEA_W@Z 0000000180017a50 f i MICR.obj
 0001:00016a90       ?GetTI@CComTypeInfoHolder@ATL@@QEAAJK@Z 0000000180017a90 f i MICR.obj
 0001:00017360       ?GetTI@CComTypeInfoHolder@ATL@@QEAAJKPEAPEAUITypeInfo@@@Z 0000000180018360 f i MICR.obj
 0001:00017440       ?GetTypeInfo@?$IDispatchImpl@UIOPOSMICR@@$1?IID_IOPOSMICR@@3U_GUID@@B$1?LIBID_OposMICR_CCO@@3U3@B$00$0A@VCComTypeInfoHolder@ATL@@@ATL@@UEAAJIKPEAPEAUITypeInfo@@@Z 0000000180018440 f i MICR.obj
 0001:00017480       ?GetTypeInfo@CComTypeInfoHolder@ATL@@QEAAJIKPEAPEAUITypeInfo@@@Z 0000000180018480 f i MICR.obj
 0001:000174c0       ?GetTypeInfoCount@?$IDispatchImpl@UIOPOSMICR@@$1?IID_IOPOSMICR@@3U_GUID@@B$1?LIBID_OposMICR_CCO@@3U3@B$00$0A@VCComTypeInfoHolder@ATL@@@ATL@@UEAAJPEAI@Z 00000001800184c0 f i MICR.obj
 0001:000174f0       ?GetUnknown@CComDynamicUnkArray@ATL@@QEAAPEAUIUnknown@@K@Z 00000001800184f0 f i MICR.obj
 0001:00017580       ?GetUnknown@COPOSMICR@@QEAAPEAUIUnknown@@XZ 0000000180018580 f i MICR.obj
 0001:000175a0       ?GetUserClassID@?$IOleObjectImpl@VCOPOSMICR@@@ATL@@UEAAJPEAU_GUID@@@Z 00000001800185a0 f i MICR.obj
 0001:00017660       ?GetUserType@?$IOleObjectImpl@VCOPOSMICR@@@ATL@@UEAAJKPEAPEA_W@Z 0000000180018660 f i MICR.obj
 0001:000176e0       ?GetValueAt@?$CSimpleMap@PEA_WPEA_WVCExpansionVectorEqualHelper@ATL@@@ATL@@QEBAAEAPEA_WH@Z 00000001800186e0 f i MICR.obj
 0001:00017780       ?GetViewStatus@?$IViewObjectExImpl@VCOPOSMICR@@@ATL@@UEAAJPEAK@Z 0000000180018780 f i MICR.obj
 0001:00017870       ?GetWNDPROC@CWndProcThunk@ATL@@QEAAP6A_JPEAUHWND__@@I_K_J@ZXZ 0000000180018870 f i MICR.obj
 0001:000178a0       ?GetWindow@?$IOleInPlaceActiveObjectImpl@VCOPOSMICR@@@ATL@@UEAAJPEAPEAUHWND__@@@Z 00000001800188a0 f i MICR.obj
 0001:00017990       ?GetWindow@?$IOleInPlaceObjectWindowlessImpl@VCOPOSMICR@@@ATL@@UEAAJPEAPEAUHWND__@@@Z 0000000180018990 f i MICR.obj
 0001:00017a80       ?GetWindowProc@?$CWindowImplBaseT@VCWindow@ATL@@V?$CWinTraits@$0FGAAAAAA@$0A@@2@@ATL@@UEAAP6A_JPEAUHWND__@@I_K_J@ZXZ 0000000180018a80 f i MICR.obj
 0001:00017a90       ?GetWndCaption@?$CWindowImpl@VCOPOSMICR@@VCWindow@ATL@@V?$CWinTraits@$0FGAAAAAA@$0A@@3@@ATL@@SAPEB_WXZ 0000000180018a90 f i MICR.obj
 0001:00017aa0       ?GetWndClassInfo@?$CWindowImpl@VCOPOSMICR@@VCWindow@ATL@@V?$CWinTraits@$0FGAAAAAA@$0A@@3@@ATL@@SAAEAU_ATL_WNDCLASSINFOW@2@XZ 0000000180018aa0 f i MICR.obj
 0001:00017ab0       ?GetWndClassName@CWindow@ATL@@SAPEB_WXZ 0000000180018ab0 f i MICR.obj
 0001:00017ac0       ?GetWndExStyle@?$CWinTraits@$0FGAAAAAA@$0A@@ATL@@SAKK@Z 0000000180018ac0 f i MICR.obj
 0001:00017af0       ?GetWndExStyle@?$CWindowImplBaseT@VCWindow@ATL@@V?$CWinTraits@$0FGAAAAAA@$0A@@2@@ATL@@SAKK@Z 0000000180018af0 f i MICR.obj
 0001:00017b10       ?GetWndStyle@?$CWinTraits@$0FGAAAAAA@$0A@@ATL@@SAKK@Z 0000000180018b10 f i MICR.obj
 0001:00017b40       ?GetWndStyle@?$CWindowImplBaseT@VCWindow@ATL@@V?$CWinTraits@$0FGAAAAAA@$0A@@2@@ATL@@SAKK@Z 0000000180018b40 f i MICR.obj
 0001:00017b60       ?GetZoomInfo@CComControlBase@ATL@@QEAAXAEAUATL_DRAWINFO@@@Z 0000000180018b60 f i MICR.obj
 0001:00017d10       ?HKeyFromString@CRegParser@ATL@@KAPEAUHKEY__@@PEA_W@Z 0000000180018d10 f i MICR.obj
 0001:00017d80       ?HandsOffStorage@?$IPersistStorageImpl@VCOPOSMICR@@@ATL@@UEAAJXZ 0000000180018d80 f i MICR.obj
 0001:00017de0       ?HasSubKeys@CRegParser@ATL@@IEAAHPEAUHKEY__@@@Z 0000000180018de0 f i MICR.obj
 0001:00017f50       ?IDataObject_GetData@CComControlBase@ATL@@QEAAJPEAUtagFORMATETC@@PEAUtagSTGMEDIUM@@@Z 0000000180018f50 f i MICR.obj
 0001:00018400       ?IOleInPlaceObject_InPlaceDeactivate@CComControlBase@ATL@@QEAAJXZ 0000000180019400 f i MICR.obj
 0001:00018670       ?IOleInPlaceObject_SetObjectRects@CComControlBase@ATL@@QEAAJPEBUtagRECT@@0@Z 0000000180019670 f i MICR.obj
 0001:00018860       ?IOleInPlaceObject_UIDeactivate@CComControlBase@ATL@@QEAAJXZ 0000000180019860 f i MICR.obj
 0001:00018ad0       ?IOleObject_Advise@CComControlBase@ATL@@QEAAJPEAUIAdviseSink@@PEAK@Z 0000000180019ad0 f i MICR.obj
 0001:00018b70       ?IOleObject_Close@CComControlBase@ATL@@QEAAJK@Z 0000000180019b70 f i MICR.obj
 0001:00018ee0       ?IOleObject_GetClientSite@CComControlBase@ATL@@QEAAJPEAPEAUIOleClientSite@@@Z 0000000180019ee0 f i MICR.obj
 0001:00018fa0       ?IOleObject_SetClientSite@CComControlBase@ATL@@QEAAJPEAUIOleClientSite@@@Z 0000000180019fa0 f i MICR.obj
 0001:000190a0       ?IOleObject_SetExtent@CComControlBase@ATL@@QEAAJKPEAUtagSIZE@@@Z 000000018001a0a0 f i MICR.obj
 0001:000191f0       ?IPSI_GetIPersistStreamInit@?$IPersistStorageImpl@VCOPOSMICR@@@ATL@@AEAAPEAUIPersistStreamInit@@XZ 000000018001a1f0 f i MICR.obj
 0001:000192b0       ?IPersistStreamInit_Load@?$IPersistStreamInitImpl@VCOPOSMICR@@@ATL@@QEAAJPEAUIStream@@PEBUATL_PROPMAP_ENTRY@2@@Z 000000018001a2b0 f i MICR.obj
 0001:00019340       ?IPersistStreamInit_Save@?$IPersistStreamInitImpl@VCOPOSMICR@@@ATL@@QEAAJPEAUIStream@@HPEBUATL_PROPMAP_ENTRY@2@@Z 000000018001a340 f i MICR.obj
 0001:000193e0       ?IQuickActivate_QuickActivate@CComControlBase@ATL@@QEAAJPEAUtagQACONTAINER@@PEAUtagQACONTROL@@@Z 000000018001a3e0 f i MICR.obj
 0001:00019c20       ?IViewObject_Draw@CComControlBase@ATL@@QEAAJKJPEAXPEAUtagDVTARGETDEVICE@@PEAUHDC__@@2PEBU_RECTL@@3@Z 000000018001ac20 f i MICR.obj
 0001:0001a070       ?InPlaceActivate@CComControlBase@ATL@@QEAAJJPEBUtagRECT@@@Z 000000018001b070 f i MICR.obj
 0001:0001ac10       ?InPlaceDeactivate@?$IOleInPlaceObjectWindowlessImpl@VCOPOSMICR@@@ATL@@UEAAJXZ 000000018001bc10 f i MICR.obj
 0001:0001aca0       ?Increment@CComMultiThreadModel@ATL@@SAKPEAJ@Z 000000018001bca0 f i MICR.obj
 0001:0001acc0       ?Increment@CComSingleThreadModel@ATL@@SAKPEAJ@Z 000000018001bcc0 f i MICR.obj
 0001:0001ace0       ?Init@?$CComEnumImpl@UIEnumConnectionPoints@@$1?_GUID_b196b285_bab4_101a_b69c_00aa00341d07@@3U__s_GUID@@BPEAUIConnectionPoint@@V?$_CopyInterface@UIConnectionPoint@@@ATL@@@ATL@@QEAAJPEAPEAUIConnectionPoint@@0PEAUIUnknown@@W4CComEnumFlags@2@@Z 000000018001bce0 f i MICR.obj
 0001:0001afc0       ?Init@?$CComEnumImpl@UIEnumConnections@@$1?_GUID_b196b287_bab4_101a_b69c_00aa00341d07@@3U__s_GUID@@BUtagCONNECTDATA@@V?$_Copy@UtagCONNECTDATA@@@ATL@@@ATL@@QEAAJPEAUtagCONNECTDATA@@0PEAUIUnknown@@W4CComEnumFlags@2@@Z 000000018001bfc0 f i MICR.obj
 0001:0001b2a0       ?Init@CComFakeCriticalSection@ATL@@QEAAJXZ 000000018001c2a0 f i MICR.obj
 0001:0001b2b0       ?Init@CComModule@ATL@@QEAAJPEAU_ATL_OBJMAP_ENTRY30@2@PEAUHINSTANCE__@@PEBU_GUID@@@Z 000000018001c2b0 f i MICR.obj
 0001:0001b390       ?Init@CComSafeDeleteCriticalSection@ATL@@QEAAJXZ 000000018001c390 f i MICR.obj
 0001:0001b410       ?Init@CDynamicStdCallThunk2@ATL@@QEAAH_KPEAX@Z 000000018001c410 f i MICR.obj
 0001:0001b470       ?Init@CWndProcThunk@ATL@@QEAAHP6A_JPEAUHWND__@@I_K_J@ZPEAX@Z 000000018001c470 f i MICR.obj
 0001:0001b4b0       ?InitFromData@?$IOleObjectImpl@VCOPOSMICR@@@ATL@@UEAAJPEAUIDataObject@@HK@Z 000000018001c4b0 f i MICR.obj
 0001:0001b530       ?InitLibId@?$CAtlModuleT@VCComModule@ATL@@@ATL@@SAXXZ 000000018001c530 f i MICR.obj
 0001:0001b540       ?InitNew@?$IPersistStorageImpl@VCOPOSMICR@@@ATL@@UEAAJPEAUIStorage@@@Z 000000018001c540 f i MICR.obj
 0001:0001b630       ?InitNew@?$IPersistStreamInitImpl@VCOPOSMICR@@@ATL@@UEAAJXZ 000000018001c630 f i MICR.obj
 0001:0001b6d0       ?InlineIsEqualUnknown@ATL@@YAHAEBU_GUID@@@Z 000000018001c6d0 f i MICR.obj
 0001:0001b750       ?InternalAddRef@?$CComObjectRootEx@VCComMultiThreadModel@ATL@@@ATL@@QEAAKXZ 000000018001c750 f i MICR.obj
 0001:0001b7c0       ?InternalAddRef@?$CComObjectRootEx@VCComSingleThreadModel@ATL@@@ATL@@QEAAKXZ 000000018001c7c0 f i MICR.obj
 0001:0001b830       ?InternalFinalConstructAddRef@CComObjectRootBase@ATL@@QEAAXXZ 000000018001c830 f i MICR.obj
 0001:0001b840       ?InternalFinalConstructAddRef@COPOSMICR@@QEAAXXZ 000000018001c840 f i MICR.obj
 0001:0001b870       ?InternalFinalConstructRelease@CComObjectRootBase@ATL@@QEAAXXZ 000000018001c870 f i MICR.obj
 0001:0001b8d0       ?InternalFinalConstructRelease@COPOSMICR@@QEAAXXZ 000000018001c8d0 f i MICR.obj
 0001:0001b900       ?InternalGetSite@CComControlBase@ATL@@QEAAJAEBU_GUID@@PEAPEAX@Z 000000018001c900 f i MICR.obj
 0001:0001b9d0       ?InternalQueryInterface@CComObjectRootBase@ATL@@SAJPEAXPEBU_ATL_INTMAP_ENTRY@2@AEBU_GUID@@PEAPEAX@Z 000000018001c9d0 f i MICR.obj
 0001:0001bae0       ?InternalRelease@?$CComObjectRootEx@VCComMultiThreadModel@ATL@@@ATL@@QEAAKXZ 000000018001cae0 f i MICR.obj
 0001:0001bb50       ?InternalRelease@?$CComObjectRootEx@VCComSingleThreadModel@ATL@@@ATL@@QEAAKXZ 000000018001cb50 f i MICR.obj
 0001:0001bbc0       ?InternalSetAtIndex@?$CSimpleArray@GV?$CSimpleArrayEqualHelper@G@ATL@@@ATL@@QEAAXHAEBG@Z 000000018001cbc0 f i MICR.obj
 0001:0001bc30       ?InternalSetAtIndex@?$CSimpleMap@PEA_WPEA_WVCExpansionVectorEqualHelper@ATL@@@ATL@@QEAAXHAEBQEA_W0@Z 000000018001cc30 f i MICR.obj
 0001:0001bcf0       ?Invoke@?$IDispatchImpl@UIOPOSMICR@@$1?IID_IOPOSMICR@@3U_GUID@@B$1?LIBID_OposMICR_CCO@@3U3@B$00$0A@VCComTypeInfoHolder@ATL@@@ATL@@UEAAJJAEBU_GUID@@KGPEAUtagDISPPARAMS@@PEAUtagVARIANT@@PEAUtagEXCEPINFO@@PEAI@Z 000000018001ccf0 f i MICR.obj
 0001:0001bd80       ?Invoke@CComTypeInfoHolder@ATL@@QEAAJPEAUIDispatch@@JAEBU_GUID@@KGPEAUtagDISPPARAMS@@PEAUtagVARIANT@@PEAUtagEXCEPINFO@@PEAI@Z 000000018001cd80 f i MICR.obj
 0001:0001be30       ?IsDirty@?$IPersistStorageImpl@VCOPOSMICR@@@ATL@@UEAAJXZ 000000018001ce30 f i MICR.obj
 0001:0001bf20       ?IsDirty@?$IPersistStreamInitImpl@VCOPOSMICR@@@ATL@@UEAAJXZ 000000018001cf20 f i MICR.obj
 0001:0001bfd0       ?IsEqualKey@CExpansionVectorEqualHelper@ATL@@SA_NQEA_W0@Z 000000018001cfd0 f i MICR.obj
 0001:0001c000       ?IsEqualObject@?$CComPtrBase@UIOleClientSite@@@ATL@@QEAA_NPEAUIUnknown@@@Z 000000018001d000 f i MICR.obj
 0001:0001c150       ?IsEqualObject@?$CComPtrBase@UITypeInfo@@@ATL@@QEAA_NPEAUIUnknown@@@Z 000000018001d150 f i MICR.obj
 0001:0001c2a0       ?IsSpace@CRegParser@ATL@@IEAAH_W@Z 000000018001d2a0 f i MICR.obj
 0001:0001c2e0       ?IsUpToDate@?$IOleObjectImpl@VCOPOSMICR@@@ATL@@UEAAJXZ 000000018001d2e0 f i MICR.obj
 0001:0001c340       ?Length@CComBSTR@ATL@@QEBAIXZ 000000018001d340 f i MICR.obj
 0001:0001c360       ?Load@?$IPersistStorageImpl@VCOPOSMICR@@@ATL@@UEAAJPEAUIStorage@@@Z 000000018001d360 f i MICR.obj
 0001:0001c510       ?Load@?$IPersistStreamInitImpl@VCOPOSMICR@@@ATL@@UEAAJPEAUIStream@@@Z 000000018001d510 f i MICR.obj
 0001:0001c5c0       ?LoadCursorW@AtlModuleRegisterWndClassInfoParamW@ATL@@SAPEAUHICON__@@PEAUHINSTANCE__@@PEB_W@Z 000000018001d5c0 f i MICR.obj
 0001:0001c5f0       ?LoadNameCache@CComTypeInfoHolder@ATL@@QEAAJPEAUITypeInfo@@@Z 000000018001d5f0 f i MICR.obj
 0001:0001c930       ?Lock@?$CComCritSecLock@VCComCriticalSection@ATL@@@ATL@@QEAAJXZ 000000018001d930 f i MICR.obj
 0001:0001ca00       ?Lock@?$CComObjectRootEx@VCComSingleThreadModel@ATL@@@ATL@@QEAAXXZ 000000018001da00 f i MICR.obj
 0001:0001ca10       ?Lock@CAtlModule@ATL@@UEAAJXZ 000000018001da10 f i MICR.obj
 0001:0001ca40       ?Lock@CComCriticalSection@ATL@@QEAAJXZ 000000018001da40 f i MICR.obj
 0001:0001ca60       ?Lock@CComFakeCriticalSection@ATL@@QEAAJXZ 000000018001da60 f i MICR.obj
 0001:0001ca70       ?LockServer@CComClassFactory@ATL@@UEAAJH@Z 000000018001da70 f i MICR.obj
 0001:0001cac0       ?Lookup@?$CSimpleMap@PEA_WPEA_WVCExpansionVectorEqualHelper@ATL@@@ATL@@QEBAPEA_WAEBQEA_W@Z 000000018001dac0 f i MICR.obj
 0001:0001cb10       ?Next@?$CComEnumImpl@UIEnumConnectionPoints@@$1?_GUID_b196b285_bab4_101a_b69c_00aa00341d07@@3U__s_GUID@@BPEAUIConnectionPoint@@V?$_CopyInterface@UIConnectionPoint@@@ATL@@@ATL@@UEAAJKPEAPEAUIConnectionPoint@@PEAK@Z 000000018001db10 f i MICR.obj
 0001:0001ccc0       ?Next@?$CComEnumImpl@UIEnumConnections@@$1?_GUID_b196b287_bab4_101a_b69c_00aa00341d07@@3U__s_GUID@@BUtagCONNECTDATA@@V?$_Copy@UtagCONNECTDATA@@@ATL@@@ATL@@UEAAJKPEAUtagCONNECTDATA@@PEAK@Z 000000018001dcc0 f i MICR.obj
 0001:0001ce70       ?NextToken@CRegParser@ATL@@IEAAJPEA_W@Z 000000018001de70 f i MICR.obj
 0001:0001d1f0       ?OLE2CT_EX@@YAPEB_WPEB_WI@Z 000000018001e1f0 f i MICR.obj
 0001:0001d210       ?OLE2CT_EX_DEF@@YAPEB_WPEB_W@Z 000000018001e210 f i MICR.obj
 0001:0001d220       ?OLE2T_EX@@YAPEA_WPEA_WI@Z 000000018001e220 f i MICR.obj
 0001:0001d240       ?OnAmbientPropertyChange@?$IOleControlImpl@VCOPOSMICR@@@ATL@@UEAAJJ@Z 000000018001e240 f i MICR.obj
 0001:0001d2f0       ?OnDocWindowActivate@?$IOleInPlaceActiveObjectImpl@VCOPOSMICR@@@ATL@@UEAAJH@Z 000000018001e2f0 f i MICR.obj
 0001:0001d390       ?OnDrawAdvanced@CComControlBase@ATL@@UEAAJAEAUATL_DRAWINFO@@@Z 000000018001e390 f i MICR.obj
 0001:0001d5e0       ?OnFinalMessage@?$CWindowImplBaseT@VCWindow@ATL@@V?$CWinTraits@$0FGAAAAAA@$0A@@2@@ATL@@UEAAXPEAUHWND__@@@Z 000000018001e5e0 f i MICR.obj
 0001:0001d5f0       ?OnFrameWindowActivate@?$IOleInPlaceActiveObjectImpl@VCOPOSMICR@@@ATL@@UEAAJH@Z 000000018001e5f0 f i MICR.obj
 0001:0001d650       ?OnKillFocus@CComControlBase@ATL@@QEAA_JI_K_JAEAH@Z 000000018001e650 f i MICR.obj
 0001:0001d750       ?OnMnemonic@?$IOleControlImpl@VCOPOSMICR@@@ATL@@UEAAJPEAUtagMSG@@@Z 000000018001e750 f i MICR.obj
 0001:0001d7c0       ?OnMouseActivate@CComControlBase@ATL@@QEAA_JI_K_JAEAH@Z 000000018001e7c0 f i MICR.obj
 0001:0001d960       ?OnPaint@CComControlBase@ATL@@QEAA_JI_K_JAEAH@Z 000000018001e960 f i MICR.obj
 0001:0001daf0       ?OnPostVerbDiscardUndo@?$IOleObjectImpl@VCOPOSMICR@@@ATL@@QEAAJXZ 000000018001eaf0 f i MICR.obj
 0001:0001db00       ?OnPostVerbHide@?$IOleObjectImpl@VCOPOSMICR@@@ATL@@QEAAJXZ 000000018001eb00 f i MICR.obj
 0001:0001db10       ?OnPostVerbInPlaceActivate@?$IOleObjectImpl@VCOPOSMICR@@@ATL@@QEAAJXZ 000000018001eb10 f i MICR.obj
 0001:0001db20       ?OnPostVerbOpen@?$IOleObjectImpl@VCOPOSMICR@@@ATL@@QEAAJXZ 000000018001eb20 f i MICR.obj
 0001:0001db30       ?OnPostVerbShow@?$IOleObjectImpl@VCOPOSMICR@@@ATL@@QEAAJXZ 000000018001eb30 f i MICR.obj
 0001:0001db40       ?OnPostVerbUIActivate@?$IOleObjectImpl@VCOPOSMICR@@@ATL@@QEAAJXZ 000000018001eb40 f i MICR.obj
 0001:0001db50       ?OnPreVerbDiscardUndo@?$IOleObjectImpl@VCOPOSMICR@@@ATL@@QEAAJXZ 000000018001eb50 f i MICR.obj
 0001:0001db60       ?OnPreVerbHide@?$IOleObjectImpl@VCOPOSMICR@@@ATL@@QEAAJXZ 000000018001eb60 f i MICR.obj
 0001:0001db70       ?OnPreVerbInPlaceActivate@?$IOleObjectImpl@VCOPOSMICR@@@ATL@@QEAAJXZ 000000018001eb70 f i MICR.obj
 0001:0001db80       ?OnPreVerbOpen@?$IOleObjectImpl@VCOPOSMICR@@@ATL@@QEAAJXZ 000000018001eb80 f i MICR.obj
 0001:0001db90       ?OnPreVerbShow@?$IOleObjectImpl@VCOPOSMICR@@@ATL@@QEAAJXZ 000000018001eb90 f i MICR.obj
 0001:0001dba0       ?OnPreVerbUIActivate@?$IOleObjectImpl@VCOPOSMICR@@@ATL@@QEAAJXZ 000000018001eba0 f i MICR.obj
 0001:0001dbb0       ?OnSetFocus@CComControlBase@ATL@@QEAA_JI_K_JAEAH@Z 000000018001ebb0 f i MICR.obj
 0001:0001ddb0       ?OnWindowMessage@?$IOleInPlaceObjectWindowlessImpl@VCOPOSMICR@@@ATL@@UEAAJI_K_JPEA_J@Z 000000018001edb0 f i MICR.obj
 0001:0001dfd0       ?Open@CRegKey@ATL@@QEAAJPEAUHKEY__@@PEB_WK@Z 000000018001efd0 f i MICR.obj
 0001:0001e150       ?OuterAddRef@CComObjectRootBase@ATL@@QEAAKXZ 000000018001f150 f i MICR.obj
 0001:0001e180       ?OuterQueryInterface@CComObjectRootBase@ATL@@QEAAJAEBU_GUID@@PEAPEAX@Z 000000018001f180 f i MICR.obj
 0001:0001e1c0       ?OuterRelease@CComObjectRootBase@ATL@@QEAAKXZ 000000018001f1c0 f i MICR.obj
 0001:0001e1f0       ?PreProcessBuffer@CRegParser@ATL@@QEAAJPEA_WPEAPEA_W@Z 000000018001f1f0 f i MICR.obj
 0001:0001e8d0       ?PreTranslateAccelerator@CComControlBase@ATL@@QEAAHPEAUtagMSG@@AEAJ@Z 000000018001f8d0 f i MICR.obj
 0001:0001e8f0       ?ProcessWindowMessage@?$CComControl@VCOPOSMICR@@V?$CWindowImpl@VCOPOSMICR@@VCWindow@ATL@@V?$CWinTraits@$0FGAAAAAA@$0A@@3@@ATL@@@ATL@@UEAAHPEAUHWND__@@I_K_JAEA_JK@Z 000000018001f8f0 f i MICR.obj
 0001:0001eb70       ?ProcessWindowMessage@COPOSMICR@@UEAAHPEAUHWND__@@I_K_JAEA_JK@Z 000000018001fb70 f i MICR.obj
 0001:0001ecd0       ?PutProperty@?$CComPtr@UIDispatch@@@ATL@@QEAAJJPEAUtagVARIANT@@@Z 000000018001fcd0 f i MICR.obj
 0001:0001ed00       ?PutProperty@?$CComPtr@UIDispatch@@@ATL@@SAJPEAUIDispatch@@JPEAUtagVARIANT@@@Z 000000018001fd00 f i MICR.obj
 0001:0001efb0       ?QueryGetData@?$IDataObjectImpl@VCOPOSMICR@@@ATL@@UEAAJPEAUtagFORMATETC@@@Z 000000018001ffb0 f i MICR.obj
 0001:0001f020       ?QueryHitPoint@?$IViewObjectExImpl@VCOPOSMICR@@@ATL@@UEAAJKPEBUtagRECT@@UtagPOINT@@JPEAK@Z 0000000180020020 f i MICR.obj
 0001:0001f180       ?QueryHitRect@?$IViewObjectExImpl@VCOPOSMICR@@@ATL@@UEAAJKPEBUtagRECT@@0JPEAK@Z 0000000180020180 f i MICR.obj
 0001:0001f350       ?QueryInterface@?$CComAggObject@VCOPOSMICR@@@ATL@@UEAAJAEBU_GUID@@PEAPEAX@Z 0000000180020350 f i MICR.obj
 0001:0001f420       ?QueryInterface@?$CComContainedObject@VCOPOSMICR@@@ATL@@UEAAJAEBU_GUID@@PEAPEAX@Z 0000000180020420 f i MICR.obj
 0001:0001f458       ?QueryInterface@?$CComContainedObject@VCOPOSMICR@@@ATL@@WBAA@EAAJAEBU_GUID@@PEAPEAX@Z 0000000180020458 f i MICR.obj
 0001:0001f464       ?QueryInterface@?$CComContainedObject@VCOPOSMICR@@@ATL@@WBAI@EAAJAEBU_GUID@@PEAPEAX@Z 0000000180020464 f i MICR.obj
 0001:0001f470       ?QueryInterface@?$CComContainedObject@VCOPOSMICR@@@ATL@@WBBA@EAAJAEBU_GUID@@PEAPEAX@Z 0000000180020470 f i MICR.obj
 0001:0001f47c       ?QueryInterface@?$CComContainedObject@VCOPOSMICR@@@ATL@@WBBI@EAAJAEBU_GUID@@PEAPEAX@Z 000000018002047c f i MICR.obj
 0001:0001f488       ?QueryInterface@?$CComContainedObject@VCOPOSMICR@@@ATL@@WLI@EAAJAEBU_GUID@@PEAPEAX@Z 0000000180020488 f i MICR.obj
 0001:0001f494       ?QueryInterface@?$CComContainedObject@VCOPOSMICR@@@ATL@@WMA@EAAJAEBU_GUID@@PEAPEAX@Z 0000000180020494 f i MICR.obj
 0001:0001f4a0       ?QueryInterface@?$CComContainedObject@VCOPOSMICR@@@ATL@@WMI@EAAJAEBU_GUID@@PEAPEAX@Z 00000001800204a0 f i MICR.obj
 0001:0001f4ac       ?QueryInterface@?$CComContainedObject@VCOPOSMICR@@@ATL@@WNA@EAAJAEBU_GUID@@PEAPEAX@Z 00000001800204ac f i MICR.obj
 0001:0001f4b8       ?QueryInterface@?$CComContainedObject@VCOPOSMICR@@@ATL@@WNI@EAAJAEBU_GUID@@PEAPEAX@Z 00000001800204b8 f i MICR.obj
 0001:0001f4c4       ?QueryInterface@?$CComContainedObject@VCOPOSMICR@@@ATL@@WOA@EAAJAEBU_GUID@@PEAPEAX@Z 00000001800204c4 f i MICR.obj
 0001:0001f4d0       ?QueryInterface@?$CComContainedObject@VCOPOSMICR@@@ATL@@WOI@EAAJAEBU_GUID@@PEAPEAX@Z 00000001800204d0 f i MICR.obj
 0001:0001f4dc       ?QueryInterface@?$CComContainedObject@VCOPOSMICR@@@ATL@@WPA@EAAJAEBU_GUID@@PEAPEAX@Z 00000001800204dc f i MICR.obj
 0001:0001f4e8       ?QueryInterface@?$CComContainedObject@VCOPOSMICR@@@ATL@@WPI@EAAJAEBU_GUID@@PEAPEAX@Z 00000001800204e8 f i MICR.obj
 0001:0001f500       ?QueryInterface@?$CComObject@V?$CComEnum@UIEnumConnectionPoints@@$1?_GUID_b196b285_bab4_101a_b69c_00aa00341d07@@3U__s_GUID@@BPEAUIConnectionPoint@@V?$_CopyInterface@UIConnectionPoint@@@ATL@@VCComSingleThreadModel@6@@ATL@@@ATL@@UEAAJAEBU_GUID@@PEAPEAX@Z 0000000180020500 f i MICR.obj
 0001:0001f530       ?QueryInterface@?$CComObject@V?$CComEnum@UIEnumConnections@@$1?_GUID_b196b287_bab4_101a_b69c_00aa00341d07@@3U__s_GUID@@BUtagCONNECTDATA@@V?$_Copy@UtagCONNECTDATA@@@ATL@@VCComSingleThreadModel@6@@ATL@@@ATL@@UEAAJAEBU_GUID@@PEAPEAX@Z 0000000180020530 f i MICR.obj
 0001:0001f560       ?QueryInterface@?$CComObject@VCOPOSMICR@@@ATL@@UEAAJAEBU_GUID@@PEAPEAX@Z 0000000180020560 f i MICR.obj
 0001:0001f590       ?QueryInterface@?$CComObject@VCOPOSMICR@@@ATL@@WBAA@EAAJAEBU_GUID@@PEAPEAX@Z 0000000180020590 f i MICR.obj
 0001:0001f59c       ?QueryInterface@?$CComObject@VCOPOSMICR@@@ATL@@WBAI@EAAJAEBU_GUID@@PEAPEAX@Z 000000018002059c f i MICR.obj
 0001:0001f5a8       ?QueryInterface@?$CComObject@VCOPOSMICR@@@ATL@@WBBA@EAAJAEBU_GUID@@PEAPEAX@Z 00000001800205a8 f i MICR.obj
 0001:0001f5b4       ?QueryInterface@?$CComObject@VCOPOSMICR@@@ATL@@WBBI@EAAJAEBU_GUID@@PEAPEAX@Z 00000001800205b4 f i MICR.obj
 0001:0001f5c0       ?QueryInterface@?$CComObject@VCOPOSMICR@@@ATL@@WLI@EAAJAEBU_GUID@@PEAPEAX@Z 00000001800205c0 f i MICR.obj
 0001:0001f5cc       ?QueryInterface@?$CComObject@VCOPOSMICR@@@ATL@@WMA@EAAJAEBU_GUID@@PEAPEAX@Z 00000001800205cc f i MICR.obj
 0001:0001f5d8       ?QueryInterface@?$CComObject@VCOPOSMICR@@@ATL@@WMI@EAAJAEBU_GUID@@PEAPEAX@Z 00000001800205d8 f i MICR.obj
 0001:0001f5e4       ?QueryInterface@?$CComObject@VCOPOSMICR@@@ATL@@WNA@EAAJAEBU_GUID@@PEAPEAX@Z 00000001800205e4 f i MICR.obj
 0001:0001f5f0       ?QueryInterface@?$CComObject@VCOPOSMICR@@@ATL@@WNI@EAAJAEBU_GUID@@PEAPEAX@Z 00000001800205f0 f i MICR.obj
 0001:0001f5fc       ?QueryInterface@?$CComObject@VCOPOSMICR@@@ATL@@WOA@EAAJAEBU_GUID@@PEAPEAX@Z 00000001800205fc f i MICR.obj
 0001:0001f608       ?QueryInterface@?$CComObject@VCOPOSMICR@@@ATL@@WOI@EAAJAEBU_GUID@@PEAPEAX@Z 0000000180020608 f i MICR.obj
 0001:0001f614       ?QueryInterface@?$CComObject@VCOPOSMICR@@@ATL@@WPA@EAAJAEBU_GUID@@PEAPEAX@Z 0000000180020614 f i MICR.obj
 0001:0001f620       ?QueryInterface@?$CComObject@VCOPOSMICR@@@ATL@@WPI@EAAJAEBU_GUID@@PEAPEAX@Z 0000000180020620 f i MICR.obj
 0001:0001f630       ?QueryInterface@?$CComObjectCached@VCComClassFactory@ATL@@@ATL@@UEAAJAEBU_GUID@@PEAPEAX@Z 0000000180020630 f i MICR.obj
 0001:0001f660       ?QueryInterface@CRegObject@ATL@@UEAAJAEBU_GUID@@PEAPEAX@Z 0000000180020660 f i MICR.obj
 0001:0001f6d0       ?QuickActivate@?$IQuickActivateImpl@VCOPOSMICR@@@ATL@@UEAAJPEAUtagQACONTAINER@@PEAUtagQACONTROL@@@Z 00000001800206d0 f i MICR.obj
 0001:0001f780       ?ReactivateAndUndo@?$IOleInPlaceObjectWindowlessImpl@VCOPOSMICR@@@ATL@@UEAAJXZ 0000000180020780 f i MICR.obj
 0001:0001f7f0       ?ReadFromStream@CComBSTR@ATL@@QEAAJPEAUIStream@@@Z 00000001800207f0 f i MICR.obj
 0001:0001fcd0       ?ReadFromStream@CComVariant@ATL@@QEAAJPEAUIStream@@GTClassesAllowedInStream@2@K@Z 0000000180020cd0 f i MICR.obj
 0001:00020110       ?RecurseDeleteKey@CRegKey@ATL@@QEAAJPEB_W@Z 0000000180021110 f i MICR.obj
 0001:00020330       ?RegCreateKeyExW@CAtlTransactionManager@ATL@@QEAAJPEAUHKEY__@@PEB_WKPEA_WKKQEAU_SECURITY_ATTRIBUTES@@PEAPEAU3@PEAK@Z 0000000180021330 f i MICR.obj
 0001:000204e0       ?RegDeleteKeyW@CAtlTransactionManager@ATL@@QEAAJPEAUHKEY__@@PEB_W@Z 00000001800214e0 f i MICR.obj
 0001:000205e0       ?RegOpenKeyExW@CAtlTransactionManager@ATL@@QEAAJPEAUHKEY__@@PEB_WKKPEAPEAU3@@Z 00000001800215e0 f i MICR.obj
 0001:00020720       ?Register@_ATL_WNDCLASSINFOW@ATL@@QEAAGPEAP6A_JPEAUHWND__@@I_K_J@Z@Z 0000000180021720 f i MICR.obj
 0001:00020760       ?RegisterBuffer@CRegParser@ATL@@QEAAJPEA_WH@Z 0000000180021760 f i MICR.obj
 0001:00020b50       ?RegisterClassExW@AtlModuleRegisterWndClassInfoParamW@ATL@@SAGPEAU_ATL_WIN_MODULE70@2@PEBUtagWNDCLASSEXW@@@Z 0000000180021b50 f i MICR.obj
 0001:00020b80       ?RegisterFromResource@CRegObject@ATL@@IEAAJPEB_W00H@Z 0000000180021b80 f i MICR.obj
 0001:00020fe0       ?RegisterServer@?$CAtlModuleT@VCComModule@ATL@@@ATL@@QEAAJHPEBU_GUID@@@Z 0000000180021fe0 f i MICR.obj
 0001:00021040       ?RegisterServer@CAtlComModule@ATL@@QEAAJHPEBU_GUID@@@Z 0000000180022040 f i MICR.obj
 0001:00021070       ?RegisterServer@CComModule@ATL@@QEAAJHPEBU_GUID@@@Z 0000000180022070 f i MICR.obj
 0001:00021150       ?RegisterSubkeys@CRegParser@ATL@@IEAAJPEA_WPEAUHKEY__@@HH@Z 0000000180022150 f i MICR.obj
 0001:00021f30       ?Release@?$CComAggObject@VCOPOSMICR@@@ATL@@UEAAKXZ 0000000180022f30 f i MICR.obj
 0001:00021fe0       ?Release@?$CComContainedObject@VCOPOSMICR@@@ATL@@UEAAKXZ 0000000180022fe0 f i MICR.obj
 0001:00022004       ?Release@?$CComContainedObject@VCOPOSMICR@@@ATL@@WBAA@EAAKXZ 0000000180023004 f i MICR.obj
 0001:00022010       ?Release@?$CComContainedObject@VCOPOSMICR@@@ATL@@WBAI@EAAKXZ 0000000180023010 f i MICR.obj
 0001:0002201c       ?Release@?$CComContainedObject@VCOPOSMICR@@@ATL@@WBBA@EAAKXZ 000000018002301c f i MICR.obj
 0001:00022028       ?Release@?$CComContainedObject@VCOPOSMICR@@@ATL@@WBBI@EAAKXZ 0000000180023028 f i MICR.obj
 0001:00022034       ?Release@?$CComContainedObject@VCOPOSMICR@@@ATL@@WBCI@EAAKXZ 0000000180023034 f i MICR.obj
 0001:00022040       ?Release@?$CComContainedObject@VCOPOSMICR@@@ATL@@WBEA@EAAKXZ 0000000180023040 f i MICR.obj
 0001:0002204c       ?Release@?$CComContainedObject@VCOPOSMICR@@@ATL@@WLI@EAAKXZ 000000018002304c f i MICR.obj
 0001:00022058       ?Release@?$CComContainedObject@VCOPOSMICR@@@ATL@@WMA@EAAKXZ 0000000180023058 f i MICR.obj
 0001:00022064       ?Release@?$CComContainedObject@VCOPOSMICR@@@ATL@@WMI@EAAKXZ 0000000180023064 f i MICR.obj
 0001:00022070       ?Release@?$CComContainedObject@VCOPOSMICR@@@ATL@@WNA@EAAKXZ 0000000180023070 f i MICR.obj
 0001:0002207c       ?Release@?$CComContainedObject@VCOPOSMICR@@@ATL@@WNI@EAAKXZ 000000018002307c f i MICR.obj
 0001:00022088       ?Release@?$CComContainedObject@VCOPOSMICR@@@ATL@@WOA@EAAKXZ 0000000180023088 f i MICR.obj
 0001:00022094       ?Release@?$CComContainedObject@VCOPOSMICR@@@ATL@@WOI@EAAKXZ 0000000180023094 f i MICR.obj
 0001:000220a0       ?Release@?$CComContainedObject@VCOPOSMICR@@@ATL@@WPA@EAAKXZ 00000001800230a0 f i MICR.obj
 0001:000220ac       ?Release@?$CComContainedObject@VCOPOSMICR@@@ATL@@WPI@EAAKXZ 00000001800230ac f i MICR.obj
 0001:000220c0       ?Release@?$CComObject@V?$CComEnum@UIEnumConnectionPoints@@$1?_GUID_b196b285_bab4_101a_b69c_00aa00341d07@@3U__s_GUID@@BPEAUIConnectionPoint@@V?$_CopyInterface@UIConnectionPoint@@@ATL@@VCComSingleThreadModel@6@@ATL@@@ATL@@UEAAKXZ 00000001800230c0 f i MICR.obj
 0001:00022170       ?Release@?$CComObject@V?$CComEnum@UIEnumConnections@@$1?_GUID_b196b287_bab4_101a_b69c_00aa00341d07@@3U__s_GUID@@BUtagCONNECTDATA@@V?$_Copy@UtagCONNECTDATA@@@ATL@@VCComSingleThreadModel@6@@ATL@@@ATL@@UEAAKXZ 0000000180023170 f i MICR.obj
 0001:00022220       ?Release@?$CComObject@VCOPOSMICR@@@ATL@@UEAAKXZ 0000000180023220 f i MICR.obj
 0001:000222d8       ?Release@?$CComObject@VCOPOSMICR@@@ATL@@WBAA@EAAKXZ 00000001800232d8 f i MICR.obj
 0001:000222e4       ?Release@?$CComObject@VCOPOSMICR@@@ATL@@WBAI@EAAKXZ 00000001800232e4 f i MICR.obj
 0001:000222f0       ?Release@?$CComObject@VCOPOSMICR@@@ATL@@WBBA@EAAKXZ 00000001800232f0 f i MICR.obj
 0001:000222fc       ?Release@?$CComObject@VCOPOSMICR@@@ATL@@WBBI@EAAKXZ 00000001800232fc f i MICR.obj
 0001:00022308       ?Release@?$CComObject@VCOPOSMICR@@@ATL@@WBCI@EAAKXZ 0000000180023308 f i MICR.obj
 0001:00022314       ?Release@?$CComObject@VCOPOSMICR@@@ATL@@WBEA@EAAKXZ 0000000180023314 f i MICR.obj
 0001:00022320       ?Release@?$CComObject@VCOPOSMICR@@@ATL@@WLI@EAAKXZ 0000000180023320 f i MICR.obj
 0001:0002232c       ?Release@?$CComObject@VCOPOSMICR@@@ATL@@WMA@EAAKXZ 000000018002332c f i MICR.obj
 0001:00022338       ?Release@?$CComObject@VCOPOSMICR@@@ATL@@WMI@EAAKXZ 0000000180023338 f i MICR.obj
 0001:00022344       ?Release@?$CComObject@VCOPOSMICR@@@ATL@@WNA@EAAKXZ 0000000180023344 f i MICR.obj
 0001:00022350       ?Release@?$CComObject@VCOPOSMICR@@@ATL@@WNI@EAAKXZ 0000000180023350 f i MICR.obj
 0001:0002235c       ?Release@?$CComObject@VCOPOSMICR@@@ATL@@WOA@EAAKXZ 000000018002335c f i MICR.obj
 0001:00022368       ?Release@?$CComObject@VCOPOSMICR@@@ATL@@WOI@EAAKXZ 0000000180023368 f i MICR.obj
 0001:00022374       ?Release@?$CComObject@VCOPOSMICR@@@ATL@@WPA@EAAKXZ 0000000180023374 f i MICR.obj
 0001:00022380       ?Release@?$CComObject@VCOPOSMICR@@@ATL@@WPI@EAAKXZ 0000000180023380 f i MICR.obj
 0001:00022390       ?Release@?$CComObjectCached@VCComClassFactory@ATL@@@ATL@@UEAAKXZ 0000000180023390 f i MICR.obj
 0001:00022420       ?Release@?$CComPtrBase@UIAdviseSink@@@ATL@@QEAAXXZ 0000000180023420 f i MICR.obj
 0001:00022470       ?Release@?$CComPtrBase@UIDispatch@@@ATL@@QEAAXXZ 0000000180023470 f i MICR.obj
 0001:000224c0       ?Release@?$CComPtrBase@UIOleInPlaceSiteWindowless@@@ATL@@QEAAXXZ 00000001800234c0 f i MICR.obj
 0001:00022510       ?Release@CRegObject@ATL@@UEAAKXZ 0000000180023510 f i MICR.obj
 0001:00022570       ?Remove@CComDynamicUnkArray@ATL@@QEAAHK@Z 0000000180023570 f i MICR.obj
 0001:00022630       ?RemoveAll@?$CSimpleMap@PEA_WPEA_WVCExpansionVectorEqualHelper@ATL@@@ATL@@QEAAXXZ 0000000180023630 f i MICR.obj
 0001:000226c0       ?Reset@?$CComEnumImpl@UIEnumConnectionPoints@@$1?_GUID_b196b285_bab4_101a_b69c_00aa00341d07@@3U__s_GUID@@BPEAUIConnectionPoint@@V?$_CopyInterface@UIConnectionPoint@@@ATL@@@ATL@@UEAAJXZ 00000001800236c0 f i MICR.obj
 0001:000226e0       ?Reset@?$CComEnumImpl@UIEnumConnections@@$1?_GUID_b196b287_bab4_101a_b69c_00aa00341d07@@3U__s_GUID@@BUtagCONNECTDATA@@V?$_Copy@UtagCONNECTDATA@@@ATL@@@ATL@@UEAAJXZ 00000001800236e0 f i MICR.obj
 0001:00022700       ?ResizeBorder@?$IOleInPlaceActiveObjectImpl@VCOPOSMICR@@@ATL@@UEAAJPEBUtagRECT@@PEAUIOleInPlaceUIWindow@@H@Z 0000000180023700 f i MICR.obj
 0001:00022770       ?ResourceRegister@CRegObject@ATL@@QEAAJPEB_WI0@Z 0000000180023770 f i MICR.obj
 0001:00022850       ?ResourceRegisterSz@CRegObject@ATL@@QEAAJPEB_W00@Z 0000000180023850 f i MICR.obj
 0001:00022970       ?ResourceUnregister@CRegObject@ATL@@QEAAJPEB_WI0@Z 0000000180023970 f i MICR.obj
 0001:00022a50       ?ResourceUnregisterSz@CRegObject@ATL@@QEAAJPEB_W00@Z 0000000180023a50 f i MICR.obj
 0001:00022b70       ?SOData@COPOSMICR@@MEAAJJ@Z 0000000180023b70 f i MICR.obj
 0001:00022c00       ?SODirectIO@COPOSMICR@@MEAAJJPEAJPEAPEA_W@Z 0000000180023c00 f i MICR.obj
 0001:00022e40       ?SOError@COPOSMICR@@MEAAJJJJPEAJ@Z 0000000180023e40 f i MICR.obj
 0001:00022f30       ?SOOutputCompleteDummy@COPOSMICR@@MEAAJJ@Z 0000000180023f30 f i MICR.obj
 0001:00022f50       ?SOStatusUpdate@COPOSMICR@@MEAAJJ@Z 0000000180023f50 f i MICR.obj
 0001:00022fe0       ?Save@?$IPersistStorageImpl@VCOPOSMICR@@@ATL@@UEAAJPEAUIStorage@@H@Z 0000000180023fe0 f i MICR.obj
 0001:000231a0       ?Save@?$IPersistStreamInitImpl@VCOPOSMICR@@@ATL@@UEAAJPEAUIStream@@H@Z 00000001800241a0 f i MICR.obj
 0001:00023250       ?SaveCompleted@?$IPersistStorageImpl@VCOPOSMICR@@@ATL@@UEAAJPEAUIStorage@@@Z 0000000180024250 f i MICR.obj
 0001:000232b0       ?SendOnDataChange@CComControlBase@ATL@@QEAAJK@Z 00000001800242b0 f i MICR.obj
 0001:000233b0       ?SendOnSave@CComControlBase@ATL@@QEAAJXZ 00000001800243b0 f i MICR.obj
 0001:00023410       ?SendOnViewChange@CComControlBase@ATL@@QEAAJKJ@Z 0000000180024410 f i MICR.obj
 0001:00023470       ?SetAdvise@?$IViewObjectExImpl@VCOPOSMICR@@@ATL@@UEAAJKKPEAUIAdviseSink@@@Z 0000000180024470 f i MICR.obj
 0001:00023520       ?SetClientSite@?$IOleObjectImpl@VCOPOSMICR@@@ATL@@UEAAJPEAUIOleClientSite@@@Z 0000000180024520 f i MICR.obj
 0001:000235c0       ?SetColorScheme@?$IOleObjectImpl@VCOPOSMICR@@@ATL@@UEAAJPEAUtagLOGPALETTE@@@Z 00000001800245c0 f i MICR.obj
 0001:00023630       ?SetContentExtent@?$IQuickActivateImpl@VCOPOSMICR@@@ATL@@UEAAJPEAUtagSIZE@@@Z 0000000180024630 f i MICR.obj
 0001:000236e0       ?SetControlFocus@CComControlBase@ATL@@QEAAHH@Z 00000001800246e0 f i MICR.obj
 0001:00023860       ?SetDWORDValue@CRegKey@ATL@@QEAAJPEB_WK@Z 0000000180024860 f i MICR.obj
 0001:00023900       ?SetData@?$IDataObjectImpl@VCOPOSMICR@@@ATL@@UEAAJPEAUtagFORMATETC@@PEAUtagSTGMEDIUM@@H@Z 0000000180024900 f i MICR.obj
 0001:00023980       ?SetExtent@?$IOleObjectImpl@VCOPOSMICR@@@ATL@@UEAAJKPEAUtagSIZE@@@Z 0000000180024980 f i MICR.obj
 0001:00023a30       ?SetHostNames@?$IOleObjectImpl@VCOPOSMICR@@@ATL@@UEAAJPEB_W0@Z 0000000180024a30 f i MICR.obj
 0001:00023a90       ?SetInterfaceSafetyOptions@?$IObjectSafetyImpl@VCOPOSMICR@@$02@ATL@@UEAAJAEBU_GUID@@KK@Z 0000000180024a90 f i MICR.obj
 0001:00023c30       ?SetMoniker@?$IOleObjectImpl@VCOPOSMICR@@@ATL@@UEAAJKPEAUIMoniker@@@Z 0000000180024c30 f i MICR.obj
 0001:00023cb0       ?SetMultiStringValue@CRegKey@ATL@@QEAAJPEB_W0@Z 0000000180024cb0 f i MICR.obj
 0001:00023e10       ?SetObjectRects@?$IOleInPlaceObjectWindowlessImpl@VCOPOSMICR@@@ATL@@UEAAJPEBUtagRECT@@0@Z 0000000180024e10 f i MICR.obj
 0001:00023ec0       ?SetStringValue@CRegKey@ATL@@QEAAJPEB_W0K@Z 0000000180024ec0 f i MICR.obj
 0001:00024030       ?SetVoid@CComClassFactory@ATL@@QEAAXPEAX@Z 0000000180025030 f i MICR.obj
 0001:00024050       ?SetVoid@CComObjectRootBase@ATL@@QEAAXPEAX@Z 0000000180025050 f i MICR.obj
 0001:00024060       ?ShowWindow@CWindow@ATL@@QEAAHH@Z 0000000180025060 f i MICR.obj
 0001:000240e0       ?Skip@?$CComEnumImpl@UIEnumConnectionPoints@@$1?_GUID_b196b285_bab4_101a_b69c_00aa00341d07@@3U__s_GUID@@BPEAUIConnectionPoint@@V?$_CopyInterface@UIConnectionPoint@@@ATL@@@ATL@@UEAAJK@Z 00000001800250e0 f i MICR.obj
 0001:00024170       ?Skip@?$CComEnumImpl@UIEnumConnections@@$1?_GUID_b196b287_bab4_101a_b69c_00aa00341d07@@3U__s_GUID@@BUtagCONNECTDATA@@V?$_Copy@UtagCONNECTDATA@@@ATL@@@ATL@@UEAAJK@Z 0000000180025170 f i MICR.obj
 0001:00024200       ?SkipAssignment@CRegParser@ATL@@IEAAJPEA_W@Z 0000000180025200 f i MICR.obj
 0001:00024300       ?SkipWhiteSpace@CRegParser@ATL@@IEAAXXZ 0000000180025300 f i MICR.obj
 0001:00024350       ?StartWindowProc@?$CWindowImplBaseT@VCWindow@ATL@@V?$CWinTraits@$0FGAAAAAA@$0A@@2@@ATL@@SA_JPEAUHWND__@@I_K_J@Z 0000000180025350 f i MICR.obj
 0001:000244a0       ?StrChrW@CRegParser@ATL@@KAPEA_WPEA_W_W@Z 00000001800254a0 f i MICR.obj
 0001:00024510       ?StrFromMap@CRegObject@ATL@@QEAAPEB_WPEA_W@Z 0000000180025510 f i MICR.obj
 0001:000245b0       ?Swap@?$CComPtrBase@UIAdviseSink@@@ATL@@IEAAXAEAV12@@Z 00000001800255b0 f i MICR.obj
 0001:000245f0       ?Swap@?$CComPtrBase@UIOleClientSite@@@ATL@@IEAAXAEAV12@@Z 00000001800255f0 f i MICR.obj
 0001:00024630       ?Swap@?$CComPtrBase@UIUnknown@@@ATL@@IEAAXAEAV12@@Z 0000000180025630 f i MICR.obj
 0001:00024670       ?T2COLE_EX@@YAPEB_WPEB_WI@Z 0000000180025670 f i MICR.obj
 0001:00024690       ?T2OLE_EX@@YAPEA_WPEA_WI@Z 0000000180025690 f i MICR.obj
 0001:000246b0       ?Term@CAtlModule@ATL@@QEAAXXZ 00000001800256b0 f i MICR.obj
 0001:00024760       ?Term@CComModule@ATL@@QEAAXXZ 0000000180025760 f i MICR.obj
 0001:00024840       ?TranslateAcceleratorW@?$IOleInPlaceActiveObjectImpl@VCOPOSMICR@@@ATL@@UEAAJPEAUtagMSG@@@Z 0000000180025840 f i MICR.obj
 0001:00024ab0       ?UIDeactivate@?$IOleInPlaceObjectWindowlessImpl@VCOPOSMICR@@@ATL@@UEAAJXZ 0000000180025ab0 f i MICR.obj
 0001:00024b40       ?Unadvise@?$CProxy_IOPOSEvents@VCOPOSMICR@@@@UEAAJK@Z 0000000180025b40 f i MICR.obj
 0001:00024b80       ?Unadvise@?$IConnectionPointImpl@VCOPOSMICR@@$1?DIID__IOPOSMICREvents@@3U_GUID@@BVCComDynamicUnkArray@ATL@@@ATL@@UEAAJK@Z 0000000180025b80 f i MICR.obj
 0001:00024c60       ?Unadvise@?$IConnectionPointImpl@VCOPOSMICR@@$1?IID_IPropertyNotifySink@@3U_GUID@@BVCComDynamicUnkArray@ATL@@@ATL@@UEAAJK@Z 0000000180025c60 f i MICR.obj
 0001:00024d40       ?Unadvise@?$IOleObjectImpl@VCOPOSMICR@@@ATL@@UEAAJK@Z 0000000180025d40 f i MICR.obj
 0001:00024e20       ?Unfreeze@?$IViewObjectExImpl@VCOPOSMICR@@@ATL@@UEAAJK@Z 0000000180025e20 f i MICR.obj
 0001:00024e90       ?Unlock@?$CComCritSecLock@VCComCriticalSection@ATL@@@ATL@@QEAAXXZ 0000000180025e90 f i MICR.obj
 0001:00024f10       ?Unlock@?$CComObjectRootEx@VCComSingleThreadModel@ATL@@@ATL@@QEAAXXZ 0000000180025f10 f i MICR.obj
 0001:00024f20       ?Unlock@CAtlModule@ATL@@UEAAJXZ 0000000180025f20 f i MICR.obj
 0001:00024f50       ?Unlock@CComCriticalSection@ATL@@QEAAJXZ 0000000180025f50 f i MICR.obj
 0001:00024f70       ?Unlock@CComFakeCriticalSection@ATL@@QEAAJXZ 0000000180025f70 f i MICR.obj
 0001:00024f80       ?UnregisterServer@?$CAtlModuleT@VCComModule@ATL@@@ATL@@QEAAJHPEBU_GUID@@@Z 0000000180025f80 f i MICR.obj
 0001:00024fe0       ?UnregisterServer@CAtlComModule@ATL@@QEAAJHPEBU_GUID@@@Z 0000000180025fe0 f i MICR.obj
 0001:00025010       ?UnregisterServer@CComModule@ATL@@QEAAJHPEBU_GUID@@@Z 0000000180026010 f i MICR.obj
 0001:000250f0       ?Update@?$IOleObjectImpl@VCOPOSMICR@@@ATL@@UEAAJXZ 00000001800260f0 f i MICR.obj
 0001:00025150       ?UpdateRegistryFromResource@CAtlModule@ATL@@QEAAJIHPEAU_ATL_REGMAP_ENTRY@2@@Z 0000000180026150 f i MICR.obj
 0001:00025690       ?UpdateRegistryFromResource@CAtlModule@ATL@@QEAAJPEB_WHPEAU_ATL_REGMAP_ENTRY@2@@Z 0000000180026690 f i MICR.obj
 0001:00025be0       ?UpdateRegistryFromResource@CComModule@ATL@@UEAAJIHPEAU_ATL_REGMAP_ENTRY@2@@Z 0000000180026be0 f i MICR.obj
 0001:00025c20       ?UpdateRegistryFromResource@CComModule@ATL@@UEAAJPEB_WHPEAU_ATL_REGMAP_ENTRY@2@@Z 0000000180026c20 f i MICR.obj
 0001:00025c60       ?UpdateRegistryFromResourceD@CComModule@ATL@@UEAAJIHPEAU_ATL_REGMAP_ENTRY@2@@Z 0000000180026c60 f i MICR.obj
 0001:00025c80       ?UpdateRegistryFromResourceD@CComModule@ATL@@UEAAJPEB_WHPEAU_ATL_REGMAP_ENTRY@2@@Z 0000000180026c80 f i MICR.obj
 0001:00025ca0       ?VTFromRegType@CRegParser@ATL@@KAHPEB_WAEAG@Z 0000000180026ca0 f i MICR.obj
 0001:00025d70       ?WindowProc@?$CWindowImplBaseT@VCWindow@ATL@@V?$CWinTraits@$0FGAAAAAA@$0A@@2@@ATL@@SA_JPEAUHWND__@@I_K_J@Z 0000000180026d70 f i MICR.obj
 0001:00026050       ?WriteToStream@CComBSTR@ATL@@QEAAJPEAUIStream@@@Z 0000000180027050 f i MICR.obj
 0001:000261c0       ?WriteToStream@CComVariant@ATL@@QEAAJPEAUIStream@@@Z 00000001800271c0 f i MICR.obj
 0001:000265f0       ?WriteToStream@CComVariant@ATL@@QEAAJPEAUIStream@@G@Z 00000001800275f0 f i MICR.obj
 0001:000266d0       ?_AtlFinalConstruct@CComObjectRootBase@ATL@@QEAAJXZ 00000001800276d0 f i MICR.obj
 0001:000266e0       ?_AtlGetConversionACP@ATL@@YAIXZ 00000001800276e0 f i MICR.obj
 0001:000266f0       ?_AtlInitialConstruct@?$CComAggObject@VCOPOSMICR@@@ATL@@QEAAJXZ 00000001800276f0 f i MICR.obj
 0001:00026740       ?_AtlInitialConstruct@?$CComObjectRootEx@VCComMultiThreadModel@ATL@@@ATL@@QEAAJXZ 0000000180027740 f i MICR.obj
 0001:00026770       ?_AtlInitialConstruct@?$CComObjectRootEx@VCComSingleThreadModel@ATL@@@ATL@@QEAAJXZ 0000000180027770 f i MICR.obj
 0001:00026780       ?_AtlVerifyStackAvailable@_ATL_SAFE_ALLOCA_IMPL@ATL@@YA_N_K@Z 0000000180027780 f i MICR.obj
 0001:000268e0       ?_GetEntries@?$CComEnum@UIEnumConnectionPoints@@$1?_GUID_b196b285_bab4_101a_b69c_00aa00341d07@@3U__s_GUID@@BPEAUIConnectionPoint@@V?$_CopyInterface@UIConnectionPoint@@@ATL@@VCComSingleThreadModel@6@@ATL@@SAPEBU_ATL_INTMAP_ENTRY@2@XZ 00000001800278e0 f i MICR.obj
 0001:00026900       ?_GetEntries@?$CComEnum@UIEnumConnections@@$1?_GUID_b196b287_bab4_101a_b69c_00aa00341d07@@3U__s_GUID@@BUtagCONNECTDATA@@V?$_Copy@UtagCONNECTDATA@@@ATL@@VCComSingleThreadModel@6@@ATL@@SAPEBU_ATL_INTMAP_ENTRY@2@XZ 0000000180027900 f i MICR.obj
 0001:00026920       ?_GetEntries@CComClassFactory@ATL@@SAPEBU_ATL_INTMAP_ENTRY@2@XZ 0000000180027920 f i MICR.obj
 0001:00026940       ?_GetEntries@COPOSMICR@@SAPEBU_ATL_INTMAP_ENTRY@ATL@@XZ 0000000180027940 f i MICR.obj
 0001:00026960       ?_GetRawUnknown@COPOSMICR@@QEAAPEAUIUnknown@@XZ 0000000180027960 f i MICR.obj
 0001:000269e0       ?_GetViewStatus@COPOSMICR@@QEAAKXZ 00000001800279e0 f i MICR.obj
 0001:000269f0       ?_InternalQueryInterface@?$CComEnum@UIEnumConnectionPoints@@$1?_GUID_b196b285_bab4_101a_b69c_00aa00341d07@@3U__s_GUID@@BPEAUIConnectionPoint@@V?$_CopyInterface@UIConnectionPoint@@@ATL@@VCComSingleThreadModel@6@@ATL@@QEAAJAEBU_GUID@@PEAPEAX@Z 00000001800279f0 f i MICR.obj
 0001:00026a30       ?_InternalQueryInterface@?$CComEnum@UIEnumConnections@@$1?_GUID_b196b287_bab4_101a_b69c_00aa00341d07@@3U__s_GUID@@BUtagCONNECTDATA@@V?$_Copy@UtagCONNECTDATA@@@ATL@@VCComSingleThreadModel@6@@ATL@@QEAAJAEBU_GUID@@PEAPEAX@Z 0000000180027a30 f i MICR.obj
 0001:00026a70       ?_InternalQueryInterface@CComClassFactory@ATL@@QEAAJAEBU_GUID@@PEAPEAX@Z 0000000180027a70 f i MICR.obj
 0001:00026ab0       ?_InternalQueryInterface@COPOSMICR@@QEAAJAEBU_GUID@@PEAPEAX@Z 0000000180027ab0 f i MICR.obj
 0001:00026af0       ?_LocCPQueryInterface@?$IConnectionPointImpl@VCOPOSMICR@@$1?DIID__IOPOSMICREvents@@3U_GUID@@BVCComDynamicUnkArray@ATL@@@ATL@@UEAAJAEBU_GUID@@PEAPEAX@Z 0000000180027af0 f i MICR.obj
 0001:00026bc0       ?_LocCPQueryInterface@?$IConnectionPointImpl@VCOPOSMICR@@$1?IID_IPropertyNotifySink@@3U_GUID@@BVCComDynamicUnkArray@ATL@@@ATL@@UEAAJAEBU_GUID@@PEAPEAX@Z 0000000180027bc0 f i MICR.obj
 0001:00026c90       ?atlCreate@?$CWindowImpl@VCOPOSMICR@@VCWindow@ATL@@V?$CWinTraits@$0FGAAAAAA@$0A@@3@@ATL@@QEAAPEAUHWND__@@PEAU3@V_U_RECT@2@PEB_WKKV_U_MENUorID@2@PEAX@Z 0000000180027c90 f i MICR.obj
 0001:00026da0       ?atlCreate@?$CWindowImplBaseT@VCWindow@ATL@@V?$CWinTraits@$0FGAAAAAA@$0A@@2@@ATL@@QEAAPEAUHWND__@@PEAU3@V_U_RECT@2@PEB_WKKV_U_MENUorID@2@GPEAX@Z 0000000180027da0 f i MICR.obj
 0001:00026ff0       ?atlCreate@CRegKey@ATL@@QEAAJPEAUHKEY__@@PEB_WPEA_WKKPEAU_SECURITY_ATTRIBUTES@@PEAK@Z 0000000180027ff0 f i MICR.obj
 0001:000271f0       ?begin@CComDynamicUnkArray@ATL@@QEAAPEAPEAUIUnknown@@XZ 00000001800281f0 f i MICR.obj
 0001:00027200       ?copy@?$_Copy@UtagCONNECTDATA@@@ATL@@SAJPEAUtagCONNECTDATA@@PEBU3@@Z 0000000180028200 f i MICR.obj
 0001:000272e0       ?copy@?$_CopyInterface@UIConnectionPoint@@@ATL@@SAJPEAPEAUIConnectionPoint@@PEBQEAU3@@Z 00000001800282e0 f i MICR.obj
 0001:000273c0       ?destroy@?$_Copy@UtagCONNECTDATA@@@ATL@@SAXPEAUtagCONNECTDATA@@@Z 00000001800283c0 f i MICR.obj
 0001:00027400       ?destroy@?$_CopyInterface@UIConnectionPoint@@@ATL@@SAXPEAPEAUIConnectionPoint@@@Z 0000000180028400 f i MICR.obj
 0001:00027440       ?end@CComDynamicUnkArray@ATL@@QEAAPEAPEAUIUnknown@@XZ 0000000180028440 f i MICR.obj
 0001:00027460       ?init@?$_Copy@UtagCONNECTDATA@@@ATL@@SAXPEAUtagCONNECTDATA@@@Z 0000000180028460 f i MICR.obj
 0001:00027470       ?init@?$_CopyInterface@UIConnectionPoint@@@ATL@@SAXPEAPEAUIConnectionPoint@@@Z 0000000180028470 f i MICR.obj
 0001:00027480       ?memcpy_s@Checked@ATL@@YAXPEAX_KPEBX1@Z 0000000180028480 f i MICR.obj
 0001:000274c0       ?ocscpy_s@@YA_NPEA_W_KPEB_W@Z 00000001800284c0 f i MICR.obj
 0001:00027530       ?ocslen@@YAHPEB_W@Z        0000000180028530 f i MICR.obj
 0001:00027560       ?tcsncpy_s@Checked@ATL@@YAHPEA_W_KPEB_W1@Z 0000000180028560 f i MICR.obj
 0001:000275a0       ?wcscat_s@Checked@ATL@@YAXPEA_W_KPEB_W@Z 00000001800285a0 f i MICR.obj
 0001:000275e0       ?wcscpy_s@Checked@ATL@@YAXPEA_W_KPEB_W@Z 00000001800285e0 f i MICR.obj
 0001:00027620       ?wcsncpy_s@Checked@ATL@@YAHPEA_W_KPEB_W1@Z 0000000180028620 f i MICR.obj
 0001:00027660       ?wcsstr@@YAPEA_WPEA_WPEB_W@Z 0000000180028660 f i MICR.obj
 0001:00027690       InlineIsEqualGUID          0000000180028690 f i MICR.obj
 0001:00027750       IsEqualGUID                0000000180028750 f i MICR.obj
 0001:000277a0       ??0COPOSMICR@@QEAA@XZ      00000001800287a0 f   MICRImpl.obj
 0001:00027910       ?FinalConstruct@COPOSMICR@@QEAAJXZ 0000000180028910 f   MICRImpl.obj
 0001:000279f0       ??1COPOSMICR@@UEAA@XZ      00000001800289f0 f   MICRImpl.obj
 0001:00027ad0       ?WriteTrace@COPOSMICR@@QEAAXPEB_WZZ 0000000180028ad0 f   MICRImpl.obj
 0001:00027ba0       ?WriteTraceString@COPOSMICR@@QEAAXPEB_WPEA_W@Z 0000000180028ba0 f   MICRImpl.obj
 0001:00027fd0       ?WriteTraceString@COPOSMICR@@QEAAXPEAXHHHPEB_WZZ 0000000180028fd0 f   MICRImpl.obj
 0001:00028260       ?WriteTraceError@COPOSMICR@@QEAAXPEB_WK@Z 0000000180029260 f   MICRImpl.obj
 0001:00028360       ?WriteTraceMethods@COPOSMICR@@QEAAXPEAJH@Z 0000000180029360 f   MICRImpl.obj
 0001:000283e0       ?GetOposProp@COPOSMICR@@IEAAJPEBDJPEAJJ@Z 00000001800293e0 f   MICRImpl.obj
 0001:00028700       ?SetOposProp@COPOSMICR@@IEAAJPEBDJJJ@Z 0000000180029700 f   MICRImpl.obj
 0001:00028a70       ?GetOposProp@COPOSMICR@@IEAAJPEBDJPEAFJ@Z 0000000180029a70 f   MICRImpl.obj
 0001:00028b20       ?SetOposProp@COPOSMICR@@IEAAJPEBDJFJ@Z 0000000180029b20 f   MICRImpl.obj
 0001:00028b90       ?GetOposProp@COPOSMICR@@IEAAJPEBDJPEAPEA_WJ@Z 0000000180029b90 f   MICRImpl.obj
 0001:00028eb0       ?SetOposProp@COPOSMICR@@IEAAJPEBDJPEA_WJ@Z 0000000180029eb0 f   MICRImpl.obj
 0001:00029290       ?DoInvoke@COPOSMICR@@IEAAJPEBDJPEAVOposVariant@@IHPEAJ_N@Z 000000018002a290 f   MICRImpl.obj
 0001:00029df0       ?SetCOFreezeEvents@COPOSMICR@@IEAAXF@Z 000000018002adf0 f   MICRImpl.obj
 0001:00029f80       ?FreezeEvents@COPOSMICR@@MEAAJH@Z 000000018002af80 f   MICRImpl.obj
 0001:0002a0a0       ?OnDraw@COPOSMICR@@MEAAJAEAUATL_DRAWINFO@@@Z 000000018002b0a0 f   MICRImpl.obj
 0001:0002a270       ?SOProcessID@COPOSMICR@@UEAAJPEAJ@Z 000000018002b270 f   MICRImpl.obj
 0001:0002a2c0       ?get_OpenResult@COPOSMICR@@UEAAJPEAJ@Z 000000018002b2c0 f   MICRImpl.obj
 0001:0002a310       ?get_CheckHealthText@COPOSMICR@@UEAAJPEAPEA_W@Z 000000018002b310 f   MICRImpl.obj
 0001:0002a350       ?get_Claimed@COPOSMICR@@UEAAJPEAF@Z 000000018002b350 f   MICRImpl.obj
 0001:0002a390       ?get_DataEventEnabled@COPOSMICR@@UEAAJPEAF@Z 000000018002b390 f   MICRImpl.obj
 0001:0002a3d0       ?put_DataEventEnabled@COPOSMICR@@UEAAJF@Z 000000018002b3d0 f   MICRImpl.obj
 0001:0002a410       ?get_DeviceEnabled@COPOSMICR@@UEAAJPEAF@Z 000000018002b410 f   MICRImpl.obj
 0001:0002a450       ?put_DeviceEnabled@COPOSMICR@@UEAAJF@Z 000000018002b450 f   MICRImpl.obj
 0001:0002a490       ?get_FreezeEvents@COPOSMICR@@UEAAJPEAF@Z 000000018002b490 f   MICRImpl.obj
 0001:0002a4d0       ?put_FreezeEvents@COPOSMICR@@UEAAJF@Z 000000018002b4d0 f   MICRImpl.obj
 0001:0002a590       ?get_ResultCode@COPOSMICR@@UEAAJPEAJ@Z 000000018002b590 f   MICRImpl.obj
 0001:0002a640       ?get_ResultCodeExtended@COPOSMICR@@UEAAJPEAJ@Z 000000018002b640 f   MICRImpl.obj
 0001:0002a680       ?get_State@COPOSMICR@@UEAAJPEAJ@Z 000000018002b680 f   MICRImpl.obj
 0001:0002a6f0       ?get_ControlObjectDescription@COPOSMICR@@UEAAJPEAPEA_W@Z 000000018002b6f0 f   MICRImpl.obj
 0001:0002a760       ?get_ControlObjectVersion@COPOSMICR@@UEAAJPEAJ@Z 000000018002b760 f   MICRImpl.obj
 0001:0002a7b0       ?get_ServiceObjectDescription@COPOSMICR@@UEAAJPEAPEA_W@Z 000000018002b7b0 f   MICRImpl.obj
 0001:0002a7f0       ?get_ServiceObjectVersion@COPOSMICR@@UEAAJPEAJ@Z 000000018002b7f0 f   MICRImpl.obj
 0001:0002a830       ?get_DeviceDescription@COPOSMICR@@UEAAJPEAPEA_W@Z 000000018002b830 f   MICRImpl.obj
 0001:0002a870       ?get_DeviceName@COPOSMICR@@UEAAJPEAPEA_W@Z 000000018002b870 f   MICRImpl.obj
 0001:0002a8b0       ?CheckHealth@COPOSMICR@@UEAAJJPEAJ@Z 000000018002b8b0 f   MICRImpl.obj
 0001:0002a970       ?ClaimDevice@COPOSMICR@@UEAAJJPEAJ@Z 000000018002b970 f   MICRImpl.obj
 0001:0002aa90       ?ClearInput@COPOSMICR@@UEAAJPEAJ@Z 000000018002ba90 f   MICRImpl.obj
 0001:0002aaf0       ?Close@COPOSMICR@@UEAAJPEAJ@Z 000000018002baf0 f   MICRImpl.obj
 0001:0002abf0       ?DirectIO@COPOSMICR@@UEAAJJPEAJPEAPEA_W0@Z 000000018002bbf0 f   MICRImpl.obj
 0001:0002ad70       ?Open@COPOSMICR@@UEAAJPEA_WPEAJ@Z 000000018002bd70 f   MICRImpl.obj
 0001:0002c240       ?ReleaseDevice@COPOSMICR@@UEAAJPEAJ@Z 000000018002d240 f   MICRImpl.obj
 0001:0002c2e0       ?get_AccountNumber@COPOSMICR@@UEAAJPEAPEA_W@Z 000000018002d2e0 f   MICRImpl.obj
 0001:0002c320       ?get_Amount@COPOSMICR@@UEAAJPEAPEA_W@Z 000000018002d320 f   MICRImpl.obj
 0001:0002c360       ?get_BankNumber@COPOSMICR@@UEAAJPEAPEA_W@Z 000000018002d360 f   MICRImpl.obj
 0001:0002c3a0       ?get_CapValidationDevice@COPOSMICR@@UEAAJPEAF@Z 000000018002d3a0 f   MICRImpl.obj
 0001:0002c3e0       ?get_CheckType@COPOSMICR@@UEAAJPEAJ@Z 000000018002d3e0 f   MICRImpl.obj
 0001:0002c420       ?get_CountryCode@COPOSMICR@@UEAAJPEAJ@Z 000000018002d420 f   MICRImpl.obj
 0001:0002c460       ?get_EPC@COPOSMICR@@UEAAJPEAPEA_W@Z 000000018002d460 f   MICRImpl.obj
 0001:0002c4a0       ?get_RawData@COPOSMICR@@UEAAJPEAPEA_W@Z 000000018002d4a0 f   MICRImpl.obj
 0001:0002c4e0       ?get_SerialNumber@COPOSMICR@@UEAAJPEAPEA_W@Z 000000018002d4e0 f   MICRImpl.obj
 0001:0002c520       ?get_TransitNumber@COPOSMICR@@UEAAJPEAPEA_W@Z 000000018002d520 f   MICRImpl.obj
 0001:0002c560       ?BeginInsertion@COPOSMICR@@UEAAJJPEAJ@Z 000000018002d560 f   MICRImpl.obj
 0001:0002c620       ?BeginRemoval@COPOSMICR@@UEAAJJPEAJ@Z 000000018002d620 f   MICRImpl.obj
 0001:0002c6e0       ?EndInsertion@COPOSMICR@@UEAAJPEAJ@Z 000000018002d6e0 f   MICRImpl.obj
 0001:0002c740       ?EndRemoval@COPOSMICR@@UEAAJPEAJ@Z 000000018002d740 f   MICRImpl.obj
 0001:0002c7a0       ?get_AutoDisable@COPOSMICR@@UEAAJPEAF@Z 000000018002d7a0 f   MICRImpl.obj
 0001:0002c7e0       ?put_AutoDisable@COPOSMICR@@UEAAJF@Z 000000018002d7e0 f   MICRImpl.obj
 0001:0002c820       ?get_BinaryConversion@COPOSMICR@@UEAAJPEAJ@Z 000000018002d820 f   MICRImpl.obj
 0001:0002c860       ?put_BinaryConversion@COPOSMICR@@UEAAJJ@Z 000000018002d860 f   MICRImpl.obj
 0001:0002c8b0       ?get_DataCount@COPOSMICR@@UEAAJPEAJ@Z 000000018002d8b0 f   MICRImpl.obj
 0001:0002c8f0       ?get_CapPowerReporting@COPOSMICR@@UEAAJPEAJ@Z 000000018002d8f0 f   MICRImpl.obj
 0001:0002c930       ?get_PowerNotify@COPOSMICR@@UEAAJPEAJ@Z 000000018002d930 f   MICRImpl.obj
 0001:0002c970       ?put_PowerNotify@COPOSMICR@@UEAAJJ@Z 000000018002d970 f   MICRImpl.obj
 0001:0002c9b0       ?get_PowerState@COPOSMICR@@UEAAJPEAJ@Z 000000018002d9b0 f   MICRImpl.obj
 0001:0002c9f0       ?get_CapStatisticsReporting@COPOSMICR@@UEAAJPEAF@Z 000000018002d9f0 f   MICRImpl.obj
 0001:0002ca30       ?get_CapUpdateStatistics@COPOSMICR@@UEAAJPEAF@Z 000000018002da30 f   MICRImpl.obj
 0001:0002ca70       ?ResetStatistics@COPOSMICR@@UEAAJPEA_WPEAJ@Z 000000018002da70 f   MICRImpl.obj
 0001:0002cb50       ?RetrieveStatistics@COPOSMICR@@UEAAJPEAPEA_WPEAJ@Z 000000018002db50 f   MICRImpl.obj
 0001:0002cc30       ?UpdateStatistics@COPOSMICR@@UEAAJPEA_WPEAJ@Z 000000018002dc30 f   MICRImpl.obj
 0001:0002cd10       ?get_CapCompareFirmwareVersion@COPOSMICR@@UEAAJPEAF@Z 000000018002dd10 f   MICRImpl.obj
 0001:0002cd50       ?get_CapUpdateFirmware@COPOSMICR@@UEAAJPEAF@Z 000000018002dd50 f   MICRImpl.obj
 0001:0002cd90       ?CompareFirmwareVersion@COPOSMICR@@UEAAJPEA_WPEAJ1@Z 000000018002dd90 f   MICRImpl.obj
 0001:0002ced0       ?UpdateFirmware@COPOSMICR@@UEAAJPEA_WPEAJ@Z 000000018002ded0 f   MICRImpl.obj
 0001:0002cfb0       ?ClearInputProperties@COPOSMICR@@UEAAJPEAJ@Z 000000018002dfb0 f   MICRImpl.obj
 0001:0002d000       ??0?$CComControl@VCOPOSMICR@@V?$CWindowImpl@VCOPOSMICR@@VCWindow@ATL@@V?$CWinTraits@$0FGAAAAAA@$0A@@3@@ATL@@@ATL@@QEAA@XZ 000000018002e000 f i MICRImpl.obj
 0001:0002d040       ??0?$CComPtr@UIAdviseSink@@@ATL@@QEAA@XZ 000000018002e040 f i MICRImpl.obj
 0001:0002d060       ??0?$CComPtr@UIDataAdviseHolder@@@ATL@@QEAA@XZ 000000018002e060 f i MICRImpl.obj
 0001:0002d080       ??0?$CComPtr@UIOleAdviseHolder@@@ATL@@QEAA@XZ 000000018002e080 f i MICRImpl.obj
 0001:0002d0a0       ??0?$CComPtr@UIOleClientSite@@@ATL@@QEAA@XZ 000000018002e0a0 f i MICRImpl.obj
 0001:0002d0c0       ??0?$CComPtr@UIOleInPlaceSiteWindowless@@@ATL@@QEAA@XZ 000000018002e0c0 f i MICRImpl.obj
 0001:0002d0e0       ??0?$CComPtrBase@UIAdviseSink@@@ATL@@IEAA@XZ 000000018002e0e0 f i MICRImpl.obj
 0001:0002d100       ??0?$CComPtrBase@UIDataAdviseHolder@@@ATL@@IEAA@XZ 000000018002e100 f i MICRImpl.obj
 0001:0002d120       ??0?$CComPtrBase@UIOleAdviseHolder@@@ATL@@IEAA@XZ 000000018002e120 f i MICRImpl.obj
 0001:0002d140       ??0?$CComPtrBase@UIOleClientSite@@@ATL@@IEAA@XZ 000000018002e140 f i MICRImpl.obj
 0001:0002d160       ??0?$CComPtrBase@UIOleInPlaceSiteWindowless@@@ATL@@IEAA@XZ 000000018002e160 f i MICRImpl.obj
 0001:0002d180       ??0?$CComQIPtr@UIDispatch@@$1?_GUID_00020400_0000_0000_c000_000000000046@@3U__s_GUID@@B@ATL@@QEAA@XZ 000000018002e180 f i MICRImpl.obj
 0001:0002d1a0       ??0?$CProxy_IOPOSEvents@VCOPOSMICR@@@@QEAA@PEAVCOPOSMICR@@@Z 000000018002e1a0 f i MICRImpl.obj
 0001:0002d220       ??0?$CWindowImpl@VCOPOSMICR@@VCWindow@ATL@@V?$CWinTraits@$0FGAAAAAA@$0A@@3@@ATL@@QEAA@XZ 000000018002e220 f i MICRImpl.obj
 0001:0002d240       ??0?$CWindowImplBaseT@VCWindow@ATL@@V?$CWinTraits@$0FGAAAAAA@$0A@@2@@ATL@@QEAA@XZ 000000018002e240 f i MICRImpl.obj
 0001:0002d270       ??0?$CWindowImplRoot@VCWindow@ATL@@@ATL@@QEAA@XZ 000000018002e270 f i MICRImpl.obj
 0001:0002d2d0       ??0?$IConnectionPointContainerImpl@VCOPOSMICR@@@ATL@@QEAA@XZ 000000018002e2d0 f i MICRImpl.obj
 0001:0002d2f0       ??0?$IConnectionPointImpl@VCOPOSMICR@@$1?DIID__IOPOSMICREvents@@3U_GUID@@BVCComDynamicUnkArray@ATL@@@ATL@@QEAA@XZ 000000018002e2f0 f i MICRImpl.obj
 0001:0002d320       ??0?$IConnectionPointImpl@VCOPOSMICR@@$1?IID_IPropertyNotifySink@@3U_GUID@@BVCComDynamicUnkArray@ATL@@@ATL@@QEAA@XZ 000000018002e320 f i MICRImpl.obj
 0001:0002d350       ??0?$IDataObjectImpl@VCOPOSMICR@@@ATL@@QEAA@XZ 000000018002e350 f i MICRImpl.obj
 0001:0002d370       ??0?$IDispatchImpl@UIOPOSMICR@@$1?IID_IOPOSMICR@@3U_GUID@@B$1?LIBID_OposMICR_CCO@@3U3@B$00$0A@VCComTypeInfoHolder@ATL@@@ATL@@QEAA@XZ 000000018002e370 f i MICRImpl.obj
 0001:0002d390       ??0?$IObjectSafetyImpl@VCOPOSMICR@@$02@ATL@@QEAA@XZ 000000018002e390 f i MICRImpl.obj
 0001:0002d3c0       ??0?$IOleControlImpl@VCOPOSMICR@@@ATL@@QEAA@XZ 000000018002e3c0 f i MICRImpl.obj
 0001:0002d3e0       ??0?$IOleInPlaceActiveObjectImpl@VCOPOSMICR@@@ATL@@QEAA@XZ 000000018002e3e0 f i MICRImpl.obj
 0001:0002d400       ??0?$IOleInPlaceObjectWindowlessImpl@VCOPOSMICR@@@ATL@@QEAA@XZ 000000018002e400 f i MICRImpl.obj
 0001:0002d420       ??0?$IOleObjectImpl@VCOPOSMICR@@@ATL@@QEAA@XZ 000000018002e420 f i MICRImpl.obj
 0001:0002d440       ??0?$IPersistStorageImpl@VCOPOSMICR@@@ATL@@QEAA@XZ 000000018002e440 f i MICRImpl.obj
 0001:0002d460       ??0?$IPersistStreamInitImpl@VCOPOSMICR@@@ATL@@QEAA@XZ 000000018002e460 f i MICRImpl.obj
 0001:0002d480       ??0?$IPropertyNotifySinkCP@VCOPOSMICR@@VCComDynamicUnkArray@ATL@@@ATL@@QEAA@XZ 000000018002e480 f i MICRImpl.obj
 0001:0002d4a0       ??0?$IProvideClassInfo2Impl@$1?CLSID_OPOSMICR@@3U_GUID@@B$1?DIID__IOPOSMICREvents@@3U2@B$1?LIBID_OposMICR_CCO@@3U2@B$00$0A@VCComTypeInfoHolder@ATL@@@ATL@@QEAA@XZ 000000018002e4a0 f i MICRImpl.obj
 0001:0002d4c0       ??0?$IQuickActivateImpl@VCOPOSMICR@@@ATL@@QEAA@XZ 000000018002e4c0 f i MICRImpl.obj
 0001:0002d4e0       ??0?$ISpecifyPropertyPagesImpl@VCOPOSMICR@@@ATL@@QEAA@XZ 000000018002e4e0 f i MICRImpl.obj
 0001:0002d500       ??0?$IViewObjectExImpl@VCOPOSMICR@@@ATL@@QEAA@XZ 000000018002e500 f i MICRImpl.obj
 0001:0002d520       ??0?$_ICPLocator@$1?DIID__IOPOSMICREvents@@3U_GUID@@B@ATL@@QEAA@XZ 000000018002e520 f i MICRImpl.obj
 0001:0002d530       ??0?$_ICPLocator@$1?IID_IPropertyNotifySink@@3U_GUID@@B@ATL@@QEAA@XZ 000000018002e530 f i MICRImpl.obj
 0001:0002d540       ??0CComControlBase@ATL@@QEAA@AEAPEAUHWND__@@@Z 000000018002e540 f i MICRImpl.obj
 0001:0002d750       ??0CComDynamicUnkArray@ATL@@QEAA@XZ 000000018002e750 f i MICRImpl.obj
 0001:0002d780       ??0CDynamicStdCallThunk2@ATL@@QEAA@XZ 000000018002e780 f i MICRImpl.obj
 0001:0002d7a0       ??0CMessageMap@ATL@@QEAA@XZ 000000018002e7a0 f i MICRImpl.obj
 0001:0002d7b0       ??0CWindow@ATL@@QEAA@PEAUHWND__@@@Z 000000018002e7b0 f i MICRImpl.obj
 0001:0002d7d0       ??0CWndProcThunk@ATL@@QEAA@XZ 000000018002e7d0 f i MICRImpl.obj
 0001:0002d800       ??0IConnectionPointContainer@@QEAA@XZ 000000018002e800 f i MICRImpl.obj
 0001:0002d820       ??0IDataObject@@QEAA@XZ    000000018002e820 f i MICRImpl.obj
 0001:0002d840       ??0IDispatch@@QEAA@XZ      000000018002e840 f i MICRImpl.obj
 0001:0002d860       ??0IOPOSMICR@@QEAA@XZ      000000018002e860 f i MICRImpl.obj
 0001:0002d880       ??0IOPOSMICR_1_10@@QEAA@XZ 000000018002e880 f i MICRImpl.obj
 0001:0002d8a0       ??0IOPOSMICR_1_5@@QEAA@XZ  000000018002e8a0 f i MICRImpl.obj
 0001:0002d8c0       ??0IOPOSMICR_1_8@@QEAA@XZ  000000018002e8c0 f i MICRImpl.obj
 0001:0002d8e0       ??0IOPOSMICR_1_9@@QEAA@XZ  000000018002e8e0 f i MICRImpl.obj
 0001:0002d900       ??0IObjectSafety@@QEAA@XZ  000000018002e900 f i MICRImpl.obj
 0001:0002d920       ??0IOleControl@@QEAA@XZ    000000018002e920 f i MICRImpl.obj
 0001:0002d940       ??0IOleInPlaceActiveObject@@QEAA@XZ 000000018002e940 f i MICRImpl.obj
 0001:0002d960       ??0IOleInPlaceObject@@QEAA@XZ 000000018002e960 f i MICRImpl.obj
 0001:0002d980       ??0IOleInPlaceObjectWindowless@@QEAA@XZ 000000018002e980 f i MICRImpl.obj
 0001:0002d9a0       ??0IOleObject@@QEAA@XZ     000000018002e9a0 f i MICRImpl.obj
 0001:0002d9c0       ??0IOleWindow@@QEAA@XZ     000000018002e9c0 f i MICRImpl.obj
 0001:0002d9e0       ??0IPersist@@QEAA@XZ       000000018002e9e0 f i MICRImpl.obj
 0001:0002da00       ??0IPersistStorage@@QEAA@XZ 000000018002ea00 f i MICRImpl.obj
 0001:0002da20       ??0IPersistStreamInit@@QEAA@XZ 000000018002ea20 f i MICRImpl.obj
 0001:0002da40       ??0IProvideClassInfo2@@QEAA@XZ 000000018002ea40 f i MICRImpl.obj
 0001:0002da60       ??0IProvideClassInfo@@QEAA@XZ 000000018002ea60 f i MICRImpl.obj
 0001:0002da80       ??0IQuickActivate@@QEAA@XZ 000000018002ea80 f i MICRImpl.obj
 0001:0002daa0       ??0ISpecifyPropertyPages@@QEAA@XZ 000000018002eaa0 f i MICRImpl.obj
 0001:0002dac0       ??0IViewObject2@@QEAA@XZ   000000018002eac0 f i MICRImpl.obj
 0001:0002dae0       ??0IViewObject@@QEAA@XZ    000000018002eae0 f i MICRImpl.obj
 0001:0002db00       ??0IViewObjectEx@@QEAA@XZ  000000018002eb00 f i MICRImpl.obj
 0001:0002db20       ??0OposVariantResult@@QEAA@XZ 000000018002eb20 f i MICRImpl.obj
 0001:0002db40       ??0_CW@@QEAA@PEBD@Z        000000018002eb40 f i MICRImpl.obj
 0001:0002db90       ??0_CW@@QEAA@PEB_W@Z       000000018002eb90 f i MICRImpl.obj
 0001:0002dbe0       ??0_CWNCC@@QEAA@PEBD@Z     000000018002ebe0 f i MICRImpl.obj
 0001:0002dc10       ??1?$CComControl@VCOPOSMICR@@V?$CWindowImpl@VCOPOSMICR@@VCWindow@ATL@@V?$CWinTraits@$0FGAAAAAA@$0A@@3@@ATL@@@ATL@@UEAA@XZ 000000018002ec10 f i MICRImpl.obj
 0001:0002dc40       ??1?$CComPtr@UIDataAdviseHolder@@@ATL@@QEAA@XZ 000000018002ec40 f i MICRImpl.obj
 0001:0002dc60       ??1?$CComPtr@UIOleAdviseHolder@@@ATL@@QEAA@XZ 000000018002ec60 f i MICRImpl.obj
 0001:0002dc80       ??1?$CComPtr@UIOleInPlaceSiteWindowless@@@ATL@@QEAA@XZ 000000018002ec80 f i MICRImpl.obj
 0001:0002dca0       ??1?$CComPtrBase@UIDataAdviseHolder@@@ATL@@QEAA@XZ 000000018002eca0 f i MICRImpl.obj
 0001:0002dce0       ??1?$CComPtrBase@UIOleAdviseHolder@@@ATL@@QEAA@XZ 000000018002ece0 f i MICRImpl.obj
 0001:0002dd20       ??1?$CComPtrBase@UIOleInPlaceSiteWindowless@@@ATL@@QEAA@XZ 000000018002ed20 f i MICRImpl.obj
 0001:0002dd60       ??1?$CComQIPtr@UIDispatch@@$1?_GUID_00020400_0000_0000_c000_000000000046@@3U__s_GUID@@B@ATL@@QEAA@XZ 000000018002ed60 f i MICRImpl.obj
 0001:0002dd80       ??1?$CProxy_IOPOSEvents@VCOPOSMICR@@@@QEAA@XZ 000000018002ed80 f i MICRImpl.obj
 0001:0002dda0       ??1?$CWindowImpl@VCOPOSMICR@@VCWindow@ATL@@V?$CWinTraits@$0FGAAAAAA@$0A@@3@@ATL@@UEAA@XZ 000000018002eda0 f i MICRImpl.obj
 0001:0002ddc0       ??1?$CWindowImplBaseT@VCWindow@ATL@@V?$CWinTraits@$0FGAAAAAA@$0A@@2@@ATL@@UEAA@XZ 000000018002edc0 f i MICRImpl.obj
 0001:0002dde0       ??1?$CWindowImplRoot@VCWindow@ATL@@@ATL@@UEAA@XZ 000000018002ede0 f i MICRImpl.obj
 0001:0002de90       ??1?$IConnectionPointImpl@VCOPOSMICR@@$1?DIID__IOPOSMICREvents@@3U_GUID@@BVCComDynamicUnkArray@ATL@@@ATL@@QEAA@XZ 000000018002ee90 f i MICRImpl.obj
 0001:0002df10       ??1?$IConnectionPointImpl@VCOPOSMICR@@$1?IID_IPropertyNotifySink@@3U_GUID@@BVCComDynamicUnkArray@ATL@@@ATL@@QEAA@XZ 000000018002ef10 f i MICRImpl.obj
 0001:0002df90       ??1?$IPropertyNotifySinkCP@VCOPOSMICR@@VCComDynamicUnkArray@ATL@@@ATL@@QEAA@XZ 000000018002ef90 f i MICRImpl.obj
 0001:0002dfb0       ??1CComControlBase@ATL@@UEAA@XZ 000000018002efb0 f i MICRImpl.obj
 0001:0002e090       ??1CComDynamicUnkArray@ATL@@QEAA@XZ 000000018002f090 f i MICRImpl.obj
 0001:0002e0c0       ??1CDynamicStdCallThunk2@ATL@@QEAA@XZ 000000018002f0c0 f i MICRImpl.obj
 0001:0002e0f0       ??1CWndProcThunk@ATL@@QEAA@XZ 000000018002f0f0 f i MICRImpl.obj
 0001:0002e120       ??1OposVariantResult@@QEAA@XZ 000000018002f120 f i MICRImpl.obj
 0001:0002e150       ??1_CW@@QEAA@XZ            000000018002f150 f i MICRImpl.obj
 0001:0002e1b0       ??1_CWNCC@@QEAA@XZ         000000018002f1b0 f i MICRImpl.obj
 0001:0002e1d0       ??B_CW@@QEAAPEB_WXZ        000000018002f1d0 f i MICRImpl.obj
 0001:0002e200       ??B_CWNCC@@QEAAPEA_WXZ     000000018002f200 f i MICRImpl.obj
 0001:0002e220       ??_EOposVariant@@QEAAPEAXI@Z 000000018002f220 f i MICRImpl.obj
 0001:0002e2c0       ?EventClaim@COPOSMICR@@IEAAXXZ 000000018002f2c0 f i MICRImpl.obj
 0001:0002e2f0       ?EventClose@COPOSMICR@@IEAAXXZ 000000018002f2f0 f i MICRImpl.obj
 0001:0002e390       ?EventInit@COPOSMICR@@IEAAJXZ 000000018002f390 f i MICRImpl.obj
 0001:0002e640       ?EventOpen@COPOSMICR@@IEAAXXZ 000000018002f640 f i MICRImpl.obj
 0001:0002e680       ?EventPreCloseRelease@COPOSMICR@@IEAAXXZ 000000018002f680 f i MICRImpl.obj
 0001:0002e6f0       ?EventUninit@COPOSMICR@@IEAAXXZ 000000018002f6f0 f i MICRImpl.obj
 0001:0002e810       ?EventWindowProc@COPOSMICR@@IEAA_JI_K_J@Z 000000018002f810 f i MICRImpl.obj
 0001:0002e9d0       ?FireEventCleanup@COPOSMICR@@IEAAXXZ 000000018002f9d0 f i MICRImpl.obj
 0001:0002ea10       ?FireEventSetup@COPOSMICR@@IEAA_NXZ 000000018002fa10 f i MICRImpl.obj
 0001:0002ea80       ?GetModuleInstance@CComModule@ATL@@QEAAPEAUHINSTANCE__@@XZ 000000018002fa80 f i MICRImpl.obj
 0001:0002ea90       ?SetRC@COPOSMICR@@IEAAJJ@Z 000000018002fa90 f i MICRImpl.obj
 0001:0002eab0       ?s_EventWindowProc@COPOSMICR@@KA_JPEAUHWND__@@I_K_J@Z 000000018002fab0 f i MICRImpl.obj
 0001:0002eb50       _snwprintf                 000000018002fb50 f i MICRImpl.obj
 0001:0002ebe0       _vfwprintf_l               000000018002fbe0 f i MICRImpl.obj
 0001:0002ec30       _vsnwprintf                000000018002fc30 f i MICRImpl.obj
 0001:0002ec70       _vsnwprintf_l              000000018002fc70 f i MICRImpl.obj
 0001:0002ecf0       vfwprintf                  000000018002fcf0 f i MICRImpl.obj
 0001:0002ed21       DebugBreak                 000000018002fd21 f   kernel32:KERNEL32.dll
 0001:0002ed27       Sleep                      000000018002fd27 f   kernel32:KERNEL32.dll
 0001:0002ed2d       GetCurrentProcess          000000018002fd2d f   kernel32:KERNEL32.dll
 0001:0002ed33       TerminateProcess           000000018002fd33 f   kernel32:KERNEL32.dll
 0001:0002ed39       MultiByteToWideChar        000000018002fd39 f   kernel32:KERNEL32.dll
 0001:0002ed3f       WideCharToMultiByte        000000018002fd3f f   kernel32:KERNEL32.dll
 0001:0002ed45       DecodePointer              000000018002fd45 f   kernel32:KERNEL32.dll
 0001:0002ed4b       RaiseException             000000018002fd4b f   kernel32:KERNEL32.dll
 0001:0002ed51       GetLastError               000000018002fd51 f   kernel32:KERNEL32.dll
 0001:0002ed57       SetLastError               000000018002fd57 f   kernel32:KERNEL32.dll
 0001:0002ed5d       InitializeCriticalSectionEx 000000018002fd5d f   kernel32:KERNEL32.dll
 0001:0002ed63       DeleteCriticalSection      000000018002fd63 f   kernel32:KERNEL32.dll
 0001:0002ed69       EncodePointer              000000018002fd69 f   kernel32:KERNEL32.dll
 0001:0002ed6f       EnterCriticalSection       000000018002fd6f f   kernel32:KERNEL32.dll
 0001:0002ed75       LeaveCriticalSection       000000018002fd75 f   kernel32:KERNEL32.dll
 0001:0002ed7b       ResetEvent                 000000018002fd7b f   kernel32:KERNEL32.dll
 0001:0002ed81       ReleaseMutex               000000018002fd81 f   kernel32:KERNEL32.dll
 0001:0002ed87       WaitForSingleObject        000000018002fd87 f   kernel32:KERNEL32.dll
 0001:0002ed8d       GetCurrentThreadId         000000018002fd8d f   kernel32:KERNEL32.dll
 0001:0002ed93       DisableThreadLibraryCalls  000000018002fd93 f   kernel32:KERNEL32.dll
 0001:0002ed99       FreeLibrary                000000018002fd99 f   kernel32:KERNEL32.dll
 0001:0002ed9f       GetModuleFileNameW         000000018002fd9f f   kernel32:KERNEL32.dll
 0001:0002eda5       GetModuleHandleW           000000018002fda5 f   kernel32:KERNEL32.dll
 0001:0002edab       GetProcAddress             000000018002fdab f   kernel32:KERNEL32.dll
 0001:0002edb1       LoadLibraryExW             000000018002fdb1 f   kernel32:KERNEL32.dll
 0001:0002edb7       LoadResource               000000018002fdb7 f   kernel32:KERNEL32.dll
 0001:0002edbd       SizeofResource             000000018002fdbd f   kernel32:KERNEL32.dll
 0001:0002edc3       FindResourceW              000000018002fdc3 f   kernel32:KERNEL32.dll
 0001:0002edc9       GlobalAlloc                000000018002fdc9 f   kernel32:KERNEL32.dll
 0001:0002edcf       GlobalUnlock               000000018002fdcf f   kernel32:KERNEL32.dll
 0001:0002edd5       GlobalLock                 000000018002fdd5 f   kernel32:KERNEL32.dll
 0001:0002eddb       MulDiv                     000000018002fddb f   kernel32:KERNEL32.dll
 0001:0002ede1       lstrcmpiW                  000000018002fde1 f   kernel32:KERNEL32.dll
 0001:0002ede7       DeleteFileW                000000018002fde7 f   kernel32:KERNEL32.dll
 0001:0002eded       CloseHandle                000000018002fded f   kernel32:KERNEL32.dll
 0001:0002edf3       SetEvent                   000000018002fdf3 f   kernel32:KERNEL32.dll
 0001:0002edf9       CreateMutexW               000000018002fdf9 f   kernel32:KERNEL32.dll
 0001:0002edff       CreateEventW               000000018002fdff f   kernel32:KERNEL32.dll
 0001:0002ee05       GetCurrentProcessId        000000018002fe05 f   kernel32:KERNEL32.dll
 0001:0002ee0b       LocalFree                  000000018002fe0b f   kernel32:KERNEL32.dll
 0001:0002ee11       FormatMessageW             000000018002fe11 f   kernel32:KERNEL32.dll
 0001:0002ee17       GetActiveWindow            000000018002fe17 f   user32:USER32.dll
 0001:0002ee1d       MessageBoxW                000000018002fe1d f   user32:USER32.dll
 0001:0002ee23       UnregisterClassW           000000018002fe23 f   user32:USER32.dll
 0001:0002ee29       PostMessageW               000000018002fe29 f   user32:USER32.dll
 0001:0002ee2f       DefWindowProcW             000000018002fe2f f   user32:USER32.dll
 0001:0002ee35       CallWindowProcW            000000018002fe35 f   user32:USER32.dll
 0001:0002ee3b       RegisterClassExW           000000018002fe3b f   user32:USER32.dll
 0001:0002ee41       GetClassInfoExW            000000018002fe41 f   user32:USER32.dll
 0001:0002ee47       CreateWindowExW            000000018002fe47 f   user32:USER32.dll
 0001:0002ee4d       IsWindow                   000000018002fe4d f   user32:USER32.dll
 0001:0002ee53       IsChild                    000000018002fe53 f   user32:USER32.dll
 0001:0002ee59       DestroyWindow              000000018002fe59 f   user32:USER32.dll
 0001:0002ee5f       ShowWindow                 000000018002fe5f f   user32:USER32.dll
 0001:0002ee65       SetWindowPos               000000018002fe65 f   user32:USER32.dll
 0001:0002ee6b       CharNextW                  000000018002fe6b f   user32:USER32.dll
 0001:0002ee71       SetFocus                   000000018002fe71 f   user32:USER32.dll
 0001:0002ee77       GetFocus                   000000018002fe77 f   user32:USER32.dll
 0001:0002ee7d       GetKeyState                000000018002fe7d f   user32:USER32.dll
 0001:0002ee83       GetDC                      000000018002fe83 f   user32:USER32.dll
 0001:0002ee89       ReleaseDC                  000000018002fe89 f   user32:USER32.dll
 0001:0002ee8f       BeginPaint                 000000018002fe8f f   user32:USER32.dll
 0001:0002ee95       EndPaint                   000000018002fe95 f   user32:USER32.dll
 0001:0002ee9b       SetWindowRgn               000000018002fe9b f   user32:USER32.dll
 0001:0002eea1       InvalidateRect             000000018002fea1 f   user32:USER32.dll
 0001:0002eea7       GetClientRect              000000018002fea7 f   user32:USER32.dll
 0001:0002eead       IntersectRect              000000018002fead f   user32:USER32.dll
 0001:0002eeb3       UnionRect                  000000018002feb3 f   user32:USER32.dll
 0001:0002eeb9       OffsetRect                 000000018002feb9 f   user32:USER32.dll
 0001:0002eebf       EqualRect                  000000018002febf f   user32:USER32.dll
 0001:0002eec5       PtInRect                   000000018002fec5 f   user32:USER32.dll
 0001:0002eecb       GetWindowLongPtrW          000000018002fecb f   user32:USER32.dll
 0001:0002eed1       SetWindowLongPtrW          000000018002fed1 f   user32:USER32.dll
 0001:0002eed7       GetParent                  000000018002fed7 f   user32:USER32.dll
 0001:0002eedd       LoadCursorW                000000018002fedd f   user32:USER32.dll
 0001:0002eee3       PeekMessageW               000000018002fee3 f   user32:USER32.dll
 0001:0002eee9       RegisterClassW             000000018002fee9 f   user32:USER32.dll
 0001:0002eeef       LoadBitmapW                000000018002feef f   user32:USER32.dll
 0001:0002eef5       CloseMetaFile              000000018002fef5 f   gdi32:GDI32.dll
 0001:0002eefb       CreateDCW                  000000018002fefb f   gdi32:GDI32.dll
 0001:0002ef01       CreateMetaFileW            000000018002ff01 f   gdi32:GDI32.dll
 0001:0002ef07       CreateRectRgnIndirect      000000018002ff07 f   gdi32:GDI32.dll
 0001:0002ef0d       DeleteDC                   000000018002ff0d f   gdi32:GDI32.dll
 0001:0002ef13       DeleteMetaFile             000000018002ff13 f   gdi32:GDI32.dll
 0001:0002ef19       GetDeviceCaps              000000018002ff19 f   gdi32:GDI32.dll
 0001:0002ef1f       RestoreDC                  000000018002ff1f f   gdi32:GDI32.dll
 0001:0002ef25       SaveDC                     000000018002ff25 f   gdi32:GDI32.dll
 0001:0002ef2b       SetMapMode                 000000018002ff2b f   gdi32:GDI32.dll
 0001:0002ef31       LPtoDP                     000000018002ff31 f   gdi32:GDI32.dll
 0001:0002ef37       SetViewportOrgEx           000000018002ff37 f   gdi32:GDI32.dll
 0001:0002ef3d       SetWindowExtEx             000000018002ff3d f   gdi32:GDI32.dll
 0001:0002ef43       SetWindowOrgEx             000000018002ff43 f   gdi32:GDI32.dll
 0001:0002ef49       BitBlt                     000000018002ff49 f   gdi32:GDI32.dll
 0001:0002ef4f       CreateCompatibleDC         000000018002ff4f f   gdi32:GDI32.dll
 0001:0002ef55       DeleteObject               000000018002ff55 f   gdi32:GDI32.dll
 0001:0002ef5b       SelectObject               000000018002ff5b f   gdi32:GDI32.dll
 0001:0002ef61       GetObjectW                 000000018002ff61 f   gdi32:GDI32.dll
 0001:0002ef67       RegCloseKey                000000018002ff67 f   advapi32:ADVAPI32.dll
 0001:0002ef6d       RegCreateKeyExW            000000018002ff6d f   advapi32:ADVAPI32.dll
 0001:0002ef73       RegDeleteKeyW              000000018002ff73 f   advapi32:ADVAPI32.dll
 0001:0002ef79       RegDeleteValueW            000000018002ff79 f   advapi32:ADVAPI32.dll
 0001:0002ef7f       RegEnumKeyExW              000000018002ff7f f   advapi32:ADVAPI32.dll
 0001:0002ef85       RegOpenKeyExW              000000018002ff85 f   advapi32:ADVAPI32.dll
 0001:0002ef8b       RegQueryInfoKeyW           000000018002ff8b f   advapi32:ADVAPI32.dll
 0001:0002ef91       RegSetValueExW             000000018002ff91 f   advapi32:ADVAPI32.dll
 0001:0002ef97       RegQueryValueExW           000000018002ff97 f   advapi32:ADVAPI32.dll
 0001:0002ef9d       CoCreateInstance           000000018002ff9d f   ole32:ole32.dll
 0001:0002efa3       StringFromGUID2            000000018002ffa3 f   ole32:ole32.dll
 0001:0002efa9       CoTaskMemAlloc             000000018002ffa9 f   ole32:ole32.dll
 0001:0002efaf       CoTaskMemRealloc           000000018002ffaf f   ole32:ole32.dll
 0001:0002efb5       CoTaskMemFree              000000018002ffb5 f   ole32:ole32.dll
 0001:0002efbb       ReadClassStm               000000018002ffbb f   ole32:ole32.dll
 0001:0002efc1       WriteClassStm              000000018002ffc1 f   ole32:ole32.dll
 0001:0002efc7       CreateDataAdviseHolder     000000018002ffc7 f   ole32:ole32.dll
 0001:0002efcd       OleSaveToStream            000000018002ffcd f   ole32:ole32.dll
 0001:0002efd3       CreateOleAdviseHolder      000000018002ffd3 f   ole32:ole32.dll
 0001:0002efd9       OleRegGetUserType          000000018002ffd9 f   ole32:ole32.dll
 0001:0002efdf       OleRegGetMiscStatus        000000018002ffdf f   ole32:ole32.dll
 0001:0002efe5       OleRegEnumVerbs            000000018002ffe5 f   ole32:ole32.dll
 0001:0002efeb       CLSIDFromProgID            000000018002ffeb f   ole32:ole32.dll
 0001:0002eff1       SysAllocString             000000018002fff1 f   oleaut32:OLEAUT32.dll
 0001:0002eff7       SysAllocStringLen          000000018002fff7 f   oleaut32:OLEAUT32.dll
 0001:0002effd       SysFreeString              000000018002fffd f   oleaut32:OLEAUT32.dll
 0001:0002f003       SysStringLen               0000000180030003 f   oleaut32:OLEAUT32.dll
 0001:0002f009       VariantClear               0000000180030009 f   oleaut32:OLEAUT32.dll
 0001:0002f00f       VariantCopyInd             000000018003000f f   oleaut32:OLEAUT32.dll
 0001:0002f015       VariantChangeType          0000000180030015 f   oleaut32:OLEAUT32.dll
 0001:0002f01b       SysStringByteLen           000000018003001b f   oleaut32:OLEAUT32.dll
 0001:0002f021       SysAllocStringByteLen      0000000180030021 f   oleaut32:OLEAUT32.dll
 0001:0002f027       VariantInit                0000000180030027 f   oleaut32:OLEAUT32.dll
 0001:0002f02d       VarUI4FromStr              000000018003002d f   oleaut32:OLEAUT32.dll
 0001:0002f033       LoadTypeLib                0000000180030033 f   oleaut32:OLEAUT32.dll
 0001:0002f039       LoadRegTypeLib             0000000180030039 f   oleaut32:OLEAUT32.dll
 0001:0002f03f       RegisterTypeLib            000000018003003f f   oleaut32:OLEAUT32.dll
 0001:0002f045       UnRegisterTypeLib          0000000180030045 f   oleaut32:OLEAUT32.dll
 0001:0002f04b       OleCreatePropertyFrame     000000018003004b f   oleaut32:OLEAUT32.dll
 0001:0002f060       _RTC_AllocaHelper          0000000180030060 f   LIBCMTD:stack.obj
 0001:0002f0a0       _RTC_CheckStackVars        00000001800300a0 f   LIBCMTD:stack.obj
 0001:0002f130       _RTC_CheckStackVars2       0000000180030130 f   LIBCMTD:stack.obj
 0001:0002f240       _CRT_RTC_INIT              0000000180030240 f   LIBCMTD:init.obj
 0001:0002f250       _CRT_RTC_INITW             0000000180030250 f   LIBCMTD:init.obj
 0001:0002f260       _RTC_InitBase              0000000180030260 f   LIBCMTD:init.obj
 0001:0002f2a0       _RTC_Shutdown              00000001800302a0 f   LIBCMTD:init.obj
 0001:0002f2d0       __GSHandlerCheck           00000001800302d0 f   LIBCMTD:gshandler.obj
 0001:0002f310       __GSHandlerCheckCommon     0000000180030310 f   LIBCMTD:gshandler.obj
 0001:0002f420       __security_check_cookie    0000000180030420 f   LIBCMTD:amdsecgs.obj
 0001:0002f440       ??_U@YAPEAX_K@Z            0000000180030440 f   LIBCMTD:new_array.obj
 0001:0002f460       ??3@YAXPEAX_K@Z            0000000180030460 f   LIBCMTD:delete_scalar_size.obj
 0001:0002f480       ??_V@YAXPEAX@Z             0000000180030480 f   LIBCMTD:delete_array.obj
 0001:0002f4a0       ??_V@YAXPEAX_K@Z           00000001800304a0 f   LIBCMTD:delete_array_size.obj
 0001:0002f4c0       ?configure_argv@__scrt_narrow_argv_policy@@SAHXZ 00000001800304c0 f i LIBCMTD:utility.obj
 0001:0002f5b0       ?initialize_environment@__scrt_narrow_environment_policy@@SAHXZ 00000001800305b0 f i LIBCMTD:utility.obj
 0001:0002f650       NtCurrentTeb               0000000180030650 f i LIBCMTD:utility.obj
 0001:0002f660       __scrt_acquire_startup_lock 0000000180030660 f   LIBCMTD:utility.obj
 0001:0002f6d0       __scrt_dllmain_after_initialize_c 00000001800306d0 f   LIBCMTD:utility.obj
 0001:0002f700       __scrt_dllmain_before_initialize_c 0000000180030700 f   LIBCMTD:utility.obj
 0001:0002f720       __scrt_dllmain_crt_thread_attach 0000000180030720 f   LIBCMTD:utility.obj
 0001:0002f750       __scrt_dllmain_crt_thread_detach 0000000180030750 f   LIBCMTD:utility.obj
 0001:0002f770       __scrt_dllmain_exception_filter 0000000180030770 f   LIBCMTD:utility.obj
 0001:0002f7e0       __scrt_dllmain_uninitialize_c 00000001800307e0 f   LIBCMTD:utility.obj
 0001:0002f810       __scrt_dllmain_uninitialize_critical 0000000180030810 f   LIBCMTD:utility.obj
 0001:0002f830       __scrt_initialize_crt      0000000180030830 f   LIBCMTD:utility.obj
 0001:0002f880       __scrt_initialize_onexit_tables 0000000180030880 f   LIBCMTD:utility.obj
 0001:0002f990       __scrt_is_nonwritable_in_current_image 0000000180030990 f   LIBCMTD:utility.obj
 0001:0002fa20       __scrt_release_startup_lock 0000000180030a20 f   LIBCMTD:utility.obj
 0001:0002fa50       __scrt_uninitialize_crt    0000000180030a50 f   LIBCMTD:utility.obj
 0001:0002fa90       _onexit                    0000000180030a90 f   LIBCMTD:utility.obj
 0001:0002fb10       at_quick_exit              0000000180030b10 f   LIBCMTD:utility.obj
 0001:0002fb60       atexit                     0000000180030b60 f   LIBCMTD:utility.obj
 0001:0002fba0       ??3@YAXPEAX@Z              0000000180030ba0 f   LIBCMTD:delete_scalar.obj
 0001:0002fbc0       __raise_securityfailure    0000000180030bc0 f   LIBCMTD:gs_report.obj
 0001:0002fc00       __report_gsfailure         0000000180030c00 f   LIBCMTD:gs_report.obj
 0001:0002fce0       __report_rangecheckfailure 0000000180030ce0 f   LIBCMTD:gs_report.obj
 0001:0002fd00       __report_securityfailure   0000000180030d00 f   LIBCMTD:gs_report.obj
 0001:0002fda0       __report_securityfailureEx 0000000180030da0 f   LIBCMTD:gs_report.obj
 0001:00030160       _Init_thread_abort         0000000180031160 f   LIBCMTD:thread_safe_statics.obj
 0001:00030190       _Init_thread_footer        0000000180031190 f   LIBCMTD:thread_safe_statics.obj
 0001:000301f0       _Init_thread_header        00000001800311f0 f   LIBCMTD:thread_safe_statics.obj
 0001:00030280       _Init_thread_lock          0000000180031280 f   LIBCMTD:thread_safe_statics.obj
 0001:000302a0       _Init_thread_notify        00000001800312a0 f   LIBCMTD:thread_safe_statics.obj
 0001:00030300       _Init_thread_unlock        0000000180031300 f   LIBCMTD:thread_safe_statics.obj
 0001:00030320       _Init_thread_wait          0000000180031320 f   LIBCMTD:thread_safe_statics.obj
 0001:000303d0       ??2@YAPEAX_KAEBUnothrow_t@std@@@Z 00000001800313d0 f   LIBCMTD:new_scalar_nothrow.obj
 0001:00030410       ??_U@YAPEAX_KAEBUnothrow_t@std@@@Z 0000000180031410 f   LIBCMTD:new_array_nothrow.obj
 0001:00030440       __GSHandlerCheck_SEH       0000000180031440 f   LIBCMTD:gshandlerseh.obj
 0001:00030510       _alloca_probe              0000000180031510 f   LIBCMTD:chkstk.obj
 0001:00030510       __chkstk                   0000000180031510 f   LIBCMTD:chkstk.obj
 0001:00030970       _CRT_INIT                  0000000180031970 f   LIBCMTD:dll_dllmain.obj
 0001:000309a0       _DllMainCRTStartup         00000001800319a0 f   LIBCMTD:dll_dllmain.obj
 0001:00030a70       ?_RTC_AllocaFailure@@YAXPEAXPEAU_RTC_ALLOCA_NODE@@H@Z 0000000180031a70 f   LIBCMTD:error.obj
 0001:00030bd0       ?_RTC_Failure@@YAXPEAXH@Z  0000000180031bd0 f   LIBCMTD:error.obj
 0001:00030c20       ?_RTC_StackFailure@@YAXPEAXPEBD@Z 0000000180031c20 f   LIBCMTD:error.obj
 0001:00031050       _RTC_UninitUse             0000000180032050 f   LIBCMTD:error.obj
 0001:00031120       _vsprintf_s_l              0000000180032120 f i LIBCMTD:error.obj
 0001:00031190       sprintf_s                  0000000180032190 f i LIBCMTD:error.obj
 0001:000311c0       ?_RTC_GetErrorFunc@@YAP6AHHPEBDH00ZZPEBX@Z 00000001800321c0 f   LIBCMTD:userapi.obj
 0001:000311d0       ?_RTC_GetErrorFuncW@@YAP6AHHPEB_WH00ZZPEBX@Z 00000001800321d0 f   LIBCMTD:userapi.obj
 0001:000311e0       _RTC_GetErrDesc            00000001800321e0 f   LIBCMTD:userapi.obj
 0001:00031200       _RTC_NumErrors             0000000180032200 f   LIBCMTD:userapi.obj
 0001:00031210       _RTC_SetErrorFunc          0000000180032210 f   LIBCMTD:userapi.obj
 0001:00031230       _RTC_SetErrorFuncW         0000000180032230 f   LIBCMTD:userapi.obj
 0001:00031250       _RTC_SetErrorType          0000000180032250 f   LIBCMTD:userapi.obj
 0001:00031270       ??2@YAPEAX_K@Z             0000000180032270 f   LIBCMTD:new_scalar.obj
 0001:000312c0       __isa_available_init       00000001800322c0 f   LIBCMTD:cpu_disp.obj
 0001:00031660       _get_startup_argv_mode     0000000180032660 f   LIBCMTD:argv_mode.obj
 0001:00031670       __scrt_is_ucrt_dll_in_use  0000000180032670 f   LIBCMTD:ucrt_detection.obj
 0001:000316a0       __crt_debugger_hook        00000001800326a0 f   LIBCMTD:utility_desktop.obj
 0001:000316b0       __scrt_fastfail            00000001800326b0 f   LIBCMTD:utility_desktop.obj
 0001:00031850       __scrt_get_show_window_mode 0000000180032850 f   LIBCMTD:utility_desktop.obj
 0001:000318b0       __scrt_initialize_mta      00000001800328b0 f   LIBCMTD:utility_desktop.obj
 0001:000318c0       __scrt_initialize_winrt    00000001800328c0 f   LIBCMTD:utility_desktop.obj
 0001:000318d0       __scrt_is_managed_app      00000001800328d0 f   LIBCMTD:utility_desktop.obj
 0001:00031980       __scrt_set_unhandled_exception_filter 0000000180032980 f   LIBCMTD:utility_desktop.obj
 0001:000319a0       __scrt_stub_for_initialize_mta 00000001800329a0 f   LIBCMTD:utility_desktop.obj
 0001:000319a0       __scrt_exe_initialize_mta  00000001800329a0 f   LIBCMTD:utility_desktop.obj
 0001:000319b0       __scrt_unhandled_exception_filter 00000001800329b0 f   LIBCMTD:utility_desktop.obj
 0001:00031a50       _guard_check_icall_nop     0000000180032a50 f i LIBCMTD:guard_support.obj
 0001:00031a60       ReadNoFence64              0000000180032a60 f i LIBCMTD:guard_support.obj
 0001:00031a80       ReadPointerNoFence         0000000180032a80 f i LIBCMTD:guard_support.obj
 0001:00031aa0       __castguard_check_failure_debugbreak 0000000180032aa0 f i LIBCMTD:guard_support.obj
 0001:00031ac0       __castguard_check_failure_fastfail 0000000180032ac0 f i LIBCMTD:guard_support.obj
 0001:00031af0       __castguard_check_failure_nop 0000000180032af0 f i LIBCMTD:guard_support.obj
 0001:00031b00       __castguard_check_failure_os_handled 0000000180032b00 f i LIBCMTD:guard_support.obj
 0001:00031bd0       __castguard_slow_path_check_debugbreak 0000000180032bd0 f i LIBCMTD:guard_support.obj
 0001:00031c10       __castguard_slow_path_check_fastfail 0000000180032c10 f i LIBCMTD:guard_support.obj
 0001:00031c60       __castguard_slow_path_check_nop 0000000180032c60 f i LIBCMTD:guard_support.obj
 0001:00031c70       __castguard_slow_path_check_os_handled 0000000180032c70 f i LIBCMTD:guard_support.obj
 0001:00031d30       _guard_icall_checks_enforced 0000000180032d30 f i LIBCMTD:guard_support.obj
 0001:00031d70       _guard_rf_checks_enforced  0000000180032d70 f i LIBCMTD:guard_support.obj
 0001:00031e40       __security_init_cookie     0000000180032e40 f   LIBCMTD:gs_support.obj
 0001:00031ec0       ?__scrt_initialize_type_info@@YAXXZ 0000000180032ec0 f   LIBCMTD:tncleanup.obj
 0001:00031ee0       ?__scrt_uninitialize_type_info@@YAXXZ 0000000180032ee0 f   LIBCMTD:tncleanup.obj
 0001:00031f00       __local_stdio_scanf_options 0000000180032f00 f i LIBCMTD:default_local_stdio_options.obj
 0001:00031f10       __scrt_initialize_default_local_stdio_options 0000000180032f10 f   LIBCMTD:default_local_stdio_options.obj
 0001:00031f60       __scrt_get_dyn_tls_init_callback 0000000180032f60 f   LIBCMTD:dyn_tls_init.obj
 0001:00031f70       _RTC_Initialize            0000000180032f70 f   LIBCMTD:initsect.obj
 0001:00031fc0       _RTC_Terminate             0000000180032fc0 f   LIBCMTD:initsect.obj
 0001:00032530       ?_RTC_GetSrcLine@@YAHPEAEPEA_WKPEAH1K@Z 0000000180033530 f   LIBCMTD:pdblkup.obj
 0001:00032900       ??0bad_alloc@std@@AEAA@QEBD@Z 0000000180033900 f i LIBCMTD:throw_bad_alloc.obj
 0001:00032940       ??0bad_alloc@std@@QEAA@AEBV01@@Z 0000000180033940 f i LIBCMTD:throw_bad_alloc.obj
 0001:00032980       ??0bad_alloc@std@@QEAA@XZ  0000000180033980 f i LIBCMTD:throw_bad_alloc.obj
 0001:000329c0       ??0bad_array_new_length@std@@QEAA@AEBV01@@Z 00000001800339c0 f i LIBCMTD:throw_bad_alloc.obj
 0001:00032a00       ??0bad_array_new_length@std@@QEAA@XZ 0000000180033a00 f i LIBCMTD:throw_bad_alloc.obj
 0001:00032a40       ??0exception@std@@QEAA@AEBV01@@Z 0000000180033a40 f i LIBCMTD:throw_bad_alloc.obj
 0001:00032aa0       ??0exception@std@@QEAA@QEBDH@Z 0000000180033aa0 f i LIBCMTD:throw_bad_alloc.obj
 0001:00032af0       ??1bad_alloc@std@@UEAA@XZ  0000000180033af0 f i LIBCMTD:throw_bad_alloc.obj
 0001:00032b10       ??1bad_array_new_length@std@@UEAA@XZ 0000000180033b10 f i LIBCMTD:throw_bad_alloc.obj
 0001:00032b30       ??1exception@std@@UEAA@XZ  0000000180033b30 f i LIBCMTD:throw_bad_alloc.obj
 0001:00032b60       ??_Gbad_alloc@std@@UEAAPEAXI@Z 0000000180033b60 f i LIBCMTD:throw_bad_alloc.obj
 0001:00032b60       ??_Ebad_alloc@std@@UEAAPEAXI@Z 0000000180033b60 f i LIBCMTD:throw_bad_alloc.obj
 0001:00032ba0       ??_Ebad_array_new_length@std@@UEAAPEAXI@Z 0000000180033ba0 f i LIBCMTD:throw_bad_alloc.obj
 0001:00032ba0       ??_Gbad_array_new_length@std@@UEAAPEAXI@Z 0000000180033ba0 f i LIBCMTD:throw_bad_alloc.obj
 0001:00032be0       ??_Eexception@std@@UEAAPEAXI@Z 0000000180033be0 f i LIBCMTD:throw_bad_alloc.obj
 0001:00032be0       ??_Gexception@std@@UEAAPEAXI@Z 0000000180033be0 f i LIBCMTD:throw_bad_alloc.obj
 0001:00032c20       ?__scrt_throw_std_bad_alloc@@YAXXZ 0000000180033c20 f   LIBCMTD:throw_bad_alloc.obj
 0001:00032c50       ?__scrt_throw_std_bad_array_new_length@@YAXXZ 0000000180033c50 f   LIBCMTD:throw_bad_alloc.obj
 0001:00032c80       ?what@exception@std@@UEBAPEBDXZ 0000000180033c80 f i LIBCMTD:throw_bad_alloc.obj
 0001:00032cc0       ??1type_info@@UEAA@XZ      0000000180033cc0 f   LIBCMTD:std_type_info_static.obj
 0001:00032ce0       ??_Etype_info@@UEAAPEAXI@Z 0000000180033ce0 f i LIBCMTD:std_type_info_static.obj
 0001:00032ce0       ??_Gtype_info@@UEAAPEAXI@Z 0000000180033ce0 f i LIBCMTD:std_type_info_static.obj
 0001:00032d1c       ??$?2PEAUHINSTANCE__@@@Wrapper@?$CSimpleArray@PEAUHINSTANCE__@@V?$CSimpleArrayEqualHelper@PEAUHINSTANCE__@@@ATL@@@ATL@@SAPEAX_KPEAPEAUHINSTANCE__@@@Z 0000000180033d1c f i atls:atlbase.obj
 0001:00032d20       ??0?$CSimpleArray@PEAUHINSTANCE__@@V?$CSimpleArrayEqualHelper@PEAUHINSTANCE__@@@ATL@@@ATL@@QEAA@XZ 0000000180033d20 f i atls:atlbase.obj
 0001:00032d30       ??0CAtlBaseModule@ATL@@QEAA@XZ 0000000180033d30 f   atls:atlbase.obj
 0001:00032dd8       ??0Wrapper@?$CSimpleArray@PEAUHINSTANCE__@@V?$CSimpleArrayEqualHelper@PEAUHINSTANCE__@@@ATL@@@ATL@@QEAA@AEBQEAUHINSTANCE__@@@Z 0000000180033dd8 f i atls:atlbase.obj
 0001:00032de4       ??0_ATL_BASE_MODULE70@ATL@@QEAA@XZ 0000000180033de4 f i atls:atlbase.obj
 0001:00032e10       ??1?$CSimpleArray@PEAUHINSTANCE__@@V?$CSimpleArrayEqualHelper@PEAUHINSTANCE__@@@ATL@@@ATL@@QEAA@XZ 0000000180033e10 f i atls:atlbase.obj
 0001:00032e38       ??1CAtlBaseModule@ATL@@QEAA@XZ 0000000180033e38 f   atls:atlbase.obj
 0001:00032e6c       ??1_ATL_BASE_MODULE70@ATL@@QEAA@XZ 0000000180033e6c f i atls:atlbase.obj
 0001:00032e98       ??A?$CSimpleArray@PEAUHINSTANCE__@@V?$CSimpleArrayEqualHelper@PEAUHINSTANCE__@@@ATL@@@ATL@@QEAAAEAPEAUHINSTANCE__@@H@Z 0000000180033e98 f i atls:atlbase.obj
 0001:00032ec4       ?Add@?$CSimpleArray@PEAUHINSTANCE__@@V?$CSimpleArrayEqualHelper@PEAUHINSTANCE__@@@ATL@@@ATL@@QEAAHAEBQEAUHINSTANCE__@@@Z 0000000180033ec4 f i atls:atlbase.obj
 0001:00032f64       ?AddResourceInstance@CAtlBaseModule@ATL@@QEAA_NPEAUHINSTANCE__@@@Z 0000000180033f64 f   atls:atlbase.obj
 0001:00032fac       ?GetHInstanceAt@CAtlBaseModule@ATL@@QEAAPEAUHINSTANCE__@@H@Z 0000000180033fac f   atls:atlbase.obj
 0001:00033024       ?GetSize@?$CSimpleArray@PEAUHINSTANCE__@@V?$CSimpleArrayEqualHelper@PEAUHINSTANCE__@@@ATL@@@ATL@@QEBAHXZ 0000000180034024 f i atls:atlbase.obj
 0001:00033028       ?InternalSetAtIndex@?$CSimpleArray@PEAUHINSTANCE__@@V?$CSimpleArrayEqualHelper@PEAUHINSTANCE__@@@ATL@@@ATL@@QEAAXHAEBQEAUHINSTANCE__@@@Z 0000000180034028 f i atls:atlbase.obj
 0001:00033040       ?RemoveAll@?$CSimpleArray@PEAUHINSTANCE__@@V?$CSimpleArrayEqualHelper@PEAUHINSTANCE__@@@ATL@@@ATL@@QEAAXXZ 0000000180034040 f i atls:atlbase.obj
 0001:00033068       ?RemoveAt@?$CSimpleArray@PEAUHINSTANCE__@@V?$CSimpleArrayEqualHelper@PEAUHINSTANCE__@@@ATL@@@ATL@@QEAAHH@Z 0000000180034068 f i atls:atlbase.obj
 0001:00033100       ?RemoveResourceInstance@CAtlBaseModule@ATL@@QEAA_NPEAUHINSTANCE__@@@Z 0000000180034100 f   atls:atlbase.obj
 0001:00033188       ?memmove_s@Checked@ATL@@YAXPEAX_KPEBX1@Z 0000000180034188 f i atls:atlbase.obj
 0001:00033630       ?GetCodeAddress@_stdcallthunk@ATL@@QEAAPEAXXZ 0000000180034630 f i atls:atlthunk.obj
 0001:0003365c       ?Init@_stdcallthunk@ATL@@QEAAH_KPEAX@Z 000000018003465c f i atls:atlthunk.obj
 0001:000336ac       ?__AllocStdCallThunk@@YAPEAXXZ 00000001800346ac f   atls:atlthunk.obj
 0001:000336b4       ?__AllocStdCallThunk@ATL@@YAPEAXXZ 00000001800346b4 f   atls:atlthunk.obj
 0001:000336bc       ?__AllocStdCallThunk_cmn@@YAPEAXXZ 00000001800346bc f   atls:atlthunk.obj
 0001:00033794       ?__FreeStdCallThunk@@YAXPEAX@Z 0000000180034794 f   atls:atlthunk.obj
 0001:000337b4       ?__FreeStdCallThunk@ATL@@YAXPEAX@Z 00000001800347b4 f   atls:atlthunk.obj
 0001:000337d4       ?__FreeStdCallThunk_cmn@@YAXPEAX@Z 00000001800347d4 f   atls:atlthunk.obj
 0001:00033874       AtlThunk_AllocateData      0000000180034874 f   atls:atlthunk.obj
 0001:000338f0       AtlThunk_DataToCode        00000001800348f0 f   atls:atlthunk.obj
 0001:00033944       AtlThunk_FreeData          0000000180034944 f   atls:atlthunk.obj
 0001:000339a4       AtlThunk_InitData          00000001800349a4 f   atls:atlthunk.obj
 0001:00033a60       memset_repmovs             0000000180034a60 f   libvcruntimed:memset.obj
 0001:00033a80       memset                     0000000180034a80 f   libvcruntimed:memset.obj
 0001:00033c10       ??$__crt_interlocked_exchange_pointer@$$A6AXXZP6AXXZ@@YAP6AXXZPEDS6AXXZQ6AXXZ@Z 0000000180034c10 f i libvcruntimed:purevirt.obj
 0001:00033c30       ??$__crt_interlocked_read_pointer@$$A6AXXZ@@YAP6AXXZPEDS6AXXZ@Z 0000000180034c30 f i libvcruntimed:purevirt.obj
 0001:00033c50       ?__crt_interlocked_read_64@@YA_JPED_J@Z 0000000180034c50 f i libvcruntimed:purevirt.obj
 0001:00033c70       _get_purecall_handler      0000000180034c70 f   libvcruntimed:purevirt.obj
 0001:00033c90       _purecall                  0000000180034c90 f   libvcruntimed:purevirt.obj
 0001:00033cd0       _set_purecall_handler      0000000180034cd0 f   libvcruntimed:purevirt.obj
 0001:00033d00       memcmp                     0000000180034d00 f   libvcruntimed:memcmp.obj
 0001:00033de0       memcpy_repmovs             0000000180034de0 f   libvcruntimed:memcpy.obj
 0001:00033e00       memcpy                     0000000180034e00 f   libvcruntimed:memcpy.obj
 0001:00033e00       memmove                    0000000180034e00 f   libvcruntimed:memcpy.obj
 0001:00034480       wcsstr                     0000000180035480 f   libvcruntimed:wcsstr.obj
 0001:00034ae0       __vcrt_initialize          0000000180035ae0 f   libvcruntimed:initialization.obj
 0001:00034b20       __vcrt_thread_attach       0000000180035b20 f   libvcruntimed:initialization.obj
 0001:00034b40       __vcrt_thread_detach       0000000180035b40 f   libvcruntimed:initialization.obj
 0001:00034b60       __vcrt_uninitialize        0000000180035b60 f   libvcruntimed:initialization.obj
 0001:00034b80       __vcrt_uninitialize_critical 0000000180035b80 f   libvcruntimed:initialization.obj
 0001:00034ba0       __C_specific_handler       0000000180035ba0 f   libvcruntimed:riscchandler.obj
 0001:00035010       ??$?0AEAViterator@TryBlockMap4@FH4@@AEAV012@$0A@@?$pair@Viterator@TryBlockMap4@FH4@@V123@@std@@QEAA@AEAViterator@TryBlockMap4@FH4@@0@Z 0000000180036010 f i libvcruntimed:risctrnsctrl.obj
 0001:00035070       ??$?0AEAViterator@TryBlockMap@__FrameHandler3@@AEAV012@$0A@@?$pair@Viterator@TryBlockMap@__FrameHandler3@@V123@@std@@QEAA@AEAViterator@TryBlockMap@__FrameHandler3@@0@Z 0000000180036070 f i libvcruntimed:risctrnsctrl.obj
 0001:00035240       ??$_CallSETranslator@V__FrameHandler3@@@@YAHPEAUEHExceptionRecord@@PEA_KPEAU_CONTEXT@@PEAU_xDISPATCHER_CONTEXT@@PEBU_s_FuncInfo@@K1H@Z 0000000180036240 f i libvcruntimed:risctrnsctrl.obj
 0001:000352d0       ??$_CallSETranslator@V__FrameHandler4@@@@YAHPEAUEHExceptionRecord@@PEA_KPEAU_CONTEXT@@PEAU_xDISPATCHER_CONTEXT@@PEAUFuncInfo4@FH4@@K1H@Z 00000001800362d0 f i libvcruntimed:risctrnsctrl.obj
 0001:00035360       ??$forward@AEAViterator@TryBlockMap4@FH4@@@std@@YAAEAViterator@TryBlockMap4@FH4@@AEAV123@@Z 0000000180036360 f i libvcruntimed:risctrnsctrl.obj
 0001:00035370       ??$forward@AEAViterator@TryBlockMap@__FrameHandler3@@@std@@YAAEAViterator@TryBlockMap@__FrameHandler3@@AEAV123@@Z 0000000180036370 f i libvcruntimed:risctrnsctrl.obj
 0001:00035380       ??0FuncInfo4@FH4@@QEAA@XZ  0000000180036380 f i libvcruntimed:risctrnsctrl.obj
 0001:000353f0       ??0FuncInfoHeader@FH4@@QEAA@XZ 00000001800363f0 f i libvcruntimed:risctrnsctrl.obj
 0001:00035410       ??0iterator@TryBlockMap4@FH4@@QEAA@AEAV12@I@Z 0000000180036410 f i libvcruntimed:risctrnsctrl.obj
 0001:00035440       ??0iterator@TryBlockMap@__FrameHandler3@@QEAA@AEAV12@I@Z 0000000180036440 f i libvcruntimed:risctrnsctrl.obj
 0001:00035470       ??4iterator@TryBlockMap4@FH4@@QEAAAEAV012@AEBV012@@Z 0000000180036470 f i libvcruntimed:risctrnsctrl.obj
 0001:00035490       ??9iterator@TryBlockMap4@FH4@@QEBA_NAEBV012@@Z 0000000180036490 f i libvcruntimed:risctrnsctrl.obj
 0001:000354d0       ??Diterator@TryBlockMap4@FH4@@QEAA?AUTryBlockMapEntry4@2@XZ 00000001800364d0 f i libvcruntimed:risctrnsctrl.obj
 0001:00035500       ??Eiterator@TryBlockMap4@FH4@@QEAAAEAV012@XZ 0000000180036500 f i libvcruntimed:risctrnsctrl.obj
 0001:00035540       ?CatchTryBlock@__FrameHandler3@@SAPEBU_s_TryBlockMapEntry@@PEBU_s_FuncInfo@@H@Z 0000000180036540 f   libvcruntimed:risctrnsctrl.obj
 0001:000355d0       ?DecompFuncInfo@FH4@@YA_JPEAEAEAUFuncInfo4@1@_KH@Z 00000001800365d0 f i libvcruntimed:risctrnsctrl.obj
 0001:00035610       ?DecompFuncInfo@FH4@@YA_JPEAEAEAUFuncInfo4@1@_KH_N@Z 0000000180036610 f i libvcruntimed:risctrnsctrl.obj
 0001:000357e0       ?DecompTryBlock@TryBlockMap4@FH4@@AEAAXXZ 00000001800367e0 f i libvcruntimed:risctrnsctrl.obj
 0001:00035860       ?ExecutionInCatch@__FrameHandler3@@SA_NPEAU_xDISPATCHER_CONTEXT@@PEBU_s_FuncInfo@@@Z 0000000180036860 f   libvcruntimed:risctrnsctrl.obj
 0001:000358b0       ?ExecutionInCatch@__FrameHandler4@@SA_NPEAU_xDISPATCHER_CONTEXT@@PEAUFuncInfo4@FH4@@@Z 00000001800368b0 f   libvcruntimed:risctrnsctrl.obj
 0001:000358d0       ?FrameUnwindToEmptyState@__FrameHandler3@@SAXPEA_KPEAU_xDISPATCHER_CONTEXT@@PEBU_s_FuncInfo@@@Z 00000001800368d0 f   libvcruntimed:risctrnsctrl.obj
 0001:00035970       ?FrameUnwindToEmptyState@__FrameHandler4@@SAXPEA_KPEAU_xDISPATCHER_CONTEXT@@PEAUFuncInfo4@FH4@@@Z 0000000180036970 f   libvcruntimed:risctrnsctrl.obj
 0001:000359c0       ?GetEstablisherFrame@__FrameHandler3@@SAPEA_KPEA_KPEAU_xDISPATCHER_CONTEXT@@PEBU_s_FuncInfo@@0@Z 00000001800369c0 f   libvcruntimed:risctrnsctrl.obj
 0001:00035b30       ?GetEstablisherFrame@__FrameHandler4@@SAPEA_KPEA_KPEAU_xDISPATCHER_CONTEXT@@PEAUFuncInfo4@FH4@@0@Z 0000000180036b30 f   libvcruntimed:risctrnsctrl.obj
 0001:00035ba0       ?GetRangeOfTrysToCheck@__FrameHandler3@@SA?AU?$pair@Viterator@TryBlockMap@__FrameHandler3@@V123@@std@@AEAVTryBlockMap@1@HPEAU_xDISPATCHER_CONTEXT@@PEBU_s_FuncInfo@@H@Z 0000000180036ba0 f   libvcruntimed:risctrnsctrl.obj
 0001:00035de0       ?GetRangeOfTrysToCheck@__FrameHandler4@@SA?AU?$pair@Viterator@TryBlockMap4@FH4@@V123@@std@@AEAVTryBlockMap4@FH4@@HPEAU_xDISPATCHER_CONTEXT@@PEAUFuncInfo4@5@H@Z 0000000180036de0 f   libvcruntimed:risctrnsctrl.obj
 0001:00035f90       ?ReadInt@FH4@@YAHPEAPEAE@Z 0000000180036f90 f i libvcruntimed:risctrnsctrl.obj
 0001:00035fd0       ?ReadUnsigned@FH4@@YAIPEAPEAE@Z 0000000180036fd0 f i libvcruntimed:risctrnsctrl.obj
 0001:00036060       ?UnwindNestedFrames@__FrameHandler3@@SAXPEA_KPEAUEHExceptionRecord@@PEAU_CONTEXT@@0PEAXPEBU_s_FuncInfo@@HHPEBU_s_HandlerType@@PEAU_xDISPATCHER_CONTEXT@@E@Z 0000000180037060 f   libvcruntimed:risctrnsctrl.obj
 0001:000361d0       ?UnwindNestedFrames@__FrameHandler4@@SAXPEA_KPEAUEHExceptionRecord@@PEAU_CONTEXT@@0PEAXPEAUFuncInfo4@FH4@@HHPEAUHandlerType4@5@PEAU_xDISPATCHER_CONTEXT@@E@Z 00000001800371d0 f   libvcruntimed:risctrnsctrl.obj
 0001:000363a0       ?begin@TryBlockMap4@FH4@@QEAA?AViterator@12@XZ 00000001800373a0 f i libvcruntimed:risctrnsctrl.obj
 0001:000363d0       ?end@TryBlockMap4@FH4@@QEAA?AViterator@12@XZ 00000001800373d0 f i libvcruntimed:risctrnsctrl.obj
 0001:00036400       ?imageRelToByteBuffer@FH4@@YAPEAE_KH@Z 0000000180037400 f i libvcruntimed:risctrnsctrl.obj
 0001:00036420       ?incrementToSentinel@iterator@TryBlockMap4@FH4@@QEAAXXZ 0000000180037420 f i libvcruntimed:risctrnsctrl.obj
 0001:00036440       ?setBuffer@TryBlockMap4@FH4@@QEAAXViterator@12@@Z 0000000180037440 f i libvcruntimed:risctrnsctrl.obj
 0001:000364b0       _CreateFrameInfo           00000001800374b0 f   libvcruntimed:risctrnsctrl.obj
 0001:00036520       _FindAndUnlinkFrame        0000000180037520 f   libvcruntimed:risctrnsctrl.obj
 0001:000365a0       _GetImageBase              00000001800375a0 f   libvcruntimed:risctrnsctrl.obj
 0001:000365c0       _GetThrowImageBase         00000001800375c0 f   libvcruntimed:risctrnsctrl.obj
 0001:000365e0       _SetImageBase              00000001800375e0 f   libvcruntimed:risctrnsctrl.obj
 0001:00036600       _SetThrowImageBase         0000000180037600 f   libvcruntimed:risctrnsctrl.obj
 0001:00036620       __CxxFrameHandler          0000000180037620 f   libvcruntimed:risctrnsctrl.obj
 0001:00036660       __CxxFrameHandler2         0000000180037660 f   libvcruntimed:risctrnsctrl.obj
 0001:000366a0       __CxxFrameHandler3         00000001800376a0 f   libvcruntimed:risctrnsctrl.obj
 0001:00036780       __CxxFrameHandler4         0000000180037780 f   libvcruntimed:risctrnsctrl.obj
 0001:00036890       __C_specific_handler_noexcept 0000000180037890 f   libvcruntimed:chandler_noexcept.obj
 0001:00036920       __DestructExceptionObject  0000000180037920 f   libvcruntimed:ehhelpers.obj
 0001:00036a20       ?_CallMemberFunction0@@YAXQEAX0@Z 0000000180037a20 f i libvcruntimed:ehhelpers.obj
 0001:00036af0       ?raw_name@type_info@@QEBAPEBDXZ 0000000180037af0 f i libvcruntimed:ehhelpers.obj
 0001:00036b00       _IsExceptionObjectToBeDestroyed 0000000180037b00 f   libvcruntimed:ehhelpers.obj
 0001:00036b50       _SetWinRTOutOfMemoryExceptionCallback 0000000180037b50 f   libvcruntimed:ehhelpers.obj
 0001:00036b70       __AdjustPointer            0000000180037b70 f   libvcruntimed:ehhelpers.obj
 0001:00036bf0       __FrameUnwindFilter        0000000180037bf0 f   libvcruntimed:ehhelpers.obj
 0001:00036ca0       __GetPlatformExceptionInfo 0000000180037ca0 f   libvcruntimed:ehhelpers.obj
 0001:00036d50       __current_exception        0000000180037d50 f   libvcruntimed:ehhelpers.obj
 0001:00036d70       __current_exception_context 0000000180037d70 f   libvcruntimed:ehhelpers.obj
 0001:00036d90       __processing_throw         0000000180037d90 f   libvcruntimed:ehhelpers.obj
 0001:00036db0       __std_terminate            0000000180037db0 f   libvcruntimed:ehhelpers.obj
 0001:00036dc0       _is_exception_typeof       0000000180037dc0 f   libvcruntimed:ehhelpers.obj
 0001:00036f50       ??$?RD@__crt_internal_free_policy@@QEBAXQEBD@Z 0000000180037f50 f i libvcruntimed:std_type_info.obj
 0001:00036f80       ??$?RX@__crt_internal_free_policy@@QEBAXQEBX@Z 0000000180037f80 f i libvcruntimed:std_type_info.obj
 0001:00036fb0       ??$__crt_interlocked_compare_exchange_pointer@$$CBDPEAD$$T@@YAPEBDPEDSEBDQEAD$$T@Z 0000000180037fb0 f i libvcruntimed:std_type_info.obj
 0001:00036ff0       ??$__crt_interlocked_read_pointer@$$CBD@@YAPEBDPEDSEBD@Z 0000000180037ff0 f i libvcruntimed:std_type_info.obj
 0001:00037010       ??0?$__crt_unique_heap_ptr@DU__crt_internal_free_policy@@@@QEAA@QEAD@Z 0000000180038010 f i libvcruntimed:std_type_info.obj
 0001:00037030       ??0?$__crt_unique_heap_ptr@XU__crt_internal_free_policy@@@@QEAA@QEAX@Z 0000000180038030 f i libvcruntimed:std_type_info.obj
 0001:00037050       ??1?$__crt_unique_heap_ptr@DU__crt_internal_free_policy@@@@QEAA@XZ 0000000180038050 f i libvcruntimed:std_type_info.obj
 0001:00037070       ??1?$__crt_unique_heap_ptr@XU__crt_internal_free_policy@@@@QEAA@XZ 0000000180038070 f i libvcruntimed:std_type_info.obj
 0001:00037090       ??B?$__crt_unique_heap_ptr@DU__crt_internal_free_policy@@@@QEBA_NXZ 0000000180038090 f i libvcruntimed:std_type_info.obj
 0001:000370b0       ??B?$__crt_unique_heap_ptr@XU__crt_internal_free_policy@@@@QEBA_NXZ 00000001800380b0 f i libvcruntimed:std_type_info.obj
 0001:00037150       ?detach@?$__crt_unique_heap_ptr@XU__crt_internal_free_policy@@@@QEAAPEAXXZ 0000000180038150 f i libvcruntimed:std_type_info.obj
 0001:00037180       ?get@?$__crt_unique_heap_ptr@DU__crt_internal_free_policy@@@@QEBAPEADXZ 0000000180038180 f i libvcruntimed:std_type_info.obj
 0001:00037190       ?get@?$__crt_unique_heap_ptr@XU__crt_internal_free_policy@@@@QEBAPEAXXZ 0000000180038190 f i libvcruntimed:std_type_info.obj
 0001:000371a0       ?is_valid@?$__crt_unique_heap_ptr@DU__crt_internal_free_policy@@@@QEBA_NXZ 00000001800381a0 f i libvcruntimed:std_type_info.obj
 0001:000371d0       ?is_valid@?$__crt_unique_heap_ptr@XU__crt_internal_free_policy@@@@QEBA_NXZ 00000001800381d0 f i libvcruntimed:std_type_info.obj
 0001:00037200       ?release@?$__crt_unique_heap_ptr@DU__crt_internal_free_policy@@@@QEAAXXZ 0000000180038200 f i libvcruntimed:std_type_info.obj
 0001:00037230       ?release@?$__crt_unique_heap_ptr@XU__crt_internal_free_policy@@@@QEAAXXZ 0000000180038230 f i libvcruntimed:std_type_info.obj
 0001:00037260       __std_type_info_compare    0000000180038260 f   libvcruntimed:std_type_info.obj
 0001:000372a0       __std_type_info_destroy_list 00000001800382a0 f   libvcruntimed:std_type_info.obj
 0001:00037300       __std_type_info_hash       0000000180038300 f   libvcruntimed:std_type_info.obj
 0001:000373b0       __std_type_info_name       00000001800383b0 f   libvcruntimed:std_type_info.obj
 0001:00037660       __vcrt_GetModuleFileNameW  0000000180038660 f   libvcruntimed:winapi_thunks.obj
 0001:00037690       __vcrt_GetModuleHandleW    0000000180038690 f   libvcruntimed:winapi_thunks.obj
 0001:000376b0       __vcrt_LoadLibraryExW      00000001800386b0 f   libvcruntimed:winapi_thunks.obj
 0001:000376e0       ??$?RD@__crt_public_free_policy@@QEBAXQEBD@Z 00000001800386e0 f i libvcruntimed:std_exception.obj
 0001:00037700       ??0?$__crt_unique_heap_ptr@DU__crt_public_free_policy@@@@QEAA@QEAD@Z 0000000180038700 f i libvcruntimed:std_exception.obj
 0001:00037720       ??1?$__crt_unique_heap_ptr@DU__crt_public_free_policy@@@@QEAA@XZ 0000000180038720 f i libvcruntimed:std_exception.obj
 0001:00037740       ??B?$__crt_unique_heap_ptr@DU__crt_public_free_policy@@@@QEBA_NXZ 0000000180038740 f i libvcruntimed:std_exception.obj
 0001:00037760       ?detach@?$__crt_unique_heap_ptr@DU__crt_public_free_policy@@@@QEAAPEADXZ 0000000180038760 f i libvcruntimed:std_exception.obj
 0001:00037790       ?get@?$__crt_unique_heap_ptr@DU__crt_public_free_policy@@@@QEBAPEADXZ 0000000180038790 f i libvcruntimed:std_exception.obj
 0001:000377a0       ?is_valid@?$__crt_unique_heap_ptr@DU__crt_public_free_policy@@@@QEBA_NXZ 00000001800387a0 f i libvcruntimed:std_exception.obj
 0001:000377d0       ?release@?$__crt_unique_heap_ptr@DU__crt_public_free_policy@@@@QEAAXXZ 00000001800387d0 f i libvcruntimed:std_exception.obj
 0001:00037800       __std_exception_copy       0000000180038800 f   libvcruntimed:std_exception.obj
 0001:00037940       __std_exception_destroy    0000000180038940 f   libvcruntimed:std_exception.obj
 0001:00037980       _CxxThrowException         0000000180038980 f   libvcruntimed:throw.obj
 0001:00037ab0       ??$?RU__vcrt_ptd@@@__crt_internal_free_policy@@QEBAXQEBU__vcrt_ptd@@@Z 0000000180038ab0 f i libvcruntimed:per_thread_data.obj
 0001:00037ae0       ??0?$__crt_unique_heap_ptr@U__vcrt_ptd@@U__crt_internal_free_policy@@@@QEAA@QEAU__vcrt_ptd@@@Z 0000000180038ae0 f i libvcruntimed:per_thread_data.obj
 0001:00037b20       ??1?$__crt_unique_heap_ptr@U__vcrt_ptd@@U__crt_internal_free_policy@@@@QEAA@XZ 0000000180038b20 f i libvcruntimed:per_thread_data.obj
 0001:00037b60       ??B?$__crt_unique_heap_ptr@U__vcrt_ptd@@U__crt_internal_free_policy@@@@QEBA_NXZ 0000000180038b60 f i libvcruntimed:per_thread_data.obj
 0001:00037b80       ?detach@?$__crt_unique_heap_ptr@U__vcrt_ptd@@U__crt_internal_free_policy@@@@QEAAPEAU__vcrt_ptd@@XZ 0000000180038b80 f i libvcruntimed:per_thread_data.obj
 0001:00037bb0       ?get@?$__crt_unique_heap_ptr@U__vcrt_ptd@@U__crt_internal_free_policy@@@@QEBAPEAU__vcrt_ptd@@XZ 0000000180038bb0 f i libvcruntimed:per_thread_data.obj
 0001:00037bc0       ?is_valid@?$__crt_unique_heap_ptr@U__vcrt_ptd@@U__crt_internal_free_policy@@@@QEBA_NXZ 0000000180038bc0 f i libvcruntimed:per_thread_data.obj
 0001:00037bf0       ?release@?$__crt_unique_heap_ptr@U__vcrt_ptd@@U__crt_internal_free_policy@@@@QEAAXXZ 0000000180038bf0 f i libvcruntimed:per_thread_data.obj
 0001:00037c60       __vcrt_freefls             0000000180038c60 f   libvcruntimed:per_thread_data.obj
 0001:00037ca0       __vcrt_freeptd             0000000180038ca0 f   libvcruntimed:per_thread_data.obj
 0001:00037d00       __vcrt_getptd              0000000180038d00 f   libvcruntimed:per_thread_data.obj
 0001:00037d30       __vcrt_getptd_noexit       0000000180038d30 f   libvcruntimed:per_thread_data.obj
 0001:00037ed0       __vcrt_getptd_noinit       0000000180038ed0 f   libvcruntimed:per_thread_data.obj
 0001:00037f30       __vcrt_initialize_ptd      0000000180038f30 f   libvcruntimed:per_thread_data.obj
 0001:00037f80       __vcrt_uninitialize_ptd    0000000180038f80 f   libvcruntimed:per_thread_data.obj
 0001:00037fb0       __vcrt_initialize_locks    0000000180038fb0 f   libvcruntimed:locks.obj
 0001:00038020       __vcrt_lock                0000000180039020 f   libvcruntimed:locks.obj
 0001:00038050       __vcrt_uninitialize_locks  0000000180039050 f   libvcruntimed:locks.obj
 0001:000380b0       __vcrt_unlock              00000001800390b0 f   libvcruntimed:locks.obj
 0001:000380f0       _NLG_Notify                00000001800390f0 f   libvcruntimed:notify.obj
 0001:00038110       __NLG_Dispatch2            0000000180039110 f   libvcruntimed:notify.obj
 0001:00038120       __NLG_Return2              0000000180039120 f   libvcruntimed:notify.obj
 0001:00038140       __except_validate_context_record 0000000180039140 f   libvcruntimed:jbcxrval.obj
 0001:000381a0       __except_validate_jump_buffer 00000001800391a0 f   libvcruntimed:jbcxrval.obj
 0001:000381c0       __except_validate_jump_buffer_common 00000001800391c0 f i libvcruntimed:jbcxrval.obj
 0001:00038240       ?GetCurrentState@__FrameHandler3@@SAHPEA_KPEAU_xDISPATCHER_CONTEXT@@PEBU_s_FuncInfo@@@Z 0000000180039240 f   libvcruntimed:ehstate.obj
 0001:000382a0       ?GetUnwindTryBlock@__FrameHandler3@@SAHPEA_KPEAU_xDISPATCHER_CONTEXT@@PEBU_s_FuncInfo@@@Z 00000001800392a0 f   libvcruntimed:ehstate.obj
 0001:000382f0       ?SetState@__FrameHandler3@@SAXPEA_KPEBU_s_FuncInfo@@H@Z 00000001800392f0 f   libvcruntimed:ehstate.obj
 0001:00038320       ?SetUnwindTryBlock@__FrameHandler3@@SAXPEA_KPEAU_xDISPATCHER_CONTEXT@@PEBU_s_FuncInfo@@H@Z 0000000180039320 f   libvcruntimed:ehstate.obj
 0001:00038390       ?StateFromControlPc@__FrameHandler3@@SAHPEBU_s_FuncInfo@@PEAU_xDISPATCHER_CONTEXT@@@Z 0000000180039390 f   libvcruntimed:ehstate.obj
 0001:000383d0       ?StateFromControlPc@__FrameHandler4@@SAHPEAUFuncInfo4@FH4@@PEAU_xDISPATCHER_CONTEXT@@@Z 00000001800393d0 f   libvcruntimed:ehstate.obj
 0001:00038410       ?StateFromIp@__FrameHandler3@@SAHPEBU_s_FuncInfo@@PEAU_xDISPATCHER_CONTEXT@@_K@Z 0000000180039410 f   libvcruntimed:ehstate.obj
 0001:00038500       ?StateFromIp@__FrameHandler4@@SAHPEAUFuncInfo4@FH4@@PEAU_xDISPATCHER_CONTEXT@@_K@Z 0000000180039500 f   libvcruntimed:ehstate.obj
 0001:000385f0       ?__FuncRelToRealOffset@@YA_KPEAU_xDISPATCHER_CONTEXT@@I@Z 00000001800395f0 f i libvcruntimed:ehstate.obj
 0001:00038620       ?__RVAtoRealOffset@@YA_KPEAU_xDISPATCHER_CONTEXT@@H@Z 0000000180039620 f i libvcruntimed:ehstate.obj
 0001:0003a880       ??$TypeMatchHelper@V__FrameHandler3@@@@YAHPEBU_s_HandlerType@@PEBU_s_CatchableType@@PEBU_s_ThrowInfo@@@Z 000000018003b880 f i libvcruntimed:frame.obj
 0001:0003aa80       ??$TypeMatchHelper@V__FrameHandler4@@@@YAHPEAUHandlerType4@FH4@@PEBU_s_CatchableType@@PEBU_s_ThrowInfo@@@Z 000000018003ba80 f i libvcruntimed:frame.obj
 0001:0003ac90       ??$__InternalCxxFrameHandler@V__FrameHandler3@@@@YA?AW4_EXCEPTION_DISPOSITION@@PEAUEHExceptionRecord@@PEA_KPEAU_CONTEXT@@PEAU_xDISPATCHER_CONTEXT@@PEBU_s_FuncInfo@@H1E@Z 000000018003bc90 f i libvcruntimed:frame.obj
 0001:0003b100       ??$__InternalCxxFrameHandler@V__FrameHandler4@@@@YA?AW4_EXCEPTION_DISPOSITION@@PEAUEHExceptionRecord@@PEA_KPEAU_CONTEXT@@PEAU_xDISPATCHER_CONTEXT@@PEAUFuncInfo4@FH4@@H1E@Z 000000018003c100 f i libvcruntimed:frame.obj
 0001:0003b590       ??0HandlerMap4@FH4@@QEAA@PEBUTryBlockMapEntry4@1@_KH@Z 000000018003c590 f i libvcruntimed:frame.obj
 0001:0003b650       ??0HandlerMap@__FrameHandler3@@QEAA@PEBU_s_TryBlockMapEntry@@_KI@Z 000000018003c650 f i libvcruntimed:frame.obj
 0001:0003b6a0       ??0HandlerType4@FH4@@QEAA@XZ 000000018003c6a0 f i libvcruntimed:frame.obj
 0001:0003b6c0       ??0TryBlockMap4@FH4@@QEAA@PEBUFuncInfo4@1@_K@Z 000000018003c6c0 f i libvcruntimed:frame.obj
 0001:0003b750       ??0TryBlockMap@__FrameHandler3@@QEAA@PEBU_s_FuncInfo@@_K@Z 000000018003c750 f i libvcruntimed:frame.obj
 0001:0003b780       ??0UWMap4@FH4@@QEAA@PEBUFuncInfo4@1@_K@Z 000000018003c780 f i libvcruntimed:frame.obj
 0001:0003b7f0       ??0bad_exception@std@@QEAA@AEBV01@@Z 000000018003c7f0 f i libvcruntimed:frame.obj
 0001:0003b830       ??0bad_exception@std@@QEAA@XZ 000000018003c830 f i libvcruntimed:frame.obj
 0001:0003b870       ??0iterator@HandlerMap4@FH4@@QEAA@AEAV12@I@Z 000000018003c870 f i libvcruntimed:frame.obj
 0001:0003b8a0       ??0iterator@HandlerMap@__FrameHandler3@@QEAA@AEAV12@I@Z 000000018003c8a0 f i libvcruntimed:frame.obj
 0001:0003b8d0       ??0iterator@UWMap4@FH4@@QEAA@AEAV12@PEAE@Z 000000018003c8d0 f i libvcruntimed:frame.obj
 0001:0003b900       ??1bad_exception@std@@UEAA@XZ 000000018003c900 f i libvcruntimed:frame.obj
 0001:0003b920       ??4iterator@UWMap4@FH4@@QEAAAEAV012@AEBV012@@Z 000000018003c920 f i libvcruntimed:frame.obj
 0001:0003b970       ??8iterator@HandlerMap4@FH4@@QEBA_NAEBV012@@Z 000000018003c970 f i libvcruntimed:frame.obj
 0001:0003b9b0       ??8iterator@HandlerMap@__FrameHandler3@@QEBA_NAEBV012@@Z 000000018003c9b0 f i libvcruntimed:frame.obj
 0001:0003b9f0       ??8type_info@@QEBA_NAEBV0@@Z 000000018003c9f0 f i libvcruntimed:frame.obj
 0001:0003ba40       ??9iterator@HandlerMap4@FH4@@QEBA_NAEBV012@@Z 000000018003ca40 f i libvcruntimed:frame.obj
 0001:0003ba80       ??9iterator@HandlerMap@__FrameHandler3@@QEBA_NAEBV012@@Z 000000018003ca80 f i libvcruntimed:frame.obj
 0001:0003bac0       ??Diterator@HandlerMap4@FH4@@QEAA?AUHandlerType4@2@XZ 000000018003cac0 f i libvcruntimed:frame.obj
 0001:0003baf0       ??Diterator@HandlerMap@__FrameHandler3@@QEAA?BU_s_HandlerType@@XZ 000000018003caf0 f i libvcruntimed:frame.obj
 0001:0003bb30       ??Diterator@TryBlockMap@__FrameHandler3@@QEAA?BU_s_TryBlockMapEntry@@XZ 000000018003cb30 f i libvcruntimed:frame.obj
 0001:0003bb80       ??Diterator@UWMap4@FH4@@QEAA?AUUnwindMapEntry4@2@XZ 000000018003cb80 f i libvcruntimed:frame.obj
 0001:0003bc00       ??Eiterator@HandlerMap4@FH4@@QEAAAEAV012@XZ 000000018003cc00 f i libvcruntimed:frame.obj
 0001:0003bc40       ??Eiterator@HandlerMap@__FrameHandler3@@QEAAAEAV012@XZ 000000018003cc40 f i libvcruntimed:frame.obj
 0001:0003bc60       ??Eiterator@TryBlockMap@__FrameHandler3@@QEAAAEAV012@XZ 000000018003cc60 f i libvcruntimed:frame.obj
 0001:0003bc80       ??Eiterator@UWMap4@FH4@@QEAAAEAV012@XZ 000000018003cc80 f i libvcruntimed:frame.obj
 0001:0003bcc0       ??Giterator@UWMap4@FH4@@QEBA_JAEBV012@@Z 000000018003ccc0 f i libvcruntimed:frame.obj
 0001:0003bce0       ??Miterator@TryBlockMap4@FH4@@QEBA_NAEBV012@@Z 000000018003cce0 f i libvcruntimed:frame.obj
 0001:0003bd20       ??Miterator@TryBlockMap@__FrameHandler3@@QEBA_NAEBV012@@Z 000000018003cd20 f i libvcruntimed:frame.obj
 0001:0003bd60       ??Oiterator@UWMap4@FH4@@QEBA_NAEBV012@@Z 000000018003cd60 f i libvcruntimed:frame.obj
 0001:0003bda0       ??Piterator@UWMap4@FH4@@QEBA_NAEBV012@@Z 000000018003cda0 f i libvcruntimed:frame.obj
 0001:0003bde0       ??_Gbad_exception@std@@UEAAPEAXI@Z 000000018003cde0 f i libvcruntimed:frame.obj
 0001:0003bde0       ??_Ebad_exception@std@@UEAAPEAXI@Z 000000018003cde0 f i libvcruntimed:frame.obj
 0001:0003be20       ?BuildCatchObject@__FrameHandler3@@SAXPEAUEHExceptionRecord@@PEAXPEBU_s_HandlerType@@PEBU_s_CatchableType@@@Z 000000018003ce20 f   libvcruntimed:frame.obj
 0001:0003be60       ?BuildCatchObject@__FrameHandler4@@SAXPEAUEHExceptionRecord@@PEAXPEAUHandlerType4@FH4@@PEBU_s_CatchableType@@@Z 000000018003ce60 f   libvcruntimed:frame.obj
 0001:0003bea0       ?BuildCatchObjectHelper@__FrameHandler3@@SAHPEAUEHExceptionRecord@@PEAXPEBU_s_HandlerType@@PEBU_s_CatchableType@@@Z 000000018003cea0 f   libvcruntimed:frame.obj
 0001:0003bee0       ?BuildCatchObjectHelper@__FrameHandler4@@SAHPEAUEHExceptionRecord@@PEAXPEAUHandlerType4@FH4@@PEBU_s_CatchableType@@@Z 000000018003cee0 f   libvcruntimed:frame.obj
 0001:0003bf20       ?CxxCallCatchBlock@__FrameHandler3@@SAPEAXPEAU_EXCEPTION_RECORD@@@Z 000000018003cf20 f   libvcruntimed:frame.obj
 0001:0003c180       ?CxxCallCatchBlock@__FrameHandler4@@SAPEAXPEAU_EXCEPTION_RECORD@@@Z 000000018003d180 f   libvcruntimed:frame.obj
 0001:0003c4b0       ?DecompHandler@HandlerMap4@FH4@@AEAAXXZ 000000018003d4b0 f i libvcruntimed:frame.obj
 0001:0003c880       ?FrameUnwindToState@__FrameHandler3@@SAXPEA_KPEAU_xDISPATCHER_CONTEXT@@PEBU_s_FuncInfo@@H@Z 000000018003d880 f   libvcruntimed:frame.obj
 0001:0003cad0       ?FrameUnwindToState@__FrameHandler4@@SAXPEA_KPEAU_xDISPATCHER_CONTEXT@@PEAUFuncInfo4@FH4@@H@Z 000000018003dad0 f   libvcruntimed:frame.obj
 0001:0003cde0       ?GetHandlerSearchState@__FrameHandler3@@SAHPEA_KPEAU_xDISPATCHER_CONTEXT@@PEBU_s_FuncInfo@@@Z 000000018003dde0 f i libvcruntimed:frame.obj
 0001:0003ce90       ?GetHandlerSearchState@__FrameHandler4@@SAHPEA_KPEAU_xDISPATCHER_CONTEXT@@PEAUFuncInfo4@FH4@@@Z 000000018003de90 f i libvcruntimed:frame.obj
 0001:0003cf10       ?GetMaxState@__FrameHandler3@@SAHPEAU_xDISPATCHER_CONTEXT@@PEBU_s_FuncInfo@@@Z 000000018003df10 f i libvcruntimed:frame.obj
 0001:0003cf30       ?GetMaxState@__FrameHandler4@@SAHPEAU_xDISPATCHER_CONTEXT@@PEAUFuncInfo4@FH4@@@Z 000000018003df30 f i libvcruntimed:frame.obj
 0001:0003d160       ?ReadEntry@UWMap4@FH4@@AEAAXPEAPEAE@Z 000000018003e160 f i libvcruntimed:frame.obj
 0001:0003d210       ?TypeMatch@__FrameHandler3@@SAHPEBU_s_HandlerType@@PEBU_s_CatchableType@@PEBU_s_ThrowInfo@@@Z 000000018003e210 f   libvcruntimed:frame.obj
 0001:0003d240       ?TypeMatch@__FrameHandler4@@SAHPEAUHandlerType4@FH4@@PEBU_s_CatchableType@@PEBU_s_ThrowInfo@@@Z 000000018003e240 f   libvcruntimed:frame.obj
 0001:0003d270       ?WalkBack@UWMap4@FH4@@AEAAXPEAPEAE@Z 000000018003e270 f i libvcruntimed:frame.obj
 0001:0003d2c0       ?WalkBack@iterator@UWMap4@FH4@@QEAAXXZ 000000018003e2c0 f i libvcruntimed:frame.obj
 0001:0003d300       ?WalkForward@UWMap4@FH4@@AEAAXPEAPEAE@Z 000000018003e300 f i libvcruntimed:frame.obj
 0001:0003d330       ?_CallMemberFunction1@@YAXQEAX00@Z 000000018003e330 f i libvcruntimed:frame.obj
 0001:0003d370       ?_CallMemberFunction2@@YAXQEAX00H@Z 000000018003e370 f i libvcruntimed:frame.obj
 0001:0003d400       ?begin@HandlerMap4@FH4@@QEAA?AViterator@12@XZ 000000018003e400 f i libvcruntimed:frame.obj
 0001:0003d430       ?begin@HandlerMap@__FrameHandler3@@QEAA?AViterator@12@XZ 000000018003e430 f i libvcruntimed:frame.obj
 0001:0003d460       ?begin@UWMap4@FH4@@QEAA?AViterator@12@XZ 000000018003e460 f i libvcruntimed:frame.obj
 0001:0003d490       ?end@HandlerMap4@FH4@@QEAA?AViterator@12@XZ 000000018003e490 f i libvcruntimed:frame.obj
 0001:0003d4c0       ?end@HandlerMap@__FrameHandler3@@QEAA?AViterator@12@XZ 000000018003e4c0 f i libvcruntimed:frame.obj
 0001:0003d4f0       ?getESTypes@__FrameHandler3@@SAPEBU_s_ESTypeList@@PEBU_s_FuncInfo@@@Z 000000018003e4f0 f i libvcruntimed:frame.obj
 0001:0003d530       ?getESTypes@__FrameHandler4@@SAPEBU_s_ESTypeList@@PEAUFuncInfo4@FH4@@@Z 000000018003e530 f i libvcruntimed:frame.obj
 0001:0003d540       ?getLastEntry@HandlerMap4@FH4@@QEAAPEAUHandlerType4@2@XZ 000000018003e540 f i libvcruntimed:frame.obj
 0001:0003d580       ?getLastEntry@HandlerMap@__FrameHandler3@@QEAAPEBU_s_HandlerType@@XZ 000000018003e580 f i libvcruntimed:frame.obj
 0001:0003d5a0       ?getMagicNum@__FrameHandler3@@SAIPEBU_s_FuncInfo@@@Z 000000018003e5a0 f i libvcruntimed:frame.obj
 0001:0003d5c0       ?getMagicNum@__FrameHandler4@@SAIPEAUFuncInfo4@FH4@@@Z 000000018003e5c0 f i libvcruntimed:frame.obj
 0001:0003d5d0       ?getNumTryBlocks@TryBlockMap4@FH4@@QEAAIXZ 000000018003e5d0 f i libvcruntimed:frame.obj
 0001:0003d5e0       ?getNumTryBlocks@TryBlockMap@__FrameHandler3@@QEAAIXZ 000000018003e5e0 f i libvcruntimed:frame.obj
 0001:0003d600       ?getStartStop@UWMap4@FH4@@QEAAXHHAEAViterator@12@0@Z 000000018003e600 f i libvcruntimed:frame.obj
 0001:0003d720       ?getStateFromIterators@UWMap4@FH4@@SAHAEBViterator@12@H0H0@Z 000000018003e720 f i libvcruntimed:frame.obj
 0001:0003d860       ?isEHs@__FrameHandler3@@SA_NPEBU_s_FuncInfo@@@Z 000000018003e860 f i libvcruntimed:frame.obj
 0001:0003d8a0       ?isEHs@__FrameHandler4@@SA_NPEAUFuncInfo4@FH4@@@Z 000000018003e8a0 f i libvcruntimed:frame.obj
 0001:0003d8c0       ?isNoExcept@__FrameHandler3@@SA_NPEBU_s_FuncInfo@@@Z 000000018003e8c0 f i libvcruntimed:frame.obj
 0001:0003d900       ?isNoExcept@__FrameHandler4@@SA_NPEAUFuncInfo4@FH4@@@Z 000000018003e900 f i libvcruntimed:frame.obj
 0001:0003d920       ?reset@HandlerType4@FH4@@QEAAXXZ 000000018003e920 f i libvcruntimed:frame.obj
 0001:0003d980       ?resetBuffer@HandlerMap4@FH4@@QEAAXXZ 000000018003e980 f i libvcruntimed:frame.obj
 0001:0003d9a0       ?setBuffer@HandlerMap4@FH4@@QEAAXI@Z 000000018003e9a0 f i libvcruntimed:frame.obj
 0001:0003da00       __BuildCatchObject         000000018003ea00 f   libvcruntimed:frame.obj
 0001:0003da40       __BuildCatchObjectHelper   000000018003ea40 f   libvcruntimed:frame.obj
 0001:0003da80       __TypeMatch                000000018003ea80 f   libvcruntimed:frame.obj
 0001:0003dab0       __vcrt_EncodePointer       000000018003eab0 f i libvcruntimed:frame.obj
 0001:0003dad0       ??$?0$00@DName@@QEAA@PEBDU?$StringLifeSelector@$00@@@Z 000000018003ead0 f i libvcruntimed:undname.obj
 0001:0003db40       ??$?0$00@pcharNode@@QEAA@PEBDHU?$StringLifeSelector@$00@@@Z 000000018003eb40 f i libvcruntimed:undname.obj
 0001:0003dba0       ??$?0$01@DName@@QEAA@PEBDU?$StringLifeSelector@$01@@@Z 000000018003eba0 f i libvcruntimed:undname.obj
 0001:0003dc10       ??$?0$01@pcharNode@@QEAA@PEBDHU?$StringLifeSelector@$01@@@Z 000000018003ec10 f i libvcruntimed:undname.obj
 0001:0003dcc0       ??$?0$0A@@DName@@QEAA@PEBDU?$StringLifeSelector@$0A@@@@Z 000000018003ecc0 f i libvcruntimed:undname.obj
 0001:0003dd30       ??$?0$0A@@pcharNode@@QEAA@PEBDHU?$StringLifeSelector@$0A@@@@Z 000000018003ed30 f i libvcruntimed:undname.obj
 0001:0003dde0       ??$?0_K$0A@@?$optional@_K@std@@QEAA@$$QEA_K@Z 000000018003ede0 f i libvcruntimed:undname.obj
 0001:0003de30       ??$?0_K@?$_Optional_construct_base@_K@std@@QEAA@Uin_place_t@1@$$QEA_K@Z 000000018003ee30 f i libvcruntimed:undname.obj
 0001:0003de60       ??$?0_K@?$_Optional_destruct_base@_K$00@std@@QEAA@Uin_place_t@1@$$QEA_K@Z 000000018003ee60 f i libvcruntimed:undname.obj
 0001:0003dea0       ??$append@VDNameNode@@@DName@@AEAAXPEBVDNameNode@@@Z 000000018003eea0 f i libvcruntimed:undname.obj
 0001:0003df50       ??$append@VDNameStatusNode@@@DName@@AEAAXPEBVDNameStatusNode@@@Z 000000018003ef50 f i libvcruntimed:undname.obj
 0001:0003e000       ??$append@VcharNode@@@DName@@AEAAXPEBVcharNode@@@Z 000000018003f000 f i libvcruntimed:undname.obj
 0001:0003e0b0       ??$append@VpDNameNode@@@DName@@AEAAXPEBVpDNameNode@@@Z 000000018003f0b0 f i libvcruntimed:undname.obj
 0001:0003e160       ??$append@VpcharNode@@@DName@@AEAAXPEBVpcharNode@@@Z 000000018003f160 f i libvcruntimed:undname.obj
 0001:0003e210       ??$doPchar@$00@DName@@AEAAXPEBDH@Z 000000018003f210 f i libvcruntimed:undname.obj
 0001:0003e370       ??$doPchar@$01@DName@@AEAAXPEBDH@Z 000000018003f370 f i libvcruntimed:undname.obj
 0001:0003e4d0       ??$doPchar@$0A@@DName@@AEAAXPEBDH@Z 000000018003f4d0 f i libvcruntimed:undname.obj
 0001:0003e630       ??$forward@_K@std@@YA$$QEA_KAEA_K@Z 000000018003f630 f i libvcruntimed:undname.obj
 0001:0003e640       ??$size@D$04@std@@YA_KAEAY04$$CBD@Z 000000018003f640 f i libvcruntimed:undname.obj
 0001:0003e650       ??$size@D$0EB@@std@@YA_KAEAY0EB@$$CBD@Z 000000018003f650 f i libvcruntimed:undname.obj
 0001:0003e660       ??0?$_Optional_construct_base@_K@std@@QEAA@XZ 000000018003f660 f i libvcruntimed:undname.obj
 0001:0003e680       ??0?$_Optional_destruct_base@_K$00@std@@QEAA@XZ 000000018003f680 f i libvcruntimed:undname.obj
 0001:0003e6b0       ??0?$optional@_K@std@@QEAA@XZ 000000018003f6b0 f i libvcruntimed:undname.obj
 0001:0003e6d0       ??0Block@_HeapManager@@QEAA@XZ 000000018003f6d0 f i libvcruntimed:undname.obj
 0001:0003e6f0       ??0DName@@QEAA@AEAPEBDD@Z  000000018003f6f0 f   libvcruntimed:undname.obj
 0001:0003e8c0       ??0DName@@QEAA@AEBUStringLiteral@@@Z 000000018003f8c0 f   libvcruntimed:undname.obj
 0001:0003e920       ??0DName@@QEAA@AEBV0@@Z    000000018003f920 f i libvcruntimed:undname.obj
 0001:0003e950       ??0DName@@QEAA@D@Z         000000018003f950 f   libvcruntimed:undname.obj
 0001:0003e990       ??0DName@@QEAA@PEAV0@@Z    000000018003f990 f   libvcruntimed:undname.obj
 0001:0003ea70       ??0DName@@QEAA@W4DNameStatus@@@Z 000000018003fa70 f   libvcruntimed:undname.obj
 0001:0003eb20       ??0DName@@QEAA@XZ          000000018003fb20 f i libvcruntimed:undname.obj
 0001:0003eb50       ??0DName@@QEAA@_J@Z        000000018003fb50 f   libvcruntimed:undname.obj
 0001:0003ec60       ??0DName@@QEAA@_K@Z        000000018003fc60 f   libvcruntimed:undname.obj
 0001:0003ed30       ??0DNameNode@@IEAA@XZ      000000018003fd30 f i libvcruntimed:undname.obj
 0001:0003ed50       ??0Replicator@@QEAA@XZ     000000018003fd50 f i libvcruntimed:undname.obj
 0001:0003ed90       ??0UnDecorator@@QEAA@PEBDP6APEADJ@ZK@Z 000000018003fd90 f i libvcruntimed:undname.obj
 0001:0003ee40       ??0_Nontrivial_dummy_type@std@@QEAA@XZ 000000018003fe40 f i libvcruntimed:undname.obj
 0001:0003ee50       ??0charNode@@QEAA@D@Z      000000018003fe50 f i libvcruntimed:undname.obj
 0001:0003ee90       ??0pDNameNode@@QEAA@PEAVDName@@@Z 000000018003fe90 f   libvcruntimed:undname.obj
 0001:0003ef10       ??0pairNode@@QEAA@PEBVDNameNode@@0@Z 000000018003ff10 f i libvcruntimed:undname.obj
 0001:0003ef90       ??2@YAPEAX_KAEAV_HeapManager@@H@Z 000000018003ff90 f   libvcruntimed:undname.obj
 0001:0003eff0       ??4DName@@QEAAAEAV0@AEBUStringLiteral@@@Z 000000018003fff0 f   libvcruntimed:undname.obj
 0001:0003f040       ??4DName@@QEAAAEAV0@AEBV0@@Z 0000000180040040 f   libvcruntimed:undname.obj
 0001:0003f070       ??4DName@@QEAAAEAV0@D@Z    0000000180040070 f i libvcruntimed:undname.obj
 0001:0003f0b0       ??4DName@@QEAAAEAV0@PEAV0@@Z 00000001800400b0 f   libvcruntimed:undname.obj
 0001:0003f180       ??4DName@@QEAAAEAV0@W4DNameStatus@@@Z 0000000180040180 f   libvcruntimed:undname.obj
 0001:0003f210       ??AReplicator@@QEBA?AVDName@@H@Z 0000000180040210 f   libvcruntimed:undname.obj
 0001:0003f2a0       ??B?$optional@_K@std@@QEBA_NXZ 00000001800402a0 f i libvcruntimed:undname.obj
 0001:0003f2b0       ??D?$optional@_K@std@@QEGAAAEA_KXZ 00000001800402b0 f i libvcruntimed:undname.obj
 0001:0003f350       ??H@YA?AVDName@@AEBUStringLiteral@@AEBV0@@Z 0000000180040350 f i libvcruntimed:undname.obj
 0001:0003f3a0       ??H@YA?AVDName@@DAEBV0@@Z  00000001800403a0 f i libvcruntimed:undname.obj
 0001:0003f3f0       ??H@YA?AVDName@@W4DNameStatus@@AEBV0@@Z 00000001800403f0 f i libvcruntimed:undname.obj
 0001:0003f440       ??HDName@@QEBA?AV0@AEBUStringLiteral@@@Z 0000000180040440 f   libvcruntimed:undname.obj
 0001:0003f490       ??HDName@@QEBA?AV0@AEBV0@@Z 0000000180040490 f   libvcruntimed:undname.obj
 0001:0003f4e0       ??HDName@@QEBA?AV0@D@Z     00000001800404e0 f   libvcruntimed:undname.obj
 0001:0003f530       ??HDName@@QEBA?AV0@PEAV0@@Z 0000000180040530 f   libvcruntimed:undname.obj
 0001:0003f580       ??HDName@@QEBA?AV0@W4DNameStatus@@@Z 0000000180040580 f   libvcruntimed:undname.obj
 0001:0003f5d0       ??HStringLiteral@@QEBA?AU0@H@Z 00000001800405d0 f i libvcruntimed:undname.obj
 0001:0003f610       ??YDName@@QEAAAEAV0@AEBUStringLiteral@@@Z 0000000180040610 f   libvcruntimed:undname.obj
 0001:0003f6e0       ??YDName@@QEAAAEAV0@AEBV0@@Z 00000001800406e0 f   libvcruntimed:undname.obj
 0001:0003f7a0       ??YDName@@QEAAAEAV0@D@Z    00000001800407a0 f   libvcruntimed:undname.obj
 0001:0003f840       ??YDName@@QEAAAEAV0@PEAV0@@Z 0000000180040840 f   libvcruntimed:undname.obj
 0001:0003f920       ??YDName@@QEAAAEAV0@W4DNameStatus@@@Z 0000000180040920 f   libvcruntimed:undname.obj
 0001:0003f990       ??YReplicator@@QEAAAEAV0@AEBVDName@@@Z 0000000180040990 f   libvcruntimed:undname.obj
 0001:0003fa50       ??_5DName@@QEAAAEAV0@AEBV0@@Z 0000000180040a50 f   libvcruntimed:undname.obj
 0001:0003fac0       ??__K_l@@YA?AUStringLiteral@@PEBD_K@Z 0000000180040ac0 f i libvcruntimed:undname.obj
 0001:0003fb10       ?Constructor@_HeapManager@@QEAAXP6APEAX_K@ZP6AXPEAX@Z@Z 0000000180040b10 f i libvcruntimed:undname.obj
 0001:0003fb70       ?Destructor@_HeapManager@@QEAAXXZ 0000000180040b70 f i libvcruntimed:undname.obj
 0001:0003fc10       ?UScore@UnDecorator@@SA?AUStringLiteral@@W4Tokens@@@Z 0000000180040c10 f   libvcruntimed:undname.obj
 0001:0003fca0       ?composeDeclaration@UnDecorator@@CA?AVDName@@AEBV2@@Z 0000000180040ca0 f i libvcruntimed:undname.obj
 0001:000421a0       ?dbGetString@DName@@QEBAPEADXZ 00000001800431a0 f   libvcruntimed:undname.obj
 0001:000421d0       ?doAccessSpecifiers@UnDecorator@@SAHXZ 00000001800431d0 f i libvcruntimed:undname.obj
 0001:00042200       ?doAllocationLanguage@UnDecorator@@SAHXZ 0000000180043200 f i libvcruntimed:undname.obj
 0001:00042230       ?doAllocationModel@UnDecorator@@SAHXZ 0000000180043230 f i libvcruntimed:undname.obj
 0001:00042260       ?doEcsu@UnDecorator@@SAHXZ 0000000180043260 f i libvcruntimed:undname.obj
 0001:00042290       ?doEllipsis@UnDecorator@@SAHXZ 0000000180043290 f i libvcruntimed:undname.obj
 0001:000422c0       ?doFunctionReturns@UnDecorator@@SAHXZ 00000001800432c0 f i libvcruntimed:undname.obj
 0001:000422f0       ?doMSKeywords@UnDecorator@@SAHXZ 00000001800432f0 f i libvcruntimed:undname.obj
 0001:00042320       ?doMemberTypes@UnDecorator@@SAHXZ 0000000180043320 f i libvcruntimed:undname.obj
 0001:00042350       ?doNameOnly@UnDecorator@@SAHXZ 0000000180043350 f i libvcruntimed:undname.obj
 0001:00042360       ?doNoIdentCharCheck@UnDecorator@@SAHXZ 0000000180043360 f i libvcruntimed:undname.obj
 0001:00042370       ?doPchar@DName@@AEAAXD@Z   0000000180043370 f   libvcruntimed:undname.obj
 0001:00042400       ?doPtr64@UnDecorator@@SAHXZ 0000000180043400 f i libvcruntimed:undname.obj
 0001:00042430       ?doRestrictionSpec@UnDecorator@@SAHXZ 0000000180043430 f i libvcruntimed:undname.obj
 0001:00042460       ?doThisTypes@UnDecorator@@SAHXZ 0000000180043460 f i libvcruntimed:undname.obj
 0001:00042490       ?doThrowTypes@UnDecorator@@SAHXZ 0000000180043490 f i libvcruntimed:undname.obj
 0001:000424c0       ?doTypeOnly@UnDecorator@@SAHXZ 00000001800434c0 f i libvcruntimed:undname.obj
 0001:000424d0       ?doUnderScore@UnDecorator@@SAHXZ 00000001800434d0 f i libvcruntimed:undname.obj
 0001:00042500       ?getAddressOf@UnDecorator@@CA?AVDName@@XZ 0000000180043500 f   libvcruntimed:undname.obj
 0001:000425a0       ?getArgumentList@UnDecorator@@CA?AVDName@@XZ 00000001800435a0 f   libvcruntimed:undname.obj
 0001:00042740       ?getArgumentTypes@UnDecorator@@CA?AVDName@@XZ 0000000180043740 f   libvcruntimed:undname.obj
 0001:00042a20       ?getArrayAccess@UnDecorator@@CA?AVDName@@XZ 0000000180043a20 f   libvcruntimed:undname.obj
 0001:00042ae0       ?getArrayObject@UnDecorator@@CA?AVDName@@XZ 0000000180043ae0 f   libvcruntimed:undname.obj
 0001:00042c00       ?getArrayType@UnDecorator@@CA?AVDName@@AEBV2@@Z 0000000180043c00 f i libvcruntimed:undname.obj
 0001:00042fc0       ?getBasedType@UnDecorator@@CA?AVDName@@XZ 0000000180043fc0 f   libvcruntimed:undname.obj
 0001:00043130       ?getBasicDataType@UnDecorator@@CA?AVDName@@AEBV2@@Z 0000000180044130 f   libvcruntimed:undname.obj
 0001:00043ed0       ?getCHPEName@UnDecorator@@QEAAPEADPEADH@Z 0000000180044ed0 f i libvcruntimed:undname.obj
 0001:000440a0       ?getCallIndex@UnDecorator@@CA?AVDName@@XZ 00000001800450a0 f i libvcruntimed:undname.obj
 0001:000440c0       ?getCallingConvention@UnDecorator@@CA?AVDName@@XZ 00000001800450c0 f   libvcruntimed:undname.obj
 0001:000444b0       ?getDataIndirectType@UnDecorator@@CA?AVDName@@AEBV2@W4IndirectionKind@@0H@Z 00000001800454b0 f   libvcruntimed:undname.obj
 0001:00045150       ?getDataIndirectType@UnDecorator@@CA?AVDName@@XZ 0000000180046150 f i libvcruntimed:undname.obj
 0001:000451a0       ?getDataType@UnDecorator@@CA?AVDName@@PEAV2@@Z 00000001800461a0 f   libvcruntimed:undname.obj
 0001:00045380       ?getDecoratedName@UnDecorator@@CA?AVDName@@XZ 0000000180046380 f   libvcruntimed:undname.obj
 0001:00045870       ?getDimension@UnDecorator@@CA?AVDName@@_N@Z 0000000180046870 f   libvcruntimed:undname.obj
 0001:00045b80       ?getDispatchTarget@UnDecorator@@CA?AVDName@@XZ 0000000180046b80 f   libvcruntimed:undname.obj
 0001:00045c50       ?getDisplacement@UnDecorator@@CA?AVDName@@XZ 0000000180046c50 f i libvcruntimed:undname.obj
 0001:00045c70       ?getECSUDataType@UnDecorator@@CA?AVDName@@XZ 0000000180046c70 f   libvcruntimed:undname.obj
 0001:00046000       ?getECSUName@UnDecorator@@CA?AVDName@@XZ 0000000180047000 f i libvcruntimed:undname.obj
 0001:00046020       ?getEnumType@UnDecorator@@CA?AVDName@@XZ 0000000180047020 f i libvcruntimed:undname.obj
 0001:000462b0       ?getExtendedDataIndirectType@UnDecorator@@CA?AVDName@@AEAW4IndirectionKind@@AEA_NH@Z 00000001800472b0 f   libvcruntimed:undname.obj
 0001:000465d0       ?getExternalDataType@UnDecorator@@CA?AVDName@@AEBV2@@Z 00000001800475d0 f i libvcruntimed:undname.obj
 0001:000466b0       ?getFloatingPoint@UnDecorator@@CA?AVDName@@H@Z 00000001800476b0 f   libvcruntimed:undname.obj
 0001:00046930       ?getFunctionIndirectType@UnDecorator@@CA?AVDName@@AEBV2@@Z 0000000180047930 f   libvcruntimed:undname.obj
 0001:00046f60       ?getGuardNumber@UnDecorator@@CA?AVDName@@XZ 0000000180047f60 f i libvcruntimed:undname.obj
 0001:00046f80       ?getLastChar@DName@@QEBADXZ 0000000180047f80 f i libvcruntimed:undname.obj
 0001:00046fd0       ?getLastChar@DNameStatusNode@@UEBADXZ 0000000180047fd0 f i libvcruntimed:undname.obj
 0001:00047010       ?getLastChar@charNode@@UEBADXZ 0000000180048010 f i libvcruntimed:undname.obj
 0001:00047020       ?getLastChar@pDNameNode@@UEBADXZ 0000000180048020 f i libvcruntimed:undname.obj
 0001:00047060       ?getLastChar@pairNode@@UEBADXZ 0000000180048060 f i libvcruntimed:undname.obj
 0001:000470e0       ?getLastChar@pcharNode@@UEBADXZ 00000001800480e0 f i libvcruntimed:undname.obj
 0001:00047120       ?getLexicalFrame@UnDecorator@@CA?AVDName@@XZ 0000000180048120 f i libvcruntimed:undname.obj
 0001:00047170       ?getMemberAccess@UnDecorator@@CA?AVDName@@XZ 0000000180048170 f   libvcruntimed:undname.obj
 0001:00047220       ?getMemoryWithBuffer@_HeapManager@@QEAAPEAX_K@Z 0000000180048220 f   libvcruntimed:undname.obj
 0001:00047370       ?getMemoryWithoutBuffer@_HeapManager@@QEAAPEAX_K@Z 0000000180048370 f   libvcruntimed:undname.obj
 0001:000473c0       ?getNoexcept@UnDecorator@@CA?AVDName@@XZ 00000001800483c0 f   libvcruntimed:undname.obj
 0001:00047470       ?getNumberOfDimensions@UnDecorator@@CAHXZ 0000000180048470 f   libvcruntimed:undname.obj
 0001:00047590       ?getOperatorName@UnDecorator@@CA?AVDName@@_NPEA_N@Z 0000000180048590 f i libvcruntimed:undname.obj
 0001:00048580       ?getPointerToMember@UnDecorator@@CA?AVDName@@XZ 0000000180049580 f   libvcruntimed:undname.obj
 0001:000486d0       ?getPointerType@UnDecorator@@CA?AVDName@@AEBV2@0@Z 00000001800496d0 f i libvcruntimed:undname.obj
 0001:00048710       ?getPointerTypeArray@UnDecorator@@CA?AVDName@@AEBV2@0@Z 0000000180049710 f i libvcruntimed:undname.obj
 0001:00048750       ?getPrimaryDataType@UnDecorator@@CA?AVDName@@AEBV2@@Z 0000000180049750 f   libvcruntimed:undname.obj
 0001:00048d80       ?getPtrRefDataType@UnDecorator@@CA?AVDName@@AEBV2@H@Z 0000000180049d80 f   libvcruntimed:undname.obj
 0001:00049170       ?getPtrRefType@UnDecorator@@CA?AVDName@@AEBV2@0W4IndirectionKind@@@Z 000000018004a170 f   libvcruntimed:undname.obj
 0001:000493b0       ?getReferenceType@UnDecorator@@CA?AVDName@@AEBV2@0W4IndirectionKind@@@Z 000000018004a3b0 f i libvcruntimed:undname.obj
 0001:000493f0       ?getRestrictionSpec@UnDecorator@@CA?AVDName@@XZ 000000018004a3f0 f   libvcruntimed:undname.obj
 0001:00049680       ?getReturnType@UnDecorator@@CA?AVDName@@PEAV2@@Z 000000018004a680 f   libvcruntimed:undname.obj
 0001:000496e0       ?getScope@UnDecorator@@CA?AVDName@@XZ 000000018004a6e0 f   libvcruntimed:undname.obj
 0001:00049e40       ?getScopedName@UnDecorator@@CA?AVDName@@XZ 000000018004ae40 f   libvcruntimed:undname.obj
 0001:0004a040       ?getSignedDimension@UnDecorator@@CA?AVDName@@XZ 000000018004b040 f   libvcruntimed:undname.obj
 0001:0004a0d0       ?getStorageConvention@UnDecorator@@CA?AVDName@@XZ 000000018004b0d0 f i libvcruntimed:undname.obj
 0001:0004a0f0       ?getString@DName@@QEBAPEADPEAD0@Z 000000018004b0f0 f i libvcruntimed:undname.obj
 0001:0004a170       ?getString@DName@@QEBAPEADPEADH@Z 000000018004b170 f i libvcruntimed:undname.obj
 0001:0004a230       ?getString@DNameStatusNode@@UEBAPEADPEAD0@Z 000000018004b230 f i libvcruntimed:undname.obj
 0001:0004a280       ?getString@charNode@@UEBAPEADPEAD0@Z 000000018004b280 f i libvcruntimed:undname.obj
 0001:0004a2c0       ?getString@pDNameNode@@UEBAPEADPEAD0@Z 000000018004b2c0 f i libvcruntimed:undname.obj
 0001:0004a320       ?getString@pairNode@@UEBAPEADPEAD0@Z 000000018004b320 f i libvcruntimed:undname.obj
 0001:0004a3f0       ?getString@pcharNode@@UEBAPEADPEAD0@Z 000000018004b3f0 f i libvcruntimed:undname.obj
 0001:0004a430       ?getStringEncoding@UnDecorator@@CA?AVDName@@W4PrefixKind@@H@Z 000000018004b430 f   libvcruntimed:undname.obj
 0001:0004a590       ?getStringHelper@@YAPEADPEADPEBD1H@Z 000000018004b590 f i libvcruntimed:undname.obj
 0001:0004a600       ?getStringObject@UnDecorator@@CA?AVDName@@XZ 000000018004b600 f   libvcruntimed:undname.obj
 0001:0004a6e0       ?getSymbolName@UnDecorator@@CA?AVDName@@XZ 000000018004b6e0 f i libvcruntimed:undname.obj
 0001:0004a780       ?getTemplateArgumentList@UnDecorator@@CA?AVDName@@XZ 000000018004b780 f   libvcruntimed:undname.obj
 0001:0004aac0       ?getTemplateName@UnDecorator@@CA?AVDName@@_N@Z 000000018004bac0 f   libvcruntimed:undname.obj
 0001:0004ad00       ?getTemplateNonTypeArgument@UnDecorator@@CA?AVDName@@XZ 000000018004bd00 f   libvcruntimed:undname.obj
 0001:0004b5a0       ?getTemplateTypeArgument@UnDecorator@@CA?AVDName@@XZ 000000018004c5a0 f   libvcruntimed:undname.obj
 0001:0004b810       ?getThisType@UnDecorator@@CA?AVDName@@XZ 000000018004c810 f i libvcruntimed:undname.obj
 0001:0004b860       ?getThrowTypes@UnDecorator@@CA?AVDName@@XZ 000000018004c860 f   libvcruntimed:undname.obj
 0001:0004b8b0       ?getTypeEncoding@UnDecorator@@CAHXZ 000000018004c8b0 f i libvcruntimed:undname.obj
 0001:0004c510       ?getUndecoratedName@UnDecorator@@QEAAPEADPEADH@Z 000000018004d510 f i libvcruntimed:undname.obj
 0001:0004c700       ?getUnionObject@UnDecorator@@CA?AVDName@@XZ 000000018004d700 f   libvcruntimed:undname.obj
 0001:0004c810       ?getVCallThunkType@UnDecorator@@CA?AVDName@@XZ 000000018004d810 f i libvcruntimed:undname.obj
 0001:0004c8c0       ?getValue@UnDecorator@@CA?AV?$optional@_K@std@@XZ 000000018004d8c0 f   libvcruntimed:undname.obj
 0001:0004c990       ?getValueObject@UnDecorator@@CA?AVDName@@XZ 000000018004d990 f   libvcruntimed:undname.obj
 0001:0004cbb0       ?getVbTableType@UnDecorator@@CA?AVDName@@AEBV2@@Z 000000018004dbb0 f i libvcruntimed:undname.obj
 0001:0004cbe0       ?getVdispMapType@UnDecorator@@CA?AVDName@@AEBV2@@Z 000000018004dbe0 f i libvcruntimed:undname.obj
 0001:0004cca0       ?getVfTableType@UnDecorator@@CA?AVDName@@AEBV2@@Z 000000018004dca0 f i libvcruntimed:undname.obj
 0001:0004cf40       ?getZName@UnDecorator@@CA?AVDName@@_N0@Z 000000018004df40 f   libvcruntimed:undname.obj
 0001:0004d3b0       ?haveTemplateParameters@UnDecorator@@SAHXZ 000000018004e3b0 f i libvcruntimed:undname.obj
 0001:0004d3c0       ?isArray@DName@@QEBAHXZ    000000018004e3c0 f i libvcruntimed:undname.obj
 0001:0004d3e0       ?isComArray@DName@@QEBAHXZ 000000018004e3e0 f i libvcruntimed:undname.obj
 0001:0004d400       ?isEmpty@DName@@QEBAHXZ    000000018004e400 f i libvcruntimed:undname.obj
 0001:0004d430       ?isFull@Replicator@@QEBAHXZ 000000018004e430 f i libvcruntimed:undname.obj
 0001:0004d460       ?isNoTE@DName@@QEBAHXZ     000000018004e460 f i libvcruntimed:undname.obj
 0001:0004d480       ?isPinPtr@DName@@QEBAHXZ   000000018004e480 f i libvcruntimed:undname.obj
 0001:0004d4a0       ?isPtrRef@DName@@QEBAHXZ   000000018004e4a0 f i libvcruntimed:undname.obj
 0001:0004d4c0       ?isUDC@DName@@QEBAHXZ      000000018004e4c0 f i libvcruntimed:undname.obj
 0001:0004d510       ?isUDTThunk@DName@@QEBAHXZ 000000018004e510 f i libvcruntimed:undname.obj
 0001:0004d560       ?isVCallThunk@DName@@QEBAHXZ 000000018004e560 f i libvcruntimed:undname.obj
 0001:0004d580       ?isValid@DName@@QEBAHXZ    000000018004e580 f i libvcruntimed:undname.obj
 0001:0004d5c0       ?length@DName@@QEBAHXZ     000000018004e5c0 f i libvcruntimed:undname.obj
 0001:0004d610       ?length@DNameStatusNode@@UEBAHXZ 000000018004e610 f i libvcruntimed:undname.obj
 0001:0004d620       ?length@charNode@@UEBAHXZ  000000018004e620 f i libvcruntimed:undname.obj
 0001:0004d630       ?length@pDNameNode@@UEBAHXZ 000000018004e630 f i libvcruntimed:undname.obj
 0001:0004d670       ?length@pairNode@@UEBAHXZ  000000018004e670 f i libvcruntimed:undname.obj
 0001:0004d700       ?length@pcharNode@@UEBAHXZ 000000018004e700 f i libvcruntimed:undname.obj
 0001:0004d710       ?make@DNameStatusNode@@SAPEBV1@W4DNameStatus@@@Z 000000018004e710 f i libvcruntimed:undname.obj
 0001:0004d760       ?parseDecoratedName@UnDecorator@@CA?AVDName@@XZ 000000018004e760 f   libvcruntimed:undname.obj
 0001:0004d950       ?raw_length@DNameStatusNode@@UEBAHXZ 000000018004e950 f i libvcruntimed:undname.obj
 0001:0004d970       ?raw_length@charNode@@UEBAHXZ 000000018004e970 f i libvcruntimed:undname.obj
 0001:0004d990       ?raw_length@pDNameNode@@UEBAHXZ 000000018004e990 f i libvcruntimed:undname.obj
 0001:0004d9a0       ?raw_length@pairNode@@UEBAHXZ 000000018004e9a0 f i libvcruntimed:undname.obj
 0001:0004d9b0       ?raw_length@pcharNode@@UEBAHXZ 000000018004e9b0 f i libvcruntimed:undname.obj
 0001:0004d9d0       ?setIsArray@DName@@QEAAXXZ 000000018004e9d0 f i libvcruntimed:undname.obj
 0001:0004d9f0       ?setIsComArray@DName@@QEAAXXZ 000000018004e9f0 f i libvcruntimed:undname.obj
 0001:0004da10       ?setIsNoTE@DName@@QEAAXXZ  000000018004ea10 f i libvcruntimed:undname.obj
 0001:0004da30       ?setIsPinPtr@DName@@QEAAXXZ 000000018004ea30 f i libvcruntimed:undname.obj
 0001:0004da50       ?setIsUDC@DName@@QEAAXXZ   000000018004ea50 f i libvcruntimed:undname.obj
 0001:0004da80       ?setIsVCallThunk@DName@@QEAAXXZ 000000018004ea80 f i libvcruntimed:undname.obj
 0001:0004daa0       ?setPtrRef@DName@@QEAAAEAV1@XZ 000000018004eaa0 f i libvcruntimed:undname.obj
 0001:0004dac0       ?status@DName@@QEBA?AW4DNameStatus@@XZ 000000018004eac0 f i libvcruntimed:undname.obj
 0001:0004dbf0       __unDName                  000000018004ebf0 f   libvcruntimed:undname.obj
 0001:0004dc50       __unDNameEx                000000018004ec50 f   libvcruntimed:undname.obj
 0001:0004dd10       unDNameGenerateCHPE        000000018004ed10 f   libvcruntimed:undname.obj
 0001:0004ddc0       ??$__crt_interlocked_exchange_pointer@UHINSTANCE__@@PEAU1@@@YAPEAUHINSTANCE__@@PEDSEAU0@QEAU0@@Z 000000018004edc0 f i libvcruntimed:winapi_downlevel.obj
 0001:0004dde0       ??$__crt_interlocked_exchange_pointer@UHINSTANCE__@@PEAX@@YAPEAUHINSTANCE__@@PEDSEAU0@QEAX@Z 000000018004ede0 f i libvcruntimed:winapi_downlevel.obj
 0001:0004de00       ??$__crt_interlocked_exchange_pointer@XPEAX@@YAPEAXPEDSEAXQEAX@Z 000000018004ee00 f i libvcruntimed:winapi_downlevel.obj
 0001:0004de20       ??$__crt_interlocked_read_pointer@UHINSTANCE__@@@@YAPEAUHINSTANCE__@@PEDSEAU0@@Z 000000018004ee20 f i libvcruntimed:winapi_downlevel.obj
 0001:0004de40       ??$__crt_interlocked_read_pointer@X@@YAPEAXPEDSEAX@Z 000000018004ee40 f i libvcruntimed:winapi_downlevel.obj
 0001:0004e350       __vcrt_FlsAlloc            000000018004f350 f   libvcruntimed:winapi_downlevel.obj
 0001:0004e3a0       __vcrt_FlsFree             000000018004f3a0 f   libvcruntimed:winapi_downlevel.obj
 0001:0004e3f0       __vcrt_FlsGetValue         000000018004f3f0 f   libvcruntimed:winapi_downlevel.obj
 0001:0004e440       __vcrt_FlsSetValue         000000018004f440 f   libvcruntimed:winapi_downlevel.obj
 0001:0004e4a0       __vcrt_InitializeCriticalSectionEx 000000018004f4a0 f   libvcruntimed:winapi_downlevel.obj
 0001:0004e520       _CallSettingFrame          000000018004f520 f   libvcruntimed:handlers.obj
 0001:0004e570       _CallSettingFrame_LookupContinuationIndex 000000018004f570 f   libvcruntimed:handlers.obj
 0001:0004e5a0       _CallSettingFrame_NotifyContinuationAddr 000000018004f5a0 f   libvcruntimed:handlers.obj
 0001:0004e5d0       _CallSettingFrameEncoded   000000018004f5d0 f   libvcruntimed:handlers.obj
 0001:0004e620       ??$?0AEBV?$stream_output_adapter@D@__crt_stdio_output@@AEB_KAEBQEBDAEAV__crt_cached_ptd_host@@AEBQEAD@?$format_validation_base@DV?$stream_output_adapter@D@__crt_stdio_output@@@__crt_stdio_output@@IEAA@AEBV?$stream_output_adapter@D@1@AEB_KAEBQEBDAEAV__crt_cached_ptd_host@@AEBQEAD@Z 000000018004f620 f i libucrtd:output.obj
 0001:0004e670       ??$?0AEBV?$stream_output_adapter@D@__crt_stdio_output@@AEB_KAEBQEBDAEAV__crt_cached_ptd_host@@AEBQEAD@?$positional_parameter_base@DV?$stream_output_adapter@D@__crt_stdio_output@@@__crt_stdio_output@@IEAA@AEBV?$stream_output_adapter@D@1@AEB_KAEBQEBDAEAV__crt_cached_ptd_host@@AEBQEAD@Z 000000018004f670 f i libucrtd:output.obj
 0001:0004e710       ??$?0AEBV?$stream_output_adapter@D@__crt_stdio_output@@AEB_KAEBQEBDAEAV__crt_cached_ptd_host@@AEBQEAD@?$standard_base@DV?$stream_output_adapter@D@__crt_stdio_output@@@__crt_stdio_output@@IEAA@AEBV?$stream_output_adapter@D@1@AEB_KAEBQEBDAEAV__crt_cached_ptd_host@@AEBQEAD@Z 000000018004f710 f i libucrtd:output.obj
 0001:0004e780       ??$?0AEBV?$stream_output_adapter@_W@__crt_stdio_output@@AEB_KAEBQEB_WAEAV__crt_cached_ptd_host@@AEBQEAD@?$format_validation_base@_WV?$stream_output_adapter@_W@__crt_stdio_output@@@__crt_stdio_output@@IEAA@AEBV?$stream_output_adapter@_W@1@AEB_KAEBQEB_WAEAV__crt_cached_ptd_host@@AEBQEAD@Z 000000018004f780 f i libucrtd:output.obj
 0001:0004e7d0       ??$?0AEBV?$stream_output_adapter@_W@__crt_stdio_output@@AEB_KAEBQEB_WAEAV__crt_cached_ptd_host@@AEBQEAD@?$positional_parameter_base@_WV?$stream_output_adapter@_W@__crt_stdio_output@@@__crt_stdio_output@@IEAA@AEBV?$stream_output_adapter@_W@1@AEB_KAEBQEB_WAEAV__crt_cached_ptd_host@@AEBQEAD@Z 000000018004f7d0 f i libucrtd:output.obj
 0001:0004e870       ??$?0AEBV?$stream_output_adapter@_W@__crt_stdio_output@@AEB_KAEBQEB_WAEAV__crt_cached_ptd_host@@AEBQEAD@?$standard_base@_WV?$stream_output_adapter@_W@__crt_stdio_output@@@__crt_stdio_output@@IEAA@AEBV?$stream_output_adapter@_W@1@AEB_KAEBQEB_WAEAV__crt_cached_ptd_host@@AEBQEAD@Z 000000018004f870 f i libucrtd:output.obj
 0001:0004e8e0       ??$?0AEBV?$string_output_adapter@D@__crt_stdio_output@@AEB_KAEBQEBDAEAV__crt_cached_ptd_host@@AEBQEAD@?$format_validation_base@DV?$string_output_adapter@D@__crt_stdio_output@@@__crt_stdio_output@@IEAA@AEBV?$string_output_adapter@D@1@AEB_KAEBQEBDAEAV__crt_cached_ptd_host@@AEBQEAD@Z 000000018004f8e0 f i libucrtd:output.obj
 0001:0004e930       ??$?0AEBV?$string_output_adapter@D@__crt_stdio_output@@AEB_KAEBQEBDAEAV__crt_cached_ptd_host@@AEBQEAD@?$positional_parameter_base@DV?$string_output_adapter@D@__crt_stdio_output@@@__crt_stdio_output@@IEAA@AEBV?$string_output_adapter@D@1@AEB_KAEBQEBDAEAV__crt_cached_ptd_host@@AEBQEAD@Z 000000018004f930 f i libucrtd:output.obj
 0001:0004e9d0       ??$?0AEBV?$string_output_adapter@D@__crt_stdio_output@@AEB_KAEBQEBDAEAV__crt_cached_ptd_host@@AEBQEAD@?$standard_base@DV?$string_output_adapter@D@__crt_stdio_output@@@__crt_stdio_output@@IEAA@AEBV?$string_output_adapter@D@1@AEB_KAEBQEBDAEAV__crt_cached_ptd_host@@AEBQEAD@Z 000000018004f9d0 f i libucrtd:output.obj
 0001:0004ea40       ??$?0AEBV?$string_output_adapter@_W@__crt_stdio_output@@AEB_KAEBQEB_WAEAV__crt_cached_ptd_host@@AEBQEAD@?$format_validation_base@_WV?$string_output_adapter@_W@__crt_stdio_output@@@__crt_stdio_output@@IEAA@AEBV?$string_output_adapter@_W@1@AEB_KAEBQEB_WAEAV__crt_cached_ptd_host@@AEBQEAD@Z 000000018004fa40 f i libucrtd:output.obj
 0001:0004ea90       ??$?0AEBV?$string_output_adapter@_W@__crt_stdio_output@@AEB_KAEBQEB_WAEAV__crt_cached_ptd_host@@AEBQEAD@?$positional_parameter_base@_WV?$string_output_adapter@_W@__crt_stdio_output@@@__crt_stdio_output@@IEAA@AEBV?$string_output_adapter@_W@1@AEB_KAEBQEB_WAEAV__crt_cached_ptd_host@@AEBQEAD@Z 000000018004fa90 f i libucrtd:output.obj
 0001:0004eb30       ??$?0AEBV?$string_output_adapter@_W@__crt_stdio_output@@AEB_KAEBQEB_WAEAV__crt_cached_ptd_host@@AEBQEAD@?$standard_base@_WV?$string_output_adapter@_W@__crt_stdio_output@@@__crt_stdio_output@@IEAA@AEBV?$string_output_adapter@_W@1@AEB_KAEBQEB_WAEAV__crt_cached_ptd_host@@AEBQEAD@Z 000000018004fb30 f i libucrtd:output.obj
 0001:0004efc0       ??$__crt_interlocked_read@J@@YAJPEDJ@Z 000000018004ffc0 f i libucrtd:output.obj
 0001:0004efe0       ??$_tcstol_internal@DPEAPEAD$0A@@@YAJAEAV__crt_cached_ptd_host@@QEBDQEAPEADH@Z 000000018004ffe0 f i libucrtd:output.obj
 0001:0004f030       ??$_tcstol_internal@_WPEAPEA_W$0A@@@YAJAEAV__crt_cached_ptd_host@@QEB_WQEAPEA_WH@Z 0000000180050030 f i libucrtd:output.obj
 0001:00053050       ??$count@D@formatting_buffer@__crt_stdio_output@@QEBA_KXZ 0000000180054050 f i libucrtd:output.obj
 0001:000530a0       ??$count@_W@formatting_buffer@__crt_stdio_output@@QEBA_KXZ 00000001800540a0 f i libucrtd:output.obj
 0001:000530f0       ??$data@D@formatting_buffer@__crt_stdio_output@@QEAAPEADXZ 00000001800540f0 f i libucrtd:output.obj
 0001:00053140       ??$data@_W@formatting_buffer@__crt_stdio_output@@QEAAPEA_WXZ 0000000180054140 f i libucrtd:output.obj
 0001:00053190       ??$ensure_buffer_is_big_enough@D@formatting_buffer@__crt_stdio_output@@QEAA_N_KAEAV__crt_cached_ptd_host@@@Z 0000000180054190 f i libucrtd:output.obj
 0001:000532d0       ??$ensure_buffer_is_big_enough@_W@formatting_buffer@__crt_stdio_output@@QEAA_N_KAEAV__crt_cached_ptd_host@@@Z 00000001800542d0 f i libucrtd:output.obj
 0001:00053410       ??$extract_argument_from_va_list@C_J@?$positional_parameter_base@DV?$stream_output_adapter@D@__crt_stdio_output@@@__crt_stdio_output@@IEAA_NAEA_J@Z 0000000180054410 f i libucrtd:output.obj
 0001:000535d0       ??$extract_argument_from_va_list@C_J@?$positional_parameter_base@DV?$string_output_adapter@D@__crt_stdio_output@@@__crt_stdio_output@@IEAA_NAEA_J@Z 00000001800545d0 f i libucrtd:output.obj
 0001:00053790       ??$extract_argument_from_va_list@C_J@?$positional_parameter_base@_WV?$stream_output_adapter@_W@__crt_stdio_output@@@__crt_stdio_output@@IEAA_NAEA_J@Z 0000000180054790 f i libucrtd:output.obj
 0001:00053950       ??$extract_argument_from_va_list@C_J@?$positional_parameter_base@_WV?$string_output_adapter@_W@__crt_stdio_output@@@__crt_stdio_output@@IEAA_NAEA_J@Z 0000000180054950 f i libucrtd:output.obj
 0001:00053b10       ??$extract_argument_from_va_list@C_J@?$standard_base@DV?$stream_output_adapter@D@__crt_stdio_output@@@__crt_stdio_output@@IEAA_NAEA_J@Z 0000000180054b10 f i libucrtd:output.obj
 0001:00053b50       ??$extract_argument_from_va_list@C_J@?$standard_base@DV?$string_output_adapter@D@__crt_stdio_output@@@__crt_stdio_output@@IEAA_NAEA_J@Z 0000000180054b50 f i libucrtd:output.obj
 0001:00053b90       ??$extract_argument_from_va_list@C_J@?$standard_base@_WV?$stream_output_adapter@_W@__crt_stdio_output@@@__crt_stdio_output@@IEAA_NAEA_J@Z 0000000180054b90 f i libucrtd:output.obj
 0001:00053bd0       ??$extract_argument_from_va_list@C_J@?$standard_base@_WV?$string_output_adapter@_W@__crt_stdio_output@@@__crt_stdio_output@@IEAA_NAEA_J@Z 0000000180054bd0 f i libucrtd:output.obj
 0001:00053c10       ??$extract_argument_from_va_list@E_J@?$positional_parameter_base@DV?$stream_output_adapter@D@__crt_stdio_output@@@__crt_stdio_output@@IEAA_NAEA_J@Z 0000000180054c10 f i libucrtd:output.obj
 0001:00053dd0       ??$extract_argument_from_va_list@E_J@?$positional_parameter_base@DV?$string_output_adapter@D@__crt_stdio_output@@@__crt_stdio_output@@IEAA_NAEA_J@Z 0000000180054dd0 f i libucrtd:output.obj
 0001:00053f90       ??$extract_argument_from_va_list@E_J@?$positional_parameter_base@_WV?$stream_output_adapter@_W@__crt_stdio_output@@@__crt_stdio_output@@IEAA_NAEA_J@Z 0000000180054f90 f i libucrtd:output.obj
 0001:00054150       ??$extract_argument_from_va_list@E_J@?$positional_parameter_base@_WV?$string_output_adapter@_W@__crt_stdio_output@@@__crt_stdio_output@@IEAA_NAEA_J@Z 0000000180055150 f i libucrtd:output.obj
 0001:00054310       ??$extract_argument_from_va_list@E_J@?$standard_base@DV?$stream_output_adapter@D@__crt_stdio_output@@@__crt_stdio_output@@IEAA_NAEA_J@Z 0000000180055310 f i libucrtd:output.obj
 0001:00054350       ??$extract_argument_from_va_list@E_J@?$standard_base@DV?$string_output_adapter@D@__crt_stdio_output@@@__crt_stdio_output@@IEAA_NAEA_J@Z 0000000180055350 f i libucrtd:output.obj
 0001:00054390       ??$extract_argument_from_va_list@E_J@?$standard_base@_WV?$stream_output_adapter@_W@__crt_stdio_output@@@__crt_stdio_output@@IEAA_NAEA_J@Z 0000000180055390 f i libucrtd:output.obj
 0001:000543d0       ??$extract_argument_from_va_list@E_J@?$standard_base@_WV?$string_output_adapter@_W@__crt_stdio_output@@@__crt_stdio_output@@IEAA_NAEA_J@Z 00000001800553d0 f i libucrtd:output.obj
 0001:00054410       ??$extract_argument_from_va_list@F_J@?$positional_parameter_base@DV?$stream_output_adapter@D@__crt_stdio_output@@@__crt_stdio_output@@IEAA_NAEA_J@Z 0000000180055410 f i libucrtd:output.obj
 0001:000545d0       ??$extract_argument_from_va_list@F_J@?$positional_parameter_base@DV?$string_output_adapter@D@__crt_stdio_output@@@__crt_stdio_output@@IEAA_NAEA_J@Z 00000001800555d0 f i libucrtd:output.obj
 0001:00054790       ??$extract_argument_from_va_list@F_J@?$positional_parameter_base@_WV?$stream_output_adapter@_W@__crt_stdio_output@@@__crt_stdio_output@@IEAA_NAEA_J@Z 0000000180055790 f i libucrtd:output.obj
 0001:00054950       ??$extract_argument_from_va_list@F_J@?$positional_parameter_base@_WV?$string_output_adapter@_W@__crt_stdio_output@@@__crt_stdio_output@@IEAA_NAEA_J@Z 0000000180055950 f i libucrtd:output.obj
 0001:00054b10       ??$extract_argument_from_va_list@F_J@?$standard_base@DV?$stream_output_adapter@D@__crt_stdio_output@@@__crt_stdio_output@@IEAA_NAEA_J@Z 0000000180055b10 f i libucrtd:output.obj
 0001:00054b50       ??$extract_argument_from_va_list@F_J@?$standard_base@DV?$string_output_adapter@D@__crt_stdio_output@@@__crt_stdio_output@@IEAA_NAEA_J@Z 0000000180055b50 f i libucrtd:output.obj
 0001:00054b90       ??$extract_argument_from_va_list@F_J@?$standard_base@_WV?$stream_output_adapter@_W@__crt_stdio_output@@@__crt_stdio_output@@IEAA_NAEA_J@Z 0000000180055b90 f i libucrtd:output.obj
 0001:00054bd0       ??$extract_argument_from_va_list@F_J@?$standard_base@_WV?$string_output_adapter@_W@__crt_stdio_output@@@__crt_stdio_output@@IEAA_NAEA_J@Z 0000000180055bd0 f i libucrtd:output.obj
 0001:00054c10       ??$extract_argument_from_va_list@GD@?$positional_parameter_base@DV?$stream_output_adapter@D@__crt_stdio_output@@@__crt_stdio_output@@IEAA_NAEAD@Z 0000000180055c10 f i libucrtd:output.obj
 0001:00054dd0       ??$extract_argument_from_va_list@GD@?$positional_parameter_base@DV?$string_output_adapter@D@__crt_stdio_output@@@__crt_stdio_output@@IEAA_NAEAD@Z 0000000180055dd0 f i libucrtd:output.obj
 0001:00054f90       ??$extract_argument_from_va_list@GD@?$standard_base@DV?$stream_output_adapter@D@__crt_stdio_output@@@__crt_stdio_output@@IEAA_NAEAD@Z 0000000180055f90 f i libucrtd:output.obj
 0001:00054fc0       ??$extract_argument_from_va_list@GD@?$standard_base@DV?$string_output_adapter@D@__crt_stdio_output@@@__crt_stdio_output@@IEAA_NAEAD@Z 0000000180055fc0 f i libucrtd:output.obj
 0001:00054ff0       ??$extract_argument_from_va_list@G_J@?$positional_parameter_base@DV?$stream_output_adapter@D@__crt_stdio_output@@@__crt_stdio_output@@IEAA_NAEA_J@Z 0000000180055ff0 f i libucrtd:output.obj
 0001:000551b0       ??$extract_argument_from_va_list@G_J@?$positional_parameter_base@DV?$string_output_adapter@D@__crt_stdio_output@@@__crt_stdio_output@@IEAA_NAEA_J@Z 00000001800561b0 f i libucrtd:output.obj
 0001:00055370       ??$extract_argument_from_va_list@G_J@?$positional_parameter_base@_WV?$stream_output_adapter@_W@__crt_stdio_output@@@__crt_stdio_output@@IEAA_NAEA_J@Z 0000000180056370 f i libucrtd:output.obj
 0001:00055530       ??$extract_argument_from_va_list@G_J@?$positional_parameter_base@_WV?$string_output_adapter@_W@__crt_stdio_output@@@__crt_stdio_output@@IEAA_NAEA_J@Z 0000000180056530 f i libucrtd:output.obj
 0001:000556f0       ??$extract_argument_from_va_list@G_J@?$standard_base@DV?$stream_output_adapter@D@__crt_stdio_output@@@__crt_stdio_output@@IEAA_NAEA_J@Z 00000001800566f0 f i libucrtd:output.obj
 0001:00055730       ??$extract_argument_from_va_list@G_J@?$standard_base@DV?$string_output_adapter@D@__crt_stdio_output@@@__crt_stdio_output@@IEAA_NAEA_J@Z 0000000180056730 f i libucrtd:output.obj
 0001:00055770       ??$extract_argument_from_va_list@G_J@?$standard_base@_WV?$stream_output_adapter@_W@__crt_stdio_output@@@__crt_stdio_output@@IEAA_NAEA_J@Z 0000000180056770 f i libucrtd:output.obj
 0001:000557b0       ??$extract_argument_from_va_list@G_J@?$standard_base@_WV?$string_output_adapter@_W@__crt_stdio_output@@@__crt_stdio_output@@IEAA_NAEA_J@Z 00000001800567b0 f i libucrtd:output.obj
 0001:000557f0       ??$extract_argument_from_va_list@H_J@?$positional_parameter_base@DV?$stream_output_adapter@D@__crt_stdio_output@@@__crt_stdio_output@@IEAA_NAEA_J@Z 00000001800567f0 f i libucrtd:output.obj
 0001:000559b0       ??$extract_argument_from_va_list@H_J@?$positional_parameter_base@DV?$string_output_adapter@D@__crt_stdio_output@@@__crt_stdio_output@@IEAA_NAEA_J@Z 00000001800569b0 f i libucrtd:output.obj
 0001:00055b70       ??$extract_argument_from_va_list@H_J@?$positional_parameter_base@_WV?$stream_output_adapter@_W@__crt_stdio_output@@@__crt_stdio_output@@IEAA_NAEA_J@Z 0000000180056b70 f i libucrtd:output.obj
 0001:00055d30       ??$extract_argument_from_va_list@H_J@?$positional_parameter_base@_WV?$string_output_adapter@_W@__crt_stdio_output@@@__crt_stdio_output@@IEAA_NAEA_J@Z 0000000180056d30 f i libucrtd:output.obj
 0001:00055ef0       ??$extract_argument_from_va_list@H_J@?$standard_base@DV?$stream_output_adapter@D@__crt_stdio_output@@@__crt_stdio_output@@IEAA_NAEA_J@Z 0000000180056ef0 f i libucrtd:output.obj
 0001:00055f20       ??$extract_argument_from_va_list@H_J@?$standard_base@DV?$string_output_adapter@D@__crt_stdio_output@@@__crt_stdio_output@@IEAA_NAEA_J@Z 0000000180056f20 f i libucrtd:output.obj
 0001:00055f50       ??$extract_argument_from_va_list@H_J@?$standard_base@_WV?$stream_output_adapter@_W@__crt_stdio_output@@@__crt_stdio_output@@IEAA_NAEA_J@Z 0000000180056f50 f i libucrtd:output.obj
 0001:00055f80       ??$extract_argument_from_va_list@H_J@?$standard_base@_WV?$string_output_adapter@_W@__crt_stdio_output@@@__crt_stdio_output@@IEAA_NAEA_J@Z 0000000180056f80 f i libucrtd:output.obj
 0001:00055fb0       ??$extract_argument_from_va_list@I_J@?$positional_parameter_base@DV?$stream_output_adapter@D@__crt_stdio_output@@@__crt_stdio_output@@IEAA_NAEA_J@Z 0000000180056fb0 f i libucrtd:output.obj
 0001:00056170       ??$extract_argument_from_va_list@I_J@?$positional_parameter_base@DV?$string_output_adapter@D@__crt_stdio_output@@@__crt_stdio_output@@IEAA_NAEA_J@Z 0000000180057170 f i libucrtd:output.obj
 0001:00056330       ??$extract_argument_from_va_list@I_J@?$positional_parameter_base@_WV?$stream_output_adapter@_W@__crt_stdio_output@@@__crt_stdio_output@@IEAA_NAEA_J@Z 0000000180057330 f i libucrtd:output.obj
 0001:000564f0       ??$extract_argument_from_va_list@I_J@?$positional_parameter_base@_WV?$string_output_adapter@_W@__crt_stdio_output@@@__crt_stdio_output@@IEAA_NAEA_J@Z 00000001800574f0 f i libucrtd:output.obj
 0001:000566b0       ??$extract_argument_from_va_list@I_J@?$standard_base@DV?$stream_output_adapter@D@__crt_stdio_output@@@__crt_stdio_output@@IEAA_NAEA_J@Z 00000001800576b0 f i libucrtd:output.obj
 0001:000566e0       ??$extract_argument_from_va_list@I_J@?$standard_base@DV?$string_output_adapter@D@__crt_stdio_output@@@__crt_stdio_output@@IEAA_NAEA_J@Z 00000001800576e0 f i libucrtd:output.obj
 0001:00056710       ??$extract_argument_from_va_list@I_J@?$standard_base@_WV?$stream_output_adapter@_W@__crt_stdio_output@@@__crt_stdio_output@@IEAA_NAEA_J@Z 0000000180057710 f i libucrtd:output.obj
 0001:00056740       ??$extract_argument_from_va_list@I_J@?$standard_base@_WV?$string_output_adapter@_W@__crt_stdio_output@@@__crt_stdio_output@@IEAA_NAEA_J@Z 0000000180057740 f i libucrtd:output.obj
 0001:00056770       ??$extract_argument_from_va_list@PEADPEAD@?$positional_parameter_base@DV?$stream_output_adapter@D@__crt_stdio_output@@@__crt_stdio_output@@IEAA_NAEAPEAD@Z 0000000180057770 f i libucrtd:output.obj
 0001:00056930       ??$extract_argument_from_va_list@PEADPEAD@?$positional_parameter_base@DV?$string_output_adapter@D@__crt_stdio_output@@@__crt_stdio_output@@IEAA_NAEAPEAD@Z 0000000180057930 f i libucrtd:output.obj
 0001:00056af0       ??$extract_argument_from_va_list@PEADPEAD@?$positional_parameter_base@_WV?$stream_output_adapter@_W@__crt_stdio_output@@@__crt_stdio_output@@IEAA_NAEAPEAD@Z 0000000180057af0 f i libucrtd:output.obj
 0001:00056cb0       ??$extract_argument_from_va_list@PEADPEAD@?$positional_parameter_base@_WV?$string_output_adapter@_W@__crt_stdio_output@@@__crt_stdio_output@@IEAA_NAEAPEAD@Z 0000000180057cb0 f i libucrtd:output.obj
 0001:00056e70       ??$extract_argument_from_va_list@PEADPEAD@?$standard_base@DV?$stream_output_adapter@D@__crt_stdio_output@@@__crt_stdio_output@@IEAA_NAEAPEAD@Z 0000000180057e70 f i libucrtd:output.obj
 0001:00056ea0       ??$extract_argument_from_va_list@PEADPEAD@?$standard_base@DV?$string_output_adapter@D@__crt_stdio_output@@@__crt_stdio_output@@IEAA_NAEAPEAD@Z 0000000180057ea0 f i libucrtd:output.obj
 0001:00056ed0       ??$extract_argument_from_va_list@PEADPEAD@?$standard_base@_WV?$stream_output_adapter@_W@__crt_stdio_output@@@__crt_stdio_output@@IEAA_NAEAPEAD@Z 0000000180057ed0 f i libucrtd:output.obj
 0001:00056f00       ??$extract_argument_from_va_list@PEADPEAD@?$standard_base@_WV?$string_output_adapter@_W@__crt_stdio_output@@@__crt_stdio_output@@IEAA_NAEAPEAD@Z 0000000180057f00 f i libucrtd:output.obj
 0001:00056f30       ??$extract_argument_from_va_list@PEAUansi_string@?1??type_case_Z@?$output_processor@DV?$stream_output_adapter@D@__crt_stdio_output@@V?$format_validation_base@DV?$stream_output_adapter@D@__crt_stdio_output@@@2@@__crt_stdio_output@@AEAA_NXZ@PEAU1?1??234@AEAA_NXZ@@?$standard_base@DV?$stream_output_adapter@D@__crt_stdio_output@@@__crt_stdio_output@@IEAA_NAEAPEAUansi_string@?1??type_case_Z@?$output_processor@DV?$stream_output_adapter@D@__crt_stdio_output@@V?$format_validation_base@DV?$stream_output_adapter@D@__crt_stdio_output@@@2@@1@AEAA_NXZ@@Z 0000000180057f30 f i libucrtd:output.obj
 0001:00056f60       ??$extract_argument_from_va_list@PEAUansi_string@?1??type_case_Z@?$output_processor@DV?$stream_output_adapter@D@__crt_stdio_output@@V?$positional_parameter_base@DV?$stream_output_adapter@D@__crt_stdio_output@@@2@@__crt_stdio_output@@AEAA_NXZ@PEAU1?1??234@AEAA_NXZ@@?$positional_parameter_base@DV?$stream_output_adapter@D@__crt_stdio_output@@@__crt_stdio_output@@IEAA_NAEAPEAUansi_string@?1??type_case_Z@?$output_processor@DV?$stream_output_adapter@D@__crt_stdio_output@@V?$positional_parameter_base@DV?$stream_output_adapter@D@__crt_stdio_output@@@2@@1@AEAA_NXZ@@Z 0000000180057f60 f i libucrtd:output.obj
 0001:00057120       ??$extract_argument_from_va_list@PEAUansi_string@?1??type_case_Z@?$output_processor@DV?$stream_output_adapter@D@__crt_stdio_output@@V?$positional_parameter_base@DV?$stream_output_adapter@D@__crt_stdio_output@@@2@@__crt_stdio_output@@AEAA_NXZ@PEAU1?1??234@AEAA_NXZ@@?$standard_base@DV?$stream_output_adapter@D@__crt_stdio_output@@@__crt_stdio_output@@IEAA_NAEAPEAUansi_string@?1??type_case_Z@?$output_processor@DV?$stream_output_adapter@D@__crt_stdio_output@@V?$positional_parameter_base@DV?$stream_output_adapter@D@__crt_stdio_output@@@2@@1@AEAA_NXZ@@Z 0000000180058120 f i libucrtd:output.obj
 0001:00057150       ??$extract_argument_from_va_list@PEAUansi_string@?1??type_case_Z@?$output_processor@DV?$stream_output_adapter@D@__crt_stdio_output@@V?$standard_base@DV?$stream_output_adapter@D@__crt_stdio_output@@@2@@__crt_stdio_output@@AEAA_NXZ@PEAU1?1??234@AEAA_NXZ@@?$standard_base@DV?$stream_output_adapter@D@__crt_stdio_output@@@__crt_stdio_output@@IEAA_NAEAPEAUansi_string@?1??type_case_Z@?$output_processor@DV?$stream_output_adapter@D@__crt_stdio_output@@V?$standard_base@DV?$stream_output_adapter@D@__crt_stdio_output@@@2@@1@AEAA_NXZ@@Z 0000000180058150 f i libucrtd:output.obj
 0001:00057180       ??$extract_argument_from_va_list@PEAUansi_string@?1??type_case_Z@?$output_processor@DV?$string_output_adapter@D@__crt_stdio_output@@V?$format_validation_base@DV?$string_output_adapter@D@__crt_stdio_output@@@2@@__crt_stdio_output@@AEAA_NXZ@PEAU1?1??234@AEAA_NXZ@@?$standard_base@DV?$string_output_adapter@D@__crt_stdio_output@@@__crt_stdio_output@@IEAA_NAEAPEAUansi_string@?1??type_case_Z@?$output_processor@DV?$string_output_adapter@D@__crt_stdio_output@@V?$format_validation_base@DV?$string_output_adapter@D@__crt_stdio_output@@@2@@1@AEAA_NXZ@@Z 0000000180058180 f i libucrtd:output.obj
 0001:000571b0       ??$extract_argument_from_va_list@PEAUansi_string@?1??type_case_Z@?$output_processor@DV?$string_output_adapter@D@__crt_stdio_output@@V?$positional_parameter_base@DV?$string_output_adapter@D@__crt_stdio_output@@@2@@__crt_stdio_output@@AEAA_NXZ@PEAU1?1??234@AEAA_NXZ@@?$positional_parameter_base@DV?$string_output_adapter@D@__crt_stdio_output@@@__crt_stdio_output@@IEAA_NAEAPEAUansi_string@?1??type_case_Z@?$output_processor@DV?$string_output_adapter@D@__crt_stdio_output@@V?$positional_parameter_base@DV?$string_output_adapter@D@__crt_stdio_output@@@2@@1@AEAA_NXZ@@Z 00000001800581b0 f i libucrtd:output.obj
 0001:00057370       ??$extract_argument_from_va_list@PEAUansi_string@?1??type_case_Z@?$output_processor@DV?$string_output_adapter@D@__crt_stdio_output@@V?$positional_parameter_base@DV?$string_output_adapter@D@__crt_stdio_output@@@2@@__crt_stdio_output@@AEAA_NXZ@PEAU1?1??234@AEAA_NXZ@@?$standard_base@DV?$string_output_adapter@D@__crt_stdio_output@@@__crt_stdio_output@@IEAA_NAEAPEAUansi_string@?1??type_case_Z@?$output_processor@DV?$string_output_adapter@D@__crt_stdio_output@@V?$positional_parameter_base@DV?$string_output_adapter@D@__crt_stdio_output@@@2@@1@AEAA_NXZ@@Z 0000000180058370 f i libucrtd:output.obj
 0001:000573a0       ??$extract_argument_from_va_list@PEAUansi_string@?1??type_case_Z@?$output_processor@DV?$string_output_adapter@D@__crt_stdio_output@@V?$standard_base@DV?$string_output_adapter@D@__crt_stdio_output@@@2@@__crt_stdio_output@@AEAA_NXZ@PEAU1?1??234@AEAA_NXZ@@?$standard_base@DV?$string_output_adapter@D@__crt_stdio_output@@@__crt_stdio_output@@IEAA_NAEAPEAUansi_string@?1??type_case_Z@?$output_processor@DV?$string_output_adapter@D@__crt_stdio_output@@V?$standard_base@DV?$string_output_adapter@D@__crt_stdio_output@@@2@@1@AEAA_NXZ@@Z 00000001800583a0 f i libucrtd:output.obj
 0001:000573d0       ??$extract_argument_from_va_list@PEAUansi_string@?1??type_case_Z@?$output_processor@_WV?$stream_output_adapter@_W@__crt_stdio_output@@V?$format_validation_base@_WV?$stream_output_adapter@_W@__crt_stdio_output@@@2@@__crt_stdio_output@@AEAA_NXZ@PEAU1?1??234@AEAA_NXZ@@?$standard_base@_WV?$stream_output_adapter@_W@__crt_stdio_output@@@__crt_stdio_output@@IEAA_NAEAPEAUansi_string@?1??type_case_Z@?$output_processor@_WV?$stream_output_adapter@_W@__crt_stdio_output@@V?$format_validation_base@_WV?$stream_output_adapter@_W@__crt_stdio_output@@@2@@1@AEAA_NXZ@@Z 00000001800583d0 f i libucrtd:output.obj
 0001:00057400       ??$extract_argument_from_va_list@PEAUansi_string@?1??type_case_Z@?$output_processor@_WV?$stream_output_adapter@_W@__crt_stdio_output@@V?$positional_parameter_base@_WV?$stream_output_adapter@_W@__crt_stdio_output@@@2@@__crt_stdio_output@@AEAA_NXZ@PEAU1?1??234@AEAA_NXZ@@?$positional_parameter_base@_WV?$stream_output_adapter@_W@__crt_stdio_output@@@__crt_stdio_output@@IEAA_NAEAPEAUansi_string@?1??type_case_Z@?$output_processor@_WV?$stream_output_adapter@_W@__crt_stdio_output@@V?$positional_parameter_base@_WV?$stream_output_adapter@_W@__crt_stdio_output@@@2@@1@AEAA_NXZ@@Z 0000000180058400 f i libucrtd:output.obj
 0001:000575c0       ??$extract_argument_from_va_list@PEAUansi_string@?1??type_case_Z@?$output_processor@_WV?$stream_output_adapter@_W@__crt_stdio_output@@V?$positional_parameter_base@_WV?$stream_output_adapter@_W@__crt_stdio_output@@@2@@__crt_stdio_output@@AEAA_NXZ@PEAU1?1??234@AEAA_NXZ@@?$standard_base@_WV?$stream_output_adapter@_W@__crt_stdio_output@@@__crt_stdio_output@@IEAA_NAEAPEAUansi_string@?1??type_case_Z@?$output_processor@_WV?$stream_output_adapter@_W@__crt_stdio_output@@V?$positional_parameter_base@_WV?$stream_output_adapter@_W@__crt_stdio_output@@@2@@1@AEAA_NXZ@@Z 00000001800585c0 f i libucrtd:output.obj
 0001:000575f0       ??$extract_argument_from_va_list@PEAUansi_string@?1??type_case_Z@?$output_processor@_WV?$stream_output_adapter@_W@__crt_stdio_output@@V?$standard_base@_WV?$stream_output_adapter@_W@__crt_stdio_output@@@2@@__crt_stdio_output@@AEAA_NXZ@PEAU1?1??234@AEAA_NXZ@@?$standard_base@_WV?$stream_output_adapter@_W@__crt_stdio_output@@@__crt_stdio_output@@IEAA_NAEAPEAUansi_string@?1??type_case_Z@?$output_processor@_WV?$stream_output_adapter@_W@__crt_stdio_output@@V?$standard_base@_WV?$stream_output_adapter@_W@__crt_stdio_output@@@2@@1@AEAA_NXZ@@Z 00000001800585f0 f i libucrtd:output.obj
 0001:00057620       ??$extract_argument_from_va_list@PEAUansi_string@?1??type_case_Z@?$output_processor@_WV?$string_output_adapter@_W@__crt_stdio_output@@V?$format_validation_base@_WV?$string_output_adapter@_W@__crt_stdio_output@@@2@@__crt_stdio_output@@AEAA_NXZ@PEAU1?1??234@AEAA_NXZ@@?$standard_base@_WV?$string_output_adapter@_W@__crt_stdio_output@@@__crt_stdio_output@@IEAA_NAEAPEAUansi_string@?1??type_case_Z@?$output_processor@_WV?$string_output_adapter@_W@__crt_stdio_output@@V?$format_validation_base@_WV?$string_output_adapter@_W@__crt_stdio_output@@@2@@1@AEAA_NXZ@@Z 0000000180058620 f i libucrtd:output.obj
 0001:00057650       ??$extract_argument_from_va_list@PEAUansi_string@?1??type_case_Z@?$output_processor@_WV?$string_output_adapter@_W@__crt_stdio_output@@V?$positional_parameter_base@_WV?$string_output_adapter@_W@__crt_stdio_output@@@2@@__crt_stdio_output@@AEAA_NXZ@PEAU1?1??234@AEAA_NXZ@@?$positional_parameter_base@_WV?$string_output_adapter@_W@__crt_stdio_output@@@__crt_stdio_output@@IEAA_NAEAPEAUansi_string@?1??type_case_Z@?$output_processor@_WV?$string_output_adapter@_W@__crt_stdio_output@@V?$positional_parameter_base@_WV?$string_output_adapter@_W@__crt_stdio_output@@@2@@1@AEAA_NXZ@@Z 0000000180058650 f i libucrtd:output.obj
 0001:00057810       ??$extract_argument_from_va_list@PEAUansi_string@?1??type_case_Z@?$output_processor@_WV?$string_output_adapter@_W@__crt_stdio_output@@V?$positional_parameter_base@_WV?$string_output_adapter@_W@__crt_stdio_output@@@2@@__crt_stdio_output@@AEAA_NXZ@PEAU1?1??234@AEAA_NXZ@@?$standard_base@_WV?$string_output_adapter@_W@__crt_stdio_output@@@__crt_stdio_output@@IEAA_NAEAPEAUansi_string@?1??type_case_Z@?$output_processor@_WV?$string_output_adapter@_W@__crt_stdio_output@@V?$positional_parameter_base@_WV?$string_output_adapter@_W@__crt_stdio_output@@@2@@1@AEAA_NXZ@@Z 0000000180058810 f i libucrtd:output.obj
 0001:00057840       ??$extract_argument_from_va_list@PEAUansi_string@?1??type_case_Z@?$output_processor@_WV?$string_output_adapter@_W@__crt_stdio_output@@V?$standard_base@_WV?$string_output_adapter@_W@__crt_stdio_output@@@2@@__crt_stdio_output@@AEAA_NXZ@PEAU1?1??234@AEAA_NXZ@@?$standard_base@_WV?$string_output_adapter@_W@__crt_stdio_output@@@__crt_stdio_output@@IEAA_NAEAPEAUansi_string@?1??type_case_Z@?$output_processor@_WV?$string_output_adapter@_W@__crt_stdio_output@@V?$standard_base@_WV?$string_output_adapter@_W@__crt_stdio_output@@@2@@1@AEAA_NXZ@@Z 0000000180058840 f i libucrtd:output.obj
 0001:00057870       ??$extract_argument_from_va_list@PEAXPEAX@?$positional_parameter_base@DV?$stream_output_adapter@D@__crt_stdio_output@@@__crt_stdio_output@@IEAA_NAEAPEAX@Z 0000000180058870 f i libucrtd:output.obj
 0001:00057a30       ??$extract_argument_from_va_list@PEAXPEAX@?$positional_parameter_base@DV?$string_output_adapter@D@__crt_stdio_output@@@__crt_stdio_output@@IEAA_NAEAPEAX@Z 0000000180058a30 f i libucrtd:output.obj
 0001:00057bf0       ??$extract_argument_from_va_list@PEAXPEAX@?$positional_parameter_base@_WV?$stream_output_adapter@_W@__crt_stdio_output@@@__crt_stdio_output@@IEAA_NAEAPEAX@Z 0000000180058bf0 f i libucrtd:output.obj
 0001:00057db0       ??$extract_argument_from_va_list@PEAXPEAX@?$positional_parameter_base@_WV?$string_output_adapter@_W@__crt_stdio_output@@@__crt_stdio_output@@IEAA_NAEAPEAX@Z 0000000180058db0 f i libucrtd:output.obj
 0001:00057f70       ??$extract_argument_from_va_list@PEAXPEAX@?$standard_base@DV?$stream_output_adapter@D@__crt_stdio_output@@@__crt_stdio_output@@IEAA_NAEAPEAX@Z 0000000180058f70 f i libucrtd:output.obj
 0001:00057fa0       ??$extract_argument_from_va_list@PEAXPEAX@?$standard_base@DV?$string_output_adapter@D@__crt_stdio_output@@@__crt_stdio_output@@IEAA_NAEAPEAX@Z 0000000180058fa0 f i libucrtd:output.obj
 0001:00057fd0       ??$extract_argument_from_va_list@PEAXPEAX@?$standard_base@_WV?$stream_output_adapter@_W@__crt_stdio_output@@@__crt_stdio_output@@IEAA_NAEAPEAX@Z 0000000180058fd0 f i libucrtd:output.obj
 0001:00058000       ??$extract_argument_from_va_list@PEAXPEAX@?$standard_base@_WV?$string_output_adapter@_W@__crt_stdio_output@@@__crt_stdio_output@@IEAA_NAEAPEAX@Z 0000000180059000 f i libucrtd:output.obj
 0001:00058030       ??$extract_argument_from_va_list@U_CRT_DOUBLE@@U1@@?$positional_parameter_base@DV?$stream_output_adapter@D@__crt_stdio_output@@@__crt_stdio_output@@IEAA_NAEAU_CRT_DOUBLE@@@Z 0000000180059030 f i libucrtd:output.obj
 0001:00058250       ??$extract_argument_from_va_list@U_CRT_DOUBLE@@U1@@?$positional_parameter_base@DV?$string_output_adapter@D@__crt_stdio_output@@@__crt_stdio_output@@IEAA_NAEAU_CRT_DOUBLE@@@Z 0000000180059250 f i libucrtd:output.obj
 0001:00058470       ??$extract_argument_from_va_list@U_CRT_DOUBLE@@U1@@?$positional_parameter_base@_WV?$stream_output_adapter@_W@__crt_stdio_output@@@__crt_stdio_output@@IEAA_NAEAU_CRT_DOUBLE@@@Z 0000000180059470 f i libucrtd:output.obj
 0001:00058690       ??$extract_argument_from_va_list@U_CRT_DOUBLE@@U1@@?$positional_parameter_base@_WV?$string_output_adapter@_W@__crt_stdio_output@@@__crt_stdio_output@@IEAA_NAEAU_CRT_DOUBLE@@@Z 0000000180059690 f i libucrtd:output.obj
 0001:000588b0       ??$extract_argument_from_va_list@U_CRT_DOUBLE@@U1@@?$standard_base@DV?$stream_output_adapter@D@__crt_stdio_output@@@__crt_stdio_output@@IEAA_NAEAU_CRT_DOUBLE@@@Z 00000001800598b0 f i libucrtd:output.obj
 0001:00058900       ??$extract_argument_from_va_list@U_CRT_DOUBLE@@U1@@?$standard_base@DV?$string_output_adapter@D@__crt_stdio_output@@@__crt_stdio_output@@IEAA_NAEAU_CRT_DOUBLE@@@Z 0000000180059900 f i libucrtd:output.obj
 0001:00058950       ??$extract_argument_from_va_list@U_CRT_DOUBLE@@U1@@?$standard_base@_WV?$stream_output_adapter@_W@__crt_stdio_output@@@__crt_stdio_output@@IEAA_NAEAU_CRT_DOUBLE@@@Z 0000000180059950 f i libucrtd:output.obj
 0001:000589a0       ??$extract_argument_from_va_list@U_CRT_DOUBLE@@U1@@?$standard_base@_WV?$string_output_adapter@_W@__crt_stdio_output@@@__crt_stdio_output@@IEAA_NAEAU_CRT_DOUBLE@@@Z 00000001800599a0 f i libucrtd:output.obj
 0001:000589f0       ??$extract_argument_from_va_list@_J_J@?$positional_parameter_base@DV?$stream_output_adapter@D@__crt_stdio_output@@@__crt_stdio_output@@IEAA_NAEA_J@Z 00000001800599f0 f i libucrtd:output.obj
 0001:00058bb0       ??$extract_argument_from_va_list@_J_J@?$positional_parameter_base@DV?$string_output_adapter@D@__crt_stdio_output@@@__crt_stdio_output@@IEAA_NAEA_J@Z 0000000180059bb0 f i libucrtd:output.obj
 0001:00058d70       ??$extract_argument_from_va_list@_J_J@?$positional_parameter_base@_WV?$stream_output_adapter@_W@__crt_stdio_output@@@__crt_stdio_output@@IEAA_NAEA_J@Z 0000000180059d70 f i libucrtd:output.obj
 0001:00058f30       ??$extract_argument_from_va_list@_J_J@?$positional_parameter_base@_WV?$string_output_adapter@_W@__crt_stdio_output@@@__crt_stdio_output@@IEAA_NAEA_J@Z 0000000180059f30 f i libucrtd:output.obj
 0001:000590f0       ??$extract_argument_from_va_list@_J_J@?$standard_base@DV?$stream_output_adapter@D@__crt_stdio_output@@@__crt_stdio_output@@IEAA_NAEA_J@Z 000000018005a0f0 f i libucrtd:output.obj
 0001:00059120       ??$extract_argument_from_va_list@_J_J@?$standard_base@DV?$string_output_adapter@D@__crt_stdio_output@@@__crt_stdio_output@@IEAA_NAEA_J@Z 000000018005a120 f i libucrtd:output.obj
 0001:00059150       ??$extract_argument_from_va_list@_J_J@?$standard_base@_WV?$stream_output_adapter@_W@__crt_stdio_output@@@__crt_stdio_output@@IEAA_NAEA_J@Z 000000018005a150 f i libucrtd:output.obj
 0001:00059180       ??$extract_argument_from_va_list@_J_J@?$standard_base@_WV?$string_output_adapter@_W@__crt_stdio_output@@@__crt_stdio_output@@IEAA_NAEA_J@Z 000000018005a180 f i libucrtd:output.obj
 0001:000591b0       ??$extract_argument_from_va_list@_K_J@?$positional_parameter_base@DV?$stream_output_adapter@D@__crt_stdio_output@@@__crt_stdio_output@@IEAA_NAEA_J@Z 000000018005a1b0 f i libucrtd:output.obj
 0001:00059370       ??$extract_argument_from_va_list@_K_J@?$positional_parameter_base@DV?$string_output_adapter@D@__crt_stdio_output@@@__crt_stdio_output@@IEAA_NAEA_J@Z 000000018005a370 f i libucrtd:output.obj
 0001:00059530       ??$extract_argument_from_va_list@_K_J@?$positional_parameter_base@_WV?$stream_output_adapter@_W@__crt_stdio_output@@@__crt_stdio_output@@IEAA_NAEA_J@Z 000000018005a530 f i libucrtd:output.obj
 0001:000596f0       ??$extract_argument_from_va_list@_K_J@?$positional_parameter_base@_WV?$string_output_adapter@_W@__crt_stdio_output@@@__crt_stdio_output@@IEAA_NAEA_J@Z 000000018005a6f0 f i libucrtd:output.obj
 0001:000598b0       ??$extract_argument_from_va_list@_K_J@?$standard_base@DV?$stream_output_adapter@D@__crt_stdio_output@@@__crt_stdio_output@@IEAA_NAEA_J@Z 000000018005a8b0 f i libucrtd:output.obj
 0001:000598e0       ??$extract_argument_from_va_list@_K_J@?$standard_base@DV?$string_output_adapter@D@__crt_stdio_output@@@__crt_stdio_output@@IEAA_NAEA_J@Z 000000018005a8e0 f i libucrtd:output.obj
 0001:00059910       ??$extract_argument_from_va_list@_K_J@?$standard_base@_WV?$stream_output_adapter@_W@__crt_stdio_output@@@__crt_stdio_output@@IEAA_NAEA_J@Z 000000018005a910 f i libucrtd:output.obj
 0001:00059940       ??$extract_argument_from_va_list@_K_J@?$standard_base@_WV?$string_output_adapter@_W@__crt_stdio_output@@@__crt_stdio_output@@IEAA_NAEA_J@Z 000000018005a940 f i libucrtd:output.obj
 0001:00059970       ??$extract_argument_from_va_list@_W_W@?$positional_parameter_base@DV?$stream_output_adapter@D@__crt_stdio_output@@@__crt_stdio_output@@IEAA_NAEA_W@Z 000000018005a970 f i libucrtd:output.obj
 0001:00059b30       ??$extract_argument_from_va_list@_W_W@?$positional_parameter_base@DV?$string_output_adapter@D@__crt_stdio_output@@@__crt_stdio_output@@IEAA_NAEA_W@Z 000000018005ab30 f i libucrtd:output.obj
 0001:00059cf0       ??$extract_argument_from_va_list@_W_W@?$positional_parameter_base@_WV?$stream_output_adapter@_W@__crt_stdio_output@@@__crt_stdio_output@@IEAA_NAEA_W@Z 000000018005acf0 f i libucrtd:output.obj
 0001:00059eb0       ??$extract_argument_from_va_list@_W_W@?$positional_parameter_base@_WV?$string_output_adapter@_W@__crt_stdio_output@@@__crt_stdio_output@@IEAA_NAEA_W@Z 000000018005aeb0 f i libucrtd:output.obj
 0001:0005a070       ??$extract_argument_from_va_list@_W_W@?$standard_base@DV?$stream_output_adapter@D@__crt_stdio_output@@@__crt_stdio_output@@IEAA_NAEA_W@Z 000000018005b070 f i libucrtd:output.obj
 0001:0005a0a0       ??$extract_argument_from_va_list@_W_W@?$standard_base@DV?$string_output_adapter@D@__crt_stdio_output@@@__crt_stdio_output@@IEAA_NAEA_W@Z 000000018005b0a0 f i libucrtd:output.obj
 0001:0005a0d0       ??$extract_argument_from_va_list@_W_W@?$standard_base@_WV?$stream_output_adapter@_W@__crt_stdio_output@@@__crt_stdio_output@@IEAA_NAEA_W@Z 000000018005b0d0 f i libucrtd:output.obj
 0001:0005a100       ??$extract_argument_from_va_list@_W_W@?$standard_base@_WV?$string_output_adapter@_W@__crt_stdio_output@@@__crt_stdio_output@@IEAA_NAEA_W@Z 000000018005b100 f i libucrtd:output.obj
 0001:0005a130       ??$get_parameter_type@D@?$positional_parameter_base@DV?$stream_output_adapter@D@__crt_stdio_output@@@__crt_stdio_output@@CA?AW4parameter_type@01@PEAD@Z 000000018005b130 f i libucrtd:output.obj
 0001:0005a140       ??$get_parameter_type@D@?$positional_parameter_base@DV?$string_output_adapter@D@__crt_stdio_output@@@__crt_stdio_output@@CA?AW4parameter_type@01@PEAD@Z 000000018005b140 f i libucrtd:output.obj
 0001:0005a150       ??$get_parameter_type@D@?$positional_parameter_base@_WV?$stream_output_adapter@_W@__crt_stdio_output@@@__crt_stdio_output@@CA?AW4parameter_type@01@PEAD@Z 000000018005b150 f i libucrtd:output.obj
 0001:0005a160       ??$get_parameter_type@D@?$positional_parameter_base@_WV?$string_output_adapter@_W@__crt_stdio_output@@@__crt_stdio_output@@CA?AW4parameter_type@01@PEAD@Z 000000018005b160 f i libucrtd:output.obj
 0001:0005a170       ??$get_parameter_type@Uansi_string@?1??type_case_Z@?$output_processor@DV?$stream_output_adapter@D@__crt_stdio_output@@V?$positional_parameter_base@DV?$stream_output_adapter@D@__crt_stdio_output@@@2@@__crt_stdio_output@@AEAA_NXZ@@?$positional_parameter_base@DV?$stream_output_adapter@D@__crt_stdio_output@@@__crt_stdio_output@@CA?AW4parameter_type@01@PEAUansi_string@?1??type_case_Z@?$output_processor@DV?$stream_output_adapter@D@__crt_stdio_output@@V?$positional_parameter_base@DV?$stream_output_adapter@D@__crt_stdio_output@@@2@@1@AEAA_NXZ@@Z 000000018005b170 f i libucrtd:output.obj
 0001:0005a180       ??$get_parameter_type@Uansi_string@?1??type_case_Z@?$output_processor@DV?$string_output_adapter@D@__crt_stdio_output@@V?$positional_parameter_base@DV?$string_output_adapter@D@__crt_stdio_output@@@2@@__crt_stdio_output@@AEAA_NXZ@@?$positional_parameter_base@DV?$string_output_adapter@D@__crt_stdio_output@@@__crt_stdio_output@@CA?AW4parameter_type@01@PEAUansi_string@?1??type_case_Z@?$output_processor@DV?$string_output_adapter@D@__crt_stdio_output@@V?$positional_parameter_base@DV?$string_output_adapter@D@__crt_stdio_output@@@2@@1@AEAA_NXZ@@Z 000000018005b180 f i libucrtd:output.obj
 0001:0005a190       ??$get_parameter_type@Uansi_string@?1??type_case_Z@?$output_processor@_WV?$stream_output_adapter@_W@__crt_stdio_output@@V?$positional_parameter_base@_WV?$stream_output_adapter@_W@__crt_stdio_output@@@2@@__crt_stdio_output@@AEAA_NXZ@@?$positional_parameter_base@_WV?$stream_output_adapter@_W@__crt_stdio_output@@@__crt_stdio_output@@CA?AW4parameter_type@01@PEAUansi_string@?1??type_case_Z@?$output_processor@_WV?$stream_output_adapter@_W@__crt_stdio_output@@V?$positional_parameter_base@_WV?$stream_output_adapter@_W@__crt_stdio_output@@@2@@1@AEAA_NXZ@@Z 000000018005b190 f i libucrtd:output.obj
 0001:0005a1a0       ??$get_parameter_type@Uansi_string@?1??type_case_Z@?$output_processor@_WV?$string_output_adapter@_W@__crt_stdio_output@@V?$positional_parameter_base@_WV?$string_output_adapter@_W@__crt_stdio_output@@@2@@__crt_stdio_output@@AEAA_NXZ@@?$positional_parameter_base@_WV?$string_output_adapter@_W@__crt_stdio_output@@@__crt_stdio_output@@CA?AW4parameter_type@01@PEAUansi_string@?1??type_case_Z@?$output_processor@_WV?$string_output_adapter@_W@__crt_stdio_output@@V?$positional_parameter_base@_WV?$string_output_adapter@_W@__crt_stdio_output@@@2@@1@AEAA_NXZ@@Z 000000018005b1a0 f i libucrtd:output.obj
 0001:0005a1b0       ??$get_parameter_type@X@?$positional_parameter_base@DV?$stream_output_adapter@D@__crt_stdio_output@@@__crt_stdio_output@@CA?AW4parameter_type@01@PEAX@Z 000000018005b1b0 f i libucrtd:output.obj
 0001:0005a1c0       ??$get_parameter_type@X@?$positional_parameter_base@DV?$string_output_adapter@D@__crt_stdio_output@@@__crt_stdio_output@@CA?AW4parameter_type@01@PEAX@Z 000000018005b1c0 f i libucrtd:output.obj
 0001:0005a1d0       ??$get_parameter_type@X@?$positional_parameter_base@_WV?$stream_output_adapter@_W@__crt_stdio_output@@@__crt_stdio_output@@CA?AW4parameter_type@01@PEAX@Z 000000018005b1d0 f i libucrtd:output.obj
 0001:0005a1e0       ??$get_parameter_type@X@?$positional_parameter_base@_WV?$string_output_adapter@_W@__crt_stdio_output@@@__crt_stdio_output@@CA?AW4parameter_type@01@PEAX@Z 000000018005b1e0 f i libucrtd:output.obj
 0001:0005a1f0       ??$is_character_specifier@D@?$positional_parameter_base@DV?$stream_output_adapter@D@__crt_stdio_output@@@__crt_stdio_output@@CA_ND@Z 000000018005b1f0 f i libucrtd:output.obj
 0001:0005a230       ??$is_character_specifier@D@?$positional_parameter_base@DV?$string_output_adapter@D@__crt_stdio_output@@@__crt_stdio_output@@CA_ND@Z 000000018005b230 f i libucrtd:output.obj
 0001:0005a270       ??$is_character_specifier@_W@?$positional_parameter_base@_WV?$stream_output_adapter@_W@__crt_stdio_output@@@__crt_stdio_output@@CA_N_W@Z 000000018005b270 f i libucrtd:output.obj
 0001:0005a2b0       ??$is_character_specifier@_W@?$positional_parameter_base@_WV?$string_output_adapter@_W@__crt_stdio_output@@@__crt_stdio_output@@CA_N_W@Z 000000018005b2b0 f i libucrtd:output.obj
 0001:0005a2f0       ??$is_integral_specifier@D@?$positional_parameter_base@DV?$stream_output_adapter@D@__crt_stdio_output@@@__crt_stdio_output@@CA_ND@Z 000000018005b2f0 f i libucrtd:output.obj
 0001:0005a360       ??$is_integral_specifier@D@?$positional_parameter_base@DV?$string_output_adapter@D@__crt_stdio_output@@@__crt_stdio_output@@CA_ND@Z 000000018005b360 f i libucrtd:output.obj
 0001:0005a3d0       ??$is_integral_specifier@_W@?$positional_parameter_base@_WV?$stream_output_adapter@_W@__crt_stdio_output@@@__crt_stdio_output@@CA_N_W@Z 000000018005b3d0 f i libucrtd:output.obj
 0001:0005a440       ??$is_integral_specifier@_W@?$positional_parameter_base@_WV?$string_output_adapter@_W@__crt_stdio_output@@@__crt_stdio_output@@CA_N_W@Z 000000018005b440 f i libucrtd:output.obj
 0001:0005a4b0       ??$is_overflow_condition@K@__crt_strtox@@YA_NIK@Z 000000018005b4b0 f i libucrtd:output.obj
 0001:0005a520       ??$is_pointer_specifier@D@?$positional_parameter_base@DV?$stream_output_adapter@D@__crt_stdio_output@@@__crt_stdio_output@@CA_ND@Z 000000018005b520 f i libucrtd:output.obj
 0001:0005a550       ??$is_pointer_specifier@D@?$positional_parameter_base@DV?$string_output_adapter@D@__crt_stdio_output@@@__crt_stdio_output@@CA_ND@Z 000000018005b550 f i libucrtd:output.obj
 0001:0005a580       ??$is_pointer_specifier@_W@?$positional_parameter_base@_WV?$stream_output_adapter@_W@__crt_stdio_output@@@__crt_stdio_output@@CA_N_W@Z 000000018005b580 f i libucrtd:output.obj
 0001:0005a5b0       ??$is_pointer_specifier@_W@?$positional_parameter_base@_WV?$string_output_adapter@_W@__crt_stdio_output@@@__crt_stdio_output@@CA_N_W@Z 000000018005b5b0 f i libucrtd:output.obj
 0001:0005a5e0       ??$is_string_specifier@D@?$positional_parameter_base@DV?$stream_output_adapter@D@__crt_stdio_output@@@__crt_stdio_output@@CA_ND@Z 000000018005b5e0 f i libucrtd:output.obj
 0001:0005a620       ??$is_string_specifier@D@?$positional_parameter_base@DV?$string_output_adapter@D@__crt_stdio_output@@@__crt_stdio_output@@CA_ND@Z 000000018005b620 f i libucrtd:output.obj
 0001:0005a660       ??$is_string_specifier@_W@?$positional_parameter_base@_WV?$stream_output_adapter@_W@__crt_stdio_output@@@__crt_stdio_output@@CA_N_W@Z 000000018005b660 f i libucrtd:output.obj
 0001:0005a6a0       ??$is_string_specifier@_W@?$positional_parameter_base@_WV?$string_output_adapter@_W@__crt_stdio_output@@@__crt_stdio_output@@CA_N_W@Z 000000018005b6a0 f i libucrtd:output.obj
 0001:0005a6e0       ??$is_wide_character_specifier@D@__crt_stdio_output@@YA_N_KDW4length_modifier@0@@Z 000000018005b6e0 f i libucrtd:output.obj
 0001:0005a780       ??$is_wide_character_specifier@_W@__crt_stdio_output@@YA_N_K_WW4length_modifier@0@@Z 000000018005b780 f i libucrtd:output.obj
 0001:0005a850       ??$make_c_string_character_source@DPEAPEAD@__crt_strtox@@YA?AV?$c_string_character_source@D@0@QEBDQEAPEAD@Z 000000018005b850 f i libucrtd:output.obj
 0001:0005a890       ??$make_c_string_character_source@_WPEAPEA_W@__crt_strtox@@YA?AV?$c_string_character_source@_W@0@QEB_WQEAPEA_W@Z 000000018005b890 f i libucrtd:output.obj
 0001:0005a8d0       ??$parse_integer@KV?$c_string_character_source@D@__crt_strtox@@$0A@@__crt_strtox@@YAKAEAV__crt_cached_ptd_host@@V?$c_string_character_source@D@0@H_N@Z 000000018005b8d0 f i libucrtd:output.obj
 0001:0005ad50       ??$parse_integer@KV?$c_string_character_source@_W@__crt_strtox@@$0A@@__crt_strtox@@YAKAEAV__crt_cached_ptd_host@@V?$c_string_character_source@_W@0@H_N@Z 000000018005bd50 f i libucrtd:output.obj
 0001:0005b1d0       ??$peek_va_arg@C@__crt_stdio_output@@YACPEAD@Z 000000018005c1d0 f i libucrtd:output.obj
 0001:0005b230       ??$peek_va_arg@E@__crt_stdio_output@@YAEPEAD@Z 000000018005c230 f i libucrtd:output.obj
 0001:0005b290       ??$peek_va_arg@F@__crt_stdio_output@@YAFPEAD@Z 000000018005c290 f i libucrtd:output.obj
 0001:0005b2f0       ??$peek_va_arg@G@__crt_stdio_output@@YAGPEAD@Z 000000018005c2f0 f i libucrtd:output.obj
 0001:0005b350       ??$peek_va_arg@H@__crt_stdio_output@@YAHPEAD@Z 000000018005c350 f i libucrtd:output.obj
 0001:0005b3a0       ??$peek_va_arg@I@__crt_stdio_output@@YAIPEAD@Z 000000018005c3a0 f i libucrtd:output.obj
 0001:0005b3f0       ??$peek_va_arg@PEAD@__crt_stdio_output@@YAPEADPEAD@Z 000000018005c3f0 f i libucrtd:output.obj
 0001:0005b450       ??$peek_va_arg@PEAUansi_string@?1??type_case_Z@?$output_processor@DV?$stream_output_adapter@D@__crt_stdio_output@@V?$positional_parameter_base@DV?$stream_output_adapter@D@__crt_stdio_output@@@2@@__crt_stdio_output@@AEAA_NXZ@@__crt_stdio_output@@YAPEAUansi_string@?1??type_case_Z@?$output_processor@DV?$stream_output_adapter@D@__crt_stdio_output@@V?$positional_parameter_base@DV?$stream_output_adapter@D@__crt_stdio_output@@@2@@0@AEAA_NXZ@PEAD@Z 000000018005c450 f i libucrtd:output.obj
 0001:0005b4b0       ??$peek_va_arg@PEAUansi_string@?1??type_case_Z@?$output_processor@DV?$string_output_adapter@D@__crt_stdio_output@@V?$positional_parameter_base@DV?$string_output_adapter@D@__crt_stdio_output@@@2@@__crt_stdio_output@@AEAA_NXZ@@__crt_stdio_output@@YAPEAUansi_string@?1??type_case_Z@?$output_processor@DV?$string_output_adapter@D@__crt_stdio_output@@V?$positional_parameter_base@DV?$string_output_adapter@D@__crt_stdio_output@@@2@@0@AEAA_NXZ@PEAD@Z 000000018005c4b0 f i libucrtd:output.obj
 0001:0005b510       ??$peek_va_arg@PEAUansi_string@?1??type_case_Z@?$output_processor@_WV?$stream_output_adapter@_W@__crt_stdio_output@@V?$positional_parameter_base@_WV?$stream_output_adapter@_W@__crt_stdio_output@@@2@@__crt_stdio_output@@AEAA_NXZ@@__crt_stdio_output@@YAPEAUansi_string@?1??type_case_Z@?$output_processor@_WV?$stream_output_adapter@_W@__crt_stdio_output@@V?$positional_parameter_base@_WV?$stream_output_adapter@_W@__crt_stdio_output@@@2@@0@AEAA_NXZ@PEAD@Z 000000018005c510 f i libucrtd:output.obj
 0001:0005b570       ??$peek_va_arg@PEAUansi_string@?1??type_case_Z@?$output_processor@_WV?$string_output_adapter@_W@__crt_stdio_output@@V?$positional_parameter_base@_WV?$string_output_adapter@_W@__crt_stdio_output@@@2@@__crt_stdio_output@@AEAA_NXZ@@__crt_stdio_output@@YAPEAUansi_string@?1??type_case_Z@?$output_processor@_WV?$string_output_adapter@_W@__crt_stdio_output@@V?$positional_parameter_base@_WV?$string_output_adapter@_W@__crt_stdio_output@@@2@@0@AEAA_NXZ@PEAD@Z 000000018005c570 f i libucrtd:output.obj
 0001:0005b5d0       ??$peek_va_arg@PEAX@__crt_stdio_output@@YAPEAXPEAD@Z 000000018005c5d0 f i libucrtd:output.obj
 0001:0005b630       ??$peek_va_arg@U_CRT_DOUBLE@@@__crt_stdio_output@@YA?AU_CRT_DOUBLE@@PEAD@Z 000000018005c630 f i libucrtd:output.obj
 0001:0005b690       ??$peek_va_arg@_J@__crt_stdio_output@@YA_JPEAD@Z 000000018005c690 f i libucrtd:output.obj
 0001:0005b6f0       ??$peek_va_arg@_K@__crt_stdio_output@@YA_KPEAD@Z 000000018005c6f0 f i libucrtd:output.obj
 0001:0005b750       ??$peek_va_arg@_W@__crt_stdio_output@@YA_WPEAD@Z 000000018005c750 f i libucrtd:output.obj
 0001:0005b7b0       ??$puttc_nolock_internal@AEBDPEAU_iobuf@@AEAV__crt_cached_ptd_host@@@?$__crt_char_traits@D@@SAHAEBD$$QEAPEAU_iobuf@@AEAV__crt_cached_ptd_host@@@Z 000000018005c7b0 f i libucrtd:output.obj
 0001:0005b7f0       ??$puttc_nolock_internal@AEB_WPEAU_iobuf@@AEAV__crt_cached_ptd_host@@@?$__crt_char_traits@_W@@SAGAEB_W$$QEAPEAU_iobuf@@AEAV__crt_cached_ptd_host@@@Z 000000018005c7f0 f i libucrtd:output.obj
 0001:0005b830       ??$read_va_arg@C@__crt_stdio_output@@YACAEAPEAD@Z 000000018005c830 f i libucrtd:output.obj
 0001:0005b8a0       ??$read_va_arg@E@__crt_stdio_output@@YAEAEAPEAD@Z 000000018005c8a0 f i libucrtd:output.obj
 0001:0005b910       ??$read_va_arg@F@__crt_stdio_output@@YAFAEAPEAD@Z 000000018005c910 f i libucrtd:output.obj
 0001:0005b980       ??$read_va_arg@G@__crt_stdio_output@@YAGAEAPEAD@Z 000000018005c980 f i libucrtd:output.obj
 0001:0005b9f0       ??$read_va_arg@H@__crt_stdio_output@@YAHAEAPEAD@Z 000000018005c9f0 f i libucrtd:output.obj
 0001:0005ba50       ??$read_va_arg@I@__crt_stdio_output@@YAIAEAPEAD@Z 000000018005ca50 f i libucrtd:output.obj
 0001:0005bab0       ??$read_va_arg@PEAD@__crt_stdio_output@@YAPEADAEAPEAD@Z 000000018005cab0 f i libucrtd:output.obj
 0001:0005bb20       ??$read_va_arg@PEAUansi_string@?1??type_case_Z@?$output_processor@DV?$stream_output_adapter@D@__crt_stdio_output@@V?$format_validation_base@DV?$stream_output_adapter@D@__crt_stdio_output@@@2@@__crt_stdio_output@@AEAA_NXZ@@__crt_stdio_output@@YAPEAUansi_string@?1??type_case_Z@?$output_processor@DV?$stream_output_adapter@D@__crt_stdio_output@@V?$format_validation_base@DV?$stream_output_adapter@D@__crt_stdio_output@@@2@@0@AEAA_NXZ@AEAPEAD@Z 000000018005cb20 f i libucrtd:output.obj
 0001:0005bb90       ??$read_va_arg@PEAUansi_string@?1??type_case_Z@?$output_processor@DV?$stream_output_adapter@D@__crt_stdio_output@@V?$positional_parameter_base@DV?$stream_output_adapter@D@__crt_stdio_output@@@2@@__crt_stdio_output@@AEAA_NXZ@@__crt_stdio_output@@YAPEAUansi_string@?1??type_case_Z@?$output_processor@DV?$stream_output_adapter@D@__crt_stdio_output@@V?$positional_parameter_base@DV?$stream_output_adapter@D@__crt_stdio_output@@@2@@0@AEAA_NXZ@AEAPEAD@Z 000000018005cb90 f i libucrtd:output.obj
 0001:0005bc00       ??$read_va_arg@PEAUansi_string@?1??type_case_Z@?$output_processor@DV?$stream_output_adapter@D@__crt_stdio_output@@V?$standard_base@DV?$stream_output_adapter@D@__crt_stdio_output@@@2@@__crt_stdio_output@@AEAA_NXZ@@__crt_stdio_output@@YAPEAUansi_string@?1??type_case_Z@?$output_processor@DV?$stream_output_adapter@D@__crt_stdio_output@@V?$standard_base@DV?$stream_output_adapter@D@__crt_stdio_output@@@2@@0@AEAA_NXZ@AEAPEAD@Z 000000018005cc00 f i libucrtd:output.obj
 0001:0005bc70       ??$read_va_arg@PEAUansi_string@?1??type_case_Z@?$output_processor@DV?$string_output_adapter@D@__crt_stdio_output@@V?$format_validation_base@DV?$string_output_adapter@D@__crt_stdio_output@@@2@@__crt_stdio_output@@AEAA_NXZ@@__crt_stdio_output@@YAPEAUansi_string@?1??type_case_Z@?$output_processor@DV?$string_output_adapter@D@__crt_stdio_output@@V?$format_validation_base@DV?$string_output_adapter@D@__crt_stdio_output@@@2@@0@AEAA_NXZ@AEAPEAD@Z 000000018005cc70 f i libucrtd:output.obj
 0001:0005bce0       ??$read_va_arg@PEAUansi_string@?1??type_case_Z@?$output_processor@DV?$string_output_adapter@D@__crt_stdio_output@@V?$positional_parameter_base@DV?$string_output_adapter@D@__crt_stdio_output@@@2@@__crt_stdio_output@@AEAA_NXZ@@__crt_stdio_output@@YAPEAUansi_string@?1??type_case_Z@?$output_processor@DV?$string_output_adapter@D@__crt_stdio_output@@V?$positional_parameter_base@DV?$string_output_adapter@D@__crt_stdio_output@@@2@@0@AEAA_NXZ@AEAPEAD@Z 000000018005cce0 f i libucrtd:output.obj
 0001:0005bd50       ??$read_va_arg@PEAUansi_string@?1??type_case_Z@?$output_processor@DV?$string_output_adapter@D@__crt_stdio_output@@V?$standard_base@DV?$string_output_adapter@D@__crt_stdio_output@@@2@@__crt_stdio_output@@AEAA_NXZ@@__crt_stdio_output@@YAPEAUansi_string@?1??type_case_Z@?$output_processor@DV?$string_output_adapter@D@__crt_stdio_output@@V?$standard_base@DV?$string_output_adapter@D@__crt_stdio_output@@@2@@0@AEAA_NXZ@AEAPEAD@Z 000000018005cd50 f i libucrtd:output.obj
 0001:0005bdc0       ??$read_va_arg@PEAUansi_string@?1??type_case_Z@?$output_processor@_WV?$stream_output_adapter@_W@__crt_stdio_output@@V?$format_validation_base@_WV?$stream_output_adapter@_W@__crt_stdio_output@@@2@@__crt_stdio_output@@AEAA_NXZ@@__crt_stdio_output@@YAPEAUansi_string@?1??type_case_Z@?$output_processor@_WV?$stream_output_adapter@_W@__crt_stdio_output@@V?$format_validation_base@_WV?$stream_output_adapter@_W@__crt_stdio_output@@@2@@0@AEAA_NXZ@AEAPEAD@Z 000000018005cdc0 f i libucrtd:output.obj
 0001:0005be30       ??$read_va_arg@PEAUansi_string@?1??type_case_Z@?$output_processor@_WV?$stream_output_adapter@_W@__crt_stdio_output@@V?$positional_parameter_base@_WV?$stream_output_adapter@_W@__crt_stdio_output@@@2@@__crt_stdio_output@@AEAA_NXZ@@__crt_stdio_output@@YAPEAUansi_string@?1??type_case_Z@?$output_processor@_WV?$stream_output_adapter@_W@__crt_stdio_output@@V?$positional_parameter_base@_WV?$stream_output_adapter@_W@__crt_stdio_output@@@2@@0@AEAA_NXZ@AEAPEAD@Z 000000018005ce30 f i libucrtd:output.obj
 0001:0005bea0       ??$read_va_arg@PEAUansi_string@?1??type_case_Z@?$output_processor@_WV?$stream_output_adapter@_W@__crt_stdio_output@@V?$standard_base@_WV?$stream_output_adapter@_W@__crt_stdio_output@@@2@@__crt_stdio_output@@AEAA_NXZ@@__crt_stdio_output@@YAPEAUansi_string@?1??type_case_Z@?$output_processor@_WV?$stream_output_adapter@_W@__crt_stdio_output@@V?$standard_base@_WV?$stream_output_adapter@_W@__crt_stdio_output@@@2@@0@AEAA_NXZ@AEAPEAD@Z 000000018005cea0 f i libucrtd:output.obj
 0001:0005bf10       ??$read_va_arg@PEAUansi_string@?1??type_case_Z@?$output_processor@_WV?$string_output_adapter@_W@__crt_stdio_output@@V?$format_validation_base@_WV?$string_output_adapter@_W@__crt_stdio_output@@@2@@__crt_stdio_output@@AEAA_NXZ@@__crt_stdio_output@@YAPEAUansi_string@?1??type_case_Z@?$output_processor@_WV?$string_output_adapter@_W@__crt_stdio_output@@V?$format_validation_base@_WV?$string_output_adapter@_W@__crt_stdio_output@@@2@@0@AEAA_NXZ@AEAPEAD@Z 000000018005cf10 f i libucrtd:output.obj
 0001:0005bf80       ??$read_va_arg@PEAUansi_string@?1??type_case_Z@?$output_processor@_WV?$string_output_adapter@_W@__crt_stdio_output@@V?$positional_parameter_base@_WV?$string_output_adapter@_W@__crt_stdio_output@@@2@@__crt_stdio_output@@AEAA_NXZ@@__crt_stdio_output@@YAPEAUansi_string@?1??type_case_Z@?$output_processor@_WV?$string_output_adapter@_W@__crt_stdio_output@@V?$positional_parameter_base@_WV?$string_output_adapter@_W@__crt_stdio_output@@@2@@0@AEAA_NXZ@AEAPEAD@Z 000000018005cf80 f i libucrtd:output.obj
 0001:0005bff0       ??$read_va_arg@PEAUansi_string@?1??type_case_Z@?$output_processor@_WV?$string_output_adapter@_W@__crt_stdio_output@@V?$standard_base@_WV?$string_output_adapter@_W@__crt_stdio_output@@@2@@__crt_stdio_output@@AEAA_NXZ@@__crt_stdio_output@@YAPEAUansi_string@?1??type_case_Z@?$output_processor@_WV?$string_output_adapter@_W@__crt_stdio_output@@V?$standard_base@_WV?$string_output_adapter@_W@__crt_stdio_output@@@2@@0@AEAA_NXZ@AEAPEAD@Z 000000018005cff0 f i libucrtd:output.obj
 0001:0005c060       ??$read_va_arg@PEAX@__crt_stdio_output@@YAPEAXAEAPEAD@Z 000000018005d060 f i libucrtd:output.obj
 0001:0005c0d0       ??$read_va_arg@U_CRT_DOUBLE@@@__crt_stdio_output@@YA?AU_CRT_DOUBLE@@AEAPEAD@Z 000000018005d0d0 f i libucrtd:output.obj
 0001:0005c140       ??$read_va_arg@_J@__crt_stdio_output@@YA_JAEAPEAD@Z 000000018005d140 f i libucrtd:output.obj
 0001:0005c1b0       ??$read_va_arg@_K@__crt_stdio_output@@YA_KAEAPEAD@Z 000000018005d1b0 f i libucrtd:output.obj
 0001:0005c220       ??$read_va_arg@_W@__crt_stdio_output@@YA_WAEAPEAD@Z 000000018005d220 f i libucrtd:output.obj
 0001:0005c290       ??$scratch_count@D@formatting_buffer@__crt_stdio_output@@QEBA_KXZ 000000018005d290 f i libucrtd:output.obj
 0001:0005c2b0       ??$scratch_data@D@formatting_buffer@__crt_stdio_output@@QEAAPEADXZ 000000018005d2b0 f i libucrtd:output.obj
 0001:0005c320       ??$type_case_integer@$07@?$output_processor@DV?$stream_output_adapter@D@__crt_stdio_output@@V?$format_validation_base@DV?$stream_output_adapter@D@__crt_stdio_output@@@2@@__crt_stdio_output@@AEAA_N_N@Z 000000018005d320 f i libucrtd:output.obj
 0001:0005c7a0       ??$type_case_integer@$07@?$output_processor@DV?$stream_output_adapter@D@__crt_stdio_output@@V?$positional_parameter_base@DV?$stream_output_adapter@D@__crt_stdio_output@@@2@@__crt_stdio_output@@AEAA_N_N@Z 000000018005d7a0 f i libucrtd:output.obj
 0001:0005cc20       ??$type_case_integer@$07@?$output_processor@DV?$stream_output_adapter@D@__crt_stdio_output@@V?$standard_base@DV?$stream_output_adapter@D@__crt_stdio_output@@@2@@__crt_stdio_output@@AEAA_N_N@Z 000000018005dc20 f i libucrtd:output.obj
 0001:0005d0a0       ??$type_case_integer@$07@?$output_processor@DV?$string_output_adapter@D@__crt_stdio_output@@V?$format_validation_base@DV?$string_output_adapter@D@__crt_stdio_output@@@2@@__crt_stdio_output@@AEAA_N_N@Z 000000018005e0a0 f i libucrtd:output.obj
 0001:0005d520       ??$type_case_integer@$07@?$output_processor@DV?$string_output_adapter@D@__crt_stdio_output@@V?$positional_parameter_base@DV?$string_output_adapter@D@__crt_stdio_output@@@2@@__crt_stdio_output@@AEAA_N_N@Z 000000018005e520 f i libucrtd:output.obj
 0001:0005d9a0       ??$type_case_integer@$07@?$output_processor@DV?$string_output_adapter@D@__crt_stdio_output@@V?$standard_base@DV?$string_output_adapter@D@__crt_stdio_output@@@2@@__crt_stdio_output@@AEAA_N_N@Z 000000018005e9a0 f i libucrtd:output.obj
 0001:0005de20       ??$type_case_integer@$07@?$output_processor@_WV?$stream_output_adapter@_W@__crt_stdio_output@@V?$format_validation_base@_WV?$stream_output_adapter@_W@__crt_stdio_output@@@2@@__crt_stdio_output@@AEAA_N_N@Z 000000018005ee20 f i libucrtd:output.obj
 0001:0005e2a0       ??$type_case_integer@$07@?$output_processor@_WV?$stream_output_adapter@_W@__crt_stdio_output@@V?$positional_parameter_base@_WV?$stream_output_adapter@_W@__crt_stdio_output@@@2@@__crt_stdio_output@@AEAA_N_N@Z 000000018005f2a0 f i libucrtd:output.obj
 0001:0005e720       ??$type_case_integer@$07@?$output_processor@_WV?$stream_output_adapter@_W@__crt_stdio_output@@V?$standard_base@_WV?$stream_output_adapter@_W@__crt_stdio_output@@@2@@__crt_stdio_output@@AEAA_N_N@Z 000000018005f720 f i libucrtd:output.obj
 0001:0005eba0       ??$type_case_integer@$07@?$output_processor@_WV?$string_output_adapter@_W@__crt_stdio_output@@V?$format_validation_base@_WV?$string_output_adapter@_W@__crt_stdio_output@@@2@@__crt_stdio_output@@AEAA_N_N@Z 000000018005fba0 f i libucrtd:output.obj
 0001:0005f020       ??$type_case_integer@$07@?$output_processor@_WV?$string_output_adapter@_W@__crt_stdio_output@@V?$positional_parameter_base@_WV?$string_output_adapter@_W@__crt_stdio_output@@@2@@__crt_stdio_output@@AEAA_N_N@Z 0000000180060020 f i libucrtd:output.obj
 0001:0005f4a0       ??$type_case_integer@$07@?$output_processor@_WV?$string_output_adapter@_W@__crt_stdio_output@@V?$standard_base@_WV?$string_output_adapter@_W@__crt_stdio_output@@@2@@__crt_stdio_output@@AEAA_N_N@Z 00000001800604a0 f i libucrtd:output.obj
 0001:0005f920       ??$type_case_integer@$09@?$output_processor@DV?$stream_output_adapter@D@__crt_stdio_output@@V?$format_validation_base@DV?$stream_output_adapter@D@__crt_stdio_output@@@2@@__crt_stdio_output@@AEAA_N_N@Z 0000000180060920 f i libucrtd:output.obj
 0001:0005fda0       ??$type_case_integer@$09@?$output_processor@DV?$stream_output_adapter@D@__crt_stdio_output@@V?$positional_parameter_base@DV?$stream_output_adapter@D@__crt_stdio_output@@@2@@__crt_stdio_output@@AEAA_N_N@Z 0000000180060da0 f i libucrtd:output.obj
 0001:00060220       ??$type_case_integer@$09@?$output_processor@DV?$stream_output_adapter@D@__crt_stdio_output@@V?$standard_base@DV?$stream_output_adapter@D@__crt_stdio_output@@@2@@__crt_stdio_output@@AEAA_N_N@Z 0000000180061220 f i libucrtd:output.obj
 0001:000606a0       ??$type_case_integer@$09@?$output_processor@DV?$string_output_adapter@D@__crt_stdio_output@@V?$format_validation_base@DV?$string_output_adapter@D@__crt_stdio_output@@@2@@__crt_stdio_output@@AEAA_N_N@Z 00000001800616a0 f i libucrtd:output.obj
 0001:00060b20       ??$type_case_integer@$09@?$output_processor@DV?$string_output_adapter@D@__crt_stdio_output@@V?$positional_parameter_base@DV?$string_output_adapter@D@__crt_stdio_output@@@2@@__crt_stdio_output@@AEAA_N_N@Z 0000000180061b20 f i libucrtd:output.obj
 0001:00060fa0       ??$type_case_integer@$09@?$output_processor@DV?$string_output_adapter@D@__crt_stdio_output@@V?$standard_base@DV?$string_output_adapter@D@__crt_stdio_output@@@2@@__crt_stdio_output@@AEAA_N_N@Z 0000000180061fa0 f i libucrtd:output.obj
 0001:00061420       ??$type_case_integer@$09@?$output_processor@_WV?$stream_output_adapter@_W@__crt_stdio_output@@V?$format_validation_base@_WV?$stream_output_adapter@_W@__crt_stdio_output@@@2@@__crt_stdio_output@@AEAA_N_N@Z 0000000180062420 f i libucrtd:output.obj
 0001:000618a0       ??$type_case_integer@$09@?$output_processor@_WV?$stream_output_adapter@_W@__crt_stdio_output@@V?$positional_parameter_base@_WV?$stream_output_adapter@_W@__crt_stdio_output@@@2@@__crt_stdio_output@@AEAA_N_N@Z 00000001800628a0 f i libucrtd:output.obj
 0001:00061d20       ??$type_case_integer@$09@?$output_processor@_WV?$stream_output_adapter@_W@__crt_stdio_output@@V?$standard_base@_WV?$stream_output_adapter@_W@__crt_stdio_output@@@2@@__crt_stdio_output@@AEAA_N_N@Z 0000000180062d20 f i libucrtd:output.obj
 0001:000621a0       ??$type_case_integer@$09@?$output_processor@_WV?$string_output_adapter@_W@__crt_stdio_output@@V?$format_validation_base@_WV?$string_output_adapter@_W@__crt_stdio_output@@@2@@__crt_stdio_output@@AEAA_N_N@Z 00000001800631a0 f i libucrtd:output.obj
 0001:00062620       ??$type_case_integer@$09@?$output_processor@_WV?$string_output_adapter@_W@__crt_stdio_output@@V?$positional_parameter_base@_WV?$string_output_adapter@_W@__crt_stdio_output@@@2@@__crt_stdio_output@@AEAA_N_N@Z 0000000180063620 f i libucrtd:output.obj
 0001:00062aa0       ??$type_case_integer@$09@?$output_processor@_WV?$string_output_adapter@_W@__crt_stdio_output@@V?$standard_base@_WV?$string_output_adapter@_W@__crt_stdio_output@@@2@@__crt_stdio_output@@AEAA_N_N@Z 0000000180063aa0 f i libucrtd:output.obj
 0001:00062f20       ??$type_case_integer@$0BA@@?$output_processor@DV?$stream_output_adapter@D@__crt_stdio_output@@V?$format_validation_base@DV?$stream_output_adapter@D@__crt_stdio_output@@@2@@__crt_stdio_output@@AEAA_N_N@Z 0000000180063f20 f i libucrtd:output.obj
 0001:000633a0       ??$type_case_integer@$0BA@@?$output_processor@DV?$stream_output_adapter@D@__crt_stdio_output@@V?$positional_parameter_base@DV?$stream_output_adapter@D@__crt_stdio_output@@@2@@__crt_stdio_output@@AEAA_N_N@Z 00000001800643a0 f i libucrtd:output.obj
 0001:00063820       ??$type_case_integer@$0BA@@?$output_processor@DV?$stream_output_adapter@D@__crt_stdio_output@@V?$standard_base@DV?$stream_output_adapter@D@__crt_stdio_output@@@2@@__crt_stdio_output@@AEAA_N_N@Z 0000000180064820 f i libucrtd:output.obj
 0001:00063ca0       ??$type_case_integer@$0BA@@?$output_processor@DV?$string_output_adapter@D@__crt_stdio_output@@V?$format_validation_base@DV?$string_output_adapter@D@__crt_stdio_output@@@2@@__crt_stdio_output@@AEAA_N_N@Z 0000000180064ca0 f i libucrtd:output.obj
 0001:00064120       ??$type_case_integer@$0BA@@?$output_processor@DV?$string_output_adapter@D@__crt_stdio_output@@V?$positional_parameter_base@DV?$string_output_adapter@D@__crt_stdio_output@@@2@@__crt_stdio_output@@AEAA_N_N@Z 0000000180065120 f i libucrtd:output.obj
 0001:000645a0       ??$type_case_integer@$0BA@@?$output_processor@DV?$string_output_adapter@D@__crt_stdio_output@@V?$standard_base@DV?$string_output_adapter@D@__crt_stdio_output@@@2@@__crt_stdio_output@@AEAA_N_N@Z 00000001800655a0 f i libucrtd:output.obj
 0001:00064a20       ??$type_case_integer@$0BA@@?$output_processor@_WV?$stream_output_adapter@_W@__crt_stdio_output@@V?$format_validation_base@_WV?$stream_output_adapter@_W@__crt_stdio_output@@@2@@__crt_stdio_output@@AEAA_N_N@Z 0000000180065a20 f i libucrtd:output.obj
 0001:00064ea0       ??$type_case_integer@$0BA@@?$output_processor@_WV?$stream_output_adapter@_W@__crt_stdio_output@@V?$positional_parameter_base@_WV?$stream_output_adapter@_W@__crt_stdio_output@@@2@@__crt_stdio_output@@AEAA_N_N@Z 0000000180065ea0 f i libucrtd:output.obj
 0001:00065320       ??$type_case_integer@$0BA@@?$output_processor@_WV?$stream_output_adapter@_W@__crt_stdio_output@@V?$standard_base@_WV?$stream_output_adapter@_W@__crt_stdio_output@@@2@@__crt_stdio_output@@AEAA_N_N@Z 0000000180066320 f i libucrtd:output.obj
 0001:000657a0       ??$type_case_integer@$0BA@@?$output_processor@_WV?$string_output_adapter@_W@__crt_stdio_output@@V?$format_validation_base@_WV?$string_output_adapter@_W@__crt_stdio_output@@@2@@__crt_stdio_output@@AEAA_N_N@Z 00000001800667a0 f i libucrtd:output.obj
 0001:00065c20       ??$type_case_integer@$0BA@@?$output_processor@_WV?$string_output_adapter@_W@__crt_stdio_output@@V?$positional_parameter_base@_WV?$string_output_adapter@_W@__crt_stdio_output@@@2@@__crt_stdio_output@@AEAA_N_N@Z 0000000180066c20 f i libucrtd:output.obj
 0001:000660a0       ??$type_case_integer@$0BA@@?$output_processor@_WV?$string_output_adapter@_W@__crt_stdio_output@@V?$standard_base@_WV?$string_output_adapter@_W@__crt_stdio_output@@@2@@__crt_stdio_output@@AEAA_N_N@Z 00000001800670a0 f i libucrtd:output.obj
 0001:00066520       ??$type_case_integer_parse_into_buffer@I$07@?$output_processor@DV?$stream_output_adapter@D@__crt_stdio_output@@V?$format_validation_base@DV?$stream_output_adapter@D@__crt_stdio_output@@@2@@__crt_stdio_output@@AEAAXI_N@Z 0000000180067520 f i libucrtd:output.obj
 0001:00066650       ??$type_case_integer_parse_into_buffer@I$07@?$output_processor@DV?$stream_output_adapter@D@__crt_stdio_output@@V?$positional_parameter_base@DV?$stream_output_adapter@D@__crt_stdio_output@@@2@@__crt_stdio_output@@AEAAXI_N@Z 0000000180067650 f i libucrtd:output.obj
 0001:00066780       ??$type_case_integer_parse_into_buffer@I$07@?$output_processor@DV?$stream_output_adapter@D@__crt_stdio_output@@V?$standard_base@DV?$stream_output_adapter@D@__crt_stdio_output@@@2@@__crt_stdio_output@@AEAAXI_N@Z 0000000180067780 f i libucrtd:output.obj
 0001:000668b0       ??$type_case_integer_parse_into_buffer@I$07@?$output_processor@DV?$string_output_adapter@D@__crt_stdio_output@@V?$format_validation_base@DV?$string_output_adapter@D@__crt_stdio_output@@@2@@__crt_stdio_output@@AEAAXI_N@Z 00000001800678b0 f i libucrtd:output.obj
 0001:000669e0       ??$type_case_integer_parse_into_buffer@I$07@?$output_processor@DV?$string_output_adapter@D@__crt_stdio_output@@V?$positional_parameter_base@DV?$string_output_adapter@D@__crt_stdio_output@@@2@@__crt_stdio_output@@AEAAXI_N@Z 00000001800679e0 f i libucrtd:output.obj
 0001:00066b10       ??$type_case_integer_parse_into_buffer@I$07@?$output_processor@DV?$string_output_adapter@D@__crt_stdio_output@@V?$standard_base@DV?$string_output_adapter@D@__crt_stdio_output@@@2@@__crt_stdio_output@@AEAAXI_N@Z 0000000180067b10 f i libucrtd:output.obj
 0001:00066c40       ??$type_case_integer_parse_into_buffer@I$07@?$output_processor@_WV?$stream_output_adapter@_W@__crt_stdio_output@@V?$format_validation_base@_WV?$stream_output_adapter@_W@__crt_stdio_output@@@2@@__crt_stdio_output@@AEAAXI_N@Z 0000000180067c40 f i libucrtd:output.obj
 0001:00066d80       ??$type_case_integer_parse_into_buffer@I$07@?$output_processor@_WV?$stream_output_adapter@_W@__crt_stdio_output@@V?$positional_parameter_base@_WV?$stream_output_adapter@_W@__crt_stdio_output@@@2@@__crt_stdio_output@@AEAAXI_N@Z 0000000180067d80 f i libucrtd:output.obj
 0001:00066ec0       ??$type_case_integer_parse_into_buffer@I$07@?$output_processor@_WV?$stream_output_adapter@_W@__crt_stdio_output@@V?$standard_base@_WV?$stream_output_adapter@_W@__crt_stdio_output@@@2@@__crt_stdio_output@@AEAAXI_N@Z 0000000180067ec0 f i libucrtd:output.obj
 0001:00067000       ??$type_case_integer_parse_into_buffer@I$07@?$output_processor@_WV?$string_output_adapter@_W@__crt_stdio_output@@V?$format_validation_base@_WV?$string_output_adapter@_W@__crt_stdio_output@@@2@@__crt_stdio_output@@AEAAXI_N@Z 0000000180068000 f i libucrtd:output.obj
 0001:00067140       ??$type_case_integer_parse_into_buffer@I$07@?$output_processor@_WV?$string_output_adapter@_W@__crt_stdio_output@@V?$positional_parameter_base@_WV?$string_output_adapter@_W@__crt_stdio_output@@@2@@__crt_stdio_output@@AEAAXI_N@Z 0000000180068140 f i libucrtd:output.obj
 0001:00067280       ??$type_case_integer_parse_into_buffer@I$07@?$output_processor@_WV?$string_output_adapter@_W@__crt_stdio_output@@V?$standard_base@_WV?$string_output_adapter@_W@__crt_stdio_output@@@2@@__crt_stdio_output@@AEAAXI_N@Z 0000000180068280 f i libucrtd:output.obj
 0001:000673c0       ??$type_case_integer_parse_into_buffer@I$09@?$output_processor@DV?$stream_output_adapter@D@__crt_stdio_output@@V?$format_validation_base@DV?$stream_output_adapter@D@__crt_stdio_output@@@2@@__crt_stdio_output@@AEAAXI_N@Z 00000001800683c0 f i libucrtd:output.obj
 0001:000674f0       ??$type_case_integer_parse_into_buffer@I$09@?$output_processor@DV?$stream_output_adapter@D@__crt_stdio_output@@V?$positional_parameter_base@DV?$stream_output_adapter@D@__crt_stdio_output@@@2@@__crt_stdio_output@@AEAAXI_N@Z 00000001800684f0 f i libucrtd:output.obj
 0001:00067620       ??$type_case_integer_parse_into_buffer@I$09@?$output_processor@DV?$stream_output_adapter@D@__crt_stdio_output@@V?$standard_base@DV?$stream_output_adapter@D@__crt_stdio_output@@@2@@__crt_stdio_output@@AEAAXI_N@Z 0000000180068620 f i libucrtd:output.obj
 0001:00067750       ??$type_case_integer_parse_into_buffer@I$09@?$output_processor@DV?$string_output_adapter@D@__crt_stdio_output@@V?$format_validation_base@DV?$string_output_adapter@D@__crt_stdio_output@@@2@@__crt_stdio_output@@AEAAXI_N@Z 0000000180068750 f i libucrtd:output.obj
 0001:00067880       ??$type_case_integer_parse_into_buffer@I$09@?$output_processor@DV?$string_output_adapter@D@__crt_stdio_output@@V?$positional_parameter_base@DV?$string_output_adapter@D@__crt_stdio_output@@@2@@__crt_stdio_output@@AEAAXI_N@Z 0000000180068880 f i libucrtd:output.obj
 0001:000679b0       ??$type_case_integer_parse_into_buffer@I$09@?$output_processor@DV?$string_output_adapter@D@__crt_stdio_output@@V?$standard_base@DV?$string_output_adapter@D@__crt_stdio_output@@@2@@__crt_stdio_output@@AEAAXI_N@Z 00000001800689b0 f i libucrtd:output.obj
 0001:00067ae0       ??$type_case_integer_parse_into_buffer@I$09@?$output_processor@_WV?$stream_output_adapter@_W@__crt_stdio_output@@V?$format_validation_base@_WV?$stream_output_adapter@_W@__crt_stdio_output@@@2@@__crt_stdio_output@@AEAAXI_N@Z 0000000180068ae0 f i libucrtd:output.obj
 0001:00067c20       ??$type_case_integer_parse_into_buffer@I$09@?$output_processor@_WV?$stream_output_adapter@_W@__crt_stdio_output@@V?$positional_parameter_base@_WV?$stream_output_adapter@_W@__crt_stdio_output@@@2@@__crt_stdio_output@@AEAAXI_N@Z 0000000180068c20 f i libucrtd:output.obj
 0001:00067d60       ??$type_case_integer_parse_into_buffer@I$09@?$output_processor@_WV?$stream_output_adapter@_W@__crt_stdio_output@@V?$standard_base@_WV?$stream_output_adapter@_W@__crt_stdio_output@@@2@@__crt_stdio_output@@AEAAXI_N@Z 0000000180068d60 f i libucrtd:output.obj
 0001:00067ea0       ??$type_case_integer_parse_into_buffer@I$09@?$output_processor@_WV?$string_output_adapter@_W@__crt_stdio_output@@V?$format_validation_base@_WV?$string_output_adapter@_W@__crt_stdio_output@@@2@@__crt_stdio_output@@AEAAXI_N@Z 0000000180068ea0 f i libucrtd:output.obj
 0001:00067fe0       ??$type_case_integer_parse_into_buffer@I$09@?$output_processor@_WV?$string_output_adapter@_W@__crt_stdio_output@@V?$positional_parameter_base@_WV?$string_output_adapter@_W@__crt_stdio_output@@@2@@__crt_stdio_output@@AEAAXI_N@Z 0000000180068fe0 f i libucrtd:output.obj
 0001:00068120       ??$type_case_integer_parse_into_buffer@I$09@?$output_processor@_WV?$string_output_adapter@_W@__crt_stdio_output@@V?$standard_base@_WV?$string_output_adapter@_W@__crt_stdio_output@@@2@@__crt_stdio_output@@AEAAXI_N@Z 0000000180069120 f i libucrtd:output.obj
 0001:00068260       ??$type_case_integer_parse_into_buffer@I$0BA@@?$output_processor@DV?$stream_output_adapter@D@__crt_stdio_output@@V?$format_validation_base@DV?$stream_output_adapter@D@__crt_stdio_output@@@2@@__crt_stdio_output@@AEAAXI_N@Z 0000000180069260 f i libucrtd:output.obj
 0001:00068390       ??$type_case_integer_parse_into_buffer@I$0BA@@?$output_processor@DV?$stream_output_adapter@D@__crt_stdio_output@@V?$positional_parameter_base@DV?$stream_output_adapter@D@__crt_stdio_output@@@2@@__crt_stdio_output@@AEAAXI_N@Z 0000000180069390 f i libucrtd:output.obj
 0001:000684c0       ??$type_case_integer_parse_into_buffer@I$0BA@@?$output_processor@DV?$stream_output_adapter@D@__crt_stdio_output@@V?$standard_base@DV?$stream_output_adapter@D@__crt_stdio_output@@@2@@__crt_stdio_output@@AEAAXI_N@Z 00000001800694c0 f i libucrtd:output.obj
 0001:000685f0       ??$type_case_integer_parse_into_buffer@I$0BA@@?$output_processor@DV?$string_output_adapter@D@__crt_stdio_output@@V?$format_validation_base@DV?$string_output_adapter@D@__crt_stdio_output@@@2@@__crt_stdio_output@@AEAAXI_N@Z 00000001800695f0 f i libucrtd:output.obj
 0001:00068720       ??$type_case_integer_parse_into_buffer@I$0BA@@?$output_processor@DV?$string_output_adapter@D@__crt_stdio_output@@V?$positional_parameter_base@DV?$string_output_adapter@D@__crt_stdio_output@@@2@@__crt_stdio_output@@AEAAXI_N@Z 0000000180069720 f i libucrtd:output.obj
 0001:00068850       ??$type_case_integer_parse_into_buffer@I$0BA@@?$output_processor@DV?$string_output_adapter@D@__crt_stdio_output@@V?$standard_base@DV?$string_output_adapter@D@__crt_stdio_output@@@2@@__crt_stdio_output@@AEAAXI_N@Z 0000000180069850 f i libucrtd:output.obj
 0001:00068980       ??$type_case_integer_parse_into_buffer@I$0BA@@?$output_processor@_WV?$stream_output_adapter@_W@__crt_stdio_output@@V?$format_validation_base@_WV?$stream_output_adapter@_W@__crt_stdio_output@@@2@@__crt_stdio_output@@AEAAXI_N@Z 0000000180069980 f i libucrtd:output.obj
 0001:00068ac0       ??$type_case_integer_parse_into_buffer@I$0BA@@?$output_processor@_WV?$stream_output_adapter@_W@__crt_stdio_output@@V?$positional_parameter_base@_WV?$stream_output_adapter@_W@__crt_stdio_output@@@2@@__crt_stdio_output@@AEAAXI_N@Z 0000000180069ac0 f i libucrtd:output.obj
 0001:00068c00       ??$type_case_integer_parse_into_buffer@I$0BA@@?$output_processor@_WV?$stream_output_adapter@_W@__crt_stdio_output@@V?$standard_base@_WV?$stream_output_adapter@_W@__crt_stdio_output@@@2@@__crt_stdio_output@@AEAAXI_N@Z 0000000180069c00 f i libucrtd:output.obj
 0001:00068d40       ??$type_case_integer_parse_into_buffer@I$0BA@@?$output_processor@_WV?$string_output_adapter@_W@__crt_stdio_output@@V?$format_validation_base@_WV?$string_output_adapter@_W@__crt_stdio_output@@@2@@__crt_stdio_output@@AEAAXI_N@Z 0000000180069d40 f i libucrtd:output.obj
 0001:00068e80       ??$type_case_integer_parse_into_buffer@I$0BA@@?$output_processor@_WV?$string_output_adapter@_W@__crt_stdio_output@@V?$positional_parameter_base@_WV?$string_output_adapter@_W@__crt_stdio_output@@@2@@__crt_stdio_output@@AEAAXI_N@Z 0000000180069e80 f i libucrtd:output.obj
 0001:00068fc0       ??$type_case_integer_parse_into_buffer@I$0BA@@?$output_processor@_WV?$string_output_adapter@_W@__crt_stdio_output@@V?$standard_base@_WV?$string_output_adapter@_W@__crt_stdio_output@@@2@@__crt_stdio_output@@AEAAXI_N@Z 0000000180069fc0 f i libucrtd:output.obj
 0001:00069100       ??$type_case_integer_parse_into_buffer@_K$07@?$output_processor@DV?$stream_output_adapter@D@__crt_stdio_output@@V?$format_validation_base@DV?$stream_output_adapter@D@__crt_stdio_output@@@2@@__crt_stdio_output@@AEAAX_K_N@Z 000000018006a100 f i libucrtd:output.obj
 0001:00069240       ??$type_case_integer_parse_into_buffer@_K$07@?$output_processor@DV?$stream_output_adapter@D@__crt_stdio_output@@V?$positional_parameter_base@DV?$stream_output_adapter@D@__crt_stdio_output@@@2@@__crt_stdio_output@@AEAAX_K_N@Z 000000018006a240 f i libucrtd:output.obj
 0001:00069380       ??$type_case_integer_parse_into_buffer@_K$07@?$output_processor@DV?$stream_output_adapter@D@__crt_stdio_output@@V?$standard_base@DV?$stream_output_adapter@D@__crt_stdio_output@@@2@@__crt_stdio_output@@AEAAX_K_N@Z 000000018006a380 f i libucrtd:output.obj
 0001:000694c0       ??$type_case_integer_parse_into_buffer@_K$07@?$output_processor@DV?$string_output_adapter@D@__crt_stdio_output@@V?$format_validation_base@DV?$string_output_adapter@D@__crt_stdio_output@@@2@@__crt_stdio_output@@AEAAX_K_N@Z 000000018006a4c0 f i libucrtd:output.obj
 0001:00069600       ??$type_case_integer_parse_into_buffer@_K$07@?$output_processor@DV?$string_output_adapter@D@__crt_stdio_output@@V?$positional_parameter_base@DV?$string_output_adapter@D@__crt_stdio_output@@@2@@__crt_stdio_output@@AEAAX_K_N@Z 000000018006a600 f i libucrtd:output.obj
 0001:00069740       ??$type_case_integer_parse_into_buffer@_K$07@?$output_processor@DV?$string_output_adapter@D@__crt_stdio_output@@V?$standard_base@DV?$string_output_adapter@D@__crt_stdio_output@@@2@@__crt_stdio_output@@AEAAX_K_N@Z 000000018006a740 f i libucrtd:output.obj
 0001:00069880       ??$type_case_integer_parse_into_buffer@_K$07@?$output_processor@_WV?$stream_output_adapter@_W@__crt_stdio_output@@V?$format_validation_base@_WV?$stream_output_adapter@_W@__crt_stdio_output@@@2@@__crt_stdio_output@@AEAAX_K_N@Z 000000018006a880 f i libucrtd:output.obj
 0001:000699c0       ??$type_case_integer_parse_into_buffer@_K$07@?$output_processor@_WV?$stream_output_adapter@_W@__crt_stdio_output@@V?$positional_parameter_base@_WV?$stream_output_adapter@_W@__crt_stdio_output@@@2@@__crt_stdio_output@@AEAAX_K_N@Z 000000018006a9c0 f i libucrtd:output.obj
 0001:00069b00       ??$type_case_integer_parse_into_buffer@_K$07@?$output_processor@_WV?$stream_output_adapter@_W@__crt_stdio_output@@V?$standard_base@_WV?$stream_output_adapter@_W@__crt_stdio_output@@@2@@__crt_stdio_output@@AEAAX_K_N@Z 000000018006ab00 f i libucrtd:output.obj
 0001:00069c40       ??$type_case_integer_parse_into_buffer@_K$07@?$output_processor@_WV?$string_output_adapter@_W@__crt_stdio_output@@V?$format_validation_base@_WV?$string_output_adapter@_W@__crt_stdio_output@@@2@@__crt_stdio_output@@AEAAX_K_N@Z 000000018006ac40 f i libucrtd:output.obj
 0001:00069d80       ??$type_case_integer_parse_into_buffer@_K$07@?$output_processor@_WV?$string_output_adapter@_W@__crt_stdio_output@@V?$positional_parameter_base@_WV?$string_output_adapter@_W@__crt_stdio_output@@@2@@__crt_stdio_output@@AEAAX_K_N@Z 000000018006ad80 f i libucrtd:output.obj
 0001:00069ec0       ??$type_case_integer_parse_into_buffer@_K$07@?$output_processor@_WV?$string_output_adapter@_W@__crt_stdio_output@@V?$standard_base@_WV?$string_output_adapter@_W@__crt_stdio_output@@@2@@__crt_stdio_output@@AEAAX_K_N@Z 000000018006aec0 f i libucrtd:output.obj
 0001:0006a000       ??$type_case_integer_parse_into_buffer@_K$09@?$output_processor@DV?$stream_output_adapter@D@__crt_stdio_output@@V?$format_validation_base@DV?$stream_output_adapter@D@__crt_stdio_output@@@2@@__crt_stdio_output@@AEAAX_K_N@Z 000000018006b000 f i libucrtd:output.obj
 0001:0006a140       ??$type_case_integer_parse_into_buffer@_K$09@?$output_processor@DV?$stream_output_adapter@D@__crt_stdio_output@@V?$positional_parameter_base@DV?$stream_output_adapter@D@__crt_stdio_output@@@2@@__crt_stdio_output@@AEAAX_K_N@Z 000000018006b140 f i libucrtd:output.obj
 0001:0006a280       ??$type_case_integer_parse_into_buffer@_K$09@?$output_processor@DV?$stream_output_adapter@D@__crt_stdio_output@@V?$standard_base@DV?$stream_output_adapter@D@__crt_stdio_output@@@2@@__crt_stdio_output@@AEAAX_K_N@Z 000000018006b280 f i libucrtd:output.obj
 0001:0006a3c0       ??$type_case_integer_parse_into_buffer@_K$09@?$output_processor@DV?$string_output_adapter@D@__crt_stdio_output@@V?$format_validation_base@DV?$string_output_adapter@D@__crt_stdio_output@@@2@@__crt_stdio_output@@AEAAX_K_N@Z 000000018006b3c0 f i libucrtd:output.obj
 0001:0006a500       ??$type_case_integer_parse_into_buffer@_K$09@?$output_processor@DV?$string_output_adapter@D@__crt_stdio_output@@V?$positional_parameter_base@DV?$string_output_adapter@D@__crt_stdio_output@@@2@@__crt_stdio_output@@AEAAX_K_N@Z 000000018006b500 f i libucrtd:output.obj
 0001:0006a640       ??$type_case_integer_parse_into_buffer@_K$09@?$output_processor@DV?$string_output_adapter@D@__crt_stdio_output@@V?$standard_base@DV?$string_output_adapter@D@__crt_stdio_output@@@2@@__crt_stdio_output@@AEAAX_K_N@Z 000000018006b640 f i libucrtd:output.obj
 0001:0006a780       ??$type_case_integer_parse_into_buffer@_K$09@?$output_processor@_WV?$stream_output_adapter@_W@__crt_stdio_output@@V?$format_validation_base@_WV?$stream_output_adapter@_W@__crt_stdio_output@@@2@@__crt_stdio_output@@AEAAX_K_N@Z 000000018006b780 f i libucrtd:output.obj
 0001:0006a8c0       ??$type_case_integer_parse_into_buffer@_K$09@?$output_processor@_WV?$stream_output_adapter@_W@__crt_stdio_output@@V?$positional_parameter_base@_WV?$stream_output_adapter@_W@__crt_stdio_output@@@2@@__crt_stdio_output@@AEAAX_K_N@Z 000000018006b8c0 f i libucrtd:output.obj
 0001:0006aa00       ??$type_case_integer_parse_into_buffer@_K$09@?$output_processor@_WV?$stream_output_adapter@_W@__crt_stdio_output@@V?$standard_base@_WV?$stream_output_adapter@_W@__crt_stdio_output@@@2@@__crt_stdio_output@@AEAAX_K_N@Z 000000018006ba00 f i libucrtd:output.obj
 0001:0006ab40       ??$type_case_integer_parse_into_buffer@_K$09@?$output_processor@_WV?$string_output_adapter@_W@__crt_stdio_output@@V?$format_validation_base@_WV?$string_output_adapter@_W@__crt_stdio_output@@@2@@__crt_stdio_output@@AEAAX_K_N@Z 000000018006bb40 f i libucrtd:output.obj
 0001:0006ac80       ??$type_case_integer_parse_into_buffer@_K$09@?$output_processor@_WV?$string_output_adapter@_W@__crt_stdio_output@@V?$positional_parameter_base@_WV?$string_output_adapter@_W@__crt_stdio_output@@@2@@__crt_stdio_output@@AEAAX_K_N@Z 000000018006bc80 f i libucrtd:output.obj
 0001:0006adc0       ??$type_case_integer_parse_into_buffer@_K$09@?$output_processor@_WV?$string_output_adapter@_W@__crt_stdio_output@@V?$standard_base@_WV?$string_output_adapter@_W@__crt_stdio_output@@@2@@__crt_stdio_output@@AEAAX_K_N@Z 000000018006bdc0 f i libucrtd:output.obj
 0001:0006af00       ??$type_case_integer_parse_into_buffer@_K$0BA@@?$output_processor@DV?$stream_output_adapter@D@__crt_stdio_output@@V?$format_validation_base@DV?$stream_output_adapter@D@__crt_stdio_output@@@2@@__crt_stdio_output@@AEAAX_K_N@Z 000000018006bf00 f i libucrtd:output.obj
 0001:0006b040       ??$type_case_integer_parse_into_buffer@_K$0BA@@?$output_processor@DV?$stream_output_adapter@D@__crt_stdio_output@@V?$positional_parameter_base@DV?$stream_output_adapter@D@__crt_stdio_output@@@2@@__crt_stdio_output@@AEAAX_K_N@Z 000000018006c040 f i libucrtd:output.obj
 0001:0006b180       ??$type_case_integer_parse_into_buffer@_K$0BA@@?$output_processor@DV?$stream_output_adapter@D@__crt_stdio_output@@V?$standard_base@DV?$stream_output_adapter@D@__crt_stdio_output@@@2@@__crt_stdio_output@@AEAAX_K_N@Z 000000018006c180 f i libucrtd:output.obj
 0001:0006b2c0       ??$type_case_integer_parse_into_buffer@_K$0BA@@?$output_processor@DV?$string_output_adapter@D@__crt_stdio_output@@V?$format_validation_base@DV?$string_output_adapter@D@__crt_stdio_output@@@2@@__crt_stdio_output@@AEAAX_K_N@Z 000000018006c2c0 f i libucrtd:output.obj
 0001:0006b400       ??$type_case_integer_parse_into_buffer@_K$0BA@@?$output_processor@DV?$string_output_adapter@D@__crt_stdio_output@@V?$positional_parameter_base@DV?$string_output_adapter@D@__crt_stdio_output@@@2@@__crt_stdio_output@@AEAAX_K_N@Z 000000018006c400 f i libucrtd:output.obj
 0001:0006b540       ??$type_case_integer_parse_into_buffer@_K$0BA@@?$output_processor@DV?$string_output_adapter@D@__crt_stdio_output@@V?$standard_base@DV?$string_output_adapter@D@__crt_stdio_output@@@2@@__crt_stdio_output@@AEAAX_K_N@Z 000000018006c540 f i libucrtd:output.obj
 0001:0006b680       ??$type_case_integer_parse_into_buffer@_K$0BA@@?$output_processor@_WV?$stream_output_adapter@_W@__crt_stdio_output@@V?$format_validation_base@_WV?$stream_output_adapter@_W@__crt_stdio_output@@@2@@__crt_stdio_output@@AEAAX_K_N@Z 000000018006c680 f i libucrtd:output.obj
 0001:0006b7c0       ??$type_case_integer_parse_into_buffer@_K$0BA@@?$output_processor@_WV?$stream_output_adapter@_W@__crt_stdio_output@@V?$positional_parameter_base@_WV?$stream_output_adapter@_W@__crt_stdio_output@@@2@@__crt_stdio_output@@AEAAX_K_N@Z 000000018006c7c0 f i libucrtd:output.obj
 0001:0006b900       ??$type_case_integer_parse_into_buffer@_K$0BA@@?$output_processor@_WV?$stream_output_adapter@_W@__crt_stdio_output@@V?$standard_base@_WV?$stream_output_adapter@_W@__crt_stdio_output@@@2@@__crt_stdio_output@@AEAAX_K_N@Z 000000018006c900 f i libucrtd:output.obj
 0001:0006ba40       ??$type_case_integer_parse_into_buffer@_K$0BA@@?$output_processor@_WV?$string_output_adapter@_W@__crt_stdio_output@@V?$format_validation_base@_WV?$string_output_adapter@_W@__crt_stdio_output@@@2@@__crt_stdio_output@@AEAAX_K_N@Z 000000018006ca40 f i libucrtd:output.obj
 0001:0006bb80       ??$type_case_integer_parse_into_buffer@_K$0BA@@?$output_processor@_WV?$string_output_adapter@_W@__crt_stdio_output@@V?$positional_parameter_base@_WV?$string_output_adapter@_W@__crt_stdio_output@@@2@@__crt_stdio_output@@AEAAX_K_N@Z 000000018006cb80 f i libucrtd:output.obj
 0001:0006bcc0       ??$type_case_integer_parse_into_buffer@_K$0BA@@?$output_processor@_WV?$string_output_adapter@_W@__crt_stdio_output@@V?$standard_base@_WV?$string_output_adapter@_W@__crt_stdio_output@@@2@@__crt_stdio_output@@AEAAX_K_N@Z 000000018006ccc0 f i libucrtd:output.obj
 0001:0006be00       ??$write_multiple_characters@V?$stream_output_adapter@D@__crt_stdio_output@@D@__crt_stdio_output@@YAXAEBV?$stream_output_adapter@D@0@DHQEAHAEAV__crt_cached_ptd_host@@@Z 000000018006ce00 f i libucrtd:output.obj
 0001:0006be70       ??$write_multiple_characters@V?$stream_output_adapter@_W@__crt_stdio_output@@D@__crt_stdio_output@@YAXAEBV?$stream_output_adapter@_W@0@DHQEAHAEAV__crt_cached_ptd_host@@@Z 000000018006ce70 f i libucrtd:output.obj
 0001:0006bee0       ??$write_multiple_characters@V?$string_output_adapter@D@__crt_stdio_output@@D@__crt_stdio_output@@YAXAEBV?$string_output_adapter@D@0@DHQEAHAEAV__crt_cached_ptd_host@@@Z 000000018006cee0 f i libucrtd:output.obj
 0001:0006bf50       ??$write_multiple_characters@V?$string_output_adapter@_W@__crt_stdio_output@@D@__crt_stdio_output@@YAXAEBV?$string_output_adapter@_W@0@DHQEAHAEAV__crt_cached_ptd_host@@@Z 000000018006cf50 f i libucrtd:output.obj
 0001:0006c380       ??0?$c_string_character_source@D@__crt_strtox@@QEAA@QEBDQEAPEBD@Z 000000018006d380 f i libucrtd:output.obj
 0001:0006c3d0       ??0?$c_string_character_source@_W@__crt_strtox@@QEAA@QEB_WQEAPEB_W@Z 000000018006d3d0 f i libucrtd:output.obj
 0001:0006c420       ??0?$cached@H@__crt_cached_ptd_host@@QEAA@XZ 000000018006d420 f i libucrtd:output.obj
 0001:0006c440       ??0?$cached@K@__crt_cached_ptd_host@@QEAA@XZ 000000018006d440 f i libucrtd:output.obj
 0001:0006c460       ??0?$common_data@D@__crt_stdio_output@@IEAA@AEAV__crt_cached_ptd_host@@@Z 000000018006d460 f i libucrtd:output.obj
 0001:0006c520       ??0?$common_data@_W@__crt_stdio_output@@IEAA@AEAV__crt_cached_ptd_host@@@Z 000000018006d520 f i libucrtd:output.obj
 0001:0006c5e0       ??0?$output_adapter_data@DV?$stream_output_adapter@D@__crt_stdio_output@@@__crt_stdio_output@@IEAA@AEBV?$stream_output_adapter@D@1@_KQEBDAEAV__crt_cached_ptd_host@@QEAD@Z 000000018006d5e0 f i libucrtd:output.obj
 0001:0006c660       ??0?$output_adapter_data@DV?$string_output_adapter@D@__crt_stdio_output@@@__crt_stdio_output@@IEAA@AEBV?$string_output_adapter@D@1@_KQEBDAEAV__crt_cached_ptd_host@@QEAD@Z 000000018006d660 f i libucrtd:output.obj
 0001:0006c6e0       ??0?$output_adapter_data@_WV?$stream_output_adapter@_W@__crt_stdio_output@@@__crt_stdio_output@@IEAA@AEBV?$stream_output_adapter@_W@1@_KQEB_WAEAV__crt_cached_ptd_host@@QEAD@Z 000000018006d6e0 f i libucrtd:output.obj
 0001:0006c760       ??0?$output_adapter_data@_WV?$string_output_adapter@_W@__crt_stdio_output@@@__crt_stdio_output@@IEAA@AEBV?$string_output_adapter@_W@1@_KQEB_WAEAV__crt_cached_ptd_host@@QEAD@Z 000000018006d760 f i libucrtd:output.obj
 0001:0006c7e0       ??0?$output_processor@DV?$stream_output_adapter@D@__crt_stdio_output@@V?$format_validation_base@DV?$stream_output_adapter@D@__crt_stdio_output@@@2@@__crt_stdio_output@@QEAA@AEBV?$stream_output_adapter@D@1@_KQEBDAEAV__crt_cached_ptd_host@@QEAD@Z 000000018006d7e0 f i libucrtd:output.obj
 0001:0006c830       ??0?$output_processor@DV?$stream_output_adapter@D@__crt_stdio_output@@V?$positional_parameter_base@DV?$stream_output_adapter@D@__crt_stdio_output@@@2@@__crt_stdio_output@@QEAA@AEBV?$stream_output_adapter@D@1@_KQEBDAEAV__crt_cached_ptd_host@@QEAD@Z 000000018006d830 f i libucrtd:output.obj
 0001:0006c880       ??0?$output_processor@DV?$stream_output_adapter@D@__crt_stdio_output@@V?$standard_base@DV?$stream_output_adapter@D@__crt_stdio_output@@@2@@__crt_stdio_output@@QEAA@AEBV?$stream_output_adapter@D@1@_KQEBDAEAV__crt_cached_ptd_host@@QEAD@Z 000000018006d880 f i libucrtd:output.obj
 0001:0006c8d0       ??0?$output_processor@DV?$string_output_adapter@D@__crt_stdio_output@@V?$format_validation_base@DV?$string_output_adapter@D@__crt_stdio_output@@@2@@__crt_stdio_output@@QEAA@AEBV?$string_output_adapter@D@1@_KQEBDAEAV__crt_cached_ptd_host@@QEAD@Z 000000018006d8d0 f i libucrtd:output.obj
 0001:0006c920       ??0?$output_processor@DV?$string_output_adapter@D@__crt_stdio_output@@V?$positional_parameter_base@DV?$string_output_adapter@D@__crt_stdio_output@@@2@@__crt_stdio_output@@QEAA@AEBV?$string_output_adapter@D@1@_KQEBDAEAV__crt_cached_ptd_host@@QEAD@Z 000000018006d920 f i libucrtd:output.obj
 0001:0006c970       ??0?$output_processor@DV?$string_output_adapter@D@__crt_stdio_output@@V?$standard_base@DV?$string_output_adapter@D@__crt_stdio_output@@@2@@__crt_stdio_output@@QEAA@AEBV?$string_output_adapter@D@1@_KQEBDAEAV__crt_cached_ptd_host@@QEAD@Z 000000018006d970 f i libucrtd:output.obj
 0001:0006c9c0       ??0?$output_processor@_WV?$stream_output_adapter@_W@__crt_stdio_output@@V?$format_validation_base@_WV?$stream_output_adapter@_W@__crt_stdio_output@@@2@@__crt_stdio_output@@QEAA@AEBV?$stream_output_adapter@_W@1@_KQEB_WAEAV__crt_cached_ptd_host@@QEAD@Z 000000018006d9c0 f i libucrtd:output.obj
 0001:0006ca10       ??0?$output_processor@_WV?$stream_output_adapter@_W@__crt_stdio_output@@V?$positional_parameter_base@_WV?$stream_output_adapter@_W@__crt_stdio_output@@@2@@__crt_stdio_output@@QEAA@AEBV?$stream_output_adapter@_W@1@_KQEB_WAEAV__crt_cached_ptd_host@@QEAD@Z 000000018006da10 f i libucrtd:output.obj
 0001:0006ca60       ??0?$output_processor@_WV?$stream_output_adapter@_W@__crt_stdio_output@@V?$standard_base@_WV?$stream_output_adapter@_W@__crt_stdio_output@@@2@@__crt_stdio_output@@QEAA@AEBV?$stream_output_adapter@_W@1@_KQEB_WAEAV__crt_cached_ptd_host@@QEAD@Z 000000018006da60 f i libucrtd:output.obj
 0001:0006cab0       ??0?$output_processor@_WV?$string_output_adapter@_W@__crt_stdio_output@@V?$format_validation_base@_WV?$string_output_adapter@_W@__crt_stdio_output@@@2@@__crt_stdio_output@@QEAA@AEBV?$string_output_adapter@_W@1@_KQEB_WAEAV__crt_cached_ptd_host@@QEAD@Z 000000018006dab0 f i libucrtd:output.obj
 0001:0006cb00       ??0?$output_processor@_WV?$string_output_adapter@_W@__crt_stdio_output@@V?$positional_parameter_base@_WV?$string_output_adapter@_W@__crt_stdio_output@@@2@@__crt_stdio_output@@QEAA@AEBV?$string_output_adapter@_W@1@_KQEB_WAEAV__crt_cached_ptd_host@@QEAD@Z 000000018006db00 f i libucrtd:output.obj
 0001:0006cb50       ??0?$output_processor@_WV?$string_output_adapter@_W@__crt_stdio_output@@V?$standard_base@_WV?$string_output_adapter@_W@__crt_stdio_output@@@2@@__crt_stdio_output@@QEAA@AEBV?$string_output_adapter@_W@1@_KQEB_WAEAV__crt_cached_ptd_host@@QEAD@Z 000000018006db50 f i libucrtd:output.obj
 0001:0006cba0       ??0?$stream_output_adapter@D@__crt_stdio_output@@QEAA@QEAU_iobuf@@@Z 000000018006dba0 f i libucrtd:output.obj
 0001:0006cbe0       ??0?$stream_output_adapter@_W@__crt_stdio_output@@QEAA@QEAU_iobuf@@@Z 000000018006dbe0 f i libucrtd:output.obj
 0001:0006cc20       ??0?$string_output_adapter@D@__crt_stdio_output@@QEAA@QEAU?$string_output_adapter_context@D@1@@Z 000000018006dc20 f i libucrtd:output.obj
 0001:0006cc40       ??0?$string_output_adapter@_W@__crt_stdio_output@@QEAA@QEAU?$string_output_adapter_context@_W@1@@Z 000000018006dc40 f i libucrtd:output.obj
 0001:0006cc60       ??0__acrt_stdio_temporary_buffering_guard@@QEAA@QEAU_iobuf@@AEAV__crt_cached_ptd_host@@@Z 000000018006dc60 f i libucrtd:output.obj
 0001:0006ccb0       ??0__crt_cached_ptd_host@@QEAA@QEAU__crt_locale_pointers@@@Z 000000018006dcb0 f i libucrtd:output.obj
 0001:0006cd70       ??0__crt_scoped_get_last_error_reset@@QEAA@XZ 000000018006dd70 f i libucrtd:output.obj
 0001:0006cd90       ??0__crt_stdio_stream@@QEAA@QEAU_iobuf@@@Z 000000018006dd90 f i libucrtd:output.obj
 0001:0006cdb0       ??0formatting_buffer@__crt_stdio_output@@QEAA@XZ 000000018006ddb0 f i libucrtd:output.obj
 0001:0006cdf0       ??0guard@?$cached@H@__crt_cached_ptd_host@@QEAA@AEAU12@@Z 000000018006ddf0 f i libucrtd:output.obj
 0001:0006ce30       ??1?$c_string_character_source@D@__crt_strtox@@QEAA@XZ 000000018006de30 f i libucrtd:output.obj
 0001:0006ce60       ??1?$c_string_character_source@_W@__crt_strtox@@QEAA@XZ 000000018006de60 f i libucrtd:output.obj
 0001:0006ce90       ??1?$common_data@D@__crt_stdio_output@@QEAA@XZ 000000018006de90 f i libucrtd:output.obj
 0001:0006ceb0       ??1?$common_data@_W@__crt_stdio_output@@QEAA@XZ 000000018006deb0 f i libucrtd:output.obj
 0001:0006ced0       ??1?$format_validation_base@DV?$stream_output_adapter@D@__crt_stdio_output@@@__crt_stdio_output@@QEAA@XZ 000000018006ded0 f i libucrtd:output.obj
 0001:0006cef0       ??1?$format_validation_base@DV?$string_output_adapter@D@__crt_stdio_output@@@__crt_stdio_output@@QEAA@XZ 000000018006def0 f i libucrtd:output.obj
 0001:0006cf10       ??1?$format_validation_base@_WV?$stream_output_adapter@_W@__crt_stdio_output@@@__crt_stdio_output@@QEAA@XZ 000000018006df10 f i libucrtd:output.obj
 0001:0006cf30       ??1?$format_validation_base@_WV?$string_output_adapter@_W@__crt_stdio_output@@@__crt_stdio_output@@QEAA@XZ 000000018006df30 f i libucrtd:output.obj
 0001:0006cf50       ??1?$output_adapter_data@DV?$stream_output_adapter@D@__crt_stdio_output@@@__crt_stdio_output@@QEAA@XZ 000000018006df50 f i libucrtd:output.obj
 0001:0006cf70       ??1?$output_adapter_data@DV?$string_output_adapter@D@__crt_stdio_output@@@__crt_stdio_output@@QEAA@XZ 000000018006df70 f i libucrtd:output.obj
 0001:0006cf90       ??1?$output_adapter_data@_WV?$stream_output_adapter@_W@__crt_stdio_output@@@__crt_stdio_output@@QEAA@XZ 000000018006df90 f i libucrtd:output.obj
 0001:0006cfb0       ??1?$output_adapter_data@_WV?$string_output_adapter@_W@__crt_stdio_output@@@__crt_stdio_output@@QEAA@XZ 000000018006dfb0 f i libucrtd:output.obj
 0001:0006cfd0       ??1?$output_processor@DV?$stream_output_adapter@D@__crt_stdio_output@@V?$format_validation_base@DV?$stream_output_adapter@D@__crt_stdio_output@@@2@@__crt_stdio_output@@QEAA@XZ 000000018006dfd0 f i libucrtd:output.obj
 0001:0006cff0       ??1?$output_processor@DV?$stream_output_adapter@D@__crt_stdio_output@@V?$positional_parameter_base@DV?$stream_output_adapter@D@__crt_stdio_output@@@2@@__crt_stdio_output@@QEAA@XZ 000000018006dff0 f i libucrtd:output.obj
 0001:0006d010       ??1?$output_processor@DV?$stream_output_adapter@D@__crt_stdio_output@@V?$standard_base@DV?$stream_output_adapter@D@__crt_stdio_output@@@2@@__crt_stdio_output@@QEAA@XZ 000000018006e010 f i libucrtd:output.obj
 0001:0006d030       ??1?$output_processor@DV?$string_output_adapter@D@__crt_stdio_output@@V?$format_validation_base@DV?$string_output_adapter@D@__crt_stdio_output@@@2@@__crt_stdio_output@@QEAA@XZ 000000018006e030 f i libucrtd:output.obj
 0001:0006d050       ??1?$output_processor@DV?$string_output_adapter@D@__crt_stdio_output@@V?$positional_parameter_base@DV?$string_output_adapter@D@__crt_stdio_output@@@2@@__crt_stdio_output@@QEAA@XZ 000000018006e050 f i libucrtd:output.obj
 0001:0006d070       ??1?$output_processor@DV?$string_output_adapter@D@__crt_stdio_output@@V?$standard_base@DV?$string_output_adapter@D@__crt_stdio_output@@@2@@__crt_stdio_output@@QEAA@XZ 000000018006e070 f i libucrtd:output.obj
 0001:0006d090       ??1?$output_processor@_WV?$stream_output_adapter@_W@__crt_stdio_output@@V?$format_validation_base@_WV?$stream_output_adapter@_W@__crt_stdio_output@@@2@@__crt_stdio_output@@QEAA@XZ 000000018006e090 f i libucrtd:output.obj
 0001:0006d0b0       ??1?$output_processor@_WV?$stream_output_adapter@_W@__crt_stdio_output@@V?$positional_parameter_base@_WV?$stream_output_adapter@_W@__crt_stdio_output@@@2@@__crt_stdio_output@@QEAA@XZ 000000018006e0b0 f i libucrtd:output.obj
 0001:0006d0d0       ??1?$output_processor@_WV?$stream_output_adapter@_W@__crt_stdio_output@@V?$standard_base@_WV?$stream_output_adapter@_W@__crt_stdio_output@@@2@@__crt_stdio_output@@QEAA@XZ 000000018006e0d0 f i libucrtd:output.obj
 0001:0006d0f0       ??1?$output_processor@_WV?$string_output_adapter@_W@__crt_stdio_output@@V?$format_validation_base@_WV?$string_output_adapter@_W@__crt_stdio_output@@@2@@__crt_stdio_output@@QEAA@XZ 000000018006e0f0 f i libucrtd:output.obj
 0001:0006d110       ??1?$output_processor@_WV?$string_output_adapter@_W@__crt_stdio_output@@V?$positional_parameter_base@_WV?$string_output_adapter@_W@__crt_stdio_output@@@2@@__crt_stdio_output@@QEAA@XZ 000000018006e110 f i libucrtd:output.obj
 0001:0006d130       ??1?$output_processor@_WV?$string_output_adapter@_W@__crt_stdio_output@@V?$standard_base@_WV?$string_output_adapter@_W@__crt_stdio_output@@@2@@__crt_stdio_output@@QEAA@XZ 000000018006e130 f i libucrtd:output.obj
 0001:0006d150       ??1?$positional_parameter_base@DV?$stream_output_adapter@D@__crt_stdio_output@@@__crt_stdio_output@@QEAA@XZ 000000018006e150 f i libucrtd:output.obj
 0001:0006d170       ??1?$positional_parameter_base@DV?$string_output_adapter@D@__crt_stdio_output@@@__crt_stdio_output@@QEAA@XZ 000000018006e170 f i libucrtd:output.obj
 0001:0006d190       ??1?$positional_parameter_base@_WV?$stream_output_adapter@_W@__crt_stdio_output@@@__crt_stdio_output@@QEAA@XZ 000000018006e190 f i libucrtd:output.obj
 0001:0006d1b0       ??1?$positional_parameter_base@_WV?$string_output_adapter@_W@__crt_stdio_output@@@__crt_stdio_output@@QEAA@XZ 000000018006e1b0 f i libucrtd:output.obj
 0001:0006d1d0       ??1?$standard_base@DV?$stream_output_adapter@D@__crt_stdio_output@@@__crt_stdio_output@@QEAA@XZ 000000018006e1d0 f i libucrtd:output.obj
 0001:0006d1f0       ??1?$standard_base@DV?$string_output_adapter@D@__crt_stdio_output@@@__crt_stdio_output@@QEAA@XZ 000000018006e1f0 f i libucrtd:output.obj
 0001:0006d210       ??1?$standard_base@_WV?$stream_output_adapter@_W@__crt_stdio_output@@@__crt_stdio_output@@QEAA@XZ 000000018006e210 f i libucrtd:output.obj
 0001:0006d230       ??1?$standard_base@_WV?$string_output_adapter@_W@__crt_stdio_output@@@__crt_stdio_output@@QEAA@XZ 000000018006e230 f i libucrtd:output.obj
 0001:0006d250       ??1__acrt_stdio_temporary_buffering_guard@@QEAA@XZ 000000018006e250 f i libucrtd:output.obj
 0001:0006d280       ??1__crt_cached_ptd_host@@QEAA@XZ 000000018006e280 f i libucrtd:output.obj
 0001:0006d330       ??1__crt_scoped_get_last_error_reset@@QEAA@XZ 000000018006e330 f i libucrtd:output.obj
 0001:0006d350       ??1formatting_buffer@__crt_stdio_output@@QEAA@XZ 000000018006e350 f i libucrtd:output.obj
 0001:0006d380       ??1guard@?$cached@H@__crt_cached_ptd_host@@QEAA@XZ 000000018006e380 f i libucrtd:output.obj
 0001:0006d3b0       ??4?$__crt_unique_heap_ptr@DU__crt_internal_free_policy@@@@QEAAAEAV0@$$QEAV0@@Z 000000018006e3b0 f i libucrtd:output.obj
 0001:0006d3f0       ??A?$spectre_mitigated_lookup_table@Ustate_transition_pair@__crt_stdio_output@@$0IA@@__crt_stdio_output@@QEBAAEBUstate_transition_pair@1@_K@Z 000000018006e3f0 f i libucrtd:output.obj
 0001:0006d410       ??C__crt_stdio_stream@@QEBAPEAU__crt_stdio_stream_data@@XZ 000000018006e410 f i libucrtd:output.obj
 0001:0006dc60       ?__crt_interlocked_read_32@@YAHPEDH@Z 000000018006ec60 f i libucrtd:output.obj
 0001:0006dc80       ?adjust_hexit@?$output_processor@DV?$stream_output_adapter@D@__crt_stdio_output@@V?$format_validation_base@DV?$stream_output_adapter@D@__crt_stdio_output@@@2@@__crt_stdio_output@@CADH_N@Z 000000018006ec80 f i libucrtd:output.obj
 0001:0006dcd0       ?adjust_hexit@?$output_processor@DV?$stream_output_adapter@D@__crt_stdio_output@@V?$positional_parameter_base@DV?$stream_output_adapter@D@__crt_stdio_output@@@2@@__crt_stdio_output@@CADH_N@Z 000000018006ecd0 f i libucrtd:output.obj
 0001:0006dd20       ?adjust_hexit@?$output_processor@DV?$stream_output_adapter@D@__crt_stdio_output@@V?$standard_base@DV?$stream_output_adapter@D@__crt_stdio_output@@@2@@__crt_stdio_output@@CADH_N@Z 000000018006ed20 f i libucrtd:output.obj
 0001:0006dd70       ?adjust_hexit@?$output_processor@DV?$string_output_adapter@D@__crt_stdio_output@@V?$format_validation_base@DV?$string_output_adapter@D@__crt_stdio_output@@@2@@__crt_stdio_output@@CADH_N@Z 000000018006ed70 f i libucrtd:output.obj
 0001:0006ddc0       ?adjust_hexit@?$output_processor@DV?$string_output_adapter@D@__crt_stdio_output@@V?$positional_parameter_base@DV?$string_output_adapter@D@__crt_stdio_output@@@2@@__crt_stdio_output@@CADH_N@Z 000000018006edc0 f i libucrtd:output.obj
 0001:0006de10       ?adjust_hexit@?$output_processor@DV?$string_output_adapter@D@__crt_stdio_output@@V?$standard_base@DV?$string_output_adapter@D@__crt_stdio_output@@@2@@__crt_stdio_output@@CADH_N@Z 000000018006ee10 f i libucrtd:output.obj
 0001:0006de60       ?adjust_hexit@?$output_processor@_WV?$stream_output_adapter@_W@__crt_stdio_output@@V?$format_validation_base@_WV?$stream_output_adapter@_W@__crt_stdio_output@@@2@@__crt_stdio_output@@CADH_N@Z 000000018006ee60 f i libucrtd:output.obj
 0001:0006deb0       ?adjust_hexit@?$output_processor@_WV?$stream_output_adapter@_W@__crt_stdio_output@@V?$positional_parameter_base@_WV?$stream_output_adapter@_W@__crt_stdio_output@@@2@@__crt_stdio_output@@CADH_N@Z 000000018006eeb0 f i libucrtd:output.obj
 0001:0006df00       ?adjust_hexit@?$output_processor@_WV?$stream_output_adapter@_W@__crt_stdio_output@@V?$standard_base@_WV?$stream_output_adapter@_W@__crt_stdio_output@@@2@@__crt_stdio_output@@CADH_N@Z 000000018006ef00 f i libucrtd:output.obj
 0001:0006df50       ?adjust_hexit@?$output_processor@_WV?$string_output_adapter@_W@__crt_stdio_output@@V?$format_validation_base@_WV?$string_output_adapter@_W@__crt_stdio_output@@@2@@__crt_stdio_output@@CADH_N@Z 000000018006ef50 f i libucrtd:output.obj
 0001:0006dfa0       ?adjust_hexit@?$output_processor@_WV?$string_output_adapter@_W@__crt_stdio_output@@V?$positional_parameter_base@_WV?$string_output_adapter@_W@__crt_stdio_output@@@2@@__crt_stdio_output@@CADH_N@Z 000000018006efa0 f i libucrtd:output.obj
 0001:0006dff0       ?adjust_hexit@?$output_processor@_WV?$string_output_adapter@_W@__crt_stdio_output@@V?$standard_base@_WV?$string_output_adapter@_W@__crt_stdio_output@@@2@@__crt_stdio_output@@CADH_N@Z 000000018006eff0 f i libucrtd:output.obj
 0001:0006e040       ?advance_to_next_pass@?$positional_parameter_base@DV?$stream_output_adapter@D@__crt_stdio_output@@@__crt_stdio_output@@IEAA_NXZ 000000018006f040 f i libucrtd:output.obj
 0001:0006e0f0       ?advance_to_next_pass@?$positional_parameter_base@DV?$string_output_adapter@D@__crt_stdio_output@@@__crt_stdio_output@@IEAA_NXZ 000000018006f0f0 f i libucrtd:output.obj
 0001:0006e1a0       ?advance_to_next_pass@?$positional_parameter_base@_WV?$stream_output_adapter@_W@__crt_stdio_output@@@__crt_stdio_output@@IEAA_NXZ 000000018006f1a0 f i libucrtd:output.obj
 0001:0006e250       ?advance_to_next_pass@?$positional_parameter_base@_WV?$string_output_adapter@_W@__crt_stdio_output@@@__crt_stdio_output@@IEAA_NXZ 000000018006f250 f i libucrtd:output.obj
 0001:0006e300       ?advance_to_next_pass@?$standard_base@DV?$stream_output_adapter@D@__crt_stdio_output@@@__crt_stdio_output@@IEAA_NXZ 000000018006f300 f i libucrtd:output.obj
 0001:0006e350       ?advance_to_next_pass@?$standard_base@DV?$string_output_adapter@D@__crt_stdio_output@@@__crt_stdio_output@@IEAA_NXZ 000000018006f350 f i libucrtd:output.obj
 0001:0006e3a0       ?advance_to_next_pass@?$standard_base@_WV?$stream_output_adapter@_W@__crt_stdio_output@@@__crt_stdio_output@@IEAA_NXZ 000000018006f3a0 f i libucrtd:output.obj
 0001:0006e3f0       ?advance_to_next_pass@?$standard_base@_WV?$string_output_adapter@_W@__crt_stdio_output@@@__crt_stdio_output@@IEAA_NXZ 000000018006f3f0 f i libucrtd:output.obj
 0001:0006e440       ?check@?$cached@H@__crt_cached_ptd_host@@QEBA_NH@Z 000000018006f440 f i libucrtd:output.obj
 0001:0006e480       ?check_synchronize_global_state_index@__crt_cached_ptd_host@@AEAA_KAEBV__crt_scoped_get_last_error_reset@@@Z 000000018006f480 f i libucrtd:output.obj
 0001:0006e4c0       ?check_synchronize_per_thread_data@__crt_cached_ptd_host@@AEAAPEAU__acrt_ptd@@XZ 000000018006f4c0 f i libucrtd:output.obj
 0001:0006e500       ?create_guard@?$cached@H@__crt_cached_ptd_host@@QEAA?AVguard@12@XZ 000000018006f500 f i libucrtd:output.obj
 0001:0006e530       ?crop_zeroes@__crt_stdio_output@@YAXPEADQEAU__crt_locale_pointers@@@Z 000000018006f530 f i libucrtd:output.obj
 0001:0006e680       ?disable@guard@?$cached@H@__crt_cached_ptd_host@@QEAAXXZ 000000018006f680 f i libucrtd:output.obj
 0001:0006e690       ?enable@guard@?$cached@H@__crt_cached_ptd_host@@QEAAXXZ 000000018006f690 f i libucrtd:output.obj
 0001:0006e6a0       ?find_next_state@?$output_processor@DV?$stream_output_adapter@D@__crt_stdio_output@@V?$format_validation_base@DV?$stream_output_adapter@D@__crt_stdio_output@@@2@@__crt_stdio_output@@AEBA?AW4state@2@DW432@@Z 000000018006f6a0 f i libucrtd:output.obj
 0001:0006e740       ?find_next_state@?$output_processor@DV?$stream_output_adapter@D@__crt_stdio_output@@V?$positional_parameter_base@DV?$stream_output_adapter@D@__crt_stdio_output@@@2@@__crt_stdio_output@@AEBA?AW4state@2@DW432@@Z 000000018006f740 f i libucrtd:output.obj
 0001:0006e7e0       ?find_next_state@?$output_processor@DV?$stream_output_adapter@D@__crt_stdio_output@@V?$standard_base@DV?$stream_output_adapter@D@__crt_stdio_output@@@2@@__crt_stdio_output@@AEBA?AW4state@2@DW432@@Z 000000018006f7e0 f i libucrtd:output.obj
 0001:0006e880       ?find_next_state@?$output_processor@DV?$string_output_adapter@D@__crt_stdio_output@@V?$format_validation_base@DV?$string_output_adapter@D@__crt_stdio_output@@@2@@__crt_stdio_output@@AEBA?AW4state@2@DW432@@Z 000000018006f880 f i libucrtd:output.obj
 0001:0006e920       ?find_next_state@?$output_processor@DV?$string_output_adapter@D@__crt_stdio_output@@V?$positional_parameter_base@DV?$string_output_adapter@D@__crt_stdio_output@@@2@@__crt_stdio_output@@AEBA?AW4state@2@DW432@@Z 000000018006f920 f i libucrtd:output.obj
 0001:0006e9c0       ?find_next_state@?$output_processor@DV?$string_output_adapter@D@__crt_stdio_output@@V?$standard_base@DV?$string_output_adapter@D@__crt_stdio_output@@@2@@__crt_stdio_output@@AEBA?AW4state@2@DW432@@Z 000000018006f9c0 f i libucrtd:output.obj
 0001:0006ea60       ?find_next_state@?$output_processor@_WV?$stream_output_adapter@_W@__crt_stdio_output@@V?$format_validation_base@_WV?$stream_output_adapter@_W@__crt_stdio_output@@@2@@__crt_stdio_output@@AEBA?AW4state@2@_WW432@@Z 000000018006fa60 f i libucrtd:output.obj
 0001:0006eb00       ?find_next_state@?$output_processor@_WV?$stream_output_adapter@_W@__crt_stdio_output@@V?$positional_parameter_base@_WV?$stream_output_adapter@_W@__crt_stdio_output@@@2@@__crt_stdio_output@@AEBA?AW4state@2@_WW432@@Z 000000018006fb00 f i libucrtd:output.obj
 0001:0006eba0       ?find_next_state@?$output_processor@_WV?$stream_output_adapter@_W@__crt_stdio_output@@V?$standard_base@_WV?$stream_output_adapter@_W@__crt_stdio_output@@@2@@__crt_stdio_output@@AEBA?AW4state@2@_WW432@@Z 000000018006fba0 f i libucrtd:output.obj
 0001:0006ec40       ?find_next_state@?$output_processor@_WV?$string_output_adapter@_W@__crt_stdio_output@@V?$format_validation_base@_WV?$string_output_adapter@_W@__crt_stdio_output@@@2@@__crt_stdio_output@@AEBA?AW4state@2@_WW432@@Z 000000018006fc40 f i libucrtd:output.obj
 0001:0006ece0       ?find_next_state@?$output_processor@_WV?$string_output_adapter@_W@__crt_stdio_output@@V?$positional_parameter_base@_WV?$string_output_adapter@_W@__crt_stdio_output@@@2@@__crt_stdio_output@@AEBA?AW4state@2@_WW432@@Z 000000018006fce0 f i libucrtd:output.obj
 0001:0006ed80       ?find_next_state@?$output_processor@_WV?$string_output_adapter@_W@__crt_stdio_output@@V?$standard_base@_WV?$string_output_adapter@_W@__crt_stdio_output@@@2@@__crt_stdio_output@@AEBA?AW4state@2@_WW432@@Z 000000018006fd80 f i libucrtd:output.obj
 0001:0006ee20       ?force_decimal_point@__crt_stdio_output@@YAXPEADQEAU__crt_locale_pointers@@@Z 000000018006fe20 f i libucrtd:output.obj
 0001:0006ef20       ?force_synchronize_global_state_index@__crt_cached_ptd_host@@AEAA_KAEBV__crt_scoped_get_last_error_reset@@@Z 000000018006ff20 f i libucrtd:output.obj
 0001:0006ef60       ?force_synchronize_per_thread_data@__crt_cached_ptd_host@@AEAAPEAU__acrt_ptd@@XZ 000000018006ff60 f i libucrtd:output.obj
 0001:0006efc0       ?get@?$c_string_character_source@D@__crt_strtox@@QEAADXZ 000000018006ffc0 f i libucrtd:output.obj
 0001:0006f000       ?get@?$c_string_character_source@_W@__crt_strtox@@QEAA_WXZ 0000000180070000 f i libucrtd:output.obj
 0001:0006f040       ?get_current_state_index@__crt_state_management@@YA_KAEBV__crt_scoped_get_last_error_reset@@@Z 0000000180070040 f i libucrtd:output.obj
 0001:0006f050       ?get_errno@__crt_cached_ptd_host@@QEAAAEAU?$cached@H@1@XZ 0000000180070050 f i libucrtd:output.obj
 0001:0006f060       ?get_flags@__crt_stdio_stream@@QEBAJXZ 0000000180070060 f i libucrtd:output.obj
 0001:0006f090       ?get_locale@__crt_cached_ptd_host@@QEAAPEAU__crt_locale_pointers@@XZ 0000000180070090 f i libucrtd:output.obj
 0001:0006f0c0       ?get_parameter_type@?$positional_parameter_base@DV?$stream_output_adapter@D@__crt_stdio_output@@@__crt_stdio_output@@CA?AW4parameter_type@12@F@Z 00000001800700c0 f i libucrtd:output.obj
 0001:0006f0d0       ?get_parameter_type@?$positional_parameter_base@DV?$stream_output_adapter@D@__crt_stdio_output@@@__crt_stdio_output@@CA?AW4parameter_type@12@G@Z 00000001800700d0 f i libucrtd:output.obj
 0001:0006f0e0       ?get_parameter_type@?$positional_parameter_base@DV?$stream_output_adapter@D@__crt_stdio_output@@@__crt_stdio_output@@CA?AW4parameter_type@12@H@Z 00000001800700e0 f i libucrtd:output.obj
 0001:0006f0f0       ?get_parameter_type@?$positional_parameter_base@DV?$stream_output_adapter@D@__crt_stdio_output@@@__crt_stdio_output@@CA?AW4parameter_type@12@I@Z 00000001800700f0 f i libucrtd:output.obj
 0001:0006f100       ?get_parameter_type@?$positional_parameter_base@DV?$stream_output_adapter@D@__crt_stdio_output@@@__crt_stdio_output@@CA?AW4parameter_type@12@U_CRT_DOUBLE@@@Z 0000000180070100 f i libucrtd:output.obj
 0001:0006f110       ?get_parameter_type@?$positional_parameter_base@DV?$stream_output_adapter@D@__crt_stdio_output@@@__crt_stdio_output@@CA?AW4parameter_type@12@_J@Z 0000000180070110 f i libucrtd:output.obj
 0001:0006f120       ?get_parameter_type@?$positional_parameter_base@DV?$stream_output_adapter@D@__crt_stdio_output@@@__crt_stdio_output@@CA?AW4parameter_type@12@_K@Z 0000000180070120 f i libucrtd:output.obj
 0001:0006f130       ?get_parameter_type@?$positional_parameter_base@DV?$stream_output_adapter@D@__crt_stdio_output@@@__crt_stdio_output@@CA?AW4parameter_type@12@_W@Z 0000000180070130 f i libucrtd:output.obj
 0001:0006f140       ?get_parameter_type@?$positional_parameter_base@DV?$string_output_adapter@D@__crt_stdio_output@@@__crt_stdio_output@@CA?AW4parameter_type@12@F@Z 0000000180070140 f i libucrtd:output.obj
 0001:0006f150       ?get_parameter_type@?$positional_parameter_base@DV?$string_output_adapter@D@__crt_stdio_output@@@__crt_stdio_output@@CA?AW4parameter_type@12@G@Z 0000000180070150 f i libucrtd:output.obj
 0001:0006f160       ?get_parameter_type@?$positional_parameter_base@DV?$string_output_adapter@D@__crt_stdio_output@@@__crt_stdio_output@@CA?AW4parameter_type@12@H@Z 0000000180070160 f i libucrtd:output.obj
 0001:0006f170       ?get_parameter_type@?$positional_parameter_base@DV?$string_output_adapter@D@__crt_stdio_output@@@__crt_stdio_output@@CA?AW4parameter_type@12@I@Z 0000000180070170 f i libucrtd:output.obj
 0001:0006f180       ?get_parameter_type@?$positional_parameter_base@DV?$string_output_adapter@D@__crt_stdio_output@@@__crt_stdio_output@@CA?AW4parameter_type@12@U_CRT_DOUBLE@@@Z 0000000180070180 f i libucrtd:output.obj
 0001:0006f190       ?get_parameter_type@?$positional_parameter_base@DV?$string_output_adapter@D@__crt_stdio_output@@@__crt_stdio_output@@CA?AW4parameter_type@12@_J@Z 0000000180070190 f i libucrtd:output.obj
 0001:0006f1a0       ?get_parameter_type@?$positional_parameter_base@DV?$string_output_adapter@D@__crt_stdio_output@@@__crt_stdio_output@@CA?AW4parameter_type@12@_K@Z 00000001800701a0 f i libucrtd:output.obj
 0001:0006f1b0       ?get_parameter_type@?$positional_parameter_base@DV?$string_output_adapter@D@__crt_stdio_output@@@__crt_stdio_output@@CA?AW4parameter_type@12@_W@Z 00000001800701b0 f i libucrtd:output.obj
 0001:0006f1c0       ?get_parameter_type@?$positional_parameter_base@_WV?$stream_output_adapter@_W@__crt_stdio_output@@@__crt_stdio_output@@CA?AW4parameter_type@12@F@Z 00000001800701c0 f i libucrtd:output.obj
 0001:0006f1d0       ?get_parameter_type@?$positional_parameter_base@_WV?$stream_output_adapter@_W@__crt_stdio_output@@@__crt_stdio_output@@CA?AW4parameter_type@12@G@Z 00000001800701d0 f i libucrtd:output.obj
 0001:0006f1e0       ?get_parameter_type@?$positional_parameter_base@_WV?$stream_output_adapter@_W@__crt_stdio_output@@@__crt_stdio_output@@CA?AW4parameter_type@12@H@Z 00000001800701e0 f i libucrtd:output.obj
 0001:0006f1f0       ?get_parameter_type@?$positional_parameter_base@_WV?$stream_output_adapter@_W@__crt_stdio_output@@@__crt_stdio_output@@CA?AW4parameter_type@12@I@Z 00000001800701f0 f i libucrtd:output.obj
 0001:0006f200       ?get_parameter_type@?$positional_parameter_base@_WV?$stream_output_adapter@_W@__crt_stdio_output@@@__crt_stdio_output@@CA?AW4parameter_type@12@U_CRT_DOUBLE@@@Z 0000000180070200 f i libucrtd:output.obj
 0001:0006f210       ?get_parameter_type@?$positional_parameter_base@_WV?$stream_output_adapter@_W@__crt_stdio_output@@@__crt_stdio_output@@CA?AW4parameter_type@12@_J@Z 0000000180070210 f i libucrtd:output.obj
 0001:0006f220       ?get_parameter_type@?$positional_parameter_base@_WV?$stream_output_adapter@_W@__crt_stdio_output@@@__crt_stdio_output@@CA?AW4parameter_type@12@_K@Z 0000000180070220 f i libucrtd:output.obj
 0001:0006f230       ?get_parameter_type@?$positional_parameter_base@_WV?$stream_output_adapter@_W@__crt_stdio_output@@@__crt_stdio_output@@CA?AW4parameter_type@12@_W@Z 0000000180070230 f i libucrtd:output.obj
 0001:0006f240       ?get_parameter_type@?$positional_parameter_base@_WV?$string_output_adapter@_W@__crt_stdio_output@@@__crt_stdio_output@@CA?AW4parameter_type@12@F@Z 0000000180070240 f i libucrtd:output.obj
 0001:0006f250       ?get_parameter_type@?$positional_parameter_base@_WV?$string_output_adapter@_W@__crt_stdio_output@@@__crt_stdio_output@@CA?AW4parameter_type@12@G@Z 0000000180070250 f i libucrtd:output.obj
 0001:0006f260       ?get_parameter_type@?$positional_parameter_base@_WV?$string_output_adapter@_W@__crt_stdio_output@@@__crt_stdio_output@@CA?AW4parameter_type@12@H@Z 0000000180070260 f i libucrtd:output.obj
 0001:0006f270       ?get_parameter_type@?$positional_parameter_base@_WV?$string_output_adapter@_W@__crt_stdio_output@@@__crt_stdio_output@@CA?AW4parameter_type@12@I@Z 0000000180070270 f i libucrtd:output.obj
 0001:0006f280       ?get_parameter_type@?$positional_parameter_base@_WV?$string_output_adapter@_W@__crt_stdio_output@@@__crt_stdio_output@@CA?AW4parameter_type@12@U_CRT_DOUBLE@@@Z 0000000180070280 f i libucrtd:output.obj
 0001:0006f290       ?get_parameter_type@?$positional_parameter_base@_WV?$string_output_adapter@_W@__crt_stdio_output@@@__crt_stdio_output@@CA?AW4parameter_type@12@_J@Z 0000000180070290 f i libucrtd:output.obj
 0001:0006f2a0       ?get_parameter_type@?$positional_parameter_base@_WV?$string_output_adapter@_W@__crt_stdio_output@@@__crt_stdio_output@@CA?AW4parameter_type@12@_K@Z 00000001800702a0 f i libucrtd:output.obj
 0001:0006f2b0       ?get_parameter_type@?$positional_parameter_base@_WV?$string_output_adapter@_W@__crt_stdio_output@@@__crt_stdio_output@@CA?AW4parameter_type@12@_W@Z 00000001800702b0 f i libucrtd:output.obj
 0001:0006f2c0       ?get_raw_ptd@__crt_cached_ptd_host@@QEAAPEAU__acrt_ptd@@XZ 00000001800702c0 f i libucrtd:output.obj
 0001:0006f2e0       ?has_flag@?$output_processor@DV?$stream_output_adapter@D@__crt_stdio_output@@V?$format_validation_base@DV?$stream_output_adapter@D@__crt_stdio_output@@@2@@__crt_stdio_output@@AEBA_NI@Z 00000001800702e0 f i libucrtd:output.obj
 0001:0006f320       ?has_flag@?$output_processor@DV?$stream_output_adapter@D@__crt_stdio_output@@V?$positional_parameter_base@DV?$stream_output_adapter@D@__crt_stdio_output@@@2@@__crt_stdio_output@@AEBA_NI@Z 0000000180070320 f i libucrtd:output.obj
 0001:0006f360       ?has_flag@?$output_processor@DV?$stream_output_adapter@D@__crt_stdio_output@@V?$standard_base@DV?$stream_output_adapter@D@__crt_stdio_output@@@2@@__crt_stdio_output@@AEBA_NI@Z 0000000180070360 f i libucrtd:output.obj
 0001:0006f3a0       ?has_flag@?$output_processor@DV?$string_output_adapter@D@__crt_stdio_output@@V?$format_validation_base@DV?$string_output_adapter@D@__crt_stdio_output@@@2@@__crt_stdio_output@@AEBA_NI@Z 00000001800703a0 f i libucrtd:output.obj
 0001:0006f3e0       ?has_flag@?$output_processor@DV?$string_output_adapter@D@__crt_stdio_output@@V?$positional_parameter_base@DV?$string_output_adapter@D@__crt_stdio_output@@@2@@__crt_stdio_output@@AEBA_NI@Z 00000001800703e0 f i libucrtd:output.obj
 0001:0006f420       ?has_flag@?$output_processor@DV?$string_output_adapter@D@__crt_stdio_output@@V?$standard_base@DV?$string_output_adapter@D@__crt_stdio_output@@@2@@__crt_stdio_output@@AEBA_NI@Z 0000000180070420 f i libucrtd:output.obj
 0001:0006f460       ?has_flag@?$output_processor@_WV?$stream_output_adapter@_W@__crt_stdio_output@@V?$format_validation_base@_WV?$stream_output_adapter@_W@__crt_stdio_output@@@2@@__crt_stdio_output@@AEBA_NI@Z 0000000180070460 f i libucrtd:output.obj
 0001:0006f4a0       ?has_flag@?$output_processor@_WV?$stream_output_adapter@_W@__crt_stdio_output@@V?$positional_parameter_base@_WV?$stream_output_adapter@_W@__crt_stdio_output@@@2@@__crt_stdio_output@@AEBA_NI@Z 00000001800704a0 f i libucrtd:output.obj
 0001:0006f4e0       ?has_flag@?$output_processor@_WV?$stream_output_adapter@_W@__crt_stdio_output@@V?$standard_base@_WV?$stream_output_adapter@_W@__crt_stdio_output@@@2@@__crt_stdio_output@@AEBA_NI@Z 00000001800704e0 f i libucrtd:output.obj
 0001:0006f520       ?has_flag@?$output_processor@_WV?$string_output_adapter@_W@__crt_stdio_output@@V?$format_validation_base@_WV?$string_output_adapter@_W@__crt_stdio_output@@@2@@__crt_stdio_output@@AEBA_NI@Z 0000000180070520 f i libucrtd:output.obj
 0001:0006f560       ?has_flag@?$output_processor@_WV?$string_output_adapter@_W@__crt_stdio_output@@V?$positional_parameter_base@_WV?$string_output_adapter@_W@__crt_stdio_output@@@2@@__crt_stdio_output@@AEBA_NI@Z 0000000180070560 f i libucrtd:output.obj
 0001:0006f5a0       ?has_flag@?$output_processor@_WV?$string_output_adapter@_W@__crt_stdio_output@@V?$standard_base@_WV?$string_output_adapter@_W@__crt_stdio_output@@@2@@__crt_stdio_output@@AEBA_NI@Z 00000001800705a0 f i libucrtd:output.obj
 0001:0006f5e0       ?is_positional_parameter_reappearance_consistent@?$positional_parameter_base@DV?$stream_output_adapter@D@__crt_stdio_output@@@__crt_stdio_output@@AEAA_NAEBUparameter_data@12@W4parameter_type@12@DW4length_modifier@2@@Z 00000001800705e0 f i libucrtd:output.obj
 0001:0006f840       ?is_positional_parameter_reappearance_consistent@?$positional_parameter_base@DV?$string_output_adapter@D@__crt_stdio_output@@@__crt_stdio_output@@AEAA_NAEBUparameter_data@12@W4parameter_type@12@DW4length_modifier@2@@Z 0000000180070840 f i libucrtd:output.obj
 0001:0006faa0       ?is_positional_parameter_reappearance_consistent@?$positional_parameter_base@_WV?$stream_output_adapter@_W@__crt_stdio_output@@@__crt_stdio_output@@AEAA_NAEBUparameter_data@12@W4parameter_type@12@_WW4length_modifier@2@@Z 0000000180070aa0 f i libucrtd:output.obj
 0001:0006fd00       ?is_positional_parameter_reappearance_consistent@?$positional_parameter_base@_WV?$string_output_adapter@_W@__crt_stdio_output@@@__crt_stdio_output@@AEAA_NAEBUparameter_data@12@W4parameter_type@12@_WW4length_modifier@2@@Z 0000000180070d00 f i libucrtd:output.obj
 0001:0006ff60       ?is_string_backed@__crt_stdio_stream@@QEBA_NXZ 0000000180070f60 f i libucrtd:output.obj
 0001:0006ffa0       ?maximum_signed_value@__crt_strtox@@YAJK@Z 0000000180070fa0 f i libucrtd:output.obj
 0001:0006ffb0       ?minimum_signed_value@__crt_strtox@@YAJK@Z 0000000180070fb0 f i libucrtd:output.obj
 0001:0006ffc0       ?narrow_null_string@?$output_processor@DV?$stream_output_adapter@D@__crt_stdio_output@@V?$format_validation_base@DV?$stream_output_adapter@D@__crt_stdio_output@@@2@@__crt_stdio_output@@CAPEADXZ 0000000180070fc0 f i libucrtd:output.obj
 0001:0006ffd0       ?narrow_null_string@?$output_processor@DV?$stream_output_adapter@D@__crt_stdio_output@@V?$positional_parameter_base@DV?$stream_output_adapter@D@__crt_stdio_output@@@2@@__crt_stdio_output@@CAPEADXZ 0000000180070fd0 f i libucrtd:output.obj
 0001:0006ffe0       ?narrow_null_string@?$output_processor@DV?$stream_output_adapter@D@__crt_stdio_output@@V?$standard_base@DV?$stream_output_adapter@D@__crt_stdio_output@@@2@@__crt_stdio_output@@CAPEADXZ 0000000180070fe0 f i libucrtd:output.obj
 0001:0006fff0       ?narrow_null_string@?$output_processor@DV?$string_output_adapter@D@__crt_stdio_output@@V?$format_validation_base@DV?$string_output_adapter@D@__crt_stdio_output@@@2@@__crt_stdio_output@@CAPEADXZ 0000000180070ff0 f i libucrtd:output.obj
 0001:00070000       ?narrow_null_string@?$output_processor@DV?$string_output_adapter@D@__crt_stdio_output@@V?$positional_parameter_base@DV?$string_output_adapter@D@__crt_stdio_output@@@2@@__crt_stdio_output@@CAPEADXZ 0000000180071000 f i libucrtd:output.obj
 0001:00070010       ?narrow_null_string@?$output_processor@DV?$string_output_adapter@D@__crt_stdio_output@@V?$standard_base@DV?$string_output_adapter@D@__crt_stdio_output@@@2@@__crt_stdio_output@@CAPEADXZ 0000000180071010 f i libucrtd:output.obj
 0001:00070020       ?narrow_null_string@?$output_processor@_WV?$stream_output_adapter@_W@__crt_stdio_output@@V?$format_validation_base@_WV?$stream_output_adapter@_W@__crt_stdio_output@@@2@@__crt_stdio_output@@CAPEADXZ 0000000180071020 f i libucrtd:output.obj
 0001:00070030       ?narrow_null_string@?$output_processor@_WV?$stream_output_adapter@_W@__crt_stdio_output@@V?$positional_parameter_base@_WV?$stream_output_adapter@_W@__crt_stdio_output@@@2@@__crt_stdio_output@@CAPEADXZ 0000000180071030 f i libucrtd:output.obj
 0001:00070040       ?narrow_null_string@?$output_processor@_WV?$stream_output_adapter@_W@__crt_stdio_output@@V?$standard_base@_WV?$stream_output_adapter@_W@__crt_stdio_output@@@2@@__crt_stdio_output@@CAPEADXZ 0000000180071040 f i libucrtd:output.obj
 0001:00070050       ?narrow_null_string@?$output_processor@_WV?$string_output_adapter@_W@__crt_stdio_output@@V?$format_validation_base@_WV?$string_output_adapter@_W@__crt_stdio_output@@@2@@__crt_stdio_output@@CAPEADXZ 0000000180071050 f i libucrtd:output.obj
 0001:00070060       ?narrow_null_string@?$output_processor@_WV?$string_output_adapter@_W@__crt_stdio_output@@V?$positional_parameter_base@_WV?$string_output_adapter@_W@__crt_stdio_output@@@2@@__crt_stdio_output@@CAPEADXZ 0000000180071060 f i libucrtd:output.obj
 0001:00070070       ?narrow_null_string@?$output_processor@_WV?$string_output_adapter@_W@__crt_stdio_output@@V?$standard_base@_WV?$string_output_adapter@_W@__crt_stdio_output@@@2@@__crt_stdio_output@@CAPEADXZ 0000000180071070 f i libucrtd:output.obj
 0001:00070080       ?parse_digit@__crt_strtox@@YAID@Z 0000000180071080 f i libucrtd:output.obj
 0001:000700f0       ?parse_digit@__crt_strtox@@YAI_W@Z 00000001800710f0 f i libucrtd:output.obj
 0001:00070140       ?parse_int_from_format_string@?$output_processor@DV?$stream_output_adapter@D@__crt_stdio_output@@V?$format_validation_base@DV?$stream_output_adapter@D@__crt_stdio_output@@@2@@__crt_stdio_output@@AEAA_NQEAH@Z 0000000180071140 f i libucrtd:output.obj
 0001:00070240       ?parse_int_from_format_string@?$output_processor@DV?$stream_output_adapter@D@__crt_stdio_output@@V?$positional_parameter_base@DV?$stream_output_adapter@D@__crt_stdio_output@@@2@@__crt_stdio_output@@AEAA_NQEAH@Z 0000000180071240 f i libucrtd:output.obj
 0001:00070340       ?parse_int_from_format_string@?$output_processor@DV?$stream_output_adapter@D@__crt_stdio_output@@V?$standard_base@DV?$stream_output_adapter@D@__crt_stdio_output@@@2@@__crt_stdio_output@@AEAA_NQEAH@Z 0000000180071340 f i libucrtd:output.obj
 0001:00070440       ?parse_int_from_format_string@?$output_processor@DV?$string_output_adapter@D@__crt_stdio_output@@V?$format_validation_base@DV?$string_output_adapter@D@__crt_stdio_output@@@2@@__crt_stdio_output@@AEAA_NQEAH@Z 0000000180071440 f i libucrtd:output.obj
 0001:00070540       ?parse_int_from_format_string@?$output_processor@DV?$string_output_adapter@D@__crt_stdio_output@@V?$positional_parameter_base@DV?$string_output_adapter@D@__crt_stdio_output@@@2@@__crt_stdio_output@@AEAA_NQEAH@Z 0000000180071540 f i libucrtd:output.obj
 0001:00070640       ?parse_int_from_format_string@?$output_processor@DV?$string_output_adapter@D@__crt_stdio_output@@V?$standard_base@DV?$string_output_adapter@D@__crt_stdio_output@@@2@@__crt_stdio_output@@AEAA_NQEAH@Z 0000000180071640 f i libucrtd:output.obj
 0001:00070740       ?parse_int_from_format_string@?$output_processor@_WV?$stream_output_adapter@_W@__crt_stdio_output@@V?$format_validation_base@_WV?$stream_output_adapter@_W@__crt_stdio_output@@@2@@__crt_stdio_output@@AEAA_NQEAH@Z 0000000180071740 f i libucrtd:output.obj
 0001:00070840       ?parse_int_from_format_string@?$output_processor@_WV?$stream_output_adapter@_W@__crt_stdio_output@@V?$positional_parameter_base@_WV?$stream_output_adapter@_W@__crt_stdio_output@@@2@@__crt_stdio_output@@AEAA_NQEAH@Z 0000000180071840 f i libucrtd:output.obj
 0001:00070940       ?parse_int_from_format_string@?$output_processor@_WV?$stream_output_adapter@_W@__crt_stdio_output@@V?$standard_base@_WV?$stream_output_adapter@_W@__crt_stdio_output@@@2@@__crt_stdio_output@@AEAA_NQEAH@Z 0000000180071940 f i libucrtd:output.obj
 0001:00070a40       ?parse_int_from_format_string@?$output_processor@_WV?$string_output_adapter@_W@__crt_stdio_output@@V?$format_validation_base@_WV?$string_output_adapter@_W@__crt_stdio_output@@@2@@__crt_stdio_output@@AEAA_NQEAH@Z 0000000180071a40 f i libucrtd:output.obj
 0001:00070b40       ?parse_int_from_format_string@?$output_processor@_WV?$string_output_adapter@_W@__crt_stdio_output@@V?$positional_parameter_base@_WV?$string_output_adapter@_W@__crt_stdio_output@@@2@@__crt_stdio_output@@AEAA_NQEAH@Z 0000000180071b40 f i libucrtd:output.obj
 0001:00070c40       ?parse_int_from_format_string@?$output_processor@_WV?$string_output_adapter@_W@__crt_stdio_output@@V?$standard_base@_WV?$string_output_adapter@_W@__crt_stdio_output@@@2@@__crt_stdio_output@@AEAA_NQEAH@Z 0000000180071c40 f i libucrtd:output.obj
 0001:00070d40       ?process@?$output_processor@DV?$stream_output_adapter@D@__crt_stdio_output@@V?$format_validation_base@DV?$stream_output_adapter@D@__crt_stdio_output@@@2@@__crt_stdio_output@@QEAAHXZ 0000000180071d40 f i libucrtd:output.obj
 0001:00071100       ?process@?$output_processor@DV?$stream_output_adapter@D@__crt_stdio_output@@V?$positional_parameter_base@DV?$stream_output_adapter@D@__crt_stdio_output@@@2@@__crt_stdio_output@@QEAAHXZ 0000000180072100 f i libucrtd:output.obj
 0001:000714c0       ?process@?$output_processor@DV?$stream_output_adapter@D@__crt_stdio_output@@V?$standard_base@DV?$stream_output_adapter@D@__crt_stdio_output@@@2@@__crt_stdio_output@@QEAAHXZ 00000001800724c0 f i libucrtd:output.obj
 0001:00071880       ?process@?$output_processor@DV?$string_output_adapter@D@__crt_stdio_output@@V?$format_validation_base@DV?$string_output_adapter@D@__crt_stdio_output@@@2@@__crt_stdio_output@@QEAAHXZ 0000000180072880 f i libucrtd:output.obj
 0001:00071c40       ?process@?$output_processor@DV?$string_output_adapter@D@__crt_stdio_output@@V?$positional_parameter_base@DV?$string_output_adapter@D@__crt_stdio_output@@@2@@__crt_stdio_output@@QEAAHXZ 0000000180072c40 f i libucrtd:output.obj
 0001:00072000       ?process@?$output_processor@DV?$string_output_adapter@D@__crt_stdio_output@@V?$standard_base@DV?$string_output_adapter@D@__crt_stdio_output@@@2@@__crt_stdio_output@@QEAAHXZ 0000000180073000 f i libucrtd:output.obj
 0001:000723c0       ?process@?$output_processor@_WV?$stream_output_adapter@_W@__crt_stdio_output@@V?$format_validation_base@_WV?$stream_output_adapter@_W@__crt_stdio_output@@@2@@__crt_stdio_output@@QEAAHXZ 00000001800733c0 f i libucrtd:output.obj
 0001:00072780       ?process@?$output_processor@_WV?$stream_output_adapter@_W@__crt_stdio_output@@V?$positional_parameter_base@_WV?$stream_output_adapter@_W@__crt_stdio_output@@@2@@__crt_stdio_output@@QEAAHXZ 0000000180073780 f i libucrtd:output.obj
 0001:00072b40       ?process@?$output_processor@_WV?$stream_output_adapter@_W@__crt_stdio_output@@V?$standard_base@_WV?$stream_output_adapter@_W@__crt_stdio_output@@@2@@__crt_stdio_output@@QEAAHXZ 0000000180073b40 f i libucrtd:output.obj
 0001:00072f00       ?process@?$output_processor@_WV?$string_output_adapter@_W@__crt_stdio_output@@V?$format_validation_base@_WV?$string_output_adapter@_W@__crt_stdio_output@@@2@@__crt_stdio_output@@QEAAHXZ 0000000180073f00 f i libucrtd:output.obj
 0001:000732c0       ?process@?$output_processor@_WV?$string_output_adapter@_W@__crt_stdio_output@@V?$positional_parameter_base@_WV?$string_output_adapter@_W@__crt_stdio_output@@@2@@__crt_stdio_output@@QEAAHXZ 00000001800742c0 f i libucrtd:output.obj
 0001:00073680       ?process@?$output_processor@_WV?$string_output_adapter@_W@__crt_stdio_output@@V?$standard_base@_WV?$string_output_adapter@_W@__crt_stdio_output@@@2@@__crt_stdio_output@@QEAAHXZ 0000000180074680 f i libucrtd:output.obj
 0001:00073a40       ?public_stream@__crt_stdio_stream@@QEBAPEAU_iobuf@@XZ 0000000180074a40 f i libucrtd:output.obj
 0001:00073a50       ?restore_state@?$c_string_character_source@D@__crt_strtox@@QEAA_NQEBD@Z 0000000180074a50 f i libucrtd:output.obj
 0001:00073a70       ?restore_state@?$c_string_character_source@_W@__crt_strtox@@QEAA_NQEB_W@Z 0000000180074a70 f i libucrtd:output.obj
 0001:00073a90       ?save_state@?$c_string_character_source@D@__crt_strtox@@QEBAPEBDXZ 0000000180074a90 f i libucrtd:output.obj
 0001:00073aa0       ?save_state@?$c_string_character_source@_W@__crt_strtox@@QEBAPEB_WXZ 0000000180074aa0 f i libucrtd:output.obj
 0001:00073ab0       ?set@?$cached@H@__crt_cached_ptd_host@@QEAAHH@Z 0000000180074ab0 f i libucrtd:output.obj
 0001:00073ae0       ?set_flag@?$output_processor@DV?$stream_output_adapter@D@__crt_stdio_output@@V?$format_validation_base@DV?$stream_output_adapter@D@__crt_stdio_output@@@2@@__crt_stdio_output@@AEAAXI@Z 0000000180074ae0 f i libucrtd:output.obj
 0001:00073b00       ?set_flag@?$output_processor@DV?$stream_output_adapter@D@__crt_stdio_output@@V?$positional_parameter_base@DV?$stream_output_adapter@D@__crt_stdio_output@@@2@@__crt_stdio_output@@AEAAXI@Z 0000000180074b00 f i libucrtd:output.obj
 0001:00073b20       ?set_flag@?$output_processor@DV?$stream_output_adapter@D@__crt_stdio_output@@V?$standard_base@DV?$stream_output_adapter@D@__crt_stdio_output@@@2@@__crt_stdio_output@@AEAAXI@Z 0000000180074b20 f i libucrtd:output.obj
 0001:00073b40       ?set_flag@?$output_processor@DV?$string_output_adapter@D@__crt_stdio_output@@V?$format_validation_base@DV?$string_output_adapter@D@__crt_stdio_output@@@2@@__crt_stdio_output@@AEAAXI@Z 0000000180074b40 f i libucrtd:output.obj
 0001:00073b60       ?set_flag@?$output_processor@DV?$string_output_adapter@D@__crt_stdio_output@@V?$positional_parameter_base@DV?$string_output_adapter@D@__crt_stdio_output@@@2@@__crt_stdio_output@@AEAAXI@Z 0000000180074b60 f i libucrtd:output.obj
 0001:00073b80       ?set_flag@?$output_processor@DV?$string_output_adapter@D@__crt_stdio_output@@V?$standard_base@DV?$string_output_adapter@D@__crt_stdio_output@@@2@@__crt_stdio_output@@AEAAXI@Z 0000000180074b80 f i libucrtd:output.obj
 0001:00073ba0       ?set_flag@?$output_processor@_WV?$stream_output_adapter@_W@__crt_stdio_output@@V?$format_validation_base@_WV?$stream_output_adapter@_W@__crt_stdio_output@@@2@@__crt_stdio_output@@AEAAXI@Z 0000000180074ba0 f i libucrtd:output.obj
 0001:00073bc0       ?set_flag@?$output_processor@_WV?$stream_output_adapter@_W@__crt_stdio_output@@V?$positional_parameter_base@_WV?$stream_output_adapter@_W@__crt_stdio_output@@@2@@__crt_stdio_output@@AEAAXI@Z 0000000180074bc0 f i libucrtd:output.obj
 0001:00073be0       ?set_flag@?$output_processor@_WV?$stream_output_adapter@_W@__crt_stdio_output@@V?$standard_base@_WV?$stream_output_adapter@_W@__crt_stdio_output@@@2@@__crt_stdio_output@@AEAAXI@Z 0000000180074be0 f i libucrtd:output.obj
 0001:00073c00       ?set_flag@?$output_processor@_WV?$string_output_adapter@_W@__crt_stdio_output@@V?$format_validation_base@_WV?$string_output_adapter@_W@__crt_stdio_output@@@2@@__crt_stdio_output@@AEAAXI@Z 0000000180074c00 f i libucrtd:output.obj
 0001:00073c20       ?set_flag@?$output_processor@_WV?$string_output_adapter@_W@__crt_stdio_output@@V?$positional_parameter_base@_WV?$string_output_adapter@_W@__crt_stdio_output@@@2@@__crt_stdio_output@@AEAAXI@Z 0000000180074c20 f i libucrtd:output.obj
 0001:00073c40       ?set_flag@?$output_processor@_WV?$string_output_adapter@_W@__crt_stdio_output@@V?$standard_base@_WV?$string_output_adapter@_W@__crt_stdio_output@@@2@@__crt_stdio_output@@AEAAXI@Z 0000000180074c40 f i libucrtd:output.obj
 0001:00073c60       ?should_format@?$positional_parameter_base@DV?$stream_output_adapter@D@__crt_stdio_output@@@__crt_stdio_output@@IEAA_NXZ 0000000180074c60 f i libucrtd:output.obj
 0001:00073ca0       ?should_format@?$positional_parameter_base@DV?$string_output_adapter@D@__crt_stdio_output@@@__crt_stdio_output@@IEAA_NXZ 0000000180074ca0 f i libucrtd:output.obj
 0001:00073ce0       ?should_format@?$positional_parameter_base@_WV?$stream_output_adapter@_W@__crt_stdio_output@@@__crt_stdio_output@@IEAA_NXZ 0000000180074ce0 f i libucrtd:output.obj
 0001:00073d20       ?should_format@?$positional_parameter_base@_WV?$string_output_adapter@_W@__crt_stdio_output@@@__crt_stdio_output@@IEAA_NXZ 0000000180074d20 f i libucrtd:output.obj
 0001:00073d60       ?should_format@?$standard_base@DV?$stream_output_adapter@D@__crt_stdio_output@@@__crt_stdio_output@@IEAA_NXZ 0000000180074d60 f i libucrtd:output.obj
 0001:00073d70       ?should_format@?$standard_base@DV?$string_output_adapter@D@__crt_stdio_output@@@__crt_stdio_output@@IEAA_NXZ 0000000180074d70 f i libucrtd:output.obj
 0001:00073d80       ?should_format@?$standard_base@_WV?$stream_output_adapter@_W@__crt_stdio_output@@@__crt_stdio_output@@IEAA_NXZ 0000000180074d80 f i libucrtd:output.obj
 0001:00073d90       ?should_format@?$standard_base@_WV?$string_output_adapter@_W@__crt_stdio_output@@@__crt_stdio_output@@IEAA_NXZ 0000000180074d90 f i libucrtd:output.obj
 0001:00073da0       ?should_skip_normal_state_processing@?$positional_parameter_base@DV?$stream_output_adapter@D@__crt_stdio_output@@@__crt_stdio_output@@IEAA_NXZ 0000000180074da0 f i libucrtd:output.obj
 0001:00073df0       ?should_skip_normal_state_processing@?$positional_parameter_base@DV?$string_output_adapter@D@__crt_stdio_output@@@__crt_stdio_output@@IEAA_NXZ 0000000180074df0 f i libucrtd:output.obj
 0001:00073e40       ?should_skip_normal_state_processing@?$positional_parameter_base@_WV?$stream_output_adapter@_W@__crt_stdio_output@@@__crt_stdio_output@@IEAA_NXZ 0000000180074e40 f i libucrtd:output.obj
 0001:00073e90       ?should_skip_normal_state_processing@?$positional_parameter_base@_WV?$string_output_adapter@_W@__crt_stdio_output@@@__crt_stdio_output@@IEAA_NXZ 0000000180074e90 f i libucrtd:output.obj
 0001:00073ee0       ?should_skip_normal_state_processing@?$standard_base@DV?$stream_output_adapter@D@__crt_stdio_output@@@__crt_stdio_output@@IEAA_NXZ 0000000180074ee0 f i libucrtd:output.obj
 0001:00073ef0       ?should_skip_normal_state_processing@?$standard_base@DV?$string_output_adapter@D@__crt_stdio_output@@@__crt_stdio_output@@IEAA_NXZ 0000000180074ef0 f i libucrtd:output.obj
 0001:00073f00       ?should_skip_normal_state_processing@?$standard_base@_WV?$stream_output_adapter@_W@__crt_stdio_output@@@__crt_stdio_output@@IEAA_NXZ 0000000180074f00 f i libucrtd:output.obj
 0001:00073f10       ?should_skip_normal_state_processing@?$standard_base@_WV?$string_output_adapter@_W@__crt_stdio_output@@@__crt_stdio_output@@IEAA_NXZ 0000000180074f10 f i libucrtd:output.obj
 0001:00073f20       ?should_skip_type_state_output@?$positional_parameter_base@DV?$stream_output_adapter@D@__crt_stdio_output@@@__crt_stdio_output@@IEBA_NXZ 0000000180074f20 f i libucrtd:output.obj
 0001:00073f60       ?should_skip_type_state_output@?$positional_parameter_base@DV?$string_output_adapter@D@__crt_stdio_output@@@__crt_stdio_output@@IEBA_NXZ 0000000180074f60 f i libucrtd:output.obj
 0001:00073fa0       ?should_skip_type_state_output@?$positional_parameter_base@_WV?$stream_output_adapter@_W@__crt_stdio_output@@@__crt_stdio_output@@IEBA_NXZ 0000000180074fa0 f i libucrtd:output.obj
 0001:00073fe0       ?should_skip_type_state_output@?$positional_parameter_base@_WV?$string_output_adapter@_W@__crt_stdio_output@@@__crt_stdio_output@@IEBA_NXZ 0000000180074fe0 f i libucrtd:output.obj
 0001:00074020       ?should_skip_type_state_output@?$standard_base@DV?$stream_output_adapter@D@__crt_stdio_output@@@__crt_stdio_output@@IEBA_NXZ 0000000180075020 f i libucrtd:output.obj
 0001:00074030       ?should_skip_type_state_output@?$standard_base@DV?$string_output_adapter@D@__crt_stdio_output@@@__crt_stdio_output@@IEBA_NXZ 0000000180075030 f i libucrtd:output.obj
 0001:00074040       ?should_skip_type_state_output@?$standard_base@_WV?$stream_output_adapter@_W@__crt_stdio_output@@@__crt_stdio_output@@IEBA_NXZ 0000000180075040 f i libucrtd:output.obj
 0001:00074050       ?should_skip_type_state_output@?$standard_base@_WV?$string_output_adapter@_W@__crt_stdio_output@@@__crt_stdio_output@@IEBA_NXZ 0000000180075050 f i libucrtd:output.obj
 0001:00074060       ?state_case_dot@?$output_processor@DV?$stream_output_adapter@D@__crt_stdio_output@@V?$format_validation_base@DV?$stream_output_adapter@D@__crt_stdio_output@@@2@@__crt_stdio_output@@AEAA_NXZ 0000000180075060 f i libucrtd:output.obj
 0001:00074080       ?state_case_dot@?$output_processor@DV?$stream_output_adapter@D@__crt_stdio_output@@V?$positional_parameter_base@DV?$stream_output_adapter@D@__crt_stdio_output@@@2@@__crt_stdio_output@@AEAA_NXZ 0000000180075080 f i libucrtd:output.obj
 0001:000740a0       ?state_case_dot@?$output_processor@DV?$stream_output_adapter@D@__crt_stdio_output@@V?$standard_base@DV?$stream_output_adapter@D@__crt_stdio_output@@@2@@__crt_stdio_output@@AEAA_NXZ 00000001800750a0 f i libucrtd:output.obj
 0001:000740c0       ?state_case_dot@?$output_processor@DV?$string_output_adapter@D@__crt_stdio_output@@V?$format_validation_base@DV?$string_output_adapter@D@__crt_stdio_output@@@2@@__crt_stdio_output@@AEAA_NXZ 00000001800750c0 f i libucrtd:output.obj
 0001:000740e0       ?state_case_dot@?$output_processor@DV?$string_output_adapter@D@__crt_stdio_output@@V?$positional_parameter_base@DV?$string_output_adapter@D@__crt_stdio_output@@@2@@__crt_stdio_output@@AEAA_NXZ 00000001800750e0 f i libucrtd:output.obj
 0001:00074100       ?state_case_dot@?$output_processor@DV?$string_output_adapter@D@__crt_stdio_output@@V?$standard_base@DV?$string_output_adapter@D@__crt_stdio_output@@@2@@__crt_stdio_output@@AEAA_NXZ 0000000180075100 f i libucrtd:output.obj
 0001:00074120       ?state_case_dot@?$output_processor@_WV?$stream_output_adapter@_W@__crt_stdio_output@@V?$format_validation_base@_WV?$stream_output_adapter@_W@__crt_stdio_output@@@2@@__crt_stdio_output@@AEAA_NXZ 0000000180075120 f i libucrtd:output.obj
 0001:00074140       ?state_case_dot@?$output_processor@_WV?$stream_output_adapter@_W@__crt_stdio_output@@V?$positional_parameter_base@_WV?$stream_output_adapter@_W@__crt_stdio_output@@@2@@__crt_stdio_output@@AEAA_NXZ 0000000180075140 f i libucrtd:output.obj
 0001:00074160       ?state_case_dot@?$output_processor@_WV?$stream_output_adapter@_W@__crt_stdio_output@@V?$standard_base@_WV?$stream_output_adapter@_W@__crt_stdio_output@@@2@@__crt_stdio_output@@AEAA_NXZ 0000000180075160 f i libucrtd:output.obj
 0001:00074180       ?state_case_dot@?$output_processor@_WV?$string_output_adapter@_W@__crt_stdio_output@@V?$format_validation_base@_WV?$string_output_adapter@_W@__crt_stdio_output@@@2@@__crt_stdio_output@@AEAA_NXZ 0000000180075180 f i libucrtd:output.obj
 0001:000741a0       ?state_case_dot@?$output_processor@_WV?$string_output_adapter@_W@__crt_stdio_output@@V?$positional_parameter_base@_WV?$string_output_adapter@_W@__crt_stdio_output@@@2@@__crt_stdio_output@@AEAA_NXZ 00000001800751a0 f i libucrtd:output.obj
 0001:000741c0       ?state_case_dot@?$output_processor@_WV?$string_output_adapter@_W@__crt_stdio_output@@V?$standard_base@_WV?$string_output_adapter@_W@__crt_stdio_output@@@2@@__crt_stdio_output@@AEAA_NXZ 00000001800751c0 f i libucrtd:output.obj
 0001:000741e0       ?state_case_flag@?$output_processor@DV?$stream_output_adapter@D@__crt_stdio_output@@V?$format_validation_base@DV?$stream_output_adapter@D@__crt_stdio_output@@@2@@__crt_stdio_output@@AEAA_NXZ 00000001800751e0 f i libucrtd:output.obj
 0001:00074280       ?state_case_flag@?$output_processor@DV?$stream_output_adapter@D@__crt_stdio_output@@V?$positional_parameter_base@DV?$stream_output_adapter@D@__crt_stdio_output@@@2@@__crt_stdio_output@@AEAA_NXZ 0000000180075280 f i libucrtd:output.obj
 0001:00074320       ?state_case_flag@?$output_processor@DV?$stream_output_adapter@D@__crt_stdio_output@@V?$standard_base@DV?$stream_output_adapter@D@__crt_stdio_output@@@2@@__crt_stdio_output@@AEAA_NXZ 0000000180075320 f i libucrtd:output.obj
 0001:000743c0       ?state_case_flag@?$output_processor@DV?$string_output_adapter@D@__crt_stdio_output@@V?$format_validation_base@DV?$string_output_adapter@D@__crt_stdio_output@@@2@@__crt_stdio_output@@AEAA_NXZ 00000001800753c0 f i libucrtd:output.obj
 0001:00074460       ?state_case_flag@?$output_processor@DV?$string_output_adapter@D@__crt_stdio_output@@V?$positional_parameter_base@DV?$string_output_adapter@D@__crt_stdio_output@@@2@@__crt_stdio_output@@AEAA_NXZ 0000000180075460 f i libucrtd:output.obj
 0001:00074500       ?state_case_flag@?$output_processor@DV?$string_output_adapter@D@__crt_stdio_output@@V?$standard_base@DV?$string_output_adapter@D@__crt_stdio_output@@@2@@__crt_stdio_output@@AEAA_NXZ 0000000180075500 f i libucrtd:output.obj
 0001:000745a0       ?state_case_flag@?$output_processor@_WV?$stream_output_adapter@_W@__crt_stdio_output@@V?$format_validation_base@_WV?$stream_output_adapter@_W@__crt_stdio_output@@@2@@__crt_stdio_output@@AEAA_NXZ 00000001800755a0 f i libucrtd:output.obj
 0001:00074640       ?state_case_flag@?$output_processor@_WV?$stream_output_adapter@_W@__crt_stdio_output@@V?$positional_parameter_base@_WV?$stream_output_adapter@_W@__crt_stdio_output@@@2@@__crt_stdio_output@@AEAA_NXZ 0000000180075640 f i libucrtd:output.obj
 0001:000746e0       ?state_case_flag@?$output_processor@_WV?$stream_output_adapter@_W@__crt_stdio_output@@V?$standard_base@_WV?$stream_output_adapter@_W@__crt_stdio_output@@@2@@__crt_stdio_output@@AEAA_NXZ 00000001800756e0 f i libucrtd:output.obj
 0001:00074780       ?state_case_flag@?$output_processor@_WV?$string_output_adapter@_W@__crt_stdio_output@@V?$format_validation_base@_WV?$string_output_adapter@_W@__crt_stdio_output@@@2@@__crt_stdio_output@@AEAA_NXZ 0000000180075780 f i libucrtd:output.obj
 0001:00074820       ?state_case_flag@?$output_processor@_WV?$string_output_adapter@_W@__crt_stdio_output@@V?$positional_parameter_base@_WV?$string_output_adapter@_W@__crt_stdio_output@@@2@@__crt_stdio_output@@AEAA_NXZ 0000000180075820 f i libucrtd:output.obj
 0001:000748c0       ?state_case_flag@?$output_processor@_WV?$string_output_adapter@_W@__crt_stdio_output@@V?$standard_base@_WV?$string_output_adapter@_W@__crt_stdio_output@@@2@@__crt_stdio_output@@AEAA_NXZ 00000001800758c0 f i libucrtd:output.obj
 0001:00074960       ?state_case_normal@?$output_processor@DV?$stream_output_adapter@D@__crt_stdio_output@@V?$format_validation_base@DV?$stream_output_adapter@D@__crt_stdio_output@@@2@@__crt_stdio_output@@AEAA_NXZ 0000000180075960 f i libucrtd:output.obj
 0001:00074a60       ?state_case_normal@?$output_processor@DV?$stream_output_adapter@D@__crt_stdio_output@@V?$positional_parameter_base@DV?$stream_output_adapter@D@__crt_stdio_output@@@2@@__crt_stdio_output@@AEAA_NXZ 0000000180075a60 f i libucrtd:output.obj
 0001:00074b60       ?state_case_normal@?$output_processor@DV?$stream_output_adapter@D@__crt_stdio_output@@V?$standard_base@DV?$stream_output_adapter@D@__crt_stdio_output@@@2@@__crt_stdio_output@@AEAA_NXZ 0000000180075b60 f i libucrtd:output.obj
 0001:00074c60       ?state_case_normal@?$output_processor@DV?$string_output_adapter@D@__crt_stdio_output@@V?$format_validation_base@DV?$string_output_adapter@D@__crt_stdio_output@@@2@@__crt_stdio_output@@AEAA_NXZ 0000000180075c60 f i libucrtd:output.obj
 0001:00074d60       ?state_case_normal@?$output_processor@DV?$string_output_adapter@D@__crt_stdio_output@@V?$positional_parameter_base@DV?$string_output_adapter@D@__crt_stdio_output@@@2@@__crt_stdio_output@@AEAA_NXZ 0000000180075d60 f i libucrtd:output.obj
 0001:00074e60       ?state_case_normal@?$output_processor@DV?$string_output_adapter@D@__crt_stdio_output@@V?$standard_base@DV?$string_output_adapter@D@__crt_stdio_output@@@2@@__crt_stdio_output@@AEAA_NXZ 0000000180075e60 f i libucrtd:output.obj
 0001:00074f60       ?state_case_normal@?$output_processor@_WV?$stream_output_adapter@_W@__crt_stdio_output@@V?$format_validation_base@_WV?$stream_output_adapter@_W@__crt_stdio_output@@@2@@__crt_stdio_output@@AEAA_NXZ 0000000180075f60 f i libucrtd:output.obj
 0001:00075060       ?state_case_normal@?$output_processor@_WV?$stream_output_adapter@_W@__crt_stdio_output@@V?$positional_parameter_base@_WV?$stream_output_adapter@_W@__crt_stdio_output@@@2@@__crt_stdio_output@@AEAA_NXZ 0000000180076060 f i libucrtd:output.obj
 0001:00075160       ?state_case_normal@?$output_processor@_WV?$stream_output_adapter@_W@__crt_stdio_output@@V?$standard_base@_WV?$stream_output_adapter@_W@__crt_stdio_output@@@2@@__crt_stdio_output@@AEAA_NXZ 0000000180076160 f i libucrtd:output.obj
 0001:00075260       ?state_case_normal@?$output_processor@_WV?$string_output_adapter@_W@__crt_stdio_output@@V?$format_validation_base@_WV?$string_output_adapter@_W@__crt_stdio_output@@@2@@__crt_stdio_output@@AEAA_NXZ 0000000180076260 f i libucrtd:output.obj
 0001:00075360       ?state_case_normal@?$output_processor@_WV?$string_output_adapter@_W@__crt_stdio_output@@V?$positional_parameter_base@_WV?$string_output_adapter@_W@__crt_stdio_output@@@2@@__crt_stdio_output@@AEAA_NXZ 0000000180076360 f i libucrtd:output.obj
 0001:00075460       ?state_case_normal@?$output_processor@_WV?$string_output_adapter@_W@__crt_stdio_output@@V?$standard_base@_WV?$string_output_adapter@_W@__crt_stdio_output@@@2@@__crt_stdio_output@@AEAA_NXZ 0000000180076460 f i libucrtd:output.obj
 0001:00075560       ?state_case_normal_common@?$output_processor@DV?$stream_output_adapter@D@__crt_stdio_output@@V?$format_validation_base@DV?$stream_output_adapter@D@__crt_stdio_output@@@2@@__crt_stdio_output@@AEAA_NXZ 0000000180076560 f i libucrtd:output.obj
 0001:000755c0       ?state_case_normal_common@?$output_processor@DV?$stream_output_adapter@D@__crt_stdio_output@@V?$positional_parameter_base@DV?$stream_output_adapter@D@__crt_stdio_output@@@2@@__crt_stdio_output@@AEAA_NXZ 00000001800765c0 f i libucrtd:output.obj
 0001:00075620       ?state_case_normal_common@?$output_processor@DV?$stream_output_adapter@D@__crt_stdio_output@@V?$standard_base@DV?$stream_output_adapter@D@__crt_stdio_output@@@2@@__crt_stdio_output@@AEAA_NXZ 0000000180076620 f i libucrtd:output.obj
 0001:00075680       ?state_case_normal_common@?$output_processor@DV?$string_output_adapter@D@__crt_stdio_output@@V?$format_validation_base@DV?$string_output_adapter@D@__crt_stdio_output@@@2@@__crt_stdio_output@@AEAA_NXZ 0000000180076680 f i libucrtd:output.obj
 0001:000756e0       ?state_case_normal_common@?$output_processor@DV?$string_output_adapter@D@__crt_stdio_output@@V?$positional_parameter_base@DV?$string_output_adapter@D@__crt_stdio_output@@@2@@__crt_stdio_output@@AEAA_NXZ 00000001800766e0 f i libucrtd:output.obj
 0001:00075740       ?state_case_normal_common@?$output_processor@DV?$string_output_adapter@D@__crt_stdio_output@@V?$standard_base@DV?$string_output_adapter@D@__crt_stdio_output@@@2@@__crt_stdio_output@@AEAA_NXZ 0000000180076740 f i libucrtd:output.obj
 0001:000757a0       ?state_case_normal_common@?$output_processor@_WV?$stream_output_adapter@_W@__crt_stdio_output@@V?$format_validation_base@_WV?$stream_output_adapter@_W@__crt_stdio_output@@@2@@__crt_stdio_output@@AEAA_NXZ 00000001800767a0 f i libucrtd:output.obj
 0001:00075800       ?state_case_normal_common@?$output_processor@_WV?$stream_output_adapter@_W@__crt_stdio_output@@V?$positional_parameter_base@_WV?$stream_output_adapter@_W@__crt_stdio_output@@@2@@__crt_stdio_output@@AEAA_NXZ 0000000180076800 f i libucrtd:output.obj
 0001:00075860       ?state_case_normal_common@?$output_processor@_WV?$stream_output_adapter@_W@__crt_stdio_output@@V?$standard_base@_WV?$stream_output_adapter@_W@__crt_stdio_output@@@2@@__crt_stdio_output@@AEAA_NXZ 0000000180076860 f i libucrtd:output.obj
 0001:000758c0       ?state_case_normal_common@?$output_processor@_WV?$string_output_adapter@_W@__crt_stdio_output@@V?$format_validation_base@_WV?$string_output_adapter@_W@__crt_stdio_output@@@2@@__crt_stdio_output@@AEAA_NXZ 00000001800768c0 f i libucrtd:output.obj
 0001:00075920       ?state_case_normal_common@?$output_processor@_WV?$string_output_adapter@_W@__crt_stdio_output@@V?$positional_parameter_base@_WV?$string_output_adapter@_W@__crt_stdio_output@@@2@@__crt_stdio_output@@AEAA_NXZ 0000000180076920 f i libucrtd:output.obj
 0001:00075980       ?state_case_normal_common@?$output_processor@_WV?$string_output_adapter@_W@__crt_stdio_output@@V?$standard_base@_WV?$string_output_adapter@_W@__crt_stdio_output@@@2@@__crt_stdio_output@@AEAA_NXZ 0000000180076980 f i libucrtd:output.obj
 0001:000759e0       ?state_case_normal_tchar@?$output_processor@DV?$stream_output_adapter@D@__crt_stdio_output@@V?$format_validation_base@DV?$stream_output_adapter@D@__crt_stdio_output@@@2@@__crt_stdio_output@@AEAA_ND@Z 00000001800769e0 f i libucrtd:output.obj
 0001:00075b70       ?state_case_normal_tchar@?$output_processor@DV?$stream_output_adapter@D@__crt_stdio_output@@V?$positional_parameter_base@DV?$stream_output_adapter@D@__crt_stdio_output@@@2@@__crt_stdio_output@@AEAA_ND@Z 0000000180076b70 f i libucrtd:output.obj
 0001:00075d00       ?state_case_normal_tchar@?$output_processor@DV?$stream_output_adapter@D@__crt_stdio_output@@V?$standard_base@DV?$stream_output_adapter@D@__crt_stdio_output@@@2@@__crt_stdio_output@@AEAA_ND@Z 0000000180076d00 f i libucrtd:output.obj
 0001:00075e90       ?state_case_normal_tchar@?$output_processor@DV?$string_output_adapter@D@__crt_stdio_output@@V?$format_validation_base@DV?$string_output_adapter@D@__crt_stdio_output@@@2@@__crt_stdio_output@@AEAA_ND@Z 0000000180076e90 f i libucrtd:output.obj
 0001:00076020       ?state_case_normal_tchar@?$output_processor@DV?$string_output_adapter@D@__crt_stdio_output@@V?$positional_parameter_base@DV?$string_output_adapter@D@__crt_stdio_output@@@2@@__crt_stdio_output@@AEAA_ND@Z 0000000180077020 f i libucrtd:output.obj
 0001:000761b0       ?state_case_normal_tchar@?$output_processor@DV?$string_output_adapter@D@__crt_stdio_output@@V?$standard_base@DV?$string_output_adapter@D@__crt_stdio_output@@@2@@__crt_stdio_output@@AEAA_ND@Z 00000001800771b0 f i libucrtd:output.obj
 0001:00076340       ?state_case_normal_tchar@?$output_processor@_WV?$stream_output_adapter@_W@__crt_stdio_output@@V?$format_validation_base@_WV?$stream_output_adapter@_W@__crt_stdio_output@@@2@@__crt_stdio_output@@AEAA_N_W@Z 0000000180077340 f i libucrtd:output.obj
 0001:00076360       ?state_case_normal_tchar@?$output_processor@_WV?$stream_output_adapter@_W@__crt_stdio_output@@V?$positional_parameter_base@_WV?$stream_output_adapter@_W@__crt_stdio_output@@@2@@__crt_stdio_output@@AEAA_N_W@Z 0000000180077360 f i libucrtd:output.obj
 0001:00076380       ?state_case_normal_tchar@?$output_processor@_WV?$stream_output_adapter@_W@__crt_stdio_output@@V?$standard_base@_WV?$stream_output_adapter@_W@__crt_stdio_output@@@2@@__crt_stdio_output@@AEAA_N_W@Z 0000000180077380 f i libucrtd:output.obj
 0001:000763a0       ?state_case_normal_tchar@?$output_processor@_WV?$string_output_adapter@_W@__crt_stdio_output@@V?$format_validation_base@_WV?$string_output_adapter@_W@__crt_stdio_output@@@2@@__crt_stdio_output@@AEAA_N_W@Z 00000001800773a0 f i libucrtd:output.obj
 0001:000763c0       ?state_case_normal_tchar@?$output_processor@_WV?$string_output_adapter@_W@__crt_stdio_output@@V?$positional_parameter_base@_WV?$string_output_adapter@_W@__crt_stdio_output@@@2@@__crt_stdio_output@@AEAA_N_W@Z 00000001800773c0 f i libucrtd:output.obj
 0001:000763e0       ?state_case_normal_tchar@?$output_processor@_WV?$string_output_adapter@_W@__crt_stdio_output@@V?$standard_base@_WV?$string_output_adapter@_W@__crt_stdio_output@@@2@@__crt_stdio_output@@AEAA_N_W@Z 00000001800773e0 f i libucrtd:output.obj
 0001:00076400       ?state_case_percent@?$output_processor@DV?$stream_output_adapter@D@__crt_stdio_output@@V?$format_validation_base@DV?$stream_output_adapter@D@__crt_stdio_output@@@2@@__crt_stdio_output@@AEAA_NXZ 0000000180077400 f i libucrtd:output.obj
 0001:00076450       ?state_case_percent@?$output_processor@DV?$stream_output_adapter@D@__crt_stdio_output@@V?$positional_parameter_base@DV?$stream_output_adapter@D@__crt_stdio_output@@@2@@__crt_stdio_output@@AEAA_NXZ 0000000180077450 f i libucrtd:output.obj
 0001:000764a0       ?state_case_percent@?$output_processor@DV?$stream_output_adapter@D@__crt_stdio_output@@V?$standard_base@DV?$stream_output_adapter@D@__crt_stdio_output@@@2@@__crt_stdio_output@@AEAA_NXZ 00000001800774a0 f i libucrtd:output.obj
 0001:000764f0       ?state_case_percent@?$output_processor@DV?$string_output_adapter@D@__crt_stdio_output@@V?$format_validation_base@DV?$string_output_adapter@D@__crt_stdio_output@@@2@@__crt_stdio_output@@AEAA_NXZ 00000001800774f0 f i libucrtd:output.obj
 0001:00076540       ?state_case_percent@?$output_processor@DV?$string_output_adapter@D@__crt_stdio_output@@V?$positional_parameter_base@DV?$string_output_adapter@D@__crt_stdio_output@@@2@@__crt_stdio_output@@AEAA_NXZ 0000000180077540 f i libucrtd:output.obj
 0001:00076590       ?state_case_percent@?$output_processor@DV?$string_output_adapter@D@__crt_stdio_output@@V?$standard_base@DV?$string_output_adapter@D@__crt_stdio_output@@@2@@__crt_stdio_output@@AEAA_NXZ 0000000180077590 f i libucrtd:output.obj
 0001:000765e0       ?state_case_percent@?$output_processor@_WV?$stream_output_adapter@_W@__crt_stdio_output@@V?$format_validation_base@_WV?$stream_output_adapter@_W@__crt_stdio_output@@@2@@__crt_stdio_output@@AEAA_NXZ 00000001800775e0 f i libucrtd:output.obj
 0001:00076630       ?state_case_percent@?$output_processor@_WV?$stream_output_adapter@_W@__crt_stdio_output@@V?$positional_parameter_base@_WV?$stream_output_adapter@_W@__crt_stdio_output@@@2@@__crt_stdio_output@@AEAA_NXZ 0000000180077630 f i libucrtd:output.obj
 0001:00076680       ?state_case_percent@?$output_processor@_WV?$stream_output_adapter@_W@__crt_stdio_output@@V?$standard_base@_WV?$stream_output_adapter@_W@__crt_stdio_output@@@2@@__crt_stdio_output@@AEAA_NXZ 0000000180077680 f i libucrtd:output.obj
 0001:000766d0       ?state_case_percent@?$output_processor@_WV?$string_output_adapter@_W@__crt_stdio_output@@V?$format_validation_base@_WV?$string_output_adapter@_W@__crt_stdio_output@@@2@@__crt_stdio_output@@AEAA_NXZ 00000001800776d0 f i libucrtd:output.obj
 0001:00076720       ?state_case_percent@?$output_processor@_WV?$string_output_adapter@_W@__crt_stdio_output@@V?$positional_parameter_base@_WV?$string_output_adapter@_W@__crt_stdio_output@@@2@@__crt_stdio_output@@AEAA_NXZ 0000000180077720 f i libucrtd:output.obj
 0001:00076770       ?state_case_percent@?$output_processor@_WV?$string_output_adapter@_W@__crt_stdio_output@@V?$standard_base@_WV?$string_output_adapter@_W@__crt_stdio_output@@@2@@__crt_stdio_output@@AEAA_NXZ 0000000180077770 f i libucrtd:output.obj
 0001:000767c0       ?state_case_precision@?$output_processor@DV?$stream_output_adapter@D@__crt_stdio_output@@V?$format_validation_base@DV?$stream_output_adapter@D@__crt_stdio_output@@@2@@__crt_stdio_output@@AEAA_NXZ 00000001800777c0 f i libucrtd:output.obj
 0001:00076840       ?state_case_precision@?$output_processor@DV?$stream_output_adapter@D@__crt_stdio_output@@V?$positional_parameter_base@DV?$stream_output_adapter@D@__crt_stdio_output@@@2@@__crt_stdio_output@@AEAA_NXZ 0000000180077840 f i libucrtd:output.obj
 0001:000768c0       ?state_case_precision@?$output_processor@DV?$stream_output_adapter@D@__crt_stdio_output@@V?$standard_base@DV?$stream_output_adapter@D@__crt_stdio_output@@@2@@__crt_stdio_output@@AEAA_NXZ 00000001800778c0 f i libucrtd:output.obj
 0001:00076940       ?state_case_precision@?$output_processor@DV?$string_output_adapter@D@__crt_stdio_output@@V?$format_validation_base@DV?$string_output_adapter@D@__crt_stdio_output@@@2@@__crt_stdio_output@@AEAA_NXZ 0000000180077940 f i libucrtd:output.obj
 0001:000769c0       ?state_case_precision@?$output_processor@DV?$string_output_adapter@D@__crt_stdio_output@@V?$positional_parameter_base@DV?$string_output_adapter@D@__crt_stdio_output@@@2@@__crt_stdio_output@@AEAA_NXZ 00000001800779c0 f i libucrtd:output.obj
 0001:00076a40       ?state_case_precision@?$output_processor@DV?$string_output_adapter@D@__crt_stdio_output@@V?$standard_base@DV?$string_output_adapter@D@__crt_stdio_output@@@2@@__crt_stdio_output@@AEAA_NXZ 0000000180077a40 f i libucrtd:output.obj
 0001:00076ac0       ?state_case_precision@?$output_processor@_WV?$stream_output_adapter@_W@__crt_stdio_output@@V?$format_validation_base@_WV?$stream_output_adapter@_W@__crt_stdio_output@@@2@@__crt_stdio_output@@AEAA_NXZ 0000000180077ac0 f i libucrtd:output.obj
 0001:00076b40       ?state_case_precision@?$output_processor@_WV?$stream_output_adapter@_W@__crt_stdio_output@@V?$positional_parameter_base@_WV?$stream_output_adapter@_W@__crt_stdio_output@@@2@@__crt_stdio_output@@AEAA_NXZ 0000000180077b40 f i libucrtd:output.obj
 0001:00076bc0       ?state_case_precision@?$output_processor@_WV?$stream_output_adapter@_W@__crt_stdio_output@@V?$standard_base@_WV?$stream_output_adapter@_W@__crt_stdio_output@@@2@@__crt_stdio_output@@AEAA_NXZ 0000000180077bc0 f i libucrtd:output.obj
 0001:00076c40       ?state_case_precision@?$output_processor@_WV?$string_output_adapter@_W@__crt_stdio_output@@V?$format_validation_base@_WV?$string_output_adapter@_W@__crt_stdio_output@@@2@@__crt_stdio_output@@AEAA_NXZ 0000000180077c40 f i libucrtd:output.obj
 0001:00076cc0       ?state_case_precision@?$output_processor@_WV?$string_output_adapter@_W@__crt_stdio_output@@V?$positional_parameter_base@_WV?$string_output_adapter@_W@__crt_stdio_output@@@2@@__crt_stdio_output@@AEAA_NXZ 0000000180077cc0 f i libucrtd:output.obj
 0001:00076d40       ?state_case_precision@?$output_processor@_WV?$string_output_adapter@_W@__crt_stdio_output@@V?$standard_base@_WV?$string_output_adapter@_W@__crt_stdio_output@@@2@@__crt_stdio_output@@AEAA_NXZ 0000000180077d40 f i libucrtd:output.obj
 0001:00076dc0       ?state_case_size@?$output_processor@DV?$stream_output_adapter@D@__crt_stdio_output@@V?$format_validation_base@DV?$stream_output_adapter@D@__crt_stdio_output@@@2@@__crt_stdio_output@@AEAA_NXZ 0000000180077dc0 f i libucrtd:output.obj
 0001:00077280       ?state_case_size@?$output_processor@DV?$stream_output_adapter@D@__crt_stdio_output@@V?$positional_parameter_base@DV?$stream_output_adapter@D@__crt_stdio_output@@@2@@__crt_stdio_output@@AEAA_NXZ 0000000180078280 f i libucrtd:output.obj
 0001:00077740       ?state_case_size@?$output_processor@DV?$stream_output_adapter@D@__crt_stdio_output@@V?$standard_base@DV?$stream_output_adapter@D@__crt_stdio_output@@@2@@__crt_stdio_output@@AEAA_NXZ 0000000180078740 f i libucrtd:output.obj
 0001:00077c00       ?state_case_size@?$output_processor@DV?$string_output_adapter@D@__crt_stdio_output@@V?$format_validation_base@DV?$string_output_adapter@D@__crt_stdio_output@@@2@@__crt_stdio_output@@AEAA_NXZ 0000000180078c00 f i libucrtd:output.obj
 0001:000780c0       ?state_case_size@?$output_processor@DV?$string_output_adapter@D@__crt_stdio_output@@V?$positional_parameter_base@DV?$string_output_adapter@D@__crt_stdio_output@@@2@@__crt_stdio_output@@AEAA_NXZ 00000001800790c0 f i libucrtd:output.obj
 0001:00078580       ?state_case_size@?$output_processor@DV?$string_output_adapter@D@__crt_stdio_output@@V?$standard_base@DV?$string_output_adapter@D@__crt_stdio_output@@@2@@__crt_stdio_output@@AEAA_NXZ 0000000180079580 f i libucrtd:output.obj
 0001:00078a40       ?state_case_size@?$output_processor@_WV?$stream_output_adapter@_W@__crt_stdio_output@@V?$format_validation_base@_WV?$stream_output_adapter@_W@__crt_stdio_output@@@2@@__crt_stdio_output@@AEAA_NXZ 0000000180079a40 f i libucrtd:output.obj
 0001:00078f00       ?state_case_size@?$output_processor@_WV?$stream_output_adapter@_W@__crt_stdio_output@@V?$positional_parameter_base@_WV?$stream_output_adapter@_W@__crt_stdio_output@@@2@@__crt_stdio_output@@AEAA_NXZ 0000000180079f00 f i libucrtd:output.obj
 0001:000793c0       ?state_case_size@?$output_processor@_WV?$stream_output_adapter@_W@__crt_stdio_output@@V?$standard_base@_WV?$stream_output_adapter@_W@__crt_stdio_output@@@2@@__crt_stdio_output@@AEAA_NXZ 000000018007a3c0 f i libucrtd:output.obj
 0001:00079880       ?state_case_size@?$output_processor@_WV?$string_output_adapter@_W@__crt_stdio_output@@V?$format_validation_base@_WV?$string_output_adapter@_W@__crt_stdio_output@@@2@@__crt_stdio_output@@AEAA_NXZ 000000018007a880 f i libucrtd:output.obj
 0001:00079d40       ?state_case_size@?$output_processor@_WV?$string_output_adapter@_W@__crt_stdio_output@@V?$positional_parameter_base@_WV?$string_output_adapter@_W@__crt_stdio_output@@@2@@__crt_stdio_output@@AEAA_NXZ 000000018007ad40 f i libucrtd:output.obj
 0001:0007a200       ?state_case_size@?$output_processor@_WV?$string_output_adapter@_W@__crt_stdio_output@@V?$standard_base@_WV?$string_output_adapter@_W@__crt_stdio_output@@@2@@__crt_stdio_output@@AEAA_NXZ 000000018007b200 f i libucrtd:output.obj
 0001:0007a6c0       ?state_case_type@?$output_processor@DV?$stream_output_adapter@D@__crt_stdio_output@@V?$format_validation_base@DV?$stream_output_adapter@D@__crt_stdio_output@@@2@@__crt_stdio_output@@AEAA_NXZ 000000018007b6c0 f i libucrtd:output.obj
 0001:0007ab80       ?state_case_type@?$output_processor@DV?$stream_output_adapter@D@__crt_stdio_output@@V?$positional_parameter_base@DV?$stream_output_adapter@D@__crt_stdio_output@@@2@@__crt_stdio_output@@AEAA_NXZ 000000018007bb80 f i libucrtd:output.obj
 0001:0007b040       ?state_case_type@?$output_processor@DV?$stream_output_adapter@D@__crt_stdio_output@@V?$standard_base@DV?$stream_output_adapter@D@__crt_stdio_output@@@2@@__crt_stdio_output@@AEAA_NXZ 000000018007c040 f i libucrtd:output.obj
 0001:0007b500       ?state_case_type@?$output_processor@DV?$string_output_adapter@D@__crt_stdio_output@@V?$format_validation_base@DV?$string_output_adapter@D@__crt_stdio_output@@@2@@__crt_stdio_output@@AEAA_NXZ 000000018007c500 f i libucrtd:output.obj
 0001:0007b9c0       ?state_case_type@?$output_processor@DV?$string_output_adapter@D@__crt_stdio_output@@V?$positional_parameter_base@DV?$string_output_adapter@D@__crt_stdio_output@@@2@@__crt_stdio_output@@AEAA_NXZ 000000018007c9c0 f i libucrtd:output.obj
 0001:0007be80       ?state_case_type@?$output_processor@DV?$string_output_adapter@D@__crt_stdio_output@@V?$standard_base@DV?$string_output_adapter@D@__crt_stdio_output@@@2@@__crt_stdio_output@@AEAA_NXZ 000000018007ce80 f i libucrtd:output.obj
 0001:0007c340       ?state_case_type@?$output_processor@_WV?$stream_output_adapter@_W@__crt_stdio_output@@V?$format_validation_base@_WV?$stream_output_adapter@_W@__crt_stdio_output@@@2@@__crt_stdio_output@@AEAA_NXZ 000000018007d340 f i libucrtd:output.obj
 0001:0007c8d0       ?state_case_type@?$output_processor@_WV?$stream_output_adapter@_W@__crt_stdio_output@@V?$positional_parameter_base@_WV?$stream_output_adapter@_W@__crt_stdio_output@@@2@@__crt_stdio_output@@AEAA_NXZ 000000018007d8d0 f i libucrtd:output.obj
 0001:0007ce60       ?state_case_type@?$output_processor@_WV?$stream_output_adapter@_W@__crt_stdio_output@@V?$standard_base@_WV?$stream_output_adapter@_W@__crt_stdio_output@@@2@@__crt_stdio_output@@AEAA_NXZ 000000018007de60 f i libucrtd:output.obj
 0001:0007d3f0       ?state_case_type@?$output_processor@_WV?$string_output_adapter@_W@__crt_stdio_output@@V?$format_validation_base@_WV?$string_output_adapter@_W@__crt_stdio_output@@@2@@__crt_stdio_output@@AEAA_NXZ 000000018007e3f0 f i libucrtd:output.obj
 0001:0007d980       ?state_case_type@?$output_processor@_WV?$string_output_adapter@_W@__crt_stdio_output@@V?$positional_parameter_base@_WV?$string_output_adapter@_W@__crt_stdio_output@@@2@@__crt_stdio_output@@AEAA_NXZ 000000018007e980 f i libucrtd:output.obj
 0001:0007df10       ?state_case_type@?$output_processor@_WV?$string_output_adapter@_W@__crt_stdio_output@@V?$standard_base@_WV?$string_output_adapter@_W@__crt_stdio_output@@@2@@__crt_stdio_output@@AEAA_NXZ 000000018007ef10 f i libucrtd:output.obj
 0001:0007e4a0       ?state_case_width@?$output_processor@DV?$stream_output_adapter@D@__crt_stdio_output@@V?$format_validation_base@DV?$stream_output_adapter@D@__crt_stdio_output@@@2@@__crt_stdio_output@@AEAA_NXZ 000000018007f4a0 f i libucrtd:output.obj
 0001:0007e530       ?state_case_width@?$output_processor@DV?$stream_output_adapter@D@__crt_stdio_output@@V?$positional_parameter_base@DV?$stream_output_adapter@D@__crt_stdio_output@@@2@@__crt_stdio_output@@AEAA_NXZ 000000018007f530 f i libucrtd:output.obj
 0001:0007e5c0       ?state_case_width@?$output_processor@DV?$stream_output_adapter@D@__crt_stdio_output@@V?$standard_base@DV?$stream_output_adapter@D@__crt_stdio_output@@@2@@__crt_stdio_output@@AEAA_NXZ 000000018007f5c0 f i libucrtd:output.obj
 0001:0007e650       ?state_case_width@?$output_processor@DV?$string_output_adapter@D@__crt_stdio_output@@V?$format_validation_base@DV?$string_output_adapter@D@__crt_stdio_output@@@2@@__crt_stdio_output@@AEAA_NXZ 000000018007f650 f i libucrtd:output.obj
 0001:0007e6e0       ?state_case_width@?$output_processor@DV?$string_output_adapter@D@__crt_stdio_output@@V?$positional_parameter_base@DV?$string_output_adapter@D@__crt_stdio_output@@@2@@__crt_stdio_output@@AEAA_NXZ 000000018007f6e0 f i libucrtd:output.obj
 0001:0007e770       ?state_case_width@?$output_processor@DV?$string_output_adapter@D@__crt_stdio_output@@V?$standard_base@DV?$string_output_adapter@D@__crt_stdio_output@@@2@@__crt_stdio_output@@AEAA_NXZ 000000018007f770 f i libucrtd:output.obj
 0001:0007e800       ?state_case_width@?$output_processor@_WV?$stream_output_adapter@_W@__crt_stdio_output@@V?$format_validation_base@_WV?$stream_output_adapter@_W@__crt_stdio_output@@@2@@__crt_stdio_output@@AEAA_NXZ 000000018007f800 f i libucrtd:output.obj
 0001:0007e890       ?state_case_width@?$output_processor@_WV?$stream_output_adapter@_W@__crt_stdio_output@@V?$positional_parameter_base@_WV?$stream_output_adapter@_W@__crt_stdio_output@@@2@@__crt_stdio_output@@AEAA_NXZ 000000018007f890 f i libucrtd:output.obj
 0001:0007e920       ?state_case_width@?$output_processor@_WV?$stream_output_adapter@_W@__crt_stdio_output@@V?$standard_base@_WV?$stream_output_adapter@_W@__crt_stdio_output@@@2@@__crt_stdio_output@@AEAA_NXZ 000000018007f920 f i libucrtd:output.obj
 0001:0007e9b0       ?state_case_width@?$output_processor@_WV?$string_output_adapter@_W@__crt_stdio_output@@V?$format_validation_base@_WV?$string_output_adapter@_W@__crt_stdio_output@@@2@@__crt_stdio_output@@AEAA_NXZ 000000018007f9b0 f i libucrtd:output.obj
 0001:0007ea40       ?state_case_width@?$output_processor@_WV?$string_output_adapter@_W@__crt_stdio_output@@V?$positional_parameter_base@_WV?$string_output_adapter@_W@__crt_stdio_output@@@2@@__crt_stdio_output@@AEAA_NXZ 000000018007fa40 f i libucrtd:output.obj
 0001:0007ead0       ?state_case_width@?$output_processor@_WV?$string_output_adapter@_W@__crt_stdio_output@@V?$standard_base@_WV?$string_output_adapter@_W@__crt_stdio_output@@@2@@__crt_stdio_output@@AEAA_NXZ 000000018007fad0 f i libucrtd:output.obj
 0001:0007eb60       ?state_count@?$format_validation_base@DV?$stream_output_adapter@D@__crt_stdio_output@@@__crt_stdio_output@@KAIXZ 000000018007fb60 f i libucrtd:output.obj
 0001:0007eb70       ?state_count@?$format_validation_base@DV?$string_output_adapter@D@__crt_stdio_output@@@__crt_stdio_output@@KAIXZ 000000018007fb70 f i libucrtd:output.obj
 0001:0007eb80       ?state_count@?$format_validation_base@_WV?$stream_output_adapter@_W@__crt_stdio_output@@@__crt_stdio_output@@KAIXZ 000000018007fb80 f i libucrtd:output.obj
 0001:0007eb90       ?state_count@?$format_validation_base@_WV?$string_output_adapter@_W@__crt_stdio_output@@@__crt_stdio_output@@KAIXZ 000000018007fb90 f i libucrtd:output.obj
 0001:0007eba0       ?state_count@?$standard_base@DV?$stream_output_adapter@D@__crt_stdio_output@@@__crt_stdio_output@@KAIXZ 000000018007fba0 f i libucrtd:output.obj
 0001:0007ebb0       ?state_count@?$standard_base@DV?$string_output_adapter@D@__crt_stdio_output@@@__crt_stdio_output@@KAIXZ 000000018007fbb0 f i libucrtd:output.obj
 0001:0007ebc0       ?state_count@?$standard_base@_WV?$stream_output_adapter@_W@__crt_stdio_output@@@__crt_stdio_output@@KAIXZ 000000018007fbc0 f i libucrtd:output.obj
 0001:0007ebd0       ?state_count@?$standard_base@_WV?$string_output_adapter@_W@__crt_stdio_output@@@__crt_stdio_output@@KAIXZ 000000018007fbd0 f i libucrtd:output.obj
 0001:0007ebe0       ?state_transition_table@?$format_validation_base@DV?$stream_output_adapter@D@__crt_stdio_output@@@__crt_stdio_output@@KAAEBV?$spectre_mitigated_lookup_table@Ustate_transition_pair@__crt_stdio_output@@$0IA@@2@XZ 000000018007fbe0 f i libucrtd:output.obj
 0001:0007ebf0       ?state_transition_table@?$format_validation_base@DV?$string_output_adapter@D@__crt_stdio_output@@@__crt_stdio_output@@KAAEBV?$spectre_mitigated_lookup_table@Ustate_transition_pair@__crt_stdio_output@@$0IA@@2@XZ 000000018007fbf0 f i libucrtd:output.obj
 0001:0007ec00       ?state_transition_table@?$format_validation_base@_WV?$stream_output_adapter@_W@__crt_stdio_output@@@__crt_stdio_output@@KAAEBV?$spectre_mitigated_lookup_table@Ustate_transition_pair@__crt_stdio_output@@$0IA@@2@XZ 000000018007fc00 f i libucrtd:output.obj
 0001:0007ec10       ?state_transition_table@?$format_validation_base@_WV?$string_output_adapter@_W@__crt_stdio_output@@@__crt_stdio_output@@KAAEBV?$spectre_mitigated_lookup_table@Ustate_transition_pair@__crt_stdio_output@@$0IA@@2@XZ 000000018007fc10 f i libucrtd:output.obj
 0001:0007ec20       ?state_transition_table@?$standard_base@DV?$stream_output_adapter@D@__crt_stdio_output@@@__crt_stdio_output@@KAAEBV?$spectre_mitigated_lookup_table@Ustate_transition_pair@__crt_stdio_output@@$0IA@@2@XZ 000000018007fc20 f i libucrtd:output.obj
 0001:0007ec30       ?state_transition_table@?$standard_base@DV?$string_output_adapter@D@__crt_stdio_output@@@__crt_stdio_output@@KAAEBV?$spectre_mitigated_lookup_table@Ustate_transition_pair@__crt_stdio_output@@$0IA@@2@XZ 000000018007fc30 f i libucrtd:output.obj
 0001:0007ec40       ?state_transition_table@?$standard_base@_WV?$stream_output_adapter@_W@__crt_stdio_output@@@__crt_stdio_output@@KAAEBV?$spectre_mitigated_lookup_table@Ustate_transition_pair@__crt_stdio_output@@$0IA@@2@XZ 000000018007fc40 f i libucrtd:output.obj
 0001:0007ec50       ?state_transition_table@?$standard_base@_WV?$string_output_adapter@_W@__crt_stdio_output@@@__crt_stdio_output@@KAAEBV?$spectre_mitigated_lookup_table@Ustate_transition_pair@__crt_stdio_output@@$0IA@@2@XZ 000000018007fc50 f i libucrtd:output.obj
 0001:0007ec60       ?tchar_string@?$common_data@D@__crt_stdio_output@@IEAAAEAPEADD@Z 000000018007fc60 f i libucrtd:output.obj
 0001:0007ec80       ?tchar_string@?$common_data@D@__crt_stdio_output@@IEAAAEAPEADXZ 000000018007fc80 f i libucrtd:output.obj
 0001:0007eca0       ?tchar_string@?$common_data@_W@__crt_stdio_output@@IEAAAEAPEA_WXZ 000000018007fca0 f i libucrtd:output.obj
 0001:0007ecc0       ?tchar_string@?$common_data@_W@__crt_stdio_output@@IEAAAEAPEA_W_W@Z 000000018007fcc0 f i libucrtd:output.obj
 0001:0007ece0       ?to_integer_size@__crt_stdio_output@@YA_KW4length_modifier@1@@Z 000000018007fce0 f i libucrtd:output.obj
 0001:0007ed90       ?type_case_X@?$output_processor@DV?$stream_output_adapter@D@__crt_stdio_output@@V?$format_validation_base@DV?$stream_output_adapter@D@__crt_stdio_output@@@2@@__crt_stdio_output@@AEAA_NXZ 000000018007fd90 f i libucrtd:output.obj
 0001:0007edb0       ?type_case_X@?$output_processor@DV?$stream_output_adapter@D@__crt_stdio_output@@V?$positional_parameter_base@DV?$stream_output_adapter@D@__crt_stdio_output@@@2@@__crt_stdio_output@@AEAA_NXZ 000000018007fdb0 f i libucrtd:output.obj
 0001:0007edd0       ?type_case_X@?$output_processor@DV?$stream_output_adapter@D@__crt_stdio_output@@V?$standard_base@DV?$stream_output_adapter@D@__crt_stdio_output@@@2@@__crt_stdio_output@@AEAA_NXZ 000000018007fdd0 f i libucrtd:output.obj
 0001:0007edf0       ?type_case_X@?$output_processor@DV?$string_output_adapter@D@__crt_stdio_output@@V?$format_validation_base@DV?$string_output_adapter@D@__crt_stdio_output@@@2@@__crt_stdio_output@@AEAA_NXZ 000000018007fdf0 f i libucrtd:output.obj
 0001:0007ee10       ?type_case_X@?$output_processor@DV?$string_output_adapter@D@__crt_stdio_output@@V?$positional_parameter_base@DV?$string_output_adapter@D@__crt_stdio_output@@@2@@__crt_stdio_output@@AEAA_NXZ 000000018007fe10 f i libucrtd:output.obj
 0001:0007ee30       ?type_case_X@?$output_processor@DV?$string_output_adapter@D@__crt_stdio_output@@V?$standard_base@DV?$string_output_adapter@D@__crt_stdio_output@@@2@@__crt_stdio_output@@AEAA_NXZ 000000018007fe30 f i libucrtd:output.obj
 0001:0007ee50       ?type_case_X@?$output_processor@_WV?$stream_output_adapter@_W@__crt_stdio_output@@V?$format_validation_base@_WV?$stream_output_adapter@_W@__crt_stdio_output@@@2@@__crt_stdio_output@@AEAA_NXZ 000000018007fe50 f i libucrtd:output.obj
 0001:0007ee70       ?type_case_X@?$output_processor@_WV?$stream_output_adapter@_W@__crt_stdio_output@@V?$positional_parameter_base@_WV?$stream_output_adapter@_W@__crt_stdio_output@@@2@@__crt_stdio_output@@AEAA_NXZ 000000018007fe70 f i libucrtd:output.obj
 0001:0007ee90       ?type_case_X@?$output_processor@_WV?$stream_output_adapter@_W@__crt_stdio_output@@V?$standard_base@_WV?$stream_output_adapter@_W@__crt_stdio_output@@@2@@__crt_stdio_output@@AEAA_NXZ 000000018007fe90 f i libucrtd:output.obj
 0001:0007eeb0       ?type_case_X@?$output_processor@_WV?$string_output_adapter@_W@__crt_stdio_output@@V?$format_validation_base@_WV?$string_output_adapter@_W@__crt_stdio_output@@@2@@__crt_stdio_output@@AEAA_NXZ 000000018007feb0 f i libucrtd:output.obj
 0001:0007eed0       ?type_case_X@?$output_processor@_WV?$string_output_adapter@_W@__crt_stdio_output@@V?$positional_parameter_base@_WV?$string_output_adapter@_W@__crt_stdio_output@@@2@@__crt_stdio_output@@AEAA_NXZ 000000018007fed0 f i libucrtd:output.obj
 0001:0007eef0       ?type_case_X@?$output_processor@_WV?$string_output_adapter@_W@__crt_stdio_output@@V?$standard_base@_WV?$string_output_adapter@_W@__crt_stdio_output@@@2@@__crt_stdio_output@@AEAA_NXZ 000000018007fef0 f i libucrtd:output.obj
 0001:0007ef10       ?type_case_Z@?$output_processor@DV?$stream_output_adapter@D@__crt_stdio_output@@V?$format_validation_base@DV?$stream_output_adapter@D@__crt_stdio_output@@@2@@__crt_stdio_output@@AEAA_NXZ 000000018007ff10 f i libucrtd:output.obj
 0001:0007f030       ?type_case_Z@?$output_processor@DV?$stream_output_adapter@D@__crt_stdio_output@@V?$positional_parameter_base@DV?$stream_output_adapter@D@__crt_stdio_output@@@2@@__crt_stdio_output@@AEAA_NXZ 0000000180080030 f i libucrtd:output.obj
 0001:0007f150       ?type_case_Z@?$output_processor@DV?$stream_output_adapter@D@__crt_stdio_output@@V?$standard_base@DV?$stream_output_adapter@D@__crt_stdio_output@@@2@@__crt_stdio_output@@AEAA_NXZ 0000000180080150 f i libucrtd:output.obj
 0001:0007f270       ?type_case_Z@?$output_processor@DV?$string_output_adapter@D@__crt_stdio_output@@V?$format_validation_base@DV?$string_output_adapter@D@__crt_stdio_output@@@2@@__crt_stdio_output@@AEAA_NXZ 0000000180080270 f i libucrtd:output.obj
 0001:0007f390       ?type_case_Z@?$output_processor@DV?$string_output_adapter@D@__crt_stdio_output@@V?$positional_parameter_base@DV?$string_output_adapter@D@__crt_stdio_output@@@2@@__crt_stdio_output@@AEAA_NXZ 0000000180080390 f i libucrtd:output.obj
 0001:0007f4b0       ?type_case_Z@?$output_processor@DV?$string_output_adapter@D@__crt_stdio_output@@V?$standard_base@DV?$string_output_adapter@D@__crt_stdio_output@@@2@@__crt_stdio_output@@AEAA_NXZ 00000001800804b0 f i libucrtd:output.obj
 0001:0007f5d0       ?type_case_Z@?$output_processor@_WV?$stream_output_adapter@_W@__crt_stdio_output@@V?$format_validation_base@_WV?$stream_output_adapter@_W@__crt_stdio_output@@@2@@__crt_stdio_output@@AEAA_NXZ 00000001800805d0 f i libucrtd:output.obj
 0001:0007f6f0       ?type_case_Z@?$output_processor@_WV?$stream_output_adapter@_W@__crt_stdio_output@@V?$positional_parameter_base@_WV?$stream_output_adapter@_W@__crt_stdio_output@@@2@@__crt_stdio_output@@AEAA_NXZ 00000001800806f0 f i libucrtd:output.obj
 0001:0007f810       ?type_case_Z@?$output_processor@_WV?$stream_output_adapter@_W@__crt_stdio_output@@V?$standard_base@_WV?$stream_output_adapter@_W@__crt_stdio_output@@@2@@__crt_stdio_output@@AEAA_NXZ 0000000180080810 f i libucrtd:output.obj
 0001:0007f930       ?type_case_Z@?$output_processor@_WV?$string_output_adapter@_W@__crt_stdio_output@@V?$format_validation_base@_WV?$string_output_adapter@_W@__crt_stdio_output@@@2@@__crt_stdio_output@@AEAA_NXZ 0000000180080930 f i libucrtd:output.obj
 0001:0007fa50       ?type_case_Z@?$output_processor@_WV?$string_output_adapter@_W@__crt_stdio_output@@V?$positional_parameter_base@_WV?$string_output_adapter@_W@__crt_stdio_output@@@2@@__crt_stdio_output@@AEAA_NXZ 0000000180080a50 f i libucrtd:output.obj
 0001:0007fb70       ?type_case_Z@?$output_processor@_WV?$string_output_adapter@_W@__crt_stdio_output@@V?$standard_base@_WV?$string_output_adapter@_W@__crt_stdio_output@@@2@@__crt_stdio_output@@AEAA_NXZ 0000000180080b70 f i libucrtd:output.obj
 0001:0007fc90       ?type_case_a@?$output_processor@DV?$stream_output_adapter@D@__crt_stdio_output@@V?$format_validation_base@DV?$stream_output_adapter@D@__crt_stdio_output@@@2@@__crt_stdio_output@@AEAA_NXZ 0000000180080c90 f i libucrtd:output.obj
 0001:000800f0       ?type_case_a@?$output_processor@DV?$stream_output_adapter@D@__crt_stdio_output@@V?$positional_parameter_base@DV?$stream_output_adapter@D@__crt_stdio_output@@@2@@__crt_stdio_output@@AEAA_NXZ 00000001800810f0 f i libucrtd:output.obj
 0001:00080550       ?type_case_a@?$output_processor@DV?$stream_output_adapter@D@__crt_stdio_output@@V?$standard_base@DV?$stream_output_adapter@D@__crt_stdio_output@@@2@@__crt_stdio_output@@AEAA_NXZ 0000000180081550 f i libucrtd:output.obj
 0001:000809b0       ?type_case_a@?$output_processor@DV?$string_output_adapter@D@__crt_stdio_output@@V?$format_validation_base@DV?$string_output_adapter@D@__crt_stdio_output@@@2@@__crt_stdio_output@@AEAA_NXZ 00000001800819b0 f i libucrtd:output.obj
 0001:00080e10       ?type_case_a@?$output_processor@DV?$string_output_adapter@D@__crt_stdio_output@@V?$positional_parameter_base@DV?$string_output_adapter@D@__crt_stdio_output@@@2@@__crt_stdio_output@@AEAA_NXZ 0000000180081e10 f i libucrtd:output.obj
 0001:00081270       ?type_case_a@?$output_processor@DV?$string_output_adapter@D@__crt_stdio_output@@V?$standard_base@DV?$string_output_adapter@D@__crt_stdio_output@@@2@@__crt_stdio_output@@AEAA_NXZ 0000000180082270 f i libucrtd:output.obj
 0001:000816d0       ?type_case_a@?$output_processor@_WV?$stream_output_adapter@_W@__crt_stdio_output@@V?$format_validation_base@_WV?$stream_output_adapter@_W@__crt_stdio_output@@@2@@__crt_stdio_output@@AEAA_NXZ 00000001800826d0 f i libucrtd:output.obj
 0001:00081b40       ?type_case_a@?$output_processor@_WV?$stream_output_adapter@_W@__crt_stdio_output@@V?$positional_parameter_base@_WV?$stream_output_adapter@_W@__crt_stdio_output@@@2@@__crt_stdio_output@@AEAA_NXZ 0000000180082b40 f i libucrtd:output.obj
 0001:00081fb0       ?type_case_a@?$output_processor@_WV?$stream_output_adapter@_W@__crt_stdio_output@@V?$standard_base@_WV?$stream_output_adapter@_W@__crt_stdio_output@@@2@@__crt_stdio_output@@AEAA_NXZ 0000000180082fb0 f i libucrtd:output.obj
 0001:00082420       ?type_case_a@?$output_processor@_WV?$string_output_adapter@_W@__crt_stdio_output@@V?$format_validation_base@_WV?$string_output_adapter@_W@__crt_stdio_output@@@2@@__crt_stdio_output@@AEAA_NXZ 0000000180083420 f i libucrtd:output.obj
 0001:00082890       ?type_case_a@?$output_processor@_WV?$string_output_adapter@_W@__crt_stdio_output@@V?$positional_parameter_base@_WV?$string_output_adapter@_W@__crt_stdio_output@@@2@@__crt_stdio_output@@AEAA_NXZ 0000000180083890 f i libucrtd:output.obj
 0001:00082d00       ?type_case_a@?$output_processor@_WV?$string_output_adapter@_W@__crt_stdio_output@@V?$standard_base@_WV?$string_output_adapter@_W@__crt_stdio_output@@@2@@__crt_stdio_output@@AEAA_NXZ 0000000180083d00 f i libucrtd:output.obj
 0001:00083170       ?type_case_c@?$output_processor@DV?$stream_output_adapter@D@__crt_stdio_output@@V?$format_validation_base@DV?$stream_output_adapter@D@__crt_stdio_output@@@2@@__crt_stdio_output@@AEAA_NXZ 0000000180084170 f i libucrtd:output.obj
 0001:00083190       ?type_case_c@?$output_processor@DV?$stream_output_adapter@D@__crt_stdio_output@@V?$positional_parameter_base@DV?$stream_output_adapter@D@__crt_stdio_output@@@2@@__crt_stdio_output@@AEAA_NXZ 0000000180084190 f i libucrtd:output.obj
 0001:000831b0       ?type_case_c@?$output_processor@DV?$stream_output_adapter@D@__crt_stdio_output@@V?$standard_base@DV?$stream_output_adapter@D@__crt_stdio_output@@@2@@__crt_stdio_output@@AEAA_NXZ 00000001800841b0 f i libucrtd:output.obj
 0001:000831d0       ?type_case_c@?$output_processor@DV?$string_output_adapter@D@__crt_stdio_output@@V?$format_validation_base@DV?$string_output_adapter@D@__crt_stdio_output@@@2@@__crt_stdio_output@@AEAA_NXZ 00000001800841d0 f i libucrtd:output.obj
 0001:000831f0       ?type_case_c@?$output_processor@DV?$string_output_adapter@D@__crt_stdio_output@@V?$positional_parameter_base@DV?$string_output_adapter@D@__crt_stdio_output@@@2@@__crt_stdio_output@@AEAA_NXZ 00000001800841f0 f i libucrtd:output.obj
 0001:00083210       ?type_case_c@?$output_processor@DV?$string_output_adapter@D@__crt_stdio_output@@V?$standard_base@DV?$string_output_adapter@D@__crt_stdio_output@@@2@@__crt_stdio_output@@AEAA_NXZ 0000000180084210 f i libucrtd:output.obj
 0001:00083230       ?type_case_c@?$output_processor@_WV?$stream_output_adapter@_W@__crt_stdio_output@@V?$format_validation_base@_WV?$stream_output_adapter@_W@__crt_stdio_output@@@2@@__crt_stdio_output@@AEAA_NXZ 0000000180084230 f i libucrtd:output.obj
 0001:00083250       ?type_case_c@?$output_processor@_WV?$stream_output_adapter@_W@__crt_stdio_output@@V?$positional_parameter_base@_WV?$stream_output_adapter@_W@__crt_stdio_output@@@2@@__crt_stdio_output@@AEAA_NXZ 0000000180084250 f i libucrtd:output.obj
 0001:00083270       ?type_case_c@?$output_processor@_WV?$stream_output_adapter@_W@__crt_stdio_output@@V?$standard_base@_WV?$stream_output_adapter@_W@__crt_stdio_output@@@2@@__crt_stdio_output@@AEAA_NXZ 0000000180084270 f i libucrtd:output.obj
 0001:00083290       ?type_case_c@?$output_processor@_WV?$string_output_adapter@_W@__crt_stdio_output@@V?$format_validation_base@_WV?$string_output_adapter@_W@__crt_stdio_output@@@2@@__crt_stdio_output@@AEAA_NXZ 0000000180084290 f i libucrtd:output.obj
 0001:000832b0       ?type_case_c@?$output_processor@_WV?$string_output_adapter@_W@__crt_stdio_output@@V?$positional_parameter_base@_WV?$string_output_adapter@_W@__crt_stdio_output@@@2@@__crt_stdio_output@@AEAA_NXZ 00000001800842b0 f i libucrtd:output.obj
 0001:000832d0       ?type_case_c@?$output_processor@_WV?$string_output_adapter@_W@__crt_stdio_output@@V?$standard_base@_WV?$string_output_adapter@_W@__crt_stdio_output@@@2@@__crt_stdio_output@@AEAA_NXZ 00000001800842d0 f i libucrtd:output.obj
 0001:000832f0       ?type_case_c_tchar@?$output_processor@DV?$stream_output_adapter@D@__crt_stdio_output@@V?$format_validation_base@DV?$stream_output_adapter@D@__crt_stdio_output@@@2@@__crt_stdio_output@@AEAA_ND@Z 00000001800842f0 f i libucrtd:output.obj
 0001:00083460       ?type_case_c_tchar@?$output_processor@DV?$stream_output_adapter@D@__crt_stdio_output@@V?$positional_parameter_base@DV?$stream_output_adapter@D@__crt_stdio_output@@@2@@__crt_stdio_output@@AEAA_ND@Z 0000000180084460 f i libucrtd:output.obj
 0001:000835d0       ?type_case_c_tchar@?$output_processor@DV?$stream_output_adapter@D@__crt_stdio_output@@V?$standard_base@DV?$stream_output_adapter@D@__crt_stdio_output@@@2@@__crt_stdio_output@@AEAA_ND@Z 00000001800845d0 f i libucrtd:output.obj
 0001:00083740       ?type_case_c_tchar@?$output_processor@DV?$string_output_adapter@D@__crt_stdio_output@@V?$format_validation_base@DV?$string_output_adapter@D@__crt_stdio_output@@@2@@__crt_stdio_output@@AEAA_ND@Z 0000000180084740 f i libucrtd:output.obj
 0001:000838b0       ?type_case_c_tchar@?$output_processor@DV?$string_output_adapter@D@__crt_stdio_output@@V?$positional_parameter_base@DV?$string_output_adapter@D@__crt_stdio_output@@@2@@__crt_stdio_output@@AEAA_ND@Z 00000001800848b0 f i libucrtd:output.obj
 0001:00083a20       ?type_case_c_tchar@?$output_processor@DV?$string_output_adapter@D@__crt_stdio_output@@V?$standard_base@DV?$string_output_adapter@D@__crt_stdio_output@@@2@@__crt_stdio_output@@AEAA_ND@Z 0000000180084a20 f i libucrtd:output.obj
 0001:00083b90       ?type_case_c_tchar@?$output_processor@_WV?$stream_output_adapter@_W@__crt_stdio_output@@V?$format_validation_base@_WV?$stream_output_adapter@_W@__crt_stdio_output@@@2@@__crt_stdio_output@@AEAA_N_W@Z 0000000180084b90 f i libucrtd:output.obj
 0001:00083cf0       ?type_case_c_tchar@?$output_processor@_WV?$stream_output_adapter@_W@__crt_stdio_output@@V?$positional_parameter_base@_WV?$stream_output_adapter@_W@__crt_stdio_output@@@2@@__crt_stdio_output@@AEAA_N_W@Z 0000000180084cf0 f i libucrtd:output.obj
 0001:00083e50       ?type_case_c_tchar@?$output_processor@_WV?$stream_output_adapter@_W@__crt_stdio_output@@V?$standard_base@_WV?$stream_output_adapter@_W@__crt_stdio_output@@@2@@__crt_stdio_output@@AEAA_N_W@Z 0000000180084e50 f i libucrtd:output.obj
 0001:00083fb0       ?type_case_c_tchar@?$output_processor@_WV?$string_output_adapter@_W@__crt_stdio_output@@V?$format_validation_base@_WV?$string_output_adapter@_W@__crt_stdio_output@@@2@@__crt_stdio_output@@AEAA_N_W@Z 0000000180084fb0 f i libucrtd:output.obj
 0001:00084110       ?type_case_c_tchar@?$output_processor@_WV?$string_output_adapter@_W@__crt_stdio_output@@V?$positional_parameter_base@_WV?$string_output_adapter@_W@__crt_stdio_output@@@2@@__crt_stdio_output@@AEAA_N_W@Z 0000000180085110 f i libucrtd:output.obj
 0001:00084270       ?type_case_c_tchar@?$output_processor@_WV?$string_output_adapter@_W@__crt_stdio_output@@V?$standard_base@_WV?$string_output_adapter@_W@__crt_stdio_output@@@2@@__crt_stdio_output@@AEAA_N_W@Z 0000000180085270 f i libucrtd:output.obj
 0001:000843d0       ?type_case_d@?$output_processor@DV?$stream_output_adapter@D@__crt_stdio_output@@V?$format_validation_base@DV?$stream_output_adapter@D@__crt_stdio_output@@@2@@__crt_stdio_output@@AEAA_NXZ 00000001800853d0 f i libucrtd:output.obj
 0001:00084400       ?type_case_d@?$output_processor@DV?$stream_output_adapter@D@__crt_stdio_output@@V?$positional_parameter_base@DV?$stream_output_adapter@D@__crt_stdio_output@@@2@@__crt_stdio_output@@AEAA_NXZ 0000000180085400 f i libucrtd:output.obj
 0001:00084430       ?type_case_d@?$output_processor@DV?$stream_output_adapter@D@__crt_stdio_output@@V?$standard_base@DV?$stream_output_adapter@D@__crt_stdio_output@@@2@@__crt_stdio_output@@AEAA_NXZ 0000000180085430 f i libucrtd:output.obj
 0001:00084460       ?type_case_d@?$output_processor@DV?$string_output_adapter@D@__crt_stdio_output@@V?$format_validation_base@DV?$string_output_adapter@D@__crt_stdio_output@@@2@@__crt_stdio_output@@AEAA_NXZ 0000000180085460 f i libucrtd:output.obj
 0001:00084490       ?type_case_d@?$output_processor@DV?$string_output_adapter@D@__crt_stdio_output@@V?$positional_parameter_base@DV?$string_output_adapter@D@__crt_stdio_output@@@2@@__crt_stdio_output@@AEAA_NXZ 0000000180085490 f i libucrtd:output.obj
 0001:000844c0       ?type_case_d@?$output_processor@DV?$string_output_adapter@D@__crt_stdio_output@@V?$standard_base@DV?$string_output_adapter@D@__crt_stdio_output@@@2@@__crt_stdio_output@@AEAA_NXZ 00000001800854c0 f i libucrtd:output.obj
 0001:000844f0       ?type_case_d@?$output_processor@_WV?$stream_output_adapter@_W@__crt_stdio_output@@V?$format_validation_base@_WV?$stream_output_adapter@_W@__crt_stdio_output@@@2@@__crt_stdio_output@@AEAA_NXZ 00000001800854f0 f i libucrtd:output.obj
 0001:00084520       ?type_case_d@?$output_processor@_WV?$stream_output_adapter@_W@__crt_stdio_output@@V?$positional_parameter_base@_WV?$stream_output_adapter@_W@__crt_stdio_output@@@2@@__crt_stdio_output@@AEAA_NXZ 0000000180085520 f i libucrtd:output.obj
 0001:00084550       ?type_case_d@?$output_processor@_WV?$stream_output_adapter@_W@__crt_stdio_output@@V?$standard_base@_WV?$stream_output_adapter@_W@__crt_stdio_output@@@2@@__crt_stdio_output@@AEAA_NXZ 0000000180085550 f i libucrtd:output.obj
 0001:00084580       ?type_case_d@?$output_processor@_WV?$string_output_adapter@_W@__crt_stdio_output@@V?$format_validation_base@_WV?$string_output_adapter@_W@__crt_stdio_output@@@2@@__crt_stdio_output@@AEAA_NXZ 0000000180085580 f i libucrtd:output.obj
 0001:000845b0       ?type_case_d@?$output_processor@_WV?$string_output_adapter@_W@__crt_stdio_output@@V?$positional_parameter_base@_WV?$string_output_adapter@_W@__crt_stdio_output@@@2@@__crt_stdio_output@@AEAA_NXZ 00000001800855b0 f i libucrtd:output.obj
 0001:000845e0       ?type_case_d@?$output_processor@_WV?$string_output_adapter@_W@__crt_stdio_output@@V?$standard_base@_WV?$string_output_adapter@_W@__crt_stdio_output@@@2@@__crt_stdio_output@@AEAA_NXZ 00000001800855e0 f i libucrtd:output.obj
 0001:00084610       ?type_case_n@?$output_processor@DV?$stream_output_adapter@D@__crt_stdio_output@@V?$format_validation_base@DV?$stream_output_adapter@D@__crt_stdio_output@@@2@@__crt_stdio_output@@AEAA_NXZ 0000000180085610 f i libucrtd:output.obj
 0001:000848a0       ?type_case_n@?$output_processor@DV?$stream_output_adapter@D@__crt_stdio_output@@V?$positional_parameter_base@DV?$stream_output_adapter@D@__crt_stdio_output@@@2@@__crt_stdio_output@@AEAA_NXZ 00000001800858a0 f i libucrtd:output.obj
 0001:00084b30       ?type_case_n@?$output_processor@DV?$stream_output_adapter@D@__crt_stdio_output@@V?$standard_base@DV?$stream_output_adapter@D@__crt_stdio_output@@@2@@__crt_stdio_output@@AEAA_NXZ 0000000180085b30 f i libucrtd:output.obj
 0001:00084dc0       ?type_case_n@?$output_processor@DV?$string_output_adapter@D@__crt_stdio_output@@V?$format_validation_base@DV?$string_output_adapter@D@__crt_stdio_output@@@2@@__crt_stdio_output@@AEAA_NXZ 0000000180085dc0 f i libucrtd:output.obj
 0001:00085050       ?type_case_n@?$output_processor@DV?$string_output_adapter@D@__crt_stdio_output@@V?$positional_parameter_base@DV?$string_output_adapter@D@__crt_stdio_output@@@2@@__crt_stdio_output@@AEAA_NXZ 0000000180086050 f i libucrtd:output.obj
 0001:000852e0       ?type_case_n@?$output_processor@DV?$string_output_adapter@D@__crt_stdio_output@@V?$standard_base@DV?$string_output_adapter@D@__crt_stdio_output@@@2@@__crt_stdio_output@@AEAA_NXZ 00000001800862e0 f i libucrtd:output.obj
 0001:00085570       ?type_case_n@?$output_processor@_WV?$stream_output_adapter@_W@__crt_stdio_output@@V?$format_validation_base@_WV?$stream_output_adapter@_W@__crt_stdio_output@@@2@@__crt_stdio_output@@AEAA_NXZ 0000000180086570 f i libucrtd:output.obj
 0001:00085800       ?type_case_n@?$output_processor@_WV?$stream_output_adapter@_W@__crt_stdio_output@@V?$positional_parameter_base@_WV?$stream_output_adapter@_W@__crt_stdio_output@@@2@@__crt_stdio_output@@AEAA_NXZ 0000000180086800 f i libucrtd:output.obj
 0001:00085a90       ?type_case_n@?$output_processor@_WV?$stream_output_adapter@_W@__crt_stdio_output@@V?$standard_base@_WV?$stream_output_adapter@_W@__crt_stdio_output@@@2@@__crt_stdio_output@@AEAA_NXZ 0000000180086a90 f i libucrtd:output.obj
 0001:00085d20       ?type_case_n@?$output_processor@_WV?$string_output_adapter@_W@__crt_stdio_output@@V?$format_validation_base@_WV?$string_output_adapter@_W@__crt_stdio_output@@@2@@__crt_stdio_output@@AEAA_NXZ 0000000180086d20 f i libucrtd:output.obj
 0001:00085fb0       ?type_case_n@?$output_processor@_WV?$string_output_adapter@_W@__crt_stdio_output@@V?$positional_parameter_base@_WV?$string_output_adapter@_W@__crt_stdio_output@@@2@@__crt_stdio_output@@AEAA_NXZ 0000000180086fb0 f i libucrtd:output.obj
 0001:00086240       ?type_case_n@?$output_processor@_WV?$string_output_adapter@_W@__crt_stdio_output@@V?$standard_base@_WV?$string_output_adapter@_W@__crt_stdio_output@@@2@@__crt_stdio_output@@AEAA_NXZ 0000000180087240 f i libucrtd:output.obj
 0001:000864d0       ?type_case_o@?$output_processor@DV?$stream_output_adapter@D@__crt_stdio_output@@V?$format_validation_base@DV?$stream_output_adapter@D@__crt_stdio_output@@@2@@__crt_stdio_output@@AEAA_NXZ 00000001800874d0 f i libucrtd:output.obj
 0001:00086510       ?type_case_o@?$output_processor@DV?$stream_output_adapter@D@__crt_stdio_output@@V?$positional_parameter_base@DV?$stream_output_adapter@D@__crt_stdio_output@@@2@@__crt_stdio_output@@AEAA_NXZ 0000000180087510 f i libucrtd:output.obj
 0001:00086550       ?type_case_o@?$output_processor@DV?$stream_output_adapter@D@__crt_stdio_output@@V?$standard_base@DV?$stream_output_adapter@D@__crt_stdio_output@@@2@@__crt_stdio_output@@AEAA_NXZ 0000000180087550 f i libucrtd:output.obj
 0001:00086590       ?type_case_o@?$output_processor@DV?$string_output_adapter@D@__crt_stdio_output@@V?$format_validation_base@DV?$string_output_adapter@D@__crt_stdio_output@@@2@@__crt_stdio_output@@AEAA_NXZ 0000000180087590 f i libucrtd:output.obj
 0001:000865d0       ?type_case_o@?$output_processor@DV?$string_output_adapter@D@__crt_stdio_output@@V?$positional_parameter_base@DV?$string_output_adapter@D@__crt_stdio_output@@@2@@__crt_stdio_output@@AEAA_NXZ 00000001800875d0 f i libucrtd:output.obj
 0001:00086610       ?type_case_o@?$output_processor@DV?$string_output_adapter@D@__crt_stdio_output@@V?$standard_base@DV?$string_output_adapter@D@__crt_stdio_output@@@2@@__crt_stdio_output@@AEAA_NXZ 0000000180087610 f i libucrtd:output.obj
 0001:00086650       ?type_case_o@?$output_processor@_WV?$stream_output_adapter@_W@__crt_stdio_output@@V?$format_validation_base@_WV?$stream_output_adapter@_W@__crt_stdio_output@@@2@@__crt_stdio_output@@AEAA_NXZ 0000000180087650 f i libucrtd:output.obj
 0001:00086690       ?type_case_o@?$output_processor@_WV?$stream_output_adapter@_W@__crt_stdio_output@@V?$positional_parameter_base@_WV?$stream_output_adapter@_W@__crt_stdio_output@@@2@@__crt_stdio_output@@AEAA_NXZ 0000000180087690 f i libucrtd:output.obj
 0001:000866d0       ?type_case_o@?$output_processor@_WV?$stream_output_adapter@_W@__crt_stdio_output@@V?$standard_base@_WV?$stream_output_adapter@_W@__crt_stdio_output@@@2@@__crt_stdio_output@@AEAA_NXZ 00000001800876d0 f i libucrtd:output.obj
 0001:00086710       ?type_case_o@?$output_processor@_WV?$string_output_adapter@_W@__crt_stdio_output@@V?$format_validation_base@_WV?$string_output_adapter@_W@__crt_stdio_output@@@2@@__crt_stdio_output@@AEAA_NXZ 0000000180087710 f i libucrtd:output.obj
 0001:00086750       ?type_case_o@?$output_processor@_WV?$string_output_adapter@_W@__crt_stdio_output@@V?$positional_parameter_base@_WV?$string_output_adapter@_W@__crt_stdio_output@@@2@@__crt_stdio_output@@AEAA_NXZ 0000000180087750 f i libucrtd:output.obj
 0001:00086790       ?type_case_o@?$output_processor@_WV?$string_output_adapter@_W@__crt_stdio_output@@V?$standard_base@_WV?$string_output_adapter@_W@__crt_stdio_output@@@2@@__crt_stdio_output@@AEAA_NXZ 0000000180087790 f i libucrtd:output.obj
 0001:000867d0       ?type_case_p@?$output_processor@DV?$stream_output_adapter@D@__crt_stdio_output@@V?$format_validation_base@DV?$stream_output_adapter@D@__crt_stdio_output@@@2@@__crt_stdio_output@@AEAA_NXZ 00000001800877d0 f i libucrtd:output.obj
 0001:00086810       ?type_case_p@?$output_processor@DV?$stream_output_adapter@D@__crt_stdio_output@@V?$positional_parameter_base@DV?$stream_output_adapter@D@__crt_stdio_output@@@2@@__crt_stdio_output@@AEAA_NXZ 0000000180087810 f i libucrtd:output.obj
 0001:00086850       ?type_case_p@?$output_processor@DV?$stream_output_adapter@D@__crt_stdio_output@@V?$standard_base@DV?$stream_output_adapter@D@__crt_stdio_output@@@2@@__crt_stdio_output@@AEAA_NXZ 0000000180087850 f i libucrtd:output.obj
 0001:00086890       ?type_case_p@?$output_processor@DV?$string_output_adapter@D@__crt_stdio_output@@V?$format_validation_base@DV?$string_output_adapter@D@__crt_stdio_output@@@2@@__crt_stdio_output@@AEAA_NXZ 0000000180087890 f i libucrtd:output.obj
 0001:000868d0       ?type_case_p@?$output_processor@DV?$string_output_adapter@D@__crt_stdio_output@@V?$positional_parameter_base@DV?$string_output_adapter@D@__crt_stdio_output@@@2@@__crt_stdio_output@@AEAA_NXZ 00000001800878d0 f i libucrtd:output.obj
 0001:00086910       ?type_case_p@?$output_processor@DV?$string_output_adapter@D@__crt_stdio_output@@V?$standard_base@DV?$string_output_adapter@D@__crt_stdio_output@@@2@@__crt_stdio_output@@AEAA_NXZ 0000000180087910 f i libucrtd:output.obj
 0001:00086950       ?type_case_p@?$output_processor@_WV?$stream_output_adapter@_W@__crt_stdio_output@@V?$format_validation_base@_WV?$stream_output_adapter@_W@__crt_stdio_output@@@2@@__crt_stdio_output@@AEAA_NXZ 0000000180087950 f i libucrtd:output.obj
 0001:00086990       ?type_case_p@?$output_processor@_WV?$stream_output_adapter@_W@__crt_stdio_output@@V?$positional_parameter_base@_WV?$stream_output_adapter@_W@__crt_stdio_output@@@2@@__crt_stdio_output@@AEAA_NXZ 0000000180087990 f i libucrtd:output.obj
 0001:000869d0       ?type_case_p@?$output_processor@_WV?$stream_output_adapter@_W@__crt_stdio_output@@V?$standard_base@_WV?$stream_output_adapter@_W@__crt_stdio_output@@@2@@__crt_stdio_output@@AEAA_NXZ 00000001800879d0 f i libucrtd:output.obj
 0001:00086a10       ?type_case_p@?$output_processor@_WV?$string_output_adapter@_W@__crt_stdio_output@@V?$format_validation_base@_WV?$string_output_adapter@_W@__crt_stdio_output@@@2@@__crt_stdio_output@@AEAA_NXZ 0000000180087a10 f i libucrtd:output.obj
 0001:00086a50       ?type_case_p@?$output_processor@_WV?$string_output_adapter@_W@__crt_stdio_output@@V?$positional_parameter_base@_WV?$string_output_adapter@_W@__crt_stdio_output@@@2@@__crt_stdio_output@@AEAA_NXZ 0000000180087a50 f i libucrtd:output.obj
 0001:00086a90       ?type_case_p@?$output_processor@_WV?$string_output_adapter@_W@__crt_stdio_output@@V?$standard_base@_WV?$string_output_adapter@_W@__crt_stdio_output@@@2@@__crt_stdio_output@@AEAA_NXZ 0000000180087a90 f i libucrtd:output.obj
 0001:00086ad0       ?type_case_s@?$output_processor@DV?$stream_output_adapter@D@__crt_stdio_output@@V?$format_validation_base@DV?$stream_output_adapter@D@__crt_stdio_output@@@2@@__crt_stdio_output@@AEAA_NXZ 0000000180087ad0 f i libucrtd:output.obj
 0001:00086bf0       ?type_case_s@?$output_processor@DV?$stream_output_adapter@D@__crt_stdio_output@@V?$positional_parameter_base@DV?$stream_output_adapter@D@__crt_stdio_output@@@2@@__crt_stdio_output@@AEAA_NXZ 0000000180087bf0 f i libucrtd:output.obj
 0001:00086d10       ?type_case_s@?$output_processor@DV?$stream_output_adapter@D@__crt_stdio_output@@V?$standard_base@DV?$stream_output_adapter@D@__crt_stdio_output@@@2@@__crt_stdio_output@@AEAA_NXZ 0000000180087d10 f i libucrtd:output.obj
 0001:00086e30       ?type_case_s@?$output_processor@DV?$string_output_adapter@D@__crt_stdio_output@@V?$format_validation_base@DV?$string_output_adapter@D@__crt_stdio_output@@@2@@__crt_stdio_output@@AEAA_NXZ 0000000180087e30 f i libucrtd:output.obj
 0001:00086f50       ?type_case_s@?$output_processor@DV?$string_output_adapter@D@__crt_stdio_output@@V?$positional_parameter_base@DV?$string_output_adapter@D@__crt_stdio_output@@@2@@__crt_stdio_output@@AEAA_NXZ 0000000180087f50 f i libucrtd:output.obj
 0001:00087070       ?type_case_s@?$output_processor@DV?$string_output_adapter@D@__crt_stdio_output@@V?$standard_base@DV?$string_output_adapter@D@__crt_stdio_output@@@2@@__crt_stdio_output@@AEAA_NXZ 0000000180088070 f i libucrtd:output.obj
 0001:00087190       ?type_case_s@?$output_processor@_WV?$stream_output_adapter@_W@__crt_stdio_output@@V?$format_validation_base@_WV?$stream_output_adapter@_W@__crt_stdio_output@@@2@@__crt_stdio_output@@AEAA_NXZ 0000000180088190 f i libucrtd:output.obj
 0001:000872b0       ?type_case_s@?$output_processor@_WV?$stream_output_adapter@_W@__crt_stdio_output@@V?$positional_parameter_base@_WV?$stream_output_adapter@_W@__crt_stdio_output@@@2@@__crt_stdio_output@@AEAA_NXZ 00000001800882b0 f i libucrtd:output.obj
 0001:000873d0       ?type_case_s@?$output_processor@_WV?$stream_output_adapter@_W@__crt_stdio_output@@V?$standard_base@_WV?$stream_output_adapter@_W@__crt_stdio_output@@@2@@__crt_stdio_output@@AEAA_NXZ 00000001800883d0 f i libucrtd:output.obj
 0001:000874f0       ?type_case_s@?$output_processor@_WV?$string_output_adapter@_W@__crt_stdio_output@@V?$format_validation_base@_WV?$string_output_adapter@_W@__crt_stdio_output@@@2@@__crt_stdio_output@@AEAA_NXZ 00000001800884f0 f i libucrtd:output.obj
 0001:00087610       ?type_case_s@?$output_processor@_WV?$string_output_adapter@_W@__crt_stdio_output@@V?$positional_parameter_base@_WV?$string_output_adapter@_W@__crt_stdio_output@@@2@@__crt_stdio_output@@AEAA_NXZ 0000000180088610 f i libucrtd:output.obj
 0001:00087730       ?type_case_s@?$output_processor@_WV?$string_output_adapter@_W@__crt_stdio_output@@V?$standard_base@_WV?$string_output_adapter@_W@__crt_stdio_output@@@2@@__crt_stdio_output@@AEAA_NXZ 0000000180088730 f i libucrtd:output.obj
 0001:00087850       ?type_case_s_compute_narrow_string_length@?$output_processor@DV?$stream_output_adapter@D@__crt_stdio_output@@V?$format_validation_base@DV?$stream_output_adapter@D@__crt_stdio_output@@@2@@__crt_stdio_output@@AEAAHHD@Z 0000000180088850 f i libucrtd:output.obj
 0001:00087880       ?type_case_s_compute_narrow_string_length@?$output_processor@DV?$stream_output_adapter@D@__crt_stdio_output@@V?$positional_parameter_base@DV?$stream_output_adapter@D@__crt_stdio_output@@@2@@__crt_stdio_output@@AEAAHHD@Z 0000000180088880 f i libucrtd:output.obj
 0001:000878b0       ?type_case_s_compute_narrow_string_length@?$output_processor@DV?$stream_output_adapter@D@__crt_stdio_output@@V?$standard_base@DV?$stream_output_adapter@D@__crt_stdio_output@@@2@@__crt_stdio_output@@AEAAHHD@Z 00000001800888b0 f i libucrtd:output.obj
 0001:000878e0       ?type_case_s_compute_narrow_string_length@?$output_processor@DV?$string_output_adapter@D@__crt_stdio_output@@V?$format_validation_base@DV?$string_output_adapter@D@__crt_stdio_output@@@2@@__crt_stdio_output@@AEAAHHD@Z 00000001800888e0 f i libucrtd:output.obj
 0001:00087910       ?type_case_s_compute_narrow_string_length@?$output_processor@DV?$string_output_adapter@D@__crt_stdio_output@@V?$positional_parameter_base@DV?$string_output_adapter@D@__crt_stdio_output@@@2@@__crt_stdio_output@@AEAAHHD@Z 0000000180088910 f i libucrtd:output.obj
 0001:00087940       ?type_case_s_compute_narrow_string_length@?$output_processor@DV?$string_output_adapter@D@__crt_stdio_output@@V?$standard_base@DV?$string_output_adapter@D@__crt_stdio_output@@@2@@__crt_stdio_output@@AEAAHHD@Z 0000000180088940 f i libucrtd:output.obj
 0001:00087970       ?type_case_s_compute_narrow_string_length@?$output_processor@_WV?$stream_output_adapter@_W@__crt_stdio_output@@V?$format_validation_base@_WV?$stream_output_adapter@_W@__crt_stdio_output@@@2@@__crt_stdio_output@@AEAAHH_W@Z 0000000180088970 f i libucrtd:output.obj
 0001:00087a10       ?type_case_s_compute_narrow_string_length@?$output_processor@_WV?$stream_output_adapter@_W@__crt_stdio_output@@V?$positional_parameter_base@_WV?$stream_output_adapter@_W@__crt_stdio_output@@@2@@__crt_stdio_output@@AEAAHH_W@Z 0000000180088a10 f i libucrtd:output.obj
 0001:00087ab0       ?type_case_s_compute_narrow_string_length@?$output_processor@_WV?$stream_output_adapter@_W@__crt_stdio_output@@V?$standard_base@_WV?$stream_output_adapter@_W@__crt_stdio_output@@@2@@__crt_stdio_output@@AEAAHH_W@Z 0000000180088ab0 f i libucrtd:output.obj
 0001:00087b50       ?type_case_s_compute_narrow_string_length@?$output_processor@_WV?$string_output_adapter@_W@__crt_stdio_output@@V?$format_validation_base@_WV?$string_output_adapter@_W@__crt_stdio_output@@@2@@__crt_stdio_output@@AEAAHH_W@Z 0000000180088b50 f i libucrtd:output.obj
 0001:00087bf0       ?type_case_s_compute_narrow_string_length@?$output_processor@_WV?$string_output_adapter@_W@__crt_stdio_output@@V?$positional_parameter_base@_WV?$string_output_adapter@_W@__crt_stdio_output@@@2@@__crt_stdio_output@@AEAAHH_W@Z 0000000180088bf0 f i libucrtd:output.obj
 0001:00087c90       ?type_case_s_compute_narrow_string_length@?$output_processor@_WV?$string_output_adapter@_W@__crt_stdio_output@@V?$standard_base@_WV?$string_output_adapter@_W@__crt_stdio_output@@@2@@__crt_stdio_output@@AEAAHH_W@Z 0000000180088c90 f i libucrtd:output.obj
 0001:00087d30       ?type_case_u@?$output_processor@DV?$stream_output_adapter@D@__crt_stdio_output@@V?$format_validation_base@DV?$stream_output_adapter@D@__crt_stdio_output@@@2@@__crt_stdio_output@@AEAA_NXZ 0000000180088d30 f i libucrtd:output.obj
 0001:00087d50       ?type_case_u@?$output_processor@DV?$stream_output_adapter@D@__crt_stdio_output@@V?$positional_parameter_base@DV?$stream_output_adapter@D@__crt_stdio_output@@@2@@__crt_stdio_output@@AEAA_NXZ 0000000180088d50 f i libucrtd:output.obj
 0001:00087d70       ?type_case_u@?$output_processor@DV?$stream_output_adapter@D@__crt_stdio_output@@V?$standard_base@DV?$stream_output_adapter@D@__crt_stdio_output@@@2@@__crt_stdio_output@@AEAA_NXZ 0000000180088d70 f i libucrtd:output.obj
 0001:00087d90       ?type_case_u@?$output_processor@DV?$string_output_adapter@D@__crt_stdio_output@@V?$format_validation_base@DV?$string_output_adapter@D@__crt_stdio_output@@@2@@__crt_stdio_output@@AEAA_NXZ 0000000180088d90 f i libucrtd:output.obj
 0001:00087db0       ?type_case_u@?$output_processor@DV?$string_output_adapter@D@__crt_stdio_output@@V?$positional_parameter_base@DV?$string_output_adapter@D@__crt_stdio_output@@@2@@__crt_stdio_output@@AEAA_NXZ 0000000180088db0 f i libucrtd:output.obj
 0001:00087dd0       ?type_case_u@?$output_processor@DV?$string_output_adapter@D@__crt_stdio_output@@V?$standard_base@DV?$string_output_adapter@D@__crt_stdio_output@@@2@@__crt_stdio_output@@AEAA_NXZ 0000000180088dd0 f i libucrtd:output.obj
 0001:00087df0       ?type_case_u@?$output_processor@_WV?$stream_output_adapter@_W@__crt_stdio_output@@V?$format_validation_base@_WV?$stream_output_adapter@_W@__crt_stdio_output@@@2@@__crt_stdio_output@@AEAA_NXZ 0000000180088df0 f i libucrtd:output.obj
 0001:00087e10       ?type_case_u@?$output_processor@_WV?$stream_output_adapter@_W@__crt_stdio_output@@V?$positional_parameter_base@_WV?$stream_output_adapter@_W@__crt_stdio_output@@@2@@__crt_stdio_output@@AEAA_NXZ 0000000180088e10 f i libucrtd:output.obj
 0001:00087e30       ?type_case_u@?$output_processor@_WV?$stream_output_adapter@_W@__crt_stdio_output@@V?$standard_base@_WV?$stream_output_adapter@_W@__crt_stdio_output@@@2@@__crt_stdio_output@@AEAA_NXZ 0000000180088e30 f i libucrtd:output.obj
 0001:00087e50       ?type_case_u@?$output_processor@_WV?$string_output_adapter@_W@__crt_stdio_output@@V?$format_validation_base@_WV?$string_output_adapter@_W@__crt_stdio_output@@@2@@__crt_stdio_output@@AEAA_NXZ 0000000180088e50 f i libucrtd:output.obj
 0001:00087e70       ?type_case_u@?$output_processor@_WV?$string_output_adapter@_W@__crt_stdio_output@@V?$positional_parameter_base@_WV?$string_output_adapter@_W@__crt_stdio_output@@@2@@__crt_stdio_output@@AEAA_NXZ 0000000180088e70 f i libucrtd:output.obj
 0001:00087e90       ?type_case_u@?$output_processor@_WV?$string_output_adapter@_W@__crt_stdio_output@@V?$standard_base@_WV?$string_output_adapter@_W@__crt_stdio_output@@@2@@__crt_stdio_output@@AEAA_NXZ 0000000180088e90 f i libucrtd:output.obj
 0001:00087eb0       ?type_case_x@?$output_processor@DV?$stream_output_adapter@D@__crt_stdio_output@@V?$format_validation_base@DV?$stream_output_adapter@D@__crt_stdio_output@@@2@@__crt_stdio_output@@AEAA_NXZ 0000000180088eb0 f i libucrtd:output.obj
 0001:00087ed0       ?type_case_x@?$output_processor@DV?$stream_output_adapter@D@__crt_stdio_output@@V?$positional_parameter_base@DV?$stream_output_adapter@D@__crt_stdio_output@@@2@@__crt_stdio_output@@AEAA_NXZ 0000000180088ed0 f i libucrtd:output.obj
 0001:00087ef0       ?type_case_x@?$output_processor@DV?$stream_output_adapter@D@__crt_stdio_output@@V?$standard_base@DV?$stream_output_adapter@D@__crt_stdio_output@@@2@@__crt_stdio_output@@AEAA_NXZ 0000000180088ef0 f i libucrtd:output.obj
 0001:00087f10       ?type_case_x@?$output_processor@DV?$string_output_adapter@D@__crt_stdio_output@@V?$format_validation_base@DV?$string_output_adapter@D@__crt_stdio_output@@@2@@__crt_stdio_output@@AEAA_NXZ 0000000180088f10 f i libucrtd:output.obj
 0001:00087f30       ?type_case_x@?$output_processor@DV?$string_output_adapter@D@__crt_stdio_output@@V?$positional_parameter_base@DV?$string_output_adapter@D@__crt_stdio_output@@@2@@__crt_stdio_output@@AEAA_NXZ 0000000180088f30 f i libucrtd:output.obj
 0001:00087f50       ?type_case_x@?$output_processor@DV?$string_output_adapter@D@__crt_stdio_output@@V?$standard_base@DV?$string_output_adapter@D@__crt_stdio_output@@@2@@__crt_stdio_output@@AEAA_NXZ 0000000180088f50 f i libucrtd:output.obj
 0001:00087f70       ?type_case_x@?$output_processor@_WV?$stream_output_adapter@_W@__crt_stdio_output@@V?$format_validation_base@_WV?$stream_output_adapter@_W@__crt_stdio_output@@@2@@__crt_stdio_output@@AEAA_NXZ 0000000180088f70 f i libucrtd:output.obj
 0001:00087f90       ?type_case_x@?$output_processor@_WV?$stream_output_adapter@_W@__crt_stdio_output@@V?$positional_parameter_base@_WV?$stream_output_adapter@_W@__crt_stdio_output@@@2@@__crt_stdio_output@@AEAA_NXZ 0000000180088f90 f i libucrtd:output.obj
 0001:00087fb0       ?type_case_x@?$output_processor@_WV?$stream_output_adapter@_W@__crt_stdio_output@@V?$standard_base@_WV?$stream_output_adapter@_W@__crt_stdio_output@@@2@@__crt_stdio_output@@AEAA_NXZ 0000000180088fb0 f i libucrtd:output.obj
 0001:00087fd0       ?type_case_x@?$output_processor@_WV?$string_output_adapter@_W@__crt_stdio_output@@V?$format_validation_base@_WV?$string_output_adapter@_W@__crt_stdio_output@@@2@@__crt_stdio_output@@AEAA_NXZ 0000000180088fd0 f i libucrtd:output.obj
 0001:00087ff0       ?type_case_x@?$output_processor@_WV?$string_output_adapter@_W@__crt_stdio_output@@V?$positional_parameter_base@_WV?$string_output_adapter@_W@__crt_stdio_output@@@2@@__crt_stdio_output@@AEAA_NXZ 0000000180088ff0 f i libucrtd:output.obj
 0001:00088010       ?type_case_x@?$output_processor@_WV?$string_output_adapter@_W@__crt_stdio_output@@V?$standard_base@_WV?$string_output_adapter@_W@__crt_stdio_output@@@2@@__crt_stdio_output@@AEAA_NXZ 0000000180089010 f i libucrtd:output.obj
 0001:00088030       ?unget@?$c_string_character_source@D@__crt_strtox@@QEAAXD@Z 0000000180089030 f i libucrtd:output.obj
 0001:00088110       ?unget@?$c_string_character_source@_W@__crt_strtox@@QEAAX_W@Z 0000000180089110 f i libucrtd:output.obj
 0001:000881f0       ?unsafe_value@?$cached@H@__crt_cached_ptd_host@@QEAAHXZ 00000001800891f0 f i libucrtd:output.obj
 0001:00088200       ?unsafe_value@?$cached@K@__crt_cached_ptd_host@@QEAAKXZ 0000000180089200 f i libucrtd:output.obj
 0001:00088210       ?unset_flag@?$output_processor@DV?$stream_output_adapter@D@__crt_stdio_output@@V?$format_validation_base@DV?$stream_output_adapter@D@__crt_stdio_output@@@2@@__crt_stdio_output@@AEAAXI@Z 0000000180089210 f i libucrtd:output.obj
 0001:00088240       ?unset_flag@?$output_processor@DV?$stream_output_adapter@D@__crt_stdio_output@@V?$positional_parameter_base@DV?$stream_output_adapter@D@__crt_stdio_output@@@2@@__crt_stdio_output@@AEAAXI@Z 0000000180089240 f i libucrtd:output.obj
 0001:00088270       ?unset_flag@?$output_processor@DV?$stream_output_adapter@D@__crt_stdio_output@@V?$standard_base@DV?$stream_output_adapter@D@__crt_stdio_output@@@2@@__crt_stdio_output@@AEAAXI@Z 0000000180089270 f i libucrtd:output.obj
 0001:000882a0       ?unset_flag@?$output_processor@DV?$string_output_adapter@D@__crt_stdio_output@@V?$format_validation_base@DV?$string_output_adapter@D@__crt_stdio_output@@@2@@__crt_stdio_output@@AEAAXI@Z 00000001800892a0 f i libucrtd:output.obj
 0001:000882d0       ?unset_flag@?$output_processor@DV?$string_output_adapter@D@__crt_stdio_output@@V?$positional_parameter_base@DV?$string_output_adapter@D@__crt_stdio_output@@@2@@__crt_stdio_output@@AEAAXI@Z 00000001800892d0 f i libucrtd:output.obj
 0001:00088300       ?unset_flag@?$output_processor@DV?$string_output_adapter@D@__crt_stdio_output@@V?$standard_base@DV?$string_output_adapter@D@__crt_stdio_output@@@2@@__crt_stdio_output@@AEAAXI@Z 0000000180089300 f i libucrtd:output.obj
 0001:00088330       ?unset_flag@?$output_processor@_WV?$stream_output_adapter@_W@__crt_stdio_output@@V?$format_validation_base@_WV?$stream_output_adapter@_W@__crt_stdio_output@@@2@@__crt_stdio_output@@AEAAXI@Z 0000000180089330 f i libucrtd:output.obj
 0001:00088360       ?unset_flag@?$output_processor@_WV?$stream_output_adapter@_W@__crt_stdio_output@@V?$positional_parameter_base@_WV?$stream_output_adapter@_W@__crt_stdio_output@@@2@@__crt_stdio_output@@AEAAXI@Z 0000000180089360 f i libucrtd:output.obj
 0001:00088390       ?unset_flag@?$output_processor@_WV?$stream_output_adapter@_W@__crt_stdio_output@@V?$standard_base@_WV?$stream_output_adapter@_W@__crt_stdio_output@@@2@@__crt_stdio_output@@AEAAXI@Z 0000000180089390 f i libucrtd:output.obj
 0001:000883c0       ?unset_flag@?$output_processor@_WV?$string_output_adapter@_W@__crt_stdio_output@@V?$format_validation_base@_WV?$string_output_adapter@_W@__crt_stdio_output@@@2@@__crt_stdio_output@@AEAAXI@Z 00000001800893c0 f i libucrtd:output.obj
 0001:000883f0       ?unset_flag@?$output_processor@_WV?$string_output_adapter@_W@__crt_stdio_output@@V?$positional_parameter_base@_WV?$string_output_adapter@_W@__crt_stdio_output@@@2@@__crt_stdio_output@@AEAAXI@Z 00000001800893f0 f i libucrtd:output.obj
 0001:00088420       ?unset_flag@?$output_processor@_WV?$string_output_adapter@_W@__crt_stdio_output@@V?$standard_base@_WV?$string_output_adapter@_W@__crt_stdio_output@@@2@@__crt_stdio_output@@AEAAXI@Z 0000000180089420 f i libucrtd:output.obj
 0001:00088450       ?update_field_width@?$positional_parameter_base@DV?$stream_output_adapter@D@__crt_stdio_output@@@__crt_stdio_output@@IEAA_NXZ 0000000180089450 f i libucrtd:output.obj
 0001:00088650       ?update_field_width@?$positional_parameter_base@DV?$string_output_adapter@D@__crt_stdio_output@@@__crt_stdio_output@@IEAA_NXZ 0000000180089650 f i libucrtd:output.obj
 0001:00088850       ?update_field_width@?$positional_parameter_base@_WV?$stream_output_adapter@_W@__crt_stdio_output@@@__crt_stdio_output@@IEAA_NXZ 0000000180089850 f i libucrtd:output.obj
 0001:00088a50       ?update_field_width@?$positional_parameter_base@_WV?$string_output_adapter@_W@__crt_stdio_output@@@__crt_stdio_output@@IEAA_NXZ 0000000180089a50 f i libucrtd:output.obj
 0001:00088c50       ?update_field_width@?$standard_base@DV?$stream_output_adapter@D@__crt_stdio_output@@@__crt_stdio_output@@IEAA_NXZ 0000000180089c50 f i libucrtd:output.obj
 0001:00088c80       ?update_field_width@?$standard_base@DV?$string_output_adapter@D@__crt_stdio_output@@@__crt_stdio_output@@IEAA_NXZ 0000000180089c80 f i libucrtd:output.obj
 0001:00088cb0       ?update_field_width@?$standard_base@_WV?$stream_output_adapter@_W@__crt_stdio_output@@@__crt_stdio_output@@IEAA_NXZ 0000000180089cb0 f i libucrtd:output.obj
 0001:00088ce0       ?update_field_width@?$standard_base@_WV?$string_output_adapter@_W@__crt_stdio_output@@@__crt_stdio_output@@IEAA_NXZ 0000000180089ce0 f i libucrtd:output.obj
 0001:00088d10       ?update_locale@__crt_cached_ptd_host@@AEAAXXZ 0000000180089d10 f i libucrtd:output.obj
 0001:00088d40       ?update_locale_slow@__crt_cached_ptd_host@@AEAAXXZ 0000000180089d40 f i libucrtd:output.obj
 0001:00088df0       ?update_precision@?$positional_parameter_base@DV?$stream_output_adapter@D@__crt_stdio_output@@@__crt_stdio_output@@IEAA_NXZ 0000000180089df0 f i libucrtd:output.obj
 0001:00088ff0       ?update_precision@?$positional_parameter_base@DV?$string_output_adapter@D@__crt_stdio_output@@@__crt_stdio_output@@IEAA_NXZ 0000000180089ff0 f i libucrtd:output.obj
 0001:000891f0       ?update_precision@?$positional_parameter_base@_WV?$stream_output_adapter@_W@__crt_stdio_output@@@__crt_stdio_output@@IEAA_NXZ 000000018008a1f0 f i libucrtd:output.obj
 0001:000893f0       ?update_precision@?$positional_parameter_base@_WV?$string_output_adapter@_W@__crt_stdio_output@@@__crt_stdio_output@@IEAA_NXZ 000000018008a3f0 f i libucrtd:output.obj
 0001:000895f0       ?update_precision@?$standard_base@DV?$stream_output_adapter@D@__crt_stdio_output@@@__crt_stdio_output@@IEAA_NXZ 000000018008a5f0 f i libucrtd:output.obj
 0001:00089620       ?update_precision@?$standard_base@DV?$string_output_adapter@D@__crt_stdio_output@@@__crt_stdio_output@@IEAA_NXZ 000000018008a620 f i libucrtd:output.obj
 0001:00089650       ?update_precision@?$standard_base@_WV?$stream_output_adapter@_W@__crt_stdio_output@@@__crt_stdio_output@@IEAA_NXZ 000000018008a650 f i libucrtd:output.obj
 0001:00089680       ?update_precision@?$standard_base@_WV?$string_output_adapter@_W@__crt_stdio_output@@@__crt_stdio_output@@IEAA_NXZ 000000018008a680 f i libucrtd:output.obj
 0001:000896b0       ?valid@?$cached@H@__crt_cached_ptd_host@@QEBA_NXZ 000000018008a6b0 f i libucrtd:output.obj
 0001:000896c0       ?valid@?$cached@K@__crt_cached_ptd_host@@QEBA_NXZ 000000018008a6c0 f i libucrtd:output.obj
 0001:000896d0       ?valid@__crt_stdio_stream@@QEBA_NXZ 000000018008a6d0 f i libucrtd:output.obj
 0001:00089700       ?validate@?$c_string_character_source@D@__crt_strtox@@QEBA_NXZ 000000018008a700 f i libucrtd:output.obj
 0001:000897c0       ?validate@?$c_string_character_source@_W@__crt_strtox@@QEBA_NXZ 000000018008a7c0 f i libucrtd:output.obj
 0001:00089880       ?validate@?$stream_output_adapter@D@__crt_stdio_output@@QEBA_NAEAV__crt_cached_ptd_host@@@Z 000000018008a880 f i libucrtd:output.obj
 0001:00089980       ?validate@?$stream_output_adapter@_W@__crt_stdio_output@@QEBA_NAEAV__crt_cached_ptd_host@@@Z 000000018008a980 f i libucrtd:output.obj
 0001:00089a80       ?validate@?$string_output_adapter@D@__crt_stdio_output@@QEBA_NAEAV__crt_cached_ptd_host@@@Z 000000018008aa80 f i libucrtd:output.obj
 0001:00089b60       ?validate@?$string_output_adapter@_W@__crt_stdio_output@@QEBA_NAEAV__crt_cached_ptd_host@@@Z 000000018008ab60 f i libucrtd:output.obj
 0001:00089c40       ?validate_and_store_parameter_data@?$positional_parameter_base@DV?$stream_output_adapter@D@__crt_stdio_output@@@__crt_stdio_output@@AEAA_NAEAUparameter_data@12@W4parameter_type@12@DW4length_modifier@2@@Z 000000018008ac40 f i libucrtd:output.obj
 0001:00089d80       ?validate_and_store_parameter_data@?$positional_parameter_base@DV?$string_output_adapter@D@__crt_stdio_output@@@__crt_stdio_output@@AEAA_NAEAUparameter_data@12@W4parameter_type@12@DW4length_modifier@2@@Z 000000018008ad80 f i libucrtd:output.obj
 0001:00089ec0       ?validate_and_store_parameter_data@?$positional_parameter_base@_WV?$stream_output_adapter@_W@__crt_stdio_output@@@__crt_stdio_output@@AEAA_NAEAUparameter_data@12@W4parameter_type@12@_WW4length_modifier@2@@Z 000000018008aec0 f i libucrtd:output.obj
 0001:0008a000       ?validate_and_store_parameter_data@?$positional_parameter_base@_WV?$string_output_adapter@_W@__crt_stdio_output@@@__crt_stdio_output@@AEAA_NAEAUparameter_data@12@W4parameter_type@12@_WW4length_modifier@2@@Z 000000018008b000 f i libucrtd:output.obj
 0001:0008a140       ?validate_and_update_state_at_beginning_of_format_character@?$positional_parameter_base@DV?$stream_output_adapter@D@__crt_stdio_output@@@__crt_stdio_output@@IEAA_NXZ 000000018008b140 f i libucrtd:output.obj
 0001:0008a3e0       ?validate_and_update_state_at_beginning_of_format_character@?$positional_parameter_base@DV?$string_output_adapter@D@__crt_stdio_output@@@__crt_stdio_output@@IEAA_NXZ 000000018008b3e0 f i libucrtd:output.obj
 0001:0008a680       ?validate_and_update_state_at_beginning_of_format_character@?$positional_parameter_base@_WV?$stream_output_adapter@_W@__crt_stdio_output@@@__crt_stdio_output@@IEAA_NXZ 000000018008b680 f i libucrtd:output.obj
 0001:0008a920       ?validate_and_update_state_at_beginning_of_format_character@?$positional_parameter_base@_WV?$string_output_adapter@_W@__crt_stdio_output@@@__crt_stdio_output@@IEAA_NXZ 000000018008b920 f i libucrtd:output.obj
 0001:0008abc0       ?validate_and_update_state_at_beginning_of_format_character@?$standard_base@DV?$stream_output_adapter@D@__crt_stdio_output@@@__crt_stdio_output@@IEAA_NXZ 000000018008bbc0 f i libucrtd:output.obj
 0001:0008abd0       ?validate_and_update_state_at_beginning_of_format_character@?$standard_base@DV?$string_output_adapter@D@__crt_stdio_output@@@__crt_stdio_output@@IEAA_NXZ 000000018008bbd0 f i libucrtd:output.obj
 0001:0008abe0       ?validate_and_update_state_at_beginning_of_format_character@?$standard_base@_WV?$stream_output_adapter@_W@__crt_stdio_output@@@__crt_stdio_output@@IEAA_NXZ 000000018008bbe0 f i libucrtd:output.obj
 0001:0008abf0       ?validate_and_update_state_at_beginning_of_format_character@?$standard_base@_WV?$string_output_adapter@_W@__crt_stdio_output@@@__crt_stdio_output@@IEAA_NXZ 000000018008bbf0 f i libucrtd:output.obj
 0001:0008ac00       ?validate_and_update_state_at_end_of_format_string@?$format_validation_base@DV?$stream_output_adapter@D@__crt_stdio_output@@@__crt_stdio_output@@IEAA_NXZ 000000018008bc00 f i libucrtd:output.obj
 0001:0008acf0       ?validate_and_update_state_at_end_of_format_string@?$format_validation_base@DV?$string_output_adapter@D@__crt_stdio_output@@@__crt_stdio_output@@IEAA_NXZ 000000018008bcf0 f i libucrtd:output.obj
 0001:0008ade0       ?validate_and_update_state_at_end_of_format_string@?$format_validation_base@_WV?$stream_output_adapter@_W@__crt_stdio_output@@@__crt_stdio_output@@IEAA_NXZ 000000018008bde0 f i libucrtd:output.obj
 0001:0008aed0       ?validate_and_update_state_at_end_of_format_string@?$format_validation_base@_WV?$string_output_adapter@_W@__crt_stdio_output@@@__crt_stdio_output@@IEAA_NXZ 000000018008bed0 f i libucrtd:output.obj
 0001:0008afc0       ?validate_and_update_state_at_end_of_format_string@?$positional_parameter_base@DV?$stream_output_adapter@D@__crt_stdio_output@@@__crt_stdio_output@@IEAA_NXZ 000000018008bfc0 f i libucrtd:output.obj
 0001:0008b1f0       ?validate_and_update_state_at_end_of_format_string@?$positional_parameter_base@DV?$string_output_adapter@D@__crt_stdio_output@@@__crt_stdio_output@@IEAA_NXZ 000000018008c1f0 f i libucrtd:output.obj
 0001:0008b420       ?validate_and_update_state_at_end_of_format_string@?$positional_parameter_base@_WV?$stream_output_adapter@_W@__crt_stdio_output@@@__crt_stdio_output@@IEAA_NXZ 000000018008c420 f i libucrtd:output.obj
 0001:0008b650       ?validate_and_update_state_at_end_of_format_string@?$positional_parameter_base@_WV?$string_output_adapter@_W@__crt_stdio_output@@@__crt_stdio_output@@IEAA_NXZ 000000018008c650 f i libucrtd:output.obj
 0001:0008b880       ?validate_and_update_state_at_end_of_format_string@?$standard_base@DV?$stream_output_adapter@D@__crt_stdio_output@@@__crt_stdio_output@@IEBA_NXZ 000000018008c880 f i libucrtd:output.obj
 0001:0008b890       ?validate_and_update_state_at_end_of_format_string@?$standard_base@DV?$string_output_adapter@D@__crt_stdio_output@@@__crt_stdio_output@@IEBA_NXZ 000000018008c890 f i libucrtd:output.obj
 0001:0008b8a0       ?validate_and_update_state_at_end_of_format_string@?$standard_base@_WV?$stream_output_adapter@_W@__crt_stdio_output@@@__crt_stdio_output@@IEBA_NXZ 000000018008c8a0 f i libucrtd:output.obj
 0001:0008b8b0       ?validate_and_update_state_at_end_of_format_string@?$standard_base@_WV?$string_output_adapter@_W@__crt_stdio_output@@@__crt_stdio_output@@IEBA_NXZ 000000018008c8b0 f i libucrtd:output.obj
 0001:0008b8c0       ?validate_state_for_type_case_a@?$positional_parameter_base@DV?$stream_output_adapter@D@__crt_stdio_output@@@__crt_stdio_output@@IEAA_NXZ 000000018008c8c0 f i libucrtd:output.obj
 0001:0008ba20       ?validate_state_for_type_case_a@?$positional_parameter_base@DV?$string_output_adapter@D@__crt_stdio_output@@@__crt_stdio_output@@IEAA_NXZ 000000018008ca20 f i libucrtd:output.obj
 0001:0008bb80       ?validate_state_for_type_case_a@?$positional_parameter_base@_WV?$stream_output_adapter@_W@__crt_stdio_output@@@__crt_stdio_output@@IEAA_NXZ 000000018008cb80 f i libucrtd:output.obj
 0001:0008bce0       ?validate_state_for_type_case_a@?$positional_parameter_base@_WV?$string_output_adapter@_W@__crt_stdio_output@@@__crt_stdio_output@@IEAA_NXZ 000000018008cce0 f i libucrtd:output.obj
 0001:0008be40       ?validate_state_for_type_case_a@?$standard_base@DV?$stream_output_adapter@D@__crt_stdio_output@@@__crt_stdio_output@@IEBA_NXZ 000000018008ce40 f i libucrtd:output.obj
 0001:0008be50       ?validate_state_for_type_case_a@?$standard_base@DV?$string_output_adapter@D@__crt_stdio_output@@@__crt_stdio_output@@IEBA_NXZ 000000018008ce50 f i libucrtd:output.obj
 0001:0008be60       ?validate_state_for_type_case_a@?$standard_base@_WV?$stream_output_adapter@_W@__crt_stdio_output@@@__crt_stdio_output@@IEBA_NXZ 000000018008ce60 f i libucrtd:output.obj
 0001:0008be70       ?validate_state_for_type_case_a@?$standard_base@_WV?$string_output_adapter@_W@__crt_stdio_output@@@__crt_stdio_output@@IEBA_NXZ 000000018008ce70 f i libucrtd:output.obj
 0001:0008be80       ?validate_stream_is_ansi_if_required@?$__acrt_stdio_char_traits@D@@SA_NQEAU_iobuf@@@Z 000000018008ce80 f i libucrtd:output.obj
 0001:0008c010       ?validate_stream_is_ansi_if_required@?$__acrt_stdio_char_traits@_W@@SA_NQEAU_iobuf@@@Z 000000018008d010 f i libucrtd:output.obj
 0001:0008c020       ?wide_character_to_digit@__crt_strtox@@YAH_W@Z 000000018008d020 f i libucrtd:output.obj
 0001:0008c390       ?wide_null_string@?$output_processor@DV?$stream_output_adapter@D@__crt_stdio_output@@V?$format_validation_base@DV?$stream_output_adapter@D@__crt_stdio_output@@@2@@__crt_stdio_output@@CAPEA_WXZ 000000018008d390 f i libucrtd:output.obj
 0001:0008c3a0       ?wide_null_string@?$output_processor@DV?$stream_output_adapter@D@__crt_stdio_output@@V?$positional_parameter_base@DV?$stream_output_adapter@D@__crt_stdio_output@@@2@@__crt_stdio_output@@CAPEA_WXZ 000000018008d3a0 f i libucrtd:output.obj
 0001:0008c3b0       ?wide_null_string@?$output_processor@DV?$stream_output_adapter@D@__crt_stdio_output@@V?$standard_base@DV?$stream_output_adapter@D@__crt_stdio_output@@@2@@__crt_stdio_output@@CAPEA_WXZ 000000018008d3b0 f i libucrtd:output.obj
 0001:0008c3c0       ?wide_null_string@?$output_processor@DV?$string_output_adapter@D@__crt_stdio_output@@V?$format_validation_base@DV?$string_output_adapter@D@__crt_stdio_output@@@2@@__crt_stdio_output@@CAPEA_WXZ 000000018008d3c0 f i libucrtd:output.obj
 0001:0008c3d0       ?wide_null_string@?$output_processor@DV?$string_output_adapter@D@__crt_stdio_output@@V?$positional_parameter_base@DV?$string_output_adapter@D@__crt_stdio_output@@@2@@__crt_stdio_output@@CAPEA_WXZ 000000018008d3d0 f i libucrtd:output.obj
 0001:0008c3e0       ?wide_null_string@?$output_processor@DV?$string_output_adapter@D@__crt_stdio_output@@V?$standard_base@DV?$string_output_adapter@D@__crt_stdio_output@@@2@@__crt_stdio_output@@CAPEA_WXZ 000000018008d3e0 f i libucrtd:output.obj
 0001:0008c3f0       ?wide_null_string@?$output_processor@_WV?$stream_output_adapter@_W@__crt_stdio_output@@V?$format_validation_base@_WV?$stream_output_adapter@_W@__crt_stdio_output@@@2@@__crt_stdio_output@@CAPEA_WXZ 000000018008d3f0 f i libucrtd:output.obj
 0001:0008c400       ?wide_null_string@?$output_processor@_WV?$stream_output_adapter@_W@__crt_stdio_output@@V?$positional_parameter_base@_WV?$stream_output_adapter@_W@__crt_stdio_output@@@2@@__crt_stdio_output@@CAPEA_WXZ 000000018008d400 f i libucrtd:output.obj
 0001:0008c410       ?wide_null_string@?$output_processor@_WV?$stream_output_adapter@_W@__crt_stdio_output@@V?$standard_base@_WV?$stream_output_adapter@_W@__crt_stdio_output@@@2@@__crt_stdio_output@@CAPEA_WXZ 000000018008d410 f i libucrtd:output.obj
 0001:0008c420       ?wide_null_string@?$output_processor@_WV?$string_output_adapter@_W@__crt_stdio_output@@V?$format_validation_base@_WV?$string_output_adapter@_W@__crt_stdio_output@@@2@@__crt_stdio_output@@CAPEA_WXZ 000000018008d420 f i libucrtd:output.obj
 0001:0008c430       ?wide_null_string@?$output_processor@_WV?$string_output_adapter@_W@__crt_stdio_output@@V?$positional_parameter_base@_WV?$string_output_adapter@_W@__crt_stdio_output@@@2@@__crt_stdio_output@@CAPEA_WXZ 000000018008d430 f i libucrtd:output.obj
 0001:0008c440       ?wide_null_string@?$output_processor@_WV?$string_output_adapter@_W@__crt_stdio_output@@V?$standard_base@_WV?$string_output_adapter@_W@__crt_stdio_output@@@2@@__crt_stdio_output@@CAPEA_WXZ 000000018008d440 f i libucrtd:output.obj
 0001:0008c450       ?write_character@?$output_adapter_common@DV?$stream_output_adapter@D@__crt_stdio_output@@@__crt_stdio_output@@QEBAXDQEAHAEAV__crt_cached_ptd_host@@@Z 000000018008d450 f i libucrtd:output.obj
 0001:0008c4b0       ?write_character@?$output_adapter_common@_WV?$stream_output_adapter@_W@__crt_stdio_output@@@__crt_stdio_output@@QEBAX_WQEAHAEAV__crt_cached_ptd_host@@@Z 000000018008d4b0 f i libucrtd:output.obj
 0001:0008c510       ?write_character@?$string_output_adapter@D@__crt_stdio_output@@QEBA_NDQEAHAEAV__crt_cached_ptd_host@@@Z 000000018008d510 f i libucrtd:output.obj
 0001:0008c5e0       ?write_character@?$string_output_adapter@_W@__crt_stdio_output@@QEBA_N_WQEAHAEAV__crt_cached_ptd_host@@@Z 000000018008d5e0 f i libucrtd:output.obj
 0001:0008c6b0       ?write_character_without_count_update@?$stream_output_adapter@D@__crt_stdio_output@@QEBA_NDAEAV__crt_cached_ptd_host@@@Z 000000018008d6b0 f i libucrtd:output.obj
 0001:0008c740       ?write_character_without_count_update@?$stream_output_adapter@_W@__crt_stdio_output@@QEBA_N_WAEAV__crt_cached_ptd_host@@@Z 000000018008d740 f i libucrtd:output.obj
 0001:0008c7d0       ?write_stored_string_tchar@?$output_processor@DV?$stream_output_adapter@D@__crt_stdio_output@@V?$format_validation_base@DV?$stream_output_adapter@D@__crt_stdio_output@@@2@@__crt_stdio_output@@AEAA_ND@Z 000000018008d7d0 f i libucrtd:output.obj
 0001:0008c980       ?write_stored_string_tchar@?$output_processor@DV?$stream_output_adapter@D@__crt_stdio_output@@V?$positional_parameter_base@DV?$stream_output_adapter@D@__crt_stdio_output@@@2@@__crt_stdio_output@@AEAA_ND@Z 000000018008d980 f i libucrtd:output.obj
 0001:0008cb30       ?write_stored_string_tchar@?$output_processor@DV?$stream_output_adapter@D@__crt_stdio_output@@V?$standard_base@DV?$stream_output_adapter@D@__crt_stdio_output@@@2@@__crt_stdio_output@@AEAA_ND@Z 000000018008db30 f i libucrtd:output.obj
 0001:0008cce0       ?write_stored_string_tchar@?$output_processor@DV?$string_output_adapter@D@__crt_stdio_output@@V?$format_validation_base@DV?$string_output_adapter@D@__crt_stdio_output@@@2@@__crt_stdio_output@@AEAA_ND@Z 000000018008dce0 f i libucrtd:output.obj
 0001:0008ce90       ?write_stored_string_tchar@?$output_processor@DV?$string_output_adapter@D@__crt_stdio_output@@V?$positional_parameter_base@DV?$string_output_adapter@D@__crt_stdio_output@@@2@@__crt_stdio_output@@AEAA_ND@Z 000000018008de90 f i libucrtd:output.obj
 0001:0008d040       ?write_stored_string_tchar@?$output_processor@DV?$string_output_adapter@D@__crt_stdio_output@@V?$standard_base@DV?$string_output_adapter@D@__crt_stdio_output@@@2@@__crt_stdio_output@@AEAA_ND@Z 000000018008e040 f i libucrtd:output.obj
 0001:0008d1f0       ?write_stored_string_tchar@?$output_processor@_WV?$stream_output_adapter@_W@__crt_stdio_output@@V?$format_validation_base@_WV?$stream_output_adapter@_W@__crt_stdio_output@@@2@@__crt_stdio_output@@AEAA_N_W@Z 000000018008e1f0 f i libucrtd:output.obj
 0001:0008d350       ?write_stored_string_tchar@?$output_processor@_WV?$stream_output_adapter@_W@__crt_stdio_output@@V?$positional_parameter_base@_WV?$stream_output_adapter@_W@__crt_stdio_output@@@2@@__crt_stdio_output@@AEAA_N_W@Z 000000018008e350 f i libucrtd:output.obj
 0001:0008d4b0       ?write_stored_string_tchar@?$output_processor@_WV?$stream_output_adapter@_W@__crt_stdio_output@@V?$standard_base@_WV?$stream_output_adapter@_W@__crt_stdio_output@@@2@@__crt_stdio_output@@AEAA_N_W@Z 000000018008e4b0 f i libucrtd:output.obj
 0001:0008d610       ?write_stored_string_tchar@?$output_processor@_WV?$string_output_adapter@_W@__crt_stdio_output@@V?$format_validation_base@_WV?$string_output_adapter@_W@__crt_stdio_output@@@2@@__crt_stdio_output@@AEAA_N_W@Z 000000018008e610 f i libucrtd:output.obj
 0001:0008d770       ?write_stored_string_tchar@?$output_processor@_WV?$string_output_adapter@_W@__crt_stdio_output@@V?$positional_parameter_base@_WV?$string_output_adapter@_W@__crt_stdio_output@@@2@@__crt_stdio_output@@AEAA_N_W@Z 000000018008e770 f i libucrtd:output.obj
 0001:0008d8d0       ?write_stored_string_tchar@?$output_processor@_WV?$string_output_adapter@_W@__crt_stdio_output@@V?$standard_base@_WV?$string_output_adapter@_W@__crt_stdio_output@@@2@@__crt_stdio_output@@AEAA_N_W@Z 000000018008e8d0 f i libucrtd:output.obj
 0001:0008da30       ?write_string@?$stream_output_adapter@D@__crt_stdio_output@@QEBAXQEBDHQEAHAEAV__crt_cached_ptd_host@@@Z 000000018008ea30 f i libucrtd:output.obj
 0001:0008dab0       ?write_string@?$stream_output_adapter@_W@__crt_stdio_output@@QEBAXQEB_WHQEAHAEAV__crt_cached_ptd_host@@@Z 000000018008eab0 f i libucrtd:output.obj
 0001:0008db30       ?write_string@?$string_output_adapter@D@__crt_stdio_output@@QEBAXQEBDHQEAHAEAV__crt_cached_ptd_host@@@Z 000000018008eb30 f i libucrtd:output.obj
 0001:0008dca0       ?write_string@?$string_output_adapter@_W@__crt_stdio_output@@QEBAXQEB_WHQEAHAEAV__crt_cached_ptd_host@@@Z 000000018008eca0 f i libucrtd:output.obj
 0001:0008de10       ?write_string_impl@?$output_adapter_common@DV?$stream_output_adapter@D@__crt_stdio_output@@@__crt_stdio_output@@IEBAXQEBDHQEAHAEAV__crt_cached_ptd_host@@@Z 000000018008ee10 f i libucrtd:output.obj
 0001:0008df30       ?write_string_impl@?$output_adapter_common@_WV?$stream_output_adapter@_W@__crt_stdio_output@@@__crt_stdio_output@@IEBAXQEB_WHQEAHAEAV__crt_cached_ptd_host@@@Z 000000018008ef30 f i libucrtd:output.obj
 0001:0008e050       __acrt_disable_global_locale_sync 000000018008f050 f i libucrtd:output.obj
 0001:0008e080       __acrt_enable_global_locale_sync 000000018008f080 f i libucrtd:output.obj
 0001:0008e0b0       __acrt_isleadbyte_l_noupdate 000000018008f0b0 f i libucrtd:output.obj
 0001:0008e0e0       __acrt_locale_changed      000000018008f0e0 f i libucrtd:output.obj
 0001:0008e110       __acrt_locale_get_ctype_array_value 000000018008f110 f i libucrtd:output.obj
 0001:0008e150       __ascii_iswalpha           000000018008f150 f i libucrtd:output.obj
 0001:0008e190       __ascii_toupper            000000018008f190 f i libucrtd:output.obj
 0001:0008e1b0       __ascii_towupper           000000018008f1b0 f i libucrtd:output.obj
 0001:0008e1d0       __stdio_common_vfprintf    000000018008f1d0 f   libucrtd:output.obj
 0001:0008e250       __stdio_common_vfprintf_p  000000018008f250 f   libucrtd:output.obj
 0001:0008e2d0       __stdio_common_vfprintf_s  000000018008f2d0 f   libucrtd:output.obj
 0001:0008e350       __stdio_common_vfwprintf   000000018008f350 f   libucrtd:output.obj
 0001:0008e3d0       __stdio_common_vfwprintf_p 000000018008f3d0 f   libucrtd:output.obj
 0001:0008e450       __stdio_common_vfwprintf_s 000000018008f450 f   libucrtd:output.obj
 0001:0008e4d0       __stdio_common_vsnprintf_s 000000018008f4d0 f   libucrtd:output.obj
 0001:0008e560       __stdio_common_vsnwprintf_s 000000018008f560 f   libucrtd:output.obj
 0001:0008e5f0       __stdio_common_vsprintf    000000018008f5f0 f   libucrtd:output.obj
 0001:0008e680       __stdio_common_vsprintf_p  000000018008f680 f   libucrtd:output.obj
 0001:0008e710       __stdio_common_vsprintf_s  000000018008f710 f   libucrtd:output.obj
 0001:0008e7a0       __stdio_common_vswprintf   000000018008f7a0 f   libucrtd:output.obj
 0001:0008e830       __stdio_common_vswprintf_p 000000018008f830 f   libucrtd:output.obj
 0001:0008e8c0       __stdio_common_vswprintf_s 000000018008f8c0 f   libucrtd:output.obj
 0001:0008e950       _ctype_fast_check_internal 000000018008f950 f i libucrtd:output.obj
 0001:0008e980       _isdigit_fast_internal     000000018008f980 f i libucrtd:output.obj
 0001:0008e9b0       _tolower_fast_internal     000000018008f9b0 f i libucrtd:output.obj
 0001:0008e9e0       free                       000000018008f9e0 f   libucrtd:free.obj
 0001:0008ea10       malloc                     000000018008fa10 f   libucrtd:malloc.obj
 0001:0008ea40       ??$?RU?$__crt_report_hook_node@D@@@__crt_internal_free_policy@@QEBAXQEBU?$__crt_report_hook_node@D@@@Z 000000018008fa40 f i libucrtd:dbgrpt.obj
 0001:0008ea70       ??$?RU?$__crt_report_hook_node@_W@@@__crt_internal_free_policy@@QEBAXQEBU?$__crt_report_hook_node@_W@@@Z 000000018008fa70 f i libucrtd:dbgrpt.obj
 0001:0008fcd0       ??$get_module_file_name@AEAPEAUHINSTANCE__@@AEAY0BAF@DK@?$__crt_char_traits@D@@SAKAEAPEAUHINSTANCE__@@AEAY0BAF@D$$QEAK@Z 0000000180090cd0 f i libucrtd:dbgrpt.obj
 0001:0008fd10       ??$get_module_file_name@AEAPEAUHINSTANCE__@@AEAY0BAF@_WK@?$__crt_char_traits@_W@@SAKAEAPEAUHINSTANCE__@@AEAY0BAF@_W$$QEAK@Z 0000000180090d10 f i libucrtd:dbgrpt.obj
 0001:0008fd50       ??$tcscpy_s@AEAY0BAF@D_KPEBD@?$__crt_char_traits@D@@SAHAEAY0BAF@D$$QEA_K$$QEAPEBD@Z 0000000180090d50 f i libucrtd:dbgrpt.obj
 0001:0008fd90       ??$tcscpy_s@AEAY0BAF@_W_KPEB_W@?$__crt_char_traits@_W@@SAHAEAY0BAF@_W$$QEA_K$$QEAPEB_W@Z 0000000180090d90 f i libucrtd:dbgrpt.obj
 0001:0008fdd0       ??$tcslen@AEAY0BAF@D@?$__crt_char_traits@D@@SA_KAEAY0BAF@D@Z 0000000180090dd0 f i libucrtd:dbgrpt.obj
 0001:0008fdf0       ??$tcslen@AEAY0BAF@_W@?$__crt_char_traits@_W@@SA_KAEAY0BAF@_W@Z 0000000180090df0 f i libucrtd:dbgrpt.obj
 0001:0008fe10       ??$tcslen@AEBQEBD@?$__crt_char_traits@D@@SA_KAEBQEBD@Z 0000000180090e10 f i libucrtd:dbgrpt.obj
 0001:0008fe30       ??$tcslen@AEBQEB_W@?$__crt_char_traits@_W@@SA_KAEBQEB_W@Z 0000000180090e30 f i libucrtd:dbgrpt.obj
 0001:0008ff30       ??0?$__crt_unique_heap_ptr@U?$__crt_report_hook_node@D@@U__crt_internal_free_policy@@@@QEAA@QEAU?$__crt_report_hook_node@D@@@Z 0000000180090f30 f i libucrtd:dbgrpt.obj
 0001:0008ff50       ??0?$__crt_unique_heap_ptr@U?$__crt_report_hook_node@_W@@U__crt_internal_free_policy@@@@QEAA@QEAU?$__crt_report_hook_node@_W@@@Z 0000000180090f50 f i libucrtd:dbgrpt.obj
 0001:0008ff70       ??1?$__crt_unique_heap_ptr@U?$__crt_report_hook_node@D@@U__crt_internal_free_policy@@@@QEAA@XZ 0000000180090f70 f i libucrtd:dbgrpt.obj
 0001:0008ff90       ??1?$__crt_unique_heap_ptr@U?$__crt_report_hook_node@_W@@U__crt_internal_free_policy@@@@QEAA@XZ 0000000180090f90 f i libucrtd:dbgrpt.obj
 0001:0008ffb0       ??B?$__crt_unique_heap_ptr@U?$__crt_report_hook_node@D@@U__crt_internal_free_policy@@@@QEBA_NXZ 0000000180090fb0 f i libucrtd:dbgrpt.obj
 0001:0008ffd0       ??B?$__crt_unique_heap_ptr@U?$__crt_report_hook_node@_W@@U__crt_internal_free_policy@@@@QEBA_NXZ 0000000180090fd0 f i libucrtd:dbgrpt.obj
 0001:000906f0       ?detach@?$__crt_unique_heap_ptr@U?$__crt_report_hook_node@D@@U__crt_internal_free_policy@@@@QEAAPEAU?$__crt_report_hook_node@D@@XZ 00000001800916f0 f i libucrtd:dbgrpt.obj
 0001:00090720       ?detach@?$__crt_unique_heap_ptr@U?$__crt_report_hook_node@_W@@U__crt_internal_free_policy@@@@QEAAPEAU?$__crt_report_hook_node@_W@@XZ 0000000180091720 f i libucrtd:dbgrpt.obj
 0001:00090750       ?get@?$__crt_unique_heap_ptr@U?$__crt_report_hook_node@D@@U__crt_internal_free_policy@@@@QEBAPEAU?$__crt_report_hook_node@D@@XZ 0000000180091750 f i libucrtd:dbgrpt.obj
 0001:00090760       ?get@?$__crt_unique_heap_ptr@U?$__crt_report_hook_node@_W@@U__crt_internal_free_policy@@@@QEBAPEAU?$__crt_report_hook_node@_W@@XZ 0000000180091760 f i libucrtd:dbgrpt.obj
 0001:000907d0       ?is_valid@?$__crt_unique_heap_ptr@U?$__crt_report_hook_node@D@@U__crt_internal_free_policy@@@@QEBA_NXZ 00000001800917d0 f i libucrtd:dbgrpt.obj
 0001:00090800       ?is_valid@?$__crt_unique_heap_ptr@U?$__crt_report_hook_node@_W@@U__crt_internal_free_policy@@@@QEBA_NXZ 0000000180091800 f i libucrtd:dbgrpt.obj
 0001:00090830       ?release@?$__crt_unique_heap_ptr@U?$__crt_report_hook_node@D@@U__crt_internal_free_policy@@@@QEAAXXZ 0000000180091830 f i libucrtd:dbgrpt.obj
 0001:00090860       ?release@?$__crt_unique_heap_ptr@U?$__crt_report_hook_node@_W@@U__crt_internal_free_policy@@@@QEAAXXZ 0000000180091860 f i libucrtd:dbgrpt.obj
 0001:00090890       _CrtDbgReport              0000000180091890 f   libucrtd:dbgrpt.obj
 0001:00090910       _CrtDbgReportW             0000000180091910 f   libucrtd:dbgrpt.obj
 0001:00090990       _CrtSetReportHook2         0000000180091990 f   libucrtd:dbgrpt.obj
 0001:000909b0       _CrtSetReportHookW2        00000001800919b0 f   libucrtd:dbgrpt.obj
 0001:000909d0       __acrt_MessageWindowA      00000001800919d0 f   libucrtd:dbgrpt.obj
 0001:00090a20       __acrt_MessageWindowW      0000000180091a20 f   libucrtd:dbgrpt.obj
 0001:00090a70       _invoke_watson_if_error    0000000180091a70 f i libucrtd:dbgrpt.obj
 0001:00090ac0       _invoke_watson_if_oneof    0000000180091ac0 f i libucrtd:dbgrpt.obj
 0001:00090b20       _snwprintf_s               0000000180091b20 f i libucrtd:dbgrpt.obj
 0001:00090b90       _vsnwprintf_s_l            0000000180091b90 f i libucrtd:dbgrpt.obj
 0001:00091110       wcscpy_s                   0000000180092110 f   libucrtd:wcscpy_s.obj
 0001:000924a0       ??1?$__crt_simd_cleanup_guard@$00@@QEAA@XZ 00000001800934a0 f i libucrtd:strnlen.obj
 0001:000924b0       ??1?$__crt_simd_cleanup_guard@$0A@@@QEAA@XZ 00000001800934b0 f i libucrtd:strnlen.obj
 0001:000924c0       ?compare_equals@?$__crt_simd_traits@$00E@@SA?AT__m256i@@T2@0@Z 00000001800934c0 f i libucrtd:strnlen.obj
 0001:00092500       ?compare_equals@?$__crt_simd_traits@$00G@@SA?AT__m256i@@T2@0@Z 0000000180093500 f i libucrtd:strnlen.obj
 0001:00092540       ?compare_equals@?$__crt_simd_traits@$0A@E@@SA?AT__m128i@@T2@0@Z 0000000180093540 f i libucrtd:strnlen.obj
 0001:00092570       ?compare_equals@?$__crt_simd_traits@$0A@G@@SA?AT__m128i@@T2@0@Z 0000000180093570 f i libucrtd:strnlen.obj
 0001:000925a0       ?compute_byte_mask@?$__crt_simd_pack_traits@$00@@SAHT__m256i@@@Z 00000001800935a0 f i libucrtd:strnlen.obj
 0001:000925c0       ?compute_byte_mask@?$__crt_simd_pack_traits@$0A@@@SAHT__m128i@@@Z 00000001800935c0 f i libucrtd:strnlen.obj
 0001:000925e0       ?get_zero_pack@?$__crt_simd_pack_traits@$00@@SA?AT__m256i@@XZ 00000001800935e0 f i libucrtd:strnlen.obj
 0001:00092610       ?get_zero_pack@?$__crt_simd_pack_traits@$0A@@@SA?AT__m128i@@XZ 0000000180093610 f i libucrtd:strnlen.obj
 0001:00092630       strnlen                    0000000180093630 f   libucrtd:strnlen.obj
 0001:00092660       wcslen                     0000000180093660 f   libucrtd:strnlen.obj
 0001:00092680       wcsnlen                    0000000180093680 f   libucrtd:strnlen.obj
 0001:000926b0       ??$__crt_fast_decode_pointer@P6AXPEB_W00I_K@Z@@YAP6AXPEB_W00I_K@ZQ6AX000I1@Z@Z 00000001800936b0 f i libucrtd:invalid_parameter.obj
 0001:000926f0       ??$__crt_fast_encode_pointer@P6AXPEB_W00I_K@Z@@YAP6AXPEB_W00I_K@ZQ6AX000I1@Z@Z 00000001800936f0 f i libucrtd:invalid_parameter.obj
 0001:00092730       ??$initialize_from_array@$$BY00Q6AXPEB_W00I_K@Z@?$dual_state_global@P6AXPEB_W00I_K@Z@__crt_state_management@@QEAAXAEAY00Q6AXPEB_W00I_K@Z@Z 0000000180093730 f i libucrtd:invalid_parameter.obj
 0001:00092790       ?__crt_rotate_pointer_value@@YA_K_KH@Z 0000000180093790 f i libucrtd:invalid_parameter.obj
 0001:00092850       ?check_synchronize_global_state_index@__crt_cached_ptd_host@@AEAA_KXZ 0000000180093850 f i libucrtd:invalid_parameter.obj
 0001:000928b0       ?dangerous_get_state_array@?$dual_state_global@P6AXPEB_W00I_K@Z@__crt_state_management@@QEAAPEAP6AXPEB_W00I_K@ZXZ 00000001800938b0 f i libucrtd:invalid_parameter.obj
 0001:000928c0       ?get_current_global_state_index@__crt_cached_ptd_host@@QEAA_KXZ 00000001800938c0 f i libucrtd:invalid_parameter.obj
 0001:000928e0       ?get_current_state_index@__crt_state_management@@YA_KXZ 00000001800938e0 f i libucrtd:invalid_parameter.obj
 0001:000928f0       ?get_raw_ptd_noexit@__crt_cached_ptd_host@@QEAAPEAU__acrt_ptd@@XZ 00000001800938f0 f i libucrtd:invalid_parameter.obj
 0001:00092910       ?try_synchronize_per_thread_data@__crt_cached_ptd_host@@AEAAPEAU__acrt_ptd@@XZ 0000000180093910 f i libucrtd:invalid_parameter.obj
 0001:00092940       ?value@?$dual_state_global@P6AXPEB_W00I_K@Z@__crt_state_management@@QEAAAEAP6AXPEB_W00I_K@ZAEAV__crt_cached_ptd_host@@@Z 0000000180093940 f i libucrtd:invalid_parameter.obj
 0001:00092970       ?value@?$dual_state_global@P6AXPEB_W00I_K@Z@__crt_state_management@@QEAAAEAP6AXPEB_W00I_K@ZXZ 0000000180093970 f i libucrtd:invalid_parameter.obj
 0001:00092990       __acrt_call_reportfault    0000000180093990 f   libucrtd:invalid_parameter.obj
 0001:00092ac0       __acrt_initialize_invalid_parameter_handler 0000000180093ac0 f   libucrtd:invalid_parameter.obj
 0001:00092af0       _get_invalid_parameter_handler 0000000180093af0 f   libucrtd:invalid_parameter.obj
 0001:00092b10       _get_thread_local_invalid_parameter_handler 0000000180093b10 f   libucrtd:invalid_parameter.obj
 0001:00092b40       _invalid_parameter         0000000180093b40 f   libucrtd:invalid_parameter.obj
 0001:00092bb0       _invalid_parameter_internal 0000000180093bb0 f   libucrtd:invalid_parameter.obj
 0001:00092d00       _invalid_parameter_noinfo  0000000180093d00 f   libucrtd:invalid_parameter.obj
 0001:00092d30       _invalid_parameter_noinfo_noreturn 0000000180093d30 f   libucrtd:invalid_parameter.obj
 0001:00092d70       _invoke_watson             0000000180093d70 f   libucrtd:invalid_parameter.obj
 0001:00092dd0       _set_invalid_parameter_handler 0000000180093dd0 f   libucrtd:invalid_parameter.obj
 0001:00092e20       _set_thread_local_invalid_parameter_handler 0000000180093e20 f   libucrtd:invalid_parameter.obj
 0001:00092e60       ?get_doserrno@__crt_cached_ptd_host@@QEAAAEAU?$cached@K@1@XZ 0000000180093e60 f i libucrtd:errno.obj
 0001:00092e70       ?set@?$cached@K@__crt_cached_ptd_host@@QEAAKK@Z 0000000180093e70 f i libucrtd:errno.obj
 0001:00092ea0       __acrt_errno_from_os_error 0000000180093ea0 f   libucrtd:errno.obj
 0001:00092f30       __acrt_errno_map_os_error  0000000180093f30 f   libucrtd:errno.obj
 0001:00092f60       __acrt_errno_map_os_error_ptd 0000000180093f60 f   libucrtd:errno.obj
 0001:00092fc0       __doserrno                 0000000180093fc0 f   libucrtd:errno.obj
 0001:00092ff0       _errno                     0000000180093ff0 f   libucrtd:errno.obj
 0001:00093020       _get_doserrno              0000000180094020 f   libucrtd:errno.obj
 0001:000930e0       _get_errno                 00000001800940e0 f   libucrtd:errno.obj
 0001:000931a0       _set_doserrno              00000001800941a0 f   libucrtd:errno.obj
 0001:000931e0       _set_errno                 00000001800941e0 f   libucrtd:errno.obj
 0001:00093220       calloc                     0000000180094220 f   libucrtd:calloc.obj
 0001:00093260       _recalloc                  0000000180094260 f   libucrtd:recalloc.obj
 0001:000932b0       _recalloc_base             00000001800942b0 f   libucrtd:recalloc.obj
 0001:00093390       _resetstkoflw              0000000180094390 f   libucrtd:resetstk.obj
 0001:00093b90       wcscat_s                   0000000180094b90 f   libucrtd:wcscat_s.obj
 0001:00094270       wcsncpy_s                  0000000180095270 f   libucrtd:wcsncpy_s.obj
 0001:000943f0       __isascii                  00000001800953f0 f   libucrtd:_ctype.obj
 0001:00094420       __iscsym                   0000000180095420 f   libucrtd:_ctype.obj
 0001:00094460       __iscsymf                  0000000180095460 f   libucrtd:_ctype.obj
 0001:000944a0       __toascii                  00000001800954a0 f   libucrtd:_ctype.obj
 0001:000944b0       _isalnum_l                 00000001800954b0 f   libucrtd:_ctype.obj
 0001:000944e0       _isalpha_l                 00000001800954e0 f   libucrtd:_ctype.obj
 0001:00094510       _isblank_l                 0000000180095510 f   libucrtd:_ctype.obj
 0001:00094540       _iscntrl_l                 0000000180095540 f   libucrtd:_ctype.obj
 0001:00094570       _iscsym_l                  0000000180095570 f   libucrtd:_ctype.obj
 0001:000945c0       _iscsymf_l                 00000001800955c0 f   libucrtd:_ctype.obj
 0001:00094610       _isdigit_l                 0000000180095610 f   libucrtd:_ctype.obj
 0001:00094640       _isgraph_l                 0000000180095640 f   libucrtd:_ctype.obj
 0001:00094670       _islower_l                 0000000180095670 f   libucrtd:_ctype.obj
 0001:000946a0       _isprint_l                 00000001800956a0 f   libucrtd:_ctype.obj
 0001:000946d0       _ispunct_l                 00000001800956d0 f   libucrtd:_ctype.obj
 0001:00094700       _isspace_l                 0000000180095700 f   libucrtd:_ctype.obj
 0001:00094730       _isupper_l                 0000000180095730 f   libucrtd:_ctype.obj
 0001:00094760       _isxdigit_l                0000000180095760 f   libucrtd:_ctype.obj
 0001:00094790       isalnum                    0000000180095790 f   libucrtd:_ctype.obj
 0001:000947b0       isalpha                    00000001800957b0 f   libucrtd:_ctype.obj
 0001:000947d0       isblank                    00000001800957d0 f   libucrtd:_ctype.obj
 0001:00094800       iscntrl                    0000000180095800 f   libucrtd:_ctype.obj
 0001:00094820       isdigit                    0000000180095820 f   libucrtd:_ctype.obj
 0001:00094840       isgraph                    0000000180095840 f   libucrtd:_ctype.obj
 0001:00094860       islower                    0000000180095860 f   libucrtd:_ctype.obj
 0001:00094880       isprint                    0000000180095880 f   libucrtd:_ctype.obj
 0001:000948a0       ispunct                    00000001800958a0 f   libucrtd:_ctype.obj
 0001:000948c0       isspace                    00000001800958c0 f   libucrtd:_ctype.obj
 0001:000948e0       isupper                    00000001800958e0 f   libucrtd:_ctype.obj
 0001:00094900       isxdigit                   0000000180095900 f   libucrtd:_ctype.obj
 0001:00094920       wcscat                     0000000180095920 f   libucrtd:wcscat.obj
 0001:000949b0       wcscpy                     00000001800959b0 f   libucrtd:wcscpy.obj
 0001:00095160       ??$open_file@AEBQEBDAEBQEBDAEBHPEAU_iobuf@@@?$__crt_char_traits@D@@SAPEAU_iobuf@@AEBQEBD0AEBH$$QEAPEAU1@@Z 0000000180096160 f i libucrtd:fopen.obj
 0001:000951b0       ??$open_file@AEBQEB_WAEBQEB_WAEBHPEAU_iobuf@@@?$__crt_char_traits@_W@@SAPEAU_iobuf@@AEBQEB_W0AEBH$$QEAPEAU1@@Z 00000001800961b0 f i libucrtd:fopen.obj
 0001:00095200       ?unlock@__crt_stdio_stream@@QEBAXXZ 0000000180096200 f i libucrtd:fopen.obj
 0001:00095220       _fsopen                    0000000180096220 f   libucrtd:fopen.obj
 0001:00095250       _wfopen                    0000000180096250 f   libucrtd:fopen.obj
 0001:00095280       _wfopen_s                  0000000180096280 f   libucrtd:fopen.obj
 0001:000952b0       _wfsopen                   00000001800962b0 f   libucrtd:fopen.obj
 0001:000952e0       fopen                      00000001800962e0 f   libucrtd:fopen.obj
 0001:00095310       fopen_s                    0000000180096310 f   libucrtd:fopen.obj
 0001:00095650       ?is_in_use@__crt_stdio_stream@@QEBA_NXZ 0000000180096650 f i libucrtd:fclose.obj
 0001:00095690       _fclose_nolock             0000000180096690 f   libucrtd:fclose.obj
 0001:000956d0       fclose                     00000001800966d0 f   libucrtd:fclose.obj
 0001:00095a10       _fputc_nolock              0000000180096a10 f   libucrtd:fputc.obj
 0001:00095a60       _fputc_nolock_internal     0000000180096a60 f   libucrtd:fputc.obj
 0001:00095b20       _fputchar                  0000000180096b20 f   libucrtd:fputc.obj
 0001:00095b50       _putc_nolock               0000000180096b50 f   libucrtd:fputc.obj
 0001:00095b70       fputc                      0000000180096b70 f   libucrtd:fputc.obj
 0001:00095bc0       putc                       0000000180096bc0 f   libucrtd:fputc.obj
 0001:00095be0       putchar                    0000000180096be0 f   libucrtd:fputc.obj
 0001:00095c70       _seh_filter_dll            0000000180096c70 f   libucrtd:exception_filter.obj
 0001:00095ca0       _seh_filter_exe            0000000180096ca0 f   libucrtd:exception_filter.obj
 0001:00095f70       ??$?B$$A6AXPEAXK0@Z@__crt_fast_encoded_nullptr_t@@QEBAP6AXPEAXK0@ZXZ 0000000180096f70 f i libucrtd:exit.obj
 0001:00096030       ??$__crt_fast_decode_pointer@P6AXPEAXK0@Z@@YAP6AXPEAXK0@ZQ6AX0K0@Z@Z 0000000180097030 f i libucrtd:exit.obj
 0001:00096070       ??$__crt_fast_encode_pointer@P6AXPEAXK0@Z@@YAP6AXPEAXK0@ZQ6AX0K0@Z@Z 0000000180097070 f i libucrtd:exit.obj
 0001:000960b0       ??$__crt_get_proc_address@P6AXI@Z@@YAP6AXI@ZQEAUHINSTANCE__@@QEBD@Z 00000001800970b0 f i libucrtd:exit.obj
 0001:00096170       ??0?$__crt_unique_handle_t@U__crt_hmodule_traits@@@@QEAA@QEAUHINSTANCE__@@@Z 0000000180097170 f i libucrtd:exit.obj
 0001:00096190       ??1?$__crt_unique_handle_t@U__crt_hmodule_traits@@@@QEAA@XZ 0000000180097190 f i libucrtd:exit.obj
 0001:00096310       ?__acrt_select_exit_lock@@YA?AW4__acrt_lock_id@@XZ 0000000180097310 f i libucrtd:exit.obj
 0001:00096320       ?__crt_fast_encode_pointer@@YA?AU__crt_fast_encoded_nullptr_t@@$$T@Z 0000000180097320 f i libucrtd:exit.obj
 0001:00096360       ?close@?$__crt_unique_handle_t@U__crt_hmodule_traits@@@@QEAAXXZ 0000000180097360 f i libucrtd:exit.obj
 0001:000963a0       ?close@__crt_hmodule_traits@@SA_NPEAUHINSTANCE__@@@Z 00000001800973a0 f i libucrtd:exit.obj
 0001:000964c0       ?get@?$__crt_unique_handle_t@U__crt_hmodule_traits@@@@QEBAPEAUHINSTANCE__@@XZ 00000001800974c0 f i libucrtd:exit.obj
 0001:000964d0       ?get_address_of@?$__crt_unique_handle_t@U__crt_hmodule_traits@@@@QEAAPEAPEAUHINSTANCE__@@XZ 00000001800974d0 f i libucrtd:exit.obj
 0001:000964e0       ?get_invalid_value@__crt_hmodule_traits@@SAPEAUHINSTANCE__@@XZ 00000001800974e0 f i libucrtd:exit.obj
 0001:000966c0       _Exit                      00000001800976c0 f   libucrtd:exit.obj
 0001:000966e0       __acrt_initialize_thread_local_exit_callback 00000001800976e0 f   libucrtd:exit.obj
 0001:00096700       _c_exit                    0000000180097700 f   libucrtd:exit.obj
 0001:00096720       _cexit                     0000000180097720 f   libucrtd:exit.obj
 0001:00096740       _exit                      0000000180097740 f   libucrtd:exit.obj
 0001:00096760       _is_c_termination_complete 0000000180097760 f   libucrtd:exit.obj
 0001:00096780       _register_thread_local_exe_atexit_callback 0000000180097780 f   libucrtd:exit.obj
 0001:000967d0       exit                       00000001800977d0 f   libucrtd:exit.obj
 0001:000967f0       quick_exit                 00000001800977f0 f   libucrtd:exit.obj
 0001:00096810       ??$?RE@__crt_internal_free_policy@@QEBAXQEBE@Z 0000000180097810 f i libucrtd:argv_parsing.obj
 0001:00096840       ??$?RPEAD@__crt_internal_free_policy@@QEBAXQEBQEAD@Z 0000000180097840 f i libucrtd:argv_parsing.obj
 0001:00096870       ??$?RPEA_W@__crt_internal_free_policy@@QEBAXQEBQEA_W@Z 0000000180097870 f i libucrtd:argv_parsing.obj
 0001:00096fc0       ??$get_module_file_name@$$TAEAY0BAF@DH@?$__crt_char_traits@D@@SAK$$QEA$$TAEAY0BAF@D$$QEAH@Z 0000000180097fc0 f i libucrtd:argv_parsing.obj
 0001:00097000       ??$get_module_file_name@$$TAEAY0BAF@_WH@?$__crt_char_traits@_W@@SAK$$QEA$$TAEAY0BAF@_W$$QEAH@Z 0000000180098000 f i libucrtd:argv_parsing.obj
 0001:00097a00       ??$set_program_name@PEAD@?$__crt_char_traits@D@@SAX$$QEAPEAD@Z 0000000180098a00 f i libucrtd:argv_parsing.obj
 0001:00097a20       ??$set_program_name@PEA_W@?$__crt_char_traits@_W@@SAX$$QEAPEA_W@Z 0000000180098a20 f i libucrtd:argv_parsing.obj
 0001:00097a80       ??0?$__crt_unique_heap_ptr@EU__crt_internal_free_policy@@@@QEAA@QEAE@Z 0000000180098a80 f i libucrtd:argv_parsing.obj
 0001:00097aa0       ??0?$__crt_unique_heap_ptr@PEADU__crt_internal_free_policy@@@@QEAA@QEAPEAD@Z 0000000180098aa0 f i libucrtd:argv_parsing.obj
 0001:00097ac0       ??0?$__crt_unique_heap_ptr@PEA_WU__crt_internal_free_policy@@@@QEAA@QEAPEA_W@Z 0000000180098ac0 f i libucrtd:argv_parsing.obj
 0001:00097ae0       ??1?$__crt_unique_heap_ptr@EU__crt_internal_free_policy@@@@QEAA@XZ 0000000180098ae0 f i libucrtd:argv_parsing.obj
 0001:00097b00       ??1?$__crt_unique_heap_ptr@PEADU__crt_internal_free_policy@@@@QEAA@XZ 0000000180098b00 f i libucrtd:argv_parsing.obj
 0001:00097b20       ??1?$__crt_unique_heap_ptr@PEA_WU__crt_internal_free_policy@@@@QEAA@XZ 0000000180098b20 f i libucrtd:argv_parsing.obj
 0001:00097b40       ??B?$__crt_unique_heap_ptr@EU__crt_internal_free_policy@@@@QEBA_NXZ 0000000180098b40 f i libucrtd:argv_parsing.obj
 0001:00097c20       ?detach@?$__crt_unique_heap_ptr@EU__crt_internal_free_policy@@@@QEAAPEAEXZ 0000000180098c20 f i libucrtd:argv_parsing.obj
 0001:00097c50       ?detach@?$__crt_unique_heap_ptr@PEADU__crt_internal_free_policy@@@@QEAAPEAPEADXZ 0000000180098c50 f i libucrtd:argv_parsing.obj
 0001:00097c80       ?detach@?$__crt_unique_heap_ptr@PEA_WU__crt_internal_free_policy@@@@QEAAPEAPEA_WXZ 0000000180098c80 f i libucrtd:argv_parsing.obj
 0001:00097d40       ?get@?$__crt_unique_heap_ptr@EU__crt_internal_free_policy@@@@QEBAPEAEXZ 0000000180098d40 f i libucrtd:argv_parsing.obj
 0001:00097d50       ?get@?$__crt_unique_heap_ptr@PEADU__crt_internal_free_policy@@@@QEBAPEAPEADXZ 0000000180098d50 f i libucrtd:argv_parsing.obj
 0001:00097d60       ?get@?$__crt_unique_heap_ptr@PEA_WU__crt_internal_free_policy@@@@QEBAPEAPEA_WXZ 0000000180098d60 f i libucrtd:argv_parsing.obj
 0001:00097d70       ?get_address_of@?$__crt_unique_heap_ptr@PEADU__crt_internal_free_policy@@@@QEAAPEAPEAPEADXZ 0000000180098d70 f i libucrtd:argv_parsing.obj
 0001:00097d80       ?get_address_of@?$__crt_unique_heap_ptr@PEA_WU__crt_internal_free_policy@@@@QEAAPEAPEAPEA_WXZ 0000000180098d80 f i libucrtd:argv_parsing.obj
 0001:00097dd0       ?is_valid@?$__crt_unique_heap_ptr@EU__crt_internal_free_policy@@@@QEBA_NXZ 0000000180098dd0 f i libucrtd:argv_parsing.obj
 0001:00097e00       ?release@?$__crt_unique_heap_ptr@EU__crt_internal_free_policy@@@@QEAAXXZ 0000000180098e00 f i libucrtd:argv_parsing.obj
 0001:00097e30       ?release@?$__crt_unique_heap_ptr@PEADU__crt_internal_free_policy@@@@QEAAXXZ 0000000180098e30 f i libucrtd:argv_parsing.obj
 0001:00097e60       ?release@?$__crt_unique_heap_ptr@PEA_WU__crt_internal_free_policy@@@@QEAAXXZ 0000000180098e60 f i libucrtd:argv_parsing.obj
 0001:00097ee0       __acrt_allocate_buffer_for_argv 0000000180098ee0 f   libucrtd:argv_parsing.obj
 0001:00098000       _configure_narrow_argv     0000000180099000 f   libucrtd:argv_parsing.obj
 0001:00098020       _configure_wide_argv       0000000180099020 f   libucrtd:argv_parsing.obj
 0001:00098040       _set_pgmptr                0000000180099040 f i libucrtd:argv_parsing.obj
 0001:00098060       _set_wpgmptr               0000000180099060 f i libucrtd:argv_parsing.obj
 0001:00098080       ??$?R_W@__crt_internal_free_policy@@QEBAXQEB_W@Z 0000000180099080 f i libucrtd:environment_initialization.obj
 0001:00098a40       ??$get_environment_from_os@$$V@?$__crt_char_traits@D@@SAPEADXZ 0000000180099a40 f i libucrtd:environment_initialization.obj
 0001:00098a50       ??$get_environment_from_os@$$V@?$__crt_char_traits@_W@@SAPEA_WXZ 0000000180099a50 f i libucrtd:environment_initialization.obj
 0001:00098d60       ??$set_variable_in_environment_nolock@PEADH@?$__crt_char_traits@D@@SAH$$QEAPEAD$$QEAH@Z 0000000180099d60 f i libucrtd:environment_initialization.obj
 0001:00098d90       ??$set_variable_in_environment_nolock@PEA_WH@?$__crt_char_traits@_W@@SAH$$QEAPEA_W$$QEAH@Z 0000000180099d90 f i libucrtd:environment_initialization.obj
 0001:00098dc0       ??$tcscpy_s@PEADAEB_KAEAPEAD@?$__crt_char_traits@D@@SAH$$QEAPEADAEB_KAEAPEAD@Z 0000000180099dc0 f i libucrtd:environment_initialization.obj
 0001:00098e00       ??$tcscpy_s@PEA_WAEB_KAEAPEA_W@?$__crt_char_traits@_W@@SAH$$QEAPEA_WAEB_KAEAPEA_W@Z 0000000180099e00 f i libucrtd:environment_initialization.obj
 0001:00098e40       ??$tcslen@AEAPEAD@?$__crt_char_traits@D@@SA_KAEAPEAD@Z 0000000180099e40 f i libucrtd:environment_initialization.obj
 0001:00098e60       ??$tcslen@AEAPEA_W@?$__crt_char_traits@_W@@SA_KAEAPEA_W@Z 0000000180099e60 f i libucrtd:environment_initialization.obj
 0001:00098e80       ??$uninitialize@A6AXAEAPEAPEAD@_E@?$dual_state_global@PEAPEAD@__crt_state_management@@QEAAXA6AXAEAPEAPEAD@_E@Z 0000000180099e80 f i libucrtd:environment_initialization.obj
 0001:00098f00       ??$uninitialize@A6AXAEAPEAPEA_W@_E@?$dual_state_global@PEAPEA_W@__crt_state_management@@QEAAXA6AXAEAPEAPEA_W@_E@Z 0000000180099f00 f i libucrtd:environment_initialization.obj
 0001:00099000       ??0?$__crt_unique_heap_ptr@_WU__crt_internal_free_policy@@@@QEAA@QEA_W@Z 000000018009a000 f i libucrtd:environment_initialization.obj
 0001:00099020       ??1?$__crt_unique_heap_ptr@_WU__crt_internal_free_policy@@@@QEAA@XZ 000000018009a020 f i libucrtd:environment_initialization.obj
 0001:00099040       ??B?$__crt_unique_heap_ptr@PEADU__crt_internal_free_policy@@@@QEBA_NXZ 000000018009a040 f i libucrtd:environment_initialization.obj
 0001:00099060       ??B?$__crt_unique_heap_ptr@PEA_WU__crt_internal_free_policy@@@@QEBA_NXZ 000000018009a060 f i libucrtd:environment_initialization.obj
 0001:00099080       ??B?$__crt_unique_heap_ptr@_WU__crt_internal_free_policy@@@@QEBA_NXZ 000000018009a080 f i libucrtd:environment_initialization.obj
 0001:000990a0       ?__crt_compute_required_transform_buffer_count@@YA_KIQEBD@Z 000000018009a0a0 f i libucrtd:environment_initialization.obj
 0001:000990e0       ?__crt_compute_required_transform_buffer_count@@YA_KIQEB_W@Z 000000018009a0e0 f i libucrtd:environment_initialization.obj
 0001:00099130       ?__crt_transform_string@@YA_KIQEBDQEA_W_K@Z 000000018009a130 f i libucrtd:environment_initialization.obj
 0001:00099180       ?__crt_transform_string@@YA_KIQEB_WQEAD_K@Z 000000018009a180 f i libucrtd:environment_initialization.obj
 0001:000991e0       ?detach@?$__crt_unique_heap_ptr@DU__crt_internal_free_policy@@@@QEAAPEADXZ 000000018009a1e0 f i libucrtd:environment_initialization.obj
 0001:00099210       ?detach@?$__crt_unique_heap_ptr@_WU__crt_internal_free_policy@@@@QEAAPEA_WXZ 000000018009a210 f i libucrtd:environment_initialization.obj
 0001:00099240       ?get@?$__crt_unique_heap_ptr@_WU__crt_internal_free_policy@@@@QEBAPEA_WXZ 000000018009a240 f i libucrtd:environment_initialization.obj
 0001:000992d0       ?initialize@?$dual_state_global@PEAPEAD@__crt_state_management@@QEAAXQEAPEAD@Z 000000018009a2d0 f i libucrtd:environment_initialization.obj
 0001:00099320       ?initialize@?$dual_state_global@PEAPEA_W@__crt_state_management@@QEAAXQEAPEA_W@Z 000000018009a320 f i libucrtd:environment_initialization.obj
 0001:00099370       ?is_valid@?$__crt_unique_heap_ptr@PEADU__crt_internal_free_policy@@@@QEBA_NXZ 000000018009a370 f i libucrtd:environment_initialization.obj
 0001:000993a0       ?is_valid@?$__crt_unique_heap_ptr@PEA_WU__crt_internal_free_policy@@@@QEBA_NXZ 000000018009a3a0 f i libucrtd:environment_initialization.obj
 0001:000993d0       ?is_valid@?$__crt_unique_heap_ptr@_WU__crt_internal_free_policy@@@@QEBA_NXZ 000000018009a3d0 f i libucrtd:environment_initialization.obj
 0001:00099430       ?release@?$__crt_unique_heap_ptr@_WU__crt_internal_free_policy@@@@QEAAXXZ 000000018009a430 f i libucrtd:environment_initialization.obj
 0001:00099460       ?value@?$dual_state_global@PEAPEAD@__crt_state_management@@QEAAAEAPEAPEADXZ 000000018009a460 f i libucrtd:environment_initialization.obj
 0001:00099480       ?value@?$dual_state_global@PEAPEA_W@__crt_state_management@@QEAAAEAPEAPEA_WXZ 000000018009a480 f i libucrtd:environment_initialization.obj
 0001:000994a0       __dcrt_get_or_create_narrow_environment_nolock 000000018009a4a0 f   libucrtd:environment_initialization.obj
 0001:000994b0       __dcrt_get_or_create_wide_environment_nolock 000000018009a4b0 f   libucrtd:environment_initialization.obj
 0001:000994c0       __dcrt_uninitialize_environments_nolock 000000018009a4c0 f   libucrtd:environment_initialization.obj
 0001:00099510       __p__environ               000000018009a510 f   libucrtd:environment_initialization.obj
 0001:00099530       __p__wenviron              000000018009a530 f   libucrtd:environment_initialization.obj
 0001:00099550       _get_initial_narrow_environment 000000018009a550 f   libucrtd:environment_initialization.obj
 0001:00099560       _get_initial_wide_environment 000000018009a560 f   libucrtd:environment_initialization.obj
 0001:00099570       _initialize_narrow_environment 000000018009a570 f   libucrtd:environment_initialization.obj
 0001:00099580       _initialize_wide_environment 000000018009a580 f   libucrtd:environment_initialization.obj
 0001:00099590       ??$?B$$A6AXXZ@__crt_fast_encoded_nullptr_t@@QEBAP6AXXZXZ 000000018009a590 f i libucrtd:onexit.obj
 0001:000995b0       ??$?BP6AXXZ@__crt_fast_encoded_nullptr_t@@QEBAPEAP6AXXZXZ 000000018009a5b0 f i libucrtd:onexit.obj
 0001:000995d0       ??$?RP6AXXZ@__crt_internal_free_policy@@QEBAXQEBQ6AXXZ@Z 000000018009a5d0 f i libucrtd:onexit.obj
 0001:00099760       ??$__crt_fast_decode_pointer@P6AXXZ@@YAP6AXXZQ6AXXZ@Z 000000018009a760 f i libucrtd:onexit.obj
 0001:000997a0       ??$__crt_fast_decode_pointer@PEAP6AXXZ@@YAPEAP6AXXZQEAP6AXXZ@Z 000000018009a7a0 f i libucrtd:onexit.obj
 0001:000997e0       ??$__crt_fast_encode_pointer@P6AHXZ@@YAP6AHXZQ6AHXZ@Z 000000018009a7e0 f i libucrtd:onexit.obj
 0001:00099820       ??$__crt_fast_encode_pointer@P6AXXZ@@YAP6AXXZQ6AXXZ@Z 000000018009a820 f i libucrtd:onexit.obj
 0001:00099860       ??$__crt_fast_encode_pointer@PEAP6AXXZ@@YAPEAP6AXXZQEAP6AXXZ@Z 000000018009a860 f i libucrtd:onexit.obj
 0001:00099970       ??0?$__crt_unique_heap_ptr@P6AXXZU__crt_internal_free_policy@@@@QEAA@QEAP6AXXZ@Z 000000018009a970 f i libucrtd:onexit.obj
 0001:00099990       ??1?$__crt_unique_heap_ptr@P6AXXZU__crt_internal_free_policy@@@@QEAA@XZ 000000018009a990 f i libucrtd:onexit.obj
 0001:000999b0       ??1scoped_global_state_reset@__crt_state_management@@QEAA@XZ 000000018009a9b0 f i libucrtd:onexit.obj
 0001:00099fb0       ?detach@?$__crt_unique_heap_ptr@P6AXXZU__crt_internal_free_policy@@@@QEAAPEAP6AXXZXZ 000000018009afb0 f i libucrtd:onexit.obj
 0001:00099fe0       ?release@?$__crt_unique_heap_ptr@P6AXXZU__crt_internal_free_policy@@@@QEAAXXZ 000000018009afe0 f i libucrtd:onexit.obj
 0001:0009a010       _crt_at_quick_exit         000000018009b010 f   libucrtd:onexit.obj
 0001:0009a030       _crt_atexit                000000018009b030 f   libucrtd:onexit.obj
 0001:0009a050       _execute_onexit_table      000000018009b050 f   libucrtd:onexit.obj
 0001:0009a090       _initialize_onexit_table   000000018009b090 f   libucrtd:onexit.obj
 0001:0009a110       _register_onexit_function  000000018009b110 f   libucrtd:onexit.obj
 0001:0009a390       ??$?BX@__crt_fast_encoded_nullptr_t@@QEBAPEAXXZ 000000018009b390 f i libucrtd:initialization.obj
 0001:0009a3b0       ??$__crt_fast_encode_pointer@PEAX@@YAPEAXQEAX@Z 000000018009b3b0 f i libucrtd:initialization.obj
 0001:0009a4b0       ?initialize@?$dual_state_global@PEAU__crt_locale_data@@@__crt_state_management@@QEAAXQEAU__crt_locale_data@@@Z 000000018009b4b0 f i libucrtd:initialization.obj
 0001:0009a500       __acrt_initialize          000000018009b500 f   libucrtd:initialization.obj
 0001:0009a530       __acrt_thread_attach       000000018009b530 f   libucrtd:initialization.obj
 0001:0009a550       __acrt_thread_detach       000000018009b550 f   libucrtd:initialization.obj
 0001:0009a560       __acrt_uninitialize        000000018009b560 f   libucrtd:initialization.obj
 0001:0009a590       __acrt_uninitialize_critical 000000018009b590 f   libucrtd:initialization.obj
 0001:0009a5b0       ??0_LocaleUpdate@@QEAA@QEAU__crt_locale_pointers@@@Z 000000018009b5b0 f i libucrtd:debug_heap.obj
 0001:0009a6d0       ??1_LocaleUpdate@@QEAA@XZ  000000018009b6d0 f i libucrtd:debug_heap.obj
 0001:0009a700       ?GetLocaleT@_LocaleUpdate@@QEAAPEAU__crt_locale_pointers@@XZ 000000018009b700 f i libucrtd:debug_heap.obj
 0001:0009cab0       _CrtCheckMemory            000000018009dab0 f   libucrtd:debug_heap.obj
 0001:0009cc40       _CrtDoForAllClientObjects  000000018009dc40 f   libucrtd:debug_heap.obj
 0001:0009cd90       _CrtDumpMemoryLeaks        000000018009dd90 f   libucrtd:debug_heap.obj
