 OPOSIndividualRecognition

 Timestamp is 61a75919 (Wed Dec  1 20:14:33 2021)

 Preferred load address is 0000000180000000

 Start         Length     Name                   Class
 0001:00000000 00000d90H .text$di                CODE
 0001:00000d90 000e3c30H .text$mn                CODE
 0001:000e49c0 00000040H .text$mn$00             CODE
 0001:000e4a00 00001330H .text$x                 CODE
 0001:000e5d30 00000124H .text$yd                CODE
 0002:00000000 000006f8H .idata$5                DATA
 0002:000006f8 00000030H .00cfg                  DATA
 0002:00000728 00000008H .CRT$XCA                DATA
 0002:00000730 00000008H .CRT$XCL                DATA
 0002:00000738 000000d8H .CRT$XCU                DATA
 0002:00000810 00000008H .CRT$XCZ                DATA
 0002:00000818 00000008H .CRT$XIA                DATA
 0002:00000820 00000028H .CRT$XIC                DATA
 0002:00000848 00000008H .CRT$XIZ                DATA
 0002:00000850 00000008H .CRT$XLA                DATA
 0002:00000858 00000008H .CRT$XLZ                DATA
 0002:00000860 00000008H .CRT$XPA                DATA
 0002:00000868 00000010H .CRT$XPX                DATA
 0002:00000878 00000008H .CRT$XPXA               DATA
 0002:00000880 00000008H .CRT$XPZ                DATA
 0002:00000888 00000008H .CRT$XTA                DATA
 0002:00000890 00000010H .CRT$XTZ                DATA
 0002:00000898 00000000H .gehcont$y              DATA
 0002:00000898 00000000H .gfids$y                DATA
 0002:000008a0 0003bde0H .rdata                  DATA
 0002:0003c680 00000080H .rdata$CastGuardVftablesA DATA
 0002:0003c700 00000080H .rdata$CastGuardVftablesC DATA
 0002:0003c780 00000028H .rdata$T                DATA
 0002:0003c7a8 0000056cH .rdata$r                DATA
 0002:0003cd14 00000180H .rdata$voltmd           DATA
 0002:0003ce94 000004acH .rdata$zzzdbg           DATA
 0002:0003d340 00000008H .rtc$IAA                DATA
 0002:0003d348 00000030H .rtc$IMZ                DATA
 0002:0003d378 00000008H .rtc$IZZ                DATA
 0002:0003d380 00000008H .rtc$TAA                DATA
 0002:0003d388 00000030H .rtc$TMZ                DATA
 0002:0003d3b8 00000008H .rtc$TZZ                DATA
 0002:0003d3c0 00000004H .tls                    DATA
 0002:0003d3c4 00000004H .tls$                   DATA
 0002:0003d3c8 00000008H .tls$ZZZ                DATA
 0002:0003d3d0 00009eb8H .xdata                  DATA
 0002:00047288 00000150H .xdata$x                DATA
 0002:000473d8 00000008H ATL$__a                 DATA
 0002:000473e0 00000010H ATL$__z                 DATA
 0002:000473f0 000000b8H .edata                  DATA
 0002:000474a8 00000078H .idata$2                DATA
 0002:00047520 00000018H .idata$3                DATA
 0002:00047538 000006f8H .idata$4                DATA
 0002:00047c30 00000df0H .idata$6                DATA
 0003:00000000 00000ec8H .data                   DATA
 0003:00000ec8 000000a8H .data$r                 DATA
 0003:00000f70 000000f0H .data$rs                DATA
 0003:00001060 00003e7cH .bss                    DATA
 0004:00000000 0000c738H .pdata                  DATA
 0005:00000000 000000fcH _RDATA                  DATA
 0006:00000000 00000220H .rsrc$01                DATA
 0006:00000220 00003a88H .rsrc$02                DATA

  Address         Publics by Value              Rva+Base               Lib:Object

 0000:00000000       __hybrid_code_map_count    0000000000000000     <absolute>
 0000:00000000       __guard_eh_cont_table      0000000000000000     <absolute>
 0000:00000000       __arm64x_redirection_metadata_count 0000000000000000     <absolute>
 0000:00000000       __guard_eh_cont_count      0000000000000000     <absolute>
 0000:00000000       __guard_iat_count          0000000000000000     <absolute>
 0000:00000000       __guard_fids_count         0000000000000000     <absolute>
 0000:00000000       __arm64x_extra_rfe_table   0000000000000000     <absolute>
 0000:00000000       __guard_check_icall_a64n_fptr 0000000000000000     <absolute>
 0000:00000000       __guard_longjmp_count      0000000000000000     <absolute>
 0000:00000000       __arm64x_redirection_metadata 0000000000000000     <absolute>
 0000:00000000       __dynamic_value_reloc_table 0000000000000000     <absolute>
 0000:00000000       __arm64x_extra_rfe_table_size 0000000000000000     <absolute>
 0000:00000000       __guard_fids_table         0000000000000000     <absolute>
 0000:00000000       __guard_longjmp_table      0000000000000000     <absolute>
 0000:00000000       __enclave_config           0000000000000000     <absolute>
 0000:00000000       __x64_code_ranges_to_entry_points 0000000000000000     <absolute>
 0000:00000000       __hybrid_auxiliary_iat     0000000000000000     <absolute>
 0000:00000000       __x64_code_ranges_to_entry_points_count 0000000000000000     <absolute>
 0000:00000000       __arm64x_native_entrypoint 0000000000000000     <absolute>
 0000:00000000       __AbsoluteZero             0000000000000000     <absolute>
 0000:00000000       ___safe_se_handler_table   0000000000000000     <absolute>
 0000:00000000       __hybrid_auxiliary_iat_copy 0000000000000000     <absolute>
 0000:00000000       __hybrid_code_map          0000000000000000     <absolute>
 0000:00000000       ___safe_se_handler_count   0000000000000000     <absolute>
 0000:00000000       __guard_iat_table          0000000000000000     <absolute>
 0000:00000100       __guard_flags              0000000000000100     <absolute>
 0000:00000000       __ImageBase                0000000180000000     <linker-defined>
 0001:00000d90       ?_assert@@YAXPEB_W0I@Z     0000000180001d90 f   Assert.obj
 0001:00000e90       __local_stdio_printf_options 0000000180001e90 f i Assert.obj
 0001:00000ea0       __vswprintf_l              0000000180001ea0 f i Assert.obj
 0001:00000ef0       _swprintf                  0000000180001ef0 f i Assert.obj
 0001:00000f70       _vswprintf_c_l             0000000180001f70 f i Assert.obj
 0001:00000fe0       _vswprintf_l               0000000180001fe0 f i Assert.obj
 0001:00001030       ?cw_memcpy@@YAHPEADPEB_WH@Z 0000000180002030 f   CWString.obj
 0001:000010b0       ?cw_memcpy@@YAHPEA_WPEBDH@Z 00000001800020b0 f   CWString.obj
 0001:00001120       ?cw_memcpy@@YAHPEADPEBDH@Z 0000000180002120 f   CWString.obj
 0001:000011b0       ?cw_memcpy@@YAHPEA_WPEB_WH@Z 00000001800021b0 f   CWString.obj
 0001:00001210       ?cw_memset@@YAXPEADDH@Z    0000000180002210 f   CWString.obj
 0001:00001270       ?cw_memset@@YAXPEA_W_WH@Z  0000000180002270 f   CWString.obj
 0001:00001300       ?cw_strlen@@YAHPEBD@Z      0000000180002300 f   CWString.obj
 0001:00001360       ?cw_strlen@@YAHPEB_W@Z     0000000180002360 f   CWString.obj
 0001:000013c0       ?cw_strcpy@@YAHPEADPEB_W@Z 00000001800023c0 f   CWString.obj
 0001:00001400       ?cw_strcpy@@YAHPEA_WPEBD@Z 0000000180002400 f   CWString.obj
 0001:00001440       ?cw_strcpy@@YAHPEADPEBD@Z  0000000180002440 f   CWString.obj
 0001:00001480       ?cw_strcpy@@YAHPEA_WPEB_W@Z 0000000180002480 f   CWString.obj
 0001:000014c0       ?cw_strcat@@YAHPEADPEB_W@Z 00000001800024c0 f   CWString.obj
 0001:00001510       ?cw_strcat@@YAHPEA_WPEBD@Z 0000000180002510 f   CWString.obj
 0001:00001560       ?cw_strcat@@YAHPEADPEBD@Z  0000000180002560 f   CWString.obj
 0001:000015b0       ?cw_strcat@@YAHPEA_WPEB_W@Z 00000001800025b0 f   CWString.obj
 0001:00001600       ?cw_dup@@YAXPEBDAEAHAEAPEA_W1@Z 0000000180002600 f   CWString.obj
 0001:00001700       ?cw_dup@@YAXPEB_WAEAHAEAPEAD1@Z 0000000180002700 f   CWString.obj
 0001:000017e0       ?DupChar@_CW@@AEAAXXZ      00000001800027e0 f   CWString.obj
 0001:00001830       ?DupWide@_CW@@AEAAXXZ      0000000180002830 f   CWString.obj
 0001:00001880       ?GetCharsMbcs@_CW@@QEAAHXZ 0000000180002880 f   CWString.obj
 0001:000018e0       ?GetCharsWide@_CW@@QEAAHXZ 00000001800028e0 f   CWString.obj
 0001:00001940       ?SetVARIANT_BOOL@OposVariant@@QEAAXF@Z 0000000180002940 f   OposVariant.obj
 0001:000019a0       ?SetVARIANT_BOOL_Ptr@OposVariant@@QEAAXPEAFAEAJ@Z 00000001800029a0 f   OposVariant.obj
 0001:00001a00       ?GetLONG@OposVariant@@QEAAJXZ 0000000180002a00 f   OposVariant.obj
 0001:00001a60       ?ChangeLONG@OposVariant@@QEAAXPEAJAEAJ@Z 0000000180002a60 f   OposVariant.obj
 0001:00001b10       ?SetLONG@OposVariant@@QEAAXJ@Z 0000000180002b10 f   OposVariant.obj
 0001:00001b50       ?SetLONG_Ptr@OposVariant@@QEAAXPEAJAEAJ@Z 0000000180002b50 f   OposVariant.obj
 0001:00001bb0       ?ChangeCURRENCY@OposVariant@@QEAAXPEATtagCY@@AEAJ@Z 0000000180002bb0 f   OposVariant.obj
 0001:00001c60       ?SetCURRENCY@OposVariant@@QEAAXTtagCY@@@Z 0000000180002c60 f   OposVariant.obj
 0001:00001ca0       ?SetCURRENCY_Ptr@OposVariant@@QEAAXPEATtagCY@@AEAJ@Z 0000000180002ca0 f   OposVariant.obj
 0001:00001d00       ?ChangeBSTR@OposVariant@@QEAAXPEAPEA_WAEAJ@Z 0000000180002d00 f   OposVariant.obj
 0001:00001db0       ?SetBSTR@OposVariant@@QEAAXPEA_WAEAJ@Z 0000000180002db0 f   OposVariant.obj
 0001:00001e10       ?SetBSTR_Copy@OposVariant@@QEAAXPEA_WAEAJ@Z 0000000180002e10 f   OposVariant.obj
 0001:00001eb0       ?SetBSTR_OutPtr@OposVariant@@QEAA_NPEAPEA_WAEAJ@Z 0000000180002eb0 f   OposVariant.obj
 0001:00001f10       ?SetBSTR_InOutPtr@OposVariant@@QEAA_NPEAPEA_WAEAJ@Z 0000000180002f10 f   OposVariant.obj
 0001:00001f70       ?SetVARIANT@OposVariant@@QEAAXAEAUtagVARIANT@@GAEAJ@Z 0000000180002f70 f   OposVariant.obj
 0001:00002000       ?SetVARIANT_Ptr@OposVariant@@QEAAXAEAPEAUtagVARIANT@@GAEAJ@Z 0000000180003000 f   OposVariant.obj
 0001:000020a0       ?SetString@OposVariant@@QEAAXPEB_WAEAJ@Z 00000001800030a0 f   OposVariant.obj
 0001:00002130       ?SetDispatch_Ptr@OposVariant@@QEAAXPEAUIDispatch@@AEAJ@Z 0000000180003130 f   OposVariant.obj
 0001:000021b0       ??0OposDispParms@@QEAA@PEAVOposVariant@@H@Z 00000001800031b0 f   OposVariant.obj
 0001:000022b0       ??1OposDispParms@@QEAA@XZ  00000001800032b0 f   OposVariant.obj
 0001:000022f0       ??$AtlMultiply@_K@ATL@@YAJPEA_K_K1@Z 00000001800032f0 f i OposVariant.obj
 0001:00002360       ??0?$CHeapPtr@_WVCCRTAllocator@ATL@@@ATL@@QEAA@XZ 0000000180003360 f i OposVariant.obj
 0001:00002380       ??0?$CHeapPtrBase@_WVCCRTAllocator@ATL@@@ATL@@IEAA@XZ 0000000180003380 f i OposVariant.obj
 0001:000023a0       ??0?$CSimpleArray@GV?$CSimpleArrayEqualHelper@G@ATL@@@ATL@@QEAA@XZ 00000001800033a0 f i OposVariant.obj
 0001:000023e0       ??0?$CTraceCategoryEx@$00$0A@@ATL@@QEAA@PEB_W@Z 00000001800033e0 f i OposVariant.obj
 0001:00002410       ??0?$CTraceCategoryEx@$01$0A@@ATL@@QEAA@PEB_W@Z 0000000180003410 f i OposVariant.obj
 0001:00002440       ??0?$CTraceCategoryEx@$03$0A@@ATL@@QEAA@PEB_W@Z 0000000180003440 f i OposVariant.obj
 0001:00002470       ??0?$CTraceCategoryEx@$07$0A@@ATL@@QEAA@PEB_W@Z 0000000180003470 f i OposVariant.obj
 0001:000024a0       ??0?$CTraceCategoryEx@$0BA@$0A@@ATL@@QEAA@PEB_W@Z 00000001800034a0 f i OposVariant.obj
 0001:000024d0       ??0?$CTraceCategoryEx@$0BAA@$0A@@ATL@@QEAA@PEB_W@Z 00000001800034d0 f i OposVariant.obj
 0001:00002500       ??0?$CTraceCategoryEx@$0BAAA@$0A@@ATL@@QEAA@PEB_W@Z 0000000180003500 f i OposVariant.obj
 0001:00002530       ??0?$CTraceCategoryEx@$0BAAAA@$0A@@ATL@@QEAA@PEB_W@Z 0000000180003530 f i OposVariant.obj
 0001:00002560       ??0?$CTraceCategoryEx@$0BAAAAA@$0A@@ATL@@QEAA@PEB_W@Z 0000000180003560 f i OposVariant.obj
 0001:00002590       ??0?$CTraceCategoryEx@$0CA@$0A@@ATL@@QEAA@PEB_W@Z 0000000180003590 f i OposVariant.obj
 0001:000025c0       ??0?$CTraceCategoryEx@$0CAA@$0A@@ATL@@QEAA@PEB_W@Z 00000001800035c0 f i OposVariant.obj
 0001:000025f0       ??0?$CTraceCategoryEx@$0CAAA@$0A@@ATL@@QEAA@PEB_W@Z 00000001800035f0 f i OposVariant.obj
 0001:00002620       ??0?$CTraceCategoryEx@$0CAAAA@$0A@@ATL@@QEAA@PEB_W@Z 0000000180003620 f i OposVariant.obj
 0001:00002650       ??0?$CTraceCategoryEx@$0CAAAAA@$0A@@ATL@@QEAA@PEB_W@Z 0000000180003650 f i OposVariant.obj
 0001:00002680       ??0?$CTraceCategoryEx@$0EA@$0A@@ATL@@QEAA@PEB_W@Z 0000000180003680 f i OposVariant.obj
 0001:000026b0       ??0?$CTraceCategoryEx@$0EAA@$0A@@ATL@@QEAA@PEB_W@Z 00000001800036b0 f i OposVariant.obj
 0001:000026e0       ??0?$CTraceCategoryEx@$0EAAA@$0A@@ATL@@QEAA@PEB_W@Z 00000001800036e0 f i OposVariant.obj
 0001:00002710       ??0?$CTraceCategoryEx@$0EAAAA@$0A@@ATL@@QEAA@PEB_W@Z 0000000180003710 f i OposVariant.obj
 0001:00002740       ??0?$CTraceCategoryEx@$0EAAAAA@$0A@@ATL@@QEAA@PEB_W@Z 0000000180003740 f i OposVariant.obj
 0001:00002770       ??0?$CTraceCategoryEx@$0IA@$0A@@ATL@@QEAA@PEB_W@Z 0000000180003770 f i OposVariant.obj
 0001:000027a0       ??0?$CTraceCategoryEx@$0IAA@$0A@@ATL@@QEAA@PEB_W@Z 00000001800037a0 f i OposVariant.obj
 0001:000027d0       ??0?$CTraceCategoryEx@$0IAAA@$0A@@ATL@@QEAA@PEB_W@Z 00000001800037d0 f i OposVariant.obj
 0001:00002800       ??0?$CTraceCategoryEx@$0IAAAA@$0A@@ATL@@QEAA@PEB_W@Z 0000000180003800 f i OposVariant.obj
 0001:00002830       ??0CAtlComModule@ATL@@QEAA@XZ 0000000180003830 f i OposVariant.obj
 0001:00002940       ??0CAtlWinModule@ATL@@QEAA@XZ 0000000180003940 f i OposVariant.obj
 0001:000029e0       ??0CComCriticalSection@ATL@@QEAA@XZ 00000001800039e0 f i OposVariant.obj
 0001:00002a10       ??0CPreserveLastError@ATL@@QEAA@XZ 0000000180003a10 f i OposVariant.obj
 0001:00002a40       ??0CTraceFileAndLineInfo@ATL@@QEAA@PEBDH@Z 0000000180003a40 f i OposVariant.obj
 0001:00002a70       ??0_ATL_COM_MODULE70@ATL@@QEAA@XZ 0000000180003a70 f i OposVariant.obj
 0001:00002aa0       ??0_ATL_WIN_MODULE70@ATL@@QEAA@XZ 0000000180003aa0 f i OposVariant.obj
 0001:00002ae0       ??1?$CHeapPtr@_WVCCRTAllocator@ATL@@@ATL@@QEAA@XZ 0000000180003ae0 f i OposVariant.obj
 0001:00002b00       ??1?$CHeapPtrBase@_WVCCRTAllocator@ATL@@@ATL@@QEAA@XZ 0000000180003b00 f i OposVariant.obj
 0001:00002b20       ??1?$CSimpleArray@GV?$CSimpleArrayEqualHelper@G@ATL@@@ATL@@QEAA@XZ 0000000180003b20 f i OposVariant.obj
 0001:00002b40       ??1CAtlComModule@ATL@@QEAA@XZ 0000000180003b40 f i OposVariant.obj
 0001:00002b70       ??1CAtlWinModule@ATL@@QEAA@XZ 0000000180003b70 f i OposVariant.obj
 0001:00002ba0       ??1CComBSTR@ATL@@QEAA@XZ   0000000180003ba0 f i OposVariant.obj
 0001:00002bc0       ??1CComCriticalSection@ATL@@QEAA@XZ 0000000180003bc0 f i OposVariant.obj
 0001:00002bd0       ??1CPreserveLastError@ATL@@QEAA@XZ 0000000180003bd0 f i OposVariant.obj
 0001:00002bf0       ??1_ATL_COM_MODULE70@ATL@@QEAA@XZ 0000000180003bf0 f i OposVariant.obj
 0001:00002c20       ??1_ATL_WIN_MODULE70@ATL@@QEAA@XZ 0000000180003c20 f i OposVariant.obj
 0001:00002c60       ??1stringdispid@CComTypeInfoHolder@ATL@@QEAA@XZ 0000000180003c60 f i OposVariant.obj
 0001:00002c80       ??A?$CSimpleArray@GV?$CSimpleArrayEqualHelper@G@ATL@@@ATL@@QEAAAEAGH@Z 0000000180003c80 f i OposVariant.obj
 0001:00002d20       ??B?$CHeapPtrBase@_WVCCRTAllocator@ATL@@@ATL@@QEBAPEA_WXZ 0000000180003d20 f i OposVariant.obj
 0001:00002d30       ??B?$CTraceCategoryEx@$01$0A@@ATL@@QEAAIXZ 0000000180003d30 f i OposVariant.obj
 0001:00002d40       ??B?$CTraceCategoryEx@$0CA@$0A@@ATL@@QEAAIXZ 0000000180003d40 f i OposVariant.obj
 0001:00002d50       ??RCTraceFileAndLineInfo@ATL@@QEBAXHIPEB_WZZ 0000000180003d50 f i OposVariant.obj
 0001:00002e10       ??_Estringdispid@CComTypeInfoHolder@ATL@@QEAAPEAXI@Z 0000000180003e10 f i OposVariant.obj
 0001:00002eb0       ??_H@YAXPEAX_K1P6APEAX0@Z@Z 0000000180003eb0 f i OposVariant.obj
 0001:00002f30       ??_I@YAXPEAX_K1P6AX0@Z@Z   0000000180003f30 f i OposVariant.obj
 0001:00002fd0       ?Allocate@?$CHeapPtr@_WVCCRTAllocator@ATL@@@ATL@@QEAA_N_K@Z 0000000180003fd0 f i OposVariant.obj
 0001:00003050       ?Allocate@CCRTAllocator@ATL@@SAPEAX_K@Z 0000000180004050 f i OposVariant.obj
 0001:00003070       ?AllocateBytes@?$CHeapPtrBase@_WVCCRTAllocator@ATL@@@ATL@@QEAA_N_K@Z 0000000180004070 f i OposVariant.obj
 0001:000030f0       ?AtlWinModuleInit@ATL@@YAJPEAU_ATL_WIN_MODULE70@1@@Z 00000001800040f0 f i OposVariant.obj
 0001:000031e0       ?AtlWinModuleTerm@ATL@@YAJPEAU_ATL_WIN_MODULE70@1@PEAUHINSTANCE__@@@Z 00000001800041e0 f i OposVariant.obj
 0001:000032b0       ?Clear@OposVariant@@QEAAJXZ 00000001800042b0 f i OposVariant.obj
 0001:000032e0       ?Free@?$CHeapPtrBase@_WVCCRTAllocator@ATL@@@ATL@@QEAAXXZ 00000001800042e0 f i OposVariant.obj
 0001:00003310       ?Free@CCRTAllocator@ATL@@SAXPEAX@Z 0000000180004310 f i OposVariant.obj
 0001:00003330       ?GetCategoryName@CTrace@ATL@@CAPEA_WI@Z 0000000180004330 f i OposVariant.obj
 0001:000033a0       ?GetModuleInstance@CAtlBaseModule@ATL@@QEAAPEAUHINSTANCE__@@XZ 00000001800043a0 f i OposVariant.obj
 0001:000033c0       ?GetSize@?$CSimpleArray@GV?$CSimpleArrayEqualHelper@G@ATL@@@ATL@@QEBAHXZ 00000001800043c0 f i OposVariant.obj
 0001:000033d0       ?Init@CComCriticalSection@ATL@@QEAAJXZ 00000001800043d0 f i OposVariant.obj
 0001:00003420       ?RegisterCategory@CTrace@ATL@@SAXPEB_WI@Z 0000000180004420 f i OposVariant.obj
 0001:000034e0       ?RemoveAll@?$CSimpleArray@GV?$CSimpleArrayEqualHelper@G@ATL@@@ATL@@QEAAXXZ 00000001800044e0 f i OposVariant.obj
 0001:00003550       ?Term@CAtlComModule@ATL@@QEAAXXZ 0000000180004550 f i OposVariant.obj
 0001:00003620       ?Term@CAtlWinModule@ATL@@QEAAXXZ 0000000180004620 f i OposVariant.obj
 0001:00003650       ?Term@CComCriticalSection@ATL@@QEAAJXZ 0000000180004650 f i OposVariant.obj
 0001:00003670       ?TraceV@CTrace@ATL@@CAXPEBDHIIPEB_W@Z 0000000180004670 f i OposVariant.obj
 0001:00003920       ?TraceV@CTrace@ATL@@SAXPEBDHIIPEB_WPEAD@Z 0000000180004920 f i OposVariant.obj
 0001:00003ad0       ?_AtlInitializeCriticalSectionEx@ATL@@YAHPEAU_RTL_CRITICAL_SECTION@@KK@Z 0000000180004ad0 f i OposVariant.obj
 0001:00003b00       ?_AtlRaiseException@ATL@@YAXKK@Z 0000000180004b00 f i OposVariant.obj
 0001:00003b30       HRESULT_FROM_WIN32         0000000180004b30 f i OposVariant.obj
 0001:00003b70       _vswprintf_s_l             0000000180004b70 f i OposVariant.obj
 0001:00003be0       swprintf_s                 0000000180004be0 f i OposVariant.obj
 0001:00003c70       ?ObjectMain@CComObjectRootBase@ATL@@SAX_N@Z 0000000180004c70 f i IndividualRecognition.obj
 0001:00003c80       ?GetCategoryMap@CComObjectRootBase@ATL@@SAPEBU_ATL_CATMAP_ENTRY@2@XZ 0000000180004c80 f i IndividualRecognition.obj
 0001:00003c90       ?GetObjectDescription@?$CComCoClass@VCOPOSIndividualRecognition@@$1?CLSID_OPOSIndividualRecognition@@3U_GUID@@B@ATL@@SAPEB_WXZ 0000000180004c90 f i IndividualRecognition.obj
 0001:00003ca0       ?UpdateRegistry@COPOSIndividualRecognition@@SAJH@Z 0000000180004ca0 f i IndividualRecognition.obj
 0001:00003cd0       ?CreateInstance@?$CComCreator@V?$CComObjectCached@VCComClassFactory@ATL@@@ATL@@@ATL@@SAJPEAXAEBU_GUID@@PEAPEAX@Z 0000000180004cd0 f i IndividualRecognition.obj
 0001:00003ea0       ?CreateInstance@?$CComCreator2@V?$CComCreator@V?$CComObject@VCOPOSIndividualRecognition@@@ATL@@@ATL@@V?$CComCreator@V?$CComAggObject@VCOPOSIndividualRecognition@@@ATL@@@2@@ATL@@SAJPEAXAEBU_GUID@@PEAPEAX@Z 0000000180004ea0 f i IndividualRecognition.obj
 0001:00004090       DllGetClassObject          0000000180005090 f   IndividualRecognition.obj
 0001:000040d0       DllCanUnloadNow            00000001800050d0 f   IndividualRecognition.obj
 0001:00004110       DllRegisterServer          0000000180005110 f   IndividualRecognition.obj
 0001:00004140       DllUnregisterServer        0000000180005140 f   IndividualRecognition.obj
 0001:00004300       DllMain                    0000000180005300 f   IndividualRecognition.obj
 0001:00004370       ??$?2G@Wrapper@?$CSimpleArray@GV?$CSimpleArrayEqualHelper@G@ATL@@@ATL@@SAPEAX_KPEAG@Z 0000000180005370 f i IndividualRecognition.obj
 0001:00004390       ??$?2PEA_W@?$Wrapper@PEA_W@?$CSimpleMap@PEA_WPEA_WVCExpansionVectorEqualHelper@ATL@@@ATL@@SAPEAX_KPEAPEA_W@Z 0000000180005390 f i IndividualRecognition.obj
 0001:000043b0       ??$?4UITypeInfo2@@@?$CComPtr@UITypeInfo@@@ATL@@QEAAPEAUITypeInfo@@AEBV?$CComPtr@UITypeInfo2@@@1@@Z 00000001800053b0 f i IndividualRecognition.obj
 0001:00004410       ??$AtlAdd@_K@ATL@@YAJPEA_K_K1@Z 0000000180005410 f i IndividualRecognition.obj
 0001:00004470       ??$AtlAddThrow@_K@ATL@@YA_K_K0@Z 0000000180005470 f i IndividualRecognition.obj
 0001:000044e0       ??$AtlModuleRegisterWndClassInfoT@VAtlModuleRegisterWndClassInfoParamW@ATL@@@ATL@@YAGPEAU_ATL_BASE_MODULE70@0@PEAU_ATL_WIN_MODULE70@0@PEAU_ATL_WNDCLASSINFOW@0@PEAP6A_JPEAUHWND__@@I_K_J@ZVAtlModuleRegisterWndClassInfoParamW@0@@Z 00000001800054e0 f i IndividualRecognition.obj
 0001:00004ab0       ??$AtlMultiply@H@ATL@@YAJPEAHHH@Z 0000000180005ab0 f i IndividualRecognition.obj
 0001:00004b10       ??$AtlMultiply@K@ATL@@YAJPEAKKK@Z 0000000180005b10 f i IndividualRecognition.obj
 0001:00004b60       ??$AtlMultiplyThrow@_K@ATL@@YA_K_K0@Z 0000000180005b60 f i IndividualRecognition.obj
 0001:00004bd0       ??$QueryInterface@UIPersistStream@@@IUnknown@@QEAAJPEAPEAUIPersistStream@@@Z 0000000180005bd0 f i IndividualRecognition.obj
 0001:00004c00       ??$QueryInterface@UITypeInfo2@@@IUnknown@@QEAAJPEAPEAUITypeInfo2@@@Z 0000000180005c00 f i IndividualRecognition.obj
 0001:00004c30       ??0?$CAtlModuleT@VCComModule@ATL@@@ATL@@QEAA@XZ 0000000180005c30 f i IndividualRecognition.obj
 0001:00004c60       ??0?$CAtlSafeAllocBufferManager@VCCRTAllocator@ATL@@@_ATL_SAFE_ALLOCA_IMPL@ATL@@QEAA@XZ 0000000180005c60 f i IndividualRecognition.obj
 0001:00004c80       ??0?$CAutoVectorPtr@_W@ATL@@QEAA@XZ 0000000180005c80 f i IndividualRecognition.obj
 0001:00004ca0       ??0?$CComAggObject@VCOPOSIndividualRecognition@@@ATL@@QEAA@PEAX@Z 0000000180005ca0 f i IndividualRecognition.obj
 0001:00004d10       ??0?$CComContainedObject@VCOPOSIndividualRecognition@@@ATL@@QEAA@PEAX@Z 0000000180005d10 f i IndividualRecognition.obj
 0001:00004ea0       ??0?$CComCritSecLock@VCComCriticalSection@ATL@@@ATL@@QEAA@AEAVCComCriticalSection@1@_N@Z 0000000180005ea0 f i IndividualRecognition.obj
 0001:00004f00       ??0?$CComEnum@UIEnumConnectionPoints@@$1?_GUID_b196b285_bab4_101a_b69c_00aa00341d07@@3U__s_GUID@@BPEAUIConnectionPoint@@V?$_CopyInterface@UIConnectionPoint@@@ATL@@VCComSingleThreadModel@6@@ATL@@QEAA@XZ 0000000180005f00 f i IndividualRecognition.obj
 0001:00004f30       ??0?$CComEnum@UIEnumConnections@@$1?_GUID_b196b287_bab4_101a_b69c_00aa00341d07@@3U__s_GUID@@BUtagCONNECTDATA@@V?$_Copy@UtagCONNECTDATA@@@ATL@@VCComSingleThreadModel@6@@ATL@@QEAA@XZ 0000000180005f30 f i IndividualRecognition.obj
 0001:00004f60       ??0?$CComEnumImpl@UIEnumConnectionPoints@@$1?_GUID_b196b285_bab4_101a_b69c_00aa00341d07@@3U__s_GUID@@BPEAUIConnectionPoint@@V?$_CopyInterface@UIConnectionPoint@@@ATL@@@ATL@@QEAA@XZ 0000000180005f60 f i IndividualRecognition.obj
 0001:00004fd0       ??0?$CComEnumImpl@UIEnumConnections@@$1?_GUID_b196b287_bab4_101a_b69c_00aa00341d07@@3U__s_GUID@@BUtagCONNECTDATA@@V?$_Copy@UtagCONNECTDATA@@@ATL@@@ATL@@QEAA@XZ 0000000180005fd0 f i IndividualRecognition.obj
 0001:00005040       ??0?$CComObject@V?$CComEnum@UIEnumConnectionPoints@@$1?_GUID_b196b285_bab4_101a_b69c_00aa00341d07@@3U__s_GUID@@BPEAUIConnectionPoint@@V?$_CopyInterface@UIConnectionPoint@@@ATL@@VCComSingleThreadModel@6@@ATL@@@ATL@@QEAA@PEAX@Z 0000000180006040 f i IndividualRecognition.obj
 0001:00005090       ??0?$CComObject@V?$CComEnum@UIEnumConnections@@$1?_GUID_b196b287_bab4_101a_b69c_00aa00341d07@@3U__s_GUID@@BUtagCONNECTDATA@@V?$_Copy@UtagCONNECTDATA@@@ATL@@VCComSingleThreadModel@6@@ATL@@@ATL@@QEAA@PEAX@Z 0000000180006090 f i IndividualRecognition.obj
 0001:000050e0       ??0?$CComObject@VCOPOSIndividualRecognition@@@ATL@@QEAA@PEAX@Z 00000001800060e0 f i IndividualRecognition.obj
 0001:00005270       ??0?$CComObjectCached@VCComClassFactory@ATL@@@ATL@@QEAA@PEAX@Z 0000000180006270 f i IndividualRecognition.obj
 0001:000052b0       ??0?$CComObjectRootEx@VCComMultiThreadModel@ATL@@@ATL@@QEAA@XZ 00000001800062b0 f i IndividualRecognition.obj
 0001:000052e0       ??0?$CComObjectRootEx@VCComSingleThreadModel@ATL@@@ATL@@QEAA@XZ 00000001800062e0 f i IndividualRecognition.obj
 0001:00005300       ??0?$CComPtr@UIAdviseSink@@@ATL@@QEAA@PEAUIAdviseSink@@@Z 0000000180006300 f i IndividualRecognition.obj
 0001:00005330       ??0?$CComPtr@UICatRegister@@@ATL@@QEAA@XZ 0000000180006330 f i IndividualRecognition.obj
 0001:00005350       ??0?$CComPtr@UIConnectionPoint@@@ATL@@QEAA@XZ 0000000180006350 f i IndividualRecognition.obj
 0001:00005370       ??0?$CComPtr@UIConnectionPointContainer@@@ATL@@QEAA@XZ 0000000180006370 f i IndividualRecognition.obj
 0001:00005390       ??0?$CComPtr@UIDataObject@@@ATL@@QEAA@XZ 0000000180006390 f i IndividualRecognition.obj
 0001:000053b0       ??0?$CComPtr@UIDispatch@@@ATL@@QEAA@XZ 00000001800063b0 f i IndividualRecognition.obj
 0001:000053d0       ??0?$CComPtr@UIOleClientSite@@@ATL@@QEAA@PEAUIOleClientSite@@@Z 00000001800063d0 f i IndividualRecognition.obj
 0001:00005400       ??0?$CComPtr@UIOleControlSite@@@ATL@@QEAA@XZ 0000000180006400 f i IndividualRecognition.obj
 0001:00005420       ??0?$CComPtr@UIOleInPlaceActiveObject@@@ATL@@QEAA@XZ 0000000180006420 f i IndividualRecognition.obj
 0001:00005440       ??0?$CComPtr@UIOleInPlaceFrame@@@ATL@@QEAA@XZ 0000000180006440 f i IndividualRecognition.obj
 0001:00005460       ??0?$CComPtr@UIOleInPlaceObject@@@ATL@@QEAA@XZ 0000000180006460 f i IndividualRecognition.obj
 0001:00005480       ??0?$CComPtr@UIOleInPlaceUIWindow@@@ATL@@QEAA@XZ 0000000180006480 f i IndividualRecognition.obj
 0001:000054a0       ??0?$CComPtr@UIOleObject@@@ATL@@QEAA@XZ 00000001800064a0 f i IndividualRecognition.obj
 0001:000054c0       ??0?$CComPtr@UIPersistStream@@@ATL@@QEAA@XZ 00000001800064c0 f i IndividualRecognition.obj
 0001:000054e0       ??0?$CComPtr@UIPersistStreamInit@@@ATL@@QEAA@XZ 00000001800064e0 f i IndividualRecognition.obj
 0001:00005500       ??0?$CComPtr@UIPointerInactive@@@ATL@@QEAA@XZ 0000000180006500 f i IndividualRecognition.obj
 0001:00005520       ??0?$CComPtr@UIProvideClassInfo2@@@ATL@@QEAA@XZ 0000000180006520 f i IndividualRecognition.obj
 0001:00005540       ??0?$CComPtr@UISpecifyPropertyPages@@@ATL@@QEAA@XZ 0000000180006540 f i IndividualRecognition.obj
 0001:00005560       ??0?$CComPtr@UIStream@@@ATL@@QEAA@XZ 0000000180006560 f i IndividualRecognition.obj
 0001:00005580       ??0?$CComPtr@UITypeInfo2@@@ATL@@QEAA@XZ 0000000180006580 f i IndividualRecognition.obj
 0001:000055a0       ??0?$CComPtr@UITypeInfo@@@ATL@@QEAA@AEBV01@@Z 00000001800065a0 f i IndividualRecognition.obj
 0001:000055d0       ??0?$CComPtr@UITypeInfo@@@ATL@@QEAA@XZ 00000001800065d0 f i IndividualRecognition.obj
 0001:000055f0       ??0?$CComPtr@UITypeLib@@@ATL@@QEAA@XZ 00000001800065f0 f i IndividualRecognition.obj
 0001:00005610       ??0?$CComPtr@UIUnknown@@@ATL@@QEAA@AEBV01@@Z 0000000180006610 f i IndividualRecognition.obj
 0001:00005640       ??0?$CComPtr@UIUnknown@@@ATL@@QEAA@PEAUIUnknown@@@Z 0000000180006640 f i IndividualRecognition.obj
 0001:00005670       ??0?$CComPtr@UIUnknown@@@ATL@@QEAA@XZ 0000000180006670 f i IndividualRecognition.obj
 0001:00005690       ??0?$CComPtr@UIViewObjectEx@@@ATL@@QEAA@XZ 0000000180006690 f i IndividualRecognition.obj
 0001:000056b0       ??0?$CComPtrBase@UIAdviseSink@@@ATL@@IEAA@PEAUIAdviseSink@@@Z 00000001800066b0 f i IndividualRecognition.obj
 0001:00005700       ??0?$CComPtrBase@UICatRegister@@@ATL@@IEAA@XZ 0000000180006700 f i IndividualRecognition.obj
 0001:00005720       ??0?$CComPtrBase@UIConnectionPoint@@@ATL@@IEAA@XZ 0000000180006720 f i IndividualRecognition.obj
 0001:00005740       ??0?$CComPtrBase@UIConnectionPointContainer@@@ATL@@IEAA@XZ 0000000180006740 f i IndividualRecognition.obj
 0001:00005760       ??0?$CComPtrBase@UIDataObject@@@ATL@@IEAA@XZ 0000000180006760 f i IndividualRecognition.obj
 0001:00005780       ??0?$CComPtrBase@UIDispatch@@@ATL@@IEAA@XZ 0000000180006780 f i IndividualRecognition.obj
 0001:000057a0       ??0?$CComPtrBase@UIOleClientSite@@@ATL@@IEAA@PEAUIOleClientSite@@@Z 00000001800067a0 f i IndividualRecognition.obj
 0001:000057f0       ??0?$CComPtrBase@UIOleControlSite@@@ATL@@IEAA@XZ 00000001800067f0 f i IndividualRecognition.obj
 0001:00005810       ??0?$CComPtrBase@UIOleInPlaceActiveObject@@@ATL@@IEAA@XZ 0000000180006810 f i IndividualRecognition.obj
 0001:00005830       ??0?$CComPtrBase@UIOleInPlaceFrame@@@ATL@@IEAA@XZ 0000000180006830 f i IndividualRecognition.obj
 0001:00005850       ??0?$CComPtrBase@UIOleInPlaceObject@@@ATL@@IEAA@XZ 0000000180006850 f i IndividualRecognition.obj
 0001:00005870       ??0?$CComPtrBase@UIOleInPlaceUIWindow@@@ATL@@IEAA@XZ 0000000180006870 f i IndividualRecognition.obj
 0001:00005890       ??0?$CComPtrBase@UIOleObject@@@ATL@@IEAA@XZ 0000000180006890 f i IndividualRecognition.obj
 0001:000058b0       ??0?$CComPtrBase@UIPersistStream@@@ATL@@IEAA@XZ 00000001800068b0 f i IndividualRecognition.obj
 0001:000058d0       ??0?$CComPtrBase@UIPersistStreamInit@@@ATL@@IEAA@XZ 00000001800068d0 f i IndividualRecognition.obj
 0001:000058f0       ??0?$CComPtrBase@UIPointerInactive@@@ATL@@IEAA@XZ 00000001800068f0 f i IndividualRecognition.obj
 0001:00005910       ??0?$CComPtrBase@UIProvideClassInfo2@@@ATL@@IEAA@XZ 0000000180006910 f i IndividualRecognition.obj
 0001:00005930       ??0?$CComPtrBase@UISpecifyPropertyPages@@@ATL@@IEAA@XZ 0000000180006930 f i IndividualRecognition.obj
 0001:00005950       ??0?$CComPtrBase@UIStream@@@ATL@@IEAA@XZ 0000000180006950 f i IndividualRecognition.obj
 0001:00005970       ??0?$CComPtrBase@UITypeInfo2@@@ATL@@IEAA@XZ 0000000180006970 f i IndividualRecognition.obj
 0001:00005990       ??0?$CComPtrBase@UITypeInfo@@@ATL@@IEAA@PEAUITypeInfo@@@Z 0000000180006990 f i IndividualRecognition.obj
 0001:000059e0       ??0?$CComPtrBase@UITypeInfo@@@ATL@@IEAA@XZ 00000001800069e0 f i IndividualRecognition.obj
 0001:00005a00       ??0?$CComPtrBase@UITypeLib@@@ATL@@IEAA@XZ 0000000180006a00 f i IndividualRecognition.obj
 0001:00005a20       ??0?$CComPtrBase@UIUnknown@@@ATL@@IEAA@PEAUIUnknown@@@Z 0000000180006a20 f i IndividualRecognition.obj
 0001:00005a70       ??0?$CComPtrBase@UIUnknown@@@ATL@@IEAA@XZ 0000000180006a70 f i IndividualRecognition.obj
 0001:00005a90       ??0?$CComPtrBase@UIViewObjectEx@@@ATL@@IEAA@XZ 0000000180006a90 f i IndividualRecognition.obj
 0001:00005ab0       ??0?$CComQIPtr@UIOleControlSite@@$1?_GUID_b196b289_bab4_101a_b69c_00aa00341d07@@3U__s_GUID@@B@ATL@@QEAA@PEAUIUnknown@@@Z 0000000180006ab0 f i IndividualRecognition.obj
 0001:00005b10       ??0?$CComQIPtr@UIOleObject@@$1?_GUID_00000112_0000_0000_c000_000000000046@@3U__s_GUID@@B@ATL@@QEAA@XZ 0000000180006b10 f i IndividualRecognition.obj
 0001:00005b30       ??0?$CComQIPtr@UISpecifyPropertyPages@@$1?_GUID_b196b28b_bab4_101a_b69c_00aa00341d07@@3U__s_GUID@@B@ATL@@QEAA@XZ 0000000180006b30 f i IndividualRecognition.obj
 0001:00005b50       ??0?$CSimpleMap@PEA_WPEA_WVCExpansionVectorEqualHelper@ATL@@@ATL@@QEAA@XZ 0000000180006b50 f i IndividualRecognition.obj
 0001:00005b90       ??0?$CTempBuffer@E$0BAA@VCCRTAllocator@ATL@@@ATL@@QEAA@XZ 0000000180006b90 f i IndividualRecognition.obj
 0001:00005bb0       ??0?$CTempBuffer@_W$0BAA@VCCRTAllocator@ATL@@@ATL@@QEAA@XZ 0000000180006bb0 f i IndividualRecognition.obj
 0001:00005bd0       ??0?$CTempBuffer@_W$0EAA@VCCRTAllocator@ATL@@@ATL@@QEAA@XZ 0000000180006bd0 f i IndividualRecognition.obj
 0001:00005bf0       ??0?$Wrapper@PEA_W@?$CSimpleMap@PEA_WPEA_WVCExpansionVectorEqualHelper@ATL@@@ATL@@QEAA@AEBQEA_W@Z 0000000180006bf0 f i IndividualRecognition.obj
 0001:00005c20       ??0CAtlModule@ATL@@QEAA@XZ 0000000180006c20 f i IndividualRecognition.obj
 0001:00005d80       ??0CComAutoDeleteCriticalSection@ATL@@QEAA@XZ 0000000180006d80 f i IndividualRecognition.obj
 0001:00005da0       ??0CComBSTR@ATL@@QEAA@XZ   0000000180006da0 f i IndividualRecognition.obj
 0001:00005dc0       ??0CComClassFactory@ATL@@QEAA@XZ 0000000180006dc0 f i IndividualRecognition.obj
 0001:00005e00       ??0CComModule@ATL@@QEAA@XZ 0000000180006e00 f i IndividualRecognition.obj
 0001:00005e80       ??0CComObjectRootBase@ATL@@QEAA@XZ 0000000180006e80 f i IndividualRecognition.obj
 0001:00005ea0       ??0CComSafeDeleteCriticalSection@ATL@@QEAA@XZ 0000000180006ea0 f i IndividualRecognition.obj
 0001:00005ed0       ??0CComVariant@ATL@@QEAA@XZ 0000000180006ed0 f i IndividualRecognition.obj
 0001:00005f10       ??0CExpansionVector@ATL@@QEAA@XZ 0000000180006f10 f i IndividualRecognition.obj
 0001:00005f30       ??0CParseBuffer@CRegParser@ATL@@QEAA@H@Z 0000000180006f30 f i IndividualRecognition.obj
 0001:00005fb0       ??0CRegKey@ATL@@QEAA@PEAUHKEY__@@@Z 0000000180006fb0 f i IndividualRecognition.obj
 0001:00005ff0       ??0CRegKey@ATL@@QEAA@PEAVCAtlTransactionManager@1@@Z 0000000180006ff0 f i IndividualRecognition.obj
 0001:00006030       ??0CRegObject@ATL@@QEAA@XZ 0000000180007030 f i IndividualRecognition.obj
 0001:00006070       ??0CRegParser@ATL@@QEAA@PEAVCRegObject@1@@Z 0000000180007070 f i IndividualRecognition.obj
 0001:000060a0       ??0IClassFactory@@QEAA@XZ  00000001800070a0 f i IndividualRecognition.obj
 0001:000060c0       ??0IEnumConnectionPoints@@QEAA@XZ 00000001800070c0 f i IndividualRecognition.obj
 0001:000060e0       ??0IEnumConnections@@QEAA@XZ 00000001800070e0 f i IndividualRecognition.obj
 0001:00006100       ??0IRegistrarBase@@QEAA@XZ 0000000180007100 f i IndividualRecognition.obj
 0001:00006120       ??0IUnknown@@QEAA@XZ       0000000180007120 f i IndividualRecognition.obj
 0001:00006130       ??0ModuleLockHelper@ATL@@QEAA@XZ 0000000180007130 f i IndividualRecognition.obj
 0001:00006160       ??0OposVariant@@QEAA@XZ    0000000180007160 f i IndividualRecognition.obj
 0001:00006180       ??0Wrapper@?$CSimpleArray@GV?$CSimpleArrayEqualHelper@G@ATL@@@ATL@@QEAA@AEBG@Z 0000000180007180 f i IndividualRecognition.obj
 0001:000061b0       ??0_ATL_MODULE70@ATL@@QEAA@XZ 00000001800071b0 f i IndividualRecognition.obj
 0001:000061e0       ??0_ATL_MSG@ATL@@QEAA@PEAUHWND__@@I_K_JH@Z 00000001800071e0 f i IndividualRecognition.obj
 0001:00006270       ??0_U_MENUorID@ATL@@QEAA@I@Z 0000000180007270 f i IndividualRecognition.obj
 0001:00006290       ??0_U_RECT@ATL@@QEAA@AEAUtagRECT@@@Z 0000000180007290 f i IndividualRecognition.obj
 0001:000062b0       ??0stringdispid@CComTypeInfoHolder@ATL@@QEAA@XZ 00000001800072b0 f i IndividualRecognition.obj
 0001:000062f0       ??1?$CAtlModuleT@VCComModule@ATL@@@ATL@@UEAA@XZ 00000001800072f0 f i IndividualRecognition.obj
 0001:00006310       ??1?$CAtlSafeAllocBufferManager@VCCRTAllocator@ATL@@@_ATL_SAFE_ALLOCA_IMPL@ATL@@QEAA@XZ 0000000180007310 f i IndividualRecognition.obj
 0001:00006360       ??1?$CAutoVectorPtr@_W@ATL@@QEAA@XZ 0000000180007360 f i IndividualRecognition.obj
 0001:00006380       ??1?$CComAggObject@VCOPOSIndividualRecognition@@@ATL@@UEAA@XZ 0000000180007380 f i IndividualRecognition.obj
 0001:000063f0       ??1?$CComContainedObject@VCOPOSIndividualRecognition@@@ATL@@UEAA@XZ 00000001800073f0 f i IndividualRecognition.obj
 0001:00006410       ??1?$CComCritSecLock@VCComCriticalSection@ATL@@@ATL@@QEAA@XZ 0000000180007410 f i IndividualRecognition.obj
 0001:00006440       ??1?$CComEnum@UIEnumConnectionPoints@@$1?_GUID_b196b285_bab4_101a_b69c_00aa00341d07@@3U__s_GUID@@BPEAUIConnectionPoint@@V?$_CopyInterface@UIConnectionPoint@@@ATL@@VCComSingleThreadModel@6@@ATL@@UEAA@XZ 0000000180007440 f i IndividualRecognition.obj
 0001:00006470       ??1?$CComEnum@UIEnumConnections@@$1?_GUID_b196b287_bab4_101a_b69c_00aa00341d07@@3U__s_GUID@@BUtagCONNECTDATA@@V?$_Copy@UtagCONNECTDATA@@@ATL@@VCComSingleThreadModel@6@@ATL@@UEAA@XZ 0000000180007470 f i IndividualRecognition.obj
 0001:000064a0       ??1?$CComEnumImpl@UIEnumConnectionPoints@@$1?_GUID_b196b285_bab4_101a_b69c_00aa00341d07@@3U__s_GUID@@BPEAUIConnectionPoint@@V?$_CopyInterface@UIConnectionPoint@@@ATL@@@ATL@@UEAA@XZ 00000001800074a0 f i IndividualRecognition.obj
 0001:00006530       ??1?$CComEnumImpl@UIEnumConnections@@$1?_GUID_b196b287_bab4_101a_b69c_00aa00341d07@@3U__s_GUID@@BUtagCONNECTDATA@@V?$_Copy@UtagCONNECTDATA@@@ATL@@@ATL@@UEAA@XZ 0000000180007530 f i IndividualRecognition.obj
 0001:000065c0       ??1?$CComObject@V?$CComEnum@UIEnumConnectionPoints@@$1?_GUID_b196b285_bab4_101a_b69c_00aa00341d07@@3U__s_GUID@@BPEAUIConnectionPoint@@V?$_CopyInterface@UIConnectionPoint@@@ATL@@VCComSingleThreadModel@6@@ATL@@@ATL@@UEAA@XZ 00000001800075c0 f i IndividualRecognition.obj
 0001:00006620       ??1?$CComObject@V?$CComEnum@UIEnumConnections@@$1?_GUID_b196b287_bab4_101a_b69c_00aa00341d07@@3U__s_GUID@@BUtagCONNECTDATA@@V?$_Copy@UtagCONNECTDATA@@@ATL@@VCComSingleThreadModel@6@@ATL@@@ATL@@UEAA@XZ 0000000180007620 f i IndividualRecognition.obj
 0001:00006680       ??1?$CComObject@VCOPOSIndividualRecognition@@@ATL@@UEAA@XZ 0000000180007680 f i IndividualRecognition.obj
 0001:00006820       ??1?$CComObjectCached@VCComClassFactory@ATL@@@ATL@@UEAA@XZ 0000000180007820 f i IndividualRecognition.obj
 0001:00006870       ??1?$CComObjectRootEx@VCComMultiThreadModel@ATL@@@ATL@@QEAA@XZ 0000000180007870 f i IndividualRecognition.obj
 0001:000068a0       ??1?$CComObjectRootEx@VCComSingleThreadModel@ATL@@@ATL@@QEAA@XZ 00000001800078a0 f i IndividualRecognition.obj
 0001:000068c0       ??1?$CComPtr@UIAdviseSink@@@ATL@@QEAA@XZ 00000001800078c0 f i IndividualRecognition.obj
 0001:000068e0       ??1?$CComPtr@UICatRegister@@@ATL@@QEAA@XZ 00000001800078e0 f i IndividualRecognition.obj
 0001:00006900       ??1?$CComPtr@UIConnectionPoint@@@ATL@@QEAA@XZ 0000000180007900 f i IndividualRecognition.obj
 0001:00006920       ??1?$CComPtr@UIConnectionPointContainer@@@ATL@@QEAA@XZ 0000000180007920 f i IndividualRecognition.obj
 0001:00006940       ??1?$CComPtr@UIDataObject@@@ATL@@QEAA@XZ 0000000180007940 f i IndividualRecognition.obj
 0001:00006960       ??1?$CComPtr@UIDispatch@@@ATL@@QEAA@XZ 0000000180007960 f i IndividualRecognition.obj
 0001:00006980       ??1?$CComPtr@UIOleClientSite@@@ATL@@QEAA@XZ 0000000180007980 f i IndividualRecognition.obj
 0001:000069a0       ??1?$CComPtr@UIOleControlSite@@@ATL@@QEAA@XZ 00000001800079a0 f i IndividualRecognition.obj
 0001:000069c0       ??1?$CComPtr@UIOleInPlaceActiveObject@@@ATL@@QEAA@XZ 00000001800079c0 f i IndividualRecognition.obj
 0001:000069e0       ??1?$CComPtr@UIOleInPlaceFrame@@@ATL@@QEAA@XZ 00000001800079e0 f i IndividualRecognition.obj
 0001:00006a00       ??1?$CComPtr@UIOleInPlaceObject@@@ATL@@QEAA@XZ 0000000180007a00 f i IndividualRecognition.obj
 0001:00006a20       ??1?$CComPtr@UIOleInPlaceUIWindow@@@ATL@@QEAA@XZ 0000000180007a20 f i IndividualRecognition.obj
 0001:00006a40       ??1?$CComPtr@UIOleObject@@@ATL@@QEAA@XZ 0000000180007a40 f i IndividualRecognition.obj
 0001:00006a60       ??1?$CComPtr@UIPersistStream@@@ATL@@QEAA@XZ 0000000180007a60 f i IndividualRecognition.obj
 0001:00006a80       ??1?$CComPtr@UIPersistStreamInit@@@ATL@@QEAA@XZ 0000000180007a80 f i IndividualRecognition.obj
 0001:00006aa0       ??1?$CComPtr@UIPointerInactive@@@ATL@@QEAA@XZ 0000000180007aa0 f i IndividualRecognition.obj
 0001:00006ac0       ??1?$CComPtr@UIProvideClassInfo2@@@ATL@@QEAA@XZ 0000000180007ac0 f i IndividualRecognition.obj
 0001:00006ae0       ??1?$CComPtr@UISpecifyPropertyPages@@@ATL@@QEAA@XZ 0000000180007ae0 f i IndividualRecognition.obj
 0001:00006b00       ??1?$CComPtr@UIStream@@@ATL@@QEAA@XZ 0000000180007b00 f i IndividualRecognition.obj
 0001:00006b20       ??1?$CComPtr@UITypeInfo2@@@ATL@@QEAA@XZ 0000000180007b20 f i IndividualRecognition.obj
 0001:00006b40       ??1?$CComPtr@UITypeInfo@@@ATL@@QEAA@XZ 0000000180007b40 f i IndividualRecognition.obj
 0001:00006b60       ??1?$CComPtr@UITypeLib@@@ATL@@QEAA@XZ 0000000180007b60 f i IndividualRecognition.obj
 0001:00006b80       ??1?$CComPtr@UIUnknown@@@ATL@@QEAA@XZ 0000000180007b80 f i IndividualRecognition.obj
 0001:00006ba0       ??1?$CComPtr@UIViewObjectEx@@@ATL@@QEAA@XZ 0000000180007ba0 f i IndividualRecognition.obj
 0001:00006bc0       ??1?$CComPtrBase@UIAdviseSink@@@ATL@@QEAA@XZ 0000000180007bc0 f i IndividualRecognition.obj
 0001:00006c00       ??1?$CComPtrBase@UICatRegister@@@ATL@@QEAA@XZ 0000000180007c00 f i IndividualRecognition.obj
 0001:00006c40       ??1?$CComPtrBase@UIConnectionPoint@@@ATL@@QEAA@XZ 0000000180007c40 f i IndividualRecognition.obj
 0001:00006c80       ??1?$CComPtrBase@UIConnectionPointContainer@@@ATL@@QEAA@XZ 0000000180007c80 f i IndividualRecognition.obj
 0001:00006cc0       ??1?$CComPtrBase@UIDataObject@@@ATL@@QEAA@XZ 0000000180007cc0 f i IndividualRecognition.obj
 0001:00006d00       ??1?$CComPtrBase@UIDispatch@@@ATL@@QEAA@XZ 0000000180007d00 f i IndividualRecognition.obj
 0001:00006d40       ??1?$CComPtrBase@UIOleClientSite@@@ATL@@QEAA@XZ 0000000180007d40 f i IndividualRecognition.obj
 0001:00006d80       ??1?$CComPtrBase@UIOleControlSite@@@ATL@@QEAA@XZ 0000000180007d80 f i IndividualRecognition.obj
 0001:00006dc0       ??1?$CComPtrBase@UIOleInPlaceActiveObject@@@ATL@@QEAA@XZ 0000000180007dc0 f i IndividualRecognition.obj
 0001:00006e00       ??1?$CComPtrBase@UIOleInPlaceFrame@@@ATL@@QEAA@XZ 0000000180007e00 f i IndividualRecognition.obj
 0001:00006e40       ??1?$CComPtrBase@UIOleInPlaceObject@@@ATL@@QEAA@XZ 0000000180007e40 f i IndividualRecognition.obj
 0001:00006e80       ??1?$CComPtrBase@UIOleInPlaceUIWindow@@@ATL@@QEAA@XZ 0000000180007e80 f i IndividualRecognition.obj
 0001:00006ec0       ??1?$CComPtrBase@UIOleObject@@@ATL@@QEAA@XZ 0000000180007ec0 f i IndividualRecognition.obj
 0001:00006f00       ??1?$CComPtrBase@UIPersistStream@@@ATL@@QEAA@XZ 0000000180007f00 f i IndividualRecognition.obj
 0001:00006f40       ??1?$CComPtrBase@UIPersistStreamInit@@@ATL@@QEAA@XZ 0000000180007f40 f i IndividualRecognition.obj
 0001:00006f80       ??1?$CComPtrBase@UIPointerInactive@@@ATL@@QEAA@XZ 0000000180007f80 f i IndividualRecognition.obj
 0001:00006fc0       ??1?$CComPtrBase@UIProvideClassInfo2@@@ATL@@QEAA@XZ 0000000180007fc0 f i IndividualRecognition.obj
 0001:00007000       ??1?$CComPtrBase@UISpecifyPropertyPages@@@ATL@@QEAA@XZ 0000000180008000 f i IndividualRecognition.obj
 0001:00007040       ??1?$CComPtrBase@UIStream@@@ATL@@QEAA@XZ 0000000180008040 f i IndividualRecognition.obj
 0001:00007080       ??1?$CComPtrBase@UITypeInfo2@@@ATL@@QEAA@XZ 0000000180008080 f i IndividualRecognition.obj
 0001:000070c0       ??1?$CComPtrBase@UITypeInfo@@@ATL@@QEAA@XZ 00000001800080c0 f i IndividualRecognition.obj
 0001:00007100       ??1?$CComPtrBase@UITypeLib@@@ATL@@QEAA@XZ 0000000180008100 f i IndividualRecognition.obj
 0001:00007140       ??1?$CComPtrBase@UIUnknown@@@ATL@@QEAA@XZ 0000000180008140 f i IndividualRecognition.obj
 0001:00007180       ??1?$CComPtrBase@UIViewObjectEx@@@ATL@@QEAA@XZ 0000000180008180 f i IndividualRecognition.obj
 0001:000071c0       ??1?$CComQIPtr@UIOleControlSite@@$1?_GUID_b196b289_bab4_101a_b69c_00aa00341d07@@3U__s_GUID@@B@ATL@@QEAA@XZ 00000001800081c0 f i IndividualRecognition.obj
 0001:000071e0       ??1?$CComQIPtr@UIOleObject@@$1?_GUID_00000112_0000_0000_c000_000000000046@@3U__s_GUID@@B@ATL@@QEAA@XZ 00000001800081e0 f i IndividualRecognition.obj
 0001:00007200       ??1?$CComQIPtr@UISpecifyPropertyPages@@$1?_GUID_b196b28b_bab4_101a_b69c_00aa00341d07@@3U__s_GUID@@B@ATL@@QEAA@XZ 0000000180008200 f i IndividualRecognition.obj
 0001:00007220       ??1?$CSimpleMap@PEA_WPEA_WVCExpansionVectorEqualHelper@ATL@@@ATL@@QEAA@XZ 0000000180008220 f i IndividualRecognition.obj
 0001:00007240       ??1?$CTempBuffer@E$0BAA@VCCRTAllocator@ATL@@@ATL@@QEAA@XZ 0000000180008240 f i IndividualRecognition.obj
 0001:00007270       ??1?$CTempBuffer@_W$0BAA@VCCRTAllocator@ATL@@@ATL@@QEAA@XZ 0000000180008270 f i IndividualRecognition.obj
 0001:000072a0       ??1?$CTempBuffer@_W$0EAA@VCCRTAllocator@ATL@@@ATL@@QEAA@XZ 00000001800082a0 f i IndividualRecognition.obj
 0001:000072d0       ??1CAtlModule@ATL@@UEAA@XZ 00000001800082d0 f i IndividualRecognition.obj
 0001:00007300       ??1CComAutoDeleteCriticalSection@ATL@@QEAA@XZ 0000000180008300 f i IndividualRecognition.obj
 0001:00007320       ??1CComClassFactory@ATL@@UEAA@XZ 0000000180008320 f i IndividualRecognition.obj
 0001:00007350       ??1CComModule@ATL@@UEAA@XZ 0000000180008350 f i IndividualRecognition.obj
 0001:00007380       ??1CComObjectRootBase@ATL@@QEAA@XZ 0000000180008380 f i IndividualRecognition.obj
 0001:00007390       ??1CComSafeDeleteCriticalSection@ATL@@QEAA@XZ 0000000180008390 f i IndividualRecognition.obj
 0001:000073d0       ??1CComVariant@ATL@@QEAA@XZ 00000001800083d0 f i IndividualRecognition.obj
 0001:00007430       ??1CExpansionVector@ATL@@QEAA@XZ 0000000180008430 f i IndividualRecognition.obj
 0001:00007460       ??1CParseBuffer@CRegParser@ATL@@QEAA@XZ 0000000180008460 f i IndividualRecognition.obj
 0001:00007480       ??1CRegKey@ATL@@QEAA@XZ    0000000180008480 f i IndividualRecognition.obj
 0001:000074a0       ??1CRegObject@ATL@@UEAA@XZ 00000001800084a0 f i IndividualRecognition.obj
 0001:000074e0       ??1ModuleLockHelper@ATL@@QEAA@XZ 00000001800084e0 f i IndividualRecognition.obj
 0001:00007510       ??1OposVariant@@QEAA@XZ    0000000180008510 f i IndividualRecognition.obj
 0001:00007540       ??1_ATL_MODULE70@ATL@@QEAA@XZ 0000000180008540 f i IndividualRecognition.obj
 0001:00007570       ??4?$CComPtr@UIAdviseSink@@@ATL@@QEAAPEAUIAdviseSink@@PEAU2@@Z 0000000180008570 f i IndividualRecognition.obj
 0001:000075d0       ??4?$CComPtr@UIOleClientSite@@@ATL@@QEAAPEAUIOleClientSite@@PEAU2@@Z 00000001800085d0 f i IndividualRecognition.obj
 0001:00007630       ??4?$CComPtr@UIUnknown@@@ATL@@QEAAPEAUIUnknown@@PEAU2@@Z 0000000180008630 f i IndividualRecognition.obj
 0001:00007690       ??4?$CComQIPtr@UIOleObject@@$1?_GUID_00000112_0000_0000_c000_000000000046@@3U__s_GUID@@B@ATL@@QEAAPEAUIOleObject@@PEAUIUnknown@@@Z 0000000180008690 f i IndividualRecognition.obj
 0001:000076e0       ??4?$CComQIPtr@UISpecifyPropertyPages@@$1?_GUID_b196b28b_bab4_101a_b69c_00aa00341d07@@3U__s_GUID@@B@ATL@@QEAAPEAUISpecifyPropertyPages@@PEAUIUnknown@@@Z 00000001800086e0 f i IndividualRecognition.obj
 0001:00007730       ??7?$CComPtrBase@UIOleClientSite@@@ATL@@QEBA_NXZ 0000000180008730 f i IndividualRecognition.obj
 0001:00007760       ??7?$CComPtrBase@UIOleInPlaceSiteWindowless@@@ATL@@QEBA_NXZ 0000000180008760 f i IndividualRecognition.obj
 0001:00007790       ??7CComBSTR@ATL@@QEBA_NXZ  0000000180008790 f i IndividualRecognition.obj
 0001:000077c0       ??8?$CComPtrBase@UIConnectionPointContainer@@@ATL@@QEBA_NPEAUIConnectionPointContainer@@@Z 00000001800087c0 f i IndividualRecognition.obj
 0001:00007800       ??8?$CComPtrBase@UIDataAdviseHolder@@@ATL@@QEBA_NPEAUIDataAdviseHolder@@@Z 0000000180008800 f i IndividualRecognition.obj
 0001:00007840       ??8?$CComPtrBase@UIOleAdviseHolder@@@ATL@@QEBA_NPEAUIOleAdviseHolder@@@Z 0000000180008840 f i IndividualRecognition.obj
 0001:00007880       ??8?$CComPtrBase@UIOleClientSite@@@ATL@@QEBA_NPEAUIOleClientSite@@@Z 0000000180008880 f i IndividualRecognition.obj
 0001:000078c0       ??8?$CComPtrBase@UIOleControlSite@@@ATL@@QEBA_NPEAUIOleControlSite@@@Z 00000001800088c0 f i IndividualRecognition.obj
 0001:00007900       ??8?$CComPtrBase@UIOleInPlaceObject@@@ATL@@QEBA_NPEAUIOleInPlaceObject@@@Z 0000000180008900 f i IndividualRecognition.obj
 0001:00007940       ??8?$CComPtrBase@UIOleInPlaceSiteWindowless@@@ATL@@QEBA_NPEAUIOleInPlaceSiteWindowless@@@Z 0000000180008940 f i IndividualRecognition.obj
 0001:00007980       ??8?$CComPtrBase@UIOleObject@@@ATL@@QEBA_NPEAUIOleObject@@@Z 0000000180008980 f i IndividualRecognition.obj
 0001:000079c0       ??8?$CComPtrBase@UIPersistStream@@@ATL@@QEBA_NPEAUIPersistStream@@@Z 00000001800089c0 f i IndividualRecognition.obj
 0001:00007a00       ??8?$CComPtrBase@UIPersistStreamInit@@@ATL@@QEBA_NPEAUIPersistStreamInit@@@Z 0000000180008a00 f i IndividualRecognition.obj
 0001:00007a40       ??8?$CComPtrBase@UIPointerInactive@@@ATL@@QEBA_NPEAUIPointerInactive@@@Z 0000000180008a40 f i IndividualRecognition.obj
 0001:00007a80       ??8?$CComPtrBase@UIUnknown@@@ATL@@QEBA_NPEAUIUnknown@@@Z 0000000180008a80 f i IndividualRecognition.obj
 0001:00007ac0       ??8?$CComPtrBase@UIViewObjectEx@@@ATL@@QEBA_NPEAUIViewObjectEx@@@Z 0000000180008ac0 f i IndividualRecognition.obj
 0001:00007b00       ??8CComBSTR@ATL@@QEBA_NH@Z 0000000180008b00 f i IndividualRecognition.obj
 0001:00007b60       ??9?$CComPtrBase@UIConnectionPointContainer@@@ATL@@QEBA_NPEAUIConnectionPointContainer@@@Z 0000000180008b60 f i IndividualRecognition.obj
 0001:00007bb0       ??9?$CComPtrBase@UIDataAdviseHolder@@@ATL@@QEBA_NPEAUIDataAdviseHolder@@@Z 0000000180008bb0 f i IndividualRecognition.obj
 0001:00007c00       ??9?$CComPtrBase@UIOleAdviseHolder@@@ATL@@QEBA_NPEAUIOleAdviseHolder@@@Z 0000000180008c00 f i IndividualRecognition.obj
 0001:00007c50       ??9?$CComPtrBase@UIOleClientSite@@@ATL@@QEBA_NPEAUIOleClientSite@@@Z 0000000180008c50 f i IndividualRecognition.obj
 0001:00007ca0       ??9?$CComPtrBase@UIOleControlSite@@@ATL@@QEBA_NPEAUIOleControlSite@@@Z 0000000180008ca0 f i IndividualRecognition.obj
 0001:00007cf0       ??9?$CComPtrBase@UIOleInPlaceObject@@@ATL@@QEBA_NPEAUIOleInPlaceObject@@@Z 0000000180008cf0 f i IndividualRecognition.obj
 0001:00007d40       ??9?$CComPtrBase@UIOleInPlaceSiteWindowless@@@ATL@@QEBA_NPEAUIOleInPlaceSiteWindowless@@@Z 0000000180008d40 f i IndividualRecognition.obj
 0001:00007d90       ??9?$CComPtrBase@UIOleObject@@@ATL@@QEBA_NPEAUIOleObject@@@Z 0000000180008d90 f i IndividualRecognition.obj
 0001:00007de0       ??9?$CComPtrBase@UIPersistStream@@@ATL@@QEBA_NPEAUIPersistStream@@@Z 0000000180008de0 f i IndividualRecognition.obj
 0001:00007e30       ??9?$CComPtrBase@UIPersistStreamInit@@@ATL@@QEBA_NPEAUIPersistStreamInit@@@Z 0000000180008e30 f i IndividualRecognition.obj
 0001:00007e80       ??9?$CComPtrBase@UIPointerInactive@@@ATL@@QEBA_NPEAUIPointerInactive@@@Z 0000000180008e80 f i IndividualRecognition.obj
 0001:00007ed0       ??9?$CComPtrBase@UIUnknown@@@ATL@@QEBA_NPEAUIUnknown@@@Z 0000000180008ed0 f i IndividualRecognition.obj
 0001:00007f20       ??9?$CComPtrBase@UIViewObjectEx@@@ATL@@QEBA_NPEAUIViewObjectEx@@@Z 0000000180008f20 f i IndividualRecognition.obj
 0001:00007f70       ??9CComBSTR@ATL@@QEBA_NH@Z 0000000180008f70 f i IndividualRecognition.obj
 0001:00007fb0       ??B?$CComPtrBase@UIAdviseSink@@@ATL@@QEBAPEAUIAdviseSink@@XZ 0000000180008fb0 f i IndividualRecognition.obj
 0001:00007fc0       ??B?$CComPtrBase@UIDataAdviseHolder@@@ATL@@QEBAPEAUIDataAdviseHolder@@XZ 0000000180008fc0 f i IndividualRecognition.obj
 0001:00007fd0       ??B?$CComPtrBase@UIDataObject@@@ATL@@QEBAPEAUIDataObject@@XZ 0000000180008fd0 f i IndividualRecognition.obj
 0001:00007fe0       ??B?$CComPtrBase@UIOleAdviseHolder@@@ATL@@QEBAPEAUIOleAdviseHolder@@XZ 0000000180008fe0 f i IndividualRecognition.obj
 0001:00007ff0       ??B?$CComPtrBase@UIOleClientSite@@@ATL@@QEBAPEAUIOleClientSite@@XZ 0000000180008ff0 f i IndividualRecognition.obj
 0001:00008000       ??B?$CComPtrBase@UIOleControlSite@@@ATL@@QEBAPEAUIOleControlSite@@XZ 0000000180009000 f i IndividualRecognition.obj
 0001:00008010       ??B?$CComPtrBase@UIOleInPlaceActiveObject@@@ATL@@QEBAPEAUIOleInPlaceActiveObject@@XZ 0000000180009010 f i IndividualRecognition.obj
 0001:00008020       ??B?$CComPtrBase@UIOleInPlaceFrame@@@ATL@@QEBAPEAUIOleInPlaceFrame@@XZ 0000000180009020 f i IndividualRecognition.obj
 0001:00008030       ??B?$CComPtrBase@UIOleInPlaceSiteWindowless@@@ATL@@QEBAPEAUIOleInPlaceSiteWindowless@@XZ 0000000180009030 f i IndividualRecognition.obj
 0001:00008040       ??B?$CComPtrBase@UIOleInPlaceUIWindow@@@ATL@@QEBAPEAUIOleInPlaceUIWindow@@XZ 0000000180009040 f i IndividualRecognition.obj
 0001:00008050       ??B?$CComPtrBase@UIOleObject@@@ATL@@QEBAPEAUIOleObject@@XZ 0000000180009050 f i IndividualRecognition.obj
 0001:00008060       ??B?$CComPtrBase@UIPersistStream@@@ATL@@QEBAPEAUIPersistStream@@XZ 0000000180009060 f i IndividualRecognition.obj
 0001:00008070       ??B?$CComPtrBase@UIProvideClassInfo2@@@ATL@@QEBAPEAUIProvideClassInfo2@@XZ 0000000180009070 f i IndividualRecognition.obj
 0001:00008080       ??B?$CComPtrBase@UISpecifyPropertyPages@@@ATL@@QEBAPEAUISpecifyPropertyPages@@XZ 0000000180009080 f i IndividualRecognition.obj
 0001:00008090       ??B?$CComPtrBase@UIStream@@@ATL@@QEBAPEAUIStream@@XZ 0000000180009090 f i IndividualRecognition.obj
 0001:000080a0       ??B?$CComPtrBase@UITypeInfo2@@@ATL@@QEBAPEAUITypeInfo2@@XZ 00000001800090a0 f i IndividualRecognition.obj
 0001:000080b0       ??B?$CComPtrBase@UITypeInfo@@@ATL@@QEBAPEAUITypeInfo@@XZ 00000001800090b0 f i IndividualRecognition.obj
 0001:000080c0       ??B?$CComPtrBase@UITypeLib@@@ATL@@QEBAPEAUITypeLib@@XZ 00000001800090c0 f i IndividualRecognition.obj
 0001:000080d0       ??B?$CComPtrBase@UIUnknown@@@ATL@@QEBAPEAUIUnknown@@XZ 00000001800090d0 f i IndividualRecognition.obj
 0001:000080e0       ??B?$CTempBuffer@E$0BAA@VCCRTAllocator@ATL@@@ATL@@QEBAPEAEXZ 00000001800090e0 f i IndividualRecognition.obj
 0001:000080f0       ??B?$CTempBuffer@_W$0BAA@VCCRTAllocator@ATL@@@ATL@@QEBAPEA_WXZ 00000001800090f0 f i IndividualRecognition.obj
 0001:00008100       ??B?$CTempBuffer@_W$0EAA@VCCRTAllocator@ATL@@@ATL@@QEBAPEA_WXZ 0000000180009100 f i IndividualRecognition.obj
 0001:00008110       ??B?$CTraceCategoryEx@$00$0A@@ATL@@QEAAIXZ 0000000180009110 f i IndividualRecognition.obj
 0001:00008120       ??B?$CTraceCategoryEx@$07$0A@@ATL@@QEAAIXZ 0000000180009120 f i IndividualRecognition.obj
 0001:00008130       ??B?$CTraceCategoryEx@$0CAAA@$0A@@ATL@@QEAAIXZ 0000000180009130 f i IndividualRecognition.obj
 0001:00008140       ??B?$CTraceCategoryEx@$0EA@$0A@@ATL@@QEAAIXZ 0000000180009140 f i IndividualRecognition.obj
 0001:00008150       ??B?$CTraceCategoryEx@$0IAA@$0A@@ATL@@QEAAIXZ 0000000180009150 f i IndividualRecognition.obj
 0001:00008160       ??BCComBSTR@ATL@@QEBAPEA_WXZ 0000000180009160 f i IndividualRecognition.obj
 0001:00008170       ??BCRegKey@ATL@@QEBAPEAUHKEY__@@XZ 0000000180009170 f i IndividualRecognition.obj
 0001:00008180       ??C?$CComPtrBase@UIAdviseSink@@@ATL@@QEBAPEAV?$_NoAddRefReleaseOnCComPtr@UIAdviseSink@@@1@XZ 0000000180009180 f i IndividualRecognition.obj
 0001:000081e0       ??C?$CComPtrBase@UICatRegister@@@ATL@@QEBAPEAV?$_NoAddRefReleaseOnCComPtr@UICatRegister@@@1@XZ 00000001800091e0 f i IndividualRecognition.obj
 0001:00008240       ??C?$CComPtrBase@UIConnectionPoint@@@ATL@@QEBAPEAV?$_NoAddRefReleaseOnCComPtr@UIConnectionPoint@@@1@XZ 0000000180009240 f i IndividualRecognition.obj
 0001:000082a0       ??C?$CComPtrBase@UIConnectionPointContainer@@@ATL@@QEBAPEAV?$_NoAddRefReleaseOnCComPtr@UIConnectionPointContainer@@@1@XZ 00000001800092a0 f i IndividualRecognition.obj
 0001:00008300       ??C?$CComPtrBase@UIDataAdviseHolder@@@ATL@@QEBAPEAV?$_NoAddRefReleaseOnCComPtr@UIDataAdviseHolder@@@1@XZ 0000000180009300 f i IndividualRecognition.obj
 0001:00008360       ??C?$CComPtrBase@UIOleAdviseHolder@@@ATL@@QEBAPEAV?$_NoAddRefReleaseOnCComPtr@UIOleAdviseHolder@@@1@XZ 0000000180009360 f i IndividualRecognition.obj
 0001:000083c0       ??C?$CComPtrBase@UIOleClientSite@@@ATL@@QEBAPEAV?$_NoAddRefReleaseOnCComPtr@UIOleClientSite@@@1@XZ 00000001800093c0 f i IndividualRecognition.obj
 0001:00008420       ??C?$CComPtrBase@UIOleControlSite@@@ATL@@QEBAPEAV?$_NoAddRefReleaseOnCComPtr@UIOleControlSite@@@1@XZ 0000000180009420 f i IndividualRecognition.obj
 0001:00008480       ??C?$CComPtrBase@UIOleInPlaceFrame@@@ATL@@QEBAPEAV?$_NoAddRefReleaseOnCComPtr@UIOleInPlaceFrame@@@1@XZ 0000000180009480 f i IndividualRecognition.obj
 0001:000084e0       ??C?$CComPtrBase@UIOleInPlaceObject@@@ATL@@QEBAPEAV?$_NoAddRefReleaseOnCComPtr@UIOleInPlaceObject@@@1@XZ 00000001800094e0 f i IndividualRecognition.obj
 0001:00008540       ??C?$CComPtrBase@UIOleInPlaceSiteWindowless@@@ATL@@QEBAPEAV?$_NoAddRefReleaseOnCComPtr@UIOleInPlaceSiteWindowless@@@1@XZ 0000000180009540 f i IndividualRecognition.obj
 0001:000085a0       ??C?$CComPtrBase@UIOleInPlaceUIWindow@@@ATL@@QEBAPEAV?$_NoAddRefReleaseOnCComPtr@UIOleInPlaceUIWindow@@@1@XZ 00000001800095a0 f i IndividualRecognition.obj
 0001:00008600       ??C?$CComPtrBase@UIOleObject@@@ATL@@QEBAPEAV?$_NoAddRefReleaseOnCComPtr@UIOleObject@@@1@XZ 0000000180009600 f i IndividualRecognition.obj
 0001:00008660       ??C?$CComPtrBase@UIPersistStream@@@ATL@@QEBAPEAV?$_NoAddRefReleaseOnCComPtr@UIPersistStream@@@1@XZ 0000000180009660 f i IndividualRecognition.obj
 0001:000086c0       ??C?$CComPtrBase@UIPersistStreamInit@@@ATL@@QEBAPEAV?$_NoAddRefReleaseOnCComPtr@UIPersistStreamInit@@@1@XZ 00000001800096c0 f i IndividualRecognition.obj
 0001:00008720       ??C?$CComPtrBase@UIPointerInactive@@@ATL@@QEBAPEAV?$_NoAddRefReleaseOnCComPtr@UIPointerInactive@@@1@XZ 0000000180009720 f i IndividualRecognition.obj
 0001:00008780       ??C?$CComPtrBase@UIProvideClassInfo2@@@ATL@@QEBAPEAV?$_NoAddRefReleaseOnCComPtr@UIProvideClassInfo2@@@1@XZ 0000000180009780 f i IndividualRecognition.obj
 0001:000087e0       ??C?$CComPtrBase@UISpecifyPropertyPages@@@ATL@@QEBAPEAV?$_NoAddRefReleaseOnCComPtr@UISpecifyPropertyPages@@@1@XZ 00000001800097e0 f i IndividualRecognition.obj
 0001:00008840       ??C?$CComPtrBase@UITypeInfo@@@ATL@@QEBAPEAV?$_NoAddRefReleaseOnCComPtr@UITypeInfo@@@1@XZ 0000000180009840 f i IndividualRecognition.obj
 0001:000088a0       ??C?$CComPtrBase@UITypeLib@@@ATL@@QEBAPEAV?$_NoAddRefReleaseOnCComPtr@UITypeLib@@@1@XZ 00000001800098a0 f i IndividualRecognition.obj
 0001:00008900       ??C?$CComPtrBase@UIUnknown@@@ATL@@QEBAPEAV?$_NoAddRefReleaseOnCComPtr@UIUnknown@@@1@XZ 0000000180009900 f i IndividualRecognition.obj
 0001:00008960       ??C?$CComPtrBase@UIViewObjectEx@@@ATL@@QEBAPEAV?$_NoAddRefReleaseOnCComPtr@UIViewObjectEx@@@1@XZ 0000000180009960 f i IndividualRecognition.obj
 0001:000089c0       ??I?$CComPtrBase@UICatRegister@@@ATL@@QEAAPEAPEAUICatRegister@@XZ 00000001800099c0 f i IndividualRecognition.obj
 0001:00008a20       ??I?$CComPtrBase@UIConnectionPoint@@@ATL@@QEAAPEAPEAUIConnectionPoint@@XZ 0000000180009a20 f i IndividualRecognition.obj
 0001:00008a80       ??I?$CComPtrBase@UIConnectionPointContainer@@@ATL@@QEAAPEAPEAUIConnectionPointContainer@@XZ 0000000180009a80 f i IndividualRecognition.obj
 0001:00008ae0       ??I?$CComPtrBase@UIDataAdviseHolder@@@ATL@@QEAAPEAPEAUIDataAdviseHolder@@XZ 0000000180009ae0 f i IndividualRecognition.obj
 0001:00008b40       ??I?$CComPtrBase@UIDataObject@@@ATL@@QEAAPEAPEAUIDataObject@@XZ 0000000180009b40 f i IndividualRecognition.obj
 0001:00008ba0       ??I?$CComPtrBase@UIDispatch@@@ATL@@QEAAPEAPEAUIDispatch@@XZ 0000000180009ba0 f i IndividualRecognition.obj
 0001:00008c00       ??I?$CComPtrBase@UIOleAdviseHolder@@@ATL@@QEAAPEAPEAUIOleAdviseHolder@@XZ 0000000180009c00 f i IndividualRecognition.obj
 0001:00008c60       ??I?$CComPtrBase@UIOleControlSite@@@ATL@@QEAAPEAPEAUIOleControlSite@@XZ 0000000180009c60 f i IndividualRecognition.obj
 0001:00008cc0       ??I?$CComPtrBase@UIOleInPlaceActiveObject@@@ATL@@QEAAPEAPEAUIOleInPlaceActiveObject@@XZ 0000000180009cc0 f i IndividualRecognition.obj
 0001:00008d20       ??I?$CComPtrBase@UIOleInPlaceFrame@@@ATL@@QEAAPEAPEAUIOleInPlaceFrame@@XZ 0000000180009d20 f i IndividualRecognition.obj
 0001:00008d80       ??I?$CComPtrBase@UIOleInPlaceObject@@@ATL@@QEAAPEAPEAUIOleInPlaceObject@@XZ 0000000180009d80 f i IndividualRecognition.obj
 0001:00008de0       ??I?$CComPtrBase@UIOleInPlaceSiteWindowless@@@ATL@@QEAAPEAPEAUIOleInPlaceSiteWindowless@@XZ 0000000180009de0 f i IndividualRecognition.obj
 0001:00008e40       ??I?$CComPtrBase@UIOleInPlaceUIWindow@@@ATL@@QEAAPEAPEAUIOleInPlaceUIWindow@@XZ 0000000180009e40 f i IndividualRecognition.obj
 0001:00008ea0       ??I?$CComPtrBase@UIOleObject@@@ATL@@QEAAPEAPEAUIOleObject@@XZ 0000000180009ea0 f i IndividualRecognition.obj
 0001:00008f00       ??I?$CComPtrBase@UIPersistStream@@@ATL@@QEAAPEAPEAUIPersistStream@@XZ 0000000180009f00 f i IndividualRecognition.obj
 0001:00008f60       ??I?$CComPtrBase@UIPointerInactive@@@ATL@@QEAAPEAPEAUIPointerInactive@@XZ 0000000180009f60 f i IndividualRecognition.obj
 0001:00008fc0       ??I?$CComPtrBase@UIProvideClassInfo2@@@ATL@@QEAAPEAPEAUIProvideClassInfo2@@XZ 0000000180009fc0 f i IndividualRecognition.obj
 0001:00009020       ??I?$CComPtrBase@UIStream@@@ATL@@QEAAPEAPEAUIStream@@XZ 000000018000a020 f i IndividualRecognition.obj
 0001:00009080       ??I?$CComPtrBase@UITypeInfo2@@@ATL@@QEAAPEAPEAUITypeInfo2@@XZ 000000018000a080 f i IndividualRecognition.obj
 0001:000090e0       ??I?$CComPtrBase@UITypeInfo@@@ATL@@QEAAPEAPEAUITypeInfo@@XZ 000000018000a0e0 f i IndividualRecognition.obj
 0001:00009140       ??I?$CComPtrBase@UITypeLib@@@ATL@@QEAAPEAPEAUITypeLib@@XZ 000000018000a140 f i IndividualRecognition.obj
 0001:000091a0       ??I?$CComPtrBase@UIUnknown@@@ATL@@QEAAPEAPEAUIUnknown@@XZ 000000018000a1a0 f i IndividualRecognition.obj
 0001:00009200       ??I?$CComPtrBase@UIViewObjectEx@@@ATL@@QEAAPEAPEAUIViewObjectEx@@XZ 000000018000a200 f i IndividualRecognition.obj
 0001:00009260       ??ICComBSTR@ATL@@QEAAPEAPEA_WXZ 000000018000a260 f i IndividualRecognition.obj
 0001:00009270       ??_E?$CComContainedObject@VCOPOSIndividualRecognition@@@ATL@@W7EAAPEAXI@Z 000000018000a270 f i IndividualRecognition.obj
 0001:0000927c       ??_E?$CComContainedObject@VCOPOSIndividualRecognition@@@ATL@@WHA@EAAPEAXI@Z 000000018000a27c f i IndividualRecognition.obj
 0001:00009288       ??_E?$CComObject@VCOPOSIndividualRecognition@@@ATL@@W7EAAPEAXI@Z 000000018000a288 f i IndividualRecognition.obj
 0001:00009294       ??_E?$CComObject@VCOPOSIndividualRecognition@@@ATL@@WHA@EAAPEAXI@Z 000000018000a294 f i IndividualRecognition.obj
 0001:000092a0       ??_E?$CComAggObject@VCOPOSIndividualRecognition@@@ATL@@UEAAPEAXI@Z 000000018000a2a0 f i IndividualRecognition.obj
 0001:000092a0       ??_G?$CComAggObject@VCOPOSIndividualRecognition@@@ATL@@UEAAPEAXI@Z 000000018000a2a0 f i IndividualRecognition.obj
 0001:000092e0       ??_G?$CComContainedObject@VCOPOSIndividualRecognition@@@ATL@@UEAAPEAXI@Z 000000018000a2e0 f i IndividualRecognition.obj
 0001:000092e0       ??_E?$CComContainedObject@VCOPOSIndividualRecognition@@@ATL@@UEAAPEAXI@Z 000000018000a2e0 f i IndividualRecognition.obj
 0001:00009320       ??_G?$CComObject@V?$CComEnum@UIEnumConnectionPoints@@$1?_GUID_b196b285_bab4_101a_b69c_00aa00341d07@@3U__s_GUID@@BPEAUIConnectionPoint@@V?$_CopyInterface@UIConnectionPoint@@@ATL@@VCComSingleThreadModel@6@@ATL@@@ATL@@UEAAPEAXI@Z 000000018000a320 f i IndividualRecognition.obj
 0001:00009320       ??_E?$CComObject@V?$CComEnum@UIEnumConnectionPoints@@$1?_GUID_b196b285_bab4_101a_b69c_00aa00341d07@@3U__s_GUID@@BPEAUIConnectionPoint@@V?$_CopyInterface@UIConnectionPoint@@@ATL@@VCComSingleThreadModel@6@@ATL@@@ATL@@UEAAPEAXI@Z 000000018000a320 f i IndividualRecognition.obj
 0001:00009360       ??_G?$CComObject@V?$CComEnum@UIEnumConnections@@$1?_GUID_b196b287_bab4_101a_b69c_00aa00341d07@@3U__s_GUID@@BUtagCONNECTDATA@@V?$_Copy@UtagCONNECTDATA@@@ATL@@VCComSingleThreadModel@6@@ATL@@@ATL@@UEAAPEAXI@Z 000000018000a360 f i IndividualRecognition.obj
 0001:00009360       ??_E?$CComObject@V?$CComEnum@UIEnumConnections@@$1?_GUID_b196b287_bab4_101a_b69c_00aa00341d07@@3U__s_GUID@@BUtagCONNECTDATA@@V?$_Copy@UtagCONNECTDATA@@@ATL@@VCComSingleThreadModel@6@@ATL@@@ATL@@UEAAPEAXI@Z 000000018000a360 f i IndividualRecognition.obj
 0001:000093a0       ??_G?$CComObject@VCOPOSIndividualRecognition@@@ATL@@UEAAPEAXI@Z 000000018000a3a0 f i IndividualRecognition.obj
 0001:000093a0       ??_E?$CComObject@VCOPOSIndividualRecognition@@@ATL@@UEAAPEAXI@Z 000000018000a3a0 f i IndividualRecognition.obj
 0001:000093e0       ??_E?$CComObjectCached@VCComClassFactory@ATL@@@ATL@@UEAAPEAXI@Z 000000018000a3e0 f i IndividualRecognition.obj
 0001:000093e0       ??_G?$CComObjectCached@VCComClassFactory@ATL@@@ATL@@UEAAPEAXI@Z 000000018000a3e0 f i IndividualRecognition.obj
 0001:00009420       ??_GCComClassFactory@ATL@@UEAAPEAXI@Z 000000018000a420 f i IndividualRecognition.obj
 0001:00009420       ??_ECComClassFactory@ATL@@UEAAPEAXI@Z 000000018000a420 f i IndividualRecognition.obj
 0001:00009460       ??_GCComModule@ATL@@UEAAPEAXI@Z 000000018000a460 f i IndividualRecognition.obj
 0001:00009460       ??_ECComModule@ATL@@UEAAPEAXI@Z 000000018000a460 f i IndividualRecognition.obj
 0001:000094a0       ??_ECRegObject@ATL@@UEAAPEAXI@Z 000000018000a4a0 f i IndividualRecognition.obj
 0001:000094a0       ??_GCRegObject@ATL@@UEAAPEAXI@Z 000000018000a4a0 f i IndividualRecognition.obj
 0001:000094e0       ?Add@?$CSimpleArray@GV?$CSimpleArrayEqualHelper@G@ATL@@@ATL@@QEAAHAEBG@Z 000000018000a4e0 f i IndividualRecognition.obj
 0001:00009670       ?Add@?$CSimpleMap@PEA_WPEA_WVCExpansionVectorEqualHelper@ATL@@@ATL@@QEAAHAEBQEA_W0@Z 000000018000a670 f i IndividualRecognition.obj
 0001:00009750       ?Add@CComDynamicUnkArray@ATL@@QEAAKPEAUIUnknown@@@Z 000000018000a750 f i IndividualRecognition.obj
 0001:00009930       ?Add@CExpansionVector@ATL@@QEAAHPEB_W0@Z 000000018000a930 f i IndividualRecognition.obj
 0001:00009c70       ?AddChar@CParseBuffer@CRegParser@ATL@@QEAAHPEB_W@Z 000000018000ac70 f i IndividualRecognition.obj
 0001:00009cb0       ?AddCommonRGSReplacements@?$CAtlModuleT@VCComModule@ATL@@@ATL@@UEAAJPEAUIRegistrarBase@@@Z 000000018000acb0 f i IndividualRecognition.obj
 0001:00009cf0       ?AddCreateWndData@CAtlWinModule@ATL@@QEAAXPEAU_AtlCreateWndData@2@PEAX@Z 000000018000acf0 f i IndividualRecognition.obj
 0001:00009d20       ?AddRef@?$CComAggObject@VCOPOSIndividualRecognition@@@ATL@@UEAAKXZ 000000018000ad20 f i IndividualRecognition.obj
 0001:00009d50       ?AddRef@?$CComContainedObject@VCOPOSIndividualRecognition@@@ATL@@UEAAKXZ 000000018000ad50 f i IndividualRecognition.obj
 0001:00009d74       ?AddRef@?$CComContainedObject@VCOPOSIndividualRecognition@@@ATL@@WBAA@EAAKXZ 000000018000ad74 f i IndividualRecognition.obj
 0001:00009d80       ?AddRef@?$CComContainedObject@VCOPOSIndividualRecognition@@@ATL@@WBAI@EAAKXZ 000000018000ad80 f i IndividualRecognition.obj
 0001:00009d8c       ?AddRef@?$CComContainedObject@VCOPOSIndividualRecognition@@@ATL@@WBBA@EAAKXZ 000000018000ad8c f i IndividualRecognition.obj
 0001:00009d98       ?AddRef@?$CComContainedObject@VCOPOSIndividualRecognition@@@ATL@@WBBI@EAAKXZ 000000018000ad98 f i IndividualRecognition.obj
 0001:00009da4       ?AddRef@?$CComContainedObject@VCOPOSIndividualRecognition@@@ATL@@WBCI@EAAKXZ 000000018000ada4 f i IndividualRecognition.obj
 0001:00009db0       ?AddRef@?$CComContainedObject@VCOPOSIndividualRecognition@@@ATL@@WBEA@EAAKXZ 000000018000adb0 f i IndividualRecognition.obj
 0001:00009dbc       ?AddRef@?$CComContainedObject@VCOPOSIndividualRecognition@@@ATL@@WLI@EAAKXZ 000000018000adbc f i IndividualRecognition.obj
 0001:00009dc8       ?AddRef@?$CComContainedObject@VCOPOSIndividualRecognition@@@ATL@@WMA@EAAKXZ 000000018000adc8 f i IndividualRecognition.obj
 0001:00009dd4       ?AddRef@?$CComContainedObject@VCOPOSIndividualRecognition@@@ATL@@WMI@EAAKXZ 000000018000add4 f i IndividualRecognition.obj
 0001:00009de0       ?AddRef@?$CComContainedObject@VCOPOSIndividualRecognition@@@ATL@@WNA@EAAKXZ 000000018000ade0 f i IndividualRecognition.obj
 0001:00009dec       ?AddRef@?$CComContainedObject@VCOPOSIndividualRecognition@@@ATL@@WNI@EAAKXZ 000000018000adec f i IndividualRecognition.obj
 0001:00009df8       ?AddRef@?$CComContainedObject@VCOPOSIndividualRecognition@@@ATL@@WOA@EAAKXZ 000000018000adf8 f i IndividualRecognition.obj
 0001:00009e04       ?AddRef@?$CComContainedObject@VCOPOSIndividualRecognition@@@ATL@@WOI@EAAKXZ 000000018000ae04 f i IndividualRecognition.obj
 0001:00009e10       ?AddRef@?$CComContainedObject@VCOPOSIndividualRecognition@@@ATL@@WPA@EAAKXZ 000000018000ae10 f i IndividualRecognition.obj
 0001:00009e1c       ?AddRef@?$CComContainedObject@VCOPOSIndividualRecognition@@@ATL@@WPI@EAAKXZ 000000018000ae1c f i IndividualRecognition.obj
 0001:00009e30       ?AddRef@?$CComObject@V?$CComEnum@UIEnumConnectionPoints@@$1?_GUID_b196b285_bab4_101a_b69c_00aa00341d07@@3U__s_GUID@@BPEAUIConnectionPoint@@V?$_CopyInterface@UIConnectionPoint@@@ATL@@VCComSingleThreadModel@6@@ATL@@@ATL@@UEAAKXZ 000000018000ae30 f i IndividualRecognition.obj
 0001:00009e60       ?AddRef@?$CComObject@V?$CComEnum@UIEnumConnections@@$1?_GUID_b196b287_bab4_101a_b69c_00aa00341d07@@3U__s_GUID@@BUtagCONNECTDATA@@V?$_Copy@UtagCONNECTDATA@@@ATL@@VCComSingleThreadModel@6@@ATL@@@ATL@@UEAAKXZ 000000018000ae60 f i IndividualRecognition.obj
 0001:00009e90       ?AddRef@?$CComObject@VCOPOSIndividualRecognition@@@ATL@@UEAAKXZ 000000018000ae90 f i IndividualRecognition.obj
 0001:00009eb4       ?AddRef@?$CComObject@VCOPOSIndividualRecognition@@@ATL@@WBAA@EAAKXZ 000000018000aeb4 f i IndividualRecognition.obj
 0001:00009ec0       ?AddRef@?$CComObject@VCOPOSIndividualRecognition@@@ATL@@WBAI@EAAKXZ 000000018000aec0 f i IndividualRecognition.obj
 0001:00009ecc       ?AddRef@?$CComObject@VCOPOSIndividualRecognition@@@ATL@@WBBA@EAAKXZ 000000018000aecc f i IndividualRecognition.obj
 0001:00009ed8       ?AddRef@?$CComObject@VCOPOSIndividualRecognition@@@ATL@@WBBI@EAAKXZ 000000018000aed8 f i IndividualRecognition.obj
 0001:00009ee4       ?AddRef@?$CComObject@VCOPOSIndividualRecognition@@@ATL@@WBCI@EAAKXZ 000000018000aee4 f i IndividualRecognition.obj
 0001:00009ef0       ?AddRef@?$CComObject@VCOPOSIndividualRecognition@@@ATL@@WBEA@EAAKXZ 000000018000aef0 f i IndividualRecognition.obj
 0001:00009efc       ?AddRef@?$CComObject@VCOPOSIndividualRecognition@@@ATL@@WLI@EAAKXZ 000000018000aefc f i IndividualRecognition.obj
 0001:00009f08       ?AddRef@?$CComObject@VCOPOSIndividualRecognition@@@ATL@@WMA@EAAKXZ 000000018000af08 f i IndividualRecognition.obj
 0001:00009f14       ?AddRef@?$CComObject@VCOPOSIndividualRecognition@@@ATL@@WMI@EAAKXZ 000000018000af14 f i IndividualRecognition.obj
 0001:00009f20       ?AddRef@?$CComObject@VCOPOSIndividualRecognition@@@ATL@@WNA@EAAKXZ 000000018000af20 f i IndividualRecognition.obj
 0001:00009f2c       ?AddRef@?$CComObject@VCOPOSIndividualRecognition@@@ATL@@WNI@EAAKXZ 000000018000af2c f i IndividualRecognition.obj
 0001:00009f38       ?AddRef@?$CComObject@VCOPOSIndividualRecognition@@@ATL@@WOA@EAAKXZ 000000018000af38 f i IndividualRecognition.obj
 0001:00009f44       ?AddRef@?$CComObject@VCOPOSIndividualRecognition@@@ATL@@WOI@EAAKXZ 000000018000af44 f i IndividualRecognition.obj
 0001:00009f50       ?AddRef@?$CComObject@VCOPOSIndividualRecognition@@@ATL@@WPA@EAAKXZ 000000018000af50 f i IndividualRecognition.obj
 0001:00009f5c       ?AddRef@?$CComObject@VCOPOSIndividualRecognition@@@ATL@@WPI@EAAKXZ 000000018000af5c f i IndividualRecognition.obj
 0001:00009f70       ?AddRef@?$CComObjectCached@VCComClassFactory@ATL@@@ATL@@UEAAKXZ 000000018000af70 f i IndividualRecognition.obj
 0001:00009fc0       ?AddRef@CRegObject@ATL@@UEAAKXZ 000000018000afc0 f i IndividualRecognition.obj
 0001:0000a020       ?AddReplacement@CRegObject@ATL@@UEAAJPEB_W0@Z 000000018000b020 f i IndividualRecognition.obj
 0001:0000a150       ?AddString@CParseBuffer@CRegParser@ATL@@QEAAHPEB_W@Z 000000018000b150 f i IndividualRecognition.obj
 0001:0000a240       ?AddTermFunc@CAtlModule@ATL@@QEAAJP6AX_K@Z0@Z 000000018000b240 f i IndividualRecognition.obj
 0001:0000a290       ?AddValue@CRegParser@ATL@@IEAAJAEAVCRegKey@2@PEB_WPEA_W@Z 000000018000b290 f i IndividualRecognition.obj
 0001:0000ab60       ?Advise@?$CProxy_IOPOSEvents@VCOPOSIndividualRecognition@@@@UEAAJPEAUIUnknown@@PEAK@Z 000000018000bb60 f i IndividualRecognition.obj
 0001:0000abc0       ?Advise@?$IConnectionPointImpl@VCOPOSIndividualRecognition@@$1?DIID__IOPOSIndividualRecognitionEvents@@3U_GUID@@BVCComDynamicUnkArray@ATL@@@ATL@@UEAAJPEAUIUnknown@@PEAK@Z 000000018000bbc0 f i IndividualRecognition.obj
 0001:0000adc0       ?Advise@?$IConnectionPointImpl@VCOPOSIndividualRecognition@@$1?IID_IPropertyNotifySink@@3U_GUID@@BVCComDynamicUnkArray@ATL@@@ATL@@UEAAJPEAUIUnknown@@PEAK@Z 000000018000bdc0 f i IndividualRecognition.obj
 0001:0000afc0       ?Advise@?$IOleObjectImpl@VCOPOSIndividualRecognition@@@ATL@@UEAAJPEAUIAdviseSink@@PEAK@Z 000000018000bfc0 f i IndividualRecognition.obj
 0001:0000b070       ?Allocate@?$CAtlSafeAllocBufferManager@VCCRTAllocator@ATL@@@_ATL_SAFE_ALLOCA_IMPL@ATL@@QEAAPEAX_K@Z 000000018000c070 f i IndividualRecognition.obj
 0001:0000b0e0       ?Allocate@?$CTempBuffer@E$0BAA@VCCRTAllocator@ATL@@@ATL@@QEAAPEAE_K@Z 000000018000c0e0 f i IndividualRecognition.obj
 0001:0000b120       ?Allocate@?$CTempBuffer@_W$0BAA@VCCRTAllocator@ATL@@@ATL@@QEAAPEA_W_K@Z 000000018000c120 f i IndividualRecognition.obj
 0001:0000b160       ?Allocate@?$CTempBuffer@_W$0EAA@VCCRTAllocator@ATL@@@ATL@@QEAAPEA_W_K@Z 000000018000c160 f i IndividualRecognition.obj
 0001:0000b1a0       ?AllocateBytes@?$CTempBuffer@E$0BAA@VCCRTAllocator@ATL@@@ATL@@QEAAPEAE_K@Z 000000018000c1a0 f i IndividualRecognition.obj
 0001:0000b230       ?AllocateBytes@?$CTempBuffer@_W$0BAA@VCCRTAllocator@ATL@@@ATL@@QEAAPEA_W_K@Z 000000018000c230 f i IndividualRecognition.obj
 0001:0000b2c0       ?AllocateBytes@?$CTempBuffer@_W$0EAA@VCCRTAllocator@ATL@@@ATL@@QEAAPEA_W_K@Z 000000018000c2c0 f i IndividualRecognition.obj
 0001:0000b350       ?AllocateHeap@?$CTempBuffer@E$0BAA@VCCRTAllocator@ATL@@@ATL@@AEAAX_K@Z 000000018000c350 f i IndividualRecognition.obj
 0001:0000b3a0       ?AllocateHeap@?$CTempBuffer@_W$0BAA@VCCRTAllocator@ATL@@@ATL@@AEAAX_K@Z 000000018000c3a0 f i IndividualRecognition.obj
 0001:0000b3f0       ?AllocateHeap@?$CTempBuffer@_W$0EAA@VCCRTAllocator@ATL@@@ATL@@AEAAX_K@Z 000000018000c3f0 f i IndividualRecognition.obj
 0001:0000b440       ?Append@CParseBuffer@CRegParser@ATL@@QEAAHPEB_WH@Z 000000018000c440 f i IndividualRecognition.obj
 0001:0000b660       ?AtlCallTermFunc@ATL@@YAXPEAU_ATL_MODULE70@1@@Z 000000018000c660 f i IndividualRecognition.obj
 0001:0000b700       ?AtlCoTaskMemCAlloc@ATL@@YAPEAXKK@Z 000000018000c700 f i IndividualRecognition.obj
 0001:0000b780       ?AtlCoTaskMemRecalloc@ATL@@YAPEAXPEAXKK@Z 000000018000c780 f i IndividualRecognition.obj
 0001:0000b800       ?AtlComModuleGetClassObject@ATL@@YAJPEAU_ATL_COM_MODULE70@1@AEBU_GUID@@1PEAPEAX@Z 000000018000c800 f i IndividualRecognition.obj
 0001:0000bb30       ?AtlComModuleRegisterServer@ATL@@YAJPEAU_ATL_COM_MODULE70@1@HPEBU_GUID@@@Z 000000018000cb30 f i IndividualRecognition.obj
 0001:0000bd20       ?AtlComModuleUnregisterServer@ATL@@YAJPEAU_ATL_COM_MODULE70@1@HPEBU_GUID@@@Z 000000018000cd20 f i IndividualRecognition.obj
 0001:0000be70       ?AtlComQIPtrAssign2@ATL@@YAXPEAPEAUIUnknown@@PEAU2@AEBU_GUID@@@Z 000000018000ce70 f i IndividualRecognition.obj
 0001:0000bee0       ?AtlCreateTargetDC@ATL@@YAPEAUHDC__@@PEAU2@PEAUtagDVTARGETDEVICE@@@Z 000000018000cee0 f i IndividualRecognition.obj
 0001:0000c110       ?AtlCrtErrorCheck@ATL@@YAHH@Z 000000018000d110 f i IndividualRecognition.obj
 0001:0000c180       ?AtlGetPerUserRegistration@ATL@@YAJPEA_N@Z 000000018000d180 f i IndividualRecognition.obj
 0001:0000c1b0       ?AtlHiMetricToPixel@ATL@@YAXPEBUtagSIZE@@PEAU2@@Z 000000018000d1b0 f i IndividualRecognition.obj
 0001:0000c390       ?AtlHresultFromLastError@ATL@@YAJXZ 000000018000d390 f i IndividualRecognition.obj
 0001:0000c3b0       ?AtlHresultFromWin32@ATL@@YAJK@Z 000000018000d3b0 f i IndividualRecognition.obj
 0001:0000c3d0       ?AtlIPersistStreamInit_Load@ATL@@YAJPEAUIStream@@PEBUATL_PROPMAP_ENTRY@1@PEAXPEAUIUnknown@@@Z 000000018000d3d0 f i IndividualRecognition.obj
 0001:0000ca50       ?AtlIPersistStreamInit_Save@ATL@@YAJPEAUIStream@@HPEBUATL_PROPMAP_ENTRY@1@PEAXPEAUIUnknown@@@Z 000000018000da50 f i IndividualRecognition.obj
 0001:0000cfe0       ?AtlInternalOleLoadFromStream@ATL@@YAJPEAUIStream@@AEBU_GUID@@PEAPEAXTClassesAllowedInStream@1@K@Z 000000018000dfe0 f i IndividualRecognition.obj
 0001:0000d320       ?AtlInternalQueryInterface@ATL@@YAJPEAXPEBU_ATL_INTMAP_ENTRY@1@AEBU_GUID@@PEAPEAX@Z 000000018000e320 f i IndividualRecognition.obj
 0001:0000d5d0       ?AtlLoadTypeLib@ATL@@YAJPEAUHINSTANCE__@@PEB_WPEAPEA_WPEAPEAUITypeLib@@@Z 000000018000e5d0 f i IndividualRecognition.obj
 0001:0000daa0       ?AtlModuleAddTermFunc@ATL@@YAJPEAU_ATL_MODULE70@1@P6AX_K@Z1@Z 000000018000eaa0 f i IndividualRecognition.obj
 0001:0000dc70       ?AtlRegisterClassCategoriesHelper@ATL@@YAJAEBU_GUID@@PEBU_ATL_CATMAP_ENTRY@1@H@Z 000000018000ec70 f i IndividualRecognition.obj
 0001:0000e440       ?AtlRegisterTypeLib@ATL@@YAJPEAUHINSTANCE__@@PEB_W@Z 000000018000f440 f i IndividualRecognition.obj
 0001:0000e7a0       ?AtlThrowImpl@ATL@@YAXJ@Z  000000018000f7a0 f i IndividualRecognition.obj
 0001:0000e870       ?AtlUnRegisterTypeLib@ATL@@YAJPEAUHINSTANCE__@@PEB_W@Z 000000018000f870 f i IndividualRecognition.obj
 0001:0000eaa0       ?AtlWinModuleAddCreateWndData@ATL@@YAXPEAU_ATL_WIN_MODULE70@1@PEAU_AtlCreateWndData@1@PEAX@Z 000000018000faa0 f i IndividualRecognition.obj
 0001:0000ec90       ?AtlWinModuleExtractCreateWndData@ATL@@YAPEAXPEAU_ATL_WIN_MODULE70@1@@Z 000000018000fc90 f i IndividualRecognition.obj
 0001:0000ee90       ?AtlWinModuleRegisterClassExW@ATL@@YAGPEAU_ATL_WIN_MODULE70@1@PEBUtagWNDCLASSEXW@@@Z 000000018000fe90 f i IndividualRecognition.obj
 0001:0000ef60       ?AtlWinModuleRegisterWndClassInfoW@ATL@@YAGPEAU_ATL_WIN_MODULE70@1@PEAU_ATL_BASE_MODULE70@1@PEAU_ATL_WNDCLASSINFOW@1@PEAP6A_JPEAUHWND__@@I_K_J@Z@Z 000000018000ff60 f i IndividualRecognition.obj
 0001:0000efd0       ?Attach@?$CAutoVectorPtr@_W@ATL@@QEAAXPEA_W@Z 000000018000ffd0 f i IndividualRecognition.obj
 0001:0000f040       ?Attach@CComBSTR@ATL@@QEAAXPEA_W@Z 0000000180010040 f i IndividualRecognition.obj
 0001:0000f080       ?Attach@CRegKey@ATL@@QEAAXPEAUHKEY__@@@Z 0000000180010080 f i IndividualRecognition.obj
 0001:0000f110       ?CanForceRemoveKey@CRegParser@ATL@@IEAAHPEB_W@Z 0000000180010110 f i IndividualRecognition.obj
 0001:0000f170       ?ChToByte@CRegParser@ATL@@KAE_W@Z 0000000180010170 f i IndividualRecognition.obj
 0001:0000f310       ?ChangeType@CComVariant@ATL@@QEAAJGPEBUtagVARIANT@@@Z 0000000180010310 f i IndividualRecognition.obj
 0001:0000f360       ?Cleanup@CComTypeInfoHolder@ATL@@SAX_K@Z 0000000180010360 f i IndividualRecognition.obj
 0001:0000f440       ?Clear@CComVariant@ATL@@QEAAJXZ 0000000180010440 f i IndividualRecognition.obj
 0001:0000f460       ?ClearReplacements@CExpansionVector@ATL@@QEAAJXZ 0000000180010460 f i IndividualRecognition.obj
 0001:0000f4f0       ?ClearReplacements@CRegObject@ATL@@UEAAJXZ 00000001800104f0 f i IndividualRecognition.obj
 0001:0000f540       ?Clone@?$CComEnumImpl@UIEnumConnectionPoints@@$1?_GUID_b196b285_bab4_101a_b69c_00aa00341d07@@3U__s_GUID@@BPEAUIConnectionPoint@@V?$_CopyInterface@UIConnectionPoint@@@ATL@@@ATL@@UEAAJPEAPEAUIEnumConnectionPoints@@@Z 0000000180010540 f i IndividualRecognition.obj
 0001:0000f730       ?Clone@?$CComEnumImpl@UIEnumConnections@@$1?_GUID_b196b287_bab4_101a_b69c_00aa00341d07@@3U__s_GUID@@BUtagCONNECTDATA@@V?$_Copy@UtagCONNECTDATA@@@ATL@@@ATL@@UEAAJPEAPEAUIEnumConnections@@@Z 0000000180010730 f i IndividualRecognition.obj
 0001:0000f920       ?Close@?$IOleObjectImpl@VCOPOSIndividualRecognition@@@ATL@@UEAAJK@Z 0000000180010920 f i IndividualRecognition.obj
 0001:0000f9c0       ?Close@CRegKey@ATL@@QEAAJXZ 00000001800109c0 f i IndividualRecognition.obj
 0001:0000fa20       ?ContextSensitiveHelp@?$IOleInPlaceActiveObjectImpl@VCOPOSIndividualRecognition@@@ATL@@UEAAJH@Z 0000000180010a20 f i IndividualRecognition.obj
 0001:0000fa90       ?ContextSensitiveHelp@?$IOleInPlaceObjectWindowlessImpl@VCOPOSIndividualRecognition@@@ATL@@UEAAJH@Z 0000000180010a90 f i IndividualRecognition.obj
 0001:0000fb00       ?ControlQueryInterface@?$CComControl@VCOPOSIndividualRecognition@@V?$CWindowImpl@VCOPOSIndividualRecognition@@VCWindow@ATL@@V?$CWinTraits@$0FGAAAAAA@$0A@@3@@ATL@@@ATL@@UEAAJAEBU_GUID@@PEAPEAX@Z 0000000180010b00 f i IndividualRecognition.obj
 0001:0000fb70       ?CreateControlWindow@?$CComControl@VCOPOSIndividualRecognition@@V?$CWindowImpl@VCOPOSIndividualRecognition@@VCWindow@ATL@@V?$CWinTraits@$0FGAAAAAA@$0A@@3@@ATL@@@ATL@@UEAAPEAUHWND__@@PEAU3@AEAUtagRECT@@@Z 0000000180010b70 f i IndividualRecognition.obj
 0001:0000fc40       ?CreateInstance@?$CComCreator@V?$CComAggObject@VCOPOSIndividualRecognition@@@ATL@@@ATL@@SAJPEAXAEBU_GUID@@PEAPEAX@Z 0000000180010c40 f i IndividualRecognition.obj
 0001:0000fe10       ?CreateInstance@?$CComCreator@V?$CComObject@VCOPOSIndividualRecognition@@@ATL@@@ATL@@SAJPEAXAEBU_GUID@@PEAPEAX@Z 0000000180010e10 f i IndividualRecognition.obj
 0001:0000fff0       ?CreateInstance@?$CComObject@V?$CComEnum@UIEnumConnectionPoints@@$1?_GUID_b196b285_bab4_101a_b69c_00aa00341d07@@3U__s_GUID@@BPEAUIConnectionPoint@@V?$_CopyInterface@UIConnectionPoint@@@ATL@@VCComSingleThreadModel@6@@ATL@@@ATL@@SAJPEAPEAV12@@Z 0000000180010ff0 f i IndividualRecognition.obj
 0001:000101a0       ?CreateInstance@?$CComObject@V?$CComEnum@UIEnumConnections@@$1?_GUID_b196b287_bab4_101a_b69c_00aa00341d07@@3U__s_GUID@@BUtagCONNECTDATA@@V?$_Copy@UtagCONNECTDATA@@@ATL@@VCComSingleThreadModel@6@@ATL@@@ATL@@SAJPEAPEAV12@@Z 00000001800111a0 f i IndividualRecognition.obj
 0001:00010350       ?CreateInstance@CComClassFactory@ATL@@UEAAJPEAUIUnknown@@AEBU_GUID@@PEAPEAX@Z 0000000180011350 f i IndividualRecognition.obj
 0001:00010460       ?DAdvise@?$IDataObjectImpl@VCOPOSIndividualRecognition@@@ATL@@UEAAJPEAUtagFORMATETC@@KPEAUIAdviseSink@@PEAK@Z 0000000180011460 f i IndividualRecognition.obj
 0001:000105a0       ?DEVMODEOLE2T_EX@@YAPEAU_devicemodeW@@PEAU1@@Z 00000001800115a0 f i IndividualRecognition.obj
 0001:000105b0       ?DUnadvise@?$IDataObjectImpl@VCOPOSIndividualRecognition@@@ATL@@UEAAJK@Z 00000001800115b0 f i IndividualRecognition.obj
 0001:000106a0       ?Decrement@CComMultiThreadModel@ATL@@SAKPEAJ@Z 00000001800116a0 f i IndividualRecognition.obj
 0001:000106c0       ?Decrement@CComSingleThreadModel@ATL@@SAKPEAJ@Z 00000001800116c0 f i IndividualRecognition.obj
 0001:000106e0       ?DefWindowProcW@?$CWindowImplBaseT@VCWindow@ATL@@V?$CWinTraits@$0FGAAAAAA@$0A@@2@@ATL@@QEAA_JI_K_J@Z 00000001800116e0 f i IndividualRecognition.obj
 0001:00010730       ?DefaultReflectionHandler@?$CWindowImplRoot@VCWindow@ATL@@@ATL@@SAHPEAUHWND__@@I_K_JAEA_J@Z 0000000180011730 f i IndividualRecognition.obj
 0001:00010a30       ?DeleteSubKey@CRegKey@ATL@@QEAAJPEB_W@Z 0000000180011a30 f i IndividualRecognition.obj
 0001:00010b40       ?DeleteValue@CRegKey@ATL@@QEAAJPEB_W@Z 0000000180011b40 f i IndividualRecognition.obj
 0001:00010bc0       ?Detach@?$CAutoVectorPtr@_W@ATL@@QEAAPEA_WXZ 0000000180011bc0 f i IndividualRecognition.obj
 0001:00010bf0       ?Detach@?$CComPtrBase@UIPersistStream@@@ATL@@QEAAPEAUIPersistStream@@XZ 0000000180011bf0 f i IndividualRecognition.obj
 0001:00010c20       ?Detach@?$CComPtrBase@UITypeInfo@@@ATL@@QEAAPEAUITypeInfo@@XZ 0000000180011c20 f i IndividualRecognition.obj
 0001:00010c50       ?Detach@?$CComPtrBase@UIUnknown@@@ATL@@QEAAPEAUIUnknown@@XZ 0000000180011c50 f i IndividualRecognition.obj
 0001:00010c80       ?Detach@CComBSTR@ATL@@QEAAPEA_WXZ 0000000180011c80 f i IndividualRecognition.obj
 0001:00010cb0       ?Detach@CParseBuffer@CRegParser@ATL@@QEAAPEA_WXZ 0000000180011cb0 f i IndividualRecognition.obj
 0001:00010d00       ?Detach@CRegKey@ATL@@QEAAPEAUHKEY__@@XZ 0000000180011d00 f i IndividualRecognition.obj
 0001:00010d50       ?DoEvent@COPOSIndividualRecognition@@IEAAXI_K_J@Z 0000000180011d50 f i IndividualRecognition.obj
 0001:00010e70       ?DoVerb@?$IOleObjectImpl@VCOPOSIndividualRecognition@@@ATL@@UEAAJJPEAUtagMSG@@PEAUIOleClientSite@@JPEAUHWND__@@PEBUtagRECT@@@Z 0000000180011e70 f i IndividualRecognition.obj
 0001:00011170       ?DoVerbDiscardUndo@?$IOleObjectImpl@VCOPOSIndividualRecognition@@@ATL@@QEAAJPEBUtagRECT@@PEAUHWND__@@@Z 0000000180012170 f i IndividualRecognition.obj
 0001:000111f0       ?DoVerbHide@?$IOleObjectImpl@VCOPOSIndividualRecognition@@@ATL@@QEAAJPEBUtagRECT@@PEAUHWND__@@@Z 00000001800121f0 f i IndividualRecognition.obj
 0001:000112c0       ?DoVerbInPlaceActivate@?$IOleObjectImpl@VCOPOSIndividualRecognition@@@ATL@@QEAAJPEBUtagRECT@@PEAUHWND__@@@Z 00000001800122c0 f i IndividualRecognition.obj
 0001:00011380       ?DoVerbOpen@?$IOleObjectImpl@VCOPOSIndividualRecognition@@@ATL@@QEAAJPEBUtagRECT@@PEAUHWND__@@@Z 0000000180012380 f i IndividualRecognition.obj
 0001:00011400       ?DoVerbPrimary@?$IOleObjectImpl@VCOPOSIndividualRecognition@@@ATL@@QEAAJPEBUtagRECT@@PEAUHWND__@@@Z 0000000180012400 f i IndividualRecognition.obj
 0001:00011540       ?DoVerbProperties@CComControlBase@ATL@@QEAAJPEBUtagRECT@@PEAUHWND__@@@Z 0000000180012540 f i IndividualRecognition.obj
 0001:000118f0       ?DoVerbShow@?$IOleObjectImpl@VCOPOSIndividualRecognition@@@ATL@@QEAAJPEBUtagRECT@@PEAUHWND__@@@Z 00000001800128f0 f i IndividualRecognition.obj
 0001:000119a0       ?DoVerbUIActivate@?$IOleObjectImpl@VCOPOSIndividualRecognition@@@ATL@@QEAAJPEBUtagRECT@@PEAUHWND__@@@Z 00000001800129a0 f i IndividualRecognition.obj
 0001:00011a60       ?DoesVerbActivate@CComControlBase@ATL@@QEAAHJ@Z 0000000180012a60 f i IndividualRecognition.obj
 0001:00011ab0       ?DoesVerbUIActivate@CComControlBase@ATL@@QEAAHJ@Z 0000000180012ab0 f i IndividualRecognition.obj
 0001:00011b20       ?Draw@?$IViewObjectExImpl@VCOPOSIndividualRecognition@@@ATL@@UEAAJKJPEAXPEAUtagDVTARGETDEVICE@@PEAUHDC__@@2PEBU_RECTL@@3P6AH_K@Z4@Z 0000000180012b20 f i IndividualRecognition.obj
 0001:00011c30       ?Empty@CComBSTR@ATL@@QEAAXXZ 0000000180012c30 f i IndividualRecognition.obj
 0001:00011c60       ?EnableModeless@?$IOleInPlaceActiveObjectImpl@VCOPOSIndividualRecognition@@@ATL@@UEAAJH@Z 0000000180012c60 f i IndividualRecognition.obj
 0001:00011cc0       ?EndOfVar@CRegParser@ATL@@IEAAHXZ 0000000180012cc0 f i IndividualRecognition.obj
 0001:00011d10       ?EnsureTI@CComTypeInfoHolder@ATL@@QEAAJK@Z 0000000180012d10 f i IndividualRecognition.obj
 0001:00011d60       ?EnumAdvise@?$IOleObjectImpl@VCOPOSIndividualRecognition@@@ATL@@UEAAJPEAPEAUIEnumSTATDATA@@@Z 0000000180012d60 f i IndividualRecognition.obj
 0001:00011eb0       ?EnumConnectionPoints@?$IConnectionPointContainerImpl@VCOPOSIndividualRecognition@@@ATL@@UEAAJPEAPEAUIEnumConnectionPoints@@@Z 0000000180012eb0 f i IndividualRecognition.obj
 0001:000123a0       ?EnumConnections@?$IConnectionPointImpl@VCOPOSIndividualRecognition@@$1?DIID__IOPOSIndividualRecognitionEvents@@3U_GUID@@BVCComDynamicUnkArray@ATL@@@ATL@@UEAAJPEAPEAUIEnumConnections@@@Z 00000001800133a0 f i IndividualRecognition.obj
 0001:000126d0       ?EnumConnections@?$IConnectionPointImpl@VCOPOSIndividualRecognition@@$1?IID_IPropertyNotifySink@@3U_GUID@@BVCComDynamicUnkArray@ATL@@@ATL@@UEAAJPEAPEAUIEnumConnections@@@Z 00000001800136d0 f i IndividualRecognition.obj
 0001:00012a00       ?EnumDAdvise@?$IDataObjectImpl@VCOPOSIndividualRecognition@@@ATL@@UEAAJPEAPEAUIEnumSTATDATA@@@Z 0000000180013a00 f i IndividualRecognition.obj
 0001:00012b30       ?EnumFormatEtc@?$IDataObjectImpl@VCOPOSIndividualRecognition@@@ATL@@UEAAJKPEAPEAUIEnumFORMATETC@@@Z 0000000180013b30 f i IndividualRecognition.obj
 0001:00012bb0       ?EnumVerbs@?$IOleObjectImpl@VCOPOSIndividualRecognition@@@ATL@@UEAAJPEAPEAUIEnumOLEVERB@@@Z 0000000180013bb0 f i IndividualRecognition.obj
 0001:00012c70       ?EscapeSingleQuote@CAtlModule@ATL@@SAXPEA_W_KPEB_W@Z 0000000180013c70 f i IndividualRecognition.obj
 0001:00012d50       ?ExtractCreateWndData@CAtlWinModule@ATL@@QEAAPEAXXZ 0000000180013d50 f i IndividualRecognition.obj
 0001:00012d70       ?FAccessAllowed@?$IObjectSafetyImpl@VCOPOSIndividualRecognition@@$02@ATL@@MEAAHXZ 0000000180013d70 f i IndividualRecognition.obj
 0001:00012d80       ?FinalConstruct@?$CComAggObject@VCOPOSIndividualRecognition@@@ATL@@QEAAJXZ 0000000180013d80 f i IndividualRecognition.obj
 0001:00012dc0       ?FinalConstruct@CComObjectRootBase@ATL@@QEAAJXZ 0000000180013dc0 f i IndividualRecognition.obj
 0001:00012dd0       ?FinalConstruct@CRegObject@ATL@@QEAAJXZ 0000000180013dd0 f i IndividualRecognition.obj
 0001:00012e00       ?FinalRelease@?$CComAggObject@VCOPOSIndividualRecognition@@@ATL@@QEAAXXZ 0000000180013e00 f i IndividualRecognition.obj
 0001:00012e40       ?FinalRelease@CComObjectRootBase@ATL@@QEAAXXZ 0000000180013e40 f i IndividualRecognition.obj
 0001:00012e50       ?FindConnectionPoint@?$IConnectionPointContainerImpl@VCOPOSIndividualRecognition@@@ATL@@UEAAJAEBU_GUID@@PEAPEAUIConnectionPoint@@@Z 0000000180013e50 f i IndividualRecognition.obj
 0001:00012fc0       ?FindKey@?$CSimpleMap@PEA_WPEA_WVCExpansionVectorEqualHelper@ATL@@@ATL@@QEBAHAEBQEA_W@Z 0000000180013fc0 f i IndividualRecognition.obj
 0001:00013030       ?FireTheEvent@?$CProxy_IOPOSEvents@VCOPOSIndividualRecognition@@@@IEAAXPEAUIUnknown@@PEAVOposVariant@@IAEAJPEB_WJ@Z 0000000180014030 f i IndividualRecognition.obj
 0001:00013210       ?FireViewChange@CComControlBase@ATL@@QEAAJXZ 0000000180014210 f i IndividualRecognition.obj
 0001:000132e0       ?Fire_DataEvent@?$CProxy_IOPOSEvents@VCOPOSIndividualRecognition@@@@QEAAXJ@Z 00000001800142e0 f i IndividualRecognition.obj
 0001:000134d0       ?Fire_DirectIOEvent@?$CProxy_IOPOSEvents@VCOPOSIndividualRecognition@@@@QEAAXJPEAJPEAPEA_W@Z 00000001800144d0 f i IndividualRecognition.obj
 0001:00013770       ?Fire_ErrorEvent@?$CProxy_IOPOSEvents@VCOPOSIndividualRecognition@@@@QEAAXJJJPEAJ@Z 0000000180014770 f i IndividualRecognition.obj
 0001:00013a20       ?Fire_StatusUpdateEvent@?$CProxy_IOPOSEvents@VCOPOSIndividualRecognition@@@@QEAAXJ@Z 0000000180014a20 f i IndividualRecognition.obj
 0001:00013c10       ?FormatWindowClassName@AtlModuleRegisterWndClassInfoParamW@ATL@@SAXPEA_WKPEAX@Z 0000000180014c10 f i IndividualRecognition.obj
 0001:00013c50       ?Free@?$CAutoVectorPtr@_W@ATL@@QEAAXXZ 0000000180014c50 f i IndividualRecognition.obj
 0001:00013c90       ?FreeHeap@?$CTempBuffer@E$0BAA@VCCRTAllocator@ATL@@@ATL@@AEAAXXZ 0000000180014c90 f i IndividualRecognition.obj
 0001:00013cb0       ?FreeHeap@?$CTempBuffer@_W$0BAA@VCCRTAllocator@ATL@@@ATL@@AEAAXXZ 0000000180014cb0 f i IndividualRecognition.obj
 0001:00013cd0       ?FreeHeap@?$CTempBuffer@_W$0EAA@VCCRTAllocator@ATL@@@ATL@@AEAAXXZ 0000000180014cd0 f i IndividualRecognition.obj
 0001:00013cf0       ?Freeze@?$IViewObjectExImpl@VCOPOSIndividualRecognition@@@ATL@@UEAAJKJPEAXPEAK@Z 0000000180014cf0 f i IndividualRecognition.obj
 0001:00013d70       ?GenerateError@CRegParser@ATL@@IEAAJI@Z 0000000180014d70 f i IndividualRecognition.obj
 0001:00013d90       ?GetAdvise@?$IViewObjectExImpl@VCOPOSIndividualRecognition@@@ATL@@UEAAJPEAK0PEAPEAUIAdviseSink@@@Z 0000000180014d90 f i IndividualRecognition.obj
 0001:00013ed0       ?GetAmbientLocaleID@CComControlBase@ATL@@QEAAJAEAK@Z 0000000180014ed0 f i IndividualRecognition.obj
 0001:00013fb0       ?GetAmbientProperty@CComControlBase@ATL@@QEAAJJAEAUtagVARIANT@@@Z 0000000180014fb0 f i IndividualRecognition.obj
 0001:00014000       ?GetAmbientUserMode@CComControlBase@ATL@@QEAAJAEAH@Z 0000000180015000 f i IndividualRecognition.obj
 0001:00014120       ?GetAppId@?$CAtlModuleT@VCComModule@ATL@@@ATL@@SAPEB_WXZ 0000000180015120 f i IndividualRecognition.obj
 0001:00014130       ?GetAt@CComDynamicUnkArray@ATL@@QEAAPEAUIUnknown@@H@Z 0000000180015130 f i IndividualRecognition.obj
 0001:000141c0       ?GetCanonicalFormatEtc@?$IDataObjectImpl@VCOPOSIndividualRecognition@@@ATL@@UEAAJPEAUtagFORMATETC@@0@Z 00000001800151c0 f i IndividualRecognition.obj
 0001:00014240       ?GetClassID@?$IPersistStorageImpl@VCOPOSIndividualRecognition@@@ATL@@UEAAJPEAU_GUID@@@Z 0000000180015240 f i IndividualRecognition.obj
 0001:000142c0       ?GetClassID@?$IPersistStreamInitImpl@VCOPOSIndividualRecognition@@@ATL@@UEAAJPEAU_GUID@@@Z 00000001800152c0 f i IndividualRecognition.obj
 0001:00014340       ?GetClassInfoExW@AtlModuleRegisterWndClassInfoParamW@ATL@@SAHPEAUHINSTANCE__@@PEB_WPEAUtagWNDCLASSEXW@@@Z 0000000180015340 f i IndividualRecognition.obj
 0001:00014370       ?GetClassInfoW@?$IProvideClassInfo2Impl@$1?CLSID_OPOSIndividualRecognition@@3U_GUID@@B$1?DIID__IOPOSIndividualRecognitionEvents@@3U2@B$1?LIBID_OposIndividualRecognition_CCO@@3U2@B$00$0A@VCComTypeInfoHolder@ATL@@@ATL@@UEAAJPEAPEAUITypeInfo@@@Z 0000000180015370 f i IndividualRecognition.obj
 0001:000143a0       ?GetClassObject@CComModule@ATL@@QEAAJAEBU_GUID@@0PEAPEAX@Z 00000001800153a0 f i IndividualRecognition.obj
 0001:00014610       ?GetClientSite@?$IOleObjectImpl@VCOPOSIndividualRecognition@@@ATL@@UEAAJPEAPEAUIOleClientSite@@@Z 0000000180015610 f i IndividualRecognition.obj
 0001:000146b0       ?GetClipboardData@?$IOleObjectImpl@VCOPOSIndividualRecognition@@@ATL@@UEAAJKPEAPEAUIDataObject@@@Z 00000001800156b0 f i IndividualRecognition.obj
 0001:00014730       ?GetCodeAddress@CDynamicStdCallThunk2@ATL@@QEAAPEAXXZ 0000000180015730 f i IndividualRecognition.obj
 0001:00014750       ?GetColorSet@?$IViewObjectExImpl@VCOPOSIndividualRecognition@@@ATL@@UEAAJKJPEAXPEAUtagDVTARGETDEVICE@@PEAUHDC__@@PEAPEAUtagLOGPALETTE@@@Z 0000000180015750 f i IndividualRecognition.obj
 0001:000147d0       ?GetConnMap@COPOSIndividualRecognition@@SAPEBU_ATL_CONNMAP_ENTRY@ATL@@PEAH@Z 00000001800157d0 f i IndividualRecognition.obj
 0001:00014920       ?GetConnectionInterface@?$IConnectionPointImpl@VCOPOSIndividualRecognition@@$1?DIID__IOPOSIndividualRecognitionEvents@@3U_GUID@@BVCComDynamicUnkArray@ATL@@@ATL@@UEAAJPEAU_GUID@@@Z 0000000180015920 f i IndividualRecognition.obj
 0001:00014960       ?GetConnectionInterface@?$IConnectionPointImpl@VCOPOSIndividualRecognition@@$1?IID_IPropertyNotifySink@@3U_GUID@@BVCComDynamicUnkArray@ATL@@@ATL@@UEAAJPEAU_GUID@@@Z 0000000180015960 f i IndividualRecognition.obj
 0001:000149a0       ?GetConnectionPointContainer@?$IConnectionPointImpl@VCOPOSIndividualRecognition@@$1?DIID__IOPOSIndividualRecognitionEvents@@3U_GUID@@BVCComDynamicUnkArray@ATL@@@ATL@@UEAAJPEAPEAUIConnectionPointContainer@@@Z 00000001800159a0 f i IndividualRecognition.obj
 0001:00014a00       ?GetConnectionPointContainer@?$IConnectionPointImpl@VCOPOSIndividualRecognition@@$1?IID_IPropertyNotifySink@@3U_GUID@@BVCComDynamicUnkArray@ATL@@@ATL@@UEAAJPEAPEAUIConnectionPointContainer@@@Z 0000000180015a00 f i IndividualRecognition.obj
 0001:00014a60       ?GetContentExtent@?$IQuickActivateImpl@VCOPOSIndividualRecognition@@@ATL@@UEAAJPEAUtagSIZE@@@Z 0000000180015a60 f i IndividualRecognition.obj
 0001:00014b10       ?GetControlInfo@?$IOleControlImpl@VCOPOSIndividualRecognition@@@ATL@@UEAAJPEAUtagCONTROLINFO@@@Z 0000000180015b10 f i IndividualRecognition.obj
 0001:00014b80       ?GetCookie@CComDynamicUnkArray@ATL@@QEAAKPEAPEAUIUnknown@@@Z 0000000180015b80 f i IndividualRecognition.obj
 0001:00014c60       ?GetData@?$IDataObjectImpl@VCOPOSIndividualRecognition@@@ATL@@UEAAJPEAUtagFORMATETC@@PEAUtagSTGMEDIUM@@@Z 0000000180015c60 f i IndividualRecognition.obj
 0001:00014d10       ?GetData@CAtlSafeAllocBufferNode@?$CAtlSafeAllocBufferManager@VCCRTAllocator@ATL@@@_ATL_SAFE_ALLOCA_IMPL@ATL@@QEAAPEAXXZ 0000000180015d10 f i IndividualRecognition.obj
 0001:00014d30       ?GetDataHere@?$IDataObjectImpl@VCOPOSIndividualRecognition@@@ATL@@UEAAJPEAUtagFORMATETC@@PEAUtagSTGMEDIUM@@@Z 0000000180015d30 f i IndividualRecognition.obj
 0001:00014db0       ?GetDropTarget@?$IOleInPlaceObjectWindowlessImpl@VCOPOSIndividualRecognition@@@ATL@@UEAAJPEAPEAUIDropTarget@@@Z 0000000180015db0 f i IndividualRecognition.obj
 0001:00014e20       ?GetExtent@?$IOleObjectImpl@VCOPOSIndividualRecognition@@@ATL@@UEAAJKPEAUtagSIZE@@@Z 0000000180015e20 f i IndividualRecognition.obj
 0001:00014ee0       ?GetExtent@?$IViewObjectExImpl@VCOPOSIndividualRecognition@@@ATL@@UEAAJKJPEAUtagDVTARGETDEVICE@@PEAUtagSIZE@@@Z 0000000180015ee0 f i IndividualRecognition.obj
 0001:00014fe0       ?GetGITPtr@CAtlModule@ATL@@UEAAJPEAPEAUIGlobalInterfaceTable@@@Z 0000000180015fe0 f i IndividualRecognition.obj
 0001:00015110       ?GetGUID@?$IProvideClassInfo2Impl@$1?CLSID_OPOSIndividualRecognition@@3U_GUID@@B$1?DIID__IOPOSIndividualRecognitionEvents@@3U2@B$1?LIBID_OposIndividualRecognition_CCO@@3U2@B$00$0A@VCComTypeInfoHolder@ATL@@@ATL@@UEAAJKPEAU_GUID@@@Z 0000000180016110 f i IndividualRecognition.obj
 0001:00015190       ?GetIDsOfNames@?$IDispatchImpl@UIOPOSIndividualRecognition@@$1?IID_IOPOSIndividualRecognition@@3U_GUID@@B$1?LIBID_OposIndividualRecognition_CCO@@3U3@B$00$0A@VCComTypeInfoHolder@ATL@@@ATL@@UEAAJAEBU_GUID@@PEAPEA_WIKPEAJ@Z 0000000180016190 f i IndividualRecognition.obj
 0001:000151e0       ?GetIDsOfNames@CComTypeInfoHolder@ATL@@QEAAJAEBU_GUID@@PEAPEA_WIKPEAJ@Z 00000001800161e0 f i IndividualRecognition.obj
 0001:000153f0       ?GetInterfaceSafetyOptions@?$IObjectSafetyImpl@VCOPOSIndividualRecognition@@$02@ATL@@UEAAJAEBU_GUID@@PEAK1@Z 00000001800163f0 f i IndividualRecognition.obj
 0001:00015590       ?GetKeyAt@?$CSimpleMap@PEA_WPEA_WVCExpansionVectorEqualHelper@ATL@@@ATL@@QEBAAEAPEA_WH@Z 0000000180016590 f i IndividualRecognition.obj
 0001:00015630       ?GetLockCount@CAtlModule@ATL@@UEAAJXZ 0000000180016630 f i IndividualRecognition.obj
 0001:00015640       ?GetMiscStatus@?$IOleObjectImpl@VCOPOSIndividualRecognition@@@ATL@@UEAAJKPEAK@Z 0000000180016640 f i IndividualRecognition.obj
 0001:000156c0       ?GetMoniker@?$IOleObjectImpl@VCOPOSIndividualRecognition@@@ATL@@UEAAJKKPEAPEAUIMoniker@@@Z 00000001800166c0 f i IndividualRecognition.obj
 0001:00015740       ?GetNaturalExtent@?$IViewObjectExImpl@VCOPOSIndividualRecognition@@@ATL@@UEAAJKJPEAUtagDVTARGETDEVICE@@PEAUHDC__@@PEAUtagExtentInfo@@PEAUtagSIZE@@@Z 0000000180016740 f i IndividualRecognition.obj
 0001:000158c0       ?GetObjectCLSID@?$CComCoClass@VCOPOSIndividualRecognition@@$1?CLSID_OPOSIndividualRecognition@@3U_GUID@@B@ATL@@SAAEBU_GUID@@XZ 00000001800168c0 f i IndividualRecognition.obj
 0001:000158d0       ?GetPages@?$ISpecifyPropertyPagesImpl@VCOPOSIndividualRecognition@@@ATL@@UEAAJPEAUtagCAUUID@@@Z 00000001800168d0 f i IndividualRecognition.obj
 0001:00015950       ?GetPagesHelper@?$ISpecifyPropertyPagesImpl@VCOPOSIndividualRecognition@@@ATL@@IEAAJPEAUtagCAUUID@@PEBUATL_PROPMAP_ENTRY@2@@Z 0000000180016950 f i IndividualRecognition.obj
 0001:00015bb0       ?GetProperty@?$CComPtr@UIDispatch@@@ATL@@QEAAJJPEAUtagVARIANT@@@Z 0000000180016bb0 f i IndividualRecognition.obj
 0001:00015be0       ?GetProperty@?$CComPtr@UIDispatch@@@ATL@@SAJPEAUIDispatch@@JPEAUtagVARIANT@@@Z 0000000180016be0 f i IndividualRecognition.obj
 0001:00015db0       ?GetPropertyMap@COPOSIndividualRecognition@@SAPEBUATL_PROPMAP_ENTRY@ATL@@XZ 0000000180016db0 f i IndividualRecognition.obj
 0001:00015dc0       ?GetRect@?$IViewObjectExImpl@VCOPOSIndividualRecognition@@@ATL@@UEAAJKPEAU_RECTL@@@Z 0000000180016dc0 f i IndividualRecognition.obj
 0001:00015e40       ?GetSize@?$CSimpleMap@PEA_WPEA_WVCExpansionVectorEqualHelper@ATL@@@ATL@@QEBAHXZ 0000000180016e40 f i IndividualRecognition.obj
 0001:00015e50       ?GetSize@CComDynamicUnkArray@ATL@@QEBAHXZ 0000000180016e50 f i IndividualRecognition.obj
 0001:00015e60       ?GetSizeMax@?$IPersistStreamInitImpl@VCOPOSIndividualRecognition@@@ATL@@UEAAJPEAT_ULARGE_INTEGER@@@Z 0000000180016e60 f i IndividualRecognition.obj
 0001:00016600       ?GetSizeMax@CComVariant@ATL@@QEBAJPEAT_ULARGE_INTEGER@@@Z 0000000180017600 f i IndividualRecognition.obj
 0001:00016a50       ?GetStreamSize@CComBSTR@ATL@@SAKPEA_W@Z 0000000180017a50 f i IndividualRecognition.obj
 0001:00016a90       ?GetTI@CComTypeInfoHolder@ATL@@QEAAJK@Z 0000000180017a90 f i IndividualRecognition.obj
 0001:00017360       ?GetTI@CComTypeInfoHolder@ATL@@QEAAJKPEAPEAUITypeInfo@@@Z 0000000180018360 f i IndividualRecognition.obj
 0001:00017440       ?GetTypeInfo@?$IDispatchImpl@UIOPOSIndividualRecognition@@$1?IID_IOPOSIndividualRecognition@@3U_GUID@@B$1?LIBID_OposIndividualRecognition_CCO@@3U3@B$00$0A@VCComTypeInfoHolder@ATL@@@ATL@@UEAAJIKPEAPEAUITypeInfo@@@Z 0000000180018440 f i IndividualRecognition.obj
 0001:00017480       ?GetTypeInfo@CComTypeInfoHolder@ATL@@QEAAJIKPEAPEAUITypeInfo@@@Z 0000000180018480 f i IndividualRecognition.obj
 0001:000174c0       ?GetTypeInfoCount@?$IDispatchImpl@UIOPOSIndividualRecognition@@$1?IID_IOPOSIndividualRecognition@@3U_GUID@@B$1?LIBID_OposIndividualRecognition_CCO@@3U3@B$00$0A@VCComTypeInfoHolder@ATL@@@ATL@@UEAAJPEAI@Z 00000001800184c0 f i IndividualRecognition.obj
 0001:000174f0       ?GetUnknown@CComDynamicUnkArray@ATL@@QEAAPEAUIUnknown@@K@Z 00000001800184f0 f i IndividualRecognition.obj
 0001:00017580       ?GetUnknown@COPOSIndividualRecognition@@QEAAPEAUIUnknown@@XZ 0000000180018580 f i IndividualRecognition.obj
 0001:000175a0       ?GetUserClassID@?$IOleObjectImpl@VCOPOSIndividualRecognition@@@ATL@@UEAAJPEAU_GUID@@@Z 00000001800185a0 f i IndividualRecognition.obj
 0001:00017660       ?GetUserType@?$IOleObjectImpl@VCOPOSIndividualRecognition@@@ATL@@UEAAJKPEAPEA_W@Z 0000000180018660 f i IndividualRecognition.obj
 0001:000176e0       ?GetValueAt@?$CSimpleMap@PEA_WPEA_WVCExpansionVectorEqualHelper@ATL@@@ATL@@QEBAAEAPEA_WH@Z 00000001800186e0 f i IndividualRecognition.obj
 0001:00017780       ?GetViewStatus@?$IViewObjectExImpl@VCOPOSIndividualRecognition@@@ATL@@UEAAJPEAK@Z 0000000180018780 f i IndividualRecognition.obj
 0001:00017870       ?GetWNDPROC@CWndProcThunk@ATL@@QEAAP6A_JPEAUHWND__@@I_K_J@ZXZ 0000000180018870 f i IndividualRecognition.obj
 0001:000178a0       ?GetWindow@?$IOleInPlaceActiveObjectImpl@VCOPOSIndividualRecognition@@@ATL@@UEAAJPEAPEAUHWND__@@@Z 00000001800188a0 f i IndividualRecognition.obj
 0001:00017990       ?GetWindow@?$IOleInPlaceObjectWindowlessImpl@VCOPOSIndividualRecognition@@@ATL@@UEAAJPEAPEAUHWND__@@@Z 0000000180018990 f i IndividualRecognition.obj
 0001:00017a80       ?GetWindowProc@?$CWindowImplBaseT@VCWindow@ATL@@V?$CWinTraits@$0FGAAAAAA@$0A@@2@@ATL@@UEAAP6A_JPEAUHWND__@@I_K_J@ZXZ 0000000180018a80 f i IndividualRecognition.obj
 0001:00017a90       ?GetWndCaption@?$CWindowImpl@VCOPOSIndividualRecognition@@VCWindow@ATL@@V?$CWinTraits@$0FGAAAAAA@$0A@@3@@ATL@@SAPEB_WXZ 0000000180018a90 f i IndividualRecognition.obj
 0001:00017aa0       ?GetWndClassInfo@?$CWindowImpl@VCOPOSIndividualRecognition@@VCWindow@ATL@@V?$CWinTraits@$0FGAAAAAA@$0A@@3@@ATL@@SAAEAU_ATL_WNDCLASSINFOW@2@XZ 0000000180018aa0 f i IndividualRecognition.obj
 0001:00017ab0       ?GetWndClassName@CWindow@ATL@@SAPEB_WXZ 0000000180018ab0 f i IndividualRecognition.obj
 0001:00017ac0       ?GetWndExStyle@?$CWinTraits@$0FGAAAAAA@$0A@@ATL@@SAKK@Z 0000000180018ac0 f i IndividualRecognition.obj
 0001:00017af0       ?GetWndExStyle@?$CWindowImplBaseT@VCWindow@ATL@@V?$CWinTraits@$0FGAAAAAA@$0A@@2@@ATL@@SAKK@Z 0000000180018af0 f i IndividualRecognition.obj
 0001:00017b10       ?GetWndStyle@?$CWinTraits@$0FGAAAAAA@$0A@@ATL@@SAKK@Z 0000000180018b10 f i IndividualRecognition.obj
 0001:00017b40       ?GetWndStyle@?$CWindowImplBaseT@VCWindow@ATL@@V?$CWinTraits@$0FGAAAAAA@$0A@@2@@ATL@@SAKK@Z 0000000180018b40 f i IndividualRecognition.obj
 0001:00017b60       ?GetZoomInfo@CComControlBase@ATL@@QEAAXAEAUATL_DRAWINFO@@@Z 0000000180018b60 f i IndividualRecognition.obj
 0001:00017d10       ?HKeyFromString@CRegParser@ATL@@KAPEAUHKEY__@@PEA_W@Z 0000000180018d10 f i IndividualRecognition.obj
 0001:00017d80       ?HandsOffStorage@?$IPersistStorageImpl@VCOPOSIndividualRecognition@@@ATL@@UEAAJXZ 0000000180018d80 f i IndividualRecognition.obj
 0001:00017de0       ?HasSubKeys@CRegParser@ATL@@IEAAHPEAUHKEY__@@@Z 0000000180018de0 f i IndividualRecognition.obj
 0001:00017f50       ?IDataObject_GetData@CComControlBase@ATL@@QEAAJPEAUtagFORMATETC@@PEAUtagSTGMEDIUM@@@Z 0000000180018f50 f i IndividualRecognition.obj
 0001:00018400       ?IOleInPlaceObject_InPlaceDeactivate@CComControlBase@ATL@@QEAAJXZ 0000000180019400 f i IndividualRecognition.obj
 0001:00018670       ?IOleInPlaceObject_SetObjectRects@CComControlBase@ATL@@QEAAJPEBUtagRECT@@0@Z 0000000180019670 f i IndividualRecognition.obj
 0001:00018860       ?IOleInPlaceObject_UIDeactivate@CComControlBase@ATL@@QEAAJXZ 0000000180019860 f i IndividualRecognition.obj
 0001:00018ad0       ?IOleObject_Advise@CComControlBase@ATL@@QEAAJPEAUIAdviseSink@@PEAK@Z 0000000180019ad0 f i IndividualRecognition.obj
 0001:00018b70       ?IOleObject_Close@CComControlBase@ATL@@QEAAJK@Z 0000000180019b70 f i IndividualRecognition.obj
 0001:00018ee0       ?IOleObject_GetClientSite@CComControlBase@ATL@@QEAAJPEAPEAUIOleClientSite@@@Z 0000000180019ee0 f i IndividualRecognition.obj
 0001:00018fa0       ?IOleObject_SetClientSite@CComControlBase@ATL@@QEAAJPEAUIOleClientSite@@@Z 0000000180019fa0 f i IndividualRecognition.obj
 0001:000190a0       ?IOleObject_SetExtent@CComControlBase@ATL@@QEAAJKPEAUtagSIZE@@@Z 000000018001a0a0 f i IndividualRecognition.obj
 0001:000191f0       ?IPSI_GetIPersistStreamInit@?$IPersistStorageImpl@VCOPOSIndividualRecognition@@@ATL@@AEAAPEAUIPersistStreamInit@@XZ 000000018001a1f0 f i IndividualRecognition.obj
 0001:000192b0       ?IPersistStreamInit_Load@?$IPersistStreamInitImpl@VCOPOSIndividualRecognition@@@ATL@@QEAAJPEAUIStream@@PEBUATL_PROPMAP_ENTRY@2@@Z 000000018001a2b0 f i IndividualRecognition.obj
 0001:00019340       ?IPersistStreamInit_Save@?$IPersistStreamInitImpl@VCOPOSIndividualRecognition@@@ATL@@QEAAJPEAUIStream@@HPEBUATL_PROPMAP_ENTRY@2@@Z 000000018001a340 f i IndividualRecognition.obj
 0001:000193e0       ?IQuickActivate_QuickActivate@CComControlBase@ATL@@QEAAJPEAUtagQACONTAINER@@PEAUtagQACONTROL@@@Z 000000018001a3e0 f i IndividualRecognition.obj
 0001:00019c20       ?IViewObject_Draw@CComControlBase@ATL@@QEAAJKJPEAXPEAUtagDVTARGETDEVICE@@PEAUHDC__@@2PEBU_RECTL@@3@Z 000000018001ac20 f i IndividualRecognition.obj
 0001:0001a070       ?InPlaceActivate@CComControlBase@ATL@@QEAAJJPEBUtagRECT@@@Z 000000018001b070 f i IndividualRecognition.obj
 0001:0001ac10       ?InPlaceDeactivate@?$IOleInPlaceObjectWindowlessImpl@VCOPOSIndividualRecognition@@@ATL@@UEAAJXZ 000000018001bc10 f i IndividualRecognition.obj
 0001:0001aca0       ?Increment@CComMultiThreadModel@ATL@@SAKPEAJ@Z 000000018001bca0 f i IndividualRecognition.obj
 0001:0001acc0       ?Increment@CComSingleThreadModel@ATL@@SAKPEAJ@Z 000000018001bcc0 f i IndividualRecognition.obj
 0001:0001ace0       ?Init@?$CComEnumImpl@UIEnumConnectionPoints@@$1?_GUID_b196b285_bab4_101a_b69c_00aa00341d07@@3U__s_GUID@@BPEAUIConnectionPoint@@V?$_CopyInterface@UIConnectionPoint@@@ATL@@@ATL@@QEAAJPEAPEAUIConnectionPoint@@0PEAUIUnknown@@W4CComEnumFlags@2@@Z 000000018001bce0 f i IndividualRecognition.obj
 0001:0001afc0       ?Init@?$CComEnumImpl@UIEnumConnections@@$1?_GUID_b196b287_bab4_101a_b69c_00aa00341d07@@3U__s_GUID@@BUtagCONNECTDATA@@V?$_Copy@UtagCONNECTDATA@@@ATL@@@ATL@@QEAAJPEAUtagCONNECTDATA@@0PEAUIUnknown@@W4CComEnumFlags@2@@Z 000000018001bfc0 f i IndividualRecognition.obj
 0001:0001b2a0       ?Init@CComFakeCriticalSection@ATL@@QEAAJXZ 000000018001c2a0 f i IndividualRecognition.obj
 0001:0001b2b0       ?Init@CComModule@ATL@@QEAAJPEAU_ATL_OBJMAP_ENTRY30@2@PEAUHINSTANCE__@@PEBU_GUID@@@Z 000000018001c2b0 f i IndividualRecognition.obj
 0001:0001b390       ?Init@CComSafeDeleteCriticalSection@ATL@@QEAAJXZ 000000018001c390 f i IndividualRecognition.obj
 0001:0001b410       ?Init@CDynamicStdCallThunk2@ATL@@QEAAH_KPEAX@Z 000000018001c410 f i IndividualRecognition.obj
 0001:0001b470       ?Init@CWndProcThunk@ATL@@QEAAHP6A_JPEAUHWND__@@I_K_J@ZPEAX@Z 000000018001c470 f i IndividualRecognition.obj
 0001:0001b4b0       ?InitFromData@?$IOleObjectImpl@VCOPOSIndividualRecognition@@@ATL@@UEAAJPEAUIDataObject@@HK@Z 000000018001c4b0 f i IndividualRecognition.obj
 0001:0001b530       ?InitLibId@?$CAtlModuleT@VCComModule@ATL@@@ATL@@SAXXZ 000000018001c530 f i IndividualRecognition.obj
 0001:0001b540       ?InitNew@?$IPersistStorageImpl@VCOPOSIndividualRecognition@@@ATL@@UEAAJPEAUIStorage@@@Z 000000018001c540 f i IndividualRecognition.obj
 0001:0001b630       ?InitNew@?$IPersistStreamInitImpl@VCOPOSIndividualRecognition@@@ATL@@UEAAJXZ 000000018001c630 f i IndividualRecognition.obj
 0001:0001b6d0       ?InlineIsEqualUnknown@ATL@@YAHAEBU_GUID@@@Z 000000018001c6d0 f i IndividualRecognition.obj
 0001:0001b750       ?InternalAddRef@?$CComObjectRootEx@VCComMultiThreadModel@ATL@@@ATL@@QEAAKXZ 000000018001c750 f i IndividualRecognition.obj
 0001:0001b7c0       ?InternalAddRef@?$CComObjectRootEx@VCComSingleThreadModel@ATL@@@ATL@@QEAAKXZ 000000018001c7c0 f i IndividualRecognition.obj
 0001:0001b830       ?InternalFinalConstructAddRef@CComObjectRootBase@ATL@@QEAAXXZ 000000018001c830 f i IndividualRecognition.obj
 0001:0001b840       ?InternalFinalConstructAddRef@COPOSIndividualRecognition@@QEAAXXZ 000000018001c840 f i IndividualRecognition.obj
 0001:0001b870       ?InternalFinalConstructRelease@CComObjectRootBase@ATL@@QEAAXXZ 000000018001c870 f i IndividualRecognition.obj
 0001:0001b8d0       ?InternalFinalConstructRelease@COPOSIndividualRecognition@@QEAAXXZ 000000018001c8d0 f i IndividualRecognition.obj
 0001:0001b900       ?InternalGetSite@CComControlBase@ATL@@QEAAJAEBU_GUID@@PEAPEAX@Z 000000018001c900 f i IndividualRecognition.obj
 0001:0001b9d0       ?InternalQueryInterface@CComObjectRootBase@ATL@@SAJPEAXPEBU_ATL_INTMAP_ENTRY@2@AEBU_GUID@@PEAPEAX@Z 000000018001c9d0 f i IndividualRecognition.obj
 0001:0001bae0       ?InternalRelease@?$CComObjectRootEx@VCComMultiThreadModel@ATL@@@ATL@@QEAAKXZ 000000018001cae0 f i IndividualRecognition.obj
 0001:0001bb50       ?InternalRelease@?$CComObjectRootEx@VCComSingleThreadModel@ATL@@@ATL@@QEAAKXZ 000000018001cb50 f i IndividualRecognition.obj
 0001:0001bbc0       ?InternalSetAtIndex@?$CSimpleArray@GV?$CSimpleArrayEqualHelper@G@ATL@@@ATL@@QEAAXHAEBG@Z 000000018001cbc0 f i IndividualRecognition.obj
 0001:0001bc30       ?InternalSetAtIndex@?$CSimpleMap@PEA_WPEA_WVCExpansionVectorEqualHelper@ATL@@@ATL@@QEAAXHAEBQEA_W0@Z 000000018001cc30 f i IndividualRecognition.obj
 0001:0001bcf0       ?Invoke@?$IDispatchImpl@UIOPOSIndividualRecognition@@$1?IID_IOPOSIndividualRecognition@@3U_GUID@@B$1?LIBID_OposIndividualRecognition_CCO@@3U3@B$00$0A@VCComTypeInfoHolder@ATL@@@ATL@@UEAAJJAEBU_GUID@@KGPEAUtagDISPPARAMS@@PEAUtagVARIANT@@PEAUtagEXCEPINFO@@PEAI@Z 000000018001ccf0 f i IndividualRecognition.obj
 0001:0001bd80       ?Invoke@CComTypeInfoHolder@ATL@@QEAAJPEAUIDispatch@@JAEBU_GUID@@KGPEAUtagDISPPARAMS@@PEAUtagVARIANT@@PEAUtagEXCEPINFO@@PEAI@Z 000000018001cd80 f i IndividualRecognition.obj
 0001:0001be30       ?IsDirty@?$IPersistStorageImpl@VCOPOSIndividualRecognition@@@ATL@@UEAAJXZ 000000018001ce30 f i IndividualRecognition.obj
 0001:0001bf20       ?IsDirty@?$IPersistStreamInitImpl@VCOPOSIndividualRecognition@@@ATL@@UEAAJXZ 000000018001cf20 f i IndividualRecognition.obj
 0001:0001bfd0       ?IsEqualKey@CExpansionVectorEqualHelper@ATL@@SA_NQEA_W0@Z 000000018001cfd0 f i IndividualRecognition.obj
 0001:0001c000       ?IsEqualObject@?$CComPtrBase@UIOleClientSite@@@ATL@@QEAA_NPEAUIUnknown@@@Z 000000018001d000 f i IndividualRecognition.obj
 0001:0001c150       ?IsEqualObject@?$CComPtrBase@UITypeInfo@@@ATL@@QEAA_NPEAUIUnknown@@@Z 000000018001d150 f i IndividualRecognition.obj
 0001:0001c2a0       ?IsSpace@CRegParser@ATL@@IEAAH_W@Z 000000018001d2a0 f i IndividualRecognition.obj
 0001:0001c2e0       ?IsUpToDate@?$IOleObjectImpl@VCOPOSIndividualRecognition@@@ATL@@UEAAJXZ 000000018001d2e0 f i IndividualRecognition.obj
 0001:0001c340       ?Length@CComBSTR@ATL@@QEBAIXZ 000000018001d340 f i IndividualRecognition.obj
 0001:0001c360       ?Load@?$IPersistStorageImpl@VCOPOSIndividualRecognition@@@ATL@@UEAAJPEAUIStorage@@@Z 000000018001d360 f i IndividualRecognition.obj
 0001:0001c510       ?Load@?$IPersistStreamInitImpl@VCOPOSIndividualRecognition@@@ATL@@UEAAJPEAUIStream@@@Z 000000018001d510 f i IndividualRecognition.obj
 0001:0001c5c0       ?LoadCursorW@AtlModuleRegisterWndClassInfoParamW@ATL@@SAPEAUHICON__@@PEAUHINSTANCE__@@PEB_W@Z 000000018001d5c0 f i IndividualRecognition.obj
 0001:0001c5f0       ?LoadNameCache@CComTypeInfoHolder@ATL@@QEAAJPEAUITypeInfo@@@Z 000000018001d5f0 f i IndividualRecognition.obj
 0001:0001c930       ?Lock@?$CComCritSecLock@VCComCriticalSection@ATL@@@ATL@@QEAAJXZ 000000018001d930 f i IndividualRecognition.obj
 0001:0001ca00       ?Lock@?$CComObjectRootEx@VCComSingleThreadModel@ATL@@@ATL@@QEAAXXZ 000000018001da00 f i IndividualRecognition.obj
 0001:0001ca10       ?Lock@CAtlModule@ATL@@UEAAJXZ 000000018001da10 f i IndividualRecognition.obj
 0001:0001ca40       ?Lock@CComCriticalSection@ATL@@QEAAJXZ 000000018001da40 f i IndividualRecognition.obj
 0001:0001ca60       ?Lock@CComFakeCriticalSection@ATL@@QEAAJXZ 000000018001da60 f i IndividualRecognition.obj
 0001:0001ca70       ?LockServer@CComClassFactory@ATL@@UEAAJH@Z 000000018001da70 f i IndividualRecognition.obj
 0001:0001cac0       ?Lookup@?$CSimpleMap@PEA_WPEA_WVCExpansionVectorEqualHelper@ATL@@@ATL@@QEBAPEA_WAEBQEA_W@Z 000000018001dac0 f i IndividualRecognition.obj
 0001:0001cb10       ?Next@?$CComEnumImpl@UIEnumConnectionPoints@@$1?_GUID_b196b285_bab4_101a_b69c_00aa00341d07@@3U__s_GUID@@BPEAUIConnectionPoint@@V?$_CopyInterface@UIConnectionPoint@@@ATL@@@ATL@@UEAAJKPEAPEAUIConnectionPoint@@PEAK@Z 000000018001db10 f i IndividualRecognition.obj
 0001:0001ccc0       ?Next@?$CComEnumImpl@UIEnumConnections@@$1?_GUID_b196b287_bab4_101a_b69c_00aa00341d07@@3U__s_GUID@@BUtagCONNECTDATA@@V?$_Copy@UtagCONNECTDATA@@@ATL@@@ATL@@UEAAJKPEAUtagCONNECTDATA@@PEAK@Z 000000018001dcc0 f i IndividualRecognition.obj
 0001:0001ce70       ?NextToken@CRegParser@ATL@@IEAAJPEA_W@Z 000000018001de70 f i IndividualRecognition.obj
 0001:0001d1f0       ?OLE2CT_EX@@YAPEB_WPEB_WI@Z 000000018001e1f0 f i IndividualRecognition.obj
 0001:0001d210       ?OLE2CT_EX_DEF@@YAPEB_WPEB_W@Z 000000018001e210 f i IndividualRecognition.obj
 0001:0001d220       ?OLE2T_EX@@YAPEA_WPEA_WI@Z 000000018001e220 f i IndividualRecognition.obj
 0001:0001d240       ?OnAmbientPropertyChange@?$IOleControlImpl@VCOPOSIndividualRecognition@@@ATL@@UEAAJJ@Z 000000018001e240 f i IndividualRecognition.obj
 0001:0001d2f0       ?OnDocWindowActivate@?$IOleInPlaceActiveObjectImpl@VCOPOSIndividualRecognition@@@ATL@@UEAAJH@Z 000000018001e2f0 f i IndividualRecognition.obj
 0001:0001d390       ?OnDrawAdvanced@CComControlBase@ATL@@UEAAJAEAUATL_DRAWINFO@@@Z 000000018001e390 f i IndividualRecognition.obj
 0001:0001d5e0       ?OnFinalMessage@?$CWindowImplBaseT@VCWindow@ATL@@V?$CWinTraits@$0FGAAAAAA@$0A@@2@@ATL@@UEAAXPEAUHWND__@@@Z 000000018001e5e0 f i IndividualRecognition.obj
 0001:0001d5f0       ?OnFrameWindowActivate@?$IOleInPlaceActiveObjectImpl@VCOPOSIndividualRecognition@@@ATL@@UEAAJH@Z 000000018001e5f0 f i IndividualRecognition.obj
 0001:0001d650       ?OnKillFocus@CComControlBase@ATL@@QEAA_JI_K_JAEAH@Z 000000018001e650 f i IndividualRecognition.obj
 0001:0001d750       ?OnMnemonic@?$IOleControlImpl@VCOPOSIndividualRecognition@@@ATL@@UEAAJPEAUtagMSG@@@Z 000000018001e750 f i IndividualRecognition.obj
 0001:0001d7c0       ?OnMouseActivate@CComControlBase@ATL@@QEAA_JI_K_JAEAH@Z 000000018001e7c0 f i IndividualRecognition.obj
 0001:0001d960       ?OnPaint@CComControlBase@ATL@@QEAA_JI_K_JAEAH@Z 000000018001e960 f i IndividualRecognition.obj
 0001:0001daf0       ?OnPostVerbDiscardUndo@?$IOleObjectImpl@VCOPOSIndividualRecognition@@@ATL@@QEAAJXZ 000000018001eaf0 f i IndividualRecognition.obj
 0001:0001db00       ?OnPostVerbHide@?$IOleObjectImpl@VCOPOSIndividualRecognition@@@ATL@@QEAAJXZ 000000018001eb00 f i IndividualRecognition.obj
 0001:0001db10       ?OnPostVerbInPlaceActivate@?$IOleObjectImpl@VCOPOSIndividualRecognition@@@ATL@@QEAAJXZ 000000018001eb10 f i IndividualRecognition.obj
 0001:0001db20       ?OnPostVerbOpen@?$IOleObjectImpl@VCOPOSIndividualRecognition@@@ATL@@QEAAJXZ 000000018001eb20 f i IndividualRecognition.obj
 0001:0001db30       ?OnPostVerbShow@?$IOleObjectImpl@VCOPOSIndividualRecognition@@@ATL@@QEAAJXZ 000000018001eb30 f i IndividualRecognition.obj
 0001:0001db40       ?OnPostVerbUIActivate@?$IOleObjectImpl@VCOPOSIndividualRecognition@@@ATL@@QEAAJXZ 000000018001eb40 f i IndividualRecognition.obj
 0001:0001db50       ?OnPreVerbDiscardUndo@?$IOleObjectImpl@VCOPOSIndividualRecognition@@@ATL@@QEAAJXZ 000000018001eb50 f i IndividualRecognition.obj
 0001:0001db60       ?OnPreVerbHide@?$IOleObjectImpl@VCOPOSIndividualRecognition@@@ATL@@QEAAJXZ 000000018001eb60 f i IndividualRecognition.obj
 0001:0001db70       ?OnPreVerbInPlaceActivate@?$IOleObjectImpl@VCOPOSIndividualRecognition@@@ATL@@QEAAJXZ 000000018001eb70 f i IndividualRecognition.obj
 0001:0001db80       ?OnPreVerbOpen@?$IOleObjectImpl@VCOPOSIndividualRecognition@@@ATL@@QEAAJXZ 000000018001eb80 f i IndividualRecognition.obj
 0001:0001db90       ?OnPreVerbShow@?$IOleObjectImpl@VCOPOSIndividualRecognition@@@ATL@@QEAAJXZ 000000018001eb90 f i IndividualRecognition.obj
 0001:0001dba0       ?OnPreVerbUIActivate@?$IOleObjectImpl@VCOPOSIndividualRecognition@@@ATL@@QEAAJXZ 000000018001eba0 f i IndividualRecognition.obj
 0001:0001dbb0       ?OnSetFocus@CComControlBase@ATL@@QEAA_JI_K_JAEAH@Z 000000018001ebb0 f i IndividualRecognition.obj
 0001:0001ddb0       ?OnWindowMessage@?$IOleInPlaceObjectWindowlessImpl@VCOPOSIndividualRecognition@@@ATL@@UEAAJI_K_JPEA_J@Z 000000018001edb0 f i IndividualRecognition.obj
 0001:0001dfd0       ?Open@CRegKey@ATL@@QEAAJPEAUHKEY__@@PEB_WK@Z 000000018001efd0 f i IndividualRecognition.obj
 0001:0001e150       ?OuterAddRef@CComObjectRootBase@ATL@@QEAAKXZ 000000018001f150 f i IndividualRecognition.obj
 0001:0001e180       ?OuterQueryInterface@CComObjectRootBase@ATL@@QEAAJAEBU_GUID@@PEAPEAX@Z 000000018001f180 f i IndividualRecognition.obj
 0001:0001e1c0       ?OuterRelease@CComObjectRootBase@ATL@@QEAAKXZ 000000018001f1c0 f i IndividualRecognition.obj
 0001:0001e1f0       ?PreProcessBuffer@CRegParser@ATL@@QEAAJPEA_WPEAPEA_W@Z 000000018001f1f0 f i IndividualRecognition.obj
 0001:0001e8d0       ?PreTranslateAccelerator@CComControlBase@ATL@@QEAAHPEAUtagMSG@@AEAJ@Z 000000018001f8d0 f i IndividualRecognition.obj
 0001:0001e8f0       ?ProcessWindowMessage@?$CComControl@VCOPOSIndividualRecognition@@V?$CWindowImpl@VCOPOSIndividualRecognition@@VCWindow@ATL@@V?$CWinTraits@$0FGAAAAAA@$0A@@3@@ATL@@@ATL@@UEAAHPEAUHWND__@@I_K_JAEA_JK@Z 000000018001f8f0 f i IndividualRecognition.obj
 0001:0001eb70       ?ProcessWindowMessage@COPOSIndividualRecognition@@UEAAHPEAUHWND__@@I_K_JAEA_JK@Z 000000018001fb70 f i IndividualRecognition.obj
 0001:0001ecd0       ?PutProperty@?$CComPtr@UIDispatch@@@ATL@@QEAAJJPEAUtagVARIANT@@@Z 000000018001fcd0 f i IndividualRecognition.obj
 0001:0001ed00       ?PutProperty@?$CComPtr@UIDispatch@@@ATL@@SAJPEAUIDispatch@@JPEAUtagVARIANT@@@Z 000000018001fd00 f i IndividualRecognition.obj
 0001:0001efb0       ?QueryGetData@?$IDataObjectImpl@VCOPOSIndividualRecognition@@@ATL@@UEAAJPEAUtagFORMATETC@@@Z 000000018001ffb0 f i IndividualRecognition.obj
 0001:0001f020       ?QueryHitPoint@?$IViewObjectExImpl@VCOPOSIndividualRecognition@@@ATL@@UEAAJKPEBUtagRECT@@UtagPOINT@@JPEAK@Z 0000000180020020 f i IndividualRecognition.obj
 0001:0001f180       ?QueryHitRect@?$IViewObjectExImpl@VCOPOSIndividualRecognition@@@ATL@@UEAAJKPEBUtagRECT@@0JPEAK@Z 0000000180020180 f i IndividualRecognition.obj
 0001:0001f350       ?QueryInterface@?$CComAggObject@VCOPOSIndividualRecognition@@@ATL@@UEAAJAEBU_GUID@@PEAPEAX@Z 0000000180020350 f i IndividualRecognition.obj
 0001:0001f420       ?QueryInterface@?$CComContainedObject@VCOPOSIndividualRecognition@@@ATL@@UEAAJAEBU_GUID@@PEAPEAX@Z 0000000180020420 f i IndividualRecognition.obj
 0001:0001f458       ?QueryInterface@?$CComContainedObject@VCOPOSIndividualRecognition@@@ATL@@WBAA@EAAJAEBU_GUID@@PEAPEAX@Z 0000000180020458 f i IndividualRecognition.obj
 0001:0001f464       ?QueryInterface@?$CComContainedObject@VCOPOSIndividualRecognition@@@ATL@@WBAI@EAAJAEBU_GUID@@PEAPEAX@Z 0000000180020464 f i IndividualRecognition.obj
 0001:0001f470       ?QueryInterface@?$CComContainedObject@VCOPOSIndividualRecognition@@@ATL@@WBBA@EAAJAEBU_GUID@@PEAPEAX@Z 0000000180020470 f i IndividualRecognition.obj
 0001:0001f47c       ?QueryInterface@?$CComContainedObject@VCOPOSIndividualRecognition@@@ATL@@WBBI@EAAJAEBU_GUID@@PEAPEAX@Z 000000018002047c f i IndividualRecognition.obj
 0001:0001f488       ?QueryInterface@?$CComContainedObject@VCOPOSIndividualRecognition@@@ATL@@WLI@EAAJAEBU_GUID@@PEAPEAX@Z 0000000180020488 f i IndividualRecognition.obj
 0001:0001f494       ?QueryInterface@?$CComContainedObject@VCOPOSIndividualRecognition@@@ATL@@WMA@EAAJAEBU_GUID@@PEAPEAX@Z 0000000180020494 f i IndividualRecognition.obj
 0001:0001f4a0       ?QueryInterface@?$CComContainedObject@VCOPOSIndividualRecognition@@@ATL@@WMI@EAAJAEBU_GUID@@PEAPEAX@Z 00000001800204a0 f i IndividualRecognition.obj
 0001:0001f4ac       ?QueryInterface@?$CComContainedObject@VCOPOSIndividualRecognition@@@ATL@@WNA@EAAJAEBU_GUID@@PEAPEAX@Z 00000001800204ac f i IndividualRecognition.obj
 0001:0001f4b8       ?QueryInterface@?$CComContainedObject@VCOPOSIndividualRecognition@@@ATL@@WNI@EAAJAEBU_GUID@@PEAPEAX@Z 00000001800204b8 f i IndividualRecognition.obj
 0001:0001f4c4       ?QueryInterface@?$CComContainedObject@VCOPOSIndividualRecognition@@@ATL@@WOA@EAAJAEBU_GUID@@PEAPEAX@Z 00000001800204c4 f i IndividualRecognition.obj
 0001:0001f4d0       ?QueryInterface@?$CComContainedObject@VCOPOSIndividualRecognition@@@ATL@@WOI@EAAJAEBU_GUID@@PEAPEAX@Z 00000001800204d0 f i IndividualRecognition.obj
 0001:0001f4dc       ?QueryInterface@?$CComContainedObject@VCOPOSIndividualRecognition@@@ATL@@WPA@EAAJAEBU_GUID@@PEAPEAX@Z 00000001800204dc f i IndividualRecognition.obj
 0001:0001f4e8       ?QueryInterface@?$CComContainedObject@VCOPOSIndividualRecognition@@@ATL@@WPI@EAAJAEBU_GUID@@PEAPEAX@Z 00000001800204e8 f i IndividualRecognition.obj
 0001:0001f500       ?QueryInterface@?$CComObject@V?$CComEnum@UIEnumConnectionPoints@@$1?_GUID_b196b285_bab4_101a_b69c_00aa00341d07@@3U__s_GUID@@BPEAUIConnectionPoint@@V?$_CopyInterface@UIConnectionPoint@@@ATL@@VCComSingleThreadModel@6@@ATL@@@ATL@@UEAAJAEBU_GUID@@PEAPEAX@Z 0000000180020500 f i IndividualRecognition.obj
 0001:0001f530       ?QueryInterface@?$CComObject@V?$CComEnum@UIEnumConnections@@$1?_GUID_b196b287_bab4_101a_b69c_00aa00341d07@@3U__s_GUID@@BUtagCONNECTDATA@@V?$_Copy@UtagCONNECTDATA@@@ATL@@VCComSingleThreadModel@6@@ATL@@@ATL@@UEAAJAEBU_GUID@@PEAPEAX@Z 0000000180020530 f i IndividualRecognition.obj
 0001:0001f560       ?QueryInterface@?$CComObject@VCOPOSIndividualRecognition@@@ATL@@UEAAJAEBU_GUID@@PEAPEAX@Z 0000000180020560 f i IndividualRecognition.obj
 0001:0001f590       ?QueryInterface@?$CComObject@VCOPOSIndividualRecognition@@@ATL@@WBAA@EAAJAEBU_GUID@@PEAPEAX@Z 0000000180020590 f i IndividualRecognition.obj
 0001:0001f59c       ?QueryInterface@?$CComObject@VCOPOSIndividualRecognition@@@ATL@@WBAI@EAAJAEBU_GUID@@PEAPEAX@Z 000000018002059c f i IndividualRecognition.obj
 0001:0001f5a8       ?QueryInterface@?$CComObject@VCOPOSIndividualRecognition@@@ATL@@WBBA@EAAJAEBU_GUID@@PEAPEAX@Z 00000001800205a8 f i IndividualRecognition.obj
 0001:0001f5b4       ?QueryInterface@?$CComObject@VCOPOSIndividualRecognition@@@ATL@@WBBI@EAAJAEBU_GUID@@PEAPEAX@Z 00000001800205b4 f i IndividualRecognition.obj
 0001:0001f5c0       ?QueryInterface@?$CComObject@VCOPOSIndividualRecognition@@@ATL@@WLI@EAAJAEBU_GUID@@PEAPEAX@Z 00000001800205c0 f i IndividualRecognition.obj
 0001:0001f5cc       ?QueryInterface@?$CComObject@VCOPOSIndividualRecognition@@@ATL@@WMA@EAAJAEBU_GUID@@PEAPEAX@Z 00000001800205cc f i IndividualRecognition.obj
 0001:0001f5d8       ?QueryInterface@?$CComObject@VCOPOSIndividualRecognition@@@ATL@@WMI@EAAJAEBU_GUID@@PEAPEAX@Z 00000001800205d8 f i IndividualRecognition.obj
 0001:0001f5e4       ?QueryInterface@?$CComObject@VCOPOSIndividualRecognition@@@ATL@@WNA@EAAJAEBU_GUID@@PEAPEAX@Z 00000001800205e4 f i IndividualRecognition.obj
 0001:0001f5f0       ?QueryInterface@?$CComObject@VCOPOSIndividualRecognition@@@ATL@@WNI@EAAJAEBU_GUID@@PEAPEAX@Z 00000001800205f0 f i IndividualRecognition.obj
 0001:0001f5fc       ?QueryInterface@?$CComObject@VCOPOSIndividualRecognition@@@ATL@@WOA@EAAJAEBU_GUID@@PEAPEAX@Z 00000001800205fc f i IndividualRecognition.obj
 0001:0001f608       ?QueryInterface@?$CComObject@VCOPOSIndividualRecognition@@@ATL@@WOI@EAAJAEBU_GUID@@PEAPEAX@Z 0000000180020608 f i IndividualRecognition.obj
 0001:0001f614       ?QueryInterface@?$CComObject@VCOPOSIndividualRecognition@@@ATL@@WPA@EAAJAEBU_GUID@@PEAPEAX@Z 0000000180020614 f i IndividualRecognition.obj
 0001:0001f620       ?QueryInterface@?$CComObject@VCOPOSIndividualRecognition@@@ATL@@WPI@EAAJAEBU_GUID@@PEAPEAX@Z 0000000180020620 f i IndividualRecognition.obj
 0001:0001f630       ?QueryInterface@?$CComObjectCached@VCComClassFactory@ATL@@@ATL@@UEAAJAEBU_GUID@@PEAPEAX@Z 0000000180020630 f i IndividualRecognition.obj
 0001:0001f660       ?QueryInterface@CRegObject@ATL@@UEAAJAEBU_GUID@@PEAPEAX@Z 0000000180020660 f i IndividualRecognition.obj
 0001:0001f6d0       ?QuickActivate@?$IQuickActivateImpl@VCOPOSIndividualRecognition@@@ATL@@UEAAJPEAUtagQACONTAINER@@PEAUtagQACONTROL@@@Z 00000001800206d0 f i IndividualRecognition.obj
 0001:0001f780       ?ReactivateAndUndo@?$IOleInPlaceObjectWindowlessImpl@VCOPOSIndividualRecognition@@@ATL@@UEAAJXZ 0000000180020780 f i IndividualRecognition.obj
 0001:0001f7f0       ?ReadFromStream@CComBSTR@ATL@@QEAAJPEAUIStream@@@Z 00000001800207f0 f i IndividualRecognition.obj
 0001:0001fcd0       ?ReadFromStream@CComVariant@ATL@@QEAAJPEAUIStream@@GTClassesAllowedInStream@2@K@Z 0000000180020cd0 f i IndividualRecognition.obj
 0001:00020110       ?RecurseDeleteKey@CRegKey@ATL@@QEAAJPEB_W@Z 0000000180021110 f i IndividualRecognition.obj
 0001:00020330       ?RegCreateKeyExW@CAtlTransactionManager@ATL@@QEAAJPEAUHKEY__@@PEB_WKPEA_WKKQEAU_SECURITY_ATTRIBUTES@@PEAPEAU3@PEAK@Z 0000000180021330 f i IndividualRecognition.obj
 0001:000204e0       ?RegDeleteKeyW@CAtlTransactionManager@ATL@@QEAAJPEAUHKEY__@@PEB_W@Z 00000001800214e0 f i IndividualRecognition.obj
 0001:000205e0       ?RegOpenKeyExW@CAtlTransactionManager@ATL@@QEAAJPEAUHKEY__@@PEB_WKKPEAPEAU3@@Z 00000001800215e0 f i IndividualRecognition.obj
 0001:00020720       ?Register@_ATL_WNDCLASSINFOW@ATL@@QEAAGPEAP6A_JPEAUHWND__@@I_K_J@Z@Z 0000000180021720 f i IndividualRecognition.obj
 0001:00020760       ?RegisterBuffer@CRegParser@ATL@@QEAAJPEA_WH@Z 0000000180021760 f i IndividualRecognition.obj
 0001:00020b50       ?RegisterClassExW@AtlModuleRegisterWndClassInfoParamW@ATL@@SAGPEAU_ATL_WIN_MODULE70@2@PEBUtagWNDCLASSEXW@@@Z 0000000180021b50 f i IndividualRecognition.obj
 0001:00020b80       ?RegisterFromResource@CRegObject@ATL@@IEAAJPEB_W00H@Z 0000000180021b80 f i IndividualRecognition.obj
 0001:00020fe0       ?RegisterServer@?$CAtlModuleT@VCComModule@ATL@@@ATL@@QEAAJHPEBU_GUID@@@Z 0000000180021fe0 f i IndividualRecognition.obj
 0001:00021040       ?RegisterServer@CAtlComModule@ATL@@QEAAJHPEBU_GUID@@@Z 0000000180022040 f i IndividualRecognition.obj
 0001:00021070       ?RegisterServer@CComModule@ATL@@QEAAJHPEBU_GUID@@@Z 0000000180022070 f i IndividualRecognition.obj
 0001:00021150       ?RegisterSubkeys@CRegParser@ATL@@IEAAJPEA_WPEAUHKEY__@@HH@Z 0000000180022150 f i IndividualRecognition.obj
 0001:00021f30       ?Release@?$CComAggObject@VCOPOSIndividualRecognition@@@ATL@@UEAAKXZ 0000000180022f30 f i IndividualRecognition.obj
 0001:00021fe0       ?Release@?$CComContainedObject@VCOPOSIndividualRecognition@@@ATL@@UEAAKXZ 0000000180022fe0 f i IndividualRecognition.obj
 0001:00022004       ?Release@?$CComContainedObject@VCOPOSIndividualRecognition@@@ATL@@WBAA@EAAKXZ 0000000180023004 f i IndividualRecognition.obj
 0001:00022010       ?Release@?$CComContainedObject@VCOPOSIndividualRecognition@@@ATL@@WBAI@EAAKXZ 0000000180023010 f i IndividualRecognition.obj
 0001:0002201c       ?Release@?$CComContainedObject@VCOPOSIndividualRecognition@@@ATL@@WBBA@EAAKXZ 000000018002301c f i IndividualRecognition.obj
 0001:00022028       ?Release@?$CComContainedObject@VCOPOSIndividualRecognition@@@ATL@@WBBI@EAAKXZ 0000000180023028 f i IndividualRecognition.obj
 0001:00022034       ?Release@?$CComContainedObject@VCOPOSIndividualRecognition@@@ATL@@WBCI@EAAKXZ 0000000180023034 f i IndividualRecognition.obj
 0001:00022040       ?Release@?$CComContainedObject@VCOPOSIndividualRecognition@@@ATL@@WBEA@EAAKXZ 0000000180023040 f i IndividualRecognition.obj
 0001:0002204c       ?Release@?$CComContainedObject@VCOPOSIndividualRecognition@@@ATL@@WLI@EAAKXZ 000000018002304c f i IndividualRecognition.obj
 0001:00022058       ?Release@?$CComContainedObject@VCOPOSIndividualRecognition@@@ATL@@WMA@EAAKXZ 0000000180023058 f i IndividualRecognition.obj
 0001:00022064       ?Release@?$CComContainedObject@VCOPOSIndividualRecognition@@@ATL@@WMI@EAAKXZ 0000000180023064 f i IndividualRecognition.obj
 0001:00022070       ?Release@?$CComContainedObject@VCOPOSIndividualRecognition@@@ATL@@WNA@EAAKXZ 0000000180023070 f i IndividualRecognition.obj
 0001:0002207c       ?Release@?$CComContainedObject@VCOPOSIndividualRecognition@@@ATL@@WNI@EAAKXZ 000000018002307c f i IndividualRecognition.obj
 0001:00022088       ?Release@?$CComContainedObject@VCOPOSIndividualRecognition@@@ATL@@WOA@EAAKXZ 0000000180023088 f i IndividualRecognition.obj
 0001:00022094       ?Release@?$CComContainedObject@VCOPOSIndividualRecognition@@@ATL@@WOI@EAAKXZ 0000000180023094 f i IndividualRecognition.obj
 0001:000220a0       ?Release@?$CComContainedObject@VCOPOSIndividualRecognition@@@ATL@@WPA@EAAKXZ 00000001800230a0 f i IndividualRecognition.obj
 0001:000220ac       ?Release@?$CComContainedObject@VCOPOSIndividualRecognition@@@ATL@@WPI@EAAKXZ 00000001800230ac f i IndividualRecognition.obj
 0001:000220c0       ?Release@?$CComObject@V?$CComEnum@UIEnumConnectionPoints@@$1?_GUID_b196b285_bab4_101a_b69c_00aa00341d07@@3U__s_GUID@@BPEAUIConnectionPoint@@V?$_CopyInterface@UIConnectionPoint@@@ATL@@VCComSingleThreadModel@6@@ATL@@@ATL@@UEAAKXZ 00000001800230c0 f i IndividualRecognition.obj
 0001:00022170       ?Release@?$CComObject@V?$CComEnum@UIEnumConnections@@$1?_GUID_b196b287_bab4_101a_b69c_00aa00341d07@@3U__s_GUID@@BUtagCONNECTDATA@@V?$_Copy@UtagCONNECTDATA@@@ATL@@VCComSingleThreadModel@6@@ATL@@@ATL@@UEAAKXZ 0000000180023170 f i IndividualRecognition.obj
 0001:00022220       ?Release@?$CComObject@VCOPOSIndividualRecognition@@@ATL@@UEAAKXZ 0000000180023220 f i IndividualRecognition.obj
 0001:000222d8       ?Release@?$CComObject@VCOPOSIndividualRecognition@@@ATL@@WBAA@EAAKXZ 00000001800232d8 f i IndividualRecognition.obj
 0001:000222e4       ?Release@?$CComObject@VCOPOSIndividualRecognition@@@ATL@@WBAI@EAAKXZ 00000001800232e4 f i IndividualRecognition.obj
 0001:000222f0       ?Release@?$CComObject@VCOPOSIndividualRecognition@@@ATL@@WBBA@EAAKXZ 00000001800232f0 f i IndividualRecognition.obj
 0001:000222fc       ?Release@?$CComObject@VCOPOSIndividualRecognition@@@ATL@@WBBI@EAAKXZ 00000001800232fc f i IndividualRecognition.obj
 0001:00022308       ?Release@?$CComObject@VCOPOSIndividualRecognition@@@ATL@@WBCI@EAAKXZ 0000000180023308 f i IndividualRecognition.obj
 0001:00022314       ?Release@?$CComObject@VCOPOSIndividualRecognition@@@ATL@@WBEA@EAAKXZ 0000000180023314 f i IndividualRecognition.obj
 0001:00022320       ?Release@?$CComObject@VCOPOSIndividualRecognition@@@ATL@@WLI@EAAKXZ 0000000180023320 f i IndividualRecognition.obj
 0001:0002232c       ?Release@?$CComObject@VCOPOSIndividualRecognition@@@ATL@@WMA@EAAKXZ 000000018002332c f i IndividualRecognition.obj
 0001:00022338       ?Release@?$CComObject@VCOPOSIndividualRecognition@@@ATL@@WMI@EAAKXZ 0000000180023338 f i IndividualRecognition.obj
 0001:00022344       ?Release@?$CComObject@VCOPOSIndividualRecognition@@@ATL@@WNA@EAAKXZ 0000000180023344 f i IndividualRecognition.obj
 0001:00022350       ?Release@?$CComObject@VCOPOSIndividualRecognition@@@ATL@@WNI@EAAKXZ 0000000180023350 f i IndividualRecognition.obj
 0001:0002235c       ?Release@?$CComObject@VCOPOSIndividualRecognition@@@ATL@@WOA@EAAKXZ 000000018002335c f i IndividualRecognition.obj
 0001:00022368       ?Release@?$CComObject@VCOPOSIndividualRecognition@@@ATL@@WOI@EAAKXZ 0000000180023368 f i IndividualRecognition.obj
 0001:00022374       ?Release@?$CComObject@VCOPOSIndividualRecognition@@@ATL@@WPA@EAAKXZ 0000000180023374 f i IndividualRecognition.obj
 0001:00022380       ?Release@?$CComObject@VCOPOSIndividualRecognition@@@ATL@@WPI@EAAKXZ 0000000180023380 f i IndividualRecognition.obj
 0001:00022390       ?Release@?$CComObjectCached@VCComClassFactory@ATL@@@ATL@@UEAAKXZ 0000000180023390 f i IndividualRecognition.obj
 0001:00022420       ?Release@?$CComPtrBase@UIAdviseSink@@@ATL@@QEAAXXZ 0000000180023420 f i IndividualRecognition.obj
 0001:00022470       ?Release@?$CComPtrBase@UIDispatch@@@ATL@@QEAAXXZ 0000000180023470 f i IndividualRecognition.obj
 0001:000224c0       ?Release@?$CComPtrBase@UIOleInPlaceSiteWindowless@@@ATL@@QEAAXXZ 00000001800234c0 f i IndividualRecognition.obj
 0001:00022510       ?Release@CRegObject@ATL@@UEAAKXZ 0000000180023510 f i IndividualRecognition.obj
 0001:00022570       ?Remove@CComDynamicUnkArray@ATL@@QEAAHK@Z 0000000180023570 f i IndividualRecognition.obj
 0001:00022630       ?RemoveAll@?$CSimpleMap@PEA_WPEA_WVCExpansionVectorEqualHelper@ATL@@@ATL@@QEAAXXZ 0000000180023630 f i IndividualRecognition.obj
 0001:000226c0       ?Reset@?$CComEnumImpl@UIEnumConnectionPoints@@$1?_GUID_b196b285_bab4_101a_b69c_00aa00341d07@@3U__s_GUID@@BPEAUIConnectionPoint@@V?$_CopyInterface@UIConnectionPoint@@@ATL@@@ATL@@UEAAJXZ 00000001800236c0 f i IndividualRecognition.obj
 0001:000226e0       ?Reset@?$CComEnumImpl@UIEnumConnections@@$1?_GUID_b196b287_bab4_101a_b69c_00aa00341d07@@3U__s_GUID@@BUtagCONNECTDATA@@V?$_Copy@UtagCONNECTDATA@@@ATL@@@ATL@@UEAAJXZ 00000001800236e0 f i IndividualRecognition.obj
 0001:00022700       ?ResizeBorder@?$IOleInPlaceActiveObjectImpl@VCOPOSIndividualRecognition@@@ATL@@UEAAJPEBUtagRECT@@PEAUIOleInPlaceUIWindow@@H@Z 0000000180023700 f i IndividualRecognition.obj
 0001:00022770       ?ResourceRegister@CRegObject@ATL@@QEAAJPEB_WI0@Z 0000000180023770 f i IndividualRecognition.obj
 0001:00022850       ?ResourceRegisterSz@CRegObject@ATL@@QEAAJPEB_W00@Z 0000000180023850 f i IndividualRecognition.obj
 0001:00022970       ?ResourceUnregister@CRegObject@ATL@@QEAAJPEB_WI0@Z 0000000180023970 f i IndividualRecognition.obj
 0001:00022a50       ?ResourceUnregisterSz@CRegObject@ATL@@QEAAJPEB_W00@Z 0000000180023a50 f i IndividualRecognition.obj
 0001:00022b70       ?SOData@COPOSIndividualRecognition@@MEAAJJ@Z 0000000180023b70 f i IndividualRecognition.obj
 0001:00022c00       ?SODirectIO@COPOSIndividualRecognition@@MEAAJJPEAJPEAPEA_W@Z 0000000180023c00 f i IndividualRecognition.obj
 0001:00022e40       ?SOError@COPOSIndividualRecognition@@MEAAJJJJPEAJ@Z 0000000180023e40 f i IndividualRecognition.obj
 0001:00022f30       ?SOOutputCompleteDummy@COPOSIndividualRecognition@@MEAAJJ@Z 0000000180023f30 f i IndividualRecognition.obj
 0001:00022f50       ?SOStatusUpdate@COPOSIndividualRecognition@@MEAAJJ@Z 0000000180023f50 f i IndividualRecognition.obj
 0001:00022fe0       ?Save@?$IPersistStorageImpl@VCOPOSIndividualRecognition@@@ATL@@UEAAJPEAUIStorage@@H@Z 0000000180023fe0 f i IndividualRecognition.obj
 0001:000231a0       ?Save@?$IPersistStreamInitImpl@VCOPOSIndividualRecognition@@@ATL@@UEAAJPEAUIStream@@H@Z 00000001800241a0 f i IndividualRecognition.obj
 0001:00023250       ?SaveCompleted@?$IPersistStorageImpl@VCOPOSIndividualRecognition@@@ATL@@UEAAJPEAUIStorage@@@Z 0000000180024250 f i IndividualRecognition.obj
 0001:000232b0       ?SendOnDataChange@CComControlBase@ATL@@QEAAJK@Z 00000001800242b0 f i IndividualRecognition.obj
 0001:000233b0       ?SendOnSave@CComControlBase@ATL@@QEAAJXZ 00000001800243b0 f i IndividualRecognition.obj
 0001:00023410       ?SendOnViewChange@CComControlBase@ATL@@QEAAJKJ@Z 0000000180024410 f i IndividualRecognition.obj
 0001:00023470       ?SetAdvise@?$IViewObjectExImpl@VCOPOSIndividualRecognition@@@ATL@@UEAAJKKPEAUIAdviseSink@@@Z 0000000180024470 f i IndividualRecognition.obj
 0001:00023520       ?SetClientSite@?$IOleObjectImpl@VCOPOSIndividualRecognition@@@ATL@@UEAAJPEAUIOleClientSite@@@Z 0000000180024520 f i IndividualRecognition.obj
 0001:000235c0       ?SetColorScheme@?$IOleObjectImpl@VCOPOSIndividualRecognition@@@ATL@@UEAAJPEAUtagLOGPALETTE@@@Z 00000001800245c0 f i IndividualRecognition.obj
 0001:00023630       ?SetContentExtent@?$IQuickActivateImpl@VCOPOSIndividualRecognition@@@ATL@@UEAAJPEAUtagSIZE@@@Z 0000000180024630 f i IndividualRecognition.obj
 0001:000236e0       ?SetControlFocus@CComControlBase@ATL@@QEAAHH@Z 00000001800246e0 f i IndividualRecognition.obj
 0001:00023860       ?SetDWORDValue@CRegKey@ATL@@QEAAJPEB_WK@Z 0000000180024860 f i IndividualRecognition.obj
 0001:00023900       ?SetData@?$IDataObjectImpl@VCOPOSIndividualRecognition@@@ATL@@UEAAJPEAUtagFORMATETC@@PEAUtagSTGMEDIUM@@H@Z 0000000180024900 f i IndividualRecognition.obj
 0001:00023980       ?SetExtent@?$IOleObjectImpl@VCOPOSIndividualRecognition@@@ATL@@UEAAJKPEAUtagSIZE@@@Z 0000000180024980 f i IndividualRecognition.obj
 0001:00023a30       ?SetHostNames@?$IOleObjectImpl@VCOPOSIndividualRecognition@@@ATL@@UEAAJPEB_W0@Z 0000000180024a30 f i IndividualRecognition.obj
 0001:00023a90       ?SetInterfaceSafetyOptions@?$IObjectSafetyImpl@VCOPOSIndividualRecognition@@$02@ATL@@UEAAJAEBU_GUID@@KK@Z 0000000180024a90 f i IndividualRecognition.obj
 0001:00023c30       ?SetMoniker@?$IOleObjectImpl@VCOPOSIndividualRecognition@@@ATL@@UEAAJKPEAUIMoniker@@@Z 0000000180024c30 f i IndividualRecognition.obj
 0001:00023cb0       ?SetMultiStringValue@CRegKey@ATL@@QEAAJPEB_W0@Z 0000000180024cb0 f i IndividualRecognition.obj
 0001:00023e10       ?SetObjectRects@?$IOleInPlaceObjectWindowlessImpl@VCOPOSIndividualRecognition@@@ATL@@UEAAJPEBUtagRECT@@0@Z 0000000180024e10 f i IndividualRecognition.obj
 0001:00023ec0       ?SetStringValue@CRegKey@ATL@@QEAAJPEB_W0K@Z 0000000180024ec0 f i IndividualRecognition.obj
 0001:00024030       ?SetVoid@CComClassFactory@ATL@@QEAAXPEAX@Z 0000000180025030 f i IndividualRecognition.obj
 0001:00024050       ?SetVoid@CComObjectRootBase@ATL@@QEAAXPEAX@Z 0000000180025050 f i IndividualRecognition.obj
 0001:00024060       ?ShowWindow@CWindow@ATL@@QEAAHH@Z 0000000180025060 f i IndividualRecognition.obj
 0001:000240e0       ?Skip@?$CComEnumImpl@UIEnumConnectionPoints@@$1?_GUID_b196b285_bab4_101a_b69c_00aa00341d07@@3U__s_GUID@@BPEAUIConnectionPoint@@V?$_CopyInterface@UIConnectionPoint@@@ATL@@@ATL@@UEAAJK@Z 00000001800250e0 f i IndividualRecognition.obj
 0001:00024170       ?Skip@?$CComEnumImpl@UIEnumConnections@@$1?_GUID_b196b287_bab4_101a_b69c_00aa00341d07@@3U__s_GUID@@BUtagCONNECTDATA@@V?$_Copy@UtagCONNECTDATA@@@ATL@@@ATL@@UEAAJK@Z 0000000180025170 f i IndividualRecognition.obj
 0001:00024200       ?SkipAssignment@CRegParser@ATL@@IEAAJPEA_W@Z 0000000180025200 f i IndividualRecognition.obj
 0001:00024300       ?SkipWhiteSpace@CRegParser@ATL@@IEAAXXZ 0000000180025300 f i IndividualRecognition.obj
 0001:00024350       ?StartWindowProc@?$CWindowImplBaseT@VCWindow@ATL@@V?$CWinTraits@$0FGAAAAAA@$0A@@2@@ATL@@SA_JPEAUHWND__@@I_K_J@Z 0000000180025350 f i IndividualRecognition.obj
 0001:000244a0       ?StrChrW@CRegParser@ATL@@KAPEA_WPEA_W_W@Z 00000001800254a0 f i IndividualRecognition.obj
 0001:00024510       ?StrFromMap@CRegObject@ATL@@QEAAPEB_WPEA_W@Z 0000000180025510 f i IndividualRecognition.obj
 0001:000245b0       ?Swap@?$CComPtrBase@UIAdviseSink@@@ATL@@IEAAXAEAV12@@Z 00000001800255b0 f i IndividualRecognition.obj
 0001:000245f0       ?Swap@?$CComPtrBase@UIOleClientSite@@@ATL@@IEAAXAEAV12@@Z 00000001800255f0 f i IndividualRecognition.obj
 0001:00024630       ?Swap@?$CComPtrBase@UIUnknown@@@ATL@@IEAAXAEAV12@@Z 0000000180025630 f i IndividualRecognition.obj
 0001:00024670       ?T2COLE_EX@@YAPEB_WPEB_WI@Z 0000000180025670 f i IndividualRecognition.obj
 0001:00024690       ?T2OLE_EX@@YAPEA_WPEA_WI@Z 0000000180025690 f i IndividualRecognition.obj
 0001:000246b0       ?Term@CAtlModule@ATL@@QEAAXXZ 00000001800256b0 f i IndividualRecognition.obj
 0001:00024760       ?Term@CComModule@ATL@@QEAAXXZ 0000000180025760 f i IndividualRecognition.obj
 0001:00024840       ?TranslateAcceleratorW@?$IOleInPlaceActiveObjectImpl@VCOPOSIndividualRecognition@@@ATL@@UEAAJPEAUtagMSG@@@Z 0000000180025840 f i IndividualRecognition.obj
 0001:00024ab0       ?UIDeactivate@?$IOleInPlaceObjectWindowlessImpl@VCOPOSIndividualRecognition@@@ATL@@UEAAJXZ 0000000180025ab0 f i IndividualRecognition.obj
 0001:00024b40       ?Unadvise@?$CProxy_IOPOSEvents@VCOPOSIndividualRecognition@@@@UEAAJK@Z 0000000180025b40 f i IndividualRecognition.obj
 0001:00024b80       ?Unadvise@?$IConnectionPointImpl@VCOPOSIndividualRecognition@@$1?DIID__IOPOSIndividualRecognitionEvents@@3U_GUID@@BVCComDynamicUnkArray@ATL@@@ATL@@UEAAJK@Z 0000000180025b80 f i IndividualRecognition.obj
 0001:00024c60       ?Unadvise@?$IConnectionPointImpl@VCOPOSIndividualRecognition@@$1?IID_IPropertyNotifySink@@3U_GUID@@BVCComDynamicUnkArray@ATL@@@ATL@@UEAAJK@Z 0000000180025c60 f i IndividualRecognition.obj
 0001:00024d40       ?Unadvise@?$IOleObjectImpl@VCOPOSIndividualRecognition@@@ATL@@UEAAJK@Z 0000000180025d40 f i IndividualRecognition.obj
 0001:00024e20       ?Unfreeze@?$IViewObjectExImpl@VCOPOSIndividualRecognition@@@ATL@@UEAAJK@Z 0000000180025e20 f i IndividualRecognition.obj
 0001:00024e90       ?Unlock@?$CComCritSecLock@VCComCriticalSection@ATL@@@ATL@@QEAAXXZ 0000000180025e90 f i IndividualRecognition.obj
 0001:00024f10       ?Unlock@?$CComObjectRootEx@VCComSingleThreadModel@ATL@@@ATL@@QEAAXXZ 0000000180025f10 f i IndividualRecognition.obj
 0001:00024f20       ?Unlock@CAtlModule@ATL@@UEAAJXZ 0000000180025f20 f i IndividualRecognition.obj
 0001:00024f50       ?Unlock@CComCriticalSection@ATL@@QEAAJXZ 0000000180025f50 f i IndividualRecognition.obj
 0001:00024f70       ?Unlock@CComFakeCriticalSection@ATL@@QEAAJXZ 0000000180025f70 f i IndividualRecognition.obj
 0001:00024f80       ?UnregisterServer@?$CAtlModuleT@VCComModule@ATL@@@ATL@@QEAAJHPEBU_GUID@@@Z 0000000180025f80 f i IndividualRecognition.obj
 0001:00024fe0       ?UnregisterServer@CAtlComModule@ATL@@QEAAJHPEBU_GUID@@@Z 0000000180025fe0 f i IndividualRecognition.obj
 0001:00025010       ?UnregisterServer@CComModule@ATL@@QEAAJHPEBU_GUID@@@Z 0000000180026010 f i IndividualRecognition.obj
 0001:000250f0       ?Update@?$IOleObjectImpl@VCOPOSIndividualRecognition@@@ATL@@UEAAJXZ 00000001800260f0 f i IndividualRecognition.obj
 0001:00025150       ?UpdateRegistryFromResource@CAtlModule@ATL@@QEAAJIHPEAU_ATL_REGMAP_ENTRY@2@@Z 0000000180026150 f i IndividualRecognition.obj
 0001:00025690       ?UpdateRegistryFromResource@CAtlModule@ATL@@QEAAJPEB_WHPEAU_ATL_REGMAP_ENTRY@2@@Z 0000000180026690 f i IndividualRecognition.obj
 0001:00025be0       ?UpdateRegistryFromResource@CComModule@ATL@@UEAAJIHPEAU_ATL_REGMAP_ENTRY@2@@Z 0000000180026be0 f i IndividualRecognition.obj
 0001:00025c20       ?UpdateRegistryFromResource@CComModule@ATL@@UEAAJPEB_WHPEAU_ATL_REGMAP_ENTRY@2@@Z 0000000180026c20 f i IndividualRecognition.obj
 0001:00025c60       ?UpdateRegistryFromResourceD@CComModule@ATL@@UEAAJIHPEAU_ATL_REGMAP_ENTRY@2@@Z 0000000180026c60 f i IndividualRecognition.obj
 0001:00025c80       ?UpdateRegistryFromResourceD@CComModule@ATL@@UEAAJPEB_WHPEAU_ATL_REGMAP_ENTRY@2@@Z 0000000180026c80 f i IndividualRecognition.obj
 0001:00025ca0       ?VTFromRegType@CRegParser@ATL@@KAHPEB_WAEAG@Z 0000000180026ca0 f i IndividualRecognition.obj
 0001:00025d70       ?WindowProc@?$CWindowImplBaseT@VCWindow@ATL@@V?$CWinTraits@$0FGAAAAAA@$0A@@2@@ATL@@SA_JPEAUHWND__@@I_K_J@Z 0000000180026d70 f i IndividualRecognition.obj
 0001:00026050       ?WriteToStream@CComBSTR@ATL@@QEAAJPEAUIStream@@@Z 0000000180027050 f i IndividualRecognition.obj
 0001:000261c0       ?WriteToStream@CComVariant@ATL@@QEAAJPEAUIStream@@@Z 00000001800271c0 f i IndividualRecognition.obj
 0001:000265f0       ?WriteToStream@CComVariant@ATL@@QEAAJPEAUIStream@@G@Z 00000001800275f0 f i IndividualRecognition.obj
 0001:000266d0       ?_AtlFinalConstruct@CComObjectRootBase@ATL@@QEAAJXZ 00000001800276d0 f i IndividualRecognition.obj
 0001:000266e0       ?_AtlGetConversionACP@ATL@@YAIXZ 00000001800276e0 f i IndividualRecognition.obj
 0001:000266f0       ?_AtlInitialConstruct@?$CComAggObject@VCOPOSIndividualRecognition@@@ATL@@QEAAJXZ 00000001800276f0 f i IndividualRecognition.obj
 0001:00026740       ?_AtlInitialConstruct@?$CComObjectRootEx@VCComMultiThreadModel@ATL@@@ATL@@QEAAJXZ 0000000180027740 f i IndividualRecognition.obj
 0001:00026770       ?_AtlInitialConstruct@?$CComObjectRootEx@VCComSingleThreadModel@ATL@@@ATL@@QEAAJXZ 0000000180027770 f i IndividualRecognition.obj
 0001:00026780       ?_AtlVerifyStackAvailable@_ATL_SAFE_ALLOCA_IMPL@ATL@@YA_N_K@Z 0000000180027780 f i IndividualRecognition.obj
 0001:000268e0       ?_GetEntries@?$CComEnum@UIEnumConnectionPoints@@$1?_GUID_b196b285_bab4_101a_b69c_00aa00341d07@@3U__s_GUID@@BPEAUIConnectionPoint@@V?$_CopyInterface@UIConnectionPoint@@@ATL@@VCComSingleThreadModel@6@@ATL@@SAPEBU_ATL_INTMAP_ENTRY@2@XZ 00000001800278e0 f i IndividualRecognition.obj
 0001:00026900       ?_GetEntries@?$CComEnum@UIEnumConnections@@$1?_GUID_b196b287_bab4_101a_b69c_00aa00341d07@@3U__s_GUID@@BUtagCONNECTDATA@@V?$_Copy@UtagCONNECTDATA@@@ATL@@VCComSingleThreadModel@6@@ATL@@SAPEBU_ATL_INTMAP_ENTRY@2@XZ 0000000180027900 f i IndividualRecognition.obj
 0001:00026920       ?_GetEntries@CComClassFactory@ATL@@SAPEBU_ATL_INTMAP_ENTRY@2@XZ 0000000180027920 f i IndividualRecognition.obj
 0001:00026940       ?_GetEntries@COPOSIndividualRecognition@@SAPEBU_ATL_INTMAP_ENTRY@ATL@@XZ 0000000180027940 f i IndividualRecognition.obj
 0001:00026960       ?_GetRawUnknown@COPOSIndividualRecognition@@QEAAPEAUIUnknown@@XZ 0000000180027960 f i IndividualRecognition.obj
 0001:000269e0       ?_GetViewStatus@COPOSIndividualRecognition@@QEAAKXZ 00000001800279e0 f i IndividualRecognition.obj
 0001:000269f0       ?_InternalQueryInterface@?$CComEnum@UIEnumConnectionPoints@@$1?_GUID_b196b285_bab4_101a_b69c_00aa00341d07@@3U__s_GUID@@BPEAUIConnectionPoint@@V?$_CopyInterface@UIConnectionPoint@@@ATL@@VCComSingleThreadModel@6@@ATL@@QEAAJAEBU_GUID@@PEAPEAX@Z 00000001800279f0 f i IndividualRecognition.obj
 0001:00026a30       ?_InternalQueryInterface@?$CComEnum@UIEnumConnections@@$1?_GUID_b196b287_bab4_101a_b69c_00aa00341d07@@3U__s_GUID@@BUtagCONNECTDATA@@V?$_Copy@UtagCONNECTDATA@@@ATL@@VCComSingleThreadModel@6@@ATL@@QEAAJAEBU_GUID@@PEAPEAX@Z 0000000180027a30 f i IndividualRecognition.obj
 0001:00026a70       ?_InternalQueryInterface@CComClassFactory@ATL@@QEAAJAEBU_GUID@@PEAPEAX@Z 0000000180027a70 f i IndividualRecognition.obj
 0001:00026ab0       ?_InternalQueryInterface@COPOSIndividualRecognition@@QEAAJAEBU_GUID@@PEAPEAX@Z 0000000180027ab0 f i IndividualRecognition.obj
 0001:00026af0       ?_LocCPQueryInterface@?$IConnectionPointImpl@VCOPOSIndividualRecognition@@$1?DIID__IOPOSIndividualRecognitionEvents@@3U_GUID@@BVCComDynamicUnkArray@ATL@@@ATL@@UEAAJAEBU_GUID@@PEAPEAX@Z 0000000180027af0 f i IndividualRecognition.obj
 0001:00026bc0       ?_LocCPQueryInterface@?$IConnectionPointImpl@VCOPOSIndividualRecognition@@$1?IID_IPropertyNotifySink@@3U_GUID@@BVCComDynamicUnkArray@ATL@@@ATL@@UEAAJAEBU_GUID@@PEAPEAX@Z 0000000180027bc0 f i IndividualRecognition.obj
 0001:00026c90       ?atlCreate@?$CWindowImpl@VCOPOSIndividualRecognition@@VCWindow@ATL@@V?$CWinTraits@$0FGAAAAAA@$0A@@3@@ATL@@QEAAPEAUHWND__@@PEAU3@V_U_RECT@2@PEB_WKKV_U_MENUorID@2@PEAX@Z 0000000180027c90 f i IndividualRecognition.obj
 0001:00026da0       ?atlCreate@?$CWindowImplBaseT@VCWindow@ATL@@V?$CWinTraits@$0FGAAAAAA@$0A@@2@@ATL@@QEAAPEAUHWND__@@PEAU3@V_U_RECT@2@PEB_WKKV_U_MENUorID@2@GPEAX@Z 0000000180027da0 f i IndividualRecognition.obj
 0001:00026ff0       ?atlCreate@CRegKey@ATL@@QEAAJPEAUHKEY__@@PEB_WPEA_WKKPEAU_SECURITY_ATTRIBUTES@@PEAK@Z 0000000180027ff0 f i IndividualRecognition.obj
 0001:000271f0       ?begin@CComDynamicUnkArray@ATL@@QEAAPEAPEAUIUnknown@@XZ 00000001800281f0 f i IndividualRecognition.obj
 0001:00027200       ?copy@?$_Copy@UtagCONNECTDATA@@@ATL@@SAJPEAUtagCONNECTDATA@@PEBU3@@Z 0000000180028200 f i IndividualRecognition.obj
 0001:000272e0       ?copy@?$_CopyInterface@UIConnectionPoint@@@ATL@@SAJPEAPEAUIConnectionPoint@@PEBQEAU3@@Z 00000001800282e0 f i IndividualRecognition.obj
 0001:000273c0       ?destroy@?$_Copy@UtagCONNECTDATA@@@ATL@@SAXPEAUtagCONNECTDATA@@@Z 00000001800283c0 f i IndividualRecognition.obj
 0001:00027400       ?destroy@?$_CopyInterface@UIConnectionPoint@@@ATL@@SAXPEAPEAUIConnectionPoint@@@Z 0000000180028400 f i IndividualRecognition.obj
 0001:00027440       ?end@CComDynamicUnkArray@ATL@@QEAAPEAPEAUIUnknown@@XZ 0000000180028440 f i IndividualRecognition.obj
 0001:00027460       ?init@?$_Copy@UtagCONNECTDATA@@@ATL@@SAXPEAUtagCONNECTDATA@@@Z 0000000180028460 f i IndividualRecognition.obj
 0001:00027470       ?init@?$_CopyInterface@UIConnectionPoint@@@ATL@@SAXPEAPEAUIConnectionPoint@@@Z 0000000180028470 f i IndividualRecognition.obj
 0001:00027480       ?memcpy_s@Checked@ATL@@YAXPEAX_KPEBX1@Z 0000000180028480 f i IndividualRecognition.obj
 0001:000274c0       ?ocscpy_s@@YA_NPEA_W_KPEB_W@Z 00000001800284c0 f i IndividualRecognition.obj
 0001:00027530       ?ocslen@@YAHPEB_W@Z        0000000180028530 f i IndividualRecognition.obj
 0001:00027560       ?tcsncpy_s@Checked@ATL@@YAHPEA_W_KPEB_W1@Z 0000000180028560 f i IndividualRecognition.obj
 0001:000275a0       ?wcscat_s@Checked@ATL@@YAXPEA_W_KPEB_W@Z 00000001800285a0 f i IndividualRecognition.obj
 0001:000275e0       ?wcscpy_s@Checked@ATL@@YAXPEA_W_KPEB_W@Z 00000001800285e0 f i IndividualRecognition.obj
 0001:00027620       ?wcsncpy_s@Checked@ATL@@YAHPEA_W_KPEB_W1@Z 0000000180028620 f i IndividualRecognition.obj
 0001:00027660       ?wcsstr@@YAPEA_WPEA_WPEB_W@Z 0000000180028660 f i IndividualRecognition.obj
 0001:00027690       InlineIsEqualGUID          0000000180028690 f i IndividualRecognition.obj
 0001:00027750       IsEqualGUID                0000000180028750 f i IndividualRecognition.obj
 0001:000277a0       ??0COPOSIndividualRecognition@@QEAA@XZ 00000001800287a0 f   IndividualRecognitionImpl.obj
 0001:00027910       ?FinalConstruct@COPOSIndividualRecognition@@QEAAJXZ 0000000180028910 f   IndividualRecognitionImpl.obj
 0001:000279f0       ??1COPOSIndividualRecognition@@UEAA@XZ 00000001800289f0 f   IndividualRecognitionImpl.obj
 0001:00027ad0       ?WriteTrace@COPOSIndividualRecognition@@QEAAXPEB_WZZ 0000000180028ad0 f   IndividualRecognitionImpl.obj
 0001:00027ba0       ?WriteTraceString@COPOSIndividualRecognition@@QEAAXPEB_WPEA_W@Z 0000000180028ba0 f   IndividualRecognitionImpl.obj
 0001:00027fd0       ?WriteTraceString@COPOSIndividualRecognition@@QEAAXPEAXHHHPEB_WZZ 0000000180028fd0 f   IndividualRecognitionImpl.obj
 0001:00028260       ?WriteTraceError@COPOSIndividualRecognition@@QEAAXPEB_WK@Z 0000000180029260 f   IndividualRecognitionImpl.obj
 0001:00028360       ?WriteTraceMethods@COPOSIndividualRecognition@@QEAAXPEAJH@Z 0000000180029360 f   IndividualRecognitionImpl.obj
 0001:000283e0       ?GetOposProp@COPOSIndividualRecognition@@IEAAJPEBDJPEAJJ@Z 00000001800293e0 f   IndividualRecognitionImpl.obj
 0001:00028700       ?SetOposProp@COPOSIndividualRecognition@@IEAAJPEBDJJJ@Z 0000000180029700 f   IndividualRecognitionImpl.obj
 0001:00028a70       ?GetOposProp@COPOSIndividualRecognition@@IEAAJPEBDJPEAFJ@Z 0000000180029a70 f   IndividualRecognitionImpl.obj
 0001:00028b20       ?SetOposProp@COPOSIndividualRecognition@@IEAAJPEBDJFJ@Z 0000000180029b20 f   IndividualRecognitionImpl.obj
 0001:00028b90       ?GetOposProp@COPOSIndividualRecognition@@IEAAJPEBDJPEAPEA_WJ@Z 0000000180029b90 f   IndividualRecognitionImpl.obj
 0001:00028eb0       ?SetOposProp@COPOSIndividualRecognition@@IEAAJPEBDJPEA_WJ@Z 0000000180029eb0 f   IndividualRecognitionImpl.obj
 0001:00029290       ?DoInvoke@COPOSIndividualRecognition@@IEAAJPEBDJPEAVOposVariant@@IHPEAJ_N@Z 000000018002a290 f   IndividualRecognitionImpl.obj
 0001:00029df0       ?SetCOFreezeEvents@COPOSIndividualRecognition@@IEAAXF@Z 000000018002adf0 f   IndividualRecognitionImpl.obj
 0001:00029f80       ?FreezeEvents@COPOSIndividualRecognition@@MEAAJH@Z 000000018002af80 f   IndividualRecognitionImpl.obj
 0001:0002a0a0       ?OnDraw@COPOSIndividualRecognition@@MEAAJAEAUATL_DRAWINFO@@@Z 000000018002b0a0 f   IndividualRecognitionImpl.obj
 0001:0002a270       ?SOProcessID@COPOSIndividualRecognition@@UEAAJPEAJ@Z 000000018002b270 f   IndividualRecognitionImpl.obj
 0001:0002a2c0       ?get_OpenResult@COPOSIndividualRecognition@@UEAAJPEAJ@Z 000000018002b2c0 f   IndividualRecognitionImpl.obj
 0001:0002a310       ?get_AutoDisable@COPOSIndividualRecognition@@UEAAJPEAF@Z 000000018002b310 f   IndividualRecognitionImpl.obj
 0001:0002a350       ?put_AutoDisable@COPOSIndividualRecognition@@UEAAJF@Z 000000018002b350 f   IndividualRecognitionImpl.obj
 0001:0002a390       ?get_BinaryConversion@COPOSIndividualRecognition@@UEAAJPEAJ@Z 000000018002b390 f   IndividualRecognitionImpl.obj
 0001:0002a3d0       ?put_BinaryConversion@COPOSIndividualRecognition@@UEAAJJ@Z 000000018002b3d0 f   IndividualRecognitionImpl.obj
 0001:0002a420       ?get_CapPowerReporting@COPOSIndividualRecognition@@UEAAJPEAJ@Z 000000018002b420 f   IndividualRecognitionImpl.obj
 0001:0002a460       ?get_CheckHealthText@COPOSIndividualRecognition@@UEAAJPEAPEA_W@Z 000000018002b460 f   IndividualRecognitionImpl.obj
 0001:0002a4a0       ?get_Claimed@COPOSIndividualRecognition@@UEAAJPEAF@Z 000000018002b4a0 f   IndividualRecognitionImpl.obj
 0001:0002a4e0       ?get_DataCount@COPOSIndividualRecognition@@UEAAJPEAJ@Z 000000018002b4e0 f   IndividualRecognitionImpl.obj
 0001:0002a520       ?get_DataEventEnabled@COPOSIndividualRecognition@@UEAAJPEAF@Z 000000018002b520 f   IndividualRecognitionImpl.obj
 0001:0002a560       ?put_DataEventEnabled@COPOSIndividualRecognition@@UEAAJF@Z 000000018002b560 f   IndividualRecognitionImpl.obj
 0001:0002a5a0       ?get_DeviceEnabled@COPOSIndividualRecognition@@UEAAJPEAF@Z 000000018002b5a0 f   IndividualRecognitionImpl.obj
 0001:0002a5e0       ?put_DeviceEnabled@COPOSIndividualRecognition@@UEAAJF@Z 000000018002b5e0 f   IndividualRecognitionImpl.obj
 0001:0002a620       ?get_FreezeEvents@COPOSIndividualRecognition@@UEAAJPEAF@Z 000000018002b620 f   IndividualRecognitionImpl.obj
 0001:0002a660       ?put_FreezeEvents@COPOSIndividualRecognition@@UEAAJF@Z 000000018002b660 f   IndividualRecognitionImpl.obj
 0001:0002a720       ?get_PowerNotify@COPOSIndividualRecognition@@UEAAJPEAJ@Z 000000018002b720 f   IndividualRecognitionImpl.obj
 0001:0002a760       ?put_PowerNotify@COPOSIndividualRecognition@@UEAAJJ@Z 000000018002b760 f   IndividualRecognitionImpl.obj
 0001:0002a7a0       ?get_PowerState@COPOSIndividualRecognition@@UEAAJPEAJ@Z 000000018002b7a0 f   IndividualRecognitionImpl.obj
 0001:0002a7e0       ?get_ResultCode@COPOSIndividualRecognition@@UEAAJPEAJ@Z 000000018002b7e0 f   IndividualRecognitionImpl.obj
 0001:0002a890       ?get_ResultCodeExtended@COPOSIndividualRecognition@@UEAAJPEAJ@Z 000000018002b890 f   IndividualRecognitionImpl.obj
 0001:0002a8d0       ?get_State@COPOSIndividualRecognition@@UEAAJPEAJ@Z 000000018002b8d0 f   IndividualRecognitionImpl.obj
 0001:0002a940       ?get_ControlObjectDescription@COPOSIndividualRecognition@@UEAAJPEAPEA_W@Z 000000018002b940 f   IndividualRecognitionImpl.obj
 0001:0002a9b0       ?get_ControlObjectVersion@COPOSIndividualRecognition@@UEAAJPEAJ@Z 000000018002b9b0 f   IndividualRecognitionImpl.obj
 0001:0002aa00       ?get_ServiceObjectDescription@COPOSIndividualRecognition@@UEAAJPEAPEA_W@Z 000000018002ba00 f   IndividualRecognitionImpl.obj
 0001:0002aa40       ?get_ServiceObjectVersion@COPOSIndividualRecognition@@UEAAJPEAJ@Z 000000018002ba40 f   IndividualRecognitionImpl.obj
 0001:0002aa80       ?get_DeviceDescription@COPOSIndividualRecognition@@UEAAJPEAPEA_W@Z 000000018002ba80 f   IndividualRecognitionImpl.obj
 0001:0002aac0       ?get_DeviceName@COPOSIndividualRecognition@@UEAAJPEAPEA_W@Z 000000018002bac0 f   IndividualRecognitionImpl.obj
 0001:0002ab00       ?get_CapStatisticsReporting@COPOSIndividualRecognition@@UEAAJPEAF@Z 000000018002bb00 f   IndividualRecognitionImpl.obj
 0001:0002ab40       ?get_CapUpdateStatistics@COPOSIndividualRecognition@@UEAAJPEAF@Z 000000018002bb40 f   IndividualRecognitionImpl.obj
 0001:0002ab80       ?get_CapCompareFirmwareVersion@COPOSIndividualRecognition@@UEAAJPEAF@Z 000000018002bb80 f   IndividualRecognitionImpl.obj
 0001:0002abc0       ?get_CapUpdateFirmware@COPOSIndividualRecognition@@UEAAJPEAF@Z 000000018002bbc0 f   IndividualRecognitionImpl.obj
 0001:0002ac00       ?CheckHealth@COPOSIndividualRecognition@@UEAAJJPEAJ@Z 000000018002bc00 f   IndividualRecognitionImpl.obj
 0001:0002acc0       ?ClaimDevice@COPOSIndividualRecognition@@UEAAJJPEAJ@Z 000000018002bcc0 f   IndividualRecognitionImpl.obj
 0001:0002ade0       ?ClearInput@COPOSIndividualRecognition@@UEAAJPEAJ@Z 000000018002bde0 f   IndividualRecognitionImpl.obj
 0001:0002ae40       ?Close@COPOSIndividualRecognition@@UEAAJPEAJ@Z 000000018002be40 f   IndividualRecognitionImpl.obj
 0001:0002af40       ?DirectIO@COPOSIndividualRecognition@@UEAAJJPEAJPEAPEA_W0@Z 000000018002bf40 f   IndividualRecognitionImpl.obj
 0001:0002b0c0       ?Open@COPOSIndividualRecognition@@UEAAJPEA_WPEAJ@Z 000000018002c0c0 f   IndividualRecognitionImpl.obj
 0001:0002c5a0       ?ReleaseDevice@COPOSIndividualRecognition@@UEAAJPEAJ@Z 000000018002d5a0 f   IndividualRecognitionImpl.obj
 0001:0002c640       ?ResetStatistics@COPOSIndividualRecognition@@UEAAJPEA_WPEAJ@Z 000000018002d640 f   IndividualRecognitionImpl.obj
 0001:0002c720       ?RetrieveStatistics@COPOSIndividualRecognition@@UEAAJPEAPEA_WPEAJ@Z 000000018002d720 f   IndividualRecognitionImpl.obj
 0001:0002c800       ?UpdateStatistics@COPOSIndividualRecognition@@UEAAJPEA_WPEAJ@Z 000000018002d800 f   IndividualRecognitionImpl.obj
 0001:0002c8e0       ?CompareFirmwareVersion@COPOSIndividualRecognition@@UEAAJPEA_WPEAJ1@Z 000000018002d8e0 f   IndividualRecognitionImpl.obj
 0001:0002ca20       ?UpdateFirmware@COPOSIndividualRecognition@@UEAAJPEA_WPEAJ@Z 000000018002da20 f   IndividualRecognitionImpl.obj
 0001:0002cb00       ?ClearInputProperties@COPOSIndividualRecognition@@UEAAJPEAJ@Z 000000018002db00 f   IndividualRecognitionImpl.obj
 0001:0002cb60       ?get_CapIndividualList@COPOSIndividualRecognition@@UEAAJPEAPEA_W@Z 000000018002db60 f   IndividualRecognitionImpl.obj
 0001:0002cba0       ?get_IndividualIDs@COPOSIndividualRecognition@@UEAAJPEAPEA_W@Z 000000018002dba0 f   IndividualRecognitionImpl.obj
 0001:0002cbe0       ?get_IndividualRecognitionFilter@COPOSIndividualRecognition@@UEAAJPEAPEA_W@Z 000000018002dbe0 f   IndividualRecognitionImpl.obj
 0001:0002cc20       ?put_IndividualRecognitionFilter@COPOSIndividualRecognition@@UEAAJPEA_W@Z 000000018002dc20 f   IndividualRecognitionImpl.obj
 0001:0002cc60       ?get_IndividualRecognitionInformation@COPOSIndividualRecognition@@UEAAJPEAPEA_W@Z 000000018002dc60 f   IndividualRecognitionImpl.obj
 0001:0002cca0       ??0?$CComControl@VCOPOSIndividualRecognition@@V?$CWindowImpl@VCOPOSIndividualRecognition@@VCWindow@ATL@@V?$CWinTraits@$0FGAAAAAA@$0A@@3@@ATL@@@ATL@@QEAA@XZ 000000018002dca0 f i IndividualRecognitionImpl.obj
 0001:0002cce0       ??0?$CComPtr@UIAdviseSink@@@ATL@@QEAA@XZ 000000018002dce0 f i IndividualRecognitionImpl.obj
 0001:0002cd00       ??0?$CComPtr@UIDataAdviseHolder@@@ATL@@QEAA@XZ 000000018002dd00 f i IndividualRecognitionImpl.obj
 0001:0002cd20       ??0?$CComPtr@UIOleAdviseHolder@@@ATL@@QEAA@XZ 000000018002dd20 f i IndividualRecognitionImpl.obj
 0001:0002cd40       ??0?$CComPtr@UIOleClientSite@@@ATL@@QEAA@XZ 000000018002dd40 f i IndividualRecognitionImpl.obj
 0001:0002cd60       ??0?$CComPtr@UIOleInPlaceSiteWindowless@@@ATL@@QEAA@XZ 000000018002dd60 f i IndividualRecognitionImpl.obj
 0001:0002cd80       ??0?$CComPtrBase@UIAdviseSink@@@ATL@@IEAA@XZ 000000018002dd80 f i IndividualRecognitionImpl.obj
 0001:0002cda0       ??0?$CComPtrBase@UIDataAdviseHolder@@@ATL@@IEAA@XZ 000000018002dda0 f i IndividualRecognitionImpl.obj
 0001:0002cdc0       ??0?$CComPtrBase@UIOleAdviseHolder@@@ATL@@IEAA@XZ 000000018002ddc0 f i IndividualRecognitionImpl.obj
 0001:0002cde0       ??0?$CComPtrBase@UIOleClientSite@@@ATL@@IEAA@XZ 000000018002dde0 f i IndividualRecognitionImpl.obj
 0001:0002ce00       ??0?$CComPtrBase@UIOleInPlaceSiteWindowless@@@ATL@@IEAA@XZ 000000018002de00 f i IndividualRecognitionImpl.obj
 0001:0002ce20       ??0?$CComQIPtr@UIDispatch@@$1?_GUID_00020400_0000_0000_c000_000000000046@@3U__s_GUID@@B@ATL@@QEAA@XZ 000000018002de20 f i IndividualRecognitionImpl.obj
 0001:0002ce40       ??0?$CProxy_IOPOSEvents@VCOPOSIndividualRecognition@@@@QEAA@PEAVCOPOSIndividualRecognition@@@Z 000000018002de40 f i IndividualRecognitionImpl.obj
 0001:0002cec0       ??0?$CWindowImpl@VCOPOSIndividualRecognition@@VCWindow@ATL@@V?$CWinTraits@$0FGAAAAAA@$0A@@3@@ATL@@QEAA@XZ 000000018002dec0 f i IndividualRecognitionImpl.obj
 0001:0002cee0       ??0?$CWindowImplBaseT@VCWindow@ATL@@V?$CWinTraits@$0FGAAAAAA@$0A@@2@@ATL@@QEAA@XZ 000000018002dee0 f i IndividualRecognitionImpl.obj
 0001:0002cf10       ??0?$CWindowImplRoot@VCWindow@ATL@@@ATL@@QEAA@XZ 000000018002df10 f i IndividualRecognitionImpl.obj
 0001:0002cf70       ??0?$IConnectionPointContainerImpl@VCOPOSIndividualRecognition@@@ATL@@QEAA@XZ 000000018002df70 f i IndividualRecognitionImpl.obj
 0001:0002cf90       ??0?$IConnectionPointImpl@VCOPOSIndividualRecognition@@$1?DIID__IOPOSIndividualRecognitionEvents@@3U_GUID@@BVCComDynamicUnkArray@ATL@@@ATL@@QEAA@XZ 000000018002df90 f i IndividualRecognitionImpl.obj
 0001:0002cfc0       ??0?$IConnectionPointImpl@VCOPOSIndividualRecognition@@$1?IID_IPropertyNotifySink@@3U_GUID@@BVCComDynamicUnkArray@ATL@@@ATL@@QEAA@XZ 000000018002dfc0 f i IndividualRecognitionImpl.obj
 0001:0002cff0       ??0?$IDataObjectImpl@VCOPOSIndividualRecognition@@@ATL@@QEAA@XZ 000000018002dff0 f i IndividualRecognitionImpl.obj
 0001:0002d010       ??0?$IDispatchImpl@UIOPOSIndividualRecognition@@$1?IID_IOPOSIndividualRecognition@@3U_GUID@@B$1?LIBID_OposIndividualRecognition_CCO@@3U3@B$00$0A@VCComTypeInfoHolder@ATL@@@ATL@@QEAA@XZ 000000018002e010 f i IndividualRecognitionImpl.obj
 0001:0002d030       ??0?$IObjectSafetyImpl@VCOPOSIndividualRecognition@@$02@ATL@@QEAA@XZ 000000018002e030 f i IndividualRecognitionImpl.obj
 0001:0002d060       ??0?$IOleControlImpl@VCOPOSIndividualRecognition@@@ATL@@QEAA@XZ 000000018002e060 f i IndividualRecognitionImpl.obj
 0001:0002d080       ??0?$IOleInPlaceActiveObjectImpl@VCOPOSIndividualRecognition@@@ATL@@QEAA@XZ 000000018002e080 f i IndividualRecognitionImpl.obj
 0001:0002d0a0       ??0?$IOleInPlaceObjectWindowlessImpl@VCOPOSIndividualRecognition@@@ATL@@QEAA@XZ 000000018002e0a0 f i IndividualRecognitionImpl.obj
 0001:0002d0c0       ??0?$IOleObjectImpl@VCOPOSIndividualRecognition@@@ATL@@QEAA@XZ 000000018002e0c0 f i IndividualRecognitionImpl.obj
 0001:0002d0e0       ??0?$IPersistStorageImpl@VCOPOSIndividualRecognition@@@ATL@@QEAA@XZ 000000018002e0e0 f i IndividualRecognitionImpl.obj
 0001:0002d100       ??0?$IPersistStreamInitImpl@VCOPOSIndividualRecognition@@@ATL@@QEAA@XZ 000000018002e100 f i IndividualRecognitionImpl.obj
 0001:0002d120       ??0?$IPropertyNotifySinkCP@VCOPOSIndividualRecognition@@VCComDynamicUnkArray@ATL@@@ATL@@QEAA@XZ 000000018002e120 f i IndividualRecognitionImpl.obj
 0001:0002d140       ??0?$IProvideClassInfo2Impl@$1?CLSID_OPOSIndividualRecognition@@3U_GUID@@B$1?DIID__IOPOSIndividualRecognitionEvents@@3U2@B$1?LIBID_OposIndividualRecognition_CCO@@3U2@B$00$0A@VCComTypeInfoHolder@ATL@@@ATL@@QEAA@XZ 000000018002e140 f i IndividualRecognitionImpl.obj
 0001:0002d160       ??0?$IQuickActivateImpl@VCOPOSIndividualRecognition@@@ATL@@QEAA@XZ 000000018002e160 f i IndividualRecognitionImpl.obj
 0001:0002d180       ??0?$ISpecifyPropertyPagesImpl@VCOPOSIndividualRecognition@@@ATL@@QEAA@XZ 000000018002e180 f i IndividualRecognitionImpl.obj
 0001:0002d1a0       ??0?$IViewObjectExImpl@VCOPOSIndividualRecognition@@@ATL@@QEAA@XZ 000000018002e1a0 f i IndividualRecognitionImpl.obj
 0001:0002d1c0       ??0?$_ICPLocator@$1?DIID__IOPOSIndividualRecognitionEvents@@3U_GUID@@B@ATL@@QEAA@XZ 000000018002e1c0 f i IndividualRecognitionImpl.obj
 0001:0002d1d0       ??0?$_ICPLocator@$1?IID_IPropertyNotifySink@@3U_GUID@@B@ATL@@QEAA@XZ 000000018002e1d0 f i IndividualRecognitionImpl.obj
 0001:0002d1e0       ??0CComControlBase@ATL@@QEAA@AEAPEAUHWND__@@@Z 000000018002e1e0 f i IndividualRecognitionImpl.obj
 0001:0002d3f0       ??0CComDynamicUnkArray@ATL@@QEAA@XZ 000000018002e3f0 f i IndividualRecognitionImpl.obj
 0001:0002d420       ??0CDynamicStdCallThunk2@ATL@@QEAA@XZ 000000018002e420 f i IndividualRecognitionImpl.obj
 0001:0002d440       ??0CMessageMap@ATL@@QEAA@XZ 000000018002e440 f i IndividualRecognitionImpl.obj
 0001:0002d450       ??0CWindow@ATL@@QEAA@PEAUHWND__@@@Z 000000018002e450 f i IndividualRecognitionImpl.obj
 0001:0002d470       ??0CWndProcThunk@ATL@@QEAA@XZ 000000018002e470 f i IndividualRecognitionImpl.obj
 0001:0002d4a0       ??0IConnectionPointContainer@@QEAA@XZ 000000018002e4a0 f i IndividualRecognitionImpl.obj
 0001:0002d4c0       ??0IDataObject@@QEAA@XZ    000000018002e4c0 f i IndividualRecognitionImpl.obj
 0001:0002d4e0       ??0IDispatch@@QEAA@XZ      000000018002e4e0 f i IndividualRecognitionImpl.obj
 0001:0002d500       ??0IOPOSIndividualRecognition@@QEAA@XZ 000000018002e500 f i IndividualRecognitionImpl.obj
 0001:0002d520       ??0IOPOSIndividualRecognition_1_16@@QEAA@XZ 000000018002e520 f i IndividualRecognitionImpl.obj
 0001:0002d540       ??0IObjectSafety@@QEAA@XZ  000000018002e540 f i IndividualRecognitionImpl.obj
 0001:0002d560       ??0IOleControl@@QEAA@XZ    000000018002e560 f i IndividualRecognitionImpl.obj
 0001:0002d580       ??0IOleInPlaceActiveObject@@QEAA@XZ 000000018002e580 f i IndividualRecognitionImpl.obj
 0001:0002d5a0       ??0IOleInPlaceObject@@QEAA@XZ 000000018002e5a0 f i IndividualRecognitionImpl.obj
 0001:0002d5c0       ??0IOleInPlaceObjectWindowless@@QEAA@XZ 000000018002e5c0 f i IndividualRecognitionImpl.obj
 0001:0002d5e0       ??0IOleObject@@QEAA@XZ     000000018002e5e0 f i IndividualRecognitionImpl.obj
 0001:0002d600       ??0IOleWindow@@QEAA@XZ     000000018002e600 f i IndividualRecognitionImpl.obj
 0001:0002d620       ??0IPersist@@QEAA@XZ       000000018002e620 f i IndividualRecognitionImpl.obj
 0001:0002d640       ??0IPersistStorage@@QEAA@XZ 000000018002e640 f i IndividualRecognitionImpl.obj
 0001:0002d660       ??0IPersistStreamInit@@QEAA@XZ 000000018002e660 f i IndividualRecognitionImpl.obj
 0001:0002d680       ??0IProvideClassInfo2@@QEAA@XZ 000000018002e680 f i IndividualRecognitionImpl.obj
 0001:0002d6a0       ??0IProvideClassInfo@@QEAA@XZ 000000018002e6a0 f i IndividualRecognitionImpl.obj
 0001:0002d6c0       ??0IQuickActivate@@QEAA@XZ 000000018002e6c0 f i IndividualRecognitionImpl.obj
 0001:0002d6e0       ??0ISpecifyPropertyPages@@QEAA@XZ 000000018002e6e0 f i IndividualRecognitionImpl.obj
 0001:0002d700       ??0IViewObject2@@QEAA@XZ   000000018002e700 f i IndividualRecognitionImpl.obj
 0001:0002d720       ??0IViewObject@@QEAA@XZ    000000018002e720 f i IndividualRecognitionImpl.obj
 0001:0002d740       ??0IViewObjectEx@@QEAA@XZ  000000018002e740 f i IndividualRecognitionImpl.obj
 0001:0002d760       ??0OposVariantResult@@QEAA@XZ 000000018002e760 f i IndividualRecognitionImpl.obj
 0001:0002d780       ??0_CW@@QEAA@PEBD@Z        000000018002e780 f i IndividualRecognitionImpl.obj
 0001:0002d7d0       ??0_CW@@QEAA@PEB_W@Z       000000018002e7d0 f i IndividualRecognitionImpl.obj
 0001:0002d820       ??0_CWNCC@@QEAA@PEBD@Z     000000018002e820 f i IndividualRecognitionImpl.obj
 0001:0002d850       ??1?$CComControl@VCOPOSIndividualRecognition@@V?$CWindowImpl@VCOPOSIndividualRecognition@@VCWindow@ATL@@V?$CWinTraits@$0FGAAAAAA@$0A@@3@@ATL@@@ATL@@UEAA@XZ 000000018002e850 f i IndividualRecognitionImpl.obj
 0001:0002d880       ??1?$CComPtr@UIDataAdviseHolder@@@ATL@@QEAA@XZ 000000018002e880 f i IndividualRecognitionImpl.obj
 0001:0002d8a0       ??1?$CComPtr@UIOleAdviseHolder@@@ATL@@QEAA@XZ 000000018002e8a0 f i IndividualRecognitionImpl.obj
 0001:0002d8c0       ??1?$CComPtr@UIOleInPlaceSiteWindowless@@@ATL@@QEAA@XZ 000000018002e8c0 f i IndividualRecognitionImpl.obj
 0001:0002d8e0       ??1?$CComPtrBase@UIDataAdviseHolder@@@ATL@@QEAA@XZ 000000018002e8e0 f i IndividualRecognitionImpl.obj
 0001:0002d920       ??1?$CComPtrBase@UIOleAdviseHolder@@@ATL@@QEAA@XZ 000000018002e920 f i IndividualRecognitionImpl.obj
 0001:0002d960       ??1?$CComPtrBase@UIOleInPlaceSiteWindowless@@@ATL@@QEAA@XZ 000000018002e960 f i IndividualRecognitionImpl.obj
 0001:0002d9a0       ??1?$CComQIPtr@UIDispatch@@$1?_GUID_00020400_0000_0000_c000_000000000046@@3U__s_GUID@@B@ATL@@QEAA@XZ 000000018002e9a0 f i IndividualRecognitionImpl.obj
 0001:0002d9c0       ??1?$CProxy_IOPOSEvents@VCOPOSIndividualRecognition@@@@QEAA@XZ 000000018002e9c0 f i IndividualRecognitionImpl.obj
 0001:0002d9e0       ??1?$CWindowImpl@VCOPOSIndividualRecognition@@VCWindow@ATL@@V?$CWinTraits@$0FGAAAAAA@$0A@@3@@ATL@@UEAA@XZ 000000018002e9e0 f i IndividualRecognitionImpl.obj
 0001:0002da00       ??1?$CWindowImplBaseT@VCWindow@ATL@@V?$CWinTraits@$0FGAAAAAA@$0A@@2@@ATL@@UEAA@XZ 000000018002ea00 f i IndividualRecognitionImpl.obj
 0001:0002da20       ??1?$CWindowImplRoot@VCWindow@ATL@@@ATL@@UEAA@XZ 000000018002ea20 f i IndividualRecognitionImpl.obj
 0001:0002dad0       ??1?$IConnectionPointImpl@VCOPOSIndividualRecognition@@$1?DIID__IOPOSIndividualRecognitionEvents@@3U_GUID@@BVCComDynamicUnkArray@ATL@@@ATL@@QEAA@XZ 000000018002ead0 f i IndividualRecognitionImpl.obj
 0001:0002db50       ??1?$IConnectionPointImpl@VCOPOSIndividualRecognition@@$1?IID_IPropertyNotifySink@@3U_GUID@@BVCComDynamicUnkArray@ATL@@@ATL@@QEAA@XZ 000000018002eb50 f i IndividualRecognitionImpl.obj
 0001:0002dbd0       ??1?$IPropertyNotifySinkCP@VCOPOSIndividualRecognition@@VCComDynamicUnkArray@ATL@@@ATL@@QEAA@XZ 000000018002ebd0 f i IndividualRecognitionImpl.obj
 0001:0002dbf0       ??1CComControlBase@ATL@@UEAA@XZ 000000018002ebf0 f i IndividualRecognitionImpl.obj
 0001:0002dcd0       ??1CComDynamicUnkArray@ATL@@QEAA@XZ 000000018002ecd0 f i IndividualRecognitionImpl.obj
 0001:0002dd00       ??1CDynamicStdCallThunk2@ATL@@QEAA@XZ 000000018002ed00 f i IndividualRecognitionImpl.obj
 0001:0002dd30       ??1CWndProcThunk@ATL@@QEAA@XZ 000000018002ed30 f i IndividualRecognitionImpl.obj
 0001:0002dd60       ??1OposVariantResult@@QEAA@XZ 000000018002ed60 f i IndividualRecognitionImpl.obj
 0001:0002dd90       ??1_CW@@QEAA@XZ            000000018002ed90 f i IndividualRecognitionImpl.obj
 0001:0002ddf0       ??1_CWNCC@@QEAA@XZ         000000018002edf0 f i IndividualRecognitionImpl.obj
 0001:0002de10       ??B_CW@@QEAAPEB_WXZ        000000018002ee10 f i IndividualRecognitionImpl.obj
 0001:0002de40       ??B_CWNCC@@QEAAPEA_WXZ     000000018002ee40 f i IndividualRecognitionImpl.obj
 0001:0002de60       ??_EOposVariant@@QEAAPEAXI@Z 000000018002ee60 f i IndividualRecognitionImpl.obj
 0001:0002df00       ?EventClaim@COPOSIndividualRecognition@@IEAAXXZ 000000018002ef00 f i IndividualRecognitionImpl.obj
 0001:0002df30       ?EventClose@COPOSIndividualRecognition@@IEAAXXZ 000000018002ef30 f i IndividualRecognitionImpl.obj
 0001:0002dfd0       ?EventInit@COPOSIndividualRecognition@@IEAAJXZ 000000018002efd0 f i IndividualRecognitionImpl.obj
 0001:0002e280       ?EventOpen@COPOSIndividualRecognition@@IEAAXXZ 000000018002f280 f i IndividualRecognitionImpl.obj
 0001:0002e2c0       ?EventPreCloseRelease@COPOSIndividualRecognition@@IEAAXXZ 000000018002f2c0 f i IndividualRecognitionImpl.obj
 0001:0002e330       ?EventUninit@COPOSIndividualRecognition@@IEAAXXZ 000000018002f330 f i IndividualRecognitionImpl.obj
 0001:0002e450       ?EventWindowProc@COPOSIndividualRecognition@@IEAA_JI_K_J@Z 000000018002f450 f i IndividualRecognitionImpl.obj
 0001:0002e610       ?FireEventCleanup@COPOSIndividualRecognition@@IEAAXXZ 000000018002f610 f i IndividualRecognitionImpl.obj
 0001:0002e650       ?FireEventSetup@COPOSIndividualRecognition@@IEAA_NXZ 000000018002f650 f i IndividualRecognitionImpl.obj
 0001:0002e6c0       ?GetModuleInstance@CComModule@ATL@@QEAAPEAUHINSTANCE__@@XZ 000000018002f6c0 f i IndividualRecognitionImpl.obj
 0001:0002e6d0       ?SetRC@COPOSIndividualRecognition@@IEAAJJ@Z 000000018002f6d0 f i IndividualRecognitionImpl.obj
 0001:0002e6f0       ?s_EventWindowProc@COPOSIndividualRecognition@@KA_JPEAUHWND__@@I_K_J@Z 000000018002f6f0 f i IndividualRecognitionImpl.obj
 0001:0002e790       _snwprintf                 000000018002f790 f i IndividualRecognitionImpl.obj
 0001:0002e820       _vfwprintf_l               000000018002f820 f i IndividualRecognitionImpl.obj
 0001:0002e870       _vsnwprintf                000000018002f870 f i IndividualRecognitionImpl.obj
 0001:0002e8b0       _vsnwprintf_l              000000018002f8b0 f i IndividualRecognitionImpl.obj
 0001:0002e930       vfwprintf                  000000018002f930 f i IndividualRecognitionImpl.obj
 0001:0002e961       DebugBreak                 000000018002f961 f   kernel32:KERNEL32.dll
 0001:0002e967       Sleep                      000000018002f967 f   kernel32:KERNEL32.dll
 0001:0002e96d       GetCurrentProcess          000000018002f96d f   kernel32:KERNEL32.dll
 0001:0002e973       TerminateProcess           000000018002f973 f   kernel32:KERNEL32.dll
 0001:0002e979       MultiByteToWideChar        000000018002f979 f   kernel32:KERNEL32.dll
 0001:0002e97f       WideCharToMultiByte        000000018002f97f f   kernel32:KERNEL32.dll
 0001:0002e985       DecodePointer              000000018002f985 f   kernel32:KERNEL32.dll
 0001:0002e98b       RaiseException             000000018002f98b f   kernel32:KERNEL32.dll
 0001:0002e991       GetLastError               000000018002f991 f   kernel32:KERNEL32.dll
 0001:0002e997       SetLastError               000000018002f997 f   kernel32:KERNEL32.dll
 0001:0002e99d       InitializeCriticalSectionEx 000000018002f99d f   kernel32:KERNEL32.dll
 0001:0002e9a3       DeleteCriticalSection      000000018002f9a3 f   kernel32:KERNEL32.dll
 0001:0002e9a9       EncodePointer              000000018002f9a9 f   kernel32:KERNEL32.dll
 0001:0002e9af       EnterCriticalSection       000000018002f9af f   kernel32:KERNEL32.dll
 0001:0002e9b5       LeaveCriticalSection       000000018002f9b5 f   kernel32:KERNEL32.dll
 0001:0002e9bb       ResetEvent                 000000018002f9bb f   kernel32:KERNEL32.dll
 0001:0002e9c1       ReleaseMutex               000000018002f9c1 f   kernel32:KERNEL32.dll
 0001:0002e9c7       WaitForSingleObject        000000018002f9c7 f   kernel32:KERNEL32.dll
 0001:0002e9cd       GetCurrentThreadId         000000018002f9cd f   kernel32:KERNEL32.dll
 0001:0002e9d3       DisableThreadLibraryCalls  000000018002f9d3 f   kernel32:KERNEL32.dll
 0001:0002e9d9       FreeLibrary                000000018002f9d9 f   kernel32:KERNEL32.dll
 0001:0002e9df       GetModuleFileNameW         000000018002f9df f   kernel32:KERNEL32.dll
 0001:0002e9e5       GetModuleHandleW           000000018002f9e5 f   kernel32:KERNEL32.dll
 0001:0002e9eb       GetProcAddress             000000018002f9eb f   kernel32:KERNEL32.dll
 0001:0002e9f1       LoadLibraryExW             000000018002f9f1 f   kernel32:KERNEL32.dll
 0001:0002e9f7       LoadResource               000000018002f9f7 f   kernel32:KERNEL32.dll
 0001:0002e9fd       SizeofResource             000000018002f9fd f   kernel32:KERNEL32.dll
 0001:0002ea03       FindResourceW              000000018002fa03 f   kernel32:KERNEL32.dll
 0001:0002ea09       GlobalAlloc                000000018002fa09 f   kernel32:KERNEL32.dll
 0001:0002ea0f       GlobalUnlock               000000018002fa0f f   kernel32:KERNEL32.dll
 0001:0002ea15       GlobalLock                 000000018002fa15 f   kernel32:KERNEL32.dll
 0001:0002ea1b       MulDiv                     000000018002fa1b f   kernel32:KERNEL32.dll
 0001:0002ea21       lstrcmpiW                  000000018002fa21 f   kernel32:KERNEL32.dll
 0001:0002ea27       DeleteFileW                000000018002fa27 f   kernel32:KERNEL32.dll
 0001:0002ea2d       CloseHandle                000000018002fa2d f   kernel32:KERNEL32.dll
 0001:0002ea33       SetEvent                   000000018002fa33 f   kernel32:KERNEL32.dll
 0001:0002ea39       CreateMutexW               000000018002fa39 f   kernel32:KERNEL32.dll
 0001:0002ea3f       CreateEventW               000000018002fa3f f   kernel32:KERNEL32.dll
 0001:0002ea45       GetCurrentProcessId        000000018002fa45 f   kernel32:KERNEL32.dll
 0001:0002ea4b       LocalFree                  000000018002fa4b f   kernel32:KERNEL32.dll
 0001:0002ea51       FormatMessageW             000000018002fa51 f   kernel32:KERNEL32.dll
 0001:0002ea57       GetActiveWindow            000000018002fa57 f   user32:USER32.dll
 0001:0002ea5d       MessageBoxW                000000018002fa5d f   user32:USER32.dll
 0001:0002ea63       UnregisterClassW           000000018002fa63 f   user32:USER32.dll
 0001:0002ea69       PostMessageW               000000018002fa69 f   user32:USER32.dll
 0001:0002ea6f       DefWindowProcW             000000018002fa6f f   user32:USER32.dll
 0001:0002ea75       CallWindowProcW            000000018002fa75 f   user32:USER32.dll
 0001:0002ea7b       RegisterClassExW           000000018002fa7b f   user32:USER32.dll
 0001:0002ea81       GetClassInfoExW            000000018002fa81 f   user32:USER32.dll
 0001:0002ea87       CreateWindowExW            000000018002fa87 f   user32:USER32.dll
 0001:0002ea8d       IsWindow                   000000018002fa8d f   user32:USER32.dll
 0001:0002ea93       IsChild                    000000018002fa93 f   user32:USER32.dll
 0001:0002ea99       DestroyWindow              000000018002fa99 f   user32:USER32.dll
 0001:0002ea9f       ShowWindow                 000000018002fa9f f   user32:USER32.dll
 0001:0002eaa5       SetWindowPos               000000018002faa5 f   user32:USER32.dll
 0001:0002eaab       CharNextW                  000000018002faab f   user32:USER32.dll
 0001:0002eab1       SetFocus                   000000018002fab1 f   user32:USER32.dll
 0001:0002eab7       GetFocus                   000000018002fab7 f   user32:USER32.dll
 0001:0002eabd       GetKeyState                000000018002fabd f   user32:USER32.dll
 0001:0002eac3       GetDC                      000000018002fac3 f   user32:USER32.dll
 0001:0002eac9       ReleaseDC                  000000018002fac9 f   user32:USER32.dll
 0001:0002eacf       BeginPaint                 000000018002facf f   user32:USER32.dll
 0001:0002ead5       EndPaint                   000000018002fad5 f   user32:USER32.dll
 0001:0002eadb       SetWindowRgn               000000018002fadb f   user32:USER32.dll
 0001:0002eae1       InvalidateRect             000000018002fae1 f   user32:USER32.dll
 0001:0002eae7       GetClientRect              000000018002fae7 f   user32:USER32.dll
 0001:0002eaed       IntersectRect              000000018002faed f   user32:USER32.dll
 0001:0002eaf3       UnionRect                  000000018002faf3 f   user32:USER32.dll
 0001:0002eaf9       OffsetRect                 000000018002faf9 f   user32:USER32.dll
 0001:0002eaff       EqualRect                  000000018002faff f   user32:USER32.dll
 0001:0002eb05       PtInRect                   000000018002fb05 f   user32:USER32.dll
 0001:0002eb0b       GetWindowLongPtrW          000000018002fb0b f   user32:USER32.dll
 0001:0002eb11       SetWindowLongPtrW          000000018002fb11 f   user32:USER32.dll
 0001:0002eb17       GetParent                  000000018002fb17 f   user32:USER32.dll
 0001:0002eb1d       LoadCursorW                000000018002fb1d f   user32:USER32.dll
 0001:0002eb23       PeekMessageW               000000018002fb23 f   user32:USER32.dll
 0001:0002eb29       RegisterClassW             000000018002fb29 f   user32:USER32.dll
 0001:0002eb2f       LoadBitmapW                000000018002fb2f f   user32:USER32.dll
 0001:0002eb35       CloseMetaFile              000000018002fb35 f   gdi32:GDI32.dll
 0001:0002eb3b       CreateDCW                  000000018002fb3b f   gdi32:GDI32.dll
 0001:0002eb41       CreateMetaFileW            000000018002fb41 f   gdi32:GDI32.dll
 0001:0002eb47       CreateRectRgnIndirect      000000018002fb47 f   gdi32:GDI32.dll
 0001:0002eb4d       DeleteDC                   000000018002fb4d f   gdi32:GDI32.dll
 0001:0002eb53       DeleteMetaFile             000000018002fb53 f   gdi32:GDI32.dll
 0001:0002eb59       GetDeviceCaps              000000018002fb59 f   gdi32:GDI32.dll
 0001:0002eb5f       RestoreDC                  000000018002fb5f f   gdi32:GDI32.dll
 0001:0002eb65       SaveDC                     000000018002fb65 f   gdi32:GDI32.dll
 0001:0002eb6b       SetMapMode                 000000018002fb6b f   gdi32:GDI32.dll
 0001:0002eb71       LPtoDP                     000000018002fb71 f   gdi32:GDI32.dll
 0001:0002eb77       SetViewportOrgEx           000000018002fb77 f   gdi32:GDI32.dll
 0001:0002eb7d       SetWindowExtEx             000000018002fb7d f   gdi32:GDI32.dll
 0001:0002eb83       SetWindowOrgEx             000000018002fb83 f   gdi32:GDI32.dll
 0001:0002eb89       BitBlt                     000000018002fb89 f   gdi32:GDI32.dll
 0001:0002eb8f       CreateCompatibleDC         000000018002fb8f f   gdi32:GDI32.dll
 0001:0002eb95       DeleteObject               000000018002fb95 f   gdi32:GDI32.dll
 0001:0002eb9b       SelectObject               000000018002fb9b f   gdi32:GDI32.dll
 0001:0002eba1       GetObjectW                 000000018002fba1 f   gdi32:GDI32.dll
 0001:0002eba7       RegCloseKey                000000018002fba7 f   advapi32:ADVAPI32.dll
 0001:0002ebad       RegCreateKeyExW            000000018002fbad f   advapi32:ADVAPI32.dll
 0001:0002ebb3       RegDeleteKeyW              000000018002fbb3 f   advapi32:ADVAPI32.dll
 0001:0002ebb9       RegDeleteValueW            000000018002fbb9 f   advapi32:ADVAPI32.dll
 0001:0002ebbf       RegEnumKeyExW              000000018002fbbf f   advapi32:ADVAPI32.dll
 0001:0002ebc5       RegOpenKeyExW              000000018002fbc5 f   advapi32:ADVAPI32.dll
 0001:0002ebcb       RegQueryInfoKeyW           000000018002fbcb f   advapi32:ADVAPI32.dll
 0001:0002ebd1       RegSetValueExW             000000018002fbd1 f   advapi32:ADVAPI32.dll
 0001:0002ebd7       RegQueryValueExW           000000018002fbd7 f   advapi32:ADVAPI32.dll
 0001:0002ebdd       CoCreateInstance           000000018002fbdd f   ole32:ole32.dll
 0001:0002ebe3       StringFromGUID2            000000018002fbe3 f   ole32:ole32.dll
 0001:0002ebe9       CoTaskMemAlloc             000000018002fbe9 f   ole32:ole32.dll
 0001:0002ebef       CoTaskMemRealloc           000000018002fbef f   ole32:ole32.dll
 0001:0002ebf5       CoTaskMemFree              000000018002fbf5 f   ole32:ole32.dll
 0001:0002ebfb       ReadClassStm               000000018002fbfb f   ole32:ole32.dll
 0001:0002ec01       WriteClassStm              000000018002fc01 f   ole32:ole32.dll
 0001:0002ec07       CreateDataAdviseHolder     000000018002fc07 f   ole32:ole32.dll
 0001:0002ec0d       OleSaveToStream            000000018002fc0d f   ole32:ole32.dll
 0001:0002ec13       CreateOleAdviseHolder      000000018002fc13 f   ole32:ole32.dll
 0001:0002ec19       OleRegGetUserType          000000018002fc19 f   ole32:ole32.dll
 0001:0002ec1f       OleRegGetMiscStatus        000000018002fc1f f   ole32:ole32.dll
 0001:0002ec25       OleRegEnumVerbs            000000018002fc25 f   ole32:ole32.dll
 0001:0002ec2b       CLSIDFromProgID            000000018002fc2b f   ole32:ole32.dll
 0001:0002ec31       SysAllocString             000000018002fc31 f   oleaut32:OLEAUT32.dll
 0001:0002ec37       SysAllocStringLen          000000018002fc37 f   oleaut32:OLEAUT32.dll
 0001:0002ec3d       SysFreeString              000000018002fc3d f   oleaut32:OLEAUT32.dll
 0001:0002ec43       SysStringLen               000000018002fc43 f   oleaut32:OLEAUT32.dll
 0001:0002ec49       VariantClear               000000018002fc49 f   oleaut32:OLEAUT32.dll
 0001:0002ec4f       VariantCopyInd             000000018002fc4f f   oleaut32:OLEAUT32.dll
 0001:0002ec55       VariantChangeType          000000018002fc55 f   oleaut32:OLEAUT32.dll
 0001:0002ec5b       SysStringByteLen           000000018002fc5b f   oleaut32:OLEAUT32.dll
 0001:0002ec61       SysAllocStringByteLen      000000018002fc61 f   oleaut32:OLEAUT32.dll
 0001:0002ec67       VariantInit                000000018002fc67 f   oleaut32:OLEAUT32.dll
 0001:0002ec6d       VarUI4FromStr              000000018002fc6d f   oleaut32:OLEAUT32.dll
 0001:0002ec73       LoadTypeLib                000000018002fc73 f   oleaut32:OLEAUT32.dll
 0001:0002ec79       LoadRegTypeLib             000000018002fc79 f   oleaut32:OLEAUT32.dll
 0001:0002ec7f       RegisterTypeLib            000000018002fc7f f   oleaut32:OLEAUT32.dll
 0001:0002ec85       UnRegisterTypeLib          000000018002fc85 f   oleaut32:OLEAUT32.dll
 0001:0002ec8b       OleCreatePropertyFrame     000000018002fc8b f   oleaut32:OLEAUT32.dll
 0001:0002eca0       _RTC_AllocaHelper          000000018002fca0 f   LIBCMTD:stack.obj
 0001:0002ece0       _RTC_CheckStackVars        000000018002fce0 f   LIBCMTD:stack.obj
 0001:0002ed70       _RTC_CheckStackVars2       000000018002fd70 f   LIBCMTD:stack.obj
 0001:0002ee80       _CRT_RTC_INIT              000000018002fe80 f   LIBCMTD:init.obj
 0001:0002ee90       _CRT_RTC_INITW             000000018002fe90 f   LIBCMTD:init.obj
 0001:0002eea0       _RTC_InitBase              000000018002fea0 f   LIBCMTD:init.obj
 0001:0002eee0       _RTC_Shutdown              000000018002fee0 f   LIBCMTD:init.obj
 0001:0002ef10       __GSHandlerCheck           000000018002ff10 f   LIBCMTD:gshandler.obj
 0001:0002ef50       __GSHandlerCheckCommon     000000018002ff50 f   LIBCMTD:gshandler.obj
 0001:0002f060       __security_check_cookie    0000000180030060 f   LIBCMTD:amdsecgs.obj
 0001:0002f080       ??_U@YAPEAX_K@Z            0000000180030080 f   LIBCMTD:new_array.obj
 0001:0002f0a0       ??3@YAXPEAX_K@Z            00000001800300a0 f   LIBCMTD:delete_scalar_size.obj
 0001:0002f0c0       ??_V@YAXPEAX@Z             00000001800300c0 f   LIBCMTD:delete_array.obj
 0001:0002f0e0       ??_V@YAXPEAX_K@Z           00000001800300e0 f   LIBCMTD:delete_array_size.obj
 0001:0002f100       ?configure_argv@__scrt_narrow_argv_policy@@SAHXZ 0000000180030100 f i LIBCMTD:utility.obj
 0001:0002f1f0       ?initialize_environment@__scrt_narrow_environment_policy@@SAHXZ 00000001800301f0 f i LIBCMTD:utility.obj
 0001:0002f290       NtCurrentTeb               0000000180030290 f i LIBCMTD:utility.obj
 0001:0002f2a0       __scrt_acquire_startup_lock 00000001800302a0 f   LIBCMTD:utility.obj
 0001:0002f310       __scrt_dllmain_after_initialize_c 0000000180030310 f   LIBCMTD:utility.obj
 0001:0002f340       __scrt_dllmain_before_initialize_c 0000000180030340 f   LIBCMTD:utility.obj
 0001:0002f360       __scrt_dllmain_crt_thread_attach 0000000180030360 f   LIBCMTD:utility.obj
 0001:0002f390       __scrt_dllmain_crt_thread_detach 0000000180030390 f   LIBCMTD:utility.obj
 0001:0002f3b0       __scrt_dllmain_exception_filter 00000001800303b0 f   LIBCMTD:utility.obj
 0001:0002f420       __scrt_dllmain_uninitialize_c 0000000180030420 f   LIBCMTD:utility.obj
 0001:0002f450       __scrt_dllmain_uninitialize_critical 0000000180030450 f   LIBCMTD:utility.obj
 0001:0002f470       __scrt_initialize_crt      0000000180030470 f   LIBCMTD:utility.obj
 0001:0002f4c0       __scrt_initialize_onexit_tables 00000001800304c0 f   LIBCMTD:utility.obj
 0001:0002f5d0       __scrt_is_nonwritable_in_current_image 00000001800305d0 f   LIBCMTD:utility.obj
 0001:0002f660       __scrt_release_startup_lock 0000000180030660 f   LIBCMTD:utility.obj
 0001:0002f690       __scrt_uninitialize_crt    0000000180030690 f   LIBCMTD:utility.obj
 0001:0002f6d0       _onexit                    00000001800306d0 f   LIBCMTD:utility.obj
 0001:0002f750       at_quick_exit              0000000180030750 f   LIBCMTD:utility.obj
 0001:0002f7a0       atexit                     00000001800307a0 f   LIBCMTD:utility.obj
 0001:0002f7e0       ??3@YAXPEAX@Z              00000001800307e0 f   LIBCMTD:delete_scalar.obj
 0001:0002f800       __raise_securityfailure    0000000180030800 f   LIBCMTD:gs_report.obj
 0001:0002f840       __report_gsfailure         0000000180030840 f   LIBCMTD:gs_report.obj
 0001:0002f920       __report_rangecheckfailure 0000000180030920 f   LIBCMTD:gs_report.obj
 0001:0002f940       __report_securityfailure   0000000180030940 f   LIBCMTD:gs_report.obj
 0001:0002f9e0       __report_securityfailureEx 00000001800309e0 f   LIBCMTD:gs_report.obj
 0001:0002fda0       _Init_thread_abort         0000000180030da0 f   LIBCMTD:thread_safe_statics.obj
 0001:0002fdd0       _Init_thread_footer        0000000180030dd0 f   LIBCMTD:thread_safe_statics.obj
 0001:0002fe30       _Init_thread_header        0000000180030e30 f   LIBCMTD:thread_safe_statics.obj
 0001:0002fec0       _Init_thread_lock          0000000180030ec0 f   LIBCMTD:thread_safe_statics.obj
 0001:0002fee0       _Init_thread_notify        0000000180030ee0 f   LIBCMTD:thread_safe_statics.obj
 0001:0002ff40       _Init_thread_unlock        0000000180030f40 f   LIBCMTD:thread_safe_statics.obj
 0001:0002ff60       _Init_thread_wait          0000000180030f60 f   LIBCMTD:thread_safe_statics.obj
 0001:00030010       ??2@YAPEAX_KAEBUnothrow_t@std@@@Z 0000000180031010 f   LIBCMTD:new_scalar_nothrow.obj
 0001:00030050       ??_U@YAPEAX_KAEBUnothrow_t@std@@@Z 0000000180031050 f   LIBCMTD:new_array_nothrow.obj
 0001:00030080       __GSHandlerCheck_SEH       0000000180031080 f   LIBCMTD:gshandlerseh.obj
 0001:00030150       _alloca_probe              0000000180031150 f   LIBCMTD:chkstk.obj
 0001:00030150       __chkstk                   0000000180031150 f   LIBCMTD:chkstk.obj
 0001:000305b0       _CRT_INIT                  00000001800315b0 f   LIBCMTD:dll_dllmain.obj
 0001:000305e0       _DllMainCRTStartup         00000001800315e0 f   LIBCMTD:dll_dllmain.obj
 0001:000306b0       ?_RTC_AllocaFailure@@YAXPEAXPEAU_RTC_ALLOCA_NODE@@H@Z 00000001800316b0 f   LIBCMTD:error.obj
 0001:00030810       ?_RTC_Failure@@YAXPEAXH@Z  0000000180031810 f   LIBCMTD:error.obj
 0001:00030860       ?_RTC_StackFailure@@YAXPEAXPEBD@Z 0000000180031860 f   LIBCMTD:error.obj
 0001:00030c90       _RTC_UninitUse             0000000180031c90 f   LIBCMTD:error.obj
 0001:00030d60       _vsprintf_s_l              0000000180031d60 f i LIBCMTD:error.obj
 0001:00030dd0       sprintf_s                  0000000180031dd0 f i LIBCMTD:error.obj
 0001:00030e00       ?_RTC_GetErrorFunc@@YAP6AHHPEBDH00ZZPEBX@Z 0000000180031e00 f   LIBCMTD:userapi.obj
 0001:00030e10       ?_RTC_GetErrorFuncW@@YAP6AHHPEB_WH00ZZPEBX@Z 0000000180031e10 f   LIBCMTD:userapi.obj
 0001:00030e20       _RTC_GetErrDesc            0000000180031e20 f   LIBCMTD:userapi.obj
 0001:00030e40       _RTC_NumErrors             0000000180031e40 f   LIBCMTD:userapi.obj
 0001:00030e50       _RTC_SetErrorFunc          0000000180031e50 f   LIBCMTD:userapi.obj
 0001:00030e70       _RTC_SetErrorFuncW         0000000180031e70 f   LIBCMTD:userapi.obj
 0001:00030e90       _RTC_SetErrorType          0000000180031e90 f   LIBCMTD:userapi.obj
 0001:00030eb0       ??2@YAPEAX_K@Z             0000000180031eb0 f   LIBCMTD:new_scalar.obj
 0001:00030f00       __isa_available_init       0000000180031f00 f   LIBCMTD:cpu_disp.obj
 0001:000312a0       _get_startup_argv_mode     00000001800322a0 f   LIBCMTD:argv_mode.obj
 0001:000312b0       __scrt_is_ucrt_dll_in_use  00000001800322b0 f   LIBCMTD:ucrt_detection.obj
 0001:000312e0       __crt_debugger_hook        00000001800322e0 f   LIBCMTD:utility_desktop.obj
 0001:000312f0       __scrt_fastfail            00000001800322f0 f   LIBCMTD:utility_desktop.obj
 0001:00031490       __scrt_get_show_window_mode 0000000180032490 f   LIBCMTD:utility_desktop.obj
 0001:000314f0       __scrt_initialize_mta      00000001800324f0 f   LIBCMTD:utility_desktop.obj
 0001:00031500       __scrt_initialize_winrt    0000000180032500 f   LIBCMTD:utility_desktop.obj
 0001:00031510       __scrt_is_managed_app      0000000180032510 f   LIBCMTD:utility_desktop.obj
 0001:000315c0       __scrt_set_unhandled_exception_filter 00000001800325c0 f   LIBCMTD:utility_desktop.obj
 0001:000315e0       __scrt_exe_initialize_mta  00000001800325e0 f   LIBCMTD:utility_desktop.obj
 0001:000315e0       __scrt_stub_for_initialize_mta 00000001800325e0 f   LIBCMTD:utility_desktop.obj
 0001:000315f0       __scrt_unhandled_exception_filter 00000001800325f0 f   LIBCMTD:utility_desktop.obj
 0001:00031690       _guard_check_icall_nop     0000000180032690 f i LIBCMTD:guard_support.obj
 0001:000316a0       ReadNoFence64              00000001800326a0 f i LIBCMTD:guard_support.obj
 0001:000316c0       ReadPointerNoFence         00000001800326c0 f i LIBCMTD:guard_support.obj
 0001:000316e0       __castguard_check_failure_debugbreak 00000001800326e0 f i LIBCMTD:guard_support.obj
 0001:00031700       __castguard_check_failure_fastfail 0000000180032700 f i LIBCMTD:guard_support.obj
 0001:00031730       __castguard_check_failure_nop 0000000180032730 f i LIBCMTD:guard_support.obj
 0001:00031740       __castguard_check_failure_os_handled 0000000180032740 f i LIBCMTD:guard_support.obj
 0001:00031810       __castguard_slow_path_check_debugbreak 0000000180032810 f i LIBCMTD:guard_support.obj
 0001:00031850       __castguard_slow_path_check_fastfail 0000000180032850 f i LIBCMTD:guard_support.obj
 0001:000318a0       __castguard_slow_path_check_nop 00000001800328a0 f i LIBCMTD:guard_support.obj
 0001:000318b0       __castguard_slow_path_check_os_handled 00000001800328b0 f i LIBCMTD:guard_support.obj
 0001:00031970       _guard_icall_checks_enforced 0000000180032970 f i LIBCMTD:guard_support.obj
 0001:000319b0       _guard_rf_checks_enforced  00000001800329b0 f i LIBCMTD:guard_support.obj
 0001:00031a80       __security_init_cookie     0000000180032a80 f   LIBCMTD:gs_support.obj
 0001:00031b00       ?__scrt_initialize_type_info@@YAXXZ 0000000180032b00 f   LIBCMTD:tncleanup.obj
 0001:00031b20       ?__scrt_uninitialize_type_info@@YAXXZ 0000000180032b20 f   LIBCMTD:tncleanup.obj
 0001:00031b40       __local_stdio_scanf_options 0000000180032b40 f i LIBCMTD:default_local_stdio_options.obj
 0001:00031b50       __scrt_initialize_default_local_stdio_options 0000000180032b50 f   LIBCMTD:default_local_stdio_options.obj
 0001:00031ba0       __scrt_get_dyn_tls_init_callback 0000000180032ba0 f   LIBCMTD:dyn_tls_init.obj
 0001:00031bb0       _RTC_Initialize            0000000180032bb0 f   LIBCMTD:initsect.obj
 0001:00031c00       _RTC_Terminate             0000000180032c00 f   LIBCMTD:initsect.obj
 0001:00032170       ?_RTC_GetSrcLine@@YAHPEAEPEA_WKPEAH1K@Z 0000000180033170 f   LIBCMTD:pdblkup.obj
 0001:00032540       ??0bad_alloc@std@@AEAA@QEBD@Z 0000000180033540 f i LIBCMTD:throw_bad_alloc.obj
 0001:00032580       ??0bad_alloc@std@@QEAA@AEBV01@@Z 0000000180033580 f i LIBCMTD:throw_bad_alloc.obj
 0001:000325c0       ??0bad_alloc@std@@QEAA@XZ  00000001800335c0 f i LIBCMTD:throw_bad_alloc.obj
 0001:00032600       ??0bad_array_new_length@std@@QEAA@AEBV01@@Z 0000000180033600 f i LIBCMTD:throw_bad_alloc.obj
 0001:00032640       ??0bad_array_new_length@std@@QEAA@XZ 0000000180033640 f i LIBCMTD:throw_bad_alloc.obj
 0001:00032680       ??0exception@std@@QEAA@AEBV01@@Z 0000000180033680 f i LIBCMTD:throw_bad_alloc.obj
 0001:000326e0       ??0exception@std@@QEAA@QEBDH@Z 00000001800336e0 f i LIBCMTD:throw_bad_alloc.obj
 0001:00032730       ??1bad_alloc@std@@UEAA@XZ  0000000180033730 f i LIBCMTD:throw_bad_alloc.obj
 0001:00032750       ??1bad_array_new_length@std@@UEAA@XZ 0000000180033750 f i LIBCMTD:throw_bad_alloc.obj
 0001:00032770       ??1exception@std@@UEAA@XZ  0000000180033770 f i LIBCMTD:throw_bad_alloc.obj
 0001:000327a0       ??_Ebad_alloc@std@@UEAAPEAXI@Z 00000001800337a0 f i LIBCMTD:throw_bad_alloc.obj
 0001:000327a0       ??_Gbad_alloc@std@@UEAAPEAXI@Z 00000001800337a0 f i LIBCMTD:throw_bad_alloc.obj
 0001:000327e0       ??_Ebad_array_new_length@std@@UEAAPEAXI@Z 00000001800337e0 f i LIBCMTD:throw_bad_alloc.obj
 0001:000327e0       ??_Gbad_array_new_length@std@@UEAAPEAXI@Z 00000001800337e0 f i LIBCMTD:throw_bad_alloc.obj
 0001:00032820       ??_Eexception@std@@UEAAPEAXI@Z 0000000180033820 f i LIBCMTD:throw_bad_alloc.obj
 0001:00032820       ??_Gexception@std@@UEAAPEAXI@Z 0000000180033820 f i LIBCMTD:throw_bad_alloc.obj
 0001:00032860       ?__scrt_throw_std_bad_alloc@@YAXXZ 0000000180033860 f   LIBCMTD:throw_bad_alloc.obj
 0001:00032890       ?__scrt_throw_std_bad_array_new_length@@YAXXZ 0000000180033890 f   LIBCMTD:throw_bad_alloc.obj
 0001:000328c0       ?what@exception@std@@UEBAPEBDXZ 00000001800338c0 f i LIBCMTD:throw_bad_alloc.obj
 0001:00032900       ??1type_info@@UEAA@XZ      0000000180033900 f   LIBCMTD:std_type_info_static.obj
 0001:00032920       ??_Etype_info@@UEAAPEAXI@Z 0000000180033920 f i LIBCMTD:std_type_info_static.obj
 0001:00032920       ??_Gtype_info@@UEAAPEAXI@Z 0000000180033920 f i LIBCMTD:std_type_info_static.obj
 0001:0003295c       ??$?2PEAUHINSTANCE__@@@Wrapper@?$CSimpleArray@PEAUHINSTANCE__@@V?$CSimpleArrayEqualHelper@PEAUHINSTANCE__@@@ATL@@@ATL@@SAPEAX_KPEAPEAUHINSTANCE__@@@Z 000000018003395c f i atls:atlbase.obj
 0001:00032960       ??0?$CSimpleArray@PEAUHINSTANCE__@@V?$CSimpleArrayEqualHelper@PEAUHINSTANCE__@@@ATL@@@ATL@@QEAA@XZ 0000000180033960 f i atls:atlbase.obj
 0001:00032970       ??0CAtlBaseModule@ATL@@QEAA@XZ 0000000180033970 f   atls:atlbase.obj
 0001:00032a18       ??0Wrapper@?$CSimpleArray@PEAUHINSTANCE__@@V?$CSimpleArrayEqualHelper@PEAUHINSTANCE__@@@ATL@@@ATL@@QEAA@AEBQEAUHINSTANCE__@@@Z 0000000180033a18 f i atls:atlbase.obj
 0001:00032a24       ??0_ATL_BASE_MODULE70@ATL@@QEAA@XZ 0000000180033a24 f i atls:atlbase.obj
 0001:00032a50       ??1?$CSimpleArray@PEAUHINSTANCE__@@V?$CSimpleArrayEqualHelper@PEAUHINSTANCE__@@@ATL@@@ATL@@QEAA@XZ 0000000180033a50 f i atls:atlbase.obj
 0001:00032a78       ??1CAtlBaseModule@ATL@@QEAA@XZ 0000000180033a78 f   atls:atlbase.obj
 0001:00032aac       ??1_ATL_BASE_MODULE70@ATL@@QEAA@XZ 0000000180033aac f i atls:atlbase.obj
 0001:00032ad8       ??A?$CSimpleArray@PEAUHINSTANCE__@@V?$CSimpleArrayEqualHelper@PEAUHINSTANCE__@@@ATL@@@ATL@@QEAAAEAPEAUHINSTANCE__@@H@Z 0000000180033ad8 f i atls:atlbase.obj
 0001:00032b04       ?Add@?$CSimpleArray@PEAUHINSTANCE__@@V?$CSimpleArrayEqualHelper@PEAUHINSTANCE__@@@ATL@@@ATL@@QEAAHAEBQEAUHINSTANCE__@@@Z 0000000180033b04 f i atls:atlbase.obj
 0001:00032ba4       ?AddResourceInstance@CAtlBaseModule@ATL@@QEAA_NPEAUHINSTANCE__@@@Z 0000000180033ba4 f   atls:atlbase.obj
 0001:00032bec       ?GetHInstanceAt@CAtlBaseModule@ATL@@QEAAPEAUHINSTANCE__@@H@Z 0000000180033bec f   atls:atlbase.obj
 0001:00032c64       ?GetSize@?$CSimpleArray@PEAUHINSTANCE__@@V?$CSimpleArrayEqualHelper@PEAUHINSTANCE__@@@ATL@@@ATL@@QEBAHXZ 0000000180033c64 f i atls:atlbase.obj
 0001:00032c68       ?InternalSetAtIndex@?$CSimpleArray@PEAUHINSTANCE__@@V?$CSimpleArrayEqualHelper@PEAUHINSTANCE__@@@ATL@@@ATL@@QEAAXHAEBQEAUHINSTANCE__@@@Z 0000000180033c68 f i atls:atlbase.obj
 0001:00032c80       ?RemoveAll@?$CSimpleArray@PEAUHINSTANCE__@@V?$CSimpleArrayEqualHelper@PEAUHINSTANCE__@@@ATL@@@ATL@@QEAAXXZ 0000000180033c80 f i atls:atlbase.obj
 0001:00032ca8       ?RemoveAt@?$CSimpleArray@PEAUHINSTANCE__@@V?$CSimpleArrayEqualHelper@PEAUHINSTANCE__@@@ATL@@@ATL@@QEAAHH@Z 0000000180033ca8 f i atls:atlbase.obj
 0001:00032d40       ?RemoveResourceInstance@CAtlBaseModule@ATL@@QEAA_NPEAUHINSTANCE__@@@Z 0000000180033d40 f   atls:atlbase.obj
 0001:00032dc8       ?memmove_s@Checked@ATL@@YAXPEAX_KPEBX1@Z 0000000180033dc8 f i atls:atlbase.obj
 0001:00033270       ?GetCodeAddress@_stdcallthunk@ATL@@QEAAPEAXXZ 0000000180034270 f i atls:atlthunk.obj
 0001:0003329c       ?Init@_stdcallthunk@ATL@@QEAAH_KPEAX@Z 000000018003429c f i atls:atlthunk.obj
 0001:000332ec       ?__AllocStdCallThunk@@YAPEAXXZ 00000001800342ec f   atls:atlthunk.obj
 0001:000332f4       ?__AllocStdCallThunk@ATL@@YAPEAXXZ 00000001800342f4 f   atls:atlthunk.obj
 0001:000332fc       ?__AllocStdCallThunk_cmn@@YAPEAXXZ 00000001800342fc f   atls:atlthunk.obj
 0001:000333d4       ?__FreeStdCallThunk@@YAXPEAX@Z 00000001800343d4 f   atls:atlthunk.obj
 0001:000333f4       ?__FreeStdCallThunk@ATL@@YAXPEAX@Z 00000001800343f4 f   atls:atlthunk.obj
 0001:00033414       ?__FreeStdCallThunk_cmn@@YAXPEAX@Z 0000000180034414 f   atls:atlthunk.obj
 0001:000334b4       AtlThunk_AllocateData      00000001800344b4 f   atls:atlthunk.obj
 0001:00033530       AtlThunk_DataToCode        0000000180034530 f   atls:atlthunk.obj
 0001:00033584       AtlThunk_FreeData          0000000180034584 f   atls:atlthunk.obj
 0001:000335e4       AtlThunk_InitData          00000001800345e4 f   atls:atlthunk.obj
 0001:000336a0       memset_repmovs             00000001800346a0 f   libvcruntimed:memset.obj
 0001:000336c0       memset                     00000001800346c0 f   libvcruntimed:memset.obj
 0001:00033850       ??$__crt_interlocked_exchange_pointer@$$A6AXXZP6AXXZ@@YAP6AXXZPEDS6AXXZQ6AXXZ@Z 0000000180034850 f i libvcruntimed:purevirt.obj
 0001:00033870       ??$__crt_interlocked_read_pointer@$$A6AXXZ@@YAP6AXXZPEDS6AXXZ@Z 0000000180034870 f i libvcruntimed:purevirt.obj
 0001:00033890       ?__crt_interlocked_read_64@@YA_JPED_J@Z 0000000180034890 f i libvcruntimed:purevirt.obj
 0001:000338b0       _get_purecall_handler      00000001800348b0 f   libvcruntimed:purevirt.obj
 0001:000338d0       _purecall                  00000001800348d0 f   libvcruntimed:purevirt.obj
 0001:00033910       _set_purecall_handler      0000000180034910 f   libvcruntimed:purevirt.obj
 0001:00033940       memcmp                     0000000180034940 f   libvcruntimed:memcmp.obj
 0001:00033a20       memcpy_repmovs             0000000180034a20 f   libvcruntimed:memcpy.obj
 0001:00033a40       memmove                    0000000180034a40 f   libvcruntimed:memcpy.obj
 0001:00033a40       memcpy                     0000000180034a40 f   libvcruntimed:memcpy.obj
 0001:000340c0       wcsstr                     00000001800350c0 f   libvcruntimed:wcsstr.obj
 0001:00034720       __vcrt_initialize          0000000180035720 f   libvcruntimed:initialization.obj
 0001:00034760       __vcrt_thread_attach       0000000180035760 f   libvcruntimed:initialization.obj
 0001:00034780       __vcrt_thread_detach       0000000180035780 f   libvcruntimed:initialization.obj
 0001:000347a0       __vcrt_uninitialize        00000001800357a0 f   libvcruntimed:initialization.obj
 0001:000347c0       __vcrt_uninitialize_critical 00000001800357c0 f   libvcruntimed:initialization.obj
 0001:000347e0       __C_specific_handler       00000001800357e0 f   libvcruntimed:riscchandler.obj
 0001:00034c50       ??$?0AEAViterator@TryBlockMap4@FH4@@AEAV012@$0A@@?$pair@Viterator@TryBlockMap4@FH4@@V123@@std@@QEAA@AEAViterator@TryBlockMap4@FH4@@0@Z 0000000180035c50 f i libvcruntimed:risctrnsctrl.obj
 0001:00034cb0       ??$?0AEAViterator@TryBlockMap@__FrameHandler3@@AEAV012@$0A@@?$pair@Viterator@TryBlockMap@__FrameHandler3@@V123@@std@@QEAA@AEAViterator@TryBlockMap@__FrameHandler3@@0@Z 0000000180035cb0 f i libvcruntimed:risctrnsctrl.obj
 0001:00034e80       ??$_CallSETranslator@V__FrameHandler3@@@@YAHPEAUEHExceptionRecord@@PEA_KPEAU_CONTEXT@@PEAU_xDISPATCHER_CONTEXT@@PEBU_s_FuncInfo@@K1H@Z 0000000180035e80 f i libvcruntimed:risctrnsctrl.obj
 0001:00034f10       ??$_CallSETranslator@V__FrameHandler4@@@@YAHPEAUEHExceptionRecord@@PEA_KPEAU_CONTEXT@@PEAU_xDISPATCHER_CONTEXT@@PEAUFuncInfo4@FH4@@K1H@Z 0000000180035f10 f i libvcruntimed:risctrnsctrl.obj
 0001:00034fa0       ??$forward@AEAViterator@TryBlockMap4@FH4@@@std@@YAAEAViterator@TryBlockMap4@FH4@@AEAV123@@Z 0000000180035fa0 f i libvcruntimed:risctrnsctrl.obj
 0001:00034fb0       ??$forward@AEAViterator@TryBlockMap@__FrameHandler3@@@std@@YAAEAViterator@TryBlockMap@__FrameHandler3@@AEAV123@@Z 0000000180035fb0 f i libvcruntimed:risctrnsctrl.obj
 0001:00034fc0       ??0FuncInfo4@FH4@@QEAA@XZ  0000000180035fc0 f i libvcruntimed:risctrnsctrl.obj
 0001:00035030       ??0FuncInfoHeader@FH4@@QEAA@XZ 0000000180036030 f i libvcruntimed:risctrnsctrl.obj
 0001:00035050       ??0iterator@TryBlockMap4@FH4@@QEAA@AEAV12@I@Z 0000000180036050 f i libvcruntimed:risctrnsctrl.obj
 0001:00035080       ??0iterator@TryBlockMap@__FrameHandler3@@QEAA@AEAV12@I@Z 0000000180036080 f i libvcruntimed:risctrnsctrl.obj
 0001:000350b0       ??4iterator@TryBlockMap4@FH4@@QEAAAEAV012@AEBV012@@Z 00000001800360b0 f i libvcruntimed:risctrnsctrl.obj
 0001:000350d0       ??9iterator@TryBlockMap4@FH4@@QEBA_NAEBV012@@Z 00000001800360d0 f i libvcruntimed:risctrnsctrl.obj
 0001:00035110       ??Diterator@TryBlockMap4@FH4@@QEAA?AUTryBlockMapEntry4@2@XZ 0000000180036110 f i libvcruntimed:risctrnsctrl.obj
 0001:00035140       ??Eiterator@TryBlockMap4@FH4@@QEAAAEAV012@XZ 0000000180036140 f i libvcruntimed:risctrnsctrl.obj
 0001:00035180       ?CatchTryBlock@__FrameHandler3@@SAPEBU_s_TryBlockMapEntry@@PEBU_s_FuncInfo@@H@Z 0000000180036180 f   libvcruntimed:risctrnsctrl.obj
 0001:00035210       ?DecompFuncInfo@FH4@@YA_JPEAEAEAUFuncInfo4@1@_KH@Z 0000000180036210 f i libvcruntimed:risctrnsctrl.obj
 0001:00035250       ?DecompFuncInfo@FH4@@YA_JPEAEAEAUFuncInfo4@1@_KH_N@Z 0000000180036250 f i libvcruntimed:risctrnsctrl.obj
 0001:00035420       ?DecompTryBlock@TryBlockMap4@FH4@@AEAAXXZ 0000000180036420 f i libvcruntimed:risctrnsctrl.obj
 0001:000354a0       ?ExecutionInCatch@__FrameHandler3@@SA_NPEAU_xDISPATCHER_CONTEXT@@PEBU_s_FuncInfo@@@Z 00000001800364a0 f   libvcruntimed:risctrnsctrl.obj
 0001:000354f0       ?ExecutionInCatch@__FrameHandler4@@SA_NPEAU_xDISPATCHER_CONTEXT@@PEAUFuncInfo4@FH4@@@Z 00000001800364f0 f   libvcruntimed:risctrnsctrl.obj
 0001:00035510       ?FrameUnwindToEmptyState@__FrameHandler3@@SAXPEA_KPEAU_xDISPATCHER_CONTEXT@@PEBU_s_FuncInfo@@@Z 0000000180036510 f   libvcruntimed:risctrnsctrl.obj
 0001:000355b0       ?FrameUnwindToEmptyState@__FrameHandler4@@SAXPEA_KPEAU_xDISPATCHER_CONTEXT@@PEAUFuncInfo4@FH4@@@Z 00000001800365b0 f   libvcruntimed:risctrnsctrl.obj
 0001:00035600       ?GetEstablisherFrame@__FrameHandler3@@SAPEA_KPEA_KPEAU_xDISPATCHER_CONTEXT@@PEBU_s_FuncInfo@@0@Z 0000000180036600 f   libvcruntimed:risctrnsctrl.obj
 0001:00035770       ?GetEstablisherFrame@__FrameHandler4@@SAPEA_KPEA_KPEAU_xDISPATCHER_CONTEXT@@PEAUFuncInfo4@FH4@@0@Z 0000000180036770 f   libvcruntimed:risctrnsctrl.obj
 0001:000357e0       ?GetRangeOfTrysToCheck@__FrameHandler3@@SA?AU?$pair@Viterator@TryBlockMap@__FrameHandler3@@V123@@std@@AEAVTryBlockMap@1@HPEAU_xDISPATCHER_CONTEXT@@PEBU_s_FuncInfo@@H@Z 00000001800367e0 f   libvcruntimed:risctrnsctrl.obj
 0001:00035a20       ?GetRangeOfTrysToCheck@__FrameHandler4@@SA?AU?$pair@Viterator@TryBlockMap4@FH4@@V123@@std@@AEAVTryBlockMap4@FH4@@HPEAU_xDISPATCHER_CONTEXT@@PEAUFuncInfo4@5@H@Z 0000000180036a20 f   libvcruntimed:risctrnsctrl.obj
 0001:00035bd0       ?ReadInt@FH4@@YAHPEAPEAE@Z 0000000180036bd0 f i libvcruntimed:risctrnsctrl.obj
 0001:00035c10       ?ReadUnsigned@FH4@@YAIPEAPEAE@Z 0000000180036c10 f i libvcruntimed:risctrnsctrl.obj
 0001:00035ca0       ?UnwindNestedFrames@__FrameHandler3@@SAXPEA_KPEAUEHExceptionRecord@@PEAU_CONTEXT@@0PEAXPEBU_s_FuncInfo@@HHPEBU_s_HandlerType@@PEAU_xDISPATCHER_CONTEXT@@E@Z 0000000180036ca0 f   libvcruntimed:risctrnsctrl.obj
 0001:00035e10       ?UnwindNestedFrames@__FrameHandler4@@SAXPEA_KPEAUEHExceptionRecord@@PEAU_CONTEXT@@0PEAXPEAUFuncInfo4@FH4@@HHPEAUHandlerType4@5@PEAU_xDISPATCHER_CONTEXT@@E@Z 0000000180036e10 f   libvcruntimed:risctrnsctrl.obj
 0001:00035fe0       ?begin@TryBlockMap4@FH4@@QEAA?AViterator@12@XZ 0000000180036fe0 f i libvcruntimed:risctrnsctrl.obj
 0001:00036010       ?end@TryBlockMap4@FH4@@QEAA?AViterator@12@XZ 0000000180037010 f i libvcruntimed:risctrnsctrl.obj
 0001:00036040       ?imageRelToByteBuffer@FH4@@YAPEAE_KH@Z 0000000180037040 f i libvcruntimed:risctrnsctrl.obj
 0001:00036060       ?incrementToSentinel@iterator@TryBlockMap4@FH4@@QEAAXXZ 0000000180037060 f i libvcruntimed:risctrnsctrl.obj
 0001:00036080       ?setBuffer@TryBlockMap4@FH4@@QEAAXViterator@12@@Z 0000000180037080 f i libvcruntimed:risctrnsctrl.obj
 0001:000360f0       _CreateFrameInfo           00000001800370f0 f   libvcruntimed:risctrnsctrl.obj
 0001:00036160       _FindAndUnlinkFrame        0000000180037160 f   libvcruntimed:risctrnsctrl.obj
 0001:000361e0       _GetImageBase              00000001800371e0 f   libvcruntimed:risctrnsctrl.obj
 0001:00036200       _GetThrowImageBase         0000000180037200 f   libvcruntimed:risctrnsctrl.obj
 0001:00036220       _SetImageBase              0000000180037220 f   libvcruntimed:risctrnsctrl.obj
 0001:00036240       _SetThrowImageBase         0000000180037240 f   libvcruntimed:risctrnsctrl.obj
 0001:00036260       __CxxFrameHandler          0000000180037260 f   libvcruntimed:risctrnsctrl.obj
 0001:000362a0       __CxxFrameHandler2         00000001800372a0 f   libvcruntimed:risctrnsctrl.obj
 0001:000362e0       __CxxFrameHandler3         00000001800372e0 f   libvcruntimed:risctrnsctrl.obj
 0001:000363c0       __CxxFrameHandler4         00000001800373c0 f   libvcruntimed:risctrnsctrl.obj
 0001:000364d0       __C_specific_handler_noexcept 00000001800374d0 f   libvcruntimed:chandler_noexcept.obj
 0001:00036560       __DestructExceptionObject  0000000180037560 f   libvcruntimed:ehhelpers.obj
 0001:00036660       ?_CallMemberFunction0@@YAXQEAX0@Z 0000000180037660 f i libvcruntimed:ehhelpers.obj
 0001:00036730       ?raw_name@type_info@@QEBAPEBDXZ 0000000180037730 f i libvcruntimed:ehhelpers.obj
 0001:00036740       _IsExceptionObjectToBeDestroyed 0000000180037740 f   libvcruntimed:ehhelpers.obj
 0001:00036790       _SetWinRTOutOfMemoryExceptionCallback 0000000180037790 f   libvcruntimed:ehhelpers.obj
 0001:000367b0       __AdjustPointer            00000001800377b0 f   libvcruntimed:ehhelpers.obj
 0001:00036830       __FrameUnwindFilter        0000000180037830 f   libvcruntimed:ehhelpers.obj
 0001:000368e0       __GetPlatformExceptionInfo 00000001800378e0 f   libvcruntimed:ehhelpers.obj
 0001:00036990       __current_exception        0000000180037990 f   libvcruntimed:ehhelpers.obj
 0001:000369b0       __current_exception_context 00000001800379b0 f   libvcruntimed:ehhelpers.obj
 0001:000369d0       __processing_throw         00000001800379d0 f   libvcruntimed:ehhelpers.obj
 0001:000369f0       __std_terminate            00000001800379f0 f   libvcruntimed:ehhelpers.obj
 0001:00036a00       _is_exception_typeof       0000000180037a00 f   libvcruntimed:ehhelpers.obj
 0001:00036b90       ??$?RD@__crt_internal_free_policy@@QEBAXQEBD@Z 0000000180037b90 f i libvcruntimed:std_type_info.obj
 0001:00036bc0       ??$?RX@__crt_internal_free_policy@@QEBAXQEBX@Z 0000000180037bc0 f i libvcruntimed:std_type_info.obj
 0001:00036bf0       ??$__crt_interlocked_compare_exchange_pointer@$$CBDPEAD$$T@@YAPEBDPEDSEBDQEAD$$T@Z 0000000180037bf0 f i libvcruntimed:std_type_info.obj
 0001:00036c30       ??$__crt_interlocked_read_pointer@$$CBD@@YAPEBDPEDSEBD@Z 0000000180037c30 f i libvcruntimed:std_type_info.obj
 0001:00036c50       ??0?$__crt_unique_heap_ptr@DU__crt_internal_free_policy@@@@QEAA@QEAD@Z 0000000180037c50 f i libvcruntimed:std_type_info.obj
 0001:00036c70       ??0?$__crt_unique_heap_ptr@XU__crt_internal_free_policy@@@@QEAA@QEAX@Z 0000000180037c70 f i libvcruntimed:std_type_info.obj
 0001:00036c90       ??1?$__crt_unique_heap_ptr@DU__crt_internal_free_policy@@@@QEAA@XZ 0000000180037c90 f i libvcruntimed:std_type_info.obj
 0001:00036cb0       ??1?$__crt_unique_heap_ptr@XU__crt_internal_free_policy@@@@QEAA@XZ 0000000180037cb0 f i libvcruntimed:std_type_info.obj
 0001:00036cd0       ??B?$__crt_unique_heap_ptr@DU__crt_internal_free_policy@@@@QEBA_NXZ 0000000180037cd0 f i libvcruntimed:std_type_info.obj
 0001:00036cf0       ??B?$__crt_unique_heap_ptr@XU__crt_internal_free_policy@@@@QEBA_NXZ 0000000180037cf0 f i libvcruntimed:std_type_info.obj
 0001:00036d90       ?detach@?$__crt_unique_heap_ptr@XU__crt_internal_free_policy@@@@QEAAPEAXXZ 0000000180037d90 f i libvcruntimed:std_type_info.obj
 0001:00036dc0       ?get@?$__crt_unique_heap_ptr@DU__crt_internal_free_policy@@@@QEBAPEADXZ 0000000180037dc0 f i libvcruntimed:std_type_info.obj
 0001:00036dd0       ?get@?$__crt_unique_heap_ptr@XU__crt_internal_free_policy@@@@QEBAPEAXXZ 0000000180037dd0 f i libvcruntimed:std_type_info.obj
 0001:00036de0       ?is_valid@?$__crt_unique_heap_ptr@DU__crt_internal_free_policy@@@@QEBA_NXZ 0000000180037de0 f i libvcruntimed:std_type_info.obj
 0001:00036e10       ?is_valid@?$__crt_unique_heap_ptr@XU__crt_internal_free_policy@@@@QEBA_NXZ 0000000180037e10 f i libvcruntimed:std_type_info.obj
 0001:00036e40       ?release@?$__crt_unique_heap_ptr@DU__crt_internal_free_policy@@@@QEAAXXZ 0000000180037e40 f i libvcruntimed:std_type_info.obj
 0001:00036e70       ?release@?$__crt_unique_heap_ptr@XU__crt_internal_free_policy@@@@QEAAXXZ 0000000180037e70 f i libvcruntimed:std_type_info.obj
 0001:00036ea0       __std_type_info_compare    0000000180037ea0 f   libvcruntimed:std_type_info.obj
 0001:00036ee0       __std_type_info_destroy_list 0000000180037ee0 f   libvcruntimed:std_type_info.obj
 0001:00036f40       __std_type_info_hash       0000000180037f40 f   libvcruntimed:std_type_info.obj
 0001:00036ff0       __std_type_info_name       0000000180037ff0 f   libvcruntimed:std_type_info.obj
 0001:000372a0       __vcrt_GetModuleFileNameW  00000001800382a0 f   libvcruntimed:winapi_thunks.obj
 0001:000372d0       __vcrt_GetModuleHandleW    00000001800382d0 f   libvcruntimed:winapi_thunks.obj
 0001:000372f0       __vcrt_LoadLibraryExW      00000001800382f0 f   libvcruntimed:winapi_thunks.obj
 0001:00037320       ??$?RD@__crt_public_free_policy@@QEBAXQEBD@Z 0000000180038320 f i libvcruntimed:std_exception.obj
 0001:00037340       ??0?$__crt_unique_heap_ptr@DU__crt_public_free_policy@@@@QEAA@QEAD@Z 0000000180038340 f i libvcruntimed:std_exception.obj
 0001:00037360       ??1?$__crt_unique_heap_ptr@DU__crt_public_free_policy@@@@QEAA@XZ 0000000180038360 f i libvcruntimed:std_exception.obj
 0001:00037380       ??B?$__crt_unique_heap_ptr@DU__crt_public_free_policy@@@@QEBA_NXZ 0000000180038380 f i libvcruntimed:std_exception.obj
 0001:000373a0       ?detach@?$__crt_unique_heap_ptr@DU__crt_public_free_policy@@@@QEAAPEADXZ 00000001800383a0 f i libvcruntimed:std_exception.obj
 0001:000373d0       ?get@?$__crt_unique_heap_ptr@DU__crt_public_free_policy@@@@QEBAPEADXZ 00000001800383d0 f i libvcruntimed:std_exception.obj
 0001:000373e0       ?is_valid@?$__crt_unique_heap_ptr@DU__crt_public_free_policy@@@@QEBA_NXZ 00000001800383e0 f i libvcruntimed:std_exception.obj
 0001:00037410       ?release@?$__crt_unique_heap_ptr@DU__crt_public_free_policy@@@@QEAAXXZ 0000000180038410 f i libvcruntimed:std_exception.obj
 0001:00037440       __std_exception_copy       0000000180038440 f   libvcruntimed:std_exception.obj
 0001:00037580       __std_exception_destroy    0000000180038580 f   libvcruntimed:std_exception.obj
 0001:000375c0       _CxxThrowException         00000001800385c0 f   libvcruntimed:throw.obj
 0001:000376f0       ??$?RU__vcrt_ptd@@@__crt_internal_free_policy@@QEBAXQEBU__vcrt_ptd@@@Z 00000001800386f0 f i libvcruntimed:per_thread_data.obj
 0001:00037720       ??0?$__crt_unique_heap_ptr@U__vcrt_ptd@@U__crt_internal_free_policy@@@@QEAA@QEAU__vcrt_ptd@@@Z 0000000180038720 f i libvcruntimed:per_thread_data.obj
 0001:00037760       ??1?$__crt_unique_heap_ptr@U__vcrt_ptd@@U__crt_internal_free_policy@@@@QEAA@XZ 0000000180038760 f i libvcruntimed:per_thread_data.obj
 0001:000377a0       ??B?$__crt_unique_heap_ptr@U__vcrt_ptd@@U__crt_internal_free_policy@@@@QEBA_NXZ 00000001800387a0 f i libvcruntimed:per_thread_data.obj
 0001:000377c0       ?detach@?$__crt_unique_heap_ptr@U__vcrt_ptd@@U__crt_internal_free_policy@@@@QEAAPEAU__vcrt_ptd@@XZ 00000001800387c0 f i libvcruntimed:per_thread_data.obj
 0001:000377f0       ?get@?$__crt_unique_heap_ptr@U__vcrt_ptd@@U__crt_internal_free_policy@@@@QEBAPEAU__vcrt_ptd@@XZ 00000001800387f0 f i libvcruntimed:per_thread_data.obj
 0001:00037800       ?is_valid@?$__crt_unique_heap_ptr@U__vcrt_ptd@@U__crt_internal_free_policy@@@@QEBA_NXZ 0000000180038800 f i libvcruntimed:per_thread_data.obj
 0001:00037830       ?release@?$__crt_unique_heap_ptr@U__vcrt_ptd@@U__crt_internal_free_policy@@@@QEAAXXZ 0000000180038830 f i libvcruntimed:per_thread_data.obj
 0001:000378a0       __vcrt_freefls             00000001800388a0 f   libvcruntimed:per_thread_data.obj
 0001:000378e0       __vcrt_freeptd             00000001800388e0 f   libvcruntimed:per_thread_data.obj
 0001:00037940       __vcrt_getptd              0000000180038940 f   libvcruntimed:per_thread_data.obj
 0001:00037970       __vcrt_getptd_noexit       0000000180038970 f   libvcruntimed:per_thread_data.obj
 0001:00037b10       __vcrt_getptd_noinit       0000000180038b10 f   libvcruntimed:per_thread_data.obj
 0001:00037b70       __vcrt_initialize_ptd      0000000180038b70 f   libvcruntimed:per_thread_data.obj
 0001:00037bc0       __vcrt_uninitialize_ptd    0000000180038bc0 f   libvcruntimed:per_thread_data.obj
 0001:00037bf0       __vcrt_initialize_locks    0000000180038bf0 f   libvcruntimed:locks.obj
 0001:00037c60       __vcrt_lock                0000000180038c60 f   libvcruntimed:locks.obj
 0001:00037c90       __vcrt_uninitialize_locks  0000000180038c90 f   libvcruntimed:locks.obj
 0001:00037cf0       __vcrt_unlock              0000000180038cf0 f   libvcruntimed:locks.obj
 0001:00037d30       _NLG_Notify                0000000180038d30 f   libvcruntimed:notify.obj
 0001:00037d50       __NLG_Dispatch2            0000000180038d50 f   libvcruntimed:notify.obj
 0001:00037d60       __NLG_Return2              0000000180038d60 f   libvcruntimed:notify.obj
 0001:00037d80       __except_validate_context_record 0000000180038d80 f   libvcruntimed:jbcxrval.obj
 0001:00037de0       __except_validate_jump_buffer 0000000180038de0 f   libvcruntimed:jbcxrval.obj
 0001:00037e00       __except_validate_jump_buffer_common 0000000180038e00 f i libvcruntimed:jbcxrval.obj
 0001:00037e80       ?GetCurrentState@__FrameHandler3@@SAHPEA_KPEAU_xDISPATCHER_CONTEXT@@PEBU_s_FuncInfo@@@Z 0000000180038e80 f   libvcruntimed:ehstate.obj
 0001:00037ee0       ?GetUnwindTryBlock@__FrameHandler3@@SAHPEA_KPEAU_xDISPATCHER_CONTEXT@@PEBU_s_FuncInfo@@@Z 0000000180038ee0 f   libvcruntimed:ehstate.obj
 0001:00037f30       ?SetState@__FrameHandler3@@SAXPEA_KPEBU_s_FuncInfo@@H@Z 0000000180038f30 f   libvcruntimed:ehstate.obj
 0001:00037f60       ?SetUnwindTryBlock@__FrameHandler3@@SAXPEA_KPEAU_xDISPATCHER_CONTEXT@@PEBU_s_FuncInfo@@H@Z 0000000180038f60 f   libvcruntimed:ehstate.obj
 0001:00037fd0       ?StateFromControlPc@__FrameHandler3@@SAHPEBU_s_FuncInfo@@PEAU_xDISPATCHER_CONTEXT@@@Z 0000000180038fd0 f   libvcruntimed:ehstate.obj
 0001:00038010       ?StateFromControlPc@__FrameHandler4@@SAHPEAUFuncInfo4@FH4@@PEAU_xDISPATCHER_CONTEXT@@@Z 0000000180039010 f   libvcruntimed:ehstate.obj
 0001:00038050       ?StateFromIp@__FrameHandler3@@SAHPEBU_s_FuncInfo@@PEAU_xDISPATCHER_CONTEXT@@_K@Z 0000000180039050 f   libvcruntimed:ehstate.obj
 0001:00038140       ?StateFromIp@__FrameHandler4@@SAHPEAUFuncInfo4@FH4@@PEAU_xDISPATCHER_CONTEXT@@_K@Z 0000000180039140 f   libvcruntimed:ehstate.obj
 0001:00038230       ?__FuncRelToRealOffset@@YA_KPEAU_xDISPATCHER_CONTEXT@@I@Z 0000000180039230 f i libvcruntimed:ehstate.obj
 0001:00038260       ?__RVAtoRealOffset@@YA_KPEAU_xDISPATCHER_CONTEXT@@H@Z 0000000180039260 f i libvcruntimed:ehstate.obj
 0001:0003a4c0       ??$TypeMatchHelper@V__FrameHandler3@@@@YAHPEBU_s_HandlerType@@PEBU_s_CatchableType@@PEBU_s_ThrowInfo@@@Z 000000018003b4c0 f i libvcruntimed:frame.obj
 0001:0003a6c0       ??$TypeMatchHelper@V__FrameHandler4@@@@YAHPEAUHandlerType4@FH4@@PEBU_s_CatchableType@@PEBU_s_ThrowInfo@@@Z 000000018003b6c0 f i libvcruntimed:frame.obj
 0001:0003a8d0       ??$__InternalCxxFrameHandler@V__FrameHandler3@@@@YA?AW4_EXCEPTION_DISPOSITION@@PEAUEHExceptionRecord@@PEA_KPEAU_CONTEXT@@PEAU_xDISPATCHER_CONTEXT@@PEBU_s_FuncInfo@@H1E@Z 000000018003b8d0 f i libvcruntimed:frame.obj
 0001:0003ad40       ??$__InternalCxxFrameHandler@V__FrameHandler4@@@@YA?AW4_EXCEPTION_DISPOSITION@@PEAUEHExceptionRecord@@PEA_KPEAU_CONTEXT@@PEAU_xDISPATCHER_CONTEXT@@PEAUFuncInfo4@FH4@@H1E@Z 000000018003bd40 f i libvcruntimed:frame.obj
 0001:0003b1d0       ??0HandlerMap4@FH4@@QEAA@PEBUTryBlockMapEntry4@1@_KH@Z 000000018003c1d0 f i libvcruntimed:frame.obj
 0001:0003b290       ??0HandlerMap@__FrameHandler3@@QEAA@PEBU_s_TryBlockMapEntry@@_KI@Z 000000018003c290 f i libvcruntimed:frame.obj
 0001:0003b2e0       ??0HandlerType4@FH4@@QEAA@XZ 000000018003c2e0 f i libvcruntimed:frame.obj
 0001:0003b300       ??0TryBlockMap4@FH4@@QEAA@PEBUFuncInfo4@1@_K@Z 000000018003c300 f i libvcruntimed:frame.obj
 0001:0003b390       ??0TryBlockMap@__FrameHandler3@@QEAA@PEBU_s_FuncInfo@@_K@Z 000000018003c390 f i libvcruntimed:frame.obj
 0001:0003b3c0       ??0UWMap4@FH4@@QEAA@PEBUFuncInfo4@1@_K@Z 000000018003c3c0 f i libvcruntimed:frame.obj
 0001:0003b430       ??0bad_exception@std@@QEAA@AEBV01@@Z 000000018003c430 f i libvcruntimed:frame.obj
 0001:0003b470       ??0bad_exception@std@@QEAA@XZ 000000018003c470 f i libvcruntimed:frame.obj
 0001:0003b4b0       ??0iterator@HandlerMap4@FH4@@QEAA@AEAV12@I@Z 000000018003c4b0 f i libvcruntimed:frame.obj
 0001:0003b4e0       ??0iterator@HandlerMap@__FrameHandler3@@QEAA@AEAV12@I@Z 000000018003c4e0 f i libvcruntimed:frame.obj
 0001:0003b510       ??0iterator@UWMap4@FH4@@QEAA@AEAV12@PEAE@Z 000000018003c510 f i libvcruntimed:frame.obj
 0001:0003b540       ??1bad_exception@std@@UEAA@XZ 000000018003c540 f i libvcruntimed:frame.obj
 0001:0003b560       ??4iterator@UWMap4@FH4@@QEAAAEAV012@AEBV012@@Z 000000018003c560 f i libvcruntimed:frame.obj
 0001:0003b5b0       ??8iterator@HandlerMap4@FH4@@QEBA_NAEBV012@@Z 000000018003c5b0 f i libvcruntimed:frame.obj
 0001:0003b5f0       ??8iterator@HandlerMap@__FrameHandler3@@QEBA_NAEBV012@@Z 000000018003c5f0 f i libvcruntimed:frame.obj
 0001:0003b630       ??8type_info@@QEBA_NAEBV0@@Z 000000018003c630 f i libvcruntimed:frame.obj
 0001:0003b680       ??9iterator@HandlerMap4@FH4@@QEBA_NAEBV012@@Z 000000018003c680 f i libvcruntimed:frame.obj
 0001:0003b6c0       ??9iterator@HandlerMap@__FrameHandler3@@QEBA_NAEBV012@@Z 000000018003c6c0 f i libvcruntimed:frame.obj
 0001:0003b700       ??Diterator@HandlerMap4@FH4@@QEAA?AUHandlerType4@2@XZ 000000018003c700 f i libvcruntimed:frame.obj
 0001:0003b730       ??Diterator@HandlerMap@__FrameHandler3@@QEAA?BU_s_HandlerType@@XZ 000000018003c730 f i libvcruntimed:frame.obj
 0001:0003b770       ??Diterator@TryBlockMap@__FrameHandler3@@QEAA?BU_s_TryBlockMapEntry@@XZ 000000018003c770 f i libvcruntimed:frame.obj
 0001:0003b7c0       ??Diterator@UWMap4@FH4@@QEAA?AUUnwindMapEntry4@2@XZ 000000018003c7c0 f i libvcruntimed:frame.obj
 0001:0003b840       ??Eiterator@HandlerMap4@FH4@@QEAAAEAV012@XZ 000000018003c840 f i libvcruntimed:frame.obj
 0001:0003b880       ??Eiterator@HandlerMap@__FrameHandler3@@QEAAAEAV012@XZ 000000018003c880 f i libvcruntimed:frame.obj
 0001:0003b8a0       ??Eiterator@TryBlockMap@__FrameHandler3@@QEAAAEAV012@XZ 000000018003c8a0 f i libvcruntimed:frame.obj
 0001:0003b8c0       ??Eiterator@UWMap4@FH4@@QEAAAEAV012@XZ 000000018003c8c0 f i libvcruntimed:frame.obj
 0001:0003b900       ??Giterator@UWMap4@FH4@@QEBA_JAEBV012@@Z 000000018003c900 f i libvcruntimed:frame.obj
 0001:0003b920       ??Miterator@TryBlockMap4@FH4@@QEBA_NAEBV012@@Z 000000018003c920 f i libvcruntimed:frame.obj
 0001:0003b960       ??Miterator@TryBlockMap@__FrameHandler3@@QEBA_NAEBV012@@Z 000000018003c960 f i libvcruntimed:frame.obj
 0001:0003b9a0       ??Oiterator@UWMap4@FH4@@QEBA_NAEBV012@@Z 000000018003c9a0 f i libvcruntimed:frame.obj
 0001:0003b9e0       ??Piterator@UWMap4@FH4@@QEBA_NAEBV012@@Z 000000018003c9e0 f i libvcruntimed:frame.obj
 0001:0003ba20       ??_Ebad_exception@std@@UEAAPEAXI@Z 000000018003ca20 f i libvcruntimed:frame.obj
 0001:0003ba20       ??_Gbad_exception@std@@UEAAPEAXI@Z 000000018003ca20 f i libvcruntimed:frame.obj
 0001:0003ba60       ?BuildCatchObject@__FrameHandler3@@SAXPEAUEHExceptionRecord@@PEAXPEBU_s_HandlerType@@PEBU_s_CatchableType@@@Z 000000018003ca60 f   libvcruntimed:frame.obj
 0001:0003baa0       ?BuildCatchObject@__FrameHandler4@@SAXPEAUEHExceptionRecord@@PEAXPEAUHandlerType4@FH4@@PEBU_s_CatchableType@@@Z 000000018003caa0 f   libvcruntimed:frame.obj
 0001:0003bae0       ?BuildCatchObjectHelper@__FrameHandler3@@SAHPEAUEHExceptionRecord@@PEAXPEBU_s_HandlerType@@PEBU_s_CatchableType@@@Z 000000018003cae0 f   libvcruntimed:frame.obj
 0001:0003bb20       ?BuildCatchObjectHelper@__FrameHandler4@@SAHPEAUEHExceptionRecord@@PEAXPEAUHandlerType4@FH4@@PEBU_s_CatchableType@@@Z 000000018003cb20 f   libvcruntimed:frame.obj
 0001:0003bb60       ?CxxCallCatchBlock@__FrameHandler3@@SAPEAXPEAU_EXCEPTION_RECORD@@@Z 000000018003cb60 f   libvcruntimed:frame.obj
 0001:0003bdc0       ?CxxCallCatchBlock@__FrameHandler4@@SAPEAXPEAU_EXCEPTION_RECORD@@@Z 000000018003cdc0 f   libvcruntimed:frame.obj
 0001:0003c0f0       ?DecompHandler@HandlerMap4@FH4@@AEAAXXZ 000000018003d0f0 f i libvcruntimed:frame.obj
 0001:0003c4c0       ?FrameUnwindToState@__FrameHandler3@@SAXPEA_KPEAU_xDISPATCHER_CONTEXT@@PEBU_s_FuncInfo@@H@Z 000000018003d4c0 f   libvcruntimed:frame.obj
 0001:0003c710       ?FrameUnwindToState@__FrameHandler4@@SAXPEA_KPEAU_xDISPATCHER_CONTEXT@@PEAUFuncInfo4@FH4@@H@Z 000000018003d710 f   libvcruntimed:frame.obj
 0001:0003ca20       ?GetHandlerSearchState@__FrameHandler3@@SAHPEA_KPEAU_xDISPATCHER_CONTEXT@@PEBU_s_FuncInfo@@@Z 000000018003da20 f i libvcruntimed:frame.obj
 0001:0003cad0       ?GetHandlerSearchState@__FrameHandler4@@SAHPEA_KPEAU_xDISPATCHER_CONTEXT@@PEAUFuncInfo4@FH4@@@Z 000000018003dad0 f i libvcruntimed:frame.obj
 0001:0003cb50       ?GetMaxState@__FrameHandler3@@SAHPEAU_xDISPATCHER_CONTEXT@@PEBU_s_FuncInfo@@@Z 000000018003db50 f i libvcruntimed:frame.obj
 0001:0003cb70       ?GetMaxState@__FrameHandler4@@SAHPEAU_xDISPATCHER_CONTEXT@@PEAUFuncInfo4@FH4@@@Z 000000018003db70 f i libvcruntimed:frame.obj
 0001:0003cda0       ?ReadEntry@UWMap4@FH4@@AEAAXPEAPEAE@Z 000000018003dda0 f i libvcruntimed:frame.obj
 0001:0003ce50       ?TypeMatch@__FrameHandler3@@SAHPEBU_s_HandlerType@@PEBU_s_CatchableType@@PEBU_s_ThrowInfo@@@Z 000000018003de50 f   libvcruntimed:frame.obj
 0001:0003ce80       ?TypeMatch@__FrameHandler4@@SAHPEAUHandlerType4@FH4@@PEBU_s_CatchableType@@PEBU_s_ThrowInfo@@@Z 000000018003de80 f   libvcruntimed:frame.obj
 0001:0003ceb0       ?WalkBack@UWMap4@FH4@@AEAAXPEAPEAE@Z 000000018003deb0 f i libvcruntimed:frame.obj
 0001:0003cf00       ?WalkBack@iterator@UWMap4@FH4@@QEAAXXZ 000000018003df00 f i libvcruntimed:frame.obj
 0001:0003cf40       ?WalkForward@UWMap4@FH4@@AEAAXPEAPEAE@Z 000000018003df40 f i libvcruntimed:frame.obj
 0001:0003cf70       ?_CallMemberFunction1@@YAXQEAX00@Z 000000018003df70 f i libvcruntimed:frame.obj
 0001:0003cfb0       ?_CallMemberFunction2@@YAXQEAX00H@Z 000000018003dfb0 f i libvcruntimed:frame.obj
 0001:0003d040       ?begin@HandlerMap4@FH4@@QEAA?AViterator@12@XZ 000000018003e040 f i libvcruntimed:frame.obj
 0001:0003d070       ?begin@HandlerMap@__FrameHandler3@@QEAA?AViterator@12@XZ 000000018003e070 f i libvcruntimed:frame.obj
 0001:0003d0a0       ?begin@UWMap4@FH4@@QEAA?AViterator@12@XZ 000000018003e0a0 f i libvcruntimed:frame.obj
 0001:0003d0d0       ?end@HandlerMap4@FH4@@QEAA?AViterator@12@XZ 000000018003e0d0 f i libvcruntimed:frame.obj
 0001:0003d100       ?end@HandlerMap@__FrameHandler3@@QEAA?AViterator@12@XZ 000000018003e100 f i libvcruntimed:frame.obj
 0001:0003d130       ?getESTypes@__FrameHandler3@@SAPEBU_s_ESTypeList@@PEBU_s_FuncInfo@@@Z 000000018003e130 f i libvcruntimed:frame.obj
 0001:0003d170       ?getESTypes@__FrameHandler4@@SAPEBU_s_ESTypeList@@PEAUFuncInfo4@FH4@@@Z 000000018003e170 f i libvcruntimed:frame.obj
 0001:0003d180       ?getLastEntry@HandlerMap4@FH4@@QEAAPEAUHandlerType4@2@XZ 000000018003e180 f i libvcruntimed:frame.obj
 0001:0003d1c0       ?getLastEntry@HandlerMap@__FrameHandler3@@QEAAPEBU_s_HandlerType@@XZ 000000018003e1c0 f i libvcruntimed:frame.obj
 0001:0003d1e0       ?getMagicNum@__FrameHandler3@@SAIPEBU_s_FuncInfo@@@Z 000000018003e1e0 f i libvcruntimed:frame.obj
 0001:0003d200       ?getMagicNum@__FrameHandler4@@SAIPEAUFuncInfo4@FH4@@@Z 000000018003e200 f i libvcruntimed:frame.obj
 0001:0003d210       ?getNumTryBlocks@TryBlockMap4@FH4@@QEAAIXZ 000000018003e210 f i libvcruntimed:frame.obj
 0001:0003d220       ?getNumTryBlocks@TryBlockMap@__FrameHandler3@@QEAAIXZ 000000018003e220 f i libvcruntimed:frame.obj
 0001:0003d240       ?getStartStop@UWMap4@FH4@@QEAAXHHAEAViterator@12@0@Z 000000018003e240 f i libvcruntimed:frame.obj
 0001:0003d360       ?getStateFromIterators@UWMap4@FH4@@SAHAEBViterator@12@H0H0@Z 000000018003e360 f i libvcruntimed:frame.obj
 0001:0003d4a0       ?isEHs@__FrameHandler3@@SA_NPEBU_s_FuncInfo@@@Z 000000018003e4a0 f i libvcruntimed:frame.obj
 0001:0003d4e0       ?isEHs@__FrameHandler4@@SA_NPEAUFuncInfo4@FH4@@@Z 000000018003e4e0 f i libvcruntimed:frame.obj
 0001:0003d500       ?isNoExcept@__FrameHandler3@@SA_NPEBU_s_FuncInfo@@@Z 000000018003e500 f i libvcruntimed:frame.obj
 0001:0003d540       ?isNoExcept@__FrameHandler4@@SA_NPEAUFuncInfo4@FH4@@@Z 000000018003e540 f i libvcruntimed:frame.obj
 0001:0003d560       ?reset@HandlerType4@FH4@@QEAAXXZ 000000018003e560 f i libvcruntimed:frame.obj
 0001:0003d5c0       ?resetBuffer@HandlerMap4@FH4@@QEAAXXZ 000000018003e5c0 f i libvcruntimed:frame.obj
 0001:0003d5e0       ?setBuffer@HandlerMap4@FH4@@QEAAXI@Z 000000018003e5e0 f i libvcruntimed:frame.obj
 0001:0003d640       __BuildCatchObject         000000018003e640 f   libvcruntimed:frame.obj
 0001:0003d680       __BuildCatchObjectHelper   000000018003e680 f   libvcruntimed:frame.obj
 0001:0003d6c0       __TypeMatch                000000018003e6c0 f   libvcruntimed:frame.obj
 0001:0003d6f0       __vcrt_EncodePointer       000000018003e6f0 f i libvcruntimed:frame.obj
 0001:0003d710       ??$?0$00@DName@@QEAA@PEBDU?$StringLifeSelector@$00@@@Z 000000018003e710 f i libvcruntimed:undname.obj
 0001:0003d780       ??$?0$00@pcharNode@@QEAA@PEBDHU?$StringLifeSelector@$00@@@Z 000000018003e780 f i libvcruntimed:undname.obj
 0001:0003d7e0       ??$?0$01@DName@@QEAA@PEBDU?$StringLifeSelector@$01@@@Z 000000018003e7e0 f i libvcruntimed:undname.obj
 0001:0003d850       ??$?0$01@pcharNode@@QEAA@PEBDHU?$StringLifeSelector@$01@@@Z 000000018003e850 f i libvcruntimed:undname.obj
 0001:0003d900       ??$?0$0A@@DName@@QEAA@PEBDU?$StringLifeSelector@$0A@@@@Z 000000018003e900 f i libvcruntimed:undname.obj
 0001:0003d970       ??$?0$0A@@pcharNode@@QEAA@PEBDHU?$StringLifeSelector@$0A@@@@Z 000000018003e970 f i libvcruntimed:undname.obj
 0001:0003da20       ??$?0_K$0A@@?$optional@_K@std@@QEAA@$$QEA_K@Z 000000018003ea20 f i libvcruntimed:undname.obj
 0001:0003da70       ??$?0_K@?$_Optional_construct_base@_K@std@@QEAA@Uin_place_t@1@$$QEA_K@Z 000000018003ea70 f i libvcruntimed:undname.obj
 0001:0003daa0       ??$?0_K@?$_Optional_destruct_base@_K$00@std@@QEAA@Uin_place_t@1@$$QEA_K@Z 000000018003eaa0 f i libvcruntimed:undname.obj
 0001:0003dae0       ??$append@VDNameNode@@@DName@@AEAAXPEBVDNameNode@@@Z 000000018003eae0 f i libvcruntimed:undname.obj
 0001:0003db90       ??$append@VDNameStatusNode@@@DName@@AEAAXPEBVDNameStatusNode@@@Z 000000018003eb90 f i libvcruntimed:undname.obj
 0001:0003dc40       ??$append@VcharNode@@@DName@@AEAAXPEBVcharNode@@@Z 000000018003ec40 f i libvcruntimed:undname.obj
 0001:0003dcf0       ??$append@VpDNameNode@@@DName@@AEAAXPEBVpDNameNode@@@Z 000000018003ecf0 f i libvcruntimed:undname.obj
 0001:0003dda0       ??$append@VpcharNode@@@DName@@AEAAXPEBVpcharNode@@@Z 000000018003eda0 f i libvcruntimed:undname.obj
 0001:0003de50       ??$doPchar@$00@DName@@AEAAXPEBDH@Z 000000018003ee50 f i libvcruntimed:undname.obj
 0001:0003dfb0       ??$doPchar@$01@DName@@AEAAXPEBDH@Z 000000018003efb0 f i libvcruntimed:undname.obj
 0001:0003e110       ??$doPchar@$0A@@DName@@AEAAXPEBDH@Z 000000018003f110 f i libvcruntimed:undname.obj
 0001:0003e270       ??$forward@_K@std@@YA$$QEA_KAEA_K@Z 000000018003f270 f i libvcruntimed:undname.obj
 0001:0003e280       ??$size@D$04@std@@YA_KAEAY04$$CBD@Z 000000018003f280 f i libvcruntimed:undname.obj
 0001:0003e290       ??$size@D$0EB@@std@@YA_KAEAY0EB@$$CBD@Z 000000018003f290 f i libvcruntimed:undname.obj
 0001:0003e2a0       ??0?$_Optional_construct_base@_K@std@@QEAA@XZ 000000018003f2a0 f i libvcruntimed:undname.obj
 0001:0003e2c0       ??0?$_Optional_destruct_base@_K$00@std@@QEAA@XZ 000000018003f2c0 f i libvcruntimed:undname.obj
 0001:0003e2f0       ??0?$optional@_K@std@@QEAA@XZ 000000018003f2f0 f i libvcruntimed:undname.obj
 0001:0003e310       ??0Block@_HeapManager@@QEAA@XZ 000000018003f310 f i libvcruntimed:undname.obj
 0001:0003e330       ??0DName@@QEAA@AEAPEBDD@Z  000000018003f330 f   libvcruntimed:undname.obj
 0001:0003e500       ??0DName@@QEAA@AEBUStringLiteral@@@Z 000000018003f500 f   libvcruntimed:undname.obj
 0001:0003e560       ??0DName@@QEAA@AEBV0@@Z    000000018003f560 f i libvcruntimed:undname.obj
 0001:0003e590       ??0DName@@QEAA@D@Z         000000018003f590 f   libvcruntimed:undname.obj
 0001:0003e5d0       ??0DName@@QEAA@PEAV0@@Z    000000018003f5d0 f   libvcruntimed:undname.obj
 0001:0003e6b0       ??0DName@@QEAA@W4DNameStatus@@@Z 000000018003f6b0 f   libvcruntimed:undname.obj
 0001:0003e760       ??0DName@@QEAA@XZ          000000018003f760 f i libvcruntimed:undname.obj
 0001:0003e790       ??0DName@@QEAA@_J@Z        000000018003f790 f   libvcruntimed:undname.obj
 0001:0003e8a0       ??0DName@@QEAA@_K@Z        000000018003f8a0 f   libvcruntimed:undname.obj
 0001:0003e970       ??0DNameNode@@IEAA@XZ      000000018003f970 f i libvcruntimed:undname.obj
 0001:0003e990       ??0Replicator@@QEAA@XZ     000000018003f990 f i libvcruntimed:undname.obj
 0001:0003e9d0       ??0UnDecorator@@QEAA@PEBDP6APEADJ@ZK@Z 000000018003f9d0 f i libvcruntimed:undname.obj
 0001:0003ea80       ??0_Nontrivial_dummy_type@std@@QEAA@XZ 000000018003fa80 f i libvcruntimed:undname.obj
 0001:0003ea90       ??0charNode@@QEAA@D@Z      000000018003fa90 f i libvcruntimed:undname.obj
 0001:0003ead0       ??0pDNameNode@@QEAA@PEAVDName@@@Z 000000018003fad0 f   libvcruntimed:undname.obj
 0001:0003eb50       ??0pairNode@@QEAA@PEBVDNameNode@@0@Z 000000018003fb50 f i libvcruntimed:undname.obj
 0001:0003ebd0       ??2@YAPEAX_KAEAV_HeapManager@@H@Z 000000018003fbd0 f   libvcruntimed:undname.obj
 0001:0003ec30       ??4DName@@QEAAAEAV0@AEBUStringLiteral@@@Z 000000018003fc30 f   libvcruntimed:undname.obj
 0001:0003ec80       ??4DName@@QEAAAEAV0@AEBV0@@Z 000000018003fc80 f   libvcruntimed:undname.obj
 0001:0003ecb0       ??4DName@@QEAAAEAV0@D@Z    000000018003fcb0 f i libvcruntimed:undname.obj
 0001:0003ecf0       ??4DName@@QEAAAEAV0@PEAV0@@Z 000000018003fcf0 f   libvcruntimed:undname.obj
 0001:0003edc0       ??4DName@@QEAAAEAV0@W4DNameStatus@@@Z 000000018003fdc0 f   libvcruntimed:undname.obj
 0001:0003ee50       ??AReplicator@@QEBA?AVDName@@H@Z 000000018003fe50 f   libvcruntimed:undname.obj
 0001:0003eee0       ??B?$optional@_K@std@@QEBA_NXZ 000000018003fee0 f i libvcruntimed:undname.obj
 0001:0003eef0       ??D?$optional@_K@std@@QEGAAAEA_KXZ 000000018003fef0 f i libvcruntimed:undname.obj
 0001:0003ef90       ??H@YA?AVDName@@AEBUStringLiteral@@AEBV0@@Z 000000018003ff90 f i libvcruntimed:undname.obj
 0001:0003efe0       ??H@YA?AVDName@@DAEBV0@@Z  000000018003ffe0 f i libvcruntimed:undname.obj
 0001:0003f030       ??H@YA?AVDName@@W4DNameStatus@@AEBV0@@Z 0000000180040030 f i libvcruntimed:undname.obj
 0001:0003f080       ??HDName@@QEBA?AV0@AEBUStringLiteral@@@Z 0000000180040080 f   libvcruntimed:undname.obj
 0001:0003f0d0       ??HDName@@QEBA?AV0@AEBV0@@Z 00000001800400d0 f   libvcruntimed:undname.obj
 0001:0003f120       ??HDName@@QEBA?AV0@D@Z     0000000180040120 f   libvcruntimed:undname.obj
 0001:0003f170       ??HDName@@QEBA?AV0@PEAV0@@Z 0000000180040170 f   libvcruntimed:undname.obj
 0001:0003f1c0       ??HDName@@QEBA?AV0@W4DNameStatus@@@Z 00000001800401c0 f   libvcruntimed:undname.obj
 0001:0003f210       ??HStringLiteral@@QEBA?AU0@H@Z 0000000180040210 f i libvcruntimed:undname.obj
 0001:0003f250       ??YDName@@QEAAAEAV0@AEBUStringLiteral@@@Z 0000000180040250 f   libvcruntimed:undname.obj
 0001:0003f320       ??YDName@@QEAAAEAV0@AEBV0@@Z 0000000180040320 f   libvcruntimed:undname.obj
 0001:0003f3e0       ??YDName@@QEAAAEAV0@D@Z    00000001800403e0 f   libvcruntimed:undname.obj
 0001:0003f480       ??YDName@@QEAAAEAV0@PEAV0@@Z 0000000180040480 f   libvcruntimed:undname.obj
 0001:0003f560       ??YDName@@QEAAAEAV0@W4DNameStatus@@@Z 0000000180040560 f   libvcruntimed:undname.obj
 0001:0003f5d0       ??YReplicator@@QEAAAEAV0@AEBVDName@@@Z 00000001800405d0 f   libvcruntimed:undname.obj
 0001:0003f690       ??_5DName@@QEAAAEAV0@AEBV0@@Z 0000000180040690 f   libvcruntimed:undname.obj
 0001:0003f700       ??__K_l@@YA?AUStringLiteral@@PEBD_K@Z 0000000180040700 f i libvcruntimed:undname.obj
 0001:0003f750       ?Constructor@_HeapManager@@QEAAXP6APEAX_K@ZP6AXPEAX@Z@Z 0000000180040750 f i libvcruntimed:undname.obj
 0001:0003f7b0       ?Destructor@_HeapManager@@QEAAXXZ 00000001800407b0 f i libvcruntimed:undname.obj
 0001:0003f850       ?UScore@UnDecorator@@SA?AUStringLiteral@@W4Tokens@@@Z 0000000180040850 f   libvcruntimed:undname.obj
 0001:0003f8e0       ?composeDeclaration@UnDecorator@@CA?AVDName@@AEBV2@@Z 00000001800408e0 f i libvcruntimed:undname.obj
 0001:00041de0       ?dbGetString@DName@@QEBAPEADXZ 0000000180042de0 f   libvcruntimed:undname.obj
 0001:00041e10       ?doAccessSpecifiers@UnDecorator@@SAHXZ 0000000180042e10 f i libvcruntimed:undname.obj
 0001:00041e40       ?doAllocationLanguage@UnDecorator@@SAHXZ 0000000180042e40 f i libvcruntimed:undname.obj
 0001:00041e70       ?doAllocationModel@UnDecorator@@SAHXZ 0000000180042e70 f i libvcruntimed:undname.obj
 0001:00041ea0       ?doEcsu@UnDecorator@@SAHXZ 0000000180042ea0 f i libvcruntimed:undname.obj
 0001:00041ed0       ?doEllipsis@UnDecorator@@SAHXZ 0000000180042ed0 f i libvcruntimed:undname.obj
 0001:00041f00       ?doFunctionReturns@UnDecorator@@SAHXZ 0000000180042f00 f i libvcruntimed:undname.obj
 0001:00041f30       ?doMSKeywords@UnDecorator@@SAHXZ 0000000180042f30 f i libvcruntimed:undname.obj
 0001:00041f60       ?doMemberTypes@UnDecorator@@SAHXZ 0000000180042f60 f i libvcruntimed:undname.obj
 0001:00041f90       ?doNameOnly@UnDecorator@@SAHXZ 0000000180042f90 f i libvcruntimed:undname.obj
 0001:00041fa0       ?doNoIdentCharCheck@UnDecorator@@SAHXZ 0000000180042fa0 f i libvcruntimed:undname.obj
 0001:00041fb0       ?doPchar@DName@@AEAAXD@Z   0000000180042fb0 f   libvcruntimed:undname.obj
 0001:00042040       ?doPtr64@UnDecorator@@SAHXZ 0000000180043040 f i libvcruntimed:undname.obj
 0001:00042070       ?doRestrictionSpec@UnDecorator@@SAHXZ 0000000180043070 f i libvcruntimed:undname.obj
 0001:000420a0       ?doThisTypes@UnDecorator@@SAHXZ 00000001800430a0 f i libvcruntimed:undname.obj
 0001:000420d0       ?doThrowTypes@UnDecorator@@SAHXZ 00000001800430d0 f i libvcruntimed:undname.obj
 0001:00042100       ?doTypeOnly@UnDecorator@@SAHXZ 0000000180043100 f i libvcruntimed:undname.obj
 0001:00042110       ?doUnderScore@UnDecorator@@SAHXZ 0000000180043110 f i libvcruntimed:undname.obj
 0001:00042140       ?getAddressOf@UnDecorator@@CA?AVDName@@XZ 0000000180043140 f   libvcruntimed:undname.obj
 0001:000421e0       ?getArgumentList@UnDecorator@@CA?AVDName@@XZ 00000001800431e0 f   libvcruntimed:undname.obj
 0001:00042380       ?getArgumentTypes@UnDecorator@@CA?AVDName@@XZ 0000000180043380 f   libvcruntimed:undname.obj
 0001:00042660       ?getArrayAccess@UnDecorator@@CA?AVDName@@XZ 0000000180043660 f   libvcruntimed:undname.obj
 0001:00042720       ?getArrayObject@UnDecorator@@CA?AVDName@@XZ 0000000180043720 f   libvcruntimed:undname.obj
 0001:00042840       ?getArrayType@UnDecorator@@CA?AVDName@@AEBV2@@Z 0000000180043840 f i libvcruntimed:undname.obj
 0001:00042c00       ?getBasedType@UnDecorator@@CA?AVDName@@XZ 0000000180043c00 f   libvcruntimed:undname.obj
 0001:00042d70       ?getBasicDataType@UnDecorator@@CA?AVDName@@AEBV2@@Z 0000000180043d70 f   libvcruntimed:undname.obj
 0001:00043b10       ?getCHPEName@UnDecorator@@QEAAPEADPEADH@Z 0000000180044b10 f i libvcruntimed:undname.obj
 0001:00043ce0       ?getCallIndex@UnDecorator@@CA?AVDName@@XZ 0000000180044ce0 f i libvcruntimed:undname.obj
 0001:00043d00       ?getCallingConvention@UnDecorator@@CA?AVDName@@XZ 0000000180044d00 f   libvcruntimed:undname.obj
 0001:000440f0       ?getDataIndirectType@UnDecorator@@CA?AVDName@@AEBV2@W4IndirectionKind@@0H@Z 00000001800450f0 f   libvcruntimed:undname.obj
 0001:00044d90       ?getDataIndirectType@UnDecorator@@CA?AVDName@@XZ 0000000180045d90 f i libvcruntimed:undname.obj
 0001:00044de0       ?getDataType@UnDecorator@@CA?AVDName@@PEAV2@@Z 0000000180045de0 f   libvcruntimed:undname.obj
 0001:00044fc0       ?getDecoratedName@UnDecorator@@CA?AVDName@@XZ 0000000180045fc0 f   libvcruntimed:undname.obj
 0001:000454b0       ?getDimension@UnDecorator@@CA?AVDName@@_N@Z 00000001800464b0 f   libvcruntimed:undname.obj
 0001:000457c0       ?getDispatchTarget@UnDecorator@@CA?AVDName@@XZ 00000001800467c0 f   libvcruntimed:undname.obj
 0001:00045890       ?getDisplacement@UnDecorator@@CA?AVDName@@XZ 0000000180046890 f i libvcruntimed:undname.obj
 0001:000458b0       ?getECSUDataType@UnDecorator@@CA?AVDName@@XZ 00000001800468b0 f   libvcruntimed:undname.obj
 0001:00045c40       ?getECSUName@UnDecorator@@CA?AVDName@@XZ 0000000180046c40 f i libvcruntimed:undname.obj
 0001:00045c60       ?getEnumType@UnDecorator@@CA?AVDName@@XZ 0000000180046c60 f i libvcruntimed:undname.obj
 0001:00045ef0       ?getExtendedDataIndirectType@UnDecorator@@CA?AVDName@@AEAW4IndirectionKind@@AEA_NH@Z 0000000180046ef0 f   libvcruntimed:undname.obj
 0001:00046210       ?getExternalDataType@UnDecorator@@CA?AVDName@@AEBV2@@Z 0000000180047210 f i libvcruntimed:undname.obj
 0001:000462f0       ?getFloatingPoint@UnDecorator@@CA?AVDName@@H@Z 00000001800472f0 f   libvcruntimed:undname.obj
 0001:00046570       ?getFunctionIndirectType@UnDecorator@@CA?AVDName@@AEBV2@@Z 0000000180047570 f   libvcruntimed:undname.obj
 0001:00046ba0       ?getGuardNumber@UnDecorator@@CA?AVDName@@XZ 0000000180047ba0 f i libvcruntimed:undname.obj
 0001:00046bc0       ?getLastChar@DName@@QEBADXZ 0000000180047bc0 f i libvcruntimed:undname.obj
 0001:00046c10       ?getLastChar@DNameStatusNode@@UEBADXZ 0000000180047c10 f i libvcruntimed:undname.obj
 0001:00046c50       ?getLastChar@charNode@@UEBADXZ 0000000180047c50 f i libvcruntimed:undname.obj
 0001:00046c60       ?getLastChar@pDNameNode@@UEBADXZ 0000000180047c60 f i libvcruntimed:undname.obj
 0001:00046ca0       ?getLastChar@pairNode@@UEBADXZ 0000000180047ca0 f i libvcruntimed:undname.obj
 0001:00046d20       ?getLastChar@pcharNode@@UEBADXZ 0000000180047d20 f i libvcruntimed:undname.obj
 0001:00046d60       ?getLexicalFrame@UnDecorator@@CA?AVDName@@XZ 0000000180047d60 f i libvcruntimed:undname.obj
 0001:00046db0       ?getMemberAccess@UnDecorator@@CA?AVDName@@XZ 0000000180047db0 f   libvcruntimed:undname.obj
 0001:00046e60       ?getMemoryWithBuffer@_HeapManager@@QEAAPEAX_K@Z 0000000180047e60 f   libvcruntimed:undname.obj
 0001:00046fb0       ?getMemoryWithoutBuffer@_HeapManager@@QEAAPEAX_K@Z 0000000180047fb0 f   libvcruntimed:undname.obj
 0001:00047000       ?getNoexcept@UnDecorator@@CA?AVDName@@XZ 0000000180048000 f   libvcruntimed:undname.obj
 0001:000470b0       ?getNumberOfDimensions@UnDecorator@@CAHXZ 00000001800480b0 f   libvcruntimed:undname.obj
 0001:000471d0       ?getOperatorName@UnDecorator@@CA?AVDName@@_NPEA_N@Z 00000001800481d0 f i libvcruntimed:undname.obj
 0001:000481c0       ?getPointerToMember@UnDecorator@@CA?AVDName@@XZ 00000001800491c0 f   libvcruntimed:undname.obj
 0001:00048310       ?getPointerType@UnDecorator@@CA?AVDName@@AEBV2@0@Z 0000000180049310 f i libvcruntimed:undname.obj
 0001:00048350       ?getPointerTypeArray@UnDecorator@@CA?AVDName@@AEBV2@0@Z 0000000180049350 f i libvcruntimed:undname.obj
 0001:00048390       ?getPrimaryDataType@UnDecorator@@CA?AVDName@@AEBV2@@Z 0000000180049390 f   libvcruntimed:undname.obj
 0001:000489c0       ?getPtrRefDataType@UnDecorator@@CA?AVDName@@AEBV2@H@Z 00000001800499c0 f   libvcruntimed:undname.obj
 0001:00048db0       ?getPtrRefType@UnDecorator@@CA?AVDName@@AEBV2@0W4IndirectionKind@@@Z 0000000180049db0 f   libvcruntimed:undname.obj
 0001:00048ff0       ?getReferenceType@UnDecorator@@CA?AVDName@@AEBV2@0W4IndirectionKind@@@Z 0000000180049ff0 f i libvcruntimed:undname.obj
 0001:00049030       ?getRestrictionSpec@UnDecorator@@CA?AVDName@@XZ 000000018004a030 f   libvcruntimed:undname.obj
 0001:000492c0       ?getReturnType@UnDecorator@@CA?AVDName@@PEAV2@@Z 000000018004a2c0 f   libvcruntimed:undname.obj
 0001:00049320       ?getScope@UnDecorator@@CA?AVDName@@XZ 000000018004a320 f   libvcruntimed:undname.obj
 0001:00049a80       ?getScopedName@UnDecorator@@CA?AVDName@@XZ 000000018004aa80 f   libvcruntimed:undname.obj
 0001:00049c80       ?getSignedDimension@UnDecorator@@CA?AVDName@@XZ 000000018004ac80 f   libvcruntimed:undname.obj
 0001:00049d10       ?getStorageConvention@UnDecorator@@CA?AVDName@@XZ 000000018004ad10 f i libvcruntimed:undname.obj
 0001:00049d30       ?getString@DName@@QEBAPEADPEAD0@Z 000000018004ad30 f i libvcruntimed:undname.obj
 0001:00049db0       ?getString@DName@@QEBAPEADPEADH@Z 000000018004adb0 f i libvcruntimed:undname.obj
 0001:00049e70       ?getString@DNameStatusNode@@UEBAPEADPEAD0@Z 000000018004ae70 f i libvcruntimed:undname.obj
 0001:00049ec0       ?getString@charNode@@UEBAPEADPEAD0@Z 000000018004aec0 f i libvcruntimed:undname.obj
 0001:00049f00       ?getString@pDNameNode@@UEBAPEADPEAD0@Z 000000018004af00 f i libvcruntimed:undname.obj
 0001:00049f60       ?getString@pairNode@@UEBAPEADPEAD0@Z 000000018004af60 f i libvcruntimed:undname.obj
 0001:0004a030       ?getString@pcharNode@@UEBAPEADPEAD0@Z 000000018004b030 f i libvcruntimed:undname.obj
 0001:0004a070       ?getStringEncoding@UnDecorator@@CA?AVDName@@W4PrefixKind@@H@Z 000000018004b070 f   libvcruntimed:undname.obj
 0001:0004a1d0       ?getStringHelper@@YAPEADPEADPEBD1H@Z 000000018004b1d0 f i libvcruntimed:undname.obj
 0001:0004a240       ?getStringObject@UnDecorator@@CA?AVDName@@XZ 000000018004b240 f   libvcruntimed:undname.obj
 0001:0004a320       ?getSymbolName@UnDecorator@@CA?AVDName@@XZ 000000018004b320 f i libvcruntimed:undname.obj
 0001:0004a3c0       ?getTemplateArgumentList@UnDecorator@@CA?AVDName@@XZ 000000018004b3c0 f   libvcruntimed:undname.obj
 0001:0004a700       ?getTemplateName@UnDecorator@@CA?AVDName@@_N@Z 000000018004b700 f   libvcruntimed:undname.obj
 0001:0004a940       ?getTemplateNonTypeArgument@UnDecorator@@CA?AVDName@@XZ 000000018004b940 f   libvcruntimed:undname.obj
 0001:0004b1e0       ?getTemplateTypeArgument@UnDecorator@@CA?AVDName@@XZ 000000018004c1e0 f   libvcruntimed:undname.obj
 0001:0004b450       ?getThisType@UnDecorator@@CA?AVDName@@XZ 000000018004c450 f i libvcruntimed:undname.obj
 0001:0004b4a0       ?getThrowTypes@UnDecorator@@CA?AVDName@@XZ 000000018004c4a0 f   libvcruntimed:undname.obj
 0001:0004b4f0       ?getTypeEncoding@UnDecorator@@CAHXZ 000000018004c4f0 f i libvcruntimed:undname.obj
 0001:0004c150       ?getUndecoratedName@UnDecorator@@QEAAPEADPEADH@Z 000000018004d150 f i libvcruntimed:undname.obj
 0001:0004c340       ?getUnionObject@UnDecorator@@CA?AVDName@@XZ 000000018004d340 f   libvcruntimed:undname.obj
 0001:0004c450       ?getVCallThunkType@UnDecorator@@CA?AVDName@@XZ 000000018004d450 f i libvcruntimed:undname.obj
 0001:0004c500       ?getValue@UnDecorator@@CA?AV?$optional@_K@std@@XZ 000000018004d500 f   libvcruntimed:undname.obj
 0001:0004c5d0       ?getValueObject@UnDecorator@@CA?AVDName@@XZ 000000018004d5d0 f   libvcruntimed:undname.obj
 0001:0004c7f0       ?getVbTableType@UnDecorator@@CA?AVDName@@AEBV2@@Z 000000018004d7f0 f i libvcruntimed:undname.obj
 0001:0004c820       ?getVdispMapType@UnDecorator@@CA?AVDName@@AEBV2@@Z 000000018004d820 f i libvcruntimed:undname.obj
 0001:0004c8e0       ?getVfTableType@UnDecorator@@CA?AVDName@@AEBV2@@Z 000000018004d8e0 f i libvcruntimed:undname.obj
 0001:0004cb80       ?getZName@UnDecorator@@CA?AVDName@@_N0@Z 000000018004db80 f   libvcruntimed:undname.obj
 0001:0004cff0       ?haveTemplateParameters@UnDecorator@@SAHXZ 000000018004dff0 f i libvcruntimed:undname.obj
 0001:0004d000       ?isArray@DName@@QEBAHXZ    000000018004e000 f i libvcruntimed:undname.obj
 0001:0004d020       ?isComArray@DName@@QEBAHXZ 000000018004e020 f i libvcruntimed:undname.obj
 0001:0004d040       ?isEmpty@DName@@QEBAHXZ    000000018004e040 f i libvcruntimed:undname.obj
 0001:0004d070       ?isFull@Replicator@@QEBAHXZ 000000018004e070 f i libvcruntimed:undname.obj
 0001:0004d0a0       ?isNoTE@DName@@QEBAHXZ     000000018004e0a0 f i libvcruntimed:undname.obj
 0001:0004d0c0       ?isPinPtr@DName@@QEBAHXZ   000000018004e0c0 f i libvcruntimed:undname.obj
 0001:0004d0e0       ?isPtrRef@DName@@QEBAHXZ   000000018004e0e0 f i libvcruntimed:undname.obj
 0001:0004d100       ?isUDC@DName@@QEBAHXZ      000000018004e100 f i libvcruntimed:undname.obj
 0001:0004d150       ?isUDTThunk@DName@@QEBAHXZ 000000018004e150 f i libvcruntimed:undname.obj
 0001:0004d1a0       ?isVCallThunk@DName@@QEBAHXZ 000000018004e1a0 f i libvcruntimed:undname.obj
 0001:0004d1c0       ?isValid@DName@@QEBAHXZ    000000018004e1c0 f i libvcruntimed:undname.obj
 0001:0004d200       ?length@DName@@QEBAHXZ     000000018004e200 f i libvcruntimed:undname.obj
 0001:0004d250       ?length@DNameStatusNode@@UEBAHXZ 000000018004e250 f i libvcruntimed:undname.obj
 0001:0004d260       ?length@charNode@@UEBAHXZ  000000018004e260 f i libvcruntimed:undname.obj
 0001:0004d270       ?length@pDNameNode@@UEBAHXZ 000000018004e270 f i libvcruntimed:undname.obj
 0001:0004d2b0       ?length@pairNode@@UEBAHXZ  000000018004e2b0 f i libvcruntimed:undname.obj
 0001:0004d340       ?length@pcharNode@@UEBAHXZ 000000018004e340 f i libvcruntimed:undname.obj
 0001:0004d350       ?make@DNameStatusNode@@SAPEBV1@W4DNameStatus@@@Z 000000018004e350 f i libvcruntimed:undname.obj
 0001:0004d3a0       ?parseDecoratedName@UnDecorator@@CA?AVDName@@XZ 000000018004e3a0 f   libvcruntimed:undname.obj
 0001:0004d590       ?raw_length@DNameStatusNode@@UEBAHXZ 000000018004e590 f i libvcruntimed:undname.obj
 0001:0004d5b0       ?raw_length@charNode@@UEBAHXZ 000000018004e5b0 f i libvcruntimed:undname.obj
 0001:0004d5d0       ?raw_length@pDNameNode@@UEBAHXZ 000000018004e5d0 f i libvcruntimed:undname.obj
 0001:0004d5e0       ?raw_length@pairNode@@UEBAHXZ 000000018004e5e0 f i libvcruntimed:undname.obj
 0001:0004d5f0       ?raw_length@pcharNode@@UEBAHXZ 000000018004e5f0 f i libvcruntimed:undname.obj
 0001:0004d610       ?setIsArray@DName@@QEAAXXZ 000000018004e610 f i libvcruntimed:undname.obj
 0001:0004d630       ?setIsComArray@DName@@QEAAXXZ 000000018004e630 f i libvcruntimed:undname.obj
 0001:0004d650       ?setIsNoTE@DName@@QEAAXXZ  000000018004e650 f i libvcruntimed:undname.obj
 0001:0004d670       ?setIsPinPtr@DName@@QEAAXXZ 000000018004e670 f i libvcruntimed:undname.obj
 0001:0004d690       ?setIsUDC@DName@@QEAAXXZ   000000018004e690 f i libvcruntimed:undname.obj
 0001:0004d6c0       ?setIsVCallThunk@DName@@QEAAXXZ 000000018004e6c0 f i libvcruntimed:undname.obj
 0001:0004d6e0       ?setPtrRef@DName@@QEAAAEAV1@XZ 000000018004e6e0 f i libvcruntimed:undname.obj
 0001:0004d700       ?status@DName@@QEBA?AW4DNameStatus@@XZ 000000018004e700 f i libvcruntimed:undname.obj
 0001:0004d830       __unDName                  000000018004e830 f   libvcruntimed:undname.obj
 0001:0004d890       __unDNameEx                000000018004e890 f   libvcruntimed:undname.obj
 0001:0004d950       unDNameGenerateCHPE        000000018004e950 f   libvcruntimed:undname.obj
 0001:0004da00       ??$__crt_interlocked_exchange_pointer@UHINSTANCE__@@PEAU1@@@YAPEAUHINSTANCE__@@PEDSEAU0@QEAU0@@Z 000000018004ea00 f i libvcruntimed:winapi_downlevel.obj
 0001:0004da20       ??$__crt_interlocked_exchange_pointer@UHINSTANCE__@@PEAX@@YAPEAUHINSTANCE__@@PEDSEAU0@QEAX@Z 000000018004ea20 f i libvcruntimed:winapi_downlevel.obj
 0001:0004da40       ??$__crt_interlocked_exchange_pointer@XPEAX@@YAPEAXPEDSEAXQEAX@Z 000000018004ea40 f i libvcruntimed:winapi_downlevel.obj
 0001:0004da60       ??$__crt_interlocked_read_pointer@UHINSTANCE__@@@@YAPEAUHINSTANCE__@@PEDSEAU0@@Z 000000018004ea60 f i libvcruntimed:winapi_downlevel.obj
 0001:0004da80       ??$__crt_interlocked_read_pointer@X@@YAPEAXPEDSEAX@Z 000000018004ea80 f i libvcruntimed:winapi_downlevel.obj
 0001:0004df90       __vcrt_FlsAlloc            000000018004ef90 f   libvcruntimed:winapi_downlevel.obj
 0001:0004dfe0       __vcrt_FlsFree             000000018004efe0 f   libvcruntimed:winapi_downlevel.obj
 0001:0004e030       __vcrt_FlsGetValue         000000018004f030 f   libvcruntimed:winapi_downlevel.obj
 0001:0004e080       __vcrt_FlsSetValue         000000018004f080 f   libvcruntimed:winapi_downlevel.obj
 0001:0004e0e0       __vcrt_InitializeCriticalSectionEx 000000018004f0e0 f   libvcruntimed:winapi_downlevel.obj
 0001:0004e160       _CallSettingFrame          000000018004f160 f   libvcruntimed:handlers.obj
 0001:0004e1b0       _CallSettingFrame_LookupContinuationIndex 000000018004f1b0 f   libvcruntimed:handlers.obj
 0001:0004e1e0       _CallSettingFrame_NotifyContinuationAddr 000000018004f1e0 f   libvcruntimed:handlers.obj
 0001:0004e210       _CallSettingFrameEncoded   000000018004f210 f   libvcruntimed:handlers.obj
 0001:0004e260       ??$?0AEBV?$stream_output_adapter@D@__crt_stdio_output@@AEB_KAEBQEBDAEAV__crt_cached_ptd_host@@AEBQEAD@?$format_validation_base@DV?$stream_output_adapter@D@__crt_stdio_output@@@__crt_stdio_output@@IEAA@AEBV?$stream_output_adapter@D@1@AEB_KAEBQEBDAEAV__crt_cached_ptd_host@@AEBQEAD@Z 000000018004f260 f i libucrtd:output.obj
 0001:0004e2b0       ??$?0AEBV?$stream_output_adapter@D@__crt_stdio_output@@AEB_KAEBQEBDAEAV__crt_cached_ptd_host@@AEBQEAD@?$positional_parameter_base@DV?$stream_output_adapter@D@__crt_stdio_output@@@__crt_stdio_output@@IEAA@AEBV?$stream_output_adapter@D@1@AEB_KAEBQEBDAEAV__crt_cached_ptd_host@@AEBQEAD@Z 000000018004f2b0 f i libucrtd:output.obj
 0001:0004e350       ??$?0AEBV?$stream_output_adapter@D@__crt_stdio_output@@AEB_KAEBQEBDAEAV__crt_cached_ptd_host@@AEBQEAD@?$standard_base@DV?$stream_output_adapter@D@__crt_stdio_output@@@__crt_stdio_output@@IEAA@AEBV?$stream_output_adapter@D@1@AEB_KAEBQEBDAEAV__crt_cached_ptd_host@@AEBQEAD@Z 000000018004f350 f i libucrtd:output.obj
 0001:0004e3c0       ??$?0AEBV?$stream_output_adapter@_W@__crt_stdio_output@@AEB_KAEBQEB_WAEAV__crt_cached_ptd_host@@AEBQEAD@?$format_validation_base@_WV?$stream_output_adapter@_W@__crt_stdio_output@@@__crt_stdio_output@@IEAA@AEBV?$stream_output_adapter@_W@1@AEB_KAEBQEB_WAEAV__crt_cached_ptd_host@@AEBQEAD@Z 000000018004f3c0 f i libucrtd:output.obj
 0001:0004e410       ??$?0AEBV?$stream_output_adapter@_W@__crt_stdio_output@@AEB_KAEBQEB_WAEAV__crt_cached_ptd_host@@AEBQEAD@?$positional_parameter_base@_WV?$stream_output_adapter@_W@__crt_stdio_output@@@__crt_stdio_output@@IEAA@AEBV?$stream_output_adapter@_W@1@AEB_KAEBQEB_WAEAV__crt_cached_ptd_host@@AEBQEAD@Z 000000018004f410 f i libucrtd:output.obj
 0001:0004e4b0       ??$?0AEBV?$stream_output_adapter@_W@__crt_stdio_output@@AEB_KAEBQEB_WAEAV__crt_cached_ptd_host@@AEBQEAD@?$standard_base@_WV?$stream_output_adapter@_W@__crt_stdio_output@@@__crt_stdio_output@@IEAA@AEBV?$stream_output_adapter@_W@1@AEB_KAEBQEB_WAEAV__crt_cached_ptd_host@@AEBQEAD@Z 000000018004f4b0 f i libucrtd:output.obj
 0001:0004e520       ??$?0AEBV?$string_output_adapter@D@__crt_stdio_output@@AEB_KAEBQEBDAEAV__crt_cached_ptd_host@@AEBQEAD@?$format_validation_base@DV?$string_output_adapter@D@__crt_stdio_output@@@__crt_stdio_output@@IEAA@AEBV?$string_output_adapter@D@1@AEB_KAEBQEBDAEAV__crt_cached_ptd_host@@AEBQEAD@Z 000000018004f520 f i libucrtd:output.obj
 0001:0004e570       ??$?0AEBV?$string_output_adapter@D@__crt_stdio_output@@AEB_KAEBQEBDAEAV__crt_cached_ptd_host@@AEBQEAD@?$positional_parameter_base@DV?$string_output_adapter@D@__crt_stdio_output@@@__crt_stdio_output@@IEAA@AEBV?$string_output_adapter@D@1@AEB_KAEBQEBDAEAV__crt_cached_ptd_host@@AEBQEAD@Z 000000018004f570 f i libucrtd:output.obj
 0001:0004e610       ??$?0AEBV?$string_output_adapter@D@__crt_stdio_output@@AEB_KAEBQEBDAEAV__crt_cached_ptd_host@@AEBQEAD@?$standard_base@DV?$string_output_adapter@D@__crt_stdio_output@@@__crt_stdio_output@@IEAA@AEBV?$string_output_adapter@D@1@AEB_KAEBQEBDAEAV__crt_cached_ptd_host@@AEBQEAD@Z 000000018004f610 f i libucrtd:output.obj
 0001:0004e680       ??$?0AEBV?$string_output_adapter@_W@__crt_stdio_output@@AEB_KAEBQEB_WAEAV__crt_cached_ptd_host@@AEBQEAD@?$format_validation_base@_WV?$string_output_adapter@_W@__crt_stdio_output@@@__crt_stdio_output@@IEAA@AEBV?$string_output_adapter@_W@1@AEB_KAEBQEB_WAEAV__crt_cached_ptd_host@@AEBQEAD@Z 000000018004f680 f i libucrtd:output.obj
 0001:0004e6d0       ??$?0AEBV?$string_output_adapter@_W@__crt_stdio_output@@AEB_KAEBQEB_WAEAV__crt_cached_ptd_host@@AEBQEAD@?$positional_parameter_base@_WV?$string_output_adapter@_W@__crt_stdio_output@@@__crt_stdio_output@@IEAA@AEBV?$string_output_adapter@_W@1@AEB_KAEBQEB_WAEAV__crt_cached_ptd_host@@AEBQEAD@Z 000000018004f6d0 f i libucrtd:output.obj
 0001:0004e770       ??$?0AEBV?$string_output_adapter@_W@__crt_stdio_output@@AEB_KAEBQEB_WAEAV__crt_cached_ptd_host@@AEBQEAD@?$standard_base@_WV?$string_output_adapter@_W@__crt_stdio_output@@@__crt_stdio_output@@IEAA@AEBV?$string_output_adapter@_W@1@AEB_KAEBQEB_WAEAV__crt_cached_ptd_host@@AEBQEAD@Z 000000018004f770 f i libucrtd:output.obj
 0001:0004ec00       ??$__crt_interlocked_read@J@@YAJPEDJ@Z 000000018004fc00 f i libucrtd:output.obj
 0001:0004ec20       ??$_tcstol_internal@DPEAPEAD$0A@@@YAJAEAV__crt_cached_ptd_host@@QEBDQEAPEADH@Z 000000018004fc20 f i libucrtd:output.obj
 0001:0004ec70       ??$_tcstol_internal@_WPEAPEA_W$0A@@@YAJAEAV__crt_cached_ptd_host@@QEB_WQEAPEA_WH@Z 000000018004fc70 f i libucrtd:output.obj
 0001:00052c90       ??$count@D@formatting_buffer@__crt_stdio_output@@QEBA_KXZ 0000000180053c90 f i libucrtd:output.obj
 0001:00052ce0       ??$count@_W@formatting_buffer@__crt_stdio_output@@QEBA_KXZ 0000000180053ce0 f i libucrtd:output.obj
 0001:00052d30       ??$data@D@formatting_buffer@__crt_stdio_output@@QEAAPEADXZ 0000000180053d30 f i libucrtd:output.obj
 0001:00052d80       ??$data@_W@formatting_buffer@__crt_stdio_output@@QEAAPEA_WXZ 0000000180053d80 f i libucrtd:output.obj
 0001:00052dd0       ??$ensure_buffer_is_big_enough@D@formatting_buffer@__crt_stdio_output@@QEAA_N_KAEAV__crt_cached_ptd_host@@@Z 0000000180053dd0 f i libucrtd:output.obj
 0001:00052f10       ??$ensure_buffer_is_big_enough@_W@formatting_buffer@__crt_stdio_output@@QEAA_N_KAEAV__crt_cached_ptd_host@@@Z 0000000180053f10 f i libucrtd:output.obj
 0001:00053050       ??$extract_argument_from_va_list@C_J@?$positional_parameter_base@DV?$stream_output_adapter@D@__crt_stdio_output@@@__crt_stdio_output@@IEAA_NAEA_J@Z 0000000180054050 f i libucrtd:output.obj
 0001:00053210       ??$extract_argument_from_va_list@C_J@?$positional_parameter_base@DV?$string_output_adapter@D@__crt_stdio_output@@@__crt_stdio_output@@IEAA_NAEA_J@Z 0000000180054210 f i libucrtd:output.obj
 0001:000533d0       ??$extract_argument_from_va_list@C_J@?$positional_parameter_base@_WV?$stream_output_adapter@_W@__crt_stdio_output@@@__crt_stdio_output@@IEAA_NAEA_J@Z 00000001800543d0 f i libucrtd:output.obj
 0001:00053590       ??$extract_argument_from_va_list@C_J@?$positional_parameter_base@_WV?$string_output_adapter@_W@__crt_stdio_output@@@__crt_stdio_output@@IEAA_NAEA_J@Z 0000000180054590 f i libucrtd:output.obj
 0001:00053750       ??$extract_argument_from_va_list@C_J@?$standard_base@DV?$stream_output_adapter@D@__crt_stdio_output@@@__crt_stdio_output@@IEAA_NAEA_J@Z 0000000180054750 f i libucrtd:output.obj
 0001:00053790       ??$extract_argument_from_va_list@C_J@?$standard_base@DV?$string_output_adapter@D@__crt_stdio_output@@@__crt_stdio_output@@IEAA_NAEA_J@Z 0000000180054790 f i libucrtd:output.obj
 0001:000537d0       ??$extract_argument_from_va_list@C_J@?$standard_base@_WV?$stream_output_adapter@_W@__crt_stdio_output@@@__crt_stdio_output@@IEAA_NAEA_J@Z 00000001800547d0 f i libucrtd:output.obj
 0001:00053810       ??$extract_argument_from_va_list@C_J@?$standard_base@_WV?$string_output_adapter@_W@__crt_stdio_output@@@__crt_stdio_output@@IEAA_NAEA_J@Z 0000000180054810 f i libucrtd:output.obj
 0001:00053850       ??$extract_argument_from_va_list@E_J@?$positional_parameter_base@DV?$stream_output_adapter@D@__crt_stdio_output@@@__crt_stdio_output@@IEAA_NAEA_J@Z 0000000180054850 f i libucrtd:output.obj
 0001:00053a10       ??$extract_argument_from_va_list@E_J@?$positional_parameter_base@DV?$string_output_adapter@D@__crt_stdio_output@@@__crt_stdio_output@@IEAA_NAEA_J@Z 0000000180054a10 f i libucrtd:output.obj
 0001:00053bd0       ??$extract_argument_from_va_list@E_J@?$positional_parameter_base@_WV?$stream_output_adapter@_W@__crt_stdio_output@@@__crt_stdio_output@@IEAA_NAEA_J@Z 0000000180054bd0 f i libucrtd:output.obj
 0001:00053d90       ??$extract_argument_from_va_list@E_J@?$positional_parameter_base@_WV?$string_output_adapter@_W@__crt_stdio_output@@@__crt_stdio_output@@IEAA_NAEA_J@Z 0000000180054d90 f i libucrtd:output.obj
 0001:00053f50       ??$extract_argument_from_va_list@E_J@?$standard_base@DV?$stream_output_adapter@D@__crt_stdio_output@@@__crt_stdio_output@@IEAA_NAEA_J@Z 0000000180054f50 f i libucrtd:output.obj
 0001:00053f90       ??$extract_argument_from_va_list@E_J@?$standard_base@DV?$string_output_adapter@D@__crt_stdio_output@@@__crt_stdio_output@@IEAA_NAEA_J@Z 0000000180054f90 f i libucrtd:output.obj
 0001:00053fd0       ??$extract_argument_from_va_list@E_J@?$standard_base@_WV?$stream_output_adapter@_W@__crt_stdio_output@@@__crt_stdio_output@@IEAA_NAEA_J@Z 0000000180054fd0 f i libucrtd:output.obj
 0001:00054010       ??$extract_argument_from_va_list@E_J@?$standard_base@_WV?$string_output_adapter@_W@__crt_stdio_output@@@__crt_stdio_output@@IEAA_NAEA_J@Z 0000000180055010 f i libucrtd:output.obj
 0001:00054050       ??$extract_argument_from_va_list@F_J@?$positional_parameter_base@DV?$stream_output_adapter@D@__crt_stdio_output@@@__crt_stdio_output@@IEAA_NAEA_J@Z 0000000180055050 f i libucrtd:output.obj
 0001:00054210       ??$extract_argument_from_va_list@F_J@?$positional_parameter_base@DV?$string_output_adapter@D@__crt_stdio_output@@@__crt_stdio_output@@IEAA_NAEA_J@Z 0000000180055210 f i libucrtd:output.obj
 0001:000543d0       ??$extract_argument_from_va_list@F_J@?$positional_parameter_base@_WV?$stream_output_adapter@_W@__crt_stdio_output@@@__crt_stdio_output@@IEAA_NAEA_J@Z 00000001800553d0 f i libucrtd:output.obj
 0001:00054590       ??$extract_argument_from_va_list@F_J@?$positional_parameter_base@_WV?$string_output_adapter@_W@__crt_stdio_output@@@__crt_stdio_output@@IEAA_NAEA_J@Z 0000000180055590 f i libucrtd:output.obj
 0001:00054750       ??$extract_argument_from_va_list@F_J@?$standard_base@DV?$stream_output_adapter@D@__crt_stdio_output@@@__crt_stdio_output@@IEAA_NAEA_J@Z 0000000180055750 f i libucrtd:output.obj
 0001:00054790       ??$extract_argument_from_va_list@F_J@?$standard_base@DV?$string_output_adapter@D@__crt_stdio_output@@@__crt_stdio_output@@IEAA_NAEA_J@Z 0000000180055790 f i libucrtd:output.obj
 0001:000547d0       ??$extract_argument_from_va_list@F_J@?$standard_base@_WV?$stream_output_adapter@_W@__crt_stdio_output@@@__crt_stdio_output@@IEAA_NAEA_J@Z 00000001800557d0 f i libucrtd:output.obj
 0001:00054810       ??$extract_argument_from_va_list@F_J@?$standard_base@_WV?$string_output_adapter@_W@__crt_stdio_output@@@__crt_stdio_output@@IEAA_NAEA_J@Z 0000000180055810 f i libucrtd:output.obj
 0001:00054850       ??$extract_argument_from_va_list@GD@?$positional_parameter_base@DV?$stream_output_adapter@D@__crt_stdio_output@@@__crt_stdio_output@@IEAA_NAEAD@Z 0000000180055850 f i libucrtd:output.obj
 0001:00054a10       ??$extract_argument_from_va_list@GD@?$positional_parameter_base@DV?$string_output_adapter@D@__crt_stdio_output@@@__crt_stdio_output@@IEAA_NAEAD@Z 0000000180055a10 f i libucrtd:output.obj
 0001:00054bd0       ??$extract_argument_from_va_list@GD@?$standard_base@DV?$stream_output_adapter@D@__crt_stdio_output@@@__crt_stdio_output@@IEAA_NAEAD@Z 0000000180055bd0 f i libucrtd:output.obj
 0001:00054c00       ??$extract_argument_from_va_list@GD@?$standard_base@DV?$string_output_adapter@D@__crt_stdio_output@@@__crt_stdio_output@@IEAA_NAEAD@Z 0000000180055c00 f i libucrtd:output.obj
 0001:00054c30       ??$extract_argument_from_va_list@G_J@?$positional_parameter_base@DV?$stream_output_adapter@D@__crt_stdio_output@@@__crt_stdio_output@@IEAA_NAEA_J@Z 0000000180055c30 f i libucrtd:output.obj
 0001:00054df0       ??$extract_argument_from_va_list@G_J@?$positional_parameter_base@DV?$string_output_adapter@D@__crt_stdio_output@@@__crt_stdio_output@@IEAA_NAEA_J@Z 0000000180055df0 f i libucrtd:output.obj
 0001:00054fb0       ??$extract_argument_from_va_list@G_J@?$positional_parameter_base@_WV?$stream_output_adapter@_W@__crt_stdio_output@@@__crt_stdio_output@@IEAA_NAEA_J@Z 0000000180055fb0 f i libucrtd:output.obj
 0001:00055170       ??$extract_argument_from_va_list@G_J@?$positional_parameter_base@_WV?$string_output_adapter@_W@__crt_stdio_output@@@__crt_stdio_output@@IEAA_NAEA_J@Z 0000000180056170 f i libucrtd:output.obj
 0001:00055330       ??$extract_argument_from_va_list@G_J@?$standard_base@DV?$stream_output_adapter@D@__crt_stdio_output@@@__crt_stdio_output@@IEAA_NAEA_J@Z 0000000180056330 f i libucrtd:output.obj
 0001:00055370       ??$extract_argument_from_va_list@G_J@?$standard_base@DV?$string_output_adapter@D@__crt_stdio_output@@@__crt_stdio_output@@IEAA_NAEA_J@Z 0000000180056370 f i libucrtd:output.obj
 0001:000553b0       ??$extract_argument_from_va_list@G_J@?$standard_base@_WV?$stream_output_adapter@_W@__crt_stdio_output@@@__crt_stdio_output@@IEAA_NAEA_J@Z 00000001800563b0 f i libucrtd:output.obj
 0001:000553f0       ??$extract_argument_from_va_list@G_J@?$standard_base@_WV?$string_output_adapter@_W@__crt_stdio_output@@@__crt_stdio_output@@IEAA_NAEA_J@Z 00000001800563f0 f i libucrtd:output.obj
 0001:00055430       ??$extract_argument_from_va_list@H_J@?$positional_parameter_base@DV?$stream_output_adapter@D@__crt_stdio_output@@@__crt_stdio_output@@IEAA_NAEA_J@Z 0000000180056430 f i libucrtd:output.obj
 0001:000555f0       ??$extract_argument_from_va_list@H_J@?$positional_parameter_base@DV?$string_output_adapter@D@__crt_stdio_output@@@__crt_stdio_output@@IEAA_NAEA_J@Z 00000001800565f0 f i libucrtd:output.obj
 0001:000557b0       ??$extract_argument_from_va_list@H_J@?$positional_parameter_base@_WV?$stream_output_adapter@_W@__crt_stdio_output@@@__crt_stdio_output@@IEAA_NAEA_J@Z 00000001800567b0 f i libucrtd:output.obj
 0001:00055970       ??$extract_argument_from_va_list@H_J@?$positional_parameter_base@_WV?$string_output_adapter@_W@__crt_stdio_output@@@__crt_stdio_output@@IEAA_NAEA_J@Z 0000000180056970 f i libucrtd:output.obj
 0001:00055b30       ??$extract_argument_from_va_list@H_J@?$standard_base@DV?$stream_output_adapter@D@__crt_stdio_output@@@__crt_stdio_output@@IEAA_NAEA_J@Z 0000000180056b30 f i libucrtd:output.obj
 0001:00055b60       ??$extract_argument_from_va_list@H_J@?$standard_base@DV?$string_output_adapter@D@__crt_stdio_output@@@__crt_stdio_output@@IEAA_NAEA_J@Z 0000000180056b60 f i libucrtd:output.obj
 0001:00055b90       ??$extract_argument_from_va_list@H_J@?$standard_base@_WV?$stream_output_adapter@_W@__crt_stdio_output@@@__crt_stdio_output@@IEAA_NAEA_J@Z 0000000180056b90 f i libucrtd:output.obj
 0001:00055bc0       ??$extract_argument_from_va_list@H_J@?$standard_base@_WV?$string_output_adapter@_W@__crt_stdio_output@@@__crt_stdio_output@@IEAA_NAEA_J@Z 0000000180056bc0 f i libucrtd:output.obj
 0001:00055bf0       ??$extract_argument_from_va_list@I_J@?$positional_parameter_base@DV?$stream_output_adapter@D@__crt_stdio_output@@@__crt_stdio_output@@IEAA_NAEA_J@Z 0000000180056bf0 f i libucrtd:output.obj
 0001:00055db0       ??$extract_argument_from_va_list@I_J@?$positional_parameter_base@DV?$string_output_adapter@D@__crt_stdio_output@@@__crt_stdio_output@@IEAA_NAEA_J@Z 0000000180056db0 f i libucrtd:output.obj
 0001:00055f70       ??$extract_argument_from_va_list@I_J@?$positional_parameter_base@_WV?$stream_output_adapter@_W@__crt_stdio_output@@@__crt_stdio_output@@IEAA_NAEA_J@Z 0000000180056f70 f i libucrtd:output.obj
 0001:00056130       ??$extract_argument_from_va_list@I_J@?$positional_parameter_base@_WV?$string_output_adapter@_W@__crt_stdio_output@@@__crt_stdio_output@@IEAA_NAEA_J@Z 0000000180057130 f i libucrtd:output.obj
 0001:000562f0       ??$extract_argument_from_va_list@I_J@?$standard_base@DV?$stream_output_adapter@D@__crt_stdio_output@@@__crt_stdio_output@@IEAA_NAEA_J@Z 00000001800572f0 f i libucrtd:output.obj
 0001:00056320       ??$extract_argument_from_va_list@I_J@?$standard_base@DV?$string_output_adapter@D@__crt_stdio_output@@@__crt_stdio_output@@IEAA_NAEA_J@Z 0000000180057320 f i libucrtd:output.obj
 0001:00056350       ??$extract_argument_from_va_list@I_J@?$standard_base@_WV?$stream_output_adapter@_W@__crt_stdio_output@@@__crt_stdio_output@@IEAA_NAEA_J@Z 0000000180057350 f i libucrtd:output.obj
 0001:00056380       ??$extract_argument_from_va_list@I_J@?$standard_base@_WV?$string_output_adapter@_W@__crt_stdio_output@@@__crt_stdio_output@@IEAA_NAEA_J@Z 0000000180057380 f i libucrtd:output.obj
 0001:000563b0       ??$extract_argument_from_va_list@PEADPEAD@?$positional_parameter_base@DV?$stream_output_adapter@D@__crt_stdio_output@@@__crt_stdio_output@@IEAA_NAEAPEAD@Z 00000001800573b0 f i libucrtd:output.obj
 0001:00056570       ??$extract_argument_from_va_list@PEADPEAD@?$positional_parameter_base@DV?$string_output_adapter@D@__crt_stdio_output@@@__crt_stdio_output@@IEAA_NAEAPEAD@Z 0000000180057570 f i libucrtd:output.obj
 0001:00056730       ??$extract_argument_from_va_list@PEADPEAD@?$positional_parameter_base@_WV?$stream_output_adapter@_W@__crt_stdio_output@@@__crt_stdio_output@@IEAA_NAEAPEAD@Z 0000000180057730 f i libucrtd:output.obj
 0001:000568f0       ??$extract_argument_from_va_list@PEADPEAD@?$positional_parameter_base@_WV?$string_output_adapter@_W@__crt_stdio_output@@@__crt_stdio_output@@IEAA_NAEAPEAD@Z 00000001800578f0 f i libucrtd:output.obj
 0001:00056ab0       ??$extract_argument_from_va_list@PEADPEAD@?$standard_base@DV?$stream_output_adapter@D@__crt_stdio_output@@@__crt_stdio_output@@IEAA_NAEAPEAD@Z 0000000180057ab0 f i libucrtd:output.obj
 0001:00056ae0       ??$extract_argument_from_va_list@PEADPEAD@?$standard_base@DV?$string_output_adapter@D@__crt_stdio_output@@@__crt_stdio_output@@IEAA_NAEAPEAD@Z 0000000180057ae0 f i libucrtd:output.obj
 0001:00056b10       ??$extract_argument_from_va_list@PEADPEAD@?$standard_base@_WV?$stream_output_adapter@_W@__crt_stdio_output@@@__crt_stdio_output@@IEAA_NAEAPEAD@Z 0000000180057b10 f i libucrtd:output.obj
 0001:00056b40       ??$extract_argument_from_va_list@PEADPEAD@?$standard_base@_WV?$string_output_adapter@_W@__crt_stdio_output@@@__crt_stdio_output@@IEAA_NAEAPEAD@Z 0000000180057b40 f i libucrtd:output.obj
 0001:00056b70       ??$extract_argument_from_va_list@PEAUansi_string@?1??type_case_Z@?$output_processor@DV?$stream_output_adapter@D@__crt_stdio_output@@V?$format_validation_base@DV?$stream_output_adapter@D@__crt_stdio_output@@@2@@__crt_stdio_output@@AEAA_NXZ@PEAU1?1??234@AEAA_NXZ@@?$standard_base@DV?$stream_output_adapter@D@__crt_stdio_output@@@__crt_stdio_output@@IEAA_NAEAPEAUansi_string@?1??type_case_Z@?$output_processor@DV?$stream_output_adapter@D@__crt_stdio_output@@V?$format_validation_base@DV?$stream_output_adapter@D@__crt_stdio_output@@@2@@1@AEAA_NXZ@@Z 0000000180057b70 f i libucrtd:output.obj
 0001:00056ba0       ??$extract_argument_from_va_list@PEAUansi_string@?1??type_case_Z@?$output_processor@DV?$stream_output_adapter@D@__crt_stdio_output@@V?$positional_parameter_base@DV?$stream_output_adapter@D@__crt_stdio_output@@@2@@__crt_stdio_output@@AEAA_NXZ@PEAU1?1??234@AEAA_NXZ@@?$positional_parameter_base@DV?$stream_output_adapter@D@__crt_stdio_output@@@__crt_stdio_output@@IEAA_NAEAPEAUansi_string@?1??type_case_Z@?$output_processor@DV?$stream_output_adapter@D@__crt_stdio_output@@V?$positional_parameter_base@DV?$stream_output_adapter@D@__crt_stdio_output@@@2@@1@AEAA_NXZ@@Z 0000000180057ba0 f i libucrtd:output.obj
 0001:00056d60       ??$extract_argument_from_va_list@PEAUansi_string@?1??type_case_Z@?$output_processor@DV?$stream_output_adapter@D@__crt_stdio_output@@V?$positional_parameter_base@DV?$stream_output_adapter@D@__crt_stdio_output@@@2@@__crt_stdio_output@@AEAA_NXZ@PEAU1?1??234@AEAA_NXZ@@?$standard_base@DV?$stream_output_adapter@D@__crt_stdio_output@@@__crt_stdio_output@@IEAA_NAEAPEAUansi_string@?1??type_case_Z@?$output_processor@DV?$stream_output_adapter@D@__crt_stdio_output@@V?$positional_parameter_base@DV?$stream_output_adapter@D@__crt_stdio_output@@@2@@1@AEAA_NXZ@@Z 0000000180057d60 f i libucrtd:output.obj
 0001:00056d90       ??$extract_argument_from_va_list@PEAUansi_string@?1??type_case_Z@?$output_processor@DV?$stream_output_adapter@D@__crt_stdio_output@@V?$standard_base@DV?$stream_output_adapter@D@__crt_stdio_output@@@2@@__crt_stdio_output@@AEAA_NXZ@PEAU1?1??234@AEAA_NXZ@@?$standard_base@DV?$stream_output_adapter@D@__crt_stdio_output@@@__crt_stdio_output@@IEAA_NAEAPEAUansi_string@?1??type_case_Z@?$output_processor@DV?$stream_output_adapter@D@__crt_stdio_output@@V?$standard_base@DV?$stream_output_adapter@D@__crt_stdio_output@@@2@@1@AEAA_NXZ@@Z 0000000180057d90 f i libucrtd:output.obj
 0001:00056dc0       ??$extract_argument_from_va_list@PEAUansi_string@?1??type_case_Z@?$output_processor@DV?$string_output_adapter@D@__crt_stdio_output@@V?$format_validation_base@DV?$string_output_adapter@D@__crt_stdio_output@@@2@@__crt_stdio_output@@AEAA_NXZ@PEAU1?1??234@AEAA_NXZ@@?$standard_base@DV?$string_output_adapter@D@__crt_stdio_output@@@__crt_stdio_output@@IEAA_NAEAPEAUansi_string@?1??type_case_Z@?$output_processor@DV?$string_output_adapter@D@__crt_stdio_output@@V?$format_validation_base@DV?$string_output_adapter@D@__crt_stdio_output@@@2@@1@AEAA_NXZ@@Z 0000000180057dc0 f i libucrtd:output.obj
 0001:00056df0       ??$extract_argument_from_va_list@PEAUansi_string@?1??type_case_Z@?$output_processor@DV?$string_output_adapter@D@__crt_stdio_output@@V?$positional_parameter_base@DV?$string_output_adapter@D@__crt_stdio_output@@@2@@__crt_stdio_output@@AEAA_NXZ@PEAU1?1??234@AEAA_NXZ@@?$positional_parameter_base@DV?$string_output_adapter@D@__crt_stdio_output@@@__crt_stdio_output@@IEAA_NAEAPEAUansi_string@?1??type_case_Z@?$output_processor@DV?$string_output_adapter@D@__crt_stdio_output@@V?$positional_parameter_base@DV?$string_output_adapter@D@__crt_stdio_output@@@2@@1@AEAA_NXZ@@Z 0000000180057df0 f i libucrtd:output.obj
 0001:00056fb0       ??$extract_argument_from_va_list@PEAUansi_string@?1??type_case_Z@?$output_processor@DV?$string_output_adapter@D@__crt_stdio_output@@V?$positional_parameter_base@DV?$string_output_adapter@D@__crt_stdio_output@@@2@@__crt_stdio_output@@AEAA_NXZ@PEAU1?1??234@AEAA_NXZ@@?$standard_base@DV?$string_output_adapter@D@__crt_stdio_output@@@__crt_stdio_output@@IEAA_NAEAPEAUansi_string@?1??type_case_Z@?$output_processor@DV?$string_output_adapter@D@__crt_stdio_output@@V?$positional_parameter_base@DV?$string_output_adapter@D@__crt_stdio_output@@@2@@1@AEAA_NXZ@@Z 0000000180057fb0 f i libucrtd:output.obj
 0001:00056fe0       ??$extract_argument_from_va_list@PEAUansi_string@?1??type_case_Z@?$output_processor@DV?$string_output_adapter@D@__crt_stdio_output@@V?$standard_base@DV?$string_output_adapter@D@__crt_stdio_output@@@2@@__crt_stdio_output@@AEAA_NXZ@PEAU1?1??234@AEAA_NXZ@@?$standard_base@DV?$string_output_adapter@D@__crt_stdio_output@@@__crt_stdio_output@@IEAA_NAEAPEAUansi_string@?1??type_case_Z@?$output_processor@DV?$string_output_adapter@D@__crt_stdio_output@@V?$standard_base@DV?$string_output_adapter@D@__crt_stdio_output@@@2@@1@AEAA_NXZ@@Z 0000000180057fe0 f i libucrtd:output.obj
 0001:00057010       ??$extract_argument_from_va_list@PEAUansi_string@?1??type_case_Z@?$output_processor@_WV?$stream_output_adapter@_W@__crt_stdio_output@@V?$format_validation_base@_WV?$stream_output_adapter@_W@__crt_stdio_output@@@2@@__crt_stdio_output@@AEAA_NXZ@PEAU1?1??234@AEAA_NXZ@@?$standard_base@_WV?$stream_output_adapter@_W@__crt_stdio_output@@@__crt_stdio_output@@IEAA_NAEAPEAUansi_string@?1??type_case_Z@?$output_processor@_WV?$stream_output_adapter@_W@__crt_stdio_output@@V?$format_validation_base@_WV?$stream_output_adapter@_W@__crt_stdio_output@@@2@@1@AEAA_NXZ@@Z 0000000180058010 f i libucrtd:output.obj
 0001:00057040       ??$extract_argument_from_va_list@PEAUansi_string@?1??type_case_Z@?$output_processor@_WV?$stream_output_adapter@_W@__crt_stdio_output@@V?$positional_parameter_base@_WV?$stream_output_adapter@_W@__crt_stdio_output@@@2@@__crt_stdio_output@@AEAA_NXZ@PEAU1?1??234@AEAA_NXZ@@?$positional_parameter_base@_WV?$stream_output_adapter@_W@__crt_stdio_output@@@__crt_stdio_output@@IEAA_NAEAPEAUansi_string@?1??type_case_Z@?$output_processor@_WV?$stream_output_adapter@_W@__crt_stdio_output@@V?$positional_parameter_base@_WV?$stream_output_adapter@_W@__crt_stdio_output@@@2@@1@AEAA_NXZ@@Z 0000000180058040 f i libucrtd:output.obj
 0001:00057200       ??$extract_argument_from_va_list@PEAUansi_string@?1??type_case_Z@?$output_processor@_WV?$stream_output_adapter@_W@__crt_stdio_output@@V?$positional_parameter_base@_WV?$stream_output_adapter@_W@__crt_stdio_output@@@2@@__crt_stdio_output@@AEAA_NXZ@PEAU1?1??234@AEAA_NXZ@@?$standard_base@_WV?$stream_output_adapter@_W@__crt_stdio_output@@@__crt_stdio_output@@IEAA_NAEAPEAUansi_string@?1??type_case_Z@?$output_processor@_WV?$stream_output_adapter@_W@__crt_stdio_output@@V?$positional_parameter_base@_WV?$stream_output_adapter@_W@__crt_stdio_output@@@2@@1@AEAA_NXZ@@Z 0000000180058200 f i libucrtd:output.obj
 0001:00057230       ??$extract_argument_from_va_list@PEAUansi_string@?1??type_case_Z@?$output_processor@_WV?$stream_output_adapter@_W@__crt_stdio_output@@V?$standard_base@_WV?$stream_output_adapter@_W@__crt_stdio_output@@@2@@__crt_stdio_output@@AEAA_NXZ@PEAU1?1??234@AEAA_NXZ@@?$standard_base@_WV?$stream_output_adapter@_W@__crt_stdio_output@@@__crt_stdio_output@@IEAA_NAEAPEAUansi_string@?1??type_case_Z@?$output_processor@_WV?$stream_output_adapter@_W@__crt_stdio_output@@V?$standard_base@_WV?$stream_output_adapter@_W@__crt_stdio_output@@@2@@1@AEAA_NXZ@@Z 0000000180058230 f i libucrtd:output.obj
 0001:00057260       ??$extract_argument_from_va_list@PEAUansi_string@?1??type_case_Z@?$output_processor@_WV?$string_output_adapter@_W@__crt_stdio_output@@V?$format_validation_base@_WV?$string_output_adapter@_W@__crt_stdio_output@@@2@@__crt_stdio_output@@AEAA_NXZ@PEAU1?1??234@AEAA_NXZ@@?$standard_base@_WV?$string_output_adapter@_W@__crt_stdio_output@@@__crt_stdio_output@@IEAA_NAEAPEAUansi_string@?1??type_case_Z@?$output_processor@_WV?$string_output_adapter@_W@__crt_stdio_output@@V?$format_validation_base@_WV?$string_output_adapter@_W@__crt_stdio_output@@@2@@1@AEAA_NXZ@@Z 0000000180058260 f i libucrtd:output.obj
 0001:00057290       ??$extract_argument_from_va_list@PEAUansi_string@?1??type_case_Z@?$output_processor@_WV?$string_output_adapter@_W@__crt_stdio_output@@V?$positional_parameter_base@_WV?$string_output_adapter@_W@__crt_stdio_output@@@2@@__crt_stdio_output@@AEAA_NXZ@PEAU1?1??234@AEAA_NXZ@@?$positional_parameter_base@_WV?$string_output_adapter@_W@__crt_stdio_output@@@__crt_stdio_output@@IEAA_NAEAPEAUansi_string@?1??type_case_Z@?$output_processor@_WV?$string_output_adapter@_W@__crt_stdio_output@@V?$positional_parameter_base@_WV?$string_output_adapter@_W@__crt_stdio_output@@@2@@1@AEAA_NXZ@@Z 0000000180058290 f i libucrtd:output.obj
 0001:00057450       ??$extract_argument_from_va_list@PEAUansi_string@?1??type_case_Z@?$output_processor@_WV?$string_output_adapter@_W@__crt_stdio_output@@V?$positional_parameter_base@_WV?$string_output_adapter@_W@__crt_stdio_output@@@2@@__crt_stdio_output@@AEAA_NXZ@PEAU1?1??234@AEAA_NXZ@@?$standard_base@_WV?$string_output_adapter@_W@__crt_stdio_output@@@__crt_stdio_output@@IEAA_NAEAPEAUansi_string@?1??type_case_Z@?$output_processor@_WV?$string_output_adapter@_W@__crt_stdio_output@@V?$positional_parameter_base@_WV?$string_output_adapter@_W@__crt_stdio_output@@@2@@1@AEAA_NXZ@@Z 0000000180058450 f i libucrtd:output.obj
 0001:00057480       ??$extract_argument_from_va_list@PEAUansi_string@?1??type_case_Z@?$output_processor@_WV?$string_output_adapter@_W@__crt_stdio_output@@V?$standard_base@_WV?$string_output_adapter@_W@__crt_stdio_output@@@2@@__crt_stdio_output@@AEAA_NXZ@PEAU1?1??234@AEAA_NXZ@@?$standard_base@_WV?$string_output_adapter@_W@__crt_stdio_output@@@__crt_stdio_output@@IEAA_NAEAPEAUansi_string@?1??type_case_Z@?$output_processor@_WV?$string_output_adapter@_W@__crt_stdio_output@@V?$standard_base@_WV?$string_output_adapter@_W@__crt_stdio_output@@@2@@1@AEAA_NXZ@@Z 0000000180058480 f i libucrtd:output.obj
 0001:000574b0       ??$extract_argument_from_va_list@PEAXPEAX@?$positional_parameter_base@DV?$stream_output_adapter@D@__crt_stdio_output@@@__crt_stdio_output@@IEAA_NAEAPEAX@Z 00000001800584b0 f i libucrtd:output.obj
 0001:00057670       ??$extract_argument_from_va_list@PEAXPEAX@?$positional_parameter_base@DV?$string_output_adapter@D@__crt_stdio_output@@@__crt_stdio_output@@IEAA_NAEAPEAX@Z 0000000180058670 f i libucrtd:output.obj
 0001:00057830       ??$extract_argument_from_va_list@PEAXPEAX@?$positional_parameter_base@_WV?$stream_output_adapter@_W@__crt_stdio_output@@@__crt_stdio_output@@IEAA_NAEAPEAX@Z 0000000180058830 f i libucrtd:output.obj
 0001:000579f0       ??$extract_argument_from_va_list@PEAXPEAX@?$positional_parameter_base@_WV?$string_output_adapter@_W@__crt_stdio_output@@@__crt_stdio_output@@IEAA_NAEAPEAX@Z 00000001800589f0 f i libucrtd:output.obj
 0001:00057bb0       ??$extract_argument_from_va_list@PEAXPEAX@?$standard_base@DV?$stream_output_adapter@D@__crt_stdio_output@@@__crt_stdio_output@@IEAA_NAEAPEAX@Z 0000000180058bb0 f i libucrtd:output.obj
 0001:00057be0       ??$extract_argument_from_va_list@PEAXPEAX@?$standard_base@DV?$string_output_adapter@D@__crt_stdio_output@@@__crt_stdio_output@@IEAA_NAEAPEAX@Z 0000000180058be0 f i libucrtd:output.obj
 0001:00057c10       ??$extract_argument_from_va_list@PEAXPEAX@?$standard_base@_WV?$stream_output_adapter@_W@__crt_stdio_output@@@__crt_stdio_output@@IEAA_NAEAPEAX@Z 0000000180058c10 f i libucrtd:output.obj
 0001:00057c40       ??$extract_argument_from_va_list@PEAXPEAX@?$standard_base@_WV?$string_output_adapter@_W@__crt_stdio_output@@@__crt_stdio_output@@IEAA_NAEAPEAX@Z 0000000180058c40 f i libucrtd:output.obj
 0001:00057c70       ??$extract_argument_from_va_list@U_CRT_DOUBLE@@U1@@?$positional_parameter_base@DV?$stream_output_adapter@D@__crt_stdio_output@@@__crt_stdio_output@@IEAA_NAEAU_CRT_DOUBLE@@@Z 0000000180058c70 f i libucrtd:output.obj
 0001:00057e90       ??$extract_argument_from_va_list@U_CRT_DOUBLE@@U1@@?$positional_parameter_base@DV?$string_output_adapter@D@__crt_stdio_output@@@__crt_stdio_output@@IEAA_NAEAU_CRT_DOUBLE@@@Z 0000000180058e90 f i libucrtd:output.obj
 0001:000580b0       ??$extract_argument_from_va_list@U_CRT_DOUBLE@@U1@@?$positional_parameter_base@_WV?$stream_output_adapter@_W@__crt_stdio_output@@@__crt_stdio_output@@IEAA_NAEAU_CRT_DOUBLE@@@Z 00000001800590b0 f i libucrtd:output.obj
 0001:000582d0       ??$extract_argument_from_va_list@U_CRT_DOUBLE@@U1@@?$positional_parameter_base@_WV?$string_output_adapter@_W@__crt_stdio_output@@@__crt_stdio_output@@IEAA_NAEAU_CRT_DOUBLE@@@Z 00000001800592d0 f i libucrtd:output.obj
 0001:000584f0       ??$extract_argument_from_va_list@U_CRT_DOUBLE@@U1@@?$standard_base@DV?$stream_output_adapter@D@__crt_stdio_output@@@__crt_stdio_output@@IEAA_NAEAU_CRT_DOUBLE@@@Z 00000001800594f0 f i libucrtd:output.obj
 0001:00058540       ??$extract_argument_from_va_list@U_CRT_DOUBLE@@U1@@?$standard_base@DV?$string_output_adapter@D@__crt_stdio_output@@@__crt_stdio_output@@IEAA_NAEAU_CRT_DOUBLE@@@Z 0000000180059540 f i libucrtd:output.obj
 0001:00058590       ??$extract_argument_from_va_list@U_CRT_DOUBLE@@U1@@?$standard_base@_WV?$stream_output_adapter@_W@__crt_stdio_output@@@__crt_stdio_output@@IEAA_NAEAU_CRT_DOUBLE@@@Z 0000000180059590 f i libucrtd:output.obj
 0001:000585e0       ??$extract_argument_from_va_list@U_CRT_DOUBLE@@U1@@?$standard_base@_WV?$string_output_adapter@_W@__crt_stdio_output@@@__crt_stdio_output@@IEAA_NAEAU_CRT_DOUBLE@@@Z 00000001800595e0 f i libucrtd:output.obj
 0001:00058630       ??$extract_argument_from_va_list@_J_J@?$positional_parameter_base@DV?$stream_output_adapter@D@__crt_stdio_output@@@__crt_stdio_output@@IEAA_NAEA_J@Z 0000000180059630 f i libucrtd:output.obj
 0001:000587f0       ??$extract_argument_from_va_list@_J_J@?$positional_parameter_base@DV?$string_output_adapter@D@__crt_stdio_output@@@__crt_stdio_output@@IEAA_NAEA_J@Z 00000001800597f0 f i libucrtd:output.obj
 0001:000589b0       ??$extract_argument_from_va_list@_J_J@?$positional_parameter_base@_WV?$stream_output_adapter@_W@__crt_stdio_output@@@__crt_stdio_output@@IEAA_NAEA_J@Z 00000001800599b0 f i libucrtd:output.obj
 0001:00058b70       ??$extract_argument_from_va_list@_J_J@?$positional_parameter_base@_WV?$string_output_adapter@_W@__crt_stdio_output@@@__crt_stdio_output@@IEAA_NAEA_J@Z 0000000180059b70 f i libucrtd:output.obj
 0001:00058d30       ??$extract_argument_from_va_list@_J_J@?$standard_base@DV?$stream_output_adapter@D@__crt_stdio_output@@@__crt_stdio_output@@IEAA_NAEA_J@Z 0000000180059d30 f i libucrtd:output.obj
 0001:00058d60       ??$extract_argument_from_va_list@_J_J@?$standard_base@DV?$string_output_adapter@D@__crt_stdio_output@@@__crt_stdio_output@@IEAA_NAEA_J@Z 0000000180059d60 f i libucrtd:output.obj
 0001:00058d90       ??$extract_argument_from_va_list@_J_J@?$standard_base@_WV?$stream_output_adapter@_W@__crt_stdio_output@@@__crt_stdio_output@@IEAA_NAEA_J@Z 0000000180059d90 f i libucrtd:output.obj
 0001:00058dc0       ??$extract_argument_from_va_list@_J_J@?$standard_base@_WV?$string_output_adapter@_W@__crt_stdio_output@@@__crt_stdio_output@@IEAA_NAEA_J@Z 0000000180059dc0 f i libucrtd:output.obj
 0001:00058df0       ??$extract_argument_from_va_list@_K_J@?$positional_parameter_base@DV?$stream_output_adapter@D@__crt_stdio_output@@@__crt_stdio_output@@IEAA_NAEA_J@Z 0000000180059df0 f i libucrtd:output.obj
 0001:00058fb0       ??$extract_argument_from_va_list@_K_J@?$positional_parameter_base@DV?$string_output_adapter@D@__crt_stdio_output@@@__crt_stdio_output@@IEAA_NAEA_J@Z 0000000180059fb0 f i libucrtd:output.obj
 0001:00059170       ??$extract_argument_from_va_list@_K_J@?$positional_parameter_base@_WV?$stream_output_adapter@_W@__crt_stdio_output@@@__crt_stdio_output@@IEAA_NAEA_J@Z 000000018005a170 f i libucrtd:output.obj
 0001:00059330       ??$extract_argument_from_va_list@_K_J@?$positional_parameter_base@_WV?$string_output_adapter@_W@__crt_stdio_output@@@__crt_stdio_output@@IEAA_NAEA_J@Z 000000018005a330 f i libucrtd:output.obj
 0001:000594f0       ??$extract_argument_from_va_list@_K_J@?$standard_base@DV?$stream_output_adapter@D@__crt_stdio_output@@@__crt_stdio_output@@IEAA_NAEA_J@Z 000000018005a4f0 f i libucrtd:output.obj
 0001:00059520       ??$extract_argument_from_va_list@_K_J@?$standard_base@DV?$string_output_adapter@D@__crt_stdio_output@@@__crt_stdio_output@@IEAA_NAEA_J@Z 000000018005a520 f i libucrtd:output.obj
 0001:00059550       ??$extract_argument_from_va_list@_K_J@?$standard_base@_WV?$stream_output_adapter@_W@__crt_stdio_output@@@__crt_stdio_output@@IEAA_NAEA_J@Z 000000018005a550 f i libucrtd:output.obj
 0001:00059580       ??$extract_argument_from_va_list@_K_J@?$standard_base@_WV?$string_output_adapter@_W@__crt_stdio_output@@@__crt_stdio_output@@IEAA_NAEA_J@Z 000000018005a580 f i libucrtd:output.obj
 0001:000595b0       ??$extract_argument_from_va_list@_W_W@?$positional_parameter_base@DV?$stream_output_adapter@D@__crt_stdio_output@@@__crt_stdio_output@@IEAA_NAEA_W@Z 000000018005a5b0 f i libucrtd:output.obj
 0001:00059770       ??$extract_argument_from_va_list@_W_W@?$positional_parameter_base@DV?$string_output_adapter@D@__crt_stdio_output@@@__crt_stdio_output@@IEAA_NAEA_W@Z 000000018005a770 f i libucrtd:output.obj
 0001:00059930       ??$extract_argument_from_va_list@_W_W@?$positional_parameter_base@_WV?$stream_output_adapter@_W@__crt_stdio_output@@@__crt_stdio_output@@IEAA_NAEA_W@Z 000000018005a930 f i libucrtd:output.obj
 0001:00059af0       ??$extract_argument_from_va_list@_W_W@?$positional_parameter_base@_WV?$string_output_adapter@_W@__crt_stdio_output@@@__crt_stdio_output@@IEAA_NAEA_W@Z 000000018005aaf0 f i libucrtd:output.obj
 0001:00059cb0       ??$extract_argument_from_va_list@_W_W@?$standard_base@DV?$stream_output_adapter@D@__crt_stdio_output@@@__crt_stdio_output@@IEAA_NAEA_W@Z 000000018005acb0 f i libucrtd:output.obj
 0001:00059ce0       ??$extract_argument_from_va_list@_W_W@?$standard_base@DV?$string_output_adapter@D@__crt_stdio_output@@@__crt_stdio_output@@IEAA_NAEA_W@Z 000000018005ace0 f i libucrtd:output.obj
 0001:00059d10       ??$extract_argument_from_va_list@_W_W@?$standard_base@_WV?$stream_output_adapter@_W@__crt_stdio_output@@@__crt_stdio_output@@IEAA_NAEA_W@Z 000000018005ad10 f i libucrtd:output.obj
 0001:00059d40       ??$extract_argument_from_va_list@_W_W@?$standard_base@_WV?$string_output_adapter@_W@__crt_stdio_output@@@__crt_stdio_output@@IEAA_NAEA_W@Z 000000018005ad40 f i libucrtd:output.obj
 0001:00059d70       ??$get_parameter_type@D@?$positional_parameter_base@DV?$stream_output_adapter@D@__crt_stdio_output@@@__crt_stdio_output@@CA?AW4parameter_type@01@PEAD@Z 000000018005ad70 f i libucrtd:output.obj
 0001:00059d80       ??$get_parameter_type@D@?$positional_parameter_base@DV?$string_output_adapter@D@__crt_stdio_output@@@__crt_stdio_output@@CA?AW4parameter_type@01@PEAD@Z 000000018005ad80 f i libucrtd:output.obj
 0001:00059d90       ??$get_parameter_type@D@?$positional_parameter_base@_WV?$stream_output_adapter@_W@__crt_stdio_output@@@__crt_stdio_output@@CA?AW4parameter_type@01@PEAD@Z 000000018005ad90 f i libucrtd:output.obj
 0001:00059da0       ??$get_parameter_type@D@?$positional_parameter_base@_WV?$string_output_adapter@_W@__crt_stdio_output@@@__crt_stdio_output@@CA?AW4parameter_type@01@PEAD@Z 000000018005ada0 f i libucrtd:output.obj
 0001:00059db0       ??$get_parameter_type@Uansi_string@?1??type_case_Z@?$output_processor@DV?$stream_output_adapter@D@__crt_stdio_output@@V?$positional_parameter_base@DV?$stream_output_adapter@D@__crt_stdio_output@@@2@@__crt_stdio_output@@AEAA_NXZ@@?$positional_parameter_base@DV?$stream_output_adapter@D@__crt_stdio_output@@@__crt_stdio_output@@CA?AW4parameter_type@01@PEAUansi_string@?1??type_case_Z@?$output_processor@DV?$stream_output_adapter@D@__crt_stdio_output@@V?$positional_parameter_base@DV?$stream_output_adapter@D@__crt_stdio_output@@@2@@1@AEAA_NXZ@@Z 000000018005adb0 f i libucrtd:output.obj
 0001:00059dc0       ??$get_parameter_type@Uansi_string@?1??type_case_Z@?$output_processor@DV?$string_output_adapter@D@__crt_stdio_output@@V?$positional_parameter_base@DV?$string_output_adapter@D@__crt_stdio_output@@@2@@__crt_stdio_output@@AEAA_NXZ@@?$positional_parameter_base@DV?$string_output_adapter@D@__crt_stdio_output@@@__crt_stdio_output@@CA?AW4parameter_type@01@PEAUansi_string@?1??type_case_Z@?$output_processor@DV?$string_output_adapter@D@__crt_stdio_output@@V?$positional_parameter_base@DV?$string_output_adapter@D@__crt_stdio_output@@@2@@1@AEAA_NXZ@@Z 000000018005adc0 f i libucrtd:output.obj
 0001:00059dd0       ??$get_parameter_type@Uansi_string@?1??type_case_Z@?$output_processor@_WV?$stream_output_adapter@_W@__crt_stdio_output@@V?$positional_parameter_base@_WV?$stream_output_adapter@_W@__crt_stdio_output@@@2@@__crt_stdio_output@@AEAA_NXZ@@?$positional_parameter_base@_WV?$stream_output_adapter@_W@__crt_stdio_output@@@__crt_stdio_output@@CA?AW4parameter_type@01@PEAUansi_string@?1??type_case_Z@?$output_processor@_WV?$stream_output_adapter@_W@__crt_stdio_output@@V?$positional_parameter_base@_WV?$stream_output_adapter@_W@__crt_stdio_output@@@2@@1@AEAA_NXZ@@Z 000000018005add0 f i libucrtd:output.obj
 0001:00059de0       ??$get_parameter_type@Uansi_string@?1??type_case_Z@?$output_processor@_WV?$string_output_adapter@_W@__crt_stdio_output@@V?$positional_parameter_base@_WV?$string_output_adapter@_W@__crt_stdio_output@@@2@@__crt_stdio_output@@AEAA_NXZ@@?$positional_parameter_base@_WV?$string_output_adapter@_W@__crt_stdio_output@@@__crt_stdio_output@@CA?AW4parameter_type@01@PEAUansi_string@?1??type_case_Z@?$output_processor@_WV?$string_output_adapter@_W@__crt_stdio_output@@V?$positional_parameter_base@_WV?$string_output_adapter@_W@__crt_stdio_output@@@2@@1@AEAA_NXZ@@Z 000000018005ade0 f i libucrtd:output.obj
 0001:00059df0       ??$get_parameter_type@X@?$positional_parameter_base@DV?$stream_output_adapter@D@__crt_stdio_output@@@__crt_stdio_output@@CA?AW4parameter_type@01@PEAX@Z 000000018005adf0 f i libucrtd:output.obj
 0001:00059e00       ??$get_parameter_type@X@?$positional_parameter_base@DV?$string_output_adapter@D@__crt_stdio_output@@@__crt_stdio_output@@CA?AW4parameter_type@01@PEAX@Z 000000018005ae00 f i libucrtd:output.obj
 0001:00059e10       ??$get_parameter_type@X@?$positional_parameter_base@_WV?$stream_output_adapter@_W@__crt_stdio_output@@@__crt_stdio_output@@CA?AW4parameter_type@01@PEAX@Z 000000018005ae10 f i libucrtd:output.obj
 0001:00059e20       ??$get_parameter_type@X@?$positional_parameter_base@_WV?$string_output_adapter@_W@__crt_stdio_output@@@__crt_stdio_output@@CA?AW4parameter_type@01@PEAX@Z 000000018005ae20 f i libucrtd:output.obj
 0001:00059e30       ??$is_character_specifier@D@?$positional_parameter_base@DV?$stream_output_adapter@D@__crt_stdio_output@@@__crt_stdio_output@@CA_ND@Z 000000018005ae30 f i libucrtd:output.obj
 0001:00059e70       ??$is_character_specifier@D@?$positional_parameter_base@DV?$string_output_adapter@D@__crt_stdio_output@@@__crt_stdio_output@@CA_ND@Z 000000018005ae70 f i libucrtd:output.obj
 0001:00059eb0       ??$is_character_specifier@_W@?$positional_parameter_base@_WV?$stream_output_adapter@_W@__crt_stdio_output@@@__crt_stdio_output@@CA_N_W@Z 000000018005aeb0 f i libucrtd:output.obj
 0001:00059ef0       ??$is_character_specifier@_W@?$positional_parameter_base@_WV?$string_output_adapter@_W@__crt_stdio_output@@@__crt_stdio_output@@CA_N_W@Z 000000018005aef0 f i libucrtd:output.obj
 0001:00059f30       ??$is_integral_specifier@D@?$positional_parameter_base@DV?$stream_output_adapter@D@__crt_stdio_output@@@__crt_stdio_output@@CA_ND@Z 000000018005af30 f i libucrtd:output.obj
 0001:00059fa0       ??$is_integral_specifier@D@?$positional_parameter_base@DV?$string_output_adapter@D@__crt_stdio_output@@@__crt_stdio_output@@CA_ND@Z 000000018005afa0 f i libucrtd:output.obj
 0001:0005a010       ??$is_integral_specifier@_W@?$positional_parameter_base@_WV?$stream_output_adapter@_W@__crt_stdio_output@@@__crt_stdio_output@@CA_N_W@Z 000000018005b010 f i libucrtd:output.obj
 0001:0005a080       ??$is_integral_specifier@_W@?$positional_parameter_base@_WV?$string_output_adapter@_W@__crt_stdio_output@@@__crt_stdio_output@@CA_N_W@Z 000000018005b080 f i libucrtd:output.obj
 0001:0005a0f0       ??$is_overflow_condition@K@__crt_strtox@@YA_NIK@Z 000000018005b0f0 f i libucrtd:output.obj
 0001:0005a160       ??$is_pointer_specifier@D@?$positional_parameter_base@DV?$stream_output_adapter@D@__crt_stdio_output@@@__crt_stdio_output@@CA_ND@Z 000000018005b160 f i libucrtd:output.obj
 0001:0005a190       ??$is_pointer_specifier@D@?$positional_parameter_base@DV?$string_output_adapter@D@__crt_stdio_output@@@__crt_stdio_output@@CA_ND@Z 000000018005b190 f i libucrtd:output.obj
 0001:0005a1c0       ??$is_pointer_specifier@_W@?$positional_parameter_base@_WV?$stream_output_adapter@_W@__crt_stdio_output@@@__crt_stdio_output@@CA_N_W@Z 000000018005b1c0 f i libucrtd:output.obj
 0001:0005a1f0       ??$is_pointer_specifier@_W@?$positional_parameter_base@_WV?$string_output_adapter@_W@__crt_stdio_output@@@__crt_stdio_output@@CA_N_W@Z 000000018005b1f0 f i libucrtd:output.obj
 0001:0005a220       ??$is_string_specifier@D@?$positional_parameter_base@DV?$stream_output_adapter@D@__crt_stdio_output@@@__crt_stdio_output@@CA_ND@Z 000000018005b220 f i libucrtd:output.obj
 0001:0005a260       ??$is_string_specifier@D@?$positional_parameter_base@DV?$string_output_adapter@D@__crt_stdio_output@@@__crt_stdio_output@@CA_ND@Z 000000018005b260 f i libucrtd:output.obj
 0001:0005a2a0       ??$is_string_specifier@_W@?$positional_parameter_base@_WV?$stream_output_adapter@_W@__crt_stdio_output@@@__crt_stdio_output@@CA_N_W@Z 000000018005b2a0 f i libucrtd:output.obj
 0001:0005a2e0       ??$is_string_specifier@_W@?$positional_parameter_base@_WV?$string_output_adapter@_W@__crt_stdio_output@@@__crt_stdio_output@@CA_N_W@Z 000000018005b2e0 f i libucrtd:output.obj
 0001:0005a320       ??$is_wide_character_specifier@D@__crt_stdio_output@@YA_N_KDW4length_modifier@0@@Z 000000018005b320 f i libucrtd:output.obj
 0001:0005a3c0       ??$is_wide_character_specifier@_W@__crt_stdio_output@@YA_N_K_WW4length_modifier@0@@Z 000000018005b3c0 f i libucrtd:output.obj
 0001:0005a490       ??$make_c_string_character_source@DPEAPEAD@__crt_strtox@@YA?AV?$c_string_character_source@D@0@QEBDQEAPEAD@Z 000000018005b490 f i libucrtd:output.obj
 0001:0005a4d0       ??$make_c_string_character_source@_WPEAPEA_W@__crt_strtox@@YA?AV?$c_string_character_source@_W@0@QEB_WQEAPEA_W@Z 000000018005b4d0 f i libucrtd:output.obj
 0001:0005a510       ??$parse_integer@KV?$c_string_character_source@D@__crt_strtox@@$0A@@__crt_strtox@@YAKAEAV__crt_cached_ptd_host@@V?$c_string_character_source@D@0@H_N@Z 000000018005b510 f i libucrtd:output.obj
 0001:0005a990       ??$parse_integer@KV?$c_string_character_source@_W@__crt_strtox@@$0A@@__crt_strtox@@YAKAEAV__crt_cached_ptd_host@@V?$c_string_character_source@_W@0@H_N@Z 000000018005b990 f i libucrtd:output.obj
 0001:0005ae10       ??$peek_va_arg@C@__crt_stdio_output@@YACPEAD@Z 000000018005be10 f i libucrtd:output.obj
 0001:0005ae70       ??$peek_va_arg@E@__crt_stdio_output@@YAEPEAD@Z 000000018005be70 f i libucrtd:output.obj
 0001:0005aed0       ??$peek_va_arg@F@__crt_stdio_output@@YAFPEAD@Z 000000018005bed0 f i libucrtd:output.obj
 0001:0005af30       ??$peek_va_arg@G@__crt_stdio_output@@YAGPEAD@Z 000000018005bf30 f i libucrtd:output.obj
 0001:0005af90       ??$peek_va_arg@H@__crt_stdio_output@@YAHPEAD@Z 000000018005bf90 f i libucrtd:output.obj
 0001:0005afe0       ??$peek_va_arg@I@__crt_stdio_output@@YAIPEAD@Z 000000018005bfe0 f i libucrtd:output.obj
 0001:0005b030       ??$peek_va_arg@PEAD@__crt_stdio_output@@YAPEADPEAD@Z 000000018005c030 f i libucrtd:output.obj
 0001:0005b090       ??$peek_va_arg@PEAUansi_string@?1??type_case_Z@?$output_processor@DV?$stream_output_adapter@D@__crt_stdio_output@@V?$positional_parameter_base@DV?$stream_output_adapter@D@__crt_stdio_output@@@2@@__crt_stdio_output@@AEAA_NXZ@@__crt_stdio_output@@YAPEAUansi_string@?1??type_case_Z@?$output_processor@DV?$stream_output_adapter@D@__crt_stdio_output@@V?$positional_parameter_base@DV?$stream_output_adapter@D@__crt_stdio_output@@@2@@0@AEAA_NXZ@PEAD@Z 000000018005c090 f i libucrtd:output.obj
 0001:0005b0f0       ??$peek_va_arg@PEAUansi_string@?1??type_case_Z@?$output_processor@DV?$string_output_adapter@D@__crt_stdio_output@@V?$positional_parameter_base@DV?$string_output_adapter@D@__crt_stdio_output@@@2@@__crt_stdio_output@@AEAA_NXZ@@__crt_stdio_output@@YAPEAUansi_string@?1??type_case_Z@?$output_processor@DV?$string_output_adapter@D@__crt_stdio_output@@V?$positional_parameter_base@DV?$string_output_adapter@D@__crt_stdio_output@@@2@@0@AEAA_NXZ@PEAD@Z 000000018005c0f0 f i libucrtd:output.obj
 0001:0005b150       ??$peek_va_arg@PEAUansi_string@?1??type_case_Z@?$output_processor@_WV?$stream_output_adapter@_W@__crt_stdio_output@@V?$positional_parameter_base@_WV?$stream_output_adapter@_W@__crt_stdio_output@@@2@@__crt_stdio_output@@AEAA_NXZ@@__crt_stdio_output@@YAPEAUansi_string@?1??type_case_Z@?$output_processor@_WV?$stream_output_adapter@_W@__crt_stdio_output@@V?$positional_parameter_base@_WV?$stream_output_adapter@_W@__crt_stdio_output@@@2@@0@AEAA_NXZ@PEAD@Z 000000018005c150 f i libucrtd:output.obj
 0001:0005b1b0       ??$peek_va_arg@PEAUansi_string@?1??type_case_Z@?$output_processor@_WV?$string_output_adapter@_W@__crt_stdio_output@@V?$positional_parameter_base@_WV?$string_output_adapter@_W@__crt_stdio_output@@@2@@__crt_stdio_output@@AEAA_NXZ@@__crt_stdio_output@@YAPEAUansi_string@?1??type_case_Z@?$output_processor@_WV?$string_output_adapter@_W@__crt_stdio_output@@V?$positional_parameter_base@_WV?$string_output_adapter@_W@__crt_stdio_output@@@2@@0@AEAA_NXZ@PEAD@Z 000000018005c1b0 f i libucrtd:output.obj
 0001:0005b210       ??$peek_va_arg@PEAX@__crt_stdio_output@@YAPEAXPEAD@Z 000000018005c210 f i libucrtd:output.obj
 0001:0005b270       ??$peek_va_arg@U_CRT_DOUBLE@@@__crt_stdio_output@@YA?AU_CRT_DOUBLE@@PEAD@Z 000000018005c270 f i libucrtd:output.obj
 0001:0005b2d0       ??$peek_va_arg@_J@__crt_stdio_output@@YA_JPEAD@Z 000000018005c2d0 f i libucrtd:output.obj
 0001:0005b330       ??$peek_va_arg@_K@__crt_stdio_output@@YA_KPEAD@Z 000000018005c330 f i libucrtd:output.obj
 0001:0005b390       ??$peek_va_arg@_W@__crt_stdio_output@@YA_WPEAD@Z 000000018005c390 f i libucrtd:output.obj
 0001:0005b3f0       ??$puttc_nolock_internal@AEBDPEAU_iobuf@@AEAV__crt_cached_ptd_host@@@?$__crt_char_traits@D@@SAHAEBD$$QEAPEAU_iobuf@@AEAV__crt_cached_ptd_host@@@Z 000000018005c3f0 f i libucrtd:output.obj
 0001:0005b430       ??$puttc_nolock_internal@AEB_WPEAU_iobuf@@AEAV__crt_cached_ptd_host@@@?$__crt_char_traits@_W@@SAGAEB_W$$QEAPEAU_iobuf@@AEAV__crt_cached_ptd_host@@@Z 000000018005c430 f i libucrtd:output.obj
 0001:0005b470       ??$read_va_arg@C@__crt_stdio_output@@YACAEAPEAD@Z 000000018005c470 f i libucrtd:output.obj
 0001:0005b4e0       ??$read_va_arg@E@__crt_stdio_output@@YAEAEAPEAD@Z 000000018005c4e0 f i libucrtd:output.obj
 0001:0005b550       ??$read_va_arg@F@__crt_stdio_output@@YAFAEAPEAD@Z 000000018005c550 f i libucrtd:output.obj
 0001:0005b5c0       ??$read_va_arg@G@__crt_stdio_output@@YAGAEAPEAD@Z 000000018005c5c0 f i libucrtd:output.obj
 0001:0005b630       ??$read_va_arg@H@__crt_stdio_output@@YAHAEAPEAD@Z 000000018005c630 f i libucrtd:output.obj
 0001:0005b690       ??$read_va_arg@I@__crt_stdio_output@@YAIAEAPEAD@Z 000000018005c690 f i libucrtd:output.obj
 0001:0005b6f0       ??$read_va_arg@PEAD@__crt_stdio_output@@YAPEADAEAPEAD@Z 000000018005c6f0 f i libucrtd:output.obj
 0001:0005b760       ??$read_va_arg@PEAUansi_string@?1??type_case_Z@?$output_processor@DV?$stream_output_adapter@D@__crt_stdio_output@@V?$format_validation_base@DV?$stream_output_adapter@D@__crt_stdio_output@@@2@@__crt_stdio_output@@AEAA_NXZ@@__crt_stdio_output@@YAPEAUansi_string@?1??type_case_Z@?$output_processor@DV?$stream_output_adapter@D@__crt_stdio_output@@V?$format_validation_base@DV?$stream_output_adapter@D@__crt_stdio_output@@@2@@0@AEAA_NXZ@AEAPEAD@Z 000000018005c760 f i libucrtd:output.obj
 0001:0005b7d0       ??$read_va_arg@PEAUansi_string@?1??type_case_Z@?$output_processor@DV?$stream_output_adapter@D@__crt_stdio_output@@V?$positional_parameter_base@DV?$stream_output_adapter@D@__crt_stdio_output@@@2@@__crt_stdio_output@@AEAA_NXZ@@__crt_stdio_output@@YAPEAUansi_string@?1??type_case_Z@?$output_processor@DV?$stream_output_adapter@D@__crt_stdio_output@@V?$positional_parameter_base@DV?$stream_output_adapter@D@__crt_stdio_output@@@2@@0@AEAA_NXZ@AEAPEAD@Z 000000018005c7d0 f i libucrtd:output.obj
 0001:0005b840       ??$read_va_arg@PEAUansi_string@?1??type_case_Z@?$output_processor@DV?$stream_output_adapter@D@__crt_stdio_output@@V?$standard_base@DV?$stream_output_adapter@D@__crt_stdio_output@@@2@@__crt_stdio_output@@AEAA_NXZ@@__crt_stdio_output@@YAPEAUansi_string@?1??type_case_Z@?$output_processor@DV?$stream_output_adapter@D@__crt_stdio_output@@V?$standard_base@DV?$stream_output_adapter@D@__crt_stdio_output@@@2@@0@AEAA_NXZ@AEAPEAD@Z 000000018005c840 f i libucrtd:output.obj
 0001:0005b8b0       ??$read_va_arg@PEAUansi_string@?1??type_case_Z@?$output_processor@DV?$string_output_adapter@D@__crt_stdio_output@@V?$format_validation_base@DV?$string_output_adapter@D@__crt_stdio_output@@@2@@__crt_stdio_output@@AEAA_NXZ@@__crt_stdio_output@@YAPEAUansi_string@?1??type_case_Z@?$output_processor@DV?$string_output_adapter@D@__crt_stdio_output@@V?$format_validation_base@DV?$string_output_adapter@D@__crt_stdio_output@@@2@@0@AEAA_NXZ@AEAPEAD@Z 000000018005c8b0 f i libucrtd:output.obj
 0001:0005b920       ??$read_va_arg@PEAUansi_string@?1??type_case_Z@?$output_processor@DV?$string_output_adapter@D@__crt_stdio_output@@V?$positional_parameter_base@DV?$string_output_adapter@D@__crt_stdio_output@@@2@@__crt_stdio_output@@AEAA_NXZ@@__crt_stdio_output@@YAPEAUansi_string@?1??type_case_Z@?$output_processor@DV?$string_output_adapter@D@__crt_stdio_output@@V?$positional_parameter_base@DV?$string_output_adapter@D@__crt_stdio_output@@@2@@0@AEAA_NXZ@AEAPEAD@Z 000000018005c920 f i libucrtd:output.obj
 0001:0005b990       ??$read_va_arg@PEAUansi_string@?1??type_case_Z@?$output_processor@DV?$string_output_adapter@D@__crt_stdio_output@@V?$standard_base@DV?$string_output_adapter@D@__crt_stdio_output@@@2@@__crt_stdio_output@@AEAA_NXZ@@__crt_stdio_output@@YAPEAUansi_string@?1??type_case_Z@?$output_processor@DV?$string_output_adapter@D@__crt_stdio_output@@V?$standard_base@DV?$string_output_adapter@D@__crt_stdio_output@@@2@@0@AEAA_NXZ@AEAPEAD@Z 000000018005c990 f i libucrtd:output.obj
 0001:0005ba00       ??$read_va_arg@PEAUansi_string@?1??type_case_Z@?$output_processor@_WV?$stream_output_adapter@_W@__crt_stdio_output@@V?$format_validation_base@_WV?$stream_output_adapter@_W@__crt_stdio_output@@@2@@__crt_stdio_output@@AEAA_NXZ@@__crt_stdio_output@@YAPEAUansi_string@?1??type_case_Z@?$output_processor@_WV?$stream_output_adapter@_W@__crt_stdio_output@@V?$format_validation_base@_WV?$stream_output_adapter@_W@__crt_stdio_output@@@2@@0@AEAA_NXZ@AEAPEAD@Z 000000018005ca00 f i libucrtd:output.obj
 0001:0005ba70       ??$read_va_arg@PEAUansi_string@?1??type_case_Z@?$output_processor@_WV?$stream_output_adapter@_W@__crt_stdio_output@@V?$positional_parameter_base@_WV?$stream_output_adapter@_W@__crt_stdio_output@@@2@@__crt_stdio_output@@AEAA_NXZ@@__crt_stdio_output@@YAPEAUansi_string@?1??type_case_Z@?$output_processor@_WV?$stream_output_adapter@_W@__crt_stdio_output@@V?$positional_parameter_base@_WV?$stream_output_adapter@_W@__crt_stdio_output@@@2@@0@AEAA_NXZ@AEAPEAD@Z 000000018005ca70 f i libucrtd:output.obj
 0001:0005bae0       ??$read_va_arg@PEAUansi_string@?1??type_case_Z@?$output_processor@_WV?$stream_output_adapter@_W@__crt_stdio_output@@V?$standard_base@_WV?$stream_output_adapter@_W@__crt_stdio_output@@@2@@__crt_stdio_output@@AEAA_NXZ@@__crt_stdio_output@@YAPEAUansi_string@?1??type_case_Z@?$output_processor@_WV?$stream_output_adapter@_W@__crt_stdio_output@@V?$standard_base@_WV?$stream_output_adapter@_W@__crt_stdio_output@@@2@@0@AEAA_NXZ@AEAPEAD@Z 000000018005cae0 f i libucrtd:output.obj
 0001:0005bb50       ??$read_va_arg@PEAUansi_string@?1??type_case_Z@?$output_processor@_WV?$string_output_adapter@_W@__crt_stdio_output@@V?$format_validation_base@_WV?$string_output_adapter@_W@__crt_stdio_output@@@2@@__crt_stdio_output@@AEAA_NXZ@@__crt_stdio_output@@YAPEAUansi_string@?1??type_case_Z@?$output_processor@_WV?$string_output_adapter@_W@__crt_stdio_output@@V?$format_validation_base@_WV?$string_output_adapter@_W@__crt_stdio_output@@@2@@0@AEAA_NXZ@AEAPEAD@Z 000000018005cb50 f i libucrtd:output.obj
 0001:0005bbc0       ??$read_va_arg@PEAUansi_string@?1??type_case_Z@?$output_processor@_WV?$string_output_adapter@_W@__crt_stdio_output@@V?$positional_parameter_base@_WV?$string_output_adapter@_W@__crt_stdio_output@@@2@@__crt_stdio_output@@AEAA_NXZ@@__crt_stdio_output@@YAPEAUansi_string@?1??type_case_Z@?$output_processor@_WV?$string_output_adapter@_W@__crt_stdio_output@@V?$positional_parameter_base@_WV?$string_output_adapter@_W@__crt_stdio_output@@@2@@0@AEAA_NXZ@AEAPEAD@Z 000000018005cbc0 f i libucrtd:output.obj
 0001:0005bc30       ??$read_va_arg@PEAUansi_string@?1??type_case_Z@?$output_processor@_WV?$string_output_adapter@_W@__crt_stdio_output@@V?$standard_base@_WV?$string_output_adapter@_W@__crt_stdio_output@@@2@@__crt_stdio_output@@AEAA_NXZ@@__crt_stdio_output@@YAPEAUansi_string@?1??type_case_Z@?$output_processor@_WV?$string_output_adapter@_W@__crt_stdio_output@@V?$standard_base@_WV?$string_output_adapter@_W@__crt_stdio_output@@@2@@0@AEAA_NXZ@AEAPEAD@Z 000000018005cc30 f i libucrtd:output.obj
 0001:0005bca0       ??$read_va_arg@PEAX@__crt_stdio_output@@YAPEAXAEAPEAD@Z 000000018005cca0 f i libucrtd:output.obj
 0001:0005bd10       ??$read_va_arg@U_CRT_DOUBLE@@@__crt_stdio_output@@YA?AU_CRT_DOUBLE@@AEAPEAD@Z 000000018005cd10 f i libucrtd:output.obj
 0001:0005bd80       ??$read_va_arg@_J@__crt_stdio_output@@YA_JAEAPEAD@Z 000000018005cd80 f i libucrtd:output.obj
 0001:0005bdf0       ??$read_va_arg@_K@__crt_stdio_output@@YA_KAEAPEAD@Z 000000018005cdf0 f i libucrtd:output.obj
 0001:0005be60       ??$read_va_arg@_W@__crt_stdio_output@@YA_WAEAPEAD@Z 000000018005ce60 f i libucrtd:output.obj
 0001:0005bed0       ??$scratch_count@D@formatting_buffer@__crt_stdio_output@@QEBA_KXZ 000000018005ced0 f i libucrtd:output.obj
 0001:0005bef0       ??$scratch_data@D@formatting_buffer@__crt_stdio_output@@QEAAPEADXZ 000000018005cef0 f i libucrtd:output.obj
 0001:0005bf60       ??$type_case_integer@$07@?$output_processor@DV?$stream_output_adapter@D@__crt_stdio_output@@V?$format_validation_base@DV?$stream_output_adapter@D@__crt_stdio_output@@@2@@__crt_stdio_output@@AEAA_N_N@Z 000000018005cf60 f i libucrtd:output.obj
 0001:0005c3e0       ??$type_case_integer@$07@?$output_processor@DV?$stream_output_adapter@D@__crt_stdio_output@@V?$positional_parameter_base@DV?$stream_output_adapter@D@__crt_stdio_output@@@2@@__crt_stdio_output@@AEAA_N_N@Z 000000018005d3e0 f i libucrtd:output.obj
 0001:0005c860       ??$type_case_integer@$07@?$output_processor@DV?$stream_output_adapter@D@__crt_stdio_output@@V?$standard_base@DV?$stream_output_adapter@D@__crt_stdio_output@@@2@@__crt_stdio_output@@AEAA_N_N@Z 000000018005d860 f i libucrtd:output.obj
 0001:0005cce0       ??$type_case_integer@$07@?$output_processor@DV?$string_output_adapter@D@__crt_stdio_output@@V?$format_validation_base@DV?$string_output_adapter@D@__crt_stdio_output@@@2@@__crt_stdio_output@@AEAA_N_N@Z 000000018005dce0 f i libucrtd:output.obj
 0001:0005d160       ??$type_case_integer@$07@?$output_processor@DV?$string_output_adapter@D@__crt_stdio_output@@V?$positional_parameter_base@DV?$string_output_adapter@D@__crt_stdio_output@@@2@@__crt_stdio_output@@AEAA_N_N@Z 000000018005e160 f i libucrtd:output.obj
 0001:0005d5e0       ??$type_case_integer@$07@?$output_processor@DV?$string_output_adapter@D@__crt_stdio_output@@V?$standard_base@DV?$string_output_adapter@D@__crt_stdio_output@@@2@@__crt_stdio_output@@AEAA_N_N@Z 000000018005e5e0 f i libucrtd:output.obj
 0001:0005da60       ??$type_case_integer@$07@?$output_processor@_WV?$stream_output_adapter@_W@__crt_stdio_output@@V?$format_validation_base@_WV?$stream_output_adapter@_W@__crt_stdio_output@@@2@@__crt_stdio_output@@AEAA_N_N@Z 000000018005ea60 f i libucrtd:output.obj
 0001:0005dee0       ??$type_case_integer@$07@?$output_processor@_WV?$stream_output_adapter@_W@__crt_stdio_output@@V?$positional_parameter_base@_WV?$stream_output_adapter@_W@__crt_stdio_output@@@2@@__crt_stdio_output@@AEAA_N_N@Z 000000018005eee0 f i libucrtd:output.obj
 0001:0005e360       ??$type_case_integer@$07@?$output_processor@_WV?$stream_output_adapter@_W@__crt_stdio_output@@V?$standard_base@_WV?$stream_output_adapter@_W@__crt_stdio_output@@@2@@__crt_stdio_output@@AEAA_N_N@Z 000000018005f360 f i libucrtd:output.obj
 0001:0005e7e0       ??$type_case_integer@$07@?$output_processor@_WV?$string_output_adapter@_W@__crt_stdio_output@@V?$format_validation_base@_WV?$string_output_adapter@_W@__crt_stdio_output@@@2@@__crt_stdio_output@@AEAA_N_N@Z 000000018005f7e0 f i libucrtd:output.obj
 0001:0005ec60       ??$type_case_integer@$07@?$output_processor@_WV?$string_output_adapter@_W@__crt_stdio_output@@V?$positional_parameter_base@_WV?$string_output_adapter@_W@__crt_stdio_output@@@2@@__crt_stdio_output@@AEAA_N_N@Z 000000018005fc60 f i libucrtd:output.obj
 0001:0005f0e0       ??$type_case_integer@$07@?$output_processor@_WV?$string_output_adapter@_W@__crt_stdio_output@@V?$standard_base@_WV?$string_output_adapter@_W@__crt_stdio_output@@@2@@__crt_stdio_output@@AEAA_N_N@Z 00000001800600e0 f i libucrtd:output.obj
 0001:0005f560       ??$type_case_integer@$09@?$output_processor@DV?$stream_output_adapter@D@__crt_stdio_output@@V?$format_validation_base@DV?$stream_output_adapter@D@__crt_stdio_output@@@2@@__crt_stdio_output@@AEAA_N_N@Z 0000000180060560 f i libucrtd:output.obj
 0001:0005f9e0       ??$type_case_integer@$09@?$output_processor@DV?$stream_output_adapter@D@__crt_stdio_output@@V?$positional_parameter_base@DV?$stream_output_adapter@D@__crt_stdio_output@@@2@@__crt_stdio_output@@AEAA_N_N@Z 00000001800609e0 f i libucrtd:output.obj
 0001:0005fe60       ??$type_case_integer@$09@?$output_processor@DV?$stream_output_adapter@D@__crt_stdio_output@@V?$standard_base@DV?$stream_output_adapter@D@__crt_stdio_output@@@2@@__crt_stdio_output@@AEAA_N_N@Z 0000000180060e60 f i libucrtd:output.obj
 0001:000602e0       ??$type_case_integer@$09@?$output_processor@DV?$string_output_adapter@D@__crt_stdio_output@@V?$format_validation_base@DV?$string_output_adapter@D@__crt_stdio_output@@@2@@__crt_stdio_output@@AEAA_N_N@Z 00000001800612e0 f i libucrtd:output.obj
 0001:00060760       ??$type_case_integer@$09@?$output_processor@DV?$string_output_adapter@D@__crt_stdio_output@@V?$positional_parameter_base@DV?$string_output_adapter@D@__crt_stdio_output@@@2@@__crt_stdio_output@@AEAA_N_N@Z 0000000180061760 f i libucrtd:output.obj
 0001:00060be0       ??$type_case_integer@$09@?$output_processor@DV?$string_output_adapter@D@__crt_stdio_output@@V?$standard_base@DV?$string_output_adapter@D@__crt_stdio_output@@@2@@__crt_stdio_output@@AEAA_N_N@Z 0000000180061be0 f i libucrtd:output.obj
 0001:00061060       ??$type_case_integer@$09@?$output_processor@_WV?$stream_output_adapter@_W@__crt_stdio_output@@V?$format_validation_base@_WV?$stream_output_adapter@_W@__crt_stdio_output@@@2@@__crt_stdio_output@@AEAA_N_N@Z 0000000180062060 f i libucrtd:output.obj
 0001:000614e0       ??$type_case_integer@$09@?$output_processor@_WV?$stream_output_adapter@_W@__crt_stdio_output@@V?$positional_parameter_base@_WV?$stream_output_adapter@_W@__crt_stdio_output@@@2@@__crt_stdio_output@@AEAA_N_N@Z 00000001800624e0 f i libucrtd:output.obj
 0001:00061960       ??$type_case_integer@$09@?$output_processor@_WV?$stream_output_adapter@_W@__crt_stdio_output@@V?$standard_base@_WV?$stream_output_adapter@_W@__crt_stdio_output@@@2@@__crt_stdio_output@@AEAA_N_N@Z 0000000180062960 f i libucrtd:output.obj
 0001:00061de0       ??$type_case_integer@$09@?$output_processor@_WV?$string_output_adapter@_W@__crt_stdio_output@@V?$format_validation_base@_WV?$string_output_adapter@_W@__crt_stdio_output@@@2@@__crt_stdio_output@@AEAA_N_N@Z 0000000180062de0 f i libucrtd:output.obj
 0001:00062260       ??$type_case_integer@$09@?$output_processor@_WV?$string_output_adapter@_W@__crt_stdio_output@@V?$positional_parameter_base@_WV?$string_output_adapter@_W@__crt_stdio_output@@@2@@__crt_stdio_output@@AEAA_N_N@Z 0000000180063260 f i libucrtd:output.obj
 0001:000626e0       ??$type_case_integer@$09@?$output_processor@_WV?$string_output_adapter@_W@__crt_stdio_output@@V?$standard_base@_WV?$string_output_adapter@_W@__crt_stdio_output@@@2@@__crt_stdio_output@@AEAA_N_N@Z 00000001800636e0 f i libucrtd:output.obj
 0001:00062b60       ??$type_case_integer@$0BA@@?$output_processor@DV?$stream_output_adapter@D@__crt_stdio_output@@V?$format_validation_base@DV?$stream_output_adapter@D@__crt_stdio_output@@@2@@__crt_stdio_output@@AEAA_N_N@Z 0000000180063b60 f i libucrtd:output.obj
 0001:00062fe0       ??$type_case_integer@$0BA@@?$output_processor@DV?$stream_output_adapter@D@__crt_stdio_output@@V?$positional_parameter_base@DV?$stream_output_adapter@D@__crt_stdio_output@@@2@@__crt_stdio_output@@AEAA_N_N@Z 0000000180063fe0 f i libucrtd:output.obj
 0001:00063460       ??$type_case_integer@$0BA@@?$output_processor@DV?$stream_output_adapter@D@__crt_stdio_output@@V?$standard_base@DV?$stream_output_adapter@D@__crt_stdio_output@@@2@@__crt_stdio_output@@AEAA_N_N@Z 0000000180064460 f i libucrtd:output.obj
 0001:000638e0       ??$type_case_integer@$0BA@@?$output_processor@DV?$string_output_adapter@D@__crt_stdio_output@@V?$format_validation_base@DV?$string_output_adapter@D@__crt_stdio_output@@@2@@__crt_stdio_output@@AEAA_N_N@Z 00000001800648e0 f i libucrtd:output.obj
 0001:00063d60       ??$type_case_integer@$0BA@@?$output_processor@DV?$string_output_adapter@D@__crt_stdio_output@@V?$positional_parameter_base@DV?$string_output_adapter@D@__crt_stdio_output@@@2@@__crt_stdio_output@@AEAA_N_N@Z 0000000180064d60 f i libucrtd:output.obj
 0001:000641e0       ??$type_case_integer@$0BA@@?$output_processor@DV?$string_output_adapter@D@__crt_stdio_output@@V?$standard_base@DV?$string_output_adapter@D@__crt_stdio_output@@@2@@__crt_stdio_output@@AEAA_N_N@Z 00000001800651e0 f i libucrtd:output.obj
 0001:00064660       ??$type_case_integer@$0BA@@?$output_processor@_WV?$stream_output_adapter@_W@__crt_stdio_output@@V?$format_validation_base@_WV?$stream_output_adapter@_W@__crt_stdio_output@@@2@@__crt_stdio_output@@AEAA_N_N@Z 0000000180065660 f i libucrtd:output.obj
 0001:00064ae0       ??$type_case_integer@$0BA@@?$output_processor@_WV?$stream_output_adapter@_W@__crt_stdio_output@@V?$positional_parameter_base@_WV?$stream_output_adapter@_W@__crt_stdio_output@@@2@@__crt_stdio_output@@AEAA_N_N@Z 0000000180065ae0 f i libucrtd:output.obj
 0001:00064f60       ??$type_case_integer@$0BA@@?$output_processor@_WV?$stream_output_adapter@_W@__crt_stdio_output@@V?$standard_base@_WV?$stream_output_adapter@_W@__crt_stdio_output@@@2@@__crt_stdio_output@@AEAA_N_N@Z 0000000180065f60 f i libucrtd:output.obj
 0001:000653e0       ??$type_case_integer@$0BA@@?$output_processor@_WV?$string_output_adapter@_W@__crt_stdio_output@@V?$format_validation_base@_WV?$string_output_adapter@_W@__crt_stdio_output@@@2@@__crt_stdio_output@@AEAA_N_N@Z 00000001800663e0 f i libucrtd:output.obj
 0001:00065860       ??$type_case_integer@$0BA@@?$output_processor@_WV?$string_output_adapter@_W@__crt_stdio_output@@V?$positional_parameter_base@_WV?$string_output_adapter@_W@__crt_stdio_output@@@2@@__crt_stdio_output@@AEAA_N_N@Z 0000000180066860 f i libucrtd:output.obj
 0001:00065ce0       ??$type_case_integer@$0BA@@?$output_processor@_WV?$string_output_adapter@_W@__crt_stdio_output@@V?$standard_base@_WV?$string_output_adapter@_W@__crt_stdio_output@@@2@@__crt_stdio_output@@AEAA_N_N@Z 0000000180066ce0 f i libucrtd:output.obj
 0001:00066160       ??$type_case_integer_parse_into_buffer@I$07@?$output_processor@DV?$stream_output_adapter@D@__crt_stdio_output@@V?$format_validation_base@DV?$stream_output_adapter@D@__crt_stdio_output@@@2@@__crt_stdio_output@@AEAAXI_N@Z 0000000180067160 f i libucrtd:output.obj
 0001:00066290       ??$type_case_integer_parse_into_buffer@I$07@?$output_processor@DV?$stream_output_adapter@D@__crt_stdio_output@@V?$positional_parameter_base@DV?$stream_output_adapter@D@__crt_stdio_output@@@2@@__crt_stdio_output@@AEAAXI_N@Z 0000000180067290 f i libucrtd:output.obj
 0001:000663c0       ??$type_case_integer_parse_into_buffer@I$07@?$output_processor@DV?$stream_output_adapter@D@__crt_stdio_output@@V?$standard_base@DV?$stream_output_adapter@D@__crt_stdio_output@@@2@@__crt_stdio_output@@AEAAXI_N@Z 00000001800673c0 f i libucrtd:output.obj
 0001:000664f0       ??$type_case_integer_parse_into_buffer@I$07@?$output_processor@DV?$string_output_adapter@D@__crt_stdio_output@@V?$format_validation_base@DV?$string_output_adapter@D@__crt_stdio_output@@@2@@__crt_stdio_output@@AEAAXI_N@Z 00000001800674f0 f i libucrtd:output.obj
 0001:00066620       ??$type_case_integer_parse_into_buffer@I$07@?$output_processor@DV?$string_output_adapter@D@__crt_stdio_output@@V?$positional_parameter_base@DV?$string_output_adapter@D@__crt_stdio_output@@@2@@__crt_stdio_output@@AEAAXI_N@Z 0000000180067620 f i libucrtd:output.obj
 0001:00066750       ??$type_case_integer_parse_into_buffer@I$07@?$output_processor@DV?$string_output_adapter@D@__crt_stdio_output@@V?$standard_base@DV?$string_output_adapter@D@__crt_stdio_output@@@2@@__crt_stdio_output@@AEAAXI_N@Z 0000000180067750 f i libucrtd:output.obj
 0001:00066880       ??$type_case_integer_parse_into_buffer@I$07@?$output_processor@_WV?$stream_output_adapter@_W@__crt_stdio_output@@V?$format_validation_base@_WV?$stream_output_adapter@_W@__crt_stdio_output@@@2@@__crt_stdio_output@@AEAAXI_N@Z 0000000180067880 f i libucrtd:output.obj
 0001:000669c0       ??$type_case_integer_parse_into_buffer@I$07@?$output_processor@_WV?$stream_output_adapter@_W@__crt_stdio_output@@V?$positional_parameter_base@_WV?$stream_output_adapter@_W@__crt_stdio_output@@@2@@__crt_stdio_output@@AEAAXI_N@Z 00000001800679c0 f i libucrtd:output.obj
 0001:00066b00       ??$type_case_integer_parse_into_buffer@I$07@?$output_processor@_WV?$stream_output_adapter@_W@__crt_stdio_output@@V?$standard_base@_WV?$stream_output_adapter@_W@__crt_stdio_output@@@2@@__crt_stdio_output@@AEAAXI_N@Z 0000000180067b00 f i libucrtd:output.obj
 0001:00066c40       ??$type_case_integer_parse_into_buffer@I$07@?$output_processor@_WV?$string_output_adapter@_W@__crt_stdio_output@@V?$format_validation_base@_WV?$string_output_adapter@_W@__crt_stdio_output@@@2@@__crt_stdio_output@@AEAAXI_N@Z 0000000180067c40 f i libucrtd:output.obj
 0001:00066d80       ??$type_case_integer_parse_into_buffer@I$07@?$output_processor@_WV?$string_output_adapter@_W@__crt_stdio_output@@V?$positional_parameter_base@_WV?$string_output_adapter@_W@__crt_stdio_output@@@2@@__crt_stdio_output@@AEAAXI_N@Z 0000000180067d80 f i libucrtd:output.obj
 0001:00066ec0       ??$type_case_integer_parse_into_buffer@I$07@?$output_processor@_WV?$string_output_adapter@_W@__crt_stdio_output@@V?$standard_base@_WV?$string_output_adapter@_W@__crt_stdio_output@@@2@@__crt_stdio_output@@AEAAXI_N@Z 0000000180067ec0 f i libucrtd:output.obj
 0001:00067000       ??$type_case_integer_parse_into_buffer@I$09@?$output_processor@DV?$stream_output_adapter@D@__crt_stdio_output@@V?$format_validation_base@DV?$stream_output_adapter@D@__crt_stdio_output@@@2@@__crt_stdio_output@@AEAAXI_N@Z 0000000180068000 f i libucrtd:output.obj
 0001:00067130       ??$type_case_integer_parse_into_buffer@I$09@?$output_processor@DV?$stream_output_adapter@D@__crt_stdio_output@@V?$positional_parameter_base@DV?$stream_output_adapter@D@__crt_stdio_output@@@2@@__crt_stdio_output@@AEAAXI_N@Z 0000000180068130 f i libucrtd:output.obj
 0001:00067260       ??$type_case_integer_parse_into_buffer@I$09@?$output_processor@DV?$stream_output_adapter@D@__crt_stdio_output@@V?$standard_base@DV?$stream_output_adapter@D@__crt_stdio_output@@@2@@__crt_stdio_output@@AEAAXI_N@Z 0000000180068260 f i libucrtd:output.obj
 0001:00067390       ??$type_case_integer_parse_into_buffer@I$09@?$output_processor@DV?$string_output_adapter@D@__crt_stdio_output@@V?$format_validation_base@DV?$string_output_adapter@D@__crt_stdio_output@@@2@@__crt_stdio_output@@AEAAXI_N@Z 0000000180068390 f i libucrtd:output.obj
 0001:000674c0       ??$type_case_integer_parse_into_buffer@I$09@?$output_processor@DV?$string_output_adapter@D@__crt_stdio_output@@V?$positional_parameter_base@DV?$string_output_adapter@D@__crt_stdio_output@@@2@@__crt_stdio_output@@AEAAXI_N@Z 00000001800684c0 f i libucrtd:output.obj
 0001:000675f0       ??$type_case_integer_parse_into_buffer@I$09@?$output_processor@DV?$string_output_adapter@D@__crt_stdio_output@@V?$standard_base@DV?$string_output_adapter@D@__crt_stdio_output@@@2@@__crt_stdio_output@@AEAAXI_N@Z 00000001800685f0 f i libucrtd:output.obj
 0001:00067720       ??$type_case_integer_parse_into_buffer@I$09@?$output_processor@_WV?$stream_output_adapter@_W@__crt_stdio_output@@V?$format_validation_base@_WV?$stream_output_adapter@_W@__crt_stdio_output@@@2@@__crt_stdio_output@@AEAAXI_N@Z 0000000180068720 f i libucrtd:output.obj
 0001:00067860       ??$type_case_integer_parse_into_buffer@I$09@?$output_processor@_WV?$stream_output_adapter@_W@__crt_stdio_output@@V?$positional_parameter_base@_WV?$stream_output_adapter@_W@__crt_stdio_output@@@2@@__crt_stdio_output@@AEAAXI_N@Z 0000000180068860 f i libucrtd:output.obj
 0001:000679a0       ??$type_case_integer_parse_into_buffer@I$09@?$output_processor@_WV?$stream_output_adapter@_W@__crt_stdio_output@@V?$standard_base@_WV?$stream_output_adapter@_W@__crt_stdio_output@@@2@@__crt_stdio_output@@AEAAXI_N@Z 00000001800689a0 f i libucrtd:output.obj
 0001:00067ae0       ??$type_case_integer_parse_into_buffer@I$09@?$output_processor@_WV?$string_output_adapter@_W@__crt_stdio_output@@V?$format_validation_base@_WV?$string_output_adapter@_W@__crt_stdio_output@@@2@@__crt_stdio_output@@AEAAXI_N@Z 0000000180068ae0 f i libucrtd:output.obj
 0001:00067c20       ??$type_case_integer_parse_into_buffer@I$09@?$output_processor@_WV?$string_output_adapter@_W@__crt_stdio_output@@V?$positional_parameter_base@_WV?$string_output_adapter@_W@__crt_stdio_output@@@2@@__crt_stdio_output@@AEAAXI_N@Z 0000000180068c20 f i libucrtd:output.obj
 0001:00067d60       ??$type_case_integer_parse_into_buffer@I$09@?$output_processor@_WV?$string_output_adapter@_W@__crt_stdio_output@@V?$standard_base@_WV?$string_output_adapter@_W@__crt_stdio_output@@@2@@__crt_stdio_output@@AEAAXI_N@Z 0000000180068d60 f i libucrtd:output.obj
 0001:00067ea0       ??$type_case_integer_parse_into_buffer@I$0BA@@?$output_processor@DV?$stream_output_adapter@D@__crt_stdio_output@@V?$format_validation_base@DV?$stream_output_adapter@D@__crt_stdio_output@@@2@@__crt_stdio_output@@AEAAXI_N@Z 0000000180068ea0 f i libucrtd:output.obj
 0001:00067fd0       ??$type_case_integer_parse_into_buffer@I$0BA@@?$output_processor@DV?$stream_output_adapter@D@__crt_stdio_output@@V?$positional_parameter_base@DV?$stream_output_adapter@D@__crt_stdio_output@@@2@@__crt_stdio_output@@AEAAXI_N@Z 0000000180068fd0 f i libucrtd:output.obj
 0001:00068100       ??$type_case_integer_parse_into_buffer@I$0BA@@?$output_processor@DV?$stream_output_adapter@D@__crt_stdio_output@@V?$standard_base@DV?$stream_output_adapter@D@__crt_stdio_output@@@2@@__crt_stdio_output@@AEAAXI_N@Z 0000000180069100 f i libucrtd:output.obj
 0001:00068230       ??$type_case_integer_parse_into_buffer@I$0BA@@?$output_processor@DV?$string_output_adapter@D@__crt_stdio_output@@V?$format_validation_base@DV?$string_output_adapter@D@__crt_stdio_output@@@2@@__crt_stdio_output@@AEAAXI_N@Z 0000000180069230 f i libucrtd:output.obj
 0001:00068360       ??$type_case_integer_parse_into_buffer@I$0BA@@?$output_processor@DV?$string_output_adapter@D@__crt_stdio_output@@V?$positional_parameter_base@DV?$string_output_adapter@D@__crt_stdio_output@@@2@@__crt_stdio_output@@AEAAXI_N@Z 0000000180069360 f i libucrtd:output.obj
 0001:00068490       ??$type_case_integer_parse_into_buffer@I$0BA@@?$output_processor@DV?$string_output_adapter@D@__crt_stdio_output@@V?$standard_base@DV?$string_output_adapter@D@__crt_stdio_output@@@2@@__crt_stdio_output@@AEAAXI_N@Z 0000000180069490 f i libucrtd:output.obj
 0001:000685c0       ??$type_case_integer_parse_into_buffer@I$0BA@@?$output_processor@_WV?$stream_output_adapter@_W@__crt_stdio_output@@V?$format_validation_base@_WV?$stream_output_adapter@_W@__crt_stdio_output@@@2@@__crt_stdio_output@@AEAAXI_N@Z 00000001800695c0 f i libucrtd:output.obj
 0001:00068700       ??$type_case_integer_parse_into_buffer@I$0BA@@?$output_processor@_WV?$stream_output_adapter@_W@__crt_stdio_output@@V?$positional_parameter_base@_WV?$stream_output_adapter@_W@__crt_stdio_output@@@2@@__crt_stdio_output@@AEAAXI_N@Z 0000000180069700 f i libucrtd:output.obj
 0001:00068840       ??$type_case_integer_parse_into_buffer@I$0BA@@?$output_processor@_WV?$stream_output_adapter@_W@__crt_stdio_output@@V?$standard_base@_WV?$stream_output_adapter@_W@__crt_stdio_output@@@2@@__crt_stdio_output@@AEAAXI_N@Z 0000000180069840 f i libucrtd:output.obj
 0001:00068980       ??$type_case_integer_parse_into_buffer@I$0BA@@?$output_processor@_WV?$string_output_adapter@_W@__crt_stdio_output@@V?$format_validation_base@_WV?$string_output_adapter@_W@__crt_stdio_output@@@2@@__crt_stdio_output@@AEAAXI_N@Z 0000000180069980 f i libucrtd:output.obj
 0001:00068ac0       ??$type_case_integer_parse_into_buffer@I$0BA@@?$output_processor@_WV?$string_output_adapter@_W@__crt_stdio_output@@V?$positional_parameter_base@_WV?$string_output_adapter@_W@__crt_stdio_output@@@2@@__crt_stdio_output@@AEAAXI_N@Z 0000000180069ac0 f i libucrtd:output.obj
 0001:00068c00       ??$type_case_integer_parse_into_buffer@I$0BA@@?$output_processor@_WV?$string_output_adapter@_W@__crt_stdio_output@@V?$standard_base@_WV?$string_output_adapter@_W@__crt_stdio_output@@@2@@__crt_stdio_output@@AEAAXI_N@Z 0000000180069c00 f i libucrtd:output.obj
 0001:00068d40       ??$type_case_integer_parse_into_buffer@_K$07@?$output_processor@DV?$stream_output_adapter@D@__crt_stdio_output@@V?$format_validation_base@DV?$stream_output_adapter@D@__crt_stdio_output@@@2@@__crt_stdio_output@@AEAAX_K_N@Z 0000000180069d40 f i libucrtd:output.obj
 0001:00068e80       ??$type_case_integer_parse_into_buffer@_K$07@?$output_processor@DV?$stream_output_adapter@D@__crt_stdio_output@@V?$positional_parameter_base@DV?$stream_output_adapter@D@__crt_stdio_output@@@2@@__crt_stdio_output@@AEAAX_K_N@Z 0000000180069e80 f i libucrtd:output.obj
 0001:00068fc0       ??$type_case_integer_parse_into_buffer@_K$07@?$output_processor@DV?$stream_output_adapter@D@__crt_stdio_output@@V?$standard_base@DV?$stream_output_adapter@D@__crt_stdio_output@@@2@@__crt_stdio_output@@AEAAX_K_N@Z 0000000180069fc0 f i libucrtd:output.obj
 0001:00069100       ??$type_case_integer_parse_into_buffer@_K$07@?$output_processor@DV?$string_output_adapter@D@__crt_stdio_output@@V?$format_validation_base@DV?$string_output_adapter@D@__crt_stdio_output@@@2@@__crt_stdio_output@@AEAAX_K_N@Z 000000018006a100 f i libucrtd:output.obj
 0001:00069240       ??$type_case_integer_parse_into_buffer@_K$07@?$output_processor@DV?$string_output_adapter@D@__crt_stdio_output@@V?$positional_parameter_base@DV?$string_output_adapter@D@__crt_stdio_output@@@2@@__crt_stdio_output@@AEAAX_K_N@Z 000000018006a240 f i libucrtd:output.obj
 0001:00069380       ??$type_case_integer_parse_into_buffer@_K$07@?$output_processor@DV?$string_output_adapter@D@__crt_stdio_output@@V?$standard_base@DV?$string_output_adapter@D@__crt_stdio_output@@@2@@__crt_stdio_output@@AEAAX_K_N@Z 000000018006a380 f i libucrtd:output.obj
 0001:000694c0       ??$type_case_integer_parse_into_buffer@_K$07@?$output_processor@_WV?$stream_output_adapter@_W@__crt_stdio_output@@V?$format_validation_base@_WV?$stream_output_adapter@_W@__crt_stdio_output@@@2@@__crt_stdio_output@@AEAAX_K_N@Z 000000018006a4c0 f i libucrtd:output.obj
 0001:00069600       ??$type_case_integer_parse_into_buffer@_K$07@?$output_processor@_WV?$stream_output_adapter@_W@__crt_stdio_output@@V?$positional_parameter_base@_WV?$stream_output_adapter@_W@__crt_stdio_output@@@2@@__crt_stdio_output@@AEAAX_K_N@Z 000000018006a600 f i libucrtd:output.obj
 0001:00069740       ??$type_case_integer_parse_into_buffer@_K$07@?$output_processor@_WV?$stream_output_adapter@_W@__crt_stdio_output@@V?$standard_base@_WV?$stream_output_adapter@_W@__crt_stdio_output@@@2@@__crt_stdio_output@@AEAAX_K_N@Z 000000018006a740 f i libucrtd:output.obj
 0001:00069880       ??$type_case_integer_parse_into_buffer@_K$07@?$output_processor@_WV?$string_output_adapter@_W@__crt_stdio_output@@V?$format_validation_base@_WV?$string_output_adapter@_W@__crt_stdio_output@@@2@@__crt_stdio_output@@AEAAX_K_N@Z 000000018006a880 f i libucrtd:output.obj
 0001:000699c0       ??$type_case_integer_parse_into_buffer@_K$07@?$output_processor@_WV?$string_output_adapter@_W@__crt_stdio_output@@V?$positional_parameter_base@_WV?$string_output_adapter@_W@__crt_stdio_output@@@2@@__crt_stdio_output@@AEAAX_K_N@Z 000000018006a9c0 f i libucrtd:output.obj
 0001:00069b00       ??$type_case_integer_parse_into_buffer@_K$07@?$output_processor@_WV?$string_output_adapter@_W@__crt_stdio_output@@V?$standard_base@_WV?$string_output_adapter@_W@__crt_stdio_output@@@2@@__crt_stdio_output@@AEAAX_K_N@Z 000000018006ab00 f i libucrtd:output.obj
 0001:00069c40       ??$type_case_integer_parse_into_buffer@_K$09@?$output_processor@DV?$stream_output_adapter@D@__crt_stdio_output@@V?$format_validation_base@DV?$stream_output_adapter@D@__crt_stdio_output@@@2@@__crt_stdio_output@@AEAAX_K_N@Z 000000018006ac40 f i libucrtd:output.obj
 0001:00069d80       ??$type_case_integer_parse_into_buffer@_K$09@?$output_processor@DV?$stream_output_adapter@D@__crt_stdio_output@@V?$positional_parameter_base@DV?$stream_output_adapter@D@__crt_stdio_output@@@2@@__crt_stdio_output@@AEAAX_K_N@Z 000000018006ad80 f i libucrtd:output.obj
 0001:00069ec0       ??$type_case_integer_parse_into_buffer@_K$09@?$output_processor@DV?$stream_output_adapter@D@__crt_stdio_output@@V?$standard_base@DV?$stream_output_adapter@D@__crt_stdio_output@@@2@@__crt_stdio_output@@AEAAX_K_N@Z 000000018006aec0 f i libucrtd:output.obj
 0001:0006a000       ??$type_case_integer_parse_into_buffer@_K$09@?$output_processor@DV?$string_output_adapter@D@__crt_stdio_output@@V?$format_validation_base@DV?$string_output_adapter@D@__crt_stdio_output@@@2@@__crt_stdio_output@@AEAAX_K_N@Z 000000018006b000 f i libucrtd:output.obj
 0001:0006a140       ??$type_case_integer_parse_into_buffer@_K$09@?$output_processor@DV?$string_output_adapter@D@__crt_stdio_output@@V?$positional_parameter_base@DV?$string_output_adapter@D@__crt_stdio_output@@@2@@__crt_stdio_output@@AEAAX_K_N@Z 000000018006b140 f i libucrtd:output.obj
 0001:0006a280       ??$type_case_integer_parse_into_buffer@_K$09@?$output_processor@DV?$string_output_adapter@D@__crt_stdio_output@@V?$standard_base@DV?$string_output_adapter@D@__crt_stdio_output@@@2@@__crt_stdio_output@@AEAAX_K_N@Z 000000018006b280 f i libucrtd:output.obj
 0001:0006a3c0       ??$type_case_integer_parse_into_buffer@_K$09@?$output_processor@_WV?$stream_output_adapter@_W@__crt_stdio_output@@V?$format_validation_base@_WV?$stream_output_adapter@_W@__crt_stdio_output@@@2@@__crt_stdio_output@@AEAAX_K_N@Z 000000018006b3c0 f i libucrtd:output.obj
 0001:0006a500       ??$type_case_integer_parse_into_buffer@_K$09@?$output_processor@_WV?$stream_output_adapter@_W@__crt_stdio_output@@V?$positional_parameter_base@_WV?$stream_output_adapter@_W@__crt_stdio_output@@@2@@__crt_stdio_output@@AEAAX_K_N@Z 000000018006b500 f i libucrtd:output.obj
 0001:0006a640       ??$type_case_integer_parse_into_buffer@_K$09@?$output_processor@_WV?$stream_output_adapter@_W@__crt_stdio_output@@V?$standard_base@_WV?$stream_output_adapter@_W@__crt_stdio_output@@@2@@__crt_stdio_output@@AEAAX_K_N@Z 000000018006b640 f i libucrtd:output.obj
 0001:0006a780       ??$type_case_integer_parse_into_buffer@_K$09@?$output_processor@_WV?$string_output_adapter@_W@__crt_stdio_output@@V?$format_validation_base@_WV?$string_output_adapter@_W@__crt_stdio_output@@@2@@__crt_stdio_output@@AEAAX_K_N@Z 000000018006b780 f i libucrtd:output.obj
 0001:0006a8c0       ??$type_case_integer_parse_into_buffer@_K$09@?$output_processor@_WV?$string_output_adapter@_W@__crt_stdio_output@@V?$positional_parameter_base@_WV?$string_output_adapter@_W@__crt_stdio_output@@@2@@__crt_stdio_output@@AEAAX_K_N@Z 000000018006b8c0 f i libucrtd:output.obj
 0001:0006aa00       ??$type_case_integer_parse_into_buffer@_K$09@?$output_processor@_WV?$string_output_adapter@_W@__crt_stdio_output@@V?$standard_base@_WV?$string_output_adapter@_W@__crt_stdio_output@@@2@@__crt_stdio_output@@AEAAX_K_N@Z 000000018006ba00 f i libucrtd:output.obj
 0001:0006ab40       ??$type_case_integer_parse_into_buffer@_K$0BA@@?$output_processor@DV?$stream_output_adapter@D@__crt_stdio_output@@V?$format_validation_base@DV?$stream_output_adapter@D@__crt_stdio_output@@@2@@__crt_stdio_output@@AEAAX_K_N@Z 000000018006bb40 f i libucrtd:output.obj
 0001:0006ac80       ??$type_case_integer_parse_into_buffer@_K$0BA@@?$output_processor@DV?$stream_output_adapter@D@__crt_stdio_output@@V?$positional_parameter_base@DV?$stream_output_adapter@D@__crt_stdio_output@@@2@@__crt_stdio_output@@AEAAX_K_N@Z 000000018006bc80 f i libucrtd:output.obj
 0001:0006adc0       ??$type_case_integer_parse_into_buffer@_K$0BA@@?$output_processor@DV?$stream_output_adapter@D@__crt_stdio_output@@V?$standard_base@DV?$stream_output_adapter@D@__crt_stdio_output@@@2@@__crt_stdio_output@@AEAAX_K_N@Z 000000018006bdc0 f i libucrtd:output.obj
 0001:0006af00       ??$type_case_integer_parse_into_buffer@_K$0BA@@?$output_processor@DV?$string_output_adapter@D@__crt_stdio_output@@V?$format_validation_base@DV?$string_output_adapter@D@__crt_stdio_output@@@2@@__crt_stdio_output@@AEAAX_K_N@Z 000000018006bf00 f i libucrtd:output.obj
 0001:0006b040       ??$type_case_integer_parse_into_buffer@_K$0BA@@?$output_processor@DV?$string_output_adapter@D@__crt_stdio_output@@V?$positional_parameter_base@DV?$string_output_adapter@D@__crt_stdio_output@@@2@@__crt_stdio_output@@AEAAX_K_N@Z 000000018006c040 f i libucrtd:output.obj
 0001:0006b180       ??$type_case_integer_parse_into_buffer@_K$0BA@@?$output_processor@DV?$string_output_adapter@D@__crt_stdio_output@@V?$standard_base@DV?$string_output_adapter@D@__crt_stdio_output@@@2@@__crt_stdio_output@@AEAAX_K_N@Z 000000018006c180 f i libucrtd:output.obj
 0001:0006b2c0       ??$type_case_integer_parse_into_buffer@_K$0BA@@?$output_processor@_WV?$stream_output_adapter@_W@__crt_stdio_output@@V?$format_validation_base@_WV?$stream_output_adapter@_W@__crt_stdio_output@@@2@@__crt_stdio_output@@AEAAX_K_N@Z 000000018006c2c0 f i libucrtd:output.obj
 0001:0006b400       ??$type_case_integer_parse_into_buffer@_K$0BA@@?$output_processor@_WV?$stream_output_adapter@_W@__crt_stdio_output@@V?$positional_parameter_base@_WV?$stream_output_adapter@_W@__crt_stdio_output@@@2@@__crt_stdio_output@@AEAAX_K_N@Z 000000018006c400 f i libucrtd:output.obj
 0001:0006b540       ??$type_case_integer_parse_into_buffer@_K$0BA@@?$output_processor@_WV?$stream_output_adapter@_W@__crt_stdio_output@@V?$standard_base@_WV?$stream_output_adapter@_W@__crt_stdio_output@@@2@@__crt_stdio_output@@AEAAX_K_N@Z 000000018006c540 f i libucrtd:output.obj
 0001:0006b680       ??$type_case_integer_parse_into_buffer@_K$0BA@@?$output_processor@_WV?$string_output_adapter@_W@__crt_stdio_output@@V?$format_validation_base@_WV?$string_output_adapter@_W@__crt_stdio_output@@@2@@__crt_stdio_output@@AEAAX_K_N@Z 000000018006c680 f i libucrtd:output.obj
 0001:0006b7c0       ??$type_case_integer_parse_into_buffer@_K$0BA@@?$output_processor@_WV?$string_output_adapter@_W@__crt_stdio_output@@V?$positional_parameter_base@_WV?$string_output_adapter@_W@__crt_stdio_output@@@2@@__crt_stdio_output@@AEAAX_K_N@Z 000000018006c7c0 f i libucrtd:output.obj
 0001:0006b900       ??$type_case_integer_parse_into_buffer@_K$0BA@@?$output_processor@_WV?$string_output_adapter@_W@__crt_stdio_output@@V?$standard_base@_WV?$string_output_adapter@_W@__crt_stdio_output@@@2@@__crt_stdio_output@@AEAAX_K_N@Z 000000018006c900 f i libucrtd:output.obj
 0001:0006ba40       ??$write_multiple_characters@V?$stream_output_adapter@D@__crt_stdio_output@@D@__crt_stdio_output@@YAXAEBV?$stream_output_adapter@D@0@DHQEAHAEAV__crt_cached_ptd_host@@@Z 000000018006ca40 f i libucrtd:output.obj
 0001:0006bab0       ??$write_multiple_characters@V?$stream_output_adapter@_W@__crt_stdio_output@@D@__crt_stdio_output@@YAXAEBV?$stream_output_adapter@_W@0@DHQEAHAEAV__crt_cached_ptd_host@@@Z 000000018006cab0 f i libucrtd:output.obj
 0001:0006bb20       ??$write_multiple_characters@V?$string_output_adapter@D@__crt_stdio_output@@D@__crt_stdio_output@@YAXAEBV?$string_output_adapter@D@0@DHQEAHAEAV__crt_cached_ptd_host@@@Z 000000018006cb20 f i libucrtd:output.obj
 0001:0006bb90       ??$write_multiple_characters@V?$string_output_adapter@_W@__crt_stdio_output@@D@__crt_stdio_output@@YAXAEBV?$string_output_adapter@_W@0@DHQEAHAEAV__crt_cached_ptd_host@@@Z 000000018006cb90 f i libucrtd:output.obj
 0001:0006bfc0       ??0?$c_string_character_source@D@__crt_strtox@@QEAA@QEBDQEAPEBD@Z 000000018006cfc0 f i libucrtd:output.obj
 0001:0006c010       ??0?$c_string_character_source@_W@__crt_strtox@@QEAA@QEB_WQEAPEB_W@Z 000000018006d010 f i libucrtd:output.obj
 0001:0006c060       ??0?$cached@H@__crt_cached_ptd_host@@QEAA@XZ 000000018006d060 f i libucrtd:output.obj
 0001:0006c080       ??0?$cached@K@__crt_cached_ptd_host@@QEAA@XZ 000000018006d080 f i libucrtd:output.obj
 0001:0006c0a0       ??0?$common_data@D@__crt_stdio_output@@IEAA@AEAV__crt_cached_ptd_host@@@Z 000000018006d0a0 f i libucrtd:output.obj
 0001:0006c160       ??0?$common_data@_W@__crt_stdio_output@@IEAA@AEAV__crt_cached_ptd_host@@@Z 000000018006d160 f i libucrtd:output.obj
 0001:0006c220       ??0?$output_adapter_data@DV?$stream_output_adapter@D@__crt_stdio_output@@@__crt_stdio_output@@IEAA@AEBV?$stream_output_adapter@D@1@_KQEBDAEAV__crt_cached_ptd_host@@QEAD@Z 000000018006d220 f i libucrtd:output.obj
 0001:0006c2a0       ??0?$output_adapter_data@DV?$string_output_adapter@D@__crt_stdio_output@@@__crt_stdio_output@@IEAA@AEBV?$string_output_adapter@D@1@_KQEBDAEAV__crt_cached_ptd_host@@QEAD@Z 000000018006d2a0 f i libucrtd:output.obj
 0001:0006c320       ??0?$output_adapter_data@_WV?$stream_output_adapter@_W@__crt_stdio_output@@@__crt_stdio_output@@IEAA@AEBV?$stream_output_adapter@_W@1@_KQEB_WAEAV__crt_cached_ptd_host@@QEAD@Z 000000018006d320 f i libucrtd:output.obj
 0001:0006c3a0       ??0?$output_adapter_data@_WV?$string_output_adapter@_W@__crt_stdio_output@@@__crt_stdio_output@@IEAA@AEBV?$string_output_adapter@_W@1@_KQEB_WAEAV__crt_cached_ptd_host@@QEAD@Z 000000018006d3a0 f i libucrtd:output.obj
 0001:0006c420       ??0?$output_processor@DV?$stream_output_adapter@D@__crt_stdio_output@@V?$format_validation_base@DV?$stream_output_adapter@D@__crt_stdio_output@@@2@@__crt_stdio_output@@QEAA@AEBV?$stream_output_adapter@D@1@_KQEBDAEAV__crt_cached_ptd_host@@QEAD@Z 000000018006d420 f i libucrtd:output.obj
 0001:0006c470       ??0?$output_processor@DV?$stream_output_adapter@D@__crt_stdio_output@@V?$positional_parameter_base@DV?$stream_output_adapter@D@__crt_stdio_output@@@2@@__crt_stdio_output@@QEAA@AEBV?$stream_output_adapter@D@1@_KQEBDAEAV__crt_cached_ptd_host@@QEAD@Z 000000018006d470 f i libucrtd:output.obj
 0001:0006c4c0       ??0?$output_processor@DV?$stream_output_adapter@D@__crt_stdio_output@@V?$standard_base@DV?$stream_output_adapter@D@__crt_stdio_output@@@2@@__crt_stdio_output@@QEAA@AEBV?$stream_output_adapter@D@1@_KQEBDAEAV__crt_cached_ptd_host@@QEAD@Z 000000018006d4c0 f i libucrtd:output.obj
 0001:0006c510       ??0?$output_processor@DV?$string_output_adapter@D@__crt_stdio_output@@V?$format_validation_base@DV?$string_output_adapter@D@__crt_stdio_output@@@2@@__crt_stdio_output@@QEAA@AEBV?$string_output_adapter@D@1@_KQEBDAEAV__crt_cached_ptd_host@@QEAD@Z 000000018006d510 f i libucrtd:output.obj
 0001:0006c560       ??0?$output_processor@DV?$string_output_adapter@D@__crt_stdio_output@@V?$positional_parameter_base@DV?$string_output_adapter@D@__crt_stdio_output@@@2@@__crt_stdio_output@@QEAA@AEBV?$string_output_adapter@D@1@_KQEBDAEAV__crt_cached_ptd_host@@QEAD@Z 000000018006d560 f i libucrtd:output.obj
 0001:0006c5b0       ??0?$output_processor@DV?$string_output_adapter@D@__crt_stdio_output@@V?$standard_base@DV?$string_output_adapter@D@__crt_stdio_output@@@2@@__crt_stdio_output@@QEAA@AEBV?$string_output_adapter@D@1@_KQEBDAEAV__crt_cached_ptd_host@@QEAD@Z 000000018006d5b0 f i libucrtd:output.obj
 0001:0006c600       ??0?$output_processor@_WV?$stream_output_adapter@_W@__crt_stdio_output@@V?$format_validation_base@_WV?$stream_output_adapter@_W@__crt_stdio_output@@@2@@__crt_stdio_output@@QEAA@AEBV?$stream_output_adapter@_W@1@_KQEB_WAEAV__crt_cached_ptd_host@@QEAD@Z 000000018006d600 f i libucrtd:output.obj
 0001:0006c650       ??0?$output_processor@_WV?$stream_output_adapter@_W@__crt_stdio_output@@V?$positional_parameter_base@_WV?$stream_output_adapter@_W@__crt_stdio_output@@@2@@__crt_stdio_output@@QEAA@AEBV?$stream_output_adapter@_W@1@_KQEB_WAEAV__crt_cached_ptd_host@@QEAD@Z 000000018006d650 f i libucrtd:output.obj
 0001:0006c6a0       ??0?$output_processor@_WV?$stream_output_adapter@_W@__crt_stdio_output@@V?$standard_base@_WV?$stream_output_adapter@_W@__crt_stdio_output@@@2@@__crt_stdio_output@@QEAA@AEBV?$stream_output_adapter@_W@1@_KQEB_WAEAV__crt_cached_ptd_host@@QEAD@Z 000000018006d6a0 f i libucrtd:output.obj
 0001:0006c6f0       ??0?$output_processor@_WV?$string_output_adapter@_W@__crt_stdio_output@@V?$format_validation_base@_WV?$string_output_adapter@_W@__crt_stdio_output@@@2@@__crt_stdio_output@@QEAA@AEBV?$string_output_adapter@_W@1@_KQEB_WAEAV__crt_cached_ptd_host@@QEAD@Z 000000018006d6f0 f i libucrtd:output.obj
 0001:0006c740       ??0?$output_processor@_WV?$string_output_adapter@_W@__crt_stdio_output@@V?$positional_parameter_base@_WV?$string_output_adapter@_W@__crt_stdio_output@@@2@@__crt_stdio_output@@QEAA@AEBV?$string_output_adapter@_W@1@_KQEB_WAEAV__crt_cached_ptd_host@@QEAD@Z 000000018006d740 f i libucrtd:output.obj
 0001:0006c790       ??0?$output_processor@_WV?$string_output_adapter@_W@__crt_stdio_output@@V?$standard_base@_WV?$string_output_adapter@_W@__crt_stdio_output@@@2@@__crt_stdio_output@@QEAA@AEBV?$string_output_adapter@_W@1@_KQEB_WAEAV__crt_cached_ptd_host@@QEAD@Z 000000018006d790 f i libucrtd:output.obj
 0001:0006c7e0       ??0?$stream_output_adapter@D@__crt_stdio_output@@QEAA@QEAU_iobuf@@@Z 000000018006d7e0 f i libucrtd:output.obj
 0001:0006c820       ??0?$stream_output_adapter@_W@__crt_stdio_output@@QEAA@QEAU_iobuf@@@Z 000000018006d820 f i libucrtd:output.obj
 0001:0006c860       ??0?$string_output_adapter@D@__crt_stdio_output@@QEAA@QEAU?$string_output_adapter_context@D@1@@Z 000000018006d860 f i libucrtd:output.obj
 0001:0006c880       ??0?$string_output_adapter@_W@__crt_stdio_output@@QEAA@QEAU?$string_output_adapter_context@_W@1@@Z 000000018006d880 f i libucrtd:output.obj
 0001:0006c8a0       ??0__acrt_stdio_temporary_buffering_guard@@QEAA@QEAU_iobuf@@AEAV__crt_cached_ptd_host@@@Z 000000018006d8a0 f i libucrtd:output.obj
 0001:0006c8f0       ??0__crt_cached_ptd_host@@QEAA@QEAU__crt_locale_pointers@@@Z 000000018006d8f0 f i libucrtd:output.obj
 0001:0006c9b0       ??0__crt_scoped_get_last_error_reset@@QEAA@XZ 000000018006d9b0 f i libucrtd:output.obj
 0001:0006c9d0       ??0__crt_stdio_stream@@QEAA@QEAU_iobuf@@@Z 000000018006d9d0 f i libucrtd:output.obj
 0001:0006c9f0       ??0formatting_buffer@__crt_stdio_output@@QEAA@XZ 000000018006d9f0 f i libucrtd:output.obj
 0001:0006ca30       ??0guard@?$cached@H@__crt_cached_ptd_host@@QEAA@AEAU12@@Z 000000018006da30 f i libucrtd:output.obj
 0001:0006ca70       ??1?$c_string_character_source@D@__crt_strtox@@QEAA@XZ 000000018006da70 f i libucrtd:output.obj
 0001:0006caa0       ??1?$c_string_character_source@_W@__crt_strtox@@QEAA@XZ 000000018006daa0 f i libucrtd:output.obj
 0001:0006cad0       ??1?$common_data@D@__crt_stdio_output@@QEAA@XZ 000000018006dad0 f i libucrtd:output.obj
 0001:0006caf0       ??1?$common_data@_W@__crt_stdio_output@@QEAA@XZ 000000018006daf0 f i libucrtd:output.obj
 0001:0006cb10       ??1?$format_validation_base@DV?$stream_output_adapter@D@__crt_stdio_output@@@__crt_stdio_output@@QEAA@XZ 000000018006db10 f i libucrtd:output.obj
 0001:0006cb30       ??1?$format_validation_base@DV?$string_output_adapter@D@__crt_stdio_output@@@__crt_stdio_output@@QEAA@XZ 000000018006db30 f i libucrtd:output.obj
 0001:0006cb50       ??1?$format_validation_base@_WV?$stream_output_adapter@_W@__crt_stdio_output@@@__crt_stdio_output@@QEAA@XZ 000000018006db50 f i libucrtd:output.obj
 0001:0006cb70       ??1?$format_validation_base@_WV?$string_output_adapter@_W@__crt_stdio_output@@@__crt_stdio_output@@QEAA@XZ 000000018006db70 f i libucrtd:output.obj
 0001:0006cb90       ??1?$output_adapter_data@DV?$stream_output_adapter@D@__crt_stdio_output@@@__crt_stdio_output@@QEAA@XZ 000000018006db90 f i libucrtd:output.obj
 0001:0006cbb0       ??1?$output_adapter_data@DV?$string_output_adapter@D@__crt_stdio_output@@@__crt_stdio_output@@QEAA@XZ 000000018006dbb0 f i libucrtd:output.obj
 0001:0006cbd0       ??1?$output_adapter_data@_WV?$stream_output_adapter@_W@__crt_stdio_output@@@__crt_stdio_output@@QEAA@XZ 000000018006dbd0 f i libucrtd:output.obj
 0001:0006cbf0       ??1?$output_adapter_data@_WV?$string_output_adapter@_W@__crt_stdio_output@@@__crt_stdio_output@@QEAA@XZ 000000018006dbf0 f i libucrtd:output.obj
 0001:0006cc10       ??1?$output_processor@DV?$stream_output_adapter@D@__crt_stdio_output@@V?$format_validation_base@DV?$stream_output_adapter@D@__crt_stdio_output@@@2@@__crt_stdio_output@@QEAA@XZ 000000018006dc10 f i libucrtd:output.obj
 0001:0006cc30       ??1?$output_processor@DV?$stream_output_adapter@D@__crt_stdio_output@@V?$positional_parameter_base@DV?$stream_output_adapter@D@__crt_stdio_output@@@2@@__crt_stdio_output@@QEAA@XZ 000000018006dc30 f i libucrtd:output.obj
 0001:0006cc50       ??1?$output_processor@DV?$stream_output_adapter@D@__crt_stdio_output@@V?$standard_base@DV?$stream_output_adapter@D@__crt_stdio_output@@@2@@__crt_stdio_output@@QEAA@XZ 000000018006dc50 f i libucrtd:output.obj
 0001:0006cc70       ??1?$output_processor@DV?$string_output_adapter@D@__crt_stdio_output@@V?$format_validation_base@DV?$string_output_adapter@D@__crt_stdio_output@@@2@@__crt_stdio_output@@QEAA@XZ 000000018006dc70 f i libucrtd:output.obj
 0001:0006cc90       ??1?$output_processor@DV?$string_output_adapter@D@__crt_stdio_output@@V?$positional_parameter_base@DV?$string_output_adapter@D@__crt_stdio_output@@@2@@__crt_stdio_output@@QEAA@XZ 000000018006dc90 f i libucrtd:output.obj
 0001:0006ccb0       ??1?$output_processor@DV?$string_output_adapter@D@__crt_stdio_output@@V?$standard_base@DV?$string_output_adapter@D@__crt_stdio_output@@@2@@__crt_stdio_output@@QEAA@XZ 000000018006dcb0 f i libucrtd:output.obj
 0001:0006ccd0       ??1?$output_processor@_WV?$stream_output_adapter@_W@__crt_stdio_output@@V?$format_validation_base@_WV?$stream_output_adapter@_W@__crt_stdio_output@@@2@@__crt_stdio_output@@QEAA@XZ 000000018006dcd0 f i libucrtd:output.obj
 0001:0006ccf0       ??1?$output_processor@_WV?$stream_output_adapter@_W@__crt_stdio_output@@V?$positional_parameter_base@_WV?$stream_output_adapter@_W@__crt_stdio_output@@@2@@__crt_stdio_output@@QEAA@XZ 000000018006dcf0 f i libucrtd:output.obj
 0001:0006cd10       ??1?$output_processor@_WV?$stream_output_adapter@_W@__crt_stdio_output@@V?$standard_base@_WV?$stream_output_adapter@_W@__crt_stdio_output@@@2@@__crt_stdio_output@@QEAA@XZ 000000018006dd10 f i libucrtd:output.obj
 0001:0006cd30       ??1?$output_processor@_WV?$string_output_adapter@_W@__crt_stdio_output@@V?$format_validation_base@_WV?$string_output_adapter@_W@__crt_stdio_output@@@2@@__crt_stdio_output@@QEAA@XZ 000000018006dd30 f i libucrtd:output.obj
 0001:0006cd50       ??1?$output_processor@_WV?$string_output_adapter@_W@__crt_stdio_output@@V?$positional_parameter_base@_WV?$string_output_adapter@_W@__crt_stdio_output@@@2@@__crt_stdio_output@@QEAA@XZ 000000018006dd50 f i libucrtd:output.obj
 0001:0006cd70       ??1?$output_processor@_WV?$string_output_adapter@_W@__crt_stdio_output@@V?$standard_base@_WV?$string_output_adapter@_W@__crt_stdio_output@@@2@@__crt_stdio_output@@QEAA@XZ 000000018006dd70 f i libucrtd:output.obj
 0001:0006cd90       ??1?$positional_parameter_base@DV?$stream_output_adapter@D@__crt_stdio_output@@@__crt_stdio_output@@QEAA@XZ 000000018006dd90 f i libucrtd:output.obj
 0001:0006cdb0       ??1?$positional_parameter_base@DV?$string_output_adapter@D@__crt_stdio_output@@@__crt_stdio_output@@QEAA@XZ 000000018006ddb0 f i libucrtd:output.obj
 0001:0006cdd0       ??1?$positional_parameter_base@_WV?$stream_output_adapter@_W@__crt_stdio_output@@@__crt_stdio_output@@QEAA@XZ 000000018006ddd0 f i libucrtd:output.obj
 0001:0006cdf0       ??1?$positional_parameter_base@_WV?$string_output_adapter@_W@__crt_stdio_output@@@__crt_stdio_output@@QEAA@XZ 000000018006ddf0 f i libucrtd:output.obj
 0001:0006ce10       ??1?$standard_base@DV?$stream_output_adapter@D@__crt_stdio_output@@@__crt_stdio_output@@QEAA@XZ 000000018006de10 f i libucrtd:output.obj
 0001:0006ce30       ??1?$standard_base@DV?$string_output_adapter@D@__crt_stdio_output@@@__crt_stdio_output@@QEAA@XZ 000000018006de30 f i libucrtd:output.obj
 0001:0006ce50       ??1?$standard_base@_WV?$stream_output_adapter@_W@__crt_stdio_output@@@__crt_stdio_output@@QEAA@XZ 000000018006de50 f i libucrtd:output.obj
 0001:0006ce70       ??1?$standard_base@_WV?$string_output_adapter@_W@__crt_stdio_output@@@__crt_stdio_output@@QEAA@XZ 000000018006de70 f i libucrtd:output.obj
 0001:0006ce90       ??1__acrt_stdio_temporary_buffering_guard@@QEAA@XZ 000000018006de90 f i libucrtd:output.obj
 0001:0006cec0       ??1__crt_cached_ptd_host@@QEAA@XZ 000000018006dec0 f i libucrtd:output.obj
 0001:0006cf70       ??1__crt_scoped_get_last_error_reset@@QEAA@XZ 000000018006df70 f i libucrtd:output.obj
 0001:0006cf90       ??1formatting_buffer@__crt_stdio_output@@QEAA@XZ 000000018006df90 f i libucrtd:output.obj
 0001:0006cfc0       ??1guard@?$cached@H@__crt_cached_ptd_host@@QEAA@XZ 000000018006dfc0 f i libucrtd:output.obj
 0001:0006cff0       ??4?$__crt_unique_heap_ptr@DU__crt_internal_free_policy@@@@QEAAAEAV0@$$QEAV0@@Z 000000018006dff0 f i libucrtd:output.obj
 0001:0006d030       ??A?$spectre_mitigated_lookup_table@Ustate_transition_pair@__crt_stdio_output@@$0IA@@__crt_stdio_output@@QEBAAEBUstate_transition_pair@1@_K@Z 000000018006e030 f i libucrtd:output.obj
 0001:0006d050       ??C__crt_stdio_stream@@QEBAPEAU__crt_stdio_stream_data@@XZ 000000018006e050 f i libucrtd:output.obj
 0001:0006d8a0       ?__crt_interlocked_read_32@@YAHPEDH@Z 000000018006e8a0 f i libucrtd:output.obj
 0001:0006d8c0       ?adjust_hexit@?$output_processor@DV?$stream_output_adapter@D@__crt_stdio_output@@V?$format_validation_base@DV?$stream_output_adapter@D@__crt_stdio_output@@@2@@__crt_stdio_output@@CADH_N@Z 000000018006e8c0 f i libucrtd:output.obj
 0001:0006d910       ?adjust_hexit@?$output_processor@DV?$stream_output_adapter@D@__crt_stdio_output@@V?$positional_parameter_base@DV?$stream_output_adapter@D@__crt_stdio_output@@@2@@__crt_stdio_output@@CADH_N@Z 000000018006e910 f i libucrtd:output.obj
 0001:0006d960       ?adjust_hexit@?$output_processor@DV?$stream_output_adapter@D@__crt_stdio_output@@V?$standard_base@DV?$stream_output_adapter@D@__crt_stdio_output@@@2@@__crt_stdio_output@@CADH_N@Z 000000018006e960 f i libucrtd:output.obj
 0001:0006d9b0       ?adjust_hexit@?$output_processor@DV?$string_output_adapter@D@__crt_stdio_output@@V?$format_validation_base@DV?$string_output_adapter@D@__crt_stdio_output@@@2@@__crt_stdio_output@@CADH_N@Z 000000018006e9b0 f i libucrtd:output.obj
 0001:0006da00       ?adjust_hexit@?$output_processor@DV?$string_output_adapter@D@__crt_stdio_output@@V?$positional_parameter_base@DV?$string_output_adapter@D@__crt_stdio_output@@@2@@__crt_stdio_output@@CADH_N@Z 000000018006ea00 f i libucrtd:output.obj
 0001:0006da50       ?adjust_hexit@?$output_processor@DV?$string_output_adapter@D@__crt_stdio_output@@V?$standard_base@DV?$string_output_adapter@D@__crt_stdio_output@@@2@@__crt_stdio_output@@CADH_N@Z 000000018006ea50 f i libucrtd:output.obj
 0001:0006daa0       ?adjust_hexit@?$output_processor@_WV?$stream_output_adapter@_W@__crt_stdio_output@@V?$format_validation_base@_WV?$stream_output_adapter@_W@__crt_stdio_output@@@2@@__crt_stdio_output@@CADH_N@Z 000000018006eaa0 f i libucrtd:output.obj
 0001:0006daf0       ?adjust_hexit@?$output_processor@_WV?$stream_output_adapter@_W@__crt_stdio_output@@V?$positional_parameter_base@_WV?$stream_output_adapter@_W@__crt_stdio_output@@@2@@__crt_stdio_output@@CADH_N@Z 000000018006eaf0 f i libucrtd:output.obj
 0001:0006db40       ?adjust_hexit@?$output_processor@_WV?$stream_output_adapter@_W@__crt_stdio_output@@V?$standard_base@_WV?$stream_output_adapter@_W@__crt_stdio_output@@@2@@__crt_stdio_output@@CADH_N@Z 000000018006eb40 f i libucrtd:output.obj
 0001:0006db90       ?adjust_hexit@?$output_processor@_WV?$string_output_adapter@_W@__crt_stdio_output@@V?$format_validation_base@_WV?$string_output_adapter@_W@__crt_stdio_output@@@2@@__crt_stdio_output@@CADH_N@Z 000000018006eb90 f i libucrtd:output.obj
 0001:0006dbe0       ?adjust_hexit@?$output_processor@_WV?$string_output_adapter@_W@__crt_stdio_output@@V?$positional_parameter_base@_WV?$string_output_adapter@_W@__crt_stdio_output@@@2@@__crt_stdio_output@@CADH_N@Z 000000018006ebe0 f i libucrtd:output.obj
 0001:0006dc30       ?adjust_hexit@?$output_processor@_WV?$string_output_adapter@_W@__crt_stdio_output@@V?$standard_base@_WV?$string_output_adapter@_W@__crt_stdio_output@@@2@@__crt_stdio_output@@CADH_N@Z 000000018006ec30 f i libucrtd:output.obj
 0001:0006dc80       ?advance_to_next_pass@?$positional_parameter_base@DV?$stream_output_adapter@D@__crt_stdio_output@@@__crt_stdio_output@@IEAA_NXZ 000000018006ec80 f i libucrtd:output.obj
 0001:0006dd30       ?advance_to_next_pass@?$positional_parameter_base@DV?$string_output_adapter@D@__crt_stdio_output@@@__crt_stdio_output@@IEAA_NXZ 000000018006ed30 f i libucrtd:output.obj
 0001:0006dde0       ?advance_to_next_pass@?$positional_parameter_base@_WV?$stream_output_adapter@_W@__crt_stdio_output@@@__crt_stdio_output@@IEAA_NXZ 000000018006ede0 f i libucrtd:output.obj
 0001:0006de90       ?advance_to_next_pass@?$positional_parameter_base@_WV?$string_output_adapter@_W@__crt_stdio_output@@@__crt_stdio_output@@IEAA_NXZ 000000018006ee90 f i libucrtd:output.obj
 0001:0006df40       ?advance_to_next_pass@?$standard_base@DV?$stream_output_adapter@D@__crt_stdio_output@@@__crt_stdio_output@@IEAA_NXZ 000000018006ef40 f i libucrtd:output.obj
 0001:0006df90       ?advance_to_next_pass@?$standard_base@DV?$string_output_adapter@D@__crt_stdio_output@@@__crt_stdio_output@@IEAA_NXZ 000000018006ef90 f i libucrtd:output.obj
 0001:0006dfe0       ?advance_to_next_pass@?$standard_base@_WV?$stream_output_adapter@_W@__crt_stdio_output@@@__crt_stdio_output@@IEAA_NXZ 000000018006efe0 f i libucrtd:output.obj
 0001:0006e030       ?advance_to_next_pass@?$standard_base@_WV?$string_output_adapter@_W@__crt_stdio_output@@@__crt_stdio_output@@IEAA_NXZ 000000018006f030 f i libucrtd:output.obj
 0001:0006e080       ?check@?$cached@H@__crt_cached_ptd_host@@QEBA_NH@Z 000000018006f080 f i libucrtd:output.obj
 0001:0006e0c0       ?check_synchronize_global_state_index@__crt_cached_ptd_host@@AEAA_KAEBV__crt_scoped_get_last_error_reset@@@Z 000000018006f0c0 f i libucrtd:output.obj
 0001:0006e100       ?check_synchronize_per_thread_data@__crt_cached_ptd_host@@AEAAPEAU__acrt_ptd@@XZ 000000018006f100 f i libucrtd:output.obj
 0001:0006e140       ?create_guard@?$cached@H@__crt_cached_ptd_host@@QEAA?AVguard@12@XZ 000000018006f140 f i libucrtd:output.obj
 0001:0006e170       ?crop_zeroes@__crt_stdio_output@@YAXPEADQEAU__crt_locale_pointers@@@Z 000000018006f170 f i libucrtd:output.obj
 0001:0006e2c0       ?disable@guard@?$cached@H@__crt_cached_ptd_host@@QEAAXXZ 000000018006f2c0 f i libucrtd:output.obj
 0001:0006e2d0       ?enable@guard@?$cached@H@__crt_cached_ptd_host@@QEAAXXZ 000000018006f2d0 f i libucrtd:output.obj
 0001:0006e2e0       ?find_next_state@?$output_processor@DV?$stream_output_adapter@D@__crt_stdio_output@@V?$format_validation_base@DV?$stream_output_adapter@D@__crt_stdio_output@@@2@@__crt_stdio_output@@AEBA?AW4state@2@DW432@@Z 000000018006f2e0 f i libucrtd:output.obj
 0001:0006e380       ?find_next_state@?$output_processor@DV?$stream_output_adapter@D@__crt_stdio_output@@V?$positional_parameter_base@DV?$stream_output_adapter@D@__crt_stdio_output@@@2@@__crt_stdio_output@@AEBA?AW4state@2@DW432@@Z 000000018006f380 f i libucrtd:output.obj
 0001:0006e420       ?find_next_state@?$output_processor@DV?$stream_output_adapter@D@__crt_stdio_output@@V?$standard_base@DV?$stream_output_adapter@D@__crt_stdio_output@@@2@@__crt_stdio_output@@AEBA?AW4state@2@DW432@@Z 000000018006f420 f i libucrtd:output.obj
 0001:0006e4c0       ?find_next_state@?$output_processor@DV?$string_output_adapter@D@__crt_stdio_output@@V?$format_validation_base@DV?$string_output_adapter@D@__crt_stdio_output@@@2@@__crt_stdio_output@@AEBA?AW4state@2@DW432@@Z 000000018006f4c0 f i libucrtd:output.obj
 0001:0006e560       ?find_next_state@?$output_processor@DV?$string_output_adapter@D@__crt_stdio_output@@V?$positional_parameter_base@DV?$string_output_adapter@D@__crt_stdio_output@@@2@@__crt_stdio_output@@AEBA?AW4state@2@DW432@@Z 000000018006f560 f i libucrtd:output.obj
 0001:0006e600       ?find_next_state@?$output_processor@DV?$string_output_adapter@D@__crt_stdio_output@@V?$standard_base@DV?$string_output_adapter@D@__crt_stdio_output@@@2@@__crt_stdio_output@@AEBA?AW4state@2@DW432@@Z 000000018006f600 f i libucrtd:output.obj
 0001:0006e6a0       ?find_next_state@?$output_processor@_WV?$stream_output_adapter@_W@__crt_stdio_output@@V?$format_validation_base@_WV?$stream_output_adapter@_W@__crt_stdio_output@@@2@@__crt_stdio_output@@AEBA?AW4state@2@_WW432@@Z 000000018006f6a0 f i libucrtd:output.obj
 0001:0006e740       ?find_next_state@?$output_processor@_WV?$stream_output_adapter@_W@__crt_stdio_output@@V?$positional_parameter_base@_WV?$stream_output_adapter@_W@__crt_stdio_output@@@2@@__crt_stdio_output@@AEBA?AW4state@2@_WW432@@Z 000000018006f740 f i libucrtd:output.obj
 0001:0006e7e0       ?find_next_state@?$output_processor@_WV?$stream_output_adapter@_W@__crt_stdio_output@@V?$standard_base@_WV?$stream_output_adapter@_W@__crt_stdio_output@@@2@@__crt_stdio_output@@AEBA?AW4state@2@_WW432@@Z 000000018006f7e0 f i libucrtd:output.obj
 0001:0006e880       ?find_next_state@?$output_processor@_WV?$string_output_adapter@_W@__crt_stdio_output@@V?$format_validation_base@_WV?$string_output_adapter@_W@__crt_stdio_output@@@2@@__crt_stdio_output@@AEBA?AW4state@2@_WW432@@Z 000000018006f880 f i libucrtd:output.obj
 0001:0006e920       ?find_next_state@?$output_processor@_WV?$string_output_adapter@_W@__crt_stdio_output@@V?$positional_parameter_base@_WV?$string_output_adapter@_W@__crt_stdio_output@@@2@@__crt_stdio_output@@AEBA?AW4state@2@_WW432@@Z 000000018006f920 f i libucrtd:output.obj
 0001:0006e9c0       ?find_next_state@?$output_processor@_WV?$string_output_adapter@_W@__crt_stdio_output@@V?$standard_base@_WV?$string_output_adapter@_W@__crt_stdio_output@@@2@@__crt_stdio_output@@AEBA?AW4state@2@_WW432@@Z 000000018006f9c0 f i libucrtd:output.obj
 0001:0006ea60       ?force_decimal_point@__crt_stdio_output@@YAXPEADQEAU__crt_locale_pointers@@@Z 000000018006fa60 f i libucrtd:output.obj
 0001:0006eb60       ?force_synchronize_global_state_index@__crt_cached_ptd_host@@AEAA_KAEBV__crt_scoped_get_last_error_reset@@@Z 000000018006fb60 f i libucrtd:output.obj
 0001:0006eba0       ?force_synchronize_per_thread_data@__crt_cached_ptd_host@@AEAAPEAU__acrt_ptd@@XZ 000000018006fba0 f i libucrtd:output.obj
 0001:0006ec00       ?get@?$c_string_character_source@D@__crt_strtox@@QEAADXZ 000000018006fc00 f i libucrtd:output.obj
 0001:0006ec40       ?get@?$c_string_character_source@_W@__crt_strtox@@QEAA_WXZ 000000018006fc40 f i libucrtd:output.obj
 0001:0006ec80       ?get_current_state_index@__crt_state_management@@YA_KAEBV__crt_scoped_get_last_error_reset@@@Z 000000018006fc80 f i libucrtd:output.obj
 0001:0006ec90       ?get_errno@__crt_cached_ptd_host@@QEAAAEAU?$cached@H@1@XZ 000000018006fc90 f i libucrtd:output.obj
 0001:0006eca0       ?get_flags@__crt_stdio_stream@@QEBAJXZ 000000018006fca0 f i libucrtd:output.obj
 0001:0006ecd0       ?get_locale@__crt_cached_ptd_host@@QEAAPEAU__crt_locale_pointers@@XZ 000000018006fcd0 f i libucrtd:output.obj
 0001:0006ed00       ?get_parameter_type@?$positional_parameter_base@DV?$stream_output_adapter@D@__crt_stdio_output@@@__crt_stdio_output@@CA?AW4parameter_type@12@F@Z 000000018006fd00 f i libucrtd:output.obj
 0001:0006ed10       ?get_parameter_type@?$positional_parameter_base@DV?$stream_output_adapter@D@__crt_stdio_output@@@__crt_stdio_output@@CA?AW4parameter_type@12@G@Z 000000018006fd10 f i libucrtd:output.obj
 0001:0006ed20       ?get_parameter_type@?$positional_parameter_base@DV?$stream_output_adapter@D@__crt_stdio_output@@@__crt_stdio_output@@CA?AW4parameter_type@12@H@Z 000000018006fd20 f i libucrtd:output.obj
 0001:0006ed30       ?get_parameter_type@?$positional_parameter_base@DV?$stream_output_adapter@D@__crt_stdio_output@@@__crt_stdio_output@@CA?AW4parameter_type@12@I@Z 000000018006fd30 f i libucrtd:output.obj
 0001:0006ed40       ?get_parameter_type@?$positional_parameter_base@DV?$stream_output_adapter@D@__crt_stdio_output@@@__crt_stdio_output@@CA?AW4parameter_type@12@U_CRT_DOUBLE@@@Z 000000018006fd40 f i libucrtd:output.obj
 0001:0006ed50       ?get_parameter_type@?$positional_parameter_base@DV?$stream_output_adapter@D@__crt_stdio_output@@@__crt_stdio_output@@CA?AW4parameter_type@12@_J@Z 000000018006fd50 f i libucrtd:output.obj
 0001:0006ed60       ?get_parameter_type@?$positional_parameter_base@DV?$stream_output_adapter@D@__crt_stdio_output@@@__crt_stdio_output@@CA?AW4parameter_type@12@_K@Z 000000018006fd60 f i libucrtd:output.obj
 0001:0006ed70       ?get_parameter_type@?$positional_parameter_base@DV?$stream_output_adapter@D@__crt_stdio_output@@@__crt_stdio_output@@CA?AW4parameter_type@12@_W@Z 000000018006fd70 f i libucrtd:output.obj
 0001:0006ed80       ?get_parameter_type@?$positional_parameter_base@DV?$string_output_adapter@D@__crt_stdio_output@@@__crt_stdio_output@@CA?AW4parameter_type@12@F@Z 000000018006fd80 f i libucrtd:output.obj
 0001:0006ed90       ?get_parameter_type@?$positional_parameter_base@DV?$string_output_adapter@D@__crt_stdio_output@@@__crt_stdio_output@@CA?AW4parameter_type@12@G@Z 000000018006fd90 f i libucrtd:output.obj
 0001:0006eda0       ?get_parameter_type@?$positional_parameter_base@DV?$string_output_adapter@D@__crt_stdio_output@@@__crt_stdio_output@@CA?AW4parameter_type@12@H@Z 000000018006fda0 f i libucrtd:output.obj
 0001:0006edb0       ?get_parameter_type@?$positional_parameter_base@DV?$string_output_adapter@D@__crt_stdio_output@@@__crt_stdio_output@@CA?AW4parameter_type@12@I@Z 000000018006fdb0 f i libucrtd:output.obj
 0001:0006edc0       ?get_parameter_type@?$positional_parameter_base@DV?$string_output_adapter@D@__crt_stdio_output@@@__crt_stdio_output@@CA?AW4parameter_type@12@U_CRT_DOUBLE@@@Z 000000018006fdc0 f i libucrtd:output.obj
 0001:0006edd0       ?get_parameter_type@?$positional_parameter_base@DV?$string_output_adapter@D@__crt_stdio_output@@@__crt_stdio_output@@CA?AW4parameter_type@12@_J@Z 000000018006fdd0 f i libucrtd:output.obj
 0001:0006ede0       ?get_parameter_type@?$positional_parameter_base@DV?$string_output_adapter@D@__crt_stdio_output@@@__crt_stdio_output@@CA?AW4parameter_type@12@_K@Z 000000018006fde0 f i libucrtd:output.obj
 0001:0006edf0       ?get_parameter_type@?$positional_parameter_base@DV?$string_output_adapter@D@__crt_stdio_output@@@__crt_stdio_output@@CA?AW4parameter_type@12@_W@Z 000000018006fdf0 f i libucrtd:output.obj
 0001:0006ee00       ?get_parameter_type@?$positional_parameter_base@_WV?$stream_output_adapter@_W@__crt_stdio_output@@@__crt_stdio_output@@CA?AW4parameter_type@12@F@Z 000000018006fe00 f i libucrtd:output.obj
 0001:0006ee10       ?get_parameter_type@?$positional_parameter_base@_WV?$stream_output_adapter@_W@__crt_stdio_output@@@__crt_stdio_output@@CA?AW4parameter_type@12@G@Z 000000018006fe10 f i libucrtd:output.obj
 0001:0006ee20       ?get_parameter_type@?$positional_parameter_base@_WV?$stream_output_adapter@_W@__crt_stdio_output@@@__crt_stdio_output@@CA?AW4parameter_type@12@H@Z 000000018006fe20 f i libucrtd:output.obj
 0001:0006ee30       ?get_parameter_type@?$positional_parameter_base@_WV?$stream_output_adapter@_W@__crt_stdio_output@@@__crt_stdio_output@@CA?AW4parameter_type@12@I@Z 000000018006fe30 f i libucrtd:output.obj
 0001:0006ee40       ?get_parameter_type@?$positional_parameter_base@_WV?$stream_output_adapter@_W@__crt_stdio_output@@@__crt_stdio_output@@CA?AW4parameter_type@12@U_CRT_DOUBLE@@@Z 000000018006fe40 f i libucrtd:output.obj
 0001:0006ee50       ?get_parameter_type@?$positional_parameter_base@_WV?$stream_output_adapter@_W@__crt_stdio_output@@@__crt_stdio_output@@CA?AW4parameter_type@12@_J@Z 000000018006fe50 f i libucrtd:output.obj
 0001:0006ee60       ?get_parameter_type@?$positional_parameter_base@_WV?$stream_output_adapter@_W@__crt_stdio_output@@@__crt_stdio_output@@CA?AW4parameter_type@12@_K@Z 000000018006fe60 f i libucrtd:output.obj
 0001:0006ee70       ?get_parameter_type@?$positional_parameter_base@_WV?$stream_output_adapter@_W@__crt_stdio_output@@@__crt_stdio_output@@CA?AW4parameter_type@12@_W@Z 000000018006fe70 f i libucrtd:output.obj
 0001:0006ee80       ?get_parameter_type@?$positional_parameter_base@_WV?$string_output_adapter@_W@__crt_stdio_output@@@__crt_stdio_output@@CA?AW4parameter_type@12@F@Z 000000018006fe80 f i libucrtd:output.obj
 0001:0006ee90       ?get_parameter_type@?$positional_parameter_base@_WV?$string_output_adapter@_W@__crt_stdio_output@@@__crt_stdio_output@@CA?AW4parameter_type@12@G@Z 000000018006fe90 f i libucrtd:output.obj
 0001:0006eea0       ?get_parameter_type@?$positional_parameter_base@_WV?$string_output_adapter@_W@__crt_stdio_output@@@__crt_stdio_output@@CA?AW4parameter_type@12@H@Z 000000018006fea0 f i libucrtd:output.obj
 0001:0006eeb0       ?get_parameter_type@?$positional_parameter_base@_WV?$string_output_adapter@_W@__crt_stdio_output@@@__crt_stdio_output@@CA?AW4parameter_type@12@I@Z 000000018006feb0 f i libucrtd:output.obj
 0001:0006eec0       ?get_parameter_type@?$positional_parameter_base@_WV?$string_output_adapter@_W@__crt_stdio_output@@@__crt_stdio_output@@CA?AW4parameter_type@12@U_CRT_DOUBLE@@@Z 000000018006fec0 f i libucrtd:output.obj
 0001:0006eed0       ?get_parameter_type@?$positional_parameter_base@_WV?$string_output_adapter@_W@__crt_stdio_output@@@__crt_stdio_output@@CA?AW4parameter_type@12@_J@Z 000000018006fed0 f i libucrtd:output.obj
 0001:0006eee0       ?get_parameter_type@?$positional_parameter_base@_WV?$string_output_adapter@_W@__crt_stdio_output@@@__crt_stdio_output@@CA?AW4parameter_type@12@_K@Z 000000018006fee0 f i libucrtd:output.obj
 0001:0006eef0       ?get_parameter_type@?$positional_parameter_base@_WV?$string_output_adapter@_W@__crt_stdio_output@@@__crt_stdio_output@@CA?AW4parameter_type@12@_W@Z 000000018006fef0 f i libucrtd:output.obj
 0001:0006ef00       ?get_raw_ptd@__crt_cached_ptd_host@@QEAAPEAU__acrt_ptd@@XZ 000000018006ff00 f i libucrtd:output.obj
 0001:0006ef20       ?has_flag@?$output_processor@DV?$stream_output_adapter@D@__crt_stdio_output@@V?$format_validation_base@DV?$stream_output_adapter@D@__crt_stdio_output@@@2@@__crt_stdio_output@@AEBA_NI@Z 000000018006ff20 f i libucrtd:output.obj
 0001:0006ef60       ?has_flag@?$output_processor@DV?$stream_output_adapter@D@__crt_stdio_output@@V?$positional_parameter_base@DV?$stream_output_adapter@D@__crt_stdio_output@@@2@@__crt_stdio_output@@AEBA_NI@Z 000000018006ff60 f i libucrtd:output.obj
 0001:0006efa0       ?has_flag@?$output_processor@DV?$stream_output_adapter@D@__crt_stdio_output@@V?$standard_base@DV?$stream_output_adapter@D@__crt_stdio_output@@@2@@__crt_stdio_output@@AEBA_NI@Z 000000018006ffa0 f i libucrtd:output.obj
 0001:0006efe0       ?has_flag@?$output_processor@DV?$string_output_adapter@D@__crt_stdio_output@@V?$format_validation_base@DV?$string_output_adapter@D@__crt_stdio_output@@@2@@__crt_stdio_output@@AEBA_NI@Z 000000018006ffe0 f i libucrtd:output.obj
 0001:0006f020       ?has_flag@?$output_processor@DV?$string_output_adapter@D@__crt_stdio_output@@V?$positional_parameter_base@DV?$string_output_adapter@D@__crt_stdio_output@@@2@@__crt_stdio_output@@AEBA_NI@Z 0000000180070020 f i libucrtd:output.obj
 0001:0006f060       ?has_flag@?$output_processor@DV?$string_output_adapter@D@__crt_stdio_output@@V?$standard_base@DV?$string_output_adapter@D@__crt_stdio_output@@@2@@__crt_stdio_output@@AEBA_NI@Z 0000000180070060 f i libucrtd:output.obj
 0001:0006f0a0       ?has_flag@?$output_processor@_WV?$stream_output_adapter@_W@__crt_stdio_output@@V?$format_validation_base@_WV?$stream_output_adapter@_W@__crt_stdio_output@@@2@@__crt_stdio_output@@AEBA_NI@Z 00000001800700a0 f i libucrtd:output.obj
 0001:0006f0e0       ?has_flag@?$output_processor@_WV?$stream_output_adapter@_W@__crt_stdio_output@@V?$positional_parameter_base@_WV?$stream_output_adapter@_W@__crt_stdio_output@@@2@@__crt_stdio_output@@AEBA_NI@Z 00000001800700e0 f i libucrtd:output.obj
 0001:0006f120       ?has_flag@?$output_processor@_WV?$stream_output_adapter@_W@__crt_stdio_output@@V?$standard_base@_WV?$stream_output_adapter@_W@__crt_stdio_output@@@2@@__crt_stdio_output@@AEBA_NI@Z 0000000180070120 f i libucrtd:output.obj
 0001:0006f160       ?has_flag@?$output_processor@_WV?$string_output_adapter@_W@__crt_stdio_output@@V?$format_validation_base@_WV?$string_output_adapter@_W@__crt_stdio_output@@@2@@__crt_stdio_output@@AEBA_NI@Z 0000000180070160 f i libucrtd:output.obj
 0001:0006f1a0       ?has_flag@?$output_processor@_WV?$string_output_adapter@_W@__crt_stdio_output@@V?$positional_parameter_base@_WV?$string_output_adapter@_W@__crt_stdio_output@@@2@@__crt_stdio_output@@AEBA_NI@Z 00000001800701a0 f i libucrtd:output.obj
 0001:0006f1e0       ?has_flag@?$output_processor@_WV?$string_output_adapter@_W@__crt_stdio_output@@V?$standard_base@_WV?$string_output_adapter@_W@__crt_stdio_output@@@2@@__crt_stdio_output@@AEBA_NI@Z 00000001800701e0 f i libucrtd:output.obj
 0001:0006f220       ?is_positional_parameter_reappearance_consistent@?$positional_parameter_base@DV?$stream_output_adapter@D@__crt_stdio_output@@@__crt_stdio_output@@AEAA_NAEBUparameter_data@12@W4parameter_type@12@DW4length_modifier@2@@Z 0000000180070220 f i libucrtd:output.obj
 0001:0006f480       ?is_positional_parameter_reappearance_consistent@?$positional_parameter_base@DV?$string_output_adapter@D@__crt_stdio_output@@@__crt_stdio_output@@AEAA_NAEBUparameter_data@12@W4parameter_type@12@DW4length_modifier@2@@Z 0000000180070480 f i libucrtd:output.obj
 0001:0006f6e0       ?is_positional_parameter_reappearance_consistent@?$positional_parameter_base@_WV?$stream_output_adapter@_W@__crt_stdio_output@@@__crt_stdio_output@@AEAA_NAEBUparameter_data@12@W4parameter_type@12@_WW4length_modifier@2@@Z 00000001800706e0 f i libucrtd:output.obj
 0001:0006f940       ?is_positional_parameter_reappearance_consistent@?$positional_parameter_base@_WV?$string_output_adapter@_W@__crt_stdio_output@@@__crt_stdio_output@@AEAA_NAEBUparameter_data@12@W4parameter_type@12@_WW4length_modifier@2@@Z 0000000180070940 f i libucrtd:output.obj
 0001:0006fba0       ?is_string_backed@__crt_stdio_stream@@QEBA_NXZ 0000000180070ba0 f i libucrtd:output.obj
 0001:0006fbe0       ?maximum_signed_value@__crt_strtox@@YAJK@Z 0000000180070be0 f i libucrtd:output.obj
 0001:0006fbf0       ?minimum_signed_value@__crt_strtox@@YAJK@Z 0000000180070bf0 f i libucrtd:output.obj
 0001:0006fc00       ?narrow_null_string@?$output_processor@DV?$stream_output_adapter@D@__crt_stdio_output@@V?$format_validation_base@DV?$stream_output_adapter@D@__crt_stdio_output@@@2@@__crt_stdio_output@@CAPEADXZ 0000000180070c00 f i libucrtd:output.obj
 0001:0006fc10       ?narrow_null_string@?$output_processor@DV?$stream_output_adapter@D@__crt_stdio_output@@V?$positional_parameter_base@DV?$stream_output_adapter@D@__crt_stdio_output@@@2@@__crt_stdio_output@@CAPEADXZ 0000000180070c10 f i libucrtd:output.obj
 0001:0006fc20       ?narrow_null_string@?$output_processor@DV?$stream_output_adapter@D@__crt_stdio_output@@V?$standard_base@DV?$stream_output_adapter@D@__crt_stdio_output@@@2@@__crt_stdio_output@@CAPEADXZ 0000000180070c20 f i libucrtd:output.obj
 0001:0006fc30       ?narrow_null_string@?$output_processor@DV?$string_output_adapter@D@__crt_stdio_output@@V?$format_validation_base@DV?$string_output_adapter@D@__crt_stdio_output@@@2@@__crt_stdio_output@@CAPEADXZ 0000000180070c30 f i libucrtd:output.obj
 0001:0006fc40       ?narrow_null_string@?$output_processor@DV?$string_output_adapter@D@__crt_stdio_output@@V?$positional_parameter_base@DV?$string_output_adapter@D@__crt_stdio_output@@@2@@__crt_stdio_output@@CAPEADXZ 0000000180070c40 f i libucrtd:output.obj
 0001:0006fc50       ?narrow_null_string@?$output_processor@DV?$string_output_adapter@D@__crt_stdio_output@@V?$standard_base@DV?$string_output_adapter@D@__crt_stdio_output@@@2@@__crt_stdio_output@@CAPEADXZ 0000000180070c50 f i libucrtd:output.obj
 0001:0006fc60       ?narrow_null_string@?$output_processor@_WV?$stream_output_adapter@_W@__crt_stdio_output@@V?$format_validation_base@_WV?$stream_output_adapter@_W@__crt_stdio_output@@@2@@__crt_stdio_output@@CAPEADXZ 0000000180070c60 f i libucrtd:output.obj
 0001:0006fc70       ?narrow_null_string@?$output_processor@_WV?$stream_output_adapter@_W@__crt_stdio_output@@V?$positional_parameter_base@_WV?$stream_output_adapter@_W@__crt_stdio_output@@@2@@__crt_stdio_output@@CAPEADXZ 0000000180070c70 f i libucrtd:output.obj
 0001:0006fc80       ?narrow_null_string@?$output_processor@_WV?$stream_output_adapter@_W@__crt_stdio_output@@V?$standard_base@_WV?$stream_output_adapter@_W@__crt_stdio_output@@@2@@__crt_stdio_output@@CAPEADXZ 0000000180070c80 f i libucrtd:output.obj
 0001:0006fc90       ?narrow_null_string@?$output_processor@_WV?$string_output_adapter@_W@__crt_stdio_output@@V?$format_validation_base@_WV?$string_output_adapter@_W@__crt_stdio_output@@@2@@__crt_stdio_output@@CAPEADXZ 0000000180070c90 f i libucrtd:output.obj
 0001:0006fca0       ?narrow_null_string@?$output_processor@_WV?$string_output_adapter@_W@__crt_stdio_output@@V?$positional_parameter_base@_WV?$string_output_adapter@_W@__crt_stdio_output@@@2@@__crt_stdio_output@@CAPEADXZ 0000000180070ca0 f i libucrtd:output.obj
 0001:0006fcb0       ?narrow_null_string@?$output_processor@_WV?$string_output_adapter@_W@__crt_stdio_output@@V?$standard_base@_WV?$string_output_adapter@_W@__crt_stdio_output@@@2@@__crt_stdio_output@@CAPEADXZ 0000000180070cb0 f i libucrtd:output.obj
 0001:0006fcc0       ?parse_digit@__crt_strtox@@YAID@Z 0000000180070cc0 f i libucrtd:output.obj
 0001:0006fd30       ?parse_digit@__crt_strtox@@YAI_W@Z 0000000180070d30 f i libucrtd:output.obj
 0001:0006fd80       ?parse_int_from_format_string@?$output_processor@DV?$stream_output_adapter@D@__crt_stdio_output@@V?$format_validation_base@DV?$stream_output_adapter@D@__crt_stdio_output@@@2@@__crt_stdio_output@@AEAA_NQEAH@Z 0000000180070d80 f i libucrtd:output.obj
 0001:0006fe80       ?parse_int_from_format_string@?$output_processor@DV?$stream_output_adapter@D@__crt_stdio_output@@V?$positional_parameter_base@DV?$stream_output_adapter@D@__crt_stdio_output@@@2@@__crt_stdio_output@@AEAA_NQEAH@Z 0000000180070e80 f i libucrtd:output.obj
 0001:0006ff80       ?parse_int_from_format_string@?$output_processor@DV?$stream_output_adapter@D@__crt_stdio_output@@V?$standard_base@DV?$stream_output_adapter@D@__crt_stdio_output@@@2@@__crt_stdio_output@@AEAA_NQEAH@Z 0000000180070f80 f i libucrtd:output.obj
 0001:00070080       ?parse_int_from_format_string@?$output_processor@DV?$string_output_adapter@D@__crt_stdio_output@@V?$format_validation_base@DV?$string_output_adapter@D@__crt_stdio_output@@@2@@__crt_stdio_output@@AEAA_NQEAH@Z 0000000180071080 f i libucrtd:output.obj
 0001:00070180       ?parse_int_from_format_string@?$output_processor@DV?$string_output_adapter@D@__crt_stdio_output@@V?$positional_parameter_base@DV?$string_output_adapter@D@__crt_stdio_output@@@2@@__crt_stdio_output@@AEAA_NQEAH@Z 0000000180071180 f i libucrtd:output.obj
 0001:00070280       ?parse_int_from_format_string@?$output_processor@DV?$string_output_adapter@D@__crt_stdio_output@@V?$standard_base@DV?$string_output_adapter@D@__crt_stdio_output@@@2@@__crt_stdio_output@@AEAA_NQEAH@Z 0000000180071280 f i libucrtd:output.obj
 0001:00070380       ?parse_int_from_format_string@?$output_processor@_WV?$stream_output_adapter@_W@__crt_stdio_output@@V?$format_validation_base@_WV?$stream_output_adapter@_W@__crt_stdio_output@@@2@@__crt_stdio_output@@AEAA_NQEAH@Z 0000000180071380 f i libucrtd:output.obj
 0001:00070480       ?parse_int_from_format_string@?$output_processor@_WV?$stream_output_adapter@_W@__crt_stdio_output@@V?$positional_parameter_base@_WV?$stream_output_adapter@_W@__crt_stdio_output@@@2@@__crt_stdio_output@@AEAA_NQEAH@Z 0000000180071480 f i libucrtd:output.obj
 0001:00070580       ?parse_int_from_format_string@?$output_processor@_WV?$stream_output_adapter@_W@__crt_stdio_output@@V?$standard_base@_WV?$stream_output_adapter@_W@__crt_stdio_output@@@2@@__crt_stdio_output@@AEAA_NQEAH@Z 0000000180071580 f i libucrtd:output.obj
 0001:00070680       ?parse_int_from_format_string@?$output_processor@_WV?$string_output_adapter@_W@__crt_stdio_output@@V?$format_validation_base@_WV?$string_output_adapter@_W@__crt_stdio_output@@@2@@__crt_stdio_output@@AEAA_NQEAH@Z 0000000180071680 f i libucrtd:output.obj
 0001:00070780       ?parse_int_from_format_string@?$output_processor@_WV?$string_output_adapter@_W@__crt_stdio_output@@V?$positional_parameter_base@_WV?$string_output_adapter@_W@__crt_stdio_output@@@2@@__crt_stdio_output@@AEAA_NQEAH@Z 0000000180071780 f i libucrtd:output.obj
 0001:00070880       ?parse_int_from_format_string@?$output_processor@_WV?$string_output_adapter@_W@__crt_stdio_output@@V?$standard_base@_WV?$string_output_adapter@_W@__crt_stdio_output@@@2@@__crt_stdio_output@@AEAA_NQEAH@Z 0000000180071880 f i libucrtd:output.obj
 0001:00070980       ?process@?$output_processor@DV?$stream_output_adapter@D@__crt_stdio_output@@V?$format_validation_base@DV?$stream_output_adapter@D@__crt_stdio_output@@@2@@__crt_stdio_output@@QEAAHXZ 0000000180071980 f i libucrtd:output.obj
 0001:00070d40       ?process@?$output_processor@DV?$stream_output_adapter@D@__crt_stdio_output@@V?$positional_parameter_base@DV?$stream_output_adapter@D@__crt_stdio_output@@@2@@__crt_stdio_output@@QEAAHXZ 0000000180071d40 f i libucrtd:output.obj
 0001:00071100       ?process@?$output_processor@DV?$stream_output_adapter@D@__crt_stdio_output@@V?$standard_base@DV?$stream_output_adapter@D@__crt_stdio_output@@@2@@__crt_stdio_output@@QEAAHXZ 0000000180072100 f i libucrtd:output.obj
 0001:000714c0       ?process@?$output_processor@DV?$string_output_adapter@D@__crt_stdio_output@@V?$format_validation_base@DV?$string_output_adapter@D@__crt_stdio_output@@@2@@__crt_stdio_output@@QEAAHXZ 00000001800724c0 f i libucrtd:output.obj
 0001:00071880       ?process@?$output_processor@DV?$string_output_adapter@D@__crt_stdio_output@@V?$positional_parameter_base@DV?$string_output_adapter@D@__crt_stdio_output@@@2@@__crt_stdio_output@@QEAAHXZ 0000000180072880 f i libucrtd:output.obj
 0001:00071c40       ?process@?$output_processor@DV?$string_output_adapter@D@__crt_stdio_output@@V?$standard_base@DV?$string_output_adapter@D@__crt_stdio_output@@@2@@__crt_stdio_output@@QEAAHXZ 0000000180072c40 f i libucrtd:output.obj
 0001:00072000       ?process@?$output_processor@_WV?$stream_output_adapter@_W@__crt_stdio_output@@V?$format_validation_base@_WV?$stream_output_adapter@_W@__crt_stdio_output@@@2@@__crt_stdio_output@@QEAAHXZ 0000000180073000 f i libucrtd:output.obj
 0001:000723c0       ?process@?$output_processor@_WV?$stream_output_adapter@_W@__crt_stdio_output@@V?$positional_parameter_base@_WV?$stream_output_adapter@_W@__crt_stdio_output@@@2@@__crt_stdio_output@@QEAAHXZ 00000001800733c0 f i libucrtd:output.obj
 0001:00072780       ?process@?$output_processor@_WV?$stream_output_adapter@_W@__crt_stdio_output@@V?$standard_base@_WV?$stream_output_adapter@_W@__crt_stdio_output@@@2@@__crt_stdio_output@@QEAAHXZ 0000000180073780 f i libucrtd:output.obj
 0001:00072b40       ?process@?$output_processor@_WV?$string_output_adapter@_W@__crt_stdio_output@@V?$format_validation_base@_WV?$string_output_adapter@_W@__crt_stdio_output@@@2@@__crt_stdio_output@@QEAAHXZ 0000000180073b40 f i libucrtd:output.obj
 0001:00072f00       ?process@?$output_processor@_WV?$string_output_adapter@_W@__crt_stdio_output@@V?$positional_parameter_base@_WV?$string_output_adapter@_W@__crt_stdio_output@@@2@@__crt_stdio_output@@QEAAHXZ 0000000180073f00 f i libucrtd:output.obj
 0001:000732c0       ?process@?$output_processor@_WV?$string_output_adapter@_W@__crt_stdio_output@@V?$standard_base@_WV?$string_output_adapter@_W@__crt_stdio_output@@@2@@__crt_stdio_output@@QEAAHXZ 00000001800742c0 f i libucrtd:output.obj
 0001:00073680       ?public_stream@__crt_stdio_stream@@QEBAPEAU_iobuf@@XZ 0000000180074680 f i libucrtd:output.obj
 0001:00073690       ?restore_state@?$c_string_character_source@D@__crt_strtox@@QEAA_NQEBD@Z 0000000180074690 f i libucrtd:output.obj
 0001:000736b0       ?restore_state@?$c_string_character_source@_W@__crt_strtox@@QEAA_NQEB_W@Z 00000001800746b0 f i libucrtd:output.obj
 0001:000736d0       ?save_state@?$c_string_character_source@D@__crt_strtox@@QEBAPEBDXZ 00000001800746d0 f i libucrtd:output.obj
 0001:000736e0       ?save_state@?$c_string_character_source@_W@__crt_strtox@@QEBAPEB_WXZ 00000001800746e0 f i libucrtd:output.obj
 0001:000736f0       ?set@?$cached@H@__crt_cached_ptd_host@@QEAAHH@Z 00000001800746f0 f i libucrtd:output.obj
 0001:00073720       ?set_flag@?$output_processor@DV?$stream_output_adapter@D@__crt_stdio_output@@V?$format_validation_base@DV?$stream_output_adapter@D@__crt_stdio_output@@@2@@__crt_stdio_output@@AEAAXI@Z 0000000180074720 f i libucrtd:output.obj
 0001:00073740       ?set_flag@?$output_processor@DV?$stream_output_adapter@D@__crt_stdio_output@@V?$positional_parameter_base@DV?$stream_output_adapter@D@__crt_stdio_output@@@2@@__crt_stdio_output@@AEAAXI@Z 0000000180074740 f i libucrtd:output.obj
 0001:00073760       ?set_flag@?$output_processor@DV?$stream_output_adapter@D@__crt_stdio_output@@V?$standard_base@DV?$stream_output_adapter@D@__crt_stdio_output@@@2@@__crt_stdio_output@@AEAAXI@Z 0000000180074760 f i libucrtd:output.obj
 0001:00073780       ?set_flag@?$output_processor@DV?$string_output_adapter@D@__crt_stdio_output@@V?$format_validation_base@DV?$string_output_adapter@D@__crt_stdio_output@@@2@@__crt_stdio_output@@AEAAXI@Z 0000000180074780 f i libucrtd:output.obj
 0001:000737a0       ?set_flag@?$output_processor@DV?$string_output_adapter@D@__crt_stdio_output@@V?$positional_parameter_base@DV?$string_output_adapter@D@__crt_stdio_output@@@2@@__crt_stdio_output@@AEAAXI@Z 00000001800747a0 f i libucrtd:output.obj
 0001:000737c0       ?set_flag@?$output_processor@DV?$string_output_adapter@D@__crt_stdio_output@@V?$standard_base@DV?$string_output_adapter@D@__crt_stdio_output@@@2@@__crt_stdio_output@@AEAAXI@Z 00000001800747c0 f i libucrtd:output.obj
 0001:000737e0       ?set_flag@?$output_processor@_WV?$stream_output_adapter@_W@__crt_stdio_output@@V?$format_validation_base@_WV?$stream_output_adapter@_W@__crt_stdio_output@@@2@@__crt_stdio_output@@AEAAXI@Z 00000001800747e0 f i libucrtd:output.obj
 0001:00073800       ?set_flag@?$output_processor@_WV?$stream_output_adapter@_W@__crt_stdio_output@@V?$positional_parameter_base@_WV?$stream_output_adapter@_W@__crt_stdio_output@@@2@@__crt_stdio_output@@AEAAXI@Z 0000000180074800 f i libucrtd:output.obj
 0001:00073820       ?set_flag@?$output_processor@_WV?$stream_output_adapter@_W@__crt_stdio_output@@V?$standard_base@_WV?$stream_output_adapter@_W@__crt_stdio_output@@@2@@__crt_stdio_output@@AEAAXI@Z 0000000180074820 f i libucrtd:output.obj
 0001:00073840       ?set_flag@?$output_processor@_WV?$string_output_adapter@_W@__crt_stdio_output@@V?$format_validation_base@_WV?$string_output_adapter@_W@__crt_stdio_output@@@2@@__crt_stdio_output@@AEAAXI@Z 0000000180074840 f i libucrtd:output.obj
 0001:00073860       ?set_flag@?$output_processor@_WV?$string_output_adapter@_W@__crt_stdio_output@@V?$positional_parameter_base@_WV?$string_output_adapter@_W@__crt_stdio_output@@@2@@__crt_stdio_output@@AEAAXI@Z 0000000180074860 f i libucrtd:output.obj
 0001:00073880       ?set_flag@?$output_processor@_WV?$string_output_adapter@_W@__crt_stdio_output@@V?$standard_base@_WV?$string_output_adapter@_W@__crt_stdio_output@@@2@@__crt_stdio_output@@AEAAXI@Z 0000000180074880 f i libucrtd:output.obj
 0001:000738a0       ?should_format@?$positional_parameter_base@DV?$stream_output_adapter@D@__crt_stdio_output@@@__crt_stdio_output@@IEAA_NXZ 00000001800748a0 f i libucrtd:output.obj
 0001:000738e0       ?should_format@?$positional_parameter_base@DV?$string_output_adapter@D@__crt_stdio_output@@@__crt_stdio_output@@IEAA_NXZ 00000001800748e0 f i libucrtd:output.obj
 0001:00073920       ?should_format@?$positional_parameter_base@_WV?$stream_output_adapter@_W@__crt_stdio_output@@@__crt_stdio_output@@IEAA_NXZ 0000000180074920 f i libucrtd:output.obj
 0001:00073960       ?should_format@?$positional_parameter_base@_WV?$string_output_adapter@_W@__crt_stdio_output@@@__crt_stdio_output@@IEAA_NXZ 0000000180074960 f i libucrtd:output.obj
 0001:000739a0       ?should_format@?$standard_base@DV?$stream_output_adapter@D@__crt_stdio_output@@@__crt_stdio_output@@IEAA_NXZ 00000001800749a0 f i libucrtd:output.obj
 0001:000739b0       ?should_format@?$standard_base@DV?$string_output_adapter@D@__crt_stdio_output@@@__crt_stdio_output@@IEAA_NXZ 00000001800749b0 f i libucrtd:output.obj
 0001:000739c0       ?should_format@?$standard_base@_WV?$stream_output_adapter@_W@__crt_stdio_output@@@__crt_stdio_output@@IEAA_NXZ 00000001800749c0 f i libucrtd:output.obj
 0001:000739d0       ?should_format@?$standard_base@_WV?$string_output_adapter@_W@__crt_stdio_output@@@__crt_stdio_output@@IEAA_NXZ 00000001800749d0 f i libucrtd:output.obj
 0001:000739e0       ?should_skip_normal_state_processing@?$positional_parameter_base@DV?$stream_output_adapter@D@__crt_stdio_output@@@__crt_stdio_output@@IEAA_NXZ 00000001800749e0 f i libucrtd:output.obj
 0001:00073a30       ?should_skip_normal_state_processing@?$positional_parameter_base@DV?$string_output_adapter@D@__crt_stdio_output@@@__crt_stdio_output@@IEAA_NXZ 0000000180074a30 f i libucrtd:output.obj
 0001:00073a80       ?should_skip_normal_state_processing@?$positional_parameter_base@_WV?$stream_output_adapter@_W@__crt_stdio_output@@@__crt_stdio_output@@IEAA_NXZ 0000000180074a80 f i libucrtd:output.obj
 0001:00073ad0       ?should_skip_normal_state_processing@?$positional_parameter_base@_WV?$string_output_adapter@_W@__crt_stdio_output@@@__crt_stdio_output@@IEAA_NXZ 0000000180074ad0 f i libucrtd:output.obj
 0001:00073b20       ?should_skip_normal_state_processing@?$standard_base@DV?$stream_output_adapter@D@__crt_stdio_output@@@__crt_stdio_output@@IEAA_NXZ 0000000180074b20 f i libucrtd:output.obj
 0001:00073b30       ?should_skip_normal_state_processing@?$standard_base@DV?$string_output_adapter@D@__crt_stdio_output@@@__crt_stdio_output@@IEAA_NXZ 0000000180074b30 f i libucrtd:output.obj
 0001:00073b40       ?should_skip_normal_state_processing@?$standard_base@_WV?$stream_output_adapter@_W@__crt_stdio_output@@@__crt_stdio_output@@IEAA_NXZ 0000000180074b40 f i libucrtd:output.obj
 0001:00073b50       ?should_skip_normal_state_processing@?$standard_base@_WV?$string_output_adapter@_W@__crt_stdio_output@@@__crt_stdio_output@@IEAA_NXZ 0000000180074b50 f i libucrtd:output.obj
 0001:00073b60       ?should_skip_type_state_output@?$positional_parameter_base@DV?$stream_output_adapter@D@__crt_stdio_output@@@__crt_stdio_output@@IEBA_NXZ 0000000180074b60 f i libucrtd:output.obj
 0001:00073ba0       ?should_skip_type_state_output@?$positional_parameter_base@DV?$string_output_adapter@D@__crt_stdio_output@@@__crt_stdio_output@@IEBA_NXZ 0000000180074ba0 f i libucrtd:output.obj
 0001:00073be0       ?should_skip_type_state_output@?$positional_parameter_base@_WV?$stream_output_adapter@_W@__crt_stdio_output@@@__crt_stdio_output@@IEBA_NXZ 0000000180074be0 f i libucrtd:output.obj
 0001:00073c20       ?should_skip_type_state_output@?$positional_parameter_base@_WV?$string_output_adapter@_W@__crt_stdio_output@@@__crt_stdio_output@@IEBA_NXZ 0000000180074c20 f i libucrtd:output.obj
 0001:00073c60       ?should_skip_type_state_output@?$standard_base@DV?$stream_output_adapter@D@__crt_stdio_output@@@__crt_stdio_output@@IEBA_NXZ 0000000180074c60 f i libucrtd:output.obj
 0001:00073c70       ?should_skip_type_state_output@?$standard_base@DV?$string_output_adapter@D@__crt_stdio_output@@@__crt_stdio_output@@IEBA_NXZ 0000000180074c70 f i libucrtd:output.obj
 0001:00073c80       ?should_skip_type_state_output@?$standard_base@_WV?$stream_output_adapter@_W@__crt_stdio_output@@@__crt_stdio_output@@IEBA_NXZ 0000000180074c80 f i libucrtd:output.obj
 0001:00073c90       ?should_skip_type_state_output@?$standard_base@_WV?$string_output_adapter@_W@__crt_stdio_output@@@__crt_stdio_output@@IEBA_NXZ 0000000180074c90 f i libucrtd:output.obj
 0001:00073ca0       ?state_case_dot@?$output_processor@DV?$stream_output_adapter@D@__crt_stdio_output@@V?$format_validation_base@DV?$stream_output_adapter@D@__crt_stdio_output@@@2@@__crt_stdio_output@@AEAA_NXZ 0000000180074ca0 f i libucrtd:output.obj
 0001:00073cc0       ?state_case_dot@?$output_processor@DV?$stream_output_adapter@D@__crt_stdio_output@@V?$positional_parameter_base@DV?$stream_output_adapter@D@__crt_stdio_output@@@2@@__crt_stdio_output@@AEAA_NXZ 0000000180074cc0 f i libucrtd:output.obj
 0001:00073ce0       ?state_case_dot@?$output_processor@DV?$stream_output_adapter@D@__crt_stdio_output@@V?$standard_base@DV?$stream_output_adapter@D@__crt_stdio_output@@@2@@__crt_stdio_output@@AEAA_NXZ 0000000180074ce0 f i libucrtd:output.obj
 0001:00073d00       ?state_case_dot@?$output_processor@DV?$string_output_adapter@D@__crt_stdio_output@@V?$format_validation_base@DV?$string_output_adapter@D@__crt_stdio_output@@@2@@__crt_stdio_output@@AEAA_NXZ 0000000180074d00 f i libucrtd:output.obj
 0001:00073d20       ?state_case_dot@?$output_processor@DV?$string_output_adapter@D@__crt_stdio_output@@V?$positional_parameter_base@DV?$string_output_adapter@D@__crt_stdio_output@@@2@@__crt_stdio_output@@AEAA_NXZ 0000000180074d20 f i libucrtd:output.obj
 0001:00073d40       ?state_case_dot@?$output_processor@DV?$string_output_adapter@D@__crt_stdio_output@@V?$standard_base@DV?$string_output_adapter@D@__crt_stdio_output@@@2@@__crt_stdio_output@@AEAA_NXZ 0000000180074d40 f i libucrtd:output.obj
 0001:00073d60       ?state_case_dot@?$output_processor@_WV?$stream_output_adapter@_W@__crt_stdio_output@@V?$format_validation_base@_WV?$stream_output_adapter@_W@__crt_stdio_output@@@2@@__crt_stdio_output@@AEAA_NXZ 0000000180074d60 f i libucrtd:output.obj
 0001:00073d80       ?state_case_dot@?$output_processor@_WV?$stream_output_adapter@_W@__crt_stdio_output@@V?$positional_parameter_base@_WV?$stream_output_adapter@_W@__crt_stdio_output@@@2@@__crt_stdio_output@@AEAA_NXZ 0000000180074d80 f i libucrtd:output.obj
 0001:00073da0       ?state_case_dot@?$output_processor@_WV?$stream_output_adapter@_W@__crt_stdio_output@@V?$standard_base@_WV?$stream_output_adapter@_W@__crt_stdio_output@@@2@@__crt_stdio_output@@AEAA_NXZ 0000000180074da0 f i libucrtd:output.obj
 0001:00073dc0       ?state_case_dot@?$output_processor@_WV?$string_output_adapter@_W@__crt_stdio_output@@V?$format_validation_base@_WV?$string_output_adapter@_W@__crt_stdio_output@@@2@@__crt_stdio_output@@AEAA_NXZ 0000000180074dc0 f i libucrtd:output.obj
 0001:00073de0       ?state_case_dot@?$output_processor@_WV?$string_output_adapter@_W@__crt_stdio_output@@V?$positional_parameter_base@_WV?$string_output_adapter@_W@__crt_stdio_output@@@2@@__crt_stdio_output@@AEAA_NXZ 0000000180074de0 f i libucrtd:output.obj
 0001:00073e00       ?state_case_dot@?$output_processor@_WV?$string_output_adapter@_W@__crt_stdio_output@@V?$standard_base@_WV?$string_output_adapter@_W@__crt_stdio_output@@@2@@__crt_stdio_output@@AEAA_NXZ 0000000180074e00 f i libucrtd:output.obj
 0001:00073e20       ?state_case_flag@?$output_processor@DV?$stream_output_adapter@D@__crt_stdio_output@@V?$format_validation_base@DV?$stream_output_adapter@D@__crt_stdio_output@@@2@@__crt_stdio_output@@AEAA_NXZ 0000000180074e20 f i libucrtd:output.obj
 0001:00073ec0       ?state_case_flag@?$output_processor@DV?$stream_output_adapter@D@__crt_stdio_output@@V?$positional_parameter_base@DV?$stream_output_adapter@D@__crt_stdio_output@@@2@@__crt_stdio_output@@AEAA_NXZ 0000000180074ec0 f i libucrtd:output.obj
 0001:00073f60       ?state_case_flag@?$output_processor@DV?$stream_output_adapter@D@__crt_stdio_output@@V?$standard_base@DV?$stream_output_adapter@D@__crt_stdio_output@@@2@@__crt_stdio_output@@AEAA_NXZ 0000000180074f60 f i libucrtd:output.obj
 0001:00074000       ?state_case_flag@?$output_processor@DV?$string_output_adapter@D@__crt_stdio_output@@V?$format_validation_base@DV?$string_output_adapter@D@__crt_stdio_output@@@2@@__crt_stdio_output@@AEAA_NXZ 0000000180075000 f i libucrtd:output.obj
 0001:000740a0       ?state_case_flag@?$output_processor@DV?$string_output_adapter@D@__crt_stdio_output@@V?$positional_parameter_base@DV?$string_output_adapter@D@__crt_stdio_output@@@2@@__crt_stdio_output@@AEAA_NXZ 00000001800750a0 f i libucrtd:output.obj
 0001:00074140       ?state_case_flag@?$output_processor@DV?$string_output_adapter@D@__crt_stdio_output@@V?$standard_base@DV?$string_output_adapter@D@__crt_stdio_output@@@2@@__crt_stdio_output@@AEAA_NXZ 0000000180075140 f i libucrtd:output.obj
 0001:000741e0       ?state_case_flag@?$output_processor@_WV?$stream_output_adapter@_W@__crt_stdio_output@@V?$format_validation_base@_WV?$stream_output_adapter@_W@__crt_stdio_output@@@2@@__crt_stdio_output@@AEAA_NXZ 00000001800751e0 f i libucrtd:output.obj
 0001:00074280       ?state_case_flag@?$output_processor@_WV?$stream_output_adapter@_W@__crt_stdio_output@@V?$positional_parameter_base@_WV?$stream_output_adapter@_W@__crt_stdio_output@@@2@@__crt_stdio_output@@AEAA_NXZ 0000000180075280 f i libucrtd:output.obj
 0001:00074320       ?state_case_flag@?$output_processor@_WV?$stream_output_adapter@_W@__crt_stdio_output@@V?$standard_base@_WV?$stream_output_adapter@_W@__crt_stdio_output@@@2@@__crt_stdio_output@@AEAA_NXZ 0000000180075320 f i libucrtd:output.obj
 0001:000743c0       ?state_case_flag@?$output_processor@_WV?$string_output_adapter@_W@__crt_stdio_output@@V?$format_validation_base@_WV?$string_output_adapter@_W@__crt_stdio_output@@@2@@__crt_stdio_output@@AEAA_NXZ 00000001800753c0 f i libucrtd:output.obj
 0001:00074460       ?state_case_flag@?$output_processor@_WV?$string_output_adapter@_W@__crt_stdio_output@@V?$positional_parameter_base@_WV?$string_output_adapter@_W@__crt_stdio_output@@@2@@__crt_stdio_output@@AEAA_NXZ 0000000180075460 f i libucrtd:output.obj
 0001:00074500       ?state_case_flag@?$output_processor@_WV?$string_output_adapter@_W@__crt_stdio_output@@V?$standard_base@_WV?$string_output_adapter@_W@__crt_stdio_output@@@2@@__crt_stdio_output@@AEAA_NXZ 0000000180075500 f i libucrtd:output.obj
 0001:000745a0       ?state_case_normal@?$output_processor@DV?$stream_output_adapter@D@__crt_stdio_output@@V?$format_validation_base@DV?$stream_output_adapter@D@__crt_stdio_output@@@2@@__crt_stdio_output@@AEAA_NXZ 00000001800755a0 f i libucrtd:output.obj
 0001:000746a0       ?state_case_normal@?$output_processor@DV?$stream_output_adapter@D@__crt_stdio_output@@V?$positional_parameter_base@DV?$stream_output_adapter@D@__crt_stdio_output@@@2@@__crt_stdio_output@@AEAA_NXZ 00000001800756a0 f i libucrtd:output.obj
 0001:000747a0       ?state_case_normal@?$output_processor@DV?$stream_output_adapter@D@__crt_stdio_output@@V?$standard_base@DV?$stream_output_adapter@D@__crt_stdio_output@@@2@@__crt_stdio_output@@AEAA_NXZ 00000001800757a0 f i libucrtd:output.obj
 0001:000748a0       ?state_case_normal@?$output_processor@DV?$string_output_adapter@D@__crt_stdio_output@@V?$format_validation_base@DV?$string_output_adapter@D@__crt_stdio_output@@@2@@__crt_stdio_output@@AEAA_NXZ 00000001800758a0 f i libucrtd:output.obj
 0001:000749a0       ?state_case_normal@?$output_processor@DV?$string_output_adapter@D@__crt_stdio_output@@V?$positional_parameter_base@DV?$string_output_adapter@D@__crt_stdio_output@@@2@@__crt_stdio_output@@AEAA_NXZ 00000001800759a0 f i libucrtd:output.obj
 0001:00074aa0       ?state_case_normal@?$output_processor@DV?$string_output_adapter@D@__crt_stdio_output@@V?$standard_base@DV?$string_output_adapter@D@__crt_stdio_output@@@2@@__crt_stdio_output@@AEAA_NXZ 0000000180075aa0 f i libucrtd:output.obj
 0001:00074ba0       ?state_case_normal@?$output_processor@_WV?$stream_output_adapter@_W@__crt_stdio_output@@V?$format_validation_base@_WV?$stream_output_adapter@_W@__crt_stdio_output@@@2@@__crt_stdio_output@@AEAA_NXZ 0000000180075ba0 f i libucrtd:output.obj
 0001:00074ca0       ?state_case_normal@?$output_processor@_WV?$stream_output_adapter@_W@__crt_stdio_output@@V?$positional_parameter_base@_WV?$stream_output_adapter@_W@__crt_stdio_output@@@2@@__crt_stdio_output@@AEAA_NXZ 0000000180075ca0 f i libucrtd:output.obj
 0001:00074da0       ?state_case_normal@?$output_processor@_WV?$stream_output_adapter@_W@__crt_stdio_output@@V?$standard_base@_WV?$stream_output_adapter@_W@__crt_stdio_output@@@2@@__crt_stdio_output@@AEAA_NXZ 0000000180075da0 f i libucrtd:output.obj
 0001:00074ea0       ?state_case_normal@?$output_processor@_WV?$string_output_adapter@_W@__crt_stdio_output@@V?$format_validation_base@_WV?$string_output_adapter@_W@__crt_stdio_output@@@2@@__crt_stdio_output@@AEAA_NXZ 0000000180075ea0 f i libucrtd:output.obj
 0001:00074fa0       ?state_case_normal@?$output_processor@_WV?$string_output_adapter@_W@__crt_stdio_output@@V?$positional_parameter_base@_WV?$string_output_adapter@_W@__crt_stdio_output@@@2@@__crt_stdio_output@@AEAA_NXZ 0000000180075fa0 f i libucrtd:output.obj
 0001:000750a0       ?state_case_normal@?$output_processor@_WV?$string_output_adapter@_W@__crt_stdio_output@@V?$standard_base@_WV?$string_output_adapter@_W@__crt_stdio_output@@@2@@__crt_stdio_output@@AEAA_NXZ 00000001800760a0 f i libucrtd:output.obj
 0001:000751a0       ?state_case_normal_common@?$output_processor@DV?$stream_output_adapter@D@__crt_stdio_output@@V?$format_validation_base@DV?$stream_output_adapter@D@__crt_stdio_output@@@2@@__crt_stdio_output@@AEAA_NXZ 00000001800761a0 f i libucrtd:output.obj
 0001:00075200       ?state_case_normal_common@?$output_processor@DV?$stream_output_adapter@D@__crt_stdio_output@@V?$positional_parameter_base@DV?$stream_output_adapter@D@__crt_stdio_output@@@2@@__crt_stdio_output@@AEAA_NXZ 0000000180076200 f i libucrtd:output.obj
 0001:00075260       ?state_case_normal_common@?$output_processor@DV?$stream_output_adapter@D@__crt_stdio_output@@V?$standard_base@DV?$stream_output_adapter@D@__crt_stdio_output@@@2@@__crt_stdio_output@@AEAA_NXZ 0000000180076260 f i libucrtd:output.obj
 0001:000752c0       ?state_case_normal_common@?$output_processor@DV?$string_output_adapter@D@__crt_stdio_output@@V?$format_validation_base@DV?$string_output_adapter@D@__crt_stdio_output@@@2@@__crt_stdio_output@@AEAA_NXZ 00000001800762c0 f i libucrtd:output.obj
 0001:00075320       ?state_case_normal_common@?$output_processor@DV?$string_output_adapter@D@__crt_stdio_output@@V?$positional_parameter_base@DV?$string_output_adapter@D@__crt_stdio_output@@@2@@__crt_stdio_output@@AEAA_NXZ 0000000180076320 f i libucrtd:output.obj
 0001:00075380       ?state_case_normal_common@?$output_processor@DV?$string_output_adapter@D@__crt_stdio_output@@V?$standard_base@DV?$string_output_adapter@D@__crt_stdio_output@@@2@@__crt_stdio_output@@AEAA_NXZ 0000000180076380 f i libucrtd:output.obj
 0001:000753e0       ?state_case_normal_common@?$output_processor@_WV?$stream_output_adapter@_W@__crt_stdio_output@@V?$format_validation_base@_WV?$stream_output_adapter@_W@__crt_stdio_output@@@2@@__crt_stdio_output@@AEAA_NXZ 00000001800763e0 f i libucrtd:output.obj
 0001:00075440       ?state_case_normal_common@?$output_processor@_WV?$stream_output_adapter@_W@__crt_stdio_output@@V?$positional_parameter_base@_WV?$stream_output_adapter@_W@__crt_stdio_output@@@2@@__crt_stdio_output@@AEAA_NXZ 0000000180076440 f i libucrtd:output.obj
 0001:000754a0       ?state_case_normal_common@?$output_processor@_WV?$stream_output_adapter@_W@__crt_stdio_output@@V?$standard_base@_WV?$stream_output_adapter@_W@__crt_stdio_output@@@2@@__crt_stdio_output@@AEAA_NXZ 00000001800764a0 f i libucrtd:output.obj
 0001:00075500       ?state_case_normal_common@?$output_processor@_WV?$string_output_adapter@_W@__crt_stdio_output@@V?$format_validation_base@_WV?$string_output_adapter@_W@__crt_stdio_output@@@2@@__crt_stdio_output@@AEAA_NXZ 0000000180076500 f i libucrtd:output.obj
 0001:00075560       ?state_case_normal_common@?$output_processor@_WV?$string_output_adapter@_W@__crt_stdio_output@@V?$positional_parameter_base@_WV?$string_output_adapter@_W@__crt_stdio_output@@@2@@__crt_stdio_output@@AEAA_NXZ 0000000180076560 f i libucrtd:output.obj
 0001:000755c0       ?state_case_normal_common@?$output_processor@_WV?$string_output_adapter@_W@__crt_stdio_output@@V?$standard_base@_WV?$string_output_adapter@_W@__crt_stdio_output@@@2@@__crt_stdio_output@@AEAA_NXZ 00000001800765c0 f i libucrtd:output.obj
 0001:00075620       ?state_case_normal_tchar@?$output_processor@DV?$stream_output_adapter@D@__crt_stdio_output@@V?$format_validation_base@DV?$stream_output_adapter@D@__crt_stdio_output@@@2@@__crt_stdio_output@@AEAA_ND@Z 0000000180076620 f i libucrtd:output.obj
 0001:000757b0       ?state_case_normal_tchar@?$output_processor@DV?$stream_output_adapter@D@__crt_stdio_output@@V?$positional_parameter_base@DV?$stream_output_adapter@D@__crt_stdio_output@@@2@@__crt_stdio_output@@AEAA_ND@Z 00000001800767b0 f i libucrtd:output.obj
 0001:00075940       ?state_case_normal_tchar@?$output_processor@DV?$stream_output_adapter@D@__crt_stdio_output@@V?$standard_base@DV?$stream_output_adapter@D@__crt_stdio_output@@@2@@__crt_stdio_output@@AEAA_ND@Z 0000000180076940 f i libucrtd:output.obj
 0001:00075ad0       ?state_case_normal_tchar@?$output_processor@DV?$string_output_adapter@D@__crt_stdio_output@@V?$format_validation_base@DV?$string_output_adapter@D@__crt_stdio_output@@@2@@__crt_stdio_output@@AEAA_ND@Z 0000000180076ad0 f i libucrtd:output.obj
 0001:00075c60       ?state_case_normal_tchar@?$output_processor@DV?$string_output_adapter@D@__crt_stdio_output@@V?$positional_parameter_base@DV?$string_output_adapter@D@__crt_stdio_output@@@2@@__crt_stdio_output@@AEAA_ND@Z 0000000180076c60 f i libucrtd:output.obj
 0001:00075df0       ?state_case_normal_tchar@?$output_processor@DV?$string_output_adapter@D@__crt_stdio_output@@V?$standard_base@DV?$string_output_adapter@D@__crt_stdio_output@@@2@@__crt_stdio_output@@AEAA_ND@Z 0000000180076df0 f i libucrtd:output.obj
 0001:00075f80       ?state_case_normal_tchar@?$output_processor@_WV?$stream_output_adapter@_W@__crt_stdio_output@@V?$format_validation_base@_WV?$stream_output_adapter@_W@__crt_stdio_output@@@2@@__crt_stdio_output@@AEAA_N_W@Z 0000000180076f80 f i libucrtd:output.obj
 0001:00075fa0       ?state_case_normal_tchar@?$output_processor@_WV?$stream_output_adapter@_W@__crt_stdio_output@@V?$positional_parameter_base@_WV?$stream_output_adapter@_W@__crt_stdio_output@@@2@@__crt_stdio_output@@AEAA_N_W@Z 0000000180076fa0 f i libucrtd:output.obj
 0001:00075fc0       ?state_case_normal_tchar@?$output_processor@_WV?$stream_output_adapter@_W@__crt_stdio_output@@V?$standard_base@_WV?$stream_output_adapter@_W@__crt_stdio_output@@@2@@__crt_stdio_output@@AEAA_N_W@Z 0000000180076fc0 f i libucrtd:output.obj
 0001:00075fe0       ?state_case_normal_tchar@?$output_processor@_WV?$string_output_adapter@_W@__crt_stdio_output@@V?$format_validation_base@_WV?$string_output_adapter@_W@__crt_stdio_output@@@2@@__crt_stdio_output@@AEAA_N_W@Z 0000000180076fe0 f i libucrtd:output.obj
 0001:00076000       ?state_case_normal_tchar@?$output_processor@_WV?$string_output_adapter@_W@__crt_stdio_output@@V?$positional_parameter_base@_WV?$string_output_adapter@_W@__crt_stdio_output@@@2@@__crt_stdio_output@@AEAA_N_W@Z 0000000180077000 f i libucrtd:output.obj
 0001:00076020       ?state_case_normal_tchar@?$output_processor@_WV?$string_output_adapter@_W@__crt_stdio_output@@V?$standard_base@_WV?$string_output_adapter@_W@__crt_stdio_output@@@2@@__crt_stdio_output@@AEAA_N_W@Z 0000000180077020 f i libucrtd:output.obj
 0001:00076040       ?state_case_percent@?$output_processor@DV?$stream_output_adapter@D@__crt_stdio_output@@V?$format_validation_base@DV?$stream_output_adapter@D@__crt_stdio_output@@@2@@__crt_stdio_output@@AEAA_NXZ 0000000180077040 f i libucrtd:output.obj
 0001:00076090       ?state_case_percent@?$output_processor@DV?$stream_output_adapter@D@__crt_stdio_output@@V?$positional_parameter_base@DV?$stream_output_adapter@D@__crt_stdio_output@@@2@@__crt_stdio_output@@AEAA_NXZ 0000000180077090 f i libucrtd:output.obj
 0001:000760e0       ?state_case_percent@?$output_processor@DV?$stream_output_adapter@D@__crt_stdio_output@@V?$standard_base@DV?$stream_output_adapter@D@__crt_stdio_output@@@2@@__crt_stdio_output@@AEAA_NXZ 00000001800770e0 f i libucrtd:output.obj
 0001:00076130       ?state_case_percent@?$output_processor@DV?$string_output_adapter@D@__crt_stdio_output@@V?$format_validation_base@DV?$string_output_adapter@D@__crt_stdio_output@@@2@@__crt_stdio_output@@AEAA_NXZ 0000000180077130 f i libucrtd:output.obj
 0001:00076180       ?state_case_percent@?$output_processor@DV?$string_output_adapter@D@__crt_stdio_output@@V?$positional_parameter_base@DV?$string_output_adapter@D@__crt_stdio_output@@@2@@__crt_stdio_output@@AEAA_NXZ 0000000180077180 f i libucrtd:output.obj
 0001:000761d0       ?state_case_percent@?$output_processor@DV?$string_output_adapter@D@__crt_stdio_output@@V?$standard_base@DV?$string_output_adapter@D@__crt_stdio_output@@@2@@__crt_stdio_output@@AEAA_NXZ 00000001800771d0 f i libucrtd:output.obj
 0001:00076220       ?state_case_percent@?$output_processor@_WV?$stream_output_adapter@_W@__crt_stdio_output@@V?$format_validation_base@_WV?$stream_output_adapter@_W@__crt_stdio_output@@@2@@__crt_stdio_output@@AEAA_NXZ 0000000180077220 f i libucrtd:output.obj
 0001:00076270       ?state_case_percent@?$output_processor@_WV?$stream_output_adapter@_W@__crt_stdio_output@@V?$positional_parameter_base@_WV?$stream_output_adapter@_W@__crt_stdio_output@@@2@@__crt_stdio_output@@AEAA_NXZ 0000000180077270 f i libucrtd:output.obj
 0001:000762c0       ?state_case_percent@?$output_processor@_WV?$stream_output_adapter@_W@__crt_stdio_output@@V?$standard_base@_WV?$stream_output_adapter@_W@__crt_stdio_output@@@2@@__crt_stdio_output@@AEAA_NXZ 00000001800772c0 f i libucrtd:output.obj
 0001:00076310       ?state_case_percent@?$output_processor@_WV?$string_output_adapter@_W@__crt_stdio_output@@V?$format_validation_base@_WV?$string_output_adapter@_W@__crt_stdio_output@@@2@@__crt_stdio_output@@AEAA_NXZ 0000000180077310 f i libucrtd:output.obj
 0001:00076360       ?state_case_percent@?$output_processor@_WV?$string_output_adapter@_W@__crt_stdio_output@@V?$positional_parameter_base@_WV?$string_output_adapter@_W@__crt_stdio_output@@@2@@__crt_stdio_output@@AEAA_NXZ 0000000180077360 f i libucrtd:output.obj
 0001:000763b0       ?state_case_percent@?$output_processor@_WV?$string_output_adapter@_W@__crt_stdio_output@@V?$standard_base@_WV?$string_output_adapter@_W@__crt_stdio_output@@@2@@__crt_stdio_output@@AEAA_NXZ 00000001800773b0 f i libucrtd:output.obj
 0001:00076400       ?state_case_precision@?$output_processor@DV?$stream_output_adapter@D@__crt_stdio_output@@V?$format_validation_base@DV?$stream_output_adapter@D@__crt_stdio_output@@@2@@__crt_stdio_output@@AEAA_NXZ 0000000180077400 f i libucrtd:output.obj
 0001:00076480       ?state_case_precision@?$output_processor@DV?$stream_output_adapter@D@__crt_stdio_output@@V?$positional_parameter_base@DV?$stream_output_adapter@D@__crt_stdio_output@@@2@@__crt_stdio_output@@AEAA_NXZ 0000000180077480 f i libucrtd:output.obj
 0001:00076500       ?state_case_precision@?$output_processor@DV?$stream_output_adapter@D@__crt_stdio_output@@V?$standard_base@DV?$stream_output_adapter@D@__crt_stdio_output@@@2@@__crt_stdio_output@@AEAA_NXZ 0000000180077500 f i libucrtd:output.obj
 0001:00076580       ?state_case_precision@?$output_processor@DV?$string_output_adapter@D@__crt_stdio_output@@V?$format_validation_base@DV?$string_output_adapter@D@__crt_stdio_output@@@2@@__crt_stdio_output@@AEAA_NXZ 0000000180077580 f i libucrtd:output.obj
 0001:00076600       ?state_case_precision@?$output_processor@DV?$string_output_adapter@D@__crt_stdio_output@@V?$positional_parameter_base@DV?$string_output_adapter@D@__crt_stdio_output@@@2@@__crt_stdio_output@@AEAA_NXZ 0000000180077600 f i libucrtd:output.obj
 0001:00076680       ?state_case_precision@?$output_processor@DV?$string_output_adapter@D@__crt_stdio_output@@V?$standard_base@DV?$string_output_adapter@D@__crt_stdio_output@@@2@@__crt_stdio_output@@AEAA_NXZ 0000000180077680 f i libucrtd:output.obj
 0001:00076700       ?state_case_precision@?$output_processor@_WV?$stream_output_adapter@_W@__crt_stdio_output@@V?$format_validation_base@_WV?$stream_output_adapter@_W@__crt_stdio_output@@@2@@__crt_stdio_output@@AEAA_NXZ 0000000180077700 f i libucrtd:output.obj
 0001:00076780       ?state_case_precision@?$output_processor@_WV?$stream_output_adapter@_W@__crt_stdio_output@@V?$positional_parameter_base@_WV?$stream_output_adapter@_W@__crt_stdio_output@@@2@@__crt_stdio_output@@AEAA_NXZ 0000000180077780 f i libucrtd:output.obj
 0001:00076800       ?state_case_precision@?$output_processor@_WV?$stream_output_adapter@_W@__crt_stdio_output@@V?$standard_base@_WV?$stream_output_adapter@_W@__crt_stdio_output@@@2@@__crt_stdio_output@@AEAA_NXZ 0000000180077800 f i libucrtd:output.obj
 0001:00076880       ?state_case_precision@?$output_processor@_WV?$string_output_adapter@_W@__crt_stdio_output@@V?$format_validation_base@_WV?$string_output_adapter@_W@__crt_stdio_output@@@2@@__crt_stdio_output@@AEAA_NXZ 0000000180077880 f i libucrtd:output.obj
 0001:00076900       ?state_case_precision@?$output_processor@_WV?$string_output_adapter@_W@__crt_stdio_output@@V?$positional_parameter_base@_WV?$string_output_adapter@_W@__crt_stdio_output@@@2@@__crt_stdio_output@@AEAA_NXZ 0000000180077900 f i libucrtd:output.obj
 0001:00076980       ?state_case_precision@?$output_processor@_WV?$string_output_adapter@_W@__crt_stdio_output@@V?$standard_base@_WV?$string_output_adapter@_W@__crt_stdio_output@@@2@@__crt_stdio_output@@AEAA_NXZ 0000000180077980 f i libucrtd:output.obj
 0001:00076a00       ?state_case_size@?$output_processor@DV?$stream_output_adapter@D@__crt_stdio_output@@V?$format_validation_base@DV?$stream_output_adapter@D@__crt_stdio_output@@@2@@__crt_stdio_output@@AEAA_NXZ 0000000180077a00 f i libucrtd:output.obj
 0001:00076ec0       ?state_case_size@?$output_processor@DV?$stream_output_adapter@D@__crt_stdio_output@@V?$positional_parameter_base@DV?$stream_output_adapter@D@__crt_stdio_output@@@2@@__crt_stdio_output@@AEAA_NXZ 0000000180077ec0 f i libucrtd:output.obj
 0001:00077380       ?state_case_size@?$output_processor@DV?$stream_output_adapter@D@__crt_stdio_output@@V?$standard_base@DV?$stream_output_adapter@D@__crt_stdio_output@@@2@@__crt_stdio_output@@AEAA_NXZ 0000000180078380 f i libucrtd:output.obj
 0001:00077840       ?state_case_size@?$output_processor@DV?$string_output_adapter@D@__crt_stdio_output@@V?$format_validation_base@DV?$string_output_adapter@D@__crt_stdio_output@@@2@@__crt_stdio_output@@AEAA_NXZ 0000000180078840 f i libucrtd:output.obj
 0001:00077d00       ?state_case_size@?$output_processor@DV?$string_output_adapter@D@__crt_stdio_output@@V?$positional_parameter_base@DV?$string_output_adapter@D@__crt_stdio_output@@@2@@__crt_stdio_output@@AEAA_NXZ 0000000180078d00 f i libucrtd:output.obj
 0001:000781c0       ?state_case_size@?$output_processor@DV?$string_output_adapter@D@__crt_stdio_output@@V?$standard_base@DV?$string_output_adapter@D@__crt_stdio_output@@@2@@__crt_stdio_output@@AEAA_NXZ 00000001800791c0 f i libucrtd:output.obj
 0001:00078680       ?state_case_size@?$output_processor@_WV?$stream_output_adapter@_W@__crt_stdio_output@@V?$format_validation_base@_WV?$stream_output_adapter@_W@__crt_stdio_output@@@2@@__crt_stdio_output@@AEAA_NXZ 0000000180079680 f i libucrtd:output.obj
 0001:00078b40       ?state_case_size@?$output_processor@_WV?$stream_output_adapter@_W@__crt_stdio_output@@V?$positional_parameter_base@_WV?$stream_output_adapter@_W@__crt_stdio_output@@@2@@__crt_stdio_output@@AEAA_NXZ 0000000180079b40 f i libucrtd:output.obj
 0001:00079000       ?state_case_size@?$output_processor@_WV?$stream_output_adapter@_W@__crt_stdio_output@@V?$standard_base@_WV?$stream_output_adapter@_W@__crt_stdio_output@@@2@@__crt_stdio_output@@AEAA_NXZ 000000018007a000 f i libucrtd:output.obj
 0001:000794c0       ?state_case_size@?$output_processor@_WV?$string_output_adapter@_W@__crt_stdio_output@@V?$format_validation_base@_WV?$string_output_adapter@_W@__crt_stdio_output@@@2@@__crt_stdio_output@@AEAA_NXZ 000000018007a4c0 f i libucrtd:output.obj
 0001:00079980       ?state_case_size@?$output_processor@_WV?$string_output_adapter@_W@__crt_stdio_output@@V?$positional_parameter_base@_WV?$string_output_adapter@_W@__crt_stdio_output@@@2@@__crt_stdio_output@@AEAA_NXZ 000000018007a980 f i libucrtd:output.obj
 0001:00079e40       ?state_case_size@?$output_processor@_WV?$string_output_adapter@_W@__crt_stdio_output@@V?$standard_base@_WV?$string_output_adapter@_W@__crt_stdio_output@@@2@@__crt_stdio_output@@AEAA_NXZ 000000018007ae40 f i libucrtd:output.obj
 0001:0007a300       ?state_case_type@?$output_processor@DV?$stream_output_adapter@D@__crt_stdio_output@@V?$format_validation_base@DV?$stream_output_adapter@D@__crt_stdio_output@@@2@@__crt_stdio_output@@AEAA_NXZ 000000018007b300 f i libucrtd:output.obj
 0001:0007a7c0       ?state_case_type@?$output_processor@DV?$stream_output_adapter@D@__crt_stdio_output@@V?$positional_parameter_base@DV?$stream_output_adapter@D@__crt_stdio_output@@@2@@__crt_stdio_output@@AEAA_NXZ 000000018007b7c0 f i libucrtd:output.obj
 0001:0007ac80       ?state_case_type@?$output_processor@DV?$stream_output_adapter@D@__crt_stdio_output@@V?$standard_base@DV?$stream_output_adapter@D@__crt_stdio_output@@@2@@__crt_stdio_output@@AEAA_NXZ 000000018007bc80 f i libucrtd:output.obj
 0001:0007b140       ?state_case_type@?$output_processor@DV?$string_output_adapter@D@__crt_stdio_output@@V?$format_validation_base@DV?$string_output_adapter@D@__crt_stdio_output@@@2@@__crt_stdio_output@@AEAA_NXZ 000000018007c140 f i libucrtd:output.obj
 0001:0007b600       ?state_case_type@?$output_processor@DV?$string_output_adapter@D@__crt_stdio_output@@V?$positional_parameter_base@DV?$string_output_adapter@D@__crt_stdio_output@@@2@@__crt_stdio_output@@AEAA_NXZ 000000018007c600 f i libucrtd:output.obj
 0001:0007bac0       ?state_case_type@?$output_processor@DV?$string_output_adapter@D@__crt_stdio_output@@V?$standard_base@DV?$string_output_adapter@D@__crt_stdio_output@@@2@@__crt_stdio_output@@AEAA_NXZ 000000018007cac0 f i libucrtd:output.obj
 0001:0007bf80       ?state_case_type@?$output_processor@_WV?$stream_output_adapter@_W@__crt_stdio_output@@V?$format_validation_base@_WV?$stream_output_adapter@_W@__crt_stdio_output@@@2@@__crt_stdio_output@@AEAA_NXZ 000000018007cf80 f i libucrtd:output.obj
 0001:0007c510       ?state_case_type@?$output_processor@_WV?$stream_output_adapter@_W@__crt_stdio_output@@V?$positional_parameter_base@_WV?$stream_output_adapter@_W@__crt_stdio_output@@@2@@__crt_stdio_output@@AEAA_NXZ 000000018007d510 f i libucrtd:output.obj
 0001:0007caa0       ?state_case_type@?$output_processor@_WV?$stream_output_adapter@_W@__crt_stdio_output@@V?$standard_base@_WV?$stream_output_adapter@_W@__crt_stdio_output@@@2@@__crt_stdio_output@@AEAA_NXZ 000000018007daa0 f i libucrtd:output.obj
 0001:0007d030       ?state_case_type@?$output_processor@_WV?$string_output_adapter@_W@__crt_stdio_output@@V?$format_validation_base@_WV?$string_output_adapter@_W@__crt_stdio_output@@@2@@__crt_stdio_output@@AEAA_NXZ 000000018007e030 f i libucrtd:output.obj
 0001:0007d5c0       ?state_case_type@?$output_processor@_WV?$string_output_adapter@_W@__crt_stdio_output@@V?$positional_parameter_base@_WV?$string_output_adapter@_W@__crt_stdio_output@@@2@@__crt_stdio_output@@AEAA_NXZ 000000018007e5c0 f i libucrtd:output.obj
 0001:0007db50       ?state_case_type@?$output_processor@_WV?$string_output_adapter@_W@__crt_stdio_output@@V?$standard_base@_WV?$string_output_adapter@_W@__crt_stdio_output@@@2@@__crt_stdio_output@@AEAA_NXZ 000000018007eb50 f i libucrtd:output.obj
 0001:0007e0e0       ?state_case_width@?$output_processor@DV?$stream_output_adapter@D@__crt_stdio_output@@V?$format_validation_base@DV?$stream_output_adapter@D@__crt_stdio_output@@@2@@__crt_stdio_output@@AEAA_NXZ 000000018007f0e0 f i libucrtd:output.obj
 0001:0007e170       ?state_case_width@?$output_processor@DV?$stream_output_adapter@D@__crt_stdio_output@@V?$positional_parameter_base@DV?$stream_output_adapter@D@__crt_stdio_output@@@2@@__crt_stdio_output@@AEAA_NXZ 000000018007f170 f i libucrtd:output.obj
 0001:0007e200       ?state_case_width@?$output_processor@DV?$stream_output_adapter@D@__crt_stdio_output@@V?$standard_base@DV?$stream_output_adapter@D@__crt_stdio_output@@@2@@__crt_stdio_output@@AEAA_NXZ 000000018007f200 f i libucrtd:output.obj
 0001:0007e290       ?state_case_width@?$output_processor@DV?$string_output_adapter@D@__crt_stdio_output@@V?$format_validation_base@DV?$string_output_adapter@D@__crt_stdio_output@@@2@@__crt_stdio_output@@AEAA_NXZ 000000018007f290 f i libucrtd:output.obj
 0001:0007e320       ?state_case_width@?$output_processor@DV?$string_output_adapter@D@__crt_stdio_output@@V?$positional_parameter_base@DV?$string_output_adapter@D@__crt_stdio_output@@@2@@__crt_stdio_output@@AEAA_NXZ 000000018007f320 f i libucrtd:output.obj
 0001:0007e3b0       ?state_case_width@?$output_processor@DV?$string_output_adapter@D@__crt_stdio_output@@V?$standard_base@DV?$string_output_adapter@D@__crt_stdio_output@@@2@@__crt_stdio_output@@AEAA_NXZ 000000018007f3b0 f i libucrtd:output.obj
 0001:0007e440       ?state_case_width@?$output_processor@_WV?$stream_output_adapter@_W@__crt_stdio_output@@V?$format_validation_base@_WV?$stream_output_adapter@_W@__crt_stdio_output@@@2@@__crt_stdio_output@@AEAA_NXZ 000000018007f440 f i libucrtd:output.obj
 0001:0007e4d0       ?state_case_width@?$output_processor@_WV?$stream_output_adapter@_W@__crt_stdio_output@@V?$positional_parameter_base@_WV?$stream_output_adapter@_W@__crt_stdio_output@@@2@@__crt_stdio_output@@AEAA_NXZ 000000018007f4d0 f i libucrtd:output.obj
 0001:0007e560       ?state_case_width@?$output_processor@_WV?$stream_output_adapter@_W@__crt_stdio_output@@V?$standard_base@_WV?$stream_output_adapter@_W@__crt_stdio_output@@@2@@__crt_stdio_output@@AEAA_NXZ 000000018007f560 f i libucrtd:output.obj
 0001:0007e5f0       ?state_case_width@?$output_processor@_WV?$string_output_adapter@_W@__crt_stdio_output@@V?$format_validation_base@_WV?$string_output_adapter@_W@__crt_stdio_output@@@2@@__crt_stdio_output@@AEAA_NXZ 000000018007f5f0 f i libucrtd:output.obj
 0001:0007e680       ?state_case_width@?$output_processor@_WV?$string_output_adapter@_W@__crt_stdio_output@@V?$positional_parameter_base@_WV?$string_output_adapter@_W@__crt_stdio_output@@@2@@__crt_stdio_output@@AEAA_NXZ 000000018007f680 f i libucrtd:output.obj
 0001:0007e710       ?state_case_width@?$output_processor@_WV?$string_output_adapter@_W@__crt_stdio_output@@V?$standard_base@_WV?$string_output_adapter@_W@__crt_stdio_output@@@2@@__crt_stdio_output@@AEAA_NXZ 000000018007f710 f i libucrtd:output.obj
 0001:0007e7a0       ?state_count@?$format_validation_base@DV?$stream_output_adapter@D@__crt_stdio_output@@@__crt_stdio_output@@KAIXZ 000000018007f7a0 f i libucrtd:output.obj
 0001:0007e7b0       ?state_count@?$format_validation_base@DV?$string_output_adapter@D@__crt_stdio_output@@@__crt_stdio_output@@KAIXZ 000000018007f7b0 f i libucrtd:output.obj
 0001:0007e7c0       ?state_count@?$format_validation_base@_WV?$stream_output_adapter@_W@__crt_stdio_output@@@__crt_stdio_output@@KAIXZ 000000018007f7c0 f i libucrtd:output.obj
 0001:0007e7d0       ?state_count@?$format_validation_base@_WV?$string_output_adapter@_W@__crt_stdio_output@@@__crt_stdio_output@@KAIXZ 000000018007f7d0 f i libucrtd:output.obj
 0001:0007e7e0       ?state_count@?$standard_base@DV?$stream_output_adapter@D@__crt_stdio_output@@@__crt_stdio_output@@KAIXZ 000000018007f7e0 f i libucrtd:output.obj
 0001:0007e7f0       ?state_count@?$standard_base@DV?$string_output_adapter@D@__crt_stdio_output@@@__crt_stdio_output@@KAIXZ 000000018007f7f0 f i libucrtd:output.obj
 0001:0007e800       ?state_count@?$standard_base@_WV?$stream_output_adapter@_W@__crt_stdio_output@@@__crt_stdio_output@@KAIXZ 000000018007f800 f i libucrtd:output.obj
 0001:0007e810       ?state_count@?$standard_base@_WV?$string_output_adapter@_W@__crt_stdio_output@@@__crt_stdio_output@@KAIXZ 000000018007f810 f i libucrtd:output.obj
 0001:0007e820       ?state_transition_table@?$format_validation_base@DV?$stream_output_adapter@D@__crt_stdio_output@@@__crt_stdio_output@@KAAEBV?$spectre_mitigated_lookup_table@Ustate_transition_pair@__crt_stdio_output@@$0IA@@2@XZ 000000018007f820 f i libucrtd:output.obj
 0001:0007e830       ?state_transition_table@?$format_validation_base@DV?$string_output_adapter@D@__crt_stdio_output@@@__crt_stdio_output@@KAAEBV?$spectre_mitigated_lookup_table@Ustate_transition_pair@__crt_stdio_output@@$0IA@@2@XZ 000000018007f830 f i libucrtd:output.obj
 0001:0007e840       ?state_transition_table@?$format_validation_base@_WV?$stream_output_adapter@_W@__crt_stdio_output@@@__crt_stdio_output@@KAAEBV?$spectre_mitigated_lookup_table@Ustate_transition_pair@__crt_stdio_output@@$0IA@@2@XZ 000000018007f840 f i libucrtd:output.obj
 0001:0007e850       ?state_transition_table@?$format_validation_base@_WV?$string_output_adapter@_W@__crt_stdio_output@@@__crt_stdio_output@@KAAEBV?$spectre_mitigated_lookup_table@Ustate_transition_pair@__crt_stdio_output@@$0IA@@2@XZ 000000018007f850 f i libucrtd:output.obj
 0001:0007e860       ?state_transition_table@?$standard_base@DV?$stream_output_adapter@D@__crt_stdio_output@@@__crt_stdio_output@@KAAEBV?$spectre_mitigated_lookup_table@Ustate_transition_pair@__crt_stdio_output@@$0IA@@2@XZ 000000018007f860 f i libucrtd:output.obj
 0001:0007e870       ?state_transition_table@?$standard_base@DV?$string_output_adapter@D@__crt_stdio_output@@@__crt_stdio_output@@KAAEBV?$spectre_mitigated_lookup_table@Ustate_transition_pair@__crt_stdio_output@@$0IA@@2@XZ 000000018007f870 f i libucrtd:output.obj
 0001:0007e880       ?state_transition_table@?$standard_base@_WV?$stream_output_adapter@_W@__crt_stdio_output@@@__crt_stdio_output@@KAAEBV?$spectre_mitigated_lookup_table@Ustate_transition_pair@__crt_stdio_output@@$0IA@@2@XZ 000000018007f880 f i libucrtd:output.obj
 0001:0007e890       ?state_transition_table@?$standard_base@_WV?$string_output_adapter@_W@__crt_stdio_output@@@__crt_stdio_output@@KAAEBV?$spectre_mitigated_lookup_table@Ustate_transition_pair@__crt_stdio_output@@$0IA@@2@XZ 000000018007f890 f i libucrtd:output.obj
 0001:0007e8a0       ?tchar_string@?$common_data@D@__crt_stdio_output@@IEAAAEAPEADD@Z 000000018007f8a0 f i libucrtd:output.obj
 0001:0007e8c0       ?tchar_string@?$common_data@D@__crt_stdio_output@@IEAAAEAPEADXZ 000000018007f8c0 f i libucrtd:output.obj
 0001:0007e8e0       ?tchar_string@?$common_data@_W@__crt_stdio_output@@IEAAAEAPEA_WXZ 000000018007f8e0 f i libucrtd:output.obj
 0001:0007e900       ?tchar_string@?$common_data@_W@__crt_stdio_output@@IEAAAEAPEA_W_W@Z 000000018007f900 f i libucrtd:output.obj
 0001:0007e920       ?to_integer_size@__crt_stdio_output@@YA_KW4length_modifier@1@@Z 000000018007f920 f i libucrtd:output.obj
 0001:0007e9d0       ?type_case_X@?$output_processor@DV?$stream_output_adapter@D@__crt_stdio_output@@V?$format_validation_base@DV?$stream_output_adapter@D@__crt_stdio_output@@@2@@__crt_stdio_output@@AEAA_NXZ 000000018007f9d0 f i libucrtd:output.obj
 0001:0007e9f0       ?type_case_X@?$output_processor@DV?$stream_output_adapter@D@__crt_stdio_output@@V?$positional_parameter_base@DV?$stream_output_adapter@D@__crt_stdio_output@@@2@@__crt_stdio_output@@AEAA_NXZ 000000018007f9f0 f i libucrtd:output.obj
 0001:0007ea10       ?type_case_X@?$output_processor@DV?$stream_output_adapter@D@__crt_stdio_output@@V?$standard_base@DV?$stream_output_adapter@D@__crt_stdio_output@@@2@@__crt_stdio_output@@AEAA_NXZ 000000018007fa10 f i libucrtd:output.obj
 0001:0007ea30       ?type_case_X@?$output_processor@DV?$string_output_adapter@D@__crt_stdio_output@@V?$format_validation_base@DV?$string_output_adapter@D@__crt_stdio_output@@@2@@__crt_stdio_output@@AEAA_NXZ 000000018007fa30 f i libucrtd:output.obj
 0001:0007ea50       ?type_case_X@?$output_processor@DV?$string_output_adapter@D@__crt_stdio_output@@V?$positional_parameter_base@DV?$string_output_adapter@D@__crt_stdio_output@@@2@@__crt_stdio_output@@AEAA_NXZ 000000018007fa50 f i libucrtd:output.obj
 0001:0007ea70       ?type_case_X@?$output_processor@DV?$string_output_adapter@D@__crt_stdio_output@@V?$standard_base@DV?$string_output_adapter@D@__crt_stdio_output@@@2@@__crt_stdio_output@@AEAA_NXZ 000000018007fa70 f i libucrtd:output.obj
 0001:0007ea90       ?type_case_X@?$output_processor@_WV?$stream_output_adapter@_W@__crt_stdio_output@@V?$format_validation_base@_WV?$stream_output_adapter@_W@__crt_stdio_output@@@2@@__crt_stdio_output@@AEAA_NXZ 000000018007fa90 f i libucrtd:output.obj
 0001:0007eab0       ?type_case_X@?$output_processor@_WV?$stream_output_adapter@_W@__crt_stdio_output@@V?$positional_parameter_base@_WV?$stream_output_adapter@_W@__crt_stdio_output@@@2@@__crt_stdio_output@@AEAA_NXZ 000000018007fab0 f i libucrtd:output.obj
 0001:0007ead0       ?type_case_X@?$output_processor@_WV?$stream_output_adapter@_W@__crt_stdio_output@@V?$standard_base@_WV?$stream_output_adapter@_W@__crt_stdio_output@@@2@@__crt_stdio_output@@AEAA_NXZ 000000018007fad0 f i libucrtd:output.obj
 0001:0007eaf0       ?type_case_X@?$output_processor@_WV?$string_output_adapter@_W@__crt_stdio_output@@V?$format_validation_base@_WV?$string_output_adapter@_W@__crt_stdio_output@@@2@@__crt_stdio_output@@AEAA_NXZ 000000018007faf0 f i libucrtd:output.obj
 0001:0007eb10       ?type_case_X@?$output_processor@_WV?$string_output_adapter@_W@__crt_stdio_output@@V?$positional_parameter_base@_WV?$string_output_adapter@_W@__crt_stdio_output@@@2@@__crt_stdio_output@@AEAA_NXZ 000000018007fb10 f i libucrtd:output.obj
 0001:0007eb30       ?type_case_X@?$output_processor@_WV?$string_output_adapter@_W@__crt_stdio_output@@V?$standard_base@_WV?$string_output_adapter@_W@__crt_stdio_output@@@2@@__crt_stdio_output@@AEAA_NXZ 000000018007fb30 f i libucrtd:output.obj
 0001:0007eb50       ?type_case_Z@?$output_processor@DV?$stream_output_adapter@D@__crt_stdio_output@@V?$format_validation_base@DV?$stream_output_adapter@D@__crt_stdio_output@@@2@@__crt_stdio_output@@AEAA_NXZ 000000018007fb50 f i libucrtd:output.obj
 0001:0007ec70       ?type_case_Z@?$output_processor@DV?$stream_output_adapter@D@__crt_stdio_output@@V?$positional_parameter_base@DV?$stream_output_adapter@D@__crt_stdio_output@@@2@@__crt_stdio_output@@AEAA_NXZ 000000018007fc70 f i libucrtd:output.obj
 0001:0007ed90       ?type_case_Z@?$output_processor@DV?$stream_output_adapter@D@__crt_stdio_output@@V?$standard_base@DV?$stream_output_adapter@D@__crt_stdio_output@@@2@@__crt_stdio_output@@AEAA_NXZ 000000018007fd90 f i libucrtd:output.obj
 0001:0007eeb0       ?type_case_Z@?$output_processor@DV?$string_output_adapter@D@__crt_stdio_output@@V?$format_validation_base@DV?$string_output_adapter@D@__crt_stdio_output@@@2@@__crt_stdio_output@@AEAA_NXZ 000000018007feb0 f i libucrtd:output.obj
 0001:0007efd0       ?type_case_Z@?$output_processor@DV?$string_output_adapter@D@__crt_stdio_output@@V?$positional_parameter_base@DV?$string_output_adapter@D@__crt_stdio_output@@@2@@__crt_stdio_output@@AEAA_NXZ 000000018007ffd0 f i libucrtd:output.obj
 0001:0007f0f0       ?type_case_Z@?$output_processor@DV?$string_output_adapter@D@__crt_stdio_output@@V?$standard_base@DV?$string_output_adapter@D@__crt_stdio_output@@@2@@__crt_stdio_output@@AEAA_NXZ 00000001800800f0 f i libucrtd:output.obj
 0001:0007f210       ?type_case_Z@?$output_processor@_WV?$stream_output_adapter@_W@__crt_stdio_output@@V?$format_validation_base@_WV?$stream_output_adapter@_W@__crt_stdio_output@@@2@@__crt_stdio_output@@AEAA_NXZ 0000000180080210 f i libucrtd:output.obj
 0001:0007f330       ?type_case_Z@?$output_processor@_WV?$stream_output_adapter@_W@__crt_stdio_output@@V?$positional_parameter_base@_WV?$stream_output_adapter@_W@__crt_stdio_output@@@2@@__crt_stdio_output@@AEAA_NXZ 0000000180080330 f i libucrtd:output.obj
 0001:0007f450       ?type_case_Z@?$output_processor@_WV?$stream_output_adapter@_W@__crt_stdio_output@@V?$standard_base@_WV?$stream_output_adapter@_W@__crt_stdio_output@@@2@@__crt_stdio_output@@AEAA_NXZ 0000000180080450 f i libucrtd:output.obj
 0001:0007f570       ?type_case_Z@?$output_processor@_WV?$string_output_adapter@_W@__crt_stdio_output@@V?$format_validation_base@_WV?$string_output_adapter@_W@__crt_stdio_output@@@2@@__crt_stdio_output@@AEAA_NXZ 0000000180080570 f i libucrtd:output.obj
 0001:0007f690       ?type_case_Z@?$output_processor@_WV?$string_output_adapter@_W@__crt_stdio_output@@V?$positional_parameter_base@_WV?$string_output_adapter@_W@__crt_stdio_output@@@2@@__crt_stdio_output@@AEAA_NXZ 0000000180080690 f i libucrtd:output.obj
 0001:0007f7b0       ?type_case_Z@?$output_processor@_WV?$string_output_adapter@_W@__crt_stdio_output@@V?$standard_base@_WV?$string_output_adapter@_W@__crt_stdio_output@@@2@@__crt_stdio_output@@AEAA_NXZ 00000001800807b0 f i libucrtd:output.obj
 0001:0007f8d0       ?type_case_a@?$output_processor@DV?$stream_output_adapter@D@__crt_stdio_output@@V?$format_validation_base@DV?$stream_output_adapter@D@__crt_stdio_output@@@2@@__crt_stdio_output@@AEAA_NXZ 00000001800808d0 f i libucrtd:output.obj
 0001:0007fd30       ?type_case_a@?$output_processor@DV?$stream_output_adapter@D@__crt_stdio_output@@V?$positional_parameter_base@DV?$stream_output_adapter@D@__crt_stdio_output@@@2@@__crt_stdio_output@@AEAA_NXZ 0000000180080d30 f i libucrtd:output.obj
 0001:00080190       ?type_case_a@?$output_processor@DV?$stream_output_adapter@D@__crt_stdio_output@@V?$standard_base@DV?$stream_output_adapter@D@__crt_stdio_output@@@2@@__crt_stdio_output@@AEAA_NXZ 0000000180081190 f i libucrtd:output.obj
 0001:000805f0       ?type_case_a@?$output_processor@DV?$string_output_adapter@D@__crt_stdio_output@@V?$format_validation_base@DV?$string_output_adapter@D@__crt_stdio_output@@@2@@__crt_stdio_output@@AEAA_NXZ 00000001800815f0 f i libucrtd:output.obj
 0001:00080a50       ?type_case_a@?$output_processor@DV?$string_output_adapter@D@__crt_stdio_output@@V?$positional_parameter_base@DV?$string_output_adapter@D@__crt_stdio_output@@@2@@__crt_stdio_output@@AEAA_NXZ 0000000180081a50 f i libucrtd:output.obj
 0001:00080eb0       ?type_case_a@?$output_processor@DV?$string_output_adapter@D@__crt_stdio_output@@V?$standard_base@DV?$string_output_adapter@D@__crt_stdio_output@@@2@@__crt_stdio_output@@AEAA_NXZ 0000000180081eb0 f i libucrtd:output.obj
 0001:00081310       ?type_case_a@?$output_processor@_WV?$stream_output_adapter@_W@__crt_stdio_output@@V?$format_validation_base@_WV?$stream_output_adapter@_W@__crt_stdio_output@@@2@@__crt_stdio_output@@AEAA_NXZ 0000000180082310 f i libucrtd:output.obj
 0001:00081780       ?type_case_a@?$output_processor@_WV?$stream_output_adapter@_W@__crt_stdio_output@@V?$positional_parameter_base@_WV?$stream_output_adapter@_W@__crt_stdio_output@@@2@@__crt_stdio_output@@AEAA_NXZ 0000000180082780 f i libucrtd:output.obj
 0001:00081bf0       ?type_case_a@?$output_processor@_WV?$stream_output_adapter@_W@__crt_stdio_output@@V?$standard_base@_WV?$stream_output_adapter@_W@__crt_stdio_output@@@2@@__crt_stdio_output@@AEAA_NXZ 0000000180082bf0 f i libucrtd:output.obj
 0001:00082060       ?type_case_a@?$output_processor@_WV?$string_output_adapter@_W@__crt_stdio_output@@V?$format_validation_base@_WV?$string_output_adapter@_W@__crt_stdio_output@@@2@@__crt_stdio_output@@AEAA_NXZ 0000000180083060 f i libucrtd:output.obj
 0001:000824d0       ?type_case_a@?$output_processor@_WV?$string_output_adapter@_W@__crt_stdio_output@@V?$positional_parameter_base@_WV?$string_output_adapter@_W@__crt_stdio_output@@@2@@__crt_stdio_output@@AEAA_NXZ 00000001800834d0 f i libucrtd:output.obj
 0001:00082940       ?type_case_a@?$output_processor@_WV?$string_output_adapter@_W@__crt_stdio_output@@V?$standard_base@_WV?$string_output_adapter@_W@__crt_stdio_output@@@2@@__crt_stdio_output@@AEAA_NXZ 0000000180083940 f i libucrtd:output.obj
 0001:00082db0       ?type_case_c@?$output_processor@DV?$stream_output_adapter@D@__crt_stdio_output@@V?$format_validation_base@DV?$stream_output_adapter@D@__crt_stdio_output@@@2@@__crt_stdio_output@@AEAA_NXZ 0000000180083db0 f i libucrtd:output.obj
 0001:00082dd0       ?type_case_c@?$output_processor@DV?$stream_output_adapter@D@__crt_stdio_output@@V?$positional_parameter_base@DV?$stream_output_adapter@D@__crt_stdio_output@@@2@@__crt_stdio_output@@AEAA_NXZ 0000000180083dd0 f i libucrtd:output.obj
 0001:00082df0       ?type_case_c@?$output_processor@DV?$stream_output_adapter@D@__crt_stdio_output@@V?$standard_base@DV?$stream_output_adapter@D@__crt_stdio_output@@@2@@__crt_stdio_output@@AEAA_NXZ 0000000180083df0 f i libucrtd:output.obj
 0001:00082e10       ?type_case_c@?$output_processor@DV?$string_output_adapter@D@__crt_stdio_output@@V?$format_validation_base@DV?$string_output_adapter@D@__crt_stdio_output@@@2@@__crt_stdio_output@@AEAA_NXZ 0000000180083e10 f i libucrtd:output.obj
 0001:00082e30       ?type_case_c@?$output_processor@DV?$string_output_adapter@D@__crt_stdio_output@@V?$positional_parameter_base@DV?$string_output_adapter@D@__crt_stdio_output@@@2@@__crt_stdio_output@@AEAA_NXZ 0000000180083e30 f i libucrtd:output.obj
 0001:00082e50       ?type_case_c@?$output_processor@DV?$string_output_adapter@D@__crt_stdio_output@@V?$standard_base@DV?$string_output_adapter@D@__crt_stdio_output@@@2@@__crt_stdio_output@@AEAA_NXZ 0000000180083e50 f i libucrtd:output.obj
 0001:00082e70       ?type_case_c@?$output_processor@_WV?$stream_output_adapter@_W@__crt_stdio_output@@V?$format_validation_base@_WV?$stream_output_adapter@_W@__crt_stdio_output@@@2@@__crt_stdio_output@@AEAA_NXZ 0000000180083e70 f i libucrtd:output.obj
 0001:00082e90       ?type_case_c@?$output_processor@_WV?$stream_output_adapter@_W@__crt_stdio_output@@V?$positional_parameter_base@_WV?$stream_output_adapter@_W@__crt_stdio_output@@@2@@__crt_stdio_output@@AEAA_NXZ 0000000180083e90 f i libucrtd:output.obj
 0001:00082eb0       ?type_case_c@?$output_processor@_WV?$stream_output_adapter@_W@__crt_stdio_output@@V?$standard_base@_WV?$stream_output_adapter@_W@__crt_stdio_output@@@2@@__crt_stdio_output@@AEAA_NXZ 0000000180083eb0 f i libucrtd:output.obj
 0001:00082ed0       ?type_case_c@?$output_processor@_WV?$string_output_adapter@_W@__crt_stdio_output@@V?$format_validation_base@_WV?$string_output_adapter@_W@__crt_stdio_output@@@2@@__crt_stdio_output@@AEAA_NXZ 0000000180083ed0 f i libucrtd:output.obj
 0001:00082ef0       ?type_case_c@?$output_processor@_WV?$string_output_adapter@_W@__crt_stdio_output@@V?$positional_parameter_base@_WV?$string_output_adapter@_W@__crt_stdio_output@@@2@@__crt_stdio_output@@AEAA_NXZ 0000000180083ef0 f i libucrtd:output.obj
 0001:00082f10       ?type_case_c@?$output_processor@_WV?$string_output_adapter@_W@__crt_stdio_output@@V?$standard_base@_WV?$string_output_adapter@_W@__crt_stdio_output@@@2@@__crt_stdio_output@@AEAA_NXZ 0000000180083f10 f i libucrtd:output.obj
 0001:00082f30       ?type_case_c_tchar@?$output_processor@DV?$stream_output_adapter@D@__crt_stdio_output@@V?$format_validation_base@DV?$stream_output_adapter@D@__crt_stdio_output@@@2@@__crt_stdio_output@@AEAA_ND@Z 0000000180083f30 f i libucrtd:output.obj
 0001:000830a0       ?type_case_c_tchar@?$output_processor@DV?$stream_output_adapter@D@__crt_stdio_output@@V?$positional_parameter_base@DV?$stream_output_adapter@D@__crt_stdio_output@@@2@@__crt_stdio_output@@AEAA_ND@Z 00000001800840a0 f i libucrtd:output.obj
 0001:00083210       ?type_case_c_tchar@?$output_processor@DV?$stream_output_adapter@D@__crt_stdio_output@@V?$standard_base@DV?$stream_output_adapter@D@__crt_stdio_output@@@2@@__crt_stdio_output@@AEAA_ND@Z 0000000180084210 f i libucrtd:output.obj
 0001:00083380       ?type_case_c_tchar@?$output_processor@DV?$string_output_adapter@D@__crt_stdio_output@@V?$format_validation_base@DV?$string_output_adapter@D@__crt_stdio_output@@@2@@__crt_stdio_output@@AEAA_ND@Z 0000000180084380 f i libucrtd:output.obj
 0001:000834f0       ?type_case_c_tchar@?$output_processor@DV?$string_output_adapter@D@__crt_stdio_output@@V?$positional_parameter_base@DV?$string_output_adapter@D@__crt_stdio_output@@@2@@__crt_stdio_output@@AEAA_ND@Z 00000001800844f0 f i libucrtd:output.obj
 0001:00083660       ?type_case_c_tchar@?$output_processor@DV?$string_output_adapter@D@__crt_stdio_output@@V?$standard_base@DV?$string_output_adapter@D@__crt_stdio_output@@@2@@__crt_stdio_output@@AEAA_ND@Z 0000000180084660 f i libucrtd:output.obj
 0001:000837d0       ?type_case_c_tchar@?$output_processor@_WV?$stream_output_adapter@_W@__crt_stdio_output@@V?$format_validation_base@_WV?$stream_output_adapter@_W@__crt_stdio_output@@@2@@__crt_stdio_output@@AEAA_N_W@Z 00000001800847d0 f i libucrtd:output.obj
 0001:00083930       ?type_case_c_tchar@?$output_processor@_WV?$stream_output_adapter@_W@__crt_stdio_output@@V?$positional_parameter_base@_WV?$stream_output_adapter@_W@__crt_stdio_output@@@2@@__crt_stdio_output@@AEAA_N_W@Z 0000000180084930 f i libucrtd:output.obj
 0001:00083a90       ?type_case_c_tchar@?$output_processor@_WV?$stream_output_adapter@_W@__crt_stdio_output@@V?$standard_base@_WV?$stream_output_adapter@_W@__crt_stdio_output@@@2@@__crt_stdio_output@@AEAA_N_W@Z 0000000180084a90 f i libucrtd:output.obj
 0001:00083bf0       ?type_case_c_tchar@?$output_processor@_WV?$string_output_adapter@_W@__crt_stdio_output@@V?$format_validation_base@_WV?$string_output_adapter@_W@__crt_stdio_output@@@2@@__crt_stdio_output@@AEAA_N_W@Z 0000000180084bf0 f i libucrtd:output.obj
 0001:00083d50       ?type_case_c_tchar@?$output_processor@_WV?$string_output_adapter@_W@__crt_stdio_output@@V?$positional_parameter_base@_WV?$string_output_adapter@_W@__crt_stdio_output@@@2@@__crt_stdio_output@@AEAA_N_W@Z 0000000180084d50 f i libucrtd:output.obj
 0001:00083eb0       ?type_case_c_tchar@?$output_processor@_WV?$string_output_adapter@_W@__crt_stdio_output@@V?$standard_base@_WV?$string_output_adapter@_W@__crt_stdio_output@@@2@@__crt_stdio_output@@AEAA_N_W@Z 0000000180084eb0 f i libucrtd:output.obj
 0001:00084010       ?type_case_d@?$output_processor@DV?$stream_output_adapter@D@__crt_stdio_output@@V?$format_validation_base@DV?$stream_output_adapter@D@__crt_stdio_output@@@2@@__crt_stdio_output@@AEAA_NXZ 0000000180085010 f i libucrtd:output.obj
 0001:00084040       ?type_case_d@?$output_processor@DV?$stream_output_adapter@D@__crt_stdio_output@@V?$positional_parameter_base@DV?$stream_output_adapter@D@__crt_stdio_output@@@2@@__crt_stdio_output@@AEAA_NXZ 0000000180085040 f i libucrtd:output.obj
 0001:00084070       ?type_case_d@?$output_processor@DV?$stream_output_adapter@D@__crt_stdio_output@@V?$standard_base@DV?$stream_output_adapter@D@__crt_stdio_output@@@2@@__crt_stdio_output@@AEAA_NXZ 0000000180085070 f i libucrtd:output.obj
 0001:000840a0       ?type_case_d@?$output_processor@DV?$string_output_adapter@D@__crt_stdio_output@@V?$format_validation_base@DV?$string_output_adapter@D@__crt_stdio_output@@@2@@__crt_stdio_output@@AEAA_NXZ 00000001800850a0 f i libucrtd:output.obj
 0001:000840d0       ?type_case_d@?$output_processor@DV?$string_output_adapter@D@__crt_stdio_output@@V?$positional_parameter_base@DV?$string_output_adapter@D@__crt_stdio_output@@@2@@__crt_stdio_output@@AEAA_NXZ 00000001800850d0 f i libucrtd:output.obj
 0001:00084100       ?type_case_d@?$output_processor@DV?$string_output_adapter@D@__crt_stdio_output@@V?$standard_base@DV?$string_output_adapter@D@__crt_stdio_output@@@2@@__crt_stdio_output@@AEAA_NXZ 0000000180085100 f i libucrtd:output.obj
 0001:00084130       ?type_case_d@?$output_processor@_WV?$stream_output_adapter@_W@__crt_stdio_output@@V?$format_validation_base@_WV?$stream_output_adapter@_W@__crt_stdio_output@@@2@@__crt_stdio_output@@AEAA_NXZ 0000000180085130 f i libucrtd:output.obj
 0001:00084160       ?type_case_d@?$output_processor@_WV?$stream_output_adapter@_W@__crt_stdio_output@@V?$positional_parameter_base@_WV?$stream_output_adapter@_W@__crt_stdio_output@@@2@@__crt_stdio_output@@AEAA_NXZ 0000000180085160 f i libucrtd:output.obj
 0001:00084190       ?type_case_d@?$output_processor@_WV?$stream_output_adapter@_W@__crt_stdio_output@@V?$standard_base@_WV?$stream_output_adapter@_W@__crt_stdio_output@@@2@@__crt_stdio_output@@AEAA_NXZ 0000000180085190 f i libucrtd:output.obj
 0001:000841c0       ?type_case_d@?$output_processor@_WV?$string_output_adapter@_W@__crt_stdio_output@@V?$format_validation_base@_WV?$string_output_adapter@_W@__crt_stdio_output@@@2@@__crt_stdio_output@@AEAA_NXZ 00000001800851c0 f i libucrtd:output.obj
 0001:000841f0       ?type_case_d@?$output_processor@_WV?$string_output_adapter@_W@__crt_stdio_output@@V?$positional_parameter_base@_WV?$string_output_adapter@_W@__crt_stdio_output@@@2@@__crt_stdio_output@@AEAA_NXZ 00000001800851f0 f i libucrtd:output.obj
 0001:00084220       ?type_case_d@?$output_processor@_WV?$string_output_adapter@_W@__crt_stdio_output@@V?$standard_base@_WV?$string_output_adapter@_W@__crt_stdio_output@@@2@@__crt_stdio_output@@AEAA_NXZ 0000000180085220 f i libucrtd:output.obj
 0001:00084250       ?type_case_n@?$output_processor@DV?$stream_output_adapter@D@__crt_stdio_output@@V?$format_validation_base@DV?$stream_output_adapter@D@__crt_stdio_output@@@2@@__crt_stdio_output@@AEAA_NXZ 0000000180085250 f i libucrtd:output.obj
 0001:000844e0       ?type_case_n@?$output_processor@DV?$stream_output_adapter@D@__crt_stdio_output@@V?$positional_parameter_base@DV?$stream_output_adapter@D@__crt_stdio_output@@@2@@__crt_stdio_output@@AEAA_NXZ 00000001800854e0 f i libucrtd:output.obj
 0001:00084770       ?type_case_n@?$output_processor@DV?$stream_output_adapter@D@__crt_stdio_output@@V?$standard_base@DV?$stream_output_adapter@D@__crt_stdio_output@@@2@@__crt_stdio_output@@AEAA_NXZ 0000000180085770 f i libucrtd:output.obj
 0001:00084a00       ?type_case_n@?$output_processor@DV?$string_output_adapter@D@__crt_stdio_output@@V?$format_validation_base@DV?$string_output_adapter@D@__crt_stdio_output@@@2@@__crt_stdio_output@@AEAA_NXZ 0000000180085a00 f i libucrtd:output.obj
 0001:00084c90       ?type_case_n@?$output_processor@DV?$string_output_adapter@D@__crt_stdio_output@@V?$positional_parameter_base@DV?$string_output_adapter@D@__crt_stdio_output@@@2@@__crt_stdio_output@@AEAA_NXZ 0000000180085c90 f i libucrtd:output.obj
 0001:00084f20       ?type_case_n@?$output_processor@DV?$string_output_adapter@D@__crt_stdio_output@@V?$standard_base@DV?$string_output_adapter@D@__crt_stdio_output@@@2@@__crt_stdio_output@@AEAA_NXZ 0000000180085f20 f i libucrtd:output.obj
 0001:000851b0       ?type_case_n@?$output_processor@_WV?$stream_output_adapter@_W@__crt_stdio_output@@V?$format_validation_base@_WV?$stream_output_adapter@_W@__crt_stdio_output@@@2@@__crt_stdio_output@@AEAA_NXZ 00000001800861b0 f i libucrtd:output.obj
 0001:00085440       ?type_case_n@?$output_processor@_WV?$stream_output_adapter@_W@__crt_stdio_output@@V?$positional_parameter_base@_WV?$stream_output_adapter@_W@__crt_stdio_output@@@2@@__crt_stdio_output@@AEAA_NXZ 0000000180086440 f i libucrtd:output.obj
 0001:000856d0       ?type_case_n@?$output_processor@_WV?$stream_output_adapter@_W@__crt_stdio_output@@V?$standard_base@_WV?$stream_output_adapter@_W@__crt_stdio_output@@@2@@__crt_stdio_output@@AEAA_NXZ 00000001800866d0 f i libucrtd:output.obj
 0001:00085960       ?type_case_n@?$output_processor@_WV?$string_output_adapter@_W@__crt_stdio_output@@V?$format_validation_base@_WV?$string_output_adapter@_W@__crt_stdio_output@@@2@@__crt_stdio_output@@AEAA_NXZ 0000000180086960 f i libucrtd:output.obj
 0001:00085bf0       ?type_case_n@?$output_processor@_WV?$string_output_adapter@_W@__crt_stdio_output@@V?$positional_parameter_base@_WV?$string_output_adapter@_W@__crt_stdio_output@@@2@@__crt_stdio_output@@AEAA_NXZ 0000000180086bf0 f i libucrtd:output.obj
 0001:00085e80       ?type_case_n@?$output_processor@_WV?$string_output_adapter@_W@__crt_stdio_output@@V?$standard_base@_WV?$string_output_adapter@_W@__crt_stdio_output@@@2@@__crt_stdio_output@@AEAA_NXZ 0000000180086e80 f i libucrtd:output.obj
 0001:00086110       ?type_case_o@?$output_processor@DV?$stream_output_adapter@D@__crt_stdio_output@@V?$format_validation_base@DV?$stream_output_adapter@D@__crt_stdio_output@@@2@@__crt_stdio_output@@AEAA_NXZ 0000000180087110 f i libucrtd:output.obj
 0001:00086150       ?type_case_o@?$output_processor@DV?$stream_output_adapter@D@__crt_stdio_output@@V?$positional_parameter_base@DV?$stream_output_adapter@D@__crt_stdio_output@@@2@@__crt_stdio_output@@AEAA_NXZ 0000000180087150 f i libucrtd:output.obj
 0001:00086190       ?type_case_o@?$output_processor@DV?$stream_output_adapter@D@__crt_stdio_output@@V?$standard_base@DV?$stream_output_adapter@D@__crt_stdio_output@@@2@@__crt_stdio_output@@AEAA_NXZ 0000000180087190 f i libucrtd:output.obj
 0001:000861d0       ?type_case_o@?$output_processor@DV?$string_output_adapter@D@__crt_stdio_output@@V?$format_validation_base@DV?$string_output_adapter@D@__crt_stdio_output@@@2@@__crt_stdio_output@@AEAA_NXZ 00000001800871d0 f i libucrtd:output.obj
 0001:00086210       ?type_case_o@?$output_processor@DV?$string_output_adapter@D@__crt_stdio_output@@V?$positional_parameter_base@DV?$string_output_adapter@D@__crt_stdio_output@@@2@@__crt_stdio_output@@AEAA_NXZ 0000000180087210 f i libucrtd:output.obj
 0001:00086250       ?type_case_o@?$output_processor@DV?$string_output_adapter@D@__crt_stdio_output@@V?$standard_base@DV?$string_output_adapter@D@__crt_stdio_output@@@2@@__crt_stdio_output@@AEAA_NXZ 0000000180087250 f i libucrtd:output.obj
 0001:00086290       ?type_case_o@?$output_processor@_WV?$stream_output_adapter@_W@__crt_stdio_output@@V?$format_validation_base@_WV?$stream_output_adapter@_W@__crt_stdio_output@@@2@@__crt_stdio_output@@AEAA_NXZ 0000000180087290 f i libucrtd:output.obj
 0001:000862d0       ?type_case_o@?$output_processor@_WV?$stream_output_adapter@_W@__crt_stdio_output@@V?$positional_parameter_base@_WV?$stream_output_adapter@_W@__crt_stdio_output@@@2@@__crt_stdio_output@@AEAA_NXZ 00000001800872d0 f i libucrtd:output.obj
 0001:00086310       ?type_case_o@?$output_processor@_WV?$stream_output_adapter@_W@__crt_stdio_output@@V?$standard_base@_WV?$stream_output_adapter@_W@__crt_stdio_output@@@2@@__crt_stdio_output@@AEAA_NXZ 0000000180087310 f i libucrtd:output.obj
 0001:00086350       ?type_case_o@?$output_processor@_WV?$string_output_adapter@_W@__crt_stdio_output@@V?$format_validation_base@_WV?$string_output_adapter@_W@__crt_stdio_output@@@2@@__crt_stdio_output@@AEAA_NXZ 0000000180087350 f i libucrtd:output.obj
 0001:00086390       ?type_case_o@?$output_processor@_WV?$string_output_adapter@_W@__crt_stdio_output@@V?$positional_parameter_base@_WV?$string_output_adapter@_W@__crt_stdio_output@@@2@@__crt_stdio_output@@AEAA_NXZ 0000000180087390 f i libucrtd:output.obj
 0001:000863d0       ?type_case_o@?$output_processor@_WV?$string_output_adapter@_W@__crt_stdio_output@@V?$standard_base@_WV?$string_output_adapter@_W@__crt_stdio_output@@@2@@__crt_stdio_output@@AEAA_NXZ 00000001800873d0 f i libucrtd:output.obj
 0001:00086410       ?type_case_p@?$output_processor@DV?$stream_output_adapter@D@__crt_stdio_output@@V?$format_validation_base@DV?$stream_output_adapter@D@__crt_stdio_output@@@2@@__crt_stdio_output@@AEAA_NXZ 0000000180087410 f i libucrtd:output.obj
 0001:00086450       ?type_case_p@?$output_processor@DV?$stream_output_adapter@D@__crt_stdio_output@@V?$positional_parameter_base@DV?$stream_output_adapter@D@__crt_stdio_output@@@2@@__crt_stdio_output@@AEAA_NXZ 0000000180087450 f i libucrtd:output.obj
 0001:00086490       ?type_case_p@?$output_processor@DV?$stream_output_adapter@D@__crt_stdio_output@@V?$standard_base@DV?$stream_output_adapter@D@__crt_stdio_output@@@2@@__crt_stdio_output@@AEAA_NXZ 0000000180087490 f i libucrtd:output.obj
 0001:000864d0       ?type_case_p@?$output_processor@DV?$string_output_adapter@D@__crt_stdio_output@@V?$format_validation_base@DV?$string_output_adapter@D@__crt_stdio_output@@@2@@__crt_stdio_output@@AEAA_NXZ 00000001800874d0 f i libucrtd:output.obj
 0001:00086510       ?type_case_p@?$output_processor@DV?$string_output_adapter@D@__crt_stdio_output@@V?$positional_parameter_base@DV?$string_output_adapter@D@__crt_stdio_output@@@2@@__crt_stdio_output@@AEAA_NXZ 0000000180087510 f i libucrtd:output.obj
 0001:00086550       ?type_case_p@?$output_processor@DV?$string_output_adapter@D@__crt_stdio_output@@V?$standard_base@DV?$string_output_adapter@D@__crt_stdio_output@@@2@@__crt_stdio_output@@AEAA_NXZ 0000000180087550 f i libucrtd:output.obj
 0001:00086590       ?type_case_p@?$output_processor@_WV?$stream_output_adapter@_W@__crt_stdio_output@@V?$format_validation_base@_WV?$stream_output_adapter@_W@__crt_stdio_output@@@2@@__crt_stdio_output@@AEAA_NXZ 0000000180087590 f i libucrtd:output.obj
 0001:000865d0       ?type_case_p@?$output_processor@_WV?$stream_output_adapter@_W@__crt_stdio_output@@V?$positional_parameter_base@_WV?$stream_output_adapter@_W@__crt_stdio_output@@@2@@__crt_stdio_output@@AEAA_NXZ 00000001800875d0 f i libucrtd:output.obj
 0001:00086610       ?type_case_p@?$output_processor@_WV?$stream_output_adapter@_W@__crt_stdio_output@@V?$standard_base@_WV?$stream_output_adapter@_W@__crt_stdio_output@@@2@@__crt_stdio_output@@AEAA_NXZ 0000000180087610 f i libucrtd:output.obj
 0001:00086650       ?type_case_p@?$output_processor@_WV?$string_output_adapter@_W@__crt_stdio_output@@V?$format_validation_base@_WV?$string_output_adapter@_W@__crt_stdio_output@@@2@@__crt_stdio_output@@AEAA_NXZ 0000000180087650 f i libucrtd:output.obj
 0001:00086690       ?type_case_p@?$output_processor@_WV?$string_output_adapter@_W@__crt_stdio_output@@V?$positional_parameter_base@_WV?$string_output_adapter@_W@__crt_stdio_output@@@2@@__crt_stdio_output@@AEAA_NXZ 0000000180087690 f i libucrtd:output.obj
 0001:000866d0       ?type_case_p@?$output_processor@_WV?$string_output_adapter@_W@__crt_stdio_output@@V?$standard_base@_WV?$string_output_adapter@_W@__crt_stdio_output@@@2@@__crt_stdio_output@@AEAA_NXZ 00000001800876d0 f i libucrtd:output.obj
 0001:00086710       ?type_case_s@?$output_processor@DV?$stream_output_adapter@D@__crt_stdio_output@@V?$format_validation_base@DV?$stream_output_adapter@D@__crt_stdio_output@@@2@@__crt_stdio_output@@AEAA_NXZ 0000000180087710 f i libucrtd:output.obj
 0001:00086830       ?type_case_s@?$output_processor@DV?$stream_output_adapter@D@__crt_stdio_output@@V?$positional_parameter_base@DV?$stream_output_adapter@D@__crt_stdio_output@@@2@@__crt_stdio_output@@AEAA_NXZ 0000000180087830 f i libucrtd:output.obj
 0001:00086950       ?type_case_s@?$output_processor@DV?$stream_output_adapter@D@__crt_stdio_output@@V?$standard_base@DV?$stream_output_adapter@D@__crt_stdio_output@@@2@@__crt_stdio_output@@AEAA_NXZ 0000000180087950 f i libucrtd:output.obj
 0001:00086a70       ?type_case_s@?$output_processor@DV?$string_output_adapter@D@__crt_stdio_output@@V?$format_validation_base@DV?$string_output_adapter@D@__crt_stdio_output@@@2@@__crt_stdio_output@@AEAA_NXZ 0000000180087a70 f i libucrtd:output.obj
 0001:00086b90       ?type_case_s@?$output_processor@DV?$string_output_adapter@D@__crt_stdio_output@@V?$positional_parameter_base@DV?$string_output_adapter@D@__crt_stdio_output@@@2@@__crt_stdio_output@@AEAA_NXZ 0000000180087b90 f i libucrtd:output.obj
 0001:00086cb0       ?type_case_s@?$output_processor@DV?$string_output_adapter@D@__crt_stdio_output@@V?$standard_base@DV?$string_output_adapter@D@__crt_stdio_output@@@2@@__crt_stdio_output@@AEAA_NXZ 0000000180087cb0 f i libucrtd:output.obj
 0001:00086dd0       ?type_case_s@?$output_processor@_WV?$stream_output_adapter@_W@__crt_stdio_output@@V?$format_validation_base@_WV?$stream_output_adapter@_W@__crt_stdio_output@@@2@@__crt_stdio_output@@AEAA_NXZ 0000000180087dd0 f i libucrtd:output.obj
 0001:00086ef0       ?type_case_s@?$output_processor@_WV?$stream_output_adapter@_W@__crt_stdio_output@@V?$positional_parameter_base@_WV?$stream_output_adapter@_W@__crt_stdio_output@@@2@@__crt_stdio_output@@AEAA_NXZ 0000000180087ef0 f i libucrtd:output.obj
 0001:00087010       ?type_case_s@?$output_processor@_WV?$stream_output_adapter@_W@__crt_stdio_output@@V?$standard_base@_WV?$stream_output_adapter@_W@__crt_stdio_output@@@2@@__crt_stdio_output@@AEAA_NXZ 0000000180088010 f i libucrtd:output.obj
 0001:00087130       ?type_case_s@?$output_processor@_WV?$string_output_adapter@_W@__crt_stdio_output@@V?$format_validation_base@_WV?$string_output_adapter@_W@__crt_stdio_output@@@2@@__crt_stdio_output@@AEAA_NXZ 0000000180088130 f i libucrtd:output.obj
 0001:00087250       ?type_case_s@?$output_processor@_WV?$string_output_adapter@_W@__crt_stdio_output@@V?$positional_parameter_base@_WV?$string_output_adapter@_W@__crt_stdio_output@@@2@@__crt_stdio_output@@AEAA_NXZ 0000000180088250 f i libucrtd:output.obj
 0001:00087370       ?type_case_s@?$output_processor@_WV?$string_output_adapter@_W@__crt_stdio_output@@V?$standard_base@_WV?$string_output_adapter@_W@__crt_stdio_output@@@2@@__crt_stdio_output@@AEAA_NXZ 0000000180088370 f i libucrtd:output.obj
 0001:00087490       ?type_case_s_compute_narrow_string_length@?$output_processor@DV?$stream_output_adapter@D@__crt_stdio_output@@V?$format_validation_base@DV?$stream_output_adapter@D@__crt_stdio_output@@@2@@__crt_stdio_output@@AEAAHHD@Z 0000000180088490 f i libucrtd:output.obj
 0001:000874c0       ?type_case_s_compute_narrow_string_length@?$output_processor@DV?$stream_output_adapter@D@__crt_stdio_output@@V?$positional_parameter_base@DV?$stream_output_adapter@D@__crt_stdio_output@@@2@@__crt_stdio_output@@AEAAHHD@Z 00000001800884c0 f i libucrtd:output.obj
 0001:000874f0       ?type_case_s_compute_narrow_string_length@?$output_processor@DV?$stream_output_adapter@D@__crt_stdio_output@@V?$standard_base@DV?$stream_output_adapter@D@__crt_stdio_output@@@2@@__crt_stdio_output@@AEAAHHD@Z 00000001800884f0 f i libucrtd:output.obj
 0001:00087520       ?type_case_s_compute_narrow_string_length@?$output_processor@DV?$string_output_adapter@D@__crt_stdio_output@@V?$format_validation_base@DV?$string_output_adapter@D@__crt_stdio_output@@@2@@__crt_stdio_output@@AEAAHHD@Z 0000000180088520 f i libucrtd:output.obj
 0001:00087550       ?type_case_s_compute_narrow_string_length@?$output_processor@DV?$string_output_adapter@D@__crt_stdio_output@@V?$positional_parameter_base@DV?$string_output_adapter@D@__crt_stdio_output@@@2@@__crt_stdio_output@@AEAAHHD@Z 0000000180088550 f i libucrtd:output.obj
 0001:00087580       ?type_case_s_compute_narrow_string_length@?$output_processor@DV?$string_output_adapter@D@__crt_stdio_output@@V?$standard_base@DV?$string_output_adapter@D@__crt_stdio_output@@@2@@__crt_stdio_output@@AEAAHHD@Z 0000000180088580 f i libucrtd:output.obj
 0001:000875b0       ?type_case_s_compute_narrow_string_length@?$output_processor@_WV?$stream_output_adapter@_W@__crt_stdio_output@@V?$format_validation_base@_WV?$stream_output_adapter@_W@__crt_stdio_output@@@2@@__crt_stdio_output@@AEAAHH_W@Z 00000001800885b0 f i libucrtd:output.obj
 0001:00087650       ?type_case_s_compute_narrow_string_length@?$output_processor@_WV?$stream_output_adapter@_W@__crt_stdio_output@@V?$positional_parameter_base@_WV?$stream_output_adapter@_W@__crt_stdio_output@@@2@@__crt_stdio_output@@AEAAHH_W@Z 0000000180088650 f i libucrtd:output.obj
 0001:000876f0       ?type_case_s_compute_narrow_string_length@?$output_processor@_WV?$stream_output_adapter@_W@__crt_stdio_output@@V?$standard_base@_WV?$stream_output_adapter@_W@__crt_stdio_output@@@2@@__crt_stdio_output@@AEAAHH_W@Z 00000001800886f0 f i libucrtd:output.obj
 0001:00087790       ?type_case_s_compute_narrow_string_length@?$output_processor@_WV?$string_output_adapter@_W@__crt_stdio_output@@V?$format_validation_base@_WV?$string_output_adapter@_W@__crt_stdio_output@@@2@@__crt_stdio_output@@AEAAHH_W@Z 0000000180088790 f i libucrtd:output.obj
 0001:00087830       ?type_case_s_compute_narrow_string_length@?$output_processor@_WV?$string_output_adapter@_W@__crt_stdio_output@@V?$positional_parameter_base@_WV?$string_output_adapter@_W@__crt_stdio_output@@@2@@__crt_stdio_output@@AEAAHH_W@Z 0000000180088830 f i libucrtd:output.obj
 0001:000878d0       ?type_case_s_compute_narrow_string_length@?$output_processor@_WV?$string_output_adapter@_W@__crt_stdio_output@@V?$standard_base@_WV?$string_output_adapter@_W@__crt_stdio_output@@@2@@__crt_stdio_output@@AEAAHH_W@Z 00000001800888d0 f i libucrtd:output.obj
 0001:00087970       ?type_case_u@?$output_processor@DV?$stream_output_adapter@D@__crt_stdio_output@@V?$format_validation_base@DV?$stream_output_adapter@D@__crt_stdio_output@@@2@@__crt_stdio_output@@AEAA_NXZ 0000000180088970 f i libucrtd:output.obj
 0001:00087990       ?type_case_u@?$output_processor@DV?$stream_output_adapter@D@__crt_stdio_output@@V?$positional_parameter_base@DV?$stream_output_adapter@D@__crt_stdio_output@@@2@@__crt_stdio_output@@AEAA_NXZ 0000000180088990 f i libucrtd:output.obj
 0001:000879b0       ?type_case_u@?$output_processor@DV?$stream_output_adapter@D@__crt_stdio_output@@V?$standard_base@DV?$stream_output_adapter@D@__crt_stdio_output@@@2@@__crt_stdio_output@@AEAA_NXZ 00000001800889b0 f i libucrtd:output.obj
 0001:000879d0       ?type_case_u@?$output_processor@DV?$string_output_adapter@D@__crt_stdio_output@@V?$format_validation_base@DV?$string_output_adapter@D@__crt_stdio_output@@@2@@__crt_stdio_output@@AEAA_NXZ 00000001800889d0 f i libucrtd:output.obj
 0001:000879f0       ?type_case_u@?$output_processor@DV?$string_output_adapter@D@__crt_stdio_output@@V?$positional_parameter_base@DV?$string_output_adapter@D@__crt_stdio_output@@@2@@__crt_stdio_output@@AEAA_NXZ 00000001800889f0 f i libucrtd:output.obj
 0001:00087a10       ?type_case_u@?$output_processor@DV?$string_output_adapter@D@__crt_stdio_output@@V?$standard_base@DV?$string_output_adapter@D@__crt_stdio_output@@@2@@__crt_stdio_output@@AEAA_NXZ 0000000180088a10 f i libucrtd:output.obj
 0001:00087a30       ?type_case_u@?$output_processor@_WV?$stream_output_adapter@_W@__crt_stdio_output@@V?$format_validation_base@_WV?$stream_output_adapter@_W@__crt_stdio_output@@@2@@__crt_stdio_output@@AEAA_NXZ 0000000180088a30 f i libucrtd:output.obj
 0001:00087a50       ?type_case_u@?$output_processor@_WV?$stream_output_adapter@_W@__crt_stdio_output@@V?$positional_parameter_base@_WV?$stream_output_adapter@_W@__crt_stdio_output@@@2@@__crt_stdio_output@@AEAA_NXZ 0000000180088a50 f i libucrtd:output.obj
 0001:00087a70       ?type_case_u@?$output_processor@_WV?$stream_output_adapter@_W@__crt_stdio_output@@V?$standard_base@_WV?$stream_output_adapter@_W@__crt_stdio_output@@@2@@__crt_stdio_output@@AEAA_NXZ 0000000180088a70 f i libucrtd:output.obj
 0001:00087a90       ?type_case_u@?$output_processor@_WV?$string_output_adapter@_W@__crt_stdio_output@@V?$format_validation_base@_WV?$string_output_adapter@_W@__crt_stdio_output@@@2@@__crt_stdio_output@@AEAA_NXZ 0000000180088a90 f i libucrtd:output.obj
 0001:00087ab0       ?type_case_u@?$output_processor@_WV?$string_output_adapter@_W@__crt_stdio_output@@V?$positional_parameter_base@_WV?$string_output_adapter@_W@__crt_stdio_output@@@2@@__crt_stdio_output@@AEAA_NXZ 0000000180088ab0 f i libucrtd:output.obj
 0001:00087ad0       ?type_case_u@?$output_processor@_WV?$string_output_adapter@_W@__crt_stdio_output@@V?$standard_base@_WV?$string_output_adapter@_W@__crt_stdio_output@@@2@@__crt_stdio_output@@AEAA_NXZ 0000000180088ad0 f i libucrtd:output.obj
 0001:00087af0       ?type_case_x@?$output_processor@DV?$stream_output_adapter@D@__crt_stdio_output@@V?$format_validation_base@DV?$stream_output_adapter@D@__crt_stdio_output@@@2@@__crt_stdio_output@@AEAA_NXZ 0000000180088af0 f i libucrtd:output.obj
 0001:00087b10       ?type_case_x@?$output_processor@DV?$stream_output_adapter@D@__crt_stdio_output@@V?$positional_parameter_base@DV?$stream_output_adapter@D@__crt_stdio_output@@@2@@__crt_stdio_output@@AEAA_NXZ 0000000180088b10 f i libucrtd:output.obj
 0001:00087b30       ?type_case_x@?$output_processor@DV?$stream_output_adapter@D@__crt_stdio_output@@V?$standard_base@DV?$stream_output_adapter@D@__crt_stdio_output@@@2@@__crt_stdio_output@@AEAA_NXZ 0000000180088b30 f i libucrtd:output.obj
 0001:00087b50       ?type_case_x@?$output_processor@DV?$string_output_adapter@D@__crt_stdio_output@@V?$format_validation_base@DV?$string_output_adapter@D@__crt_stdio_output@@@2@@__crt_stdio_output@@AEAA_NXZ 0000000180088b50 f i libucrtd:output.obj
 0001:00087b70       ?type_case_x@?$output_processor@DV?$string_output_adapter@D@__crt_stdio_output@@V?$positional_parameter_base@DV?$string_output_adapter@D@__crt_stdio_output@@@2@@__crt_stdio_output@@AEAA_NXZ 0000000180088b70 f i libucrtd:output.obj
 0001:00087b90       ?type_case_x@?$output_processor@DV?$string_output_adapter@D@__crt_stdio_output@@V?$standard_base@DV?$string_output_adapter@D@__crt_stdio_output@@@2@@__crt_stdio_output@@AEAA_NXZ 0000000180088b90 f i libucrtd:output.obj
 0001:00087bb0       ?type_case_x@?$output_processor@_WV?$stream_output_adapter@_W@__crt_stdio_output@@V?$format_validation_base@_WV?$stream_output_adapter@_W@__crt_stdio_output@@@2@@__crt_stdio_output@@AEAA_NXZ 0000000180088bb0 f i libucrtd:output.obj
 0001:00087bd0       ?type_case_x@?$output_processor@_WV?$stream_output_adapter@_W@__crt_stdio_output@@V?$positional_parameter_base@_WV?$stream_output_adapter@_W@__crt_stdio_output@@@2@@__crt_stdio_output@@AEAA_NXZ 0000000180088bd0 f i libucrtd:output.obj
 0001:00087bf0       ?type_case_x@?$output_processor@_WV?$stream_output_adapter@_W@__crt_stdio_output@@V?$standard_base@_WV?$stream_output_adapter@_W@__crt_stdio_output@@@2@@__crt_stdio_output@@AEAA_NXZ 0000000180088bf0 f i libucrtd:output.obj
 0001:00087c10       ?type_case_x@?$output_processor@_WV?$string_output_adapter@_W@__crt_stdio_output@@V?$format_validation_base@_WV?$string_output_adapter@_W@__crt_stdio_output@@@2@@__crt_stdio_output@@AEAA_NXZ 0000000180088c10 f i libucrtd:output.obj
 0001:00087c30       ?type_case_x@?$output_processor@_WV?$string_output_adapter@_W@__crt_stdio_output@@V?$positional_parameter_base@_WV?$string_output_adapter@_W@__crt_stdio_output@@@2@@__crt_stdio_output@@AEAA_NXZ 0000000180088c30 f i libucrtd:output.obj
 0001:00087c50       ?type_case_x@?$output_processor@_WV?$string_output_adapter@_W@__crt_stdio_output@@V?$standard_base@_WV?$string_output_adapter@_W@__crt_stdio_output@@@2@@__crt_stdio_output@@AEAA_NXZ 0000000180088c50 f i libucrtd:output.obj
 0001:00087c70       ?unget@?$c_string_character_source@D@__crt_strtox@@QEAAXD@Z 0000000180088c70 f i libucrtd:output.obj
 0001:00087d50       ?unget@?$c_string_character_source@_W@__crt_strtox@@QEAAX_W@Z 0000000180088d50 f i libucrtd:output.obj
 0001:00087e30       ?unsafe_value@?$cached@H@__crt_cached_ptd_host@@QEAAHXZ 0000000180088e30 f i libucrtd:output.obj
 0001:00087e40       ?unsafe_value@?$cached@K@__crt_cached_ptd_host@@QEAAKXZ 0000000180088e40 f i libucrtd:output.obj
 0001:00087e50       ?unset_flag@?$output_processor@DV?$stream_output_adapter@D@__crt_stdio_output@@V?$format_validation_base@DV?$stream_output_adapter@D@__crt_stdio_output@@@2@@__crt_stdio_output@@AEAAXI@Z 0000000180088e50 f i libucrtd:output.obj
 0001:00087e80       ?unset_flag@?$output_processor@DV?$stream_output_adapter@D@__crt_stdio_output@@V?$positional_parameter_base@DV?$stream_output_adapter@D@__crt_stdio_output@@@2@@__crt_stdio_output@@AEAAXI@Z 0000000180088e80 f i libucrtd:output.obj
 0001:00087eb0       ?unset_flag@?$output_processor@DV?$stream_output_adapter@D@__crt_stdio_output@@V?$standard_base@DV?$stream_output_adapter@D@__crt_stdio_output@@@2@@__crt_stdio_output@@AEAAXI@Z 0000000180088eb0 f i libucrtd:output.obj
 0001:00087ee0       ?unset_flag@?$output_processor@DV?$string_output_adapter@D@__crt_stdio_output@@V?$format_validation_base@DV?$string_output_adapter@D@__crt_stdio_output@@@2@@__crt_stdio_output@@AEAAXI@Z 0000000180088ee0 f i libucrtd:output.obj
 0001:00087f10       ?unset_flag@?$output_processor@DV?$string_output_adapter@D@__crt_stdio_output@@V?$positional_parameter_base@DV?$string_output_adapter@D@__crt_stdio_output@@@2@@__crt_stdio_output@@AEAAXI@Z 0000000180088f10 f i libucrtd:output.obj
 0001:00087f40       ?unset_flag@?$output_processor@DV?$string_output_adapter@D@__crt_stdio_output@@V?$standard_base@DV?$string_output_adapter@D@__crt_stdio_output@@@2@@__crt_stdio_output@@AEAAXI@Z 0000000180088f40 f i libucrtd:output.obj
 0001:00087f70       ?unset_flag@?$output_processor@_WV?$stream_output_adapter@_W@__crt_stdio_output@@V?$format_validation_base@_WV?$stream_output_adapter@_W@__crt_stdio_output@@@2@@__crt_stdio_output@@AEAAXI@Z 0000000180088f70 f i libucrtd:output.obj
 0001:00087fa0       ?unset_flag@?$output_processor@_WV?$stream_output_adapter@_W@__crt_stdio_output@@V?$positional_parameter_base@_WV?$stream_output_adapter@_W@__crt_stdio_output@@@2@@__crt_stdio_output@@AEAAXI@Z 0000000180088fa0 f i libucrtd:output.obj
 0001:00087fd0       ?unset_flag@?$output_processor@_WV?$stream_output_adapter@_W@__crt_stdio_output@@V?$standard_base@_WV?$stream_output_adapter@_W@__crt_stdio_output@@@2@@__crt_stdio_output@@AEAAXI@Z 0000000180088fd0 f i libucrtd:output.obj
 0001:00088000       ?unset_flag@?$output_processor@_WV?$string_output_adapter@_W@__crt_stdio_output@@V?$format_validation_base@_WV?$string_output_adapter@_W@__crt_stdio_output@@@2@@__crt_stdio_output@@AEAAXI@Z 0000000180089000 f i libucrtd:output.obj
 0001:00088030       ?unset_flag@?$output_processor@_WV?$string_output_adapter@_W@__crt_stdio_output@@V?$positional_parameter_base@_WV?$string_output_adapter@_W@__crt_stdio_output@@@2@@__crt_stdio_output@@AEAAXI@Z 0000000180089030 f i libucrtd:output.obj
 0001:00088060       ?unset_flag@?$output_processor@_WV?$string_output_adapter@_W@__crt_stdio_output@@V?$standard_base@_WV?$string_output_adapter@_W@__crt_stdio_output@@@2@@__crt_stdio_output@@AEAAXI@Z 0000000180089060 f i libucrtd:output.obj
 0001:00088090       ?update_field_width@?$positional_parameter_base@DV?$stream_output_adapter@D@__crt_stdio_output@@@__crt_stdio_output@@IEAA_NXZ 0000000180089090 f i libucrtd:output.obj
 0001:00088290       ?update_field_width@?$positional_parameter_base@DV?$string_output_adapter@D@__crt_stdio_output@@@__crt_stdio_output@@IEAA_NXZ 0000000180089290 f i libucrtd:output.obj
 0001:00088490       ?update_field_width@?$positional_parameter_base@_WV?$stream_output_adapter@_W@__crt_stdio_output@@@__crt_stdio_output@@IEAA_NXZ 0000000180089490 f i libucrtd:output.obj
 0001:00088690       ?update_field_width@?$positional_parameter_base@_WV?$string_output_adapter@_W@__crt_stdio_output@@@__crt_stdio_output@@IEAA_NXZ 0000000180089690 f i libucrtd:output.obj
 0001:00088890       ?update_field_width@?$standard_base@DV?$stream_output_adapter@D@__crt_stdio_output@@@__crt_stdio_output@@IEAA_NXZ 0000000180089890 f i libucrtd:output.obj
 0001:000888c0       ?update_field_width@?$standard_base@DV?$string_output_adapter@D@__crt_stdio_output@@@__crt_stdio_output@@IEAA_NXZ 00000001800898c0 f i libucrtd:output.obj
 0001:000888f0       ?update_field_width@?$standard_base@_WV?$stream_output_adapter@_W@__crt_stdio_output@@@__crt_stdio_output@@IEAA_NXZ 00000001800898f0 f i libucrtd:output.obj
 0001:00088920       ?update_field_width@?$standard_base@_WV?$string_output_adapter@_W@__crt_stdio_output@@@__crt_stdio_output@@IEAA_NXZ 0000000180089920 f i libucrtd:output.obj
 0001:00088950       ?update_locale@__crt_cached_ptd_host@@AEAAXXZ 0000000180089950 f i libucrtd:output.obj
 0001:00088980       ?update_locale_slow@__crt_cached_ptd_host@@AEAAXXZ 0000000180089980 f i libucrtd:output.obj
 0001:00088a30       ?update_precision@?$positional_parameter_base@DV?$stream_output_adapter@D@__crt_stdio_output@@@__crt_stdio_output@@IEAA_NXZ 0000000180089a30 f i libucrtd:output.obj
 0001:00088c30       ?update_precision@?$positional_parameter_base@DV?$string_output_adapter@D@__crt_stdio_output@@@__crt_stdio_output@@IEAA_NXZ 0000000180089c30 f i libucrtd:output.obj
 0001:00088e30       ?update_precision@?$positional_parameter_base@_WV?$stream_output_adapter@_W@__crt_stdio_output@@@__crt_stdio_output@@IEAA_NXZ 0000000180089e30 f i libucrtd:output.obj
 0001:00089030       ?update_precision@?$positional_parameter_base@_WV?$string_output_adapter@_W@__crt_stdio_output@@@__crt_stdio_output@@IEAA_NXZ 000000018008a030 f i libucrtd:output.obj
 0001:00089230       ?update_precision@?$standard_base@DV?$stream_output_adapter@D@__crt_stdio_output@@@__crt_stdio_output@@IEAA_NXZ 000000018008a230 f i libucrtd:output.obj
 0001:00089260       ?update_precision@?$standard_base@DV?$string_output_adapter@D@__crt_stdio_output@@@__crt_stdio_output@@IEAA_NXZ 000000018008a260 f i libucrtd:output.obj
 0001:00089290       ?update_precision@?$standard_base@_WV?$stream_output_adapter@_W@__crt_stdio_output@@@__crt_stdio_output@@IEAA_NXZ 000000018008a290 f i libucrtd:output.obj
 0001:000892c0       ?update_precision@?$standard_base@_WV?$string_output_adapter@_W@__crt_stdio_output@@@__crt_stdio_output@@IEAA_NXZ 000000018008a2c0 f i libucrtd:output.obj
 0001:000892f0       ?valid@?$cached@H@__crt_cached_ptd_host@@QEBA_NXZ 000000018008a2f0 f i libucrtd:output.obj
 0001:00089300       ?valid@?$cached@K@__crt_cached_ptd_host@@QEBA_NXZ 000000018008a300 f i libucrtd:output.obj
 0001:00089310       ?valid@__crt_stdio_stream@@QEBA_NXZ 000000018008a310 f i libucrtd:output.obj
 0001:00089340       ?validate@?$c_string_character_source@D@__crt_strtox@@QEBA_NXZ 000000018008a340 f i libucrtd:output.obj
 0001:00089400       ?validate@?$c_string_character_source@_W@__crt_strtox@@QEBA_NXZ 000000018008a400 f i libucrtd:output.obj
 0001:000894c0       ?validate@?$stream_output_adapter@D@__crt_stdio_output@@QEBA_NAEAV__crt_cached_ptd_host@@@Z 000000018008a4c0 f i libucrtd:output.obj
 0001:000895c0       ?validate@?$stream_output_adapter@_W@__crt_stdio_output@@QEBA_NAEAV__crt_cached_ptd_host@@@Z 000000018008a5c0 f i libucrtd:output.obj
 0001:000896c0       ?validate@?$string_output_adapter@D@__crt_stdio_output@@QEBA_NAEAV__crt_cached_ptd_host@@@Z 000000018008a6c0 f i libucrtd:output.obj
 0001:000897a0       ?validate@?$string_output_adapter@_W@__crt_stdio_output@@QEBA_NAEAV__crt_cached_ptd_host@@@Z 000000018008a7a0 f i libucrtd:output.obj
 0001:00089880       ?validate_and_store_parameter_data@?$positional_parameter_base@DV?$stream_output_adapter@D@__crt_stdio_output@@@__crt_stdio_output@@AEAA_NAEAUparameter_data@12@W4parameter_type@12@DW4length_modifier@2@@Z 000000018008a880 f i libucrtd:output.obj
 0001:000899c0       ?validate_and_store_parameter_data@?$positional_parameter_base@DV?$string_output_adapter@D@__crt_stdio_output@@@__crt_stdio_output@@AEAA_NAEAUparameter_data@12@W4parameter_type@12@DW4length_modifier@2@@Z 000000018008a9c0 f i libucrtd:output.obj
 0001:00089b00       ?validate_and_store_parameter_data@?$positional_parameter_base@_WV?$stream_output_adapter@_W@__crt_stdio_output@@@__crt_stdio_output@@AEAA_NAEAUparameter_data@12@W4parameter_type@12@_WW4length_modifier@2@@Z 000000018008ab00 f i libucrtd:output.obj
 0001:00089c40       ?validate_and_store_parameter_data@?$positional_parameter_base@_WV?$string_output_adapter@_W@__crt_stdio_output@@@__crt_stdio_output@@AEAA_NAEAUparameter_data@12@W4parameter_type@12@_WW4length_modifier@2@@Z 000000018008ac40 f i libucrtd:output.obj
 0001:00089d80       ?validate_and_update_state_at_beginning_of_format_character@?$positional_parameter_base@DV?$stream_output_adapter@D@__crt_stdio_output@@@__crt_stdio_output@@IEAA_NXZ 000000018008ad80 f i libucrtd:output.obj
 0001:0008a020       ?validate_and_update_state_at_beginning_of_format_character@?$positional_parameter_base@DV?$string_output_adapter@D@__crt_stdio_output@@@__crt_stdio_output@@IEAA_NXZ 000000018008b020 f i libucrtd:output.obj
 0001:0008a2c0       ?validate_and_update_state_at_beginning_of_format_character@?$positional_parameter_base@_WV?$stream_output_adapter@_W@__crt_stdio_output@@@__crt_stdio_output@@IEAA_NXZ 000000018008b2c0 f i libucrtd:output.obj
 0001:0008a560       ?validate_and_update_state_at_beginning_of_format_character@?$positional_parameter_base@_WV?$string_output_adapter@_W@__crt_stdio_output@@@__crt_stdio_output@@IEAA_NXZ 000000018008b560 f i libucrtd:output.obj
 0001:0008a800       ?validate_and_update_state_at_beginning_of_format_character@?$standard_base@DV?$stream_output_adapter@D@__crt_stdio_output@@@__crt_stdio_output@@IEAA_NXZ 000000018008b800 f i libucrtd:output.obj
 0001:0008a810       ?validate_and_update_state_at_beginning_of_format_character@?$standard_base@DV?$string_output_adapter@D@__crt_stdio_output@@@__crt_stdio_output@@IEAA_NXZ 000000018008b810 f i libucrtd:output.obj
 0001:0008a820       ?validate_and_update_state_at_beginning_of_format_character@?$standard_base@_WV?$stream_output_adapter@_W@__crt_stdio_output@@@__crt_stdio_output@@IEAA_NXZ 000000018008b820 f i libucrtd:output.obj
 0001:0008a830       ?validate_and_update_state_at_beginning_of_format_character@?$standard_base@_WV?$string_output_adapter@_W@__crt_stdio_output@@@__crt_stdio_output@@IEAA_NXZ 000000018008b830 f i libucrtd:output.obj
 0001:0008a840       ?validate_and_update_state_at_end_of_format_string@?$format_validation_base@DV?$stream_output_adapter@D@__crt_stdio_output@@@__crt_stdio_output@@IEAA_NXZ 000000018008b840 f i libucrtd:output.obj
 0001:0008a930       ?validate_and_update_state_at_end_of_format_string@?$format_validation_base@DV?$string_output_adapter@D@__crt_stdio_output@@@__crt_stdio_output@@IEAA_NXZ 000000018008b930 f i libucrtd:output.obj
 0001:0008aa20       ?validate_and_update_state_at_end_of_format_string@?$format_validation_base@_WV?$stream_output_adapter@_W@__crt_stdio_output@@@__crt_stdio_output@@IEAA_NXZ 000000018008ba20 f i libucrtd:output.obj
 0001:0008ab10       ?validate_and_update_state_at_end_of_format_string@?$format_validation_base@_WV?$string_output_adapter@_W@__crt_stdio_output@@@__crt_stdio_output@@IEAA_NXZ 000000018008bb10 f i libucrtd:output.obj
 0001:0008ac00       ?validate_and_update_state_at_end_of_format_string@?$positional_parameter_base@DV?$stream_output_adapter@D@__crt_stdio_output@@@__crt_stdio_output@@IEAA_NXZ 000000018008bc00 f i libucrtd:output.obj
 0001:0008ae30       ?validate_and_update_state_at_end_of_format_string@?$positional_parameter_base@DV?$string_output_adapter@D@__crt_stdio_output@@@__crt_stdio_output@@IEAA_NXZ 000000018008be30 f i libucrtd:output.obj
 0001:0008b060       ?validate_and_update_state_at_end_of_format_string@?$positional_parameter_base@_WV?$stream_output_adapter@_W@__crt_stdio_output@@@__crt_stdio_output@@IEAA_NXZ 000000018008c060 f i libucrtd:output.obj
 0001:0008b290       ?validate_and_update_state_at_end_of_format_string@?$positional_parameter_base@_WV?$string_output_adapter@_W@__crt_stdio_output@@@__crt_stdio_output@@IEAA_NXZ 000000018008c290 f i libucrtd:output.obj
 0001:0008b4c0       ?validate_and_update_state_at_end_of_format_string@?$standard_base@DV?$stream_output_adapter@D@__crt_stdio_output@@@__crt_stdio_output@@IEBA_NXZ 000000018008c4c0 f i libucrtd:output.obj
 0001:0008b4d0       ?validate_and_update_state_at_end_of_format_string@?$standard_base@DV?$string_output_adapter@D@__crt_stdio_output@@@__crt_stdio_output@@IEBA_NXZ 000000018008c4d0 f i libucrtd:output.obj
 0001:0008b4e0       ?validate_and_update_state_at_end_of_format_string@?$standard_base@_WV?$stream_output_adapter@_W@__crt_stdio_output@@@__crt_stdio_output@@IEBA_NXZ 000000018008c4e0 f i libucrtd:output.obj
 0001:0008b4f0       ?validate_and_update_state_at_end_of_format_string@?$standard_base@_WV?$string_output_adapter@_W@__crt_stdio_output@@@__crt_stdio_output@@IEBA_NXZ 000000018008c4f0 f i libucrtd:output.obj
 0001:0008b500       ?validate_state_for_type_case_a@?$positional_parameter_base@DV?$stream_output_adapter@D@__crt_stdio_output@@@__crt_stdio_output@@IEAA_NXZ 000000018008c500 f i libucrtd:output.obj
 0001:0008b660       ?validate_state_for_type_case_a@?$positional_parameter_base@DV?$string_output_adapter@D@__crt_stdio_output@@@__crt_stdio_output@@IEAA_NXZ 000000018008c660 f i libucrtd:output.obj
 0001:0008b7c0       ?validate_state_for_type_case_a@?$positional_parameter_base@_WV?$stream_output_adapter@_W@__crt_stdio_output@@@__crt_stdio_output@@IEAA_NXZ 000000018008c7c0 f i libucrtd:output.obj
 0001:0008b920       ?validate_state_for_type_case_a@?$positional_parameter_base@_WV?$string_output_adapter@_W@__crt_stdio_output@@@__crt_stdio_output@@IEAA_NXZ 000000018008c920 f i libucrtd:output.obj
 0001:0008ba80       ?validate_state_for_type_case_a@?$standard_base@DV?$stream_output_adapter@D@__crt_stdio_output@@@__crt_stdio_output@@IEBA_NXZ 000000018008ca80 f i libucrtd:output.obj
 0001:0008ba90       ?validate_state_for_type_case_a@?$standard_base@DV?$string_output_adapter@D@__crt_stdio_output@@@__crt_stdio_output@@IEBA_NXZ 000000018008ca90 f i libucrtd:output.obj
 0001:0008baa0       ?validate_state_for_type_case_a@?$standard_base@_WV?$stream_output_adapter@_W@__crt_stdio_output@@@__crt_stdio_output@@IEBA_NXZ 000000018008caa0 f i libucrtd:output.obj
 0001:0008bab0       ?validate_state_for_type_case_a@?$standard_base@_WV?$string_output_adapter@_W@__crt_stdio_output@@@__crt_stdio_output@@IEBA_NXZ 000000018008cab0 f i libucrtd:output.obj
 0001:0008bac0       ?validate_stream_is_ansi_if_required@?$__acrt_stdio_char_traits@D@@SA_NQEAU_iobuf@@@Z 000000018008cac0 f i libucrtd:output.obj
 0001:0008bc50       ?validate_stream_is_ansi_if_required@?$__acrt_stdio_char_traits@_W@@SA_NQEAU_iobuf@@@Z 000000018008cc50 f i libucrtd:output.obj
 0001:0008bc60       ?wide_character_to_digit@__crt_strtox@@YAH_W@Z 000000018008cc60 f i libucrtd:output.obj
 0001:0008bfd0       ?wide_null_string@?$output_processor@DV?$stream_output_adapter@D@__crt_stdio_output@@V?$format_validation_base@DV?$stream_output_adapter@D@__crt_stdio_output@@@2@@__crt_stdio_output@@CAPEA_WXZ 000000018008cfd0 f i libucrtd:output.obj
 0001:0008bfe0       ?wide_null_string@?$output_processor@DV?$stream_output_adapter@D@__crt_stdio_output@@V?$positional_parameter_base@DV?$stream_output_adapter@D@__crt_stdio_output@@@2@@__crt_stdio_output@@CAPEA_WXZ 000000018008cfe0 f i libucrtd:output.obj
 0001:0008bff0       ?wide_null_string@?$output_processor@DV?$stream_output_adapter@D@__crt_stdio_output@@V?$standard_base@DV?$stream_output_adapter@D@__crt_stdio_output@@@2@@__crt_stdio_output@@CAPEA_WXZ 000000018008cff0 f i libucrtd:output.obj
 0001:0008c000       ?wide_null_string@?$output_processor@DV?$string_output_adapter@D@__crt_stdio_output@@V?$format_validation_base@DV?$string_output_adapter@D@__crt_stdio_output@@@2@@__crt_stdio_output@@CAPEA_WXZ 000000018008d000 f i libucrtd:output.obj
 0001:0008c010       ?wide_null_string@?$output_processor@DV?$string_output_adapter@D@__crt_stdio_output@@V?$positional_parameter_base@DV?$string_output_adapter@D@__crt_stdio_output@@@2@@__crt_stdio_output@@CAPEA_WXZ 000000018008d010 f i libucrtd:output.obj
 0001:0008c020       ?wide_null_string@?$output_processor@DV?$string_output_adapter@D@__crt_stdio_output@@V?$standard_base@DV?$string_output_adapter@D@__crt_stdio_output@@@2@@__crt_stdio_output@@CAPEA_WXZ 000000018008d020 f i libucrtd:output.obj
 0001:0008c030       ?wide_null_string@?$output_processor@_WV?$stream_output_adapter@_W@__crt_stdio_output@@V?$format_validation_base@_WV?$stream_output_adapter@_W@__crt_stdio_output@@@2@@__crt_stdio_output@@CAPEA_WXZ 000000018008d030 f i libucrtd:output.obj
 0001:0008c040       ?wide_null_string@?$output_processor@_WV?$stream_output_adapter@_W@__crt_stdio_output@@V?$positional_parameter_base@_WV?$stream_output_adapter@_W@__crt_stdio_output@@@2@@__crt_stdio_output@@CAPEA_WXZ 000000018008d040 f i libucrtd:output.obj
 0001:0008c050       ?wide_null_string@?$output_processor@_WV?$stream_output_adapter@_W@__crt_stdio_output@@V?$standard_base@_WV?$stream_output_adapter@_W@__crt_stdio_output@@@2@@__crt_stdio_output@@CAPEA_WXZ 000000018008d050 f i libucrtd:output.obj
 0001:0008c060       ?wide_null_string@?$output_processor@_WV?$string_output_adapter@_W@__crt_stdio_output@@V?$format_validation_base@_WV?$string_output_adapter@_W@__crt_stdio_output@@@2@@__crt_stdio_output@@CAPEA_WXZ 000000018008d060 f i libucrtd:output.obj
 0001:0008c070       ?wide_null_string@?$output_processor@_WV?$string_output_adapter@_W@__crt_stdio_output@@V?$positional_parameter_base@_WV?$string_output_adapter@_W@__crt_stdio_output@@@2@@__crt_stdio_output@@CAPEA_WXZ 000000018008d070 f i libucrtd:output.obj
 0001:0008c080       ?wide_null_string@?$output_processor@_WV?$string_output_adapter@_W@__crt_stdio_output@@V?$standard_base@_WV?$string_output_adapter@_W@__crt_stdio_output@@@2@@__crt_stdio_output@@CAPEA_WXZ 000000018008d080 f i libucrtd:output.obj
 0001:0008c090       ?write_character@?$output_adapter_common@DV?$stream_output_adapter@D@__crt_stdio_output@@@__crt_stdio_output@@QEBAXDQEAHAEAV__crt_cached_ptd_host@@@Z 000000018008d090 f i libucrtd:output.obj
 0001:0008c0f0       ?write_character@?$output_adapter_common@_WV?$stream_output_adapter@_W@__crt_stdio_output@@@__crt_stdio_output@@QEBAX_WQEAHAEAV__crt_cached_ptd_host@@@Z 000000018008d0f0 f i libucrtd:output.obj
 0001:0008c150       ?write_character@?$string_output_adapter@D@__crt_stdio_output@@QEBA_NDQEAHAEAV__crt_cached_ptd_host@@@Z 000000018008d150 f i libucrtd:output.obj
 0001:0008c220       ?write_character@?$string_output_adapter@_W@__crt_stdio_output@@QEBA_N_WQEAHAEAV__crt_cached_ptd_host@@@Z 000000018008d220 f i libucrtd:output.obj
 0001:0008c2f0       ?write_character_without_count_update@?$stream_output_adapter@D@__crt_stdio_output@@QEBA_NDAEAV__crt_cached_ptd_host@@@Z 000000018008d2f0 f i libucrtd:output.obj
 0001:0008c380       ?write_character_without_count_update@?$stream_output_adapter@_W@__crt_stdio_output@@QEBA_N_WAEAV__crt_cached_ptd_host@@@Z 000000018008d380 f i libucrtd:output.obj
 0001:0008c410       ?write_stored_string_tchar@?$output_processor@DV?$stream_output_adapter@D@__crt_stdio_output@@V?$format_validation_base@DV?$stream_output_adapter@D@__crt_stdio_output@@@2@@__crt_stdio_output@@AEAA_ND@Z 000000018008d410 f i libucrtd:output.obj
 0001:0008c5c0       ?write_stored_string_tchar@?$output_processor@DV?$stream_output_adapter@D@__crt_stdio_output@@V?$positional_parameter_base@DV?$stream_output_adapter@D@__crt_stdio_output@@@2@@__crt_stdio_output@@AEAA_ND@Z 000000018008d5c0 f i libucrtd:output.obj
 0001:0008c770       ?write_stored_string_tchar@?$output_processor@DV?$stream_output_adapter@D@__crt_stdio_output@@V?$standard_base@DV?$stream_output_adapter@D@__crt_stdio_output@@@2@@__crt_stdio_output@@AEAA_ND@Z 000000018008d770 f i libucrtd:output.obj
 0001:0008c920       ?write_stored_string_tchar@?$output_processor@DV?$string_output_adapter@D@__crt_stdio_output@@V?$format_validation_base@DV?$string_output_adapter@D@__crt_stdio_output@@@2@@__crt_stdio_output@@AEAA_ND@Z 000000018008d920 f i libucrtd:output.obj
 0001:0008cad0       ?write_stored_string_tchar@?$output_processor@DV?$string_output_adapter@D@__crt_stdio_output@@V?$positional_parameter_base@DV?$string_output_adapter@D@__crt_stdio_output@@@2@@__crt_stdio_output@@AEAA_ND@Z 000000018008dad0 f i libucrtd:output.obj
 0001:0008cc80       ?write_stored_string_tchar@?$output_processor@DV?$string_output_adapter@D@__crt_stdio_output@@V?$standard_base@DV?$string_output_adapter@D@__crt_stdio_output@@@2@@__crt_stdio_output@@AEAA_ND@Z 000000018008dc80 f i libucrtd:output.obj
 0001:0008ce30       ?write_stored_string_tchar@?$output_processor@_WV?$stream_output_adapter@_W@__crt_stdio_output@@V?$format_validation_base@_WV?$stream_output_adapter@_W@__crt_stdio_output@@@2@@__crt_stdio_output@@AEAA_N_W@Z 000000018008de30 f i libucrtd:output.obj
 0001:0008cf90       ?write_stored_string_tchar@?$output_processor@_WV?$stream_output_adapter@_W@__crt_stdio_output@@V?$positional_parameter_base@_WV?$stream_output_adapter@_W@__crt_stdio_output@@@2@@__crt_stdio_output@@AEAA_N_W@Z 000000018008df90 f i libucrtd:output.obj
 0001:0008d0f0       ?write_stored_string_tchar@?$output_processor@_WV?$stream_output_adapter@_W@__crt_stdio_output@@V?$standard_base@_WV?$stream_output_adapter@_W@__crt_stdio_output@@@2@@__crt_stdio_output@@AEAA_N_W@Z 000000018008e0f0 f i libucrtd:output.obj
 0001:0008d250       ?write_stored_string_tchar@?$output_processor@_WV?$string_output_adapter@_W@__crt_stdio_output@@V?$format_validation_base@_WV?$string_output_adapter@_W@__crt_stdio_output@@@2@@__crt_stdio_output@@AEAA_N_W@Z 000000018008e250 f i libucrtd:output.obj
 0001:0008d3b0       ?write_stored_string_tchar@?$output_processor@_WV?$string_output_adapter@_W@__crt_stdio_output@@V?$positional_parameter_base@_WV?$string_output_adapter@_W@__crt_stdio_output@@@2@@__crt_stdio_output@@AEAA_N_W@Z 000000018008e3b0 f i libucrtd:output.obj
 0001:0008d510       ?write_stored_string_tchar@?$output_processor@_WV?$string_output_adapter@_W@__crt_stdio_output@@V?$standard_base@_WV?$string_output_adapter@_W@__crt_stdio_output@@@2@@__crt_stdio_output@@AEAA_N_W@Z 000000018008e510 f i libucrtd:output.obj
 0001:0008d670       ?write_string@?$stream_output_adapter@D@__crt_stdio_output@@QEBAXQEBDHQEAHAEAV__crt_cached_ptd_host@@@Z 000000018008e670 f i libucrtd:output.obj
 0001:0008d6f0       ?write_string@?$stream_output_adapter@_W@__crt_stdio_output@@QEBAXQEB_WHQEAHAEAV__crt_cached_ptd_host@@@Z 000000018008e6f0 f i libucrtd:output.obj
 0001:0008d770       ?write_string@?$string_output_adapter@D@__crt_stdio_output@@QEBAXQEBDHQEAHAEAV__crt_cached_ptd_host@@@Z 000000018008e770 f i libucrtd:output.obj
 0001:0008d8e0       ?write_string@?$string_output_adapter@_W@__crt_stdio_output@@QEBAXQEB_WHQEAHAEAV__crt_cached_ptd_host@@@Z 000000018008e8e0 f i libucrtd:output.obj
 0001:0008da50       ?write_string_impl@?$output_adapter_common@DV?$stream_output_adapter@D@__crt_stdio_output@@@__crt_stdio_output@@IEBAXQEBDHQEAHAEAV__crt_cached_ptd_host@@@Z 000000018008ea50 f i libucrtd:output.obj
 0001:0008db70       ?write_string_impl@?$output_adapter_common@_WV?$stream_output_adapter@_W@__crt_stdio_output@@@__crt_stdio_output@@IEBAXQEB_WHQEAHAEAV__crt_cached_ptd_host@@@Z 000000018008eb70 f i libucrtd:output.obj
 0001:0008dc90       __acrt_disable_global_locale_sync 000000018008ec90 f i libucrtd:output.obj
 0001:0008dcc0       __acrt_enable_global_locale_sync 000000018008ecc0 f i libucrtd:output.obj
 0001:0008dcf0       __acrt_isleadbyte_l_noupdate 000000018008ecf0 f i libucrtd:output.obj
 0001:0008dd20       __acrt_locale_changed      000000018008ed20 f i libucrtd:output.obj
 0001:0008dd50       __acrt_locale_get_ctype_array_value 000000018008ed50 f i libucrtd:output.obj
 0001:0008dd90       __ascii_iswalpha           000000018008ed90 f i libucrtd:output.obj
 0001:0008ddd0       __ascii_toupper            000000018008edd0 f i libucrtd:output.obj
 0001:0008ddf0       __ascii_towupper           000000018008edf0 f i libucrtd:output.obj
 0001:0008de10       __stdio_common_vfprintf    000000018008ee10 f   libucrtd:output.obj
 0001:0008de90       __stdio_common_vfprintf_p  000000018008ee90 f   libucrtd:output.obj
 0001:0008df10       __stdio_common_vfprintf_s  000000018008ef10 f   libucrtd:output.obj
 0001:0008df90       __stdio_common_vfwprintf   000000018008ef90 f   libucrtd:output.obj
 0001:0008e010       __stdio_common_vfwprintf_p 000000018008f010 f   libucrtd:output.obj
 0001:0008e090       __stdio_common_vfwprintf_s 000000018008f090 f   libucrtd:output.obj
 0001:0008e110       __stdio_common_vsnprintf_s 000000018008f110 f   libucrtd:output.obj
 0001:0008e1a0       __stdio_common_vsnwprintf_s 000000018008f1a0 f   libucrtd:output.obj
 0001:0008e230       __stdio_common_vsprintf    000000018008f230 f   libucrtd:output.obj
 0001:0008e2c0       __stdio_common_vsprintf_p  000000018008f2c0 f   libucrtd:output.obj
 0001:0008e350       __stdio_common_vsprintf_s  000000018008f350 f   libucrtd:output.obj
 0001:0008e3e0       __stdio_common_vswprintf   000000018008f3e0 f   libucrtd:output.obj
 0001:0008e470       __stdio_common_vswprintf_p 000000018008f470 f   libucrtd:output.obj
 0001:0008e500       __stdio_common_vswprintf_s 000000018008f500 f   libucrtd:output.obj
 0001:0008e590       _ctype_fast_check_internal 000000018008f590 f i libucrtd:output.obj
 0001:0008e5c0       _isdigit_fast_internal     000000018008f5c0 f i libucrtd:output.obj
 0001:0008e5f0       _tolower_fast_internal     000000018008f5f0 f i libucrtd:output.obj
 0001:0008e620       free                       000000018008f620 f   libucrtd:free.obj
 0001:0008e650       malloc                     000000018008f650 f   libucrtd:malloc.obj
 0001:0008e680       ??$?RU?$__crt_report_hook_node@D@@@__crt_internal_free_policy@@QEBAXQEBU?$__crt_report_hook_node@D@@@Z 000000018008f680 f i libucrtd:dbgrpt.obj
 0001:0008e6b0       ??$?RU?$__crt_report_hook_node@_W@@@__crt_internal_free_policy@@QEBAXQEBU?$__crt_report_hook_node@_W@@@Z 000000018008f6b0 f i libucrtd:dbgrpt.obj
 0001:0008f910       ??$get_module_file_name@AEAPEAUHINSTANCE__@@AEAY0BAF@DK@?$__crt_char_traits@D@@SAKAEAPEAUHINSTANCE__@@AEAY0BAF@D$$QEAK@Z 0000000180090910 f i libucrtd:dbgrpt.obj
 0001:0008f950       ??$get_module_file_name@AEAPEAUHINSTANCE__@@AEAY0BAF@_WK@?$__crt_char_traits@_W@@SAKAEAPEAUHINSTANCE__@@AEAY0BAF@_W$$QEAK@Z 0000000180090950 f i libucrtd:dbgrpt.obj
 0001:0008f990       ??$tcscpy_s@AEAY0BAF@D_KPEBD@?$__crt_char_traits@D@@SAHAEAY0BAF@D$$QEA_K$$QEAPEBD@Z 0000000180090990 f i libucrtd:dbgrpt.obj
 0001:0008f9d0       ??$tcscpy_s@AEAY0BAF@_W_KPEB_W@?$__crt_char_traits@_W@@SAHAEAY0BAF@_W$$QEA_K$$QEAPEB_W@Z 00000001800909d0 f i libucrtd:dbgrpt.obj
 0001:0008fa10       ??$tcslen@AEAY0BAF@D@?$__crt_char_traits@D@@SA_KAEAY0BAF@D@Z 0000000180090a10 f i libucrtd:dbgrpt.obj
 0001:0008fa30       ??$tcslen@AEAY0BAF@_W@?$__crt_char_traits@_W@@SA_KAEAY0BAF@_W@Z 0000000180090a30 f i libucrtd:dbgrpt.obj
 0001:0008fa50       ??$tcslen@AEBQEBD@?$__crt_char_traits@D@@SA_KAEBQEBD@Z 0000000180090a50 f i libucrtd:dbgrpt.obj
 0001:0008fa70       ??$tcslen@AEBQEB_W@?$__crt_char_traits@_W@@SA_KAEBQEB_W@Z 0000000180090a70 f i libucrtd:dbgrpt.obj
 0001:0008fb70       ??0?$__crt_unique_heap_ptr@U?$__crt_report_hook_node@D@@U__crt_internal_free_policy@@@@QEAA@QEAU?$__crt_report_hook_node@D@@@Z 0000000180090b70 f i libucrtd:dbgrpt.obj
 0001:0008fb90       ??0?$__crt_unique_heap_ptr@U?$__crt_report_hook_node@_W@@U__crt_internal_free_policy@@@@QEAA@QEAU?$__crt_report_hook_node@_W@@@Z 0000000180090b90 f i libucrtd:dbgrpt.obj
 0001:0008fbb0       ??1?$__crt_unique_heap_ptr@U?$__crt_report_hook_node@D@@U__crt_internal_free_policy@@@@QEAA@XZ 0000000180090bb0 f i libucrtd:dbgrpt.obj
 0001:0008fbd0       ??1?$__crt_unique_heap_ptr@U?$__crt_report_hook_node@_W@@U__crt_internal_free_policy@@@@QEAA@XZ 0000000180090bd0 f i libucrtd:dbgrpt.obj
 0001:0008fbf0       ??B?$__crt_unique_heap_ptr@U?$__crt_report_hook_node@D@@U__crt_internal_free_policy@@@@QEBA_NXZ 0000000180090bf0 f i libucrtd:dbgrpt.obj
 0001:0008fc10       ??B?$__crt_unique_heap_ptr@U?$__crt_report_hook_node@_W@@U__crt_internal_free_policy@@@@QEBA_NXZ 0000000180090c10 f i libucrtd:dbgrpt.obj
 0001:00090330       ?detach@?$__crt_unique_heap_ptr@U?$__crt_report_hook_node@D@@U__crt_internal_free_policy@@@@QEAAPEAU?$__crt_report_hook_node@D@@XZ 0000000180091330 f i libucrtd:dbgrpt.obj
 0001:00090360       ?detach@?$__crt_unique_heap_ptr@U?$__crt_report_hook_node@_W@@U__crt_internal_free_policy@@@@QEAAPEAU?$__crt_report_hook_node@_W@@XZ 0000000180091360 f i libucrtd:dbgrpt.obj
 0001:00090390       ?get@?$__crt_unique_heap_ptr@U?$__crt_report_hook_node@D@@U__crt_internal_free_policy@@@@QEBAPEAU?$__crt_report_hook_node@D@@XZ 0000000180091390 f i libucrtd:dbgrpt.obj
 0001:000903a0       ?get@?$__crt_unique_heap_ptr@U?$__crt_report_hook_node@_W@@U__crt_internal_free_policy@@@@QEBAPEAU?$__crt_report_hook_node@_W@@XZ 00000001800913a0 f i libucrtd:dbgrpt.obj
 0001:00090410       ?is_valid@?$__crt_unique_heap_ptr@U?$__crt_report_hook_node@D@@U__crt_internal_free_policy@@@@QEBA_NXZ 0000000180091410 f i libucrtd:dbgrpt.obj
 0001:00090440       ?is_valid@?$__crt_unique_heap_ptr@U?$__crt_report_hook_node@_W@@U__crt_internal_free_policy@@@@QEBA_NXZ 0000000180091440 f i libucrtd:dbgrpt.obj
 0001:00090470       ?release@?$__crt_unique_heap_ptr@U?$__crt_report_hook_node@D@@U__crt_internal_free_policy@@@@QEAAXXZ 0000000180091470 f i libucrtd:dbgrpt.obj
 0001:000904a0       ?release@?$__crt_unique_heap_ptr@U?$__crt_report_hook_node@_W@@U__crt_internal_free_policy@@@@QEAAXXZ 00000001800914a0 f i libucrtd:dbgrpt.obj
 0001:000904d0       _CrtDbgReport              00000001800914d0 f   libucrtd:dbgrpt.obj
 0001:00090550       _CrtDbgReportW             0000000180091550 f   libucrtd:dbgrpt.obj
 0001:000905d0       _CrtSetReportHook2         00000001800915d0 f   libucrtd:dbgrpt.obj
 0001:000905f0       _CrtSetReportHookW2        00000001800915f0 f   libucrtd:dbgrpt.obj
 0001:00090610       __acrt_MessageWindowA      0000000180091610 f   libucrtd:dbgrpt.obj
 0001:00090660       __acrt_MessageWindowW      0000000180091660 f   libucrtd:dbgrpt.obj
 0001:000906b0       _invoke_watson_if_error    00000001800916b0 f i libucrtd:dbgrpt.obj
 0001:00090700       _invoke_watson_if_oneof    0000000180091700 f i libucrtd:dbgrpt.obj
 0001:00090760       _snwprintf_s               0000000180091760 f i libucrtd:dbgrpt.obj
 0001:000907d0       _vsnwprintf_s_l            00000001800917d0 f i libucrtd:dbgrpt.obj
 0001:00090d50       wcscpy_s                   0000000180091d50 f   libucrtd:wcscpy_s.obj
 0001:000920e0       ??1?$__crt_simd_cleanup_guard@$00@@QEAA@XZ 00000001800930e0 f i libucrtd:strnlen.obj
 0001:000920f0       ??1?$__crt_simd_cleanup_guard@$0A@@@QEAA@XZ 00000001800930f0 f i libucrtd:strnlen.obj
 0001:00092100       ?compare_equals@?$__crt_simd_traits@$00E@@SA?AT__m256i@@T2@0@Z 0000000180093100 f i libucrtd:strnlen.obj
 0001:00092140       ?compare_equals@?$__crt_simd_traits@$00G@@SA?AT__m256i@@T2@0@Z 0000000180093140 f i libucrtd:strnlen.obj
 0001:00092180       ?compare_equals@?$__crt_simd_traits@$0A@E@@SA?AT__m128i@@T2@0@Z 0000000180093180 f i libucrtd:strnlen.obj
 0001:000921b0       ?compare_equals@?$__crt_simd_traits@$0A@G@@SA?AT__m128i@@T2@0@Z 00000001800931b0 f i libucrtd:strnlen.obj
 0001:000921e0       ?compute_byte_mask@?$__crt_simd_pack_traits@$00@@SAHT__m256i@@@Z 00000001800931e0 f i libucrtd:strnlen.obj
 0001:00092200       ?compute_byte_mask@?$__crt_simd_pack_traits@$0A@@@SAHT__m128i@@@Z 0000000180093200 f i libucrtd:strnlen.obj
 0001:00092220       ?get_zero_pack@?$__crt_simd_pack_traits@$00@@SA?AT__m256i@@XZ 0000000180093220 f i libucrtd:strnlen.obj
 0001:00092250       ?get_zero_pack@?$__crt_simd_pack_traits@$0A@@@SA?AT__m128i@@XZ 0000000180093250 f i libucrtd:strnlen.obj
 0001:00092270       strnlen                    0000000180093270 f   libucrtd:strnlen.obj
 0001:000922a0       wcslen                     00000001800932a0 f   libucrtd:strnlen.obj
 0001:000922c0       wcsnlen                    00000001800932c0 f   libucrtd:strnlen.obj
 0001:000922f0       ??$__crt_fast_decode_pointer@P6AXPEB_W00I_K@Z@@YAP6AXPEB_W00I_K@ZQ6AX000I1@Z@Z 00000001800932f0 f i libucrtd:invalid_parameter.obj
 0001:00092330       ??$__crt_fast_encode_pointer@P6AXPEB_W00I_K@Z@@YAP6AXPEB_W00I_K@ZQ6AX000I1@Z@Z 0000000180093330 f i libucrtd:invalid_parameter.obj
 0001:00092370       ??$initialize_from_array@$$BY00Q6AXPEB_W00I_K@Z@?$dual_state_global@P6AXPEB_W00I_K@Z@__crt_state_management@@QEAAXAEAY00Q6AXPEB_W00I_K@Z@Z 0000000180093370 f i libucrtd:invalid_parameter.obj
 0001:000923d0       ?__crt_rotate_pointer_value@@YA_K_KH@Z 00000001800933d0 f i libucrtd:invalid_parameter.obj
 0001:00092490       ?check_synchronize_global_state_index@__crt_cached_ptd_host@@AEAA_KXZ 0000000180093490 f i libucrtd:invalid_parameter.obj
 0001:000924f0       ?dangerous_get_state_array@?$dual_state_global@P6AXPEB_W00I_K@Z@__crt_state_management@@QEAAPEAP6AXPEB_W00I_K@ZXZ 00000001800934f0 f i libucrtd:invalid_parameter.obj
 0001:00092500       ?get_current_global_state_index@__crt_cached_ptd_host@@QEAA_KXZ 0000000180093500 f i libucrtd:invalid_parameter.obj
