 OPOSBelt

 Timestamp is 600f76f6 (Tue Jan 26 10:57:10 2021)

 Preferred load address is 0000000180000000

 Start         Length     Name                   Class
 0001:00000000 00001400H .text$di                CODE
 0001:00001400 000d5060H .text$mn                CODE
 0001:000d6460 00000040H .text$mn$00             CODE
 0001:000d64a0 00001390H .text$x                 CODE
 0001:000d7830 000001b4H .text$yd                CODE
 0002:00000000 000006d8H .idata$5                DATA
 0002:000006d8 00000028H .00cfg                  DATA
 0002:00000700 00000008H .CRT$XCA                DATA
 0002:00000708 00000008H .CRT$XCL                DATA
 0002:00000710 000000d8H .CRT$XCU                DATA
 0002:000007e8 00000008H .CRT$XCZ                DATA
 0002:000007f0 00000008H .CRT$XIA                DATA
 0002:000007f8 00000028H .CRT$XIC                DATA
 0002:00000820 00000008H .CRT$XIZ                DATA
 0002:00000828 00000008H .CRT$XLA                DATA
 0002:00000830 00000008H .CRT$XLZ                DATA
 0002:00000838 00000008H .CRT$XPA                DATA
 0002:00000840 00000010H .CRT$XPX                DATA
 0002:00000850 00000008H .CRT$XPXA               DATA
 0002:00000858 00000008H .CRT$XPZ                DATA
 0002:00000860 00000008H .CRT$XTA                DATA
 0002:00000868 00000008H .CRT$XTZ                DATA
 0002:00000870 00000000H .gehcont$y              DATA
 0002:00000870 00000000H .gfids$y                DATA
 0002:00000870 0003b990H .rdata                  DATA
 0002:0003c200 00000008H .rdata$CastGuardVftablesA DATA
 0002:0003c208 00000008H .rdata$CastGuardVftablesC DATA
 0002:0003c210 00000028H .rdata$T                DATA
 0002:0003c238 0000056cH .rdata$r                DATA
 0002:0003c7a4 00000474H .rdata$zzzdbg           DATA
 0002:0003cc18 00000008H .rtc$IAA                DATA
 0002:0003cc20 00000030H .rtc$IMZ                DATA
 0002:0003cc50 00000008H .rtc$IZZ                DATA
 0002:0003cc58 00000008H .rtc$TAA                DATA
 0002:0003cc60 00000030H .rtc$TMZ                DATA
 0002:0003cc90 00000008H .rtc$TZZ                DATA
 0002:0003cc98 00000004H .tls                    DATA
 0002:0003cc9c 00000004H .tls$                   DATA
 0002:0003cca0 00000010H .tls$ZZZ                DATA
 0002:0003ccb0 00009838H .xdata                  DATA
 0002:000464e8 00000150H .xdata$x                DATA
 0002:00046638 00000008H ATL$__a                 DATA
 0002:00046640 00000010H ATL$__z                 DATA
 0002:00046650 000000a8H .edata                  DATA
 0002:000466f8 00000078H .idata$2                DATA
 0002:00046770 00000018H .idata$3                DATA
 0002:00046788 000006d8H .idata$4                DATA
 0002:00046e60 00000dbeH .idata$6                DATA
 0003:00000000 00000ea8H .data                   DATA
 0003:00000ea8 00000198H .data$r                 DATA
 0003:00001040 00003e9cH .bss                    DATA
 0004:00000000 0000c228H .pdata                  DATA
 0005:00000000 00000094H _RDATA                  DATA
 0006:00000000 00000220H .rsrc$01                DATA
 0006:00000220 000044f0H .rsrc$02                DATA

  Address         Publics by Value              Rva+Base               Lib:Object

 0000:00000000       __hybrid_code_map_count    0000000000000000     <absolute>
 0000:00000000       __arm64x_extra_rfe_table_size 0000000000000000     <absolute>
 0000:00000000       __guard_iat_table          0000000000000000     <absolute>
 0000:00000000       __volatile_metadata        0000000000000000     <absolute>
 0000:00000000       __guard_eh_cont_count      0000000000000000     <absolute>
 0000:00000000       __arm64x_redirection_metadata_count 0000000000000000     <absolute>
 0000:00000000       __x64_code_ranges_to_entry_points 0000000000000000     <absolute>
 0000:00000000       __enclave_config           0000000000000000     <absolute>
 0000:00000000       __arm64x_native_entrypoint 0000000000000000     <absolute>
 0000:00000000       __x64_code_ranges_to_entry_points_count 0000000000000000     <absolute>
 0000:00000000       __arm64x_extra_rfe_table   0000000000000000     <absolute>
 0000:00000000       __guard_iat_count          0000000000000000     <absolute>
 0000:00000000       __guard_eh_cont_table      0000000000000000     <absolute>
 0000:00000000       ___safe_se_handler_table   0000000000000000     <absolute>
 0000:00000000       __guard_longjmp_count      0000000000000000     <absolute>
 0000:00000000       __guard_fids_count         0000000000000000     <absolute>
 0000:00000000       __AbsoluteZero             0000000000000000     <absolute>
 0000:00000000       __hybrid_code_map          0000000000000000     <absolute>
 0000:00000000       __hybrid_auxiliary_iat     0000000000000000     <absolute>
 0000:00000000       __guard_longjmp_table      0000000000000000     <absolute>
 0000:00000000       __guard_fids_table         0000000000000000     <absolute>
 0000:00000000       __arm64x_redirection_metadata 0000000000000000     <absolute>
 0000:00000000       ___safe_se_handler_count   0000000000000000     <absolute>
 0000:00000000       __dynamic_value_reloc_table 0000000000000000     <absolute>
 0000:00000100       __guard_flags              0000000000000100     <absolute>
 0000:00000000       __ImageBase                0000000180000000     <linker-defined>
 0001:00001400       ?_assert@@YAXPEB_W0I@Z     0000000180002400 f   Assert.obj
 0001:00001500       __local_stdio_printf_options 0000000180002500 f i Assert.obj
 0001:00001510       __vswprintf_l              0000000180002510 f i Assert.obj
 0001:00001570       _swprintf                  0000000180002570 f i Assert.obj
 0001:000015f0       _vswprintf_c_l             00000001800025f0 f i Assert.obj
 0001:00001680       _vswprintf_l               0000000180002680 f i Assert.obj
 0001:000016e0       ?cw_memcpy@@YAHPEADPEB_WH@Z 00000001800026e0 f   CWString.obj
 0001:00001770       ?cw_memcpy@@YAHPEA_WPEBDH@Z 0000000180002770 f   CWString.obj
 0001:000017f0       ?cw_memcpy@@YAHPEADPEBDH@Z 00000001800027f0 f   CWString.obj
 0001:00001890       ?cw_memcpy@@YAHPEA_WPEB_WH@Z 0000000180002890 f   CWString.obj
 0001:00001900       ?cw_memset@@YAXPEADDH@Z    0000000180002900 f   CWString.obj
 0001:00001970       ?cw_memset@@YAXPEA_W_WH@Z  0000000180002970 f   CWString.obj
 0001:00001a10       ?cw_strlen@@YAHPEBD@Z      0000000180002a10 f   CWString.obj
 0001:00001a80       ?cw_strlen@@YAHPEB_W@Z     0000000180002a80 f   CWString.obj
 0001:00001af0       ?cw_strcpy@@YAHPEADPEB_W@Z 0000000180002af0 f   CWString.obj
 0001:00001b40       ?cw_strcpy@@YAHPEA_WPEBD@Z 0000000180002b40 f   CWString.obj
 0001:00001b90       ?cw_strcpy@@YAHPEADPEBD@Z  0000000180002b90 f   CWString.obj
 0001:00001be0       ?cw_strcpy@@YAHPEA_WPEB_W@Z 0000000180002be0 f   CWString.obj
 0001:00001c30       ?cw_strcat@@YAHPEADPEB_W@Z 0000000180002c30 f   CWString.obj
 0001:00001c90       ?cw_strcat@@YAHPEA_WPEBD@Z 0000000180002c90 f   CWString.obj
 0001:00001cf0       ?cw_strcat@@YAHPEADPEBD@Z  0000000180002cf0 f   CWString.obj
 0001:00001d50       ?cw_strcat@@YAHPEA_WPEB_W@Z 0000000180002d50 f   CWString.obj
 0001:00001db0       ?cw_dup@@YAXPEBDAEAHAEAPEA_W1@Z 0000000180002db0 f   CWString.obj
 0001:00001ec0       ?cw_dup@@YAXPEB_WAEAHAEAPEAD1@Z 0000000180002ec0 f   CWString.obj
 0001:00001fb0       ?DupChar@_CW@@AEAAXXZ      0000000180002fb0 f   CWString.obj
 0001:00002010       ?DupWide@_CW@@AEAAXXZ      0000000180003010 f   CWString.obj
 0001:00002080       ?GetCharsMbcs@_CW@@QEAAHXZ 0000000180003080 f   CWString.obj
 0001:000020f0       ?GetCharsWide@_CW@@QEAAHXZ 00000001800030f0 f   CWString.obj
 0001:00002160       ?SetVARIANT_BOOL@OposVariant@@QEAAXF@Z 0000000180003160 f   OposVariant.obj
 0001:000021d0       ?SetVARIANT_BOOL_Ptr@OposVariant@@QEAAXPEAFAEAJ@Z 00000001800031d0 f   OposVariant.obj
 0001:00002240       ?GetLONG@OposVariant@@QEAAJXZ 0000000180003240 f   OposVariant.obj
 0001:000022a0       ?ChangeLONG@OposVariant@@QEAAXPEAJAEAJ@Z 00000001800032a0 f   OposVariant.obj
 0001:00002350       ?SetLONG@OposVariant@@QEAAXJ@Z 0000000180003350 f   OposVariant.obj
 0001:000023b0       ?SetLONG_Ptr@OposVariant@@QEAAXPEAJAEAJ@Z 00000001800033b0 f   OposVariant.obj
 0001:00002420       ?ChangeCURRENCY@OposVariant@@QEAAXPEATtagCY@@AEAJ@Z 0000000180003420 f   OposVariant.obj
 0001:000024d0       ?SetCURRENCY@OposVariant@@QEAAXTtagCY@@@Z 00000001800034d0 f   OposVariant.obj
 0001:00002530       ?SetCURRENCY_Ptr@OposVariant@@QEAAXPEATtagCY@@AEAJ@Z 0000000180003530 f   OposVariant.obj
 0001:000025a0       ?ChangeBSTR@OposVariant@@QEAAXPEAPEA_WAEAJ@Z 00000001800035a0 f   OposVariant.obj
 0001:00002650       ?SetBSTR@OposVariant@@QEAAXPEA_WAEAJ@Z 0000000180003650 f   OposVariant.obj
 0001:000026d0       ?SetBSTR_Copy@OposVariant@@QEAAXPEA_WAEAJ@Z 00000001800036d0 f   OposVariant.obj
 0001:00002780       ?SetBSTR_OutPtr@OposVariant@@QEAA_NPEAPEA_WAEAJ@Z 0000000180003780 f   OposVariant.obj
 0001:000027f0       ?SetBSTR_InOutPtr@OposVariant@@QEAA_NPEAPEA_WAEAJ@Z 00000001800037f0 f   OposVariant.obj
 0001:00002870       ?SetVARIANT@OposVariant@@QEAAXAEAUtagVARIANT@@GAEAJ@Z 0000000180003870 f   OposVariant.obj
 0001:00002910       ?SetVARIANT_Ptr@OposVariant@@QEAAXAEAPEAUtagVARIANT@@GAEAJ@Z 0000000180003910 f   OposVariant.obj
 0001:000029c0       ?SetString@OposVariant@@QEAAXPEB_WAEAJ@Z 00000001800039c0 f   OposVariant.obj
 0001:00002a70       ?SetDispatch_Ptr@OposVariant@@QEAAXPEAUIDispatch@@AEAJ@Z 0000000180003a70 f   OposVariant.obj
 0001:00002b00       ??0OposDispParms@@QEAA@PEAVOposVariant@@H@Z 0000000180003b00 f   OposVariant.obj
 0001:00002c10       ??1OposDispParms@@QEAA@XZ  0000000180003c10 f   OposVariant.obj
 0001:00002c60       ??$AtlMultiply@_K@ATL@@YAJPEA_K_K1@Z 0000000180003c60 f i OposVariant.obj
 0001:00002ce0       ??0?$CHeapPtr@_WVCCRTAllocator@ATL@@@ATL@@QEAA@XZ 0000000180003ce0 f i OposVariant.obj
 0001:00002d20       ??0?$CHeapPtrBase@_WVCCRTAllocator@ATL@@@ATL@@IEAA@XZ 0000000180003d20 f i OposVariant.obj
 0001:00002d40       ??0?$CSimpleArray@GV?$CSimpleArrayEqualHelper@G@ATL@@@ATL@@QEAA@XZ 0000000180003d40 f i OposVariant.obj
 0001:00002d80       ??0?$CTraceCategoryEx@$00$0A@@ATL@@QEAA@PEB_W@Z 0000000180003d80 f i OposVariant.obj
 0001:00002dc0       ??0?$CTraceCategoryEx@$01$0A@@ATL@@QEAA@PEB_W@Z 0000000180003dc0 f i OposVariant.obj
 0001:00002e00       ??0?$CTraceCategoryEx@$03$0A@@ATL@@QEAA@PEB_W@Z 0000000180003e00 f i OposVariant.obj
 0001:00002e40       ??0?$CTraceCategoryEx@$07$0A@@ATL@@QEAA@PEB_W@Z 0000000180003e40 f i OposVariant.obj
 0001:00002e80       ??0?$CTraceCategoryEx@$0BA@$0A@@ATL@@QEAA@PEB_W@Z 0000000180003e80 f i OposVariant.obj
 0001:00002ec0       ??0?$CTraceCategoryEx@$0BAA@$0A@@ATL@@QEAA@PEB_W@Z 0000000180003ec0 f i OposVariant.obj
 0001:00002f00       ??0?$CTraceCategoryEx@$0BAAA@$0A@@ATL@@QEAA@PEB_W@Z 0000000180003f00 f i OposVariant.obj
 0001:00002f40       ??0?$CTraceCategoryEx@$0BAAAA@$0A@@ATL@@QEAA@PEB_W@Z 0000000180003f40 f i OposVariant.obj
 0001:00002f80       ??0?$CTraceCategoryEx@$0BAAAAA@$0A@@ATL@@QEAA@PEB_W@Z 0000000180003f80 f i OposVariant.obj
 0001:00002fc0       ??0?$CTraceCategoryEx@$0CA@$0A@@ATL@@QEAA@PEB_W@Z 0000000180003fc0 f i OposVariant.obj
 0001:00003000       ??0?$CTraceCategoryEx@$0CAA@$0A@@ATL@@QEAA@PEB_W@Z 0000000180004000 f i OposVariant.obj
 0001:00003040       ??0?$CTraceCategoryEx@$0CAAA@$0A@@ATL@@QEAA@PEB_W@Z 0000000180004040 f i OposVariant.obj
 0001:00003080       ??0?$CTraceCategoryEx@$0CAAAA@$0A@@ATL@@QEAA@PEB_W@Z 0000000180004080 f i OposVariant.obj
 0001:000030c0       ??0?$CTraceCategoryEx@$0CAAAAA@$0A@@ATL@@QEAA@PEB_W@Z 00000001800040c0 f i OposVariant.obj
 0001:00003100       ??0?$CTraceCategoryEx@$0EA@$0A@@ATL@@QEAA@PEB_W@Z 0000000180004100 f i OposVariant.obj
 0001:00003140       ??0?$CTraceCategoryEx@$0EAA@$0A@@ATL@@QEAA@PEB_W@Z 0000000180004140 f i OposVariant.obj
 0001:00003180       ??0?$CTraceCategoryEx@$0EAAA@$0A@@ATL@@QEAA@PEB_W@Z 0000000180004180 f i OposVariant.obj
 0001:000031c0       ??0?$CTraceCategoryEx@$0EAAAA@$0A@@ATL@@QEAA@PEB_W@Z 00000001800041c0 f i OposVariant.obj
 0001:00003200       ??0?$CTraceCategoryEx@$0EAAAAA@$0A@@ATL@@QEAA@PEB_W@Z 0000000180004200 f i OposVariant.obj
 0001:00003240       ??0?$CTraceCategoryEx@$0IA@$0A@@ATL@@QEAA@PEB_W@Z 0000000180004240 f i OposVariant.obj
 0001:00003280       ??0?$CTraceCategoryEx@$0IAA@$0A@@ATL@@QEAA@PEB_W@Z 0000000180004280 f i OposVariant.obj
 0001:000032c0       ??0?$CTraceCategoryEx@$0IAAA@$0A@@ATL@@QEAA@PEB_W@Z 00000001800042c0 f i OposVariant.obj
 0001:00003300       ??0?$CTraceCategoryEx@$0IAAAA@$0A@@ATL@@QEAA@PEB_W@Z 0000000180004300 f i OposVariant.obj
 0001:00003340       ??0CAtlComModule@ATL@@QEAA@XZ 0000000180004340 f i OposVariant.obj
 0001:00003460       ??0CAtlWinModule@ATL@@QEAA@XZ 0000000180004460 f i OposVariant.obj
 0001:00003510       ??0CComCriticalSection@ATL@@QEAA@XZ 0000000180004510 f i OposVariant.obj
 0001:00003550       ??0CPreserveLastError@ATL@@QEAA@XZ 0000000180004550 f i OposVariant.obj
 0001:00003590       ??0CTraceFileAndLineInfo@ATL@@QEAA@PEBDH@Z 0000000180004590 f i OposVariant.obj
 0001:000035c0       ??0_ATL_COM_MODULE70@ATL@@QEAA@XZ 00000001800045c0 f i OposVariant.obj
 0001:00003600       ??0_ATL_WIN_MODULE70@ATL@@QEAA@XZ 0000000180004600 f i OposVariant.obj
 0001:00003650       ??1?$CHeapPtr@_WVCCRTAllocator@ATL@@@ATL@@QEAA@XZ 0000000180004650 f i OposVariant.obj
 0001:00003680       ??1?$CHeapPtrBase@_WVCCRTAllocator@ATL@@@ATL@@QEAA@XZ 0000000180004680 f i OposVariant.obj
 0001:000036b0       ??1?$CSimpleArray@GV?$CSimpleArrayEqualHelper@G@ATL@@@ATL@@QEAA@XZ 00000001800046b0 f i OposVariant.obj
 0001:000036e0       ??1CAtlComModule@ATL@@QEAA@XZ 00000001800046e0 f i OposVariant.obj
 0001:00003720       ??1CAtlWinModule@ATL@@QEAA@XZ 0000000180004720 f i OposVariant.obj
 0001:00003760       ??1CComBSTR@ATL@@QEAA@XZ   0000000180004760 f i OposVariant.obj
 0001:000037a0       ??1CComCriticalSection@ATL@@QEAA@XZ 00000001800047a0 f i OposVariant.obj
 0001:000037b0       ??1CPreserveLastError@ATL@@QEAA@XZ 00000001800047b0 f i OposVariant.obj
 0001:000037f0       ??1_ATL_COM_MODULE70@ATL@@QEAA@XZ 00000001800047f0 f i OposVariant.obj
 0001:00003830       ??1_ATL_WIN_MODULE70@ATL@@QEAA@XZ 0000000180004830 f i OposVariant.obj
 0001:00003880       ??1stringdispid@CComTypeInfoHolder@ATL@@QEAA@XZ 0000000180004880 f i OposVariant.obj
 0001:000038c0       ??A?$CSimpleArray@GV?$CSimpleArrayEqualHelper@G@ATL@@@ATL@@QEAAAEAGH@Z 00000001800048c0 f i OposVariant.obj
 0001:00003970       ??B?$CHeapPtrBase@_WVCCRTAllocator@ATL@@@ATL@@QEBAPEA_WXZ 0000000180004970 f i OposVariant.obj
 0001:00003980       ??B?$CTraceCategoryEx@$01$0A@@ATL@@QEAAIXZ 0000000180004980 f i OposVariant.obj
 0001:00003990       ??B?$CTraceCategoryEx@$0CA@$0A@@ATL@@QEAAIXZ 0000000180004990 f i OposVariant.obj
 0001:000039a0       ??RCTraceFileAndLineInfo@ATL@@QEBAXHIPEB_WZZ 00000001800049a0 f i OposVariant.obj
 0001:00003a50       ??_Estringdispid@CComTypeInfoHolder@ATL@@QEAAPEAXI@Z 0000000180004a50 f i OposVariant.obj
 0001:00003b00       ??_H@YAXPEAX_K1P6APEAX0@Z@Z 0000000180004b00 f i OposVariant.obj
 0001:00003b90       ??_I@YAXPEAX_K1P6AX0@Z@Z   0000000180004b90 f i OposVariant.obj
 0001:00003c40       ?Allocate@?$CHeapPtr@_WVCCRTAllocator@ATL@@@ATL@@QEAA_N_K@Z 0000000180004c40 f i OposVariant.obj
 0001:00003cc0       ?Allocate@CCRTAllocator@ATL@@SAPEAX_K@Z 0000000180004cc0 f i OposVariant.obj
 0001:00003cf0       ?AllocateBytes@?$CHeapPtrBase@_WVCCRTAllocator@ATL@@@ATL@@QEAA_N_K@Z 0000000180004cf0 f i OposVariant.obj
 0001:00003d90       ?AtlWinModuleInit@ATL@@YAJPEAU_ATL_WIN_MODULE70@1@@Z 0000000180004d90 f i OposVariant.obj
 0001:00003e90       ?AtlWinModuleTerm@ATL@@YAJPEAU_ATL_WIN_MODULE70@1@PEAUHINSTANCE__@@@Z 0000000180004e90 f i OposVariant.obj
 0001:00003f80       ?Clear@OposVariant@@QEAAJXZ 0000000180004f80 f i OposVariant.obj
 0001:00003fc0       ?Free@?$CHeapPtrBase@_WVCCRTAllocator@ATL@@@ATL@@QEAAXXZ 0000000180004fc0 f i OposVariant.obj
 0001:00004000       ?Free@CCRTAllocator@ATL@@SAXPEAX@Z 0000000180005000 f i OposVariant.obj
 0001:00004030       ?GetCategoryName@CTrace@ATL@@CAPEA_WI@Z 0000000180005030 f i OposVariant.obj
 0001:000040b0       ?GetModuleInstance@CAtlBaseModule@ATL@@QEAAPEAUHINSTANCE__@@XZ 00000001800050b0 f i OposVariant.obj
 0001:000040d0       ?GetSize@?$CSimpleArray@GV?$CSimpleArrayEqualHelper@G@ATL@@@ATL@@QEBAHXZ 00000001800050d0 f i OposVariant.obj
 0001:000040e0       ?Init@CComCriticalSection@ATL@@QEAAJXZ 00000001800050e0 f i OposVariant.obj
 0001:00004140       ?RegisterCategory@CTrace@ATL@@SAXPEB_WI@Z 0000000180005140 f i OposVariant.obj
 0001:00004220       ?RemoveAll@?$CSimpleArray@GV?$CSimpleArrayEqualHelper@G@ATL@@@ATL@@QEAAXXZ 0000000180005220 f i OposVariant.obj
 0001:000042b0       ?Term@CAtlComModule@ATL@@QEAAXXZ 00000001800052b0 f i OposVariant.obj
 0001:00004390       ?Term@CAtlWinModule@ATL@@QEAAXXZ 0000000180005390 f i OposVariant.obj
 0001:000043d0       ?Term@CComCriticalSection@ATL@@QEAAJXZ 00000001800053d0 f i OposVariant.obj
 0001:00004410       ?TraceV@CTrace@ATL@@CAXPEBDHIIPEB_W@Z 0000000180005410 f i OposVariant.obj
 0001:000046c0       ?TraceV@CTrace@ATL@@SAXPEBDHIIPEB_WPEAD@Z 00000001800056c0 f i OposVariant.obj
 0001:00004870       ?_AtlInitializeCriticalSectionEx@ATL@@YAHPEAU_RTL_CRITICAL_SECTION@@KK@Z 0000000180005870 f i OposVariant.obj
 0001:000048c0       ?_AtlRaiseException@ATL@@YAXKK@Z 00000001800058c0 f i OposVariant.obj
 0001:00004900       HRESULT_FROM_WIN32         0000000180005900 f i OposVariant.obj
 0001:00004950       _vswprintf_s_l             0000000180005950 f i OposVariant.obj
 0001:000049e0       swprintf_s                 00000001800059e0 f i OposVariant.obj
 0001:00004a70       ?ObjectMain@CComObjectRootBase@ATL@@SAX_N@Z 0000000180005a70 f i Belt.obj
 0001:00004a80       ?GetCategoryMap@CComObjectRootBase@ATL@@SAPEBU_ATL_CATMAP_ENTRY@2@XZ 0000000180005a80 f i Belt.obj
 0001:00004a90       ?GetObjectDescription@?$CComCoClass@VCOPOSBelt@@$1?CLSID_OPOSBelt@@3U_GUID@@B@ATL@@SAPEB_WXZ 0000000180005a90 f i Belt.obj
 0001:00004aa0       ?UpdateRegistry@COPOSBelt@@SAJH@Z 0000000180005aa0 f i Belt.obj
 0001:00004ae0       ?CreateInstance@?$CComCreator@V?$CComObjectCached@VCComClassFactory@ATL@@@ATL@@@ATL@@SAJPEAXAEBU_GUID@@PEAPEAX@Z 0000000180005ae0 f i Belt.obj
 0001:00004cd0       ?CreateInstance@?$CComCreator2@V?$CComCreator@V?$CComObject@VCOPOSBelt@@@ATL@@@ATL@@V?$CComCreator@V?$CComAggObject@VCOPOSBelt@@@ATL@@@2@@ATL@@SAJPEAXAEBU_GUID@@PEAPEAX@Z 0000000180005cd0 f i Belt.obj
 0001:00004ee0       DllGetClassObject          0000000180005ee0 f   Belt.obj
 0001:00004f30       DllCanUnloadNow            0000000180005f30 f   Belt.obj
 0001:00004f80       DllRegisterServer          0000000180005f80 f   Belt.obj
 0001:00004fc0       DllUnregisterServer        0000000180005fc0 f   Belt.obj
 0001:000051c0       DllMain                    00000001800061c0 f   Belt.obj
 0001:00005240       ??$?2G@Wrapper@?$CSimpleArray@GV?$CSimpleArrayEqualHelper@G@ATL@@@ATL@@SAPEAX_KPEAG@Z 0000000180006240 f i Belt.obj
 0001:00005260       ??$?2PEA_W@?$Wrapper@PEA_W@?$CSimpleMap@PEA_WPEA_WVCExpansionVectorEqualHelper@ATL@@@ATL@@SAPEAX_KPEAPEA_W@Z 0000000180006260 f i Belt.obj
 0001:00005280       ??$?4UITypeInfo2@@@?$CComPtr@UITypeInfo@@@ATL@@QEAAPEAUITypeInfo@@AEBV?$CComPtr@UITypeInfo2@@@1@@Z 0000000180006280 f i Belt.obj
 0001:000052f0       ??$AtlAdd@_K@ATL@@YAJPEA_K_K1@Z 00000001800062f0 f i Belt.obj
 0001:00005360       ??$AtlAddThrow@_K@ATL@@YA_K_K0@Z 0000000180006360 f i Belt.obj
 0001:000053d0       ??$AtlModuleRegisterWndClassInfoT@VAtlModuleRegisterWndClassInfoParamW@ATL@@@ATL@@YAGPEAU_ATL_BASE_MODULE70@0@PEAU_ATL_WIN_MODULE70@0@PEAU_ATL_WNDCLASSINFOW@0@PEAP6A_JPEAUHWND__@@I_K_J@ZVAtlModuleRegisterWndClassInfoParamW@0@@Z 00000001800063d0 f i Belt.obj
 0001:000059a0       ??$AtlMultiply@H@ATL@@YAJPEAHHH@Z 00000001800069a0 f i Belt.obj
 0001:00005a10       ??$AtlMultiply@K@ATL@@YAJPEAKKK@Z 0000000180006a10 f i Belt.obj
 0001:00005a80       ??$AtlMultiplyThrow@_K@ATL@@YA_K_K0@Z 0000000180006a80 f i Belt.obj
 0001:00005af0       ??$QueryInterface@UIPersistStream@@@IUnknown@@QEAAJPEAPEAUIPersistStream@@@Z 0000000180006af0 f i Belt.obj
 0001:00005b40       ??$QueryInterface@UITypeInfo2@@@IUnknown@@QEAAJPEAPEAUITypeInfo2@@@Z 0000000180006b40 f i Belt.obj
 0001:00005b90       ??0?$CAtlModuleT@VCComModule@ATL@@@ATL@@QEAA@XZ 0000000180006b90 f i Belt.obj
 0001:00005bd0       ??0?$CAtlSafeAllocBufferManager@VCCRTAllocator@ATL@@@_ATL_SAFE_ALLOCA_IMPL@ATL@@QEAA@XZ 0000000180006bd0 f i Belt.obj
 0001:00005bf0       ??0?$CAutoVectorPtr@_W@ATL@@QEAA@XZ 0000000180006bf0 f i Belt.obj
 0001:00005c10       ??0?$CComAggObject@VCOPOSBelt@@@ATL@@QEAA@PEAX@Z 0000000180006c10 f i Belt.obj
 0001:00005ca0       ??0?$CComContainedObject@VCOPOSBelt@@@ATL@@QEAA@PEAX@Z 0000000180006ca0 f i Belt.obj
 0001:00005e40       ??0?$CComCritSecLock@VCComCriticalSection@ATL@@@ATL@@QEAA@AEAVCComCriticalSection@1@_N@Z 0000000180006e40 f i Belt.obj
 0001:00005eb0       ??0?$CComEnum@UIEnumConnectionPoints@@$1?_GUID_b196b285_bab4_101a_b69c_00aa00341d07@@3U__s_GUID@@BPEAUIConnectionPoint@@V?$_CopyInterface@UIConnectionPoint@@@ATL@@VCComSingleThreadModel@6@@ATL@@QEAA@XZ 0000000180006eb0 f i Belt.obj
 0001:00005f00       ??0?$CComEnum@UIEnumConnections@@$1?_GUID_b196b287_bab4_101a_b69c_00aa00341d07@@3U__s_GUID@@BUtagCONNECTDATA@@V?$_Copy@UtagCONNECTDATA@@@ATL@@VCComSingleThreadModel@6@@ATL@@QEAA@XZ 0000000180006f00 f i Belt.obj
 0001:00005f50       ??0?$CComEnumImpl@UIEnumConnectionPoints@@$1?_GUID_b196b285_bab4_101a_b69c_00aa00341d07@@3U__s_GUID@@BPEAUIConnectionPoint@@V?$_CopyInterface@UIConnectionPoint@@@ATL@@@ATL@@QEAA@XZ 0000000180006f50 f i Belt.obj
 0001:00005fd0       ??0?$CComEnumImpl@UIEnumConnections@@$1?_GUID_b196b287_bab4_101a_b69c_00aa00341d07@@3U__s_GUID@@BUtagCONNECTDATA@@V?$_Copy@UtagCONNECTDATA@@@ATL@@@ATL@@QEAA@XZ 0000000180006fd0 f i Belt.obj
 0001:00006050       ??0?$CComObject@V?$CComEnum@UIEnumConnectionPoints@@$1?_GUID_b196b285_bab4_101a_b69c_00aa00341d07@@3U__s_GUID@@BPEAUIConnectionPoint@@V?$_CopyInterface@UIConnectionPoint@@@ATL@@VCComSingleThreadModel@6@@ATL@@@ATL@@QEAA@PEAX@Z 0000000180007050 f i Belt.obj
 0001:000060b0       ??0?$CComObject@V?$CComEnum@UIEnumConnections@@$1?_GUID_b196b287_bab4_101a_b69c_00aa00341d07@@3U__s_GUID@@BUtagCONNECTDATA@@V?$_Copy@UtagCONNECTDATA@@@ATL@@VCComSingleThreadModel@6@@ATL@@@ATL@@QEAA@PEAX@Z 00000001800070b0 f i Belt.obj
 0001:00006110       ??0?$CComObject@VCOPOSBelt@@@ATL@@QEAA@PEAX@Z 0000000180007110 f i Belt.obj
 0001:000062b0       ??0?$CComObjectCached@VCComClassFactory@ATL@@@ATL@@QEAA@PEAX@Z 00000001800072b0 f i Belt.obj
 0001:00006300       ??0?$CComObjectRootEx@VCComMultiThreadModel@ATL@@@ATL@@QEAA@XZ 0000000180007300 f i Belt.obj
 0001:00006350       ??0?$CComObjectRootEx@VCComSingleThreadModel@ATL@@@ATL@@QEAA@XZ 0000000180007350 f i Belt.obj
 0001:00006390       ??0?$CComPtr@UIAdviseSink@@@ATL@@QEAA@PEAUIAdviseSink@@@Z 0000000180007390 f i Belt.obj
 0001:000063d0       ??0?$CComPtr@UICatRegister@@@ATL@@QEAA@XZ 00000001800073d0 f i Belt.obj
 0001:00006410       ??0?$CComPtr@UIConnectionPoint@@@ATL@@QEAA@XZ 0000000180007410 f i Belt.obj
 0001:00006450       ??0?$CComPtr@UIConnectionPointContainer@@@ATL@@QEAA@XZ 0000000180007450 f i Belt.obj
 0001:00006490       ??0?$CComPtr@UIDataObject@@@ATL@@QEAA@XZ 0000000180007490 f i Belt.obj
 0001:000064d0       ??0?$CComPtr@UIDispatch@@@ATL@@QEAA@XZ 00000001800074d0 f i Belt.obj
 0001:00006510       ??0?$CComPtr@UIOleClientSite@@@ATL@@QEAA@PEAUIOleClientSite@@@Z 0000000180007510 f i Belt.obj
 0001:00006550       ??0?$CComPtr@UIOleControlSite@@@ATL@@QEAA@XZ 0000000180007550 f i Belt.obj
 0001:00006590       ??0?$CComPtr@UIOleInPlaceActiveObject@@@ATL@@QEAA@XZ 0000000180007590 f i Belt.obj
 0001:000065d0       ??0?$CComPtr@UIOleInPlaceFrame@@@ATL@@QEAA@XZ 00000001800075d0 f i Belt.obj
 0001:00006610       ??0?$CComPtr@UIOleInPlaceObject@@@ATL@@QEAA@XZ 0000000180007610 f i Belt.obj
 0001:00006650       ??0?$CComPtr@UIOleInPlaceUIWindow@@@ATL@@QEAA@XZ 0000000180007650 f i Belt.obj
 0001:00006690       ??0?$CComPtr@UIOleObject@@@ATL@@QEAA@XZ 0000000180007690 f i Belt.obj
 0001:000066d0       ??0?$CComPtr@UIPersistStream@@@ATL@@QEAA@XZ 00000001800076d0 f i Belt.obj
 0001:00006710       ??0?$CComPtr@UIPersistStreamInit@@@ATL@@QEAA@XZ 0000000180007710 f i Belt.obj
 0001:00006750       ??0?$CComPtr@UIPointerInactive@@@ATL@@QEAA@XZ 0000000180007750 f i Belt.obj
 0001:00006790       ??0?$CComPtr@UIProvideClassInfo2@@@ATL@@QEAA@XZ 0000000180007790 f i Belt.obj
 0001:000067d0       ??0?$CComPtr@UISpecifyPropertyPages@@@ATL@@QEAA@XZ 00000001800077d0 f i Belt.obj
 0001:00006810       ??0?$CComPtr@UIStream@@@ATL@@QEAA@XZ 0000000180007810 f i Belt.obj
 0001:00006850       ??0?$CComPtr@UITypeInfo2@@@ATL@@QEAA@XZ 0000000180007850 f i Belt.obj
 0001:00006890       ??0?$CComPtr@UITypeInfo@@@ATL@@QEAA@AEBV01@@Z 0000000180007890 f i Belt.obj
 0001:000068d0       ??0?$CComPtr@UITypeInfo@@@ATL@@QEAA@XZ 00000001800078d0 f i Belt.obj
 0001:00006910       ??0?$CComPtr@UITypeLib@@@ATL@@QEAA@XZ 0000000180007910 f i Belt.obj
 0001:00006950       ??0?$CComPtr@UIUnknown@@@ATL@@QEAA@AEBV01@@Z 0000000180007950 f i Belt.obj
 0001:00006990       ??0?$CComPtr@UIUnknown@@@ATL@@QEAA@PEAUIUnknown@@@Z 0000000180007990 f i Belt.obj
 0001:000069d0       ??0?$CComPtr@UIUnknown@@@ATL@@QEAA@XZ 00000001800079d0 f i Belt.obj
 0001:00006a10       ??0?$CComPtr@UIViewObjectEx@@@ATL@@QEAA@XZ 0000000180007a10 f i Belt.obj
 0001:00006a50       ??0?$CComPtrBase@UIAdviseSink@@@ATL@@IEAA@PEAUIAdviseSink@@@Z 0000000180007a50 f i Belt.obj
 0001:00006ab0       ??0?$CComPtrBase@UICatRegister@@@ATL@@IEAA@XZ 0000000180007ab0 f i Belt.obj
 0001:00006ad0       ??0?$CComPtrBase@UIConnectionPoint@@@ATL@@IEAA@XZ 0000000180007ad0 f i Belt.obj
 0001:00006af0       ??0?$CComPtrBase@UIConnectionPointContainer@@@ATL@@IEAA@XZ 0000000180007af0 f i Belt.obj
 0001:00006b10       ??0?$CComPtrBase@UIDataObject@@@ATL@@IEAA@XZ 0000000180007b10 f i Belt.obj
 0001:00006b30       ??0?$CComPtrBase@UIDispatch@@@ATL@@IEAA@XZ 0000000180007b30 f i Belt.obj
 0001:00006b50       ??0?$CComPtrBase@UIOleClientSite@@@ATL@@IEAA@PEAUIOleClientSite@@@Z 0000000180007b50 f i Belt.obj
 0001:00006bb0       ??0?$CComPtrBase@UIOleControlSite@@@ATL@@IEAA@XZ 0000000180007bb0 f i Belt.obj
 0001:00006bd0       ??0?$CComPtrBase@UIOleInPlaceActiveObject@@@ATL@@IEAA@XZ 0000000180007bd0 f i Belt.obj
 0001:00006bf0       ??0?$CComPtrBase@UIOleInPlaceFrame@@@ATL@@IEAA@XZ 0000000180007bf0 f i Belt.obj
 0001:00006c10       ??0?$CComPtrBase@UIOleInPlaceObject@@@ATL@@IEAA@XZ 0000000180007c10 f i Belt.obj
 0001:00006c30       ??0?$CComPtrBase@UIOleInPlaceUIWindow@@@ATL@@IEAA@XZ 0000000180007c30 f i Belt.obj
 0001:00006c50       ??0?$CComPtrBase@UIOleObject@@@ATL@@IEAA@XZ 0000000180007c50 f i Belt.obj
 0001:00006c70       ??0?$CComPtrBase@UIPersistStream@@@ATL@@IEAA@XZ 0000000180007c70 f i Belt.obj
 0001:00006c90       ??0?$CComPtrBase@UIPersistStreamInit@@@ATL@@IEAA@XZ 0000000180007c90 f i Belt.obj
 0001:00006cb0       ??0?$CComPtrBase@UIPointerInactive@@@ATL@@IEAA@XZ 0000000180007cb0 f i Belt.obj
 0001:00006cd0       ??0?$CComPtrBase@UIProvideClassInfo2@@@ATL@@IEAA@XZ 0000000180007cd0 f i Belt.obj
 0001:00006cf0       ??0?$CComPtrBase@UISpecifyPropertyPages@@@ATL@@IEAA@XZ 0000000180007cf0 f i Belt.obj
 0001:00006d10       ??0?$CComPtrBase@UIStream@@@ATL@@IEAA@XZ 0000000180007d10 f i Belt.obj
 0001:00006d30       ??0?$CComPtrBase@UITypeInfo2@@@ATL@@IEAA@XZ 0000000180007d30 f i Belt.obj
 0001:00006d50       ??0?$CComPtrBase@UITypeInfo@@@ATL@@IEAA@PEAUITypeInfo@@@Z 0000000180007d50 f i Belt.obj
 0001:00006db0       ??0?$CComPtrBase@UITypeInfo@@@ATL@@IEAA@XZ 0000000180007db0 f i Belt.obj
 0001:00006dd0       ??0?$CComPtrBase@UITypeLib@@@ATL@@IEAA@XZ 0000000180007dd0 f i Belt.obj
 0001:00006df0       ??0?$CComPtrBase@UIUnknown@@@ATL@@IEAA@PEAUIUnknown@@@Z 0000000180007df0 f i Belt.obj
 0001:00006e50       ??0?$CComPtrBase@UIUnknown@@@ATL@@IEAA@XZ 0000000180007e50 f i Belt.obj
 0001:00006e70       ??0?$CComPtrBase@UIViewObjectEx@@@ATL@@IEAA@XZ 0000000180007e70 f i Belt.obj
 0001:00006e90       ??0?$CComQIPtr@UIOleControlSite@@$1?_GUID_b196b289_bab4_101a_b69c_00aa00341d07@@3U__s_GUID@@B@ATL@@QEAA@PEAUIUnknown@@@Z 0000000180007e90 f i Belt.obj
 0001:00006f00       ??0?$CComQIPtr@UIOleObject@@$1?_GUID_00000112_0000_0000_c000_000000000046@@3U__s_GUID@@B@ATL@@QEAA@XZ 0000000180007f00 f i Belt.obj
 0001:00006f40       ??0?$CComQIPtr@UISpecifyPropertyPages@@$1?_GUID_b196b28b_bab4_101a_b69c_00aa00341d07@@3U__s_GUID@@B@ATL@@QEAA@XZ 0000000180007f40 f i Belt.obj
 0001:00006f80       ??0?$CSimpleMap@PEA_WPEA_WVCExpansionVectorEqualHelper@ATL@@@ATL@@QEAA@XZ 0000000180007f80 f i Belt.obj
 0001:00006fc0       ??0?$CTempBuffer@E$0BAA@VCCRTAllocator@ATL@@@ATL@@QEAA@XZ 0000000180007fc0 f i Belt.obj
 0001:00006fe0       ??0?$CTempBuffer@_W$0BAA@VCCRTAllocator@ATL@@@ATL@@QEAA@XZ 0000000180007fe0 f i Belt.obj
 0001:00007000       ??0?$CTempBuffer@_W$0EAA@VCCRTAllocator@ATL@@@ATL@@QEAA@XZ 0000000180008000 f i Belt.obj
 0001:00007020       ??0?$Wrapper@PEA_W@?$CSimpleMap@PEA_WPEA_WVCExpansionVectorEqualHelper@ATL@@@ATL@@QEAA@AEBQEA_W@Z 0000000180008020 f i Belt.obj
 0001:00007050       ??0CAtlModule@ATL@@QEAA@XZ 0000000180008050 f i Belt.obj
 0001:000071c0       ??0CComAutoDeleteCriticalSection@ATL@@QEAA@XZ 00000001800081c0 f i Belt.obj
 0001:00007200       ??0CComBSTR@ATL@@QEAA@XZ   0000000180008200 f i Belt.obj
 0001:00007220       ??0CComClassFactory@ATL@@QEAA@XZ 0000000180008220 f i Belt.obj
 0001:00007280       ??0CComModule@ATL@@QEAA@XZ 0000000180008280 f i Belt.obj
 0001:00007320       ??0CComObjectRootBase@ATL@@QEAA@XZ 0000000180008320 f i Belt.obj
 0001:00007340       ??0CComSafeDeleteCriticalSection@ATL@@QEAA@XZ 0000000180008340 f i Belt.obj
 0001:00007380       ??0CComVariant@ATL@@QEAA@XZ 0000000180008380 f i Belt.obj
 0001:000073d0       ??0CExpansionVector@ATL@@QEAA@XZ 00000001800083d0 f i Belt.obj
 0001:00007410       ??0CParseBuffer@CRegParser@ATL@@QEAA@H@Z 0000000180008410 f i Belt.obj
 0001:000074a0       ??0CRegKey@ATL@@QEAA@PEAUHKEY__@@@Z 00000001800084a0 f i Belt.obj
 0001:000074e0       ??0CRegKey@ATL@@QEAA@PEAVCAtlTransactionManager@1@@Z 00000001800084e0 f i Belt.obj
 0001:00007520       ??0CRegObject@ATL@@QEAA@XZ 0000000180008520 f i Belt.obj
 0001:00007580       ??0CRegParser@ATL@@QEAA@PEAVCRegObject@1@@Z 0000000180008580 f i Belt.obj
 0001:000075b0       ??0IClassFactory@@QEAA@XZ  00000001800085b0 f i Belt.obj
 0001:000075f0       ??0IEnumConnectionPoints@@QEAA@XZ 00000001800085f0 f i Belt.obj
 0001:00007630       ??0IEnumConnections@@QEAA@XZ 0000000180008630 f i Belt.obj
 0001:00007670       ??0IRegistrarBase@@QEAA@XZ 0000000180008670 f i Belt.obj
 0001:000076b0       ??0IUnknown@@QEAA@XZ       00000001800086b0 f i Belt.obj
 0001:000076c0       ??0ModuleLockHelper@ATL@@QEAA@XZ 00000001800086c0 f i Belt.obj
 0001:00007700       ??0OposVariant@@QEAA@XZ    0000000180008700 f i Belt.obj
 0001:00007720       ??0Wrapper@?$CSimpleArray@GV?$CSimpleArrayEqualHelper@G@ATL@@@ATL@@QEAA@AEBG@Z 0000000180008720 f i Belt.obj
 0001:00007750       ??0_ATL_MODULE70@ATL@@QEAA@XZ 0000000180008750 f i Belt.obj
 0001:00007790       ??0_ATL_MSG@ATL@@QEAA@PEAUHWND__@@I_K_JH@Z 0000000180008790 f i Belt.obj
 0001:00007820       ??0_U_MENUorID@ATL@@QEAA@I@Z 0000000180008820 f i Belt.obj
 0001:00007840       ??0_U_RECT@ATL@@QEAA@AEAUtagRECT@@@Z 0000000180008840 f i Belt.obj
 0001:00007860       ??0stringdispid@CComTypeInfoHolder@ATL@@QEAA@XZ 0000000180008860 f i Belt.obj
 0001:000078b0       ??1?$CAtlModuleT@VCComModule@ATL@@@ATL@@UEAA@XZ 00000001800088b0 f i Belt.obj
 0001:000078e0       ??1?$CAtlSafeAllocBufferManager@VCCRTAllocator@ATL@@@_ATL_SAFE_ALLOCA_IMPL@ATL@@QEAA@XZ 00000001800088e0 f i Belt.obj
 0001:00007940       ??1?$CAutoVectorPtr@_W@ATL@@QEAA@XZ 0000000180008940 f i Belt.obj
 0001:00007970       ??1?$CComAggObject@VCOPOSBelt@@@ATL@@UEAA@XZ 0000000180008970 f i Belt.obj
 0001:000079f0       ??1?$CComContainedObject@VCOPOSBelt@@@ATL@@UEAA@XZ 00000001800089f0 f i Belt.obj
 0001:00007a20       ??1?$CComCritSecLock@VCComCriticalSection@ATL@@@ATL@@QEAA@XZ 0000000180008a20 f i Belt.obj
 0001:00007a60       ??1?$CComEnum@UIEnumConnectionPoints@@$1?_GUID_b196b285_bab4_101a_b69c_00aa00341d07@@3U__s_GUID@@BPEAUIConnectionPoint@@V?$_CopyInterface@UIConnectionPoint@@@ATL@@VCComSingleThreadModel@6@@ATL@@UEAA@XZ 0000000180008a60 f i Belt.obj
 0001:00007aa0       ??1?$CComEnum@UIEnumConnections@@$1?_GUID_b196b287_bab4_101a_b69c_00aa00341d07@@3U__s_GUID@@BUtagCONNECTDATA@@V?$_Copy@UtagCONNECTDATA@@@ATL@@VCComSingleThreadModel@6@@ATL@@UEAA@XZ 0000000180008aa0 f i Belt.obj
 0001:00007ae0       ??1?$CComEnumImpl@UIEnumConnectionPoints@@$1?_GUID_b196b285_bab4_101a_b69c_00aa00341d07@@3U__s_GUID@@BPEAUIConnectionPoint@@V?$_CopyInterface@UIConnectionPoint@@@ATL@@@ATL@@UEAA@XZ 0000000180008ae0 f i Belt.obj
 0001:00007b80       ??1?$CComEnumImpl@UIEnumConnections@@$1?_GUID_b196b287_bab4_101a_b69c_00aa00341d07@@3U__s_GUID@@BUtagCONNECTDATA@@V?$_Copy@UtagCONNECTDATA@@@ATL@@@ATL@@UEAA@XZ 0000000180008b80 f i Belt.obj
 0001:00007c20       ??1?$CComObject@V?$CComEnum@UIEnumConnectionPoints@@$1?_GUID_b196b285_bab4_101a_b69c_00aa00341d07@@3U__s_GUID@@BPEAUIConnectionPoint@@V?$_CopyInterface@UIConnectionPoint@@@ATL@@VCComSingleThreadModel@6@@ATL@@@ATL@@UEAA@XZ 0000000180008c20 f i Belt.obj
 0001:00007c90       ??1?$CComObject@V?$CComEnum@UIEnumConnections@@$1?_GUID_b196b287_bab4_101a_b69c_00aa00341d07@@3U__s_GUID@@BUtagCONNECTDATA@@V?$_Copy@UtagCONNECTDATA@@@ATL@@VCComSingleThreadModel@6@@ATL@@@ATL@@UEAA@XZ 0000000180008c90 f i Belt.obj
 0001:00007d00       ??1?$CComObject@VCOPOSBelt@@@ATL@@UEAA@XZ 0000000180008d00 f i Belt.obj
 0001:00007eb0       ??1?$CComObjectCached@VCComClassFactory@ATL@@@ATL@@UEAA@XZ 0000000180008eb0 f i Belt.obj
 0001:00007f10       ??1?$CComObjectRootEx@VCComMultiThreadModel@ATL@@@ATL@@QEAA@XZ 0000000180008f10 f i Belt.obj
 0001:00007f50       ??1?$CComObjectRootEx@VCComSingleThreadModel@ATL@@@ATL@@QEAA@XZ 0000000180008f50 f i Belt.obj
 0001:00007f80       ??1?$CComPtr@UIAdviseSink@@@ATL@@QEAA@XZ 0000000180008f80 f i Belt.obj
 0001:00007fb0       ??1?$CComPtr@UICatRegister@@@ATL@@QEAA@XZ 0000000180008fb0 f i Belt.obj
 0001:00007fe0       ??1?$CComPtr@UIConnectionPoint@@@ATL@@QEAA@XZ 0000000180008fe0 f i Belt.obj
 0001:00008010       ??1?$CComPtr@UIConnectionPointContainer@@@ATL@@QEAA@XZ 0000000180009010 f i Belt.obj
 0001:00008040       ??1?$CComPtr@UIDataObject@@@ATL@@QEAA@XZ 0000000180009040 f i Belt.obj
 0001:00008070       ??1?$CComPtr@UIDispatch@@@ATL@@QEAA@XZ 0000000180009070 f i Belt.obj
 0001:000080a0       ??1?$CComPtr@UIOleClientSite@@@ATL@@QEAA@XZ 00000001800090a0 f i Belt.obj
 0001:000080d0       ??1?$CComPtr@UIOleControlSite@@@ATL@@QEAA@XZ 00000001800090d0 f i Belt.obj
 0001:00008100       ??1?$CComPtr@UIOleInPlaceActiveObject@@@ATL@@QEAA@XZ 0000000180009100 f i Belt.obj
 0001:00008130       ??1?$CComPtr@UIOleInPlaceFrame@@@ATL@@QEAA@XZ 0000000180009130 f i Belt.obj
 0001:00008160       ??1?$CComPtr@UIOleInPlaceObject@@@ATL@@QEAA@XZ 0000000180009160 f i Belt.obj
 0001:00008190       ??1?$CComPtr@UIOleInPlaceUIWindow@@@ATL@@QEAA@XZ 0000000180009190 f i Belt.obj
 0001:000081c0       ??1?$CComPtr@UIOleObject@@@ATL@@QEAA@XZ 00000001800091c0 f i Belt.obj
 0001:000081f0       ??1?$CComPtr@UIPersistStream@@@ATL@@QEAA@XZ 00000001800091f0 f i Belt.obj
 0001:00008220       ??1?$CComPtr@UIPersistStreamInit@@@ATL@@QEAA@XZ 0000000180009220 f i Belt.obj
 0001:00008250       ??1?$CComPtr@UIPointerInactive@@@ATL@@QEAA@XZ 0000000180009250 f i Belt.obj
 0001:00008280       ??1?$CComPtr@UIProvideClassInfo2@@@ATL@@QEAA@XZ 0000000180009280 f i Belt.obj
 0001:000082b0       ??1?$CComPtr@UISpecifyPropertyPages@@@ATL@@QEAA@XZ 00000001800092b0 f i Belt.obj
 0001:000082e0       ??1?$CComPtr@UIStream@@@ATL@@QEAA@XZ 00000001800092e0 f i Belt.obj
 0001:00008310       ??1?$CComPtr@UITypeInfo2@@@ATL@@QEAA@XZ 0000000180009310 f i Belt.obj
 0001:00008340       ??1?$CComPtr@UITypeInfo@@@ATL@@QEAA@XZ 0000000180009340 f i Belt.obj
 0001:00008370       ??1?$CComPtr@UITypeLib@@@ATL@@QEAA@XZ 0000000180009370 f i Belt.obj
 0001:000083a0       ??1?$CComPtr@UIUnknown@@@ATL@@QEAA@XZ 00000001800093a0 f i Belt.obj
 0001:000083d0       ??1?$CComPtr@UIViewObjectEx@@@ATL@@QEAA@XZ 00000001800093d0 f i Belt.obj
 0001:00008400       ??1?$CComPtrBase@UIAdviseSink@@@ATL@@QEAA@XZ 0000000180009400 f i Belt.obj
 0001:00008450       ??1?$CComPtrBase@UICatRegister@@@ATL@@QEAA@XZ 0000000180009450 f i Belt.obj
 0001:000084a0       ??1?$CComPtrBase@UIConnectionPoint@@@ATL@@QEAA@XZ 00000001800094a0 f i Belt.obj
 0001:000084f0       ??1?$CComPtrBase@UIConnectionPointContainer@@@ATL@@QEAA@XZ 00000001800094f0 f i Belt.obj
 0001:00008540       ??1?$CComPtrBase@UIDataObject@@@ATL@@QEAA@XZ 0000000180009540 f i Belt.obj
 0001:00008590       ??1?$CComPtrBase@UIDispatch@@@ATL@@QEAA@XZ 0000000180009590 f i Belt.obj
 0001:000085e0       ??1?$CComPtrBase@UIOleClientSite@@@ATL@@QEAA@XZ 00000001800095e0 f i Belt.obj
 0001:00008630       ??1?$CComPtrBase@UIOleControlSite@@@ATL@@QEAA@XZ 0000000180009630 f i Belt.obj
 0001:00008680       ??1?$CComPtrBase@UIOleInPlaceActiveObject@@@ATL@@QEAA@XZ 0000000180009680 f i Belt.obj
 0001:000086d0       ??1?$CComPtrBase@UIOleInPlaceFrame@@@ATL@@QEAA@XZ 00000001800096d0 f i Belt.obj
 0001:00008720       ??1?$CComPtrBase@UIOleInPlaceObject@@@ATL@@QEAA@XZ 0000000180009720 f i Belt.obj
 0001:00008770       ??1?$CComPtrBase@UIOleInPlaceUIWindow@@@ATL@@QEAA@XZ 0000000180009770 f i Belt.obj
 0001:000087c0       ??1?$CComPtrBase@UIOleObject@@@ATL@@QEAA@XZ 00000001800097c0 f i Belt.obj
 0001:00008810       ??1?$CComPtrBase@UIPersistStream@@@ATL@@QEAA@XZ 0000000180009810 f i Belt.obj
 0001:00008860       ??1?$CComPtrBase@UIPersistStreamInit@@@ATL@@QEAA@XZ 0000000180009860 f i Belt.obj
 0001:000088b0       ??1?$CComPtrBase@UIPointerInactive@@@ATL@@QEAA@XZ 00000001800098b0 f i Belt.obj
 0001:00008900       ??1?$CComPtrBase@UIProvideClassInfo2@@@ATL@@QEAA@XZ 0000000180009900 f i Belt.obj
 0001:00008950       ??1?$CComPtrBase@UISpecifyPropertyPages@@@ATL@@QEAA@XZ 0000000180009950 f i Belt.obj
 0001:000089a0       ??1?$CComPtrBase@UIStream@@@ATL@@QEAA@XZ 00000001800099a0 f i Belt.obj
 0001:000089f0       ??1?$CComPtrBase@UITypeInfo2@@@ATL@@QEAA@XZ 00000001800099f0 f i Belt.obj
 0001:00008a40       ??1?$CComPtrBase@UITypeInfo@@@ATL@@QEAA@XZ 0000000180009a40 f i Belt.obj
 0001:00008a90       ??1?$CComPtrBase@UITypeLib@@@ATL@@QEAA@XZ 0000000180009a90 f i Belt.obj
 0001:00008ae0       ??1?$CComPtrBase@UIUnknown@@@ATL@@QEAA@XZ 0000000180009ae0 f i Belt.obj
 0001:00008b30       ??1?$CComPtrBase@UIViewObjectEx@@@ATL@@QEAA@XZ 0000000180009b30 f i Belt.obj
 0001:00008b80       ??1?$CComQIPtr@UIOleControlSite@@$1?_GUID_b196b289_bab4_101a_b69c_00aa00341d07@@3U__s_GUID@@B@ATL@@QEAA@XZ 0000000180009b80 f i Belt.obj
 0001:00008bb0       ??1?$CComQIPtr@UIOleObject@@$1?_GUID_00000112_0000_0000_c000_000000000046@@3U__s_GUID@@B@ATL@@QEAA@XZ 0000000180009bb0 f i Belt.obj
 0001:00008be0       ??1?$CComQIPtr@UISpecifyPropertyPages@@$1?_GUID_b196b28b_bab4_101a_b69c_00aa00341d07@@3U__s_GUID@@B@ATL@@QEAA@XZ 0000000180009be0 f i Belt.obj
 0001:00008c10       ??1?$CSimpleMap@PEA_WPEA_WVCExpansionVectorEqualHelper@ATL@@@ATL@@QEAA@XZ 0000000180009c10 f i Belt.obj
 0001:00008c40       ??1?$CTempBuffer@E$0BAA@VCCRTAllocator@ATL@@@ATL@@QEAA@XZ 0000000180009c40 f i Belt.obj
 0001:00008c90       ??1?$CTempBuffer@_W$0BAA@VCCRTAllocator@ATL@@@ATL@@QEAA@XZ 0000000180009c90 f i Belt.obj
 0001:00008ce0       ??1?$CTempBuffer@_W$0EAA@VCCRTAllocator@ATL@@@ATL@@QEAA@XZ 0000000180009ce0 f i Belt.obj
 0001:00008d30       ??1CAtlModule@ATL@@UEAA@XZ 0000000180009d30 f i Belt.obj
 0001:00008d70       ??1CComAutoDeleteCriticalSection@ATL@@QEAA@XZ 0000000180009d70 f i Belt.obj
 0001:00008da0       ??1CComClassFactory@ATL@@UEAA@XZ 0000000180009da0 f i Belt.obj
 0001:00008df0       ??1CComModule@ATL@@UEAA@XZ 0000000180009df0 f i Belt.obj
 0001:00008e30       ??1CComObjectRootBase@ATL@@QEAA@XZ 0000000180009e30 f i Belt.obj
 0001:00008e40       ??1CComSafeDeleteCriticalSection@ATL@@QEAA@XZ 0000000180009e40 f i Belt.obj
 0001:00008e90       ??1CComVariant@ATL@@QEAA@XZ 0000000180009e90 f i Belt.obj
 0001:00008f10       ??1CExpansionVector@ATL@@QEAA@XZ 0000000180009f10 f i Belt.obj
 0001:00008f50       ??1CParseBuffer@CRegParser@ATL@@QEAA@XZ 0000000180009f50 f i Belt.obj
 0001:00008f90       ??1CRegKey@ATL@@QEAA@XZ    0000000180009f90 f i Belt.obj
 0001:00008fc0       ??1CRegObject@ATL@@UEAA@XZ 0000000180009fc0 f i Belt.obj
 0001:00009010       ??1ModuleLockHelper@ATL@@QEAA@XZ 000000018000a010 f i Belt.obj
 0001:00009050       ??1OposVariant@@QEAA@XZ    000000018000a050 f i Belt.obj
 0001:00009090       ??1_ATL_MODULE70@ATL@@QEAA@XZ 000000018000a090 f i Belt.obj
 0001:000090d0       ??4?$CComPtr@UIAdviseSink@@@ATL@@QEAAPEAUIAdviseSink@@PEAU2@@Z 000000018000a0d0 f i Belt.obj
 0001:00009140       ??4?$CComPtr@UIOleClientSite@@@ATL@@QEAAPEAUIOleClientSite@@PEAU2@@Z 000000018000a140 f i Belt.obj
 0001:000091b0       ??4?$CComPtr@UIUnknown@@@ATL@@QEAAPEAUIUnknown@@PEAU2@@Z 000000018000a1b0 f i Belt.obj
 0001:00009220       ??4?$CComQIPtr@UIOleObject@@$1?_GUID_00000112_0000_0000_c000_000000000046@@3U__s_GUID@@B@ATL@@QEAAPEAUIOleObject@@PEAUIUnknown@@@Z 000000018000a220 f i Belt.obj
 0001:00009280       ??4?$CComQIPtr@UISpecifyPropertyPages@@$1?_GUID_b196b28b_bab4_101a_b69c_00aa00341d07@@3U__s_GUID@@B@ATL@@QEAAPEAUISpecifyPropertyPages@@PEAUIUnknown@@@Z 000000018000a280 f i Belt.obj
 0001:000092e0       ??7?$CComPtrBase@UIOleClientSite@@@ATL@@QEBA_NXZ 000000018000a2e0 f i Belt.obj
 0001:00009330       ??7?$CComPtrBase@UIOleInPlaceSiteWindowless@@@ATL@@QEBA_NXZ 000000018000a330 f i Belt.obj
 0001:00009380       ??7CComBSTR@ATL@@QEBA_NXZ  000000018000a380 f i Belt.obj
 0001:000093d0       ??8?$CComPtrBase@UIConnectionPointContainer@@@ATL@@QEBA_NPEAUIConnectionPointContainer@@@Z 000000018000a3d0 f i Belt.obj
 0001:00009420       ??8?$CComPtrBase@UIDataAdviseHolder@@@ATL@@QEBA_NPEAUIDataAdviseHolder@@@Z 000000018000a420 f i Belt.obj
 0001:00009470       ??8?$CComPtrBase@UIOleAdviseHolder@@@ATL@@QEBA_NPEAUIOleAdviseHolder@@@Z 000000018000a470 f i Belt.obj
 0001:000094c0       ??8?$CComPtrBase@UIOleClientSite@@@ATL@@QEBA_NPEAUIOleClientSite@@@Z 000000018000a4c0 f i Belt.obj
 0001:00009510       ??8?$CComPtrBase@UIOleControlSite@@@ATL@@QEBA_NPEAUIOleControlSite@@@Z 000000018000a510 f i Belt.obj
 0001:00009560       ??8?$CComPtrBase@UIOleInPlaceObject@@@ATL@@QEBA_NPEAUIOleInPlaceObject@@@Z 000000018000a560 f i Belt.obj
 0001:000095b0       ??8?$CComPtrBase@UIOleInPlaceSiteWindowless@@@ATL@@QEBA_NPEAUIOleInPlaceSiteWindowless@@@Z 000000018000a5b0 f i Belt.obj
 0001:00009600       ??8?$CComPtrBase@UIOleObject@@@ATL@@QEBA_NPEAUIOleObject@@@Z 000000018000a600 f i Belt.obj
 0001:00009650       ??8?$CComPtrBase@UIPersistStream@@@ATL@@QEBA_NPEAUIPersistStream@@@Z 000000018000a650 f i Belt.obj
 0001:000096a0       ??8?$CComPtrBase@UIPersistStreamInit@@@ATL@@QEBA_NPEAUIPersistStreamInit@@@Z 000000018000a6a0 f i Belt.obj
 0001:000096f0       ??8?$CComPtrBase@UIPointerInactive@@@ATL@@QEBA_NPEAUIPointerInactive@@@Z 000000018000a6f0 f i Belt.obj
 0001:00009740       ??8?$CComPtrBase@UIUnknown@@@ATL@@QEBA_NPEAUIUnknown@@@Z 000000018000a740 f i Belt.obj
 0001:00009790       ??8?$CComPtrBase@UIViewObjectEx@@@ATL@@QEBA_NPEAUIViewObjectEx@@@Z 000000018000a790 f i Belt.obj
 0001:000097e0       ??8CComBSTR@ATL@@QEBA_NH@Z 000000018000a7e0 f i Belt.obj
 0001:00009860       ??9?$CComPtrBase@UIConnectionPointContainer@@@ATL@@QEBA_NPEAUIConnectionPointContainer@@@Z 000000018000a860 f i Belt.obj
 0001:000098c0       ??9?$CComPtrBase@UIDataAdviseHolder@@@ATL@@QEBA_NPEAUIDataAdviseHolder@@@Z 000000018000a8c0 f i Belt.obj
 0001:00009920       ??9?$CComPtrBase@UIOleAdviseHolder@@@ATL@@QEBA_NPEAUIOleAdviseHolder@@@Z 000000018000a920 f i Belt.obj
 0001:00009980       ??9?$CComPtrBase@UIOleClientSite@@@ATL@@QEBA_NPEAUIOleClientSite@@@Z 000000018000a980 f i Belt.obj
 0001:000099e0       ??9?$CComPtrBase@UIOleControlSite@@@ATL@@QEBA_NPEAUIOleControlSite@@@Z 000000018000a9e0 f i Belt.obj
 0001:00009a40       ??9?$CComPtrBase@UIOleInPlaceObject@@@ATL@@QEBA_NPEAUIOleInPlaceObject@@@Z 000000018000aa40 f i Belt.obj
 0001:00009aa0       ??9?$CComPtrBase@UIOleInPlaceSiteWindowless@@@ATL@@QEBA_NPEAUIOleInPlaceSiteWindowless@@@Z 000000018000aaa0 f i Belt.obj
 0001:00009b00       ??9?$CComPtrBase@UIOleObject@@@ATL@@QEBA_NPEAUIOleObject@@@Z 000000018000ab00 f i Belt.obj
 0001:00009b60       ??9?$CComPtrBase@UIPersistStream@@@ATL@@QEBA_NPEAUIPersistStream@@@Z 000000018000ab60 f i Belt.obj
 0001:00009bc0       ??9?$CComPtrBase@UIPersistStreamInit@@@ATL@@QEBA_NPEAUIPersistStreamInit@@@Z 000000018000abc0 f i Belt.obj
 0001:00009c20       ??9?$CComPtrBase@UIPointerInactive@@@ATL@@QEBA_NPEAUIPointerInactive@@@Z 000000018000ac20 f i Belt.obj
 0001:00009c80       ??9?$CComPtrBase@UIUnknown@@@ATL@@QEBA_NPEAUIUnknown@@@Z 000000018000ac80 f i Belt.obj
 0001:00009ce0       ??9?$CComPtrBase@UIViewObjectEx@@@ATL@@QEBA_NPEAUIViewObjectEx@@@Z 000000018000ace0 f i Belt.obj
 0001:00009d40       ??9CComBSTR@ATL@@QEBA_NH@Z 000000018000ad40 f i Belt.obj
 0001:00009da0       ??B?$CComPtrBase@UIAdviseSink@@@ATL@@QEBAPEAUIAdviseSink@@XZ 000000018000ada0 f i Belt.obj
 0001:00009db0       ??B?$CComPtrBase@UIDataAdviseHolder@@@ATL@@QEBAPEAUIDataAdviseHolder@@XZ 000000018000adb0 f i Belt.obj
 0001:00009dc0       ??B?$CComPtrBase@UIDataObject@@@ATL@@QEBAPEAUIDataObject@@XZ 000000018000adc0 f i Belt.obj
 0001:00009dd0       ??B?$CComPtrBase@UIOleAdviseHolder@@@ATL@@QEBAPEAUIOleAdviseHolder@@XZ 000000018000add0 f i Belt.obj
 0001:00009de0       ??B?$CComPtrBase@UIOleClientSite@@@ATL@@QEBAPEAUIOleClientSite@@XZ 000000018000ade0 f i Belt.obj
 0001:00009df0       ??B?$CComPtrBase@UIOleControlSite@@@ATL@@QEBAPEAUIOleControlSite@@XZ 000000018000adf0 f i Belt.obj
 0001:00009e00       ??B?$CComPtrBase@UIOleInPlaceActiveObject@@@ATL@@QEBAPEAUIOleInPlaceActiveObject@@XZ 000000018000ae00 f i Belt.obj
 0001:00009e10       ??B?$CComPtrBase@UIOleInPlaceFrame@@@ATL@@QEBAPEAUIOleInPlaceFrame@@XZ 000000018000ae10 f i Belt.obj
 0001:00009e20       ??B?$CComPtrBase@UIOleInPlaceSiteWindowless@@@ATL@@QEBAPEAUIOleInPlaceSiteWindowless@@XZ 000000018000ae20 f i Belt.obj
 0001:00009e30       ??B?$CComPtrBase@UIOleInPlaceUIWindow@@@ATL@@QEBAPEAUIOleInPlaceUIWindow@@XZ 000000018000ae30 f i Belt.obj
 0001:00009e40       ??B?$CComPtrBase@UIOleObject@@@ATL@@QEBAPEAUIOleObject@@XZ 000000018000ae40 f i Belt.obj
 0001:00009e50       ??B?$CComPtrBase@UIPersistStream@@@ATL@@QEBAPEAUIPersistStream@@XZ 000000018000ae50 f i Belt.obj
 0001:00009e60       ??B?$CComPtrBase@UIProvideClassInfo2@@@ATL@@QEBAPEAUIProvideClassInfo2@@XZ 000000018000ae60 f i Belt.obj
 0001:00009e70       ??B?$CComPtrBase@UISpecifyPropertyPages@@@ATL@@QEBAPEAUISpecifyPropertyPages@@XZ 000000018000ae70 f i Belt.obj
 0001:00009e80       ??B?$CComPtrBase@UIStream@@@ATL@@QEBAPEAUIStream@@XZ 000000018000ae80 f i Belt.obj
 0001:00009e90       ??B?$CComPtrBase@UITypeInfo2@@@ATL@@QEBAPEAUITypeInfo2@@XZ 000000018000ae90 f i Belt.obj
 0001:00009ea0       ??B?$CComPtrBase@UITypeInfo@@@ATL@@QEBAPEAUITypeInfo@@XZ 000000018000aea0 f i Belt.obj
 0001:00009eb0       ??B?$CComPtrBase@UITypeLib@@@ATL@@QEBAPEAUITypeLib@@XZ 000000018000aeb0 f i Belt.obj
 0001:00009ec0       ??B?$CComPtrBase@UIUnknown@@@ATL@@QEBAPEAUIUnknown@@XZ 000000018000aec0 f i Belt.obj
 0001:00009ed0       ??B?$CTempBuffer@E$0BAA@VCCRTAllocator@ATL@@@ATL@@QEBAPEAEXZ 000000018000aed0 f i Belt.obj
 0001:00009ee0       ??B?$CTempBuffer@_W$0BAA@VCCRTAllocator@ATL@@@ATL@@QEBAPEA_WXZ 000000018000aee0 f i Belt.obj
 0001:00009ef0       ??B?$CTempBuffer@_W$0EAA@VCCRTAllocator@ATL@@@ATL@@QEBAPEA_WXZ 000000018000aef0 f i Belt.obj
 0001:00009f00       ??B?$CTraceCategoryEx@$00$0A@@ATL@@QEAAIXZ 000000018000af00 f i Belt.obj
 0001:00009f10       ??B?$CTraceCategoryEx@$07$0A@@ATL@@QEAAIXZ 000000018000af10 f i Belt.obj
 0001:00009f20       ??B?$CTraceCategoryEx@$0CAAA@$0A@@ATL@@QEAAIXZ 000000018000af20 f i Belt.obj
 0001:00009f30       ??B?$CTraceCategoryEx@$0EA@$0A@@ATL@@QEAAIXZ 000000018000af30 f i Belt.obj
 0001:00009f40       ??B?$CTraceCategoryEx@$0IAA@$0A@@ATL@@QEAAIXZ 000000018000af40 f i Belt.obj
 0001:00009f50       ??BCComBSTR@ATL@@QEBAPEA_WXZ 000000018000af50 f i Belt.obj
 0001:00009f60       ??BCRegKey@ATL@@QEBAPEAUHKEY__@@XZ 000000018000af60 f i Belt.obj
 0001:00009f70       ??C?$CComPtrBase@UIAdviseSink@@@ATL@@QEBAPEAV?$_NoAddRefReleaseOnCComPtr@UIAdviseSink@@@1@XZ 000000018000af70 f i Belt.obj
 0001:00009ff0       ??C?$CComPtrBase@UICatRegister@@@ATL@@QEBAPEAV?$_NoAddRefReleaseOnCComPtr@UICatRegister@@@1@XZ 000000018000aff0 f i Belt.obj
 0001:0000a070       ??C?$CComPtrBase@UIConnectionPoint@@@ATL@@QEBAPEAV?$_NoAddRefReleaseOnCComPtr@UIConnectionPoint@@@1@XZ 000000018000b070 f i Belt.obj
 0001:0000a0f0       ??C?$CComPtrBase@UIConnectionPointContainer@@@ATL@@QEBAPEAV?$_NoAddRefReleaseOnCComPtr@UIConnectionPointContainer@@@1@XZ 000000018000b0f0 f i Belt.obj
 0001:0000a170       ??C?$CComPtrBase@UIDataAdviseHolder@@@ATL@@QEBAPEAV?$_NoAddRefReleaseOnCComPtr@UIDataAdviseHolder@@@1@XZ 000000018000b170 f i Belt.obj
 0001:0000a1f0       ??C?$CComPtrBase@UIOleAdviseHolder@@@ATL@@QEBAPEAV?$_NoAddRefReleaseOnCComPtr@UIOleAdviseHolder@@@1@XZ 000000018000b1f0 f i Belt.obj
 0001:0000a270       ??C?$CComPtrBase@UIOleClientSite@@@ATL@@QEBAPEAV?$_NoAddRefReleaseOnCComPtr@UIOleClientSite@@@1@XZ 000000018000b270 f i Belt.obj
 0001:0000a2f0       ??C?$CComPtrBase@UIOleControlSite@@@ATL@@QEBAPEAV?$_NoAddRefReleaseOnCComPtr@UIOleControlSite@@@1@XZ 000000018000b2f0 f i Belt.obj
 0001:0000a370       ??C?$CComPtrBase@UIOleInPlaceFrame@@@ATL@@QEBAPEAV?$_NoAddRefReleaseOnCComPtr@UIOleInPlaceFrame@@@1@XZ 000000018000b370 f i Belt.obj
 0001:0000a3f0       ??C?$CComPtrBase@UIOleInPlaceObject@@@ATL@@QEBAPEAV?$_NoAddRefReleaseOnCComPtr@UIOleInPlaceObject@@@1@XZ 000000018000b3f0 f i Belt.obj
 0001:0000a470       ??C?$CComPtrBase@UIOleInPlaceSiteWindowless@@@ATL@@QEBAPEAV?$_NoAddRefReleaseOnCComPtr@UIOleInPlaceSiteWindowless@@@1@XZ 000000018000b470 f i Belt.obj
 0001:0000a4f0       ??C?$CComPtrBase@UIOleInPlaceUIWindow@@@ATL@@QEBAPEAV?$_NoAddRefReleaseOnCComPtr@UIOleInPlaceUIWindow@@@1@XZ 000000018000b4f0 f i Belt.obj
 0001:0000a570       ??C?$CComPtrBase@UIOleObject@@@ATL@@QEBAPEAV?$_NoAddRefReleaseOnCComPtr@UIOleObject@@@1@XZ 000000018000b570 f i Belt.obj
 0001:0000a5f0       ??C?$CComPtrBase@UIPersistStream@@@ATL@@QEBAPEAV?$_NoAddRefReleaseOnCComPtr@UIPersistStream@@@1@XZ 000000018000b5f0 f i Belt.obj
 0001:0000a670       ??C?$CComPtrBase@UIPersistStreamInit@@@ATL@@QEBAPEAV?$_NoAddRefReleaseOnCComPtr@UIPersistStreamInit@@@1@XZ 000000018000b670 f i Belt.obj
 0001:0000a6f0       ??C?$CComPtrBase@UIPointerInactive@@@ATL@@QEBAPEAV?$_NoAddRefReleaseOnCComPtr@UIPointerInactive@@@1@XZ 000000018000b6f0 f i Belt.obj
 0001:0000a770       ??C?$CComPtrBase@UIProvideClassInfo2@@@ATL@@QEBAPEAV?$_NoAddRefReleaseOnCComPtr@UIProvideClassInfo2@@@1@XZ 000000018000b770 f i Belt.obj
 0001:0000a7f0       ??C?$CComPtrBase@UISpecifyPropertyPages@@@ATL@@QEBAPEAV?$_NoAddRefReleaseOnCComPtr@UISpecifyPropertyPages@@@1@XZ 000000018000b7f0 f i Belt.obj
 0001:0000a870       ??C?$CComPtrBase@UITypeInfo@@@ATL@@QEBAPEAV?$_NoAddRefReleaseOnCComPtr@UITypeInfo@@@1@XZ 000000018000b870 f i Belt.obj
 0001:0000a8f0       ??C?$CComPtrBase@UITypeLib@@@ATL@@QEBAPEAV?$_NoAddRefReleaseOnCComPtr@UITypeLib@@@1@XZ 000000018000b8f0 f i Belt.obj
 0001:0000a970       ??C?$CComPtrBase@UIUnknown@@@ATL@@QEBAPEAV?$_NoAddRefReleaseOnCComPtr@UIUnknown@@@1@XZ 000000018000b970 f i Belt.obj
 0001:0000a9f0       ??C?$CComPtrBase@UIViewObjectEx@@@ATL@@QEBAPEAV?$_NoAddRefReleaseOnCComPtr@UIViewObjectEx@@@1@XZ 000000018000b9f0 f i Belt.obj
 0001:0000aa70       ??I?$CComPtrBase@UICatRegister@@@ATL@@QEAAPEAPEAUICatRegister@@XZ 000000018000ba70 f i Belt.obj
 0001:0000aae0       ??I?$CComPtrBase@UIConnectionPoint@@@ATL@@QEAAPEAPEAUIConnectionPoint@@XZ 000000018000bae0 f i Belt.obj
 0001:0000ab50       ??I?$CComPtrBase@UIConnectionPointContainer@@@ATL@@QEAAPEAPEAUIConnectionPointContainer@@XZ 000000018000bb50 f i Belt.obj
 0001:0000abc0       ??I?$CComPtrBase@UIDataAdviseHolder@@@ATL@@QEAAPEAPEAUIDataAdviseHolder@@XZ 000000018000bbc0 f i Belt.obj
 0001:0000ac30       ??I?$CComPtrBase@UIDataObject@@@ATL@@QEAAPEAPEAUIDataObject@@XZ 000000018000bc30 f i Belt.obj
 0001:0000aca0       ??I?$CComPtrBase@UIDispatch@@@ATL@@QEAAPEAPEAUIDispatch@@XZ 000000018000bca0 f i Belt.obj
 0001:0000ad10       ??I?$CComPtrBase@UIOleAdviseHolder@@@ATL@@QEAAPEAPEAUIOleAdviseHolder@@XZ 000000018000bd10 f i Belt.obj
 0001:0000ad80       ??I?$CComPtrBase@UIOleControlSite@@@ATL@@QEAAPEAPEAUIOleControlSite@@XZ 000000018000bd80 f i Belt.obj
 0001:0000adf0       ??I?$CComPtrBase@UIOleInPlaceActiveObject@@@ATL@@QEAAPEAPEAUIOleInPlaceActiveObject@@XZ 000000018000bdf0 f i Belt.obj
 0001:0000ae60       ??I?$CComPtrBase@UIOleInPlaceFrame@@@ATL@@QEAAPEAPEAUIOleInPlaceFrame@@XZ 000000018000be60 f i Belt.obj
 0001:0000aed0       ??I?$CComPtrBase@UIOleInPlaceObject@@@ATL@@QEAAPEAPEAUIOleInPlaceObject@@XZ 000000018000bed0 f i Belt.obj
 0001:0000af40       ??I?$CComPtrBase@UIOleInPlaceSiteWindowless@@@ATL@@QEAAPEAPEAUIOleInPlaceSiteWindowless@@XZ 000000018000bf40 f i Belt.obj
 0001:0000afb0       ??I?$CComPtrBase@UIOleInPlaceUIWindow@@@ATL@@QEAAPEAPEAUIOleInPlaceUIWindow@@XZ 000000018000bfb0 f i Belt.obj
 0001:0000b020       ??I?$CComPtrBase@UIOleObject@@@ATL@@QEAAPEAPEAUIOleObject@@XZ 000000018000c020 f i Belt.obj
 0001:0000b090       ??I?$CComPtrBase@UIPersistStream@@@ATL@@QEAAPEAPEAUIPersistStream@@XZ 000000018000c090 f i Belt.obj
 0001:0000b100       ??I?$CComPtrBase@UIPointerInactive@@@ATL@@QEAAPEAPEAUIPointerInactive@@XZ 000000018000c100 f i Belt.obj
 0001:0000b170       ??I?$CComPtrBase@UIProvideClassInfo2@@@ATL@@QEAAPEAPEAUIProvideClassInfo2@@XZ 000000018000c170 f i Belt.obj
 0001:0000b1e0       ??I?$CComPtrBase@UIStream@@@ATL@@QEAAPEAPEAUIStream@@XZ 000000018000c1e0 f i Belt.obj
 0001:0000b250       ??I?$CComPtrBase@UITypeInfo2@@@ATL@@QEAAPEAPEAUITypeInfo2@@XZ 000000018000c250 f i Belt.obj
 0001:0000b2c0       ??I?$CComPtrBase@UITypeInfo@@@ATL@@QEAAPEAPEAUITypeInfo@@XZ 000000018000c2c0 f i Belt.obj
 0001:0000b330       ??I?$CComPtrBase@UITypeLib@@@ATL@@QEAAPEAPEAUITypeLib@@XZ 000000018000c330 f i Belt.obj
 0001:0000b3a0       ??I?$CComPtrBase@UIUnknown@@@ATL@@QEAAPEAPEAUIUnknown@@XZ 000000018000c3a0 f i Belt.obj
 0001:0000b410       ??I?$CComPtrBase@UIViewObjectEx@@@ATL@@QEAAPEAPEAUIViewObjectEx@@XZ 000000018000c410 f i Belt.obj
 0001:0000b480       ??ICComBSTR@ATL@@QEAAPEAPEA_WXZ 000000018000c480 f i Belt.obj
 0001:0000b490       ??_E?$CComContainedObject@VCOPOSBelt@@@ATL@@W7EAAPEAXI@Z 000000018000c490 f i Belt.obj
 0001:0000b49c       ??_E?$CComContainedObject@VCOPOSBelt@@@ATL@@WHA@EAAPEAXI@Z 000000018000c49c f i Belt.obj
 0001:0000b4a8       ??_E?$CComObject@VCOPOSBelt@@@ATL@@W7EAAPEAXI@Z 000000018000c4a8 f i Belt.obj
 0001:0000b4b4       ??_E?$CComObject@VCOPOSBelt@@@ATL@@WHA@EAAPEAXI@Z 000000018000c4b4 f i Belt.obj
 0001:0000b4c0       ??_E?$CComAggObject@VCOPOSBelt@@@ATL@@UEAAPEAXI@Z 000000018000c4c0 f i Belt.obj
 0001:0000b4c0       ??_G?$CComAggObject@VCOPOSBelt@@@ATL@@UEAAPEAXI@Z 000000018000c4c0 f i Belt.obj
 0001:0000b520       ??_G?$CComContainedObject@VCOPOSBelt@@@ATL@@UEAAPEAXI@Z 000000018000c520 f i Belt.obj
 0001:0000b520       ??_E?$CComContainedObject@VCOPOSBelt@@@ATL@@UEAAPEAXI@Z 000000018000c520 f i Belt.obj
 0001:0000b580       ??_E?$CComObject@V?$CComEnum@UIEnumConnectionPoints@@$1?_GUID_b196b285_bab4_101a_b69c_00aa00341d07@@3U__s_GUID@@BPEAUIConnectionPoint@@V?$_CopyInterface@UIConnectionPoint@@@ATL@@VCComSingleThreadModel@6@@ATL@@@ATL@@UEAAPEAXI@Z 000000018000c580 f i Belt.obj
 0001:0000b580       ??_G?$CComObject@V?$CComEnum@UIEnumConnectionPoints@@$1?_GUID_b196b285_bab4_101a_b69c_00aa00341d07@@3U__s_GUID@@BPEAUIConnectionPoint@@V?$_CopyInterface@UIConnectionPoint@@@ATL@@VCComSingleThreadModel@6@@ATL@@@ATL@@UEAAPEAXI@Z 000000018000c580 f i Belt.obj
 0001:0000b5e0       ??_E?$CComObject@V?$CComEnum@UIEnumConnections@@$1?_GUID_b196b287_bab4_101a_b69c_00aa00341d07@@3U__s_GUID@@BUtagCONNECTDATA@@V?$_Copy@UtagCONNECTDATA@@@ATL@@VCComSingleThreadModel@6@@ATL@@@ATL@@UEAAPEAXI@Z 000000018000c5e0 f i Belt.obj
 0001:0000b5e0       ??_G?$CComObject@V?$CComEnum@UIEnumConnections@@$1?_GUID_b196b287_bab4_101a_b69c_00aa00341d07@@3U__s_GUID@@BUtagCONNECTDATA@@V?$_Copy@UtagCONNECTDATA@@@ATL@@VCComSingleThreadModel@6@@ATL@@@ATL@@UEAAPEAXI@Z 000000018000c5e0 f i Belt.obj
 0001:0000b640       ??_G?$CComObject@VCOPOSBelt@@@ATL@@UEAAPEAXI@Z 000000018000c640 f i Belt.obj
 0001:0000b640       ??_E?$CComObject@VCOPOSBelt@@@ATL@@UEAAPEAXI@Z 000000018000c640 f i Belt.obj
 0001:0000b6a0       ??_E?$CComObjectCached@VCComClassFactory@ATL@@@ATL@@UEAAPEAXI@Z 000000018000c6a0 f i Belt.obj
 0001:0000b6a0       ??_G?$CComObjectCached@VCComClassFactory@ATL@@@ATL@@UEAAPEAXI@Z 000000018000c6a0 f i Belt.obj
 0001:0000b700       ??_ECComClassFactory@ATL@@UEAAPEAXI@Z 000000018000c700 f i Belt.obj
 0001:0000b700       ??_GCComClassFactory@ATL@@UEAAPEAXI@Z 000000018000c700 f i Belt.obj
 0001:0000b760       ??_GCComModule@ATL@@UEAAPEAXI@Z 000000018000c760 f i Belt.obj
 0001:0000b760       ??_ECComModule@ATL@@UEAAPEAXI@Z 000000018000c760 f i Belt.obj
 0001:0000b7c0       ??_GCRegObject@ATL@@UEAAPEAXI@Z 000000018000c7c0 f i Belt.obj
 0001:0000b7c0       ??_ECRegObject@ATL@@UEAAPEAXI@Z 000000018000c7c0 f i Belt.obj
 0001:0000b820       ?Add@?$CSimpleArray@GV?$CSimpleArrayEqualHelper@G@ATL@@@ATL@@QEAAHAEBG@Z 000000018000c820 f i Belt.obj
 0001:0000b9c0       ?Add@?$CSimpleMap@PEA_WPEA_WVCExpansionVectorEqualHelper@ATL@@@ATL@@QEAAHAEBQEA_W0@Z 000000018000c9c0 f i Belt.obj
 0001:0000bab0       ?Add@CComDynamicUnkArray@ATL@@QEAAKPEAUIUnknown@@@Z 000000018000cab0 f i Belt.obj
 0001:0000bc90       ?Add@CExpansionVector@ATL@@QEAAHPEB_W0@Z 000000018000cc90 f i Belt.obj
 0001:0000bfc0       ?AddChar@CParseBuffer@CRegParser@ATL@@QEAAHPEB_W@Z 000000018000cfc0 f i Belt.obj
 0001:0000c010       ?AddCommonRGSReplacements@?$CAtlModuleT@VCComModule@ATL@@@ATL@@UEAAJPEAUIRegistrarBase@@@Z 000000018000d010 f i Belt.obj
 0001:0000c070       ?AddCreateWndData@CAtlWinModule@ATL@@QEAAXPEAU_AtlCreateWndData@2@PEAX@Z 000000018000d070 f i Belt.obj
 0001:0000c0c0       ?AddRef@?$CComAggObject@VCOPOSBelt@@@ATL@@UEAAKXZ 000000018000d0c0 f i Belt.obj
 0001:0000c100       ?AddRef@?$CComContainedObject@VCOPOSBelt@@@ATL@@UEAAKXZ 000000018000d100 f i Belt.obj
 0001:0000c138       ?AddRef@?$CComContainedObject@VCOPOSBelt@@@ATL@@WBAA@EAAKXZ 000000018000d138 f i Belt.obj
 0001:0000c144       ?AddRef@?$CComContainedObject@VCOPOSBelt@@@ATL@@WBAI@EAAKXZ 000000018000d144 f i Belt.obj
 0001:0000c150       ?AddRef@?$CComContainedObject@VCOPOSBelt@@@ATL@@WBBA@EAAKXZ 000000018000d150 f i Belt.obj
 0001:0000c15c       ?AddRef@?$CComContainedObject@VCOPOSBelt@@@ATL@@WBBI@EAAKXZ 000000018000d15c f i Belt.obj
 0001:0000c168       ?AddRef@?$CComContainedObject@VCOPOSBelt@@@ATL@@WBCI@EAAKXZ 000000018000d168 f i Belt.obj
 0001:0000c174       ?AddRef@?$CComContainedObject@VCOPOSBelt@@@ATL@@WBEA@EAAKXZ 000000018000d174 f i Belt.obj
 0001:0000c180       ?AddRef@?$CComContainedObject@VCOPOSBelt@@@ATL@@WLI@EAAKXZ 000000018000d180 f i Belt.obj
 0001:0000c18c       ?AddRef@?$CComContainedObject@VCOPOSBelt@@@ATL@@WMA@EAAKXZ 000000018000d18c f i Belt.obj
 0001:0000c198       ?AddRef@?$CComContainedObject@VCOPOSBelt@@@ATL@@WMI@EAAKXZ 000000018000d198 f i Belt.obj
 0001:0000c1a4       ?AddRef@?$CComContainedObject@VCOPOSBelt@@@ATL@@WNA@EAAKXZ 000000018000d1a4 f i Belt.obj
 0001:0000c1b0       ?AddRef@?$CComContainedObject@VCOPOSBelt@@@ATL@@WNI@EAAKXZ 000000018000d1b0 f i Belt.obj
 0001:0000c1bc       ?AddRef@?$CComContainedObject@VCOPOSBelt@@@ATL@@WOA@EAAKXZ 000000018000d1bc f i Belt.obj
 0001:0000c1c8       ?AddRef@?$CComContainedObject@VCOPOSBelt@@@ATL@@WOI@EAAKXZ 000000018000d1c8 f i Belt.obj
 0001:0000c1d4       ?AddRef@?$CComContainedObject@VCOPOSBelt@@@ATL@@WPA@EAAKXZ 000000018000d1d4 f i Belt.obj
 0001:0000c1e0       ?AddRef@?$CComContainedObject@VCOPOSBelt@@@ATL@@WPI@EAAKXZ 000000018000d1e0 f i Belt.obj
 0001:0000c1f0       ?AddRef@?$CComObject@V?$CComEnum@UIEnumConnectionPoints@@$1?_GUID_b196b285_bab4_101a_b69c_00aa00341d07@@3U__s_GUID@@BPEAUIConnectionPoint@@V?$_CopyInterface@UIConnectionPoint@@@ATL@@VCComSingleThreadModel@6@@ATL@@@ATL@@UEAAKXZ 000000018000d1f0 f i Belt.obj
 0001:0000c230       ?AddRef@?$CComObject@V?$CComEnum@UIEnumConnections@@$1?_GUID_b196b287_bab4_101a_b69c_00aa00341d07@@3U__s_GUID@@BUtagCONNECTDATA@@V?$_Copy@UtagCONNECTDATA@@@ATL@@VCComSingleThreadModel@6@@ATL@@@ATL@@UEAAKXZ 000000018000d230 f i Belt.obj
 0001:0000c270       ?AddRef@?$CComObject@VCOPOSBelt@@@ATL@@UEAAKXZ 000000018000d270 f i Belt.obj
 0001:0000c2a8       ?AddRef@?$CComObject@VCOPOSBelt@@@ATL@@WBAA@EAAKXZ 000000018000d2a8 f i Belt.obj
 0001:0000c2b4       ?AddRef@?$CComObject@VCOPOSBelt@@@ATL@@WBAI@EAAKXZ 000000018000d2b4 f i Belt.obj
 0001:0000c2c0       ?AddRef@?$CComObject@VCOPOSBelt@@@ATL@@WBBA@EAAKXZ 000000018000d2c0 f i Belt.obj
 0001:0000c2cc       ?AddRef@?$CComObject@VCOPOSBelt@@@ATL@@WBBI@EAAKXZ 000000018000d2cc f i Belt.obj
 0001:0000c2d8       ?AddRef@?$CComObject@VCOPOSBelt@@@ATL@@WBCI@EAAKXZ 000000018000d2d8 f i Belt.obj
 0001:0000c2e4       ?AddRef@?$CComObject@VCOPOSBelt@@@ATL@@WBEA@EAAKXZ 000000018000d2e4 f i Belt.obj
 0001:0000c2f0       ?AddRef@?$CComObject@VCOPOSBelt@@@ATL@@WLI@EAAKXZ 000000018000d2f0 f i Belt.obj
 0001:0000c2fc       ?AddRef@?$CComObject@VCOPOSBelt@@@ATL@@WMA@EAAKXZ 000000018000d2fc f i Belt.obj
 0001:0000c308       ?AddRef@?$CComObject@VCOPOSBelt@@@ATL@@WMI@EAAKXZ 000000018000d308 f i Belt.obj
 0001:0000c314       ?AddRef@?$CComObject@VCOPOSBelt@@@ATL@@WNA@EAAKXZ 000000018000d314 f i Belt.obj
 0001:0000c320       ?AddRef@?$CComObject@VCOPOSBelt@@@ATL@@WNI@EAAKXZ 000000018000d320 f i Belt.obj
 0001:0000c32c       ?AddRef@?$CComObject@VCOPOSBelt@@@ATL@@WOA@EAAKXZ 000000018000d32c f i Belt.obj
 0001:0000c338       ?AddRef@?$CComObject@VCOPOSBelt@@@ATL@@WOI@EAAKXZ 000000018000d338 f i Belt.obj
 0001:0000c344       ?AddRef@?$CComObject@VCOPOSBelt@@@ATL@@WPA@EAAKXZ 000000018000d344 f i Belt.obj
 0001:0000c350       ?AddRef@?$CComObject@VCOPOSBelt@@@ATL@@WPI@EAAKXZ 000000018000d350 f i Belt.obj
 0001:0000c360       ?AddRef@?$CComObjectCached@VCComClassFactory@ATL@@@ATL@@UEAAKXZ 000000018000d360 f i Belt.obj
 0001:0000c3c0       ?AddRef@CRegObject@ATL@@UEAAKXZ 000000018000d3c0 f i Belt.obj
 0001:0000c430       ?AddReplacement@CRegObject@ATL@@UEAAJPEB_W0@Z 000000018000d430 f i Belt.obj
 0001:0000c560       ?AddString@CParseBuffer@CRegParser@ATL@@QEAAHPEB_W@Z 000000018000d560 f i Belt.obj
 0001:0000c650       ?AddTermFunc@CAtlModule@ATL@@QEAAJP6AX_K@Z0@Z 000000018000d650 f i Belt.obj
 0001:0000c6c0       ?AddValue@CRegParser@ATL@@IEAAJAEAVCRegKey@2@PEB_WPEA_W@Z 000000018000d6c0 f i Belt.obj
 0001:0000cf90       ?Advise@?$CProxy_IOPOSEvents@VCOPOSBelt@@@@UEAAJPEAUIUnknown@@PEAK@Z 000000018000df90 f i Belt.obj
 0001:0000d000       ?Advise@?$IConnectionPointImpl@VCOPOSBelt@@$1?DIID__IOPOSBeltEvents@@3U_GUID@@BVCComDynamicUnkArray@ATL@@@ATL@@UEAAJPEAUIUnknown@@PEAK@Z 000000018000e000 f i Belt.obj
 0001:0000d200       ?Advise@?$IConnectionPointImpl@VCOPOSBelt@@$1?IID_IPropertyNotifySink@@3U_GUID@@BVCComDynamicUnkArray@ATL@@@ATL@@UEAAJPEAUIUnknown@@PEAK@Z 000000018000e200 f i Belt.obj
 0001:0000d400       ?Advise@?$IOleObjectImpl@VCOPOSBelt@@@ATL@@UEAAJPEAUIAdviseSink@@PEAK@Z 000000018000e400 f i Belt.obj
 0001:0000d4c0       ?Allocate@?$CAtlSafeAllocBufferManager@VCCRTAllocator@ATL@@@_ATL_SAFE_ALLOCA_IMPL@ATL@@QEAAPEAX_K@Z 000000018000e4c0 f i Belt.obj
 0001:0000d540       ?Allocate@?$CTempBuffer@E$0BAA@VCCRTAllocator@ATL@@@ATL@@QEAAPEAE_K@Z 000000018000e540 f i Belt.obj
 0001:0000d590       ?Allocate@?$CTempBuffer@_W$0BAA@VCCRTAllocator@ATL@@@ATL@@QEAAPEA_W_K@Z 000000018000e590 f i Belt.obj
 0001:0000d5e0       ?Allocate@?$CTempBuffer@_W$0EAA@VCCRTAllocator@ATL@@@ATL@@QEAAPEA_W_K@Z 000000018000e5e0 f i Belt.obj
 0001:0000d630       ?AllocateBytes@?$CTempBuffer@E$0BAA@VCCRTAllocator@ATL@@@ATL@@QEAAPEAE_K@Z 000000018000e630 f i Belt.obj
 0001:0000d6e0       ?AllocateBytes@?$CTempBuffer@_W$0BAA@VCCRTAllocator@ATL@@@ATL@@QEAAPEA_W_K@Z 000000018000e6e0 f i Belt.obj
 0001:0000d790       ?AllocateBytes@?$CTempBuffer@_W$0EAA@VCCRTAllocator@ATL@@@ATL@@QEAAPEA_W_K@Z 000000018000e790 f i Belt.obj
 0001:0000d840       ?AllocateHeap@?$CTempBuffer@E$0BAA@VCCRTAllocator@ATL@@@ATL@@AEAAX_K@Z 000000018000e840 f i Belt.obj
 0001:0000d8a0       ?AllocateHeap@?$CTempBuffer@_W$0BAA@VCCRTAllocator@ATL@@@ATL@@AEAAX_K@Z 000000018000e8a0 f i Belt.obj
 0001:0000d900       ?AllocateHeap@?$CTempBuffer@_W$0EAA@VCCRTAllocator@ATL@@@ATL@@AEAAX_K@Z 000000018000e900 f i Belt.obj
 0001:0000d960       ?Append@CParseBuffer@CRegParser@ATL@@QEAAHPEB_WH@Z 000000018000e960 f i Belt.obj
 0001:0000db90       ?AtlCallTermFunc@ATL@@YAXPEAU_ATL_MODULE70@1@@Z 000000018000eb90 f i Belt.obj
 0001:0000dc40       ?AtlCoTaskMemCAlloc@ATL@@YAPEAXKK@Z 000000018000ec40 f i Belt.obj
 0001:0000dcc0       ?AtlCoTaskMemRecalloc@ATL@@YAPEAXPEAXKK@Z 000000018000ecc0 f i Belt.obj
 0001:0000dd40       ?AtlComModuleGetClassObject@ATL@@YAJPEAU_ATL_COM_MODULE70@1@AEBU_GUID@@1PEAPEAX@Z 000000018000ed40 f i Belt.obj
 0001:0000e070       ?AtlComModuleRegisterServer@ATL@@YAJPEAU_ATL_COM_MODULE70@1@HPEBU_GUID@@@Z 000000018000f070 f i Belt.obj
 0001:0000e270       ?AtlComModuleUnregisterServer@ATL@@YAJPEAU_ATL_COM_MODULE70@1@HPEBU_GUID@@@Z 000000018000f270 f i Belt.obj
 0001:0000e3d0       ?AtlComQIPtrAssign2@ATL@@YAXPEAPEAUIUnknown@@PEAU2@AEBU_GUID@@@Z 000000018000f3d0 f i Belt.obj
 0001:0000e460       ?AtlCreateTargetDC@ATL@@YAPEAUHDC__@@PEAU2@PEAUtagDVTARGETDEVICE@@@Z 000000018000f460 f i Belt.obj
 0001:0000e690       ?AtlCrtErrorCheck@ATL@@YAHH@Z 000000018000f690 f i Belt.obj
 0001:0000e710       ?AtlGetPerUserRegistration@ATL@@YAJPEA_N@Z 000000018000f710 f i Belt.obj
 0001:0000e740       ?AtlHiMetricToPixel@ATL@@YAXPEBUtagSIZE@@PEAU2@@Z 000000018000f740 f i Belt.obj
 0001:0000e940       ?AtlHresultFromLastError@ATL@@YAJXZ 000000018000f940 f i Belt.obj
 0001:0000e970       ?AtlHresultFromWin32@ATL@@YAJK@Z 000000018000f970 f i Belt.obj
 0001:0000e9a0       ?AtlIPersistStreamInit_Load@ATL@@YAJPEAUIStream@@PEBUATL_PROPMAP_ENTRY@1@PEAXPEAUIUnknown@@@Z 000000018000f9a0 f i Belt.obj
 0001:0000f010       ?AtlIPersistStreamInit_Save@ATL@@YAJPEAUIStream@@HPEBUATL_PROPMAP_ENTRY@1@PEAXPEAUIUnknown@@@Z 0000000180010010 f i Belt.obj
 0001:0000f5a0       ?AtlInternalOleLoadFromStream@ATL@@YAJPEAUIStream@@AEBU_GUID@@PEAPEAXTClassesAllowedInStream@1@K@Z 00000001800105a0 f i Belt.obj
 0001:0000f8e0       ?AtlInternalQueryInterface@ATL@@YAJPEAXPEBU_ATL_INTMAP_ENTRY@1@AEBU_GUID@@PEAPEAX@Z 00000001800108e0 f i Belt.obj
 0001:0000fba0       ?AtlLoadTypeLib@ATL@@YAJPEAUHINSTANCE__@@PEB_WPEAPEA_WPEAPEAUITypeLib@@@Z 0000000180010ba0 f i Belt.obj
 0001:00010070       ?AtlModuleAddTermFunc@ATL@@YAJPEAU_ATL_MODULE70@1@P6AX_K@Z1@Z 0000000180011070 f i Belt.obj
 0001:00010240       ?AtlRegisterClassCategoriesHelper@ATL@@YAJAEBU_GUID@@PEBU_ATL_CATMAP_ENTRY@1@H@Z 0000000180011240 f i Belt.obj
 0001:00010a10       ?AtlRegisterTypeLib@ATL@@YAJPEAUHINSTANCE__@@PEB_W@Z 0000000180011a10 f i Belt.obj
 0001:00010d70       ?AtlThrowImpl@ATL@@YAXJ@Z  0000000180011d70 f i Belt.obj
 0001:00010e50       ?AtlUnRegisterTypeLib@ATL@@YAJPEAUHINSTANCE__@@PEB_W@Z 0000000180011e50 f i Belt.obj
 0001:00011080       ?AtlWinModuleAddCreateWndData@ATL@@YAXPEAU_ATL_WIN_MODULE70@1@PEAU_AtlCreateWndData@1@PEAX@Z 0000000180012080 f i Belt.obj
 0001:00011270       ?AtlWinModuleExtractCreateWndData@ATL@@YAPEAXPEAU_ATL_WIN_MODULE70@1@@Z 0000000180012270 f i Belt.obj
 0001:00011470       ?AtlWinModuleRegisterClassExW@ATL@@YAGPEAU_ATL_WIN_MODULE70@1@PEBUtagWNDCLASSEXW@@@Z 0000000180012470 f i Belt.obj
 0001:00011540       ?AtlWinModuleRegisterWndClassInfoW@ATL@@YAGPEAU_ATL_WIN_MODULE70@1@PEAU_ATL_BASE_MODULE70@1@PEAU_ATL_WNDCLASSINFOW@1@PEAP6A_JPEAUHWND__@@I_K_J@Z@Z 0000000180012540 f i Belt.obj
 0001:000115b0       ?Attach@?$CAutoVectorPtr@_W@ATL@@QEAAXPEA_W@Z 00000001800125b0 f i Belt.obj
 0001:00011640       ?Attach@CComBSTR@ATL@@QEAAXPEA_W@Z 0000000180012640 f i Belt.obj
 0001:000116a0       ?Attach@CRegKey@ATL@@QEAAXPEAUHKEY__@@@Z 00000001800126a0 f i Belt.obj
 0001:00011740       ?CanForceRemoveKey@CRegParser@ATL@@IEAAHPEB_W@Z 0000000180012740 f i Belt.obj
 0001:000117b0       ?ChToByte@CRegParser@ATL@@KAE_W@Z 00000001800127b0 f i Belt.obj
 0001:00011910       ?ChangeType@CComVariant@ATL@@QEAAJGPEBUtagVARIANT@@@Z 0000000180012910 f i Belt.obj
 0001:00011980       ?Cleanup@CComTypeInfoHolder@ATL@@SAX_K@Z 0000000180012980 f i Belt.obj
 0001:00011a70       ?Clear@CComVariant@ATL@@QEAAJXZ 0000000180012a70 f i Belt.obj
 0001:00011aa0       ?ClearReplacements@CExpansionVector@ATL@@QEAAJXZ 0000000180012aa0 f i Belt.obj
 0001:00011b40       ?ClearReplacements@CRegObject@ATL@@UEAAJXZ 0000000180012b40 f i Belt.obj
 0001:00011ba0       ?Clone@?$CComEnumImpl@UIEnumConnectionPoints@@$1?_GUID_b196b285_bab4_101a_b69c_00aa00341d07@@3U__s_GUID@@BPEAUIConnectionPoint@@V?$_CopyInterface@UIConnectionPoint@@@ATL@@@ATL@@UEAAJPEAPEAUIEnumConnectionPoints@@@Z 0000000180012ba0 f i Belt.obj
 0001:00011d90       ?Clone@?$CComEnumImpl@UIEnumConnections@@$1?_GUID_b196b287_bab4_101a_b69c_00aa00341d07@@3U__s_GUID@@BUtagCONNECTDATA@@V?$_Copy@UtagCONNECTDATA@@@ATL@@@ATL@@UEAAJPEAPEAUIEnumConnections@@@Z 0000000180012d90 f i Belt.obj
 0001:00011f80       ?Close@?$IOleObjectImpl@VCOPOSBelt@@@ATL@@UEAAJK@Z 0000000180012f80 f i Belt.obj
 0001:00012030       ?Close@CRegKey@ATL@@QEAAJXZ 0000000180013030 f i Belt.obj
 0001:000120a0       ?ContextSensitiveHelp@?$IOleInPlaceActiveObjectImpl@VCOPOSBelt@@@ATL@@UEAAJH@Z 00000001800130a0 f i Belt.obj
 0001:00012120       ?ContextSensitiveHelp@?$IOleInPlaceObjectWindowlessImpl@VCOPOSBelt@@@ATL@@UEAAJH@Z 0000000180013120 f i Belt.obj
 0001:000121a0       ?ControlQueryInterface@?$CComControl@VCOPOSBelt@@V?$CWindowImpl@VCOPOSBelt@@VCWindow@ATL@@V?$CWinTraits@$0FGAAAAAA@$0A@@3@@ATL@@@ATL@@UEAAJAEBU_GUID@@PEAPEAX@Z 00000001800131a0 f i Belt.obj
 0001:00012230       ?CreateControlWindow@?$CComControl@VCOPOSBelt@@V?$CWindowImpl@VCOPOSBelt@@VCWindow@ATL@@V?$CWinTraits@$0FGAAAAAA@$0A@@3@@ATL@@@ATL@@UEAAPEAUHWND__@@PEAU3@AEAUtagRECT@@@Z 0000000180013230 f i Belt.obj
 0001:00012320       ?CreateInstance@?$CComCreator@V?$CComAggObject@VCOPOSBelt@@@ATL@@@ATL@@SAJPEAXAEBU_GUID@@PEAPEAX@Z 0000000180013320 f i Belt.obj
 0001:00012500       ?CreateInstance@?$CComCreator@V?$CComObject@VCOPOSBelt@@@ATL@@@ATL@@SAJPEAXAEBU_GUID@@PEAPEAX@Z 0000000180013500 f i Belt.obj
 0001:00012700       ?CreateInstance@?$CComObject@V?$CComEnum@UIEnumConnectionPoints@@$1?_GUID_b196b285_bab4_101a_b69c_00aa00341d07@@3U__s_GUID@@BPEAUIConnectionPoint@@V?$_CopyInterface@UIConnectionPoint@@@ATL@@VCComSingleThreadModel@6@@ATL@@@ATL@@SAJPEAPEAV12@@Z 0000000180013700 f i Belt.obj
 0001:000128c0       ?CreateInstance@?$CComObject@V?$CComEnum@UIEnumConnections@@$1?_GUID_b196b287_bab4_101a_b69c_00aa00341d07@@3U__s_GUID@@BUtagCONNECTDATA@@V?$_Copy@UtagCONNECTDATA@@@ATL@@VCComSingleThreadModel@6@@ATL@@@ATL@@SAJPEAPEAV12@@Z 00000001800138c0 f i Belt.obj
 0001:00012a80       ?CreateInstance@CComClassFactory@ATL@@UEAAJPEAUIUnknown@@AEBU_GUID@@PEAPEAX@Z 0000000180013a80 f i Belt.obj
 0001:00012ba0       ?DAdvise@?$IDataObjectImpl@VCOPOSBelt@@@ATL@@UEAAJPEAUtagFORMATETC@@KPEAUIAdviseSink@@PEAK@Z 0000000180013ba0 f i Belt.obj
 0001:00012d00       ?DEVMODEOLE2T_EX@@YAPEAU_devicemodeW@@PEAU1@@Z 0000000180013d00 f i Belt.obj
 0001:00012d10       ?DUnadvise@?$IDataObjectImpl@VCOPOSBelt@@@ATL@@UEAAJK@Z 0000000180013d10 f i Belt.obj
 0001:00012e10       ?Decrement@CComMultiThreadModel@ATL@@SAKPEAJ@Z 0000000180013e10 f i Belt.obj
 0001:00012e30       ?Decrement@CComSingleThreadModel@ATL@@SAKPEAJ@Z 0000000180013e30 f i Belt.obj
 0001:00012e50       ?DefWindowProcW@?$CWindowImplBaseT@VCWindow@ATL@@V?$CWinTraits@$0FGAAAAAA@$0A@@2@@ATL@@QEAA_JI_K_J@Z 0000000180013e50 f i Belt.obj
 0001:00012eb0       ?DefaultReflectionHandler@?$CWindowImplRoot@VCWindow@ATL@@@ATL@@SAHPEAUHWND__@@I_K_JAEA_J@Z 0000000180013eb0 f i Belt.obj
 0001:00012fa0       ?DeleteSubKey@CRegKey@ATL@@QEAAJPEB_W@Z 0000000180013fa0 f i Belt.obj
 0001:000130d0       ?DeleteValue@CRegKey@ATL@@QEAAJPEB_W@Z 00000001800140d0 f i Belt.obj
 0001:00013160       ?Detach@?$CAutoVectorPtr@_W@ATL@@QEAAPEA_WXZ 0000000180014160 f i Belt.obj
 0001:000131a0       ?Detach@?$CComPtrBase@UIPersistStream@@@ATL@@QEAAPEAUIPersistStream@@XZ 00000001800141a0 f i Belt.obj
 0001:000131e0       ?Detach@?$CComPtrBase@UITypeInfo@@@ATL@@QEAAPEAUITypeInfo@@XZ 00000001800141e0 f i Belt.obj
 0001:00013220       ?Detach@?$CComPtrBase@UIUnknown@@@ATL@@QEAAPEAUIUnknown@@XZ 0000000180014220 f i Belt.obj
 0001:00013260       ?Detach@CComBSTR@ATL@@QEAAPEA_WXZ 0000000180014260 f i Belt.obj
 0001:000132a0       ?Detach@CParseBuffer@CRegParser@ATL@@QEAAPEA_WXZ 00000001800142a0 f i Belt.obj
 0001:00013300       ?Detach@CRegKey@ATL@@QEAAPEAUHKEY__@@XZ 0000000180014300 f i Belt.obj
 0001:00013360       ?DoEvent@COPOSBelt@@IEAAXI_K_J@Z 0000000180014360 f i Belt.obj
 0001:000134a0       ?DoVerb@?$IOleObjectImpl@VCOPOSBelt@@@ATL@@UEAAJJPEAUtagMSG@@PEAUIOleClientSite@@JPEAUHWND__@@PEBUtagRECT@@@Z 00000001800144a0 f i Belt.obj
 0001:000137b0       ?DoVerbDiscardUndo@?$IOleObjectImpl@VCOPOSBelt@@@ATL@@QEAAJPEBUtagRECT@@PEAUHWND__@@@Z 00000001800147b0 f i Belt.obj
 0001:00013850       ?DoVerbHide@?$IOleObjectImpl@VCOPOSBelt@@@ATL@@QEAAJPEBUtagRECT@@PEAUHWND__@@@Z 0000000180014850 f i Belt.obj
 0001:00013930       ?DoVerbInPlaceActivate@?$IOleObjectImpl@VCOPOSBelt@@@ATL@@QEAAJPEBUtagRECT@@PEAUHWND__@@@Z 0000000180014930 f i Belt.obj
 0001:00013a10       ?DoVerbOpen@?$IOleObjectImpl@VCOPOSBelt@@@ATL@@QEAAJPEBUtagRECT@@PEAUHWND__@@@Z 0000000180014a10 f i Belt.obj
 0001:00013ab0       ?DoVerbPrimary@?$IOleObjectImpl@VCOPOSBelt@@@ATL@@QEAAJPEBUtagRECT@@PEAUHWND__@@@Z 0000000180014ab0 f i Belt.obj
 0001:00013bf0       ?DoVerbProperties@CComControlBase@ATL@@QEAAJPEBUtagRECT@@PEAUHWND__@@@Z 0000000180014bf0 f i Belt.obj
 0001:00013fa0       ?DoVerbShow@?$IOleObjectImpl@VCOPOSBelt@@@ATL@@QEAAJPEBUtagRECT@@PEAUHWND__@@@Z 0000000180014fa0 f i Belt.obj
 0001:00014060       ?DoVerbUIActivate@?$IOleObjectImpl@VCOPOSBelt@@@ATL@@QEAAJPEBUtagRECT@@PEAUHWND__@@@Z 0000000180015060 f i Belt.obj
 0001:00014140       ?DoesVerbActivate@CComControlBase@ATL@@QEAAHJ@Z 0000000180015140 f i Belt.obj
 0001:000141a0       ?DoesVerbUIActivate@CComControlBase@ATL@@QEAAHJ@Z 00000001800151a0 f i Belt.obj
 0001:00014220       ?Draw@?$IViewObjectExImpl@VCOPOSBelt@@@ATL@@UEAAJKJPEAXPEAUtagDVTARGETDEVICE@@PEAUHDC__@@2PEBU_RECTL@@3P6AH_K@Z4@Z 0000000180015220 f i Belt.obj
 0001:00014340       ?Empty@CComBSTR@ATL@@QEAAXXZ 0000000180015340 f i Belt.obj
 0001:00014380       ?EnableModeless@?$IOleInPlaceActiveObjectImpl@VCOPOSBelt@@@ATL@@UEAAJH@Z 0000000180015380 f i Belt.obj
 0001:000143f0       ?EndOfVar@CRegParser@ATL@@IEAAHXZ 00000001800153f0 f i Belt.obj
 0001:00014450       ?EnsureTI@CComTypeInfoHolder@ATL@@QEAAJK@Z 0000000180015450 f i Belt.obj
 0001:000144b0       ?EnumAdvise@?$IOleObjectImpl@VCOPOSBelt@@@ATL@@UEAAJPEAPEAUIEnumSTATDATA@@@Z 00000001800154b0 f i Belt.obj
 0001:00014610       ?EnumConnectionPoints@?$IConnectionPointContainerImpl@VCOPOSBelt@@@ATL@@UEAAJPEAPEAUIEnumConnectionPoints@@@Z 0000000180015610 f i Belt.obj
 0001:00014b00       ?EnumConnections@?$IConnectionPointImpl@VCOPOSBelt@@$1?DIID__IOPOSBeltEvents@@3U_GUID@@BVCComDynamicUnkArray@ATL@@@ATL@@UEAAJPEAPEAUIEnumConnections@@@Z 0000000180015b00 f i Belt.obj
 0001:00014e50       ?EnumConnections@?$IConnectionPointImpl@VCOPOSBelt@@$1?IID_IPropertyNotifySink@@3U_GUID@@BVCComDynamicUnkArray@ATL@@@ATL@@UEAAJPEAPEAUIEnumConnections@@@Z 0000000180015e50 f i Belt.obj
 0001:000151a0       ?EnumDAdvise@?$IDataObjectImpl@VCOPOSBelt@@@ATL@@UEAAJPEAPEAUIEnumSTATDATA@@@Z 00000001800161a0 f i Belt.obj
 0001:000152f0       ?EnumFormatEtc@?$IDataObjectImpl@VCOPOSBelt@@@ATL@@UEAAJKPEAPEAUIEnumFORMATETC@@@Z 00000001800162f0 f i Belt.obj
 0001:00015380       ?EnumVerbs@?$IOleObjectImpl@VCOPOSBelt@@@ATL@@UEAAJPEAPEAUIEnumOLEVERB@@@Z 0000000180016380 f i Belt.obj
 0001:00015450       ?EscapeSingleQuote@CAtlModule@ATL@@SAXPEA_W_KPEB_W@Z 0000000180016450 f i Belt.obj
 0001:00015550       ?ExtractCreateWndData@CAtlWinModule@ATL@@QEAAPEAXXZ 0000000180016550 f i Belt.obj
 0001:00015580       ?FAccessAllowed@?$IObjectSafetyImpl@VCOPOSBelt@@$02@ATL@@MEAAHXZ 0000000180016580 f i Belt.obj
 0001:00015590       ?FinalConstruct@?$CComAggObject@VCOPOSBelt@@@ATL@@QEAAJXZ 0000000180016590 f i Belt.obj
 0001:000155e0       ?FinalConstruct@CComObjectRootBase@ATL@@QEAAJXZ 00000001800165e0 f i Belt.obj
 0001:000155f0       ?FinalConstruct@CRegObject@ATL@@QEAAJXZ 00000001800165f0 f i Belt.obj
 0001:00015630       ?FinalRelease@?$CComAggObject@VCOPOSBelt@@@ATL@@QEAAXXZ 0000000180016630 f i Belt.obj
 0001:00015680       ?FinalRelease@CComObjectRootBase@ATL@@QEAAXXZ 0000000180016680 f i Belt.obj
 0001:00015690       ?FindConnectionPoint@?$IConnectionPointContainerImpl@VCOPOSBelt@@@ATL@@UEAAJAEBU_GUID@@PEAPEAUIConnectionPoint@@@Z 0000000180016690 f i Belt.obj
 0001:00015800       ?FindKey@?$CSimpleMap@PEA_WPEA_WVCExpansionVectorEqualHelper@ATL@@@ATL@@QEBAHAEBQEA_W@Z 0000000180016800 f i Belt.obj
 0001:00015880       ?FireTheEvent@?$CProxy_IOPOSEvents@VCOPOSBelt@@@@IEAAXPEAUIUnknown@@PEAVOposVariant@@IAEAJPEB_WJ@Z 0000000180016880 f i Belt.obj
 0001:00015a60       ?FireViewChange@CComControlBase@ATL@@QEAAJXZ 0000000180016a60 f i Belt.obj
 0001:00015b40       ?Fire_DirectIOEvent@?$CProxy_IOPOSEvents@VCOPOSBelt@@@@QEAAXJPEAJPEAPEA_W@Z 0000000180016b40 f i Belt.obj
 0001:00015dd0       ?Fire_StatusUpdateEvent@?$CProxy_IOPOSEvents@VCOPOSBelt@@@@QEAAXJ@Z 0000000180016dd0 f i Belt.obj
 0001:00015fc0       ?FormatWindowClassName@AtlModuleRegisterWndClassInfoParamW@ATL@@SAXPEA_WKPEAX@Z 0000000180016fc0 f i Belt.obj
 0001:00016010       ?Free@?$CAutoVectorPtr@_W@ATL@@QEAAXXZ 0000000180017010 f i Belt.obj
 0001:00016060       ?FreeHeap@?$CTempBuffer@E$0BAA@VCCRTAllocator@ATL@@@ATL@@AEAAXXZ 0000000180017060 f i Belt.obj
 0001:000160a0       ?FreeHeap@?$CTempBuffer@_W$0BAA@VCCRTAllocator@ATL@@@ATL@@AEAAXXZ 00000001800170a0 f i Belt.obj
 0001:000160e0       ?FreeHeap@?$CTempBuffer@_W$0EAA@VCCRTAllocator@ATL@@@ATL@@AEAAXXZ 00000001800170e0 f i Belt.obj
 0001:00016120       ?Freeze@?$IViewObjectExImpl@VCOPOSBelt@@@ATL@@UEAAJKJPEAXPEAK@Z 0000000180017120 f i Belt.obj
 0001:000161b0       ?GenerateError@CRegParser@ATL@@IEAAJI@Z 00000001800171b0 f i Belt.obj
 0001:000161d0       ?GetAdvise@?$IViewObjectExImpl@VCOPOSBelt@@@ATL@@UEAAJPEAK0PEAPEAUIAdviseSink@@@Z 00000001800171d0 f i Belt.obj
 0001:00016320       ?GetAmbientLocaleID@CComControlBase@ATL@@QEAAJAEAK@Z 0000000180017320 f i Belt.obj
 0001:00016400       ?GetAmbientProperty@CComControlBase@ATL@@QEAAJJAEAUtagVARIANT@@@Z 0000000180017400 f i Belt.obj
 0001:00016470       ?GetAmbientUserMode@CComControlBase@ATL@@QEAAJAEAH@Z 0000000180017470 f i Belt.obj
 0001:00016590       ?GetAppId@?$CAtlModuleT@VCComModule@ATL@@@ATL@@SAPEB_WXZ 0000000180017590 f i Belt.obj
 0001:000165a0       ?GetAt@CComDynamicUnkArray@ATL@@QEAAPEAUIUnknown@@H@Z 00000001800175a0 f i Belt.obj
 0001:00016650       ?GetCanonicalFormatEtc@?$IDataObjectImpl@VCOPOSBelt@@@ATL@@UEAAJPEAUtagFORMATETC@@0@Z 0000000180017650 f i Belt.obj
 0001:000166e0       ?GetClassID@?$IPersistStorageImpl@VCOPOSBelt@@@ATL@@UEAAJPEAU_GUID@@@Z 00000001800176e0 f i Belt.obj
 0001:00016780       ?GetClassID@?$IPersistStreamInitImpl@VCOPOSBelt@@@ATL@@UEAAJPEAU_GUID@@@Z 0000000180017780 f i Belt.obj
 0001:00016820       ?GetClassInfoExW@AtlModuleRegisterWndClassInfoParamW@ATL@@SAHPEAUHINSTANCE__@@PEB_WPEAUtagWNDCLASSEXW@@@Z 0000000180017820 f i Belt.obj
 0001:00016870       ?GetClassInfoW@?$IProvideClassInfo2Impl@$1?CLSID_OPOSBelt@@3U_GUID@@B$1?DIID__IOPOSBeltEvents@@3U2@B$1?LIBID_OposBelt_CCO@@3U2@B$00$0A@VCComTypeInfoHolder@ATL@@@ATL@@UEAAJPEAPEAUITypeInfo@@@Z 0000000180017870 f i Belt.obj
 0001:000168b0       ?GetClassObject@CComModule@ATL@@QEAAJAEBU_GUID@@0PEAPEAX@Z 00000001800178b0 f i Belt.obj
 0001:00016b20       ?GetClientSite@?$IOleObjectImpl@VCOPOSBelt@@@ATL@@UEAAJPEAPEAUIOleClientSite@@@Z 0000000180017b20 f i Belt.obj
 0001:00016bd0       ?GetClipboardData@?$IOleObjectImpl@VCOPOSBelt@@@ATL@@UEAAJKPEAPEAUIDataObject@@@Z 0000000180017bd0 f i Belt.obj
 0001:00016c60       ?GetCodeAddress@CDynamicStdCallThunk2@ATL@@QEAAPEAXXZ 0000000180017c60 f i Belt.obj
 0001:00016ca0       ?GetColorSet@?$IViewObjectExImpl@VCOPOSBelt@@@ATL@@UEAAJKJPEAXPEAUtagDVTARGETDEVICE@@PEAUHDC__@@PEAPEAUtagLOGPALETTE@@@Z 0000000180017ca0 f i Belt.obj
 0001:00016d30       ?GetConnMap@COPOSBelt@@SAPEBU_ATL_CONNMAP_ENTRY@ATL@@PEAH@Z 0000000180017d30 f i Belt.obj
 0001:00016e90       ?GetConnectionInterface@?$IConnectionPointImpl@VCOPOSBelt@@$1?DIID__IOPOSBeltEvents@@3U_GUID@@BVCComDynamicUnkArray@ATL@@@ATL@@UEAAJPEAU_GUID@@@Z 0000000180017e90 f i Belt.obj
 0001:00016ed0       ?GetConnectionInterface@?$IConnectionPointImpl@VCOPOSBelt@@$1?IID_IPropertyNotifySink@@3U_GUID@@BVCComDynamicUnkArray@ATL@@@ATL@@UEAAJPEAU_GUID@@@Z 0000000180017ed0 f i Belt.obj
 0001:00016f10       ?GetConnectionPointContainer@?$IConnectionPointImpl@VCOPOSBelt@@$1?DIID__IOPOSBeltEvents@@3U_GUID@@BVCComDynamicUnkArray@ATL@@@ATL@@UEAAJPEAPEAUIConnectionPointContainer@@@Z 0000000180017f10 f i Belt.obj
 0001:00016f90       ?GetConnectionPointContainer@?$IConnectionPointImpl@VCOPOSBelt@@$1?IID_IPropertyNotifySink@@3U_GUID@@BVCComDynamicUnkArray@ATL@@@ATL@@UEAAJPEAPEAUIConnectionPointContainer@@@Z 0000000180017f90 f i Belt.obj
 0001:00017010       ?GetContentExtent@?$IQuickActivateImpl@VCOPOSBelt@@@ATL@@UEAAJPEAUtagSIZE@@@Z 0000000180018010 f i Belt.obj
 0001:000170d0       ?GetControlInfo@?$IOleControlImpl@VCOPOSBelt@@@ATL@@UEAAJPEAUtagCONTROLINFO@@@Z 00000001800180d0 f i Belt.obj
 0001:00017160       ?GetCookie@CComDynamicUnkArray@ATL@@QEAAKPEAPEAUIUnknown@@@Z 0000000180018160 f i Belt.obj
 0001:00017250       ?GetData@?$IDataObjectImpl@VCOPOSBelt@@@ATL@@UEAAJPEAUtagFORMATETC@@PEAUtagSTGMEDIUM@@@Z 0000000180018250 f i Belt.obj
 0001:00017310       ?GetData@CAtlSafeAllocBufferNode@?$CAtlSafeAllocBufferManager@VCCRTAllocator@ATL@@@_ATL_SAFE_ALLOCA_IMPL@ATL@@QEAAPEAXXZ 0000000180018310 f i Belt.obj
 0001:00017330       ?GetDataHere@?$IDataObjectImpl@VCOPOSBelt@@@ATL@@UEAAJPEAUtagFORMATETC@@PEAUtagSTGMEDIUM@@@Z 0000000180018330 f i Belt.obj
 0001:000173c0       ?GetDropTarget@?$IOleInPlaceObjectWindowlessImpl@VCOPOSBelt@@@ATL@@UEAAJPEAPEAUIDropTarget@@@Z 00000001800183c0 f i Belt.obj
 0001:00017450       ?GetExtent@?$IOleObjectImpl@VCOPOSBelt@@@ATL@@UEAAJKPEAUtagSIZE@@@Z 0000000180018450 f i Belt.obj
 0001:00017520       ?GetExtent@?$IViewObjectExImpl@VCOPOSBelt@@@ATL@@UEAAJKJPEAUtagDVTARGETDEVICE@@PEAUtagSIZE@@@Z 0000000180018520 f i Belt.obj
 0001:00017630       ?GetGITPtr@CAtlModule@ATL@@UEAAJPEAPEAUIGlobalInterfaceTable@@@Z 0000000180018630 f i Belt.obj
 0001:00017770       ?GetGUID@?$IProvideClassInfo2Impl@$1?CLSID_OPOSBelt@@3U_GUID@@B$1?DIID__IOPOSBeltEvents@@3U2@B$1?LIBID_OposBelt_CCO@@3U2@B$00$0A@VCComTypeInfoHolder@ATL@@@ATL@@UEAAJKPEAU_GUID@@@Z 0000000180018770 f i Belt.obj
 0001:000177f0       ?GetIDsOfNames@?$IDispatchImpl@UIOPOSBelt@@$1?IID_IOPOSBelt@@3U_GUID@@B$1?LIBID_OposBelt_CCO@@3U3@B$00$0A@VCComTypeInfoHolder@ATL@@@ATL@@UEAAJAEBU_GUID@@PEAPEA_WIKPEAJ@Z 00000001800187f0 f i Belt.obj
 0001:00017850       ?GetIDsOfNames@CComTypeInfoHolder@ATL@@QEAAJAEBU_GUID@@PEAPEA_WIKPEAJ@Z 0000000180018850 f i Belt.obj
 0001:00017a70       ?GetInterfaceSafetyOptions@?$IObjectSafetyImpl@VCOPOSBelt@@$02@ATL@@UEAAJAEBU_GUID@@PEAK1@Z 0000000180018a70 f i Belt.obj
 0001:00017c10       ?GetKeyAt@?$CSimpleMap@PEA_WPEA_WVCExpansionVectorEqualHelper@ATL@@@ATL@@QEBAAEAPEA_WH@Z 0000000180018c10 f i Belt.obj
 0001:00017cc0       ?GetLockCount@CAtlModule@ATL@@UEAAJXZ 0000000180018cc0 f i Belt.obj
 0001:00017cd0       ?GetMiscStatus@?$IOleObjectImpl@VCOPOSBelt@@@ATL@@UEAAJKPEAK@Z 0000000180018cd0 f i Belt.obj
 0001:00017d60       ?GetMoniker@?$IOleObjectImpl@VCOPOSBelt@@@ATL@@UEAAJKKPEAPEAUIMoniker@@@Z 0000000180018d60 f i Belt.obj
 0001:00017df0       ?GetNaturalExtent@?$IViewObjectExImpl@VCOPOSBelt@@@ATL@@UEAAJKJPEAUtagDVTARGETDEVICE@@PEAUHDC__@@PEAUtagExtentInfo@@PEAUtagSIZE@@@Z 0000000180018df0 f i Belt.obj
 0001:00017f80       ?GetObjectCLSID@?$CComCoClass@VCOPOSBelt@@$1?CLSID_OPOSBelt@@3U_GUID@@B@ATL@@SAAEBU_GUID@@XZ 0000000180018f80 f i Belt.obj
 0001:00017f90       ?GetPages@?$ISpecifyPropertyPagesImpl@VCOPOSBelt@@@ATL@@UEAAJPEAUtagCAUUID@@@Z 0000000180018f90 f i Belt.obj
 0001:00018020       ?GetPagesHelper@?$ISpecifyPropertyPagesImpl@VCOPOSBelt@@@ATL@@IEAAJPEAUtagCAUUID@@PEBUATL_PROPMAP_ENTRY@2@@Z 0000000180019020 f i Belt.obj
 0001:00018290       ?GetProperty@?$CComPtr@UIDispatch@@@ATL@@QEAAJJPEAUtagVARIANT@@@Z 0000000180019290 f i Belt.obj
 0001:000182e0       ?GetProperty@?$CComPtr@UIDispatch@@@ATL@@SAJPEAUIDispatch@@JPEAUtagVARIANT@@@Z 00000001800192e0 f i Belt.obj
 0001:000184b0       ?GetPropertyMap@COPOSBelt@@SAPEBUATL_PROPMAP_ENTRY@ATL@@XZ 00000001800194b0 f i Belt.obj
 0001:000184c0       ?GetRect@?$IViewObjectExImpl@VCOPOSBelt@@@ATL@@UEAAJKPEAU_RECTL@@@Z 00000001800194c0 f i Belt.obj
 0001:00018550       ?GetSize@?$CSimpleMap@PEA_WPEA_WVCExpansionVectorEqualHelper@ATL@@@ATL@@QEBAHXZ 0000000180019550 f i Belt.obj
 0001:00018560       ?GetSize@CComDynamicUnkArray@ATL@@QEBAHXZ 0000000180019560 f i Belt.obj
 0001:00018570       ?GetSizeMax@?$IPersistStreamInitImpl@VCOPOSBelt@@@ATL@@UEAAJPEAT_ULARGE_INTEGER@@@Z 0000000180019570 f i Belt.obj
 0001:00018d00       ?GetSizeMax@CComVariant@ATL@@QEBAJPEAT_ULARGE_INTEGER@@@Z 0000000180019d00 f i Belt.obj
 0001:00019130       ?GetStreamSize@CComBSTR@ATL@@SAKPEA_W@Z 000000018001a130 f i Belt.obj
 0001:00019190       ?GetTI@CComTypeInfoHolder@ATL@@QEAAJK@Z 000000018001a190 f i Belt.obj
 0001:00019a60       ?GetTI@CComTypeInfoHolder@ATL@@QEAAJKPEAPEAUITypeInfo@@@Z 000000018001aa60 f i Belt.obj
 0001:00019b50       ?GetTypeInfo@?$IDispatchImpl@UIOPOSBelt@@$1?IID_IOPOSBelt@@3U_GUID@@B$1?LIBID_OposBelt_CCO@@3U3@B$00$0A@VCComTypeInfoHolder@ATL@@@ATL@@UEAAJIKPEAPEAUITypeInfo@@@Z 000000018001ab50 f i Belt.obj
 0001:00019ba0       ?GetTypeInfo@CComTypeInfoHolder@ATL@@QEAAJIKPEAPEAUITypeInfo@@@Z 000000018001aba0 f i Belt.obj
 0001:00019c00       ?GetTypeInfoCount@?$IDispatchImpl@UIOPOSBelt@@$1?IID_IOPOSBelt@@3U_GUID@@B$1?LIBID_OposBelt_CCO@@3U3@B$00$0A@VCComTypeInfoHolder@ATL@@@ATL@@UEAAJPEAI@Z 000000018001ac00 f i Belt.obj
 0001:00019c30       ?GetUnknown@CComDynamicUnkArray@ATL@@QEAAPEAUIUnknown@@K@Z 000000018001ac30 f i Belt.obj
 0001:00019ce0       ?GetUnknown@COPOSBelt@@QEAAPEAUIUnknown@@XZ 000000018001ace0 f i Belt.obj
 0001:00019d10       ?GetUserClassID@?$IOleObjectImpl@VCOPOSBelt@@@ATL@@UEAAJPEAU_GUID@@@Z 000000018001ad10 f i Belt.obj
 0001:00019df0       ?GetUserType@?$IOleObjectImpl@VCOPOSBelt@@@ATL@@UEAAJKPEAPEA_W@Z 000000018001adf0 f i Belt.obj
 0001:00019e80       ?GetValueAt@?$CSimpleMap@PEA_WPEA_WVCExpansionVectorEqualHelper@ATL@@@ATL@@QEBAAEAPEA_WH@Z 000000018001ae80 f i Belt.obj
 0001:00019f30       ?GetViewStatus@?$IViewObjectExImpl@VCOPOSBelt@@@ATL@@UEAAJPEAK@Z 000000018001af30 f i Belt.obj
 0001:0001a030       ?GetWNDPROC@CWndProcThunk@ATL@@QEAAP6A_JPEAUHWND__@@I_K_J@ZXZ 000000018001b030 f i Belt.obj
 0001:0001a070       ?GetWindow@?$IOleInPlaceActiveObjectImpl@VCOPOSBelt@@@ATL@@UEAAJPEAPEAUHWND__@@@Z 000000018001b070 f i Belt.obj
 0001:0001a170       ?GetWindow@?$IOleInPlaceObjectWindowlessImpl@VCOPOSBelt@@@ATL@@UEAAJPEAPEAUHWND__@@@Z 000000018001b170 f i Belt.obj
 0001:0001a270       ?GetWindowProc@?$CWindowImplBaseT@VCWindow@ATL@@V?$CWinTraits@$0FGAAAAAA@$0A@@2@@ATL@@UEAAP6A_JPEAUHWND__@@I_K_J@ZXZ 000000018001b270 f i Belt.obj
 0001:0001a280       ?GetWndCaption@?$CWindowImpl@VCOPOSBelt@@VCWindow@ATL@@V?$CWinTraits@$0FGAAAAAA@$0A@@3@@ATL@@SAPEB_WXZ 000000018001b280 f i Belt.obj
 0001:0001a290       ?GetWndClassInfo@?$CWindowImpl@VCOPOSBelt@@VCWindow@ATL@@V?$CWinTraits@$0FGAAAAAA@$0A@@3@@ATL@@SAAEAU_ATL_WNDCLASSINFOW@2@XZ 000000018001b290 f i Belt.obj
 0001:0001a2a0       ?GetWndClassName@CWindow@ATL@@SAPEB_WXZ 000000018001b2a0 f i Belt.obj
 0001:0001a2b0       ?GetWndExStyle@?$CWinTraits@$0FGAAAAAA@$0A@@ATL@@SAKK@Z 000000018001b2b0 f i Belt.obj
 0001:0001a2f0       ?GetWndExStyle@?$CWindowImplBaseT@VCWindow@ATL@@V?$CWinTraits@$0FGAAAAAA@$0A@@2@@ATL@@SAKK@Z 000000018001b2f0 f i Belt.obj
 0001:0001a320       ?GetWndStyle@?$CWinTraits@$0FGAAAAAA@$0A@@ATL@@SAKK@Z 000000018001b320 f i Belt.obj
 0001:0001a360       ?GetWndStyle@?$CWindowImplBaseT@VCWindow@ATL@@V?$CWinTraits@$0FGAAAAAA@$0A@@2@@ATL@@SAKK@Z 000000018001b360 f i Belt.obj
 0001:0001a390       ?GetZoomInfo@CComControlBase@ATL@@QEAAXAEAUATL_DRAWINFO@@@Z 000000018001b390 f i Belt.obj
 0001:0001a540       ?HKeyFromString@CRegParser@ATL@@KAPEAUHKEY__@@PEA_W@Z 000000018001b540 f i Belt.obj
 0001:0001a5d0       ?HandsOffStorage@?$IPersistStorageImpl@VCOPOSBelt@@@ATL@@UEAAJXZ 000000018001b5d0 f i Belt.obj
 0001:0001a640       ?HasSubKeys@CRegParser@ATL@@IEAAHPEAUHKEY__@@@Z 000000018001b640 f i Belt.obj
 0001:0001a7b0       ?IDataObject_GetData@CComControlBase@ATL@@QEAAJPEAUtagFORMATETC@@PEAUtagSTGMEDIUM@@@Z 000000018001b7b0 f i Belt.obj
 0001:0001ac60       ?IOleInPlaceObject_InPlaceDeactivate@CComControlBase@ATL@@QEAAJXZ 000000018001bc60 f i Belt.obj
 0001:0001aed0       ?IOleInPlaceObject_SetObjectRects@CComControlBase@ATL@@QEAAJPEBUtagRECT@@0@Z 000000018001bed0 f i Belt.obj
 0001:0001b0b0       ?IOleInPlaceObject_UIDeactivate@CComControlBase@ATL@@QEAAJXZ 000000018001c0b0 f i Belt.obj
 0001:0001b320       ?IOleObject_Advise@CComControlBase@ATL@@QEAAJPEAUIAdviseSink@@PEAK@Z 000000018001c320 f i Belt.obj
 0001:0001b3d0       ?IOleObject_Close@CComControlBase@ATL@@QEAAJK@Z 000000018001c3d0 f i Belt.obj
 0001:0001b740       ?IOleObject_GetClientSite@CComControlBase@ATL@@QEAAJPEAPEAUIOleClientSite@@@Z 000000018001c740 f i Belt.obj
 0001:0001b810       ?IOleObject_SetClientSite@CComControlBase@ATL@@QEAAJPEAUIOleClientSite@@@Z 000000018001c810 f i Belt.obj
 0001:0001b920       ?IOleObject_SetExtent@CComControlBase@ATL@@QEAAJKPEAUtagSIZE@@@Z 000000018001c920 f i Belt.obj
 0001:0001ba90       ?IPSI_GetIPersistStreamInit@?$IPersistStorageImpl@VCOPOSBelt@@@ATL@@AEAAPEAUIPersistStreamInit@@XZ 000000018001ca90 f i Belt.obj
 0001:0001bb50       ?IPersistStreamInit_Load@?$IPersistStreamInitImpl@VCOPOSBelt@@@ATL@@QEAAJPEAUIStream@@PEBUATL_PROPMAP_ENTRY@2@@Z 000000018001cb50 f i Belt.obj
 0001:0001bbf0       ?IPersistStreamInit_Save@?$IPersistStreamInitImpl@VCOPOSBelt@@@ATL@@QEAAJPEAUIStream@@HPEBUATL_PROPMAP_ENTRY@2@@Z 000000018001cbf0 f i Belt.obj
 0001:0001bcb0       ?IQuickActivate_QuickActivate@CComControlBase@ATL@@QEAAJPEAUtagQACONTAINER@@PEAUtagQACONTROL@@@Z 000000018001ccb0 f i Belt.obj
 0001:0001c4f0       ?IViewObject_Draw@CComControlBase@ATL@@QEAAJKJPEAXPEAUtagDVTARGETDEVICE@@PEAUHDC__@@2PEBU_RECTL@@3@Z 000000018001d4f0 f i Belt.obj
 0001:0001c940       ?InPlaceActivate@CComControlBase@ATL@@QEAAJJPEBUtagRECT@@@Z 000000018001d940 f i Belt.obj
 0001:0001d4e0       ?InPlaceDeactivate@?$IOleInPlaceObjectWindowlessImpl@VCOPOSBelt@@@ATL@@UEAAJXZ 000000018001e4e0 f i Belt.obj
 0001:0001d590       ?Increment@CComMultiThreadModel@ATL@@SAKPEAJ@Z 000000018001e590 f i Belt.obj
 0001:0001d5b0       ?Increment@CComSingleThreadModel@ATL@@SAKPEAJ@Z 000000018001e5b0 f i Belt.obj
 0001:0001d5d0       ?Init@?$CComEnumImpl@UIEnumConnectionPoints@@$1?_GUID_b196b285_bab4_101a_b69c_00aa00341d07@@3U__s_GUID@@BPEAUIConnectionPoint@@V?$_CopyInterface@UIConnectionPoint@@@ATL@@@ATL@@QEAAJPEAPEAUIConnectionPoint@@0PEAUIUnknown@@W4CComEnumFlags@2@@Z 000000018001e5d0 f i Belt.obj
 0001:0001d8c0       ?Init@?$CComEnumImpl@UIEnumConnections@@$1?_GUID_b196b287_bab4_101a_b69c_00aa00341d07@@3U__s_GUID@@BUtagCONNECTDATA@@V?$_Copy@UtagCONNECTDATA@@@ATL@@@ATL@@QEAAJPEAUtagCONNECTDATA@@0PEAUIUnknown@@W4CComEnumFlags@2@@Z 000000018001e8c0 f i Belt.obj
 0001:0001dbb0       ?Init@CComFakeCriticalSection@ATL@@QEAAJXZ 000000018001ebb0 f i Belt.obj
 0001:0001dbc0       ?Init@CComModule@ATL@@QEAAJPEAU_ATL_OBJMAP_ENTRY30@2@PEAUHINSTANCE__@@PEBU_GUID@@@Z 000000018001ebc0 f i Belt.obj
 0001:0001dcb0       ?Init@CComSafeDeleteCriticalSection@ATL@@QEAAJXZ 000000018001ecb0 f i Belt.obj
 0001:0001dd40       ?Init@CDynamicStdCallThunk2@ATL@@QEAAH_KPEAX@Z 000000018001ed40 f i Belt.obj
 0001:0001ddc0       ?Init@CWndProcThunk@ATL@@QEAAHP6A_JPEAUHWND__@@I_K_J@ZPEAX@Z 000000018001edc0 f i Belt.obj
 0001:0001de10       ?InitFromData@?$IOleObjectImpl@VCOPOSBelt@@@ATL@@UEAAJPEAUIDataObject@@HK@Z 000000018001ee10 f i Belt.obj
 0001:0001dea0       ?InitLibId@?$CAtlModuleT@VCComModule@ATL@@@ATL@@SAXXZ 000000018001eea0 f i Belt.obj
 0001:0001deb0       ?InitNew@?$IPersistStorageImpl@VCOPOSBelt@@@ATL@@UEAAJPEAUIStorage@@@Z 000000018001eeb0 f i Belt.obj
 0001:0001dfa0       ?InitNew@?$IPersistStreamInitImpl@VCOPOSBelt@@@ATL@@UEAAJXZ 000000018001efa0 f i Belt.obj
 0001:0001e050       ?InlineIsEqualUnknown@ATL@@YAHAEBU_GUID@@@Z 000000018001f050 f i Belt.obj
 0001:0001e0e0       ?InternalAddRef@?$CComObjectRootEx@VCComMultiThreadModel@ATL@@@ATL@@QEAAKXZ 000000018001f0e0 f i Belt.obj
 0001:0001e160       ?InternalAddRef@?$CComObjectRootEx@VCComSingleThreadModel@ATL@@@ATL@@QEAAKXZ 000000018001f160 f i Belt.obj
 0001:0001e1e0       ?InternalFinalConstructAddRef@CComObjectRootBase@ATL@@QEAAXXZ 000000018001f1e0 f i Belt.obj
 0001:0001e1f0       ?InternalFinalConstructAddRef@COPOSBelt@@QEAAXXZ 000000018001f1f0 f i Belt.obj
 0001:0001e230       ?InternalFinalConstructRelease@CComObjectRootBase@ATL@@QEAAXXZ 000000018001f230 f i Belt.obj
 0001:0001e2a0       ?InternalFinalConstructRelease@COPOSBelt@@QEAAXXZ 000000018001f2a0 f i Belt.obj
 0001:0001e2e0       ?InternalGetSite@CComControlBase@ATL@@QEAAJAEBU_GUID@@PEAPEAX@Z 000000018001f2e0 f i Belt.obj
 0001:0001e3c0       ?InternalQueryInterface@CComObjectRootBase@ATL@@SAJPEAXPEBU_ATL_INTMAP_ENTRY@2@AEBU_GUID@@PEAPEAX@Z 000000018001f3c0 f i Belt.obj
 0001:0001e4e0       ?InternalRelease@?$CComObjectRootEx@VCComMultiThreadModel@ATL@@@ATL@@QEAAKXZ 000000018001f4e0 f i Belt.obj
 0001:0001e560       ?InternalRelease@?$CComObjectRootEx@VCComSingleThreadModel@ATL@@@ATL@@QEAAKXZ 000000018001f560 f i Belt.obj
 0001:0001e5e0       ?InternalSetAtIndex@?$CSimpleArray@GV?$CSimpleArrayEqualHelper@G@ATL@@@ATL@@QEAAXHAEBG@Z 000000018001f5e0 f i Belt.obj
 0001:0001e660       ?InternalSetAtIndex@?$CSimpleMap@PEA_WPEA_WVCExpansionVectorEqualHelper@ATL@@@ATL@@QEAAXHAEBQEA_W0@Z 000000018001f660 f i Belt.obj
 0001:0001e730       ?Invoke@?$IDispatchImpl@UIOPOSBelt@@$1?IID_IOPOSBelt@@3U_GUID@@B$1?LIBID_OposBelt_CCO@@3U3@B$00$0A@VCComTypeInfoHolder@ATL@@@ATL@@UEAAJJAEBU_GUID@@KGPEAUtagDISPPARAMS@@PEAUtagVARIANT@@PEAUtagEXCEPINFO@@PEAI@Z 000000018001f730 f i Belt.obj
 0001:0001e7d0       ?Invoke@CComTypeInfoHolder@ATL@@QEAAJPEAUIDispatch@@JAEBU_GUID@@KGPEAUtagDISPPARAMS@@PEAUtagVARIANT@@PEAUtagEXCEPINFO@@PEAI@Z 000000018001f7d0 f i Belt.obj
 0001:0001e890       ?IsDirty@?$IPersistStorageImpl@VCOPOSBelt@@@ATL@@UEAAJXZ 000000018001f890 f i Belt.obj
 0001:0001e980       ?IsDirty@?$IPersistStreamInitImpl@VCOPOSBelt@@@ATL@@UEAAJXZ 000000018001f980 f i Belt.obj
 0001:0001ea40       ?IsEqualKey@CExpansionVectorEqualHelper@ATL@@SA_NQEA_W0@Z 000000018001fa40 f i Belt.obj
 0001:0001ea90       ?IsEqualObject@?$CComPtrBase@UIOleClientSite@@@ATL@@QEAA_NPEAUIUnknown@@@Z 000000018001fa90 f i Belt.obj
 0001:0001ebe0       ?IsEqualObject@?$CComPtrBase@UITypeInfo@@@ATL@@QEAA_NPEAUIUnknown@@@Z 000000018001fbe0 f i Belt.obj
 0001:0001ed30       ?IsSpace@CRegParser@ATL@@IEAAH_W@Z 000000018001fd30 f i Belt.obj
 0001:0001ed90       ?IsUpToDate@?$IOleObjectImpl@VCOPOSBelt@@@ATL@@UEAAJXZ 000000018001fd90 f i Belt.obj
 0001:0001ee00       ?Length@CComBSTR@ATL@@QEBAIXZ 000000018001fe00 f i Belt.obj
 0001:0001ee40       ?Load@?$IPersistStorageImpl@VCOPOSBelt@@@ATL@@UEAAJPEAUIStorage@@@Z 000000018001fe40 f i Belt.obj
 0001:0001eff0       ?Load@?$IPersistStreamInitImpl@VCOPOSBelt@@@ATL@@UEAAJPEAUIStream@@@Z 000000018001fff0 f i Belt.obj
 0001:0001f0b0       ?LoadCursorW@AtlModuleRegisterWndClassInfoParamW@ATL@@SAPEAUHICON__@@PEAUHINSTANCE__@@PEB_W@Z 00000001800200b0 f i Belt.obj
 0001:0001f0f0       ?LoadNameCache@CComTypeInfoHolder@ATL@@QEAAJPEAUITypeInfo@@@Z 00000001800200f0 f i Belt.obj
 0001:0001f430       ?Lock@?$CComCritSecLock@VCComCriticalSection@ATL@@@ATL@@QEAAJXZ 0000000180020430 f i Belt.obj
 0001:0001f520       ?Lock@?$CComObjectRootEx@VCComSingleThreadModel@ATL@@@ATL@@QEAAXXZ 0000000180020520 f i Belt.obj
 0001:0001f530       ?Lock@CAtlModule@ATL@@UEAAJXZ 0000000180020530 f i Belt.obj
 0001:0001f570       ?Lock@CComCriticalSection@ATL@@QEAAJXZ 0000000180020570 f i Belt.obj
 0001:0001f5b0       ?Lock@CComFakeCriticalSection@ATL@@QEAAJXZ 00000001800205b0 f i Belt.obj
 0001:0001f5c0       ?LockServer@CComClassFactory@ATL@@UEAAJH@Z 00000001800205c0 f i Belt.obj
 0001:0001f620       ?Lookup@?$CSimpleMap@PEA_WPEA_WVCExpansionVectorEqualHelper@ATL@@@ATL@@QEBAPEA_WAEBQEA_W@Z 0000000180020620 f i Belt.obj
 0001:0001f680       ?Next@?$CComEnumImpl@UIEnumConnectionPoints@@$1?_GUID_b196b285_bab4_101a_b69c_00aa00341d07@@3U__s_GUID@@BPEAUIConnectionPoint@@V?$_CopyInterface@UIConnectionPoint@@@ATL@@@ATL@@UEAAJKPEAPEAUIConnectionPoint@@PEAK@Z 0000000180020680 f i Belt.obj
 0001:0001f840       ?Next@?$CComEnumImpl@UIEnumConnections@@$1?_GUID_b196b287_bab4_101a_b69c_00aa00341d07@@3U__s_GUID@@BUtagCONNECTDATA@@V?$_Copy@UtagCONNECTDATA@@@ATL@@@ATL@@UEAAJKPEAUtagCONNECTDATA@@PEAK@Z 0000000180020840 f i Belt.obj
 0001:0001fa00       ?NextToken@CRegParser@ATL@@IEAAJPEA_W@Z 0000000180020a00 f i Belt.obj
 0001:0001fd90       ?OLE2CT_EX@@YAPEB_WPEB_WI@Z 0000000180020d90 f i Belt.obj
 0001:0001fdb0       ?OLE2CT_EX_DEF@@YAPEB_WPEB_W@Z 0000000180020db0 f i Belt.obj
 0001:0001fdc0       ?OLE2T_EX@@YAPEA_WPEA_WI@Z 0000000180020dc0 f i Belt.obj
 0001:0001fde0       ?OnAmbientPropertyChange@?$IOleControlImpl@VCOPOSBelt@@@ATL@@UEAAJJ@Z 0000000180020de0 f i Belt.obj
 0001:0001fea0       ?OnDocWindowActivate@?$IOleInPlaceActiveObjectImpl@VCOPOSBelt@@@ATL@@UEAAJH@Z 0000000180020ea0 f i Belt.obj
 0001:0001ff60       ?OnDrawAdvanced@CComControlBase@ATL@@UEAAJAEAUATL_DRAWINFO@@@Z 0000000180020f60 f i Belt.obj
 0001:000201b0       ?OnFinalMessage@?$CWindowImplBaseT@VCWindow@ATL@@V?$CWinTraits@$0FGAAAAAA@$0A@@2@@ATL@@UEAAXPEAUHWND__@@@Z 00000001800211b0 f i Belt.obj
 0001:000201c0       ?OnFrameWindowActivate@?$IOleInPlaceActiveObjectImpl@VCOPOSBelt@@@ATL@@UEAAJH@Z 00000001800211c0 f i Belt.obj
 0001:00020230       ?OnKillFocus@CComControlBase@ATL@@QEAA_JI_K_JAEAH@Z 0000000180021230 f i Belt.obj
 0001:00020320       ?OnMnemonic@?$IOleControlImpl@VCOPOSBelt@@@ATL@@UEAAJPEAUtagMSG@@@Z 0000000180021320 f i Belt.obj
 0001:000203b0       ?OnMouseActivate@CComControlBase@ATL@@QEAA_JI_K_JAEAH@Z 00000001800213b0 f i Belt.obj
 0001:00020550       ?OnPaint@CComControlBase@ATL@@QEAA_JI_K_JAEAH@Z 0000000180021550 f i Belt.obj
 0001:000206e0       ?OnPostVerbDiscardUndo@?$IOleObjectImpl@VCOPOSBelt@@@ATL@@QEAAJXZ 00000001800216e0 f i Belt.obj
 0001:000206f0       ?OnPostVerbHide@?$IOleObjectImpl@VCOPOSBelt@@@ATL@@QEAAJXZ 00000001800216f0 f i Belt.obj
 0001:00020700       ?OnPostVerbInPlaceActivate@?$IOleObjectImpl@VCOPOSBelt@@@ATL@@QEAAJXZ 0000000180021700 f i Belt.obj
 0001:00020710       ?OnPostVerbOpen@?$IOleObjectImpl@VCOPOSBelt@@@ATL@@QEAAJXZ 0000000180021710 f i Belt.obj
 0001:00020720       ?OnPostVerbShow@?$IOleObjectImpl@VCOPOSBelt@@@ATL@@QEAAJXZ 0000000180021720 f i Belt.obj
 0001:00020730       ?OnPostVerbUIActivate@?$IOleObjectImpl@VCOPOSBelt@@@ATL@@QEAAJXZ 0000000180021730 f i Belt.obj
 0001:00020740       ?OnPreVerbDiscardUndo@?$IOleObjectImpl@VCOPOSBelt@@@ATL@@QEAAJXZ 0000000180021740 f i Belt.obj
 0001:00020750       ?OnPreVerbHide@?$IOleObjectImpl@VCOPOSBelt@@@ATL@@QEAAJXZ 0000000180021750 f i Belt.obj
 0001:00020760       ?OnPreVerbInPlaceActivate@?$IOleObjectImpl@VCOPOSBelt@@@ATL@@QEAAJXZ 0000000180021760 f i Belt.obj
 0001:00020770       ?OnPreVerbOpen@?$IOleObjectImpl@VCOPOSBelt@@@ATL@@QEAAJXZ 0000000180021770 f i Belt.obj
 0001:00020780       ?OnPreVerbShow@?$IOleObjectImpl@VCOPOSBelt@@@ATL@@QEAAJXZ 0000000180021780 f i Belt.obj
 0001:00020790       ?OnPreVerbUIActivate@?$IOleObjectImpl@VCOPOSBelt@@@ATL@@QEAAJXZ 0000000180021790 f i Belt.obj
 0001:000207a0       ?OnSetFocus@CComControlBase@ATL@@QEAA_JI_K_JAEAH@Z 00000001800217a0 f i Belt.obj
 0001:000209a0       ?OnWindowMessage@?$IOleInPlaceObjectWindowlessImpl@VCOPOSBelt@@@ATL@@UEAAJI_K_JPEA_J@Z 00000001800219a0 f i Belt.obj
 0001:00020bc0       ?Open@CRegKey@ATL@@QEAAJPEAUHKEY__@@PEB_WK@Z 0000000180021bc0 f i Belt.obj
 0001:00020d40       ?OuterAddRef@CComObjectRootBase@ATL@@QEAAKXZ 0000000180021d40 f i Belt.obj
 0001:00020d80       ?OuterQueryInterface@CComObjectRootBase@ATL@@QEAAJAEBU_GUID@@PEAPEAX@Z 0000000180021d80 f i Belt.obj
 0001:00020dd0       ?OuterRelease@CComObjectRootBase@ATL@@QEAAKXZ 0000000180021dd0 f i Belt.obj
 0001:00020e10       ?PreProcessBuffer@CRegParser@ATL@@QEAAJPEA_WPEAPEA_W@Z 0000000180021e10 f i Belt.obj
 0001:000214f0       ?PreTranslateAccelerator@CComControlBase@ATL@@QEAAHPEAUtagMSG@@AEAJ@Z 00000001800224f0 f i Belt.obj
 0001:00021510       ?ProcessWindowMessage@?$CComControl@VCOPOSBelt@@V?$CWindowImpl@VCOPOSBelt@@VCWindow@ATL@@V?$CWinTraits@$0FGAAAAAA@$0A@@3@@ATL@@@ATL@@UEAAHPEAUHWND__@@I_K_JAEA_JK@Z 0000000180022510 f i Belt.obj
 0001:00021790       ?ProcessWindowMessage@COPOSBelt@@UEAAHPEAUHWND__@@I_K_JAEA_JK@Z 0000000180022790 f i Belt.obj
 0001:00021910       ?PutProperty@?$CComPtr@UIDispatch@@@ATL@@QEAAJJPEAUtagVARIANT@@@Z 0000000180022910 f i Belt.obj
 0001:00021960       ?PutProperty@?$CComPtr@UIDispatch@@@ATL@@SAJPEAUIDispatch@@JPEAUtagVARIANT@@@Z 0000000180022960 f i Belt.obj
 0001:00021c00       ?QueryGetData@?$IDataObjectImpl@VCOPOSBelt@@@ATL@@UEAAJPEAUtagFORMATETC@@@Z 0000000180022c00 f i Belt.obj
 0001:00021c90       ?QueryHitPoint@?$IViewObjectExImpl@VCOPOSBelt@@@ATL@@UEAAJKPEBUtagRECT@@UtagPOINT@@JPEAK@Z 0000000180022c90 f i Belt.obj
 0001:00021e00       ?QueryHitRect@?$IViewObjectExImpl@VCOPOSBelt@@@ATL@@UEAAJKPEBUtagRECT@@0JPEAK@Z 0000000180022e00 f i Belt.obj
 0001:00021fd0       ?QueryInterface@?$CComAggObject@VCOPOSBelt@@@ATL@@UEAAJAEBU_GUID@@PEAPEAX@Z 0000000180022fd0 f i Belt.obj
 0001:000220c0       ?QueryInterface@?$CComContainedObject@VCOPOSBelt@@@ATL@@UEAAJAEBU_GUID@@PEAPEAX@Z 00000001800230c0 f i Belt.obj
 0001:0002210c       ?QueryInterface@?$CComContainedObject@VCOPOSBelt@@@ATL@@WBAA@EAAJAEBU_GUID@@PEAPEAX@Z 000000018002310c f i Belt.obj
 0001:00022118       ?QueryInterface@?$CComContainedObject@VCOPOSBelt@@@ATL@@WBAI@EAAJAEBU_GUID@@PEAPEAX@Z 0000000180023118 f i Belt.obj
 0001:00022124       ?QueryInterface@?$CComContainedObject@VCOPOSBelt@@@ATL@@WBBA@EAAJAEBU_GUID@@PEAPEAX@Z 0000000180023124 f i Belt.obj
 0001:00022130       ?QueryInterface@?$CComContainedObject@VCOPOSBelt@@@ATL@@WBBI@EAAJAEBU_GUID@@PEAPEAX@Z 0000000180023130 f i Belt.obj
 0001:0002213c       ?QueryInterface@?$CComContainedObject@VCOPOSBelt@@@ATL@@WLI@EAAJAEBU_GUID@@PEAPEAX@Z 000000018002313c f i Belt.obj
 0001:00022148       ?QueryInterface@?$CComContainedObject@VCOPOSBelt@@@ATL@@WMA@EAAJAEBU_GUID@@PEAPEAX@Z 0000000180023148 f i Belt.obj
 0001:00022154       ?QueryInterface@?$CComContainedObject@VCOPOSBelt@@@ATL@@WMI@EAAJAEBU_GUID@@PEAPEAX@Z 0000000180023154 f i Belt.obj
 0001:00022160       ?QueryInterface@?$CComContainedObject@VCOPOSBelt@@@ATL@@WNA@EAAJAEBU_GUID@@PEAPEAX@Z 0000000180023160 f i Belt.obj
 0001:0002216c       ?QueryInterface@?$CComContainedObject@VCOPOSBelt@@@ATL@@WNI@EAAJAEBU_GUID@@PEAPEAX@Z 000000018002316c f i Belt.obj
 0001:00022178       ?QueryInterface@?$CComContainedObject@VCOPOSBelt@@@ATL@@WOA@EAAJAEBU_GUID@@PEAPEAX@Z 0000000180023178 f i Belt.obj
 0001:00022184       ?QueryInterface@?$CComContainedObject@VCOPOSBelt@@@ATL@@WOI@EAAJAEBU_GUID@@PEAPEAX@Z 0000000180023184 f i Belt.obj
 0001:00022190       ?QueryInterface@?$CComContainedObject@VCOPOSBelt@@@ATL@@WPA@EAAJAEBU_GUID@@PEAPEAX@Z 0000000180023190 f i Belt.obj
 0001:0002219c       ?QueryInterface@?$CComContainedObject@VCOPOSBelt@@@ATL@@WPI@EAAJAEBU_GUID@@PEAPEAX@Z 000000018002319c f i Belt.obj
 0001:000221b0       ?QueryInterface@?$CComObject@V?$CComEnum@UIEnumConnectionPoints@@$1?_GUID_b196b285_bab4_101a_b69c_00aa00341d07@@3U__s_GUID@@BPEAUIConnectionPoint@@V?$_CopyInterface@UIConnectionPoint@@@ATL@@VCComSingleThreadModel@6@@ATL@@@ATL@@UEAAJAEBU_GUID@@PEAPEAX@Z 00000001800231b0 f i Belt.obj
 0001:00022200       ?QueryInterface@?$CComObject@V?$CComEnum@UIEnumConnections@@$1?_GUID_b196b287_bab4_101a_b69c_00aa00341d07@@3U__s_GUID@@BUtagCONNECTDATA@@V?$_Copy@UtagCONNECTDATA@@@ATL@@VCComSingleThreadModel@6@@ATL@@@ATL@@UEAAJAEBU_GUID@@PEAPEAX@Z 0000000180023200 f i Belt.obj
 0001:00022250       ?QueryInterface@?$CComObject@VCOPOSBelt@@@ATL@@UEAAJAEBU_GUID@@PEAPEAX@Z 0000000180023250 f i Belt.obj
 0001:00022294       ?QueryInterface@?$CComObject@VCOPOSBelt@@@ATL@@WBAA@EAAJAEBU_GUID@@PEAPEAX@Z 0000000180023294 f i Belt.obj
 0001:000222a0       ?QueryInterface@?$CComObject@VCOPOSBelt@@@ATL@@WBAI@EAAJAEBU_GUID@@PEAPEAX@Z 00000001800232a0 f i Belt.obj
 0001:000222ac       ?QueryInterface@?$CComObject@VCOPOSBelt@@@ATL@@WBBA@EAAJAEBU_GUID@@PEAPEAX@Z 00000001800232ac f i Belt.obj
 0001:000222b8       ?QueryInterface@?$CComObject@VCOPOSBelt@@@ATL@@WBBI@EAAJAEBU_GUID@@PEAPEAX@Z 00000001800232b8 f i Belt.obj
 0001:000222c4       ?QueryInterface@?$CComObject@VCOPOSBelt@@@ATL@@WLI@EAAJAEBU_GUID@@PEAPEAX@Z 00000001800232c4 f i Belt.obj
 0001:000222d0       ?QueryInterface@?$CComObject@VCOPOSBelt@@@ATL@@WMA@EAAJAEBU_GUID@@PEAPEAX@Z 00000001800232d0 f i Belt.obj
 0001:000222dc       ?QueryInterface@?$CComObject@VCOPOSBelt@@@ATL@@WMI@EAAJAEBU_GUID@@PEAPEAX@Z 00000001800232dc f i Belt.obj
 0001:000222e8       ?QueryInterface@?$CComObject@VCOPOSBelt@@@ATL@@WNA@EAAJAEBU_GUID@@PEAPEAX@Z 00000001800232e8 f i Belt.obj
 0001:000222f4       ?QueryInterface@?$CComObject@VCOPOSBelt@@@ATL@@WNI@EAAJAEBU_GUID@@PEAPEAX@Z 00000001800232f4 f i Belt.obj
 0001:00022300       ?QueryInterface@?$CComObject@VCOPOSBelt@@@ATL@@WOA@EAAJAEBU_GUID@@PEAPEAX@Z 0000000180023300 f i Belt.obj
 0001:0002230c       ?QueryInterface@?$CComObject@VCOPOSBelt@@@ATL@@WOI@EAAJAEBU_GUID@@PEAPEAX@Z 000000018002330c f i Belt.obj
 0001:00022318       ?QueryInterface@?$CComObject@VCOPOSBelt@@@ATL@@WPA@EAAJAEBU_GUID@@PEAPEAX@Z 0000000180023318 f i Belt.obj
 0001:00022324       ?QueryInterface@?$CComObject@VCOPOSBelt@@@ATL@@WPI@EAAJAEBU_GUID@@PEAPEAX@Z 0000000180023324 f i Belt.obj
 0001:00022330       ?QueryInterface@?$CComObjectCached@VCComClassFactory@ATL@@@ATL@@UEAAJAEBU_GUID@@PEAPEAX@Z 0000000180023330 f i Belt.obj
 0001:00022380       ?QueryInterface@CRegObject@ATL@@UEAAJAEBU_GUID@@PEAPEAX@Z 0000000180023380 f i Belt.obj
 0001:00022400       ?QuickActivate@?$IQuickActivateImpl@VCOPOSBelt@@@ATL@@UEAAJPEAUtagQACONTAINER@@PEAUtagQACONTROL@@@Z 0000000180023400 f i Belt.obj
 0001:000224c0       ?ReactivateAndUndo@?$IOleInPlaceObjectWindowlessImpl@VCOPOSBelt@@@ATL@@UEAAJXZ 00000001800234c0 f i Belt.obj
 0001:00022540       ?ReadFromStream@CComBSTR@ATL@@QEAAJPEAUIStream@@@Z 0000000180023540 f i Belt.obj
 0001:00022a20       ?ReadFromStream@CComVariant@ATL@@QEAAJPEAUIStream@@GTClassesAllowedInStream@2@K@Z 0000000180023a20 f i Belt.obj
 0001:00022e50       ?RecurseDeleteKey@CRegKey@ATL@@QEAAJPEB_W@Z 0000000180023e50 f i Belt.obj
 0001:00023070       ?RegCreateKeyExW@CAtlTransactionManager@ATL@@QEAAJPEAUHKEY__@@PEB_WKPEA_WKKQEAU_SECURITY_ATTRIBUTES@@PEAPEAU3@PEAK@Z 0000000180024070 f i Belt.obj
 0001:00023240       ?RegDeleteKeyW@CAtlTransactionManager@ATL@@QEAAJPEAUHKEY__@@PEB_W@Z 0000000180024240 f i Belt.obj
 0001:00023350       ?RegOpenKeyExW@CAtlTransactionManager@ATL@@QEAAJPEAUHKEY__@@PEB_WKKPEAPEAU3@@Z 0000000180024350 f i Belt.obj
 0001:000234a0       ?Register@_ATL_WNDCLASSINFOW@ATL@@QEAAGPEAP6A_JPEAUHWND__@@I_K_J@Z@Z 00000001800244a0 f i Belt.obj
 0001:000234f0       ?RegisterBuffer@CRegParser@ATL@@QEAAJPEA_WH@Z 00000001800244f0 f i Belt.obj
 0001:000238e0       ?RegisterClassExW@AtlModuleRegisterWndClassInfoParamW@ATL@@SAGPEAU_ATL_WIN_MODULE70@2@PEBUtagWNDCLASSEXW@@@Z 00000001800248e0 f i Belt.obj
 0001:00023920       ?RegisterFromResource@CRegObject@ATL@@IEAAJPEB_W00H@Z 0000000180024920 f i Belt.obj
 0001:00023d80       ?RegisterServer@?$CAtlModuleT@VCComModule@ATL@@@ATL@@QEAAJHPEBU_GUID@@@Z 0000000180024d80 f i Belt.obj
 0001:00023e00       ?RegisterServer@CAtlComModule@ATL@@QEAAJHPEBU_GUID@@@Z 0000000180024e00 f i Belt.obj
 0001:00023e40       ?RegisterServer@CComModule@ATL@@QEAAJHPEBU_GUID@@@Z 0000000180024e40 f i Belt.obj
 0001:00023f40       ?RegisterSubkeys@CRegParser@ATL@@IEAAJPEA_WPEAUHKEY__@@HH@Z 0000000180024f40 f i Belt.obj
 0001:00024d20       ?Release@?$CComAggObject@VCOPOSBelt@@@ATL@@UEAAKXZ 0000000180025d20 f i Belt.obj
 0001:00024dd0       ?Release@?$CComContainedObject@VCOPOSBelt@@@ATL@@UEAAKXZ 0000000180025dd0 f i Belt.obj
 0001:00024e08       ?Release@?$CComContainedObject@VCOPOSBelt@@@ATL@@WBAA@EAAKXZ 0000000180025e08 f i Belt.obj
 0001:00024e14       ?Release@?$CComContainedObject@VCOPOSBelt@@@ATL@@WBAI@EAAKXZ 0000000180025e14 f i Belt.obj
 0001:00024e20       ?Release@?$CComContainedObject@VCOPOSBelt@@@ATL@@WBBA@EAAKXZ 0000000180025e20 f i Belt.obj
 0001:00024e2c       ?Release@?$CComContainedObject@VCOPOSBelt@@@ATL@@WBBI@EAAKXZ 0000000180025e2c f i Belt.obj
 0001:00024e38       ?Release@?$CComContainedObject@VCOPOSBelt@@@ATL@@WBCI@EAAKXZ 0000000180025e38 f i Belt.obj
 0001:00024e44       ?Release@?$CComContainedObject@VCOPOSBelt@@@ATL@@WBEA@EAAKXZ 0000000180025e44 f i Belt.obj
 0001:00024e50       ?Release@?$CComContainedObject@VCOPOSBelt@@@ATL@@WLI@EAAKXZ 0000000180025e50 f i Belt.obj
 0001:00024e5c       ?Release@?$CComContainedObject@VCOPOSBelt@@@ATL@@WMA@EAAKXZ 0000000180025e5c f i Belt.obj
 0001:00024e68       ?Release@?$CComContainedObject@VCOPOSBelt@@@ATL@@WMI@EAAKXZ 0000000180025e68 f i Belt.obj
 0001:00024e74       ?Release@?$CComContainedObject@VCOPOSBelt@@@ATL@@WNA@EAAKXZ 0000000180025e74 f i Belt.obj
 0001:00024e80       ?Release@?$CComContainedObject@VCOPOSBelt@@@ATL@@WNI@EAAKXZ 0000000180025e80 f i Belt.obj
 0001:00024e8c       ?Release@?$CComContainedObject@VCOPOSBelt@@@ATL@@WOA@EAAKXZ 0000000180025e8c f i Belt.obj
 0001:00024e98       ?Release@?$CComContainedObject@VCOPOSBelt@@@ATL@@WOI@EAAKXZ 0000000180025e98 f i Belt.obj
 0001:00024ea4       ?Release@?$CComContainedObject@VCOPOSBelt@@@ATL@@WPA@EAAKXZ 0000000180025ea4 f i Belt.obj
 0001:00024eb0       ?Release@?$CComContainedObject@VCOPOSBelt@@@ATL@@WPI@EAAKXZ 0000000180025eb0 f i Belt.obj
 0001:00024ec0       ?Release@?$CComObject@V?$CComEnum@UIEnumConnectionPoints@@$1?_GUID_b196b285_bab4_101a_b69c_00aa00341d07@@3U__s_GUID@@BPEAUIConnectionPoint@@V?$_CopyInterface@UIConnectionPoint@@@ATL@@VCComSingleThreadModel@6@@ATL@@@ATL@@UEAAKXZ 0000000180025ec0 f i Belt.obj
 0001:00024f70       ?Release@?$CComObject@V?$CComEnum@UIEnumConnections@@$1?_GUID_b196b287_bab4_101a_b69c_00aa00341d07@@3U__s_GUID@@BUtagCONNECTDATA@@V?$_Copy@UtagCONNECTDATA@@@ATL@@VCComSingleThreadModel@6@@ATL@@@ATL@@UEAAKXZ 0000000180025f70 f i Belt.obj
 0001:00025020       ?Release@?$CComObject@VCOPOSBelt@@@ATL@@UEAAKXZ 0000000180026020 f i Belt.obj
 0001:000250d8       ?Release@?$CComObject@VCOPOSBelt@@@ATL@@WBAA@EAAKXZ 00000001800260d8 f i Belt.obj
 0001:000250e4       ?Release@?$CComObject@VCOPOSBelt@@@ATL@@WBAI@EAAKXZ 00000001800260e4 f i Belt.obj
 0001:000250f0       ?Release@?$CComObject@VCOPOSBelt@@@ATL@@WBBA@EAAKXZ 00000001800260f0 f i Belt.obj
 0001:000250fc       ?Release@?$CComObject@VCOPOSBelt@@@ATL@@WBBI@EAAKXZ 00000001800260fc f i Belt.obj
 0001:00025108       ?Release@?$CComObject@VCOPOSBelt@@@ATL@@WBCI@EAAKXZ 0000000180026108 f i Belt.obj
 0001:00025114       ?Release@?$CComObject@VCOPOSBelt@@@ATL@@WBEA@EAAKXZ 0000000180026114 f i Belt.obj
 0001:00025120       ?Release@?$CComObject@VCOPOSBelt@@@ATL@@WLI@EAAKXZ 0000000180026120 f i Belt.obj
 0001:0002512c       ?Release@?$CComObject@VCOPOSBelt@@@ATL@@WMA@EAAKXZ 000000018002612c f i Belt.obj
 0001:00025138       ?Release@?$CComObject@VCOPOSBelt@@@ATL@@WMI@EAAKXZ 0000000180026138 f i Belt.obj
 0001:00025144       ?Release@?$CComObject@VCOPOSBelt@@@ATL@@WNA@EAAKXZ 0000000180026144 f i Belt.obj
 0001:00025150       ?Release@?$CComObject@VCOPOSBelt@@@ATL@@WNI@EAAKXZ 0000000180026150 f i Belt.obj
 0001:0002515c       ?Release@?$CComObject@VCOPOSBelt@@@ATL@@WOA@EAAKXZ 000000018002615c f i Belt.obj
 0001:00025168       ?Release@?$CComObject@VCOPOSBelt@@@ATL@@WOI@EAAKXZ 0000000180026168 f i Belt.obj
 0001:00025174       ?Release@?$CComObject@VCOPOSBelt@@@ATL@@WPA@EAAKXZ 0000000180026174 f i Belt.obj
 0001:00025180       ?Release@?$CComObject@VCOPOSBelt@@@ATL@@WPI@EAAKXZ 0000000180026180 f i Belt.obj
 0001:00025190       ?Release@?$CComObjectCached@VCComClassFactory@ATL@@@ATL@@UEAAKXZ 0000000180026190 f i Belt.obj
 0001:00025230       ?Release@?$CComPtrBase@UIAdviseSink@@@ATL@@QEAAXXZ 0000000180026230 f i Belt.obj
 0001:00025290       ?Release@?$CComPtrBase@UIDispatch@@@ATL@@QEAAXXZ 0000000180026290 f i Belt.obj
 0001:000252f0       ?Release@?$CComPtrBase@UIOleInPlaceSiteWindowless@@@ATL@@QEAAXXZ 00000001800262f0 f i Belt.obj
 0001:00025350       ?Release@CRegObject@ATL@@UEAAKXZ 0000000180026350 f i Belt.obj
 0001:000253c0       ?Remove@CComDynamicUnkArray@ATL@@QEAAHK@Z 00000001800263c0 f i Belt.obj
 0001:000254a0       ?RemoveAll@?$CSimpleMap@PEA_WPEA_WVCExpansionVectorEqualHelper@ATL@@@ATL@@QEAAXXZ 00000001800264a0 f i Belt.obj
 0001:00025540       ?Reset@?$CComEnumImpl@UIEnumConnectionPoints@@$1?_GUID_b196b285_bab4_101a_b69c_00aa00341d07@@3U__s_GUID@@BPEAUIConnectionPoint@@V?$_CopyInterface@UIConnectionPoint@@@ATL@@@ATL@@UEAAJXZ 0000000180026540 f i Belt.obj
 0001:00025560       ?Reset@?$CComEnumImpl@UIEnumConnections@@$1?_GUID_b196b287_bab4_101a_b69c_00aa00341d07@@3U__s_GUID@@BUtagCONNECTDATA@@V?$_Copy@UtagCONNECTDATA@@@ATL@@@ATL@@UEAAJXZ 0000000180026560 f i Belt.obj
 0001:00025580       ?ResizeBorder@?$IOleInPlaceActiveObjectImpl@VCOPOSBelt@@@ATL@@UEAAJPEBUtagRECT@@PEAUIOleInPlaceUIWindow@@H@Z 0000000180026580 f i Belt.obj
 0001:00025600       ?ResourceRegister@CRegObject@ATL@@QEAAJPEB_WI0@Z 0000000180026600 f i Belt.obj
 0001:000256e0       ?ResourceRegisterSz@CRegObject@ATL@@QEAAJPEB_W00@Z 00000001800266e0 f i Belt.obj
 0001:00025800       ?ResourceUnregister@CRegObject@ATL@@QEAAJPEB_WI0@Z 0000000180026800 f i Belt.obj
 0001:000258e0       ?ResourceUnregisterSz@CRegObject@ATL@@QEAAJPEB_W00@Z 00000001800268e0 f i Belt.obj
 0001:00025a00       ?SODataDummy@COPOSBelt@@MEAAJJ@Z 0000000180026a00 f i Belt.obj
 0001:00025a20       ?SODirectIO@COPOSBelt@@MEAAJJPEAJPEAPEA_W@Z 0000000180026a20 f i Belt.obj
 0001:00025c60       ?SOErrorDummy@COPOSBelt@@MEAAJJJJPEAJ@Z 0000000180026c60 f i Belt.obj
 0001:00025c80       ?SOOutputCompleteDummy@COPOSBelt@@MEAAJJ@Z 0000000180026c80 f i Belt.obj
 0001:00025ca0       ?SOStatusUpdate@COPOSBelt@@MEAAJJ@Z 0000000180026ca0 f i Belt.obj
 0001:00025d40       ?Save@?$IPersistStorageImpl@VCOPOSBelt@@@ATL@@UEAAJPEAUIStorage@@H@Z 0000000180026d40 f i Belt.obj
 0001:00025f00       ?Save@?$IPersistStreamInitImpl@VCOPOSBelt@@@ATL@@UEAAJPEAUIStream@@H@Z 0000000180026f00 f i Belt.obj
 0001:00025fc0       ?SaveCompleted@?$IPersistStorageImpl@VCOPOSBelt@@@ATL@@UEAAJPEAUIStorage@@@Z 0000000180026fc0 f i Belt.obj
 0001:00026030       ?SendOnDataChange@CComControlBase@ATL@@QEAAJK@Z 0000000180027030 f i Belt.obj
 0001:00026120       ?SendOnSave@CComControlBase@ATL@@QEAAJXZ 0000000180027120 f i Belt.obj
 0001:00026190       ?SendOnViewChange@CComControlBase@ATL@@QEAAJKJ@Z 0000000180027190 f i Belt.obj
 0001:00026210       ?SetAdvise@?$IViewObjectExImpl@VCOPOSBelt@@@ATL@@UEAAJKKPEAUIAdviseSink@@@Z 0000000180027210 f i Belt.obj
 0001:000262d0       ?SetClientSite@?$IOleObjectImpl@VCOPOSBelt@@@ATL@@UEAAJPEAUIOleClientSite@@@Z 00000001800272d0 f i Belt.obj
 0001:00026380       ?SetColorScheme@?$IOleObjectImpl@VCOPOSBelt@@@ATL@@UEAAJPEAUtagLOGPALETTE@@@Z 0000000180027380 f i Belt.obj
 0001:00026410       ?SetContentExtent@?$IQuickActivateImpl@VCOPOSBelt@@@ATL@@UEAAJPEAUtagSIZE@@@Z 0000000180027410 f i Belt.obj
 0001:000264d0       ?SetControlFocus@CComControlBase@ATL@@QEAAHH@Z 00000001800274d0 f i Belt.obj
 0001:00026660       ?SetDWORDValue@CRegKey@ATL@@QEAAJPEB_WK@Z 0000000180027660 f i Belt.obj
 0001:00026710       ?SetData@?$IDataObjectImpl@VCOPOSBelt@@@ATL@@UEAAJPEAUtagFORMATETC@@PEAUtagSTGMEDIUM@@H@Z 0000000180027710 f i Belt.obj
 0001:000267a0       ?SetExtent@?$IOleObjectImpl@VCOPOSBelt@@@ATL@@UEAAJKPEAUtagSIZE@@@Z 00000001800277a0 f i Belt.obj
 0001:00026860       ?SetHostNames@?$IOleObjectImpl@VCOPOSBelt@@@ATL@@UEAAJPEB_W0@Z 0000000180027860 f i Belt.obj
 0001:000268e0       ?SetInterfaceSafetyOptions@?$IObjectSafetyImpl@VCOPOSBelt@@$02@ATL@@UEAAJAEBU_GUID@@KK@Z 00000001800278e0 f i Belt.obj
 0001:00026a80       ?SetMoniker@?$IOleObjectImpl@VCOPOSBelt@@@ATL@@UEAAJKPEAUIMoniker@@@Z 0000000180027a80 f i Belt.obj
 0001:00026b10       ?SetMultiStringValue@CRegKey@ATL@@QEAAJPEB_W0@Z 0000000180027b10 f i Belt.obj
 0001:00026c80       ?SetObjectRects@?$IOleInPlaceObjectWindowlessImpl@VCOPOSBelt@@@ATL@@UEAAJPEBUtagRECT@@0@Z 0000000180027c80 f i Belt.obj
 0001:00026d40       ?SetStringValue@CRegKey@ATL@@QEAAJPEB_W0K@Z 0000000180027d40 f i Belt.obj
 0001:00026ec0       ?SetVoid@CComClassFactory@ATL@@QEAAXPEAX@Z 0000000180027ec0 f i Belt.obj
 0001:00026ee0       ?SetVoid@CComObjectRootBase@ATL@@QEAAXPEAX@Z 0000000180027ee0 f i Belt.obj
 0001:00026ef0       ?ShowWindow@CWindow@ATL@@QEAAHH@Z 0000000180027ef0 f i Belt.obj
 0001:00026f80       ?Skip@?$CComEnumImpl@UIEnumConnectionPoints@@$1?_GUID_b196b285_bab4_101a_b69c_00aa00341d07@@3U__s_GUID@@BPEAUIConnectionPoint@@V?$_CopyInterface@UIConnectionPoint@@@ATL@@@ATL@@UEAAJK@Z 0000000180027f80 f i Belt.obj
 0001:00027020       ?Skip@?$CComEnumImpl@UIEnumConnections@@$1?_GUID_b196b287_bab4_101a_b69c_00aa00341d07@@3U__s_GUID@@BUtagCONNECTDATA@@V?$_Copy@UtagCONNECTDATA@@@ATL@@@ATL@@UEAAJK@Z 0000000180028020 f i Belt.obj
 0001:000270c0       ?SkipAssignment@CRegParser@ATL@@IEAAJPEA_W@Z 00000001800280c0 f i Belt.obj
 0001:000271c0       ?SkipWhiteSpace@CRegParser@ATL@@IEAAXXZ 00000001800281c0 f i Belt.obj
 0001:00027220       ?StartWindowProc@?$CWindowImplBaseT@VCWindow@ATL@@V?$CWinTraits@$0FGAAAAAA@$0A@@2@@ATL@@SA_JPEAUHWND__@@I_K_J@Z 0000000180028220 f i Belt.obj
 0001:00027390       ?StrChrW@CRegParser@ATL@@KAPEA_WPEA_W_W@Z 0000000180028390 f i Belt.obj
 0001:00027410       ?StrFromMap@CRegObject@ATL@@QEAAPEB_WPEA_W@Z 0000000180028410 f i Belt.obj
 0001:000274d0       ?Swap@?$CComPtrBase@UIAdviseSink@@@ATL@@IEAAXAEAV12@@Z 00000001800284d0 f i Belt.obj
 0001:00027530       ?Swap@?$CComPtrBase@UIOleClientSite@@@ATL@@IEAAXAEAV12@@Z 0000000180028530 f i Belt.obj
 0001:00027590       ?Swap@?$CComPtrBase@UIUnknown@@@ATL@@IEAAXAEAV12@@Z 0000000180028590 f i Belt.obj
 0001:000275f0       ?T2COLE_EX@@YAPEB_WPEB_WI@Z 00000001800285f0 f i Belt.obj
 0001:00027610       ?T2OLE_EX@@YAPEA_WPEA_WI@Z 0000000180028610 f i Belt.obj
 0001:00027630       ?Term@CAtlModule@ATL@@QEAAXXZ 0000000180028630 f i Belt.obj
 0001:000276f0       ?Term@CComModule@ATL@@QEAAXXZ 00000001800286f0 f i Belt.obj
 0001:000277e0       ?TranslateAcceleratorW@?$IOleInPlaceActiveObjectImpl@VCOPOSBelt@@@ATL@@UEAAJPEAUtagMSG@@@Z 00000001800287e0 f i Belt.obj
 0001:00027a50       ?UIDeactivate@?$IOleInPlaceObjectWindowlessImpl@VCOPOSBelt@@@ATL@@UEAAJXZ 0000000180028a50 f i Belt.obj
 0001:00027b00       ?Unadvise@?$CProxy_IOPOSEvents@VCOPOSBelt@@@@UEAAJK@Z 0000000180028b00 f i Belt.obj
 0001:00027b50       ?Unadvise@?$IConnectionPointImpl@VCOPOSBelt@@$1?DIID__IOPOSBeltEvents@@3U_GUID@@BVCComDynamicUnkArray@ATL@@@ATL@@UEAAJK@Z 0000000180028b50 f i Belt.obj
 0001:00027c40       ?Unadvise@?$IConnectionPointImpl@VCOPOSBelt@@$1?IID_IPropertyNotifySink@@3U_GUID@@BVCComDynamicUnkArray@ATL@@@ATL@@UEAAJK@Z 0000000180028c40 f i Belt.obj
 0001:00027d30       ?Unadvise@?$IOleObjectImpl@VCOPOSBelt@@@ATL@@UEAAJK@Z 0000000180028d30 f i Belt.obj
 0001:00027e20       ?Unfreeze@?$IViewObjectExImpl@VCOPOSBelt@@@ATL@@UEAAJK@Z 0000000180028e20 f i Belt.obj
 0001:00027ea0       ?Unlock@?$CComCritSecLock@VCComCriticalSection@ATL@@@ATL@@QEAAXXZ 0000000180028ea0 f i Belt.obj
 0001:00027f30       ?Unlock@?$CComObjectRootEx@VCComSingleThreadModel@ATL@@@ATL@@QEAAXXZ 0000000180028f30 f i Belt.obj
 0001:00027f40       ?Unlock@CAtlModule@ATL@@UEAAJXZ 0000000180028f40 f i Belt.obj
 0001:00027f80       ?Unlock@CComCriticalSection@ATL@@QEAAJXZ 0000000180028f80 f i Belt.obj
 0001:00027fc0       ?Unlock@CComFakeCriticalSection@ATL@@QEAAJXZ 0000000180028fc0 f i Belt.obj
 0001:00027fd0       ?UnregisterServer@?$CAtlModuleT@VCComModule@ATL@@@ATL@@QEAAJHPEBU_GUID@@@Z 0000000180028fd0 f i Belt.obj
 0001:00028040       ?UnregisterServer@CAtlComModule@ATL@@QEAAJHPEBU_GUID@@@Z 0000000180029040 f i Belt.obj
 0001:00028080       ?UnregisterServer@CComModule@ATL@@QEAAJHPEBU_GUID@@@Z 0000000180029080 f i Belt.obj
 0001:00028170       ?Update@?$IOleObjectImpl@VCOPOSBelt@@@ATL@@UEAAJXZ 0000000180029170 f i Belt.obj
 0001:000281e0       ?UpdateRegistryFromResource@CAtlModule@ATL@@QEAAJIHPEAU_ATL_REGMAP_ENTRY@2@@Z 00000001800291e0 f i Belt.obj
 0001:00028710       ?UpdateRegistryFromResource@CAtlModule@ATL@@QEAAJPEB_WHPEAU_ATL_REGMAP_ENTRY@2@@Z 0000000180029710 f i Belt.obj
 0001:00028c60       ?UpdateRegistryFromResource@CComModule@ATL@@UEAAJIHPEAU_ATL_REGMAP_ENTRY@2@@Z 0000000180029c60 f i Belt.obj
 0001:00028cb0       ?UpdateRegistryFromResource@CComModule@ATL@@UEAAJPEB_WHPEAU_ATL_REGMAP_ENTRY@2@@Z 0000000180029cb0 f i Belt.obj
 0001:00028d00       ?UpdateRegistryFromResourceD@CComModule@ATL@@UEAAJIHPEAU_ATL_REGMAP_ENTRY@2@@Z 0000000180029d00 f i Belt.obj
 0001:00028d20       ?UpdateRegistryFromResourceD@CComModule@ATL@@UEAAJPEB_WHPEAU_ATL_REGMAP_ENTRY@2@@Z 0000000180029d20 f i Belt.obj
 0001:00028d40       ?VTFromRegType@CRegParser@ATL@@KAHPEB_WAEAG@Z 0000000180029d40 f i Belt.obj
 0001:00028e20       ?WindowProc@?$CWindowImplBaseT@VCWindow@ATL@@V?$CWinTraits@$0FGAAAAAA@$0A@@2@@ATL@@SA_JPEAUHWND__@@I_K_J@Z 0000000180029e20 f i Belt.obj
 0001:00029100       ?WriteToStream@CComBSTR@ATL@@QEAAJPEAUIStream@@@Z 000000018002a100 f i Belt.obj
 0001:00029270       ?WriteToStream@CComVariant@ATL@@QEAAJPEAUIStream@@@Z 000000018002a270 f i Belt.obj
 0001:00029680       ?WriteToStream@CComVariant@ATL@@QEAAJPEAUIStream@@G@Z 000000018002a680 f i Belt.obj
 0001:00029760       ?_AtlFinalConstruct@CComObjectRootBase@ATL@@QEAAJXZ 000000018002a760 f i Belt.obj
 0001:00029770       ?_AtlGetConversionACP@ATL@@YAIXZ 000000018002a770 f i Belt.obj
 0001:00029780       ?_AtlInitialConstruct@?$CComAggObject@VCOPOSBelt@@@ATL@@QEAAJXZ 000000018002a780 f i Belt.obj
 0001:000297e0       ?_AtlInitialConstruct@?$CComObjectRootEx@VCComMultiThreadModel@ATL@@@ATL@@QEAAJXZ 000000018002a7e0 f i Belt.obj
 0001:00029820       ?_AtlInitialConstruct@?$CComObjectRootEx@VCComSingleThreadModel@ATL@@@ATL@@QEAAJXZ 000000018002a820 f i Belt.obj
 0001:00029830       ?_AtlVerifyStackAvailable@_ATL_SAFE_ALLOCA_IMPL@ATL@@YA_N_K@Z 000000018002a830 f i Belt.obj
 0001:00029990       ?_GetEntries@?$CComEnum@UIEnumConnectionPoints@@$1?_GUID_b196b285_bab4_101a_b69c_00aa00341d07@@3U__s_GUID@@BPEAUIConnectionPoint@@V?$_CopyInterface@UIConnectionPoint@@@ATL@@VCComSingleThreadModel@6@@ATL@@SAPEBU_ATL_INTMAP_ENTRY@2@XZ 000000018002a990 f i Belt.obj
 0001:000299b0       ?_GetEntries@?$CComEnum@UIEnumConnections@@$1?_GUID_b196b287_bab4_101a_b69c_00aa00341d07@@3U__s_GUID@@BUtagCONNECTDATA@@V?$_Copy@UtagCONNECTDATA@@@ATL@@VCComSingleThreadModel@6@@ATL@@SAPEBU_ATL_INTMAP_ENTRY@2@XZ 000000018002a9b0 f i Belt.obj
 0001:000299d0       ?_GetEntries@CComClassFactory@ATL@@SAPEBU_ATL_INTMAP_ENTRY@2@XZ 000000018002a9d0 f i Belt.obj
 0001:000299f0       ?_GetEntries@COPOSBelt@@SAPEBU_ATL_INTMAP_ENTRY@ATL@@XZ 000000018002a9f0 f i Belt.obj
 0001:00029a10       ?_GetRawUnknown@COPOSBelt@@QEAAPEAUIUnknown@@XZ 000000018002aa10 f i Belt.obj
 0001:00029aa0       ?_GetViewStatus@COPOSBelt@@QEAAKXZ 000000018002aaa0 f i Belt.obj
 0001:00029ab0       ?_InternalQueryInterface@?$CComEnum@UIEnumConnectionPoints@@$1?_GUID_b196b285_bab4_101a_b69c_00aa00341d07@@3U__s_GUID@@BPEAUIConnectionPoint@@V?$_CopyInterface@UIConnectionPoint@@@ATL@@VCComSingleThreadModel@6@@ATL@@QEAAJAEBU_GUID@@PEAPEAX@Z 000000018002aab0 f i Belt.obj
 0001:00029b00       ?_InternalQueryInterface@?$CComEnum@UIEnumConnections@@$1?_GUID_b196b287_bab4_101a_b69c_00aa00341d07@@3U__s_GUID@@BUtagCONNECTDATA@@V?$_Copy@UtagCONNECTDATA@@@ATL@@VCComSingleThreadModel@6@@ATL@@QEAAJAEBU_GUID@@PEAPEAX@Z 000000018002ab00 f i Belt.obj
 0001:00029b50       ?_InternalQueryInterface@CComClassFactory@ATL@@QEAAJAEBU_GUID@@PEAPEAX@Z 000000018002ab50 f i Belt.obj
 0001:00029ba0       ?_InternalQueryInterface@COPOSBelt@@QEAAJAEBU_GUID@@PEAPEAX@Z 000000018002aba0 f i Belt.obj
 0001:00029bf0       ?_LocCPQueryInterface@?$IConnectionPointImpl@VCOPOSBelt@@$1?DIID__IOPOSBeltEvents@@3U_GUID@@BVCComDynamicUnkArray@ATL@@@ATL@@UEAAJAEBU_GUID@@PEAPEAX@Z 000000018002abf0 f i Belt.obj
 0001:00029cd0       ?_LocCPQueryInterface@?$IConnectionPointImpl@VCOPOSBelt@@$1?IID_IPropertyNotifySink@@3U_GUID@@BVCComDynamicUnkArray@ATL@@@ATL@@UEAAJAEBU_GUID@@PEAPEAX@Z 000000018002acd0 f i Belt.obj
 0001:00029db0       ?atlCreate@?$CWindowImpl@VCOPOSBelt@@VCWindow@ATL@@V?$CWinTraits@$0FGAAAAAA@$0A@@3@@ATL@@QEAAPEAUHWND__@@PEAU3@V_U_RECT@2@PEB_WKKV_U_MENUorID@2@PEAX@Z 000000018002adb0 f i Belt.obj
 0001:00029ee0       ?atlCreate@?$CWindowImplBaseT@VCWindow@ATL@@V?$CWinTraits@$0FGAAAAAA@$0A@@2@@ATL@@QEAAPEAUHWND__@@PEAU3@V_U_RECT@2@PEB_WKKV_U_MENUorID@2@GPEAX@Z 000000018002aee0 f i Belt.obj
 0001:0002a140       ?atlCreate@CRegKey@ATL@@QEAAJPEAUHKEY__@@PEB_WPEA_WKKPEAU_SECURITY_ATTRIBUTES@@PEAK@Z 000000018002b140 f i Belt.obj
 0001:0002a330       ?begin@CComDynamicUnkArray@ATL@@QEAAPEAPEAUIUnknown@@XZ 000000018002b330 f i Belt.obj
 0001:0002a340       ?copy@?$_Copy@UtagCONNECTDATA@@@ATL@@SAJPEAUtagCONNECTDATA@@PEBU3@@Z 000000018002b340 f i Belt.obj
 0001:0002a430       ?copy@?$_CopyInterface@UIConnectionPoint@@@ATL@@SAJPEAPEAUIConnectionPoint@@PEBQEAU3@@Z 000000018002b430 f i Belt.obj
 0001:0002a520       ?destroy@?$_Copy@UtagCONNECTDATA@@@ATL@@SAXPEAUtagCONNECTDATA@@@Z 000000018002b520 f i Belt.obj
 0001:0002a570       ?destroy@?$_CopyInterface@UIConnectionPoint@@@ATL@@SAXPEAPEAUIConnectionPoint@@@Z 000000018002b570 f i Belt.obj
 0001:0002a5c0       ?end@CComDynamicUnkArray@ATL@@QEAAPEAPEAUIUnknown@@XZ 000000018002b5c0 f i Belt.obj
 0001:0002a5e0       ?init@?$_Copy@UtagCONNECTDATA@@@ATL@@SAXPEAUtagCONNECTDATA@@@Z 000000018002b5e0 f i Belt.obj
 0001:0002a5f0       ?init@?$_CopyInterface@UIConnectionPoint@@@ATL@@SAXPEAPEAUIConnectionPoint@@@Z 000000018002b5f0 f i Belt.obj
 0001:0002a600       ?memcpy_s@Checked@ATL@@YAXPEAX_KPEBX1@Z 000000018002b600 f i Belt.obj
 0001:0002a660       ?ocscpy_s@@YA_NPEA_W_KPEB_W@Z 000000018002b660 f i Belt.obj
 0001:0002a6e0       ?ocslen@@YAHPEB_W@Z        000000018002b6e0 f i Belt.obj
 0001:0002a720       ?tcsncpy_s@Checked@ATL@@YAHPEA_W_KPEB_W1@Z 000000018002b720 f i Belt.obj
 0001:0002a780       ?wcscat_s@Checked@ATL@@YAXPEA_W_KPEB_W@Z 000000018002b780 f i Belt.obj
 0001:0002a7d0       ?wcscpy_s@Checked@ATL@@YAXPEA_W_KPEB_W@Z 000000018002b7d0 f i Belt.obj
 0001:0002a820       ?wcsncpy_s@Checked@ATL@@YAHPEA_W_KPEB_W1@Z 000000018002b820 f i Belt.obj
 0001:0002a880       ?wcsstr@@YAPEA_WPEA_WPEB_W@Z 000000018002b880 f i Belt.obj
 0001:0002a8c0       InlineIsEqualGUID          000000018002b8c0 f i Belt.obj
 0001:0002a990       IsEqualGUID                000000018002b990 f i Belt.obj
 0001:0002a9f0       ??0COPOSBelt@@QEAA@XZ      000000018002b9f0 f   BeltImpl.obj
 0001:0002ab70       ?FinalConstruct@COPOSBelt@@QEAAJXZ 000000018002bb70 f   BeltImpl.obj
 0001:0002ac60       ??1COPOSBelt@@UEAA@XZ      000000018002bc60 f   BeltImpl.obj
 0001:0002ad40       ?WriteTrace@COPOSBelt@@QEAAXPEB_WZZ 000000018002bd40 f   BeltImpl.obj
 0001:0002ae00       ?WriteTraceString@COPOSBelt@@QEAAXPEB_WPEA_W@Z 000000018002be00 f   BeltImpl.obj
 0001:0002b240       ?WriteTraceString@COPOSBelt@@QEAAXPEAXHHHPEB_WZZ 000000018002c240 f   BeltImpl.obj
 0001:0002b4d0       ?WriteTraceError@COPOSBelt@@QEAAXPEB_WK@Z 000000018002c4d0 f   BeltImpl.obj
 0001:0002b5d0       ?WriteTraceMethods@COPOSBelt@@QEAAXPEAJH@Z 000000018002c5d0 f   BeltImpl.obj
 0001:0002b660       ?GetOposProp@COPOSBelt@@IEAAJPEBDJPEAJJ@Z 000000018002c660 f   BeltImpl.obj
 0001:0002b980       ?SetOposProp@COPOSBelt@@IEAAJPEBDJJJ@Z 000000018002c980 f   BeltImpl.obj
 0001:0002bce0       ?GetOposProp@COPOSBelt@@IEAAJPEBDJPEAFJ@Z 000000018002cce0 f   BeltImpl.obj
 0001:0002bd80       ?SetOposProp@COPOSBelt@@IEAAJPEBDJFJ@Z 000000018002cd80 f   BeltImpl.obj
 0001:0002be00       ?GetOposProp@COPOSBelt@@IEAAJPEBDJPEAPEA_WJ@Z 000000018002ce00 f   BeltImpl.obj
 0001:0002c120       ?SetOposProp@COPOSBelt@@IEAAJPEBDJPEA_WJ@Z 000000018002d120 f   BeltImpl.obj
 0001:0002c500       ?DoInvoke@COPOSBelt@@IEAAJPEBDJPEAVOposVariant@@IHPEAJ_N@Z 000000018002d500 f   BeltImpl.obj
 0001:0002d050       ?SetCOFreezeEvents@COPOSBelt@@IEAAXF@Z 000000018002e050 f   BeltImpl.obj
 0001:0002d1e0       ?FreezeEvents@COPOSBelt@@MEAAJH@Z 000000018002e1e0 f   BeltImpl.obj
 0001:0002d310       ?OnDraw@COPOSBelt@@MEAAJAEAUATL_DRAWINFO@@@Z 000000018002e310 f   BeltImpl.obj
 0001:0002d4e0       ?SOProcessID@COPOSBelt@@UEAAJPEAJ@Z 000000018002e4e0 f   BeltImpl.obj
 0001:0002d540       ?get_OpenResult@COPOSBelt@@UEAAJPEAJ@Z 000000018002e540 f   BeltImpl.obj
 0001:0002d5a0       ?get_BinaryConversion@COPOSBelt@@UEAAJPEAJ@Z 000000018002e5a0 f   BeltImpl.obj
 0001:0002d600       ?put_BinaryConversion@COPOSBelt@@UEAAJJ@Z 000000018002e600 f   BeltImpl.obj
 0001:0002d670       ?get_CapPowerReporting@COPOSBelt@@UEAAJPEAJ@Z 000000018002e670 f   BeltImpl.obj
 0001:0002d6d0       ?get_CheckHealthText@COPOSBelt@@UEAAJPEAPEA_W@Z 000000018002e6d0 f   BeltImpl.obj
 0001:0002d730       ?get_Claimed@COPOSBelt@@UEAAJPEAF@Z 000000018002e730 f   BeltImpl.obj
 0001:0002d790       ?get_DeviceEnabled@COPOSBelt@@UEAAJPEAF@Z 000000018002e790 f   BeltImpl.obj
 0001:0002d7f0       ?put_DeviceEnabled@COPOSBelt@@UEAAJF@Z 000000018002e7f0 f   BeltImpl.obj
 0001:0002d850       ?get_FreezeEvents@COPOSBelt@@UEAAJPEAF@Z 000000018002e850 f   BeltImpl.obj
 0001:0002d8b0       ?put_FreezeEvents@COPOSBelt@@UEAAJF@Z 000000018002e8b0 f   BeltImpl.obj
 0001:0002d990       ?get_PowerNotify@COPOSBelt@@UEAAJPEAJ@Z 000000018002e990 f   BeltImpl.obj
 0001:0002d9f0       ?put_PowerNotify@COPOSBelt@@UEAAJJ@Z 000000018002e9f0 f   BeltImpl.obj
 0001:0002da50       ?get_PowerState@COPOSBelt@@UEAAJPEAJ@Z 000000018002ea50 f   BeltImpl.obj
 0001:0002dab0       ?get_ResultCode@COPOSBelt@@UEAAJPEAJ@Z 000000018002eab0 f   BeltImpl.obj
 0001:0002db80       ?get_ResultCodeExtended@COPOSBelt@@UEAAJPEAJ@Z 000000018002eb80 f   BeltImpl.obj
 0001:0002dbe0       ?get_State@COPOSBelt@@UEAAJPEAJ@Z 000000018002ebe0 f   BeltImpl.obj
 0001:0002dc70       ?get_ControlObjectDescription@COPOSBelt@@UEAAJPEAPEA_W@Z 000000018002ec70 f   BeltImpl.obj
 0001:0002dcf0       ?get_ControlObjectVersion@COPOSBelt@@UEAAJPEAJ@Z 000000018002ecf0 f   BeltImpl.obj
 0001:0002dd50       ?get_ServiceObjectDescription@COPOSBelt@@UEAAJPEAPEA_W@Z 000000018002ed50 f   BeltImpl.obj
 0001:0002ddb0       ?get_ServiceObjectVersion@COPOSBelt@@UEAAJPEAJ@Z 000000018002edb0 f   BeltImpl.obj
 0001:0002de10       ?get_DeviceDescription@COPOSBelt@@UEAAJPEAPEA_W@Z 000000018002ee10 f   BeltImpl.obj
 0001:0002de70       ?get_DeviceName@COPOSBelt@@UEAAJPEAPEA_W@Z 000000018002ee70 f   BeltImpl.obj
 0001:0002ded0       ?get_CapStatisticsReporting@COPOSBelt@@UEAAJPEAF@Z 000000018002eed0 f   BeltImpl.obj
 0001:0002df30       ?get_CapUpdateStatistics@COPOSBelt@@UEAAJPEAF@Z 000000018002ef30 f   BeltImpl.obj
 0001:0002df90       ?get_CapCompareFirmwareVersion@COPOSBelt@@UEAAJPEAF@Z 000000018002ef90 f   BeltImpl.obj
 0001:0002dff0       ?get_CapUpdateFirmware@COPOSBelt@@UEAAJPEAF@Z 000000018002eff0 f   BeltImpl.obj
 0001:0002e050       ?CheckHealth@COPOSBelt@@UEAAJJPEAJ@Z 000000018002f050 f   BeltImpl.obj
 0001:0002e110       ?ClaimDevice@COPOSBelt@@UEAAJJPEAJ@Z 000000018002f110 f   BeltImpl.obj
 0001:0002e230       ?Close@COPOSBelt@@UEAAJPEAJ@Z 000000018002f230 f   BeltImpl.obj
 0001:0002e340       ?DirectIO@COPOSBelt@@UEAAJJPEAJPEAPEA_W0@Z 000000018002f340 f   BeltImpl.obj
 0001:0002e4c0       ?Open@COPOSBelt@@UEAAJPEA_WPEAJ@Z 000000018002f4c0 f   BeltImpl.obj
 0001:0002f9a0       ?ReleaseDevice@COPOSBelt@@UEAAJPEAJ@Z 00000001800309a0 f   BeltImpl.obj
 0001:0002fa50       ?ResetStatistics@COPOSBelt@@UEAAJPEA_WPEAJ@Z 0000000180030a50 f   BeltImpl.obj
 0001:0002fb30       ?RetrieveStatistics@COPOSBelt@@UEAAJPEAPEA_WPEAJ@Z 0000000180030b30 f   BeltImpl.obj
 0001:0002fc10       ?UpdateStatistics@COPOSBelt@@UEAAJPEA_WPEAJ@Z 0000000180030c10 f   BeltImpl.obj
 0001:0002fcf0       ?CompareFirmwareVersion@COPOSBelt@@UEAAJPEA_WPEAJ1@Z 0000000180030cf0 f   BeltImpl.obj
 0001:0002fe30       ?UpdateFirmware@COPOSBelt@@UEAAJPEA_WPEAJ@Z 0000000180030e30 f   BeltImpl.obj
 0001:0002ff10       ?get_AutoStopBackward@COPOSBelt@@UEAAJPEAF@Z 0000000180030f10 f   BeltImpl.obj
 0001:0002ff70       ?put_AutoStopBackward@COPOSBelt@@UEAAJF@Z 0000000180030f70 f   BeltImpl.obj
 0001:0002ffd0       ?get_AutoStopBackwardDelayTime@COPOSBelt@@UEAAJPEAJ@Z 0000000180030fd0 f   BeltImpl.obj
 0001:00030030       ?put_AutoStopBackwardDelayTime@COPOSBelt@@UEAAJJ@Z 0000000180031030 f   BeltImpl.obj
 0001:00030090       ?get_AutoStopBackwardItemCount@COPOSBelt@@UEAAJPEAJ@Z 0000000180031090 f   BeltImpl.obj
 0001:000300f0       ?get_AutoStopForward@COPOSBelt@@UEAAJPEAF@Z 00000001800310f0 f   BeltImpl.obj
 0001:00030150       ?put_AutoStopForward@COPOSBelt@@UEAAJF@Z 0000000180031150 f   BeltImpl.obj
 0001:000301b0       ?get_AutoStopForwardDelayTime@COPOSBelt@@UEAAJPEAJ@Z 00000001800311b0 f   BeltImpl.obj
 0001:00030210       ?put_AutoStopForwardDelayTime@COPOSBelt@@UEAAJJ@Z 0000000180031210 f   BeltImpl.obj
 0001:00030270       ?get_AutoStopForwardItemCount@COPOSBelt@@UEAAJPEAJ@Z 0000000180031270 f   BeltImpl.obj
 0001:000302d0       ?get_CapAutoStopBackward@COPOSBelt@@UEAAJPEAF@Z 00000001800312d0 f   BeltImpl.obj
 0001:00030330       ?get_CapAutoStopBackwardItemCount@COPOSBelt@@UEAAJPEAF@Z 0000000180031330 f   BeltImpl.obj
 0001:00030390       ?get_CapAutoStopForward@COPOSBelt@@UEAAJPEAF@Z 0000000180031390 f   BeltImpl.obj
 0001:000303f0       ?get_CapAutoStopForwardItemCount@COPOSBelt@@UEAAJPEAF@Z 00000001800313f0 f   BeltImpl.obj
 0001:00030450       ?get_CapLightBarrierBackward@COPOSBelt@@UEAAJPEAF@Z 0000000180031450 f   BeltImpl.obj
 0001:000304b0       ?get_CapLightBarrierForward@COPOSBelt@@UEAAJPEAF@Z 00000001800314b0 f   BeltImpl.obj
 0001:00030510       ?get_CapMoveBackward@COPOSBelt@@UEAAJPEAF@Z 0000000180031510 f   BeltImpl.obj
 0001:00030570       ?get_CapSecurityFlapBackward@COPOSBelt@@UEAAJPEAF@Z 0000000180031570 f   BeltImpl.obj
 0001:000305d0       ?get_CapSecurityFlapForward@COPOSBelt@@UEAAJPEAF@Z 00000001800315d0 f   BeltImpl.obj
 0001:00030630       ?get_CapSpeedStepsBackward@COPOSBelt@@UEAAJPEAJ@Z 0000000180031630 f   BeltImpl.obj
 0001:00030690       ?get_CapSpeedStepsForward@COPOSBelt@@UEAAJPEAJ@Z 0000000180031690 f   BeltImpl.obj
 0001:000306f0       ?get_LightBarrierBackwardInterrupted@COPOSBelt@@UEAAJPEAF@Z 00000001800316f0 f   BeltImpl.obj
 0001:00030750       ?get_LightBarrierForwardInterrupted@COPOSBelt@@UEAAJPEAF@Z 0000000180031750 f   BeltImpl.obj
 0001:000307b0       ?get_MotionStatus@COPOSBelt@@UEAAJPEAJ@Z 00000001800317b0 f   BeltImpl.obj
 0001:00030810       ?get_SecurityFlapBackwardOpened@COPOSBelt@@UEAAJPEAF@Z 0000000180031810 f   BeltImpl.obj
 0001:00030870       ?get_SecurityFlapForwardOpened@COPOSBelt@@UEAAJPEAF@Z 0000000180031870 f   BeltImpl.obj
 0001:000308d0       ?AdjustItemCount@COPOSBelt@@UEAAJJJPEAJ@Z 00000001800318d0 f   BeltImpl.obj
 0001:000309f0       ?MoveBackward@COPOSBelt@@UEAAJJPEAJ@Z 00000001800319f0 f   BeltImpl.obj
 0001:00030ab0       ?MoveForward@COPOSBelt@@UEAAJJPEAJ@Z 0000000180031ab0 f   BeltImpl.obj
 0001:00030b70       ?ResetBelt@COPOSBelt@@UEAAJPEAJ@Z 0000000180031b70 f   BeltImpl.obj
 0001:00030be0       ?ResetItemCount@COPOSBelt@@UEAAJJPEAJ@Z 0000000180031be0 f   BeltImpl.obj
 0001:00030ca0       ?StopBelt@COPOSBelt@@UEAAJPEAJ@Z 0000000180031ca0 f   BeltImpl.obj
 0001:00030d00       ??0?$CComControl@VCOPOSBelt@@V?$CWindowImpl@VCOPOSBelt@@VCWindow@ATL@@V?$CWinTraits@$0FGAAAAAA@$0A@@3@@ATL@@@ATL@@QEAA@XZ 0000000180031d00 f i BeltImpl.obj
 0001:00030d50       ??0?$CComPtr@UIAdviseSink@@@ATL@@QEAA@XZ 0000000180031d50 f i BeltImpl.obj
 0001:00030d90       ??0?$CComPtr@UIDataAdviseHolder@@@ATL@@QEAA@XZ 0000000180031d90 f i BeltImpl.obj
 0001:00030dd0       ??0?$CComPtr@UIOleAdviseHolder@@@ATL@@QEAA@XZ 0000000180031dd0 f i BeltImpl.obj
 0001:00030e10       ??0?$CComPtr@UIOleClientSite@@@ATL@@QEAA@XZ 0000000180031e10 f i BeltImpl.obj
 0001:00030e50       ??0?$CComPtr@UIOleInPlaceSiteWindowless@@@ATL@@QEAA@XZ 0000000180031e50 f i BeltImpl.obj
 0001:00030e90       ??0?$CComPtrBase@UIAdviseSink@@@ATL@@IEAA@XZ 0000000180031e90 f i BeltImpl.obj
 0001:00030eb0       ??0?$CComPtrBase@UIDataAdviseHolder@@@ATL@@IEAA@XZ 0000000180031eb0 f i BeltImpl.obj
 0001:00030ed0       ??0?$CComPtrBase@UIOleAdviseHolder@@@ATL@@IEAA@XZ 0000000180031ed0 f i BeltImpl.obj
 0001:00030ef0       ??0?$CComPtrBase@UIOleClientSite@@@ATL@@IEAA@XZ 0000000180031ef0 f i BeltImpl.obj
 0001:00030f10       ??0?$CComPtrBase@UIOleInPlaceSiteWindowless@@@ATL@@IEAA@XZ 0000000180031f10 f i BeltImpl.obj
 0001:00030f30       ??0?$CComQIPtr@UIDispatch@@$1?_GUID_00020400_0000_0000_c000_000000000046@@3U__s_GUID@@B@ATL@@QEAA@XZ 0000000180031f30 f i BeltImpl.obj
 0001:00030f70       ??0?$CProxy_IOPOSEvents@VCOPOSBelt@@@@QEAA@PEAVCOPOSBelt@@@Z 0000000180031f70 f i BeltImpl.obj
 0001:00030fe0       ??0?$CWindowImpl@VCOPOSBelt@@VCWindow@ATL@@V?$CWinTraits@$0FGAAAAAA@$0A@@3@@ATL@@QEAA@XZ 0000000180031fe0 f i BeltImpl.obj
 0001:00031020       ??0?$CWindowImplBaseT@VCWindow@ATL@@V?$CWinTraits@$0FGAAAAAA@$0A@@2@@ATL@@QEAA@XZ 0000000180032020 f i BeltImpl.obj
 0001:00031070       ??0?$CWindowImplRoot@VCWindow@ATL@@@ATL@@QEAA@XZ 0000000180032070 f i BeltImpl.obj
 0001:000310e0       ??0?$IConnectionPointContainerImpl@VCOPOSBelt@@@ATL@@QEAA@XZ 00000001800320e0 f i BeltImpl.obj
 0001:00031120       ??0?$IConnectionPointImpl@VCOPOSBelt@@$1?DIID__IOPOSBeltEvents@@3U_GUID@@BVCComDynamicUnkArray@ATL@@@ATL@@QEAA@XZ 0000000180032120 f i BeltImpl.obj
 0001:00031170       ??0?$IConnectionPointImpl@VCOPOSBelt@@$1?IID_IPropertyNotifySink@@3U_GUID@@BVCComDynamicUnkArray@ATL@@@ATL@@QEAA@XZ 0000000180032170 f i BeltImpl.obj
 0001:000311c0       ??0?$IDataObjectImpl@VCOPOSBelt@@@ATL@@QEAA@XZ 00000001800321c0 f i BeltImpl.obj
 0001:00031200       ??0?$IDispatchImpl@UIOPOSBelt@@$1?IID_IOPOSBelt@@3U_GUID@@B$1?LIBID_OposBelt_CCO@@3U3@B$00$0A@VCComTypeInfoHolder@ATL@@@ATL@@QEAA@XZ 0000000180032200 f i BeltImpl.obj
 0001:00031240       ??0?$IObjectSafetyImpl@VCOPOSBelt@@$02@ATL@@QEAA@XZ 0000000180032240 f i BeltImpl.obj
 0001:00031280       ??0?$IOleControlImpl@VCOPOSBelt@@@ATL@@QEAA@XZ 0000000180032280 f i BeltImpl.obj
 0001:000312c0       ??0?$IOleInPlaceActiveObjectImpl@VCOPOSBelt@@@ATL@@QEAA@XZ 00000001800322c0 f i BeltImpl.obj
 0001:00031300       ??0?$IOleInPlaceObjectWindowlessImpl@VCOPOSBelt@@@ATL@@QEAA@XZ 0000000180032300 f i BeltImpl.obj
 0001:00031340       ??0?$IOleObjectImpl@VCOPOSBelt@@@ATL@@QEAA@XZ 0000000180032340 f i BeltImpl.obj
 0001:00031380       ??0?$IPersistStorageImpl@VCOPOSBelt@@@ATL@@QEAA@XZ 0000000180032380 f i BeltImpl.obj
 0001:000313c0       ??0?$IPersistStreamInitImpl@VCOPOSBelt@@@ATL@@QEAA@XZ 00000001800323c0 f i BeltImpl.obj
 0001:00031400       ??0?$IPropertyNotifySinkCP@VCOPOSBelt@@VCComDynamicUnkArray@ATL@@@ATL@@QEAA@XZ 0000000180032400 f i BeltImpl.obj
 0001:00031440       ??0?$IProvideClassInfo2Impl@$1?CLSID_OPOSBelt@@3U_GUID@@B$1?DIID__IOPOSBeltEvents@@3U2@B$1?LIBID_OposBelt_CCO@@3U2@B$00$0A@VCComTypeInfoHolder@ATL@@@ATL@@QEAA@XZ 0000000180032440 f i BeltImpl.obj
 0001:00031480       ??0?$IQuickActivateImpl@VCOPOSBelt@@@ATL@@QEAA@XZ 0000000180032480 f i BeltImpl.obj
 0001:000314c0       ??0?$ISpecifyPropertyPagesImpl@VCOPOSBelt@@@ATL@@QEAA@XZ 00000001800324c0 f i BeltImpl.obj
 0001:00031500       ??0?$IViewObjectExImpl@VCOPOSBelt@@@ATL@@QEAA@XZ 0000000180032500 f i BeltImpl.obj
 0001:00031540       ??0?$_ICPLocator@$1?DIID__IOPOSBeltEvents@@3U_GUID@@B@ATL@@QEAA@XZ 0000000180032540 f i BeltImpl.obj
 0001:00031550       ??0?$_ICPLocator@$1?IID_IPropertyNotifySink@@3U_GUID@@B@ATL@@QEAA@XZ 0000000180032550 f i BeltImpl.obj
 0001:00031560       ??0CComControlBase@ATL@@QEAA@AEAPEAUHWND__@@@Z 0000000180032560 f i BeltImpl.obj
 0001:00031780       ??0CComDynamicUnkArray@ATL@@QEAA@XZ 0000000180032780 f i BeltImpl.obj
 0001:000317b0       ??0CDynamicStdCallThunk2@ATL@@QEAA@XZ 00000001800327b0 f i BeltImpl.obj
 0001:000317d0       ??0CMessageMap@ATL@@QEAA@XZ 00000001800327d0 f i BeltImpl.obj
 0001:000317e0       ??0CWindow@ATL@@QEAA@PEAUHWND__@@@Z 00000001800327e0 f i BeltImpl.obj
 0001:00031800       ??0CWndProcThunk@ATL@@QEAA@XZ 0000000180032800 f i BeltImpl.obj
 0001:00031840       ??0IConnectionPointContainer@@QEAA@XZ 0000000180032840 f i BeltImpl.obj
 0001:00031880       ??0IDataObject@@QEAA@XZ    0000000180032880 f i BeltImpl.obj
 0001:000318c0       ??0IDispatch@@QEAA@XZ      00000001800328c0 f i BeltImpl.obj
 0001:00031900       ??0IOPOSBelt@@QEAA@XZ      0000000180032900 f i BeltImpl.obj
 0001:00031940       ??0IOPOSBelt_1_12@@QEAA@XZ 0000000180032940 f i BeltImpl.obj
 0001:00031980       ??0IObjectSafety@@QEAA@XZ  0000000180032980 f i BeltImpl.obj
 0001:000319c0       ??0IOleControl@@QEAA@XZ    00000001800329c0 f i BeltImpl.obj
 0001:00031a00       ??0IOleInPlaceActiveObject@@QEAA@XZ 0000000180032a00 f i BeltImpl.obj
 0001:00031a40       ??0IOleInPlaceObject@@QEAA@XZ 0000000180032a40 f i BeltImpl.obj
 0001:00031a80       ??0IOleInPlaceObjectWindowless@@QEAA@XZ 0000000180032a80 f i BeltImpl.obj
 0001:00031ac0       ??0IOleObject@@QEAA@XZ     0000000180032ac0 f i BeltImpl.obj
 0001:00031b00       ??0IOleWindow@@QEAA@XZ     0000000180032b00 f i BeltImpl.obj
 0001:00031b40       ??0IPersist@@QEAA@XZ       0000000180032b40 f i BeltImpl.obj
 0001:00031b80       ??0IPersistStorage@@QEAA@XZ 0000000180032b80 f i BeltImpl.obj
 0001:00031bc0       ??0IPersistStreamInit@@QEAA@XZ 0000000180032bc0 f i BeltImpl.obj
 0001:00031c00       ??0IProvideClassInfo2@@QEAA@XZ 0000000180032c00 f i BeltImpl.obj
 0001:00031c40       ??0IProvideClassInfo@@QEAA@XZ 0000000180032c40 f i BeltImpl.obj
 0001:00031c80       ??0IQuickActivate@@QEAA@XZ 0000000180032c80 f i BeltImpl.obj
 0001:00031cc0       ??0ISpecifyPropertyPages@@QEAA@XZ 0000000180032cc0 f i BeltImpl.obj
 0001:00031d00       ??0IViewObject2@@QEAA@XZ   0000000180032d00 f i BeltImpl.obj
 0001:00031d40       ??0IViewObject@@QEAA@XZ    0000000180032d40 f i BeltImpl.obj
 0001:00031d80       ??0IViewObjectEx@@QEAA@XZ  0000000180032d80 f i BeltImpl.obj
 0001:00031dc0       ??0OposVariantResult@@QEAA@XZ 0000000180032dc0 f i BeltImpl.obj
 0001:00031e00       ??0_CW@@QEAA@PEBD@Z        0000000180032e00 f i BeltImpl.obj
 0001:00031e50       ??0_CW@@QEAA@PEB_W@Z       0000000180032e50 f i BeltImpl.obj
 0001:00031ea0       ??0_CWNCC@@QEAA@PEBD@Z     0000000180032ea0 f i BeltImpl.obj
 0001:00031ee0       ??1?$CComControl@VCOPOSBelt@@V?$CWindowImpl@VCOPOSBelt@@VCWindow@ATL@@V?$CWinTraits@$0FGAAAAAA@$0A@@3@@ATL@@@ATL@@UEAA@XZ 0000000180032ee0 f i BeltImpl.obj
 0001:00031f20       ??1?$CComPtr@UIDataAdviseHolder@@@ATL@@QEAA@XZ 0000000180032f20 f i BeltImpl.obj
 0001:00031f50       ??1?$CComPtr@UIOleAdviseHolder@@@ATL@@QEAA@XZ 0000000180032f50 f i BeltImpl.obj
 0001:00031f80       ??1?$CComPtr@UIOleInPlaceSiteWindowless@@@ATL@@QEAA@XZ 0000000180032f80 f i BeltImpl.obj
 0001:00031fb0       ??1?$CComPtrBase@UIDataAdviseHolder@@@ATL@@QEAA@XZ 0000000180032fb0 f i BeltImpl.obj
 0001:00032000       ??1?$CComPtrBase@UIOleAdviseHolder@@@ATL@@QEAA@XZ 0000000180033000 f i BeltImpl.obj
 0001:00032050       ??1?$CComPtrBase@UIOleInPlaceSiteWindowless@@@ATL@@QEAA@XZ 0000000180033050 f i BeltImpl.obj
 0001:000320a0       ??1?$CComQIPtr@UIDispatch@@$1?_GUID_00020400_0000_0000_c000_000000000046@@3U__s_GUID@@B@ATL@@QEAA@XZ 00000001800330a0 f i BeltImpl.obj
 0001:000320d0       ??1?$CProxy_IOPOSEvents@VCOPOSBelt@@@@QEAA@XZ 00000001800330d0 f i BeltImpl.obj
 0001:00032100       ??1?$CWindowImpl@VCOPOSBelt@@VCWindow@ATL@@V?$CWinTraits@$0FGAAAAAA@$0A@@3@@ATL@@UEAA@XZ 0000000180033100 f i BeltImpl.obj
 0001:00032130       ??1?$CWindowImplBaseT@VCWindow@ATL@@V?$CWinTraits@$0FGAAAAAA@$0A@@2@@ATL@@UEAA@XZ 0000000180033130 f i BeltImpl.obj
 0001:00032160       ??1?$CWindowImplRoot@VCWindow@ATL@@@ATL@@UEAA@XZ 0000000180033160 f i BeltImpl.obj
 0001:00032220       ??1?$IConnectionPointImpl@VCOPOSBelt@@$1?DIID__IOPOSBeltEvents@@3U_GUID@@BVCComDynamicUnkArray@ATL@@@ATL@@QEAA@XZ 0000000180033220 f i BeltImpl.obj
 0001:000322c0       ??1?$IConnectionPointImpl@VCOPOSBelt@@$1?IID_IPropertyNotifySink@@3U_GUID@@BVCComDynamicUnkArray@ATL@@@ATL@@QEAA@XZ 00000001800332c0 f i BeltImpl.obj
 0001:00032360       ??1?$IPropertyNotifySinkCP@VCOPOSBelt@@VCComDynamicUnkArray@ATL@@@ATL@@QEAA@XZ 0000000180033360 f i BeltImpl.obj
 0001:00032390       ??1CComControlBase@ATL@@UEAA@XZ 0000000180033390 f i BeltImpl.obj
 0001:00032480       ??1CComDynamicUnkArray@ATL@@QEAA@XZ 0000000180033480 f i BeltImpl.obj
 0001:000324c0       ??1CDynamicStdCallThunk2@ATL@@QEAA@XZ 00000001800334c0 f i BeltImpl.obj
 0001:00032500       ??1CWndProcThunk@ATL@@QEAA@XZ 0000000180033500 f i BeltImpl.obj
 0001:00032540       ??1OposVariantResult@@QEAA@XZ 0000000180033540 f i BeltImpl.obj
 0001:00032580       ??1_CW@@QEAA@XZ            0000000180033580 f i BeltImpl.obj
 0001:00032600       ??1_CWNCC@@QEAA@XZ         0000000180033600 f i BeltImpl.obj
 0001:00032630       ??B_CW@@QEAAPEB_WXZ        0000000180033630 f i BeltImpl.obj
 0001:00032680       ??B_CWNCC@@QEAAPEA_WXZ     0000000180033680 f i BeltImpl.obj
 0001:000326b0       ??_EOposVariant@@QEAAPEAXI@Z 00000001800336b0 f i BeltImpl.obj
 0001:00032760       ?EventClaim@COPOSBelt@@IEAAXXZ 0000000180033760 f i BeltImpl.obj
 0001:000327b0       ?EventClose@COPOSBelt@@IEAAXXZ 00000001800337b0 f i BeltImpl.obj
 0001:00032850       ?EventInit@COPOSBelt@@IEAAJXZ 0000000180033850 f i BeltImpl.obj
 0001:00032b00       ?EventOpen@COPOSBelt@@IEAAXXZ 0000000180033b00 f i BeltImpl.obj
 0001:00032b40       ?EventPreCloseRelease@COPOSBelt@@IEAAXXZ 0000000180033b40 f i BeltImpl.obj
 0001:00032bc0       ?EventUninit@COPOSBelt@@IEAAXXZ 0000000180033bc0 f i BeltImpl.obj
 0001:00032cf0       ?EventWindowProc@COPOSBelt@@IEAA_JI_K_J@Z 0000000180033cf0 f i BeltImpl.obj
 0001:00032df0       ?FireEventCleanup@COPOSBelt@@IEAAXXZ 0000000180033df0 f i BeltImpl.obj
 0001:00032e40       ?FireEventSetup@COPOSBelt@@IEAA_NXZ 0000000180033e40 f i BeltImpl.obj
 0001:00032ec0       ?GetModuleInstance@CComModule@ATL@@QEAAPEAUHINSTANCE__@@XZ 0000000180033ec0 f i BeltImpl.obj
 0001:00032ed0       ?SetRC@COPOSBelt@@IEAAJJ@Z 0000000180033ed0 f i BeltImpl.obj
 0001:00032ef0       ?s_EventWindowProc@COPOSBelt@@KA_JPEAUHWND__@@I_K_J@Z 0000000180033ef0 f i BeltImpl.obj
 0001:00032fa0       _snwprintf                 0000000180033fa0 f i BeltImpl.obj
 0001:00033030       _vfwprintf_l               0000000180034030 f i BeltImpl.obj
 0001:00033090       _vsnwprintf                0000000180034090 f i BeltImpl.obj
 0001:000330f0       _vsnwprintf_l              00000001800340f0 f i BeltImpl.obj
 0001:00033180       vfwprintf                  0000000180034180 f i BeltImpl.obj
 0001:000331c5       DebugBreak                 00000001800341c5 f   kernel32:KERNEL32.dll
 0001:000331cb       Sleep                      00000001800341cb f   kernel32:KERNEL32.dll
 0001:000331d1       GetCurrentProcess          00000001800341d1 f   kernel32:KERNEL32.dll
 0001:000331d7       TerminateProcess           00000001800341d7 f   kernel32:KERNEL32.dll
 0001:000331dd       MultiByteToWideChar        00000001800341dd f   kernel32:KERNEL32.dll
 0001:000331e3       WideCharToMultiByte        00000001800341e3 f   kernel32:KERNEL32.dll
 0001:000331e9       DecodePointer              00000001800341e9 f   kernel32:KERNEL32.dll
 0001:000331ef       RaiseException             00000001800341ef f   kernel32:KERNEL32.dll
 0001:000331f5       GetLastError               00000001800341f5 f   kernel32:KERNEL32.dll
 0001:000331fb       SetLastError               00000001800341fb f   kernel32:KERNEL32.dll
 0001:00033201       InitializeCriticalSectionEx 0000000180034201 f   kernel32:KERNEL32.dll
 0001:00033207       DeleteCriticalSection      0000000180034207 f   kernel32:KERNEL32.dll
 0001:0003320d       EncodePointer              000000018003420d f   kernel32:KERNEL32.dll
 0001:00033213       EnterCriticalSection       0000000180034213 f   kernel32:KERNEL32.dll
 0001:00033219       LeaveCriticalSection       0000000180034219 f   kernel32:KERNEL32.dll
 0001:0003321f       ResetEvent                 000000018003421f f   kernel32:KERNEL32.dll
 0001:00033225       ReleaseMutex               0000000180034225 f   kernel32:KERNEL32.dll
 0001:0003322b       WaitForSingleObject        000000018003422b f   kernel32:KERNEL32.dll
 0001:00033231       GetCurrentThreadId         0000000180034231 f   kernel32:KERNEL32.dll
 0001:00033237       DisableThreadLibraryCalls  0000000180034237 f   kernel32:KERNEL32.dll
 0001:0003323d       FreeLibrary                000000018003423d f   kernel32:KERNEL32.dll
 0001:00033243       GetModuleFileNameW         0000000180034243 f   kernel32:KERNEL32.dll
 0001:00033249       GetModuleHandleW           0000000180034249 f   kernel32:KERNEL32.dll
 0001:0003324f       GetProcAddress             000000018003424f f   kernel32:KERNEL32.dll
 0001:00033255       LoadLibraryExW             0000000180034255 f   kernel32:KERNEL32.dll
 0001:0003325b       LoadResource               000000018003425b f   kernel32:KERNEL32.dll
 0001:00033261       SizeofResource             0000000180034261 f   kernel32:KERNEL32.dll
 0001:00033267       FindResourceW              0000000180034267 f   kernel32:KERNEL32.dll
 0001:0003326d       GlobalAlloc                000000018003426d f   kernel32:KERNEL32.dll
 0001:00033273       GlobalUnlock               0000000180034273 f   kernel32:KERNEL32.dll
 0001:00033279       GlobalLock                 0000000180034279 f   kernel32:KERNEL32.dll
 0001:0003327f       MulDiv                     000000018003427f f   kernel32:KERNEL32.dll
 0001:00033285       lstrcmpiW                  0000000180034285 f   kernel32:KERNEL32.dll
 0001:0003328b       DeleteFileW                000000018003428b f   kernel32:KERNEL32.dll
 0001:00033291       CloseHandle                0000000180034291 f   kernel32:KERNEL32.dll
 0001:00033297       SetEvent                   0000000180034297 f   kernel32:KERNEL32.dll
 0001:0003329d       CreateMutexW               000000018003429d f   kernel32:KERNEL32.dll
 0001:000332a3       CreateEventW               00000001800342a3 f   kernel32:KERNEL32.dll
 0001:000332a9       GetCurrentProcessId        00000001800342a9 f   kernel32:KERNEL32.dll
 0001:000332af       LocalFree                  00000001800342af f   kernel32:KERNEL32.dll
 0001:000332b5       FormatMessageW             00000001800342b5 f   kernel32:KERNEL32.dll
 0001:000332bb       GetActiveWindow            00000001800342bb f   user32:USER32.dll
 0001:000332c1       MessageBoxW                00000001800342c1 f   user32:USER32.dll
 0001:000332c7       UnregisterClassW           00000001800342c7 f   user32:USER32.dll
 0001:000332cd       PostMessageW               00000001800342cd f   user32:USER32.dll
 0001:000332d3       DefWindowProcW             00000001800342d3 f   user32:USER32.dll
 0001:000332d9       CallWindowProcW            00000001800342d9 f   user32:USER32.dll
 0001:000332df       RegisterClassExW           00000001800342df f   user32:USER32.dll
 0001:000332e5       GetClassInfoExW            00000001800342e5 f   user32:USER32.dll
 0001:000332eb       CreateWindowExW            00000001800342eb f   user32:USER32.dll
 0001:000332f1       IsWindow                   00000001800342f1 f   user32:USER32.dll
 0001:000332f7       IsChild                    00000001800342f7 f   user32:USER32.dll
 0001:000332fd       DestroyWindow              00000001800342fd f   user32:USER32.dll
 0001:00033303       ShowWindow                 0000000180034303 f   user32:USER32.dll
 0001:00033309       SetWindowPos               0000000180034309 f   user32:USER32.dll
 0001:0003330f       CharNextW                  000000018003430f f   user32:USER32.dll
 0001:00033315       SetFocus                   0000000180034315 f   user32:USER32.dll
 0001:0003331b       GetFocus                   000000018003431b f   user32:USER32.dll
 0001:00033321       GetKeyState                0000000180034321 f   user32:USER32.dll
 0001:00033327       GetDC                      0000000180034327 f   user32:USER32.dll
 0001:0003332d       ReleaseDC                  000000018003432d f   user32:USER32.dll
 0001:00033333       BeginPaint                 0000000180034333 f   user32:USER32.dll
 0001:00033339       EndPaint                   0000000180034339 f   user32:USER32.dll
 0001:0003333f       SetWindowRgn               000000018003433f f   user32:USER32.dll
 0001:00033345       InvalidateRect             0000000180034345 f   user32:USER32.dll
 0001:0003334b       GetClientRect              000000018003434b f   user32:USER32.dll
 0001:00033351       IntersectRect              0000000180034351 f   user32:USER32.dll
 0001:00033357       UnionRect                  0000000180034357 f   user32:USER32.dll
 0001:0003335d       OffsetRect                 000000018003435d f   user32:USER32.dll
 0001:00033363       EqualRect                  0000000180034363 f   user32:USER32.dll
 0001:00033369       PtInRect                   0000000180034369 f   user32:USER32.dll
 0001:0003336f       GetWindowLongPtrW          000000018003436f f   user32:USER32.dll
 0001:00033375       SetWindowLongPtrW          0000000180034375 f   user32:USER32.dll
 0001:0003337b       GetParent                  000000018003437b f   user32:USER32.dll
 0001:00033381       LoadCursorW                0000000180034381 f   user32:USER32.dll
 0001:00033387       PeekMessageW               0000000180034387 f   user32:USER32.dll
 0001:0003338d       RegisterClassW             000000018003438d f   user32:USER32.dll
 0001:00033393       LoadBitmapW                0000000180034393 f   user32:USER32.dll
 0001:00033399       CloseMetaFile              0000000180034399 f   gdi32:GDI32.dll
 0001:0003339f       CreateDCW                  000000018003439f f   gdi32:GDI32.dll
 0001:000333a5       CreateMetaFileW            00000001800343a5 f   gdi32:GDI32.dll
 0001:000333ab       CreateRectRgnIndirect      00000001800343ab f   gdi32:GDI32.dll
 0001:000333b1       DeleteDC                   00000001800343b1 f   gdi32:GDI32.dll
 0001:000333b7       DeleteMetaFile             00000001800343b7 f   gdi32:GDI32.dll
 0001:000333bd       GetDeviceCaps              00000001800343bd f   gdi32:GDI32.dll
 0001:000333c3       RestoreDC                  00000001800343c3 f   gdi32:GDI32.dll
 0001:000333c9       SaveDC                     00000001800343c9 f   gdi32:GDI32.dll
 0001:000333cf       SetMapMode                 00000001800343cf f   gdi32:GDI32.dll
 0001:000333d5       LPtoDP                     00000001800343d5 f   gdi32:GDI32.dll
 0001:000333db       SetViewportOrgEx           00000001800343db f   gdi32:GDI32.dll
 0001:000333e1       SetWindowExtEx             00000001800343e1 f   gdi32:GDI32.dll
 0001:000333e7       SetWindowOrgEx             00000001800343e7 f   gdi32:GDI32.dll
 0001:000333ed       BitBlt                     00000001800343ed f   gdi32:GDI32.dll
 0001:000333f3       CreateCompatibleDC         00000001800343f3 f   gdi32:GDI32.dll
 0001:000333f9       DeleteObject               00000001800343f9 f   gdi32:GDI32.dll
 0001:000333ff       SelectObject               00000001800343ff f   gdi32:GDI32.dll
 0001:00033405       GetObjectW                 0000000180034405 f   gdi32:GDI32.dll
 0001:0003340b       RegCloseKey                000000018003440b f   advapi32:ADVAPI32.dll
 0001:00033411       RegCreateKeyExW            0000000180034411 f   advapi32:ADVAPI32.dll
 0001:00033417       RegDeleteKeyW              0000000180034417 f   advapi32:ADVAPI32.dll
 0001:0003341d       RegDeleteValueW            000000018003441d f   advapi32:ADVAPI32.dll
 0001:00033423       RegEnumKeyExW              0000000180034423 f   advapi32:ADVAPI32.dll
 0001:00033429       RegOpenKeyExW              0000000180034429 f   advapi32:ADVAPI32.dll
 0001:0003342f       RegQueryInfoKeyW           000000018003442f f   advapi32:ADVAPI32.dll
 0001:00033435       RegSetValueExW             0000000180034435 f   advapi32:ADVAPI32.dll
 0001:0003343b       RegQueryValueExW           000000018003443b f   advapi32:ADVAPI32.dll
 0001:00033441       CoCreateInstance           0000000180034441 f   ole32:ole32.dll
 0001:00033447       StringFromGUID2            0000000180034447 f   ole32:ole32.dll
 0001:0003344d       CoTaskMemAlloc             000000018003444d f   ole32:ole32.dll
 0001:00033453       CoTaskMemRealloc           0000000180034453 f   ole32:ole32.dll
 0001:00033459       CoTaskMemFree              0000000180034459 f   ole32:ole32.dll
 0001:0003345f       ReadClassStm               000000018003445f f   ole32:ole32.dll
 0001:00033465       WriteClassStm              0000000180034465 f   ole32:ole32.dll
 0001:0003346b       CreateDataAdviseHolder     000000018003446b f   ole32:ole32.dll
 0001:00033471       OleSaveToStream            0000000180034471 f   ole32:ole32.dll
 0001:00033477       CreateOleAdviseHolder      0000000180034477 f   ole32:ole32.dll
 0001:0003347d       OleRegGetUserType          000000018003447d f   ole32:ole32.dll
 0001:00033483       OleRegGetMiscStatus        0000000180034483 f   ole32:ole32.dll
 0001:00033489       OleRegEnumVerbs            0000000180034489 f   ole32:ole32.dll
 0001:0003348f       CLSIDFromProgID            000000018003448f f   ole32:ole32.dll
 0001:00033495       SysAllocString             0000000180034495 f   oleaut32:OLEAUT32.dll
 0001:0003349b       SysAllocStringLen          000000018003449b f   oleaut32:OLEAUT32.dll
 0001:000334a1       SysFreeString              00000001800344a1 f   oleaut32:OLEAUT32.dll
 0001:000334a7       SysStringLen               00000001800344a7 f   oleaut32:OLEAUT32.dll
 0001:000334ad       VariantClear               00000001800344ad f   oleaut32:OLEAUT32.dll
 0001:000334b3       VariantCopyInd             00000001800344b3 f   oleaut32:OLEAUT32.dll
 0001:000334b9       VariantChangeType          00000001800344b9 f   oleaut32:OLEAUT32.dll
 0001:000334bf       SysStringByteLen           00000001800344bf f   oleaut32:OLEAUT32.dll
 0001:000334c5       SysAllocStringByteLen      00000001800344c5 f   oleaut32:OLEAUT32.dll
 0001:000334cb       VariantInit                00000001800344cb f   oleaut32:OLEAUT32.dll
 0001:000334d1       VarUI4FromStr              00000001800344d1 f   oleaut32:OLEAUT32.dll
 0001:000334d7       LoadTypeLib                00000001800344d7 f   oleaut32:OLEAUT32.dll
 0001:000334dd       LoadRegTypeLib             00000001800344dd f   oleaut32:OLEAUT32.dll
 0001:000334e3       RegisterTypeLib            00000001800344e3 f   oleaut32:OLEAUT32.dll
 0001:000334e9       UnRegisterTypeLib          00000001800344e9 f   oleaut32:OLEAUT32.dll
 0001:000334ef       OleCreatePropertyFrame     00000001800344ef f   oleaut32:OLEAUT32.dll
 0001:00033500       _RTC_AllocaHelper          0000000180034500 f   LIBCMTD:stack.obj
 0001:00033540       _RTC_CheckStackVars        0000000180034540 f   LIBCMTD:stack.obj
 0001:000335d0       _RTC_CheckStackVars2       00000001800345d0 f   LIBCMTD:stack.obj
 0001:000336e0       _CRT_RTC_INIT              00000001800346e0 f   LIBCMTD:init.obj
 0001:000336f0       _CRT_RTC_INITW             00000001800346f0 f   LIBCMTD:init.obj
 0001:00033700       _RTC_InitBase              0000000180034700 f   LIBCMTD:init.obj
 0001:00033740       _RTC_Shutdown              0000000180034740 f   LIBCMTD:init.obj
 0001:00033770       __GSHandlerCheck           0000000180034770 f   LIBCMTD:gshandler.obj
 0001:000337b0       __GSHandlerCheckCommon     00000001800347b0 f   LIBCMTD:gshandler.obj
 0001:000338c0       __security_check_cookie    00000001800348c0 f   LIBCMTD:amdsecgs.obj
 0001:000338f0       ??_U@YAPEAX_K@Z            00000001800348f0 f   LIBCMTD:new_array.obj
 0001:00033910       ??3@YAXPEAX_K@Z            0000000180034910 f   LIBCMTD:delete_scalar_size.obj
 0001:00033930       ??_V@YAXPEAX@Z             0000000180034930 f   LIBCMTD:delete_array.obj
 0001:00033950       ??_V@YAXPEAX_K@Z           0000000180034950 f   LIBCMTD:delete_array_size.obj
 0001:00033970       ?configure_argv@__scrt_narrow_argv_policy@@SAHXZ 0000000180034970 f i LIBCMTD:utility.obj
 0001:00033a60       ?initialize_environment@__scrt_narrow_environment_policy@@SAHXZ 0000000180034a60 f i LIBCMTD:utility.obj
 0001:00033b00       NtCurrentTeb               0000000180034b00 f i LIBCMTD:utility.obj
 0001:00033b10       __scrt_acquire_startup_lock 0000000180034b10 f   LIBCMTD:utility.obj
 0001:00033b80       __scrt_dllmain_after_initialize_c 0000000180034b80 f   LIBCMTD:utility.obj
 0001:00033bb0       __scrt_dllmain_before_initialize_c 0000000180034bb0 f   LIBCMTD:utility.obj
 0001:00033bd0       __scrt_dllmain_crt_thread_attach 0000000180034bd0 f   LIBCMTD:utility.obj
 0001:00033c00       __scrt_dllmain_crt_thread_detach 0000000180034c00 f   LIBCMTD:utility.obj
 0001:00033c20       __scrt_dllmain_exception_filter 0000000180034c20 f   LIBCMTD:utility.obj
 0001:00033c90       __scrt_dllmain_uninitialize_c 0000000180034c90 f   LIBCMTD:utility.obj
 0001:00033cc0       __scrt_dllmain_uninitialize_critical 0000000180034cc0 f   LIBCMTD:utility.obj
 0001:00033ce0       __scrt_initialize_crt      0000000180034ce0 f   LIBCMTD:utility.obj
 0001:00033d30       __scrt_initialize_onexit_tables 0000000180034d30 f   LIBCMTD:utility.obj
 0001:00033e40       __scrt_is_nonwritable_in_current_image 0000000180034e40 f   LIBCMTD:utility.obj
 0001:00033ed0       __scrt_release_startup_lock 0000000180034ed0 f   LIBCMTD:utility.obj
 0001:00033f00       __scrt_uninitialize_crt    0000000180034f00 f   LIBCMTD:utility.obj
 0001:00033f40       _onexit                    0000000180034f40 f   LIBCMTD:utility.obj
 0001:00033fc0       at_quick_exit              0000000180034fc0 f   LIBCMTD:utility.obj
 0001:00034010       atexit                     0000000180035010 f   LIBCMTD:utility.obj
 0001:00034050       ??3@YAXPEAX@Z              0000000180035050 f   LIBCMTD:delete_scalar.obj
 0001:00034070       __raise_securityfailure    0000000180035070 f   LIBCMTD:gs_report.obj
 0001:000340b0       __report_gsfailure         00000001800350b0 f   LIBCMTD:gs_report.obj
 0001:00034190       __report_rangecheckfailure 0000000180035190 f   LIBCMTD:gs_report.obj
 0001:000341b0       __report_securityfailure   00000001800351b0 f   LIBCMTD:gs_report.obj
 0001:00034250       __report_securityfailureEx 0000000180035250 f   LIBCMTD:gs_report.obj
 0001:00034610       _Init_thread_abort         0000000180035610 f   LIBCMTD:thread_safe_statics.obj
 0001:00034640       _Init_thread_footer        0000000180035640 f   LIBCMTD:thread_safe_statics.obj
 0001:000346a0       _Init_thread_header        00000001800356a0 f   LIBCMTD:thread_safe_statics.obj
 0001:00034730       _Init_thread_lock          0000000180035730 f   LIBCMTD:thread_safe_statics.obj
 0001:00034750       _Init_thread_notify        0000000180035750 f   LIBCMTD:thread_safe_statics.obj
 0001:000347b0       _Init_thread_unlock        00000001800357b0 f   LIBCMTD:thread_safe_statics.obj
 0001:000347d0       _Init_thread_wait          00000001800357d0 f   LIBCMTD:thread_safe_statics.obj
 0001:00034880       ??2@YAPEAX_KAEBUnothrow_t@std@@@Z 0000000180035880 f   LIBCMTD:new_scalar_nothrow.obj
 0001:000348c0       ??_U@YAPEAX_KAEBUnothrow_t@std@@@Z 00000001800358c0 f   LIBCMTD:new_array_nothrow.obj
 0001:000348f0       __GSHandlerCheck_SEH       00000001800358f0 f   LIBCMTD:gshandlerseh.obj
 0001:000349c0       __chkstk                   00000001800359c0 f   LIBCMTD:chkstk.obj
 0001:000349c0       _alloca_probe              00000001800359c0 f   LIBCMTD:chkstk.obj
 0001:00034e30       _CRT_INIT                  0000000180035e30 f   LIBCMTD:dll_dllmain.obj
 0001:00034e60       _DllMainCRTStartup         0000000180035e60 f   LIBCMTD:dll_dllmain.obj
 0001:00034f30       ?_RTC_AllocaFailure@@YAXPEAXPEAU_RTC_ALLOCA_NODE@@H@Z 0000000180035f30 f   LIBCMTD:error.obj
 0001:00035090       ?_RTC_Failure@@YAXPEAXH@Z  0000000180036090 f   LIBCMTD:error.obj
 0001:000350e0       ?_RTC_StackFailure@@YAXPEAXPEBD@Z 00000001800360e0 f   LIBCMTD:error.obj
 0001:00035510       _RTC_UninitUse             0000000180036510 f   LIBCMTD:error.obj
 0001:000355e0       _vsprintf_s_l              00000001800365e0 f i LIBCMTD:error.obj
 0001:00035650       sprintf_s                  0000000180036650 f i LIBCMTD:error.obj
 0001:00035680       ?_RTC_GetErrorFunc@@YAP6AHHPEBDH00ZZPEBX@Z 0000000180036680 f   LIBCMTD:userapi.obj
 0001:00035690       ?_RTC_GetErrorFuncW@@YAP6AHHPEB_WH00ZZPEBX@Z 0000000180036690 f   LIBCMTD:userapi.obj
 0001:000356a0       _RTC_GetErrDesc            00000001800366a0 f   LIBCMTD:userapi.obj
 0001:000356c0       _RTC_NumErrors             00000001800366c0 f   LIBCMTD:userapi.obj
 0001:000356d0       _RTC_SetErrorFunc          00000001800366d0 f   LIBCMTD:userapi.obj
 0001:000356f0       _RTC_SetErrorFuncW         00000001800366f0 f   LIBCMTD:userapi.obj
 0001:00035710       _RTC_SetErrorType          0000000180036710 f   LIBCMTD:userapi.obj
 0001:00035730       ??2@YAPEAX_K@Z             0000000180036730 f   LIBCMTD:new_scalar.obj
 0001:00035780       __isa_available_init       0000000180036780 f   LIBCMTD:cpu_disp.obj
 0001:00035b20       _get_startup_argv_mode     0000000180036b20 f   LIBCMTD:argv_mode.obj
 0001:00035b30       __scrt_is_ucrt_dll_in_use  0000000180036b30 f   LIBCMTD:ucrt_detection.obj
 0001:00035b60       __crt_debugger_hook        0000000180036b60 f   LIBCMTD:utility_desktop.obj
 0001:00035b70       __scrt_fastfail            0000000180036b70 f   LIBCMTD:utility_desktop.obj
 0001:00035d10       __scrt_get_show_window_mode 0000000180036d10 f   LIBCMTD:utility_desktop.obj
 0001:00035d70       __scrt_initialize_mta      0000000180036d70 f   LIBCMTD:utility_desktop.obj
 0001:00035d80       __scrt_initialize_winrt    0000000180036d80 f   LIBCMTD:utility_desktop.obj
 0001:00035d90       __scrt_is_managed_app      0000000180036d90 f   LIBCMTD:utility_desktop.obj
 0001:00035e40       __scrt_set_unhandled_exception_filter 0000000180036e40 f   LIBCMTD:utility_desktop.obj
 0001:00035e60       __scrt_stub_for_initialize_mta 0000000180036e60 f   LIBCMTD:utility_desktop.obj
 0001:00035e60       __scrt_exe_initialize_mta  0000000180036e60 f   LIBCMTD:utility_desktop.obj
 0001:00035e70       __scrt_unhandled_exception_filter 0000000180036e70 f   LIBCMTD:utility_desktop.obj
 0001:00035f10       _guard_check_icall_nop     0000000180036f10 f i LIBCMTD:guard_support.obj
 0001:00035f20       ReadNoFence64              0000000180036f20 f i LIBCMTD:guard_support.obj
 0001:00035f40       ReadPointerNoFence         0000000180036f40 f i LIBCMTD:guard_support.obj
 0001:00035f60       __castguard_check_failure_debugbreak 0000000180036f60 f i LIBCMTD:guard_support.obj
 0001:00035f80       __castguard_check_failure_fastfail 0000000180036f80 f i LIBCMTD:guard_support.obj
 0001:00035fb0       __castguard_check_failure_nop 0000000180036fb0 f i LIBCMTD:guard_support.obj
 0001:00035fc0       __castguard_check_failure_os_handled 0000000180036fc0 f i LIBCMTD:guard_support.obj
 0001:00036080       __castguard_slow_path_check_debugbreak 0000000180037080 f i LIBCMTD:guard_support.obj
 0001:000360c0       __castguard_slow_path_check_fastfail 00000001800370c0 f i LIBCMTD:guard_support.obj
 0001:00036110       __castguard_slow_path_check_nop 0000000180037110 f i LIBCMTD:guard_support.obj
 0001:00036120       __castguard_slow_path_check_os_handled 0000000180037120 f i LIBCMTD:guard_support.obj
 0001:00036200       _guard_icall_checks_enforced 0000000180037200 f i LIBCMTD:guard_support.obj
 0001:00036240       _guard_rf_checks_enforced  0000000180037240 f i LIBCMTD:guard_support.obj
 0001:00036310       __security_init_cookie     0000000180037310 f   LIBCMTD:gs_support.obj
 0001:00036390       ?__scrt_initialize_type_info@@YAXXZ 0000000180037390 f   LIBCMTD:tncleanup.obj
 0001:000363b0       ?__scrt_uninitialize_type_info@@YAXXZ 00000001800373b0 f   LIBCMTD:tncleanup.obj
 0001:000363d0       __local_stdio_scanf_options 00000001800373d0 f i LIBCMTD:default_local_stdio_options.obj
 0001:000363e0       __scrt_initialize_default_local_stdio_options 00000001800373e0 f   LIBCMTD:default_local_stdio_options.obj
 0001:00036430       __scrt_get_dyn_tls_init_callback 0000000180037430 f   LIBCMTD:dyn_tls_init.obj
 0001:00036440       _RTC_Initialize            0000000180037440 f   LIBCMTD:initsect.obj
 0001:00036490       _RTC_Terminate             0000000180037490 f   LIBCMTD:initsect.obj
 0001:000369f0       ?_RTC_GetSrcLine@@YAHPEAEPEA_WKPEAH1K@Z 00000001800379f0 f   LIBCMTD:pdblkup.obj
 0001:00036dc0       ??0bad_alloc@std@@AEAA@QEBD@Z 0000000180037dc0 f i LIBCMTD:throw_bad_alloc.obj
 0001:00036e00       ??0bad_alloc@std@@QEAA@AEBV01@@Z 0000000180037e00 f i LIBCMTD:throw_bad_alloc.obj
 0001:00036e40       ??0bad_alloc@std@@QEAA@XZ  0000000180037e40 f i LIBCMTD:throw_bad_alloc.obj
 0001:00036e80       ??0bad_array_new_length@std@@QEAA@AEBV01@@Z 0000000180037e80 f i LIBCMTD:throw_bad_alloc.obj
 0001:00036ec0       ??0bad_array_new_length@std@@QEAA@XZ 0000000180037ec0 f i LIBCMTD:throw_bad_alloc.obj
 0001:00036f00       ??0exception@std@@QEAA@AEBV01@@Z 0000000180037f00 f i LIBCMTD:throw_bad_alloc.obj
 0001:00036f60       ??0exception@std@@QEAA@QEBDH@Z 0000000180037f60 f i LIBCMTD:throw_bad_alloc.obj
 0001:00036fb0       ??1bad_alloc@std@@UEAA@XZ  0000000180037fb0 f i LIBCMTD:throw_bad_alloc.obj
 0001:00036fd0       ??1bad_array_new_length@std@@UEAA@XZ 0000000180037fd0 f i LIBCMTD:throw_bad_alloc.obj
 0001:00036ff0       ??1exception@std@@UEAA@XZ  0000000180037ff0 f i LIBCMTD:throw_bad_alloc.obj
 0001:00037020       ??_Gbad_alloc@std@@UEAAPEAXI@Z 0000000180038020 f i LIBCMTD:throw_bad_alloc.obj
 0001:00037020       ??_Ebad_alloc@std@@UEAAPEAXI@Z 0000000180038020 f i LIBCMTD:throw_bad_alloc.obj
 0001:00037060       ??_Ebad_array_new_length@std@@UEAAPEAXI@Z 0000000180038060 f i LIBCMTD:throw_bad_alloc.obj
 0001:00037060       ??_Gbad_array_new_length@std@@UEAAPEAXI@Z 0000000180038060 f i LIBCMTD:throw_bad_alloc.obj
 0001:000370a0       ??_Eexception@std@@UEAAPEAXI@Z 00000001800380a0 f i LIBCMTD:throw_bad_alloc.obj
 0001:000370a0       ??_Gexception@std@@UEAAPEAXI@Z 00000001800380a0 f i LIBCMTD:throw_bad_alloc.obj
 0001:000370e0       ?__scrt_throw_std_bad_alloc@@YAXXZ 00000001800380e0 f   LIBCMTD:throw_bad_alloc.obj
 0001:00037110       ?__scrt_throw_std_bad_array_new_length@@YAXXZ 0000000180038110 f   LIBCMTD:throw_bad_alloc.obj
 0001:00037140       ?what@exception@std@@UEBAPEBDXZ 0000000180038140 f i LIBCMTD:throw_bad_alloc.obj
 0001:00037180       ??1type_info@@UEAA@XZ      0000000180038180 f   LIBCMTD:std_type_info_static.obj
 0001:000371a0       ??_Etype_info@@UEAAPEAXI@Z 00000001800381a0 f i LIBCMTD:std_type_info_static.obj
 0001:000371a0       ??_Gtype_info@@UEAAPEAXI@Z 00000001800381a0 f i LIBCMTD:std_type_info_static.obj
 0001:000371dc       ??$?2PEAUHINSTANCE__@@@Wrapper@?$CSimpleArray@PEAUHINSTANCE__@@V?$CSimpleArrayEqualHelper@PEAUHINSTANCE__@@@ATL@@@ATL@@SAPEAX_KPEAPEAUHINSTANCE__@@@Z 00000001800381dc f i atls:atlbase.obj
 0001:000371e0       ??0?$CSimpleArray@PEAUHINSTANCE__@@V?$CSimpleArrayEqualHelper@PEAUHINSTANCE__@@@ATL@@@ATL@@QEAA@XZ 00000001800381e0 f i atls:atlbase.obj
 0001:000371f0       ??0CAtlBaseModule@ATL@@QEAA@XZ 00000001800381f0 f   atls:atlbase.obj
 0001:00037298       ??0Wrapper@?$CSimpleArray@PEAUHINSTANCE__@@V?$CSimpleArrayEqualHelper@PEAUHINSTANCE__@@@ATL@@@ATL@@QEAA@AEBQEAUHINSTANCE__@@@Z 0000000180038298 f i atls:atlbase.obj
 0001:000372a4       ??0_ATL_BASE_MODULE70@ATL@@QEAA@XZ 00000001800382a4 f i atls:atlbase.obj
 0001:000372d0       ??1?$CSimpleArray@PEAUHINSTANCE__@@V?$CSimpleArrayEqualHelper@PEAUHINSTANCE__@@@ATL@@@ATL@@QEAA@XZ 00000001800382d0 f i atls:atlbase.obj
 0001:000372f8       ??1CAtlBaseModule@ATL@@QEAA@XZ 00000001800382f8 f   atls:atlbase.obj
 0001:0003732c       ??1_ATL_BASE_MODULE70@ATL@@QEAA@XZ 000000018003832c f i atls:atlbase.obj
 0001:00037358       ??A?$CSimpleArray@PEAUHINSTANCE__@@V?$CSimpleArrayEqualHelper@PEAUHINSTANCE__@@@ATL@@@ATL@@QEAAAEAPEAUHINSTANCE__@@H@Z 0000000180038358 f i atls:atlbase.obj
 0001:00037384       ?Add@?$CSimpleArray@PEAUHINSTANCE__@@V?$CSimpleArrayEqualHelper@PEAUHINSTANCE__@@@ATL@@@ATL@@QEAAHAEBQEAUHINSTANCE__@@@Z 0000000180038384 f i atls:atlbase.obj
 0001:00037438       ?AddResourceInstance@CAtlBaseModule@ATL@@QEAA_NPEAUHINSTANCE__@@@Z 0000000180038438 f   atls:atlbase.obj
 0001:00037480       ?GetHInstanceAt@CAtlBaseModule@ATL@@QEAAPEAUHINSTANCE__@@H@Z 0000000180038480 f   atls:atlbase.obj
 0001:000374f8       ?GetSize@?$CSimpleArray@PEAUHINSTANCE__@@V?$CSimpleArrayEqualHelper@PEAUHINSTANCE__@@@ATL@@@ATL@@QEBAHXZ 00000001800384f8 f i atls:atlbase.obj
 0001:000374fc       ?InternalSetAtIndex@?$CSimpleArray@PEAUHINSTANCE__@@V?$CSimpleArrayEqualHelper@PEAUHINSTANCE__@@@ATL@@@ATL@@QEAAXHAEBQEAUHINSTANCE__@@@Z 00000001800384fc f i atls:atlbase.obj
 0001:00037514       ?RemoveAll@?$CSimpleArray@PEAUHINSTANCE__@@V?$CSimpleArrayEqualHelper@PEAUHINSTANCE__@@@ATL@@@ATL@@QEAAXXZ 0000000180038514 f i atls:atlbase.obj
 0001:0003753c       ?RemoveAt@?$CSimpleArray@PEAUHINSTANCE__@@V?$CSimpleArrayEqualHelper@PEAUHINSTANCE__@@@ATL@@@ATL@@QEAAHH@Z 000000018003853c f i atls:atlbase.obj
 0001:000375e0       ?RemoveResourceInstance@CAtlBaseModule@ATL@@QEAA_NPEAUHINSTANCE__@@@Z 00000001800385e0 f   atls:atlbase.obj
 0001:00037660       ?memmove_s@Checked@ATL@@YAXPEAX_KPEBX1@Z 0000000180038660 f i atls:atlbase.obj
 0001:00037b08       ?GetCodeAddress@_stdcallthunk@ATL@@QEAAPEAXXZ 0000000180038b08 f i atls:atlthunk.obj
 0001:00037b34       ?Init@_stdcallthunk@ATL@@QEAAH_KPEAX@Z 0000000180038b34 f i atls:atlthunk.obj
 0001:00037b84       ?__AllocStdCallThunk@@YAPEAXXZ 0000000180038b84 f   atls:atlthunk.obj
 0001:00037b8c       ?__AllocStdCallThunk@ATL@@YAPEAXXZ 0000000180038b8c f   atls:atlthunk.obj
 0001:00037b94       ?__AllocStdCallThunk_cmn@@YAPEAXXZ 0000000180038b94 f   atls:atlthunk.obj
 0001:00037c6c       ?__FreeStdCallThunk@@YAXPEAX@Z 0000000180038c6c f   atls:atlthunk.obj
 0001:00037c8c       ?__FreeStdCallThunk@ATL@@YAXPEAX@Z 0000000180038c8c f   atls:atlthunk.obj
 0001:00037cac       ?__FreeStdCallThunk_cmn@@YAXPEAX@Z 0000000180038cac f   atls:atlthunk.obj
 0001:00037d4c       AtlThunk_AllocateData      0000000180038d4c f   atls:atlthunk.obj
 0001:00037dc8       AtlThunk_DataToCode        0000000180038dc8 f   atls:atlthunk.obj
 0001:00037e1c       AtlThunk_FreeData          0000000180038e1c f   atls:atlthunk.obj
 0001:00037e7c       AtlThunk_InitData          0000000180038e7c f   atls:atlthunk.obj
 0001:00037f40       memset_repmovs             0000000180038f40 f   libvcruntimed:memset.obj
 0001:00037f60       memset                     0000000180038f60 f   libvcruntimed:memset.obj
 0001:000380f0       ??$__crt_interlocked_exchange_pointer@$$A6AXXZP6AXXZ@@YAP6AXXZPEDS6AXXZQ6AXXZ@Z 00000001800390f0 f i libvcruntimed:purevirt.obj
 0001:00038110       ??$__crt_interlocked_read_pointer@$$A6AXXZ@@YAP6AXXZPEDS6AXXZ@Z 0000000180039110 f i libvcruntimed:purevirt.obj
 0001:00038130       ?__crt_interlocked_read_64@@YA_JPED_J@Z 0000000180039130 f i libvcruntimed:purevirt.obj
 0001:00038150       _get_purecall_handler      0000000180039150 f   libvcruntimed:purevirt.obj
 0001:00038170       _purecall                  0000000180039170 f   libvcruntimed:purevirt.obj
 0001:000381b0       _set_purecall_handler      00000001800391b0 f   libvcruntimed:purevirt.obj
 0001:000381e0       memcmp                     00000001800391e0 f   libvcruntimed:memcmp.obj
 0001:000382c0       memcpy_repmovs             00000001800392c0 f   libvcruntimed:memcpy.obj
 0001:000382e0       memcpy                     00000001800392e0 f   libvcruntimed:memcpy.obj
 0001:000382e0       memmove                    00000001800392e0 f   libvcruntimed:memcpy.obj
 0001:000386c0       wcsstr                     00000001800396c0 f   libvcruntimed:wcsstr.obj
 0001:00038d20       __vcrt_initialize          0000000180039d20 f   libvcruntimed:initialization.obj
 0001:00038d60       __vcrt_thread_attach       0000000180039d60 f   libvcruntimed:initialization.obj
 0001:00038d80       __vcrt_thread_detach       0000000180039d80 f   libvcruntimed:initialization.obj
 0001:00038da0       __vcrt_uninitialize        0000000180039da0 f   libvcruntimed:initialization.obj
 0001:00038dc0       __vcrt_uninitialize_critical 0000000180039dc0 f   libvcruntimed:initialization.obj
 0001:00038de0       __C_specific_handler       0000000180039de0 f   libvcruntimed:riscchandler.obj
 0001:00039250       ??$?0AEAViterator@TryBlockMap4@FH4@@AEAV012@$0A@@?$pair@Viterator@TryBlockMap4@FH4@@V123@@std@@QEAA@AEAViterator@TryBlockMap4@FH4@@0@Z 000000018003a250 f i libvcruntimed:risctrnsctrl.obj
 0001:000392b0       ??$?0AEAViterator@TryBlockMap@__FrameHandler3@@AEAV012@$0A@@?$pair@Viterator@TryBlockMap@__FrameHandler3@@V123@@std@@QEAA@AEAViterator@TryBlockMap@__FrameHandler3@@0@Z 000000018003a2b0 f i libvcruntimed:risctrnsctrl.obj
 0001:00039480       ??$_CallSETranslator@V__FrameHandler3@@@@YAHPEAUEHExceptionRecord@@PEA_KPEAU_CONTEXT@@PEAU_xDISPATCHER_CONTEXT@@PEBU_s_FuncInfo@@K1H@Z 000000018003a480 f i libvcruntimed:risctrnsctrl.obj
 0001:00039510       ??$_CallSETranslator@V__FrameHandler4@@@@YAHPEAUEHExceptionRecord@@PEA_KPEAU_CONTEXT@@PEAU_xDISPATCHER_CONTEXT@@PEAUFuncInfo4@FH4@@K1H@Z 000000018003a510 f i libvcruntimed:risctrnsctrl.obj
 0001:000395a0       ??$forward@AEAViterator@TryBlockMap4@FH4@@@std@@YAAEAViterator@TryBlockMap4@FH4@@AEAV123@@Z 000000018003a5a0 f i libvcruntimed:risctrnsctrl.obj
 0001:000395b0       ??$forward@AEAViterator@TryBlockMap@__FrameHandler3@@@std@@YAAEAViterator@TryBlockMap@__FrameHandler3@@AEAV123@@Z 000000018003a5b0 f i libvcruntimed:risctrnsctrl.obj
 0001:000395c0       ??0FuncInfo4@FH4@@QEAA@XZ  000000018003a5c0 f i libvcruntimed:risctrnsctrl.obj
 0001:00039630       ??0FuncInfoHeader@FH4@@QEAA@XZ 000000018003a630 f i libvcruntimed:risctrnsctrl.obj
 0001:00039650       ??0iterator@TryBlockMap4@FH4@@QEAA@AEAV12@I@Z 000000018003a650 f i libvcruntimed:risctrnsctrl.obj
 0001:00039680       ??0iterator@TryBlockMap@__FrameHandler3@@QEAA@AEAV12@I@Z 000000018003a680 f i libvcruntimed:risctrnsctrl.obj
 0001:000396b0       ??4iterator@TryBlockMap4@FH4@@QEAAAEAV012@AEBV012@@Z 000000018003a6b0 f i libvcruntimed:risctrnsctrl.obj
 0001:000396d0       ??9iterator@TryBlockMap4@FH4@@QEBA_NAEBV012@@Z 000000018003a6d0 f i libvcruntimed:risctrnsctrl.obj
 0001:00039710       ??Diterator@TryBlockMap4@FH4@@QEAA?AUTryBlockMapEntry4@2@XZ 000000018003a710 f i libvcruntimed:risctrnsctrl.obj
 0001:00039740       ??Eiterator@TryBlockMap4@FH4@@QEAAAEAV012@XZ 000000018003a740 f i libvcruntimed:risctrnsctrl.obj
 0001:00039780       ?CatchTryBlock@__FrameHandler3@@SAPEBU_s_TryBlockMapEntry@@PEBU_s_FuncInfo@@H@Z 000000018003a780 f   libvcruntimed:risctrnsctrl.obj
 0001:00039810       ?DecompFuncInfo@FH4@@YA_JPEAEAEAUFuncInfo4@1@_KH@Z 000000018003a810 f i libvcruntimed:risctrnsctrl.obj
 0001:00039850       ?DecompFuncInfo@FH4@@YA_JPEAEAEAUFuncInfo4@1@_KH_N@Z 000000018003a850 f i libvcruntimed:risctrnsctrl.obj
 0001:00039a20       ?DecompTryBlock@TryBlockMap4@FH4@@AEAAXXZ 000000018003aa20 f i libvcruntimed:risctrnsctrl.obj
 0001:00039aa0       ?ExecutionInCatch@__FrameHandler3@@SA_NPEAU_xDISPATCHER_CONTEXT@@PEBU_s_FuncInfo@@@Z 000000018003aaa0 f   libvcruntimed:risctrnsctrl.obj
 0001:00039af0       ?ExecutionInCatch@__FrameHandler4@@SA_NPEAU_xDISPATCHER_CONTEXT@@PEAUFuncInfo4@FH4@@@Z 000000018003aaf0 f   libvcruntimed:risctrnsctrl.obj
 0001:00039b10       ?FrameUnwindToEmptyState@__FrameHandler3@@SAXPEA_KPEAU_xDISPATCHER_CONTEXT@@PEBU_s_FuncInfo@@@Z 000000018003ab10 f   libvcruntimed:risctrnsctrl.obj
 0001:00039bb0       ?FrameUnwindToEmptyState@__FrameHandler4@@SAXPEA_KPEAU_xDISPATCHER_CONTEXT@@PEAUFuncInfo4@FH4@@@Z 000000018003abb0 f   libvcruntimed:risctrnsctrl.obj
 0001:00039c00       ?GetEstablisherFrame@__FrameHandler3@@SAPEA_KPEA_KPEAU_xDISPATCHER_CONTEXT@@PEBU_s_FuncInfo@@0@Z 000000018003ac00 f   libvcruntimed:risctrnsctrl.obj
 0001:00039d70       ?GetEstablisherFrame@__FrameHandler4@@SAPEA_KPEA_KPEAU_xDISPATCHER_CONTEXT@@PEAUFuncInfo4@FH4@@0@Z 000000018003ad70 f   libvcruntimed:risctrnsctrl.obj
 0001:00039de0       ?GetRangeOfTrysToCheck@__FrameHandler3@@SA?AU?$pair@Viterator@TryBlockMap@__FrameHandler3@@V123@@std@@AEAVTryBlockMap@1@HPEAU_xDISPATCHER_CONTEXT@@PEBU_s_FuncInfo@@H@Z 000000018003ade0 f   libvcruntimed:risctrnsctrl.obj
 0001:0003a020       ?GetRangeOfTrysToCheck@__FrameHandler4@@SA?AU?$pair@Viterator@TryBlockMap4@FH4@@V123@@std@@AEAVTryBlockMap4@FH4@@HPEAU_xDISPATCHER_CONTEXT@@PEAUFuncInfo4@5@H@Z 000000018003b020 f   libvcruntimed:risctrnsctrl.obj
 0001:0003a1d0       ?ReadInt@FH4@@YAHPEAPEAE@Z 000000018003b1d0 f i libvcruntimed:risctrnsctrl.obj
 0001:0003a210       ?ReadUnsigned@FH4@@YAIPEAPEAE@Z 000000018003b210 f i libvcruntimed:risctrnsctrl.obj
 0001:0003a2a0       ?UnwindNestedFrames@__FrameHandler3@@SAXPEA_KPEAUEHExceptionRecord@@PEAU_CONTEXT@@0PEAXPEBU_s_FuncInfo@@HHPEBU_s_HandlerType@@PEAU_xDISPATCHER_CONTEXT@@E@Z 000000018003b2a0 f   libvcruntimed:risctrnsctrl.obj
 0001:0003a410       ?UnwindNestedFrames@__FrameHandler4@@SAXPEA_KPEAUEHExceptionRecord@@PEAU_CONTEXT@@0PEAXPEAUFuncInfo4@FH4@@HHPEAUHandlerType4@5@PEAU_xDISPATCHER_CONTEXT@@E@Z 000000018003b410 f   libvcruntimed:risctrnsctrl.obj
 0001:0003a5e0       ?begin@TryBlockMap4@FH4@@QEAA?AViterator@12@XZ 000000018003b5e0 f i libvcruntimed:risctrnsctrl.obj
 0001:0003a610       ?end@TryBlockMap4@FH4@@QEAA?AViterator@12@XZ 000000018003b610 f i libvcruntimed:risctrnsctrl.obj
 0001:0003a640       ?imageRelToByteBuffer@FH4@@YAPEAE_KH@Z 000000018003b640 f i libvcruntimed:risctrnsctrl.obj
 0001:0003a660       ?incrementToSentinel@iterator@TryBlockMap4@FH4@@QEAAXXZ 000000018003b660 f i libvcruntimed:risctrnsctrl.obj
 0001:0003a680       ?setBuffer@TryBlockMap4@FH4@@QEAAXViterator@12@@Z 000000018003b680 f i libvcruntimed:risctrnsctrl.obj
 0001:0003a6f0       _CreateFrameInfo           000000018003b6f0 f   libvcruntimed:risctrnsctrl.obj
 0001:0003a760       _FindAndUnlinkFrame        000000018003b760 f   libvcruntimed:risctrnsctrl.obj
 0001:0003a7e0       _GetImageBase              000000018003b7e0 f   libvcruntimed:risctrnsctrl.obj
 0001:0003a800       _GetThrowImageBase         000000018003b800 f   libvcruntimed:risctrnsctrl.obj
 0001:0003a820       _SetImageBase              000000018003b820 f   libvcruntimed:risctrnsctrl.obj
 0001:0003a840       _SetThrowImageBase         000000018003b840 f   libvcruntimed:risctrnsctrl.obj
 0001:0003a860       __CxxFrameHandler          000000018003b860 f   libvcruntimed:risctrnsctrl.obj
 0001:0003a8a0       __CxxFrameHandler2         000000018003b8a0 f   libvcruntimed:risctrnsctrl.obj
 0001:0003a8e0       __CxxFrameHandler3         000000018003b8e0 f   libvcruntimed:risctrnsctrl.obj
 0001:0003a9c0       __CxxFrameHandler4         000000018003b9c0 f   libvcruntimed:risctrnsctrl.obj
 0001:0003aad0       __C_specific_handler_noexcept 000000018003bad0 f   libvcruntimed:chandler_noexcept.obj
 0001:0003ab60       __DestructExceptionObject  000000018003bb60 f   libvcruntimed:ehhelpers.obj
 0001:0003ac60       ?_CallMemberFunction0@@YAXQEAX0@Z 000000018003bc60 f i libvcruntimed:ehhelpers.obj
 0001:0003ad30       ?raw_name@type_info@@QEBAPEBDXZ 000000018003bd30 f i libvcruntimed:ehhelpers.obj
 0001:0003ad40       _IsExceptionObjectToBeDestroyed 000000018003bd40 f   libvcruntimed:ehhelpers.obj
 0001:0003ad90       _SetWinRTOutOfMemoryExceptionCallback 000000018003bd90 f   libvcruntimed:ehhelpers.obj
 0001:0003adb0       __AdjustPointer            000000018003bdb0 f   libvcruntimed:ehhelpers.obj
 0001:0003ae30       __FrameUnwindFilter        000000018003be30 f   libvcruntimed:ehhelpers.obj
 0001:0003aee0       __GetPlatformExceptionInfo 000000018003bee0 f   libvcruntimed:ehhelpers.obj
 0001:0003af90       __current_exception        000000018003bf90 f   libvcruntimed:ehhelpers.obj
 0001:0003afb0       __current_exception_context 000000018003bfb0 f   libvcruntimed:ehhelpers.obj
 0001:0003afd0       __processing_throw         000000018003bfd0 f   libvcruntimed:ehhelpers.obj
 0001:0003aff0       __std_terminate            000000018003bff0 f   libvcruntimed:ehhelpers.obj
 0001:0003b000       _is_exception_typeof       000000018003c000 f   libvcruntimed:ehhelpers.obj
 0001:0003b190       ??$?RD@__crt_internal_free_policy@@QEBAXQEBD@Z 000000018003c190 f i libvcruntimed:std_type_info.obj
 0001:0003b1c0       ??$?RX@__crt_internal_free_policy@@QEBAXQEBX@Z 000000018003c1c0 f i libvcruntimed:std_type_info.obj
 0001:0003b1f0       ??$__crt_interlocked_compare_exchange_pointer@$$CBDPEAD$$T@@YAPEBDPEDSEBDQEAD$$T@Z 000000018003c1f0 f i libvcruntimed:std_type_info.obj
 0001:0003b230       ??$__crt_interlocked_read_pointer@$$CBD@@YAPEBDPEDSEBD@Z 000000018003c230 f i libvcruntimed:std_type_info.obj
 0001:0003b250       ??0?$__crt_unique_heap_ptr@DU__crt_internal_free_policy@@@@QEAA@QEAD@Z 000000018003c250 f i libvcruntimed:std_type_info.obj
 0001:0003b270       ??0?$__crt_unique_heap_ptr@XU__crt_internal_free_policy@@@@QEAA@QEAX@Z 000000018003c270 f i libvcruntimed:std_type_info.obj
 0001:0003b290       ??1?$__crt_unique_heap_ptr@DU__crt_internal_free_policy@@@@QEAA@XZ 000000018003c290 f i libvcruntimed:std_type_info.obj
 0001:0003b2b0       ??1?$__crt_unique_heap_ptr@XU__crt_internal_free_policy@@@@QEAA@XZ 000000018003c2b0 f i libvcruntimed:std_type_info.obj
 0001:0003b2d0       ??B?$__crt_unique_heap_ptr@DU__crt_internal_free_policy@@@@QEBA_NXZ 000000018003c2d0 f i libvcruntimed:std_type_info.obj
 0001:0003b2f0       ??B?$__crt_unique_heap_ptr@XU__crt_internal_free_policy@@@@QEBA_NXZ 000000018003c2f0 f i libvcruntimed:std_type_info.obj
 0001:0003b390       ?detach@?$__crt_unique_heap_ptr@XU__crt_internal_free_policy@@@@QEAAPEAXXZ 000000018003c390 f i libvcruntimed:std_type_info.obj
 0001:0003b3c0       ?get@?$__crt_unique_heap_ptr@DU__crt_internal_free_policy@@@@QEBAPEADXZ 000000018003c3c0 f i libvcruntimed:std_type_info.obj
 0001:0003b3d0       ?get@?$__crt_unique_heap_ptr@XU__crt_internal_free_policy@@@@QEBAPEAXXZ 000000018003c3d0 f i libvcruntimed:std_type_info.obj
 0001:0003b3e0       ?is_valid@?$__crt_unique_heap_ptr@DU__crt_internal_free_policy@@@@QEBA_NXZ 000000018003c3e0 f i libvcruntimed:std_type_info.obj
 0001:0003b410       ?is_valid@?$__crt_unique_heap_ptr@XU__crt_internal_free_policy@@@@QEBA_NXZ 000000018003c410 f i libvcruntimed:std_type_info.obj
 0001:0003b440       ?release@?$__crt_unique_heap_ptr@DU__crt_internal_free_policy@@@@QEAAXXZ 000000018003c440 f i libvcruntimed:std_type_info.obj
 0001:0003b470       ?release@?$__crt_unique_heap_ptr@XU__crt_internal_free_policy@@@@QEAAXXZ 000000018003c470 f i libvcruntimed:std_type_info.obj
 0001:0003b4a0       __std_type_info_compare    000000018003c4a0 f   libvcruntimed:std_type_info.obj
 0001:0003b4e0       __std_type_info_destroy_list 000000018003c4e0 f   libvcruntimed:std_type_info.obj
 0001:0003b540       __std_type_info_hash       000000018003c540 f   libvcruntimed:std_type_info.obj
 0001:0003b5f0       __std_type_info_name       000000018003c5f0 f   libvcruntimed:std_type_info.obj
 0001:0003b8a0       __vcrt_GetModuleFileNameW  000000018003c8a0 f   libvcruntimed:winapi_thunks.obj
 0001:0003b8d0       __vcrt_GetModuleHandleW    000000018003c8d0 f   libvcruntimed:winapi_thunks.obj
 0001:0003b8f0       __vcrt_LoadLibraryExW      000000018003c8f0 f   libvcruntimed:winapi_thunks.obj
 0001:0003b920       ??$?RD@__crt_public_free_policy@@QEBAXQEBD@Z 000000018003c920 f i libvcruntimed:std_exception.obj
 0001:0003b940       ??0?$__crt_unique_heap_ptr@DU__crt_public_free_policy@@@@QEAA@QEAD@Z 000000018003c940 f i libvcruntimed:std_exception.obj
 0001:0003b960       ??1?$__crt_unique_heap_ptr@DU__crt_public_free_policy@@@@QEAA@XZ 000000018003c960 f i libvcruntimed:std_exception.obj
 0001:0003b980       ??B?$__crt_unique_heap_ptr@DU__crt_public_free_policy@@@@QEBA_NXZ 000000018003c980 f i libvcruntimed:std_exception.obj
 0001:0003b9a0       ?detach@?$__crt_unique_heap_ptr@DU__crt_public_free_policy@@@@QEAAPEADXZ 000000018003c9a0 f i libvcruntimed:std_exception.obj
 0001:0003b9d0       ?get@?$__crt_unique_heap_ptr@DU__crt_public_free_policy@@@@QEBAPEADXZ 000000018003c9d0 f i libvcruntimed:std_exception.obj
 0001:0003b9e0       ?is_valid@?$__crt_unique_heap_ptr@DU__crt_public_free_policy@@@@QEBA_NXZ 000000018003c9e0 f i libvcruntimed:std_exception.obj
 0001:0003ba10       ?release@?$__crt_unique_heap_ptr@DU__crt_public_free_policy@@@@QEAAXXZ 000000018003ca10 f i libvcruntimed:std_exception.obj
 0001:0003ba40       __std_exception_copy       000000018003ca40 f   libvcruntimed:std_exception.obj
 0001:0003bb80       __std_exception_destroy    000000018003cb80 f   libvcruntimed:std_exception.obj
 0001:0003bbc0       _CxxThrowException         000000018003cbc0 f   libvcruntimed:throw.obj
 0001:0003bcf0       ??$?RU__vcrt_ptd@@@__crt_internal_free_policy@@QEBAXQEBU__vcrt_ptd@@@Z 000000018003ccf0 f i libvcruntimed:per_thread_data.obj
 0001:0003bd20       ??0?$__crt_unique_heap_ptr@U__vcrt_ptd@@U__crt_internal_free_policy@@@@QEAA@QEAU__vcrt_ptd@@@Z 000000018003cd20 f i libvcruntimed:per_thread_data.obj
 0001:0003bd60       ??1?$__crt_unique_heap_ptr@U__vcrt_ptd@@U__crt_internal_free_policy@@@@QEAA@XZ 000000018003cd60 f i libvcruntimed:per_thread_data.obj
 0001:0003bda0       ??B?$__crt_unique_heap_ptr@U__vcrt_ptd@@U__crt_internal_free_policy@@@@QEBA_NXZ 000000018003cda0 f i libvcruntimed:per_thread_data.obj
 0001:0003bdc0       ?detach@?$__crt_unique_heap_ptr@U__vcrt_ptd@@U__crt_internal_free_policy@@@@QEAAPEAU__vcrt_ptd@@XZ 000000018003cdc0 f i libvcruntimed:per_thread_data.obj
 0001:0003bdf0       ?get@?$__crt_unique_heap_ptr@U__vcrt_ptd@@U__crt_internal_free_policy@@@@QEBAPEAU__vcrt_ptd@@XZ 000000018003cdf0 f i libvcruntimed:per_thread_data.obj
 0001:0003be00       ?is_valid@?$__crt_unique_heap_ptr@U__vcrt_ptd@@U__crt_internal_free_policy@@@@QEBA_NXZ 000000018003ce00 f i libvcruntimed:per_thread_data.obj
 0001:0003be30       ?release@?$__crt_unique_heap_ptr@U__vcrt_ptd@@U__crt_internal_free_policy@@@@QEAAXXZ 000000018003ce30 f i libvcruntimed:per_thread_data.obj
 0001:0003bea0       __vcrt_freefls             000000018003cea0 f   libvcruntimed:per_thread_data.obj
 0001:0003bee0       __vcrt_freeptd             000000018003cee0 f   libvcruntimed:per_thread_data.obj
 0001:0003bf40       __vcrt_getptd              000000018003cf40 f   libvcruntimed:per_thread_data.obj
 0001:0003bf70       __vcrt_getptd_noexit       000000018003cf70 f   libvcruntimed:per_thread_data.obj
 0001:0003c110       __vcrt_getptd_noinit       000000018003d110 f   libvcruntimed:per_thread_data.obj
 0001:0003c170       __vcrt_initialize_ptd      000000018003d170 f   libvcruntimed:per_thread_data.obj
 0001:0003c1c0       __vcrt_uninitialize_ptd    000000018003d1c0 f   libvcruntimed:per_thread_data.obj
 0001:0003c1f0       __vcrt_initialize_locks    000000018003d1f0 f   libvcruntimed:locks.obj
 0001:0003c260       __vcrt_lock                000000018003d260 f   libvcruntimed:locks.obj
 0001:0003c290       __vcrt_uninitialize_locks  000000018003d290 f   libvcruntimed:locks.obj
 0001:0003c2f0       __vcrt_unlock              000000018003d2f0 f   libvcruntimed:locks.obj
 0001:0003c330       _NLG_Notify                000000018003d330 f   libvcruntimed:notify.obj
 0001:0003c350       __NLG_Dispatch2            000000018003d350 f   libvcruntimed:notify.obj
 0001:0003c360       __NLG_Return2              000000018003d360 f   libvcruntimed:notify.obj
 0001:0003c380       __except_validate_context_record 000000018003d380 f   libvcruntimed:jbcxrval.obj
 0001:0003c3e0       __except_validate_jump_buffer 000000018003d3e0 f   libvcruntimed:jbcxrval.obj
 0001:0003c400       __except_validate_jump_buffer_common 000000018003d400 f i libvcruntimed:jbcxrval.obj
 0001:0003c480       ?GetCurrentState@__FrameHandler3@@SAHPEA_KPEAU_xDISPATCHER_CONTEXT@@PEBU_s_FuncInfo@@@Z 000000018003d480 f   libvcruntimed:ehstate.obj
 0001:0003c4e0       ?GetUnwindTryBlock@__FrameHandler3@@SAHPEA_KPEAU_xDISPATCHER_CONTEXT@@PEBU_s_FuncInfo@@@Z 000000018003d4e0 f   libvcruntimed:ehstate.obj
 0001:0003c530       ?SetState@__FrameHandler3@@SAXPEA_KPEBU_s_FuncInfo@@H@Z 000000018003d530 f   libvcruntimed:ehstate.obj
 0001:0003c560       ?SetUnwindTryBlock@__FrameHandler3@@SAXPEA_KPEAU_xDISPATCHER_CONTEXT@@PEBU_s_FuncInfo@@H@Z 000000018003d560 f   libvcruntimed:ehstate.obj
 0001:0003c5d0       ?StateFromControlPc@__FrameHandler3@@SAHPEBU_s_FuncInfo@@PEAU_xDISPATCHER_CONTEXT@@@Z 000000018003d5d0 f   libvcruntimed:ehstate.obj
 0001:0003c610       ?StateFromControlPc@__FrameHandler4@@SAHPEAUFuncInfo4@FH4@@PEAU_xDISPATCHER_CONTEXT@@@Z 000000018003d610 f   libvcruntimed:ehstate.obj
 0001:0003c650       ?StateFromIp@__FrameHandler3@@SAHPEBU_s_FuncInfo@@PEAU_xDISPATCHER_CONTEXT@@_K@Z 000000018003d650 f   libvcruntimed:ehstate.obj
 0001:0003c740       ?StateFromIp@__FrameHandler4@@SAHPEAUFuncInfo4@FH4@@PEAU_xDISPATCHER_CONTEXT@@_K@Z 000000018003d740 f   libvcruntimed:ehstate.obj
 0001:0003c830       ?__FuncRelToRealOffset@@YA_KPEAU_xDISPATCHER_CONTEXT@@I@Z 000000018003d830 f i libvcruntimed:ehstate.obj
 0001:0003c860       ?__RVAtoRealOffset@@YA_KPEAU_xDISPATCHER_CONTEXT@@H@Z 000000018003d860 f i libvcruntimed:ehstate.obj
 0001:0003eae0       ??$TypeMatchHelper@V__FrameHandler3@@@@YAHPEBU_s_HandlerType@@PEBU_s_CatchableType@@PEBU_s_ThrowInfo@@@Z 000000018003fae0 f i libvcruntimed:frame.obj
 0001:0003ece0       ??$TypeMatchHelper@V__FrameHandler4@@@@YAHPEAUHandlerType4@FH4@@PEBU_s_CatchableType@@PEBU_s_ThrowInfo@@@Z 000000018003fce0 f i libvcruntimed:frame.obj
 0001:0003eef0       ??$__InternalCxxFrameHandler@V__FrameHandler3@@@@YA?AW4_EXCEPTION_DISPOSITION@@PEAUEHExceptionRecord@@PEA_KPEAU_CONTEXT@@PEAU_xDISPATCHER_CONTEXT@@PEBU_s_FuncInfo@@H1E@Z 000000018003fef0 f i libvcruntimed:frame.obj
 0001:0003f360       ??$__InternalCxxFrameHandler@V__FrameHandler4@@@@YA?AW4_EXCEPTION_DISPOSITION@@PEAUEHExceptionRecord@@PEA_KPEAU_CONTEXT@@PEAU_xDISPATCHER_CONTEXT@@PEAUFuncInfo4@FH4@@H1E@Z 0000000180040360 f i libvcruntimed:frame.obj
 0001:0003f7f0       ??0HandlerMap4@FH4@@QEAA@PEBUTryBlockMapEntry4@1@_KH@Z 00000001800407f0 f i libvcruntimed:frame.obj
 0001:0003f8b0       ??0HandlerMap@__FrameHandler3@@QEAA@PEBU_s_TryBlockMapEntry@@_KI@Z 00000001800408b0 f i libvcruntimed:frame.obj
 0001:0003f900       ??0HandlerType4@FH4@@QEAA@XZ 0000000180040900 f i libvcruntimed:frame.obj
 0001:0003f920       ??0TryBlockMap4@FH4@@QEAA@PEBUFuncInfo4@1@_K@Z 0000000180040920 f i libvcruntimed:frame.obj
 0001:0003f9b0       ??0TryBlockMap@__FrameHandler3@@QEAA@PEBU_s_FuncInfo@@_K@Z 00000001800409b0 f i libvcruntimed:frame.obj
 0001:0003f9e0       ??0UWMap4@FH4@@QEAA@PEBUFuncInfo4@1@_K@Z 00000001800409e0 f i libvcruntimed:frame.obj
 0001:0003fa50       ??0bad_exception@std@@QEAA@AEBV01@@Z 0000000180040a50 f i libvcruntimed:frame.obj
 0001:0003fa90       ??0bad_exception@std@@QEAA@XZ 0000000180040a90 f i libvcruntimed:frame.obj
 0001:0003fad0       ??0iterator@HandlerMap4@FH4@@QEAA@AEAV12@I@Z 0000000180040ad0 f i libvcruntimed:frame.obj
 0001:0003fb00       ??0iterator@HandlerMap@__FrameHandler3@@QEAA@AEAV12@I@Z 0000000180040b00 f i libvcruntimed:frame.obj
 0001:0003fb30       ??0iterator@UWMap4@FH4@@QEAA@AEAV12@PEAE@Z 0000000180040b30 f i libvcruntimed:frame.obj
 0001:0003fb60       ??1bad_exception@std@@UEAA@XZ 0000000180040b60 f i libvcruntimed:frame.obj
 0001:0003fb80       ??4iterator@UWMap4@FH4@@QEAAAEAV012@AEBV012@@Z 0000000180040b80 f i libvcruntimed:frame.obj
 0001:0003fbd0       ??8iterator@HandlerMap4@FH4@@QEBA_NAEBV012@@Z 0000000180040bd0 f i libvcruntimed:frame.obj
 0001:0003fc10       ??8iterator@HandlerMap@__FrameHandler3@@QEBA_NAEBV012@@Z 0000000180040c10 f i libvcruntimed:frame.obj
 0001:0003fc50       ??8type_info@@QEBA_NAEBV0@@Z 0000000180040c50 f i libvcruntimed:frame.obj
 0001:0003fca0       ??9iterator@HandlerMap4@FH4@@QEBA_NAEBV012@@Z 0000000180040ca0 f i libvcruntimed:frame.obj
 0001:0003fce0       ??9iterator@HandlerMap@__FrameHandler3@@QEBA_NAEBV012@@Z 0000000180040ce0 f i libvcruntimed:frame.obj
 0001:0003fd20       ??Diterator@HandlerMap4@FH4@@QEAA?AUHandlerType4@2@XZ 0000000180040d20 f i libvcruntimed:frame.obj
 0001:0003fd50       ??Diterator@HandlerMap@__FrameHandler3@@QEAA?BU_s_HandlerType@@XZ 0000000180040d50 f i libvcruntimed:frame.obj
 0001:0003fd90       ??Diterator@TryBlockMap@__FrameHandler3@@QEAA?BU_s_TryBlockMapEntry@@XZ 0000000180040d90 f i libvcruntimed:frame.obj
 0001:0003fde0       ??Diterator@UWMap4@FH4@@QEAA?AUUnwindMapEntry4@2@XZ 0000000180040de0 f i libvcruntimed:frame.obj
 0001:0003fe60       ??Eiterator@HandlerMap4@FH4@@QEAAAEAV012@XZ 0000000180040e60 f i libvcruntimed:frame.obj
 0001:0003fea0       ??Eiterator@HandlerMap@__FrameHandler3@@QEAAAEAV012@XZ 0000000180040ea0 f i libvcruntimed:frame.obj
 0001:0003fec0       ??Eiterator@TryBlockMap@__FrameHandler3@@QEAAAEAV012@XZ 0000000180040ec0 f i libvcruntimed:frame.obj
 0001:0003fee0       ??Eiterator@UWMap4@FH4@@QEAAAEAV012@XZ 0000000180040ee0 f i libvcruntimed:frame.obj
 0001:0003ff20       ??Giterator@UWMap4@FH4@@QEBA_JAEBV012@@Z 0000000180040f20 f i libvcruntimed:frame.obj
 0001:0003ff40       ??Miterator@TryBlockMap4@FH4@@QEBA_NAEBV012@@Z 0000000180040f40 f i libvcruntimed:frame.obj
 0001:0003ff80       ??Miterator@TryBlockMap@__FrameHandler3@@QEBA_NAEBV012@@Z 0000000180040f80 f i libvcruntimed:frame.obj
 0001:0003ffc0       ??Oiterator@UWMap4@FH4@@QEBA_NAEBV012@@Z 0000000180040fc0 f i libvcruntimed:frame.obj
 0001:00040000       ??Piterator@UWMap4@FH4@@QEBA_NAEBV012@@Z 0000000180041000 f i libvcruntimed:frame.obj
 0001:00040040       ??_Gbad_exception@std@@UEAAPEAXI@Z 0000000180041040 f i libvcruntimed:frame.obj
 0001:00040040       ??_Ebad_exception@std@@UEAAPEAXI@Z 0000000180041040 f i libvcruntimed:frame.obj
 0001:00040080       ?BuildCatchObject@__FrameHandler3@@SAXPEAUEHExceptionRecord@@PEAXPEBU_s_HandlerType@@PEBU_s_CatchableType@@@Z 0000000180041080 f   libvcruntimed:frame.obj
 0001:000400c0       ?BuildCatchObject@__FrameHandler4@@SAXPEAUEHExceptionRecord@@PEAXPEAUHandlerType4@FH4@@PEBU_s_CatchableType@@@Z 00000001800410c0 f   libvcruntimed:frame.obj
 0001:00040100       ?BuildCatchObjectHelper@__FrameHandler3@@SAHPEAUEHExceptionRecord@@PEAXPEBU_s_HandlerType@@PEBU_s_CatchableType@@@Z 0000000180041100 f   libvcruntimed:frame.obj
 0001:00040140       ?BuildCatchObjectHelper@__FrameHandler4@@SAHPEAUEHExceptionRecord@@PEAXPEAUHandlerType4@FH4@@PEBU_s_CatchableType@@@Z 0000000180041140 f   libvcruntimed:frame.obj
 0001:00040180       ?CxxCallCatchBlock@__FrameHandler3@@SAPEAXPEAU_EXCEPTION_RECORD@@@Z 0000000180041180 f   libvcruntimed:frame.obj
 0001:000403e0       ?CxxCallCatchBlock@__FrameHandler4@@SAPEAXPEAU_EXCEPTION_RECORD@@@Z 00000001800413e0 f   libvcruntimed:frame.obj
 0001:00040710       ?DecompHandler@HandlerMap4@FH4@@AEAAXXZ 0000000180041710 f i libvcruntimed:frame.obj
 0001:00040ae0       ?FrameUnwindToState@__FrameHandler3@@SAXPEA_KPEAU_xDISPATCHER_CONTEXT@@PEBU_s_FuncInfo@@H@Z 0000000180041ae0 f   libvcruntimed:frame.obj
 0001:00040d30       ?FrameUnwindToState@__FrameHandler4@@SAXPEA_KPEAU_xDISPATCHER_CONTEXT@@PEAUFuncInfo4@FH4@@H@Z 0000000180041d30 f   libvcruntimed:frame.obj
 0001:00041040       ?GetHandlerSearchState@__FrameHandler3@@SAHPEA_KPEAU_xDISPATCHER_CONTEXT@@PEBU_s_FuncInfo@@@Z 0000000180042040 f i libvcruntimed:frame.obj
 0001:000410f0       ?GetHandlerSearchState@__FrameHandler4@@SAHPEA_KPEAU_xDISPATCHER_CONTEXT@@PEAUFuncInfo4@FH4@@@Z 00000001800420f0 f i libvcruntimed:frame.obj
 0001:00041170       ?GetMaxState@__FrameHandler3@@SAHPEAU_xDISPATCHER_CONTEXT@@PEBU_s_FuncInfo@@@Z 0000000180042170 f i libvcruntimed:frame.obj
 0001:00041190       ?GetMaxState@__FrameHandler4@@SAHPEAU_xDISPATCHER_CONTEXT@@PEAUFuncInfo4@FH4@@@Z 0000000180042190 f i libvcruntimed:frame.obj
 0001:000413c0       ?ReadEntry@UWMap4@FH4@@AEAAXPEAPEAE@Z 00000001800423c0 f i libvcruntimed:frame.obj
 0001:00041470       ?TypeMatch@__FrameHandler3@@SAHPEBU_s_HandlerType@@PEBU_s_CatchableType@@PEBU_s_ThrowInfo@@@Z 0000000180042470 f   libvcruntimed:frame.obj
 0001:000414a0       ?TypeMatch@__FrameHandler4@@SAHPEAUHandlerType4@FH4@@PEBU_s_CatchableType@@PEBU_s_ThrowInfo@@@Z 00000001800424a0 f   libvcruntimed:frame.obj
 0001:000414d0       ?WalkBack@UWMap4@FH4@@AEAAXPEAPEAE@Z 00000001800424d0 f i libvcruntimed:frame.obj
 0001:00041520       ?WalkBack@iterator@UWMap4@FH4@@QEAAXXZ 0000000180042520 f i libvcruntimed:frame.obj
 0001:00041560       ?WalkForward@UWMap4@FH4@@AEAAXPEAPEAE@Z 0000000180042560 f i libvcruntimed:frame.obj
 0001:00041590       ?_CallMemberFunction1@@YAXQEAX00@Z 0000000180042590 f i libvcruntimed:frame.obj
 0001:000415d0       ?_CallMemberFunction2@@YAXQEAX00H@Z 00000001800425d0 f i libvcruntimed:frame.obj
 0001:00041660       ?begin@HandlerMap4@FH4@@QEAA?AViterator@12@XZ 0000000180042660 f i libvcruntimed:frame.obj
 0001:00041690       ?begin@HandlerMap@__FrameHandler3@@QEAA?AViterator@12@XZ 0000000180042690 f i libvcruntimed:frame.obj
 0001:000416c0       ?begin@UWMap4@FH4@@QEAA?AViterator@12@XZ 00000001800426c0 f i libvcruntimed:frame.obj
 0001:000416f0       ?end@HandlerMap4@FH4@@QEAA?AViterator@12@XZ 00000001800426f0 f i libvcruntimed:frame.obj
 0001:00041720       ?end@HandlerMap@__FrameHandler3@@QEAA?AViterator@12@XZ 0000000180042720 f i libvcruntimed:frame.obj
 0001:00041750       ?getESTypes@__FrameHandler3@@SAPEBU_s_ESTypeList@@PEBU_s_FuncInfo@@@Z 0000000180042750 f i libvcruntimed:frame.obj
 0001:00041790       ?getESTypes@__FrameHandler4@@SAPEBU_s_ESTypeList@@PEAUFuncInfo4@FH4@@@Z 0000000180042790 f i libvcruntimed:frame.obj
 0001:000417a0       ?getLastEntry@HandlerMap4@FH4@@QEAAPEAUHandlerType4@2@XZ 00000001800427a0 f i libvcruntimed:frame.obj
 0001:000417e0       ?getLastEntry@HandlerMap@__FrameHandler3@@QEAAPEBU_s_HandlerType@@XZ 00000001800427e0 f i libvcruntimed:frame.obj
 0001:00041800       ?getMagicNum@__FrameHandler3@@SAIPEBU_s_FuncInfo@@@Z 0000000180042800 f i libvcruntimed:frame.obj
 0001:00041820       ?getMagicNum@__FrameHandler4@@SAIPEAUFuncInfo4@FH4@@@Z 0000000180042820 f i libvcruntimed:frame.obj
 0001:00041830       ?getNumTryBlocks@TryBlockMap4@FH4@@QEAAIXZ 0000000180042830 f i libvcruntimed:frame.obj
 0001:00041840       ?getNumTryBlocks@TryBlockMap@__FrameHandler3@@QEAAIXZ 0000000180042840 f i libvcruntimed:frame.obj
 0001:00041860       ?getStartStop@UWMap4@FH4@@QEAAXHHAEAViterator@12@0@Z 0000000180042860 f i libvcruntimed:frame.obj
 0001:00041980       ?getStateFromIterators@UWMap4@FH4@@SAHAEBViterator@12@H0H0@Z 0000000180042980 f i libvcruntimed:frame.obj
 0001:00041ac0       ?isEHs@__FrameHandler3@@SA_NPEBU_s_FuncInfo@@@Z 0000000180042ac0 f i libvcruntimed:frame.obj
 0001:00041b00       ?isEHs@__FrameHandler4@@SA_NPEAUFuncInfo4@FH4@@@Z 0000000180042b00 f i libvcruntimed:frame.obj
 0001:00041b20       ?isNoExcept@__FrameHandler3@@SA_NPEBU_s_FuncInfo@@@Z 0000000180042b20 f i libvcruntimed:frame.obj
 0001:00041b60       ?isNoExcept@__FrameHandler4@@SA_NPEAUFuncInfo4@FH4@@@Z 0000000180042b60 f i libvcruntimed:frame.obj
 0001:00041b80       ?reset@HandlerType4@FH4@@QEAAXXZ 0000000180042b80 f i libvcruntimed:frame.obj
 0001:00041be0       ?resetBuffer@HandlerMap4@FH4@@QEAAXXZ 0000000180042be0 f i libvcruntimed:frame.obj
 0001:00041c00       ?setBuffer@HandlerMap4@FH4@@QEAAXI@Z 0000000180042c00 f i libvcruntimed:frame.obj
 0001:00041c60       __BuildCatchObject         0000000180042c60 f   libvcruntimed:frame.obj
 0001:00041ca0       __BuildCatchObjectHelper   0000000180042ca0 f   libvcruntimed:frame.obj
 0001:00041ce0       __TypeMatch                0000000180042ce0 f   libvcruntimed:frame.obj
 0001:00041d10       __vcrt_EncodePointer       0000000180042d10 f i libvcruntimed:frame.obj
 0001:00041d30       ??$?0$00@DName@@QEAA@PEBDU?$StringLifeSelector@$00@@@Z 0000000180042d30 f i libvcruntimed:undname.obj
 0001:00041da0       ??$?0$00@pcharNode@@QEAA@PEBDHU?$StringLifeSelector@$00@@@Z 0000000180042da0 f i libvcruntimed:undname.obj
 0001:00041e00       ??$?0$01@DName@@QEAA@PEBDU?$StringLifeSelector@$01@@@Z 0000000180042e00 f i libvcruntimed:undname.obj
 0001:00041e70       ??$?0$01@pcharNode@@QEAA@PEBDHU?$StringLifeSelector@$01@@@Z 0000000180042e70 f i libvcruntimed:undname.obj
 0001:00041f20       ??$?0$0A@@DName@@QEAA@PEBDU?$StringLifeSelector@$0A@@@@Z 0000000180042f20 f i libvcruntimed:undname.obj
 0001:00041f90       ??$?0$0A@@pcharNode@@QEAA@PEBDHU?$StringLifeSelector@$0A@@@@Z 0000000180042f90 f i libvcruntimed:undname.obj
 0001:00042040       ??$?0_K$0A@@?$optional@_K@std@@QEAA@$$QEA_K@Z 0000000180043040 f i libvcruntimed:undname.obj
 0001:00042090       ??$?0_K@?$_Optional_construct_base@_K@std@@QEAA@Uin_place_t@1@$$QEA_K@Z 0000000180043090 f i libvcruntimed:undname.obj
 0001:000420c0       ??$?0_K@?$_Optional_destruct_base@_K$00@std@@QEAA@Uin_place_t@1@$$QEA_K@Z 00000001800430c0 f i libvcruntimed:undname.obj
 0001:00042100       ??$append@VDNameNode@@@DName@@AEAAXPEBVDNameNode@@@Z 0000000180043100 f i libvcruntimed:undname.obj
 0001:000421b0       ??$append@VDNameStatusNode@@@DName@@AEAAXPEBVDNameStatusNode@@@Z 00000001800431b0 f i libvcruntimed:undname.obj
 0001:00042260       ??$append@VcharNode@@@DName@@AEAAXPEBVcharNode@@@Z 0000000180043260 f i libvcruntimed:undname.obj
 0001:00042310       ??$append@VpDNameNode@@@DName@@AEAAXPEBVpDNameNode@@@Z 0000000180043310 f i libvcruntimed:undname.obj
 0001:000423c0       ??$append@VpcharNode@@@DName@@AEAAXPEBVpcharNode@@@Z 00000001800433c0 f i libvcruntimed:undname.obj
 0001:00042470       ??$doPchar@$00@DName@@AEAAXPEBDH@Z 0000000180043470 f i libvcruntimed:undname.obj
 0001:000425d0       ??$doPchar@$01@DName@@AEAAXPEBDH@Z 00000001800435d0 f i libvcruntimed:undname.obj
 0001:00042730       ??$doPchar@$0A@@DName@@AEAAXPEBDH@Z 0000000180043730 f i libvcruntimed:undname.obj
 0001:00042890       ??$forward@_K@std@@YA$$QEA_KAEA_K@Z 0000000180043890 f i libvcruntimed:undname.obj
 0001:000428a0       ??$size@D$04@std@@YA_KAEAY04$$CBD@Z 00000001800438a0 f i libvcruntimed:undname.obj
 0001:000428b0       ??$size@D$0EB@@std@@YA_KAEAY0EB@$$CBD@Z 00000001800438b0 f i libvcruntimed:undname.obj
 0001:000428c0       ??0?$_Optional_construct_base@_K@std@@QEAA@XZ 00000001800438c0 f i libvcruntimed:undname.obj
 0001:000428e0       ??0?$_Optional_destruct_base@_K$00@std@@QEAA@XZ 00000001800438e0 f i libvcruntimed:undname.obj
 0001:00042910       ??0?$optional@_K@std@@QEAA@XZ 0000000180043910 f i libvcruntimed:undname.obj
 0001:00042930       ??0Block@_HeapManager@@QEAA@XZ 0000000180043930 f i libvcruntimed:undname.obj
 0001:00042950       ??0DName@@QEAA@AEAPEBDD@Z  0000000180043950 f   libvcruntimed:undname.obj
 0001:00042b20       ??0DName@@QEAA@AEBUStringLiteral@@@Z 0000000180043b20 f   libvcruntimed:undname.obj
 0001:00042b80       ??0DName@@QEAA@AEBV0@@Z    0000000180043b80 f i libvcruntimed:undname.obj
 0001:00042bb0       ??0DName@@QEAA@D@Z         0000000180043bb0 f   libvcruntimed:undname.obj
 0001:00042bf0       ??0DName@@QEAA@PEAV0@@Z    0000000180043bf0 f   libvcruntimed:undname.obj
 0001:00042cd0       ??0DName@@QEAA@W4DNameStatus@@@Z 0000000180043cd0 f   libvcruntimed:undname.obj
 0001:00042d80       ??0DName@@QEAA@XZ          0000000180043d80 f i libvcruntimed:undname.obj
 0001:00042db0       ??0DName@@QEAA@_J@Z        0000000180043db0 f   libvcruntimed:undname.obj
 0001:00042ec0       ??0DName@@QEAA@_K@Z        0000000180043ec0 f   libvcruntimed:undname.obj
 0001:00042f90       ??0DNameNode@@IEAA@XZ      0000000180043f90 f i libvcruntimed:undname.obj
 0001:00042fb0       ??0Replicator@@QEAA@XZ     0000000180043fb0 f i libvcruntimed:undname.obj
 0001:00042ff0       ??0UnDecorator@@QEAA@PEBDP6APEADJ@ZK@Z 0000000180043ff0 f i libvcruntimed:undname.obj
 0001:000430a0       ??0_Nontrivial_dummy_type@std@@QEAA@XZ 00000001800440a0 f i libvcruntimed:undname.obj
 0001:000430b0       ??0charNode@@QEAA@D@Z      00000001800440b0 f i libvcruntimed:undname.obj
 0001:000430f0       ??0pDNameNode@@QEAA@PEAVDName@@@Z 00000001800440f0 f   libvcruntimed:undname.obj
 0001:00043170       ??0pairNode@@QEAA@PEBVDNameNode@@0@Z 0000000180044170 f i libvcruntimed:undname.obj
 0001:000431f0       ??2@YAPEAX_KAEAV_HeapManager@@H@Z 00000001800441f0 f   libvcruntimed:undname.obj
 0001:00043250       ??4DName@@QEAAAEAV0@AEBUStringLiteral@@@Z 0000000180044250 f   libvcruntimed:undname.obj
 0001:000432a0       ??4DName@@QEAAAEAV0@AEBV0@@Z 00000001800442a0 f   libvcruntimed:undname.obj
 0001:000432d0       ??4DName@@QEAAAEAV0@D@Z    00000001800442d0 f i libvcruntimed:undname.obj
 0001:00043310       ??4DName@@QEAAAEAV0@PEAV0@@Z 0000000180044310 f   libvcruntimed:undname.obj
 0001:000433e0       ??4DName@@QEAAAEAV0@W4DNameStatus@@@Z 00000001800443e0 f   libvcruntimed:undname.obj
 0001:00043470       ??AReplicator@@QEBA?AVDName@@H@Z 0000000180044470 f   libvcruntimed:undname.obj
 0001:00043500       ??B?$optional@_K@std@@QEBA_NXZ 0000000180044500 f i libvcruntimed:undname.obj
 0001:00043510       ??D?$optional@_K@std@@QEGAAAEA_KXZ 0000000180044510 f i libvcruntimed:undname.obj
 0001:00043520       ??H@YA?AVDName@@AEBUStringLiteral@@AEBV0@@Z 0000000180044520 f i libvcruntimed:undname.obj
 0001:00043570       ??H@YA?AVDName@@DAEBV0@@Z  0000000180044570 f i libvcruntimed:undname.obj
 0001:000435c0       ??H@YA?AVDName@@W4DNameStatus@@AEBV0@@Z 00000001800445c0 f i libvcruntimed:undname.obj
 0001:00043610       ??HDName@@QEBA?AV0@AEBUStringLiteral@@@Z 0000000180044610 f   libvcruntimed:undname.obj
 0001:00043660       ??HDName@@QEBA?AV0@AEBV0@@Z 0000000180044660 f   libvcruntimed:undname.obj
 0001:000436b0       ??HDName@@QEBA?AV0@D@Z     00000001800446b0 f   libvcruntimed:undname.obj
 0001:00043700       ??HDName@@QEBA?AV0@PEAV0@@Z 0000000180044700 f   libvcruntimed:undname.obj
 0001:00043750       ??HDName@@QEBA?AV0@W4DNameStatus@@@Z 0000000180044750 f   libvcruntimed:undname.obj
 0001:000437a0       ??HStringLiteral@@QEBA?AU0@H@Z 00000001800447a0 f i libvcruntimed:undname.obj
 0001:000437e0       ??YDName@@QEAAAEAV0@AEBUStringLiteral@@@Z 00000001800447e0 f   libvcruntimed:undname.obj
 0001:000438b0       ??YDName@@QEAAAEAV0@AEBV0@@Z 00000001800448b0 f   libvcruntimed:undname.obj
 0001:00043970       ??YDName@@QEAAAEAV0@D@Z    0000000180044970 f   libvcruntimed:undname.obj
 0001:00043a10       ??YDName@@QEAAAEAV0@PEAV0@@Z 0000000180044a10 f   libvcruntimed:undname.obj
 0001:00043af0       ??YDName@@QEAAAEAV0@W4DNameStatus@@@Z 0000000180044af0 f   libvcruntimed:undname.obj
 0001:00043b60       ??YReplicator@@QEAAAEAV0@AEBVDName@@@Z 0000000180044b60 f   libvcruntimed:undname.obj
 0001:00043c20       ??_5DName@@QEAAAEAV0@AEBV0@@Z 0000000180044c20 f   libvcruntimed:undname.obj
 0001:00043c90       ??__K_l@@YA?AUStringLiteral@@PEBD_K@Z 0000000180044c90 f i libvcruntimed:undname.obj
 0001:00043ce0       ?Constructor@_HeapManager@@QEAAXP6APEAX_K@ZP6AXPEAX@Z@Z 0000000180044ce0 f i libvcruntimed:undname.obj
 0001:00043d40       ?Destructor@_HeapManager@@QEAAXXZ 0000000180044d40 f i libvcruntimed:undname.obj
 0001:00043de0       ?UScore@UnDecorator@@SA?AUStringLiteral@@W4Tokens@@@Z 0000000180044de0 f   libvcruntimed:undname.obj
 0001:00043e70       ?composeDeclaration@UnDecorator@@CA?AVDName@@AEBV2@@Z 0000000180044e70 f i libvcruntimed:undname.obj
 0001:00046370       ?dbGetString@DName@@QEBAPEADXZ 0000000180047370 f   libvcruntimed:undname.obj
 0001:000463a0       ?doAccessSpecifiers@UnDecorator@@SAHXZ 00000001800473a0 f i libvcruntimed:undname.obj
 0001:000463d0       ?doAllocationLanguage@UnDecorator@@SAHXZ 00000001800473d0 f i libvcruntimed:undname.obj
 0001:00046400       ?doAllocationModel@UnDecorator@@SAHXZ 0000000180047400 f i libvcruntimed:undname.obj
 0001:00046430       ?doEcsu@UnDecorator@@SAHXZ 0000000180047430 f i libvcruntimed:undname.obj
 0001:00046460       ?doEllipsis@UnDecorator@@SAHXZ 0000000180047460 f i libvcruntimed:undname.obj
 0001:00046490       ?doFunctionReturns@UnDecorator@@SAHXZ 0000000180047490 f i libvcruntimed:undname.obj
 0001:000464c0       ?doMSKeywords@UnDecorator@@SAHXZ 00000001800474c0 f i libvcruntimed:undname.obj
 0001:000464f0       ?doMemberTypes@UnDecorator@@SAHXZ 00000001800474f0 f i libvcruntimed:undname.obj
 0001:00046520       ?doNameOnly@UnDecorator@@SAHXZ 0000000180047520 f i libvcruntimed:undname.obj
 0001:00046530       ?doNoIdentCharCheck@UnDecorator@@SAHXZ 0000000180047530 f i libvcruntimed:undname.obj
 0001:00046540       ?doPchar@DName@@AEAAXD@Z   0000000180047540 f   libvcruntimed:undname.obj
 0001:000465d0       ?doPtr64@UnDecorator@@SAHXZ 00000001800475d0 f i libvcruntimed:undname.obj
 0001:00046600       ?doRestrictionSpec@UnDecorator@@SAHXZ 0000000180047600 f i libvcruntimed:undname.obj
 0001:00046630       ?doThisTypes@UnDecorator@@SAHXZ 0000000180047630 f i libvcruntimed:undname.obj
 0001:00046660       ?doThrowTypes@UnDecorator@@SAHXZ 0000000180047660 f i libvcruntimed:undname.obj
 0001:00046690       ?doTypeOnly@UnDecorator@@SAHXZ 0000000180047690 f i libvcruntimed:undname.obj
 0001:000466a0       ?doUnderScore@UnDecorator@@SAHXZ 00000001800476a0 f i libvcruntimed:undname.obj
 0001:000466d0       ?getArgumentList@UnDecorator@@CA?AVDName@@XZ 00000001800476d0 f   libvcruntimed:undname.obj
 0001:00046870       ?getArgumentTypes@UnDecorator@@CA?AVDName@@XZ 0000000180047870 f   libvcruntimed:undname.obj
 0001:00046bd0       ?getArrayObject@UnDecorator@@CA?AVDName@@XZ 0000000180047bd0 f   libvcruntimed:undname.obj
 0001:00046cf0       ?getArrayType@UnDecorator@@CA?AVDName@@AEBV2@@Z 0000000180047cf0 f i libvcruntimed:undname.obj
 0001:000470b0       ?getBasedType@UnDecorator@@CA?AVDName@@XZ 00000001800480b0 f   libvcruntimed:undname.obj
 0001:00047220       ?getBasicDataType@UnDecorator@@CA?AVDName@@AEBV2@@Z 0000000180048220 f   libvcruntimed:undname.obj
 0001:00047ef0       ?getCHPEName@UnDecorator@@QEAAPEADPEADH@Z 0000000180048ef0 f i libvcruntimed:undname.obj
 0001:000480c0       ?getCallIndex@UnDecorator@@CA?AVDName@@XZ 00000001800490c0 f i libvcruntimed:undname.obj
 0001:000480e0       ?getCallingConvention@UnDecorator@@CA?AVDName@@XZ 00000001800490e0 f   libvcruntimed:undname.obj
 0001:00048480       ?getDataIndirectType@UnDecorator@@CA?AVDName@@AEBV2@W4IndirectionKind@@0H@Z 0000000180049480 f   libvcruntimed:undname.obj
 0001:00049120       ?getDataIndirectType@UnDecorator@@CA?AVDName@@XZ 000000018004a120 f i libvcruntimed:undname.obj
 0001:00049170       ?getDataType@UnDecorator@@CA?AVDName@@PEAV2@@Z 000000018004a170 f   libvcruntimed:undname.obj
 0001:00049350       ?getDecoratedName@UnDecorator@@CA?AVDName@@XZ 000000018004a350 f   libvcruntimed:undname.obj
 0001:00049840       ?getDimension@UnDecorator@@CA?AVDName@@_N@Z 000000018004a840 f   libvcruntimed:undname.obj
 0001:00049b50       ?getDispatchTarget@UnDecorator@@CA?AVDName@@XZ 000000018004ab50 f   libvcruntimed:undname.obj
 0001:00049c20       ?getDisplacement@UnDecorator@@CA?AVDName@@XZ 000000018004ac20 f i libvcruntimed:undname.obj
 0001:00049c40       ?getECSUDataType@UnDecorator@@CA?AVDName@@XZ 000000018004ac40 f   libvcruntimed:undname.obj
 0001:00049fd0       ?getECSUName@UnDecorator@@CA?AVDName@@XZ 000000018004afd0 f i libvcruntimed:undname.obj
 0001:00049ff0       ?getEnumType@UnDecorator@@CA?AVDName@@XZ 000000018004aff0 f i libvcruntimed:undname.obj
 0001:0004a280       ?getExtendedDataIndirectType@UnDecorator@@CA?AVDName@@AEAW4IndirectionKind@@AEA_NH@Z 000000018004b280 f   libvcruntimed:undname.obj
 0001:0004a5a0       ?getExternalDataType@UnDecorator@@CA?AVDName@@AEBV2@@Z 000000018004b5a0 f i libvcruntimed:undname.obj
 0001:0004a680       ?getFloatingPoint@UnDecorator@@CA?AVDName@@H@Z 000000018004b680 f   libvcruntimed:undname.obj
 0001:0004a8f0       ?getFunctionIndirectType@UnDecorator@@CA?AVDName@@AEBV2@@Z 000000018004b8f0 f   libvcruntimed:undname.obj
 0001:0004af20       ?getGuardNumber@UnDecorator@@CA?AVDName@@XZ 000000018004bf20 f i libvcruntimed:undname.obj
 0001:0004af40       ?getLastChar@DName@@QEBADXZ 000000018004bf40 f i libvcruntimed:undname.obj
 0001:0004af90       ?getLastChar@DNameStatusNode@@UEBADXZ 000000018004bf90 f i libvcruntimed:undname.obj
 0001:0004afd0       ?getLastChar@charNode@@UEBADXZ 000000018004bfd0 f i libvcruntimed:undname.obj
 0001:0004afe0       ?getLastChar@pDNameNode@@UEBADXZ 000000018004bfe0 f i libvcruntimed:undname.obj
 0001:0004b020       ?getLastChar@pairNode@@UEBADXZ 000000018004c020 f i libvcruntimed:undname.obj
 0001:0004b0a0       ?getLastChar@pcharNode@@UEBADXZ 000000018004c0a0 f i libvcruntimed:undname.obj
 0001:0004b0e0       ?getLexicalFrame@UnDecorator@@CA?AVDName@@XZ 000000018004c0e0 f i libvcruntimed:undname.obj
 0001:0004b130       ?getMemoryWithBuffer@_HeapManager@@QEAAPEAX_K@Z 000000018004c130 f   libvcruntimed:undname.obj
 0001:0004b280       ?getMemoryWithoutBuffer@_HeapManager@@QEAAPEAX_K@Z 000000018004c280 f   libvcruntimed:undname.obj
 0001:0004b2d0       ?getNoexcept@UnDecorator@@CA?AVDName@@XZ 000000018004c2d0 f   libvcruntimed:undname.obj
 0001:0004b380       ?getNumberOfDimensions@UnDecorator@@CAHXZ 000000018004c380 f   libvcruntimed:undname.obj
 0001:0004b4a0       ?getOperatorName@UnDecorator@@CA?AVDName@@_NPEA_N@Z 000000018004c4a0 f i libvcruntimed:undname.obj
 0001:0004c3b0       ?getPointerType@UnDecorator@@CA?AVDName@@AEBV2@0@Z 000000018004d3b0 f i libvcruntimed:undname.obj
 0001:0004c3f0       ?getPointerTypeArray@UnDecorator@@CA?AVDName@@AEBV2@0@Z 000000018004d3f0 f i libvcruntimed:undname.obj
 0001:0004c430       ?getPrimaryDataType@UnDecorator@@CA?AVDName@@AEBV2@@Z 000000018004d430 f   libvcruntimed:undname.obj
 0001:0004ca60       ?getPtrRefDataType@UnDecorator@@CA?AVDName@@AEBV2@H@Z 000000018004da60 f   libvcruntimed:undname.obj
 0001:0004ce50       ?getPtrRefType@UnDecorator@@CA?AVDName@@AEBV2@0W4IndirectionKind@@@Z 000000018004de50 f   libvcruntimed:undname.obj
 0001:0004d090       ?getReferenceType@UnDecorator@@CA?AVDName@@AEBV2@0W4IndirectionKind@@@Z 000000018004e090 f i libvcruntimed:undname.obj
 0001:0004d0d0       ?getRestrictionSpec@UnDecorator@@CA?AVDName@@XZ 000000018004e0d0 f   libvcruntimed:undname.obj
 0001:0004d360       ?getReturnType@UnDecorator@@CA?AVDName@@PEAV2@@Z 000000018004e360 f   libvcruntimed:undname.obj
 0001:0004d3c0       ?getScope@UnDecorator@@CA?AVDName@@XZ 000000018004e3c0 f   libvcruntimed:undname.obj
 0001:0004db10       ?getScopedName@UnDecorator@@CA?AVDName@@XZ 000000018004eb10 f   libvcruntimed:undname.obj
 0001:0004dd10       ?getSignedDimension@UnDecorator@@CA?AVDName@@XZ 000000018004ed10 f   libvcruntimed:undname.obj
 0001:0004dda0       ?getStorageConvention@UnDecorator@@CA?AVDName@@XZ 000000018004eda0 f i libvcruntimed:undname.obj
 0001:0004ddc0       ?getString@DName@@QEBAPEADPEAD0@Z 000000018004edc0 f i libvcruntimed:undname.obj
 0001:0004de40       ?getString@DName@@QEBAPEADPEADH@Z 000000018004ee40 f i libvcruntimed:undname.obj
 0001:0004df00       ?getString@DNameStatusNode@@UEBAPEADPEAD0@Z 000000018004ef00 f i libvcruntimed:undname.obj
 0001:0004df50       ?getString@charNode@@UEBAPEADPEAD0@Z 000000018004ef50 f i libvcruntimed:undname.obj
 0001:0004df90       ?getString@pDNameNode@@UEBAPEADPEAD0@Z 000000018004ef90 f i libvcruntimed:undname.obj
 0001:0004dff0       ?getString@pairNode@@UEBAPEADPEAD0@Z 000000018004eff0 f i libvcruntimed:undname.obj
 0001:0004e0c0       ?getString@pcharNode@@UEBAPEADPEAD0@Z 000000018004f0c0 f i libvcruntimed:undname.obj
 0001:0004e100       ?getStringEncoding@UnDecorator@@CA?AVDName@@W4PrefixKind@@H@Z 000000018004f100 f   libvcruntimed:undname.obj
 0001:0004e260       ?getStringHelper@@YAPEADPEADPEBD1H@Z 000000018004f260 f i libvcruntimed:undname.obj
 0001:0004e2d0       ?getStringObject@UnDecorator@@CA?AVDName@@XZ 000000018004f2d0 f   libvcruntimed:undname.obj
 0001:0004e3b0       ?getSymbolName@UnDecorator@@CA?AVDName@@XZ 000000018004f3b0 f i libvcruntimed:undname.obj
 0001:0004e450       ?getTemplateArgumentList@UnDecorator@@CA?AVDName@@XZ 000000018004f450 f   libvcruntimed:undname.obj
 0001:0004e790       ?getTemplateName@UnDecorator@@CA?AVDName@@_N@Z 000000018004f790 f   libvcruntimed:undname.obj
 0001:0004e9d0       ?getTemplateNonTypeArgument@UnDecorator@@CA?AVDName@@XZ 000000018004f9d0 f   libvcruntimed:undname.obj
 0001:0004f0f0       ?getTemplateTypeArgument@UnDecorator@@CA?AVDName@@XZ 00000001800500f0 f   libvcruntimed:undname.obj
 0001:0004f360       ?getThisType@UnDecorator@@CA?AVDName@@XZ 0000000180050360 f i libvcruntimed:undname.obj
 0001:0004f3b0       ?getThrowTypes@UnDecorator@@CA?AVDName@@XZ 00000001800503b0 f   libvcruntimed:undname.obj
 0001:0004f400       ?getTypeEncoding@UnDecorator@@CAHXZ 0000000180050400 f i libvcruntimed:undname.obj
 0001:00050030       ?getUndecoratedName@UnDecorator@@QEAAPEADPEADH@Z 0000000180051030 f i libvcruntimed:undname.obj
 0001:00050220       ?getVCallThunkType@UnDecorator@@CA?AVDName@@XZ 0000000180051220 f i libvcruntimed:undname.obj
 0001:000502d0       ?getValue@UnDecorator@@CA?AV?$optional@_K@std@@XZ 00000001800512d0 f   libvcruntimed:undname.obj
 0001:000503a0       ?getValueObject@UnDecorator@@CA?AVDName@@XZ 00000001800513a0 f   libvcruntimed:undname.obj
 0001:00050590       ?getVbTableType@UnDecorator@@CA?AVDName@@AEBV2@@Z 0000000180051590 f i libvcruntimed:undname.obj
 0001:000505c0       ?getVdispMapType@UnDecorator@@CA?AVDName@@AEBV2@@Z 00000001800515c0 f i libvcruntimed:undname.obj
 0001:00050680       ?getVfTableType@UnDecorator@@CA?AVDName@@AEBV2@@Z 0000000180051680 f i libvcruntimed:undname.obj
 0001:00050920       ?getZName@UnDecorator@@CA?AVDName@@_N0@Z 0000000180051920 f   libvcruntimed:undname.obj
 0001:00050db0       ?haveTemplateParameters@UnDecorator@@SAHXZ 0000000180051db0 f i libvcruntimed:undname.obj
 0001:00050dc0       ?isArray@DName@@QEBAHXZ    0000000180051dc0 f i libvcruntimed:undname.obj
 0001:00050de0       ?isComArray@DName@@QEBAHXZ 0000000180051de0 f i libvcruntimed:undname.obj
 0001:00050e00       ?isEmpty@DName@@QEBAHXZ    0000000180051e00 f i libvcruntimed:undname.obj
 0001:00050e30       ?isFull@Replicator@@QEBAHXZ 0000000180051e30 f i libvcruntimed:undname.obj
 0001:00050e60       ?isNoTE@DName@@QEBAHXZ     0000000180051e60 f i libvcruntimed:undname.obj
 0001:00050e80       ?isPinPtr@DName@@QEBAHXZ   0000000180051e80 f i libvcruntimed:undname.obj
 0001:00050ea0       ?isPtrRef@DName@@QEBAHXZ   0000000180051ea0 f i libvcruntimed:undname.obj
 0001:00050ec0       ?isUDC@DName@@QEBAHXZ      0000000180051ec0 f i libvcruntimed:undname.obj
 0001:00050f10       ?isUDTThunk@DName@@QEBAHXZ 0000000180051f10 f i libvcruntimed:undname.obj
 0001:00050f60       ?isVCallThunk@DName@@QEBAHXZ 0000000180051f60 f i libvcruntimed:undname.obj
 0001:00050f80       ?isValid@DName@@QEBAHXZ    0000000180051f80 f i libvcruntimed:undname.obj
 0001:00050fc0       ?length@DName@@QEBAHXZ     0000000180051fc0 f i libvcruntimed:undname.obj
 0001:00051010       ?length@DNameStatusNode@@UEBAHXZ 0000000180052010 f i libvcruntimed:undname.obj
 0001:00051020       ?length@charNode@@UEBAHXZ  0000000180052020 f i libvcruntimed:undname.obj
 0001:00051030       ?length@pDNameNode@@UEBAHXZ 0000000180052030 f i libvcruntimed:undname.obj
 0001:00051070       ?length@pairNode@@UEBAHXZ  0000000180052070 f i libvcruntimed:undname.obj
 0001:00051100       ?length@pcharNode@@UEBAHXZ 0000000180052100 f i libvcruntimed:undname.obj
 0001:00051110       ?make@DNameStatusNode@@SAPEBV1@W4DNameStatus@@@Z 0000000180052110 f i libvcruntimed:undname.obj
 0001:00051160       ?parseDecoratedName@UnDecorator@@CA?AVDName@@XZ 0000000180052160 f   libvcruntimed:undname.obj
 0001:00051350       ?raw_length@DNameStatusNode@@UEBAHXZ 0000000180052350 f i libvcruntimed:undname.obj
 0001:00051370       ?raw_length@charNode@@UEBAHXZ 0000000180052370 f i libvcruntimed:undname.obj
 0001:00051390       ?raw_length@pDNameNode@@UEBAHXZ 0000000180052390 f i libvcruntimed:undname.obj
 0001:000513a0       ?raw_length@pairNode@@UEBAHXZ 00000001800523a0 f i libvcruntimed:undname.obj
 0001:000513b0       ?raw_length@pcharNode@@UEBAHXZ 00000001800523b0 f i libvcruntimed:undname.obj
 0001:000513d0       ?setIsArray@DName@@QEAAXXZ 00000001800523d0 f i libvcruntimed:undname.obj
 0001:000513f0       ?setIsComArray@DName@@QEAAXXZ 00000001800523f0 f i libvcruntimed:undname.obj
 0001:00051410       ?setIsNoTE@DName@@QEAAXXZ  0000000180052410 f i libvcruntimed:undname.obj
 0001:00051430       ?setIsPinPtr@DName@@QEAAXXZ 0000000180052430 f i libvcruntimed:undname.obj
 0001:00051450       ?setIsUDC@DName@@QEAAXXZ   0000000180052450 f i libvcruntimed:undname.obj
 0001:00051480       ?setIsVCallThunk@DName@@QEAAXXZ 0000000180052480 f i libvcruntimed:undname.obj
 0001:000514a0       ?setPtrRef@DName@@QEAAAEAV1@XZ 00000001800524a0 f i libvcruntimed:undname.obj
 0001:000514c0       ?status@DName@@QEBA?AW4DNameStatus@@XZ 00000001800524c0 f i libvcruntimed:undname.obj
 0001:000515f0       __unDName                  00000001800525f0 f   libvcruntimed:undname.obj
 0001:00051650       __unDNameEx                0000000180052650 f   libvcruntimed:undname.obj
 0001:00051710       unDNameGenerateCHPE        0000000180052710 f   libvcruntimed:undname.obj
 0001:000517c0       ??$__crt_interlocked_exchange_pointer@UHINSTANCE__@@PEAU1@@@YAPEAUHINSTANCE__@@PEDSEAU0@QEAU0@@Z 00000001800527c0 f i libvcruntimed:winapi_downlevel.obj
 0001:000517e0       ??$__crt_interlocked_exchange_pointer@UHINSTANCE__@@PEAX@@YAPEAUHINSTANCE__@@PEDSEAU0@QEAX@Z 00000001800527e0 f i libvcruntimed:winapi_downlevel.obj
 0001:00051800       ??$__crt_interlocked_exchange_pointer@XPEAX@@YAPEAXPEDSEAXQEAX@Z 0000000180052800 f i libvcruntimed:winapi_downlevel.obj
 0001:00051820       ??$__crt_interlocked_read_pointer@UHINSTANCE__@@@@YAPEAUHINSTANCE__@@PEDSEAU0@@Z 0000000180052820 f i libvcruntimed:winapi_downlevel.obj
 0001:00051840       ??$__crt_interlocked_read_pointer@X@@YAPEAXPEDSEAX@Z 0000000180052840 f i libvcruntimed:winapi_downlevel.obj
 0001:00051d50       __vcrt_FlsAlloc            0000000180052d50 f   libvcruntimed:winapi_downlevel.obj
 0001:00051da0       __vcrt_FlsFree             0000000180052da0 f   libvcruntimed:winapi_downlevel.obj
 0001:00051df0       __vcrt_FlsGetValue         0000000180052df0 f   libvcruntimed:winapi_downlevel.obj
 0001:00051e40       __vcrt_FlsSetValue         0000000180052e40 f   libvcruntimed:winapi_downlevel.obj
 0001:00051ea0       __vcrt_InitializeCriticalSectionEx 0000000180052ea0 f   libvcruntimed:winapi_downlevel.obj
 0001:00051f20       _CallSettingFrame          0000000180052f20 f   libvcruntimed:handlers.obj
 0001:00051f70       _CallSettingFrame_LookupContinuationIndex 0000000180052f70 f   libvcruntimed:handlers.obj
 0001:00051fa0       _CallSettingFrame_NotifyContinuationAddr 0000000180052fa0 f   libvcruntimed:handlers.obj
 0001:00051fd0       _CallSettingFrameEncoded   0000000180052fd0 f   libvcruntimed:handlers.obj
 0001:00052020       ??$?0AEBV?$stream_output_adapter@D@__crt_stdio_output@@AEB_KAEBQEBDAEBQEAU__crt_locale_pointers@@AEBQEAD@?$format_validation_base@DV?$stream_output_adapter@D@__crt_stdio_output@@@__crt_stdio_output@@IEAA@AEBV?$stream_output_adapter@D@1@AEB_KAEBQEBDAEBQEAU__crt_locale_pointers@@AEBQEAD@Z 0000000180053020 f i libucrtd:output.obj
 0001:00052070       ??$?0AEBV?$stream_output_adapter@D@__crt_stdio_output@@AEB_KAEBQEBDAEBQEAU__crt_locale_pointers@@AEBQEAD@?$positional_parameter_base@DV?$stream_output_adapter@D@__crt_stdio_output@@@__crt_stdio_output@@IEAA@AEBV?$stream_output_adapter@D@1@AEB_KAEBQEBDAEBQEAU__crt_locale_pointers@@AEBQEAD@Z 0000000180053070 f i libucrtd:output.obj
 0001:00052110       ??$?0AEBV?$stream_output_adapter@D@__crt_stdio_output@@AEB_KAEBQEBDAEBQEAU__crt_locale_pointers@@AEBQEAD@?$standard_base@DV?$stream_output_adapter@D@__crt_stdio_output@@@__crt_stdio_output@@IEAA@AEBV?$stream_output_adapter@D@1@AEB_KAEBQEBDAEBQEAU__crt_locale_pointers@@AEBQEAD@Z 0000000180053110 f i libucrtd:output.obj
 0001:00052180       ??$?0AEBV?$stream_output_adapter@_W@__crt_stdio_output@@AEB_KAEBQEB_WAEBQEAU__crt_locale_pointers@@AEBQEAD@?$format_validation_base@_WV?$stream_output_adapter@_W@__crt_stdio_output@@@__crt_stdio_output@@IEAA@AEBV?$stream_output_adapter@_W@1@AEB_KAEBQEB_WAEBQEAU__crt_locale_pointers@@AEBQEAD@Z 0000000180053180 f i libucrtd:output.obj
 0001:000521d0       ??$?0AEBV?$stream_output_adapter@_W@__crt_stdio_output@@AEB_KAEBQEB_WAEBQEAU__crt_locale_pointers@@AEBQEAD@?$positional_parameter_base@_WV?$stream_output_adapter@_W@__crt_stdio_output@@@__crt_stdio_output@@IEAA@AEBV?$stream_output_adapter@_W@1@AEB_KAEBQEB_WAEBQEAU__crt_locale_pointers@@AEBQEAD@Z 00000001800531d0 f i libucrtd:output.obj
 0001:00052270       ??$?0AEBV?$stream_output_adapter@_W@__crt_stdio_output@@AEB_KAEBQEB_WAEBQEAU__crt_locale_pointers@@AEBQEAD@?$standard_base@_WV?$stream_output_adapter@_W@__crt_stdio_output@@@__crt_stdio_output@@IEAA@AEBV?$stream_output_adapter@_W@1@AEB_KAEBQEB_WAEBQEAU__crt_locale_pointers@@AEBQEAD@Z 0000000180053270 f i libucrtd:output.obj
 0001:000522e0       ??$?0AEBV?$string_output_adapter@D@__crt_stdio_output@@AEB_KAEBQEBDAEBQEAU__crt_locale_pointers@@AEBQEAD@?$format_validation_base@DV?$string_output_adapter@D@__crt_stdio_output@@@__crt_stdio_output@@IEAA@AEBV?$string_output_adapter@D@1@AEB_KAEBQEBDAEBQEAU__crt_locale_pointers@@AEBQEAD@Z 00000001800532e0 f i libucrtd:output.obj
 0001:00052330       ??$?0AEBV?$string_output_adapter@D@__crt_stdio_output@@AEB_KAEBQEBDAEBQEAU__crt_locale_pointers@@AEBQEAD@?$positional_parameter_base@DV?$string_output_adapter@D@__crt_stdio_output@@@__crt_stdio_output@@IEAA@AEBV?$string_output_adapter@D@1@AEB_KAEBQEBDAEBQEAU__crt_locale_pointers@@AEBQEAD@Z 0000000180053330 f i libucrtd:output.obj
 0001:000523d0       ??$?0AEBV?$string_output_adapter@D@__crt_stdio_output@@AEB_KAEBQEBDAEBQEAU__crt_locale_pointers@@AEBQEAD@?$standard_base@DV?$string_output_adapter@D@__crt_stdio_output@@@__crt_stdio_output@@IEAA@AEBV?$string_output_adapter@D@1@AEB_KAEBQEBDAEBQEAU__crt_locale_pointers@@AEBQEAD@Z 00000001800533d0 f i libucrtd:output.obj
 0001:00052440       ??$?0AEBV?$string_output_adapter@_W@__crt_stdio_output@@AEB_KAEBQEB_WAEBQEAU__crt_locale_pointers@@AEBQEAD@?$format_validation_base@_WV?$string_output_adapter@_W@__crt_stdio_output@@@__crt_stdio_output@@IEAA@AEBV?$string_output_adapter@_W@1@AEB_KAEBQEB_WAEBQEAU__crt_locale_pointers@@AEBQEAD@Z 0000000180053440 f i libucrtd:output.obj
 0001:00052490       ??$?0AEBV?$string_output_adapter@_W@__crt_stdio_output@@AEB_KAEBQEB_WAEBQEAU__crt_locale_pointers@@AEBQEAD@?$positional_parameter_base@_WV?$string_output_adapter@_W@__crt_stdio_output@@@__crt_stdio_output@@IEAA@AEBV?$string_output_adapter@_W@1@AEB_KAEBQEB_WAEBQEAU__crt_locale_pointers@@AEBQEAD@Z 0000000180053490 f i libucrtd:output.obj
 0001:00052530       ??$?0AEBV?$string_output_adapter@_W@__crt_stdio_output@@AEB_KAEBQEB_WAEBQEAU__crt_locale_pointers@@AEBQEAD@?$standard_base@_WV?$string_output_adapter@_W@__crt_stdio_output@@@__crt_stdio_output@@IEAA@AEBV?$string_output_adapter@_W@1@AEB_KAEBQEB_WAEBQEAU__crt_locale_pointers@@AEBQEAD@Z 0000000180053530 f i libucrtd:output.obj
 0001:00052960       ??$__crt_interlocked_read@J@@YAJPEDJ@Z 0000000180053960 f i libucrtd:output.obj
 0001:00056440       ??$count@D@formatting_buffer@__crt_stdio_output@@QEBA_KXZ 0000000180057440 f i libucrtd:output.obj
 0001:00056490       ??$count@_W@formatting_buffer@__crt_stdio_output@@QEBA_KXZ 0000000180057490 f i libucrtd:output.obj
 0001:000564e0       ??$data@D@formatting_buffer@__crt_stdio_output@@QEAAPEADXZ 00000001800574e0 f i libucrtd:output.obj
 0001:00056530       ??$data@_W@formatting_buffer@__crt_stdio_output@@QEAAPEA_WXZ 0000000180057530 f i libucrtd:output.obj
 0001:00056580       ??$ensure_buffer_is_big_enough@D@formatting_buffer@__crt_stdio_output@@QEAA_N_K@Z 0000000180057580 f i libucrtd:output.obj
 0001:000566b0       ??$ensure_buffer_is_big_enough@_W@formatting_buffer@__crt_stdio_output@@QEAA_N_K@Z 00000001800576b0 f i libucrtd:output.obj
 0001:000567e0       ??$extract_argument_from_va_list@C_J@?$positional_parameter_base@DV?$stream_output_adapter@D@__crt_stdio_output@@@__crt_stdio_output@@IEAA_NAEA_J@Z 00000001800577e0 f i libucrtd:output.obj
 0001:00056960       ??$extract_argument_from_va_list@C_J@?$positional_parameter_base@DV?$string_output_adapter@D@__crt_stdio_output@@@__crt_stdio_output@@IEAA_NAEA_J@Z 0000000180057960 f i libucrtd:output.obj
 0001:00056ae0       ??$extract_argument_from_va_list@C_J@?$positional_parameter_base@_WV?$stream_output_adapter@_W@__crt_stdio_output@@@__crt_stdio_output@@IEAA_NAEA_J@Z 0000000180057ae0 f i libucrtd:output.obj
 0001:00056c60       ??$extract_argument_from_va_list@C_J@?$positional_parameter_base@_WV?$string_output_adapter@_W@__crt_stdio_output@@@__crt_stdio_output@@IEAA_NAEA_J@Z 0000000180057c60 f i libucrtd:output.obj
 0001:00056de0       ??$extract_argument_from_va_list@C_J@?$standard_base@DV?$stream_output_adapter@D@__crt_stdio_output@@@__crt_stdio_output@@IEAA_NAEA_J@Z 0000000180057de0 f i libucrtd:output.obj
 0001:00056e20       ??$extract_argument_from_va_list@C_J@?$standard_base@DV?$string_output_adapter@D@__crt_stdio_output@@@__crt_stdio_output@@IEAA_NAEA_J@Z 0000000180057e20 f i libucrtd:output.obj
 0001:00056e60       ??$extract_argument_from_va_list@C_J@?$standard_base@_WV?$stream_output_adapter@_W@__crt_stdio_output@@@__crt_stdio_output@@IEAA_NAEA_J@Z 0000000180057e60 f i libucrtd:output.obj
 0001:00056ea0       ??$extract_argument_from_va_list@C_J@?$standard_base@_WV?$string_output_adapter@_W@__crt_stdio_output@@@__crt_stdio_output@@IEAA_NAEA_J@Z 0000000180057ea0 f i libucrtd:output.obj
 0001:00056ee0       ??$extract_argument_from_va_list@E_J@?$positional_parameter_base@DV?$stream_output_adapter@D@__crt_stdio_output@@@__crt_stdio_output@@IEAA_NAEA_J@Z 0000000180057ee0 f i libucrtd:output.obj
 0001:00057060       ??$extract_argument_from_va_list@E_J@?$positional_parameter_base@DV?$string_output_adapter@D@__crt_stdio_output@@@__crt_stdio_output@@IEAA_NAEA_J@Z 0000000180058060 f i libucrtd:output.obj
 0001:000571e0       ??$extract_argument_from_va_list@E_J@?$positional_parameter_base@_WV?$stream_output_adapter@_W@__crt_stdio_output@@@__crt_stdio_output@@IEAA_NAEA_J@Z 00000001800581e0 f i libucrtd:output.obj
 0001:00057360       ??$extract_argument_from_va_list@E_J@?$positional_parameter_base@_WV?$string_output_adapter@_W@__crt_stdio_output@@@__crt_stdio_output@@IEAA_NAEA_J@Z 0000000180058360 f i libucrtd:output.obj
 0001:000574e0       ??$extract_argument_from_va_list@E_J@?$standard_base@DV?$stream_output_adapter@D@__crt_stdio_output@@@__crt_stdio_output@@IEAA_NAEA_J@Z 00000001800584e0 f i libucrtd:output.obj
 0001:00057520       ??$extract_argument_from_va_list@E_J@?$standard_base@DV?$string_output_adapter@D@__crt_stdio_output@@@__crt_stdio_output@@IEAA_NAEA_J@Z 0000000180058520 f i libucrtd:output.obj
 0001:00057560       ??$extract_argument_from_va_list@E_J@?$standard_base@_WV?$stream_output_adapter@_W@__crt_stdio_output@@@__crt_stdio_output@@IEAA_NAEA_J@Z 0000000180058560 f i libucrtd:output.obj
 0001:000575a0       ??$extract_argument_from_va_list@E_J@?$standard_base@_WV?$string_output_adapter@_W@__crt_stdio_output@@@__crt_stdio_output@@IEAA_NAEA_J@Z 00000001800585a0 f i libucrtd:output.obj
 0001:000575e0       ??$extract_argument_from_va_list@F_J@?$positional_parameter_base@DV?$stream_output_adapter@D@__crt_stdio_output@@@__crt_stdio_output@@IEAA_NAEA_J@Z 00000001800585e0 f i libucrtd:output.obj
 0001:00057760       ??$extract_argument_from_va_list@F_J@?$positional_parameter_base@DV?$string_output_adapter@D@__crt_stdio_output@@@__crt_stdio_output@@IEAA_NAEA_J@Z 0000000180058760 f i libucrtd:output.obj
 0001:000578e0       ??$extract_argument_from_va_list@F_J@?$positional_parameter_base@_WV?$stream_output_adapter@_W@__crt_stdio_output@@@__crt_stdio_output@@IEAA_NAEA_J@Z 00000001800588e0 f i libucrtd:output.obj
 0001:00057a60       ??$extract_argument_from_va_list@F_J@?$positional_parameter_base@_WV?$string_output_adapter@_W@__crt_stdio_output@@@__crt_stdio_output@@IEAA_NAEA_J@Z 0000000180058a60 f i libucrtd:output.obj
 0001:00057be0       ??$extract_argument_from_va_list@F_J@?$standard_base@DV?$stream_output_adapter@D@__crt_stdio_output@@@__crt_stdio_output@@IEAA_NAEA_J@Z 0000000180058be0 f i libucrtd:output.obj
 0001:00057c20       ??$extract_argument_from_va_list@F_J@?$standard_base@DV?$string_output_adapter@D@__crt_stdio_output@@@__crt_stdio_output@@IEAA_NAEA_J@Z 0000000180058c20 f i libucrtd:output.obj
 0001:00057c60       ??$extract_argument_from_va_list@F_J@?$standard_base@_WV?$stream_output_adapter@_W@__crt_stdio_output@@@__crt_stdio_output@@IEAA_NAEA_J@Z 0000000180058c60 f i libucrtd:output.obj
 0001:00057ca0       ??$extract_argument_from_va_list@F_J@?$standard_base@_WV?$string_output_adapter@_W@__crt_stdio_output@@@__crt_stdio_output@@IEAA_NAEA_J@Z 0000000180058ca0 f i libucrtd:output.obj
 0001:00057ce0       ??$extract_argument_from_va_list@GD@?$positional_parameter_base@DV?$stream_output_adapter@D@__crt_stdio_output@@@__crt_stdio_output@@IEAA_NAEAD@Z 0000000180058ce0 f i libucrtd:output.obj
 0001:00057e60       ??$extract_argument_from_va_list@GD@?$positional_parameter_base@DV?$string_output_adapter@D@__crt_stdio_output@@@__crt_stdio_output@@IEAA_NAEAD@Z 0000000180058e60 f i libucrtd:output.obj
 0001:00057fe0       ??$extract_argument_from_va_list@GD@?$standard_base@DV?$stream_output_adapter@D@__crt_stdio_output@@@__crt_stdio_output@@IEAA_NAEAD@Z 0000000180058fe0 f i libucrtd:output.obj
 0001:00058010       ??$extract_argument_from_va_list@GD@?$standard_base@DV?$string_output_adapter@D@__crt_stdio_output@@@__crt_stdio_output@@IEAA_NAEAD@Z 0000000180059010 f i libucrtd:output.obj
 0001:00058040       ??$extract_argument_from_va_list@G_J@?$positional_parameter_base@DV?$stream_output_adapter@D@__crt_stdio_output@@@__crt_stdio_output@@IEAA_NAEA_J@Z 0000000180059040 f i libucrtd:output.obj
 0001:000581c0       ??$extract_argument_from_va_list@G_J@?$positional_parameter_base@DV?$string_output_adapter@D@__crt_stdio_output@@@__crt_stdio_output@@IEAA_NAEA_J@Z 00000001800591c0 f i libucrtd:output.obj
 0001:00058340       ??$extract_argument_from_va_list@G_J@?$positional_parameter_base@_WV?$stream_output_adapter@_W@__crt_stdio_output@@@__crt_stdio_output@@IEAA_NAEA_J@Z 0000000180059340 f i libucrtd:output.obj
 0001:000584c0       ??$extract_argument_from_va_list@G_J@?$positional_parameter_base@_WV?$string_output_adapter@_W@__crt_stdio_output@@@__crt_stdio_output@@IEAA_NAEA_J@Z 00000001800594c0 f i libucrtd:output.obj
 0001:00058640       ??$extract_argument_from_va_list@G_J@?$standard_base@DV?$stream_output_adapter@D@__crt_stdio_output@@@__crt_stdio_output@@IEAA_NAEA_J@Z 0000000180059640 f i libucrtd:output.obj
 0001:00058680       ??$extract_argument_from_va_list@G_J@?$standard_base@DV?$string_output_adapter@D@__crt_stdio_output@@@__crt_stdio_output@@IEAA_NAEA_J@Z 0000000180059680 f i libucrtd:output.obj
 0001:000586c0       ??$extract_argument_from_va_list@G_J@?$standard_base@_WV?$stream_output_adapter@_W@__crt_stdio_output@@@__crt_stdio_output@@IEAA_NAEA_J@Z 00000001800596c0 f i libucrtd:output.obj
 0001:00058700       ??$extract_argument_from_va_list@G_J@?$standard_base@_WV?$string_output_adapter@_W@__crt_stdio_output@@@__crt_stdio_output@@IEAA_NAEA_J@Z 0000000180059700 f i libucrtd:output.obj
 0001:00058740       ??$extract_argument_from_va_list@H_J@?$positional_parameter_base@DV?$stream_output_adapter@D@__crt_stdio_output@@@__crt_stdio_output@@IEAA_NAEA_J@Z 0000000180059740 f i libucrtd:output.obj
 0001:000588c0       ??$extract_argument_from_va_list@H_J@?$positional_parameter_base@DV?$string_output_adapter@D@__crt_stdio_output@@@__crt_stdio_output@@IEAA_NAEA_J@Z 00000001800598c0 f i libucrtd:output.obj
 0001:00058a40       ??$extract_argument_from_va_list@H_J@?$positional_parameter_base@_WV?$stream_output_adapter@_W@__crt_stdio_output@@@__crt_stdio_output@@IEAA_NAEA_J@Z 0000000180059a40 f i libucrtd:output.obj
 0001:00058bc0       ??$extract_argument_from_va_list@H_J@?$positional_parameter_base@_WV?$string_output_adapter@_W@__crt_stdio_output@@@__crt_stdio_output@@IEAA_NAEA_J@Z 0000000180059bc0 f i libucrtd:output.obj
 0001:00058d40       ??$extract_argument_from_va_list@H_J@?$standard_base@DV?$stream_output_adapter@D@__crt_stdio_output@@@__crt_stdio_output@@IEAA_NAEA_J@Z 0000000180059d40 f i libucrtd:output.obj
 0001:00058d70       ??$extract_argument_from_va_list@H_J@?$standard_base@DV?$string_output_adapter@D@__crt_stdio_output@@@__crt_stdio_output@@IEAA_NAEA_J@Z 0000000180059d70 f i libucrtd:output.obj
 0001:00058da0       ??$extract_argument_from_va_list@H_J@?$standard_base@_WV?$stream_output_adapter@_W@__crt_stdio_output@@@__crt_stdio_output@@IEAA_NAEA_J@Z 0000000180059da0 f i libucrtd:output.obj
 0001:00058dd0       ??$extract_argument_from_va_list@H_J@?$standard_base@_WV?$string_output_adapter@_W@__crt_stdio_output@@@__crt_stdio_output@@IEAA_NAEA_J@Z 0000000180059dd0 f i libucrtd:output.obj
 0001:00058e00       ??$extract_argument_from_va_list@I_J@?$positional_parameter_base@DV?$stream_output_adapter@D@__crt_stdio_output@@@__crt_stdio_output@@IEAA_NAEA_J@Z 0000000180059e00 f i libucrtd:output.obj
 0001:00058f80       ??$extract_argument_from_va_list@I_J@?$positional_parameter_base@DV?$string_output_adapter@D@__crt_stdio_output@@@__crt_stdio_output@@IEAA_NAEA_J@Z 0000000180059f80 f i libucrtd:output.obj
 0001:00059100       ??$extract_argument_from_va_list@I_J@?$positional_parameter_base@_WV?$stream_output_adapter@_W@__crt_stdio_output@@@__crt_stdio_output@@IEAA_NAEA_J@Z 000000018005a100 f i libucrtd:output.obj
 0001:00059280       ??$extract_argument_from_va_list@I_J@?$positional_parameter_base@_WV?$string_output_adapter@_W@__crt_stdio_output@@@__crt_stdio_output@@IEAA_NAEA_J@Z 000000018005a280 f i libucrtd:output.obj
 0001:00059400       ??$extract_argument_from_va_list@I_J@?$standard_base@DV?$stream_output_adapter@D@__crt_stdio_output@@@__crt_stdio_output@@IEAA_NAEA_J@Z 000000018005a400 f i libucrtd:output.obj
 0001:00059430       ??$extract_argument_from_va_list@I_J@?$standard_base@DV?$string_output_adapter@D@__crt_stdio_output@@@__crt_stdio_output@@IEAA_NAEA_J@Z 000000018005a430 f i libucrtd:output.obj
 0001:00059460       ??$extract_argument_from_va_list@I_J@?$standard_base@_WV?$stream_output_adapter@_W@__crt_stdio_output@@@__crt_stdio_output@@IEAA_NAEA_J@Z 000000018005a460 f i libucrtd:output.obj
 0001:00059490       ??$extract_argument_from_va_list@I_J@?$standard_base@_WV?$string_output_adapter@_W@__crt_stdio_output@@@__crt_stdio_output@@IEAA_NAEA_J@Z 000000018005a490 f i libucrtd:output.obj
 0001:000594c0       ??$extract_argument_from_va_list@PEADPEAD@?$positional_parameter_base@DV?$stream_output_adapter@D@__crt_stdio_output@@@__crt_stdio_output@@IEAA_NAEAPEAD@Z 000000018005a4c0 f i libucrtd:output.obj
 0001:00059640       ??$extract_argument_from_va_list@PEADPEAD@?$positional_parameter_base@DV?$string_output_adapter@D@__crt_stdio_output@@@__crt_stdio_output@@IEAA_NAEAPEAD@Z 000000018005a640 f i libucrtd:output.obj
 0001:000597c0       ??$extract_argument_from_va_list@PEADPEAD@?$positional_parameter_base@_WV?$stream_output_adapter@_W@__crt_stdio_output@@@__crt_stdio_output@@IEAA_NAEAPEAD@Z 000000018005a7c0 f i libucrtd:output.obj
 0001:00059940       ??$extract_argument_from_va_list@PEADPEAD@?$positional_parameter_base@_WV?$string_output_adapter@_W@__crt_stdio_output@@@__crt_stdio_output@@IEAA_NAEAPEAD@Z 000000018005a940 f i libucrtd:output.obj
 0001:00059ac0       ??$extract_argument_from_va_list@PEADPEAD@?$standard_base@DV?$stream_output_adapter@D@__crt_stdio_output@@@__crt_stdio_output@@IEAA_NAEAPEAD@Z 000000018005aac0 f i libucrtd:output.obj
 0001:00059af0       ??$extract_argument_from_va_list@PEADPEAD@?$standard_base@DV?$string_output_adapter@D@__crt_stdio_output@@@__crt_stdio_output@@IEAA_NAEAPEAD@Z 000000018005aaf0 f i libucrtd:output.obj
 0001:00059b20       ??$extract_argument_from_va_list@PEADPEAD@?$standard_base@_WV?$stream_output_adapter@_W@__crt_stdio_output@@@__crt_stdio_output@@IEAA_NAEAPEAD@Z 000000018005ab20 f i libucrtd:output.obj
 0001:00059b50       ??$extract_argument_from_va_list@PEADPEAD@?$standard_base@_WV?$string_output_adapter@_W@__crt_stdio_output@@@__crt_stdio_output@@IEAA_NAEAPEAD@Z 000000018005ab50 f i libucrtd:output.obj
 0001:00059b80       ??$extract_argument_from_va_list@PEAUansi_string@?1??type_case_Z@?$output_processor@DV?$stream_output_adapter@D@__crt_stdio_output@@V?$format_validation_base@DV?$stream_output_adapter@D@__crt_stdio_output@@@2@@__crt_stdio_output@@AEAA_NXZ@PEAU1?1??234@AEAA_NXZ@@?$standard_base@DV?$stream_output_adapter@D@__crt_stdio_output@@@__crt_stdio_output@@IEAA_NAEAPEAUansi_string@?1??type_case_Z@?$output_processor@DV?$stream_output_adapter@D@__crt_stdio_output@@V?$format_validation_base@DV?$stream_output_adapter@D@__crt_stdio_output@@@2@@1@AEAA_NXZ@@Z 000000018005ab80 f i libucrtd:output.obj
 0001:00059bb0       ??$extract_argument_from_va_list@PEAUansi_string@?1??type_case_Z@?$output_processor@DV?$stream_output_adapter@D@__crt_stdio_output@@V?$positional_parameter_base@DV?$stream_output_adapter@D@__crt_stdio_output@@@2@@__crt_stdio_output@@AEAA_NXZ@PEAU1?1??234@AEAA_NXZ@@?$positional_parameter_base@DV?$stream_output_adapter@D@__crt_stdio_output@@@__crt_stdio_output@@IEAA_NAEAPEAUansi_string@?1??type_case_Z@?$output_processor@DV?$stream_output_adapter@D@__crt_stdio_output@@V?$positional_parameter_base@DV?$stream_output_adapter@D@__crt_stdio_output@@@2@@1@AEAA_NXZ@@Z 000000018005abb0 f i libucrtd:output.obj
 0001:00059d30       ??$extract_argument_from_va_list@PEAUansi_string@?1??type_case_Z@?$output_processor@DV?$stream_output_adapter@D@__crt_stdio_output@@V?$positional_parameter_base@DV?$stream_output_adapter@D@__crt_stdio_output@@@2@@__crt_stdio_output@@AEAA_NXZ@PEAU1?1??234@AEAA_NXZ@@?$standard_base@DV?$stream_output_adapter@D@__crt_stdio_output@@@__crt_stdio_output@@IEAA_NAEAPEAUansi_string@?1??type_case_Z@?$output_processor@DV?$stream_output_adapter@D@__crt_stdio_output@@V?$positional_parameter_base@DV?$stream_output_adapter@D@__crt_stdio_output@@@2@@1@AEAA_NXZ@@Z 000000018005ad30 f i libucrtd:output.obj
 0001:00059d60       ??$extract_argument_from_va_list@PEAUansi_string@?1??type_case_Z@?$output_processor@DV?$stream_output_adapter@D@__crt_stdio_output@@V?$standard_base@DV?$stream_output_adapter@D@__crt_stdio_output@@@2@@__crt_stdio_output@@AEAA_NXZ@PEAU1?1??234@AEAA_NXZ@@?$standard_base@DV?$stream_output_adapter@D@__crt_stdio_output@@@__crt_stdio_output@@IEAA_NAEAPEAUansi_string@?1??type_case_Z@?$output_processor@DV?$stream_output_adapter@D@__crt_stdio_output@@V?$standard_base@DV?$stream_output_adapter@D@__crt_stdio_output@@@2@@1@AEAA_NXZ@@Z 000000018005ad60 f i libucrtd:output.obj
 0001:00059d90       ??$extract_argument_from_va_list@PEAUansi_string@?1??type_case_Z@?$output_processor@DV?$string_output_adapter@D@__crt_stdio_output@@V?$format_validation_base@DV?$string_output_adapter@D@__crt_stdio_output@@@2@@__crt_stdio_output@@AEAA_NXZ@PEAU1?1??234@AEAA_NXZ@@?$standard_base@DV?$string_output_adapter@D@__crt_stdio_output@@@__crt_stdio_output@@IEAA_NAEAPEAUansi_string@?1??type_case_Z@?$output_processor@DV?$string_output_adapter@D@__crt_stdio_output@@V?$format_validation_base@DV?$string_output_adapter@D@__crt_stdio_output@@@2@@1@AEAA_NXZ@@Z 000000018005ad90 f i libucrtd:output.obj
 0001:00059dc0       ??$extract_argument_from_va_list@PEAUansi_string@?1??type_case_Z@?$output_processor@DV?$string_output_adapter@D@__crt_stdio_output@@V?$positional_parameter_base@DV?$string_output_adapter@D@__crt_stdio_output@@@2@@__crt_stdio_output@@AEAA_NXZ@PEAU1?1??234@AEAA_NXZ@@?$positional_parameter_base@DV?$string_output_adapter@D@__crt_stdio_output@@@__crt_stdio_output@@IEAA_NAEAPEAUansi_string@?1??type_case_Z@?$output_processor@DV?$string_output_adapter@D@__crt_stdio_output@@V?$positional_parameter_base@DV?$string_output_adapter@D@__crt_stdio_output@@@2@@1@AEAA_NXZ@@Z 000000018005adc0 f i libucrtd:output.obj
 0001:00059f40       ??$extract_argument_from_va_list@PEAUansi_string@?1??type_case_Z@?$output_processor@DV?$string_output_adapter@D@__crt_stdio_output@@V?$positional_parameter_base@DV?$string_output_adapter@D@__crt_stdio_output@@@2@@__crt_stdio_output@@AEAA_NXZ@PEAU1?1??234@AEAA_NXZ@@?$standard_base@DV?$string_output_adapter@D@__crt_stdio_output@@@__crt_stdio_output@@IEAA_NAEAPEAUansi_string@?1??type_case_Z@?$output_processor@DV?$string_output_adapter@D@__crt_stdio_output@@V?$positional_parameter_base@DV?$string_output_adapter@D@__crt_stdio_output@@@2@@1@AEAA_NXZ@@Z 000000018005af40 f i libucrtd:output.obj
 0001:00059f70       ??$extract_argument_from_va_list@PEAUansi_string@?1??type_case_Z@?$output_processor@DV?$string_output_adapter@D@__crt_stdio_output@@V?$standard_base@DV?$string_output_adapter@D@__crt_stdio_output@@@2@@__crt_stdio_output@@AEAA_NXZ@PEAU1?1??234@AEAA_NXZ@@?$standard_base@DV?$string_output_adapter@D@__crt_stdio_output@@@__crt_stdio_output@@IEAA_NAEAPEAUansi_string@?1??type_case_Z@?$output_processor@DV?$string_output_adapter@D@__crt_stdio_output@@V?$standard_base@DV?$string_output_adapter@D@__crt_stdio_output@@@2@@1@AEAA_NXZ@@Z 000000018005af70 f i libucrtd:output.obj
 0001:00059fa0       ??$extract_argument_from_va_list@PEAUansi_string@?1??type_case_Z@?$output_processor@_WV?$stream_output_adapter@_W@__crt_stdio_output@@V?$format_validation_base@_WV?$stream_output_adapter@_W@__crt_stdio_output@@@2@@__crt_stdio_output@@AEAA_NXZ@PEAU1?1??234@AEAA_NXZ@@?$standard_base@_WV?$stream_output_adapter@_W@__crt_stdio_output@@@__crt_stdio_output@@IEAA_NAEAPEAUansi_string@?1??type_case_Z@?$output_processor@_WV?$stream_output_adapter@_W@__crt_stdio_output@@V?$format_validation_base@_WV?$stream_output_adapter@_W@__crt_stdio_output@@@2@@1@AEAA_NXZ@@Z 000000018005afa0 f i libucrtd:output.obj
 0001:00059fd0       ??$extract_argument_from_va_list@PEAUansi_string@?1??type_case_Z@?$output_processor@_WV?$stream_output_adapter@_W@__crt_stdio_output@@V?$positional_parameter_base@_WV?$stream_output_adapter@_W@__crt_stdio_output@@@2@@__crt_stdio_output@@AEAA_NXZ@PEAU1?1??234@AEAA_NXZ@@?$positional_parameter_base@_WV?$stream_output_adapter@_W@__crt_stdio_output@@@__crt_stdio_output@@IEAA_NAEAPEAUansi_string@?1??type_case_Z@?$output_processor@_WV?$stream_output_adapter@_W@__crt_stdio_output@@V?$positional_parameter_base@_WV?$stream_output_adapter@_W@__crt_stdio_output@@@2@@1@AEAA_NXZ@@Z 000000018005afd0 f i libucrtd:output.obj
 0001:0005a150       ??$extract_argument_from_va_list@PEAUansi_string@?1??type_case_Z@?$output_processor@_WV?$stream_output_adapter@_W@__crt_stdio_output@@V?$positional_parameter_base@_WV?$stream_output_adapter@_W@__crt_stdio_output@@@2@@__crt_stdio_output@@AEAA_NXZ@PEAU1?1??234@AEAA_NXZ@@?$standard_base@_WV?$stream_output_adapter@_W@__crt_stdio_output@@@__crt_stdio_output@@IEAA_NAEAPEAUansi_string@?1??type_case_Z@?$output_processor@_WV?$stream_output_adapter@_W@__crt_stdio_output@@V?$positional_parameter_base@_WV?$stream_output_adapter@_W@__crt_stdio_output@@@2@@1@AEAA_NXZ@@Z 000000018005b150 f i libucrtd:output.obj
 0001:0005a180       ??$extract_argument_from_va_list@PEAUansi_string@?1??type_case_Z@?$output_processor@_WV?$stream_output_adapter@_W@__crt_stdio_output@@V?$standard_base@_WV?$stream_output_adapter@_W@__crt_stdio_output@@@2@@__crt_stdio_output@@AEAA_NXZ@PEAU1?1??234@AEAA_NXZ@@?$standard_base@_WV?$stream_output_adapter@_W@__crt_stdio_output@@@__crt_stdio_output@@IEAA_NAEAPEAUansi_string@?1??type_case_Z@?$output_processor@_WV?$stream_output_adapter@_W@__crt_stdio_output@@V?$standard_base@_WV?$stream_output_adapter@_W@__crt_stdio_output@@@2@@1@AEAA_NXZ@@Z 000000018005b180 f i libucrtd:output.obj
 0001:0005a1b0       ??$extract_argument_from_va_list@PEAUansi_string@?1??type_case_Z@?$output_processor@_WV?$string_output_adapter@_W@__crt_stdio_output@@V?$format_validation_base@_WV?$string_output_adapter@_W@__crt_stdio_output@@@2@@__crt_stdio_output@@AEAA_NXZ@PEAU1?1??234@AEAA_NXZ@@?$standard_base@_WV?$string_output_adapter@_W@__crt_stdio_output@@@__crt_stdio_output@@IEAA_NAEAPEAUansi_string@?1??type_case_Z@?$output_processor@_WV?$string_output_adapter@_W@__crt_stdio_output@@V?$format_validation_base@_WV?$string_output_adapter@_W@__crt_stdio_output@@@2@@1@AEAA_NXZ@@Z 000000018005b1b0 f i libucrtd:output.obj
 0001:0005a1e0       ??$extract_argument_from_va_list@PEAUansi_string@?1??type_case_Z@?$output_processor@_WV?$string_output_adapter@_W@__crt_stdio_output@@V?$positional_parameter_base@_WV?$string_output_adapter@_W@__crt_stdio_output@@@2@@__crt_stdio_output@@AEAA_NXZ@PEAU1?1??234@AEAA_NXZ@@?$positional_parameter_base@_WV?$string_output_adapter@_W@__crt_stdio_output@@@__crt_stdio_output@@IEAA_NAEAPEAUansi_string@?1??type_case_Z@?$output_processor@_WV?$string_output_adapter@_W@__crt_stdio_output@@V?$positional_parameter_base@_WV?$string_output_adapter@_W@__crt_stdio_output@@@2@@1@AEAA_NXZ@@Z 000000018005b1e0 f i libucrtd:output.obj
 0001:0005a360       ??$extract_argument_from_va_list@PEAUansi_string@?1??type_case_Z@?$output_processor@_WV?$string_output_adapter@_W@__crt_stdio_output@@V?$positional_parameter_base@_WV?$string_output_adapter@_W@__crt_stdio_output@@@2@@__crt_stdio_output@@AEAA_NXZ@PEAU1?1??234@AEAA_NXZ@@?$standard_base@_WV?$string_output_adapter@_W@__crt_stdio_output@@@__crt_stdio_output@@IEAA_NAEAPEAUansi_string@?1??type_case_Z@?$output_processor@_WV?$string_output_adapter@_W@__crt_stdio_output@@V?$positional_parameter_base@_WV?$string_output_adapter@_W@__crt_stdio_output@@@2@@1@AEAA_NXZ@@Z 000000018005b360 f i libucrtd:output.obj
 0001:0005a390       ??$extract_argument_from_va_list@PEAUansi_string@?1??type_case_Z@?$output_processor@_WV?$string_output_adapter@_W@__crt_stdio_output@@V?$standard_base@_WV?$string_output_adapter@_W@__crt_stdio_output@@@2@@__crt_stdio_output@@AEAA_NXZ@PEAU1?1??234@AEAA_NXZ@@?$standard_base@_WV?$string_output_adapter@_W@__crt_stdio_output@@@__crt_stdio_output@@IEAA_NAEAPEAUansi_string@?1??type_case_Z@?$output_processor@_WV?$string_output_adapter@_W@__crt_stdio_output@@V?$standard_base@_WV?$string_output_adapter@_W@__crt_stdio_output@@@2@@1@AEAA_NXZ@@Z 000000018005b390 f i libucrtd:output.obj
 0001:0005a3c0       ??$extract_argument_from_va_list@PEAXPEAX@?$positional_parameter_base@DV?$stream_output_adapter@D@__crt_stdio_output@@@__crt_stdio_output@@IEAA_NAEAPEAX@Z 000000018005b3c0 f i libucrtd:output.obj
 0001:0005a540       ??$extract_argument_from_va_list@PEAXPEAX@?$positional_parameter_base@DV?$string_output_adapter@D@__crt_stdio_output@@@__crt_stdio_output@@IEAA_NAEAPEAX@Z 000000018005b540 f i libucrtd:output.obj
 0001:0005a6c0       ??$extract_argument_from_va_list@PEAXPEAX@?$positional_parameter_base@_WV?$stream_output_adapter@_W@__crt_stdio_output@@@__crt_stdio_output@@IEAA_NAEAPEAX@Z 000000018005b6c0 f i libucrtd:output.obj
 0001:0005a840       ??$extract_argument_from_va_list@PEAXPEAX@?$positional_parameter_base@_WV?$string_output_adapter@_W@__crt_stdio_output@@@__crt_stdio_output@@IEAA_NAEAPEAX@Z 000000018005b840 f i libucrtd:output.obj
 0001:0005a9c0       ??$extract_argument_from_va_list@PEAXPEAX@?$standard_base@DV?$stream_output_adapter@D@__crt_stdio_output@@@__crt_stdio_output@@IEAA_NAEAPEAX@Z 000000018005b9c0 f i libucrtd:output.obj
 0001:0005a9f0       ??$extract_argument_from_va_list@PEAXPEAX@?$standard_base@DV?$string_output_adapter@D@__crt_stdio_output@@@__crt_stdio_output@@IEAA_NAEAPEAX@Z 000000018005b9f0 f i libucrtd:output.obj
 0001:0005aa20       ??$extract_argument_from_va_list@PEAXPEAX@?$standard_base@_WV?$stream_output_adapter@_W@__crt_stdio_output@@@__crt_stdio_output@@IEAA_NAEAPEAX@Z 000000018005ba20 f i libucrtd:output.obj
 0001:0005aa50       ??$extract_argument_from_va_list@PEAXPEAX@?$standard_base@_WV?$string_output_adapter@_W@__crt_stdio_output@@@__crt_stdio_output@@IEAA_NAEAPEAX@Z 000000018005ba50 f i libucrtd:output.obj
 0001:0005aa80       ??$extract_argument_from_va_list@U_CRT_DOUBLE@@U1@@?$positional_parameter_base@DV?$stream_output_adapter@D@__crt_stdio_output@@@__crt_stdio_output@@IEAA_NAEAU_CRT_DOUBLE@@@Z 000000018005ba80 f i libucrtd:output.obj
 0001:0005ac20       ??$extract_argument_from_va_list@U_CRT_DOUBLE@@U1@@?$positional_parameter_base@DV?$string_output_adapter@D@__crt_stdio_output@@@__crt_stdio_output@@IEAA_NAEAU_CRT_DOUBLE@@@Z 000000018005bc20 f i libucrtd:output.obj
 0001:0005adc0       ??$extract_argument_from_va_list@U_CRT_DOUBLE@@U1@@?$positional_parameter_base@_WV?$stream_output_adapter@_W@__crt_stdio_output@@@__crt_stdio_output@@IEAA_NAEAU_CRT_DOUBLE@@@Z 000000018005bdc0 f i libucrtd:output.obj
 0001:0005af60       ??$extract_argument_from_va_list@U_CRT_DOUBLE@@U1@@?$positional_parameter_base@_WV?$string_output_adapter@_W@__crt_stdio_output@@@__crt_stdio_output@@IEAA_NAEAU_CRT_DOUBLE@@@Z 000000018005bf60 f i libucrtd:output.obj
 0001:0005b100       ??$extract_argument_from_va_list@U_CRT_DOUBLE@@U1@@?$standard_base@DV?$stream_output_adapter@D@__crt_stdio_output@@@__crt_stdio_output@@IEAA_NAEAU_CRT_DOUBLE@@@Z 000000018005c100 f i libucrtd:output.obj
 0001:0005b150       ??$extract_argument_from_va_list@U_CRT_DOUBLE@@U1@@?$standard_base@DV?$string_output_adapter@D@__crt_stdio_output@@@__crt_stdio_output@@IEAA_NAEAU_CRT_DOUBLE@@@Z 000000018005c150 f i libucrtd:output.obj
 0001:0005b1a0       ??$extract_argument_from_va_list@U_CRT_DOUBLE@@U1@@?$standard_base@_WV?$stream_output_adapter@_W@__crt_stdio_output@@@__crt_stdio_output@@IEAA_NAEAU_CRT_DOUBLE@@@Z 000000018005c1a0 f i libucrtd:output.obj
 0001:0005b1f0       ??$extract_argument_from_va_list@U_CRT_DOUBLE@@U1@@?$standard_base@_WV?$string_output_adapter@_W@__crt_stdio_output@@@__crt_stdio_output@@IEAA_NAEAU_CRT_DOUBLE@@@Z 000000018005c1f0 f i libucrtd:output.obj
 0001:0005b240       ??$extract_argument_from_va_list@_J_J@?$positional_parameter_base@DV?$stream_output_adapter@D@__crt_stdio_output@@@__crt_stdio_output@@IEAA_NAEA_J@Z 000000018005c240 f i libucrtd:output.obj
 0001:0005b3c0       ??$extract_argument_from_va_list@_J_J@?$positional_parameter_base@DV?$string_output_adapter@D@__crt_stdio_output@@@__crt_stdio_output@@IEAA_NAEA_J@Z 000000018005c3c0 f i libucrtd:output.obj
 0001:0005b540       ??$extract_argument_from_va_list@_J_J@?$positional_parameter_base@_WV?$stream_output_adapter@_W@__crt_stdio_output@@@__crt_stdio_output@@IEAA_NAEA_J@Z 000000018005c540 f i libucrtd:output.obj
 0001:0005b6c0       ??$extract_argument_from_va_list@_J_J@?$positional_parameter_base@_WV?$string_output_adapter@_W@__crt_stdio_output@@@__crt_stdio_output@@IEAA_NAEA_J@Z 000000018005c6c0 f i libucrtd:output.obj
 0001:0005b840       ??$extract_argument_from_va_list@_J_J@?$standard_base@DV?$stream_output_adapter@D@__crt_stdio_output@@@__crt_stdio_output@@IEAA_NAEA_J@Z 000000018005c840 f i libucrtd:output.obj
 0001:0005b870       ??$extract_argument_from_va_list@_J_J@?$standard_base@DV?$string_output_adapter@D@__crt_stdio_output@@@__crt_stdio_output@@IEAA_NAEA_J@Z 000000018005c870 f i libucrtd:output.obj
 0001:0005b8a0       ??$extract_argument_from_va_list@_J_J@?$standard_base@_WV?$stream_output_adapter@_W@__crt_stdio_output@@@__crt_stdio_output@@IEAA_NAEA_J@Z 000000018005c8a0 f i libucrtd:output.obj
 0001:0005b8d0       ??$extract_argument_from_va_list@_J_J@?$standard_base@_WV?$string_output_adapter@_W@__crt_stdio_output@@@__crt_stdio_output@@IEAA_NAEA_J@Z 000000018005c8d0 f i libucrtd:output.obj
 0001:0005b900       ??$extract_argument_from_va_list@_K_J@?$positional_parameter_base@DV?$stream_output_adapter@D@__crt_stdio_output@@@__crt_stdio_output@@IEAA_NAEA_J@Z 000000018005c900 f i libucrtd:output.obj
 0001:0005ba80       ??$extract_argument_from_va_list@_K_J@?$positional_parameter_base@DV?$string_output_adapter@D@__crt_stdio_output@@@__crt_stdio_output@@IEAA_NAEA_J@Z 000000018005ca80 f i libucrtd:output.obj
 0001:0005bc00       ??$extract_argument_from_va_list@_K_J@?$positional_parameter_base@_WV?$stream_output_adapter@_W@__crt_stdio_output@@@__crt_stdio_output@@IEAA_NAEA_J@Z 000000018005cc00 f i libucrtd:output.obj
 0001:0005bd80       ??$extract_argument_from_va_list@_K_J@?$positional_parameter_base@_WV?$string_output_adapter@_W@__crt_stdio_output@@@__crt_stdio_output@@IEAA_NAEA_J@Z 000000018005cd80 f i libucrtd:output.obj
 0001:0005bf00       ??$extract_argument_from_va_list@_K_J@?$standard_base@DV?$stream_output_adapter@D@__crt_stdio_output@@@__crt_stdio_output@@IEAA_NAEA_J@Z 000000018005cf00 f i libucrtd:output.obj
 0001:0005bf30       ??$extract_argument_from_va_list@_K_J@?$standard_base@DV?$string_output_adapter@D@__crt_stdio_output@@@__crt_stdio_output@@IEAA_NAEA_J@Z 000000018005cf30 f i libucrtd:output.obj
 0001:0005bf60       ??$extract_argument_from_va_list@_K_J@?$standard_base@_WV?$stream_output_adapter@_W@__crt_stdio_output@@@__crt_stdio_output@@IEAA_NAEA_J@Z 000000018005cf60 f i libucrtd:output.obj
 0001:0005bf90       ??$extract_argument_from_va_list@_K_J@?$standard_base@_WV?$string_output_adapter@_W@__crt_stdio_output@@@__crt_stdio_output@@IEAA_NAEA_J@Z 000000018005cf90 f i libucrtd:output.obj
 0001:0005bfc0       ??$extract_argument_from_va_list@_W_W@?$positional_parameter_base@DV?$stream_output_adapter@D@__crt_stdio_output@@@__crt_stdio_output@@IEAA_NAEA_W@Z 000000018005cfc0 f i libucrtd:output.obj
 0001:0005c140       ??$extract_argument_from_va_list@_W_W@?$positional_parameter_base@DV?$string_output_adapter@D@__crt_stdio_output@@@__crt_stdio_output@@IEAA_NAEA_W@Z 000000018005d140 f i libucrtd:output.obj
 0001:0005c2c0       ??$extract_argument_from_va_list@_W_W@?$positional_parameter_base@_WV?$stream_output_adapter@_W@__crt_stdio_output@@@__crt_stdio_output@@IEAA_NAEA_W@Z 000000018005d2c0 f i libucrtd:output.obj
 0001:0005c440       ??$extract_argument_from_va_list@_W_W@?$positional_parameter_base@_WV?$string_output_adapter@_W@__crt_stdio_output@@@__crt_stdio_output@@IEAA_NAEA_W@Z 000000018005d440 f i libucrtd:output.obj
 0001:0005c5c0       ??$extract_argument_from_va_list@_W_W@?$standard_base@DV?$stream_output_adapter@D@__crt_stdio_output@@@__crt_stdio_output@@IEAA_NAEA_W@Z 000000018005d5c0 f i libucrtd:output.obj
 0001:0005c5f0       ??$extract_argument_from_va_list@_W_W@?$standard_base@DV?$string_output_adapter@D@__crt_stdio_output@@@__crt_stdio_output@@IEAA_NAEA_W@Z 000000018005d5f0 f i libucrtd:output.obj
 0001:0005c620       ??$extract_argument_from_va_list@_W_W@?$standard_base@_WV?$stream_output_adapter@_W@__crt_stdio_output@@@__crt_stdio_output@@IEAA_NAEA_W@Z 000000018005d620 f i libucrtd:output.obj
 0001:0005c650       ??$extract_argument_from_va_list@_W_W@?$standard_base@_WV?$string_output_adapter@_W@__crt_stdio_output@@@__crt_stdio_output@@IEAA_NAEA_W@Z 000000018005d650 f i libucrtd:output.obj
 0001:0005c680       ??$get_parameter_type@D@?$positional_parameter_base@DV?$stream_output_adapter@D@__crt_stdio_output@@@__crt_stdio_output@@CA?AW4parameter_type@01@PEAD@Z 000000018005d680 f i libucrtd:output.obj
 0001:0005c690       ??$get_parameter_type@D@?$positional_parameter_base@DV?$string_output_adapter@D@__crt_stdio_output@@@__crt_stdio_output@@CA?AW4parameter_type@01@PEAD@Z 000000018005d690 f i libucrtd:output.obj
 0001:0005c6a0       ??$get_parameter_type@D@?$positional_parameter_base@_WV?$stream_output_adapter@_W@__crt_stdio_output@@@__crt_stdio_output@@CA?AW4parameter_type@01@PEAD@Z 000000018005d6a0 f i libucrtd:output.obj
 0001:0005c6b0       ??$get_parameter_type@D@?$positional_parameter_base@_WV?$string_output_adapter@_W@__crt_stdio_output@@@__crt_stdio_output@@CA?AW4parameter_type@01@PEAD@Z 000000018005d6b0 f i libucrtd:output.obj
 0001:0005c6c0       ??$get_parameter_type@Uansi_string@?1??type_case_Z@?$output_processor@DV?$stream_output_adapter@D@__crt_stdio_output@@V?$positional_parameter_base@DV?$stream_output_adapter@D@__crt_stdio_output@@@2@@__crt_stdio_output@@AEAA_NXZ@@?$positional_parameter_base@DV?$stream_output_adapter@D@__crt_stdio_output@@@__crt_stdio_output@@CA?AW4parameter_type@01@PEAUansi_string@?1??type_case_Z@?$output_processor@DV?$stream_output_adapter@D@__crt_stdio_output@@V?$positional_parameter_base@DV?$stream_output_adapter@D@__crt_stdio_output@@@2@@1@AEAA_NXZ@@Z 000000018005d6c0 f i libucrtd:output.obj
 0001:0005c6d0       ??$get_parameter_type@Uansi_string@?1??type_case_Z@?$output_processor@DV?$string_output_adapter@D@__crt_stdio_output@@V?$positional_parameter_base@DV?$string_output_adapter@D@__crt_stdio_output@@@2@@__crt_stdio_output@@AEAA_NXZ@@?$positional_parameter_base@DV?$string_output_adapter@D@__crt_stdio_output@@@__crt_stdio_output@@CA?AW4parameter_type@01@PEAUansi_string@?1??type_case_Z@?$output_processor@DV?$string_output_adapter@D@__crt_stdio_output@@V?$positional_parameter_base@DV?$string_output_adapter@D@__crt_stdio_output@@@2@@1@AEAA_NXZ@@Z 000000018005d6d0 f i libucrtd:output.obj
 0001:0005c6e0       ??$get_parameter_type@Uansi_string@?1??type_case_Z@?$output_processor@_WV?$stream_output_adapter@_W@__crt_stdio_output@@V?$positional_parameter_base@_WV?$stream_output_adapter@_W@__crt_stdio_output@@@2@@__crt_stdio_output@@AEAA_NXZ@@?$positional_parameter_base@_WV?$stream_output_adapter@_W@__crt_stdio_output@@@__crt_stdio_output@@CA?AW4parameter_type@01@PEAUansi_string@?1??type_case_Z@?$output_processor@_WV?$stream_output_adapter@_W@__crt_stdio_output@@V?$positional_parameter_base@_WV?$stream_output_adapter@_W@__crt_stdio_output@@@2@@1@AEAA_NXZ@@Z 000000018005d6e0 f i libucrtd:output.obj
 0001:0005c6f0       ??$get_parameter_type@Uansi_string@?1??type_case_Z@?$output_processor@_WV?$string_output_adapter@_W@__crt_stdio_output@@V?$positional_parameter_base@_WV?$string_output_adapter@_W@__crt_stdio_output@@@2@@__crt_stdio_output@@AEAA_NXZ@@?$positional_parameter_base@_WV?$string_output_adapter@_W@__crt_stdio_output@@@__crt_stdio_output@@CA?AW4parameter_type@01@PEAUansi_string@?1??type_case_Z@?$output_processor@_WV?$string_output_adapter@_W@__crt_stdio_output@@V?$positional_parameter_base@_WV?$string_output_adapter@_W@__crt_stdio_output@@@2@@1@AEAA_NXZ@@Z 000000018005d6f0 f i libucrtd:output.obj
 0001:0005c700       ??$get_parameter_type@X@?$positional_parameter_base@DV?$stream_output_adapter@D@__crt_stdio_output@@@__crt_stdio_output@@CA?AW4parameter_type@01@PEAX@Z 000000018005d700 f i libucrtd:output.obj
 0001:0005c710       ??$get_parameter_type@X@?$positional_parameter_base@DV?$string_output_adapter@D@__crt_stdio_output@@@__crt_stdio_output@@CA?AW4parameter_type@01@PEAX@Z 000000018005d710 f i libucrtd:output.obj
 0001:0005c720       ??$get_parameter_type@X@?$positional_parameter_base@_WV?$stream_output_adapter@_W@__crt_stdio_output@@@__crt_stdio_output@@CA?AW4parameter_type@01@PEAX@Z 000000018005d720 f i libucrtd:output.obj
 0001:0005c730       ??$get_parameter_type@X@?$positional_parameter_base@_WV?$string_output_adapter@_W@__crt_stdio_output@@@__crt_stdio_output@@CA?AW4parameter_type@01@PEAX@Z 000000018005d730 f i libucrtd:output.obj
 0001:0005c740       ??$is_character_specifier@D@?$positional_parameter_base@DV?$stream_output_adapter@D@__crt_stdio_output@@@__crt_stdio_output@@CA_ND@Z 000000018005d740 f i libucrtd:output.obj
 0001:0005c780       ??$is_character_specifier@D@?$positional_parameter_base@DV?$string_output_adapter@D@__crt_stdio_output@@@__crt_stdio_output@@CA_ND@Z 000000018005d780 f i libucrtd:output.obj
 0001:0005c7c0       ??$is_character_specifier@_W@?$positional_parameter_base@_WV?$stream_output_adapter@_W@__crt_stdio_output@@@__crt_stdio_output@@CA_N_W@Z 000000018005d7c0 f i libucrtd:output.obj
 0001:0005c800       ??$is_character_specifier@_W@?$positional_parameter_base@_WV?$string_output_adapter@_W@__crt_stdio_output@@@__crt_stdio_output@@CA_N_W@Z 000000018005d800 f i libucrtd:output.obj
 0001:0005c840       ??$is_integral_specifier@D@?$positional_parameter_base@DV?$stream_output_adapter@D@__crt_stdio_output@@@__crt_stdio_output@@CA_ND@Z 000000018005d840 f i libucrtd:output.obj
 0001:0005c8b0       ??$is_integral_specifier@D@?$positional_parameter_base@DV?$string_output_adapter@D@__crt_stdio_output@@@__crt_stdio_output@@CA_ND@Z 000000018005d8b0 f i libucrtd:output.obj
 0001:0005c920       ??$is_integral_specifier@_W@?$positional_parameter_base@_WV?$stream_output_adapter@_W@__crt_stdio_output@@@__crt_stdio_output@@CA_N_W@Z 000000018005d920 f i libucrtd:output.obj
 0001:0005c990       ??$is_integral_specifier@_W@?$positional_parameter_base@_WV?$string_output_adapter@_W@__crt_stdio_output@@@__crt_stdio_output@@CA_N_W@Z 000000018005d990 f i libucrtd:output.obj
 0001:0005ca00       ??$is_pointer_specifier@D@?$positional_parameter_base@DV?$stream_output_adapter@D@__crt_stdio_output@@@__crt_stdio_output@@CA_ND@Z 000000018005da00 f i libucrtd:output.obj
 0001:0005ca30       ??$is_pointer_specifier@D@?$positional_parameter_base@DV?$string_output_adapter@D@__crt_stdio_output@@@__crt_stdio_output@@CA_ND@Z 000000018005da30 f i libucrtd:output.obj
 0001:0005ca60       ??$is_pointer_specifier@_W@?$positional_parameter_base@_WV?$stream_output_adapter@_W@__crt_stdio_output@@@__crt_stdio_output@@CA_N_W@Z 000000018005da60 f i libucrtd:output.obj
 0001:0005ca90       ??$is_pointer_specifier@_W@?$positional_parameter_base@_WV?$string_output_adapter@_W@__crt_stdio_output@@@__crt_stdio_output@@CA_N_W@Z 000000018005da90 f i libucrtd:output.obj
 0001:0005cac0       ??$is_string_specifier@D@?$positional_parameter_base@DV?$stream_output_adapter@D@__crt_stdio_output@@@__crt_stdio_output@@CA_ND@Z 000000018005dac0 f i libucrtd:output.obj
 0001:0005cb00       ??$is_string_specifier@D@?$positional_parameter_base@DV?$string_output_adapter@D@__crt_stdio_output@@@__crt_stdio_output@@CA_ND@Z 000000018005db00 f i libucrtd:output.obj
 0001:0005cb40       ??$is_string_specifier@_W@?$positional_parameter_base@_WV?$stream_output_adapter@_W@__crt_stdio_output@@@__crt_stdio_output@@CA_N_W@Z 000000018005db40 f i libucrtd:output.obj
 0001:0005cb80       ??$is_string_specifier@_W@?$positional_parameter_base@_WV?$string_output_adapter@_W@__crt_stdio_output@@@__crt_stdio_output@@CA_N_W@Z 000000018005db80 f i libucrtd:output.obj
 0001:0005cbc0       ??$is_wide_character_specifier@D@__crt_stdio_output@@YA_N_KDW4length_modifier@0@@Z 000000018005dbc0 f i libucrtd:output.obj
 0001:0005cc60       ??$is_wide_character_specifier@_W@__crt_stdio_output@@YA_N_K_WW4length_modifier@0@@Z 000000018005dc60 f i libucrtd:output.obj
 0001:0005cd30       ??$peek_va_arg@C@__crt_stdio_output@@YACPEAD@Z 000000018005dd30 f i libucrtd:output.obj
 0001:0005cd90       ??$peek_va_arg@E@__crt_stdio_output@@YAEPEAD@Z 000000018005dd90 f i libucrtd:output.obj
 0001:0005cdf0       ??$peek_va_arg@F@__crt_stdio_output@@YAFPEAD@Z 000000018005ddf0 f i libucrtd:output.obj
 0001:0005ce50       ??$peek_va_arg@G@__crt_stdio_output@@YAGPEAD@Z 000000018005de50 f i libucrtd:output.obj
 0001:0005ceb0       ??$peek_va_arg@H@__crt_stdio_output@@YAHPEAD@Z 000000018005deb0 f i libucrtd:output.obj
 0001:0005cf00       ??$peek_va_arg@I@__crt_stdio_output@@YAIPEAD@Z 000000018005df00 f i libucrtd:output.obj
 0001:0005cf50       ??$peek_va_arg@PEAD@__crt_stdio_output@@YAPEADPEAD@Z 000000018005df50 f i libucrtd:output.obj
 0001:0005cfb0       ??$peek_va_arg@PEAUansi_string@?1??type_case_Z@?$output_processor@DV?$stream_output_adapter@D@__crt_stdio_output@@V?$positional_parameter_base@DV?$stream_output_adapter@D@__crt_stdio_output@@@2@@__crt_stdio_output@@AEAA_NXZ@@__crt_stdio_output@@YAPEAUansi_string@?1??type_case_Z@?$output_processor@DV?$stream_output_adapter@D@__crt_stdio_output@@V?$positional_parameter_base@DV?$stream_output_adapter@D@__crt_stdio_output@@@2@@0@AEAA_NXZ@PEAD@Z 000000018005dfb0 f i libucrtd:output.obj
 0001:0005d010       ??$peek_va_arg@PEAUansi_string@?1??type_case_Z@?$output_processor@DV?$string_output_adapter@D@__crt_stdio_output@@V?$positional_parameter_base@DV?$string_output_adapter@D@__crt_stdio_output@@@2@@__crt_stdio_output@@AEAA_NXZ@@__crt_stdio_output@@YAPEAUansi_string@?1??type_case_Z@?$output_processor@DV?$string_output_adapter@D@__crt_stdio_output@@V?$positional_parameter_base@DV?$string_output_adapter@D@__crt_stdio_output@@@2@@0@AEAA_NXZ@PEAD@Z 000000018005e010 f i libucrtd:output.obj
 0001:0005d070       ??$peek_va_arg@PEAUansi_string@?1??type_case_Z@?$output_processor@_WV?$stream_output_adapter@_W@__crt_stdio_output@@V?$positional_parameter_base@_WV?$stream_output_adapter@_W@__crt_stdio_output@@@2@@__crt_stdio_output@@AEAA_NXZ@@__crt_stdio_output@@YAPEAUansi_string@?1??type_case_Z@?$output_processor@_WV?$stream_output_adapter@_W@__crt_stdio_output@@V?$positional_parameter_base@_WV?$stream_output_adapter@_W@__crt_stdio_output@@@2@@0@AEAA_NXZ@PEAD@Z 000000018005e070 f i libucrtd:output.obj
 0001:0005d0d0       ??$peek_va_arg@PEAUansi_string@?1??type_case_Z@?$output_processor@_WV?$string_output_adapter@_W@__crt_stdio_output@@V?$positional_parameter_base@_WV?$string_output_adapter@_W@__crt_stdio_output@@@2@@__crt_stdio_output@@AEAA_NXZ@@__crt_stdio_output@@YAPEAUansi_string@?1??type_case_Z@?$output_processor@_WV?$string_output_adapter@_W@__crt_stdio_output@@V?$positional_parameter_base@_WV?$string_output_adapter@_W@__crt_stdio_output@@@2@@0@AEAA_NXZ@PEAD@Z 000000018005e0d0 f i libucrtd:output.obj
 0001:0005d130       ??$peek_va_arg@PEAX@__crt_stdio_output@@YAPEAXPEAD@Z 000000018005e130 f i libucrtd:output.obj
 0001:0005d190       ??$peek_va_arg@U_CRT_DOUBLE@@@__crt_stdio_output@@YA?AU_CRT_DOUBLE@@PEAD@Z 000000018005e190 f i libucrtd:output.obj
 0001:0005d1f0       ??$peek_va_arg@_J@__crt_stdio_output@@YA_JPEAD@Z 000000018005e1f0 f i libucrtd:output.obj
 0001:0005d250       ??$peek_va_arg@_K@__crt_stdio_output@@YA_KPEAD@Z 000000018005e250 f i libucrtd:output.obj
 0001:0005d2b0       ??$peek_va_arg@_W@__crt_stdio_output@@YA_WPEAD@Z 000000018005e2b0 f i libucrtd:output.obj
 0001:0005d310       ??$puttc_nolock@AEBDPEAU_iobuf@@@?$__crt_char_traits@D@@SAHAEBD$$QEAPEAU_iobuf@@@Z 000000018005e310 f i libucrtd:output.obj
 0001:0005d340       ??$puttc_nolock@AEB_WPEAU_iobuf@@@?$__crt_char_traits@_W@@SAGAEB_W$$QEAPEAU_iobuf@@@Z 000000018005e340 f i libucrtd:output.obj
 0001:0005d370       ??$read_va_arg@C@__crt_stdio_output@@YACAEAPEAD@Z 000000018005e370 f i libucrtd:output.obj
 0001:0005d3e0       ??$read_va_arg@E@__crt_stdio_output@@YAEAEAPEAD@Z 000000018005e3e0 f i libucrtd:output.obj
 0001:0005d450       ??$read_va_arg@F@__crt_stdio_output@@YAFAEAPEAD@Z 000000018005e450 f i libucrtd:output.obj
 0001:0005d4c0       ??$read_va_arg@G@__crt_stdio_output@@YAGAEAPEAD@Z 000000018005e4c0 f i libucrtd:output.obj
 0001:0005d530       ??$read_va_arg@H@__crt_stdio_output@@YAHAEAPEAD@Z 000000018005e530 f i libucrtd:output.obj
 0001:0005d590       ??$read_va_arg@I@__crt_stdio_output@@YAIAEAPEAD@Z 000000018005e590 f i libucrtd:output.obj
 0001:0005d5f0       ??$read_va_arg@PEAD@__crt_stdio_output@@YAPEADAEAPEAD@Z 000000018005e5f0 f i libucrtd:output.obj
 0001:0005d660       ??$read_va_arg@PEAUansi_string@?1??type_case_Z@?$output_processor@DV?$stream_output_adapter@D@__crt_stdio_output@@V?$format_validation_base@DV?$stream_output_adapter@D@__crt_stdio_output@@@2@@__crt_stdio_output@@AEAA_NXZ@@__crt_stdio_output@@YAPEAUansi_string@?1??type_case_Z@?$output_processor@DV?$stream_output_adapter@D@__crt_stdio_output@@V?$format_validation_base@DV?$stream_output_adapter@D@__crt_stdio_output@@@2@@0@AEAA_NXZ@AEAPEAD@Z 000000018005e660 f i libucrtd:output.obj
 0001:0005d6d0       ??$read_va_arg@PEAUansi_string@?1??type_case_Z@?$output_processor@DV?$stream_output_adapter@D@__crt_stdio_output@@V?$positional_parameter_base@DV?$stream_output_adapter@D@__crt_stdio_output@@@2@@__crt_stdio_output@@AEAA_NXZ@@__crt_stdio_output@@YAPEAUansi_string@?1??type_case_Z@?$output_processor@DV?$stream_output_adapter@D@__crt_stdio_output@@V?$positional_parameter_base@DV?$stream_output_adapter@D@__crt_stdio_output@@@2@@0@AEAA_NXZ@AEAPEAD@Z 000000018005e6d0 f i libucrtd:output.obj
 0001:0005d740       ??$read_va_arg@PEAUansi_string@?1??type_case_Z@?$output_processor@DV?$stream_output_adapter@D@__crt_stdio_output@@V?$standard_base@DV?$stream_output_adapter@D@__crt_stdio_output@@@2@@__crt_stdio_output@@AEAA_NXZ@@__crt_stdio_output@@YAPEAUansi_string@?1??type_case_Z@?$output_processor@DV?$stream_output_adapter@D@__crt_stdio_output@@V?$standard_base@DV?$stream_output_adapter@D@__crt_stdio_output@@@2@@0@AEAA_NXZ@AEAPEAD@Z 000000018005e740 f i libucrtd:output.obj
 0001:0005d7b0       ??$read_va_arg@PEAUansi_string@?1??type_case_Z@?$output_processor@DV?$string_output_adapter@D@__crt_stdio_output@@V?$format_validation_base@DV?$string_output_adapter@D@__crt_stdio_output@@@2@@__crt_stdio_output@@AEAA_NXZ@@__crt_stdio_output@@YAPEAUansi_string@?1??type_case_Z@?$output_processor@DV?$string_output_adapter@D@__crt_stdio_output@@V?$format_validation_base@DV?$string_output_adapter@D@__crt_stdio_output@@@2@@0@AEAA_NXZ@AEAPEAD@Z 000000018005e7b0 f i libucrtd:output.obj
 0001:0005d820       ??$read_va_arg@PEAUansi_string@?1??type_case_Z@?$output_processor@DV?$string_output_adapter@D@__crt_stdio_output@@V?$positional_parameter_base@DV?$string_output_adapter@D@__crt_stdio_output@@@2@@__crt_stdio_output@@AEAA_NXZ@@__crt_stdio_output@@YAPEAUansi_string@?1??type_case_Z@?$output_processor@DV?$string_output_adapter@D@__crt_stdio_output@@V?$positional_parameter_base@DV?$string_output_adapter@D@__crt_stdio_output@@@2@@0@AEAA_NXZ@AEAPEAD@Z 000000018005e820 f i libucrtd:output.obj
 0001:0005d890       ??$read_va_arg@PEAUansi_string@?1??type_case_Z@?$output_processor@DV?$string_output_adapter@D@__crt_stdio_output@@V?$standard_base@DV?$string_output_adapter@D@__crt_stdio_output@@@2@@__crt_stdio_output@@AEAA_NXZ@@__crt_stdio_output@@YAPEAUansi_string@?1??type_case_Z@?$output_processor@DV?$string_output_adapter@D@__crt_stdio_output@@V?$standard_base@DV?$string_output_adapter@D@__crt_stdio_output@@@2@@0@AEAA_NXZ@AEAPEAD@Z 000000018005e890 f i libucrtd:output.obj
 0001:0005d900       ??$read_va_arg@PEAUansi_string@?1??type_case_Z@?$output_processor@_WV?$stream_output_adapter@_W@__crt_stdio_output@@V?$format_validation_base@_WV?$stream_output_adapter@_W@__crt_stdio_output@@@2@@__crt_stdio_output@@AEAA_NXZ@@__crt_stdio_output@@YAPEAUansi_string@?1??type_case_Z@?$output_processor@_WV?$stream_output_adapter@_W@__crt_stdio_output@@V?$format_validation_base@_WV?$stream_output_adapter@_W@__crt_stdio_output@@@2@@0@AEAA_NXZ@AEAPEAD@Z 000000018005e900 f i libucrtd:output.obj
 0001:0005d970       ??$read_va_arg@PEAUansi_string@?1??type_case_Z@?$output_processor@_WV?$stream_output_adapter@_W@__crt_stdio_output@@V?$positional_parameter_base@_WV?$stream_output_adapter@_W@__crt_stdio_output@@@2@@__crt_stdio_output@@AEAA_NXZ@@__crt_stdio_output@@YAPEAUansi_string@?1??type_case_Z@?$output_processor@_WV?$stream_output_adapter@_W@__crt_stdio_output@@V?$positional_parameter_base@_WV?$stream_output_adapter@_W@__crt_stdio_output@@@2@@0@AEAA_NXZ@AEAPEAD@Z 000000018005e970 f i libucrtd:output.obj
 0001:0005d9e0       ??$read_va_arg@PEAUansi_string@?1??type_case_Z@?$output_processor@_WV?$stream_output_adapter@_W@__crt_stdio_output@@V?$standard_base@_WV?$stream_output_adapter@_W@__crt_stdio_output@@@2@@__crt_stdio_output@@AEAA_NXZ@@__crt_stdio_output@@YAPEAUansi_string@?1??type_case_Z@?$output_processor@_WV?$stream_output_adapter@_W@__crt_stdio_output@@V?$standard_base@_WV?$stream_output_adapter@_W@__crt_stdio_output@@@2@@0@AEAA_NXZ@AEAPEAD@Z 000000018005e9e0 f i libucrtd:output.obj
 0001:0005da50       ??$read_va_arg@PEAUansi_string@?1??type_case_Z@?$output_processor@_WV?$string_output_adapter@_W@__crt_stdio_output@@V?$format_validation_base@_WV?$string_output_adapter@_W@__crt_stdio_output@@@2@@__crt_stdio_output@@AEAA_NXZ@@__crt_stdio_output@@YAPEAUansi_string@?1??type_case_Z@?$output_processor@_WV?$string_output_adapter@_W@__crt_stdio_output@@V?$format_validation_base@_WV?$string_output_adapter@_W@__crt_stdio_output@@@2@@0@AEAA_NXZ@AEAPEAD@Z 000000018005ea50 f i libucrtd:output.obj
 0001:0005dac0       ??$read_va_arg@PEAUansi_string@?1??type_case_Z@?$output_processor@_WV?$string_output_adapter@_W@__crt_stdio_output@@V?$positional_parameter_base@_WV?$string_output_adapter@_W@__crt_stdio_output@@@2@@__crt_stdio_output@@AEAA_NXZ@@__crt_stdio_output@@YAPEAUansi_string@?1??type_case_Z@?$output_processor@_WV?$string_output_adapter@_W@__crt_stdio_output@@V?$positional_parameter_base@_WV?$string_output_adapter@_W@__crt_stdio_output@@@2@@0@AEAA_NXZ@AEAPEAD@Z 000000018005eac0 f i libucrtd:output.obj
 0001:0005db30       ??$read_va_arg@PEAUansi_string@?1??type_case_Z@?$output_processor@_WV?$string_output_adapter@_W@__crt_stdio_output@@V?$standard_base@_WV?$string_output_adapter@_W@__crt_stdio_output@@@2@@__crt_stdio_output@@AEAA_NXZ@@__crt_stdio_output@@YAPEAUansi_string@?1??type_case_Z@?$output_processor@_WV?$string_output_adapter@_W@__crt_stdio_output@@V?$standard_base@_WV?$string_output_adapter@_W@__crt_stdio_output@@@2@@0@AEAA_NXZ@AEAPEAD@Z 000000018005eb30 f i libucrtd:output.obj
 0001:0005dba0       ??$read_va_arg@PEAX@__crt_stdio_output@@YAPEAXAEAPEAD@Z 000000018005eba0 f i libucrtd:output.obj
 0001:0005dc10       ??$read_va_arg@U_CRT_DOUBLE@@@__crt_stdio_output@@YA?AU_CRT_DOUBLE@@AEAPEAD@Z 000000018005ec10 f i libucrtd:output.obj
 0001:0005dc80       ??$read_va_arg@_J@__crt_stdio_output@@YA_JAEAPEAD@Z 000000018005ec80 f i libucrtd:output.obj
 0001:0005dcf0       ??$read_va_arg@_K@__crt_stdio_output@@YA_KAEAPEAD@Z 000000018005ecf0 f i libucrtd:output.obj
 0001:0005dd60       ??$read_va_arg@_W@__crt_stdio_output@@YA_WAEAPEAD@Z 000000018005ed60 f i libucrtd:output.obj
 0001:0005ddd0       ??$scratch_count@D@formatting_buffer@__crt_stdio_output@@QEBA_KXZ 000000018005edd0 f i libucrtd:output.obj
 0001:0005ddf0       ??$scratch_data@D@formatting_buffer@__crt_stdio_output@@QEAAPEADXZ 000000018005edf0 f i libucrtd:output.obj
 0001:0005de60       ??$tcstol@AEAPEBDPEAPEADH@?$__crt_char_traits@D@@SAJAEAPEBD$$QEAPEAPEAD$$QEAH@Z 000000018005ee60 f i libucrtd:output.obj
 0001:0005dea0       ??$tcstol@AEAPEB_WPEAPEA_WH@?$__crt_char_traits@_W@@SAJAEAPEB_W$$QEAPEAPEA_W$$QEAH@Z 000000018005eea0 f i libucrtd:output.obj
 0001:0005dee0       ??$tcstol@PEBDPEAPEADH@?$__crt_char_traits@D@@SAJ$$QEAPEBD$$QEAPEAPEAD$$QEAH@Z 000000018005eee0 f i libucrtd:output.obj
 0001:0005df20       ??$tcstol@PEB_WPEAPEA_WH@?$__crt_char_traits@_W@@SAJ$$QEAPEB_W$$QEAPEAPEA_W$$QEAH@Z 000000018005ef20 f i libucrtd:output.obj
 0001:0005df60       ??$type_case_integer_parse_into_buffer@I@?$output_processor@DV?$stream_output_adapter@D@__crt_stdio_output@@V?$format_validation_base@DV?$stream_output_adapter@D@__crt_stdio_output@@@2@@__crt_stdio_output@@AEAAXII_N@Z 000000018005ef60 f i libucrtd:output.obj
 0001:0005e090       ??$type_case_integer_parse_into_buffer@I@?$output_processor@DV?$stream_output_adapter@D@__crt_stdio_output@@V?$positional_parameter_base@DV?$stream_output_adapter@D@__crt_stdio_output@@@2@@__crt_stdio_output@@AEAAXII_N@Z 000000018005f090 f i libucrtd:output.obj
 0001:0005e1c0       ??$type_case_integer_parse_into_buffer@I@?$output_processor@DV?$stream_output_adapter@D@__crt_stdio_output@@V?$standard_base@DV?$stream_output_adapter@D@__crt_stdio_output@@@2@@__crt_stdio_output@@AEAAXII_N@Z 000000018005f1c0 f i libucrtd:output.obj
 0001:0005e2f0       ??$type_case_integer_parse_into_buffer@I@?$output_processor@DV?$string_output_adapter@D@__crt_stdio_output@@V?$format_validation_base@DV?$string_output_adapter@D@__crt_stdio_output@@@2@@__crt_stdio_output@@AEAAXII_N@Z 000000018005f2f0 f i libucrtd:output.obj
 0001:0005e420       ??$type_case_integer_parse_into_buffer@I@?$output_processor@DV?$string_output_adapter@D@__crt_stdio_output@@V?$positional_parameter_base@DV?$string_output_adapter@D@__crt_stdio_output@@@2@@__crt_stdio_output@@AEAAXII_N@Z 000000018005f420 f i libucrtd:output.obj
 0001:0005e550       ??$type_case_integer_parse_into_buffer@I@?$output_processor@DV?$string_output_adapter@D@__crt_stdio_output@@V?$standard_base@DV?$string_output_adapter@D@__crt_stdio_output@@@2@@__crt_stdio_output@@AEAAXII_N@Z 000000018005f550 f i libucrtd:output.obj
 0001:0005e680       ??$type_case_integer_parse_into_buffer@I@?$output_processor@_WV?$stream_output_adapter@_W@__crt_stdio_output@@V?$format_validation_base@_WV?$stream_output_adapter@_W@__crt_stdio_output@@@2@@__crt_stdio_output@@AEAAXII_N@Z 000000018005f680 f i libucrtd:output.obj
 0001:0005e7c0       ??$type_case_integer_parse_into_buffer@I@?$output_processor@_WV?$stream_output_adapter@_W@__crt_stdio_output@@V?$positional_parameter_base@_WV?$stream_output_adapter@_W@__crt_stdio_output@@@2@@__crt_stdio_output@@AEAAXII_N@Z 000000018005f7c0 f i libucrtd:output.obj
 0001:0005e900       ??$type_case_integer_parse_into_buffer@I@?$output_processor@_WV?$stream_output_adapter@_W@__crt_stdio_output@@V?$standard_base@_WV?$stream_output_adapter@_W@__crt_stdio_output@@@2@@__crt_stdio_output@@AEAAXII_N@Z 000000018005f900 f i libucrtd:output.obj
 0001:0005ea40       ??$type_case_integer_parse_into_buffer@I@?$output_processor@_WV?$string_output_adapter@_W@__crt_stdio_output@@V?$format_validation_base@_WV?$string_output_adapter@_W@__crt_stdio_output@@@2@@__crt_stdio_output@@AEAAXII_N@Z 000000018005fa40 f i libucrtd:output.obj
 0001:0005eb80       ??$type_case_integer_parse_into_buffer@I@?$output_processor@_WV?$string_output_adapter@_W@__crt_stdio_output@@V?$positional_parameter_base@_WV?$string_output_adapter@_W@__crt_stdio_output@@@2@@__crt_stdio_output@@AEAAXII_N@Z 000000018005fb80 f i libucrtd:output.obj
 0001:0005ecc0       ??$type_case_integer_parse_into_buffer@I@?$output_processor@_WV?$string_output_adapter@_W@__crt_stdio_output@@V?$standard_base@_WV?$string_output_adapter@_W@__crt_stdio_output@@@2@@__crt_stdio_output@@AEAAXII_N@Z 000000018005fcc0 f i libucrtd:output.obj
 0001:0005ee00       ??$type_case_integer_parse_into_buffer@_K@?$output_processor@DV?$stream_output_adapter@D@__crt_stdio_output@@V?$format_validation_base@DV?$stream_output_adapter@D@__crt_stdio_output@@@2@@__crt_stdio_output@@AEAAX_KI_N@Z 000000018005fe00 f i libucrtd:output.obj
 0001:0005ef50       ??$type_case_integer_parse_into_buffer@_K@?$output_processor@DV?$stream_output_adapter@D@__crt_stdio_output@@V?$positional_parameter_base@DV?$stream_output_adapter@D@__crt_stdio_output@@@2@@__crt_stdio_output@@AEAAX_KI_N@Z 000000018005ff50 f i libucrtd:output.obj
 0001:0005f0a0       ??$type_case_integer_parse_into_buffer@_K@?$output_processor@DV?$stream_output_adapter@D@__crt_stdio_output@@V?$standard_base@DV?$stream_output_adapter@D@__crt_stdio_output@@@2@@__crt_stdio_output@@AEAAX_KI_N@Z 00000001800600a0 f i libucrtd:output.obj
 0001:0005f1f0       ??$type_case_integer_parse_into_buffer@_K@?$output_processor@DV?$string_output_adapter@D@__crt_stdio_output@@V?$format_validation_base@DV?$string_output_adapter@D@__crt_stdio_output@@@2@@__crt_stdio_output@@AEAAX_KI_N@Z 00000001800601f0 f i libucrtd:output.obj
 0001:0005f340       ??$type_case_integer_parse_into_buffer@_K@?$output_processor@DV?$string_output_adapter@D@__crt_stdio_output@@V?$positional_parameter_base@DV?$string_output_adapter@D@__crt_stdio_output@@@2@@__crt_stdio_output@@AEAAX_KI_N@Z 0000000180060340 f i libucrtd:output.obj
 0001:0005f490       ??$type_case_integer_parse_into_buffer@_K@?$output_processor@DV?$string_output_adapter@D@__crt_stdio_output@@V?$standard_base@DV?$string_output_adapter@D@__crt_stdio_output@@@2@@__crt_stdio_output@@AEAAX_KI_N@Z 0000000180060490 f i libucrtd:output.obj
 0001:0005f5e0       ??$type_case_integer_parse_into_buffer@_K@?$output_processor@_WV?$stream_output_adapter@_W@__crt_stdio_output@@V?$format_validation_base@_WV?$stream_output_adapter@_W@__crt_stdio_output@@@2@@__crt_stdio_output@@AEAAX_KI_N@Z 00000001800605e0 f i libucrtd:output.obj
 0001:0005f740       ??$type_case_integer_parse_into_buffer@_K@?$output_processor@_WV?$stream_output_adapter@_W@__crt_stdio_output@@V?$positional_parameter_base@_WV?$stream_output_adapter@_W@__crt_stdio_output@@@2@@__crt_stdio_output@@AEAAX_KI_N@Z 0000000180060740 f i libucrtd:output.obj
 0001:0005f8a0       ??$type_case_integer_parse_into_buffer@_K@?$output_processor@_WV?$stream_output_adapter@_W@__crt_stdio_output@@V?$standard_base@_WV?$stream_output_adapter@_W@__crt_stdio_output@@@2@@__crt_stdio_output@@AEAAX_KI_N@Z 00000001800608a0 f i libucrtd:output.obj
 0001:0005fa00       ??$type_case_integer_parse_into_buffer@_K@?$output_processor@_WV?$string_output_adapter@_W@__crt_stdio_output@@V?$format_validation_base@_WV?$string_output_adapter@_W@__crt_stdio_output@@@2@@__crt_stdio_output@@AEAAX_KI_N@Z 0000000180060a00 f i libucrtd:output.obj
 0001:0005fb60       ??$type_case_integer_parse_into_buffer@_K@?$output_processor@_WV?$string_output_adapter@_W@__crt_stdio_output@@V?$positional_parameter_base@_WV?$string_output_adapter@_W@__crt_stdio_output@@@2@@__crt_stdio_output@@AEAAX_KI_N@Z 0000000180060b60 f i libucrtd:output.obj
 0001:0005fcc0       ??$type_case_integer_parse_into_buffer@_K@?$output_processor@_WV?$string_output_adapter@_W@__crt_stdio_output@@V?$standard_base@_WV?$string_output_adapter@_W@__crt_stdio_output@@@2@@__crt_stdio_output@@AEAAX_KI_N@Z 0000000180060cc0 f i libucrtd:output.obj
 0001:0005fe20       ??$write_multiple_characters@V?$stream_output_adapter@D@__crt_stdio_output@@D@__crt_stdio_output@@YAXAEBV?$stream_output_adapter@D@0@DHQEAH@Z 0000000180060e20 f i libucrtd:output.obj
 0001:0005fe80       ??$write_multiple_characters@V?$stream_output_adapter@_W@__crt_stdio_output@@D@__crt_stdio_output@@YAXAEBV?$stream_output_adapter@_W@0@DHQEAH@Z 0000000180060e80 f i libucrtd:output.obj
 0001:0005fee0       ??$write_multiple_characters@V?$string_output_adapter@D@__crt_stdio_output@@D@__crt_stdio_output@@YAXAEBV?$string_output_adapter@D@0@DHQEAH@Z 0000000180060ee0 f i libucrtd:output.obj
 0001:0005ff40       ??$write_multiple_characters@V?$string_output_adapter@_W@__crt_stdio_output@@D@__crt_stdio_output@@YAXAEBV?$string_output_adapter@_W@0@DHQEAH@Z 0000000180060f40 f i libucrtd:output.obj
 0001:00060360       ??0?$common_data@D@__crt_stdio_output@@IEAA@XZ 0000000180061360 f i libucrtd:output.obj
 0001:00060430       ??0?$common_data@_W@__crt_stdio_output@@IEAA@XZ 0000000180061430 f i libucrtd:output.obj
 0001:00060500       ??0?$output_adapter_data@DV?$stream_output_adapter@D@__crt_stdio_output@@@__crt_stdio_output@@IEAA@AEBV?$stream_output_adapter@D@1@_KQEBDQEAU__crt_locale_pointers@@QEAD@Z 0000000180061500 f i libucrtd:output.obj
 0001:00060580       ??0?$output_adapter_data@DV?$string_output_adapter@D@__crt_stdio_output@@@__crt_stdio_output@@IEAA@AEBV?$string_output_adapter@D@1@_KQEBDQEAU__crt_locale_pointers@@QEAD@Z 0000000180061580 f i libucrtd:output.obj
 0001:00060600       ??0?$output_adapter_data@_WV?$stream_output_adapter@_W@__crt_stdio_output@@@__crt_stdio_output@@IEAA@AEBV?$stream_output_adapter@_W@1@_KQEB_WQEAU__crt_locale_pointers@@QEAD@Z 0000000180061600 f i libucrtd:output.obj
 0001:00060680       ??0?$output_adapter_data@_WV?$string_output_adapter@_W@__crt_stdio_output@@@__crt_stdio_output@@IEAA@AEBV?$string_output_adapter@_W@1@_KQEB_WQEAU__crt_locale_pointers@@QEAD@Z 0000000180061680 f i libucrtd:output.obj
 0001:00060700       ??0?$output_processor@DV?$stream_output_adapter@D@__crt_stdio_output@@V?$format_validation_base@DV?$stream_output_adapter@D@__crt_stdio_output@@@2@@__crt_stdio_output@@QEAA@AEBV?$stream_output_adapter@D@1@_KQEBDQEAU__crt_locale_pointers@@QEAD@Z 0000000180061700 f i libucrtd:output.obj
 0001:00060750       ??0?$output_processor@DV?$stream_output_adapter@D@__crt_stdio_output@@V?$positional_parameter_base@DV?$stream_output_adapter@D@__crt_stdio_output@@@2@@__crt_stdio_output@@QEAA@AEBV?$stream_output_adapter@D@1@_KQEBDQEAU__crt_locale_pointers@@QEAD@Z 0000000180061750 f i libucrtd:output.obj
 0001:000607a0       ??0?$output_processor@DV?$stream_output_adapter@D@__crt_stdio_output@@V?$standard_base@DV?$stream_output_adapter@D@__crt_stdio_output@@@2@@__crt_stdio_output@@QEAA@AEBV?$stream_output_adapter@D@1@_KQEBDQEAU__crt_locale_pointers@@QEAD@Z 00000001800617a0 f i libucrtd:output.obj
 0001:000607f0       ??0?$output_processor@DV?$string_output_adapter@D@__crt_stdio_output@@V?$format_validation_base@DV?$string_output_adapter@D@__crt_stdio_output@@@2@@__crt_stdio_output@@QEAA@AEBV?$string_output_adapter@D@1@_KQEBDQEAU__crt_locale_pointers@@QEAD@Z 00000001800617f0 f i libucrtd:output.obj
 0001:00060840       ??0?$output_processor@DV?$string_output_adapter@D@__crt_stdio_output@@V?$positional_parameter_base@DV?$string_output_adapter@D@__crt_stdio_output@@@2@@__crt_stdio_output@@QEAA@AEBV?$string_output_adapter@D@1@_KQEBDQEAU__crt_locale_pointers@@QEAD@Z 0000000180061840 f i libucrtd:output.obj
 0001:00060890       ??0?$output_processor@DV?$string_output_adapter@D@__crt_stdio_output@@V?$standard_base@DV?$string_output_adapter@D@__crt_stdio_output@@@2@@__crt_stdio_output@@QEAA@AEBV?$string_output_adapter@D@1@_KQEBDQEAU__crt_locale_pointers@@QEAD@Z 0000000180061890 f i libucrtd:output.obj
 0001:000608e0       ??0?$output_processor@_WV?$stream_output_adapter@_W@__crt_stdio_output@@V?$format_validation_base@_WV?$stream_output_adapter@_W@__crt_stdio_output@@@2@@__crt_stdio_output@@QEAA@AEBV?$stream_output_adapter@_W@1@_KQEB_WQEAU__crt_locale_pointers@@QEAD@Z 00000001800618e0 f i libucrtd:output.obj
 0001:00060930       ??0?$output_processor@_WV?$stream_output_adapter@_W@__crt_stdio_output@@V?$positional_parameter_base@_WV?$stream_output_adapter@_W@__crt_stdio_output@@@2@@__crt_stdio_output@@QEAA@AEBV?$stream_output_adapter@_W@1@_KQEB_WQEAU__crt_locale_pointers@@QEAD@Z 0000000180061930 f i libucrtd:output.obj
 0001:00060980       ??0?$output_processor@_WV?$stream_output_adapter@_W@__crt_stdio_output@@V?$standard_base@_WV?$stream_output_adapter@_W@__crt_stdio_output@@@2@@__crt_stdio_output@@QEAA@AEBV?$stream_output_adapter@_W@1@_KQEB_WQEAU__crt_locale_pointers@@QEAD@Z 0000000180061980 f i libucrtd:output.obj
 0001:000609d0       ??0?$output_processor@_WV?$string_output_adapter@_W@__crt_stdio_output@@V?$format_validation_base@_WV?$string_output_adapter@_W@__crt_stdio_output@@@2@@__crt_stdio_output@@QEAA@AEBV?$string_output_adapter@_W@1@_KQEB_WQEAU__crt_locale_pointers@@QEAD@Z 00000001800619d0 f i libucrtd:output.obj
 0001:00060a20       ??0?$output_processor@_WV?$string_output_adapter@_W@__crt_stdio_output@@V?$positional_parameter_base@_WV?$string_output_adapter@_W@__crt_stdio_output@@@2@@__crt_stdio_output@@QEAA@AEBV?$string_output_adapter@_W@1@_KQEB_WQEAU__crt_locale_pointers@@QEAD@Z 0000000180061a20 f i libucrtd:output.obj
 0001:00060a70       ??0?$output_processor@_WV?$string_output_adapter@_W@__crt_stdio_output@@V?$standard_base@_WV?$string_output_adapter@_W@__crt_stdio_output@@@2@@__crt_stdio_output@@QEAA@AEBV?$string_output_adapter@_W@1@_KQEB_WQEAU__crt_locale_pointers@@QEAD@Z 0000000180061a70 f i libucrtd:output.obj
 0001:00060ac0       ??0?$stream_output_adapter@D@__crt_stdio_output@@QEAA@QEAU_iobuf@@@Z 0000000180061ac0 f i libucrtd:output.obj
 0001:00060af0       ??0?$stream_output_adapter@_W@__crt_stdio_output@@QEAA@QEAU_iobuf@@@Z 0000000180061af0 f i libucrtd:output.obj
 0001:00060b20       ??0?$string_output_adapter@D@__crt_stdio_output@@QEAA@QEAU?$string_output_adapter_context@D@1@@Z 0000000180061b20 f i libucrtd:output.obj
 0001:00060b40       ??0?$string_output_adapter@_W@__crt_stdio_output@@QEAA@QEAU?$string_output_adapter_context@_W@1@@Z 0000000180061b40 f i libucrtd:output.obj
 0001:00060b60       ??0_LocaleUpdate@@QEAA@QEAU__crt_locale_pointers@@@Z 0000000180061b60 f i libucrtd:output.obj
 0001:00060c80       ??0__acrt_stdio_temporary_buffering_guard@@QEAA@QEAU_iobuf@@@Z 0000000180061c80 f i libucrtd:output.obj
 0001:00060cc0       ??0__crt_deferred_errno_cache@@QEAA@XZ 0000000180061cc0 f i libucrtd:output.obj
 0001:00060ce0       ??0__crt_errno_guard@@QEAA@QEAH@Z 0000000180061ce0 f i libucrtd:output.obj
 0001:00060d20       ??0__crt_stdio_stream@@QEAA@QEAU_iobuf@@@Z 0000000180061d20 f i libucrtd:output.obj
 0001:00060d40       ??0formatting_buffer@__crt_stdio_output@@QEAA@XZ 0000000180061d40 f i libucrtd:output.obj
 0001:00060d80       ??1?$common_data@D@__crt_stdio_output@@QEAA@XZ 0000000180061d80 f i libucrtd:output.obj
 0001:00060da0       ??1?$common_data@_W@__crt_stdio_output@@QEAA@XZ 0000000180061da0 f i libucrtd:output.obj
 0001:00060dc0       ??1?$format_validation_base@DV?$stream_output_adapter@D@__crt_stdio_output@@@__crt_stdio_output@@QEAA@XZ 0000000180061dc0 f i libucrtd:output.obj
 0001:00060de0       ??1?$format_validation_base@DV?$string_output_adapter@D@__crt_stdio_output@@@__crt_stdio_output@@QEAA@XZ 0000000180061de0 f i libucrtd:output.obj
 0001:00060e00       ??1?$format_validation_base@_WV?$stream_output_adapter@_W@__crt_stdio_output@@@__crt_stdio_output@@QEAA@XZ 0000000180061e00 f i libucrtd:output.obj
 0001:00060e20       ??1?$format_validation_base@_WV?$string_output_adapter@_W@__crt_stdio_output@@@__crt_stdio_output@@QEAA@XZ 0000000180061e20 f i libucrtd:output.obj
 0001:00060e40       ??1?$output_adapter_data@DV?$stream_output_adapter@D@__crt_stdio_output@@@__crt_stdio_output@@QEAA@XZ 0000000180061e40 f i libucrtd:output.obj
 0001:00060e60       ??1?$output_adapter_data@DV?$string_output_adapter@D@__crt_stdio_output@@@__crt_stdio_output@@QEAA@XZ 0000000180061e60 f i libucrtd:output.obj
 0001:00060e80       ??1?$output_adapter_data@_WV?$stream_output_adapter@_W@__crt_stdio_output@@@__crt_stdio_output@@QEAA@XZ 0000000180061e80 f i libucrtd:output.obj
 0001:00060ea0       ??1?$output_adapter_data@_WV?$string_output_adapter@_W@__crt_stdio_output@@@__crt_stdio_output@@QEAA@XZ 0000000180061ea0 f i libucrtd:output.obj
 0001:00060ec0       ??1?$output_processor@DV?$stream_output_adapter@D@__crt_stdio_output@@V?$format_validation_base@DV?$stream_output_adapter@D@__crt_stdio_output@@@2@@__crt_stdio_output@@QEAA@XZ 0000000180061ec0 f i libucrtd:output.obj
 0001:00060ee0       ??1?$output_processor@DV?$stream_output_adapter@D@__crt_stdio_output@@V?$positional_parameter_base@DV?$stream_output_adapter@D@__crt_stdio_output@@@2@@__crt_stdio_output@@QEAA@XZ 0000000180061ee0 f i libucrtd:output.obj
 0001:00060f00       ??1?$output_processor@DV?$stream_output_adapter@D@__crt_stdio_output@@V?$standard_base@DV?$stream_output_adapter@D@__crt_stdio_output@@@2@@__crt_stdio_output@@QEAA@XZ 0000000180061f00 f i libucrtd:output.obj
 0001:00060f20       ??1?$output_processor@DV?$string_output_adapter@D@__crt_stdio_output@@V?$format_validation_base@DV?$string_output_adapter@D@__crt_stdio_output@@@2@@__crt_stdio_output@@QEAA@XZ 0000000180061f20 f i libucrtd:output.obj
 0001:00060f40       ??1?$output_processor@DV?$string_output_adapter@D@__crt_stdio_output@@V?$positional_parameter_base@DV?$string_output_adapter@D@__crt_stdio_output@@@2@@__crt_stdio_output@@QEAA@XZ 0000000180061f40 f i libucrtd:output.obj
 0001:00060f60       ??1?$output_processor@DV?$string_output_adapter@D@__crt_stdio_output@@V?$standard_base@DV?$string_output_adapter@D@__crt_stdio_output@@@2@@__crt_stdio_output@@QEAA@XZ 0000000180061f60 f i libucrtd:output.obj
 0001:00060f80       ??1?$output_processor@_WV?$stream_output_adapter@_W@__crt_stdio_output@@V?$format_validation_base@_WV?$stream_output_adapter@_W@__crt_stdio_output@@@2@@__crt_stdio_output@@QEAA@XZ 0000000180061f80 f i libucrtd:output.obj
 0001:00060fa0       ??1?$output_processor@_WV?$stream_output_adapter@_W@__crt_stdio_output@@V?$positional_parameter_base@_WV?$stream_output_adapter@_W@__crt_stdio_output@@@2@@__crt_stdio_output@@QEAA@XZ 0000000180061fa0 f i libucrtd:output.obj
 0001:00060fc0       ??1?$output_processor@_WV?$stream_output_adapter@_W@__crt_stdio_output@@V?$standard_base@_WV?$stream_output_adapter@_W@__crt_stdio_output@@@2@@__crt_stdio_output@@QEAA@XZ 0000000180061fc0 f i libucrtd:output.obj
 0001:00060fe0       ??1?$output_processor@_WV?$string_output_adapter@_W@__crt_stdio_output@@V?$format_validation_base@_WV?$string_output_adapter@_W@__crt_stdio_output@@@2@@__crt_stdio_output@@QEAA@XZ 0000000180061fe0 f i libucrtd:output.obj
 0001:00061000       ??1?$output_processor@_WV?$string_output_adapter@_W@__crt_stdio_output@@V?$positional_parameter_base@_WV?$string_output_adapter@_W@__crt_stdio_output@@@2@@__crt_stdio_output@@QEAA@XZ 0000000180062000 f i libucrtd:output.obj
 0001:00061020       ??1?$output_processor@_WV?$string_output_adapter@_W@__crt_stdio_output@@V?$standard_base@_WV?$string_output_adapter@_W@__crt_stdio_output@@@2@@__crt_stdio_output@@QEAA@XZ 0000000180062020 f i libucrtd:output.obj
 0001:00061040       ??1?$positional_parameter_base@DV?$stream_output_adapter@D@__crt_stdio_output@@@__crt_stdio_output@@QEAA@XZ 0000000180062040 f i libucrtd:output.obj
 0001:00061060       ??1?$positional_parameter_base@DV?$string_output_adapter@D@__crt_stdio_output@@@__crt_stdio_output@@QEAA@XZ 0000000180062060 f i libucrtd:output.obj
 0001:00061080       ??1?$positional_parameter_base@_WV?$stream_output_adapter@_W@__crt_stdio_output@@@__crt_stdio_output@@QEAA@XZ 0000000180062080 f i libucrtd:output.obj
 0001:000610a0       ??1?$positional_parameter_base@_WV?$string_output_adapter@_W@__crt_stdio_output@@@__crt_stdio_output@@QEAA@XZ 00000001800620a0 f i libucrtd:output.obj
 0001:000610c0       ??1?$standard_base@DV?$stream_output_adapter@D@__crt_stdio_output@@@__crt_stdio_output@@QEAA@XZ 00000001800620c0 f i libucrtd:output.obj
 0001:000610e0       ??1?$standard_base@DV?$string_output_adapter@D@__crt_stdio_output@@@__crt_stdio_output@@QEAA@XZ 00000001800620e0 f i libucrtd:output.obj
 0001:00061100       ??1?$standard_base@_WV?$stream_output_adapter@_W@__crt_stdio_output@@@__crt_stdio_output@@QEAA@XZ 0000000180062100 f i libucrtd:output.obj
 0001:00061120       ??1?$standard_base@_WV?$string_output_adapter@_W@__crt_stdio_output@@@__crt_stdio_output@@QEAA@XZ 0000000180062120 f i libucrtd:output.obj
 0001:00061140       ??1_LocaleUpdate@@QEAA@XZ  0000000180062140 f i libucrtd:output.obj
 0001:00061170       ??1__acrt_stdio_temporary_buffering_guard@@QEAA@XZ 0000000180062170 f i libucrtd:output.obj
 0001:000611a0       ??1__crt_errno_guard@@QEAA@XZ 00000001800621a0 f i libucrtd:output.obj
 0001:000611d0       ??1formatting_buffer@__crt_stdio_output@@QEAA@XZ 00000001800621d0 f i libucrtd:output.obj
 0001:00061200       ??4?$__crt_unique_heap_ptr@DU__crt_internal_free_policy@@@@QEAAAEAV0@$$QEAV0@@Z 0000000180062200 f i libucrtd:output.obj
 0001:00061240       ??A?$spectre_mitigated_lookup_table@Ustate_transition_pair@__crt_stdio_output@@$0IA@@__crt_stdio_output@@QEBAAEBUstate_transition_pair@1@_K@Z 0000000180062240 f i libucrtd:output.obj
 0001:00061260       ??C__crt_stdio_stream@@QEBAPEAU__crt_stdio_stream_data@@XZ 0000000180062260 f i libucrtd:output.obj
 0001:00061b10       ?GetLocaleT@_LocaleUpdate@@QEAAPEAU__crt_locale_pointers@@XZ 0000000180062b10 f i libucrtd:output.obj
 0001:00061b20       ?__crt_interlocked_read_32@@YAHPEDH@Z 0000000180062b20 f i libucrtd:output.obj
 0001:00061b40       ?adjust_hexit@?$output_processor@DV?$stream_output_adapter@D@__crt_stdio_output@@V?$format_validation_base@DV?$stream_output_adapter@D@__crt_stdio_output@@@2@@__crt_stdio_output@@CADH_N@Z 0000000180062b40 f i libucrtd:output.obj
 0001:00061b90       ?adjust_hexit@?$output_processor@DV?$stream_output_adapter@D@__crt_stdio_output@@V?$positional_parameter_base@DV?$stream_output_adapter@D@__crt_stdio_output@@@2@@__crt_stdio_output@@CADH_N@Z 0000000180062b90 f i libucrtd:output.obj
 0001:00061be0       ?adjust_hexit@?$output_processor@DV?$stream_output_adapter@D@__crt_stdio_output@@V?$standard_base@DV?$stream_output_adapter@D@__crt_stdio_output@@@2@@__crt_stdio_output@@CADH_N@Z 0000000180062be0 f i libucrtd:output.obj
 0001:00061c30       ?adjust_hexit@?$output_processor@DV?$string_output_adapter@D@__crt_stdio_output@@V?$format_validation_base@DV?$string_output_adapter@D@__crt_stdio_output@@@2@@__crt_stdio_output@@CADH_N@Z 0000000180062c30 f i libucrtd:output.obj
 0001:00061c80       ?adjust_hexit@?$output_processor@DV?$string_output_adapter@D@__crt_stdio_output@@V?$positional_parameter_base@DV?$string_output_adapter@D@__crt_stdio_output@@@2@@__crt_stdio_output@@CADH_N@Z 0000000180062c80 f i libucrtd:output.obj
 0001:00061cd0       ?adjust_hexit@?$output_processor@DV?$string_output_adapter@D@__crt_stdio_output@@V?$standard_base@DV?$string_output_adapter@D@__crt_stdio_output@@@2@@__crt_stdio_output@@CADH_N@Z 0000000180062cd0 f i libucrtd:output.obj
 0001:00061d20       ?adjust_hexit@?$output_processor@_WV?$stream_output_adapter@_W@__crt_stdio_output@@V?$format_validation_base@_WV?$stream_output_adapter@_W@__crt_stdio_output@@@2@@__crt_stdio_output@@CADH_N@Z 0000000180062d20 f i libucrtd:output.obj
 0001:00061d70       ?adjust_hexit@?$output_processor@_WV?$stream_output_adapter@_W@__crt_stdio_output@@V?$positional_parameter_base@_WV?$stream_output_adapter@_W@__crt_stdio_output@@@2@@__crt_stdio_output@@CADH_N@Z 0000000180062d70 f i libucrtd:output.obj
 0001:00061dc0       ?adjust_hexit@?$output_processor@_WV?$stream_output_adapter@_W@__crt_stdio_output@@V?$standard_base@_WV?$stream_output_adapter@_W@__crt_stdio_output@@@2@@__crt_stdio_output@@CADH_N@Z 0000000180062dc0 f i libucrtd:output.obj
 0001:00061e10       ?adjust_hexit@?$output_processor@_WV?$string_output_adapter@_W@__crt_stdio_output@@V?$format_validation_base@_WV?$string_output_adapter@_W@__crt_stdio_output@@@2@@__crt_stdio_output@@CADH_N@Z 0000000180062e10 f i libucrtd:output.obj
 0001:00061e60       ?adjust_hexit@?$output_processor@_WV?$string_output_adapter@_W@__crt_stdio_output@@V?$positional_parameter_base@_WV?$string_output_adapter@_W@__crt_stdio_output@@@2@@__crt_stdio_output@@CADH_N@Z 0000000180062e60 f i libucrtd:output.obj
 0001:00061eb0       ?adjust_hexit@?$output_processor@_WV?$string_output_adapter@_W@__crt_stdio_output@@V?$standard_base@_WV?$string_output_adapter@_W@__crt_stdio_output@@@2@@__crt_stdio_output@@CADH_N@Z 0000000180062eb0 f i libucrtd:output.obj
 0001:00061f00       ?advance_to_next_pass@?$positional_parameter_base@DV?$stream_output_adapter@D@__crt_stdio_output@@@__crt_stdio_output@@IEAA_NXZ 0000000180062f00 f i libucrtd:output.obj
 0001:00061fb0       ?advance_to_next_pass@?$positional_parameter_base@DV?$string_output_adapter@D@__crt_stdio_output@@@__crt_stdio_output@@IEAA_NXZ 0000000180062fb0 f i libucrtd:output.obj
 0001:00062060       ?advance_to_next_pass@?$positional_parameter_base@_WV?$stream_output_adapter@_W@__crt_stdio_output@@@__crt_stdio_output@@IEAA_NXZ 0000000180063060 f i libucrtd:output.obj
 0001:00062110       ?advance_to_next_pass@?$positional_parameter_base@_WV?$string_output_adapter@_W@__crt_stdio_output@@@__crt_stdio_output@@IEAA_NXZ 0000000180063110 f i libucrtd:output.obj
 0001:000621c0       ?advance_to_next_pass@?$standard_base@DV?$stream_output_adapter@D@__crt_stdio_output@@@__crt_stdio_output@@IEAA_NXZ 00000001800631c0 f i libucrtd:output.obj
 0001:00062210       ?advance_to_next_pass@?$standard_base@DV?$string_output_adapter@D@__crt_stdio_output@@@__crt_stdio_output@@IEAA_NXZ 0000000180063210 f i libucrtd:output.obj
 0001:00062260       ?advance_to_next_pass@?$standard_base@_WV?$stream_output_adapter@_W@__crt_stdio_output@@@__crt_stdio_output@@IEAA_NXZ 0000000180063260 f i libucrtd:output.obj
 0001:000622b0       ?advance_to_next_pass@?$standard_base@_WV?$string_output_adapter@_W@__crt_stdio_output@@@__crt_stdio_output@@IEAA_NXZ 00000001800632b0 f i libucrtd:output.obj
 0001:00062300       ?crop_zeroes@__crt_stdio_output@@YAXPEADQEAU__crt_locale_pointers@@@Z 0000000180063300 f i libucrtd:output.obj
 0001:00062440       ?find_next_state@?$output_processor@DV?$stream_output_adapter@D@__crt_stdio_output@@V?$format_validation_base@DV?$stream_output_adapter@D@__crt_stdio_output@@@2@@__crt_stdio_output@@AEBA?AW4state@2@DW432@@Z 0000000180063440 f i libucrtd:output.obj
 0001:000624d0       ?find_next_state@?$output_processor@DV?$stream_output_adapter@D@__crt_stdio_output@@V?$positional_parameter_base@DV?$stream_output_adapter@D@__crt_stdio_output@@@2@@__crt_stdio_output@@AEBA?AW4state@2@DW432@@Z 00000001800634d0 f i libucrtd:output.obj
 0001:00062560       ?find_next_state@?$output_processor@DV?$stream_output_adapter@D@__crt_stdio_output@@V?$standard_base@DV?$stream_output_adapter@D@__crt_stdio_output@@@2@@__crt_stdio_output@@AEBA?AW4state@2@DW432@@Z 0000000180063560 f i libucrtd:output.obj
 0001:000625f0       ?find_next_state@?$output_processor@DV?$string_output_adapter@D@__crt_stdio_output@@V?$format_validation_base@DV?$string_output_adapter@D@__crt_stdio_output@@@2@@__crt_stdio_output@@AEBA?AW4state@2@DW432@@Z 00000001800635f0 f i libucrtd:output.obj
 0001:00062680       ?find_next_state@?$output_processor@DV?$string_output_adapter@D@__crt_stdio_output@@V?$positional_parameter_base@DV?$string_output_adapter@D@__crt_stdio_output@@@2@@__crt_stdio_output@@AEBA?AW4state@2@DW432@@Z 0000000180063680 f i libucrtd:output.obj
 0001:00062710       ?find_next_state@?$output_processor@DV?$string_output_adapter@D@__crt_stdio_output@@V?$standard_base@DV?$string_output_adapter@D@__crt_stdio_output@@@2@@__crt_stdio_output@@AEBA?AW4state@2@DW432@@Z 0000000180063710 f i libucrtd:output.obj
 0001:000627a0       ?find_next_state@?$output_processor@_WV?$stream_output_adapter@_W@__crt_stdio_output@@V?$format_validation_base@_WV?$stream_output_adapter@_W@__crt_stdio_output@@@2@@__crt_stdio_output@@AEBA?AW4state@2@_WW432@@Z 00000001800637a0 f i libucrtd:output.obj
 0001:00062830       ?find_next_state@?$output_processor@_WV?$stream_output_adapter@_W@__crt_stdio_output@@V?$positional_parameter_base@_WV?$stream_output_adapter@_W@__crt_stdio_output@@@2@@__crt_stdio_output@@AEBA?AW4state@2@_WW432@@Z 0000000180063830 f i libucrtd:output.obj
 0001:000628c0       ?find_next_state@?$output_processor@_WV?$stream_output_adapter@_W@__crt_stdio_output@@V?$standard_base@_WV?$stream_output_adapter@_W@__crt_stdio_output@@@2@@__crt_stdio_output@@AEBA?AW4state@2@_WW432@@Z 00000001800638c0 f i libucrtd:output.obj
 0001:00062950       ?find_next_state@?$output_processor@_WV?$string_output_adapter@_W@__crt_stdio_output@@V?$format_validation_base@_WV?$string_output_adapter@_W@__crt_stdio_output@@@2@@__crt_stdio_output@@AEBA?AW4state@2@_WW432@@Z 0000000180063950 f i libucrtd:output.obj
 0001:000629e0       ?find_next_state@?$output_processor@_WV?$string_output_adapter@_W@__crt_stdio_output@@V?$positional_parameter_base@_WV?$string_output_adapter@_W@__crt_stdio_output@@@2@@__crt_stdio_output@@AEBA?AW4state@2@_WW432@@Z 00000001800639e0 f i libucrtd:output.obj
 0001:00062a70       ?find_next_state@?$output_processor@_WV?$string_output_adapter@_W@__crt_stdio_output@@V?$standard_base@_WV?$string_output_adapter@_W@__crt_stdio_output@@@2@@__crt_stdio_output@@AEBA?AW4state@2@_WW432@@Z 0000000180063a70 f i libucrtd:output.obj
 0001:00062b00       ?force_decimal_point@__crt_stdio_output@@YAXPEADQEAU__crt_locale_pointers@@@Z 0000000180063b00 f i libucrtd:output.obj
 0001:00062c00       ?get@__crt_deferred_errno_cache@@QEAAAEAHXZ 0000000180063c00 f i libucrtd:output.obj
 0001:00062c30       ?get_flags@__crt_stdio_stream@@QEBAJXZ 0000000180063c30 f i libucrtd:output.obj
 0001:00062c60       ?get_parameter_type@?$positional_parameter_base@DV?$stream_output_adapter@D@__crt_stdio_output@@@__crt_stdio_output@@CA?AW4parameter_type@12@F@Z 0000000180063c60 f i libucrtd:output.obj
 0001:00062c70       ?get_parameter_type@?$positional_parameter_base@DV?$stream_output_adapter@D@__crt_stdio_output@@@__crt_stdio_output@@CA?AW4parameter_type@12@G@Z 0000000180063c70 f i libucrtd:output.obj
 0001:00062c80       ?get_parameter_type@?$positional_parameter_base@DV?$stream_output_adapter@D@__crt_stdio_output@@@__crt_stdio_output@@CA?AW4parameter_type@12@H@Z 0000000180063c80 f i libucrtd:output.obj
 0001:00062c90       ?get_parameter_type@?$positional_parameter_base@DV?$stream_output_adapter@D@__crt_stdio_output@@@__crt_stdio_output@@CA?AW4parameter_type@12@I@Z 0000000180063c90 f i libucrtd:output.obj
 0001:00062ca0       ?get_parameter_type@?$positional_parameter_base@DV?$stream_output_adapter@D@__crt_stdio_output@@@__crt_stdio_output@@CA?AW4parameter_type@12@U_CRT_DOUBLE@@@Z 0000000180063ca0 f i libucrtd:output.obj
 0001:00062cb0       ?get_parameter_type@?$positional_parameter_base@DV?$stream_output_adapter@D@__crt_stdio_output@@@__crt_stdio_output@@CA?AW4parameter_type@12@_J@Z 0000000180063cb0 f i libucrtd:output.obj
 0001:00062cc0       ?get_parameter_type@?$positional_parameter_base@DV?$stream_output_adapter@D@__crt_stdio_output@@@__crt_stdio_output@@CA?AW4parameter_type@12@_K@Z 0000000180063cc0 f i libucrtd:output.obj
 0001:00062cd0       ?get_parameter_type@?$positional_parameter_base@DV?$stream_output_adapter@D@__crt_stdio_output@@@__crt_stdio_output@@CA?AW4parameter_type@12@_W@Z 0000000180063cd0 f i libucrtd:output.obj
 0001:00062ce0       ?get_parameter_type@?$positional_parameter_base@DV?$string_output_adapter@D@__crt_stdio_output@@@__crt_stdio_output@@CA?AW4parameter_type@12@F@Z 0000000180063ce0 f i libucrtd:output.obj
 0001:00062cf0       ?get_parameter_type@?$positional_parameter_base@DV?$string_output_adapter@D@__crt_stdio_output@@@__crt_stdio_output@@CA?AW4parameter_type@12@G@Z 0000000180063cf0 f i libucrtd:output.obj
 0001:00062d00       ?get_parameter_type@?$positional_parameter_base@DV?$string_output_adapter@D@__crt_stdio_output@@@__crt_stdio_output@@CA?AW4parameter_type@12@H@Z 0000000180063d00 f i libucrtd:output.obj
 0001:00062d10       ?get_parameter_type@?$positional_parameter_base@DV?$string_output_adapter@D@__crt_stdio_output@@@__crt_stdio_output@@CA?AW4parameter_type@12@I@Z 0000000180063d10 f i libucrtd:output.obj
 0001:00062d20       ?get_parameter_type@?$positional_parameter_base@DV?$string_output_adapter@D@__crt_stdio_output@@@__crt_stdio_output@@CA?AW4parameter_type@12@U_CRT_DOUBLE@@@Z 0000000180063d20 f i libucrtd:output.obj
 0001:00062d30       ?get_parameter_type@?$positional_parameter_base@DV?$string_output_adapter@D@__crt_stdio_output@@@__crt_stdio_output@@CA?AW4parameter_type@12@_J@Z 0000000180063d30 f i libucrtd:output.obj
 0001:00062d40       ?get_parameter_type@?$positional_parameter_base@DV?$string_output_adapter@D@__crt_stdio_output@@@__crt_stdio_output@@CA?AW4parameter_type@12@_K@Z 0000000180063d40 f i libucrtd:output.obj
 0001:00062d50       ?get_parameter_type@?$positional_parameter_base@DV?$string_output_adapter@D@__crt_stdio_output@@@__crt_stdio_output@@CA?AW4parameter_type@12@_W@Z 0000000180063d50 f i libucrtd:output.obj
 0001:00062d60       ?get_parameter_type@?$positional_parameter_base@_WV?$stream_output_adapter@_W@__crt_stdio_output@@@__crt_stdio_output@@CA?AW4parameter_type@12@F@Z 0000000180063d60 f i libucrtd:output.obj
 0001:00062d70       ?get_parameter_type@?$positional_parameter_base@_WV?$stream_output_adapter@_W@__crt_stdio_output@@@__crt_stdio_output@@CA?AW4parameter_type@12@G@Z 0000000180063d70 f i libucrtd:output.obj
 0001:00062d80       ?get_parameter_type@?$positional_parameter_base@_WV?$stream_output_adapter@_W@__crt_stdio_output@@@__crt_stdio_output@@CA?AW4parameter_type@12@H@Z 0000000180063d80 f i libucrtd:output.obj
 0001:00062d90       ?get_parameter_type@?$positional_parameter_base@_WV?$stream_output_adapter@_W@__crt_stdio_output@@@__crt_stdio_output@@CA?AW4parameter_type@12@I@Z 0000000180063d90 f i libucrtd:output.obj
 0001:00062da0       ?get_parameter_type@?$positional_parameter_base@_WV?$stream_output_adapter@_W@__crt_stdio_output@@@__crt_stdio_output@@CA?AW4parameter_type@12@U_CRT_DOUBLE@@@Z 0000000180063da0 f i libucrtd:output.obj
 0001:00062db0       ?get_parameter_type@?$positional_parameter_base@_WV?$stream_output_adapter@_W@__crt_stdio_output@@@__crt_stdio_output@@CA?AW4parameter_type@12@_J@Z 0000000180063db0 f i libucrtd:output.obj
 0001:00062dc0       ?get_parameter_type@?$positional_parameter_base@_WV?$stream_output_adapter@_W@__crt_stdio_output@@@__crt_stdio_output@@CA?AW4parameter_type@12@_K@Z 0000000180063dc0 f i libucrtd:output.obj
 0001:00062dd0       ?get_parameter_type@?$positional_parameter_base@_WV?$stream_output_adapter@_W@__crt_stdio_output@@@__crt_stdio_output@@CA?AW4parameter_type@12@_W@Z 0000000180063dd0 f i libucrtd:output.obj
 0001:00062de0       ?get_parameter_type@?$positional_parameter_base@_WV?$string_output_adapter@_W@__crt_stdio_output@@@__crt_stdio_output@@CA?AW4parameter_type@12@F@Z 0000000180063de0 f i libucrtd:output.obj
 0001:00062df0       ?get_parameter_type@?$positional_parameter_base@_WV?$string_output_adapter@_W@__crt_stdio_output@@@__crt_stdio_output@@CA?AW4parameter_type@12@G@Z 0000000180063df0 f i libucrtd:output.obj
 0001:00062e00       ?get_parameter_type@?$positional_parameter_base@_WV?$string_output_adapter@_W@__crt_stdio_output@@@__crt_stdio_output@@CA?AW4parameter_type@12@H@Z 0000000180063e00 f i libucrtd:output.obj
 0001:00062e10       ?get_parameter_type@?$positional_parameter_base@_WV?$string_output_adapter@_W@__crt_stdio_output@@@__crt_stdio_output@@CA?AW4parameter_type@12@I@Z 0000000180063e10 f i libucrtd:output.obj
 0001:00062e20       ?get_parameter_type@?$positional_parameter_base@_WV?$string_output_adapter@_W@__crt_stdio_output@@@__crt_stdio_output@@CA?AW4parameter_type@12@U_CRT_DOUBLE@@@Z 0000000180063e20 f i libucrtd:output.obj
 0001:00062e30       ?get_parameter_type@?$positional_parameter_base@_WV?$string_output_adapter@_W@__crt_stdio_output@@@__crt_stdio_output@@CA?AW4parameter_type@12@_J@Z 0000000180063e30 f i libucrtd:output.obj
 0001:00062e40       ?get_parameter_type@?$positional_parameter_base@_WV?$string_output_adapter@_W@__crt_stdio_output@@@__crt_stdio_output@@CA?AW4parameter_type@12@_K@Z 0000000180063e40 f i libucrtd:output.obj
 0001:00062e50       ?get_parameter_type@?$positional_parameter_base@_WV?$string_output_adapter@_W@__crt_stdio_output@@@__crt_stdio_output@@CA?AW4parameter_type@12@_W@Z 0000000180063e50 f i libucrtd:output.obj
 0001:00062e60       ?has_flag@?$output_processor@DV?$stream_output_adapter@D@__crt_stdio_output@@V?$format_validation_base@DV?$stream_output_adapter@D@__crt_stdio_output@@@2@@__crt_stdio_output@@AEBA_NI@Z 0000000180063e60 f i libucrtd:output.obj
 0001:00062ea0       ?has_flag@?$output_processor@DV?$stream_output_adapter@D@__crt_stdio_output@@V?$positional_parameter_base@DV?$stream_output_adapter@D@__crt_stdio_output@@@2@@__crt_stdio_output@@AEBA_NI@Z 0000000180063ea0 f i libucrtd:output.obj
 0001:00062ee0       ?has_flag@?$output_processor@DV?$stream_output_adapter@D@__crt_stdio_output@@V?$standard_base@DV?$stream_output_adapter@D@__crt_stdio_output@@@2@@__crt_stdio_output@@AEBA_NI@Z 0000000180063ee0 f i libucrtd:output.obj
 0001:00062f20       ?has_flag@?$output_processor@DV?$string_output_adapter@D@__crt_stdio_output@@V?$format_validation_base@DV?$string_output_adapter@D@__crt_stdio_output@@@2@@__crt_stdio_output@@AEBA_NI@Z 0000000180063f20 f i libucrtd:output.obj
 0001:00062f60       ?has_flag@?$output_processor@DV?$string_output_adapter@D@__crt_stdio_output@@V?$positional_parameter_base@DV?$string_output_adapter@D@__crt_stdio_output@@@2@@__crt_stdio_output@@AEBA_NI@Z 0000000180063f60 f i libucrtd:output.obj
 0001:00062fa0       ?has_flag@?$output_processor@DV?$string_output_adapter@D@__crt_stdio_output@@V?$standard_base@DV?$string_output_adapter@D@__crt_stdio_output@@@2@@__crt_stdio_output@@AEBA_NI@Z 0000000180063fa0 f i libucrtd:output.obj
 0001:00062fe0       ?has_flag@?$output_processor@_WV?$stream_output_adapter@_W@__crt_stdio_output@@V?$format_validation_base@_WV?$stream_output_adapter@_W@__crt_stdio_output@@@2@@__crt_stdio_output@@AEBA_NI@Z 0000000180063fe0 f i libucrtd:output.obj
 0001:00063020       ?has_flag@?$output_processor@_WV?$stream_output_adapter@_W@__crt_stdio_output@@V?$positional_parameter_base@_WV?$stream_output_adapter@_W@__crt_stdio_output@@@2@@__crt_stdio_output@@AEBA_NI@Z 0000000180064020 f i libucrtd:output.obj
 0001:00063060       ?has_flag@?$output_processor@_WV?$stream_output_adapter@_W@__crt_stdio_output@@V?$standard_base@_WV?$stream_output_adapter@_W@__crt_stdio_output@@@2@@__crt_stdio_output@@AEBA_NI@Z 0000000180064060 f i libucrtd:output.obj
 0001:000630a0       ?has_flag@?$output_processor@_WV?$string_output_adapter@_W@__crt_stdio_output@@V?$format_validation_base@_WV?$string_output_adapter@_W@__crt_stdio_output@@@2@@__crt_stdio_output@@AEBA_NI@Z 00000001800640a0 f i libucrtd:output.obj
 0001:000630e0       ?has_flag@?$output_processor@_WV?$string_output_adapter@_W@__crt_stdio_output@@V?$positional_parameter_base@_WV?$string_output_adapter@_W@__crt_stdio_output@@@2@@__crt_stdio_output@@AEBA_NI@Z 00000001800640e0 f i libucrtd:output.obj
 0001:00063120       ?has_flag@?$output_processor@_WV?$string_output_adapter@_W@__crt_stdio_output@@V?$standard_base@_WV?$string_output_adapter@_W@__crt_stdio_output@@@2@@__crt_stdio_output@@AEBA_NI@Z 0000000180064120 f i libucrtd:output.obj
 0001:00063160       ?is_positional_parameter_reappearance_consistent@?$positional_parameter_base@DV?$stream_output_adapter@D@__crt_stdio_output@@@__crt_stdio_output@@AEAA_NAEBUparameter_data@12@W4parameter_type@12@DW4length_modifier@2@@Z 0000000180064160 f i libucrtd:output.obj
 0001:000633c0       ?is_positional_parameter_reappearance_consistent@?$positional_parameter_base@DV?$string_output_adapter@D@__crt_stdio_output@@@__crt_stdio_output@@AEAA_NAEBUparameter_data@12@W4parameter_type@12@DW4length_modifier@2@@Z 00000001800643c0 f i libucrtd:output.obj
 0001:00063620       ?is_positional_parameter_reappearance_consistent@?$positional_parameter_base@_WV?$stream_output_adapter@_W@__crt_stdio_output@@@__crt_stdio_output@@AEAA_NAEBUparameter_data@12@W4parameter_type@12@_WW4length_modifier@2@@Z 0000000180064620 f i libucrtd:output.obj
 0001:00063880       ?is_positional_parameter_reappearance_consistent@?$positional_parameter_base@_WV?$string_output_adapter@_W@__crt_stdio_output@@@__crt_stdio_output@@AEAA_NAEBUparameter_data@12@W4parameter_type@12@_WW4length_modifier@2@@Z 0000000180064880 f i libucrtd:output.obj
 0001:00063ae0       ?is_string_backed@__crt_stdio_stream@@QEBA_NXZ 0000000180064ae0 f i libucrtd:output.obj
 0001:00063b20       ?narrow_null_string@?$output_processor@DV?$stream_output_adapter@D@__crt_stdio_output@@V?$format_validation_base@DV?$stream_output_adapter@D@__crt_stdio_output@@@2@@__crt_stdio_output@@CAPEADXZ 0000000180064b20 f i libucrtd:output.obj
 0001:00063b30       ?narrow_null_string@?$output_processor@DV?$stream_output_adapter@D@__crt_stdio_output@@V?$positional_parameter_base@DV?$stream_output_adapter@D@__crt_stdio_output@@@2@@__crt_stdio_output@@CAPEADXZ 0000000180064b30 f i libucrtd:output.obj
 0001:00063b40       ?narrow_null_string@?$output_processor@DV?$stream_output_adapter@D@__crt_stdio_output@@V?$standard_base@DV?$stream_output_adapter@D@__crt_stdio_output@@@2@@__crt_stdio_output@@CAPEADXZ 0000000180064b40 f i libucrtd:output.obj
 0001:00063b50       ?narrow_null_string@?$output_processor@DV?$string_output_adapter@D@__crt_stdio_output@@V?$format_validation_base@DV?$string_output_adapter@D@__crt_stdio_output@@@2@@__crt_stdio_output@@CAPEADXZ 0000000180064b50 f i libucrtd:output.obj
 0001:00063b60       ?narrow_null_string@?$output_processor@DV?$string_output_adapter@D@__crt_stdio_output@@V?$positional_parameter_base@DV?$string_output_adapter@D@__crt_stdio_output@@@2@@__crt_stdio_output@@CAPEADXZ 0000000180064b60 f i libucrtd:output.obj
 0001:00063b70       ?narrow_null_string@?$output_processor@DV?$string_output_adapter@D@__crt_stdio_output@@V?$standard_base@DV?$string_output_adapter@D@__crt_stdio_output@@@2@@__crt_stdio_output@@CAPEADXZ 0000000180064b70 f i libucrtd:output.obj
 0001:00063b80       ?narrow_null_string@?$output_processor@_WV?$stream_output_adapter@_W@__crt_stdio_output@@V?$format_validation_base@_WV?$stream_output_adapter@_W@__crt_stdio_output@@@2@@__crt_stdio_output@@CAPEADXZ 0000000180064b80 f i libucrtd:output.obj
 0001:00063b90       ?narrow_null_string@?$output_processor@_WV?$stream_output_adapter@_W@__crt_stdio_output@@V?$positional_parameter_base@_WV?$stream_output_adapter@_W@__crt_stdio_output@@@2@@__crt_stdio_output@@CAPEADXZ 0000000180064b90 f i libucrtd:output.obj
 0001:00063ba0       ?narrow_null_string@?$output_processor@_WV?$stream_output_adapter@_W@__crt_stdio_output@@V?$standard_base@_WV?$stream_output_adapter@_W@__crt_stdio_output@@@2@@__crt_stdio_output@@CAPEADXZ 0000000180064ba0 f i libucrtd:output.obj
 0001:00063bb0       ?narrow_null_string@?$output_processor@_WV?$string_output_adapter@_W@__crt_stdio_output@@V?$format_validation_base@_WV?$string_output_adapter@_W@__crt_stdio_output@@@2@@__crt_stdio_output@@CAPEADXZ 0000000180064bb0 f i libucrtd:output.obj
 0001:00063bc0       ?narrow_null_string@?$output_processor@_WV?$string_output_adapter@_W@__crt_stdio_output@@V?$positional_parameter_base@_WV?$string_output_adapter@_W@__crt_stdio_output@@@2@@__crt_stdio_output@@CAPEADXZ 0000000180064bc0 f i libucrtd:output.obj
 0001:00063bd0       ?narrow_null_string@?$output_processor@_WV?$string_output_adapter@_W@__crt_stdio_output@@V?$standard_base@_WV?$string_output_adapter@_W@__crt_stdio_output@@@2@@__crt_stdio_output@@CAPEADXZ 0000000180064bd0 f i libucrtd:output.obj
 0001:00063be0       ?parse_int_from_format_string@?$output_processor@DV?$stream_output_adapter@D@__crt_stdio_output@@V?$format_validation_base@DV?$stream_output_adapter@D@__crt_stdio_output@@@2@@__crt_stdio_output@@AEAA_NQEAH@Z 0000000180064be0 f i libucrtd:output.obj
 0001:00063cd0       ?parse_int_from_format_string@?$output_processor@DV?$stream_output_adapter@D@__crt_stdio_output@@V?$positional_parameter_base@DV?$stream_output_adapter@D@__crt_stdio_output@@@2@@__crt_stdio_output@@AEAA_NQEAH@Z 0000000180064cd0 f i libucrtd:output.obj
 0001:00063dc0       ?parse_int_from_format_string@?$output_processor@DV?$stream_output_adapter@D@__crt_stdio_output@@V?$standard_base@DV?$stream_output_adapter@D@__crt_stdio_output@@@2@@__crt_stdio_output@@AEAA_NQEAH@Z 0000000180064dc0 f i libucrtd:output.obj
 0001:00063eb0       ?parse_int_from_format_string@?$output_processor@DV?$string_output_adapter@D@__crt_stdio_output@@V?$format_validation_base@DV?$string_output_adapter@D@__crt_stdio_output@@@2@@__crt_stdio_output@@AEAA_NQEAH@Z 0000000180064eb0 f i libucrtd:output.obj
 0001:00063fa0       ?parse_int_from_format_string@?$output_processor@DV?$string_output_adapter@D@__crt_stdio_output@@V?$positional_parameter_base@DV?$string_output_adapter@D@__crt_stdio_output@@@2@@__crt_stdio_output@@AEAA_NQEAH@Z 0000000180064fa0 f i libucrtd:output.obj
 0001:00064090       ?parse_int_from_format_string@?$output_processor@DV?$string_output_adapter@D@__crt_stdio_output@@V?$standard_base@DV?$string_output_adapter@D@__crt_stdio_output@@@2@@__crt_stdio_output@@AEAA_NQEAH@Z 0000000180065090 f i libucrtd:output.obj
 0001:00064180       ?parse_int_from_format_string@?$output_processor@_WV?$stream_output_adapter@_W@__crt_stdio_output@@V?$format_validation_base@_WV?$stream_output_adapter@_W@__crt_stdio_output@@@2@@__crt_stdio_output@@AEAA_NQEAH@Z 0000000180065180 f i libucrtd:output.obj
 0001:00064270       ?parse_int_from_format_string@?$output_processor@_WV?$stream_output_adapter@_W@__crt_stdio_output@@V?$positional_parameter_base@_WV?$stream_output_adapter@_W@__crt_stdio_output@@@2@@__crt_stdio_output@@AEAA_NQEAH@Z 0000000180065270 f i libucrtd:output.obj
 0001:00064360       ?parse_int_from_format_string@?$output_processor@_WV?$stream_output_adapter@_W@__crt_stdio_output@@V?$standard_base@_WV?$stream_output_adapter@_W@__crt_stdio_output@@@2@@__crt_stdio_output@@AEAA_NQEAH@Z 0000000180065360 f i libucrtd:output.obj
 0001:00064450       ?parse_int_from_format_string@?$output_processor@_WV?$string_output_adapter@_W@__crt_stdio_output@@V?$format_validation_base@_WV?$string_output_adapter@_W@__crt_stdio_output@@@2@@__crt_stdio_output@@AEAA_NQEAH@Z 0000000180065450 f i libucrtd:output.obj
 0001:00064540       ?parse_int_from_format_string@?$output_processor@_WV?$string_output_adapter@_W@__crt_stdio_output@@V?$positional_parameter_base@_WV?$string_output_adapter@_W@__crt_stdio_output@@@2@@__crt_stdio_output@@AEAA_NQEAH@Z 0000000180065540 f i libucrtd:output.obj
 0001:00064630       ?parse_int_from_format_string@?$output_processor@_WV?$string_output_adapter@_W@__crt_stdio_output@@V?$standard_base@_WV?$string_output_adapter@_W@__crt_stdio_output@@@2@@__crt_stdio_output@@AEAA_NQEAH@Z 0000000180065630 f i libucrtd:output.obj
 0001:00064720       ?process@?$output_processor@DV?$stream_output_adapter@D@__crt_stdio_output@@V?$format_validation_base@DV?$stream_output_adapter@D@__crt_stdio_output@@@2@@__crt_stdio_output@@QEAAHXZ 0000000180065720 f i libucrtd:output.obj
 0001:00064a80       ?process@?$output_processor@DV?$stream_output_adapter@D@__crt_stdio_output@@V?$positional_parameter_base@DV?$stream_output_adapter@D@__crt_stdio_output@@@2@@__crt_stdio_output@@QEAAHXZ 0000000180065a80 f i libucrtd:output.obj
 0001:00064de0       ?process@?$output_processor@DV?$stream_output_adapter@D@__crt_stdio_output@@V?$standard_base@DV?$stream_output_adapter@D@__crt_stdio_output@@@2@@__crt_stdio_output@@QEAAHXZ 0000000180065de0 f i libucrtd:output.obj
 0001:00065140       ?process@?$output_processor@DV?$string_output_adapter@D@__crt_stdio_output@@V?$format_validation_base@DV?$string_output_adapter@D@__crt_stdio_output@@@2@@__crt_stdio_output@@QEAAHXZ 0000000180066140 f i libucrtd:output.obj
 0001:000654a0       ?process@?$output_processor@DV?$string_output_adapter@D@__crt_stdio_output@@V?$positional_parameter_base@DV?$string_output_adapter@D@__crt_stdio_output@@@2@@__crt_stdio_output@@QEAAHXZ 00000001800664a0 f i libucrtd:output.obj
 0001:00065800       ?process@?$output_processor@DV?$string_output_adapter@D@__crt_stdio_output@@V?$standard_base@DV?$string_output_adapter@D@__crt_stdio_output@@@2@@__crt_stdio_output@@QEAAHXZ 0000000180066800 f i libucrtd:output.obj
 0001:00065b60       ?process@?$output_processor@_WV?$stream_output_adapter@_W@__crt_stdio_output@@V?$format_validation_base@_WV?$stream_output_adapter@_W@__crt_stdio_output@@@2@@__crt_stdio_output@@QEAAHXZ 0000000180066b60 f i libucrtd:output.obj
 0001:00065ec0       ?process@?$output_processor@_WV?$stream_output_adapter@_W@__crt_stdio_output@@V?$positional_parameter_base@_WV?$stream_output_adapter@_W@__crt_stdio_output@@@2@@__crt_stdio_output@@QEAAHXZ 0000000180066ec0 f i libucrtd:output.obj
 0001:00066220       ?process@?$output_processor@_WV?$stream_output_adapter@_W@__crt_stdio_output@@V?$standard_base@_WV?$stream_output_adapter@_W@__crt_stdio_output@@@2@@__crt_stdio_output@@QEAAHXZ 0000000180067220 f i libucrtd:output.obj
 0001:00066580       ?process@?$output_processor@_WV?$string_output_adapter@_W@__crt_stdio_output@@V?$format_validation_base@_WV?$string_output_adapter@_W@__crt_stdio_output@@@2@@__crt_stdio_output@@QEAAHXZ 0000000180067580 f i libucrtd:output.obj
 0001:000668e0       ?process@?$output_processor@_WV?$string_output_adapter@_W@__crt_stdio_output@@V?$positional_parameter_base@_WV?$string_output_adapter@_W@__crt_stdio_output@@@2@@__crt_stdio_output@@QEAAHXZ 00000001800678e0 f i libucrtd:output.obj
 0001:00066c40       ?process@?$output_processor@_WV?$string_output_adapter@_W@__crt_stdio_output@@V?$standard_base@_WV?$string_output_adapter@_W@__crt_stdio_output@@@2@@__crt_stdio_output@@QEAAHXZ 0000000180067c40 f i libucrtd:output.obj
 0001:00066fa0       ?public_stream@__crt_stdio_stream@@QEBAPEAU_iobuf@@XZ 0000000180067fa0 f i libucrtd:output.obj
 0001:00066fb0       ?set_flag@?$output_processor@DV?$stream_output_adapter@D@__crt_stdio_output@@V?$format_validation_base@DV?$stream_output_adapter@D@__crt_stdio_output@@@2@@__crt_stdio_output@@AEAAXI@Z 0000000180067fb0 f i libucrtd:output.obj
 0001:00066fd0       ?set_flag@?$output_processor@DV?$stream_output_adapter@D@__crt_stdio_output@@V?$positional_parameter_base@DV?$stream_output_adapter@D@__crt_stdio_output@@@2@@__crt_stdio_output@@AEAAXI@Z 0000000180067fd0 f i libucrtd:output.obj
 0001:00066ff0       ?set_flag@?$output_processor@DV?$stream_output_adapter@D@__crt_stdio_output@@V?$standard_base@DV?$stream_output_adapter@D@__crt_stdio_output@@@2@@__crt_stdio_output@@AEAAXI@Z 0000000180067ff0 f i libucrtd:output.obj
 0001:00067010       ?set_flag@?$output_processor@DV?$string_output_adapter@D@__crt_stdio_output@@V?$format_validation_base@DV?$string_output_adapter@D@__crt_stdio_output@@@2@@__crt_stdio_output@@AEAAXI@Z 0000000180068010 f i libucrtd:output.obj
 0001:00067030       ?set_flag@?$output_processor@DV?$string_output_adapter@D@__crt_stdio_output@@V?$positional_parameter_base@DV?$string_output_adapter@D@__crt_stdio_output@@@2@@__crt_stdio_output@@AEAAXI@Z 0000000180068030 f i libucrtd:output.obj
 0001:00067050       ?set_flag@?$output_processor@DV?$string_output_adapter@D@__crt_stdio_output@@V?$standard_base@DV?$string_output_adapter@D@__crt_stdio_output@@@2@@__crt_stdio_output@@AEAAXI@Z 0000000180068050 f i libucrtd:output.obj
 0001:00067070       ?set_flag@?$output_processor@_WV?$stream_output_adapter@_W@__crt_stdio_output@@V?$format_validation_base@_WV?$stream_output_adapter@_W@__crt_stdio_output@@@2@@__crt_stdio_output@@AEAAXI@Z 0000000180068070 f i libucrtd:output.obj
 0001:00067090       ?set_flag@?$output_processor@_WV?$stream_output_adapter@_W@__crt_stdio_output@@V?$positional_parameter_base@_WV?$stream_output_adapter@_W@__crt_stdio_output@@@2@@__crt_stdio_output@@AEAAXI@Z 0000000180068090 f i libucrtd:output.obj
 0001:000670b0       ?set_flag@?$output_processor@_WV?$stream_output_adapter@_W@__crt_stdio_output@@V?$standard_base@_WV?$stream_output_adapter@_W@__crt_stdio_output@@@2@@__crt_stdio_output@@AEAAXI@Z 00000001800680b0 f i libucrtd:output.obj
 0001:000670d0       ?set_flag@?$output_processor@_WV?$string_output_adapter@_W@__crt_stdio_output@@V?$format_validation_base@_WV?$string_output_adapter@_W@__crt_stdio_output@@@2@@__crt_stdio_output@@AEAAXI@Z 00000001800680d0 f i libucrtd:output.obj
 0001:000670f0       ?set_flag@?$output_processor@_WV?$string_output_adapter@_W@__crt_stdio_output@@V?$positional_parameter_base@_WV?$string_output_adapter@_W@__crt_stdio_output@@@2@@__crt_stdio_output@@AEAAXI@Z 00000001800680f0 f i libucrtd:output.obj
 0001:00067110       ?set_flag@?$output_processor@_WV?$string_output_adapter@_W@__crt_stdio_output@@V?$standard_base@_WV?$string_output_adapter@_W@__crt_stdio_output@@@2@@__crt_stdio_output@@AEAAXI@Z 0000000180068110 f i libucrtd:output.obj
 0001:00067130       ?should_format@?$positional_parameter_base@DV?$stream_output_adapter@D@__crt_stdio_output@@@__crt_stdio_output@@IEAA_NXZ 0000000180068130 f i libucrtd:output.obj
 0001:00067170       ?should_format@?$positional_parameter_base@DV?$string_output_adapter@D@__crt_stdio_output@@@__crt_stdio_output@@IEAA_NXZ 0000000180068170 f i libucrtd:output.obj
 0001:000671b0       ?should_format@?$positional_parameter_base@_WV?$stream_output_adapter@_W@__crt_stdio_output@@@__crt_stdio_output@@IEAA_NXZ 00000001800681b0 f i libucrtd:output.obj
 0001:000671f0       ?should_format@?$positional_parameter_base@_WV?$string_output_adapter@_W@__crt_stdio_output@@@__crt_stdio_output@@IEAA_NXZ 00000001800681f0 f i libucrtd:output.obj
 0001:00067230       ?should_format@?$standard_base@DV?$stream_output_adapter@D@__crt_stdio_output@@@__crt_stdio_output@@IEAA_NXZ 0000000180068230 f i libucrtd:output.obj
 0001:00067240       ?should_format@?$standard_base@DV?$string_output_adapter@D@__crt_stdio_output@@@__crt_stdio_output@@IEAA_NXZ 0000000180068240 f i libucrtd:output.obj
 0001:00067250       ?should_format@?$standard_base@_WV?$stream_output_adapter@_W@__crt_stdio_output@@@__crt_stdio_output@@IEAA_NXZ 0000000180068250 f i libucrtd:output.obj
 0001:00067260       ?should_format@?$standard_base@_WV?$string_output_adapter@_W@__crt_stdio_output@@@__crt_stdio_output@@IEAA_NXZ 0000000180068260 f i libucrtd:output.obj
 0001:00067270       ?should_skip_normal_state_processing@?$positional_parameter_base@DV?$stream_output_adapter@D@__crt_stdio_output@@@__crt_stdio_output@@IEAA_NXZ 0000000180068270 f i libucrtd:output.obj
 0001:000672c0       ?should_skip_normal_state_processing@?$positional_parameter_base@DV?$string_output_adapter@D@__crt_stdio_output@@@__crt_stdio_output@@IEAA_NXZ 00000001800682c0 f i libucrtd:output.obj
 0001:00067310       ?should_skip_normal_state_processing@?$positional_parameter_base@_WV?$stream_output_adapter@_W@__crt_stdio_output@@@__crt_stdio_output@@IEAA_NXZ 0000000180068310 f i libucrtd:output.obj
 0001:00067360       ?should_skip_normal_state_processing@?$positional_parameter_base@_WV?$string_output_adapter@_W@__crt_stdio_output@@@__crt_stdio_output@@IEAA_NXZ 0000000180068360 f i libucrtd:output.obj
 0001:000673b0       ?should_skip_normal_state_processing@?$standard_base@DV?$stream_output_adapter@D@__crt_stdio_output@@@__crt_stdio_output@@IEAA_NXZ 00000001800683b0 f i libucrtd:output.obj
 0001:000673c0       ?should_skip_normal_state_processing@?$standard_base@DV?$string_output_adapter@D@__crt_stdio_output@@@__crt_stdio_output@@IEAA_NXZ 00000001800683c0 f i libucrtd:output.obj
 0001:000673d0       ?should_skip_normal_state_processing@?$standard_base@_WV?$stream_output_adapter@_W@__crt_stdio_output@@@__crt_stdio_output@@IEAA_NXZ 00000001800683d0 f i libucrtd:output.obj
 0001:000673e0       ?should_skip_normal_state_processing@?$standard_base@_WV?$string_output_adapter@_W@__crt_stdio_output@@@__crt_stdio_output@@IEAA_NXZ 00000001800683e0 f i libucrtd:output.obj
 0001:000673f0       ?should_skip_type_state_output@?$positional_parameter_base@DV?$stream_output_adapter@D@__crt_stdio_output@@@__crt_stdio_output@@IEBA_NXZ 00000001800683f0 f i libucrtd:output.obj
 0001:00067430       ?should_skip_type_state_output@?$positional_parameter_base@DV?$string_output_adapter@D@__crt_stdio_output@@@__crt_stdio_output@@IEBA_NXZ 0000000180068430 f i libucrtd:output.obj
 0001:00067470       ?should_skip_type_state_output@?$positional_parameter_base@_WV?$stream_output_adapter@_W@__crt_stdio_output@@@__crt_stdio_output@@IEBA_NXZ 0000000180068470 f i libucrtd:output.obj
 0001:000674b0       ?should_skip_type_state_output@?$positional_parameter_base@_WV?$string_output_adapter@_W@__crt_stdio_output@@@__crt_stdio_output@@IEBA_NXZ 00000001800684b0 f i libucrtd:output.obj
 0001:000674f0       ?should_skip_type_state_output@?$standard_base@DV?$stream_output_adapter@D@__crt_stdio_output@@@__crt_stdio_output@@IEBA_NXZ 00000001800684f0 f i libucrtd:output.obj
 0001:00067500       ?should_skip_type_state_output@?$standard_base@DV?$string_output_adapter@D@__crt_stdio_output@@@__crt_stdio_output@@IEBA_NXZ 0000000180068500 f i libucrtd:output.obj
 0001:00067510       ?should_skip_type_state_output@?$standard_base@_WV?$stream_output_adapter@_W@__crt_stdio_output@@@__crt_stdio_output@@IEBA_NXZ 0000000180068510 f i libucrtd:output.obj
 0001:00067520       ?should_skip_type_state_output@?$standard_base@_WV?$string_output_adapter@_W@__crt_stdio_output@@@__crt_stdio_output@@IEBA_NXZ 0000000180068520 f i libucrtd:output.obj
 0001:00067530       ?state_case_dot@?$output_processor@DV?$stream_output_adapter@D@__crt_stdio_output@@V?$format_validation_base@DV?$stream_output_adapter@D@__crt_stdio_output@@@2@@__crt_stdio_output@@AEAA_NXZ 0000000180068530 f i libucrtd:output.obj
 0001:00067550       ?state_case_dot@?$output_processor@DV?$stream_output_adapter@D@__crt_stdio_output@@V?$positional_parameter_base@DV?$stream_output_adapter@D@__crt_stdio_output@@@2@@__crt_stdio_output@@AEAA_NXZ 0000000180068550 f i libucrtd:output.obj
 0001:00067570       ?state_case_dot@?$output_processor@DV?$stream_output_adapter@D@__crt_stdio_output@@V?$standard_base@DV?$stream_output_adapter@D@__crt_stdio_output@@@2@@__crt_stdio_output@@AEAA_NXZ 0000000180068570 f i libucrtd:output.obj
 0001:00067590       ?state_case_dot@?$output_processor@DV?$string_output_adapter@D@__crt_stdio_output@@V?$format_validation_base@DV?$string_output_adapter@D@__crt_stdio_output@@@2@@__crt_stdio_output@@AEAA_NXZ 0000000180068590 f i libucrtd:output.obj
 0001:000675b0       ?state_case_dot@?$output_processor@DV?$string_output_adapter@D@__crt_stdio_output@@V?$positional_parameter_base@DV?$string_output_adapter@D@__crt_stdio_output@@@2@@__crt_stdio_output@@AEAA_NXZ 00000001800685b0 f i libucrtd:output.obj
 0001:000675d0       ?state_case_dot@?$output_processor@DV?$string_output_adapter@D@__crt_stdio_output@@V?$standard_base@DV?$string_output_adapter@D@__crt_stdio_output@@@2@@__crt_stdio_output@@AEAA_NXZ 00000001800685d0 f i libucrtd:output.obj
 0001:000675f0       ?state_case_dot@?$output_processor@_WV?$stream_output_adapter@_W@__crt_stdio_output@@V?$format_validation_base@_WV?$stream_output_adapter@_W@__crt_stdio_output@@@2@@__crt_stdio_output@@AEAA_NXZ 00000001800685f0 f i libucrtd:output.obj
 0001:00067610       ?state_case_dot@?$output_processor@_WV?$stream_output_adapter@_W@__crt_stdio_output@@V?$positional_parameter_base@_WV?$stream_output_adapter@_W@__crt_stdio_output@@@2@@__crt_stdio_output@@AEAA_NXZ 0000000180068610 f i libucrtd:output.obj
 0001:00067630       ?state_case_dot@?$output_processor@_WV?$stream_output_adapter@_W@__crt_stdio_output@@V?$standard_base@_WV?$stream_output_adapter@_W@__crt_stdio_output@@@2@@__crt_stdio_output@@AEAA_NXZ 0000000180068630 f i libucrtd:output.obj
 0001:00067650       ?state_case_dot@?$output_processor@_WV?$string_output_adapter@_W@__crt_stdio_output@@V?$format_validation_base@_WV?$string_output_adapter@_W@__crt_stdio_output@@@2@@__crt_stdio_output@@AEAA_NXZ 0000000180068650 f i libucrtd:output.obj
 0001:00067670       ?state_case_dot@?$output_processor@_WV?$string_output_adapter@_W@__crt_stdio_output@@V?$positional_parameter_base@_WV?$string_output_adapter@_W@__crt_stdio_output@@@2@@__crt_stdio_output@@AEAA_NXZ 0000000180068670 f i libucrtd:output.obj
 0001:00067690       ?state_case_dot@?$output_processor@_WV?$string_output_adapter@_W@__crt_stdio_output@@V?$standard_base@_WV?$string_output_adapter@_W@__crt_stdio_output@@@2@@__crt_stdio_output@@AEAA_NXZ 0000000180068690 f i libucrtd:output.obj
 0001:000676b0       ?state_case_flag@?$output_processor@DV?$stream_output_adapter@D@__crt_stdio_output@@V?$format_validation_base@DV?$stream_output_adapter@D@__crt_stdio_output@@@2@@__crt_stdio_output@@AEAA_NXZ 00000001800686b0 f i libucrtd:output.obj
 0001:00067750       ?state_case_flag@?$output_processor@DV?$stream_output_adapter@D@__crt_stdio_output@@V?$positional_parameter_base@DV?$stream_output_adapter@D@__crt_stdio_output@@@2@@__crt_stdio_output@@AEAA_NXZ 0000000180068750 f i libucrtd:output.obj
 0001:000677f0       ?state_case_flag@?$output_processor@DV?$stream_output_adapter@D@__crt_stdio_output@@V?$standard_base@DV?$stream_output_adapter@D@__crt_stdio_output@@@2@@__crt_stdio_output@@AEAA_NXZ 00000001800687f0 f i libucrtd:output.obj
 0001:00067890       ?state_case_flag@?$output_processor@DV?$string_output_adapter@D@__crt_stdio_output@@V?$format_validation_base@DV?$string_output_adapter@D@__crt_stdio_output@@@2@@__crt_stdio_output@@AEAA_NXZ 0000000180068890 f i libucrtd:output.obj
 0001:00067930       ?state_case_flag@?$output_processor@DV?$string_output_adapter@D@__crt_stdio_output@@V?$positional_parameter_base@DV?$string_output_adapter@D@__crt_stdio_output@@@2@@__crt_stdio_output@@AEAA_NXZ 0000000180068930 f i libucrtd:output.obj
 0001:000679d0       ?state_case_flag@?$output_processor@DV?$string_output_adapter@D@__crt_stdio_output@@V?$standard_base@DV?$string_output_adapter@D@__crt_stdio_output@@@2@@__crt_stdio_output@@AEAA_NXZ 00000001800689d0 f i libucrtd:output.obj
 0001:00067a70       ?state_case_flag@?$output_processor@_WV?$stream_output_adapter@_W@__crt_stdio_output@@V?$format_validation_base@_WV?$stream_output_adapter@_W@__crt_stdio_output@@@2@@__crt_stdio_output@@AEAA_NXZ 0000000180068a70 f i libucrtd:output.obj
 0001:00067b10       ?state_case_flag@?$output_processor@_WV?$stream_output_adapter@_W@__crt_stdio_output@@V?$positional_parameter_base@_WV?$stream_output_adapter@_W@__crt_stdio_output@@@2@@__crt_stdio_output@@AEAA_NXZ 0000000180068b10 f i libucrtd:output.obj
 0001:00067bb0       ?state_case_flag@?$output_processor@_WV?$stream_output_adapter@_W@__crt_stdio_output@@V?$standard_base@_WV?$stream_output_adapter@_W@__crt_stdio_output@@@2@@__crt_stdio_output@@AEAA_NXZ 0000000180068bb0 f i libucrtd:output.obj
 0001:00067c50       ?state_case_flag@?$output_processor@_WV?$string_output_adapter@_W@__crt_stdio_output@@V?$format_validation_base@_WV?$string_output_adapter@_W@__crt_stdio_output@@@2@@__crt_stdio_output@@AEAA_NXZ 0000000180068c50 f i libucrtd:output.obj
 0001:00067cf0       ?state_case_flag@?$output_processor@_WV?$string_output_adapter@_W@__crt_stdio_output@@V?$positional_parameter_base@_WV?$string_output_adapter@_W@__crt_stdio_output@@@2@@__crt_stdio_output@@AEAA_NXZ 0000000180068cf0 f i libucrtd:output.obj
 0001:00067d90       ?state_case_flag@?$output_processor@_WV?$string_output_adapter@_W@__crt_stdio_output@@V?$standard_base@_WV?$string_output_adapter@_W@__crt_stdio_output@@@2@@__crt_stdio_output@@AEAA_NXZ 0000000180068d90 f i libucrtd:output.obj
 0001:00067e30       ?state_case_normal@?$output_processor@DV?$stream_output_adapter@D@__crt_stdio_output@@V?$format_validation_base@DV?$stream_output_adapter@D@__crt_stdio_output@@@2@@__crt_stdio_output@@AEAA_NXZ 0000000180068e30 f i libucrtd:output.obj
 0001:00067f10       ?state_case_normal@?$output_processor@DV?$stream_output_adapter@D@__crt_stdio_output@@V?$positional_parameter_base@DV?$stream_output_adapter@D@__crt_stdio_output@@@2@@__crt_stdio_output@@AEAA_NXZ 0000000180068f10 f i libucrtd:output.obj
 0001:00067ff0       ?state_case_normal@?$output_processor@DV?$stream_output_adapter@D@__crt_stdio_output@@V?$standard_base@DV?$stream_output_adapter@D@__crt_stdio_output@@@2@@__crt_stdio_output@@AEAA_NXZ 0000000180068ff0 f i libucrtd:output.obj
 0001:000680d0       ?state_case_normal@?$output_processor@DV?$string_output_adapter@D@__crt_stdio_output@@V?$format_validation_base@DV?$string_output_adapter@D@__crt_stdio_output@@@2@@__crt_stdio_output@@AEAA_NXZ 00000001800690d0 f i libucrtd:output.obj
 0001:000681b0       ?state_case_normal@?$output_processor@DV?$string_output_adapter@D@__crt_stdio_output@@V?$positional_parameter_base@DV?$string_output_adapter@D@__crt_stdio_output@@@2@@__crt_stdio_output@@AEAA_NXZ 00000001800691b0 f i libucrtd:output.obj
 0001:00068290       ?state_case_normal@?$output_processor@DV?$string_output_adapter@D@__crt_stdio_output@@V?$standard_base@DV?$string_output_adapter@D@__crt_stdio_output@@@2@@__crt_stdio_output@@AEAA_NXZ 0000000180069290 f i libucrtd:output.obj
 0001:00068370       ?state_case_normal@?$output_processor@_WV?$stream_output_adapter@_W@__crt_stdio_output@@V?$format_validation_base@_WV?$stream_output_adapter@_W@__crt_stdio_output@@@2@@__crt_stdio_output@@AEAA_NXZ 0000000180069370 f i libucrtd:output.obj
 0001:00068450       ?state_case_normal@?$output_processor@_WV?$stream_output_adapter@_W@__crt_stdio_output@@V?$positional_parameter_base@_WV?$stream_output_adapter@_W@__crt_stdio_output@@@2@@__crt_stdio_output@@AEAA_NXZ 0000000180069450 f i libucrtd:output.obj
 0001:00068530       ?state_case_normal@?$output_processor@_WV?$stream_output_adapter@_W@__crt_stdio_output@@V?$standard_base@_WV?$stream_output_adapter@_W@__crt_stdio_output@@@2@@__crt_stdio_output@@AEAA_NXZ 0000000180069530 f i libucrtd:output.obj
 0001:00068610       ?state_case_normal@?$output_processor@_WV?$string_output_adapter@_W@__crt_stdio_output@@V?$format_validation_base@_WV?$string_output_adapter@_W@__crt_stdio_output@@@2@@__crt_stdio_output@@AEAA_NXZ 0000000180069610 f i libucrtd:output.obj
 0001:000686f0       ?state_case_normal@?$output_processor@_WV?$string_output_adapter@_W@__crt_stdio_output@@V?$positional_parameter_base@_WV?$string_output_adapter@_W@__crt_stdio_output@@@2@@__crt_stdio_output@@AEAA_NXZ 00000001800696f0 f i libucrtd:output.obj
 0001:000687d0       ?state_case_normal@?$output_processor@_WV?$string_output_adapter@_W@__crt_stdio_output@@V?$standard_base@_WV?$string_output_adapter@_W@__crt_stdio_output@@@2@@__crt_stdio_output@@AEAA_NXZ 00000001800697d0 f i libucrtd:output.obj
 0001:000688b0       ?state_case_normal_common@?$output_processor@DV?$stream_output_adapter@D@__crt_stdio_output@@V?$format_validation_base@DV?$stream_output_adapter@D@__crt_stdio_output@@@2@@__crt_stdio_output@@AEAA_NXZ 00000001800698b0 f i libucrtd:output.obj
 0001:00068900       ?state_case_normal_common@?$output_processor@DV?$stream_output_adapter@D@__crt_stdio_output@@V?$positional_parameter_base@DV?$stream_output_adapter@D@__crt_stdio_output@@@2@@__crt_stdio_output@@AEAA_NXZ 0000000180069900 f i libucrtd:output.obj
 0001:00068950       ?state_case_normal_common@?$output_processor@DV?$stream_output_adapter@D@__crt_stdio_output@@V?$standard_base@DV?$stream_output_adapter@D@__crt_stdio_output@@@2@@__crt_stdio_output@@AEAA_NXZ 0000000180069950 f i libucrtd:output.obj
 0001:000689a0       ?state_case_normal_common@?$output_processor@DV?$string_output_adapter@D@__crt_stdio_output@@V?$format_validation_base@DV?$string_output_adapter@D@__crt_stdio_output@@@2@@__crt_stdio_output@@AEAA_NXZ 00000001800699a0 f i libucrtd:output.obj
 0001:000689f0       ?state_case_normal_common@?$output_processor@DV?$string_output_adapter@D@__crt_stdio_output@@V?$positional_parameter_base@DV?$string_output_adapter@D@__crt_stdio_output@@@2@@__crt_stdio_output@@AEAA_NXZ 00000001800699f0 f i libucrtd:output.obj
 0001:00068a40       ?state_case_normal_common@?$output_processor@DV?$string_output_adapter@D@__crt_stdio_output@@V?$standard_base@DV?$string_output_adapter@D@__crt_stdio_output@@@2@@__crt_stdio_output@@AEAA_NXZ 0000000180069a40 f i libucrtd:output.obj
 0001:00068a90       ?state_case_normal_common@?$output_processor@_WV?$stream_output_adapter@_W@__crt_stdio_output@@V?$format_validation_base@_WV?$stream_output_adapter@_W@__crt_stdio_output@@@2@@__crt_stdio_output@@AEAA_NXZ 0000000180069a90 f i libucrtd:output.obj
 0001:00068ae0       ?state_case_normal_common@?$output_processor@_WV?$stream_output_adapter@_W@__crt_stdio_output@@V?$positional_parameter_base@_WV?$stream_output_adapter@_W@__crt_stdio_output@@@2@@__crt_stdio_output@@AEAA_NXZ 0000000180069ae0 f i libucrtd:output.obj
 0001:00068b30       ?state_case_normal_common@?$output_processor@_WV?$stream_output_adapter@_W@__crt_stdio_output@@V?$standard_base@_WV?$stream_output_adapter@_W@__crt_stdio_output@@@2@@__crt_stdio_output@@AEAA_NXZ 0000000180069b30 f i libucrtd:output.obj
 0001:00068b80       ?state_case_normal_common@?$output_processor@_WV?$string_output_adapter@_W@__crt_stdio_output@@V?$format_validation_base@_WV?$string_output_adapter@_W@__crt_stdio_output@@@2@@__crt_stdio_output@@AEAA_NXZ 0000000180069b80 f i libucrtd:output.obj
 0001:00068bd0       ?state_case_normal_common@?$output_processor@_WV?$string_output_adapter@_W@__crt_stdio_output@@V?$positional_parameter_base@_WV?$string_output_adapter@_W@__crt_stdio_output@@@2@@__crt_stdio_output@@AEAA_NXZ 0000000180069bd0 f i libucrtd:output.obj
 0001:00068c20       ?state_case_normal_common@?$output_processor@_WV?$string_output_adapter@_W@__crt_stdio_output@@V?$standard_base@_WV?$string_output_adapter@_W@__crt_stdio_output@@@2@@__crt_stdio_output@@AEAA_NXZ 0000000180069c20 f i libucrtd:output.obj
 0001:00068c70       ?state_case_normal_tchar@?$output_processor@DV?$stream_output_adapter@D@__crt_stdio_output@@V?$format_validation_base@DV?$stream_output_adapter@D@__crt_stdio_output@@@2@@__crt_stdio_output@@AEAA_ND@Z 0000000180069c70 f i libucrtd:output.obj
 0001:00068db0       ?state_case_normal_tchar@?$output_processor@DV?$stream_output_adapter@D@__crt_stdio_output@@V?$positional_parameter_base@DV?$stream_output_adapter@D@__crt_stdio_output@@@2@@__crt_stdio_output@@AEAA_ND@Z 0000000180069db0 f i libucrtd:output.obj
 0001:00068ef0       ?state_case_normal_tchar@?$output_processor@DV?$stream_output_adapter@D@__crt_stdio_output@@V?$standard_base@DV?$stream_output_adapter@D@__crt_stdio_output@@@2@@__crt_stdio_output@@AEAA_ND@Z 0000000180069ef0 f i libucrtd:output.obj
 0001:00069030       ?state_case_normal_tchar@?$output_processor@DV?$string_output_adapter@D@__crt_stdio_output@@V?$format_validation_base@DV?$string_output_adapter@D@__crt_stdio_output@@@2@@__crt_stdio_output@@AEAA_ND@Z 000000018006a030 f i libucrtd:output.obj
 0001:00069170       ?state_case_normal_tchar@?$output_processor@DV?$string_output_adapter@D@__crt_stdio_output@@V?$positional_parameter_base@DV?$string_output_adapter@D@__crt_stdio_output@@@2@@__crt_stdio_output@@AEAA_ND@Z 000000018006a170 f i libucrtd:output.obj
 0001:000692b0       ?state_case_normal_tchar@?$output_processor@DV?$string_output_adapter@D@__crt_stdio_output@@V?$standard_base@DV?$string_output_adapter@D@__crt_stdio_output@@@2@@__crt_stdio_output@@AEAA_ND@Z 000000018006a2b0 f i libucrtd:output.obj
 0001:000693f0       ?state_case_normal_tchar@?$output_processor@_WV?$stream_output_adapter@_W@__crt_stdio_output@@V?$format_validation_base@_WV?$stream_output_adapter@_W@__crt_stdio_output@@@2@@__crt_stdio_output@@AEAA_N_W@Z 000000018006a3f0 f i libucrtd:output.obj
 0001:00069410       ?state_case_normal_tchar@?$output_processor@_WV?$stream_output_adapter@_W@__crt_stdio_output@@V?$positional_parameter_base@_WV?$stream_output_adapter@_W@__crt_stdio_output@@@2@@__crt_stdio_output@@AEAA_N_W@Z 000000018006a410 f i libucrtd:output.obj
 0001:00069430       ?state_case_normal_tchar@?$output_processor@_WV?$stream_output_adapter@_W@__crt_stdio_output@@V?$standard_base@_WV?$stream_output_adapter@_W@__crt_stdio_output@@@2@@__crt_stdio_output@@AEAA_N_W@Z 000000018006a430 f i libucrtd:output.obj
 0001:00069450       ?state_case_normal_tchar@?$output_processor@_WV?$string_output_adapter@_W@__crt_stdio_output@@V?$format_validation_base@_WV?$string_output_adapter@_W@__crt_stdio_output@@@2@@__crt_stdio_output@@AEAA_N_W@Z 000000018006a450 f i libucrtd:output.obj
 0001:00069470       ?state_case_normal_tchar@?$output_processor@_WV?$string_output_adapter@_W@__crt_stdio_output@@V?$positional_parameter_base@_WV?$string_output_adapter@_W@__crt_stdio_output@@@2@@__crt_stdio_output@@AEAA_N_W@Z 000000018006a470 f i libucrtd:output.obj
 0001:00069490       ?state_case_normal_tchar@?$output_processor@_WV?$string_output_adapter@_W@__crt_stdio_output@@V?$standard_base@_WV?$string_output_adapter@_W@__crt_stdio_output@@@2@@__crt_stdio_output@@AEAA_N_W@Z 000000018006a490 f i libucrtd:output.obj
 0001:000694b0       ?state_case_percent@?$output_processor@DV?$stream_output_adapter@D@__crt_stdio_output@@V?$format_validation_base@DV?$stream_output_adapter@D@__crt_stdio_output@@@2@@__crt_stdio_output@@AEAA_NXZ 000000018006a4b0 f i libucrtd:output.obj
 0001:00069500       ?state_case_percent@?$output_processor@DV?$stream_output_adapter@D@__crt_stdio_output@@V?$positional_parameter_base@DV?$stream_output_adapter@D@__crt_stdio_output@@@2@@__crt_stdio_output@@AEAA_NXZ 000000018006a500 f i libucrtd:output.obj
 0001:00069550       ?state_case_percent@?$output_processor@DV?$stream_output_adapter@D@__crt_stdio_output@@V?$standard_base@DV?$stream_output_adapter@D@__crt_stdio_output@@@2@@__crt_stdio_output@@AEAA_NXZ 000000018006a550 f i libucrtd:output.obj
 0001:000695a0       ?state_case_percent@?$output_processor@DV?$string_output_adapter@D@__crt_stdio_output@@V?$format_validation_base@DV?$string_output_adapter@D@__crt_stdio_output@@@2@@__crt_stdio_output@@AEAA_NXZ 000000018006a5a0 f i libucrtd:output.obj
 0001:000695f0       ?state_case_percent@?$output_processor@DV?$string_output_adapter@D@__crt_stdio_output@@V?$positional_parameter_base@DV?$string_output_adapter@D@__crt_stdio_output@@@2@@__crt_stdio_output@@AEAA_NXZ 000000018006a5f0 f i libucrtd:output.obj
 0001:00069640       ?state_case_percent@?$output_processor@DV?$string_output_adapter@D@__crt_stdio_output@@V?$standard_base@DV?$string_output_adapter@D@__crt_stdio_output@@@2@@__crt_stdio_output@@AEAA_NXZ 000000018006a640 f i libucrtd:output.obj
 0001:00069690       ?state_case_percent@?$output_processor@_WV?$stream_output_adapter@_W@__crt_stdio_output@@V?$format_validation_base@_WV?$stream_output_adapter@_W@__crt_stdio_output@@@2@@__crt_stdio_output@@AEAA_NXZ 000000018006a690 f i libucrtd:output.obj
 0001:000696e0       ?state_case_percent@?$output_processor@_WV?$stream_output_adapter@_W@__crt_stdio_output@@V?$positional_parameter_base@_WV?$stream_output_adapter@_W@__crt_stdio_output@@@2@@__crt_stdio_output@@AEAA_NXZ 000000018006a6e0 f i libucrtd:output.obj
 0001:00069730       ?state_case_percent@?$output_processor@_WV?$stream_output_adapter@_W@__crt_stdio_output@@V?$standard_base@_WV?$stream_output_adapter@_W@__crt_stdio_output@@@2@@__crt_stdio_output@@AEAA_NXZ 000000018006a730 f i libucrtd:output.obj
 0001:00069780       ?state_case_percent@?$output_processor@_WV?$string_output_adapter@_W@__crt_stdio_output@@V?$format_validation_base@_WV?$string_output_adapter@_W@__crt_stdio_output@@@2@@__crt_stdio_output@@AEAA_NXZ 000000018006a780 f i libucrtd:output.obj
 0001:000697d0       ?state_case_percent@?$output_processor@_WV?$string_output_adapter@_W@__crt_stdio_output@@V?$positional_parameter_base@_WV?$string_output_adapter@_W@__crt_stdio_output@@@2@@__crt_stdio_output@@AEAA_NXZ 000000018006a7d0 f i libucrtd:output.obj
 0001:00069820       ?state_case_percent@?$output_processor@_WV?$string_output_adapter@_W@__crt_stdio_output@@V?$standard_base@_WV?$string_output_adapter@_W@__crt_stdio_output@@@2@@__crt_stdio_output@@AEAA_NXZ 000000018006a820 f i libucrtd:output.obj
 0001:00069870       ?state_case_precision@?$output_processor@DV?$stream_output_adapter@D@__crt_stdio_output@@V?$format_validation_base@DV?$stream_output_adapter@D@__crt_stdio_output@@@2@@__crt_stdio_output@@AEAA_NXZ 000000018006a870 f i libucrtd:output.obj
 0001:000698f0       ?state_case_precision@?$output_processor@DV?$stream_output_adapter@D@__crt_stdio_output@@V?$positional_parameter_base@DV?$stream_output_adapter@D@__crt_stdio_output@@@2@@__crt_stdio_output@@AEAA_NXZ 000000018006a8f0 f i libucrtd:output.obj
 0001:00069970       ?state_case_precision@?$output_processor@DV?$stream_output_adapter@D@__crt_stdio_output@@V?$standard_base@DV?$stream_output_adapter@D@__crt_stdio_output@@@2@@__crt_stdio_output@@AEAA_NXZ 000000018006a970 f i libucrtd:output.obj
 0001:000699f0       ?state_case_precision@?$output_processor@DV?$string_output_adapter@D@__crt_stdio_output@@V?$format_validation_base@DV?$string_output_adapter@D@__crt_stdio_output@@@2@@__crt_stdio_output@@AEAA_NXZ 000000018006a9f0 f i libucrtd:output.obj
 0001:00069a70       ?state_case_precision@?$output_processor@DV?$string_output_adapter@D@__crt_stdio_output@@V?$positional_parameter_base@DV?$string_output_adapter@D@__crt_stdio_output@@@2@@__crt_stdio_output@@AEAA_NXZ 000000018006aa70 f i libucrtd:output.obj
 0001:00069af0       ?state_case_precision@?$output_processor@DV?$string_output_adapter@D@__crt_stdio_output@@V?$standard_base@DV?$string_output_adapter@D@__crt_stdio_output@@@2@@__crt_stdio_output@@AEAA_NXZ 000000018006aaf0 f i libucrtd:output.obj
 0001:00069b70       ?state_case_precision@?$output_processor@_WV?$stream_output_adapter@_W@__crt_stdio_output@@V?$format_validation_base@_WV?$stream_output_adapter@_W@__crt_stdio_output@@@2@@__crt_stdio_output@@AEAA_NXZ 000000018006ab70 f i libucrtd:output.obj
 0001:00069bf0       ?state_case_precision@?$output_processor@_WV?$stream_output_adapter@_W@__crt_stdio_output@@V?$positional_parameter_base@_WV?$stream_output_adapter@_W@__crt_stdio_output@@@2@@__crt_stdio_output@@AEAA_NXZ 000000018006abf0 f i libucrtd:output.obj
 0001:00069c70       ?state_case_precision@?$output_processor@_WV?$stream_output_adapter@_W@__crt_stdio_output@@V?$standard_base@_WV?$stream_output_adapter@_W@__crt_stdio_output@@@2@@__crt_stdio_output@@AEAA_NXZ 000000018006ac70 f i libucrtd:output.obj
 0001:00069cf0       ?state_case_precision@?$output_processor@_WV?$string_output_adapter@_W@__crt_stdio_output@@V?$format_validation_base@_WV?$string_output_adapter@_W@__crt_stdio_output@@@2@@__crt_stdio_output@@AEAA_NXZ 000000018006acf0 f i libucrtd:output.obj
 0001:00069d70       ?state_case_precision@?$output_processor@_WV?$string_output_adapter@_W@__crt_stdio_output@@V?$positional_parameter_base@_WV?$string_output_adapter@_W@__crt_stdio_output@@@2@@__crt_stdio_output@@AEAA_NXZ 000000018006ad70 f i libucrtd:output.obj
 0001:00069df0       ?state_case_precision@?$output_processor@_WV?$string_output_adapter@_W@__crt_stdio_output@@V?$standard_base@_WV?$string_output_adapter@_W@__crt_stdio_output@@@2@@__crt_stdio_output@@AEAA_NXZ 000000018006adf0 f i libucrtd:output.obj
 0001:00069e70       ?state_case_size@?$output_processor@DV?$stream_output_adapter@D@__crt_stdio_output@@V?$format_validation_base@DV?$stream_output_adapter@D@__crt_stdio_output@@@2@@__crt_stdio_output@@AEAA_NXZ 000000018006ae70 f i libucrtd:output.obj
 0001:0006a2f0       ?state_case_size@?$output_processor@DV?$stream_output_adapter@D@__crt_stdio_output@@V?$positional_parameter_base@DV?$stream_output_adapter@D@__crt_stdio_output@@@2@@__crt_stdio_output@@AEAA_NXZ 000000018006b2f0 f i libucrtd:output.obj
 0001:0006a770       ?state_case_size@?$output_processor@DV?$stream_output_adapter@D@__crt_stdio_output@@V?$standard_base@DV?$stream_output_adapter@D@__crt_stdio_output@@@2@@__crt_stdio_output@@AEAA_NXZ 000000018006b770 f i libucrtd:output.obj
 0001:0006abf0       ?state_case_size@?$output_processor@DV?$string_output_adapter@D@__crt_stdio_output@@V?$format_validation_base@DV?$string_output_adapter@D@__crt_stdio_output@@@2@@__crt_stdio_output@@AEAA_NXZ 000000018006bbf0 f i libucrtd:output.obj
 0001:0006b070       ?state_case_size@?$output_processor@DV?$string_output_adapter@D@__crt_stdio_output@@V?$positional_parameter_base@DV?$string_output_adapter@D@__crt_stdio_output@@@2@@__crt_stdio_output@@AEAA_NXZ 000000018006c070 f i libucrtd:output.obj
 0001:0006b4f0       ?state_case_size@?$output_processor@DV?$string_output_adapter@D@__crt_stdio_output@@V?$standard_base@DV?$string_output_adapter@D@__crt_stdio_output@@@2@@__crt_stdio_output@@AEAA_NXZ 000000018006c4f0 f i libucrtd:output.obj
 0001:0006b970       ?state_case_size@?$output_processor@_WV?$stream_output_adapter@_W@__crt_stdio_output@@V?$format_validation_base@_WV?$stream_output_adapter@_W@__crt_stdio_output@@@2@@__crt_stdio_output@@AEAA_NXZ 000000018006c970 f i libucrtd:output.obj
 0001:0006bdf0       ?state_case_size@?$output_processor@_WV?$stream_output_adapter@_W@__crt_stdio_output@@V?$positional_parameter_base@_WV?$stream_output_adapter@_W@__crt_stdio_output@@@2@@__crt_stdio_output@@AEAA_NXZ 000000018006cdf0 f i libucrtd:output.obj
 0001:0006c270       ?state_case_size@?$output_processor@_WV?$stream_output_adapter@_W@__crt_stdio_output@@V?$standard_base@_WV?$stream_output_adapter@_W@__crt_stdio_output@@@2@@__crt_stdio_output@@AEAA_NXZ 000000018006d270 f i libucrtd:output.obj
 0001:0006c6f0       ?state_case_size@?$output_processor@_WV?$string_output_adapter@_W@__crt_stdio_output@@V?$format_validation_base@_WV?$string_output_adapter@_W@__crt_stdio_output@@@2@@__crt_stdio_output@@AEAA_NXZ 000000018006d6f0 f i libucrtd:output.obj
 0001:0006cb70       ?state_case_size@?$output_processor@_WV?$string_output_adapter@_W@__crt_stdio_output@@V?$positional_parameter_base@_WV?$string_output_adapter@_W@__crt_stdio_output@@@2@@__crt_stdio_output@@AEAA_NXZ 000000018006db70 f i libucrtd:output.obj
 0001:0006cff0       ?state_case_size@?$output_processor@_WV?$string_output_adapter@_W@__crt_stdio_output@@V?$standard_base@_WV?$string_output_adapter@_W@__crt_stdio_output@@@2@@__crt_stdio_output@@AEAA_NXZ 000000018006dff0 f i libucrtd:output.obj
 0001:0006d470       ?state_case_type@?$output_processor@DV?$stream_output_adapter@D@__crt_stdio_output@@V?$format_validation_base@DV?$stream_output_adapter@D@__crt_stdio_output@@@2@@__crt_stdio_output@@AEAA_NXZ 000000018006e470 f i libucrtd:output.obj
 0001:0006d910       ?state_case_type@?$output_processor@DV?$stream_output_adapter@D@__crt_stdio_output@@V?$positional_parameter_base@DV?$stream_output_adapter@D@__crt_stdio_output@@@2@@__crt_stdio_output@@AEAA_NXZ 000000018006e910 f i libucrtd:output.obj
 0001:0006ddb0       ?state_case_type@?$output_processor@DV?$stream_output_adapter@D@__crt_stdio_output@@V?$standard_base@DV?$stream_output_adapter@D@__crt_stdio_output@@@2@@__crt_stdio_output@@AEAA_NXZ 000000018006edb0 f i libucrtd:output.obj
 0001:0006e250       ?state_case_type@?$output_processor@DV?$string_output_adapter@D@__crt_stdio_output@@V?$format_validation_base@DV?$string_output_adapter@D@__crt_stdio_output@@@2@@__crt_stdio_output@@AEAA_NXZ 000000018006f250 f i libucrtd:output.obj
 0001:0006e6f0       ?state_case_type@?$output_processor@DV?$string_output_adapter@D@__crt_stdio_output@@V?$positional_parameter_base@DV?$string_output_adapter@D@__crt_stdio_output@@@2@@__crt_stdio_output@@AEAA_NXZ 000000018006f6f0 f i libucrtd:output.obj
 0001:0006eb90       ?state_case_type@?$output_processor@DV?$string_output_adapter@D@__crt_stdio_output@@V?$standard_base@DV?$string_output_adapter@D@__crt_stdio_output@@@2@@__crt_stdio_output@@AEAA_NXZ 000000018006fb90 f i libucrtd:output.obj
 0001:0006f030       ?state_case_type@?$output_processor@_WV?$stream_output_adapter@_W@__crt_stdio_output@@V?$format_validation_base@_WV?$stream_output_adapter@_W@__crt_stdio_output@@@2@@__crt_stdio_output@@AEAA_NXZ 0000000180070030 f i libucrtd:output.obj
 0001:0006f590       ?state_case_type@?$output_processor@_WV?$stream_output_adapter@_W@__crt_stdio_output@@V?$positional_parameter_base@_WV?$stream_output_adapter@_W@__crt_stdio_output@@@2@@__crt_stdio_output@@AEAA_NXZ 0000000180070590 f i libucrtd:output.obj
 0001:0006faf0       ?state_case_type@?$output_processor@_WV?$stream_output_adapter@_W@__crt_stdio_output@@V?$standard_base@_WV?$stream_output_adapter@_W@__crt_stdio_output@@@2@@__crt_stdio_output@@AEAA_NXZ 0000000180070af0 f i libucrtd:output.obj
 0001:00070050       ?state_case_type@?$output_processor@_WV?$string_output_adapter@_W@__crt_stdio_output@@V?$format_validation_base@_WV?$string_output_adapter@_W@__crt_stdio_output@@@2@@__crt_stdio_output@@AEAA_NXZ 0000000180071050 f i libucrtd:output.obj
 0001:000705b0       ?state_case_type@?$output_processor@_WV?$string_output_adapter@_W@__crt_stdio_output@@V?$positional_parameter_base@_WV?$string_output_adapter@_W@__crt_stdio_output@@@2@@__crt_stdio_output@@AEAA_NXZ 00000001800715b0 f i libucrtd:output.obj
 0001:00070b10       ?state_case_type@?$output_processor@_WV?$string_output_adapter@_W@__crt_stdio_output@@V?$standard_base@_WV?$string_output_adapter@_W@__crt_stdio_output@@@2@@__crt_stdio_output@@AEAA_NXZ 0000000180071b10 f i libucrtd:output.obj
 0001:00071070       ?state_case_width@?$output_processor@DV?$stream_output_adapter@D@__crt_stdio_output@@V?$format_validation_base@DV?$stream_output_adapter@D@__crt_stdio_output@@@2@@__crt_stdio_output@@AEAA_NXZ 0000000180072070 f i libucrtd:output.obj
 0001:00071100       ?state_case_width@?$output_processor@DV?$stream_output_adapter@D@__crt_stdio_output@@V?$positional_parameter_base@DV?$stream_output_adapter@D@__crt_stdio_output@@@2@@__crt_stdio_output@@AEAA_NXZ 0000000180072100 f i libucrtd:output.obj
 0001:00071190       ?state_case_width@?$output_processor@DV?$stream_output_adapter@D@__crt_stdio_output@@V?$standard_base@DV?$stream_output_adapter@D@__crt_stdio_output@@@2@@__crt_stdio_output@@AEAA_NXZ 0000000180072190 f i libucrtd:output.obj
 0001:00071220       ?state_case_width@?$output_processor@DV?$string_output_adapter@D@__crt_stdio_output@@V?$format_validation_base@DV?$string_output_adapter@D@__crt_stdio_output@@@2@@__crt_stdio_output@@AEAA_NXZ 0000000180072220 f i libucrtd:output.obj
 0001:000712b0       ?state_case_width@?$output_processor@DV?$string_output_adapter@D@__crt_stdio_output@@V?$positional_parameter_base@DV?$string_output_adapter@D@__crt_stdio_output@@@2@@__crt_stdio_output@@AEAA_NXZ 00000001800722b0 f i libucrtd:output.obj
 0001:00071340       ?state_case_width@?$output_processor@DV?$string_output_adapter@D@__crt_stdio_output@@V?$standard_base@DV?$string_output_adapter@D@__crt_stdio_output@@@2@@__crt_stdio_output@@AEAA_NXZ 0000000180072340 f i libucrtd:output.obj
 0001:000713d0       ?state_case_width@?$output_processor@_WV?$stream_output_adapter@_W@__crt_stdio_output@@V?$format_validation_base@_WV?$stream_output_adapter@_W@__crt_stdio_output@@@2@@__crt_stdio_output@@AEAA_NXZ 00000001800723d0 f i libucrtd:output.obj
 0001:00071460       ?state_case_width@?$output_processor@_WV?$stream_output_adapter@_W@__crt_stdio_output@@V?$positional_parameter_base@_WV?$stream_output_adapter@_W@__crt_stdio_output@@@2@@__crt_stdio_output@@AEAA_NXZ 0000000180072460 f i libucrtd:output.obj
 0001:000714f0       ?state_case_width@?$output_processor@_WV?$stream_output_adapter@_W@__crt_stdio_output@@V?$standard_base@_WV?$stream_output_adapter@_W@__crt_stdio_output@@@2@@__crt_stdio_output@@AEAA_NXZ 00000001800724f0 f i libucrtd:output.obj
 0001:00071580       ?state_case_width@?$output_processor@_WV?$string_output_adapter@_W@__crt_stdio_output@@V?$format_validation_base@_WV?$string_output_adapter@_W@__crt_stdio_output@@@2@@__crt_stdio_output@@AEAA_NXZ 0000000180072580 f i libucrtd:output.obj
 0001:00071610       ?state_case_width@?$output_processor@_WV?$string_output_adapter@_W@__crt_stdio_output@@V?$positional_parameter_base@_WV?$string_output_adapter@_W@__crt_stdio_output@@@2@@__crt_stdio_output@@AEAA_NXZ 0000000180072610 f i libucrtd:output.obj
 0001:000716a0       ?state_case_width@?$output_processor@_WV?$string_output_adapter@_W@__crt_stdio_output@@V?$standard_base@_WV?$string_output_adapter@_W@__crt_stdio_output@@@2@@__crt_stdio_output@@AEAA_NXZ 00000001800726a0 f i libucrtd:output.obj
 0001:00071730       ?state_count@?$format_validation_base@DV?$stream_output_adapter@D@__crt_stdio_output@@@__crt_stdio_output@@KAIXZ 0000000180072730 f i libucrtd:output.obj
 0001:00071740       ?state_count@?$format_validation_base@DV?$string_output_adapter@D@__crt_stdio_output@@@__crt_stdio_output@@KAIXZ 0000000180072740 f i libucrtd:output.obj
 0001:00071750       ?state_count@?$format_validation_base@_WV?$stream_output_adapter@_W@__crt_stdio_output@@@__crt_stdio_output@@KAIXZ 0000000180072750 f i libucrtd:output.obj
 0001:00071760       ?state_count@?$format_validation_base@_WV?$string_output_adapter@_W@__crt_stdio_output@@@__crt_stdio_output@@KAIXZ 0000000180072760 f i libucrtd:output.obj
 0001:00071770       ?state_count@?$standard_base@DV?$stream_output_adapter@D@__crt_stdio_output@@@__crt_stdio_output@@KAIXZ 0000000180072770 f i libucrtd:output.obj
 0001:00071780       ?state_count@?$standard_base@DV?$string_output_adapter@D@__crt_stdio_output@@@__crt_stdio_output@@KAIXZ 0000000180072780 f i libucrtd:output.obj
 0001:00071790       ?state_count@?$standard_base@_WV?$stream_output_adapter@_W@__crt_stdio_output@@@__crt_stdio_output@@KAIXZ 0000000180072790 f i libucrtd:output.obj
 0001:000717a0       ?state_count@?$standard_base@_WV?$string_output_adapter@_W@__crt_stdio_output@@@__crt_stdio_output@@KAIXZ 00000001800727a0 f i libucrtd:output.obj
 0001:000717b0       ?state_transition_table@?$format_validation_base@DV?$stream_output_adapter@D@__crt_stdio_output@@@__crt_stdio_output@@KAAEBV?$spectre_mitigated_lookup_table@Ustate_transition_pair@__crt_stdio_output@@$0IA@@2@XZ 00000001800727b0 f i libucrtd:output.obj
 0001:000717c0       ?state_transition_table@?$format_validation_base@DV?$string_output_adapter@D@__crt_stdio_output@@@__crt_stdio_output@@KAAEBV?$spectre_mitigated_lookup_table@Ustate_transition_pair@__crt_stdio_output@@$0IA@@2@XZ 00000001800727c0 f i libucrtd:output.obj
 0001:000717d0       ?state_transition_table@?$format_validation_base@_WV?$stream_output_adapter@_W@__crt_stdio_output@@@__crt_stdio_output@@KAAEBV?$spectre_mitigated_lookup_table@Ustate_transition_pair@__crt_stdio_output@@$0IA@@2@XZ 00000001800727d0 f i libucrtd:output.obj
 0001:000717e0       ?state_transition_table@?$format_validation_base@_WV?$string_output_adapter@_W@__crt_stdio_output@@@__crt_stdio_output@@KAAEBV?$spectre_mitigated_lookup_table@Ustate_transition_pair@__crt_stdio_output@@$0IA@@2@XZ 00000001800727e0 f i libucrtd:output.obj
 0001:000717f0       ?state_transition_table@?$standard_base@DV?$stream_output_adapter@D@__crt_stdio_output@@@__crt_stdio_output@@KAAEBV?$spectre_mitigated_lookup_table@Ustate_transition_pair@__crt_stdio_output@@$0IA@@2@XZ 00000001800727f0 f i libucrtd:output.obj
 0001:00071800       ?state_transition_table@?$standard_base@DV?$string_output_adapter@D@__crt_stdio_output@@@__crt_stdio_output@@KAAEBV?$spectre_mitigated_lookup_table@Ustate_transition_pair@__crt_stdio_output@@$0IA@@2@XZ 0000000180072800 f i libucrtd:output.obj
 0001:00071810       ?state_transition_table@?$standard_base@_WV?$stream_output_adapter@_W@__crt_stdio_output@@@__crt_stdio_output@@KAAEBV?$spectre_mitigated_lookup_table@Ustate_transition_pair@__crt_stdio_output@@$0IA@@2@XZ 0000000180072810 f i libucrtd:output.obj
 0001:00071820       ?state_transition_table@?$standard_base@_WV?$string_output_adapter@_W@__crt_stdio_output@@@__crt_stdio_output@@KAAEBV?$spectre_mitigated_lookup_table@Ustate_transition_pair@__crt_stdio_output@@$0IA@@2@XZ 0000000180072820 f i libucrtd:output.obj
 0001:00071830       ?tchar_string@?$common_data@D@__crt_stdio_output@@IEAAAEAPEADD@Z 0000000180072830 f i libucrtd:output.obj
 0001:00071850       ?tchar_string@?$common_data@D@__crt_stdio_output@@IEAAAEAPEADXZ 0000000180072850 f i libucrtd:output.obj
 0001:00071870       ?tchar_string@?$common_data@_W@__crt_stdio_output@@IEAAAEAPEA_WXZ 0000000180072870 f i libucrtd:output.obj
 0001:00071890       ?tchar_string@?$common_data@_W@__crt_stdio_output@@IEAAAEAPEA_W_W@Z 0000000180072890 f i libucrtd:output.obj
 0001:000718b0       ?to_integer_size@__crt_stdio_output@@YA_KW4length_modifier@1@@Z 00000001800728b0 f i libucrtd:output.obj
 0001:00071960       ?type_case_X@?$output_processor@DV?$stream_output_adapter@D@__crt_stdio_output@@V?$format_validation_base@DV?$stream_output_adapter@D@__crt_stdio_output@@@2@@__crt_stdio_output@@AEAA_NXZ 0000000180072960 f i libucrtd:output.obj
 0001:00071980       ?type_case_X@?$output_processor@DV?$stream_output_adapter@D@__crt_stdio_output@@V?$positional_parameter_base@DV?$stream_output_adapter@D@__crt_stdio_output@@@2@@__crt_stdio_output@@AEAA_NXZ 0000000180072980 f i libucrtd:output.obj
 0001:000719a0       ?type_case_X@?$output_processor@DV?$stream_output_adapter@D@__crt_stdio_output@@V?$standard_base@DV?$stream_output_adapter@D@__crt_stdio_output@@@2@@__crt_stdio_output@@AEAA_NXZ 00000001800729a0 f i libucrtd:output.obj
 0001:000719c0       ?type_case_X@?$output_processor@DV?$string_output_adapter@D@__crt_stdio_output@@V?$format_validation_base@DV?$string_output_adapter@D@__crt_stdio_output@@@2@@__crt_stdio_output@@AEAA_NXZ 00000001800729c0 f i libucrtd:output.obj
 0001:000719e0       ?type_case_X@?$output_processor@DV?$string_output_adapter@D@__crt_stdio_output@@V?$positional_parameter_base@DV?$string_output_adapter@D@__crt_stdio_output@@@2@@__crt_stdio_output@@AEAA_NXZ 00000001800729e0 f i libucrtd:output.obj
 0001:00071a00       ?type_case_X@?$output_processor@DV?$string_output_adapter@D@__crt_stdio_output@@V?$standard_base@DV?$string_output_adapter@D@__crt_stdio_output@@@2@@__crt_stdio_output@@AEAA_NXZ 0000000180072a00 f i libucrtd:output.obj
 0001:00071a20       ?type_case_X@?$output_processor@_WV?$stream_output_adapter@_W@__crt_stdio_output@@V?$format_validation_base@_WV?$stream_output_adapter@_W@__crt_stdio_output@@@2@@__crt_stdio_output@@AEAA_NXZ 0000000180072a20 f i libucrtd:output.obj
 0001:00071a40       ?type_case_X@?$output_processor@_WV?$stream_output_adapter@_W@__crt_stdio_output@@V?$positional_parameter_base@_WV?$stream_output_adapter@_W@__crt_stdio_output@@@2@@__crt_stdio_output@@AEAA_NXZ 0000000180072a40 f i libucrtd:output.obj
 0001:00071a60       ?type_case_X@?$output_processor@_WV?$stream_output_adapter@_W@__crt_stdio_output@@V?$standard_base@_WV?$stream_output_adapter@_W@__crt_stdio_output@@@2@@__crt_stdio_output@@AEAA_NXZ 0000000180072a60 f i libucrtd:output.obj
 0001:00071a80       ?type_case_X@?$output_processor@_WV?$string_output_adapter@_W@__crt_stdio_output@@V?$format_validation_base@_WV?$string_output_adapter@_W@__crt_stdio_output@@@2@@__crt_stdio_output@@AEAA_NXZ 0000000180072a80 f i libucrtd:output.obj
 0001:00071aa0       ?type_case_X@?$output_processor@_WV?$string_output_adapter@_W@__crt_stdio_output@@V?$positional_parameter_base@_WV?$string_output_adapter@_W@__crt_stdio_output@@@2@@__crt_stdio_output@@AEAA_NXZ 0000000180072aa0 f i libucrtd:output.obj
 0001:00071ac0       ?type_case_X@?$output_processor@_WV?$string_output_adapter@_W@__crt_stdio_output@@V?$standard_base@_WV?$string_output_adapter@_W@__crt_stdio_output@@@2@@__crt_stdio_output@@AEAA_NXZ 0000000180072ac0 f i libucrtd:output.obj
 0001:00071ae0       ?type_case_Z@?$output_processor@DV?$stream_output_adapter@D@__crt_stdio_output@@V?$format_validation_base@DV?$stream_output_adapter@D@__crt_stdio_output@@@2@@__crt_stdio_output@@AEAA_NXZ 0000000180072ae0 f i libucrtd:output.obj
 0001:00071c00       ?type_case_Z@?$output_processor@DV?$stream_output_adapter@D@__crt_stdio_output@@V?$positional_parameter_base@DV?$stream_output_adapter@D@__crt_stdio_output@@@2@@__crt_stdio_output@@AEAA_NXZ 0000000180072c00 f i libucrtd:output.obj
 0001:00071d20       ?type_case_Z@?$output_processor@DV?$stream_output_adapter@D@__crt_stdio_output@@V?$standard_base@DV?$stream_output_adapter@D@__crt_stdio_output@@@2@@__crt_stdio_output@@AEAA_NXZ 0000000180072d20 f i libucrtd:output.obj
 0001:00071e40       ?type_case_Z@?$output_processor@DV?$string_output_adapter@D@__crt_stdio_output@@V?$format_validation_base@DV?$string_output_adapter@D@__crt_stdio_output@@@2@@__crt_stdio_output@@AEAA_NXZ 0000000180072e40 f i libucrtd:output.obj
 0001:00071f60       ?type_case_Z@?$output_processor@DV?$string_output_adapter@D@__crt_stdio_output@@V?$positional_parameter_base@DV?$string_output_adapter@D@__crt_stdio_output@@@2@@__crt_stdio_output@@AEAA_NXZ 0000000180072f60 f i libucrtd:output.obj
 0001:00072080       ?type_case_Z@?$output_processor@DV?$string_output_adapter@D@__crt_stdio_output@@V?$standard_base@DV?$string_output_adapter@D@__crt_stdio_output@@@2@@__crt_stdio_output@@AEAA_NXZ 0000000180073080 f i libucrtd:output.obj
 0001:000721a0       ?type_case_Z@?$output_processor@_WV?$stream_output_adapter@_W@__crt_stdio_output@@V?$format_validation_base@_WV?$stream_output_adapter@_W@__crt_stdio_output@@@2@@__crt_stdio_output@@AEAA_NXZ 00000001800731a0 f i libucrtd:output.obj
 0001:000722c0       ?type_case_Z@?$output_processor@_WV?$stream_output_adapter@_W@__crt_stdio_output@@V?$positional_parameter_base@_WV?$stream_output_adapter@_W@__crt_stdio_output@@@2@@__crt_stdio_output@@AEAA_NXZ 00000001800732c0 f i libucrtd:output.obj
 0001:000723e0       ?type_case_Z@?$output_processor@_WV?$stream_output_adapter@_W@__crt_stdio_output@@V?$standard_base@_WV?$stream_output_adapter@_W@__crt_stdio_output@@@2@@__crt_stdio_output@@AEAA_NXZ 00000001800733e0 f i libucrtd:output.obj
 0001:00072500       ?type_case_Z@?$output_processor@_WV?$string_output_adapter@_W@__crt_stdio_output@@V?$format_validation_base@_WV?$string_output_adapter@_W@__crt_stdio_output@@@2@@__crt_stdio_output@@AEAA_NXZ 0000000180073500 f i libucrtd:output.obj
 0001:00072620       ?type_case_Z@?$output_processor@_WV?$string_output_adapter@_W@__crt_stdio_output@@V?$positional_parameter_base@_WV?$string_output_adapter@_W@__crt_stdio_output@@@2@@__crt_stdio_output@@AEAA_NXZ 0000000180073620 f i libucrtd:output.obj
 0001:00072740       ?type_case_Z@?$output_processor@_WV?$string_output_adapter@_W@__crt_stdio_output@@V?$standard_base@_WV?$string_output_adapter@_W@__crt_stdio_output@@@2@@__crt_stdio_output@@AEAA_NXZ 0000000180073740 f i libucrtd:output.obj
 0001:00072860       ?type_case_a@?$output_processor@DV?$stream_output_adapter@D@__crt_stdio_output@@V?$format_validation_base@DV?$stream_output_adapter@D@__crt_stdio_output@@@2@@__crt_stdio_output@@AEAA_NXZ 0000000180073860 f i libucrtd:output.obj
 0001:00072c30       ?type_case_a@?$output_processor@DV?$stream_output_adapter@D@__crt_stdio_output@@V?$positional_parameter_base@DV?$stream_output_adapter@D@__crt_stdio_output@@@2@@__crt_stdio_output@@AEAA_NXZ 0000000180073c30 f i libucrtd:output.obj
 0001:00073000       ?type_case_a@?$output_processor@DV?$stream_output_adapter@D@__crt_stdio_output@@V?$standard_base@DV?$stream_output_adapter@D@__crt_stdio_output@@@2@@__crt_stdio_output@@AEAA_NXZ 0000000180074000 f i libucrtd:output.obj
 0001:000733d0       ?type_case_a@?$output_processor@DV?$string_output_adapter@D@__crt_stdio_output@@V?$format_validation_base@DV?$string_output_adapter@D@__crt_stdio_output@@@2@@__crt_stdio_output@@AEAA_NXZ 00000001800743d0 f i libucrtd:output.obj
 0001:000737a0       ?type_case_a@?$output_processor@DV?$string_output_adapter@D@__crt_stdio_output@@V?$positional_parameter_base@DV?$string_output_adapter@D@__crt_stdio_output@@@2@@__crt_stdio_output@@AEAA_NXZ 00000001800747a0 f i libucrtd:output.obj
 0001:00073b70       ?type_case_a@?$output_processor@DV?$string_output_adapter@D@__crt_stdio_output@@V?$standard_base@DV?$string_output_adapter@D@__crt_stdio_output@@@2@@__crt_stdio_output@@AEAA_NXZ 0000000180074b70 f i libucrtd:output.obj
 0001:00073f40       ?type_case_a@?$output_processor@_WV?$stream_output_adapter@_W@__crt_stdio_output@@V?$format_validation_base@_WV?$stream_output_adapter@_W@__crt_stdio_output@@@2@@__crt_stdio_output@@AEAA_NXZ 0000000180074f40 f i libucrtd:output.obj
 0001:00074310       ?type_case_a@?$output_processor@_WV?$stream_output_adapter@_W@__crt_stdio_output@@V?$positional_parameter_base@_WV?$stream_output_adapter@_W@__crt_stdio_output@@@2@@__crt_stdio_output@@AEAA_NXZ 0000000180075310 f i libucrtd:output.obj
 0001:000746e0       ?type_case_a@?$output_processor@_WV?$stream_output_adapter@_W@__crt_stdio_output@@V?$standard_base@_WV?$stream_output_adapter@_W@__crt_stdio_output@@@2@@__crt_stdio_output@@AEAA_NXZ 00000001800756e0 f i libucrtd:output.obj
 0001:00074ab0       ?type_case_a@?$output_processor@_WV?$string_output_adapter@_W@__crt_stdio_output@@V?$format_validation_base@_WV?$string_output_adapter@_W@__crt_stdio_output@@@2@@__crt_stdio_output@@AEAA_NXZ 0000000180075ab0 f i libucrtd:output.obj
 0001:00074e80       ?type_case_a@?$output_processor@_WV?$string_output_adapter@_W@__crt_stdio_output@@V?$positional_parameter_base@_WV?$string_output_adapter@_W@__crt_stdio_output@@@2@@__crt_stdio_output@@AEAA_NXZ 0000000180075e80 f i libucrtd:output.obj
 0001:00075250       ?type_case_a@?$output_processor@_WV?$string_output_adapter@_W@__crt_stdio_output@@V?$standard_base@_WV?$string_output_adapter@_W@__crt_stdio_output@@@2@@__crt_stdio_output@@AEAA_NXZ 0000000180076250 f i libucrtd:output.obj
 0001:00075620       ?type_case_c@?$output_processor@DV?$stream_output_adapter@D@__crt_stdio_output@@V?$format_validation_base@DV?$stream_output_adapter@D@__crt_stdio_output@@@2@@__crt_stdio_output@@AEAA_NXZ 0000000180076620 f i libucrtd:output.obj
 0001:00075640       ?type_case_c@?$output_processor@DV?$stream_output_adapter@D@__crt_stdio_output@@V?$positional_parameter_base@DV?$stream_output_adapter@D@__crt_stdio_output@@@2@@__crt_stdio_output@@AEAA_NXZ 0000000180076640 f i libucrtd:output.obj
 0001:00075660       ?type_case_c@?$output_processor@DV?$stream_output_adapter@D@__crt_stdio_output@@V?$standard_base@DV?$stream_output_adapter@D@__crt_stdio_output@@@2@@__crt_stdio_output@@AEAA_NXZ 0000000180076660 f i libucrtd:output.obj
 0001:00075680       ?type_case_c@?$output_processor@DV?$string_output_adapter@D@__crt_stdio_output@@V?$format_validation_base@DV?$string_output_adapter@D@__crt_stdio_output@@@2@@__crt_stdio_output@@AEAA_NXZ 0000000180076680 f i libucrtd:output.obj
 0001:000756a0       ?type_case_c@?$output_processor@DV?$string_output_adapter@D@__crt_stdio_output@@V?$positional_parameter_base@DV?$string_output_adapter@D@__crt_stdio_output@@@2@@__crt_stdio_output@@AEAA_NXZ 00000001800766a0 f i libucrtd:output.obj
 0001:000756c0       ?type_case_c@?$output_processor@DV?$string_output_adapter@D@__crt_stdio_output@@V?$standard_base@DV?$string_output_adapter@D@__crt_stdio_output@@@2@@__crt_stdio_output@@AEAA_NXZ 00000001800766c0 f i libucrtd:output.obj
 0001:000756e0       ?type_case_c@?$output_processor@_WV?$stream_output_adapter@_W@__crt_stdio_output@@V?$format_validation_base@_WV?$stream_output_adapter@_W@__crt_stdio_output@@@2@@__crt_stdio_output@@AEAA_NXZ 00000001800766e0 f i libucrtd:output.obj
 0001:00075700       ?type_case_c@?$output_processor@_WV?$stream_output_adapter@_W@__crt_stdio_output@@V?$positional_parameter_base@_WV?$stream_output_adapter@_W@__crt_stdio_output@@@2@@__crt_stdio_output@@AEAA_NXZ 0000000180076700 f i libucrtd:output.obj
 0001:00075720       ?type_case_c@?$output_processor@_WV?$stream_output_adapter@_W@__crt_stdio_output@@V?$standard_base@_WV?$stream_output_adapter@_W@__crt_stdio_output@@@2@@__crt_stdio_output@@AEAA_NXZ 0000000180076720 f i libucrtd:output.obj
 0001:00075740       ?type_case_c@?$output_processor@_WV?$string_output_adapter@_W@__crt_stdio_output@@V?$format_validation_base@_WV?$string_output_adapter@_W@__crt_stdio_output@@@2@@__crt_stdio_output@@AEAA_NXZ 0000000180076740 f i libucrtd:output.obj
 0001:00075760       ?type_case_c@?$output_processor@_WV?$string_output_adapter@_W@__crt_stdio_output@@V?$positional_parameter_base@_WV?$string_output_adapter@_W@__crt_stdio_output@@@2@@__crt_stdio_output@@AEAA_NXZ 0000000180076760 f i libucrtd:output.obj
 0001:00075780       ?type_case_c@?$output_processor@_WV?$string_output_adapter@_W@__crt_stdio_output@@V?$standard_base@_WV?$string_output_adapter@_W@__crt_stdio_output@@@2@@__crt_stdio_output@@AEAA_NXZ 0000000180076780 f i libucrtd:output.obj
 0001:000757a0       ?type_case_c_tchar@?$output_processor@DV?$stream_output_adapter@D@__crt_stdio_output@@V?$format_validation_base@DV?$stream_output_adapter@D@__crt_stdio_output@@@2@@__crt_stdio_output@@AEAA_ND@Z 00000001800767a0 f i libucrtd:output.obj
 0001:00075900       ?type_case_c_tchar@?$output_processor@DV?$stream_output_adapter@D@__crt_stdio_output@@V?$positional_parameter_base@DV?$stream_output_adapter@D@__crt_stdio_output@@@2@@__crt_stdio_output@@AEAA_ND@Z 0000000180076900 f i libucrtd:output.obj
 0001:00075a60       ?type_case_c_tchar@?$output_processor@DV?$stream_output_adapter@D@__crt_stdio_output@@V?$standard_base@DV?$stream_output_adapter@D@__crt_stdio_output@@@2@@__crt_stdio_output@@AEAA_ND@Z 0000000180076a60 f i libucrtd:output.obj
 0001:00075bc0       ?type_case_c_tchar@?$output_processor@DV?$string_output_adapter@D@__crt_stdio_output@@V?$format_validation_base@DV?$string_output_adapter@D@__crt_stdio_output@@@2@@__crt_stdio_output@@AEAA_ND@Z 0000000180076bc0 f i libucrtd:output.obj
 0001:00075d20       ?type_case_c_tchar@?$output_processor@DV?$string_output_adapter@D@__crt_stdio_output@@V?$positional_parameter_base@DV?$string_output_adapter@D@__crt_stdio_output@@@2@@__crt_stdio_output@@AEAA_ND@Z 0000000180076d20 f i libucrtd:output.obj
 0001:00075e80       ?type_case_c_tchar@?$output_processor@DV?$string_output_adapter@D@__crt_stdio_output@@V?$standard_base@DV?$string_output_adapter@D@__crt_stdio_output@@@2@@__crt_stdio_output@@AEAA_ND@Z 0000000180076e80 f i libucrtd:output.obj
 0001:00075fe0       ?type_case_c_tchar@?$output_processor@_WV?$stream_output_adapter@_W@__crt_stdio_output@@V?$format_validation_base@_WV?$stream_output_adapter@_W@__crt_stdio_output@@@2@@__crt_stdio_output@@AEAA_N_W@Z 0000000180076fe0 f i libucrtd:output.obj
 0001:00076110       ?type_case_c_tchar@?$output_processor@_WV?$stream_output_adapter@_W@__crt_stdio_output@@V?$positional_parameter_base@_WV?$stream_output_adapter@_W@__crt_stdio_output@@@2@@__crt_stdio_output@@AEAA_N_W@Z 0000000180077110 f i libucrtd:output.obj
 0001:00076240       ?type_case_c_tchar@?$output_processor@_WV?$stream_output_adapter@_W@__crt_stdio_output@@V?$standard_base@_WV?$stream_output_adapter@_W@__crt_stdio_output@@@2@@__crt_stdio_output@@AEAA_N_W@Z 0000000180077240 f i libucrtd:output.obj
 0001:00076370       ?type_case_c_tchar@?$output_processor@_WV?$string_output_adapter@_W@__crt_stdio_output@@V?$format_validation_base@_WV?$string_output_adapter@_W@__crt_stdio_output@@@2@@__crt_stdio_output@@AEAA_N_W@Z 0000000180077370 f i libucrtd:output.obj
 0001:000764a0       ?type_case_c_tchar@?$output_processor@_WV?$string_output_adapter@_W@__crt_stdio_output@@V?$positional_parameter_base@_WV?$string_output_adapter@_W@__crt_stdio_output@@@2@@__crt_stdio_output@@AEAA_N_W@Z 00000001800774a0 f i libucrtd:output.obj
 0001:000765d0       ?type_case_c_tchar@?$output_processor@_WV?$string_output_adapter@_W@__crt_stdio_output@@V?$standard_base@_WV?$string_output_adapter@_W@__crt_stdio_output@@@2@@__crt_stdio_output@@AEAA_N_W@Z 00000001800775d0 f i libucrtd:output.obj
 0001:00076700       ?type_case_d@?$output_processor@DV?$stream_output_adapter@D@__crt_stdio_output@@V?$format_validation_base@DV?$stream_output_adapter@D@__crt_stdio_output@@@2@@__crt_stdio_output@@AEAA_NXZ 0000000180077700 f i libucrtd:output.obj
 0001:00076730       ?type_case_d@?$output_processor@DV?$stream_output_adapter@D@__crt_stdio_output@@V?$positional_parameter_base@DV?$stream_output_adapter@D@__crt_stdio_output@@@2@@__crt_stdio_output@@AEAA_NXZ 0000000180077730 f i libucrtd:output.obj
 0001:00076760       ?type_case_d@?$output_processor@DV?$stream_output_adapter@D@__crt_stdio_output@@V?$standard_base@DV?$stream_output_adapter@D@__crt_stdio_output@@@2@@__crt_stdio_output@@AEAA_NXZ 0000000180077760 f i libucrtd:output.obj
 0001:00076790       ?type_case_d@?$output_processor@DV?$string_output_adapter@D@__crt_stdio_output@@V?$format_validation_base@DV?$string_output_adapter@D@__crt_stdio_output@@@2@@__crt_stdio_output@@AEAA_NXZ 0000000180077790 f i libucrtd:output.obj
 0001:000767c0       ?type_case_d@?$output_processor@DV?$string_output_adapter@D@__crt_stdio_output@@V?$positional_parameter_base@DV?$string_output_adapter@D@__crt_stdio_output@@@2@@__crt_stdio_output@@AEAA_NXZ 00000001800777c0 f i libucrtd:output.obj
 0001:000767f0       ?type_case_d@?$output_processor@DV?$string_output_adapter@D@__crt_stdio_output@@V?$standard_base@DV?$string_output_adapter@D@__crt_stdio_output@@@2@@__crt_stdio_output@@AEAA_NXZ 00000001800777f0 f i libucrtd:output.obj
 0001:00076820       ?type_case_d@?$output_processor@_WV?$stream_output_adapter@_W@__crt_stdio_output@@V?$format_validation_base@_WV?$stream_output_adapter@_W@__crt_stdio_output@@@2@@__crt_stdio_output@@AEAA_NXZ 0000000180077820 f i libucrtd:output.obj
 0001:00076850       ?type_case_d@?$output_processor@_WV?$stream_output_adapter@_W@__crt_stdio_output@@V?$positional_parameter_base@_WV?$stream_output_adapter@_W@__crt_stdio_output@@@2@@__crt_stdio_output@@AEAA_NXZ 0000000180077850 f i libucrtd:output.obj
 0001:00076880       ?type_case_d@?$output_processor@_WV?$stream_output_adapter@_W@__crt_stdio_output@@V?$standard_base@_WV?$stream_output_adapter@_W@__crt_stdio_output@@@2@@__crt_stdio_output@@AEAA_NXZ 0000000180077880 f i libucrtd:output.obj
 0001:000768b0       ?type_case_d@?$output_processor@_WV?$string_output_adapter@_W@__crt_stdio_output@@V?$format_validation_base@_WV?$string_output_adapter@_W@__crt_stdio_output@@@2@@__crt_stdio_output@@AEAA_NXZ 00000001800778b0 f i libucrtd:output.obj
 0001:000768e0       ?type_case_d@?$output_processor@_WV?$string_output_adapter@_W@__crt_stdio_output@@V?$positional_parameter_base@_WV?$string_output_adapter@_W@__crt_stdio_output@@@2@@__crt_stdio_output@@AEAA_NXZ 00000001800778e0 f i libucrtd:output.obj
 0001:00076910       ?type_case_d@?$output_processor@_WV?$string_output_adapter@_W@__crt_stdio_output@@V?$standard_base@_WV?$string_output_adapter@_W@__crt_stdio_output@@@2@@__crt_stdio_output@@AEAA_NXZ 0000000180077910 f i libucrtd:output.obj
 0001:00076940       ?type_case_integer@?$output_processor@DV?$stream_output_adapter@D@__crt_stdio_output@@V?$format_validation_base@DV?$stream_output_adapter@D@__crt_stdio_output@@@2@@__crt_stdio_output@@AEAA_NI_N@Z 0000000180077940 f i libucrtd:output.obj
 0001:00076d90       ?type_case_integer@?$output_processor@DV?$stream_output_adapter@D@__crt_stdio_output@@V?$positional_parameter_base@DV?$stream_output_adapter@D@__crt_stdio_output@@@2@@__crt_stdio_output@@AEAA_NI_N@Z 0000000180077d90 f i libucrtd:output.obj
 0001:000771e0       ?type_case_integer@?$output_processor@DV?$stream_output_adapter@D@__crt_stdio_output@@V?$standard_base@DV?$stream_output_adapter@D@__crt_stdio_output@@@2@@__crt_stdio_output@@AEAA_NI_N@Z 00000001800781e0 f i libucrtd:output.obj
 0001:00077630       ?type_case_integer@?$output_processor@DV?$string_output_adapter@D@__crt_stdio_output@@V?$format_validation_base@DV?$string_output_adapter@D@__crt_stdio_output@@@2@@__crt_stdio_output@@AEAA_NI_N@Z 0000000180078630 f i libucrtd:output.obj
 0001:00077a80       ?type_case_integer@?$output_processor@DV?$string_output_adapter@D@__crt_stdio_output@@V?$positional_parameter_base@DV?$string_output_adapter@D@__crt_stdio_output@@@2@@__crt_stdio_output@@AEAA_NI_N@Z 0000000180078a80 f i libucrtd:output.obj
 0001:00077ed0       ?type_case_integer@?$output_processor@DV?$string_output_adapter@D@__crt_stdio_output@@V?$standard_base@DV?$string_output_adapter@D@__crt_stdio_output@@@2@@__crt_stdio_output@@AEAA_NI_N@Z 0000000180078ed0 f i libucrtd:output.obj
 0001:00078320       ?type_case_integer@?$output_processor@_WV?$stream_output_adapter@_W@__crt_stdio_output@@V?$format_validation_base@_WV?$stream_output_adapter@_W@__crt_stdio_output@@@2@@__crt_stdio_output@@AEAA_NI_N@Z 0000000180079320 f i libucrtd:output.obj
 0001:00078770       ?type_case_integer@?$output_processor@_WV?$stream_output_adapter@_W@__crt_stdio_output@@V?$positional_parameter_base@_WV?$stream_output_adapter@_W@__crt_stdio_output@@@2@@__crt_stdio_output@@AEAA_NI_N@Z 0000000180079770 f i libucrtd:output.obj
 0001:00078bc0       ?type_case_integer@?$output_processor@_WV?$stream_output_adapter@_W@__crt_stdio_output@@V?$standard_base@_WV?$stream_output_adapter@_W@__crt_stdio_output@@@2@@__crt_stdio_output@@AEAA_NI_N@Z 0000000180079bc0 f i libucrtd:output.obj
 0001:00079010       ?type_case_integer@?$output_processor@_WV?$string_output_adapter@_W@__crt_stdio_output@@V?$format_validation_base@_WV?$string_output_adapter@_W@__crt_stdio_output@@@2@@__crt_stdio_output@@AEAA_NI_N@Z 000000018007a010 f i libucrtd:output.obj
 0001:00079460       ?type_case_integer@?$output_processor@_WV?$string_output_adapter@_W@__crt_stdio_output@@V?$positional_parameter_base@_WV?$string_output_adapter@_W@__crt_stdio_output@@@2@@__crt_stdio_output@@AEAA_NI_N@Z 000000018007a460 f i libucrtd:output.obj
 0001:000798b0       ?type_case_integer@?$output_processor@_WV?$string_output_adapter@_W@__crt_stdio_output@@V?$standard_base@_WV?$string_output_adapter@_W@__crt_stdio_output@@@2@@__crt_stdio_output@@AEAA_NI_N@Z 000000018007a8b0 f i libucrtd:output.obj
 0001:00079d00       ?type_case_n@?$output_processor@DV?$stream_output_adapter@D@__crt_stdio_output@@V?$format_validation_base@DV?$stream_output_adapter@D@__crt_stdio_output@@@2@@__crt_stdio_output@@AEAA_NXZ 000000018007ad00 f i libucrtd:output.obj
 0001:00079f40       ?type_case_n@?$output_processor@DV?$stream_output_adapter@D@__crt_stdio_output@@V?$positional_parameter_base@DV?$stream_output_adapter@D@__crt_stdio_output@@@2@@__crt_stdio_output@@AEAA_NXZ 000000018007af40 f i libucrtd:output.obj
 0001:0007a180       ?type_case_n@?$output_processor@DV?$stream_output_adapter@D@__crt_stdio_output@@V?$standard_base@DV?$stream_output_adapter@D@__crt_stdio_output@@@2@@__crt_stdio_output@@AEAA_NXZ 000000018007b180 f i libucrtd:output.obj
 0001:0007a3c0       ?type_case_n@?$output_processor@DV?$string_output_adapter@D@__crt_stdio_output@@V?$format_validation_base@DV?$string_output_adapter@D@__crt_stdio_output@@@2@@__crt_stdio_output@@AEAA_NXZ 000000018007b3c0 f i libucrtd:output.obj
 0001:0007a600       ?type_case_n@?$output_processor@DV?$string_output_adapter@D@__crt_stdio_output@@V?$positional_parameter_base@DV?$string_output_adapter@D@__crt_stdio_output@@@2@@__crt_stdio_output@@AEAA_NXZ 000000018007b600 f i libucrtd:output.obj
 0001:0007a840       ?type_case_n@?$output_processor@DV?$string_output_adapter@D@__crt_stdio_output@@V?$standard_base@DV?$string_output_adapter@D@__crt_stdio_output@@@2@@__crt_stdio_output@@AEAA_NXZ 000000018007b840 f i libucrtd:output.obj
 0001:0007aa80       ?type_case_n@?$output_processor@_WV?$stream_output_adapter@_W@__crt_stdio_output@@V?$format_validation_base@_WV?$stream_output_adapter@_W@__crt_stdio_output@@@2@@__crt_stdio_output@@AEAA_NXZ 000000018007ba80 f i libucrtd:output.obj
 0001:0007acc0       ?type_case_n@?$output_processor@_WV?$stream_output_adapter@_W@__crt_stdio_output@@V?$positional_parameter_base@_WV?$stream_output_adapter@_W@__crt_stdio_output@@@2@@__crt_stdio_output@@AEAA_NXZ 000000018007bcc0 f i libucrtd:output.obj
 0001:0007af00       ?type_case_n@?$output_processor@_WV?$stream_output_adapter@_W@__crt_stdio_output@@V?$standard_base@_WV?$stream_output_adapter@_W@__crt_stdio_output@@@2@@__crt_stdio_output@@AEAA_NXZ 000000018007bf00 f i libucrtd:output.obj
 0001:0007b140       ?type_case_n@?$output_processor@_WV?$string_output_adapter@_W@__crt_stdio_output@@V?$format_validation_base@_WV?$string_output_adapter@_W@__crt_stdio_output@@@2@@__crt_stdio_output@@AEAA_NXZ 000000018007c140 f i libucrtd:output.obj
 0001:0007b380       ?type_case_n@?$output_processor@_WV?$string_output_adapter@_W@__crt_stdio_output@@V?$positional_parameter_base@_WV?$string_output_adapter@_W@__crt_stdio_output@@@2@@__crt_stdio_output@@AEAA_NXZ 000000018007c380 f i libucrtd:output.obj
 0001:0007b5c0       ?type_case_n@?$output_processor@_WV?$string_output_adapter@_W@__crt_stdio_output@@V?$standard_base@_WV?$string_output_adapter@_W@__crt_stdio_output@@@2@@__crt_stdio_output@@AEAA_NXZ 000000018007c5c0 f i libucrtd:output.obj
 0001:0007b800       ?type_case_o@?$output_processor@DV?$stream_output_adapter@D@__crt_stdio_output@@V?$format_validation_base@DV?$stream_output_adapter@D@__crt_stdio_output@@@2@@__crt_stdio_output@@AEAA_NXZ 000000018007c800 f i libucrtd:output.obj
 0001:0007b850       ?type_case_o@?$output_processor@DV?$stream_output_adapter@D@__crt_stdio_output@@V?$positional_parameter_base@DV?$stream_output_adapter@D@__crt_stdio_output@@@2@@__crt_stdio_output@@AEAA_NXZ 000000018007c850 f i libucrtd:output.obj
 0001:0007b8a0       ?type_case_o@?$output_processor@DV?$stream_output_adapter@D@__crt_stdio_output@@V?$standard_base@DV?$stream_output_adapter@D@__crt_stdio_output@@@2@@__crt_stdio_output@@AEAA_NXZ 000000018007c8a0 f i libucrtd:output.obj
 0001:0007b8f0       ?type_case_o@?$output_processor@DV?$string_output_adapter@D@__crt_stdio_output@@V?$format_validation_base@DV?$string_output_adapter@D@__crt_stdio_output@@@2@@__crt_stdio_output@@AEAA_NXZ 000000018007c8f0 f i libucrtd:output.obj
 0001:0007b940       ?type_case_o@?$output_processor@DV?$string_output_adapter@D@__crt_stdio_output@@V?$positional_parameter_base@DV?$string_output_adapter@D@__crt_stdio_output@@@2@@__crt_stdio_output@@AEAA_NXZ 000000018007c940 f i libucrtd:output.obj
 0001:0007b990       ?type_case_o@?$output_processor@DV?$string_output_adapter@D@__crt_stdio_output@@V?$standard_base@DV?$string_output_adapter@D@__crt_stdio_output@@@2@@__crt_stdio_output@@AEAA_NXZ 000000018007c990 f i libucrtd:output.obj
 0001:0007b9e0       ?type_case_o@?$output_processor@_WV?$stream_output_adapter@_W@__crt_stdio_output@@V?$format_validation_base@_WV?$stream_output_adapter@_W@__crt_stdio_output@@@2@@__crt_stdio_output@@AEAA_NXZ 000000018007c9e0 f i libucrtd:output.obj
 0001:0007ba30       ?type_case_o@?$output_processor@_WV?$stream_output_adapter@_W@__crt_stdio_output@@V?$positional_parameter_base@_WV?$stream_output_adapter@_W@__crt_stdio_output@@@2@@__crt_stdio_output@@AEAA_NXZ 000000018007ca30 f i libucrtd:output.obj
 0001:0007ba80       ?type_case_o@?$output_processor@_WV?$stream_output_adapter@_W@__crt_stdio_output@@V?$standard_base@_WV?$stream_output_adapter@_W@__crt_stdio_output@@@2@@__crt_stdio_output@@AEAA_NXZ 000000018007ca80 f i libucrtd:output.obj
 0001:0007bad0       ?type_case_o@?$output_processor@_WV?$string_output_adapter@_W@__crt_stdio_output@@V?$format_validation_base@_WV?$string_output_adapter@_W@__crt_stdio_output@@@2@@__crt_stdio_output@@AEAA_NXZ 000000018007cad0 f i libucrtd:output.obj
 0001:0007bb20       ?type_case_o@?$output_processor@_WV?$string_output_adapter@_W@__crt_stdio_output@@V?$positional_parameter_base@_WV?$string_output_adapter@_W@__crt_stdio_output@@@2@@__crt_stdio_output@@AEAA_NXZ 000000018007cb20 f i libucrtd:output.obj
 0001:0007bb70       ?type_case_o@?$output_processor@_WV?$string_output_adapter@_W@__crt_stdio_output@@V?$standard_base@_WV?$string_output_adapter@_W@__crt_stdio_output@@@2@@__crt_stdio_output@@AEAA_NXZ 000000018007cb70 f i libucrtd:output.obj
 0001:0007bbc0       ?type_case_p@?$output_processor@DV?$stream_output_adapter@D@__crt_stdio_output@@V?$format_validation_base@DV?$stream_output_adapter@D@__crt_stdio_output@@@2@@__crt_stdio_output@@AEAA_NXZ 000000018007cbc0 f i libucrtd:output.obj
 0001:0007bc00       ?type_case_p@?$output_processor@DV?$stream_output_adapter@D@__crt_stdio_output@@V?$positional_parameter_base@DV?$stream_output_adapter@D@__crt_stdio_output@@@2@@__crt_stdio_output@@AEAA_NXZ 000000018007cc00 f i libucrtd:output.obj
 0001:0007bc40       ?type_case_p@?$output_processor@DV?$stream_output_adapter@D@__crt_stdio_output@@V?$standard_base@DV?$stream_output_adapter@D@__crt_stdio_output@@@2@@__crt_stdio_output@@AEAA_NXZ 000000018007cc40 f i libucrtd:output.obj
 0001:0007bc80       ?type_case_p@?$output_processor@DV?$string_output_adapter@D@__crt_stdio_output@@V?$format_validation_base@DV?$string_output_adapter@D@__crt_stdio_output@@@2@@__crt_stdio_output@@AEAA_NXZ 000000018007cc80 f i libucrtd:output.obj
 0001:0007bcc0       ?type_case_p@?$output_processor@DV?$string_output_adapter@D@__crt_stdio_output@@V?$positional_parameter_base@DV?$string_output_adapter@D@__crt_stdio_output@@@2@@__crt_stdio_output@@AEAA_NXZ 000000018007ccc0 f i libucrtd:output.obj
 0001:0007bd00       ?type_case_p@?$output_processor@DV?$string_output_adapter@D@__crt_stdio_output@@V?$standard_base@DV?$string_output_adapter@D@__crt_stdio_output@@@2@@__crt_stdio_output@@AEAA_NXZ 000000018007cd00 f i libucrtd:output.obj
 0001:0007bd40       ?type_case_p@?$output_processor@_WV?$stream_output_adapter@_W@__crt_stdio_output@@V?$format_validation_base@_WV?$stream_output_adapter@_W@__crt_stdio_output@@@2@@__crt_stdio_output@@AEAA_NXZ 000000018007cd40 f i libucrtd:output.obj
 0001:0007bd80       ?type_case_p@?$output_processor@_WV?$stream_output_adapter@_W@__crt_stdio_output@@V?$positional_parameter_base@_WV?$stream_output_adapter@_W@__crt_stdio_output@@@2@@__crt_stdio_output@@AEAA_NXZ 000000018007cd80 f i libucrtd:output.obj
 0001:0007bdc0       ?type_case_p@?$output_processor@_WV?$stream_output_adapter@_W@__crt_stdio_output@@V?$standard_base@_WV?$stream_output_adapter@_W@__crt_stdio_output@@@2@@__crt_stdio_output@@AEAA_NXZ 000000018007cdc0 f i libucrtd:output.obj
 0001:0007be00       ?type_case_p@?$output_processor@_WV?$string_output_adapter@_W@__crt_stdio_output@@V?$format_validation_base@_WV?$string_output_adapter@_W@__crt_stdio_output@@@2@@__crt_stdio_output@@AEAA_NXZ 000000018007ce00 f i libucrtd:output.obj
 0001:0007be40       ?type_case_p@?$output_processor@_WV?$string_output_adapter@_W@__crt_stdio_output@@V?$positional_parameter_base@_WV?$string_output_adapter@_W@__crt_stdio_output@@@2@@__crt_stdio_output@@AEAA_NXZ 000000018007ce40 f i libucrtd:output.obj
 0001:0007be80       ?type_case_p@?$output_processor@_WV?$string_output_adapter@_W@__crt_stdio_output@@V?$standard_base@_WV?$string_output_adapter@_W@__crt_stdio_output@@@2@@__crt_stdio_output@@AEAA_NXZ 000000018007ce80 f i libucrtd:output.obj
 0001:0007bec0       ?type_case_s@?$output_processor@DV?$stream_output_adapter@D@__crt_stdio_output@@V?$format_validation_base@DV?$stream_output_adapter@D@__crt_stdio_output@@@2@@__crt_stdio_output@@AEAA_NXZ 000000018007cec0 f i libucrtd:output.obj
 0001:0007bfe0       ?type_case_s@?$output_processor@DV?$stream_output_adapter@D@__crt_stdio_output@@V?$positional_parameter_base@DV?$stream_output_adapter@D@__crt_stdio_output@@@2@@__crt_stdio_output@@AEAA_NXZ 000000018007cfe0 f i libucrtd:output.obj
 0001:0007c100       ?type_case_s@?$output_processor@DV?$stream_output_adapter@D@__crt_stdio_output@@V?$standard_base@DV?$stream_output_adapter@D@__crt_stdio_output@@@2@@__crt_stdio_output@@AEAA_NXZ 000000018007d100 f i libucrtd:output.obj
 0001:0007c220       ?type_case_s@?$output_processor@DV?$string_output_adapter@D@__crt_stdio_output@@V?$format_validation_base@DV?$string_output_adapter@D@__crt_stdio_output@@@2@@__crt_stdio_output@@AEAA_NXZ 000000018007d220 f i libucrtd:output.obj
 0001:0007c340       ?type_case_s@?$output_processor@DV?$string_output_adapter@D@__crt_stdio_output@@V?$positional_parameter_base@DV?$string_output_adapter@D@__crt_stdio_output@@@2@@__crt_stdio_output@@AEAA_NXZ 000000018007d340 f i libucrtd:output.obj
 0001:0007c460       ?type_case_s@?$output_processor@DV?$string_output_adapter@D@__crt_stdio_output@@V?$standard_base@DV?$string_output_adapter@D@__crt_stdio_output@@@2@@__crt_stdio_output@@AEAA_NXZ 000000018007d460 f i libucrtd:output.obj
 0001:0007c580       ?type_case_s@?$output_processor@_WV?$stream_output_adapter@_W@__crt_stdio_output@@V?$format_validation_base@_WV?$stream_output_adapter@_W@__crt_stdio_output@@@2@@__crt_stdio_output@@AEAA_NXZ 000000018007d580 f i libucrtd:output.obj
 0001:0007c6a0       ?type_case_s@?$output_processor@_WV?$stream_output_adapter@_W@__crt_stdio_output@@V?$positional_parameter_base@_WV?$stream_output_adapter@_W@__crt_stdio_output@@@2@@__crt_stdio_output@@AEAA_NXZ 000000018007d6a0 f i libucrtd:output.obj
 0001:0007c7c0       ?type_case_s@?$output_processor@_WV?$stream_output_adapter@_W@__crt_stdio_output@@V?$standard_base@_WV?$stream_output_adapter@_W@__crt_stdio_output@@@2@@__crt_stdio_output@@AEAA_NXZ 000000018007d7c0 f i libucrtd:output.obj
 0001:0007c8e0       ?type_case_s@?$output_processor@_WV?$string_output_adapter@_W@__crt_stdio_output@@V?$format_validation_base@_WV?$string_output_adapter@_W@__crt_stdio_output@@@2@@__crt_stdio_output@@AEAA_NXZ 000000018007d8e0 f i libucrtd:output.obj
 0001:0007ca00       ?type_case_s@?$output_processor@_WV?$string_output_adapter@_W@__crt_stdio_output@@V?$positional_parameter_base@_WV?$string_output_adapter@_W@__crt_stdio_output@@@2@@__crt_stdio_output@@AEAA_NXZ 000000018007da00 f i libucrtd:output.obj
 0001:0007cb20       ?type_case_s@?$output_processor@_WV?$string_output_adapter@_W@__crt_stdio_output@@V?$standard_base@_WV?$string_output_adapter@_W@__crt_stdio_output@@@2@@__crt_stdio_output@@AEAA_NXZ 000000018007db20 f i libucrtd:output.obj
 0001:0007cc40       ?type_case_s_compute_narrow_string_length@?$output_processor@DV?$stream_output_adapter@D@__crt_stdio_output@@V?$format_validation_base@DV?$stream_output_adapter@D@__crt_stdio_output@@@2@@__crt_stdio_output@@AEBAHHD@Z 000000018007dc40 f i libucrtd:output.obj
 0001:0007cc70       ?type_case_s_compute_narrow_string_length@?$output_processor@DV?$stream_output_adapter@D@__crt_stdio_output@@V?$positional_parameter_base@DV?$stream_output_adapter@D@__crt_stdio_output@@@2@@__crt_stdio_output@@AEBAHHD@Z 000000018007dc70 f i libucrtd:output.obj
 0001:0007cca0       ?type_case_s_compute_narrow_string_length@?$output_processor@DV?$stream_output_adapter@D@__crt_stdio_output@@V?$standard_base@DV?$stream_output_adapter@D@__crt_stdio_output@@@2@@__crt_stdio_output@@AEBAHHD@Z 000000018007dca0 f i libucrtd:output.obj
 0001:0007ccd0       ?type_case_s_compute_narrow_string_length@?$output_processor@DV?$string_output_adapter@D@__crt_stdio_output@@V?$format_validation_base@DV?$string_output_adapter@D@__crt_stdio_output@@@2@@__crt_stdio_output@@AEBAHHD@Z 000000018007dcd0 f i libucrtd:output.obj
 0001:0007cd00       ?type_case_s_compute_narrow_string_length@?$output_processor@DV?$string_output_adapter@D@__crt_stdio_output@@V?$positional_parameter_base@DV?$string_output_adapter@D@__crt_stdio_output@@@2@@__crt_stdio_output@@AEBAHHD@Z 000000018007dd00 f i libucrtd:output.obj
 0001:0007cd30       ?type_case_s_compute_narrow_string_length@?$output_processor@DV?$string_output_adapter@D@__crt_stdio_output@@V?$standard_base@DV?$string_output_adapter@D@__crt_stdio_output@@@2@@__crt_stdio_output@@AEBAHHD@Z 000000018007dd30 f i libucrtd:output.obj
 0001:0007cd60       ?type_case_s_compute_narrow_string_length@?$output_processor@_WV?$stream_output_adapter@_W@__crt_stdio_output@@V?$format_validation_base@_WV?$stream_output_adapter@_W@__crt_stdio_output@@@2@@__crt_stdio_output@@AEBAHH_W@Z 000000018007dd60 f i libucrtd:output.obj
 0001:0007cdf0       ?type_case_s_compute_narrow_string_length@?$output_processor@_WV?$stream_output_adapter@_W@__crt_stdio_output@@V?$positional_parameter_base@_WV?$stream_output_adapter@_W@__crt_stdio_output@@@2@@__crt_stdio_output@@AEBAHH_W@Z 000000018007ddf0 f i libucrtd:output.obj
 0001:0007ce80       ?type_case_s_compute_narrow_string_length@?$output_processor@_WV?$stream_output_adapter@_W@__crt_stdio_output@@V?$standard_base@_WV?$stream_output_adapter@_W@__crt_stdio_output@@@2@@__crt_stdio_output@@AEBAHH_W@Z 000000018007de80 f i libucrtd:output.obj
 0001:0007cf10       ?type_case_s_compute_narrow_string_length@?$output_processor@_WV?$string_output_adapter@_W@__crt_stdio_output@@V?$format_validation_base@_WV?$string_output_adapter@_W@__crt_stdio_output@@@2@@__crt_stdio_output@@AEBAHH_W@Z 000000018007df10 f i libucrtd:output.obj
 0001:0007cfa0       ?type_case_s_compute_narrow_string_length@?$output_processor@_WV?$string_output_adapter@_W@__crt_stdio_output@@V?$positional_parameter_base@_WV?$string_output_adapter@_W@__crt_stdio_output@@@2@@__crt_stdio_output@@AEBAHH_W@Z 000000018007dfa0 f i libucrtd:output.obj
 0001:0007d030       ?type_case_s_compute_narrow_string_length@?$output_processor@_WV?$string_output_adapter@_W@__crt_stdio_output@@V?$standard_base@_WV?$string_output_adapter@_W@__crt_stdio_output@@@2@@__crt_stdio_output@@AEBAHH_W@Z 000000018007e030 f i libucrtd:output.obj
 0001:0007d0c0       ?type_case_u@?$output_processor@DV?$stream_output_adapter@D@__crt_stdio_output@@V?$format_validation_base@DV?$stream_output_adapter@D@__crt_stdio_output@@@2@@__crt_stdio_output@@AEAA_NXZ 000000018007e0c0 f i libucrtd:output.obj
 0001:0007d0e0       ?type_case_u@?$output_processor@DV?$stream_output_adapter@D@__crt_stdio_output@@V?$positional_parameter_base@DV?$stream_output_adapter@D@__crt_stdio_output@@@2@@__crt_stdio_output@@AEAA_NXZ 000000018007e0e0 f i libucrtd:output.obj
 0001:0007d100       ?type_case_u@?$output_processor@DV?$stream_output_adapter@D@__crt_stdio_output@@V?$standard_base@DV?$stream_output_adapter@D@__crt_stdio_output@@@2@@__crt_stdio_output@@AEAA_NXZ 000000018007e100 f i libucrtd:output.obj
 0001:0007d120       ?type_case_u@?$output_processor@DV?$string_output_adapter@D@__crt_stdio_output@@V?$format_validation_base@DV?$string_output_adapter@D@__crt_stdio_output@@@2@@__crt_stdio_output@@AEAA_NXZ 000000018007e120 f i libucrtd:output.obj
 0001:0007d140       ?type_case_u@?$output_processor@DV?$string_output_adapter@D@__crt_stdio_output@@V?$positional_parameter_base@DV?$string_output_adapter@D@__crt_stdio_output@@@2@@__crt_stdio_output@@AEAA_NXZ 000000018007e140 f i libucrtd:output.obj
 0001:0007d160       ?type_case_u@?$output_processor@DV?$string_output_adapter@D@__crt_stdio_output@@V?$standard_base@DV?$string_output_adapter@D@__crt_stdio_output@@@2@@__crt_stdio_output@@AEAA_NXZ 000000018007e160 f i libucrtd:output.obj
 0001:0007d180       ?type_case_u@?$output_processor@_WV?$stream_output_adapter@_W@__crt_stdio_output@@V?$format_validation_base@_WV?$stream_output_adapter@_W@__crt_stdio_output@@@2@@__crt_stdio_output@@AEAA_NXZ 000000018007e180 f i libucrtd:output.obj
 0001:0007d1a0       ?type_case_u@?$output_processor@_WV?$stream_output_adapter@_W@__crt_stdio_output@@V?$positional_parameter_base@_WV?$stream_output_adapter@_W@__crt_stdio_output@@@2@@__crt_stdio_output@@AEAA_NXZ 000000018007e1a0 f i libucrtd:output.obj
 0001:0007d1c0       ?type_case_u@?$output_processor@_WV?$stream_output_adapter@_W@__crt_stdio_output@@V?$standard_base@_WV?$stream_output_adapter@_W@__crt_stdio_output@@@2@@__crt_stdio_output@@AEAA_NXZ 000000018007e1c0 f i libucrtd:output.obj
 0001:0007d1e0       ?type_case_u@?$output_processor@_WV?$string_output_adapter@_W@__crt_stdio_output@@V?$format_validation_base@_WV?$string_output_adapter@_W@__crt_stdio_output@@@2@@__crt_stdio_output@@AEAA_NXZ 000000018007e1e0 f i libucrtd:output.obj
 0001:0007d200       ?type_case_u@?$output_processor@_WV?$string_output_adapter@_W@__crt_stdio_output@@V?$positional_parameter_base@_WV?$string_output_adapter@_W@__crt_stdio_output@@@2@@__crt_stdio_output@@AEAA_NXZ 000000018007e200 f i libucrtd:output.obj
 0001:0007d220       ?type_case_u@?$output_processor@_WV?$string_output_adapter@_W@__crt_stdio_output@@V?$standard_base@_WV?$string_output_adapter@_W@__crt_stdio_output@@@2@@__crt_stdio_output@@AEAA_NXZ 000000018007e220 f i libucrtd:output.obj
 0001:0007d240       ?type_case_x@?$output_processor@DV?$stream_output_adapter@D@__crt_stdio_output@@V?$format_validation_base@DV?$stream_output_adapter@D@__crt_stdio_output@@@2@@__crt_stdio_output@@AEAA_NXZ 000000018007e240 f i libucrtd:output.obj
 0001:0007d260       ?type_case_x@?$output_processor@DV?$stream_output_adapter@D@__crt_stdio_output@@V?$positional_parameter_base@DV?$stream_output_adapter@D@__crt_stdio_output@@@2@@__crt_stdio_output@@AEAA_NXZ 000000018007e260 f i libucrtd:output.obj
 0001:0007d280       ?type_case_x@?$output_processor@DV?$stream_output_adapter@D@__crt_stdio_output@@V?$standard_base@DV?$stream_output_adapter@D@__crt_stdio_output@@@2@@__crt_stdio_output@@AEAA_NXZ 000000018007e280 f i libucrtd:output.obj
 0001:0007d2a0       ?type_case_x@?$output_processor@DV?$string_output_adapter@D@__crt_stdio_output@@V?$format_validation_base@DV?$string_output_adapter@D@__crt_stdio_output@@@2@@__crt_stdio_output@@AEAA_NXZ 000000018007e2a0 f i libucrtd:output.obj
 0001:0007d2c0       ?type_case_x@?$output_processor@DV?$string_output_adapter@D@__crt_stdio_output@@V?$positional_parameter_base@DV?$string_output_adapter@D@__crt_stdio_output@@@2@@__crt_stdio_output@@AEAA_NXZ 000000018007e2c0 f i libucrtd:output.obj
 0001:0007d2e0       ?type_case_x@?$output_processor@DV?$string_output_adapter@D@__crt_stdio_output@@V?$standard_base@DV?$string_output_adapter@D@__crt_stdio_output@@@2@@__crt_stdio_output@@AEAA_NXZ 000000018007e2e0 f i libucrtd:output.obj
 0001:0007d300       ?type_case_x@?$output_processor@_WV?$stream_output_adapter@_W@__crt_stdio_output@@V?$format_validation_base@_WV?$stream_output_adapter@_W@__crt_stdio_output@@@2@@__crt_stdio_output@@AEAA_NXZ 000000018007e300 f i libucrtd:output.obj
 0001:0007d320       ?type_case_x@?$output_processor@_WV?$stream_output_adapter@_W@__crt_stdio_output@@V?$positional_parameter_base@_WV?$stream_output_adapter@_W@__crt_stdio_output@@@2@@__crt_stdio_output@@AEAA_NXZ 000000018007e320 f i libucrtd:output.obj
 0001:0007d340       ?type_case_x@?$output_processor@_WV?$stream_output_adapter@_W@__crt_stdio_output@@V?$standard_base@_WV?$stream_output_adapter@_W@__crt_stdio_output@@@2@@__crt_stdio_output@@AEAA_NXZ 000000018007e340 f i libucrtd:output.obj
 0001:0007d360       ?type_case_x@?$output_processor@_WV?$string_output_adapter@_W@__crt_stdio_output@@V?$format_validation_base@_WV?$string_output_adapter@_W@__crt_stdio_output@@@2@@__crt_stdio_output@@AEAA_NXZ 000000018007e360 f i libucrtd:output.obj
 0001:0007d380       ?type_case_x@?$output_processor@_WV?$string_output_adapter@_W@__crt_stdio_output@@V?$positional_parameter_base@_WV?$string_output_adapter@_W@__crt_stdio_output@@@2@@__crt_stdio_output@@AEAA_NXZ 000000018007e380 f i libucrtd:output.obj
 0001:0007d3a0       ?type_case_x@?$output_processor@_WV?$string_output_adapter@_W@__crt_stdio_output@@V?$standard_base@_WV?$string_output_adapter@_W@__crt_stdio_output@@@2@@__crt_stdio_output@@AEAA_NXZ 000000018007e3a0 f i libucrtd:output.obj
 0001:0007d3c0       ?unset_flag@?$output_processor@DV?$stream_output_adapter@D@__crt_stdio_output@@V?$format_validation_base@DV?$stream_output_adapter@D@__crt_stdio_output@@@2@@__crt_stdio_output@@AEAAXI@Z 000000018007e3c0 f i libucrtd:output.obj
 0001:0007d3f0       ?unset_flag@?$output_processor@DV?$stream_output_adapter@D@__crt_stdio_output@@V?$positional_parameter_base@DV?$stream_output_adapter@D@__crt_stdio_output@@@2@@__crt_stdio_output@@AEAAXI@Z 000000018007e3f0 f i libucrtd:output.obj
 0001:0007d420       ?unset_flag@?$output_processor@DV?$stream_output_adapter@D@__crt_stdio_output@@V?$standard_base@DV?$stream_output_adapter@D@__crt_stdio_output@@@2@@__crt_stdio_output@@AEAAXI@Z 000000018007e420 f i libucrtd:output.obj
 0001:0007d450       ?unset_flag@?$output_processor@DV?$string_output_adapter@D@__crt_stdio_output@@V?$format_validation_base@DV?$string_output_adapter@D@__crt_stdio_output@@@2@@__crt_stdio_output@@AEAAXI@Z 000000018007e450 f i libucrtd:output.obj
 0001:0007d480       ?unset_flag@?$output_processor@DV?$string_output_adapter@D@__crt_stdio_output@@V?$positional_parameter_base@DV?$string_output_adapter@D@__crt_stdio_output@@@2@@__crt_stdio_output@@AEAAXI@Z 000000018007e480 f i libucrtd:output.obj
 0001:0007d4b0       ?unset_flag@?$output_processor@DV?$string_output_adapter@D@__crt_stdio_output@@V?$standard_base@DV?$string_output_adapter@D@__crt_stdio_output@@@2@@__crt_stdio_output@@AEAAXI@Z 000000018007e4b0 f i libucrtd:output.obj
 0001:0007d4e0       ?unset_flag@?$output_processor@_WV?$stream_output_adapter@_W@__crt_stdio_output@@V?$format_validation_base@_WV?$stream_output_adapter@_W@__crt_stdio_output@@@2@@__crt_stdio_output@@AEAAXI@Z 000000018007e4e0 f i libucrtd:output.obj
 0001:0007d510       ?unset_flag@?$output_processor@_WV?$stream_output_adapter@_W@__crt_stdio_output@@V?$positional_parameter_base@_WV?$stream_output_adapter@_W@__crt_stdio_output@@@2@@__crt_stdio_output@@AEAAXI@Z 000000018007e510 f i libucrtd:output.obj
 0001:0007d540       ?unset_flag@?$output_processor@_WV?$stream_output_adapter@_W@__crt_stdio_output@@V?$standard_base@_WV?$stream_output_adapter@_W@__crt_stdio_output@@@2@@__crt_stdio_output@@AEAAXI@Z 000000018007e540 f i libucrtd:output.obj
 0001:0007d570       ?unset_flag@?$output_processor@_WV?$string_output_adapter@_W@__crt_stdio_output@@V?$format_validation_base@_WV?$string_output_adapter@_W@__crt_stdio_output@@@2@@__crt_stdio_output@@AEAAXI@Z 000000018007e570 f i libucrtd:output.obj
 0001:0007d5a0       ?unset_flag@?$output_processor@_WV?$string_output_adapter@_W@__crt_stdio_output@@V?$positional_parameter_base@_WV?$string_output_adapter@_W@__crt_stdio_output@@@2@@__crt_stdio_output@@AEAAXI@Z 000000018007e5a0 f i libucrtd:output.obj
 0001:0007d5d0       ?unset_flag@?$output_processor@_WV?$string_output_adapter@_W@__crt_stdio_output@@V?$standard_base@_WV?$string_output_adapter@_W@__crt_stdio_output@@@2@@__crt_stdio_output@@AEAAXI@Z 000000018007e5d0 f i libucrtd:output.obj
 0001:0007d600       ?update_field_width@?$positional_parameter_base@DV?$stream_output_adapter@D@__crt_stdio_output@@@__crt_stdio_output@@IEAA_NXZ 000000018007e600 f i libucrtd:output.obj
 0001:0007d7f0       ?update_field_width@?$positional_parameter_base@DV?$string_output_adapter@D@__crt_stdio_output@@@__crt_stdio_output@@IEAA_NXZ 000000018007e7f0 f i libucrtd:output.obj
 0001:0007d9e0       ?update_field_width@?$positional_parameter_base@_WV?$stream_output_adapter@_W@__crt_stdio_output@@@__crt_stdio_output@@IEAA_NXZ 000000018007e9e0 f i libucrtd:output.obj
 0001:0007dbd0       ?update_field_width@?$positional_parameter_base@_WV?$string_output_adapter@_W@__crt_stdio_output@@@__crt_stdio_output@@IEAA_NXZ 000000018007ebd0 f i libucrtd:output.obj
 0001:0007ddc0       ?update_field_width@?$standard_base@DV?$stream_output_adapter@D@__crt_stdio_output@@@__crt_stdio_output@@IEAA_NXZ 000000018007edc0 f i libucrtd:output.obj
 0001:0007ddf0       ?update_field_width@?$standard_base@DV?$string_output_adapter@D@__crt_stdio_output@@@__crt_stdio_output@@IEAA_NXZ 000000018007edf0 f i libucrtd:output.obj
 0001:0007de20       ?update_field_width@?$standard_base@_WV?$stream_output_adapter@_W@__crt_stdio_output@@@__crt_stdio_output@@IEAA_NXZ 000000018007ee20 f i libucrtd:output.obj
 0001:0007de50       ?update_field_width@?$standard_base@_WV?$string_output_adapter@_W@__crt_stdio_output@@@__crt_stdio_output@@IEAA_NXZ 000000018007ee50 f i libucrtd:output.obj
 0001:0007de80       ?update_precision@?$positional_parameter_base@DV?$stream_output_adapter@D@__crt_stdio_output@@@__crt_stdio_output@@IEAA_NXZ 000000018007ee80 f i libucrtd:output.obj
 0001:0007e070       ?update_precision@?$positional_parameter_base@DV?$string_output_adapter@D@__crt_stdio_output@@@__crt_stdio_output@@IEAA_NXZ 000000018007f070 f i libucrtd:output.obj
 0001:0007e260       ?update_precision@?$positional_parameter_base@_WV?$stream_output_adapter@_W@__crt_stdio_output@@@__crt_stdio_output@@IEAA_NXZ 000000018007f260 f i libucrtd:output.obj
 0001:0007e450       ?update_precision@?$positional_parameter_base@_WV?$string_output_adapter@_W@__crt_stdio_output@@@__crt_stdio_output@@IEAA_NXZ 000000018007f450 f i libucrtd:output.obj
 0001:0007e640       ?update_precision@?$standard_base@DV?$stream_output_adapter@D@__crt_stdio_output@@@__crt_stdio_output@@IEAA_NXZ 000000018007f640 f i libucrtd:output.obj
 0001:0007e670       ?update_precision@?$standard_base@DV?$string_output_adapter@D@__crt_stdio_output@@@__crt_stdio_output@@IEAA_NXZ 000000018007f670 f i libucrtd:output.obj
 0001:0007e6a0       ?update_precision@?$standard_base@_WV?$stream_output_adapter@_W@__crt_stdio_output@@@__crt_stdio_output@@IEAA_NXZ 000000018007f6a0 f i libucrtd:output.obj
 0001:0007e6d0       ?update_precision@?$standard_base@_WV?$string_output_adapter@_W@__crt_stdio_output@@@__crt_stdio_output@@IEAA_NXZ 000000018007f6d0 f i libucrtd:output.obj
 0001:0007e700       ?valid@__crt_stdio_stream@@QEBA_NXZ 000000018007f700 f i libucrtd:output.obj
 0001:0007e730       ?validate@?$stream_output_adapter@D@__crt_stdio_output@@QEBA_NXZ 000000018007f730 f i libucrtd:output.obj
 0001:0007e810       ?validate@?$stream_output_adapter@_W@__crt_stdio_output@@QEBA_NXZ 000000018007f810 f i libucrtd:output.obj
 0001:0007e8f0       ?validate@?$string_output_adapter@D@__crt_stdio_output@@QEBA_NXZ 000000018007f8f0 f i libucrtd:output.obj
 0001:0007e9b0       ?validate@?$string_output_adapter@_W@__crt_stdio_output@@QEBA_NXZ 000000018007f9b0 f i libucrtd:output.obj
 0001:0007ea70       ?validate_and_store_parameter_data@?$positional_parameter_base@DV?$stream_output_adapter@D@__crt_stdio_output@@@__crt_stdio_output@@AEAA_NAEAUparameter_data@12@W4parameter_type@12@DW4length_modifier@2@@Z 000000018007fa70 f i libucrtd:output.obj
 0001:0007eb90       ?validate_and_store_parameter_data@?$positional_parameter_base@DV?$string_output_adapter@D@__crt_stdio_output@@@__crt_stdio_output@@AEAA_NAEAUparameter_data@12@W4parameter_type@12@DW4length_modifier@2@@Z 000000018007fb90 f i libucrtd:output.obj
 0001:0007ecb0       ?validate_and_store_parameter_data@?$positional_parameter_base@_WV?$stream_output_adapter@_W@__crt_stdio_output@@@__crt_stdio_output@@AEAA_NAEAUparameter_data@12@W4parameter_type@12@_WW4length_modifier@2@@Z 000000018007fcb0 f i libucrtd:output.obj
 0001:0007edd0       ?validate_and_store_parameter_data@?$positional_parameter_base@_WV?$string_output_adapter@_W@__crt_stdio_output@@@__crt_stdio_output@@AEAA_NAEAUparameter_data@12@W4parameter_type@12@_WW4length_modifier@2@@Z 000000018007fdd0 f i libucrtd:output.obj
 0001:0007eef0       ?validate_and_update_state_at_beginning_of_format_character@?$positional_parameter_base@DV?$stream_output_adapter@D@__crt_stdio_output@@@__crt_stdio_output@@IEAA_NXZ 000000018007fef0 f i libucrtd:output.obj
 0001:0007f1d0       ?validate_and_update_state_at_beginning_of_format_character@?$positional_parameter_base@DV?$string_output_adapter@D@__crt_stdio_output@@@__crt_stdio_output@@IEAA_NXZ 00000001800801d0 f i libucrtd:output.obj
 0001:0007f4b0       ?validate_and_update_state_at_beginning_of_format_character@?$positional_parameter_base@_WV?$stream_output_adapter@_W@__crt_stdio_output@@@__crt_stdio_output@@IEAA_NXZ 00000001800804b0 f i libucrtd:output.obj
 0001:0007f790       ?validate_and_update_state_at_beginning_of_format_character@?$positional_parameter_base@_WV?$string_output_adapter@_W@__crt_stdio_output@@@__crt_stdio_output@@IEAA_NXZ 0000000180080790 f i libucrtd:output.obj
 0001:0007fa70       ?validate_and_update_state_at_beginning_of_format_character@?$standard_base@DV?$stream_output_adapter@D@__crt_stdio_output@@@__crt_stdio_output@@IEAA_NXZ 0000000180080a70 f i libucrtd:output.obj
 0001:0007fa80       ?validate_and_update_state_at_beginning_of_format_character@?$standard_base@DV?$string_output_adapter@D@__crt_stdio_output@@@__crt_stdio_output@@IEAA_NXZ 0000000180080a80 f i libucrtd:output.obj
 0001:0007fa90       ?validate_and_update_state_at_beginning_of_format_character@?$standard_base@_WV?$stream_output_adapter@_W@__crt_stdio_output@@@__crt_stdio_output@@IEAA_NXZ 0000000180080a90 f i libucrtd:output.obj
 0001:0007faa0       ?validate_and_update_state_at_beginning_of_format_character@?$standard_base@_WV?$string_output_adapter@_W@__crt_stdio_output@@@__crt_stdio_output@@IEAA_NXZ 0000000180080aa0 f i libucrtd:output.obj
 0001:0007fab0       ?validate_and_update_state_at_end_of_format_string@?$format_validation_base@DV?$stream_output_adapter@D@__crt_stdio_output@@@__crt_stdio_output@@IEBA_NXZ 0000000180080ab0 f i libucrtd:output.obj
 0001:0007fb70       ?validate_and_update_state_at_end_of_format_string@?$format_validation_base@DV?$string_output_adapter@D@__crt_stdio_output@@@__crt_stdio_output@@IEBA_NXZ 0000000180080b70 f i libucrtd:output.obj
 0001:0007fc30       ?validate_and_update_state_at_end_of_format_string@?$format_validation_base@_WV?$stream_output_adapter@_W@__crt_stdio_output@@@__crt_stdio_output@@IEBA_NXZ 0000000180080c30 f i libucrtd:output.obj
 0001:0007fcf0       ?validate_and_update_state_at_end_of_format_string@?$format_validation_base@_WV?$string_output_adapter@_W@__crt_stdio_output@@@__crt_stdio_output@@IEBA_NXZ 0000000180080cf0 f i libucrtd:output.obj
 0001:0007fdb0       ?validate_and_update_state_at_end_of_format_string@?$positional_parameter_base@DV?$stream_output_adapter@D@__crt_stdio_output@@@__crt_stdio_output@@IEAA_NXZ 0000000180080db0 f i libucrtd:output.obj
 0001:0007ffa0       ?validate_and_update_state_at_end_of_format_string@?$positional_parameter_base@DV?$string_output_adapter@D@__crt_stdio_output@@@__crt_stdio_output@@IEAA_NXZ 0000000180080fa0 f i libucrtd:output.obj
 0001:00080190       ?validate_and_update_state_at_end_of_format_string@?$positional_parameter_base@_WV?$stream_output_adapter@_W@__crt_stdio_output@@@__crt_stdio_output@@IEAA_NXZ 0000000180081190 f i libucrtd:output.obj
 0001:00080380       ?validate_and_update_state_at_end_of_format_string@?$positional_parameter_base@_WV?$string_output_adapter@_W@__crt_stdio_output@@@__crt_stdio_output@@IEAA_NXZ 0000000180081380 f i libucrtd:output.obj
 0001:00080570       ?validate_and_update_state_at_end_of_format_string@?$standard_base@DV?$stream_output_adapter@D@__crt_stdio_output@@@__crt_stdio_output@@IEBA_NXZ 0000000180081570 f i libucrtd:output.obj
 0001:00080580       ?validate_and_update_state_at_end_of_format_string@?$standard_base@DV?$string_output_adapter@D@__crt_stdio_output@@@__crt_stdio_output@@IEBA_NXZ 0000000180081580 f i libucrtd:output.obj
 0001:00080590       ?validate_and_update_state_at_end_of_format_string@?$standard_base@_WV?$stream_output_adapter@_W@__crt_stdio_output@@@__crt_stdio_output@@IEBA_NXZ 0000000180081590 f i libucrtd:output.obj
 0001:000805a0       ?validate_and_update_state_at_end_of_format_string@?$standard_base@_WV?$string_output_adapter@_W@__crt_stdio_output@@@__crt_stdio_output@@IEBA_NXZ 00000001800815a0 f i libucrtd:output.obj
 0001:000805b0       ?validate_state_for_type_case_a@?$positional_parameter_base@DV?$stream_output_adapter@D@__crt_stdio_output@@@__crt_stdio_output@@IEAA_NXZ 00000001800815b0 f i libucrtd:output.obj
 0001:000806f0       ?validate_state_for_type_case_a@?$positional_parameter_base@DV?$string_output_adapter@D@__crt_stdio_output@@@__crt_stdio_output@@IEAA_NXZ 00000001800816f0 f i libucrtd:output.obj
 0001:00080830       ?validate_state_for_type_case_a@?$positional_parameter_base@_WV?$stream_output_adapter@_W@__crt_stdio_output@@@__crt_stdio_output@@IEAA_NXZ 0000000180081830 f i libucrtd:output.obj
 0001:00080970       ?validate_state_for_type_case_a@?$positional_parameter_base@_WV?$string_output_adapter@_W@__crt_stdio_output@@@__crt_stdio_output@@IEAA_NXZ 0000000180081970 f i libucrtd:output.obj
 0001:00080ab0       ?validate_state_for_type_case_a@?$standard_base@DV?$stream_output_adapter@D@__crt_stdio_output@@@__crt_stdio_output@@IEBA_NXZ 0000000180081ab0 f i libucrtd:output.obj
 0001:00080ac0       ?validate_state_for_type_case_a@?$standard_base@DV?$string_output_adapter@D@__crt_stdio_output@@@__crt_stdio_output@@IEBA_NXZ 0000000180081ac0 f i libucrtd:output.obj
 0001:00080ad0       ?validate_state_for_type_case_a@?$standard_base@_WV?$stream_output_adapter@_W@__crt_stdio_output@@@__crt_stdio_output@@IEBA_NXZ 0000000180081ad0 f i libucrtd:output.obj
 0001:00080ae0       ?validate_state_for_type_case_a@?$standard_base@_WV?$string_output_adapter@_W@__crt_stdio_output@@@__crt_stdio_output@@IEBA_NXZ 0000000180081ae0 f i libucrtd:output.obj
 0001:00080af0       ?validate_stream_is_ansi_if_required@?$__acrt_stdio_char_traits@D@@SA_NQEAU_iobuf@@@Z 0000000180081af0 f i libucrtd:output.obj
 0001:00080c80       ?validate_stream_is_ansi_if_required@?$__acrt_stdio_char_traits@_W@@SA_NQEAU_iobuf@@@Z 0000000180081c80 f i libucrtd:output.obj
 0001:00080c90       ?wide_null_string@?$output_processor@DV?$stream_output_adapter@D@__crt_stdio_output@@V?$format_validation_base@DV?$stream_output_adapter@D@__crt_stdio_output@@@2@@__crt_stdio_output@@CAPEA_WXZ 0000000180081c90 f i libucrtd:output.obj
 0001:00080ca0       ?wide_null_string@?$output_processor@DV?$stream_output_adapter@D@__crt_stdio_output@@V?$positional_parameter_base@DV?$stream_output_adapter@D@__crt_stdio_output@@@2@@__crt_stdio_output@@CAPEA_WXZ 0000000180081ca0 f i libucrtd:output.obj
 0001:00080cb0       ?wide_null_string@?$output_processor@DV?$stream_output_adapter@D@__crt_stdio_output@@V?$standard_base@DV?$stream_output_adapter@D@__crt_stdio_output@@@2@@__crt_stdio_output@@CAPEA_WXZ 0000000180081cb0 f i libucrtd:output.obj
 0001:00080cc0       ?wide_null_string@?$output_processor@DV?$string_output_adapter@D@__crt_stdio_output@@V?$format_validation_base@DV?$string_output_adapter@D@__crt_stdio_output@@@2@@__crt_stdio_output@@CAPEA_WXZ 0000000180081cc0 f i libucrtd:output.obj
 0001:00080cd0       ?wide_null_string@?$output_processor@DV?$string_output_adapter@D@__crt_stdio_output@@V?$positional_parameter_base@DV?$string_output_adapter@D@__crt_stdio_output@@@2@@__crt_stdio_output@@CAPEA_WXZ 0000000180081cd0 f i libucrtd:output.obj
 0001:00080ce0       ?wide_null_string@?$output_processor@DV?$string_output_adapter@D@__crt_stdio_output@@V?$standard_base@DV?$string_output_adapter@D@__crt_stdio_output@@@2@@__crt_stdio_output@@CAPEA_WXZ 0000000180081ce0 f i libucrtd:output.obj
 0001:00080cf0       ?wide_null_string@?$output_processor@_WV?$stream_output_adapter@_W@__crt_stdio_output@@V?$format_validation_base@_WV?$stream_output_adapter@_W@__crt_stdio_output@@@2@@__crt_stdio_output@@CAPEA_WXZ 0000000180081cf0 f i libucrtd:output.obj
 0001:00080d00       ?wide_null_string@?$output_processor@_WV?$stream_output_adapter@_W@__crt_stdio_output@@V?$positional_parameter_base@_WV?$stream_output_adapter@_W@__crt_stdio_output@@@2@@__crt_stdio_output@@CAPEA_WXZ 0000000180081d00 f i libucrtd:output.obj
 0001:00080d10       ?wide_null_string@?$output_processor@_WV?$stream_output_adapter@_W@__crt_stdio_output@@V?$standard_base@_WV?$stream_output_adapter@_W@__crt_stdio_output@@@2@@__crt_stdio_output@@CAPEA_WXZ 0000000180081d10 f i libucrtd:output.obj
 0001:00080d20       ?wide_null_string@?$output_processor@_WV?$string_output_adapter@_W@__crt_stdio_output@@V?$format_validation_base@_WV?$string_output_adapter@_W@__crt_stdio_output@@@2@@__crt_stdio_output@@CAPEA_WXZ 0000000180081d20 f i libucrtd:output.obj
 0001:00080d30       ?wide_null_string@?$output_processor@_WV?$string_output_adapter@_W@__crt_stdio_output@@V?$positional_parameter_base@_WV?$string_output_adapter@_W@__crt_stdio_output@@@2@@__crt_stdio_output@@CAPEA_WXZ 0000000180081d30 f i libucrtd:output.obj
 0001:00080d40       ?wide_null_string@?$output_processor@_WV?$string_output_adapter@_W@__crt_stdio_output@@V?$standard_base@_WV?$string_output_adapter@_W@__crt_stdio_output@@@2@@__crt_stdio_output@@CAPEA_WXZ 0000000180081d40 f i libucrtd:output.obj
 0001:00080d50       ?write_character@?$output_adapter_common@DV?$stream_output_adapter@D@__crt_stdio_output@@@__crt_stdio_output@@QEBAXDQEAH@Z 0000000180081d50 f i libucrtd:output.obj
 0001:00080da0       ?write_character@?$output_adapter_common@_WV?$stream_output_adapter@_W@__crt_stdio_output@@@__crt_stdio_output@@QEBAX_WQEAH@Z 0000000180081da0 f i libucrtd:output.obj
 0001:00080df0       ?write_character@?$string_output_adapter@D@__crt_stdio_output@@QEBA_NDQEAH@Z 0000000180081df0 f i libucrtd:output.obj
 0001:00080eb0       ?write_character@?$string_output_adapter@_W@__crt_stdio_output@@QEBA_N_WQEAH@Z 0000000180081eb0 f i libucrtd:output.obj
 0001:00080f70       ?write_character_without_count_update@?$stream_output_adapter@D@__crt_stdio_output@@QEBA_ND@Z 0000000180081f70 f i libucrtd:output.obj
 0001:00080ff0       ?write_character_without_count_update@?$stream_output_adapter@_W@__crt_stdio_output@@QEBA_N_W@Z 0000000180081ff0 f i libucrtd:output.obj
 0001:00081080       ?write_stored_string_tchar@?$output_processor@DV?$stream_output_adapter@D@__crt_stdio_output@@V?$format_validation_base@DV?$stream_output_adapter@D@__crt_stdio_output@@@2@@__crt_stdio_output@@AEAA_ND@Z 0000000180082080 f i libucrtd:output.obj
 0001:00081240       ?write_stored_string_tchar@?$output_processor@DV?$stream_output_adapter@D@__crt_stdio_output@@V?$positional_parameter_base@DV?$stream_output_adapter@D@__crt_stdio_output@@@2@@__crt_stdio_output@@AEAA_ND@Z 0000000180082240 f i libucrtd:output.obj
 0001:00081400       ?write_stored_string_tchar@?$output_processor@DV?$stream_output_adapter@D@__crt_stdio_output@@V?$standard_base@DV?$stream_output_adapter@D@__crt_stdio_output@@@2@@__crt_stdio_output@@AEAA_ND@Z 0000000180082400 f i libucrtd:output.obj
 0001:000815c0       ?write_stored_string_tchar@?$output_processor@DV?$string_output_adapter@D@__crt_stdio_output@@V?$format_validation_base@DV?$string_output_adapter@D@__crt_stdio_output@@@2@@__crt_stdio_output@@AEAA_ND@Z 00000001800825c0 f i libucrtd:output.obj
 0001:00081780       ?write_stored_string_tchar@?$output_processor@DV?$string_output_adapter@D@__crt_stdio_output@@V?$positional_parameter_base@DV?$string_output_adapter@D@__crt_stdio_output@@@2@@__crt_stdio_output@@AEAA_ND@Z 0000000180082780 f i libucrtd:output.obj
 0001:00081940       ?write_stored_string_tchar@?$output_processor@DV?$string_output_adapter@D@__crt_stdio_output@@V?$standard_base@DV?$string_output_adapter@D@__crt_stdio_output@@@2@@__crt_stdio_output@@AEAA_ND@Z 0000000180082940 f i libucrtd:output.obj
 0001:00081b00       ?write_stored_string_tchar@?$output_processor@_WV?$stream_output_adapter@_W@__crt_stdio_output@@V?$format_validation_base@_WV?$stream_output_adapter@_W@__crt_stdio_output@@@2@@__crt_stdio_output@@AEAA_N_W@Z 0000000180082b00 f i libucrtd:output.obj
 0001:00081c50       ?write_stored_string_tchar@?$output_processor@_WV?$stream_output_adapter@_W@__crt_stdio_output@@V?$positional_parameter_base@_WV?$stream_output_adapter@_W@__crt_stdio_output@@@2@@__crt_stdio_output@@AEAA_N_W@Z 0000000180082c50 f i libucrtd:output.obj
 0001:00081da0       ?write_stored_string_tchar@?$output_processor@_WV?$stream_output_adapter@_W@__crt_stdio_output@@V?$standard_base@_WV?$stream_output_adapter@_W@__crt_stdio_output@@@2@@__crt_stdio_output@@AEAA_N_W@Z 0000000180082da0 f i libucrtd:output.obj
 0001:00081ef0       ?write_stored_string_tchar@?$output_processor@_WV?$string_output_adapter@_W@__crt_stdio_output@@V?$format_validation_base@_WV?$string_output_adapter@_W@__crt_stdio_output@@@2@@__crt_stdio_output@@AEAA_N_W@Z 0000000180082ef0 f i libucrtd:output.obj
 0001:00082040       ?write_stored_string_tchar@?$output_processor@_WV?$string_output_adapter@_W@__crt_stdio_output@@V?$positional_parameter_base@_WV?$string_output_adapter@_W@__crt_stdio_output@@@2@@__crt_stdio_output@@AEAA_N_W@Z 0000000180083040 f i libucrtd:output.obj
 0001:00082190       ?write_stored_string_tchar@?$output_processor@_WV?$string_output_adapter@_W@__crt_stdio_output@@V?$standard_base@_WV?$string_output_adapter@_W@__crt_stdio_output@@@2@@__crt_stdio_output@@AEAA_N_W@Z 0000000180083190 f i libucrtd:output.obj
 0001:000822e0       ?write_string@?$stream_output_adapter@D@__crt_stdio_output@@QEBAXQEBDHQEAHAEAV__crt_deferred_errno_cache@@@Z 00000001800832e0 f i libucrtd:output.obj
 0001:00082360       ?write_string@?$stream_output_adapter@_W@__crt_stdio_output@@QEBAXQEB_WHQEAHAEAV__crt_deferred_errno_cache@@@Z 0000000180083360 f i libucrtd:output.obj
 0001:000823e0       ?write_string@?$string_output_adapter@D@__crt_stdio_output@@QEBAXQEBDHQEAHAEAV__crt_deferred_errno_cache@@@Z 00000001800833e0 f i libucrtd:output.obj
 0001:00082550       ?write_string@?$string_output_adapter@_W@__crt_stdio_output@@QEBAXQEB_WHQEAHAEAV__crt_deferred_errno_cache@@@Z 0000000180083550 f i libucrtd:output.obj
 0001:000826c0       ?write_string_impl@?$output_adapter_common@DV?$stream_output_adapter@D@__crt_stdio_output@@@__crt_stdio_output@@IEBAXQEBDHQEAHAEAV__crt_deferred_errno_cache@@@Z 00000001800836c0 f i libucrtd:output.obj
 0001:000827a0       ?write_string_impl@?$output_adapter_common@_WV?$stream_output_adapter@_W@__crt_stdio_output@@@__crt_stdio_output@@IEBAXQEB_WHQEAHAEAV__crt_deferred_errno_cache@@@Z 00000001800837a0 f i libucrtd:output.obj
 0001:00082880       __acrt_disable_global_locale_sync 0000000180083880 f i libucrtd:output.obj
 0001:000828b0       __acrt_enable_global_locale_sync 00000001800838b0 f i libucrtd:output.obj
 0001:000828e0       __acrt_isleadbyte_l_noupdate 00000001800838e0 f i libucrtd:output.obj
 0001:00082910       __acrt_locale_changed      0000000180083910 f i libucrtd:output.obj
 0001:00082940       __acrt_locale_get_ctype_array_value 0000000180083940 f i libucrtd:output.obj
 0001:00082980       __stdio_common_vfprintf    0000000180083980 f   libucrtd:output.obj
 0001:000829c0       __stdio_common_vfprintf_p  00000001800839c0 f   libucrtd:output.obj
 0001:00082a00       __stdio_common_vfprintf_s  0000000180083a00 f   libucrtd:output.obj
 0001:00082a40       __stdio_common_vfwprintf   0000000180083a40 f   libucrtd:output.obj
 0001:00082a80       __stdio_common_vfwprintf_p 0000000180083a80 f   libucrtd:output.obj
 0001:00082ac0       __stdio_common_vfwprintf_s 0000000180083ac0 f   libucrtd:output.obj
 0001:00082b00       __stdio_common_vsnprintf_s 0000000180083b00 f   libucrtd:output.obj
 0001:00082b60       __stdio_common_vsnwprintf_s 0000000180083b60 f   libucrtd:output.obj
 0001:00082bc0       __stdio_common_vsprintf    0000000180083bc0 f   libucrtd:output.obj
 0001:00082c10       __stdio_common_vsprintf_p  0000000180083c10 f   libucrtd:output.obj
 0001:00082c60       __stdio_common_vsprintf_s  0000000180083c60 f   libucrtd:output.obj
 0001:00082cb0       __stdio_common_vswprintf   0000000180083cb0 f   libucrtd:output.obj
 0001:00082d00       __stdio_common_vswprintf_p 0000000180083d00 f   libucrtd:output.obj
 0001:00082d50       __stdio_common_vswprintf_s 0000000180083d50 f   libucrtd:output.obj
 0001:00082da0       _ctype_fast_check_internal 0000000180083da0 f i libucrtd:output.obj
 0001:00082dd0       _isdigit_fast_internal     0000000180083dd0 f i libucrtd:output.obj
 0001:00082e00       _tolower_fast_internal     0000000180083e00 f i libucrtd:output.obj
 0001:00082e30       free                       0000000180083e30 f   libucrtd:free.obj
 0001:00082e60       malloc                     0000000180083e60 f   libucrtd:malloc.obj
 0001:00082e90       ??$?RU?$__crt_report_hook_node@D@@@__crt_internal_free_policy@@QEBAXQEBU?$__crt_report_hook_node@D@@@Z 0000000180083e90 f i libucrtd:dbgrpt.obj
 0001:00082ec0       ??$?RU?$__crt_report_hook_node@_W@@@__crt_internal_free_policy@@QEBAXQEBU?$__crt_report_hook_node@_W@@@Z 0000000180083ec0 f i libucrtd:dbgrpt.obj
 0001:00084100       ??$get_module_file_name@AEAPEAUHINSTANCE__@@AEAY0BAF@DK@?$__crt_char_traits@D@@SAKAEAPEAUHINSTANCE__@@AEAY0BAF@D$$QEAK@Z 0000000180085100 f i libucrtd:dbgrpt.obj
 0001:00084140       ??$get_module_file_name@AEAPEAUHINSTANCE__@@AEAY0BAF@_WK@?$__crt_char_traits@_W@@SAKAEAPEAUHINSTANCE__@@AEAY0BAF@_W$$QEAK@Z 0000000180085140 f i libucrtd:dbgrpt.obj
 0001:00084180       ??$tcscpy_s@AEAY0BAF@D_KPEBD@?$__crt_char_traits@D@@SAHAEAY0BAF@D$$QEA_K$$QEAPEBD@Z 0000000180085180 f i libucrtd:dbgrpt.obj
 0001:000841c0       ??$tcscpy_s@AEAY0BAF@_W_KPEB_W@?$__crt_char_traits@_W@@SAHAEAY0BAF@_W$$QEA_K$$QEAPEB_W@Z 00000001800851c0 f i libucrtd:dbgrpt.obj
 0001:00084200       ??$tcslen@AEAY0BAF@D@?$__crt_char_traits@D@@SA_KAEAY0BAF@D@Z 0000000180085200 f i libucrtd:dbgrpt.obj
 0001:00084220       ??$tcslen@AEAY0BAF@_W@?$__crt_char_traits@_W@@SA_KAEAY0BAF@_W@Z 0000000180085220 f i libucrtd:dbgrpt.obj
 0001:00084240       ??$tcslen@AEBQEBD@?$__crt_char_traits@D@@SA_KAEBQEBD@Z 0000000180085240 f i libucrtd:dbgrpt.obj
 0001:00084260       ??$tcslen@AEBQEB_W@?$__crt_char_traits@_W@@SA_KAEBQEB_W@Z 0000000180085260 f i libucrtd:dbgrpt.obj
 0001:00084360       ??0?$__crt_unique_heap_ptr@U?$__crt_report_hook_node@D@@U__crt_internal_free_policy@@@@QEAA@QEAU?$__crt_report_hook_node@D@@@Z 0000000180085360 f i libucrtd:dbgrpt.obj
 0001:00084380       ??0?$__crt_unique_heap_ptr@U?$__crt_report_hook_node@_W@@U__crt_internal_free_policy@@@@QEAA@QEAU?$__crt_report_hook_node@_W@@@Z 0000000180085380 f i libucrtd:dbgrpt.obj
 0001:000843a0       ??1?$__crt_unique_heap_ptr@U?$__crt_report_hook_node@D@@U__crt_internal_free_policy@@@@QEAA@XZ 00000001800853a0 f i libucrtd:dbgrpt.obj
 0001:000843c0       ??1?$__crt_unique_heap_ptr@U?$__crt_report_hook_node@_W@@U__crt_internal_free_policy@@@@QEAA@XZ 00000001800853c0 f i libucrtd:dbgrpt.obj
 0001:000843e0       ??B?$__crt_unique_heap_ptr@U?$__crt_report_hook_node@D@@U__crt_internal_free_policy@@@@QEBA_NXZ 00000001800853e0 f i libucrtd:dbgrpt.obj
 0001:00084400       ??B?$__crt_unique_heap_ptr@U?$__crt_report_hook_node@_W@@U__crt_internal_free_policy@@@@QEBA_NXZ 0000000180085400 f i libucrtd:dbgrpt.obj
 0001:00084ae0       ?detach@?$__crt_unique_heap_ptr@U?$__crt_report_hook_node@D@@U__crt_internal_free_policy@@@@QEAAPEAU?$__crt_report_hook_node@D@@XZ 0000000180085ae0 f i libucrtd:dbgrpt.obj
 0001:00084b10       ?detach@?$__crt_unique_heap_ptr@U?$__crt_report_hook_node@_W@@U__crt_internal_free_policy@@@@QEAAPEAU?$__crt_report_hook_node@_W@@XZ 0000000180085b10 f i libucrtd:dbgrpt.obj
 0001:00084b40       ?get@?$__crt_unique_heap_ptr@U?$__crt_report_hook_node@D@@U__crt_internal_free_policy@@@@QEBAPEAU?$__crt_report_hook_node@D@@XZ 0000000180085b40 f i libucrtd:dbgrpt.obj
 0001:00084b50       ?get@?$__crt_unique_heap_ptr@U?$__crt_report_hook_node@_W@@U__crt_internal_free_policy@@@@QEBAPEAU?$__crt_report_hook_node@_W@@XZ 0000000180085b50 f i libucrtd:dbgrpt.obj
 0001:00084bc0       ?is_valid@?$__crt_unique_heap_ptr@U?$__crt_report_hook_node@D@@U__crt_internal_free_policy@@@@QEBA_NXZ 0000000180085bc0 f i libucrtd:dbgrpt.obj
 0001:00084bf0       ?is_valid@?$__crt_unique_heap_ptr@U?$__crt_report_hook_node@_W@@U__crt_internal_free_policy@@@@QEBA_NXZ 0000000180085bf0 f i libucrtd:dbgrpt.obj
 0001:00084c20       ?release@?$__crt_unique_heap_ptr@U?$__crt_report_hook_node@D@@U__crt_internal_free_policy@@@@QEAAXXZ 0000000180085c20 f i libucrtd:dbgrpt.obj
 0001:00084c50       ?release@?$__crt_unique_heap_ptr@U?$__crt_report_hook_node@_W@@U__crt_internal_free_policy@@@@QEAAXXZ 0000000180085c50 f i libucrtd:dbgrpt.obj
 0001:00084c80       _CrtDbgReport              0000000180085c80 f   libucrtd:dbgrpt.obj
 0001:00084d00       _CrtDbgReportW             0000000180085d00 f   libucrtd:dbgrpt.obj
 0001:00084d80       _CrtSetReportHook2         0000000180085d80 f   libucrtd:dbgrpt.obj
 0001:00084da0       _CrtSetReportHookW2        0000000180085da0 f   libucrtd:dbgrpt.obj
 0001:00084dc0       __acrt_MessageWindowA      0000000180085dc0 f   libucrtd:dbgrpt.obj
 0001:00084e10       __acrt_MessageWindowW      0000000180085e10 f   libucrtd:dbgrpt.obj
 0001:00084e60       _invoke_watson_if_error    0000000180085e60 f i libucrtd:dbgrpt.obj
 0001:00084eb0       _invoke_watson_if_oneof    0000000180085eb0 f i libucrtd:dbgrpt.obj
 0001:00084f10       _snwprintf_s               0000000180085f10 f i libucrtd:dbgrpt.obj
 0001:00084f80       _vsnwprintf_s_l            0000000180085f80 f i libucrtd:dbgrpt.obj
 0001:000854e0       wcscpy_s                   00000001800864e0 f   libucrtd:wcscpy_s.obj
 0001:00086870       ??1?$__crt_simd_cleanup_guard@$00@@QEAA@XZ 0000000180087870 f i libucrtd:strnlen.obj
 0001:00086880       ??1?$__crt_simd_cleanup_guard@$0A@@@QEAA@XZ 0000000180087880 f i libucrtd:strnlen.obj
 0001:00086890       ?compare_equals@?$__crt_simd_traits@$00E@@SA?AT__m256i@@T2@0@Z 0000000180087890 f i libucrtd:strnlen.obj
 0001:000868d0       ?compare_equals@?$__crt_simd_traits@$00G@@SA?AT__m256i@@T2@0@Z 00000001800878d0 f i libucrtd:strnlen.obj
 0001:00086910       ?compare_equals@?$__crt_simd_traits@$0A@E@@SA?AT__m128i@@T2@0@Z 0000000180087910 f i libucrtd:strnlen.obj
 0001:00086940       ?compare_equals@?$__crt_simd_traits@$0A@G@@SA?AT__m128i@@T2@0@Z 0000000180087940 f i libucrtd:strnlen.obj
 0001:00086970       ?compute_byte_mask@?$__crt_simd_pack_traits@$00@@SAHT__m256i@@@Z 0000000180087970 f i libucrtd:strnlen.obj
 0001:00086990       ?compute_byte_mask@?$__crt_simd_pack_traits@$0A@@@SAHT__m128i@@@Z 0000000180087990 f i libucrtd:strnlen.obj
 0001:000869b0       ?get_zero_pack@?$__crt_simd_pack_traits@$00@@SA?AT__m256i@@XZ 00000001800879b0 f i libucrtd:strnlen.obj
 0001:000869e0       ?get_zero_pack@?$__crt_simd_pack_traits@$0A@@@SA?AT__m128i@@XZ 00000001800879e0 f i libucrtd:strnlen.obj
 0001:00086a00       strnlen                    0000000180087a00 f   libucrtd:strnlen.obj
 0001:00086a30       wcslen                     0000000180087a30 f   libucrtd:strnlen.obj
 0001:00086a50       wcsnlen                    0000000180087a50 f   libucrtd:strnlen.obj
 0001:00086a80       ??$__crt_fast_decode_pointer@P6AXPEB_W00I_K@Z@@YAP6AXPEB_W00I_K@ZQ6AX000I1@Z@Z 0000000180087a80 f i libucrtd:invalid_parameter.obj
 0001:00086ac0       ??$__crt_fast_encode_pointer@P6AXPEB_W00I_K@Z@@YAP6AXPEB_W00I_K@ZQ6AX000I1@Z@Z 0000000180087ac0 f i libucrtd:invalid_parameter.obj
 0001:00086b00       ??$initialize_from_array@$$BY00Q6AXPEB_W00I_K@Z@?$dual_state_global@P6AXPEB_W00I_K@Z@__crt_state_management@@QEAAXAEAY00Q6AXPEB_W00I_K@Z@Z 0000000180087b00 f i libucrtd:invalid_parameter.obj
 0001:00086b60       ?__crt_rotate_pointer_value@@YA_K_KH@Z 0000000180087b60 f i libucrtd:invalid_parameter.obj
 0001:00086c20       ?dangerous_get_state_array@?$dual_state_global@P6AXPEB_W00I_K@Z@__crt_state_management@@QEAAPEAP6AXPEB_W00I_K@ZXZ 0000000180087c20 f i libucrtd:invalid_parameter.obj
 0001:00086c30       ?get_current_state_index@__crt_state_management@@YA_KXZ 0000000180087c30 f i libucrtd:invalid_parameter.obj
 0001:00086c40       ?value@?$dual_state_global@P6AXPEB_W00I_K@Z@__crt_state_management@@QEAAAEAP6AXPEB_W00I_K@ZXZ 0000000180087c40 f i libucrtd:invalid_parameter.obj
 0001:00086c60       __acrt_call_reportfault    0000000180087c60 f   libucrtd:invalid_parameter.obj
 0001:00086d90       __acrt_initialize_invalid_parameter_handler 0000000180087d90 f   libucrtd:invalid_parameter.obj
 0001:00086dc0       _get_invalid_parameter_handler 0000000180087dc0 f   libucrtd:invalid_parameter.obj
 0001:00086de0       _get_thread_local_invalid_parameter_handler 0000000180087de0 f   libucrtd:invalid_parameter.obj
 0001:00086e10       _invalid_parameter         0000000180087e10 f   libucrtd:invalid_parameter.obj
 0001:00086f10       _invalid_parameter_noinfo  0000000180087f10 f   libucrtd:invalid_parameter.obj
 0001:00086f40       _invalid_parameter_noinfo_noreturn 0000000180087f40 f   libucrtd:invalid_parameter.obj
 0001:00086f80       _invoke_watson             0000000180087f80 f   libucrtd:invalid_parameter.obj
 0001:00086fe0       _set_invalid_parameter_handler 0000000180087fe0 f   libucrtd:invalid_parameter.obj
 0001:00087030       _set_thread_local_invalid_parameter_handler 0000000180088030 f   libucrtd:invalid_parameter.obj
 0001:00087070       __acrt_errno_from_os_error 0000000180088070 f   libucrtd:errno.obj
 0001:00087100       __acrt_errno_map_os_error  0000000180088100 f   libucrtd:errno.obj
 0001:00087130       __doserrno                 0000000180088130 f   libucrtd:errno.obj
 0001:00087160       _errno                     0000000180088160 f   libucrtd:errno.obj
 0001:00087190       _get_doserrno              0000000180088190 f   libucrtd:errno.obj
 0001:00087250       _get_errno                 0000000180088250 f   libucrtd:errno.obj
 0001:00087310       _set_doserrno              0000000180088310 f   libucrtd:errno.obj
 0001:00087350       _set_errno                 0000000180088350 f   libucrtd:errno.obj
 0001:00087390       calloc                     0000000180088390 f   libucrtd:calloc.obj
 0001:000873d0       _recalloc                  00000001800883d0 f   libucrtd:recalloc.obj
 0001:00087420       _recalloc_base             0000000180088420 f   libucrtd:recalloc.obj
 0001:000874fc       _resetstkoflw              00000001800884fc f   libucrtd:resetstk.obj
 0001:00087cb0       wcscat_s                   0000000180088cb0 f   libucrtd:wcscat_s.obj
 0001:00088380       wcsncpy_s                  0000000180089380 f   libucrtd:wcsncpy_s.obj
 0001:00088500       __isascii                  0000000180089500 f   libucrtd:_ctype.obj
 0001:00088530       __iscsym                   0000000180089530 f   libucrtd:_ctype.obj
 0001:00088570       __iscsymf                  0000000180089570 f   libucrtd:_ctype.obj
 0001:000885b0       __toascii                  00000001800895b0 f   libucrtd:_ctype.obj
 0001:000885c0       _isalnum_l                 00000001800895c0 f   libucrtd:_ctype.obj
 0001:000885f0       _isalpha_l                 00000001800895f0 f   libucrtd:_ctype.obj
 0001:00088620       _isblank_l                 0000000180089620 f   libucrtd:_ctype.obj
 0001:00088650       _iscntrl_l                 0000000180089650 f   libucrtd:_ctype.obj
 0001:00088680       _iscsym_l                  0000000180089680 f   libucrtd:_ctype.obj
 0001:000886d0       _iscsymf_l                 00000001800896d0 f   libucrtd:_ctype.obj
 0001:00088720       _isdigit_l                 0000000180089720 f   libucrtd:_ctype.obj
 0001:00088750       _isgraph_l                 0000000180089750 f   libucrtd:_ctype.obj
 0001:00088780       _islower_l                 0000000180089780 f   libucrtd:_ctype.obj
 0001:000887b0       _isprint_l                 00000001800897b0 f   libucrtd:_ctype.obj
 0001:000887e0       _ispunct_l                 00000001800897e0 f   libucrtd:_ctype.obj
 0001:00088810       _isspace_l                 0000000180089810 f   libucrtd:_ctype.obj
 0001:00088840       _isupper_l                 0000000180089840 f   libucrtd:_ctype.obj
 0001:00088870       _isxdigit_l                0000000180089870 f   libucrtd:_ctype.obj
 0001:000888a0       isalnum                    00000001800898a0 f   libucrtd:_ctype.obj
 0001:000888c0       isalpha                    00000001800898c0 f   libucrtd:_ctype.obj
 0001:000888e0       isblank                    00000001800898e0 f   libucrtd:_ctype.obj
 0001:00088910       iscntrl                    0000000180089910 f   libucrtd:_ctype.obj
 0001:00088930       isdigit                    0000000180089930 f   libucrtd:_ctype.obj
 0001:00088950       isgraph                    0000000180089950 f   libucrtd:_ctype.obj
 0001:00088970       islower                    0000000180089970 f   libucrtd:_ctype.obj
 0001:00088990       isprint                    0000000180089990 f   libucrtd:_ctype.obj
 0001:000889b0       ispunct                    00000001800899b0 f   libucrtd:_ctype.obj
 0001:000889d0       isspace                    00000001800899d0 f   libucrtd:_ctype.obj
 0001:000889f0       isupper                    00000001800899f0 f   libucrtd:_ctype.obj
 0001:00088a10       isxdigit                   0000000180089a10 f   libucrtd:_ctype.obj
 0001:00088a30       wcscat                     0000000180089a30 f   libucrtd:wcscat.obj
 0001:00088ab0       wcscpy                     0000000180089ab0 f   libucrtd:wcscpy.obj
 0001:00089260       ??$open_file@AEBQEBDAEBQEBDAEBHPEAU_iobuf@@@?$__crt_char_traits@D@@SAPEAU_iobuf@@AEBQEBD0AEBH$$QEAPEAU1@@Z 000000018008a260 f i libucrtd:fopen.obj
 0001:000892b0       ??$open_file@AEBQEB_WAEBQEB_WAEBHPEAU_iobuf@@@?$__crt_char_traits@_W@@SAPEAU_iobuf@@AEBQEB_W0AEBH$$QEAPEAU1@@Z 000000018008a2b0 f i libucrtd:fopen.obj
 0001:00089300       ?unlock@__crt_stdio_stream@@QEBAXXZ 000000018008a300 f i libucrtd:fopen.obj
 0001:00089320       _fsopen                    000000018008a320 f   libucrtd:fopen.obj
 0001:00089350       _wfopen                    000000018008a350 f   libucrtd:fopen.obj
 0001:00089380       _wfopen_s                  000000018008a380 f   libucrtd:fopen.obj
 0001:000893b0       _wfsopen                   000000018008a3b0 f   libucrtd:fopen.obj
 0001:000893e0       fopen                      000000018008a3e0 f   libucrtd:fopen.obj
 0001:00089410       fopen_s                    000000018008a410 f   libucrtd:fopen.obj
 0001:00089440       ?is_in_use@__crt_stdio_stream@@QEBA_NXZ 000000018008a440 f i libucrtd:fclose.obj
 0001:00089480       _fclose_nolock             000000018008a480 f   libucrtd:fclose.obj
 0001:00089610       fclose                     000000018008a610 f   libucrtd:fclose.obj
 0001:00089750       _fputc_nolock              000000018008a750 f   libucrtd:fputc.obj
 0001:00089800       _fputchar                  000000018008a800 f   libucrtd:fputc.obj
 0001:00089830       _putc_nolock               000000018008a830 f   libucrtd:fputc.obj
 0001:00089850       fputc                      000000018008a850 f   libucrtd:fputc.obj
 0001:00089af0       putc                       000000018008aaf0 f   libucrtd:fputc.obj
 0001:00089b10       putchar                    000000018008ab10 f   libucrtd:fputc.obj
 0001:00089ba0       _seh_filter_dll            000000018008aba0 f   libucrtd:exception_filter.obj
 0001:00089bd0       _seh_filter_exe            000000018008abd0 f   libucrtd:exception_filter.obj
 0001:00089e70       ??$?B$$A6AXPEAXK0@Z@__crt_fast_encoded_nullptr_t@@QEBAP6AXPEAXK0@ZXZ 000000018008ae70 f i libucrtd:exit.obj
 0001:00089f20       ??$__crt_fast_decode_pointer@P6AXPEAXK0@Z@@YAP6AXPEAXK0@ZQ6AX0K0@Z@Z 000000018008af20 f i libucrtd:exit.obj
 0001:00089f60       ??$__crt_fast_encode_pointer@P6AXPEAXK0@Z@@YAP6AXPEAXK0@ZQ6AX0K0@Z@Z 000000018008af60 f i libucrtd:exit.obj
 0001:00089fa0       ??$__crt_get_proc_address@P6AXI@Z@@YAP6AXI@ZQEAUHINSTANCE__@@QEBD@Z 000000018008afa0 f i libucrtd:exit.obj
 0001:0008a060       ??0?$__crt_unique_handle_t@U__crt_hmodule_traits@@@@QEAA@QEAUHINSTANCE__@@@Z 000000018008b060 f i libucrtd:exit.obj
 0001:0008a080       ??1?$__crt_unique_handle_t@U__crt_hmodule_traits@@@@QEAA@XZ 000000018008b080 f i libucrtd:exit.obj
 0001:0008a1e0       ?__acrt_select_exit_lock@@YA?AW4__acrt_lock_id@@XZ 000000018008b1e0 f i libucrtd:exit.obj
 0001:0008a1f0       ?__crt_fast_encode_pointer@@YA?AU__crt_fast_encoded_nullptr_t@@$$T@Z 000000018008b1f0 f i libucrtd:exit.obj
 0001:0008a230       ?close@?$__crt_unique_handle_t@U__crt_hmodule_traits@@@@QEAAXXZ 000000018008b230 f i libucrtd:exit.obj
 0001:0008a270       ?close@__crt_hmodule_traits@@SA_NPEAUHINSTANCE__@@@Z 000000018008b270 f i libucrtd:exit.obj
 0001:0008a380       ?get@?$__crt_unique_handle_t@U__crt_hmodule_traits@@@@QEBAPEAUHINSTANCE__@@XZ 000000018008b380 f i libucrtd:exit.obj
 0001:0008a390       ?get_address_of@?$__crt_unique_handle_t@U__crt_hmodule_traits@@@@QEAAPEAPEAUHINSTANCE__@@XZ 000000018008b390 f i libucrtd:exit.obj
 0001:0008a3a0       ?get_invalid_value@__crt_hmodule_traits@@SAPEAUHINSTANCE__@@XZ 000000018008b3a0 f i libucrtd:exit.obj
 0001:0008a560       _Exit                      000000018008b560 f   libucrtd:exit.obj
 0001:0008a580       __acrt_initialize_thread_local_exit_callback 000000018008b580 f   libucrtd:exit.obj
 0001:0008a5a0       _c_exit                    000000018008b5a0 f   libucrtd:exit.obj
 0001:0008a5c0       _cexit                     000000018008b5c0 f   libucrtd:exit.obj
 0001:0008a5e0       _exit                      000000018008b5e0 f   libucrtd:exit.obj
 0001:0008a600       _is_c_termination_complete 000000018008b600 f   libucrtd:exit.obj
 0001:0008a620       _register_thread_local_exe_atexit_callback 000000018008b620 f   libucrtd:exit.obj
 0001:0008a670       exit                       000000018008b670 f   libucrtd:exit.obj
 0001:0008a690       quick_exit                 000000018008b690 f   libucrtd:exit.obj
 0001:0008a6b0       ??$?RE@__crt_internal_free_policy@@QEBAXQEBE@Z 000000018008b6b0 f i libucrtd:argv_parsing.obj
 0001:0008a6e0       ??$?RPEAD@__crt_internal_free_policy@@QEBAXQEBQEAD@Z 000000018008b6e0 f i libucrtd:argv_parsing.obj
 0001:0008a710       ??$?RPEA_W@__crt_internal_free_policy@@QEBAXQEBQEA_W@Z 000000018008b710 f i libucrtd:argv_parsing.obj
 0001:0008ae60       ??$get_module_file_name@$$TAEAY0BAF@DH@?$__crt_char_traits@D@@SAK$$QEA$$TAEAY0BAF@D$$QEAH@Z 000000018008be60 f i libucrtd:argv_parsing.obj
 0001:0008aea0       ??$get_module_file_name@$$TAEAY0BAF@_WH@?$__crt_char_traits@_W@@SAK$$QEA$$TAEAY0BAF@_W$$QEAH@Z 000000018008bea0 f i libucrtd:argv_parsing.obj
 0001:0008b850       ??$set_program_name@PEAD@?$__crt_char_traits@D@@SAX$$QEAPEAD@Z 000000018008c850 f i libucrtd:argv_parsing.obj
 0001:0008b870       ??$set_program_name@PEA_W@?$__crt_char_traits@_W@@SAX$$QEAPEA_W@Z 000000018008c870 f i libucrtd:argv_parsing.obj
 0001:0008b8d0       ??0?$__crt_unique_heap_ptr@EU__crt_internal_free_policy@@@@QEAA@QEAE@Z 000000018008c8d0 f i libucrtd:argv_parsing.obj
 0001:0008b8f0       ??0?$__crt_unique_heap_ptr@PEADU__crt_internal_free_policy@@@@QEAA@QEAPEAD@Z 000000018008c8f0 f i libucrtd:argv_parsing.obj
 0001:0008b910       ??0?$__crt_unique_heap_ptr@PEA_WU__crt_internal_free_policy@@@@QEAA@QEAPEA_W@Z 000000018008c910 f i libucrtd:argv_parsing.obj
 0001:0008b930       ??1?$__crt_unique_heap_ptr@EU__crt_internal_free_policy@@@@QEAA@XZ 000000018008c930 f i libucrtd:argv_parsing.obj
 0001:0008b950       ??1?$__crt_unique_heap_ptr@PEADU__crt_internal_free_policy@@@@QEAA@XZ 000000018008c950 f i libucrtd:argv_parsing.obj
 0001:0008b970       ??1?$__crt_unique_heap_ptr@PEA_WU__crt_internal_free_policy@@@@QEAA@XZ 000000018008c970 f i libucrtd:argv_parsing.obj
 0001:0008b990       ??B?$__crt_unique_heap_ptr@EU__crt_internal_free_policy@@@@QEBA_NXZ 000000018008c990 f i libucrtd:argv_parsing.obj
 0001:0008ba70       ?detach@?$__crt_unique_heap_ptr@EU__crt_internal_free_policy@@@@QEAAPEAEXZ 000000018008ca70 f i libucrtd:argv_parsing.obj
 0001:0008baa0       ?detach@?$__crt_unique_heap_ptr@PEADU__crt_internal_free_policy@@@@QEAAPEAPEADXZ 000000018008caa0 f i libucrtd:argv_parsing.obj
 0001:0008bad0       ?detach@?$__crt_unique_heap_ptr@PEA_WU__crt_internal_free_policy@@@@QEAAPEAPEA_WXZ 000000018008cad0 f i libucrtd:argv_parsing.obj
 0001:0008bb90       ?get@?$__crt_unique_heap_ptr@EU__crt_internal_free_policy@@@@QEBAPEAEXZ 000000018008cb90 f i libucrtd:argv_parsing.obj
 0001:0008bba0       ?get@?$__crt_unique_heap_ptr@PEADU__crt_internal_free_policy@@@@QEBAPEAPEADXZ 000000018008cba0 f i libucrtd:argv_parsing.obj
 0001:0008bbb0       ?get@?$__crt_unique_heap_ptr@PEA_WU__crt_internal_free_policy@@@@QEBAPEAPEA_WXZ 000000018008cbb0 f i libucrtd:argv_parsing.obj
 0001:0008bbc0       ?get_address_of@?$__crt_unique_heap_ptr@PEADU__crt_internal_free_policy@@@@QEAAPEAPEAPEADXZ 000000018008cbc0 f i libucrtd:argv_parsing.obj
 0001:0008bbd0       ?get_address_of@?$__crt_unique_heap_ptr@PEA_WU__crt_internal_free_policy@@@@QEAAPEAPEAPEA_WXZ 000000018008cbd0 f i libucrtd:argv_parsing.obj
 0001:0008bc20       ?is_valid@?$__crt_unique_heap_ptr@EU__crt_internal_free_policy@@@@QEBA_NXZ 000000018008cc20 f i libucrtd:argv_parsing.obj
 0001:0008bc50       ?release@?$__crt_unique_heap_ptr@EU__crt_internal_free_policy@@@@QEAAXXZ 000000018008cc50 f i libucrtd:argv_parsing.obj
 0001:0008bc80       ?release@?$__crt_unique_heap_ptr@PEADU__crt_internal_free_policy@@@@QEAAXXZ 000000018008cc80 f i libucrtd:argv_parsing.obj
 0001:0008bcb0       ?release@?$__crt_unique_heap_ptr@PEA_WU__crt_internal_free_policy@@@@QEAAXXZ 000000018008ccb0 f i libucrtd:argv_parsing.obj
 0001:0008bd30       __acrt_allocate_buffer_for_argv 000000018008cd30 f   libucrtd:argv_parsing.obj
 0001:0008be50       _configure_narrow_argv     000000018008ce50 f   libucrtd:argv_parsing.obj
 0001:0008be70       _configure_wide_argv       000000018008ce70 f   libucrtd:argv_parsing.obj
 0001:0008be90       _set_pgmptr                000000018008ce90 f i libucrtd:argv_parsing.obj
 0001:0008beb0       _set_wpgmptr               000000018008ceb0 f i libucrtd:argv_parsing.obj
 0001:0008bec4       ??$?R_W@__crt_internal_free_policy@@QEBAXQEB_W@Z 000000018008cec4 f i libucrtd:environment_initialization.obj
 0001:0008c49c       ??$get_environment_from_os@$$V@?$__crt_char_traits@D@@SAPEADXZ 000000018008d49c f i libucrtd:environment_initialization.obj
 0001:0008c4a4       ??$get_environment_from_os@$$V@?$__crt_char_traits@_W@@SAPEA_WXZ 000000018008d4a4 f i libucrtd:environment_initialization.obj
 0001:0008c674       ??$set_variable_in_environment_nolock@PEADH@?$__crt_char_traits@D@@SAH$$QEAPEAD$$QEAH@Z 000000018008d674 f i libucrtd:environment_initialization.obj
 0001:0008c680       ??$set_variable_in_environment_nolock@PEA_WH@?$__crt_char_traits@_W@@SAH$$QEAPEA_W$$QEAH@Z 000000018008d680 f i libucrtd:environment_initialization.obj
 0001:0008c68c       ??$tcscpy_s@PEADAEB_KAEAPEAD@?$__crt_char_traits@D@@SAH$$QEAPEADAEB_KAEAPEAD@Z 000000018008d68c f i libucrtd:environment_initialization.obj
 0001:0008c69c       ??$tcscpy_s@PEA_WAEB_KAEAPEA_W@?$__crt_char_traits@_W@@SAH$$QEAPEA_WAEB_KAEAPEA_W@Z 000000018008d69c f i libucrtd:environment_initialization.obj
 0001:0008c6ac       ??$tcslen@AEAPEAD@?$__crt_char_traits@D@@SA_KAEAPEAD@Z 000000018008d6ac f i libucrtd:environment_initialization.obj
 0001:0008c6c0       ??$tcslen@AEAPEA_W@?$__crt_char_traits@_W@@SA_KAEAPEA_W@Z 000000018008d6c0 f i libucrtd:environment_initialization.obj
 0001:0008c6d4       ??$uninitialize@A6AXAEAPEAPEAD@Z@?$dual_state_global@PEAPEAD@__crt_state_management@@QEAAXA6AXAEAPEAPEAD@Z@Z 000000018008d6d4 f i libucrtd:environment_initialization.obj
 0001:0008c718       ??$uninitialize@A6AXAEAPEAPEA_W@Z@?$dual_state_global@PEAPEA_W@__crt_state_management@@QEAAXA6AXAEAPEAPEA_W@Z@Z 000000018008d718 f i libucrtd:environment_initialization.obj
 0001:0008c794       ??0?$__crt_unique_heap_ptr@_WU__crt_internal_free_policy@@@@QEAA@QEA_W@Z 000000018008d794 f i libucrtd:environment_initialization.obj
 0001:0008c79c       ??1?$__crt_unique_heap_ptr@_WU__crt_internal_free_policy@@@@QEAA@XZ 000000018008d79c f i libucrtd:environment_initialization.obj
 0001:0008c7bc       ??B?$__crt_unique_heap_ptr@PEADU__crt_internal_free_policy@@@@QEBA_NXZ 000000018008d7bc f i libucrtd:environment_initialization.obj
 0001:0008c7c4       ??B?$__crt_unique_heap_ptr@PEA_WU__crt_internal_free_policy@@@@QEBA_NXZ 000000018008d7c4 f i libucrtd:environment_initialization.obj
 0001:0008c7cc       ??B?$__crt_unique_heap_ptr@_WU__crt_internal_free_policy@@@@QEBA_NXZ 000000018008d7cc f i libucrtd:environment_initialization.obj
 0001:0008c7d4       ?__crt_compute_required_transform_buffer_count@@YA_KIQEBD@Z 000000018008d7d4 f i libucrtd:environment_initialization.obj
 0001:0008c7f8       ?__crt_compute_required_transform_buffer_count@@YA_KIQEB_W@Z 000000018008d7f8 f i libucrtd:environment_initialization.obj
 0001:0008c828       ?__crt_transform_string@@YA_KIQEBDQEA_W_K@Z 000000018008d828 f i libucrtd:environment_initialization.obj
 0001:0008c84c       ?__crt_transform_string@@YA_KIQEB_WQEAD_K@Z 000000018008d84c f i libucrtd:environment_initialization.obj
 0001:0008c87c       ?detach@?$__crt_unique_heap_ptr@DU__crt_internal_free_policy@@@@QEAAPEADXZ 000000018008d87c f i libucrtd:environment_initialization.obj
 0001:0008c884       ?detach@?$__crt_unique_heap_ptr@_WU__crt_internal_free_policy@@@@QEAAPEA_WXZ 000000018008d884 f i libucrtd:environment_initialization.obj
 0001:0008c88c       ?get@?$__crt_unique_heap_ptr@_WU__crt_internal_free_policy@@@@QEBAPEA_WXZ 000000018008d88c f i libucrtd:environment_initialization.obj
 0001:0008c8c0       ?initialize@?$dual_state_global@PEAPEAD@__crt_state_management@@QEAAXQEAPEAD@Z 000000018008d8c0 f i libucrtd:environment_initialization.obj
 0001:0008c8e8       ?initialize@?$dual_state_global@PEAPEA_W@__crt_state_management@@QEAAXQEAPEA_W@Z 000000018008d8e8 f i libucrtd:environment_initialization.obj
 0001:0008c910       ?is_valid@?$__crt_unique_heap_ptr@PEADU__crt_internal_free_policy@@@@QEBA_NXZ 000000018008d910 f i libucrtd:environment_initialization.obj
 0001:0008c918       ?is_valid@?$__crt_unique_heap_ptr@PEA_WU__crt_internal_free_policy@@@@QEBA_NXZ 000000018008d918 f i libucrtd:environment_initialization.obj
 0001:0008c920       ?is_valid@?$__crt_unique_heap_ptr@_WU__crt_internal_free_policy@@@@QEBA_NXZ 000000018008d920 f i libucrtd:environment_initialization.obj
 0001:0008c934       ?release@?$__crt_unique_heap_ptr@_WU__crt_internal_free_policy@@@@QEAAXXZ 000000018008d934 f i libucrtd:environment_initialization.obj
 0001:0008c954       ?value@?$dual_state_global@PEAPEAD@__crt_state_management@@QEAAAEAPEAPEADXZ 000000018008d954 f i libucrtd:environment_initialization.obj
 0001:0008c958       ?value@?$dual_state_global@PEAPEA_W@__crt_state_management@@QEAAAEAPEAPEA_WXZ 000000018008d958 f i libucrtd:environment_initialization.obj
 0001:0008c95c       __dcrt_get_or_create_narrow_environment_nolock 000000018008d95c f   libucrtd:environment_initialization.obj
 0001:0008c998       __dcrt_get_or_create_wide_environment_nolock 000000018008d998 f   libucrtd:environment_initialization.obj
 0001:0008c9d4       __dcrt_uninitialize_environments_nolock 000000018008d9d4 f   libucrtd:environment_initialization.obj
 0001:0008ca0c       __p__environ               000000018008da0c f   libucrtd:environment_initialization.obj
 0001:0008ca14       __p__wenviron              000000018008da14 f   libucrtd:environment_initialization.obj
 0001:0008ca1c       _get_initial_narrow_environment 000000018008da1c f   libucrtd:environment_initialization.obj
 0001:0008ca6c       _get_initial_wide_environment 000000018008da6c f   libucrtd:environment_initialization.obj
 0001:0008cabc       _initialize_narrow_environment 000000018008dabc f   libucrtd:environment_initialization.obj
 0001:0008cac4       _initialize_wide_environment 000000018008dac4 f   libucrtd:environment_initialization.obj
 0001:0008cad0       ??$?B$$A6AXXZ@__crt_fast_encoded_nullptr_t@@QEBAP6AXXZXZ 000000018008dad0 f i libucrtd:onexit.obj
 0001:0008caf0       ??$?BP6AXXZ@__crt_fast_encoded_nullptr_t@@QEBAPEAP6AXXZXZ 000000018008daf0 f i libucrtd:onexit.obj
 0001:0008cb10       ??$?RP6AXXZ@__crt_internal_free_policy@@QEBAXQEBQ6AXXZ@Z 000000018008db10 f i libucrtd:onexit.obj
 0001:0008cc80       ??$__crt_fast_decode_pointer@P6AXXZ@@YAP6AXXZQ6AXXZ@Z 000000018008dc80 f i libucrtd:onexit.obj
 0001:0008ccc0       ??$__crt_fast_decode_pointer@PEAP6AXXZ@@YAPEAP6AXXZQEAP6AXXZ@Z 000000018008dcc0 f i libucrtd:onexit.obj
 0001:0008cd00       ??$__crt_fast_encode_pointer@P6AHXZ@@YAP6AHXZQ6AHXZ@Z 000000018008dd00 f i libucrtd:onexit.obj
 0001:0008cd40       ??$__crt_fast_encode_pointer@P6AXXZ@@YAP6AXXZQ6AXXZ@Z 000000018008dd40 f i libucrtd:onexit.obj
 0001:0008cd80       ??$__crt_fast_encode_pointer@PEAP6AXXZ@@YAPEAP6AXXZQEAP6AXXZ@Z 000000018008dd80 f i libucrtd:onexit.obj
 0001:0008ce90       ??0?$__crt_unique_heap_ptr@P6AXXZU__crt_internal_free_policy@@@@QEAA@QEAP6AXXZ@Z 000000018008de90 f i libucrtd:onexit.obj
 0001:0008ceb0       ??1?$__crt_unique_heap_ptr@P6AXXZU__crt_internal_free_policy@@@@QEAA@XZ 000000018008deb0 f i libucrtd:onexit.obj
 0001:0008ced0       ??1scoped_global_state_reset@__crt_state_management@@QEAA@XZ 000000018008ded0 f i libucrtd:onexit.obj
 0001:0008d4a0       ?detach@?$__crt_unique_heap_ptr@P6AXXZU__crt_internal_free_policy@@@@QEAAPEAP6AXXZXZ 000000018008e4a0 f i libucrtd:onexit.obj
 0001:0008d4d0       ?release@?$__crt_unique_heap_ptr@P6AXXZU__crt_internal_free_policy@@@@QEAAXXZ 000000018008e4d0 f i libucrtd:onexit.obj
 0001:0008d500       _crt_at_quick_exit         000000018008e500 f   libucrtd:onexit.obj
 0001:0008d520       _crt_atexit                000000018008e520 f   libucrtd:onexit.obj
 0001:0008d540       _execute_onexit_table      000000018008e540 f   libucrtd:onexit.obj
 0001:0008d580       _initialize_onexit_table   000000018008e580 f   libucrtd:onexit.obj
 0001:0008d600       _register_onexit_function  000000018008e600 f   libucrtd:onexit.obj
 0001:0008d870       ??$?BX@__crt_fast_encoded_nullptr_t@@QEBAPEAXXZ 000000018008e870 f i libucrtd:initialization.obj
 0001:0008d890       ??$__crt_fast_encode_pointer@PEAX@@YAPEAXQEAX@Z 000000018008e890 f i libucrtd:initialization.obj
 0001:0008d980       ?initialize@?$dual_state_global@PEAU__crt_locale_data@@@__crt_state_management@@QEAAXQEAU__crt_locale_data@@@Z 000000018008e980 f i libucrtd:initialization.obj
 0001:0008d9d0       __acrt_initialize          000000018008e9d0 f   libucrtd:initialization.obj
 0001:0008da00       __acrt_thread_attach       000000018008ea00 f   libucrtd:initialization.obj
 0001:0008da20       __acrt_thread_detach       000000018008ea20 f   libucrtd:initialization.obj
 0001:0008da30       __acrt_uninitialize        000000018008ea30 f   libucrtd:initialization.obj
 0001:0008da60       __acrt_uninitialize_critical 000000018008ea60 f   libucrtd:initialization.obj
 0001:0008fa50       _CrtCheckMemory            0000000180090a50 f   libucrtd:debug_heap.obj
 0001:0008fbe0       _CrtDoForAllClientObjects  0000000180090be0 f   libucrtd:debug_heap.obj
 0001:0008fd10       _CrtDumpMemoryLeaks        0000000180090d10 f   libucrtd:debug_heap.obj
 0001:0008fdd0       _CrtGetAllocHook           0000000180090dd0 f   libucrtd:debug_heap.obj
 0001:0008fde0       _CrtGetDumpClient          0000000180090de0 f   libucrtd:debug_heap.obj
 0001:0008fdf0       _CrtIsMemoryBlock          0000000180090df0 f   libucrtd:debug_heap.obj
 0001:0008ff30       _CrtIsValidHeapPointer     0000000180090f30 f   libucrtd:debug_heap.obj
 0001:0008ff70       _CrtIsValidPointer         0000000180090f70 f   libucrtd:debug_heap.obj
 0001:0008ffb0       _CrtMemCheckpoint          0000000180090fb0 f   libucrtd:debug_heap.obj
 0001:00090230       _CrtMemDifference          0000000180091230 f   libucrtd:debug_heap.obj
 0001:00090590       _CrtMemDumpAllObjectsSince 0000000180091590 f   libucrtd:debug_heap.obj
 0001:000905f0       _CrtMemDumpStatistics      00000001800915f0 f   libucrtd:debug_heap.obj
 0001:00090790       _CrtReportBlockType        0000000180091790 f   libucrtd:debug_heap.obj
 0001:000907c0       _CrtSetAllocHook           00000001800917c0 f   libucrtd:debug_heap.obj
 0001:000907f0       _CrtSetBreakAlloc          00000001800917f0 f   libucrtd:debug_heap.obj
 0001:00090820       _CrtSetDbgBlockType        0000000180091820 f   libucrtd:debug_heap.obj
 0001:000908c0       _CrtSetDbgFlag             00000001800918c0 f   libucrtd:debug_heap.obj
 0001:00090a20       _CrtSetDumpClient          0000000180091a20 f   libucrtd:debug_heap.obj
 0001:00090a50       __acrt_get_locale_data_prefix 0000000180091a50 f i libucrtd:debug_heap.obj
 0001:00090a70       __p__crtBreakAlloc         0000000180091a70 f   libucrtd:debug_heap.obj
 0001:00090a80       __p__crtDbgFlag            0000000180091a80 f   libucrtd:debug_heap.obj
 0001:00090a90       _aligned_free_dbg          0000000180091a90 f   libucrtd:debug_heap.obj
 0001:00090b80       _aligned_malloc_dbg        0000000180091b80 f   libucrtd:debug_heap.obj
 0001:00090bc0       _aligned_msize_dbg         0000000180091bc0 f   libucrtd:debug_heap.obj
 0001:00090d90       _aligned_offset_malloc_dbg 0000000180091d90 f   libucrtd:debug_heap.obj
 0001:00091080       _aligned_offset_realloc_dbg 0000000180092080 f   libucrtd:debug_heap.obj
 0001:00091530       _aligned_offset_recalloc_dbg 0000000180092530 f   libucrtd:debug_heap.obj
 0001:00091650       _aligned_realloc_dbg       0000000180092650 f   libucrtd:debug_heap.obj
 0001:000916a0       _aligned_recalloc_dbg      00000001800926a0 f   libucrtd:debug_heap.obj
 0001:00091700       _calloc_dbg                0000000180092700 f   libucrtd:debug_heap.obj
 0001:000917a0       _chvalidchk_l              00000001800927a0 f i libucrtd:debug_heap.obj
 0001:000917d0       _expand_dbg                00000001800927d0 f   libucrtd:debug_heap.obj
 0001:00091900       _free_dbg                  0000000180092900 f   libucrtd:debug_heap.obj
 0001:00091970       _ischartype_l              0000000180092970 f i libucrtd:debug_heap.obj
 0001:00091a00       _malloc_dbg                0000000180092a00 f   libucrtd:debug_heap.obj
 0001:00091a40       _msize_dbg                 0000000180092a40 f   libucrtd:debug_heap.obj
 0001:00091be0       _realloc_dbg               0000000180092be0 f   libucrtd:debug_heap.obj
 0001:00091c50       _recalloc_dbg              0000000180092c50 f   libucrtd:debug_heap.obj
 0001:00091d50       _initterm                  0000000180092d50 f   libucrtd:initterm.obj
 0001:00091db0       _initterm_e                0000000180092db0 f   libucrtd:initterm.obj
 0001:00092300       strcpy_s                   0000000180093300 f   libucrtd:strcpy_s.obj
 0001:000929a0       strcat_s                   00000001800939a0 f   libucrtd:strcat_s.obj
 0001:000929d0       ??$?B$$A6AH_K@Z@__crt_fast_encoded_nullptr_t@@QEBAP6AH_K@ZXZ 00000001800939d0 f i libucrtd:new_handler.obj
 0001:000929f0       ??$__crt_fast_decode_pointer@P6AH_K@Z@@YAP6AH_K@ZQ6AH0@Z@Z 00000001800939f0 f i libucrtd:new_handler.obj
 0001:00092a30       ??$__crt_fast_encode_pointer@P6AH_K@Z@@YAP6AH_K@ZQ6AH0@Z@Z 0000000180093a30 f i libucrtd:new_handler.obj
 0001:00092a70       ?_set_new_handler@@YAP6AH_K@ZH@Z 0000000180093a70 f   libucrtd:new_handler.obj
 0001:00092ae0       ?initialize@?$dual_state_global@P6AH_K@Z@__crt_state_management@@QEAAXQ6AH_K@Z@Z 0000000180093ae0 f i libucrtd:new_handler.obj
 0001:00092b30       ?value@?$dual_state_global@P6AH_K@Z@__crt_state_management@@QEAAAEAP6AH_K@ZXZ 0000000180093b30 f i libucrtd:new_handler.obj
 0001:00092b50       __acrt_initialize_new_handler 0000000180093b50 f   libucrtd:new_handler.obj
 0001:00092b70       _callnewh                  0000000180093b70 f   libucrtd:new_handler.obj
 0001:00092bc0       _query_new_handler         0000000180093bc0 f   libucrtd:new_handler.obj
 0001:00092c00       _set_new_handler           0000000180093c00 f   libucrtd:new_handler.obj
 0001:00092cb0       _get_terminate             0000000180093cb0 f   libucrtd:terminate.obj
 0001:00092cd0       set_terminate              0000000180093cd0 f   libucrtd:terminate.obj
 0001:00092d10       terminate                  0000000180093d10 f   libucrtd:terminate.obj
 0001:00093b10       _makepath                  0000000180094b10 f   libucrtd:makepath.obj
 0001:00093b60       _makepath_s                0000000180094b60 f   libucrtd:makepath.obj
 0001:00093bb0       _wmakepath                 0000000180094bb0 f   libucrtd:makepath.obj
 0001:00093c00       _wmakepath_s               0000000180094c00 f   libucrtd:makepath.obj
 0001:00096230       ??$tcsncpy_s@AEAPEAD_KAEAPEBDAEB_K@?$__crt_char_traits@D@@SAHAEAPEAD$$QEA_KAEAPEBDAEB_K@Z 0000000180097230 f i libucrtd:splitpath.obj
 0001:00096280       ??$tcsncpy_s@AEAPEAD_KAEAPEBDH@?$__crt_char_traits@D@@SAHAEAPEAD$$QEA_KAEAPEBD$$QEAH@Z 0000000180097280 f i libucrtd:splitpath.obj
 0001:000962d0       ??$tcsncpy_s@AEAPEA_W_KAEAPEB_WAEB_K@?$__crt_char_traits@_W@@SAHAEAPEA_W$$QEA_KAEAPEB_WAEB_K@Z 00000001800972d0 f i libucrtd:splitpath.obj
 0001:00096320       ??$tcsncpy_s@AEAPEA_W_KAEAPEB_WH@?$__crt_char_traits@_W@@SAHAEAPEA_W$$QEA_KAEAPEB_W$$QEAH@Z 0000000180097320 f i libucrtd:splitpath.obj
 0001:000965d0       _splitpath                 00000001800975d0 f   libucrtd:splitpath.obj
 0001:00096610       _splitpath_s               0000000180097610 f   libucrtd:splitpath.obj
 0001:000966b0       _wsplitpath                00000001800976b0 f   libucrtd:splitpath.obj
 0001:000966f0       _wsplitpath_s              00000001800976f0 f   libucrtd:splitpath.obj
 0001:00096790       _set_abort_behavior        0000000180097790 f   libucrtd:abort.obj
 0001:000967d0       abort                      00000001800977d0 f   libucrtd:abort.obj
 0001:00096860       strcmp                     0000000180097860 f   libucrtd:strcmp.obj
 0001:000968e0       strlen                     00000001800978e0 f   libucrtd:strlen.obj
 0001:00096990       ??$is_overflow_condition@K@__crt_strtox@@YA_NIK@Z 0000000180097990 f i libucrtd:atox.obj
 0001:00096a00       ??$is_overflow_condition@_K@__crt_strtox@@YA_NI_K@Z 0000000180097a00 f i libucrtd:atox.obj
 0001:00096a70       ??$make_c_string_character_source@D$$T@__crt_strtox@@YA?AV?$c_string_character_source@D@0@QEBD$$T@Z 0000000180097a70 f i libucrtd:atox.obj
 0001:00096ab0       ??$make_c_string_character_source@_W$$T@__crt_strtox@@YA?AV?$c_string_character_source@_W@0@QEB_W$$T@Z 0000000180097ab0 f i libucrtd:atox.obj
 0001:00096af0       ??$parse_integer@KV?$c_string_character_source@D@__crt_strtox@@@__crt_strtox@@YAKQEAU__crt_locale_pointers@@V?$c_string_character_source@D@0@H_N@Z 0000000180097af0 f i libucrtd:atox.obj
 0001:00096f80       ??$parse_integer@KV?$c_string_character_source@_W@__crt_strtox@@@__crt_strtox@@YAKQEAU__crt_locale_pointers@@V?$c_string_character_source@_W@0@H_N@Z 0000000180097f80 f i libucrtd:atox.obj
 0001:00097430       ??$parse_integer@_KV?$c_string_character_source@D@__crt_strtox@@@__crt_strtox@@YA_KQEAU__crt_locale_pointers@@V?$c_string_character_source@D@0@H_N@Z 0000000180098430 f i libucrtd:atox.obj
 0001:00097950       ??$parse_integer@_KV?$c_string_character_source@_W@__crt_strtox@@@__crt_strtox@@YA_KQEAU__crt_locale_pointers@@V?$c_string_character_source@_W@0@H_N@Z 0000000180098950 f i libucrtd:atox.obj
 0001:00097e70       ??$parse_integer_from_string@JD$$T@__crt_strtox@@YAJQEBD$$THQEAU__crt_locale_pointers@@@Z 0000000180098e70 f i libucrtd:atox.obj
 0001:00097ec0       ??$parse_integer_from_string@J_W$$T@__crt_strtox@@YAJQEB_W$$THQEAU__crt_locale_pointers@@@Z 0000000180098ec0 f i libucrtd:atox.obj
 0001:00097f10       ??$parse_integer_from_string@_JD$$T@__crt_strtox@@YA_JQEBD$$THQEAU__crt_locale_pointers@@@Z 0000000180098f10 f i libucrtd:atox.obj
 0001:00097f60       ??$parse_integer_from_string@_J_W$$T@__crt_strtox@@YA_JQEB_W$$THQEAU__crt_locale_pointers@@@Z 0000000180098f60 f i libucrtd:atox.obj
 0001:00097fb0       ??0?$c_string_character_source@D@__crt_strtox@@QEAA@QEBDQEAPEBD@Z 0000000180098fb0 f i libucrtd:atox.obj
 0001:00098000       ??0?$c_string_character_source@_W@__crt_strtox@@QEAA@QEB_WQEAPEB_W@Z 0000000180099000 f i libucrtd:atox.obj
 0001:00098050       ??1?$c_string_character_source@D@__crt_strtox@@QEAA@XZ 0000000180099050 f i libucrtd:atox.obj
 0001:00098080       ??1?$c_string_character_source@_W@__crt_strtox@@QEAA@XZ 0000000180099080 f i libucrtd:atox.obj
 0001:000980b0       ?get@?$c_string_character_source@D@__crt_strtox@@QEAADXZ 00000001800990b0 f i libucrtd:atox.obj
 0001:000980f0       ?get@?$c_string_character_source@_W@__crt_strtox@@QEAA_WXZ 00000001800990f0 f i libucrtd:atox.obj
 0001:00098130       ?is_space@__crt_strtox@@YA_NDQEAU__crt_locale_pointers@@@Z 0000000180099130 f i libucrtd:atox.obj
 0001:00098180       ?is_space@__crt_strtox@@YA_N_WPEAU__crt_locale_pointers@@@Z 0000000180099180 f i libucrtd:atox.obj
 0001:000981c0       ?maximum_signed_value@__crt_strtox@@YAJK@Z 00000001800991c0 f i libucrtd:atox.obj
 0001:000981d0       ?maximum_signed_value@__crt_strtox@@YA_J_K@Z 00000001800991d0 f i libucrtd:atox.obj
 0001:000981e0       ?minimum_signed_value@__crt_strtox@@YAJK@Z 00000001800991e0 f i libucrtd:atox.obj
 0001:000981f0       ?minimum_signed_value@__crt_strtox@@YA_J_K@Z 00000001800991f0 f i libucrtd:atox.obj
 0001:00098200       ?parse_digit@__crt_strtox@@YAID@Z 0000000180099200 f i libucrtd:atox.obj
 0001:00098270       ?parse_digit@__crt_strtox@@YAI_W@Z 0000000180099270 f i libucrtd:atox.obj
 0001:000982c0       ?restore_state@?$c_string_character_source@D@__crt_strtox@@QEAA_NQEBD@Z 00000001800992c0 f i libucrtd:atox.obj
 0001:000982e0       ?restore_state@?$c_string_character_source@_W@__crt_strtox@@QEAA_NQEB_W@Z 00000001800992e0 f i libucrtd:atox.obj
 0001:00098300       ?save_state@?$c_string_character_source@D@__crt_strtox@@QEBAPEBDXZ 0000000180099300 f i libucrtd:atox.obj
 0001:00098310       ?save_state@?$c_string_character_source@_W@__crt_strtox@@QEBAPEB_WXZ 0000000180099310 f i libucrtd:atox.obj
 0001:00098320       ?unget@?$c_string_character_source@D@__crt_strtox@@QEAAXD@Z 0000000180099320 f i libucrtd:atox.obj
 0001:00098400       ?unget@?$c_string_character_source@_W@__crt_strtox@@QEAAX_W@Z 0000000180099400 f i libucrtd:atox.obj
 0001:000984e0       ?validate@?$c_string_character_source@D@__crt_strtox@@QEBA_NXZ 00000001800994e0 f i libucrtd:atox.obj
 0001:000985a0       ?validate@?$c_string_character_source@_W@__crt_strtox@@QEBA_NXZ 00000001800995a0 f i libucrtd:atox.obj
 0001:00098660       ?wide_character_to_digit@__crt_strtox@@YAH_W@Z 0000000180099660 f i libucrtd:atox.obj
 0001:000989d0       __ascii_iswalpha           00000001800999d0 f i libucrtd:atox.obj
 0001:00098a10       __ascii_toupper            0000000180099a10 f i libucrtd:atox.obj
 0001:00098a30       __ascii_towupper           0000000180099a30 f i libucrtd:atox.obj
 0001:00098a50       _atoi64                    0000000180099a50 f   libucrtd:atox.obj
 0001:00098a80       _atoi64_l                  0000000180099a80 f   libucrtd:atox.obj
 0001:00098ab0       _atoi_l                    0000000180099ab0 f   libucrtd:atox.obj
 0001:00098ae0       _atol_l                    0000000180099ae0 f   libucrtd:atox.obj
 0001:00098b10       _atoll_l                   0000000180099b10 f   libucrtd:atox.obj
 0001:00098b40       _wtoi                      0000000180099b40 f   libucrtd:atox.obj
 0001:00098b70       _wtoi64                    0000000180099b70 f   libucrtd:atox.obj
 0001:00098ba0       _wtoi64_l                  0000000180099ba0 f   libucrtd:atox.obj
 0001:00098bd0       _wtoi_l                    0000000180099bd0 f   libucrtd:atox.obj
 0001:00098c00       _wtol                      0000000180099c00 f   libucrtd:atox.obj
 0001:00098c30       _wtol_l                    0000000180099c30 f   libucrtd:atox.obj
 0001:00098c60       _wtoll                     0000000180099c60 f   libucrtd:atox.obj
 0001:00098c90       _wtoll_l                   0000000180099c90 f   libucrtd:atox.obj
 0001:00098cc0       atoi                       0000000180099cc0 f   libucrtd:atox.obj
 0001:00098cf0       atol                       0000000180099cf0 f   libucrtd:atox.obj
 0001:00098d20       atoll                      0000000180099d20 f   libucrtd:atox.obj
 0001:00098d60       strncmp                    0000000180099d60 f   libucrtd:strncmp.obj
 0001:00098de0       wcsncmp                    0000000180099de0 f   libucrtd:wcsncmp.obj
 0001:00098e70       _CrtGetDebugFillThreshold  0000000180099e70 f   libucrtd:debug_fill_threshold.obj
 0001:00098e80       _CrtSetDebugFillThreshold  0000000180099e80 f   libucrtd:debug_fill_threshold.obj
 0001:00098eb0       ??$make_c_string_character_source@DPEAPEAD@__crt_strtox@@YA?AV?$c_string_character_source@D@0@QEBDQEAPEAD@Z 0000000180099eb0 f i libucrtd:strtox.obj
 0001:00098ef0       ??$make_c_string_character_source@_WPEAPEA_W@__crt_strtox@@YA?AV?$c_string_character_source@_W@0@QEB_WQEAPEA_W@Z 0000000180099ef0 f i libucrtd:strtox.obj
 0001:00098f30       ??$parse_integer_from_string@JDPEAPEAD@__crt_strtox@@YAJQEBDQEAPEADHQEAU__crt_locale_pointers@@@Z 0000000180099f30 f i libucrtd:strtox.obj
 0001:00098f80       ??$parse_integer_from_string@J_WPEAPEA_W@__crt_strtox@@YAJQEB_WQEAPEA_WHQEAU__crt_locale_pointers@@@Z 0000000180099f80 f i libucrtd:strtox.obj
 0001:00098fd0       ??$parse_integer_from_string@KDPEAPEAD@__crt_strtox@@YAKQEBDQEAPEADHQEAU__crt_locale_pointers@@@Z 0000000180099fd0 f i libucrtd:strtox.obj
 0001:00099020       ??$parse_integer_from_string@K_WPEAPEA_W@__crt_strtox@@YAKQEB_WQEAPEA_WHQEAU__crt_locale_pointers@@@Z 000000018009a020 f i libucrtd:strtox.obj
 0001:00099070       ??$parse_integer_from_string@_JDPEAPEAD@__crt_strtox@@YA_JQEBDQEAPEADHQEAU__crt_locale_pointers@@@Z 000000018009a070 f i libucrtd:strtox.obj
 0001:000990c0       ??$parse_integer_from_string@_J_WPEAPEA_W@__crt_strtox@@YA_JQEB_WQEAPEA_WHQEAU__crt_locale_pointers@@@Z 000000018009a0c0 f i libucrtd:strtox.obj
 0001:00099110       ??$parse_integer_from_string@_KDPEAPEAD@__crt_strtox@@YA_KQEBDQEAPEADHQEAU__crt_locale_pointers@@@Z 000000018009a110 f i libucrtd:strtox.obj
 0001:00099160       ??$parse_integer_from_string@_K_WPEAPEA_W@__crt_strtox@@YA_KQEB_WQEAPEA_WHQEAU__crt_locale_pointers@@@Z 000000018009a160 f i libucrtd:strtox.obj
 0001:000991b0       _strtoi64                  000000018009a1b0 f   libucrtd:strtox.obj
 0001:000991e0       _strtoi64_l                000000018009a1e0 f   libucrtd:strtox.obj
 0001:00099220       _strtoimax_l               000000018009a220 f   libucrtd:strtox.obj
 0001:00099260       _strtol_l                  000000018009a260 f   libucrtd:strtox.obj
 0001:000992a0       _strtoll_l                 000000018009a2a0 f   libucrtd:strtox.obj
 0001:000992e0       _strtoui64                 000000018009a2e0 f   libucrtd:strtox.obj
 0001:00099310       _strtoui64_l               000000018009a310 f   libucrtd:strtox.obj
 0001:00099350       _strtoul_l                 000000018009a350 f   libucrtd:strtox.obj
 0001:00099390       _strtoull_l                000000018009a390 f   libucrtd:strtox.obj
 0001:000993d0       _strtoumax_l               000000018009a3d0 f   libucrtd:strtox.obj
 0001:00099410       _wcstoi64                  000000018009a410 f   libucrtd:strtox.obj
 0001:00099440       _wcstoi64_l                000000018009a440 f   libucrtd:strtox.obj
 0001:00099480       _wcstoimax_l               000000018009a480 f   libucrtd:strtox.obj
 0001:000994c0       _wcstol_l                  000000018009a4c0 f   libucrtd:strtox.obj
 0001:00099500       _wcstoll_l                 000000018009a500 f   libucrtd:strtox.obj
 0001:00099540       _wcstoui64                 000000018009a540 f   libucrtd:strtox.obj
 0001:00099570       _wcstoui64_l               000000018009a570 f   libucrtd:strtox.obj
 0001:000995b0       _wcstoul_l                 000000018009a5b0 f   libucrtd:strtox.obj
 0001:000995f0       _wcstoull_l                000000018009a5f0 f   libucrtd:strtox.obj
 0001:00099630       _wcstoumax_l               000000018009a630 f   libucrtd:strtox.obj
 0001:00099670       strtoimax                  000000018009a670 f   libucrtd:strtox.obj
 0001:000996a0       strtol                     000000018009a6a0 f   libucrtd:strtox.obj
 0001:000996d0       strtoll                    000000018009a6d0 f   libucrtd:strtox.obj
 0001:00099700       strtoul                    000000018009a700 f   libucrtd:strtox.obj
 0001:00099730       strtoull                   000000018009a730 f   libucrtd:strtox.obj
 0001:00099760       strtoumax                  000000018009a760 f   libucrtd:strtox.obj
 0001:00099790       wcstoimax                  000000018009a790 f   libucrtd:strtox.obj
 0001:000997c0       wcstol                     000000018009a7c0 f   libucrtd:strtox.obj
 0001:000997f0       wcstoll                    000000018009a7f0 f   libucrtd:strtox.obj
 0001:00099820       wcstoul                    000000018009a820 f   libucrtd:strtox.obj
 0001:00099850       wcstoull                   000000018009a850 f   libucrtd:strtox.obj
 0001:00099880       wcstoumax                  000000018009a880 f   libucrtd:strtox.obj
 0001:000998b0       _mbtowc_l                  000000018009a8b0 f   libucrtd:mbtowc.obj
 0001:00099d10       mbtowc                     000000018009ad10 f   libucrtd:mbtowc.obj
 0001:00099d40       _wctomb_l                  000000018009ad40 f   libucrtd:wctomb.obj
 0001:00099e00       _wctomb_s_l                000000018009ae00 f   libucrtd:wctomb.obj
 0001:0009a380       wctomb                     000000018009b380 f   libucrtd:wctomb.obj
 0001:0009a3e0       wctomb_s                   000000018009b3e0 f   libucrtd:wctomb.obj
 0001:0009a430       ??$?RU__acrt_ptd@@@__crt_internal_free_policy@@QEBAXQEBU__acrt_ptd@@@Z 000000018009b430 f i libucrtd:per_thread_data.obj
 0001:0009a830       ??0?$__crt_unique_heap_ptr@U__acrt_ptd@@U__crt_internal_free_policy@@@@QEAA@QEAU__acrt_ptd@@@Z 000000018009b830 f i libucrtd:per_thread_data.obj
 0001:0009a850       ??0__crt_scoped_get_last_error_reset@@QEAA@XZ 000000018009b850 f i libucrtd:per_thread_data.obj
 0001:0009a870       ??1?$__crt_unique_heap_ptr@U__acrt_ptd@@U__crt_internal_free_policy@@@@QEAA@XZ 000000018009b870 f i libucrtd:per_thread_data.obj
 0001:0009a890       ??1__crt_scoped_get_last_error_reset@@QEAA@XZ 000000018009b890 f i libucrtd:per_thread_data.obj
 0001:0009a8b0       ??B?$__crt_unique_heap_ptr@U__acrt_ptd@@U__crt_internal_free_policy@@@@QEBA_NXZ 000000018009b8b0 f i libucrtd:per_thread_data.obj
 0001:0009ac00       ?dangerous_get_state_array@?$dual_state_global@PEAU__crt_locale_data@@@__crt_state_management@@QEAAPEAPEAU__crt_locale_data@@XZ 000000018009bc00 f i libucrtd:per_thread_data.obj
 0001:0009adc0       ?detach@?$__crt_unique_heap_ptr@U__acrt_ptd@@U__crt_internal_free_policy@@@@QEAAPEAU__acrt_ptd@@XZ 000000018009bdc0 f i libucrtd:per_thread_data.obj
 0001:0009adf0       ?get@?$__crt_unique_heap_ptr@U__acrt_ptd@@U__crt_internal_free_policy@@@@QEBAPEAU__acrt_ptd@@XZ 000000018009bdf0 f i libucrtd:per_thread_data.obj
 0001:0009ae00       ?get_current_state_index@__crt_state_management@@YA_KAEBV__crt_scoped_get_last_error_reset@@@Z 000000018009be00 f i libucrtd:per_thread_data.obj
 0001:0009afb0       ?is_valid@?$__crt_unique_heap_ptr@U__acrt_ptd@@U__crt_internal_free_policy@@@@QEBA_NXZ 000000018009bfb0 f i libucrtd:per_thread_data.obj
 0001:0009afe0       ?release@?$__crt_unique_heap_ptr@U__acrt_ptd@@U__crt_internal_free_policy@@@@QEAAXXZ 000000018009bfe0 f i libucrtd:per_thread_data.obj
 0001:0009b110       ?value@?$dual_state_global@PEAU__crt_locale_data@@@__crt_state_management@@QEAAAEAPEAU__crt_locale_data@@XZ 000000018009c110 f i libucrtd:per_thread_data.obj
 0001:0009b130       __acrt_freeptd             000000018009c130 f   libucrtd:per_thread_data.obj
 0001:0009b170       __acrt_getptd              000000018009c170 f   libucrtd:per_thread_data.obj
 0001:0009b1a0       __acrt_getptd_head         000000018009c1a0 f   libucrtd:per_thread_data.obj
 0001:0009b1d0       __acrt_getptd_noexit       000000018009c1d0 f   libucrtd:per_thread_data.obj
 0001:0009b1e0       __acrt_initialize_ptd      000000018009c1e0 f   libucrtd:per_thread_data.obj
 0001:0009b220       __acrt_uninitialize_ptd    000000018009c220 f   libucrtd:per_thread_data.obj
 0001:0009b250       __threadhandle             000000018009c250 f   libucrtd:per_thread_data.obj
 0001:0009b260       __threadid                 000000018009c260 f   libucrtd:per_thread_data.obj
 0001:0009b270       ?value@?$dual_state_global@PEAU__crt_multibyte_data@@@__crt_state_management@@QEAAAEAPEAU__crt_multibyte_data@@XZ 000000018009c270 f i libucrtd:locale_update.obj
 0001:0009b290       __acrt_should_sync_with_global_locale 000000018009c290 f i libucrtd:locale_update.obj
 0001:0009b2d0       __acrt_update_locale_info  000000018009c2d0 f   libucrtd:locale_update.obj
 0001:0009b320       __acrt_update_multibyte_info 000000018009c320 f   libucrtd:locale_update.obj
 0001:0009b370       ?__acrt_fp_classify@@YA?AW4__acrt_fp_class@@AEBN@Z 000000018009c370 f i libucrtd:cvt.obj
 0001:0009b470       ?__acrt_fp_is_negative@@YA_NAEBN@Z 000000018009c470 f i libucrtd:cvt.obj
 0001:0009ce30       ?strrchr@@YAPEADQEADH@Z    000000018009de30 f i libucrtd:cvt.obj
 0001:0009ce50       __acrt_fp_format           000000018009de50 f   libucrtd:cvt.obj
 0001:0009d500       _fputwc_nolock             000000018009e500 f   libucrtd:fputwc.obj
 0001:0009d770       _fputwchar                 000000018009e770 f   libucrtd:fputwc.obj
 0001:0009d7a0       _putwc_nolock              000000018009e7a0 f   libucrtd:fputwc.obj
 0001:0009d7d0       fputwc                     000000018009e7d0 f   libucrtd:fputwc.obj
 0001:0009d8c0       putwc                      000000018009e8c0 f   libucrtd:fputwc.obj
 0001:0009d8f0       putwchar                   000000018009e8f0 f   libucrtd:fputwc.obj
 0001:0009d910       ?lowio_handle@__crt_stdio_stream@@QEBAHXZ 000000018009e910 f i libucrtd:fileno.obj
 0001:0009d940       _fileno                    000000018009e940 f   libucrtd:fileno.obj
 0001:0009da20       ??$?RPEAU__crt_stdio_stream_data@@@__crt_internal_free_policy@@QEBAXQEBQEAU__crt_stdio_stream_data@@@Z 000000018009ea20 f i libucrtd:_file.obj
 0001:0009da50       ??0?$__crt_unique_heap_ptr@PEAU__crt_stdio_stream_data@@U__crt_internal_free_policy@@@@QEAA@QEAPEAU__crt_stdio_stream_data@@@Z 000000018009ea50 f i libucrtd:_file.obj
 0001:0009da70       ??1?$__crt_unique_heap_ptr@PEAU__crt_stdio_stream_data@@U__crt_internal_free_policy@@@@QEAA@XZ 000000018009ea70 f i libucrtd:_file.obj
 0001:0009da90       ?detach@?$__crt_unique_heap_ptr@PEAU__crt_stdio_stream_data@@U__crt_internal_free_policy@@@@QEAAPEAPEAU__crt_stdio_stream_data@@XZ 000000018009ea90 f i libucrtd:_file.obj
 0001:0009dac0       ?release@?$__crt_unique_heap_ptr@PEAU__crt_stdio_stream_data@@U__crt_internal_free_policy@@@@QEAAXXZ 000000018009eac0 f i libucrtd:_file.obj
 0001:0009daf0       __acrt_initialize_stdio    000000018009eaf0 f   libucrtd:_file.obj
 0001:0009dce0       __acrt_iob_func            000000018009ece0 f   libucrtd:_file.obj
 0001:0009dd00       __acrt_uninitialize_stdio  000000018009ed00 f   libucrtd:_file.obj
 0001:0009dd90       _get_stream_buffer_pointers 000000018009ed90 f   libucrtd:_file.obj
 0001:0009dec0       _lock_file                 000000018009eec0 f   libucrtd:_file.obj
 0001:0009df00       _unlock_file               000000018009ef00 f   libucrtd:_file.obj
 0001:0009df40       _get_printf_count_output   000000018009ef40 f   libucrtd:printf_count_output.obj
 0001:0009df70       _set_printf_count_output   000000018009ef70 f   libucrtd:printf_count_output.obj
 0001:0009dfe0       ?has_any_buffer@__crt_stdio_stream@@QEBA_NXZ 000000018009efe0 f i libucrtd:_sftbuf.obj
 0001:0009e000       ?has_any_of@__crt_stdio_stream@@QEBA_NJ@Z 000000018009f000 f i libucrtd:_sftbuf.obj
 0001:0009e040       ?has_temporary_buffer@__crt_stdio_stream@@QEBA_NXZ 000000018009f040 f i libucrtd:_sftbuf.obj
 0001:0009e060       ?set_flags@__crt_stdio_stream@@QEBA_NJ@Z 000000018009f060 f i libucrtd:_sftbuf.obj
 0001:0009e0d0       ?unset_flags@__crt_stdio_stream@@QEBA_NJ@Z 000000018009f0d0 f i libucrtd:_sftbuf.obj
 0001:0009e130       __acrt_should_use_temporary_buffer 000000018009f130 f   libucrtd:_sftbuf.obj
 0001:0009e180       __acrt_stdio_begin_temporary_buffering_nolock 000000018009f180 f   libucrtd:_sftbuf.obj
 0001:0009e3c0       __acrt_stdio_end_temporary_buffering_nolock 000000018009f3c0 f   libucrtd:_sftbuf.obj
 0001:0009e470       ??$?RU__crt_locale_data@@@__crt_internal_free_policy@@QEBAXQEBU__crt_locale_data@@@Z 000000018009f470 f i libucrtd:wsetlocale.obj
 0001:0009e4a0       ??$?RU__crt_locale_pointers@@@__crt_internal_free_policy@@QEBAXQEBU__crt_locale_pointers@@@Z 000000018009f4a0 f i libucrtd:wsetlocale.obj
 0001:0009e4d0       ??$?RU__crt_multibyte_data@@@__crt_internal_free_policy@@QEBAXQEBU__crt_multibyte_data@@@Z 000000018009f4d0 f i libucrtd:wsetlocale.obj
 0001:0009ea30       ??0?$__crt_unique_heap_ptr@U__crt_locale_data@@U__crt_internal_free_policy@@@@QEAA@QEAU__crt_locale_data@@@Z 000000018009fa30 f i libucrtd:wsetlocale.obj
 0001:0009ea50       ??0?$__crt_unique_heap_ptr@U__crt_locale_pointers@@U__crt_internal_free_policy@@@@QEAA@QEAU__crt_locale_pointers@@@Z 000000018009fa50 f i libucrtd:wsetlocale.obj
 0001:0009ea70       ??0?$__crt_unique_heap_ptr@U__crt_multibyte_data@@U__crt_internal_free_policy@@@@QEAA@QEAU__crt_multibyte_data@@@Z 000000018009fa70 f i libucrtd:wsetlocale.obj
 0001:0009ea90       ??0_expandlocale_locale_name_cache@@QEAA@QEA_W_KQEAU__crt_qualified_locale_data@@@Z 000000018009fa90 f i libucrtd:wsetlocale.obj
 0001:0009eb40       ??1?$__crt_unique_heap_ptr@U__crt_locale_data@@U__crt_internal_free_policy@@@@QEAA@XZ 000000018009fb40 f i libucrtd:wsetlocale.obj
 0001:0009eb60       ??1?$__crt_unique_heap_ptr@U__crt_locale_pointers@@U__crt_internal_free_policy@@@@QEAA@XZ 000000018009fb60 f i libucrtd:wsetlocale.obj
 0001:0009eb80       ??1?$__crt_unique_heap_ptr@U__crt_multibyte_data@@U__crt_internal_free_policy@@@@QEAA@XZ 000000018009fb80 f i libucrtd:wsetlocale.obj
 0001:0009eba0       ??1_expandlocale_locale_name_cache@@QEAA@XZ 000000018009fba0 f i libucrtd:wsetlocale.obj
 0001:0009ec20       ??B?$__crt_unique_heap_ptr@U__crt_locale_data@@U__crt_internal_free_policy@@@@QEBA_NXZ 000000018009fc20 f i libucrtd:wsetlocale.obj
 0001:0009ec40       ??B?$__crt_unique_heap_ptr@U__crt_locale_pointers@@U__crt_internal_free_policy@@@@QEBA_NXZ 000000018009fc40 f i libucrtd:wsetlocale.obj
 0001:0009ec60       ??B?$__crt_unique_heap_ptr@U__crt_multibyte_data@@U__crt_internal_free_policy@@@@QEBA_NXZ 000000018009fc60 f i libucrtd:wsetlocale.obj
 0001:0009f110       ?commit_locale_name@_expandlocale_locale_name_cache@@QEAAXQEB_W_K@Z 00000001800a0110 f i libucrtd:wsetlocale.obj
 0001:0009f190       ?commit_locale_name_cache_already_updated@_expandlocale_locale_name_cache@@QEAAXQEB_W_K@Z 00000001800a0190 f i libucrtd:wsetlocale.obj
